   1              		.file	"testHexIO.cpp"
   2              		.text
   3              	.Ltext0:
   4              		.section	.text._ZStorSt13_Ios_OpenmodeS_,"axG",@progbits,_ZStorSt13_Ios_OpenmodeS_,comdat
   5              		.weak	_ZStorSt13_Ios_OpenmodeS_
   7              	_ZStorSt13_Ios_OpenmodeS_:
   8              	.LFB595:
   9              		.file 1 "/usr/include/c++/4.8/bits/ios_base.h"
   1:/usr/include/c++/4.8/bits/ios_base.h **** // Iostreams base classes -*- C++ -*-
   2:/usr/include/c++/4.8/bits/ios_base.h **** 
   3:/usr/include/c++/4.8/bits/ios_base.h **** // Copyright (C) 1997-2013 Free Software Foundation, Inc.
   4:/usr/include/c++/4.8/bits/ios_base.h **** //
   5:/usr/include/c++/4.8/bits/ios_base.h **** // This file is part of the GNU ISO C++ Library.  This library is free
   6:/usr/include/c++/4.8/bits/ios_base.h **** // software; you can redistribute it and/or modify it under the
   7:/usr/include/c++/4.8/bits/ios_base.h **** // terms of the GNU General Public License as published by the
   8:/usr/include/c++/4.8/bits/ios_base.h **** // Free Software Foundation; either version 3, or (at your option)
   9:/usr/include/c++/4.8/bits/ios_base.h **** // any later version.
  10:/usr/include/c++/4.8/bits/ios_base.h **** 
  11:/usr/include/c++/4.8/bits/ios_base.h **** // This library is distributed in the hope that it will be useful,
  12:/usr/include/c++/4.8/bits/ios_base.h **** // but WITHOUT ANY WARRANTY; without even the implied warranty of
  13:/usr/include/c++/4.8/bits/ios_base.h **** // MERCHANTABILITY or FITNESS FOR A PARTICULAR PURPOSE.  See the
  14:/usr/include/c++/4.8/bits/ios_base.h **** // GNU General Public License for more details.
  15:/usr/include/c++/4.8/bits/ios_base.h **** 
  16:/usr/include/c++/4.8/bits/ios_base.h **** // Under Section 7 of GPL version 3, you are granted additional
  17:/usr/include/c++/4.8/bits/ios_base.h **** // permissions described in the GCC Runtime Library Exception, version
  18:/usr/include/c++/4.8/bits/ios_base.h **** // 3.1, as published by the Free Software Foundation.
  19:/usr/include/c++/4.8/bits/ios_base.h **** 
  20:/usr/include/c++/4.8/bits/ios_base.h **** // You should have received a copy of the GNU General Public License and
  21:/usr/include/c++/4.8/bits/ios_base.h **** // a copy of the GCC Runtime Library Exception along with this program;
  22:/usr/include/c++/4.8/bits/ios_base.h **** // see the files COPYING3 and COPYING.RUNTIME respectively.  If not, see
  23:/usr/include/c++/4.8/bits/ios_base.h **** // <http://www.gnu.org/licenses/>.
  24:/usr/include/c++/4.8/bits/ios_base.h **** 
  25:/usr/include/c++/4.8/bits/ios_base.h **** /** @file bits/ios_base.h
  26:/usr/include/c++/4.8/bits/ios_base.h ****  *  This is an internal header file, included by other library headers.
  27:/usr/include/c++/4.8/bits/ios_base.h ****  *  Do not attempt to use it directly. @headername{ios}
  28:/usr/include/c++/4.8/bits/ios_base.h ****  */
  29:/usr/include/c++/4.8/bits/ios_base.h **** 
  30:/usr/include/c++/4.8/bits/ios_base.h **** //
  31:/usr/include/c++/4.8/bits/ios_base.h **** // ISO C++ 14882: 27.4  Iostreams base classes
  32:/usr/include/c++/4.8/bits/ios_base.h **** //
  33:/usr/include/c++/4.8/bits/ios_base.h **** 
  34:/usr/include/c++/4.8/bits/ios_base.h **** #ifndef _IOS_BASE_H
  35:/usr/include/c++/4.8/bits/ios_base.h **** #define _IOS_BASE_H 1
  36:/usr/include/c++/4.8/bits/ios_base.h **** 
  37:/usr/include/c++/4.8/bits/ios_base.h **** #pragma GCC system_header
  38:/usr/include/c++/4.8/bits/ios_base.h **** 
  39:/usr/include/c++/4.8/bits/ios_base.h **** #include <ext/atomicity.h>
  40:/usr/include/c++/4.8/bits/ios_base.h **** #include <bits/localefwd.h>
  41:/usr/include/c++/4.8/bits/ios_base.h **** #include <bits/locale_classes.h>
  42:/usr/include/c++/4.8/bits/ios_base.h **** 
  43:/usr/include/c++/4.8/bits/ios_base.h **** namespace std _GLIBCXX_VISIBILITY(default)
  44:/usr/include/c++/4.8/bits/ios_base.h **** {
  45:/usr/include/c++/4.8/bits/ios_base.h **** _GLIBCXX_BEGIN_NAMESPACE_VERSION
  46:/usr/include/c++/4.8/bits/ios_base.h **** 
  47:/usr/include/c++/4.8/bits/ios_base.h ****   // The following definitions of bitmask types are enums, not ints,
  48:/usr/include/c++/4.8/bits/ios_base.h ****   // as permitted (but not required) in the standard, in order to provide
  49:/usr/include/c++/4.8/bits/ios_base.h ****   // better type safety in iostream calls.  A side effect is that
  50:/usr/include/c++/4.8/bits/ios_base.h ****   // expressions involving them are no longer compile-time constants.
  51:/usr/include/c++/4.8/bits/ios_base.h ****   enum _Ios_Fmtflags 
  52:/usr/include/c++/4.8/bits/ios_base.h ****     { 
  53:/usr/include/c++/4.8/bits/ios_base.h ****       _S_boolalpha 	= 1L << 0,
  54:/usr/include/c++/4.8/bits/ios_base.h ****       _S_dec 		= 1L << 1,
  55:/usr/include/c++/4.8/bits/ios_base.h ****       _S_fixed 		= 1L << 2,
  56:/usr/include/c++/4.8/bits/ios_base.h ****       _S_hex 		= 1L << 3,
  57:/usr/include/c++/4.8/bits/ios_base.h ****       _S_internal 	= 1L << 4,
  58:/usr/include/c++/4.8/bits/ios_base.h ****       _S_left 		= 1L << 5,
  59:/usr/include/c++/4.8/bits/ios_base.h ****       _S_oct 		= 1L << 6,
  60:/usr/include/c++/4.8/bits/ios_base.h ****       _S_right 		= 1L << 7,
  61:/usr/include/c++/4.8/bits/ios_base.h ****       _S_scientific 	= 1L << 8,
  62:/usr/include/c++/4.8/bits/ios_base.h ****       _S_showbase 	= 1L << 9,
  63:/usr/include/c++/4.8/bits/ios_base.h ****       _S_showpoint 	= 1L << 10,
  64:/usr/include/c++/4.8/bits/ios_base.h ****       _S_showpos 	= 1L << 11,
  65:/usr/include/c++/4.8/bits/ios_base.h ****       _S_skipws 	= 1L << 12,
  66:/usr/include/c++/4.8/bits/ios_base.h ****       _S_unitbuf 	= 1L << 13,
  67:/usr/include/c++/4.8/bits/ios_base.h ****       _S_uppercase 	= 1L << 14,
  68:/usr/include/c++/4.8/bits/ios_base.h ****       _S_adjustfield 	= _S_left | _S_right | _S_internal,
  69:/usr/include/c++/4.8/bits/ios_base.h ****       _S_basefield 	= _S_dec | _S_oct | _S_hex,
  70:/usr/include/c++/4.8/bits/ios_base.h ****       _S_floatfield 	= _S_scientific | _S_fixed,
  71:/usr/include/c++/4.8/bits/ios_base.h ****       _S_ios_fmtflags_end = 1L << 16,
  72:/usr/include/c++/4.8/bits/ios_base.h ****       _S_ios_fmtflags_max = __INT_MAX__,
  73:/usr/include/c++/4.8/bits/ios_base.h ****       _S_ios_fmtflags_min = ~__INT_MAX__
  74:/usr/include/c++/4.8/bits/ios_base.h ****     };
  75:/usr/include/c++/4.8/bits/ios_base.h **** 
  76:/usr/include/c++/4.8/bits/ios_base.h ****   inline _GLIBCXX_CONSTEXPR _Ios_Fmtflags
  77:/usr/include/c++/4.8/bits/ios_base.h ****   operator&(_Ios_Fmtflags __a, _Ios_Fmtflags __b)
  78:/usr/include/c++/4.8/bits/ios_base.h ****   { return _Ios_Fmtflags(static_cast<int>(__a) & static_cast<int>(__b)); }
  79:/usr/include/c++/4.8/bits/ios_base.h **** 
  80:/usr/include/c++/4.8/bits/ios_base.h ****   inline _GLIBCXX_CONSTEXPR _Ios_Fmtflags
  81:/usr/include/c++/4.8/bits/ios_base.h ****   operator|(_Ios_Fmtflags __a, _Ios_Fmtflags __b)
  82:/usr/include/c++/4.8/bits/ios_base.h ****   { return _Ios_Fmtflags(static_cast<int>(__a) | static_cast<int>(__b)); }
  83:/usr/include/c++/4.8/bits/ios_base.h **** 
  84:/usr/include/c++/4.8/bits/ios_base.h ****   inline _GLIBCXX_CONSTEXPR _Ios_Fmtflags
  85:/usr/include/c++/4.8/bits/ios_base.h ****   operator^(_Ios_Fmtflags __a, _Ios_Fmtflags __b)
  86:/usr/include/c++/4.8/bits/ios_base.h ****   { return _Ios_Fmtflags(static_cast<int>(__a) ^ static_cast<int>(__b)); }
  87:/usr/include/c++/4.8/bits/ios_base.h **** 
  88:/usr/include/c++/4.8/bits/ios_base.h ****   inline _GLIBCXX_CONSTEXPR _Ios_Fmtflags
  89:/usr/include/c++/4.8/bits/ios_base.h ****   operator~(_Ios_Fmtflags __a)
  90:/usr/include/c++/4.8/bits/ios_base.h ****   { return _Ios_Fmtflags(~static_cast<int>(__a)); }
  91:/usr/include/c++/4.8/bits/ios_base.h **** 
  92:/usr/include/c++/4.8/bits/ios_base.h ****   inline const _Ios_Fmtflags&
  93:/usr/include/c++/4.8/bits/ios_base.h ****   operator|=(_Ios_Fmtflags& __a, _Ios_Fmtflags __b)
  94:/usr/include/c++/4.8/bits/ios_base.h ****   { return __a = __a | __b; }
  95:/usr/include/c++/4.8/bits/ios_base.h **** 
  96:/usr/include/c++/4.8/bits/ios_base.h ****   inline const _Ios_Fmtflags&
  97:/usr/include/c++/4.8/bits/ios_base.h ****   operator&=(_Ios_Fmtflags& __a, _Ios_Fmtflags __b)
  98:/usr/include/c++/4.8/bits/ios_base.h ****   { return __a = __a & __b; }
  99:/usr/include/c++/4.8/bits/ios_base.h **** 
 100:/usr/include/c++/4.8/bits/ios_base.h ****   inline const _Ios_Fmtflags&
 101:/usr/include/c++/4.8/bits/ios_base.h ****   operator^=(_Ios_Fmtflags& __a, _Ios_Fmtflags __b)
 102:/usr/include/c++/4.8/bits/ios_base.h ****   { return __a = __a ^ __b; }
 103:/usr/include/c++/4.8/bits/ios_base.h **** 
 104:/usr/include/c++/4.8/bits/ios_base.h **** 
 105:/usr/include/c++/4.8/bits/ios_base.h ****   enum _Ios_Openmode 
 106:/usr/include/c++/4.8/bits/ios_base.h ****     { 
 107:/usr/include/c++/4.8/bits/ios_base.h ****       _S_app 		= 1L << 0,
 108:/usr/include/c++/4.8/bits/ios_base.h ****       _S_ate 		= 1L << 1,
 109:/usr/include/c++/4.8/bits/ios_base.h ****       _S_bin 		= 1L << 2,
 110:/usr/include/c++/4.8/bits/ios_base.h ****       _S_in 		= 1L << 3,
 111:/usr/include/c++/4.8/bits/ios_base.h ****       _S_out 		= 1L << 4,
 112:/usr/include/c++/4.8/bits/ios_base.h ****       _S_trunc 		= 1L << 5,
 113:/usr/include/c++/4.8/bits/ios_base.h ****       _S_ios_openmode_end = 1L << 16,
 114:/usr/include/c++/4.8/bits/ios_base.h ****       _S_ios_openmode_max = __INT_MAX__,
 115:/usr/include/c++/4.8/bits/ios_base.h ****       _S_ios_openmode_min = ~__INT_MAX__
 116:/usr/include/c++/4.8/bits/ios_base.h ****     };
 117:/usr/include/c++/4.8/bits/ios_base.h **** 
 118:/usr/include/c++/4.8/bits/ios_base.h ****   inline _GLIBCXX_CONSTEXPR _Ios_Openmode
 119:/usr/include/c++/4.8/bits/ios_base.h ****   operator&(_Ios_Openmode __a, _Ios_Openmode __b)
 120:/usr/include/c++/4.8/bits/ios_base.h ****   { return _Ios_Openmode(static_cast<int>(__a) & static_cast<int>(__b)); }
 121:/usr/include/c++/4.8/bits/ios_base.h **** 
 122:/usr/include/c++/4.8/bits/ios_base.h ****   inline _GLIBCXX_CONSTEXPR _Ios_Openmode
 123:/usr/include/c++/4.8/bits/ios_base.h ****   operator|(_Ios_Openmode __a, _Ios_Openmode __b)
 124:/usr/include/c++/4.8/bits/ios_base.h ****   { return _Ios_Openmode(static_cast<int>(__a) | static_cast<int>(__b)); }
  10              		.loc 1 124 0
  11              		.cfi_startproc
  12 0000 55       		pushq	%rbp
  13              		.cfi_def_cfa_offset 16
  14              		.cfi_offset 6, -16
  15 0001 4889E5   		movq	%rsp, %rbp
  16              		.cfi_def_cfa_register 6
  17 0004 897DFC   		movl	%edi, -4(%rbp)
  18 0007 8975F8   		movl	%esi, -8(%rbp)
  19              		.loc 1 124 0
  20 000a 8B45F8   		movl	-8(%rbp), %eax
  21 000d 8B55FC   		movl	-4(%rbp), %edx
  22 0010 09D0     		orl	%edx, %eax
  23 0012 5D       		popq	%rbp
  24              		.cfi_def_cfa 7, 8
  25 0013 C3       		ret
  26              		.cfi_endproc
  27              	.LFE595:
  29              		.section	.rodata
  30              	.LC0:
  31 0000 44656661 		.string	"DefaultSuite"
  31      756C7453 
  31      75697465 
  31      00
  32              		.section	.text._ZN13UnitTestSuite12GetSuiteNameEv,"axG",@progbits,_ZN13UnitTestSuite12GetSuiteName
  33              		.weak	_ZN13UnitTestSuite12GetSuiteNameEv
  35              	_ZN13UnitTestSuite12GetSuiteNameEv:
  36              	.LFB1035:
  37              		.file 2 "/home/pandu/Desktop/DigitalLogicDesign/Lab/03-/makestuff/libs/libutpp/TestSuite.h"
   1:/home/pandu/Desktop/DigitalLogicDesign/Lab/03-/makestuff/libs/libutpp/TestSuite.h **** #ifndef UNITTEST_TESTSUITE_H
   2:/home/pandu/Desktop/DigitalLogicDesign/Lab/03-/makestuff/libs/libutpp/TestSuite.h **** #define UNITTEST_TESTSUITE_H
   3:/home/pandu/Desktop/DigitalLogicDesign/Lab/03-/makestuff/libs/libutpp/TestSuite.h **** 
   4:/home/pandu/Desktop/DigitalLogicDesign/Lab/03-/makestuff/libs/libutpp/TestSuite.h **** namespace UnitTestSuite {
   5:/home/pandu/Desktop/DigitalLogicDesign/Lab/03-/makestuff/libs/libutpp/TestSuite.h **** 
   6:/home/pandu/Desktop/DigitalLogicDesign/Lab/03-/makestuff/libs/libutpp/TestSuite.h ****     inline char const* GetSuiteName ()
   7:/home/pandu/Desktop/DigitalLogicDesign/Lab/03-/makestuff/libs/libutpp/TestSuite.h ****     {
  38              		.loc 2 7 0
  39              		.cfi_startproc
  40 0000 55       		pushq	%rbp
  41              		.cfi_def_cfa_offset 16
  42              		.cfi_offset 6, -16
  43 0001 4889E5   		movq	%rsp, %rbp
  44              		.cfi_def_cfa_register 6
   8:/home/pandu/Desktop/DigitalLogicDesign/Lab/03-/makestuff/libs/libutpp/TestSuite.h ****         return "DefaultSuite";
  45              		.loc 2 8 0
  46 0004 B8000000 		movl	$.LC0, %eax
  46      00
   9:/home/pandu/Desktop/DigitalLogicDesign/Lab/03-/makestuff/libs/libutpp/TestSuite.h ****     }
  47              		.loc 2 9 0
  48 0009 5D       		popq	%rbp
  49              		.cfi_def_cfa 7, 8
  50 000a C3       		ret
  51              		.cfi_endproc
  52              	.LFE1035:
  54              		.section	.text._ZN8UnitTest15MemoryOutStreamC1Ev,"axG",@progbits,_ZN8UnitTest15MemoryOutStreamC1Ev
  55              		.align 2
  56              		.weak	_ZN8UnitTest15MemoryOutStreamC1Ev
  58              	_ZN8UnitTest15MemoryOutStreamC1Ev:
  59              	.LFB1071:
  60              		.file 3 "/home/pandu/Desktop/DigitalLogicDesign/Lab/03-/makestuff/libs/libutpp/MemoryOutStream.h"
   1:/home/pandu/Desktop/DigitalLogicDesign/Lab/03-/makestuff/libs/libutpp/MemoryOutStream.h **** #ifndef UNITTEST_MEMORYOUTSTREAM_H
   2:/home/pandu/Desktop/DigitalLogicDesign/Lab/03-/makestuff/libs/libutpp/MemoryOutStream.h **** #define UNITTEST_MEMORYOUTSTREAM_H
   3:/home/pandu/Desktop/DigitalLogicDesign/Lab/03-/makestuff/libs/libutpp/MemoryOutStream.h **** 
   4:/home/pandu/Desktop/DigitalLogicDesign/Lab/03-/makestuff/libs/libutpp/MemoryOutStream.h **** #include "Config.h"
   5:/home/pandu/Desktop/DigitalLogicDesign/Lab/03-/makestuff/libs/libutpp/MemoryOutStream.h **** 
   6:/home/pandu/Desktop/DigitalLogicDesign/Lab/03-/makestuff/libs/libutpp/MemoryOutStream.h **** #ifndef UNITTEST_USE_CUSTOM_STREAMS
   7:/home/pandu/Desktop/DigitalLogicDesign/Lab/03-/makestuff/libs/libutpp/MemoryOutStream.h **** 
   8:/home/pandu/Desktop/DigitalLogicDesign/Lab/03-/makestuff/libs/libutpp/MemoryOutStream.h **** #include <sstream>
   9:/home/pandu/Desktop/DigitalLogicDesign/Lab/03-/makestuff/libs/libutpp/MemoryOutStream.h **** 
  10:/home/pandu/Desktop/DigitalLogicDesign/Lab/03-/makestuff/libs/libutpp/MemoryOutStream.h **** namespace UnitTest
  11:/home/pandu/Desktop/DigitalLogicDesign/Lab/03-/makestuff/libs/libutpp/MemoryOutStream.h **** {
  12:/home/pandu/Desktop/DigitalLogicDesign/Lab/03-/makestuff/libs/libutpp/MemoryOutStream.h **** 
  13:/home/pandu/Desktop/DigitalLogicDesign/Lab/03-/makestuff/libs/libutpp/MemoryOutStream.h **** class MemoryOutStream : public std::ostringstream
  14:/home/pandu/Desktop/DigitalLogicDesign/Lab/03-/makestuff/libs/libutpp/MemoryOutStream.h **** {
  15:/home/pandu/Desktop/DigitalLogicDesign/Lab/03-/makestuff/libs/libutpp/MemoryOutStream.h **** public:
  16:/home/pandu/Desktop/DigitalLogicDesign/Lab/03-/makestuff/libs/libutpp/MemoryOutStream.h ****     MemoryOutStream() {}
  61              		.loc 3 16 0
  62              		.cfi_startproc
  63              		.cfi_personality 0x3,__gxx_personality_v0
  64              		.cfi_lsda 0x3,.LLSDA1071
  65 0000 55       		pushq	%rbp
  66              		.cfi_def_cfa_offset 16
  67              		.cfi_offset 6, -16
  68 0001 4889E5   		movq	%rsp, %rbp
  69              		.cfi_def_cfa_register 6
  70 0004 53       		pushq	%rbx
  71 0005 4883EC18 		subq	$24, %rsp
  72              		.cfi_offset 3, -24
  73 0009 48897DE8 		movq	%rdi, -24(%rbp)
  74              	.LBB2:
  75              		.loc 3 16 0
  76 000d 488B45E8 		movq	-24(%rbp), %rax
  77 0011 4883C060 		addq	$96, %rax
  78 0015 4889C7   		movq	%rax, %rdi
  79              	.LEHB0:
  80 0018 E8000000 		call	_ZNSt9basic_iosIcSt11char_traitsIcEEC2Ev
  80      00
  81              	.LEHE0:
  82 001d B9000000 		movl	$_ZTTN8UnitTest15MemoryOutStreamE+8, %ecx
  82      00
  83 0022 488B45E8 		movq	-24(%rbp), %rax
  84 0026 BA100000 		movl	$16, %edx
  84      00
  85 002b 4889CE   		movq	%rcx, %rsi
  86 002e 4889C7   		movq	%rax, %rdi
  87              	.LEHB1:
  88 0031 E8000000 		call	_ZNSt19basic_ostringstreamIcSt11char_traitsIcESaIcEEC2ESt13_Ios_Openmode
  88      00
  89              	.LEHE1:
  90              		.loc 3 16 0 is_stmt 0 discriminator 6
  91 0036 BA000000 		movl	$_ZTVN8UnitTest15MemoryOutStreamE+24, %edx
  91      00
  92 003b 488B45E8 		movq	-24(%rbp), %rax
  93 003f 488910   		movq	%rdx, (%rax)
  94 0042 BA600000 		movl	$96, %edx
  94      00
  95 0047 488B45E8 		movq	-24(%rbp), %rax
  96 004b 4801C2   		addq	%rax, %rdx
  97 004e B8000000 		movl	$_ZTVN8UnitTest15MemoryOutStreamE+64, %eax
  97      00
  98 0053 488902   		movq	%rax, (%rdx)
  99 0056 488B45E8 		movq	-24(%rbp), %rax
 100 005a 4883C058 		addq	$88, %rax
 101 005e 4889C7   		movq	%rax, %rdi
 102              	.LEHB2:
 103 0061 E8000000 		call	_ZNSsC1Ev
 103      00
 104              	.LEHE2:
 105              	.LBE2:
 106              		.loc 3 16 0
 107 0066 EB37     		jmp	.L10
 108              	.L8:
 109 0068 4889C3   		movq	%rax, %rbx
 110              	.LBB3:
 111 006b BA000000 		movl	$_ZTTN8UnitTest15MemoryOutStreamE+8, %edx
 111      00
 112 0070 488B45E8 		movq	-24(%rbp), %rax
 113 0074 4889D6   		movq	%rdx, %rsi
 114 0077 4889C7   		movq	%rax, %rdi
 115 007a E8000000 		call	_ZNSt19basic_ostringstreamIcSt11char_traitsIcESaIcEED2Ev
 115      00
 116 007f EB03     		jmp	.L7
 117              	.L9:
 118 0081 4889C3   		movq	%rax, %rbx
 119              	.L7:
 120              		.loc 3 16 0 discriminator 19
 121 0084 488B45E8 		movq	-24(%rbp), %rax
 122 0088 4883C060 		addq	$96, %rax
 123 008c 4889C7   		movq	%rax, %rdi
 124 008f E8000000 		call	_ZNSt9basic_iosIcSt11char_traitsIcEED2Ev
 124      00
 125 0094 4889D8   		movq	%rbx, %rax
 126 0097 4889C7   		movq	%rax, %rdi
 127              	.LEHB3:
 128 009a E8000000 		call	_Unwind_Resume
 128      00
 129              	.LEHE3:
 130              	.L10:
 131              	.LBE3:
 132              		.loc 3 16 0
 133 009f 4883C418 		addq	$24, %rsp
 134 00a3 5B       		popq	%rbx
 135 00a4 5D       		popq	%rbp
 136              		.cfi_def_cfa 7, 8
 137 00a5 C3       		ret
 138              		.cfi_endproc
 139              	.LFE1071:
 140              		.globl	__gxx_personality_v0
 141              		.section	.gcc_except_table._ZN8UnitTest15MemoryOutStreamC1Ev,"aG",@progbits,_ZN8UnitTest15MemoryOu
 142              	.LLSDA1071:
 143 0000 FF       		.byte	0xff
 144 0001 FF       		.byte	0xff
 145 0002 01       		.byte	0x1
 146 0003 12       		.uleb128 .LLSDACSE1071-.LLSDACSB1071
 147              	.LLSDACSB1071:
 148 0004 18       		.uleb128 .LEHB0-.LFB1071
 149 0005 05       		.uleb128 .LEHE0-.LEHB0
 150 0006 00       		.uleb128 0
 151 0007 00       		.uleb128 0
 152 0008 31       		.uleb128 .LEHB1-.LFB1071
 153 0009 05       		.uleb128 .LEHE1-.LEHB1
 154 000a 8101     		.uleb128 .L9-.LFB1071
 155 000c 00       		.uleb128 0
 156 000d 61       		.uleb128 .LEHB2-.LFB1071
 157 000e 05       		.uleb128 .LEHE2-.LEHB2
 158 000f 68       		.uleb128 .L8-.LFB1071
 159 0010 00       		.uleb128 0
 160 0011 9A01     		.uleb128 .LEHB3-.LFB1071
 161 0013 05       		.uleb128 .LEHE3-.LEHB3
 162 0014 00       		.uleb128 0
 163 0015 00       		.uleb128 0
 164              	.LLSDACSE1071:
 165              		.section	.text._ZN8UnitTest15MemoryOutStreamC1Ev,"axG",@progbits,_ZN8UnitTest15MemoryOutStreamC1Ev
 167              		.section	.rodata
 168              	.LC1:
 169 000d 74657374 		.string	"testHexIO.cpp"
 169      48657849 
 169      4F2E6370 
 169      7000
 170              	.LC2:
 171 001b 48657849 		.string	"HexIO_testValidDataLine"
 171      4F5F7465 
 171      73745661 
 171      6C696444 
 171      6174614C 
 172              		.section	.text._ZN27TestHexIO_testValidDataLineC2Ev,"axG",@progbits,_ZN27TestHexIO_testValidDataLi
 173              		.align 2
 174              		.weak	_ZN27TestHexIO_testValidDataLineC2Ev
 176              	_ZN27TestHexIO_testValidDataLineC2Ev:
 177              	.LFB1088:
 178              		.file 4 "testHexIO.cpp"
   1:testHexIO.cpp **** /*
   2:testHexIO.cpp ****  * Copyright (C) 2009-2012 Chris McClelland
   3:testHexIO.cpp ****  *
   4:testHexIO.cpp ****  * This program is free software: you can redistribute it and/or modify
   5:testHexIO.cpp ****  * it under the terms of the GNU Lesser General Public License as published by
   6:testHexIO.cpp ****  * the Free Software Foundation, either version 3 of the License, or
   7:testHexIO.cpp ****  * (at your option) any later version.
   8:testHexIO.cpp ****  *
   9:testHexIO.cpp ****  * This program is distributed in the hope that it will be useful,
  10:testHexIO.cpp ****  * but WITHOUT ANY WARRANTY; without even the implied warranty of
  11:testHexIO.cpp ****  * MERCHANTABILITY or FITNESS FOR A PARTICULAR PURPOSE.  See the
  12:testHexIO.cpp ****  * GNU Lesser General Public License for more details.
  13:testHexIO.cpp ****  *
  14:testHexIO.cpp ****  * You should have received a copy of the GNU Lesser General Public License
  15:testHexIO.cpp ****  * along with this program.  If not, see <http://www.gnu.org/licenses/>.
  16:testHexIO.cpp ****  */
  17:testHexIO.cpp **** #include <cstdarg>
  18:testHexIO.cpp **** #include <string>
  19:testHexIO.cpp **** #include <fstream>
  20:testHexIO.cpp **** #include <cstring>
  21:testHexIO.cpp **** #include <UnitTest++.h>
  22:testHexIO.cpp **** #include "../private.h"
  23:testHexIO.cpp **** #include "../libbuffer.h"
  24:testHexIO.cpp **** 
  25:testHexIO.cpp **** using namespace std;
  26:testHexIO.cpp **** 
  27:testHexIO.cpp **** TEST(HexIO_testValidDataLine) {
 179              		.loc 4 27 0 is_stmt 1
 180              		.cfi_startproc
 181 0000 55       		pushq	%rbp
 182              		.cfi_def_cfa_offset 16
 183              		.cfi_offset 6, -16
 184 0001 4889E5   		movq	%rsp, %rbp
 185              		.cfi_def_cfa_register 6
 186 0004 4883EC10 		subq	$16, %rsp
 187 0008 48897DF8 		movq	%rdi, -8(%rbp)
 188              	.LBB4:
 189              		.loc 4 27 0
 190 000c E8000000 		call	_ZN13UnitTestSuite12GetSuiteNameEv
 190      00
 191 0011 4889C2   		movq	%rax, %rdx
 192 0014 488B45F8 		movq	-8(%rbp), %rax
 193 0018 41B81B00 		movl	$27, %r8d
 193      0000
 194 001e B9000000 		movl	$.LC1, %ecx
 194      00
 195 0023 BE000000 		movl	$.LC2, %esi
 195      00
 196 0028 4889C7   		movq	%rax, %rdi
 197 002b E8000000 		call	_ZN8UnitTest4TestC2EPKcS2_S2_i
 197      00
 198 0030 488B45F8 		movq	-8(%rbp), %rax
 199 0034 48C70000 		movq	$_ZTV27TestHexIO_testValidDataLine+16, (%rax)
 199      000000
 200              	.LBE4:
 201 003b C9       		leave
 202              		.cfi_def_cfa 7, 8
 203 003c C3       		ret
 204              		.cfi_endproc
 205              	.LFE1088:
 207              		.weak	_ZN27TestHexIO_testValidDataLineC1Ev
 208              		.set	_ZN27TestHexIO_testValidDataLineC1Ev,_ZN27TestHexIO_testValidDataLineC2Ev
 209              		.globl	testHexIO_testValidDataLineInstance
 210              		.bss
 211              		.align 32
 214              	testHexIO_testValidDataLineInstance:
 215 0000 00000000 		.zero	56
 215      00000000 
 215      00000000 
 215      00000000 
 215      00000000 
 216              		.globl	adderHexIO_testValidDataLine
 219              	adderHexIO_testValidDataLine:
 220 0038 00       		.zero	1
 221              		.section	.rodata
 222              	.LC3:
 223 0033 3A303430 		.string	":040BE10075820022F7\n"
 223      42453130 
 223      30373538 
 223      32303032 
 223      3246370A 
 224              		.align 8
 225              	.LC4:
 226 0048 556E6861 		.string	"Unhandled exception in CHECK_EQUAL(BUF_SUCCESS, status)"
 226      6E646C65 
 226      64206578 
 226      63657074 
 226      696F6E20 
 227              		.align 8
 228              	.LC5:
 229 0080 556E6861 		.string	"Unhandled exception in CHECK_EQUAL(0x00, recordType)"
 229      6E646C65 
 229      64206578 
 229      63657074 
 229      696F6E20 
 230 00b5 000000   		.align 8
 231              	.LC6:
 232 00b8 556E6861 		.string	"Unhandled exception in CHECK_EQUAL(0x0BE1+4UL, data.length)"
 232      6E646C65 
 232      64206578 
 232      63657074 
 232      696F6E20 
 233 00f4 00000000 		.align 8
 234              	.LC7:
 235 00f8 556E6861 		.string	"Unhandled exception in CHECK_EQUAL(0x0BE1+4UL, mask.length)"
 235      6E646C65 
 235      64206578 
 235      63657074 
 235      696F6E20 
 236 0134 00000000 		.align 8
 237              	.LC8:
 238 0138 556E6861 		.string	"Unhandled exception in CHECK_EQUAL(4096UL, data.capacity)"
 238      6E646C65 
 238      64206578 
 238      63657074 
 238      696F6E20 
 239 0172 00000000 		.align 8
 239      0000
 240              	.LC9:
 241 0178 556E6861 		.string	"Unhandled exception in CHECK_EQUAL(4096UL, mask.capacity)"
 241      6E646C65 
 241      64206578 
 241      63657074 
 241      696F6E20 
 242 01b2 00000000 		.align 8
 242      0000
 243              	.LC10:
 244 01b8 556E6861 		.string	"Unhandled exception in CHECK_ARRAY_EQUAL(expected, data.data + 0x0BE1)"
 244      6E646C65 
 244      64206578 
 244      63657074 
 244      696F6E20 
 245              		.text
 246              		.align 2
 247              		.globl	_ZNK27TestHexIO_testValidDataLine7RunImplEv
 249              	_ZNK27TestHexIO_testValidDataLine7RunImplEv:
 250              	.LFB1090:
 251              		.loc 4 27 0
 252              		.cfi_startproc
 253              		.cfi_personality 0x3,__gxx_personality_v0
 254              		.cfi_lsda 0x3,.LLSDA1090
 255 0000 55       		pushq	%rbp
 256              		.cfi_def_cfa_offset 16
 257              		.cfi_offset 6, -16
 258 0001 4889E5   		movq	%rsp, %rbp
 259              		.cfi_def_cfa_register 6
 260 0004 53       		pushq	%rbx
 261 0005 4881ECA8 		subq	$168, %rsp
 261      000000
 262              		.cfi_offset 3, -24
 263 000c 4889BD58 		movq	%rdi, -168(%rbp)
 263      FFFFFF
 264              		.loc 4 27 0
 265 0013 64488B04 		movq	%fs:40, %rax
 265      25280000 
 265      00
 266 001c 488945E8 		movq	%rax, -24(%rbp)
 267 0020 31C0     		xorl	%eax, %eax
 268              	.LBB5:
  28:testHexIO.cpp **** 	Buffer data, mask;
  29:testHexIO.cpp **** 	BufferStatus status;
  30:testHexIO.cpp **** 	const char *line = ":040BE10075820022F7\n";
 269              		.loc 4 30 0
 270 0022 48C78578 		movq	$.LC3, -136(%rbp)
 270      FFFFFF00 
 270      000000
  31:testHexIO.cpp **** 	uint8 recordType;
  32:testHexIO.cpp **** 	uint32 seg = 0x00000000;
 271              		.loc 4 32 0
 272 002d C7856CFF 		movl	$0, -148(%rbp)
 272      FFFF0000 
 272      0000
  33:testHexIO.cpp **** 	const uint8 expected[] = {0x75, 0x82, 0x00, 0x22};
 273              		.loc 4 33 0
 274 0037 C645E075 		movb	$117, -32(%rbp)
 275 003b C645E182 		movb	$-126, -31(%rbp)
 276 003f C645E200 		movb	$0, -30(%rbp)
 277 0043 C645E322 		movb	$34, -29(%rbp)
  34:testHexIO.cpp **** 	status = bufInitialise(&data, 1024, 0x00, NULL);
 278              		.loc 4 34 0
 279 0047 488D4580 		leaq	-128(%rbp), %rax
 280 004b B9000000 		movl	$0, %ecx
 280      00
 281 0050 BA000000 		movl	$0, %edx
 281      00
 282 0055 BE000400 		movl	$1024, %esi
 282      00
 283 005a 4889C7   		movq	%rax, %rdi
 284              	.LEHB4:
 285 005d E8000000 		call	bufInitialise
 285      00
 286              	.LEHE4:
 287 0062 898568FF 		movl	%eax, -152(%rbp)
 287      FFFF
 288              	.LEHB5:
  35:testHexIO.cpp **** 	CHECK_EQUAL(BUF_SUCCESS, status);
 289              		.loc 4 35 0
 290 0068 E8000000 		call	_ZN8UnitTest11CurrentTest7DetailsEv
 290      00
 291 006d 488B08   		movq	(%rax), %rcx
 292 0070 488D45C0 		leaq	-64(%rbp), %rax
 293 0074 BA230000 		movl	$35, %edx
 293      00
 294 0079 4889CE   		movq	%rcx, %rsi
 295 007c 4889C7   		movq	%rax, %rdi
 296 007f E8000000 		call	_ZN8UnitTest11TestDetailsC1ERKS0_i
 296      00
 297              		.loc 4 35 0 is_stmt 0 discriminator 1
 298 0084 C745A000 		movl	$0, -96(%rbp)
 298      000000
 299 008b E8000000 		call	_ZN8UnitTest11CurrentTest7ResultsEv
 299      00
 300 0090 488B00   		movq	(%rax), %rax
 301 0093 488D4DC0 		leaq	-64(%rbp), %rcx
 302 0097 488D9568 		leaq	-152(%rbp), %rdx
 302      FFFFFF
 303 009e 488D75A0 		leaq	-96(%rbp), %rsi
 304 00a2 4889C7   		movq	%rax, %rdi
 305 00a5 E8000000 		call	_ZN8UnitTest10CheckEqualI12BufferStatusS1_EEvRNS_11TestResultsERKT_RKT0_RKNS_11TestDetailsE
 305      00
 306              	.LEHE5:
 307              	.L15:
  36:testHexIO.cpp **** 	status = bufInitialise(&mask, 1024, 0x00, NULL);
 308              		.loc 4 36 0 is_stmt 1
 309 00aa 488D45A0 		leaq	-96(%rbp), %rax
 310 00ae B9000000 		movl	$0, %ecx
 310      00
 311 00b3 BA000000 		movl	$0, %edx
 311      00
 312 00b8 BE000400 		movl	$1024, %esi
 312      00
 313 00bd 4889C7   		movq	%rax, %rdi
 314              	.LEHB6:
 315 00c0 E8000000 		call	bufInitialise
 315      00
 316              	.LEHE6:
 317 00c5 898568FF 		movl	%eax, -152(%rbp)
 317      FFFF
 318              	.LEHB7:
  37:testHexIO.cpp **** 	CHECK_EQUAL(BUF_SUCCESS, status);
 319              		.loc 4 37 0
 320 00cb E8000000 		call	_ZN8UnitTest11CurrentTest7DetailsEv
 320      00
 321 00d0 488B08   		movq	(%rax), %rcx
 322 00d3 488D45C0 		leaq	-64(%rbp), %rax
 323 00d7 BA250000 		movl	$37, %edx
 323      00
 324 00dc 4889CE   		movq	%rcx, %rsi
 325 00df 4889C7   		movq	%rax, %rdi
 326 00e2 E8000000 		call	_ZN8UnitTest11TestDetailsC1ERKS0_i
 326      00
 327              		.loc 4 37 0 is_stmt 0 discriminator 1
 328 00e7 C78570FF 		movl	$0, -144(%rbp)
 328      FFFF0000 
 328      0000
 329 00f1 E8000000 		call	_ZN8UnitTest11CurrentTest7ResultsEv
 329      00
 330 00f6 488B00   		movq	(%rax), %rax
 331 00f9 488D4DC0 		leaq	-64(%rbp), %rcx
 332 00fd 488D9568 		leaq	-152(%rbp), %rdx
 332      FFFFFF
 333 0104 488DB570 		leaq	-144(%rbp), %rsi
 333      FFFFFF
 334 010b 4889C7   		movq	%rax, %rdi
 335 010e E8000000 		call	_ZN8UnitTest10CheckEqualI12BufferStatusS1_EEvRNS_11TestResultsERKT_RKT0_RKNS_11TestDetailsE
 335      00
 336              	.LEHE7:
 337              	.L18:
  38:testHexIO.cpp **** 	status = bufProcessLine(line, 0, &data, &mask, &seg, &recordType, NULL);
 338              		.loc 4 38 0 is_stmt 1
 339 0113 488DBD67 		leaq	-153(%rbp), %rdi
 339      FFFFFF
 340 011a 488DB56C 		leaq	-148(%rbp), %rsi
 340      FFFFFF
 341 0121 488D4DA0 		leaq	-96(%rbp), %rcx
 342 0125 488D5580 		leaq	-128(%rbp), %rdx
 343 0129 488B8578 		movq	-136(%rbp), %rax
 343      FFFFFF
 344 0130 48C70424 		movq	$0, (%rsp)
 344      00000000 
 345 0138 4989F9   		movq	%rdi, %r9
 346 013b 4989F0   		movq	%rsi, %r8
 347 013e BE000000 		movl	$0, %esi
 347      00
 348 0143 4889C7   		movq	%rax, %rdi
 349              	.LEHB8:
 350 0146 E8000000 		call	bufProcessLine
 350      00
 351              	.LEHE8:
 352 014b 898568FF 		movl	%eax, -152(%rbp)
 352      FFFF
 353              	.LEHB9:
  39:testHexIO.cpp **** 	CHECK_EQUAL(BUF_SUCCESS, status);
 354              		.loc 4 39 0
 355 0151 E8000000 		call	_ZN8UnitTest11CurrentTest7DetailsEv
 355      00
 356 0156 488B08   		movq	(%rax), %rcx
 357 0159 488D45C0 		leaq	-64(%rbp), %rax
 358 015d BA270000 		movl	$39, %edx
 358      00
 359 0162 4889CE   		movq	%rcx, %rsi
 360 0165 4889C7   		movq	%rax, %rdi
 361 0168 E8000000 		call	_ZN8UnitTest11TestDetailsC1ERKS0_i
 361      00
 362              		.loc 4 39 0 is_stmt 0 discriminator 1
 363 016d C78570FF 		movl	$0, -144(%rbp)
 363      FFFF0000 
 363      0000
 364 0177 E8000000 		call	_ZN8UnitTest11CurrentTest7ResultsEv
 364      00
 365 017c 488B00   		movq	(%rax), %rax
 366 017f 488D4DC0 		leaq	-64(%rbp), %rcx
 367 0183 488D9568 		leaq	-152(%rbp), %rdx
 367      FFFFFF
 368 018a 488DB570 		leaq	-144(%rbp), %rsi
 368      FFFFFF
 369 0191 4889C7   		movq	%rax, %rdi
 370 0194 E8000000 		call	_ZN8UnitTest10CheckEqualI12BufferStatusS1_EEvRNS_11TestResultsERKT_RKT0_RKNS_11TestDetailsE
 370      00
 371              	.LEHE9:
 372              	.L21:
 373              	.LEHB10:
  40:testHexIO.cpp **** 	CHECK_EQUAL(0x00, recordType);
 374              		.loc 4 40 0 is_stmt 1
 375 0199 E8000000 		call	_ZN8UnitTest11CurrentTest7DetailsEv
 375      00
 376 019e 488B08   		movq	(%rax), %rcx
 377 01a1 488D45C0 		leaq	-64(%rbp), %rax
 378 01a5 BA280000 		movl	$40, %edx
 378      00
 379 01aa 4889CE   		movq	%rcx, %rsi
 380 01ad 4889C7   		movq	%rax, %rdi
 381 01b0 E8000000 		call	_ZN8UnitTest11TestDetailsC1ERKS0_i
 381      00
 382              		.loc 4 40 0 is_stmt 0 discriminator 1
 383 01b5 C78570FF 		movl	$0, -144(%rbp)
 383      FFFF0000 
 383      0000
 384 01bf E8000000 		call	_ZN8UnitTest11CurrentTest7ResultsEv
 384      00
 385 01c4 488B00   		movq	(%rax), %rax
 386 01c7 488D4DC0 		leaq	-64(%rbp), %rcx
 387 01cb 488D9567 		leaq	-153(%rbp), %rdx
 387      FFFFFF
 388 01d2 488DB570 		leaq	-144(%rbp), %rsi
 388      FFFFFF
 389 01d9 4889C7   		movq	%rax, %rdi
 390 01dc E8000000 		call	_ZN8UnitTest10CheckEqualIihEEvRNS_11TestResultsERKT_RKT0_RKNS_11TestDetailsE
 390      00
 391              	.LEHE10:
 392              	.L24:
 393              	.LEHB11:
  41:testHexIO.cpp **** 	CHECK_EQUAL(0x0BE1+4UL, data.length);
 394              		.loc 4 41 0 is_stmt 1
 395 01e1 E8000000 		call	_ZN8UnitTest11CurrentTest7DetailsEv
 395      00
 396 01e6 488B08   		movq	(%rax), %rcx
 397 01e9 488D45C0 		leaq	-64(%rbp), %rax
 398 01ed BA290000 		movl	$41, %edx
 398      00
 399 01f2 4889CE   		movq	%rcx, %rsi
 400 01f5 4889C7   		movq	%rax, %rdi
 401 01f8 E8000000 		call	_ZN8UnitTest11TestDetailsC1ERKS0_i
 401      00
 402              		.loc 4 41 0 is_stmt 0 discriminator 1
 403 01fd 48C78570 		movq	$3045, -144(%rbp)
 403      FFFFFFE5 
 403      0B0000
 404 0208 E8000000 		call	_ZN8UnitTest11CurrentTest7ResultsEv
 404      00
 405 020d 488B00   		movq	(%rax), %rax
 406 0210 488D55C0 		leaq	-64(%rbp), %rdx
 407 0214 488D4D80 		leaq	-128(%rbp), %rcx
 408 0218 488D7908 		leaq	8(%rcx), %rdi
 409 021c 488DB570 		leaq	-144(%rbp), %rsi
 409      FFFFFF
 410 0223 4889D1   		movq	%rdx, %rcx
 411 0226 4889FA   		movq	%rdi, %rdx
 412 0229 4889C7   		movq	%rax, %rdi
 413 022c E8000000 		call	_ZN8UnitTest10CheckEqualImmEEvRNS_11TestResultsERKT_RKT0_RKNS_11TestDetailsE
 413      00
 414              	.LEHE11:
 415              	.L27:
 416              	.LEHB12:
  42:testHexIO.cpp **** 	CHECK_EQUAL(0x0BE1+4UL, mask.length);
 417              		.loc 4 42 0 is_stmt 1
 418 0231 E8000000 		call	_ZN8UnitTest11CurrentTest7DetailsEv
 418      00
 419 0236 488B08   		movq	(%rax), %rcx
 420 0239 488D45C0 		leaq	-64(%rbp), %rax
 421 023d BA2A0000 		movl	$42, %edx
 421      00
 422 0242 4889CE   		movq	%rcx, %rsi
 423 0245 4889C7   		movq	%rax, %rdi
 424 0248 E8000000 		call	_ZN8UnitTest11TestDetailsC1ERKS0_i
 424      00
 425              		.loc 4 42 0 is_stmt 0 discriminator 1
 426 024d 48C78570 		movq	$3045, -144(%rbp)
 426      FFFFFFE5 
 426      0B0000
 427 0258 E8000000 		call	_ZN8UnitTest11CurrentTest7ResultsEv
 427      00
 428 025d 488B00   		movq	(%rax), %rax
 429 0260 488D55C0 		leaq	-64(%rbp), %rdx
 430 0264 488D4DA0 		leaq	-96(%rbp), %rcx
 431 0268 488D7908 		leaq	8(%rcx), %rdi
 432 026c 488DB570 		leaq	-144(%rbp), %rsi
 432      FFFFFF
 433 0273 4889D1   		movq	%rdx, %rcx
 434 0276 4889FA   		movq	%rdi, %rdx
 435 0279 4889C7   		movq	%rax, %rdi
 436 027c E8000000 		call	_ZN8UnitTest10CheckEqualImmEEvRNS_11TestResultsERKT_RKT0_RKNS_11TestDetailsE
 436      00
 437              	.LEHE12:
 438              	.L30:
 439              	.LEHB13:
  43:testHexIO.cpp **** 	CHECK_EQUAL(4096UL, data.capacity);
 440              		.loc 4 43 0 is_stmt 1
 441 0281 E8000000 		call	_ZN8UnitTest11CurrentTest7DetailsEv
 441      00
 442 0286 488B08   		movq	(%rax), %rcx
 443 0289 488D45C0 		leaq	-64(%rbp), %rax
 444 028d BA2B0000 		movl	$43, %edx
 444      00
 445 0292 4889CE   		movq	%rcx, %rsi
 446 0295 4889C7   		movq	%rax, %rdi
 447 0298 E8000000 		call	_ZN8UnitTest11TestDetailsC1ERKS0_i
 447      00
 448              		.loc 4 43 0 is_stmt 0 discriminator 1
 449 029d 48C78570 		movq	$4096, -144(%rbp)
 449      FFFFFF00 
 449      100000
 450 02a8 E8000000 		call	_ZN8UnitTest11CurrentTest7ResultsEv
 450      00
 451 02ad 488B00   		movq	(%rax), %rax
 452 02b0 488D55C0 		leaq	-64(%rbp), %rdx
 453 02b4 488D4D80 		leaq	-128(%rbp), %rcx
 454 02b8 488D7910 		leaq	16(%rcx), %rdi
 455 02bc 488DB570 		leaq	-144(%rbp), %rsi
 455      FFFFFF
 456 02c3 4889D1   		movq	%rdx, %rcx
 457 02c6 4889FA   		movq	%rdi, %rdx
 458 02c9 4889C7   		movq	%rax, %rdi
 459 02cc E8000000 		call	_ZN8UnitTest10CheckEqualImmEEvRNS_11TestResultsERKT_RKT0_RKNS_11TestDetailsE
 459      00
 460              	.LEHE13:
 461              	.L33:
 462              	.LEHB14:
  44:testHexIO.cpp **** 	CHECK_EQUAL(4096UL, mask.capacity);
 463              		.loc 4 44 0 is_stmt 1
 464 02d1 E8000000 		call	_ZN8UnitTest11CurrentTest7DetailsEv
 464      00
 465 02d6 488B08   		movq	(%rax), %rcx
 466 02d9 488D45C0 		leaq	-64(%rbp), %rax
 467 02dd BA2C0000 		movl	$44, %edx
 467      00
 468 02e2 4889CE   		movq	%rcx, %rsi
 469 02e5 4889C7   		movq	%rax, %rdi
 470 02e8 E8000000 		call	_ZN8UnitTest11TestDetailsC1ERKS0_i
 470      00
 471              		.loc 4 44 0 is_stmt 0 discriminator 1
 472 02ed 48C78570 		movq	$4096, -144(%rbp)
 472      FFFFFF00 
 472      100000
 473 02f8 E8000000 		call	_ZN8UnitTest11CurrentTest7ResultsEv
 473      00
 474 02fd 488B00   		movq	(%rax), %rax
 475 0300 488D55C0 		leaq	-64(%rbp), %rdx
 476 0304 488D4DA0 		leaq	-96(%rbp), %rcx
 477 0308 488D7910 		leaq	16(%rcx), %rdi
 478 030c 488DB570 		leaq	-144(%rbp), %rsi
 478      FFFFFF
 479 0313 4889D1   		movq	%rdx, %rcx
 480 0316 4889FA   		movq	%rdi, %rdx
 481 0319 4889C7   		movq	%rax, %rdi
 482 031c E8000000 		call	_ZN8UnitTest10CheckEqualImmEEvRNS_11TestResultsERKT_RKT0_RKNS_11TestDetailsE
 482      00
 483              	.LEHE14:
 484              	.L36:
 485              	.LEHB15:
  45:testHexIO.cpp **** 	CHECK_ARRAY_EQUAL(expected, data.data + 0x0BE1, 4);
 486              		.loc 4 45 0 is_stmt 1
 487 0321 E8000000 		call	_ZN8UnitTest11CurrentTest7DetailsEv
 487      00
 488 0326 488B08   		movq	(%rax), %rcx
 489 0329 488D45C0 		leaq	-64(%rbp), %rax
 490 032d BA2D0000 		movl	$45, %edx
 490      00
 491 0332 4889CE   		movq	%rcx, %rsi
 492 0335 4889C7   		movq	%rax, %rdi
 493 0338 E8000000 		call	_ZN8UnitTest11TestDetailsC1ERKS0_i
 493      00
 494              		.loc 4 45 0 is_stmt 0 discriminator 1
 495 033d 488B4580 		movq	-128(%rbp), %rax
 496 0341 4805E10B 		addq	$3041, %rax
 496      0000
 497 0347 48898570 		movq	%rax, -144(%rbp)
 497      FFFFFF
 498 034e E8000000 		call	_ZN8UnitTest11CurrentTest7ResultsEv
 498      00
 499 0353 488B00   		movq	(%rax), %rax
 500 0356 488D4DC0 		leaq	-64(%rbp), %rcx
 501 035a 488D9570 		leaq	-144(%rbp), %rdx
 501      FFFFFF
 502 0361 488D75E0 		leaq	-32(%rbp), %rsi
 503 0365 4989C8   		movq	%rcx, %r8
 504 0368 B9040000 		movl	$4, %ecx
 504      00
 505 036d 4889C7   		movq	%rax, %rdi
 506 0370 E8000000 		call	_ZN8UnitTest15CheckArrayEqualIA4_hPhEEvRNS_11TestResultsERKT_RKT0_iRKNS_11TestDetailsE
 506      00
 507              	.LEHE15:
 508              	.L39:
  46:testHexIO.cpp **** 	bufDestroy(&mask);
 509              		.loc 4 46 0 is_stmt 1
 510 0375 488D45A0 		leaq	-96(%rbp), %rax
 511 0379 4889C7   		movq	%rax, %rdi
 512              	.LEHB16:
 513 037c E8000000 		call	bufDestroy
 513      00
  47:testHexIO.cpp **** 	bufDestroy(&data);
 514              		.loc 4 47 0
 515 0381 488D4580 		leaq	-128(%rbp), %rax
 516 0385 4889C7   		movq	%rax, %rdi
 517 0388 E8000000 		call	bufDestroy
 517      00
 518              	.LEHE16:
 519              	.LBE5:
  48:testHexIO.cpp **** }
 520              		.loc 4 48 0
 521 038d 488B45E8 		movq	-24(%rbp), %rax
 522 0391 64483304 		xorq	%fs:40, %rax
 522      25280000 
 522      00
 523 039a 0F844F03 		je	.L40
 523      0000
 524 03a0 E9450300 		jmp	.L59
 524      00
 525              	.L42:
 526 03a5 4889C3   		movq	%rax, %rbx
 527              	.LBB6:
  35:testHexIO.cpp **** 	status = bufInitialise(&mask, 1024, 0x00, NULL);
 528              		.loc 4 35 0
 529 03a8 E8000000 		call	__cxa_end_catch
 529      00
 530 03ad 4889D8   		movq	%rbx, %rax
 531 03b0 4889C7   		movq	%rax, %rdi
 532              	.LEHB17:
 533 03b3 E8000000 		call	_Unwind_Resume
 533      00
 534              	.LEHE17:
 535              	.L41:
 536 03b8 4889C7   		movq	%rax, %rdi
 537 03bb E8000000 		call	__cxa_begin_catch
 537      00
 538              	.LEHB18:
 539 03c0 E8000000 		call	_ZN8UnitTest11CurrentTest7DetailsEv
 539      00
 540 03c5 488B08   		movq	(%rax), %rcx
 541 03c8 488D45C0 		leaq	-64(%rbp), %rax
 542 03cc BA230000 		movl	$35, %edx
 542      00
 543 03d1 4889CE   		movq	%rcx, %rsi
 544 03d4 4889C7   		movq	%rax, %rdi
 545 03d7 E8000000 		call	_ZN8UnitTest11TestDetailsC1ERKS0_i
 545      00
  35:testHexIO.cpp **** 	status = bufInitialise(&mask, 1024, 0x00, NULL);
 546              		.loc 4 35 0 is_stmt 0 discriminator 1
 547 03dc E8000000 		call	_ZN8UnitTest11CurrentTest7ResultsEv
 547      00
 548 03e1 488B00   		movq	(%rax), %rax
 549 03e4 488D4DC0 		leaq	-64(%rbp), %rcx
 550 03e8 BA000000 		movl	$.LC4, %edx
 550      00
 551 03ed 4889CE   		movq	%rcx, %rsi
 552 03f0 4889C7   		movq	%rax, %rdi
 553 03f3 E8000000 		call	_ZN8UnitTest11TestResults13OnTestFailureERKNS_11TestDetailsEPKc
 553      00
 554              	.LEHE18:
 555              	.LEHB19:
 556 03f8 E8000000 		call	__cxa_end_catch
 556      00
 557              	.LEHE19:
 558 03fd E9A8FCFF 		jmp	.L15
 558      FF
 559              	.L44:
 560 0402 4889C3   		movq	%rax, %rbx
  37:testHexIO.cpp **** 	status = bufProcessLine(line, 0, &data, &mask, &seg, &recordType, NULL);
 561              		.loc 4 37 0 is_stmt 1
 562 0405 E8000000 		call	__cxa_end_catch
 562      00
 563 040a 4889D8   		movq	%rbx, %rax
 564 040d 4889C7   		movq	%rax, %rdi
 565              	.LEHB20:
 566 0410 E8000000 		call	_Unwind_Resume
 566      00
 567              	.LEHE20:
 568              	.L43:
 569 0415 4889C7   		movq	%rax, %rdi
 570 0418 E8000000 		call	__cxa_begin_catch
 570      00
 571              	.LEHB21:
 572 041d E8000000 		call	_ZN8UnitTest11CurrentTest7DetailsEv
 572      00
 573 0422 488B08   		movq	(%rax), %rcx
 574 0425 488D45C0 		leaq	-64(%rbp), %rax
 575 0429 BA250000 		movl	$37, %edx
 575      00
 576 042e 4889CE   		movq	%rcx, %rsi
 577 0431 4889C7   		movq	%rax, %rdi
 578 0434 E8000000 		call	_ZN8UnitTest11TestDetailsC1ERKS0_i
 578      00
  37:testHexIO.cpp **** 	status = bufProcessLine(line, 0, &data, &mask, &seg, &recordType, NULL);
 579              		.loc 4 37 0 is_stmt 0 discriminator 1
 580 0439 E8000000 		call	_ZN8UnitTest11CurrentTest7ResultsEv
 580      00
 581 043e 488B00   		movq	(%rax), %rax
 582 0441 488D4DC0 		leaq	-64(%rbp), %rcx
 583 0445 BA000000 		movl	$.LC4, %edx
 583      00
 584 044a 4889CE   		movq	%rcx, %rsi
 585 044d 4889C7   		movq	%rax, %rdi
 586 0450 E8000000 		call	_ZN8UnitTest11TestResults13OnTestFailureERKNS_11TestDetailsEPKc
 586      00
 587              	.LEHE21:
 588              	.LEHB22:
 589 0455 E8000000 		call	__cxa_end_catch
 589      00
 590              	.LEHE22:
 591 045a E9B4FCFF 		jmp	.L18
 591      FF
 592              	.L46:
 593 045f 4889C3   		movq	%rax, %rbx
  39:testHexIO.cpp **** 	CHECK_EQUAL(0x00, recordType);
 594              		.loc 4 39 0 is_stmt 1
 595 0462 E8000000 		call	__cxa_end_catch
 595      00
 596 0467 4889D8   		movq	%rbx, %rax
 597 046a 4889C7   		movq	%rax, %rdi
 598              	.LEHB23:
 599 046d E8000000 		call	_Unwind_Resume
 599      00
 600              	.LEHE23:
 601              	.L45:
 602 0472 4889C7   		movq	%rax, %rdi
 603 0475 E8000000 		call	__cxa_begin_catch
 603      00
 604              	.LEHB24:
 605 047a E8000000 		call	_ZN8UnitTest11CurrentTest7DetailsEv
 605      00
 606 047f 488B08   		movq	(%rax), %rcx
 607 0482 488D45C0 		leaq	-64(%rbp), %rax
 608 0486 BA270000 		movl	$39, %edx
 608      00
 609 048b 4889CE   		movq	%rcx, %rsi
 610 048e 4889C7   		movq	%rax, %rdi
 611 0491 E8000000 		call	_ZN8UnitTest11TestDetailsC1ERKS0_i
 611      00
  39:testHexIO.cpp **** 	CHECK_EQUAL(0x00, recordType);
 612              		.loc 4 39 0 is_stmt 0 discriminator 1
 613 0496 E8000000 		call	_ZN8UnitTest11CurrentTest7ResultsEv
 613      00
 614 049b 488B00   		movq	(%rax), %rax
 615 049e 488D4DC0 		leaq	-64(%rbp), %rcx
 616 04a2 BA000000 		movl	$.LC4, %edx
 616      00
 617 04a7 4889CE   		movq	%rcx, %rsi
 618 04aa 4889C7   		movq	%rax, %rdi
 619 04ad E8000000 		call	_ZN8UnitTest11TestResults13OnTestFailureERKNS_11TestDetailsEPKc
 619      00
 620              	.LEHE24:
 621              	.LEHB25:
 622 04b2 E8000000 		call	__cxa_end_catch
 622      00
 623              	.LEHE25:
 624 04b7 E9DDFCFF 		jmp	.L21
 624      FF
 625              	.L48:
 626 04bc 4889C3   		movq	%rax, %rbx
  40:testHexIO.cpp **** 	CHECK_EQUAL(0x0BE1+4UL, data.length);
 627              		.loc 4 40 0 is_stmt 1
 628 04bf E8000000 		call	__cxa_end_catch
 628      00
 629 04c4 4889D8   		movq	%rbx, %rax
 630 04c7 4889C7   		movq	%rax, %rdi
 631              	.LEHB26:
 632 04ca E8000000 		call	_Unwind_Resume
 632      00
 633              	.LEHE26:
 634              	.L47:
 635 04cf 4889C7   		movq	%rax, %rdi
 636 04d2 E8000000 		call	__cxa_begin_catch
 636      00
 637              	.LEHB27:
 638 04d7 E8000000 		call	_ZN8UnitTest11CurrentTest7DetailsEv
 638      00
 639 04dc 488B08   		movq	(%rax), %rcx
 640 04df 488D45C0 		leaq	-64(%rbp), %rax
 641 04e3 BA280000 		movl	$40, %edx
 641      00
 642 04e8 4889CE   		movq	%rcx, %rsi
 643 04eb 4889C7   		movq	%rax, %rdi
 644 04ee E8000000 		call	_ZN8UnitTest11TestDetailsC1ERKS0_i
 644      00
  40:testHexIO.cpp **** 	CHECK_EQUAL(0x0BE1+4UL, data.length);
 645              		.loc 4 40 0 is_stmt 0 discriminator 1
 646 04f3 E8000000 		call	_ZN8UnitTest11CurrentTest7ResultsEv
 646      00
 647 04f8 488B00   		movq	(%rax), %rax
 648 04fb 488D4DC0 		leaq	-64(%rbp), %rcx
 649 04ff BA000000 		movl	$.LC5, %edx
 649      00
 650 0504 4889CE   		movq	%rcx, %rsi
 651 0507 4889C7   		movq	%rax, %rdi
 652 050a E8000000 		call	_ZN8UnitTest11TestResults13OnTestFailureERKNS_11TestDetailsEPKc
 652      00
 653              	.LEHE27:
 654              	.LEHB28:
 655 050f E8000000 		call	__cxa_end_catch
 655      00
 656              	.LEHE28:
 657 0514 E9C8FCFF 		jmp	.L24
 657      FF
 658              	.L50:
 659 0519 4889C3   		movq	%rax, %rbx
  41:testHexIO.cpp **** 	CHECK_EQUAL(0x0BE1+4UL, mask.length);
 660              		.loc 4 41 0 is_stmt 1
 661 051c E8000000 		call	__cxa_end_catch
 661      00
 662 0521 4889D8   		movq	%rbx, %rax
 663 0524 4889C7   		movq	%rax, %rdi
 664              	.LEHB29:
 665 0527 E8000000 		call	_Unwind_Resume
 665      00
 666              	.LEHE29:
 667              	.L49:
 668 052c 4889C7   		movq	%rax, %rdi
 669 052f E8000000 		call	__cxa_begin_catch
 669      00
 670              	.LEHB30:
 671 0534 E8000000 		call	_ZN8UnitTest11CurrentTest7DetailsEv
 671      00
 672 0539 488B08   		movq	(%rax), %rcx
 673 053c 488D45C0 		leaq	-64(%rbp), %rax
 674 0540 BA290000 		movl	$41, %edx
 674      00
 675 0545 4889CE   		movq	%rcx, %rsi
 676 0548 4889C7   		movq	%rax, %rdi
 677 054b E8000000 		call	_ZN8UnitTest11TestDetailsC1ERKS0_i
 677      00
  41:testHexIO.cpp **** 	CHECK_EQUAL(0x0BE1+4UL, mask.length);
 678              		.loc 4 41 0 is_stmt 0 discriminator 1
 679 0550 E8000000 		call	_ZN8UnitTest11CurrentTest7ResultsEv
 679      00
 680 0555 488B00   		movq	(%rax), %rax
 681 0558 488D4DC0 		leaq	-64(%rbp), %rcx
 682 055c BA000000 		movl	$.LC6, %edx
 682      00
 683 0561 4889CE   		movq	%rcx, %rsi
 684 0564 4889C7   		movq	%rax, %rdi
 685 0567 E8000000 		call	_ZN8UnitTest11TestResults13OnTestFailureERKNS_11TestDetailsEPKc
 685      00
 686              	.LEHE30:
 687              	.LEHB31:
 688 056c E8000000 		call	__cxa_end_catch
 688      00
 689              	.LEHE31:
 690 0571 E9BBFCFF 		jmp	.L27
 690      FF
 691              	.L52:
 692 0576 4889C3   		movq	%rax, %rbx
  42:testHexIO.cpp **** 	CHECK_EQUAL(4096UL, data.capacity);
 693              		.loc 4 42 0 is_stmt 1
 694 0579 E8000000 		call	__cxa_end_catch
 694      00
 695 057e 4889D8   		movq	%rbx, %rax
 696 0581 4889C7   		movq	%rax, %rdi
 697              	.LEHB32:
 698 0584 E8000000 		call	_Unwind_Resume
 698      00
 699              	.LEHE32:
 700              	.L51:
 701 0589 4889C7   		movq	%rax, %rdi
 702 058c E8000000 		call	__cxa_begin_catch
 702      00
 703              	.LEHB33:
 704 0591 E8000000 		call	_ZN8UnitTest11CurrentTest7DetailsEv
 704      00
 705 0596 488B08   		movq	(%rax), %rcx
 706 0599 488D45C0 		leaq	-64(%rbp), %rax
 707 059d BA2A0000 		movl	$42, %edx
 707      00
 708 05a2 4889CE   		movq	%rcx, %rsi
 709 05a5 4889C7   		movq	%rax, %rdi
 710 05a8 E8000000 		call	_ZN8UnitTest11TestDetailsC1ERKS0_i
 710      00
  42:testHexIO.cpp **** 	CHECK_EQUAL(4096UL, data.capacity);
 711              		.loc 4 42 0 is_stmt 0 discriminator 1
 712 05ad E8000000 		call	_ZN8UnitTest11CurrentTest7ResultsEv
 712      00
 713 05b2 488B00   		movq	(%rax), %rax
 714 05b5 488D4DC0 		leaq	-64(%rbp), %rcx
 715 05b9 BA000000 		movl	$.LC7, %edx
 715      00
 716 05be 4889CE   		movq	%rcx, %rsi
 717 05c1 4889C7   		movq	%rax, %rdi
 718 05c4 E8000000 		call	_ZN8UnitTest11TestResults13OnTestFailureERKNS_11TestDetailsEPKc
 718      00
 719              	.LEHE33:
 720              	.LEHB34:
 721 05c9 E8000000 		call	__cxa_end_catch
 721      00
 722              	.LEHE34:
 723 05ce E9AEFCFF 		jmp	.L30
 723      FF
 724              	.L54:
 725 05d3 4889C3   		movq	%rax, %rbx
  43:testHexIO.cpp **** 	CHECK_EQUAL(4096UL, mask.capacity);
 726              		.loc 4 43 0 is_stmt 1
 727 05d6 E8000000 		call	__cxa_end_catch
 727      00
 728 05db 4889D8   		movq	%rbx, %rax
 729 05de 4889C7   		movq	%rax, %rdi
 730              	.LEHB35:
 731 05e1 E8000000 		call	_Unwind_Resume
 731      00
 732              	.LEHE35:
 733              	.L53:
 734 05e6 4889C7   		movq	%rax, %rdi
 735 05e9 E8000000 		call	__cxa_begin_catch
 735      00
 736              	.LEHB36:
 737 05ee E8000000 		call	_ZN8UnitTest11CurrentTest7DetailsEv
 737      00
 738 05f3 488B08   		movq	(%rax), %rcx
 739 05f6 488D45C0 		leaq	-64(%rbp), %rax
 740 05fa BA2B0000 		movl	$43, %edx
 740      00
 741 05ff 4889CE   		movq	%rcx, %rsi
 742 0602 4889C7   		movq	%rax, %rdi
 743 0605 E8000000 		call	_ZN8UnitTest11TestDetailsC1ERKS0_i
 743      00
  43:testHexIO.cpp **** 	CHECK_EQUAL(4096UL, mask.capacity);
 744              		.loc 4 43 0 is_stmt 0 discriminator 1
 745 060a E8000000 		call	_ZN8UnitTest11CurrentTest7ResultsEv
 745      00
 746 060f 488B00   		movq	(%rax), %rax
 747 0612 488D4DC0 		leaq	-64(%rbp), %rcx
 748 0616 BA000000 		movl	$.LC8, %edx
 748      00
 749 061b 4889CE   		movq	%rcx, %rsi
 750 061e 4889C7   		movq	%rax, %rdi
 751 0621 E8000000 		call	_ZN8UnitTest11TestResults13OnTestFailureERKNS_11TestDetailsEPKc
 751      00
 752              	.LEHE36:
 753              	.LEHB37:
 754 0626 E8000000 		call	__cxa_end_catch
 754      00
 755              	.LEHE37:
 756 062b E9A1FCFF 		jmp	.L33
 756      FF
 757              	.L56:
 758 0630 4889C3   		movq	%rax, %rbx
  44:testHexIO.cpp **** 	CHECK_ARRAY_EQUAL(expected, data.data + 0x0BE1, 4);
 759              		.loc 4 44 0 is_stmt 1
 760 0633 E8000000 		call	__cxa_end_catch
 760      00
 761 0638 4889D8   		movq	%rbx, %rax
 762 063b 4889C7   		movq	%rax, %rdi
 763              	.LEHB38:
 764 063e E8000000 		call	_Unwind_Resume
 764      00
 765              	.LEHE38:
 766              	.L55:
 767 0643 4889C7   		movq	%rax, %rdi
 768 0646 E8000000 		call	__cxa_begin_catch
 768      00
 769              	.LEHB39:
 770 064b E8000000 		call	_ZN8UnitTest11CurrentTest7DetailsEv
 770      00
 771 0650 488B08   		movq	(%rax), %rcx
 772 0653 488D45C0 		leaq	-64(%rbp), %rax
 773 0657 BA2C0000 		movl	$44, %edx
 773      00
 774 065c 4889CE   		movq	%rcx, %rsi
 775 065f 4889C7   		movq	%rax, %rdi
 776 0662 E8000000 		call	_ZN8UnitTest11TestDetailsC1ERKS0_i
 776      00
  44:testHexIO.cpp **** 	CHECK_ARRAY_EQUAL(expected, data.data + 0x0BE1, 4);
 777              		.loc 4 44 0 is_stmt 0 discriminator 1
 778 0667 E8000000 		call	_ZN8UnitTest11CurrentTest7ResultsEv
 778      00
 779 066c 488B00   		movq	(%rax), %rax
 780 066f 488D4DC0 		leaq	-64(%rbp), %rcx
 781 0673 BA000000 		movl	$.LC9, %edx
 781      00
 782 0678 4889CE   		movq	%rcx, %rsi
 783 067b 4889C7   		movq	%rax, %rdi
 784 067e E8000000 		call	_ZN8UnitTest11TestResults13OnTestFailureERKNS_11TestDetailsEPKc
 784      00
 785              	.LEHE39:
 786              	.LEHB40:
 787 0683 E8000000 		call	__cxa_end_catch
 787      00
 788              	.LEHE40:
 789 0688 E994FCFF 		jmp	.L36
 789      FF
 790              	.L58:
 791 068d 4889C3   		movq	%rax, %rbx
  45:testHexIO.cpp **** 	bufDestroy(&mask);
 792              		.loc 4 45 0 is_stmt 1
 793 0690 E8000000 		call	__cxa_end_catch
 793      00
 794 0695 4889D8   		movq	%rbx, %rax
 795 0698 4889C7   		movq	%rax, %rdi
 796              	.LEHB41:
 797 069b E8000000 		call	_Unwind_Resume
 797      00
 798              	.LEHE41:
 799              	.L57:
 800 06a0 4889C7   		movq	%rax, %rdi
 801 06a3 E8000000 		call	__cxa_begin_catch
 801      00
 802              	.LEHB42:
 803 06a8 E8000000 		call	_ZN8UnitTest11CurrentTest7DetailsEv
 803      00
 804 06ad 488B08   		movq	(%rax), %rcx
 805 06b0 488D45C0 		leaq	-64(%rbp), %rax
 806 06b4 BA2D0000 		movl	$45, %edx
 806      00
 807 06b9 4889CE   		movq	%rcx, %rsi
 808 06bc 4889C7   		movq	%rax, %rdi
 809 06bf E8000000 		call	_ZN8UnitTest11TestDetailsC1ERKS0_i
 809      00
  45:testHexIO.cpp **** 	bufDestroy(&mask);
 810              		.loc 4 45 0 is_stmt 0 discriminator 1
 811 06c4 E8000000 		call	_ZN8UnitTest11CurrentTest7ResultsEv
 811      00
 812 06c9 488B00   		movq	(%rax), %rax
 813 06cc 488D4DC0 		leaq	-64(%rbp), %rcx
 814 06d0 BA000000 		movl	$.LC10, %edx
 814      00
 815 06d5 4889CE   		movq	%rcx, %rsi
 816 06d8 4889C7   		movq	%rax, %rdi
 817 06db E8000000 		call	_ZN8UnitTest11TestResults13OnTestFailureERKNS_11TestDetailsEPKc
 817      00
 818              	.LEHE42:
 819              	.LEHB43:
 820 06e0 E8000000 		call	__cxa_end_catch
 820      00
 821              	.LEHE43:
 822 06e5 E98BFCFF 		jmp	.L39
 822      FF
 823              	.L59:
 824              	.LBE6:
 825              		.loc 4 48 0 is_stmt 1
 826 06ea E8000000 		call	__stack_chk_fail
 826      00
 827              	.L40:
 828 06ef 4881C4A8 		addq	$168, %rsp
 828      000000
 829 06f6 5B       		popq	%rbx
 830 06f7 5D       		popq	%rbp
 831              		.cfi_def_cfa 7, 8
 832 06f8 C3       		ret
 833              		.cfi_endproc
 834              	.LFE1090:
 835              		.section	.gcc_except_table,"a",@progbits
 836              		.align 4
 837              	.LLSDA1090:
 838 0000 FF       		.byte	0xff
 839 0001 03       		.byte	0x3
 840 0002 E401     		.uleb128 .LLSDATT1090-.LLSDATTD1090
 841              	.LLSDATTD1090:
 842 0004 01       		.byte	0x1
 843 0005 D801     		.uleb128 .LLSDACSE1090-.LLSDACSB1090
 844              	.LLSDACSB1090:
 845 0007 5D       		.uleb128 .LEHB4-.LFB1090
 846 0008 05       		.uleb128 .LEHE4-.LEHB4
 847 0009 00       		.uleb128 0
 848 000a 00       		.uleb128 0
 849 000b 68       		.uleb128 .LEHB5-.LFB1090
 850 000c 42       		.uleb128 .LEHE5-.LEHB5
 851 000d B807     		.uleb128 .L41-.LFB1090
 852 000f 01       		.uleb128 0x1
 853 0010 C001     		.uleb128 .LEHB6-.LFB1090
 854 0012 05       		.uleb128 .LEHE6-.LEHB6
 855 0013 00       		.uleb128 0
 856 0014 00       		.uleb128 0
 857 0015 CB01     		.uleb128 .LEHB7-.LFB1090
 858 0017 48       		.uleb128 .LEHE7-.LEHB7
 859 0018 9508     		.uleb128 .L43-.LFB1090
 860 001a 01       		.uleb128 0x1
 861 001b C602     		.uleb128 .LEHB8-.LFB1090
 862 001d 05       		.uleb128 .LEHE8-.LEHB8
 863 001e 00       		.uleb128 0
 864 001f 00       		.uleb128 0
 865 0020 D102     		.uleb128 .LEHB9-.LFB1090
 866 0022 48       		.uleb128 .LEHE9-.LEHB9
 867 0023 F208     		.uleb128 .L45-.LFB1090
 868 0025 01       		.uleb128 0x1
 869 0026 9903     		.uleb128 .LEHB10-.LFB1090
 870 0028 48       		.uleb128 .LEHE10-.LEHB10
 871 0029 CF09     		.uleb128 .L47-.LFB1090
 872 002b 01       		.uleb128 0x1
 873 002c E103     		.uleb128 .LEHB11-.LFB1090
 874 002e 50       		.uleb128 .LEHE11-.LEHB11
 875 002f AC0A     		.uleb128 .L49-.LFB1090
 876 0031 01       		.uleb128 0x1
 877 0032 B104     		.uleb128 .LEHB12-.LFB1090
 878 0034 50       		.uleb128 .LEHE12-.LEHB12
 879 0035 890B     		.uleb128 .L51-.LFB1090
 880 0037 01       		.uleb128 0x1
 881 0038 8105     		.uleb128 .LEHB13-.LFB1090
 882 003a 50       		.uleb128 .LEHE13-.LEHB13
 883 003b E60B     		.uleb128 .L53-.LFB1090
 884 003d 01       		.uleb128 0x1
 885 003e D105     		.uleb128 .LEHB14-.LFB1090
 886 0040 50       		.uleb128 .LEHE14-.LEHB14
 887 0041 C30C     		.uleb128 .L55-.LFB1090
 888 0043 01       		.uleb128 0x1
 889 0044 A106     		.uleb128 .LEHB15-.LFB1090
 890 0046 54       		.uleb128 .LEHE15-.LEHB15
 891 0047 A00D     		.uleb128 .L57-.LFB1090
 892 0049 01       		.uleb128 0x1
 893 004a FC06     		.uleb128 .LEHB16-.LFB1090
 894 004c 11       		.uleb128 .LEHE16-.LEHB16
 895 004d 00       		.uleb128 0
 896 004e 00       		.uleb128 0
 897 004f B307     		.uleb128 .LEHB17-.LFB1090
 898 0051 05       		.uleb128 .LEHE17-.LEHB17
 899 0052 00       		.uleb128 0
 900 0053 00       		.uleb128 0
 901 0054 C007     		.uleb128 .LEHB18-.LFB1090
 902 0056 38       		.uleb128 .LEHE18-.LEHB18
 903 0057 A507     		.uleb128 .L42-.LFB1090
 904 0059 00       		.uleb128 0
 905 005a F807     		.uleb128 .LEHB19-.LFB1090
 906 005c 05       		.uleb128 .LEHE19-.LEHB19
 907 005d 00       		.uleb128 0
 908 005e 00       		.uleb128 0
 909 005f 9008     		.uleb128 .LEHB20-.LFB1090
 910 0061 05       		.uleb128 .LEHE20-.LEHB20
 911 0062 00       		.uleb128 0
 912 0063 00       		.uleb128 0
 913 0064 9D08     		.uleb128 .LEHB21-.LFB1090
 914 0066 38       		.uleb128 .LEHE21-.LEHB21
 915 0067 8208     		.uleb128 .L44-.LFB1090
 916 0069 00       		.uleb128 0
 917 006a D508     		.uleb128 .LEHB22-.LFB1090
 918 006c 05       		.uleb128 .LEHE22-.LEHB22
 919 006d 00       		.uleb128 0
 920 006e 00       		.uleb128 0
 921 006f ED08     		.uleb128 .LEHB23-.LFB1090
 922 0071 05       		.uleb128 .LEHE23-.LEHB23
 923 0072 00       		.uleb128 0
 924 0073 00       		.uleb128 0
 925 0074 FA08     		.uleb128 .LEHB24-.LFB1090
 926 0076 38       		.uleb128 .LEHE24-.LEHB24
 927 0077 DF08     		.uleb128 .L46-.LFB1090
 928 0079 00       		.uleb128 0
 929 007a B209     		.uleb128 .LEHB25-.LFB1090
 930 007c 05       		.uleb128 .LEHE25-.LEHB25
 931 007d 00       		.uleb128 0
 932 007e 00       		.uleb128 0
 933 007f CA09     		.uleb128 .LEHB26-.LFB1090
 934 0081 05       		.uleb128 .LEHE26-.LEHB26
 935 0082 00       		.uleb128 0
 936 0083 00       		.uleb128 0
 937 0084 D709     		.uleb128 .LEHB27-.LFB1090
 938 0086 38       		.uleb128 .LEHE27-.LEHB27
 939 0087 BC09     		.uleb128 .L48-.LFB1090
 940 0089 00       		.uleb128 0
 941 008a 8F0A     		.uleb128 .LEHB28-.LFB1090
 942 008c 05       		.uleb128 .LEHE28-.LEHB28
 943 008d 00       		.uleb128 0
 944 008e 00       		.uleb128 0
 945 008f A70A     		.uleb128 .LEHB29-.LFB1090
 946 0091 05       		.uleb128 .LEHE29-.LEHB29
 947 0092 00       		.uleb128 0
 948 0093 00       		.uleb128 0
 949 0094 B40A     		.uleb128 .LEHB30-.LFB1090
 950 0096 38       		.uleb128 .LEHE30-.LEHB30
 951 0097 990A     		.uleb128 .L50-.LFB1090
 952 0099 00       		.uleb128 0
 953 009a EC0A     		.uleb128 .LEHB31-.LFB1090
 954 009c 05       		.uleb128 .LEHE31-.LEHB31
 955 009d 00       		.uleb128 0
 956 009e 00       		.uleb128 0
 957 009f 840B     		.uleb128 .LEHB32-.LFB1090
 958 00a1 05       		.uleb128 .LEHE32-.LEHB32
 959 00a2 00       		.uleb128 0
 960 00a3 00       		.uleb128 0
 961 00a4 910B     		.uleb128 .LEHB33-.LFB1090
 962 00a6 38       		.uleb128 .LEHE33-.LEHB33
 963 00a7 F60A     		.uleb128 .L52-.LFB1090
 964 00a9 00       		.uleb128 0
 965 00aa C90B     		.uleb128 .LEHB34-.LFB1090
 966 00ac 05       		.uleb128 .LEHE34-.LEHB34
 967 00ad 00       		.uleb128 0
 968 00ae 00       		.uleb128 0
 969 00af E10B     		.uleb128 .LEHB35-.LFB1090
 970 00b1 05       		.uleb128 .LEHE35-.LEHB35
 971 00b2 00       		.uleb128 0
 972 00b3 00       		.uleb128 0
 973 00b4 EE0B     		.uleb128 .LEHB36-.LFB1090
 974 00b6 38       		.uleb128 .LEHE36-.LEHB36
 975 00b7 D30B     		.uleb128 .L54-.LFB1090
 976 00b9 00       		.uleb128 0
 977 00ba A60C     		.uleb128 .LEHB37-.LFB1090
 978 00bc 05       		.uleb128 .LEHE37-.LEHB37
 979 00bd 00       		.uleb128 0
 980 00be 00       		.uleb128 0
 981 00bf BE0C     		.uleb128 .LEHB38-.LFB1090
 982 00c1 05       		.uleb128 .LEHE38-.LEHB38
 983 00c2 00       		.uleb128 0
 984 00c3 00       		.uleb128 0
 985 00c4 CB0C     		.uleb128 .LEHB39-.LFB1090
 986 00c6 38       		.uleb128 .LEHE39-.LEHB39
 987 00c7 B00C     		.uleb128 .L56-.LFB1090
 988 00c9 00       		.uleb128 0
 989 00ca 830D     		.uleb128 .LEHB40-.LFB1090
 990 00cc 05       		.uleb128 .LEHE40-.LEHB40
 991 00cd 00       		.uleb128 0
 992 00ce 00       		.uleb128 0
 993 00cf 9B0D     		.uleb128 .LEHB41-.LFB1090
 994 00d1 05       		.uleb128 .LEHE41-.LEHB41
 995 00d2 00       		.uleb128 0
 996 00d3 00       		.uleb128 0
 997 00d4 A80D     		.uleb128 .LEHB42-.LFB1090
 998 00d6 38       		.uleb128 .LEHE42-.LEHB42
 999 00d7 8D0D     		.uleb128 .L58-.LFB1090
 1000 00d9 00       		.uleb128 0
 1001 00da E00D     		.uleb128 .LEHB43-.LFB1090
 1002 00dc 05       		.uleb128 .LEHE43-.LEHB43
 1003 00dd 00       		.uleb128 0
 1004 00de 00       		.uleb128 0
 1005              	.LLSDACSE1090:
 1006 00df 01       		.byte	0x1
 1007 00e0 00       		.byte	0
 1008 00e1 000000   		.align 4
 1009 00e4 00000000 		.long	0
 1010              	
 1011              	.LLSDATT1090:
 1012              		.text
 1014              		.section	.rodata
 1015              	.LC11:
 1016 01ff 48657849 		.string	"HexIO_testValidEOF"
 1016      4F5F7465 
 1016      73745661 
 1016      6C696445 
 1016      4F4600
 1017              		.section	.text._ZN22TestHexIO_testValidEOFC2Ev,"axG",@progbits,_ZN22TestHexIO_testValidEOFC5Ev,com
 1018              		.align 2
 1019              		.weak	_ZN22TestHexIO_testValidEOFC2Ev
 1021              	_ZN22TestHexIO_testValidEOFC2Ev:
 1022              	.LFB1092:
  49:testHexIO.cpp **** 
  50:testHexIO.cpp **** TEST(HexIO_testValidEOF) {
 1023              		.loc 4 50 0
 1024              		.cfi_startproc
 1025 0000 55       		pushq	%rbp
 1026              		.cfi_def_cfa_offset 16
 1027              		.cfi_offset 6, -16
 1028 0001 4889E5   		movq	%rsp, %rbp
 1029              		.cfi_def_cfa_register 6
 1030 0004 4883EC10 		subq	$16, %rsp
 1031 0008 48897DF8 		movq	%rdi, -8(%rbp)
 1032              	.LBB7:
 1033              		.loc 4 50 0
 1034 000c E8000000 		call	_ZN13UnitTestSuite12GetSuiteNameEv
 1034      00
 1035 0011 4889C2   		movq	%rax, %rdx
 1036 0014 488B45F8 		movq	-8(%rbp), %rax
 1037 0018 41B83200 		movl	$50, %r8d
 1037      0000
 1038 001e B9000000 		movl	$.LC1, %ecx
 1038      00
 1039 0023 BE000000 		movl	$.LC11, %esi
 1039      00
 1040 0028 4889C7   		movq	%rax, %rdi
 1041 002b E8000000 		call	_ZN8UnitTest4TestC2EPKcS2_S2_i
 1041      00
 1042 0030 488B45F8 		movq	-8(%rbp), %rax
 1043 0034 48C70000 		movq	$_ZTV22TestHexIO_testValidEOF+16, (%rax)
 1043      000000
 1044              	.LBE7:
 1045 003b C9       		leave
 1046              		.cfi_def_cfa 7, 8
 1047 003c C3       		ret
 1048              		.cfi_endproc
 1049              	.LFE1092:
 1051              		.weak	_ZN22TestHexIO_testValidEOFC1Ev
 1052              		.set	_ZN22TestHexIO_testValidEOFC1Ev,_ZN22TestHexIO_testValidEOFC2Ev
 1053              		.globl	testHexIO_testValidEOFInstance
 1054              		.bss
 1055 0039 00000000 		.align 32
 1055      000000
 1058              	testHexIO_testValidEOFInstance:
 1059 0040 00000000 		.zero	56
 1059      00000000 
 1059      00000000 
 1059      00000000 
 1059      00000000 
 1060              		.globl	adderHexIO_testValidEOF
 1063              	adderHexIO_testValidEOF:
 1064 0078 00       		.zero	1
 1065              		.section	.rodata
 1066              	.LC12:
 1067 0212 3A303030 		.string	":00000001FF\n"
 1067      30303030 
 1067      3146460A 
 1067      00
 1068 021f 00       		.align 8
 1069              	.LC13:
 1070 0220 556E6861 		.string	"Unhandled exception in CHECK_EQUAL(0x01, recordType)"
 1070      6E646C65 
 1070      64206578 
 1070      63657074 
 1070      696F6E20 
 1071 0255 000000   		.align 8
 1072              	.LC14:
 1073 0258 556E6861 		.string	"Unhandled exception in CHECK_EQUAL(0UL, data.length)"
 1073      6E646C65 
 1073      64206578 
 1073      63657074 
 1073      696F6E20 
 1074 028d 000000   		.align 8
 1075              	.LC15:
 1076 0290 556E6861 		.string	"Unhandled exception in CHECK_EQUAL(0UL, mask.length)"
 1076      6E646C65 
 1076      64206578 
 1076      63657074 
 1076      696F6E20 
 1077              		.text
 1078 06f9 90       		.align 2
 1079              		.globl	_ZNK22TestHexIO_testValidEOF7RunImplEv
 1081              	_ZNK22TestHexIO_testValidEOF7RunImplEv:
 1082              	.LFB1094:
 1083              		.loc 4 50 0
 1084              		.cfi_startproc
 1085              		.cfi_personality 0x3,__gxx_personality_v0
 1086              		.cfi_lsda 0x3,.LLSDA1094
 1087 06fa 55       		pushq	%rbp
 1088              		.cfi_def_cfa_offset 16
 1089              		.cfi_offset 6, -16
 1090 06fb 4889E5   		movq	%rsp, %rbp
 1091              		.cfi_def_cfa_register 6
 1092 06fe 53       		pushq	%rbx
 1093 06ff 4881EC98 		subq	$152, %rsp
 1093      000000
 1094              		.cfi_offset 3, -24
 1095 0706 4889BD68 		movq	%rdi, -152(%rbp)
 1095      FFFFFF
 1096              	.LBB8:
  51:testHexIO.cpp **** 	Buffer data, mask;
  52:testHexIO.cpp **** 	BufferStatus status;
  53:testHexIO.cpp **** 	const char *line = ":00000001FF\n";
 1097              		.loc 4 53 0
 1098 070d 48C74588 		movq	$.LC12, -120(%rbp)
 1098      00000000 
  54:testHexIO.cpp **** 	uint8 recordType;
  55:testHexIO.cpp **** 	uint32 seg = 0x00000000;
 1099              		.loc 4 55 0
 1100 0715 C7857CFF 		movl	$0, -132(%rbp)
 1100      FFFF0000 
 1100      0000
  56:testHexIO.cpp **** 	status = bufInitialise(&data, 1024, 0x00, NULL);
 1101              		.loc 4 56 0
 1102 071f 488D4590 		leaq	-112(%rbp), %rax
 1103 0723 B9000000 		movl	$0, %ecx
 1103      00
 1104 0728 BA000000 		movl	$0, %edx
 1104      00
 1105 072d BE000400 		movl	$1024, %esi
 1105      00
 1106 0732 4889C7   		movq	%rax, %rdi
 1107              	.LEHB44:
 1108 0735 E8000000 		call	bufInitialise
 1108      00
 1109              	.LEHE44:
 1110 073a 898578FF 		movl	%eax, -136(%rbp)
 1110      FFFF
 1111              	.LEHB45:
  57:testHexIO.cpp **** 	CHECK_EQUAL(BUF_SUCCESS, status);
 1112              		.loc 4 57 0
 1113 0740 E8000000 		call	_ZN8UnitTest11CurrentTest7DetailsEv
 1113      00
 1114 0745 488B08   		movq	(%rax), %rcx
 1115 0748 488D45D0 		leaq	-48(%rbp), %rax
 1116 074c BA390000 		movl	$57, %edx
 1116      00
 1117 0751 4889CE   		movq	%rcx, %rsi
 1118 0754 4889C7   		movq	%rax, %rdi
 1119 0757 E8000000 		call	_ZN8UnitTest11TestDetailsC1ERKS0_i
 1119      00
 1120              		.loc 4 57 0 is_stmt 0 discriminator 1
 1121 075c C745B000 		movl	$0, -80(%rbp)
 1121      000000
 1122 0763 E8000000 		call	_ZN8UnitTest11CurrentTest7ResultsEv
 1122      00
 1123 0768 488B00   		movq	(%rax), %rax
 1124 076b 488D4DD0 		leaq	-48(%rbp), %rcx
 1125 076f 488D9578 		leaq	-136(%rbp), %rdx
 1125      FFFFFF
 1126 0776 488D75B0 		leaq	-80(%rbp), %rsi
 1127 077a 4889C7   		movq	%rax, %rdi
 1128 077d E8000000 		call	_ZN8UnitTest10CheckEqualI12BufferStatusS1_EEvRNS_11TestResultsERKT_RKT0_RKNS_11TestDetailsE
 1128      00
 1129              	.LEHE45:
 1130              	.L64:
  58:testHexIO.cpp **** 	status = bufInitialise(&mask, 1024, 0x00, NULL);
 1131              		.loc 4 58 0 is_stmt 1
 1132 0782 488D45B0 		leaq	-80(%rbp), %rax
 1133 0786 B9000000 		movl	$0, %ecx
 1133      00
 1134 078b BA000000 		movl	$0, %edx
 1134      00
 1135 0790 BE000400 		movl	$1024, %esi
 1135      00
 1136 0795 4889C7   		movq	%rax, %rdi
 1137              	.LEHB46:
 1138 0798 E8000000 		call	bufInitialise
 1138      00
 1139              	.LEHE46:
 1140 079d 898578FF 		movl	%eax, -136(%rbp)
 1140      FFFF
 1141              	.LEHB47:
  59:testHexIO.cpp **** 	CHECK_EQUAL(BUF_SUCCESS, status);
 1142              		.loc 4 59 0
 1143 07a3 E8000000 		call	_ZN8UnitTest11CurrentTest7DetailsEv
 1143      00
 1144 07a8 488B08   		movq	(%rax), %rcx
 1145 07ab 488D45D0 		leaq	-48(%rbp), %rax
 1146 07af BA3B0000 		movl	$59, %edx
 1146      00
 1147 07b4 4889CE   		movq	%rcx, %rsi
 1148 07b7 4889C7   		movq	%rax, %rdi
 1149 07ba E8000000 		call	_ZN8UnitTest11TestDetailsC1ERKS0_i
 1149      00
 1150              		.loc 4 59 0 is_stmt 0 discriminator 1
 1151 07bf C7458000 		movl	$0, -128(%rbp)
 1151      000000
 1152 07c6 E8000000 		call	_ZN8UnitTest11CurrentTest7ResultsEv
 1152      00
 1153 07cb 488B00   		movq	(%rax), %rax
 1154 07ce 488D4DD0 		leaq	-48(%rbp), %rcx
 1155 07d2 488D9578 		leaq	-136(%rbp), %rdx
 1155      FFFFFF
 1156 07d9 488D7580 		leaq	-128(%rbp), %rsi
 1157 07dd 4889C7   		movq	%rax, %rdi
 1158 07e0 E8000000 		call	_ZN8UnitTest10CheckEqualI12BufferStatusS1_EEvRNS_11TestResultsERKT_RKT0_RKNS_11TestDetailsE
 1158      00
 1159              	.LEHE47:
 1160              	.L67:
  60:testHexIO.cpp **** 	status = bufProcessLine(line, 0, &data, &mask, &seg, &recordType, NULL);
 1161              		.loc 4 60 0 is_stmt 1
 1162 07e5 488DBD77 		leaq	-137(%rbp), %rdi
 1162      FFFFFF
 1163 07ec 488DB57C 		leaq	-132(%rbp), %rsi
 1163      FFFFFF
 1164 07f3 488D4DB0 		leaq	-80(%rbp), %rcx
 1165 07f7 488D5590 		leaq	-112(%rbp), %rdx
 1166 07fb 488B4588 		movq	-120(%rbp), %rax
 1167 07ff 48C70424 		movq	$0, (%rsp)
 1167      00000000 
 1168 0807 4989F9   		movq	%rdi, %r9
 1169 080a 4989F0   		movq	%rsi, %r8
 1170 080d BE000000 		movl	$0, %esi
 1170      00
 1171 0812 4889C7   		movq	%rax, %rdi
 1172              	.LEHB48:
 1173 0815 E8000000 		call	bufProcessLine
 1173      00
 1174              	.LEHE48:
 1175 081a 898578FF 		movl	%eax, -136(%rbp)
 1175      FFFF
 1176              	.LEHB49:
  61:testHexIO.cpp **** 	CHECK_EQUAL(BUF_SUCCESS, status);
 1177              		.loc 4 61 0
 1178 0820 E8000000 		call	_ZN8UnitTest11CurrentTest7DetailsEv
 1178      00
 1179 0825 488B08   		movq	(%rax), %rcx
 1180 0828 488D45D0 		leaq	-48(%rbp), %rax
 1181 082c BA3D0000 		movl	$61, %edx
 1181      00
 1182 0831 4889CE   		movq	%rcx, %rsi
 1183 0834 4889C7   		movq	%rax, %rdi
 1184 0837 E8000000 		call	_ZN8UnitTest11TestDetailsC1ERKS0_i
 1184      00
 1185              		.loc 4 61 0 is_stmt 0 discriminator 1
 1186 083c C7458000 		movl	$0, -128(%rbp)
 1186      000000
 1187 0843 E8000000 		call	_ZN8UnitTest11CurrentTest7ResultsEv
 1187      00
 1188 0848 488B00   		movq	(%rax), %rax
 1189 084b 488D4DD0 		leaq	-48(%rbp), %rcx
 1190 084f 488D9578 		leaq	-136(%rbp), %rdx
 1190      FFFFFF
 1191 0856 488D7580 		leaq	-128(%rbp), %rsi
 1192 085a 4889C7   		movq	%rax, %rdi
 1193 085d E8000000 		call	_ZN8UnitTest10CheckEqualI12BufferStatusS1_EEvRNS_11TestResultsERKT_RKT0_RKNS_11TestDetailsE
 1193      00
 1194              	.LEHE49:
 1195              	.L70:
 1196              	.LEHB50:
  62:testHexIO.cpp **** 	CHECK_EQUAL(0x01, recordType);
 1197              		.loc 4 62 0 is_stmt 1
 1198 0862 E8000000 		call	_ZN8UnitTest11CurrentTest7DetailsEv
 1198      00
 1199 0867 488B08   		movq	(%rax), %rcx
 1200 086a 488D45D0 		leaq	-48(%rbp), %rax
 1201 086e BA3E0000 		movl	$62, %edx
 1201      00
 1202 0873 4889CE   		movq	%rcx, %rsi
 1203 0876 4889C7   		movq	%rax, %rdi
 1204 0879 E8000000 		call	_ZN8UnitTest11TestDetailsC1ERKS0_i
 1204      00
 1205              		.loc 4 62 0 is_stmt 0 discriminator 1
 1206 087e C7458001 		movl	$1, -128(%rbp)
 1206      000000
 1207 0885 E8000000 		call	_ZN8UnitTest11CurrentTest7ResultsEv
 1207      00
 1208 088a 488B00   		movq	(%rax), %rax
 1209 088d 488D4DD0 		leaq	-48(%rbp), %rcx
 1210 0891 488D9577 		leaq	-137(%rbp), %rdx
 1210      FFFFFF
 1211 0898 488D7580 		leaq	-128(%rbp), %rsi
 1212 089c 4889C7   		movq	%rax, %rdi
 1213 089f E8000000 		call	_ZN8UnitTest10CheckEqualIihEEvRNS_11TestResultsERKT_RKT0_RKNS_11TestDetailsE
 1213      00
 1214              	.LEHE50:
 1215              	.L73:
 1216              	.LEHB51:
  63:testHexIO.cpp **** 	CHECK_EQUAL(0UL, data.length);
 1217              		.loc 4 63 0 is_stmt 1
 1218 08a4 E8000000 		call	_ZN8UnitTest11CurrentTest7DetailsEv
 1218      00
 1219 08a9 488B08   		movq	(%rax), %rcx
 1220 08ac 488D45D0 		leaq	-48(%rbp), %rax
 1221 08b0 BA3F0000 		movl	$63, %edx
 1221      00
 1222 08b5 4889CE   		movq	%rcx, %rsi
 1223 08b8 4889C7   		movq	%rax, %rdi
 1224 08bb E8000000 		call	_ZN8UnitTest11TestDetailsC1ERKS0_i
 1224      00
 1225              		.loc 4 63 0 is_stmt 0 discriminator 1
 1226 08c0 48C74580 		movq	$0, -128(%rbp)
 1226      00000000 
 1227 08c8 E8000000 		call	_ZN8UnitTest11CurrentTest7ResultsEv
 1227      00
 1228 08cd 488B00   		movq	(%rax), %rax
 1229 08d0 488D55D0 		leaq	-48(%rbp), %rdx
 1230 08d4 488D4D90 		leaq	-112(%rbp), %rcx
 1231 08d8 488D7908 		leaq	8(%rcx), %rdi
 1232 08dc 488D7580 		leaq	-128(%rbp), %rsi
 1233 08e0 4889D1   		movq	%rdx, %rcx
 1234 08e3 4889FA   		movq	%rdi, %rdx
 1235 08e6 4889C7   		movq	%rax, %rdi
 1236 08e9 E8000000 		call	_ZN8UnitTest10CheckEqualImmEEvRNS_11TestResultsERKT_RKT0_RKNS_11TestDetailsE
 1236      00
 1237              	.LEHE51:
 1238              	.L76:
 1239              	.LEHB52:
  64:testHexIO.cpp **** 	CHECK_EQUAL(0UL, mask.length);
 1240              		.loc 4 64 0 is_stmt 1
 1241 08ee E8000000 		call	_ZN8UnitTest11CurrentTest7DetailsEv
 1241      00
 1242 08f3 488B08   		movq	(%rax), %rcx
 1243 08f6 488D45D0 		leaq	-48(%rbp), %rax
 1244 08fa BA400000 		movl	$64, %edx
 1244      00
 1245 08ff 4889CE   		movq	%rcx, %rsi
 1246 0902 4889C7   		movq	%rax, %rdi
 1247 0905 E8000000 		call	_ZN8UnitTest11TestDetailsC1ERKS0_i
 1247      00
 1248              		.loc 4 64 0 is_stmt 0 discriminator 1
 1249 090a 48C74580 		movq	$0, -128(%rbp)
 1249      00000000 
 1250 0912 E8000000 		call	_ZN8UnitTest11CurrentTest7ResultsEv
 1250      00
 1251 0917 488B00   		movq	(%rax), %rax
 1252 091a 488D55D0 		leaq	-48(%rbp), %rdx
 1253 091e 488D4DB0 		leaq	-80(%rbp), %rcx
 1254 0922 488D7908 		leaq	8(%rcx), %rdi
 1255 0926 488D7580 		leaq	-128(%rbp), %rsi
 1256 092a 4889D1   		movq	%rdx, %rcx
 1257 092d 4889FA   		movq	%rdi, %rdx
 1258 0930 4889C7   		movq	%rax, %rdi
 1259 0933 E8000000 		call	_ZN8UnitTest10CheckEqualImmEEvRNS_11TestResultsERKT_RKT0_RKNS_11TestDetailsE
 1259      00
 1260              	.LEHE52:
 1261              	.L79:
  65:testHexIO.cpp **** 	bufDestroy(&mask);
 1262              		.loc 4 65 0 is_stmt 1
 1263 0938 488D45B0 		leaq	-80(%rbp), %rax
 1264 093c 4889C7   		movq	%rax, %rdi
 1265              	.LEHB53:
 1266 093f E8000000 		call	bufDestroy
 1266      00
  66:testHexIO.cpp **** 	bufDestroy(&data);
 1267              		.loc 4 66 0
 1268 0944 488D4590 		leaq	-112(%rbp), %rax
 1269 0948 4889C7   		movq	%rax, %rdi
 1270 094b E8000000 		call	bufDestroy
 1270      00
 1271              	.LEHE53:
 1272 0950 E92E0200 		jmp	.L92
 1272      00
 1273              	.L81:
 1274 0955 4889C3   		movq	%rax, %rbx
  57:testHexIO.cpp **** 	status = bufInitialise(&mask, 1024, 0x00, NULL);
 1275              		.loc 4 57 0
 1276 0958 E8000000 		call	__cxa_end_catch
 1276      00
 1277 095d 4889D8   		movq	%rbx, %rax
 1278 0960 4889C7   		movq	%rax, %rdi
 1279              	.LEHB54:
 1280 0963 E8000000 		call	_Unwind_Resume
 1280      00
 1281              	.LEHE54:
 1282              	.L80:
 1283 0968 4889C7   		movq	%rax, %rdi
 1284 096b E8000000 		call	__cxa_begin_catch
 1284      00
 1285              	.LEHB55:
 1286 0970 E8000000 		call	_ZN8UnitTest11CurrentTest7DetailsEv
 1286      00
 1287 0975 488B08   		movq	(%rax), %rcx
 1288 0978 488D45D0 		leaq	-48(%rbp), %rax
 1289 097c BA390000 		movl	$57, %edx
 1289      00
 1290 0981 4889CE   		movq	%rcx, %rsi
 1291 0984 4889C7   		movq	%rax, %rdi
 1292 0987 E8000000 		call	_ZN8UnitTest11TestDetailsC1ERKS0_i
 1292      00
  57:testHexIO.cpp **** 	status = bufInitialise(&mask, 1024, 0x00, NULL);
 1293              		.loc 4 57 0 is_stmt 0 discriminator 1
 1294 098c E8000000 		call	_ZN8UnitTest11CurrentTest7ResultsEv
 1294      00
 1295 0991 488B00   		movq	(%rax), %rax
 1296 0994 488D4DD0 		leaq	-48(%rbp), %rcx
 1297 0998 BA000000 		movl	$.LC4, %edx
 1297      00
 1298 099d 4889CE   		movq	%rcx, %rsi
 1299 09a0 4889C7   		movq	%rax, %rdi
 1300 09a3 E8000000 		call	_ZN8UnitTest11TestResults13OnTestFailureERKNS_11TestDetailsEPKc
 1300      00
 1301              	.LEHE55:
 1302              	.LEHB56:
 1303 09a8 E8000000 		call	__cxa_end_catch
 1303      00
 1304              	.LEHE56:
 1305 09ad E9D0FDFF 		jmp	.L64
 1305      FF
 1306              	.L83:
 1307 09b2 4889C3   		movq	%rax, %rbx
  59:testHexIO.cpp **** 	status = bufProcessLine(line, 0, &data, &mask, &seg, &recordType, NULL);
 1308              		.loc 4 59 0 is_stmt 1
 1309 09b5 E8000000 		call	__cxa_end_catch
 1309      00
 1310 09ba 4889D8   		movq	%rbx, %rax
 1311 09bd 4889C7   		movq	%rax, %rdi
 1312              	.LEHB57:
 1313 09c0 E8000000 		call	_Unwind_Resume
 1313      00
 1314              	.LEHE57:
 1315              	.L82:
 1316 09c5 4889C7   		movq	%rax, %rdi
 1317 09c8 E8000000 		call	__cxa_begin_catch
 1317      00
 1318              	.LEHB58:
 1319 09cd E8000000 		call	_ZN8UnitTest11CurrentTest7DetailsEv
 1319      00
 1320 09d2 488B08   		movq	(%rax), %rcx
 1321 09d5 488D45D0 		leaq	-48(%rbp), %rax
 1322 09d9 BA3B0000 		movl	$59, %edx
 1322      00
 1323 09de 4889CE   		movq	%rcx, %rsi
 1324 09e1 4889C7   		movq	%rax, %rdi
 1325 09e4 E8000000 		call	_ZN8UnitTest11TestDetailsC1ERKS0_i
 1325      00
  59:testHexIO.cpp **** 	status = bufProcessLine(line, 0, &data, &mask, &seg, &recordType, NULL);
 1326              		.loc 4 59 0 is_stmt 0 discriminator 1
 1327 09e9 E8000000 		call	_ZN8UnitTest11CurrentTest7ResultsEv
 1327      00
 1328 09ee 488B00   		movq	(%rax), %rax
 1329 09f1 488D4DD0 		leaq	-48(%rbp), %rcx
 1330 09f5 BA000000 		movl	$.LC4, %edx
 1330      00
 1331 09fa 4889CE   		movq	%rcx, %rsi
 1332 09fd 4889C7   		movq	%rax, %rdi
 1333 0a00 E8000000 		call	_ZN8UnitTest11TestResults13OnTestFailureERKNS_11TestDetailsEPKc
 1333      00
 1334              	.LEHE58:
 1335              	.LEHB59:
 1336 0a05 E8000000 		call	__cxa_end_catch
 1336      00
 1337              	.LEHE59:
 1338 0a0a E9D6FDFF 		jmp	.L67
 1338      FF
 1339              	.L85:
 1340 0a0f 4889C3   		movq	%rax, %rbx
  61:testHexIO.cpp **** 	CHECK_EQUAL(0x01, recordType);
 1341              		.loc 4 61 0 is_stmt 1
 1342 0a12 E8000000 		call	__cxa_end_catch
 1342      00
 1343 0a17 4889D8   		movq	%rbx, %rax
 1344 0a1a 4889C7   		movq	%rax, %rdi
 1345              	.LEHB60:
 1346 0a1d E8000000 		call	_Unwind_Resume
 1346      00
 1347              	.LEHE60:
 1348              	.L84:
 1349 0a22 4889C7   		movq	%rax, %rdi
 1350 0a25 E8000000 		call	__cxa_begin_catch
 1350      00
 1351              	.LEHB61:
 1352 0a2a E8000000 		call	_ZN8UnitTest11CurrentTest7DetailsEv
 1352      00
 1353 0a2f 488B08   		movq	(%rax), %rcx
 1354 0a32 488D45D0 		leaq	-48(%rbp), %rax
 1355 0a36 BA3D0000 		movl	$61, %edx
 1355      00
 1356 0a3b 4889CE   		movq	%rcx, %rsi
 1357 0a3e 4889C7   		movq	%rax, %rdi
 1358 0a41 E8000000 		call	_ZN8UnitTest11TestDetailsC1ERKS0_i
 1358      00
  61:testHexIO.cpp **** 	CHECK_EQUAL(0x01, recordType);
 1359              		.loc 4 61 0 is_stmt 0 discriminator 1
 1360 0a46 E8000000 		call	_ZN8UnitTest11CurrentTest7ResultsEv
 1360      00
 1361 0a4b 488B00   		movq	(%rax), %rax
 1362 0a4e 488D4DD0 		leaq	-48(%rbp), %rcx
 1363 0a52 BA000000 		movl	$.LC4, %edx
 1363      00
 1364 0a57 4889CE   		movq	%rcx, %rsi
 1365 0a5a 4889C7   		movq	%rax, %rdi
 1366 0a5d E8000000 		call	_ZN8UnitTest11TestResults13OnTestFailureERKNS_11TestDetailsEPKc
 1366      00
 1367              	.LEHE61:
 1368              	.LEHB62:
 1369 0a62 E8000000 		call	__cxa_end_catch
 1369      00
 1370              	.LEHE62:
 1371 0a67 E9F6FDFF 		jmp	.L70
 1371      FF
 1372              	.L87:
 1373 0a6c 4889C3   		movq	%rax, %rbx
  62:testHexIO.cpp **** 	CHECK_EQUAL(0UL, data.length);
 1374              		.loc 4 62 0 is_stmt 1
 1375 0a6f E8000000 		call	__cxa_end_catch
 1375      00
 1376 0a74 4889D8   		movq	%rbx, %rax
 1377 0a77 4889C7   		movq	%rax, %rdi
 1378              	.LEHB63:
 1379 0a7a E8000000 		call	_Unwind_Resume
 1379      00
 1380              	.LEHE63:
 1381              	.L86:
 1382 0a7f 4889C7   		movq	%rax, %rdi
 1383 0a82 E8000000 		call	__cxa_begin_catch
 1383      00
 1384              	.LEHB64:
 1385 0a87 E8000000 		call	_ZN8UnitTest11CurrentTest7DetailsEv
 1385      00
 1386 0a8c 488B08   		movq	(%rax), %rcx
 1387 0a8f 488D45D0 		leaq	-48(%rbp), %rax
 1388 0a93 BA3E0000 		movl	$62, %edx
 1388      00
 1389 0a98 4889CE   		movq	%rcx, %rsi
 1390 0a9b 4889C7   		movq	%rax, %rdi
 1391 0a9e E8000000 		call	_ZN8UnitTest11TestDetailsC1ERKS0_i
 1391      00
  62:testHexIO.cpp **** 	CHECK_EQUAL(0UL, data.length);
 1392              		.loc 4 62 0 is_stmt 0 discriminator 1
 1393 0aa3 E8000000 		call	_ZN8UnitTest11CurrentTest7ResultsEv
 1393      00
 1394 0aa8 488B00   		movq	(%rax), %rax
 1395 0aab 488D4DD0 		leaq	-48(%rbp), %rcx
 1396 0aaf BA000000 		movl	$.LC13, %edx
 1396      00
 1397 0ab4 4889CE   		movq	%rcx, %rsi
 1398 0ab7 4889C7   		movq	%rax, %rdi
 1399 0aba E8000000 		call	_ZN8UnitTest11TestResults13OnTestFailureERKNS_11TestDetailsEPKc
 1399      00
 1400              	.LEHE64:
 1401              	.LEHB65:
 1402 0abf E8000000 		call	__cxa_end_catch
 1402      00
 1403              	.LEHE65:
 1404 0ac4 E9DBFDFF 		jmp	.L73
 1404      FF
 1405              	.L89:
 1406 0ac9 4889C3   		movq	%rax, %rbx
  63:testHexIO.cpp **** 	CHECK_EQUAL(0UL, mask.length);
 1407              		.loc 4 63 0 is_stmt 1
 1408 0acc E8000000 		call	__cxa_end_catch
 1408      00
 1409 0ad1 4889D8   		movq	%rbx, %rax
 1410 0ad4 4889C7   		movq	%rax, %rdi
 1411              	.LEHB66:
 1412 0ad7 E8000000 		call	_Unwind_Resume
 1412      00
 1413              	.LEHE66:
 1414              	.L88:
 1415 0adc 4889C7   		movq	%rax, %rdi
 1416 0adf E8000000 		call	__cxa_begin_catch
 1416      00
 1417              	.LEHB67:
 1418 0ae4 E8000000 		call	_ZN8UnitTest11CurrentTest7DetailsEv
 1418      00
 1419 0ae9 488B08   		movq	(%rax), %rcx
 1420 0aec 488D45D0 		leaq	-48(%rbp), %rax
 1421 0af0 BA3F0000 		movl	$63, %edx
 1421      00
 1422 0af5 4889CE   		movq	%rcx, %rsi
 1423 0af8 4889C7   		movq	%rax, %rdi
 1424 0afb E8000000 		call	_ZN8UnitTest11TestDetailsC1ERKS0_i
 1424      00
  63:testHexIO.cpp **** 	CHECK_EQUAL(0UL, mask.length);
 1425              		.loc 4 63 0 is_stmt 0 discriminator 1
 1426 0b00 E8000000 		call	_ZN8UnitTest11CurrentTest7ResultsEv
 1426      00
 1427 0b05 488B00   		movq	(%rax), %rax
 1428 0b08 488D4DD0 		leaq	-48(%rbp), %rcx
 1429 0b0c BA000000 		movl	$.LC14, %edx
 1429      00
 1430 0b11 4889CE   		movq	%rcx, %rsi
 1431 0b14 4889C7   		movq	%rax, %rdi
 1432 0b17 E8000000 		call	_ZN8UnitTest11TestResults13OnTestFailureERKNS_11TestDetailsEPKc
 1432      00
 1433              	.LEHE67:
 1434              	.LEHB68:
 1435 0b1c E8000000 		call	__cxa_end_catch
 1435      00
 1436              	.LEHE68:
 1437 0b21 E9C8FDFF 		jmp	.L76
 1437      FF
 1438              	.L91:
 1439 0b26 4889C3   		movq	%rax, %rbx
  64:testHexIO.cpp **** 	bufDestroy(&mask);
 1440              		.loc 4 64 0 is_stmt 1
 1441 0b29 E8000000 		call	__cxa_end_catch
 1441      00
 1442 0b2e 4889D8   		movq	%rbx, %rax
 1443 0b31 4889C7   		movq	%rax, %rdi
 1444              	.LEHB69:
 1445 0b34 E8000000 		call	_Unwind_Resume
 1445      00
 1446              	.LEHE69:
 1447              	.L90:
 1448 0b39 4889C7   		movq	%rax, %rdi
 1449 0b3c E8000000 		call	__cxa_begin_catch
 1449      00
 1450              	.LEHB70:
 1451 0b41 E8000000 		call	_ZN8UnitTest11CurrentTest7DetailsEv
 1451      00
 1452 0b46 488B08   		movq	(%rax), %rcx
 1453 0b49 488D45D0 		leaq	-48(%rbp), %rax
 1454 0b4d BA400000 		movl	$64, %edx
 1454      00
 1455 0b52 4889CE   		movq	%rcx, %rsi
 1456 0b55 4889C7   		movq	%rax, %rdi
 1457 0b58 E8000000 		call	_ZN8UnitTest11TestDetailsC1ERKS0_i
 1457      00
  64:testHexIO.cpp **** 	bufDestroy(&mask);
 1458              		.loc 4 64 0 is_stmt 0 discriminator 1
 1459 0b5d E8000000 		call	_ZN8UnitTest11CurrentTest7ResultsEv
 1459      00
 1460 0b62 488B00   		movq	(%rax), %rax
 1461 0b65 488D4DD0 		leaq	-48(%rbp), %rcx
 1462 0b69 BA000000 		movl	$.LC15, %edx
 1462      00
 1463 0b6e 4889CE   		movq	%rcx, %rsi
 1464 0b71 4889C7   		movq	%rax, %rdi
 1465 0b74 E8000000 		call	_ZN8UnitTest11TestResults13OnTestFailureERKNS_11TestDetailsEPKc
 1465      00
 1466              	.LEHE70:
 1467              	.LEHB71:
 1468 0b79 E8000000 		call	__cxa_end_catch
 1468      00
 1469              	.LEHE71:
 1470 0b7e E9B5FDFF 		jmp	.L79
 1470      FF
 1471              	.L92:
 1472              	.LBE8:
  67:testHexIO.cpp **** }
 1473              		.loc 4 67 0 is_stmt 1
 1474 0b83 4881C498 		addq	$152, %rsp
 1474      000000
 1475 0b8a 5B       		popq	%rbx
 1476 0b8b 5D       		popq	%rbp
 1477              		.cfi_def_cfa 7, 8
 1478 0b8c C3       		ret
 1479              		.cfi_endproc
 1480              	.LFE1094:
 1481              		.section	.gcc_except_table
 1482              		.align 4
 1483              	.LLSDA1094:
 1484 00e8 FF       		.byte	0xff
 1485 00e9 03       		.byte	0x3
 1486 00ea A001     		.uleb128 .LLSDATT1094-.LLSDATTD1094
 1487              	.LLSDATTD1094:
 1488 00ec 01       		.byte	0x1
 1489 00ed 9601     		.uleb128 .LLSDACSE1094-.LLSDACSB1094
 1490              	.LLSDACSB1094:
 1491 00ef 3B       		.uleb128 .LEHB44-.LFB1094
 1492 00f0 05       		.uleb128 .LEHE44-.LEHB44
 1493 00f1 00       		.uleb128 0
 1494 00f2 00       		.uleb128 0
 1495 00f3 46       		.uleb128 .LEHB45-.LFB1094
 1496 00f4 42       		.uleb128 .LEHE45-.LEHB45
 1497 00f5 EE04     		.uleb128 .L80-.LFB1094
 1498 00f7 01       		.uleb128 0x1
 1499 00f8 9E01     		.uleb128 .LEHB46-.LFB1094
 1500 00fa 05       		.uleb128 .LEHE46-.LEHB46
 1501 00fb 00       		.uleb128 0
 1502 00fc 00       		.uleb128 0
 1503 00fd A901     		.uleb128 .LEHB47-.LFB1094
 1504 00ff 42       		.uleb128 .LEHE47-.LEHB47
 1505 0100 CB05     		.uleb128 .L82-.LFB1094
 1506 0102 01       		.uleb128 0x1
 1507 0103 9B02     		.uleb128 .LEHB48-.LFB1094
 1508 0105 05       		.uleb128 .LEHE48-.LEHB48
 1509 0106 00       		.uleb128 0
 1510 0107 00       		.uleb128 0
 1511 0108 A602     		.uleb128 .LEHB49-.LFB1094
 1512 010a 42       		.uleb128 .LEHE49-.LEHB49
 1513 010b A806     		.uleb128 .L84-.LFB1094
 1514 010d 01       		.uleb128 0x1
 1515 010e E802     		.uleb128 .LEHB50-.LFB1094
 1516 0110 42       		.uleb128 .LEHE50-.LEHB50
 1517 0111 8507     		.uleb128 .L86-.LFB1094
 1518 0113 01       		.uleb128 0x1
 1519 0114 AA03     		.uleb128 .LEHB51-.LFB1094
 1520 0116 4A       		.uleb128 .LEHE51-.LEHB51
 1521 0117 E207     		.uleb128 .L88-.LFB1094
 1522 0119 01       		.uleb128 0x1
 1523 011a F403     		.uleb128 .LEHB52-.LFB1094
 1524 011c 4A       		.uleb128 .LEHE52-.LEHB52
 1525 011d BF08     		.uleb128 .L90-.LFB1094
 1526 011f 01       		.uleb128 0x1
 1527 0120 C504     		.uleb128 .LEHB53-.LFB1094
 1528 0122 11       		.uleb128 .LEHE53-.LEHB53
 1529 0123 00       		.uleb128 0
 1530 0124 00       		.uleb128 0
 1531 0125 E904     		.uleb128 .LEHB54-.LFB1094
 1532 0127 05       		.uleb128 .LEHE54-.LEHB54
 1533 0128 00       		.uleb128 0
 1534 0129 00       		.uleb128 0
 1535 012a F604     		.uleb128 .LEHB55-.LFB1094
 1536 012c 38       		.uleb128 .LEHE55-.LEHB55
 1537 012d DB04     		.uleb128 .L81-.LFB1094
 1538 012f 00       		.uleb128 0
 1539 0130 AE05     		.uleb128 .LEHB56-.LFB1094
 1540 0132 05       		.uleb128 .LEHE56-.LEHB56
 1541 0133 00       		.uleb128 0
 1542 0134 00       		.uleb128 0
 1543 0135 C605     		.uleb128 .LEHB57-.LFB1094
 1544 0137 05       		.uleb128 .LEHE57-.LEHB57
 1545 0138 00       		.uleb128 0
 1546 0139 00       		.uleb128 0
 1547 013a D305     		.uleb128 .LEHB58-.LFB1094
 1548 013c 38       		.uleb128 .LEHE58-.LEHB58
 1549 013d B805     		.uleb128 .L83-.LFB1094
 1550 013f 00       		.uleb128 0
 1551 0140 8B06     		.uleb128 .LEHB59-.LFB1094
 1552 0142 05       		.uleb128 .LEHE59-.LEHB59
 1553 0143 00       		.uleb128 0
 1554 0144 00       		.uleb128 0
 1555 0145 A306     		.uleb128 .LEHB60-.LFB1094
 1556 0147 05       		.uleb128 .LEHE60-.LEHB60
 1557 0148 00       		.uleb128 0
 1558 0149 00       		.uleb128 0
 1559 014a B006     		.uleb128 .LEHB61-.LFB1094
 1560 014c 38       		.uleb128 .LEHE61-.LEHB61
 1561 014d 9506     		.uleb128 .L85-.LFB1094
 1562 014f 00       		.uleb128 0
 1563 0150 E806     		.uleb128 .LEHB62-.LFB1094
 1564 0152 05       		.uleb128 .LEHE62-.LEHB62
 1565 0153 00       		.uleb128 0
 1566 0154 00       		.uleb128 0
 1567 0155 8007     		.uleb128 .LEHB63-.LFB1094
 1568 0157 05       		.uleb128 .LEHE63-.LEHB63
 1569 0158 00       		.uleb128 0
 1570 0159 00       		.uleb128 0
 1571 015a 8D07     		.uleb128 .LEHB64-.LFB1094
 1572 015c 38       		.uleb128 .LEHE64-.LEHB64
 1573 015d F206     		.uleb128 .L87-.LFB1094
 1574 015f 00       		.uleb128 0
 1575 0160 C507     		.uleb128 .LEHB65-.LFB1094
 1576 0162 05       		.uleb128 .LEHE65-.LEHB65
 1577 0163 00       		.uleb128 0
 1578 0164 00       		.uleb128 0
 1579 0165 DD07     		.uleb128 .LEHB66-.LFB1094
 1580 0167 05       		.uleb128 .LEHE66-.LEHB66
 1581 0168 00       		.uleb128 0
 1582 0169 00       		.uleb128 0
 1583 016a EA07     		.uleb128 .LEHB67-.LFB1094
 1584 016c 38       		.uleb128 .LEHE67-.LEHB67
 1585 016d CF07     		.uleb128 .L89-.LFB1094
 1586 016f 00       		.uleb128 0
 1587 0170 A208     		.uleb128 .LEHB68-.LFB1094
 1588 0172 05       		.uleb128 .LEHE68-.LEHB68
 1589 0173 00       		.uleb128 0
 1590 0174 00       		.uleb128 0
 1591 0175 BA08     		.uleb128 .LEHB69-.LFB1094
 1592 0177 05       		.uleb128 .LEHE69-.LEHB69
 1593 0178 00       		.uleb128 0
 1594 0179 00       		.uleb128 0
 1595 017a C708     		.uleb128 .LEHB70-.LFB1094
 1596 017c 38       		.uleb128 .LEHE70-.LEHB70
 1597 017d AC08     		.uleb128 .L91-.LFB1094
 1598 017f 00       		.uleb128 0
 1599 0180 FF08     		.uleb128 .LEHB71-.LFB1094
 1600 0182 05       		.uleb128 .LEHE71-.LEHB71
 1601 0183 00       		.uleb128 0
 1602 0184 00       		.uleb128 0
 1603              	.LLSDACSE1094:
 1604 0185 01       		.byte	0x1
 1605 0186 00       		.byte	0
 1606 0187 00       		.align 4
 1607 0188 00000000 		.long	0
 1608              	
 1609              	.LLSDATT1094:
 1610              		.text
 1612              		.section	.rodata
 1613              	.LC16:
 1614 02c5 48657849 		.string	"HexIO_testJunkStartCode"
 1614      4F5F7465 
 1614      73744A75 
 1614      6E6B5374 
 1614      61727443 
 1615              		.section	.text._ZN27TestHexIO_testJunkStartCodeC2Ev,"axG",@progbits,_ZN27TestHexIO_testJunkStartCo
 1616              		.align 2
 1617              		.weak	_ZN27TestHexIO_testJunkStartCodeC2Ev
 1619              	_ZN27TestHexIO_testJunkStartCodeC2Ev:
 1620              	.LFB1096:
  68:testHexIO.cpp **** 
  69:testHexIO.cpp **** TEST(HexIO_testJunkStartCode) {
 1621              		.loc 4 69 0
 1622              		.cfi_startproc
 1623 0000 55       		pushq	%rbp
 1624              		.cfi_def_cfa_offset 16
 1625              		.cfi_offset 6, -16
 1626 0001 4889E5   		movq	%rsp, %rbp
 1627              		.cfi_def_cfa_register 6
 1628 0004 4883EC10 		subq	$16, %rsp
 1629 0008 48897DF8 		movq	%rdi, -8(%rbp)
 1630              	.LBB9:
 1631              		.loc 4 69 0
 1632 000c E8000000 		call	_ZN13UnitTestSuite12GetSuiteNameEv
 1632      00
 1633 0011 4889C2   		movq	%rax, %rdx
 1634 0014 488B45F8 		movq	-8(%rbp), %rax
 1635 0018 41B84500 		movl	$69, %r8d
 1635      0000
 1636 001e B9000000 		movl	$.LC1, %ecx
 1636      00
 1637 0023 BE000000 		movl	$.LC16, %esi
 1637      00
 1638 0028 4889C7   		movq	%rax, %rdi
 1639 002b E8000000 		call	_ZN8UnitTest4TestC2EPKcS2_S2_i
 1639      00
 1640 0030 488B45F8 		movq	-8(%rbp), %rax
 1641 0034 48C70000 		movq	$_ZTV27TestHexIO_testJunkStartCode+16, (%rax)
 1641      000000
 1642              	.LBE9:
 1643 003b C9       		leave
 1644              		.cfi_def_cfa 7, 8
 1645 003c C3       		ret
 1646              		.cfi_endproc
 1647              	.LFE1096:
 1649              		.weak	_ZN27TestHexIO_testJunkStartCodeC1Ev
 1650              		.set	_ZN27TestHexIO_testJunkStartCodeC1Ev,_ZN27TestHexIO_testJunkStartCodeC2Ev
 1651              		.globl	testHexIO_testJunkStartCodeInstance
 1652              		.bss
 1653 0079 00000000 		.align 32
 1653      000000
 1656              	testHexIO_testJunkStartCodeInstance:
 1657 0080 00000000 		.zero	56
 1657      00000000 
 1657      00000000 
 1657      00000000 
 1657      00000000 
 1658              		.globl	adderHexIO_testJunkStartCode
 1661              	adderHexIO_testJunkStartCode:
 1662 00b8 00       		.zero	1
 1663              		.section	.rodata
 1664              	.LC17:
 1665 02dd 2E303430 		.string	".040BE10075820022F7\n"
 1665      42453130 
 1665      30373538 
 1665      32303032 
 1665      3246370A 
 1666 02f2 00000000 		.align 8
 1666      0000
 1667              	.LC18:
 1668 02f8 556E6861 		.string	"Unhandled exception in CHECK_EQUAL(HEX_JUNK_START_CODE, status)"
 1668      6E646C65 
 1668      64206578 
 1668      63657074 
 1668      696F6E20 
 1669              		.text
 1670 0b8d 90       		.align 2
 1671              		.globl	_ZNK27TestHexIO_testJunkStartCode7RunImplEv
 1673              	_ZNK27TestHexIO_testJunkStartCode7RunImplEv:
 1674              	.LFB1098:
 1675              		.loc 4 69 0
 1676              		.cfi_startproc
 1677              		.cfi_personality 0x3,__gxx_personality_v0
 1678              		.cfi_lsda 0x3,.LLSDA1098
 1679 0b8e 55       		pushq	%rbp
 1680              		.cfi_def_cfa_offset 16
 1681              		.cfi_offset 6, -16
 1682 0b8f 4889E5   		movq	%rsp, %rbp
 1683              		.cfi_def_cfa_register 6
 1684 0b92 53       		pushq	%rbx
 1685 0b93 4883EC78 		subq	$120, %rsp
 1686              		.cfi_offset 3, -24
 1687 0b97 48897D88 		movq	%rdi, -120(%rbp)
 1688              	.LBB10:
  70:testHexIO.cpp **** 	Buffer data;
  71:testHexIO.cpp **** 	BufferStatus status;
  72:testHexIO.cpp **** 	const char *line = ".040BE10075820022F7\n";
 1689              		.loc 4 72 0
 1690 0b9b 48C745A8 		movq	$.LC17, -88(%rbp)
 1690      00000000 
  73:testHexIO.cpp **** 	uint8 recordType;
  74:testHexIO.cpp **** 	uint32 seg = 0x00000000;
 1691              		.loc 4 74 0
 1692 0ba3 C745A000 		movl	$0, -96(%rbp)
 1692      000000
  75:testHexIO.cpp **** 	status = bufInitialise(&data, 1024, 0x00, NULL);
 1693              		.loc 4 75 0
 1694 0baa 488D45B0 		leaq	-80(%rbp), %rax
 1695 0bae B9000000 		movl	$0, %ecx
 1695      00
 1696 0bb3 BA000000 		movl	$0, %edx
 1696      00
 1697 0bb8 BE000400 		movl	$1024, %esi
 1697      00
 1698 0bbd 4889C7   		movq	%rax, %rdi
 1699              	.LEHB72:
 1700 0bc0 E8000000 		call	bufInitialise
 1700      00
 1701              	.LEHE72:
 1702 0bc5 89459C   		movl	%eax, -100(%rbp)
 1703              	.LEHB73:
  76:testHexIO.cpp **** 	CHECK_EQUAL(BUF_SUCCESS, status);
 1704              		.loc 4 76 0
 1705 0bc8 E8000000 		call	_ZN8UnitTest11CurrentTest7DetailsEv
 1705      00
 1706 0bcd 488B08   		movq	(%rax), %rcx
 1707 0bd0 488D45D0 		leaq	-48(%rbp), %rax
 1708 0bd4 BA4C0000 		movl	$76, %edx
 1708      00
 1709 0bd9 4889CE   		movq	%rcx, %rsi
 1710 0bdc 4889C7   		movq	%rax, %rdi
 1711 0bdf E8000000 		call	_ZN8UnitTest11TestDetailsC1ERKS0_i
 1711      00
 1712              		.loc 4 76 0 is_stmt 0 discriminator 1
 1713 0be4 C745A400 		movl	$0, -92(%rbp)
 1713      000000
 1714 0beb E8000000 		call	_ZN8UnitTest11CurrentTest7ResultsEv
 1714      00
 1715 0bf0 488B00   		movq	(%rax), %rax
 1716 0bf3 488D4DD0 		leaq	-48(%rbp), %rcx
 1717 0bf7 488D559C 		leaq	-100(%rbp), %rdx
 1718 0bfb 488D75A4 		leaq	-92(%rbp), %rsi
 1719 0bff 4889C7   		movq	%rax, %rdi
 1720 0c02 E8000000 		call	_ZN8UnitTest10CheckEqualI12BufferStatusS1_EEvRNS_11TestResultsERKT_RKT0_RKNS_11TestDetailsE
 1720      00
 1721              	.LEHE73:
 1722              	.L97:
  77:testHexIO.cpp **** 	status = bufProcessLine(line, 0, &data, NULL, &seg, &recordType, NULL);
 1723              		.loc 4 77 0 is_stmt 1
 1724 0c07 488D759B 		leaq	-101(%rbp), %rsi
 1725 0c0b 488D4DA0 		leaq	-96(%rbp), %rcx
 1726 0c0f 488D55B0 		leaq	-80(%rbp), %rdx
 1727 0c13 488B45A8 		movq	-88(%rbp), %rax
 1728 0c17 48C70424 		movq	$0, (%rsp)
 1728      00000000 
 1729 0c1f 4989F1   		movq	%rsi, %r9
 1730 0c22 4989C8   		movq	%rcx, %r8
 1731 0c25 B9000000 		movl	$0, %ecx
 1731      00
 1732 0c2a BE000000 		movl	$0, %esi
 1732      00
 1733 0c2f 4889C7   		movq	%rax, %rdi
 1734              	.LEHB74:
 1735 0c32 E8000000 		call	bufProcessLine
 1735      00
 1736              	.LEHE74:
 1737 0c37 89459C   		movl	%eax, -100(%rbp)
 1738              	.LEHB75:
  78:testHexIO.cpp **** 	CHECK_EQUAL(HEX_JUNK_START_CODE, status);
 1739              		.loc 4 78 0
 1740 0c3a E8000000 		call	_ZN8UnitTest11CurrentTest7DetailsEv
 1740      00
 1741 0c3f 488B08   		movq	(%rax), %rcx
 1742 0c42 488D45D0 		leaq	-48(%rbp), %rax
 1743 0c46 BA4E0000 		movl	$78, %edx
 1743      00
 1744 0c4b 4889CE   		movq	%rcx, %rsi
 1745 0c4e 4889C7   		movq	%rax, %rdi
 1746 0c51 E8000000 		call	_ZN8UnitTest11TestDetailsC1ERKS0_i
 1746      00
 1747              		.loc 4 78 0 is_stmt 0 discriminator 1
 1748 0c56 C745A408 		movl	$8, -92(%rbp)
 1748      000000
 1749 0c5d E8000000 		call	_ZN8UnitTest11CurrentTest7ResultsEv
 1749      00
 1750 0c62 488B00   		movq	(%rax), %rax
 1751 0c65 488D4DD0 		leaq	-48(%rbp), %rcx
 1752 0c69 488D559C 		leaq	-100(%rbp), %rdx
 1753 0c6d 488D75A4 		leaq	-92(%rbp), %rsi
 1754 0c71 4889C7   		movq	%rax, %rdi
 1755 0c74 E8000000 		call	_ZN8UnitTest10CheckEqualI12BufferStatusS1_EEvRNS_11TestResultsERKT_RKT0_RKNS_11TestDetailsE
 1755      00
 1756              	.LEHE75:
 1757              	.L100:
  79:testHexIO.cpp **** 	bufDestroy(&data);
 1758              		.loc 4 79 0 is_stmt 1
 1759 0c79 488D45B0 		leaq	-80(%rbp), %rax
 1760 0c7d 4889C7   		movq	%rax, %rdi
 1761              	.LEHB76:
 1762 0c80 E8000000 		call	bufDestroy
 1762      00
 1763              	.LEHE76:
 1764 0c85 E9BA0000 		jmp	.L105
 1764      00
 1765              	.L102:
 1766 0c8a 4889C3   		movq	%rax, %rbx
  76:testHexIO.cpp **** 	status = bufProcessLine(line, 0, &data, NULL, &seg, &recordType, NULL);
 1767              		.loc 4 76 0
 1768 0c8d E8000000 		call	__cxa_end_catch
 1768      00
 1769 0c92 4889D8   		movq	%rbx, %rax
 1770 0c95 4889C7   		movq	%rax, %rdi
 1771              	.LEHB77:
 1772 0c98 E8000000 		call	_Unwind_Resume
 1772      00
 1773              	.LEHE77:
 1774              	.L101:
 1775 0c9d 4889C7   		movq	%rax, %rdi
 1776 0ca0 E8000000 		call	__cxa_begin_catch
 1776      00
 1777              	.LEHB78:
 1778 0ca5 E8000000 		call	_ZN8UnitTest11CurrentTest7DetailsEv
 1778      00
 1779 0caa 488B08   		movq	(%rax), %rcx
 1780 0cad 488D45D0 		leaq	-48(%rbp), %rax
 1781 0cb1 BA4C0000 		movl	$76, %edx
 1781      00
 1782 0cb6 4889CE   		movq	%rcx, %rsi
 1783 0cb9 4889C7   		movq	%rax, %rdi
 1784 0cbc E8000000 		call	_ZN8UnitTest11TestDetailsC1ERKS0_i
 1784      00
  76:testHexIO.cpp **** 	status = bufProcessLine(line, 0, &data, NULL, &seg, &recordType, NULL);
 1785              		.loc 4 76 0 is_stmt 0 discriminator 1
 1786 0cc1 E8000000 		call	_ZN8UnitTest11CurrentTest7ResultsEv
 1786      00
 1787 0cc6 488B00   		movq	(%rax), %rax
 1788 0cc9 488D4DD0 		leaq	-48(%rbp), %rcx
 1789 0ccd BA000000 		movl	$.LC4, %edx
 1789      00
 1790 0cd2 4889CE   		movq	%rcx, %rsi
 1791 0cd5 4889C7   		movq	%rax, %rdi
 1792 0cd8 E8000000 		call	_ZN8UnitTest11TestResults13OnTestFailureERKNS_11TestDetailsEPKc
 1792      00
 1793              	.LEHE78:
 1794              	.LEHB79:
 1795 0cdd E8000000 		call	__cxa_end_catch
 1795      00
 1796              	.LEHE79:
 1797 0ce2 E920FFFF 		jmp	.L97
 1797      FF
 1798              	.L104:
 1799 0ce7 4889C3   		movq	%rax, %rbx
  78:testHexIO.cpp **** 	CHECK_EQUAL(HEX_JUNK_START_CODE, status);
 1800              		.loc 4 78 0 is_stmt 1
 1801 0cea E8000000 		call	__cxa_end_catch
 1801      00
 1802 0cef 4889D8   		movq	%rbx, %rax
 1803 0cf2 4889C7   		movq	%rax, %rdi
 1804              	.LEHB80:
 1805 0cf5 E8000000 		call	_Unwind_Resume
 1805      00
 1806              	.LEHE80:
 1807              	.L103:
 1808 0cfa 4889C7   		movq	%rax, %rdi
 1809 0cfd E8000000 		call	__cxa_begin_catch
 1809      00
 1810              	.LEHB81:
 1811 0d02 E8000000 		call	_ZN8UnitTest11CurrentTest7DetailsEv
 1811      00
 1812 0d07 488B08   		movq	(%rax), %rcx
 1813 0d0a 488D45D0 		leaq	-48(%rbp), %rax
 1814 0d0e BA4E0000 		movl	$78, %edx
 1814      00
 1815 0d13 4889CE   		movq	%rcx, %rsi
 1816 0d16 4889C7   		movq	%rax, %rdi
 1817 0d19 E8000000 		call	_ZN8UnitTest11TestDetailsC1ERKS0_i
 1817      00
  78:testHexIO.cpp **** 	CHECK_EQUAL(HEX_JUNK_START_CODE, status);
 1818              		.loc 4 78 0 is_stmt 0 discriminator 1
 1819 0d1e E8000000 		call	_ZN8UnitTest11CurrentTest7ResultsEv
 1819      00
 1820 0d23 488B00   		movq	(%rax), %rax
 1821 0d26 488D4DD0 		leaq	-48(%rbp), %rcx
 1822 0d2a BA000000 		movl	$.LC18, %edx
 1822      00
 1823 0d2f 4889CE   		movq	%rcx, %rsi
 1824 0d32 4889C7   		movq	%rax, %rdi
 1825 0d35 E8000000 		call	_ZN8UnitTest11TestResults13OnTestFailureERKNS_11TestDetailsEPKc
 1825      00
 1826              	.LEHE81:
 1827              	.LEHB82:
 1828 0d3a E8000000 		call	__cxa_end_catch
 1828      00
 1829              	.LEHE82:
 1830 0d3f E935FFFF 		jmp	.L100
 1830      FF
 1831              	.L105:
 1832              	.LBE10:
  80:testHexIO.cpp **** }
 1833              		.loc 4 80 0 is_stmt 1
 1834 0d44 4883C478 		addq	$120, %rsp
 1835 0d48 5B       		popq	%rbx
 1836 0d49 5D       		popq	%rbp
 1837              		.cfi_def_cfa 7, 8
 1838 0d4a C3       		ret
 1839              		.cfi_endproc
 1840              	.LFE1098:
 1841              		.section	.gcc_except_table
 1842              		.align 4
 1843              	.LLSDA1098:
 1844 018c FF       		.byte	0xff
 1845 018d 03       		.byte	0x3
 1846 018e 41       		.uleb128 .LLSDATT1098-.LLSDATTD1098
 1847              	.LLSDATTD1098:
 1848 018f 01       		.byte	0x1
 1849 0190 39       		.uleb128 .LLSDACSE1098-.LLSDACSB1098
 1850              	.LLSDACSB1098:
 1851 0191 32       		.uleb128 .LEHB72-.LFB1098
 1852 0192 05       		.uleb128 .LEHE72-.LEHB72
 1853 0193 00       		.uleb128 0
 1854 0194 00       		.uleb128 0
 1855 0195 3A       		.uleb128 .LEHB73-.LFB1098
 1856 0196 3F       		.uleb128 .LEHE73-.LEHB73
 1857 0197 8F02     		.uleb128 .L101-.LFB1098
 1858 0199 01       		.uleb128 0x1
 1859 019a A401     		.uleb128 .LEHB74-.LFB1098
 1860 019c 05       		.uleb128 .LEHE74-.LEHB74
 1861 019d 00       		.uleb128 0
 1862 019e 00       		.uleb128 0
 1863 019f AC01     		.uleb128 .LEHB75-.LFB1098
 1864 01a1 3F       		.uleb128 .LEHE75-.LEHB75
 1865 01a2 EC02     		.uleb128 .L103-.LFB1098
 1866 01a4 01       		.uleb128 0x1
 1867 01a5 F201     		.uleb128 .LEHB76-.LFB1098
 1868 01a7 05       		.uleb128 .LEHE76-.LEHB76
 1869 01a8 00       		.uleb128 0
 1870 01a9 00       		.uleb128 0
 1871 01aa 8A02     		.uleb128 .LEHB77-.LFB1098
 1872 01ac 05       		.uleb128 .LEHE77-.LEHB77
 1873 01ad 00       		.uleb128 0
 1874 01ae 00       		.uleb128 0
 1875 01af 9702     		.uleb128 .LEHB78-.LFB1098
 1876 01b1 38       		.uleb128 .LEHE78-.LEHB78
 1877 01b2 FC01     		.uleb128 .L102-.LFB1098
 1878 01b4 00       		.uleb128 0
 1879 01b5 CF02     		.uleb128 .LEHB79-.LFB1098
 1880 01b7 05       		.uleb128 .LEHE79-.LEHB79
 1881 01b8 00       		.uleb128 0
 1882 01b9 00       		.uleb128 0
 1883 01ba E702     		.uleb128 .LEHB80-.LFB1098
 1884 01bc 05       		.uleb128 .LEHE80-.LEHB80
 1885 01bd 00       		.uleb128 0
 1886 01be 00       		.uleb128 0
 1887 01bf F402     		.uleb128 .LEHB81-.LFB1098
 1888 01c1 38       		.uleb128 .LEHE81-.LEHB81
 1889 01c2 D902     		.uleb128 .L104-.LFB1098
 1890 01c4 00       		.uleb128 0
 1891 01c5 AC03     		.uleb128 .LEHB82-.LFB1098
 1892 01c7 05       		.uleb128 .LEHE82-.LEHB82
 1893 01c8 00       		.uleb128 0
 1894 01c9 00       		.uleb128 0
 1895              	.LLSDACSE1098:
 1896 01ca 01       		.byte	0x1
 1897 01cb 00       		.byte	0
 1898              		.align 4
 1899 01cc 00000000 		.long	0
 1900              	
 1901              	.LLSDATT1098:
 1902              		.text
 1904              		.section	.rodata
 1905              	.LC19:
 1906 0338 48657849 		.string	"HexIO_testJunkByteCount"
 1906      4F5F7465 
 1906      73744A75 
 1906      6E6B4279 
 1906      7465436F 
 1907              		.section	.text._ZN27TestHexIO_testJunkByteCountC2Ev,"axG",@progbits,_ZN27TestHexIO_testJunkByteCou
 1908              		.align 2
 1909              		.weak	_ZN27TestHexIO_testJunkByteCountC2Ev
 1911              	_ZN27TestHexIO_testJunkByteCountC2Ev:
 1912              	.LFB1100:
  81:testHexIO.cpp **** 
  82:testHexIO.cpp **** TEST(HexIO_testJunkByteCount) {
 1913              		.loc 4 82 0
 1914              		.cfi_startproc
 1915 0000 55       		pushq	%rbp
 1916              		.cfi_def_cfa_offset 16
 1917              		.cfi_offset 6, -16
 1918 0001 4889E5   		movq	%rsp, %rbp
 1919              		.cfi_def_cfa_register 6
 1920 0004 4883EC10 		subq	$16, %rsp
 1921 0008 48897DF8 		movq	%rdi, -8(%rbp)
 1922              	.LBB11:
 1923              		.loc 4 82 0
 1924 000c E8000000 		call	_ZN13UnitTestSuite12GetSuiteNameEv
 1924      00
 1925 0011 4889C2   		movq	%rax, %rdx
 1926 0014 488B45F8 		movq	-8(%rbp), %rax
 1927 0018 41B85200 		movl	$82, %r8d
 1927      0000
 1928 001e B9000000 		movl	$.LC1, %ecx
 1928      00
 1929 0023 BE000000 		movl	$.LC19, %esi
 1929      00
 1930 0028 4889C7   		movq	%rax, %rdi
 1931 002b E8000000 		call	_ZN8UnitTest4TestC2EPKcS2_S2_i
 1931      00
 1932 0030 488B45F8 		movq	-8(%rbp), %rax
 1933 0034 48C70000 		movq	$_ZTV27TestHexIO_testJunkByteCount+16, (%rax)
 1933      000000
 1934              	.LBE11:
 1935 003b C9       		leave
 1936              		.cfi_def_cfa 7, 8
 1937 003c C3       		ret
 1938              		.cfi_endproc
 1939              	.LFE1100:
 1941              		.weak	_ZN27TestHexIO_testJunkByteCountC1Ev
 1942              		.set	_ZN27TestHexIO_testJunkByteCountC1Ev,_ZN27TestHexIO_testJunkByteCountC2Ev
 1943              		.globl	testHexIO_testJunkByteCountInstance
 1944              		.bss
 1945 00b9 00000000 		.align 32
 1945      000000
 1948              	testHexIO_testJunkByteCountInstance:
 1949 00c0 00000000 		.zero	56
 1949      00000000 
 1949      00000000 
 1949      00000000 
 1949      00000000 
 1950              		.globl	adderHexIO_testJunkByteCount
 1953              	adderHexIO_testJunkByteCount:
 1954 00f8 00       		.zero	1
 1955              		.section	.rodata
 1956              	.LC20:
 1957 0350 3A2E2E30 		.string	":..0BE10075820022F7\n"
 1957      42453130 
 1957      30373538 
 1957      32303032 
 1957      3246370A 
 1958 0365 000000   		.align 8
 1959              	.LC21:
 1960 0368 556E6861 		.string	"Unhandled exception in CHECK_EQUAL(HEX_JUNK_BYTE_COUNT, status)"
 1960      6E646C65 
 1960      64206578 
 1960      63657074 
 1960      696F6E20 
 1961              		.text
 1962 0d4b 90       		.align 2
 1963              		.globl	_ZNK27TestHexIO_testJunkByteCount7RunImplEv
 1965              	_ZNK27TestHexIO_testJunkByteCount7RunImplEv:
 1966              	.LFB1102:
 1967              		.loc 4 82 0
 1968              		.cfi_startproc
 1969              		.cfi_personality 0x3,__gxx_personality_v0
 1970              		.cfi_lsda 0x3,.LLSDA1102
 1971 0d4c 55       		pushq	%rbp
 1972              		.cfi_def_cfa_offset 16
 1973              		.cfi_offset 6, -16
 1974 0d4d 4889E5   		movq	%rsp, %rbp
 1975              		.cfi_def_cfa_register 6
 1976 0d50 53       		pushq	%rbx
 1977 0d51 4883EC78 		subq	$120, %rsp
 1978              		.cfi_offset 3, -24
 1979 0d55 48897D88 		movq	%rdi, -120(%rbp)
 1980              	.LBB12:
  83:testHexIO.cpp **** 	Buffer data;
  84:testHexIO.cpp **** 	BufferStatus status;
  85:testHexIO.cpp **** 	const char *line = ":..0BE10075820022F7\n";
 1981              		.loc 4 85 0
 1982 0d59 48C745A8 		movq	$.LC20, -88(%rbp)
 1982      00000000 
  86:testHexIO.cpp **** 	uint8 recordType;
  87:testHexIO.cpp **** 	uint32 seg = 0x00000000;
 1983              		.loc 4 87 0
 1984 0d61 C745A000 		movl	$0, -96(%rbp)
 1984      000000
  88:testHexIO.cpp **** 	status = bufInitialise(&data, 1024, 0x00, NULL);
 1985              		.loc 4 88 0
 1986 0d68 488D45B0 		leaq	-80(%rbp), %rax
 1987 0d6c B9000000 		movl	$0, %ecx
 1987      00
 1988 0d71 BA000000 		movl	$0, %edx
 1988      00
 1989 0d76 BE000400 		movl	$1024, %esi
 1989      00
 1990 0d7b 4889C7   		movq	%rax, %rdi
 1991              	.LEHB83:
 1992 0d7e E8000000 		call	bufInitialise
 1992      00
 1993              	.LEHE83:
 1994 0d83 89459C   		movl	%eax, -100(%rbp)
 1995              	.LEHB84:
  89:testHexIO.cpp **** 	CHECK_EQUAL(BUF_SUCCESS, status);
 1996              		.loc 4 89 0
 1997 0d86 E8000000 		call	_ZN8UnitTest11CurrentTest7DetailsEv
 1997      00
 1998 0d8b 488B08   		movq	(%rax), %rcx
 1999 0d8e 488D45D0 		leaq	-48(%rbp), %rax
 2000 0d92 BA590000 		movl	$89, %edx
 2000      00
 2001 0d97 4889CE   		movq	%rcx, %rsi
 2002 0d9a 4889C7   		movq	%rax, %rdi
 2003 0d9d E8000000 		call	_ZN8UnitTest11TestDetailsC1ERKS0_i
 2003      00
 2004              		.loc 4 89 0 is_stmt 0 discriminator 1
 2005 0da2 C745A400 		movl	$0, -92(%rbp)
 2005      000000
 2006 0da9 E8000000 		call	_ZN8UnitTest11CurrentTest7ResultsEv
 2006      00
 2007 0dae 488B00   		movq	(%rax), %rax
 2008 0db1 488D4DD0 		leaq	-48(%rbp), %rcx
 2009 0db5 488D559C 		leaq	-100(%rbp), %rdx
 2010 0db9 488D75A4 		leaq	-92(%rbp), %rsi
 2011 0dbd 4889C7   		movq	%rax, %rdi
 2012 0dc0 E8000000 		call	_ZN8UnitTest10CheckEqualI12BufferStatusS1_EEvRNS_11TestResultsERKT_RKT0_RKNS_11TestDetailsE
 2012      00
 2013              	.LEHE84:
 2014              	.L110:
  90:testHexIO.cpp **** 	status = bufProcessLine(line, 0, &data, NULL, &seg, &recordType, NULL);
 2015              		.loc 4 90 0 is_stmt 1
 2016 0dc5 488D759B 		leaq	-101(%rbp), %rsi
 2017 0dc9 488D4DA0 		leaq	-96(%rbp), %rcx
 2018 0dcd 488D55B0 		leaq	-80(%rbp), %rdx
 2019 0dd1 488B45A8 		movq	-88(%rbp), %rax
 2020 0dd5 48C70424 		movq	$0, (%rsp)
 2020      00000000 
 2021 0ddd 4989F1   		movq	%rsi, %r9
 2022 0de0 4989C8   		movq	%rcx, %r8
 2023 0de3 B9000000 		movl	$0, %ecx
 2023      00
 2024 0de8 BE000000 		movl	$0, %esi
 2024      00
 2025 0ded 4889C7   		movq	%rax, %rdi
 2026              	.LEHB85:
 2027 0df0 E8000000 		call	bufProcessLine
 2027      00
 2028              	.LEHE85:
 2029 0df5 89459C   		movl	%eax, -100(%rbp)
 2030              	.LEHB86:
  91:testHexIO.cpp **** 	CHECK_EQUAL(HEX_JUNK_BYTE_COUNT, status);
 2031              		.loc 4 91 0
 2032 0df8 E8000000 		call	_ZN8UnitTest11CurrentTest7DetailsEv
 2032      00
 2033 0dfd 488B08   		movq	(%rax), %rcx
 2034 0e00 488D45D0 		leaq	-48(%rbp), %rax
 2035 0e04 BA5B0000 		movl	$91, %edx
 2035      00
 2036 0e09 4889CE   		movq	%rcx, %rsi
 2037 0e0c 4889C7   		movq	%rax, %rdi
 2038 0e0f E8000000 		call	_ZN8UnitTest11TestDetailsC1ERKS0_i
 2038      00
 2039              		.loc 4 91 0 is_stmt 0 discriminator 1
 2040 0e14 C745A409 		movl	$9, -92(%rbp)
 2040      000000
 2041 0e1b E8000000 		call	_ZN8UnitTest11CurrentTest7ResultsEv
 2041      00
 2042 0e20 488B00   		movq	(%rax), %rax
 2043 0e23 488D4DD0 		leaq	-48(%rbp), %rcx
 2044 0e27 488D559C 		leaq	-100(%rbp), %rdx
 2045 0e2b 488D75A4 		leaq	-92(%rbp), %rsi
 2046 0e2f 4889C7   		movq	%rax, %rdi
 2047 0e32 E8000000 		call	_ZN8UnitTest10CheckEqualI12BufferStatusS1_EEvRNS_11TestResultsERKT_RKT0_RKNS_11TestDetailsE
 2047      00
 2048              	.LEHE86:
 2049              	.L113:
  92:testHexIO.cpp **** 	bufDestroy(&data);
 2050              		.loc 4 92 0 is_stmt 1
 2051 0e37 488D45B0 		leaq	-80(%rbp), %rax
 2052 0e3b 4889C7   		movq	%rax, %rdi
 2053              	.LEHB87:
 2054 0e3e E8000000 		call	bufDestroy
 2054      00
 2055              	.LEHE87:
 2056 0e43 E9BA0000 		jmp	.L118
 2056      00
 2057              	.L115:
 2058 0e48 4889C3   		movq	%rax, %rbx
  89:testHexIO.cpp **** 	status = bufProcessLine(line, 0, &data, NULL, &seg, &recordType, NULL);
 2059              		.loc 4 89 0
 2060 0e4b E8000000 		call	__cxa_end_catch
 2060      00
 2061 0e50 4889D8   		movq	%rbx, %rax
 2062 0e53 4889C7   		movq	%rax, %rdi
 2063              	.LEHB88:
 2064 0e56 E8000000 		call	_Unwind_Resume
 2064      00
 2065              	.LEHE88:
 2066              	.L114:
 2067 0e5b 4889C7   		movq	%rax, %rdi
 2068 0e5e E8000000 		call	__cxa_begin_catch
 2068      00
 2069              	.LEHB89:
 2070 0e63 E8000000 		call	_ZN8UnitTest11CurrentTest7DetailsEv
 2070      00
 2071 0e68 488B08   		movq	(%rax), %rcx
 2072 0e6b 488D45D0 		leaq	-48(%rbp), %rax
 2073 0e6f BA590000 		movl	$89, %edx
 2073      00
 2074 0e74 4889CE   		movq	%rcx, %rsi
 2075 0e77 4889C7   		movq	%rax, %rdi
 2076 0e7a E8000000 		call	_ZN8UnitTest11TestDetailsC1ERKS0_i
 2076      00
  89:testHexIO.cpp **** 	status = bufProcessLine(line, 0, &data, NULL, &seg, &recordType, NULL);
 2077              		.loc 4 89 0 is_stmt 0 discriminator 1
 2078 0e7f E8000000 		call	_ZN8UnitTest11CurrentTest7ResultsEv
 2078      00
 2079 0e84 488B00   		movq	(%rax), %rax
 2080 0e87 488D4DD0 		leaq	-48(%rbp), %rcx
 2081 0e8b BA000000 		movl	$.LC4, %edx
 2081      00
 2082 0e90 4889CE   		movq	%rcx, %rsi
 2083 0e93 4889C7   		movq	%rax, %rdi
 2084 0e96 E8000000 		call	_ZN8UnitTest11TestResults13OnTestFailureERKNS_11TestDetailsEPKc
 2084      00
 2085              	.LEHE89:
 2086              	.LEHB90:
 2087 0e9b E8000000 		call	__cxa_end_catch
 2087      00
 2088              	.LEHE90:
 2089 0ea0 E920FFFF 		jmp	.L110
 2089      FF
 2090              	.L117:
 2091 0ea5 4889C3   		movq	%rax, %rbx
  91:testHexIO.cpp **** 	CHECK_EQUAL(HEX_JUNK_BYTE_COUNT, status);
 2092              		.loc 4 91 0 is_stmt 1
 2093 0ea8 E8000000 		call	__cxa_end_catch
 2093      00
 2094 0ead 4889D8   		movq	%rbx, %rax
 2095 0eb0 4889C7   		movq	%rax, %rdi
 2096              	.LEHB91:
 2097 0eb3 E8000000 		call	_Unwind_Resume
 2097      00
 2098              	.LEHE91:
 2099              	.L116:
 2100 0eb8 4889C7   		movq	%rax, %rdi
 2101 0ebb E8000000 		call	__cxa_begin_catch
 2101      00
 2102              	.LEHB92:
 2103 0ec0 E8000000 		call	_ZN8UnitTest11CurrentTest7DetailsEv
 2103      00
 2104 0ec5 488B08   		movq	(%rax), %rcx
 2105 0ec8 488D45D0 		leaq	-48(%rbp), %rax
 2106 0ecc BA5B0000 		movl	$91, %edx
 2106      00
 2107 0ed1 4889CE   		movq	%rcx, %rsi
 2108 0ed4 4889C7   		movq	%rax, %rdi
 2109 0ed7 E8000000 		call	_ZN8UnitTest11TestDetailsC1ERKS0_i
 2109      00
  91:testHexIO.cpp **** 	CHECK_EQUAL(HEX_JUNK_BYTE_COUNT, status);
 2110              		.loc 4 91 0 is_stmt 0 discriminator 1
 2111 0edc E8000000 		call	_ZN8UnitTest11CurrentTest7ResultsEv
 2111      00
 2112 0ee1 488B00   		movq	(%rax), %rax
 2113 0ee4 488D4DD0 		leaq	-48(%rbp), %rcx
 2114 0ee8 BA000000 		movl	$.LC21, %edx
 2114      00
 2115 0eed 4889CE   		movq	%rcx, %rsi
 2116 0ef0 4889C7   		movq	%rax, %rdi
 2117 0ef3 E8000000 		call	_ZN8UnitTest11TestResults13OnTestFailureERKNS_11TestDetailsEPKc
 2117      00
 2118              	.LEHE92:
 2119              	.LEHB93:
 2120 0ef8 E8000000 		call	__cxa_end_catch
 2120      00
 2121              	.LEHE93:
 2122 0efd E935FFFF 		jmp	.L113
 2122      FF
 2123              	.L118:
 2124              	.LBE12:
  93:testHexIO.cpp **** }
 2125              		.loc 4 93 0 is_stmt 1
 2126 0f02 4883C478 		addq	$120, %rsp
 2127 0f06 5B       		popq	%rbx
 2128 0f07 5D       		popq	%rbp
 2129              		.cfi_def_cfa 7, 8
 2130 0f08 C3       		ret
 2131              		.cfi_endproc
 2132              	.LFE1102:
 2133              		.section	.gcc_except_table
 2134              		.align 4
 2135              	.LLSDA1102:
 2136 01d0 FF       		.byte	0xff
 2137 01d1 03       		.byte	0x3
 2138 01d2 41       		.uleb128 .LLSDATT1102-.LLSDATTD1102
 2139              	.LLSDATTD1102:
 2140 01d3 01       		.byte	0x1
 2141 01d4 39       		.uleb128 .LLSDACSE1102-.LLSDACSB1102
 2142              	.LLSDACSB1102:
 2143 01d5 32       		.uleb128 .LEHB83-.LFB1102
 2144 01d6 05       		.uleb128 .LEHE83-.LEHB83
 2145 01d7 00       		.uleb128 0
 2146 01d8 00       		.uleb128 0
 2147 01d9 3A       		.uleb128 .LEHB84-.LFB1102
 2148 01da 3F       		.uleb128 .LEHE84-.LEHB84
 2149 01db 8F02     		.uleb128 .L114-.LFB1102
 2150 01dd 01       		.uleb128 0x1
 2151 01de A401     		.uleb128 .LEHB85-.LFB1102
 2152 01e0 05       		.uleb128 .LEHE85-.LEHB85
 2153 01e1 00       		.uleb128 0
 2154 01e2 00       		.uleb128 0
 2155 01e3 AC01     		.uleb128 .LEHB86-.LFB1102
 2156 01e5 3F       		.uleb128 .LEHE86-.LEHB86
 2157 01e6 EC02     		.uleb128 .L116-.LFB1102
 2158 01e8 01       		.uleb128 0x1
 2159 01e9 F201     		.uleb128 .LEHB87-.LFB1102
 2160 01eb 05       		.uleb128 .LEHE87-.LEHB87
 2161 01ec 00       		.uleb128 0
 2162 01ed 00       		.uleb128 0
 2163 01ee 8A02     		.uleb128 .LEHB88-.LFB1102
 2164 01f0 05       		.uleb128 .LEHE88-.LEHB88
 2165 01f1 00       		.uleb128 0
 2166 01f2 00       		.uleb128 0
 2167 01f3 9702     		.uleb128 .LEHB89-.LFB1102
 2168 01f5 38       		.uleb128 .LEHE89-.LEHB89
 2169 01f6 FC01     		.uleb128 .L115-.LFB1102
 2170 01f8 00       		.uleb128 0
 2171 01f9 CF02     		.uleb128 .LEHB90-.LFB1102
 2172 01fb 05       		.uleb128 .LEHE90-.LEHB90
 2173 01fc 00       		.uleb128 0
 2174 01fd 00       		.uleb128 0
 2175 01fe E702     		.uleb128 .LEHB91-.LFB1102
 2176 0200 05       		.uleb128 .LEHE91-.LEHB91
 2177 0201 00       		.uleb128 0
 2178 0202 00       		.uleb128 0
 2179 0203 F402     		.uleb128 .LEHB92-.LFB1102
 2180 0205 38       		.uleb128 .LEHE92-.LEHB92
 2181 0206 D902     		.uleb128 .L117-.LFB1102
 2182 0208 00       		.uleb128 0
 2183 0209 AC03     		.uleb128 .LEHB93-.LFB1102
 2184 020b 05       		.uleb128 .LEHE93-.LEHB93
 2185 020c 00       		.uleb128 0
 2186 020d 00       		.uleb128 0
 2187              	.LLSDACSE1102:
 2188 020e 01       		.byte	0x1
 2189 020f 00       		.byte	0
 2190              		.align 4
 2191 0210 00000000 		.long	0
 2192              	
 2193              	.LLSDATT1102:
 2194              		.text
 2196              		.section	.rodata
 2197              	.LC22:
 2198 03a8 48657849 		.string	"HexIO_testJunkAddrMsb"
 2198      4F5F7465 
 2198      73744A75 
 2198      6E6B4164 
 2198      64724D73 
 2199              		.section	.text._ZN25TestHexIO_testJunkAddrMsbC2Ev,"axG",@progbits,_ZN25TestHexIO_testJunkAddrMsbC5
 2200              		.align 2
 2201              		.weak	_ZN25TestHexIO_testJunkAddrMsbC2Ev
 2203              	_ZN25TestHexIO_testJunkAddrMsbC2Ev:
 2204              	.LFB1104:
  94:testHexIO.cpp **** 
  95:testHexIO.cpp **** TEST(HexIO_testJunkAddrMsb) {
 2205              		.loc 4 95 0
 2206              		.cfi_startproc
 2207 0000 55       		pushq	%rbp
 2208              		.cfi_def_cfa_offset 16
 2209              		.cfi_offset 6, -16
 2210 0001 4889E5   		movq	%rsp, %rbp
 2211              		.cfi_def_cfa_register 6
 2212 0004 4883EC10 		subq	$16, %rsp
 2213 0008 48897DF8 		movq	%rdi, -8(%rbp)
 2214              	.LBB13:
 2215              		.loc 4 95 0
 2216 000c E8000000 		call	_ZN13UnitTestSuite12GetSuiteNameEv
 2216      00
 2217 0011 4889C2   		movq	%rax, %rdx
 2218 0014 488B45F8 		movq	-8(%rbp), %rax
 2219 0018 41B85F00 		movl	$95, %r8d
 2219      0000
 2220 001e B9000000 		movl	$.LC1, %ecx
 2220      00
 2221 0023 BE000000 		movl	$.LC22, %esi
 2221      00
 2222 0028 4889C7   		movq	%rax, %rdi
 2223 002b E8000000 		call	_ZN8UnitTest4TestC2EPKcS2_S2_i
 2223      00
 2224 0030 488B45F8 		movq	-8(%rbp), %rax
 2225 0034 48C70000 		movq	$_ZTV25TestHexIO_testJunkAddrMsb+16, (%rax)
 2225      000000
 2226              	.LBE13:
 2227 003b C9       		leave
 2228              		.cfi_def_cfa 7, 8
 2229 003c C3       		ret
 2230              		.cfi_endproc
 2231              	.LFE1104:
 2233              		.weak	_ZN25TestHexIO_testJunkAddrMsbC1Ev
 2234              		.set	_ZN25TestHexIO_testJunkAddrMsbC1Ev,_ZN25TestHexIO_testJunkAddrMsbC2Ev
 2235              		.globl	testHexIO_testJunkAddrMsbInstance
 2236              		.bss
 2237 00f9 00000000 		.align 32
 2237      000000
 2240              	testHexIO_testJunkAddrMsbInstance:
 2241 0100 00000000 		.zero	56
 2241      00000000 
 2241      00000000 
 2241      00000000 
 2241      00000000 
 2242              		.globl	adderHexIO_testJunkAddrMsb
 2245              	adderHexIO_testJunkAddrMsb:
 2246 0138 00       		.zero	1
 2247              		.section	.rodata
 2248              	.LC23:
 2249 03be 3A30342E 		.string	":04..E10075820022F7\n"
 2249      2E453130 
 2249      30373538 
 2249      32303032 
 2249      3246370A 
 2250 03d3 00000000 		.align 8
 2250      00
 2251              	.LC24:
 2252 03d8 556E6861 		.string	"Unhandled exception in CHECK_EQUAL(HEX_JUNK_ADDR_MSB, status)"
 2252      6E646C65 
 2252      64206578 
 2252      63657074 
 2252      696F6E20 
 2253              		.text
 2254 0f09 90       		.align 2
 2255              		.globl	_ZNK25TestHexIO_testJunkAddrMsb7RunImplEv
 2257              	_ZNK25TestHexIO_testJunkAddrMsb7RunImplEv:
 2258              	.LFB1106:
 2259              		.loc 4 95 0
 2260              		.cfi_startproc
 2261              		.cfi_personality 0x3,__gxx_personality_v0
 2262              		.cfi_lsda 0x3,.LLSDA1106
 2263 0f0a 55       		pushq	%rbp
 2264              		.cfi_def_cfa_offset 16
 2265              		.cfi_offset 6, -16
 2266 0f0b 4889E5   		movq	%rsp, %rbp
 2267              		.cfi_def_cfa_register 6
 2268 0f0e 53       		pushq	%rbx
 2269 0f0f 4883EC78 		subq	$120, %rsp
 2270              		.cfi_offset 3, -24
 2271 0f13 48897D88 		movq	%rdi, -120(%rbp)
 2272              	.LBB14:
  96:testHexIO.cpp **** 	Buffer data;
  97:testHexIO.cpp **** 	BufferStatus status;
  98:testHexIO.cpp **** 	const char *line = ":04..E10075820022F7\n";
 2273              		.loc 4 98 0
 2274 0f17 48C745A8 		movq	$.LC23, -88(%rbp)
 2274      00000000 
  99:testHexIO.cpp **** 	uint8 recordType;
 100:testHexIO.cpp **** 	uint32 seg = 0x00000000;
 2275              		.loc 4 100 0
 2276 0f1f C745A000 		movl	$0, -96(%rbp)
 2276      000000
 101:testHexIO.cpp **** 	status = bufInitialise(&data, 1024, 0x00, NULL);
 2277              		.loc 4 101 0
 2278 0f26 488D45B0 		leaq	-80(%rbp), %rax
 2279 0f2a B9000000 		movl	$0, %ecx
 2279      00
 2280 0f2f BA000000 		movl	$0, %edx
 2280      00
 2281 0f34 BE000400 		movl	$1024, %esi
 2281      00
 2282 0f39 4889C7   		movq	%rax, %rdi
 2283              	.LEHB94:
 2284 0f3c E8000000 		call	bufInitialise
 2284      00
 2285              	.LEHE94:
 2286 0f41 89459C   		movl	%eax, -100(%rbp)
 2287              	.LEHB95:
 102:testHexIO.cpp **** 	CHECK_EQUAL(BUF_SUCCESS, status);
 2288              		.loc 4 102 0
 2289 0f44 E8000000 		call	_ZN8UnitTest11CurrentTest7DetailsEv
 2289      00
 2290 0f49 488B08   		movq	(%rax), %rcx
 2291 0f4c 488D45D0 		leaq	-48(%rbp), %rax
 2292 0f50 BA660000 		movl	$102, %edx
 2292      00
 2293 0f55 4889CE   		movq	%rcx, %rsi
 2294 0f58 4889C7   		movq	%rax, %rdi
 2295 0f5b E8000000 		call	_ZN8UnitTest11TestDetailsC1ERKS0_i
 2295      00
 2296              		.loc 4 102 0 is_stmt 0 discriminator 1
 2297 0f60 C745A400 		movl	$0, -92(%rbp)
 2297      000000
 2298 0f67 E8000000 		call	_ZN8UnitTest11CurrentTest7ResultsEv
 2298      00
 2299 0f6c 488B00   		movq	(%rax), %rax
 2300 0f6f 488D4DD0 		leaq	-48(%rbp), %rcx
 2301 0f73 488D559C 		leaq	-100(%rbp), %rdx
 2302 0f77 488D75A4 		leaq	-92(%rbp), %rsi
 2303 0f7b 4889C7   		movq	%rax, %rdi
 2304 0f7e E8000000 		call	_ZN8UnitTest10CheckEqualI12BufferStatusS1_EEvRNS_11TestResultsERKT_RKT0_RKNS_11TestDetailsE
 2304      00
 2305              	.LEHE95:
 2306              	.L123:
 103:testHexIO.cpp **** 	status = bufProcessLine(line, 0, &data, NULL, &seg, &recordType, NULL);
 2307              		.loc 4 103 0 is_stmt 1
 2308 0f83 488D759B 		leaq	-101(%rbp), %rsi
 2309 0f87 488D4DA0 		leaq	-96(%rbp), %rcx
 2310 0f8b 488D55B0 		leaq	-80(%rbp), %rdx
 2311 0f8f 488B45A8 		movq	-88(%rbp), %rax
 2312 0f93 48C70424 		movq	$0, (%rsp)
 2312      00000000 
 2313 0f9b 4989F1   		movq	%rsi, %r9
 2314 0f9e 4989C8   		movq	%rcx, %r8
 2315 0fa1 B9000000 		movl	$0, %ecx
 2315      00
 2316 0fa6 BE000000 		movl	$0, %esi
 2316      00
 2317 0fab 4889C7   		movq	%rax, %rdi
 2318              	.LEHB96:
 2319 0fae E8000000 		call	bufProcessLine
 2319      00
 2320              	.LEHE96:
 2321 0fb3 89459C   		movl	%eax, -100(%rbp)
 2322              	.LEHB97:
 104:testHexIO.cpp **** 	CHECK_EQUAL(HEX_JUNK_ADDR_MSB, status);
 2323              		.loc 4 104 0
 2324 0fb6 E8000000 		call	_ZN8UnitTest11CurrentTest7DetailsEv
 2324      00
 2325 0fbb 488B08   		movq	(%rax), %rcx
 2326 0fbe 488D45D0 		leaq	-48(%rbp), %rax
 2327 0fc2 BA680000 		movl	$104, %edx
 2327      00
 2328 0fc7 4889CE   		movq	%rcx, %rsi
 2329 0fca 4889C7   		movq	%rax, %rdi
 2330 0fcd E8000000 		call	_ZN8UnitTest11TestDetailsC1ERKS0_i
 2330      00
 2331              		.loc 4 104 0 is_stmt 0 discriminator 1
 2332 0fd2 C745A40A 		movl	$10, -92(%rbp)
 2332      000000
 2333 0fd9 E8000000 		call	_ZN8UnitTest11CurrentTest7ResultsEv
 2333      00
 2334 0fde 488B00   		movq	(%rax), %rax
 2335 0fe1 488D4DD0 		leaq	-48(%rbp), %rcx
 2336 0fe5 488D559C 		leaq	-100(%rbp), %rdx
 2337 0fe9 488D75A4 		leaq	-92(%rbp), %rsi
 2338 0fed 4889C7   		movq	%rax, %rdi
 2339 0ff0 E8000000 		call	_ZN8UnitTest10CheckEqualI12BufferStatusS1_EEvRNS_11TestResultsERKT_RKT0_RKNS_11TestDetailsE
 2339      00
 2340              	.LEHE97:
 2341              	.L126:
 105:testHexIO.cpp **** 	bufDestroy(&data);
 2342              		.loc 4 105 0 is_stmt 1
 2343 0ff5 488D45B0 		leaq	-80(%rbp), %rax
 2344 0ff9 4889C7   		movq	%rax, %rdi
 2345              	.LEHB98:
 2346 0ffc E8000000 		call	bufDestroy
 2346      00
 2347              	.LEHE98:
 2348 1001 E9BA0000 		jmp	.L131
 2348      00
 2349              	.L128:
 2350 1006 4889C3   		movq	%rax, %rbx
 102:testHexIO.cpp **** 	status = bufProcessLine(line, 0, &data, NULL, &seg, &recordType, NULL);
 2351              		.loc 4 102 0
 2352 1009 E8000000 		call	__cxa_end_catch
 2352      00
 2353 100e 4889D8   		movq	%rbx, %rax
 2354 1011 4889C7   		movq	%rax, %rdi
 2355              	.LEHB99:
 2356 1014 E8000000 		call	_Unwind_Resume
 2356      00
 2357              	.LEHE99:
 2358              	.L127:
 2359 1019 4889C7   		movq	%rax, %rdi
 2360 101c E8000000 		call	__cxa_begin_catch
 2360      00
 2361              	.LEHB100:
 2362 1021 E8000000 		call	_ZN8UnitTest11CurrentTest7DetailsEv
 2362      00
 2363 1026 488B08   		movq	(%rax), %rcx
 2364 1029 488D45D0 		leaq	-48(%rbp), %rax
 2365 102d BA660000 		movl	$102, %edx
 2365      00
 2366 1032 4889CE   		movq	%rcx, %rsi
 2367 1035 4889C7   		movq	%rax, %rdi
 2368 1038 E8000000 		call	_ZN8UnitTest11TestDetailsC1ERKS0_i
 2368      00
 102:testHexIO.cpp **** 	status = bufProcessLine(line, 0, &data, NULL, &seg, &recordType, NULL);
 2369              		.loc 4 102 0 is_stmt 0 discriminator 1
 2370 103d E8000000 		call	_ZN8UnitTest11CurrentTest7ResultsEv
 2370      00
 2371 1042 488B00   		movq	(%rax), %rax
 2372 1045 488D4DD0 		leaq	-48(%rbp), %rcx
 2373 1049 BA000000 		movl	$.LC4, %edx
 2373      00
 2374 104e 4889CE   		movq	%rcx, %rsi
 2375 1051 4889C7   		movq	%rax, %rdi
 2376 1054 E8000000 		call	_ZN8UnitTest11TestResults13OnTestFailureERKNS_11TestDetailsEPKc
 2376      00
 2377              	.LEHE100:
 2378              	.LEHB101:
 2379 1059 E8000000 		call	__cxa_end_catch
 2379      00
 2380              	.LEHE101:
 2381 105e E920FFFF 		jmp	.L123
 2381      FF
 2382              	.L130:
 2383 1063 4889C3   		movq	%rax, %rbx
 104:testHexIO.cpp **** 	CHECK_EQUAL(HEX_JUNK_ADDR_MSB, status);
 2384              		.loc 4 104 0 is_stmt 1
 2385 1066 E8000000 		call	__cxa_end_catch
 2385      00
 2386 106b 4889D8   		movq	%rbx, %rax
 2387 106e 4889C7   		movq	%rax, %rdi
 2388              	.LEHB102:
 2389 1071 E8000000 		call	_Unwind_Resume
 2389      00
 2390              	.LEHE102:
 2391              	.L129:
 2392 1076 4889C7   		movq	%rax, %rdi
 2393 1079 E8000000 		call	__cxa_begin_catch
 2393      00
 2394              	.LEHB103:
 2395 107e E8000000 		call	_ZN8UnitTest11CurrentTest7DetailsEv
 2395      00
 2396 1083 488B08   		movq	(%rax), %rcx
 2397 1086 488D45D0 		leaq	-48(%rbp), %rax
 2398 108a BA680000 		movl	$104, %edx
 2398      00
 2399 108f 4889CE   		movq	%rcx, %rsi
 2400 1092 4889C7   		movq	%rax, %rdi
 2401 1095 E8000000 		call	_ZN8UnitTest11TestDetailsC1ERKS0_i
 2401      00
 104:testHexIO.cpp **** 	CHECK_EQUAL(HEX_JUNK_ADDR_MSB, status);
 2402              		.loc 4 104 0 is_stmt 0 discriminator 1
 2403 109a E8000000 		call	_ZN8UnitTest11CurrentTest7ResultsEv
 2403      00
 2404 109f 488B00   		movq	(%rax), %rax
 2405 10a2 488D4DD0 		leaq	-48(%rbp), %rcx
 2406 10a6 BA000000 		movl	$.LC24, %edx
 2406      00
 2407 10ab 4889CE   		movq	%rcx, %rsi
 2408 10ae 4889C7   		movq	%rax, %rdi
 2409 10b1 E8000000 		call	_ZN8UnitTest11TestResults13OnTestFailureERKNS_11TestDetailsEPKc
 2409      00
 2410              	.LEHE103:
 2411              	.LEHB104:
 2412 10b6 E8000000 		call	__cxa_end_catch
 2412      00
 2413              	.LEHE104:
 2414 10bb E935FFFF 		jmp	.L126
 2414      FF
 2415              	.L131:
 2416              	.LBE14:
 106:testHexIO.cpp **** }
 2417              		.loc 4 106 0 is_stmt 1
 2418 10c0 4883C478 		addq	$120, %rsp
 2419 10c4 5B       		popq	%rbx
 2420 10c5 5D       		popq	%rbp
 2421              		.cfi_def_cfa 7, 8
 2422 10c6 C3       		ret
 2423              		.cfi_endproc
 2424              	.LFE1106:
 2425              		.section	.gcc_except_table
 2426              		.align 4
 2427              	.LLSDA1106:
 2428 0214 FF       		.byte	0xff
 2429 0215 03       		.byte	0x3
 2430 0216 41       		.uleb128 .LLSDATT1106-.LLSDATTD1106
 2431              	.LLSDATTD1106:
 2432 0217 01       		.byte	0x1
 2433 0218 39       		.uleb128 .LLSDACSE1106-.LLSDACSB1106
 2434              	.LLSDACSB1106:
 2435 0219 32       		.uleb128 .LEHB94-.LFB1106
 2436 021a 05       		.uleb128 .LEHE94-.LEHB94
 2437 021b 00       		.uleb128 0
 2438 021c 00       		.uleb128 0
 2439 021d 3A       		.uleb128 .LEHB95-.LFB1106
 2440 021e 3F       		.uleb128 .LEHE95-.LEHB95
 2441 021f 8F02     		.uleb128 .L127-.LFB1106
 2442 0221 01       		.uleb128 0x1
 2443 0222 A401     		.uleb128 .LEHB96-.LFB1106
 2444 0224 05       		.uleb128 .LEHE96-.LEHB96
 2445 0225 00       		.uleb128 0
 2446 0226 00       		.uleb128 0
 2447 0227 AC01     		.uleb128 .LEHB97-.LFB1106
 2448 0229 3F       		.uleb128 .LEHE97-.LEHB97
 2449 022a EC02     		.uleb128 .L129-.LFB1106
 2450 022c 01       		.uleb128 0x1
 2451 022d F201     		.uleb128 .LEHB98-.LFB1106
 2452 022f 05       		.uleb128 .LEHE98-.LEHB98
 2453 0230 00       		.uleb128 0
 2454 0231 00       		.uleb128 0
 2455 0232 8A02     		.uleb128 .LEHB99-.LFB1106
 2456 0234 05       		.uleb128 .LEHE99-.LEHB99
 2457 0235 00       		.uleb128 0
 2458 0236 00       		.uleb128 0
 2459 0237 9702     		.uleb128 .LEHB100-.LFB1106
 2460 0239 38       		.uleb128 .LEHE100-.LEHB100
 2461 023a FC01     		.uleb128 .L128-.LFB1106
 2462 023c 00       		.uleb128 0
 2463 023d CF02     		.uleb128 .LEHB101-.LFB1106
 2464 023f 05       		.uleb128 .LEHE101-.LEHB101
 2465 0240 00       		.uleb128 0
 2466 0241 00       		.uleb128 0
 2467 0242 E702     		.uleb128 .LEHB102-.LFB1106
 2468 0244 05       		.uleb128 .LEHE102-.LEHB102
 2469 0245 00       		.uleb128 0
 2470 0246 00       		.uleb128 0
 2471 0247 F402     		.uleb128 .LEHB103-.LFB1106
 2472 0249 38       		.uleb128 .LEHE103-.LEHB103
 2473 024a D902     		.uleb128 .L130-.LFB1106
 2474 024c 00       		.uleb128 0
 2475 024d AC03     		.uleb128 .LEHB104-.LFB1106
 2476 024f 05       		.uleb128 .LEHE104-.LEHB104
 2477 0250 00       		.uleb128 0
 2478 0251 00       		.uleb128 0
 2479              	.LLSDACSE1106:
 2480 0252 01       		.byte	0x1
 2481 0253 00       		.byte	0
 2482              		.align 4
 2483 0254 00000000 		.long	0
 2484              	
 2485              	.LLSDATT1106:
 2486              		.text
 2488              		.section	.rodata
 2489              	.LC25:
 2490 0416 48657849 		.string	"HexIO_testJunkAddrLsb"
 2490      4F5F7465 
 2490      73744A75 
 2490      6E6B4164 
 2490      64724C73 
 2491              		.section	.text._ZN25TestHexIO_testJunkAddrLsbC2Ev,"axG",@progbits,_ZN25TestHexIO_testJunkAddrLsbC5
 2492              		.align 2
 2493              		.weak	_ZN25TestHexIO_testJunkAddrLsbC2Ev
 2495              	_ZN25TestHexIO_testJunkAddrLsbC2Ev:
 2496              	.LFB1108:
 107:testHexIO.cpp **** 
 108:testHexIO.cpp **** TEST(HexIO_testJunkAddrLsb) {
 2497              		.loc 4 108 0
 2498              		.cfi_startproc
 2499 0000 55       		pushq	%rbp
 2500              		.cfi_def_cfa_offset 16
 2501              		.cfi_offset 6, -16
 2502 0001 4889E5   		movq	%rsp, %rbp
 2503              		.cfi_def_cfa_register 6
 2504 0004 4883EC10 		subq	$16, %rsp
 2505 0008 48897DF8 		movq	%rdi, -8(%rbp)
 2506              	.LBB15:
 2507              		.loc 4 108 0
 2508 000c E8000000 		call	_ZN13UnitTestSuite12GetSuiteNameEv
 2508      00
 2509 0011 4889C2   		movq	%rax, %rdx
 2510 0014 488B45F8 		movq	-8(%rbp), %rax
 2511 0018 41B86C00 		movl	$108, %r8d
 2511      0000
 2512 001e B9000000 		movl	$.LC1, %ecx
 2512      00
 2513 0023 BE000000 		movl	$.LC25, %esi
 2513      00
 2514 0028 4889C7   		movq	%rax, %rdi
 2515 002b E8000000 		call	_ZN8UnitTest4TestC2EPKcS2_S2_i
 2515      00
 2516 0030 488B45F8 		movq	-8(%rbp), %rax
 2517 0034 48C70000 		movq	$_ZTV25TestHexIO_testJunkAddrLsb+16, (%rax)
 2517      000000
 2518              	.LBE15:
 2519 003b C9       		leave
 2520              		.cfi_def_cfa 7, 8
 2521 003c C3       		ret
 2522              		.cfi_endproc
 2523              	.LFE1108:
 2525              		.weak	_ZN25TestHexIO_testJunkAddrLsbC1Ev
 2526              		.set	_ZN25TestHexIO_testJunkAddrLsbC1Ev,_ZN25TestHexIO_testJunkAddrLsbC2Ev
 2527              		.globl	testHexIO_testJunkAddrLsbInstance
 2528              		.bss
 2529 0139 00000000 		.align 32
 2529      000000
 2532              	testHexIO_testJunkAddrLsbInstance:
 2533 0140 00000000 		.zero	56
 2533      00000000 
 2533      00000000 
 2533      00000000 
 2533      00000000 
 2534              		.globl	adderHexIO_testJunkAddrLsb
 2537              	adderHexIO_testJunkAddrLsb:
 2538 0178 00       		.zero	1
 2539              		.section	.rodata
 2540              	.LC26:
 2541 042c 3A303430 		.string	":040B..0075820022F7\n"
 2541      422E2E30 
 2541      30373538 
 2541      32303032 
 2541      3246370A 
 2542 0441 00000000 		.align 8
 2542      000000
 2543              	.LC27:
 2544 0448 556E6861 		.string	"Unhandled exception in CHECK_EQUAL(HEX_JUNK_ADDR_LSB, status)"
 2544      6E646C65 
 2544      64206578 
 2544      63657074 
 2544      696F6E20 
 2545              		.text
 2546 10c7 90       		.align 2
 2547              		.globl	_ZNK25TestHexIO_testJunkAddrLsb7RunImplEv
 2549              	_ZNK25TestHexIO_testJunkAddrLsb7RunImplEv:
 2550              	.LFB1110:
 2551              		.loc 4 108 0
 2552              		.cfi_startproc
 2553              		.cfi_personality 0x3,__gxx_personality_v0
 2554              		.cfi_lsda 0x3,.LLSDA1110
 2555 10c8 55       		pushq	%rbp
 2556              		.cfi_def_cfa_offset 16
 2557              		.cfi_offset 6, -16
 2558 10c9 4889E5   		movq	%rsp, %rbp
 2559              		.cfi_def_cfa_register 6
 2560 10cc 53       		pushq	%rbx
 2561 10cd 4883EC78 		subq	$120, %rsp
 2562              		.cfi_offset 3, -24
 2563 10d1 48897D88 		movq	%rdi, -120(%rbp)
 2564              	.LBB16:
 109:testHexIO.cpp **** 	Buffer data;
 110:testHexIO.cpp **** 	BufferStatus status;
 111:testHexIO.cpp **** 	const char *line = ":040B..0075820022F7\n";
 2565              		.loc 4 111 0
 2566 10d5 48C745A8 		movq	$.LC26, -88(%rbp)
 2566      00000000 
 112:testHexIO.cpp **** 	uint8 recordType;
 113:testHexIO.cpp **** 	uint32 seg = 0x00000000;
 2567              		.loc 4 113 0
 2568 10dd C745A000 		movl	$0, -96(%rbp)
 2568      000000
 114:testHexIO.cpp **** 	status = bufInitialise(&data, 1024, 0x00, NULL);
 2569              		.loc 4 114 0
 2570 10e4 488D45B0 		leaq	-80(%rbp), %rax
 2571 10e8 B9000000 		movl	$0, %ecx
 2571      00
 2572 10ed BA000000 		movl	$0, %edx
 2572      00
 2573 10f2 BE000400 		movl	$1024, %esi
 2573      00
 2574 10f7 4889C7   		movq	%rax, %rdi
 2575              	.LEHB105:
 2576 10fa E8000000 		call	bufInitialise
 2576      00
 2577              	.LEHE105:
 2578 10ff 89459C   		movl	%eax, -100(%rbp)
 2579              	.LEHB106:
 115:testHexIO.cpp **** 	CHECK_EQUAL(BUF_SUCCESS, status);
 2580              		.loc 4 115 0
 2581 1102 E8000000 		call	_ZN8UnitTest11CurrentTest7DetailsEv
 2581      00
 2582 1107 488B08   		movq	(%rax), %rcx
 2583 110a 488D45D0 		leaq	-48(%rbp), %rax
 2584 110e BA730000 		movl	$115, %edx
 2584      00
 2585 1113 4889CE   		movq	%rcx, %rsi
 2586 1116 4889C7   		movq	%rax, %rdi
 2587 1119 E8000000 		call	_ZN8UnitTest11TestDetailsC1ERKS0_i
 2587      00
 2588              		.loc 4 115 0 is_stmt 0 discriminator 1
 2589 111e C745A400 		movl	$0, -92(%rbp)
 2589      000000
 2590 1125 E8000000 		call	_ZN8UnitTest11CurrentTest7ResultsEv
 2590      00
 2591 112a 488B00   		movq	(%rax), %rax
 2592 112d 488D4DD0 		leaq	-48(%rbp), %rcx
 2593 1131 488D559C 		leaq	-100(%rbp), %rdx
 2594 1135 488D75A4 		leaq	-92(%rbp), %rsi
 2595 1139 4889C7   		movq	%rax, %rdi
 2596 113c E8000000 		call	_ZN8UnitTest10CheckEqualI12BufferStatusS1_EEvRNS_11TestResultsERKT_RKT0_RKNS_11TestDetailsE
 2596      00
 2597              	.LEHE106:
 2598              	.L136:
 116:testHexIO.cpp **** 	status = bufProcessLine(line, 0, &data, NULL, &seg, &recordType, NULL);
 2599              		.loc 4 116 0 is_stmt 1
 2600 1141 488D759B 		leaq	-101(%rbp), %rsi
 2601 1145 488D4DA0 		leaq	-96(%rbp), %rcx
 2602 1149 488D55B0 		leaq	-80(%rbp), %rdx
 2603 114d 488B45A8 		movq	-88(%rbp), %rax
 2604 1151 48C70424 		movq	$0, (%rsp)
 2604      00000000 
 2605 1159 4989F1   		movq	%rsi, %r9
 2606 115c 4989C8   		movq	%rcx, %r8
 2607 115f B9000000 		movl	$0, %ecx
 2607      00
 2608 1164 BE000000 		movl	$0, %esi
 2608      00
 2609 1169 4889C7   		movq	%rax, %rdi
 2610              	.LEHB107:
 2611 116c E8000000 		call	bufProcessLine
 2611      00
 2612              	.LEHE107:
 2613 1171 89459C   		movl	%eax, -100(%rbp)
 2614              	.LEHB108:
 117:testHexIO.cpp **** 	CHECK_EQUAL(HEX_JUNK_ADDR_LSB, status);
 2615              		.loc 4 117 0
 2616 1174 E8000000 		call	_ZN8UnitTest11CurrentTest7DetailsEv
 2616      00
 2617 1179 488B08   		movq	(%rax), %rcx
 2618 117c 488D45D0 		leaq	-48(%rbp), %rax
 2619 1180 BA750000 		movl	$117, %edx
 2619      00
 2620 1185 4889CE   		movq	%rcx, %rsi
 2621 1188 4889C7   		movq	%rax, %rdi
 2622 118b E8000000 		call	_ZN8UnitTest11TestDetailsC1ERKS0_i
 2622      00
 2623              		.loc 4 117 0 is_stmt 0 discriminator 1
 2624 1190 C745A40B 		movl	$11, -92(%rbp)
 2624      000000
 2625 1197 E8000000 		call	_ZN8UnitTest11CurrentTest7ResultsEv
 2625      00
 2626 119c 488B00   		movq	(%rax), %rax
 2627 119f 488D4DD0 		leaq	-48(%rbp), %rcx
 2628 11a3 488D559C 		leaq	-100(%rbp), %rdx
 2629 11a7 488D75A4 		leaq	-92(%rbp), %rsi
 2630 11ab 4889C7   		movq	%rax, %rdi
 2631 11ae E8000000 		call	_ZN8UnitTest10CheckEqualI12BufferStatusS1_EEvRNS_11TestResultsERKT_RKT0_RKNS_11TestDetailsE
 2631      00
 2632              	.LEHE108:
 2633              	.L139:
 118:testHexIO.cpp **** 	bufDestroy(&data);
 2634              		.loc 4 118 0 is_stmt 1
 2635 11b3 488D45B0 		leaq	-80(%rbp), %rax
 2636 11b7 4889C7   		movq	%rax, %rdi
 2637              	.LEHB109:
 2638 11ba E8000000 		call	bufDestroy
 2638      00
 2639              	.LEHE109:
 2640 11bf E9BA0000 		jmp	.L144
 2640      00
 2641              	.L141:
 2642 11c4 4889C3   		movq	%rax, %rbx
 115:testHexIO.cpp **** 	status = bufProcessLine(line, 0, &data, NULL, &seg, &recordType, NULL);
 2643              		.loc 4 115 0
 2644 11c7 E8000000 		call	__cxa_end_catch
 2644      00
 2645 11cc 4889D8   		movq	%rbx, %rax
 2646 11cf 4889C7   		movq	%rax, %rdi
 2647              	.LEHB110:
 2648 11d2 E8000000 		call	_Unwind_Resume
 2648      00
 2649              	.LEHE110:
 2650              	.L140:
 2651 11d7 4889C7   		movq	%rax, %rdi
 2652 11da E8000000 		call	__cxa_begin_catch
 2652      00
 2653              	.LEHB111:
 2654 11df E8000000 		call	_ZN8UnitTest11CurrentTest7DetailsEv
 2654      00
 2655 11e4 488B08   		movq	(%rax), %rcx
 2656 11e7 488D45D0 		leaq	-48(%rbp), %rax
 2657 11eb BA730000 		movl	$115, %edx
 2657      00
 2658 11f0 4889CE   		movq	%rcx, %rsi
 2659 11f3 4889C7   		movq	%rax, %rdi
 2660 11f6 E8000000 		call	_ZN8UnitTest11TestDetailsC1ERKS0_i
 2660      00
 115:testHexIO.cpp **** 	status = bufProcessLine(line, 0, &data, NULL, &seg, &recordType, NULL);
 2661              		.loc 4 115 0 is_stmt 0 discriminator 1
 2662 11fb E8000000 		call	_ZN8UnitTest11CurrentTest7ResultsEv
 2662      00
 2663 1200 488B00   		movq	(%rax), %rax
 2664 1203 488D4DD0 		leaq	-48(%rbp), %rcx
 2665 1207 BA000000 		movl	$.LC4, %edx
 2665      00
 2666 120c 4889CE   		movq	%rcx, %rsi
 2667 120f 4889C7   		movq	%rax, %rdi
 2668 1212 E8000000 		call	_ZN8UnitTest11TestResults13OnTestFailureERKNS_11TestDetailsEPKc
 2668      00
 2669              	.LEHE111:
 2670              	.LEHB112:
 2671 1217 E8000000 		call	__cxa_end_catch
 2671      00
 2672              	.LEHE112:
 2673 121c E920FFFF 		jmp	.L136
 2673      FF
 2674              	.L143:
 2675 1221 4889C3   		movq	%rax, %rbx
 117:testHexIO.cpp **** 	CHECK_EQUAL(HEX_JUNK_ADDR_LSB, status);
 2676              		.loc 4 117 0 is_stmt 1
 2677 1224 E8000000 		call	__cxa_end_catch
 2677      00
 2678 1229 4889D8   		movq	%rbx, %rax
 2679 122c 4889C7   		movq	%rax, %rdi
 2680              	.LEHB113:
 2681 122f E8000000 		call	_Unwind_Resume
 2681      00
 2682              	.LEHE113:
 2683              	.L142:
 2684 1234 4889C7   		movq	%rax, %rdi
 2685 1237 E8000000 		call	__cxa_begin_catch
 2685      00
 2686              	.LEHB114:
 2687 123c E8000000 		call	_ZN8UnitTest11CurrentTest7DetailsEv
 2687      00
 2688 1241 488B08   		movq	(%rax), %rcx
 2689 1244 488D45D0 		leaq	-48(%rbp), %rax
 2690 1248 BA750000 		movl	$117, %edx
 2690      00
 2691 124d 4889CE   		movq	%rcx, %rsi
 2692 1250 4889C7   		movq	%rax, %rdi
 2693 1253 E8000000 		call	_ZN8UnitTest11TestDetailsC1ERKS0_i
 2693      00
 117:testHexIO.cpp **** 	CHECK_EQUAL(HEX_JUNK_ADDR_LSB, status);
 2694              		.loc 4 117 0 is_stmt 0 discriminator 1
 2695 1258 E8000000 		call	_ZN8UnitTest11CurrentTest7ResultsEv
 2695      00
 2696 125d 488B00   		movq	(%rax), %rax
 2697 1260 488D4DD0 		leaq	-48(%rbp), %rcx
 2698 1264 BA000000 		movl	$.LC27, %edx
 2698      00
 2699 1269 4889CE   		movq	%rcx, %rsi
 2700 126c 4889C7   		movq	%rax, %rdi
 2701 126f E8000000 		call	_ZN8UnitTest11TestResults13OnTestFailureERKNS_11TestDetailsEPKc
 2701      00
 2702              	.LEHE114:
 2703              	.LEHB115:
 2704 1274 E8000000 		call	__cxa_end_catch
 2704      00
 2705              	.LEHE115:
 2706 1279 E935FFFF 		jmp	.L139
 2706      FF
 2707              	.L144:
 2708              	.LBE16:
 119:testHexIO.cpp **** }
 2709              		.loc 4 119 0 is_stmt 1
 2710 127e 4883C478 		addq	$120, %rsp
 2711 1282 5B       		popq	%rbx
 2712 1283 5D       		popq	%rbp
 2713              		.cfi_def_cfa 7, 8
 2714 1284 C3       		ret
 2715              		.cfi_endproc
 2716              	.LFE1110:
 2717              		.section	.gcc_except_table
 2718              		.align 4
 2719              	.LLSDA1110:
 2720 0258 FF       		.byte	0xff
 2721 0259 03       		.byte	0x3
 2722 025a 41       		.uleb128 .LLSDATT1110-.LLSDATTD1110
 2723              	.LLSDATTD1110:
 2724 025b 01       		.byte	0x1
 2725 025c 39       		.uleb128 .LLSDACSE1110-.LLSDACSB1110
 2726              	.LLSDACSB1110:
 2727 025d 32       		.uleb128 .LEHB105-.LFB1110
 2728 025e 05       		.uleb128 .LEHE105-.LEHB105
 2729 025f 00       		.uleb128 0
 2730 0260 00       		.uleb128 0
 2731 0261 3A       		.uleb128 .LEHB106-.LFB1110
 2732 0262 3F       		.uleb128 .LEHE106-.LEHB106
 2733 0263 8F02     		.uleb128 .L140-.LFB1110
 2734 0265 01       		.uleb128 0x1
 2735 0266 A401     		.uleb128 .LEHB107-.LFB1110
 2736 0268 05       		.uleb128 .LEHE107-.LEHB107
 2737 0269 00       		.uleb128 0
 2738 026a 00       		.uleb128 0
 2739 026b AC01     		.uleb128 .LEHB108-.LFB1110
 2740 026d 3F       		.uleb128 .LEHE108-.LEHB108
 2741 026e EC02     		.uleb128 .L142-.LFB1110
 2742 0270 01       		.uleb128 0x1
 2743 0271 F201     		.uleb128 .LEHB109-.LFB1110
 2744 0273 05       		.uleb128 .LEHE109-.LEHB109
 2745 0274 00       		.uleb128 0
 2746 0275 00       		.uleb128 0
 2747 0276 8A02     		.uleb128 .LEHB110-.LFB1110
 2748 0278 05       		.uleb128 .LEHE110-.LEHB110
 2749 0279 00       		.uleb128 0
 2750 027a 00       		.uleb128 0
 2751 027b 9702     		.uleb128 .LEHB111-.LFB1110
 2752 027d 38       		.uleb128 .LEHE111-.LEHB111
 2753 027e FC01     		.uleb128 .L141-.LFB1110
 2754 0280 00       		.uleb128 0
 2755 0281 CF02     		.uleb128 .LEHB112-.LFB1110
 2756 0283 05       		.uleb128 .LEHE112-.LEHB112
 2757 0284 00       		.uleb128 0
 2758 0285 00       		.uleb128 0
 2759 0286 E702     		.uleb128 .LEHB113-.LFB1110
 2760 0288 05       		.uleb128 .LEHE113-.LEHB113
 2761 0289 00       		.uleb128 0
 2762 028a 00       		.uleb128 0
 2763 028b F402     		.uleb128 .LEHB114-.LFB1110
 2764 028d 38       		.uleb128 .LEHE114-.LEHB114
 2765 028e D902     		.uleb128 .L143-.LFB1110
 2766 0290 00       		.uleb128 0
 2767 0291 AC03     		.uleb128 .LEHB115-.LFB1110
 2768 0293 05       		.uleb128 .LEHE115-.LEHB115
 2769 0294 00       		.uleb128 0
 2770 0295 00       		.uleb128 0
 2771              	.LLSDACSE1110:
 2772 0296 01       		.byte	0x1
 2773 0297 00       		.byte	0
 2774              		.align 4
 2775 0298 00000000 		.long	0
 2776              	
 2777              	.LLSDATT1110:
 2778              		.text
 2780              		.section	.rodata
 2781              	.LC28:
 2782 0486 48657849 		.string	"HexIO_testJunkRecType"
 2782      4F5F7465 
 2782      73744A75 
 2782      6E6B5265 
 2782      63547970 
 2783              		.section	.text._ZN25TestHexIO_testJunkRecTypeC2Ev,"axG",@progbits,_ZN25TestHexIO_testJunkRecTypeC5
 2784              		.align 2
 2785              		.weak	_ZN25TestHexIO_testJunkRecTypeC2Ev
 2787              	_ZN25TestHexIO_testJunkRecTypeC2Ev:
 2788              	.LFB1112:
 120:testHexIO.cpp **** 
 121:testHexIO.cpp **** TEST(HexIO_testJunkRecType) {
 2789              		.loc 4 121 0
 2790              		.cfi_startproc
 2791 0000 55       		pushq	%rbp
 2792              		.cfi_def_cfa_offset 16
 2793              		.cfi_offset 6, -16
 2794 0001 4889E5   		movq	%rsp, %rbp
 2795              		.cfi_def_cfa_register 6
 2796 0004 4883EC10 		subq	$16, %rsp
 2797 0008 48897DF8 		movq	%rdi, -8(%rbp)
 2798              	.LBB17:
 2799              		.loc 4 121 0
 2800 000c E8000000 		call	_ZN13UnitTestSuite12GetSuiteNameEv
 2800      00
 2801 0011 4889C2   		movq	%rax, %rdx
 2802 0014 488B45F8 		movq	-8(%rbp), %rax
 2803 0018 41B87900 		movl	$121, %r8d
 2803      0000
 2804 001e B9000000 		movl	$.LC1, %ecx
 2804      00
 2805 0023 BE000000 		movl	$.LC28, %esi
 2805      00
 2806 0028 4889C7   		movq	%rax, %rdi
 2807 002b E8000000 		call	_ZN8UnitTest4TestC2EPKcS2_S2_i
 2807      00
 2808 0030 488B45F8 		movq	-8(%rbp), %rax
 2809 0034 48C70000 		movq	$_ZTV25TestHexIO_testJunkRecType+16, (%rax)
 2809      000000
 2810              	.LBE17:
 2811 003b C9       		leave
 2812              		.cfi_def_cfa 7, 8
 2813 003c C3       		ret
 2814              		.cfi_endproc
 2815              	.LFE1112:
 2817              		.weak	_ZN25TestHexIO_testJunkRecTypeC1Ev
 2818              		.set	_ZN25TestHexIO_testJunkRecTypeC1Ev,_ZN25TestHexIO_testJunkRecTypeC2Ev
 2819              		.globl	testHexIO_testJunkRecTypeInstance
 2820              		.bss
 2821 0179 00000000 		.align 32
 2821      000000
 2824              	testHexIO_testJunkRecTypeInstance:
 2825 0180 00000000 		.zero	56
 2825      00000000 
 2825      00000000 
 2825      00000000 
 2825      00000000 
 2826              		.globl	adderHexIO_testJunkRecType
 2829              	adderHexIO_testJunkRecType:
 2830 01b8 00       		.zero	1
 2831              		.section	.rodata
 2832              	.LC29:
 2833 049c 3A303430 		.string	":040BE1..75820022F7\n"
 2833      4245312E 
 2833      2E373538 
 2833      32303032 
 2833      3246370A 
 2834 04b1 00000000 		.align 8
 2834      000000
 2835              	.LC30:
 2836 04b8 556E6861 		.string	"Unhandled exception in CHECK_EQUAL(HEX_JUNK_REC_TYPE, status)"
 2836      6E646C65 
 2836      64206578 
 2836      63657074 
 2836      696F6E20 
 2837              		.text
 2838 1285 90       		.align 2
 2839              		.globl	_ZNK25TestHexIO_testJunkRecType7RunImplEv
 2841              	_ZNK25TestHexIO_testJunkRecType7RunImplEv:
 2842              	.LFB1114:
 2843              		.loc 4 121 0
 2844              		.cfi_startproc
 2845              		.cfi_personality 0x3,__gxx_personality_v0
 2846              		.cfi_lsda 0x3,.LLSDA1114
 2847 1286 55       		pushq	%rbp
 2848              		.cfi_def_cfa_offset 16
 2849              		.cfi_offset 6, -16
 2850 1287 4889E5   		movq	%rsp, %rbp
 2851              		.cfi_def_cfa_register 6
 2852 128a 53       		pushq	%rbx
 2853 128b 4883EC78 		subq	$120, %rsp
 2854              		.cfi_offset 3, -24
 2855 128f 48897D88 		movq	%rdi, -120(%rbp)
 2856              	.LBB18:
 122:testHexIO.cpp **** 	Buffer data;
 123:testHexIO.cpp **** 	BufferStatus status;
 124:testHexIO.cpp **** 	const char *line = ":040BE1..75820022F7\n";
 2857              		.loc 4 124 0
 2858 1293 48C745A8 		movq	$.LC29, -88(%rbp)
 2858      00000000 
 125:testHexIO.cpp **** 	uint8 recordType;
 126:testHexIO.cpp **** 	uint32 seg = 0x00000000;
 2859              		.loc 4 126 0
 2860 129b C745A000 		movl	$0, -96(%rbp)
 2860      000000
 127:testHexIO.cpp **** 	status = bufInitialise(&data, 1024, 0x00, NULL);
 2861              		.loc 4 127 0
 2862 12a2 488D45B0 		leaq	-80(%rbp), %rax
 2863 12a6 B9000000 		movl	$0, %ecx
 2863      00
 2864 12ab BA000000 		movl	$0, %edx
 2864      00
 2865 12b0 BE000400 		movl	$1024, %esi
 2865      00
 2866 12b5 4889C7   		movq	%rax, %rdi
 2867              	.LEHB116:
 2868 12b8 E8000000 		call	bufInitialise
 2868      00
 2869              	.LEHE116:
 2870 12bd 89459C   		movl	%eax, -100(%rbp)
 2871              	.LEHB117:
 128:testHexIO.cpp **** 	CHECK_EQUAL(BUF_SUCCESS, status);
 2872              		.loc 4 128 0
 2873 12c0 E8000000 		call	_ZN8UnitTest11CurrentTest7DetailsEv
 2873      00
 2874 12c5 488B08   		movq	(%rax), %rcx
 2875 12c8 488D45D0 		leaq	-48(%rbp), %rax
 2876 12cc BA800000 		movl	$128, %edx
 2876      00
 2877 12d1 4889CE   		movq	%rcx, %rsi
 2878 12d4 4889C7   		movq	%rax, %rdi
 2879 12d7 E8000000 		call	_ZN8UnitTest11TestDetailsC1ERKS0_i
 2879      00
 2880              		.loc 4 128 0 is_stmt 0 discriminator 1
 2881 12dc C745A400 		movl	$0, -92(%rbp)
 2881      000000
 2882 12e3 E8000000 		call	_ZN8UnitTest11CurrentTest7ResultsEv
 2882      00
 2883 12e8 488B00   		movq	(%rax), %rax
 2884 12eb 488D4DD0 		leaq	-48(%rbp), %rcx
 2885 12ef 488D559C 		leaq	-100(%rbp), %rdx
 2886 12f3 488D75A4 		leaq	-92(%rbp), %rsi
 2887 12f7 4889C7   		movq	%rax, %rdi
 2888 12fa E8000000 		call	_ZN8UnitTest10CheckEqualI12BufferStatusS1_EEvRNS_11TestResultsERKT_RKT0_RKNS_11TestDetailsE
 2888      00
 2889              	.LEHE117:
 2890              	.L149:
 129:testHexIO.cpp **** 	status = bufProcessLine(line, 0, &data, NULL, &seg, &recordType, NULL);
 2891              		.loc 4 129 0 is_stmt 1
 2892 12ff 488D759B 		leaq	-101(%rbp), %rsi
 2893 1303 488D4DA0 		leaq	-96(%rbp), %rcx
 2894 1307 488D55B0 		leaq	-80(%rbp), %rdx
 2895 130b 488B45A8 		movq	-88(%rbp), %rax
 2896 130f 48C70424 		movq	$0, (%rsp)
 2896      00000000 
 2897 1317 4989F1   		movq	%rsi, %r9
 2898 131a 4989C8   		movq	%rcx, %r8
 2899 131d B9000000 		movl	$0, %ecx
 2899      00
 2900 1322 BE000000 		movl	$0, %esi
 2900      00
 2901 1327 4889C7   		movq	%rax, %rdi
 2902              	.LEHB118:
 2903 132a E8000000 		call	bufProcessLine
 2903      00
 2904              	.LEHE118:
 2905 132f 89459C   		movl	%eax, -100(%rbp)
 2906              	.LEHB119:
 130:testHexIO.cpp **** 	CHECK_EQUAL(HEX_JUNK_REC_TYPE, status);
 2907              		.loc 4 130 0
 2908 1332 E8000000 		call	_ZN8UnitTest11CurrentTest7DetailsEv
 2908      00
 2909 1337 488B08   		movq	(%rax), %rcx
 2910 133a 488D45D0 		leaq	-48(%rbp), %rax
 2911 133e BA820000 		movl	$130, %edx
 2911      00
 2912 1343 4889CE   		movq	%rcx, %rsi
 2913 1346 4889C7   		movq	%rax, %rdi
 2914 1349 E8000000 		call	_ZN8UnitTest11TestDetailsC1ERKS0_i
 2914      00
 2915              		.loc 4 130 0 is_stmt 0 discriminator 1
 2916 134e C745A40C 		movl	$12, -92(%rbp)
 2916      000000
 2917 1355 E8000000 		call	_ZN8UnitTest11CurrentTest7ResultsEv
 2917      00
 2918 135a 488B00   		movq	(%rax), %rax
 2919 135d 488D4DD0 		leaq	-48(%rbp), %rcx
 2920 1361 488D559C 		leaq	-100(%rbp), %rdx
 2921 1365 488D75A4 		leaq	-92(%rbp), %rsi
 2922 1369 4889C7   		movq	%rax, %rdi
 2923 136c E8000000 		call	_ZN8UnitTest10CheckEqualI12BufferStatusS1_EEvRNS_11TestResultsERKT_RKT0_RKNS_11TestDetailsE
 2923      00
 2924              	.LEHE119:
 2925              	.L152:
 131:testHexIO.cpp **** 	bufDestroy(&data);
 2926              		.loc 4 131 0 is_stmt 1
 2927 1371 488D45B0 		leaq	-80(%rbp), %rax
 2928 1375 4889C7   		movq	%rax, %rdi
 2929              	.LEHB120:
 2930 1378 E8000000 		call	bufDestroy
 2930      00
 2931              	.LEHE120:
 2932 137d E9BA0000 		jmp	.L157
 2932      00
 2933              	.L154:
 2934 1382 4889C3   		movq	%rax, %rbx
 128:testHexIO.cpp **** 	status = bufProcessLine(line, 0, &data, NULL, &seg, &recordType, NULL);
 2935              		.loc 4 128 0
 2936 1385 E8000000 		call	__cxa_end_catch
 2936      00
 2937 138a 4889D8   		movq	%rbx, %rax
 2938 138d 4889C7   		movq	%rax, %rdi
 2939              	.LEHB121:
 2940 1390 E8000000 		call	_Unwind_Resume
 2940      00
 2941              	.LEHE121:
 2942              	.L153:
 2943 1395 4889C7   		movq	%rax, %rdi
 2944 1398 E8000000 		call	__cxa_begin_catch
 2944      00
 2945              	.LEHB122:
 2946 139d E8000000 		call	_ZN8UnitTest11CurrentTest7DetailsEv
 2946      00
 2947 13a2 488B08   		movq	(%rax), %rcx
 2948 13a5 488D45D0 		leaq	-48(%rbp), %rax
 2949 13a9 BA800000 		movl	$128, %edx
 2949      00
 2950 13ae 4889CE   		movq	%rcx, %rsi
 2951 13b1 4889C7   		movq	%rax, %rdi
 2952 13b4 E8000000 		call	_ZN8UnitTest11TestDetailsC1ERKS0_i
 2952      00
 128:testHexIO.cpp **** 	status = bufProcessLine(line, 0, &data, NULL, &seg, &recordType, NULL);
 2953              		.loc 4 128 0 is_stmt 0 discriminator 1
 2954 13b9 E8000000 		call	_ZN8UnitTest11CurrentTest7ResultsEv
 2954      00
 2955 13be 488B00   		movq	(%rax), %rax
 2956 13c1 488D4DD0 		leaq	-48(%rbp), %rcx
 2957 13c5 BA000000 		movl	$.LC4, %edx
 2957      00
 2958 13ca 4889CE   		movq	%rcx, %rsi
 2959 13cd 4889C7   		movq	%rax, %rdi
 2960 13d0 E8000000 		call	_ZN8UnitTest11TestResults13OnTestFailureERKNS_11TestDetailsEPKc
 2960      00
 2961              	.LEHE122:
 2962              	.LEHB123:
 2963 13d5 E8000000 		call	__cxa_end_catch
 2963      00
 2964              	.LEHE123:
 2965 13da E920FFFF 		jmp	.L149
 2965      FF
 2966              	.L156:
 2967 13df 4889C3   		movq	%rax, %rbx
 130:testHexIO.cpp **** 	CHECK_EQUAL(HEX_JUNK_REC_TYPE, status);
 2968              		.loc 4 130 0 is_stmt 1
 2969 13e2 E8000000 		call	__cxa_end_catch
 2969      00
 2970 13e7 4889D8   		movq	%rbx, %rax
 2971 13ea 4889C7   		movq	%rax, %rdi
 2972              	.LEHB124:
 2973 13ed E8000000 		call	_Unwind_Resume
 2973      00
 2974              	.LEHE124:
 2975              	.L155:
 2976 13f2 4889C7   		movq	%rax, %rdi
 2977 13f5 E8000000 		call	__cxa_begin_catch
 2977      00
 2978              	.LEHB125:
 2979 13fa E8000000 		call	_ZN8UnitTest11CurrentTest7DetailsEv
 2979      00
 2980 13ff 488B08   		movq	(%rax), %rcx
 2981 1402 488D45D0 		leaq	-48(%rbp), %rax
 2982 1406 BA820000 		movl	$130, %edx
 2982      00
 2983 140b 4889CE   		movq	%rcx, %rsi
 2984 140e 4889C7   		movq	%rax, %rdi
 2985 1411 E8000000 		call	_ZN8UnitTest11TestDetailsC1ERKS0_i
 2985      00
 130:testHexIO.cpp **** 	CHECK_EQUAL(HEX_JUNK_REC_TYPE, status);
 2986              		.loc 4 130 0 is_stmt 0 discriminator 1
 2987 1416 E8000000 		call	_ZN8UnitTest11CurrentTest7ResultsEv
 2987      00
 2988 141b 488B00   		movq	(%rax), %rax
 2989 141e 488D4DD0 		leaq	-48(%rbp), %rcx
 2990 1422 BA000000 		movl	$.LC30, %edx
 2990      00
 2991 1427 4889CE   		movq	%rcx, %rsi
 2992 142a 4889C7   		movq	%rax, %rdi
 2993 142d E8000000 		call	_ZN8UnitTest11TestResults13OnTestFailureERKNS_11TestDetailsEPKc
 2993      00
 2994              	.LEHE125:
 2995              	.LEHB126:
 2996 1432 E8000000 		call	__cxa_end_catch
 2996      00
 2997              	.LEHE126:
 2998 1437 E935FFFF 		jmp	.L152
 2998      FF
 2999              	.L157:
 3000              	.LBE18:
 132:testHexIO.cpp **** }
 3001              		.loc 4 132 0 is_stmt 1
 3002 143c 4883C478 		addq	$120, %rsp
 3003 1440 5B       		popq	%rbx
 3004 1441 5D       		popq	%rbp
 3005              		.cfi_def_cfa 7, 8
 3006 1442 C3       		ret
 3007              		.cfi_endproc
 3008              	.LFE1114:
 3009              		.section	.gcc_except_table
 3010              		.align 4
 3011              	.LLSDA1114:
 3012 029c FF       		.byte	0xff
 3013 029d 03       		.byte	0x3
 3014 029e 41       		.uleb128 .LLSDATT1114-.LLSDATTD1114
 3015              	.LLSDATTD1114:
 3016 029f 01       		.byte	0x1
 3017 02a0 39       		.uleb128 .LLSDACSE1114-.LLSDACSB1114
 3018              	.LLSDACSB1114:
 3019 02a1 32       		.uleb128 .LEHB116-.LFB1114
 3020 02a2 05       		.uleb128 .LEHE116-.LEHB116
 3021 02a3 00       		.uleb128 0
 3022 02a4 00       		.uleb128 0
 3023 02a5 3A       		.uleb128 .LEHB117-.LFB1114
 3024 02a6 3F       		.uleb128 .LEHE117-.LEHB117
 3025 02a7 8F02     		.uleb128 .L153-.LFB1114
 3026 02a9 01       		.uleb128 0x1
 3027 02aa A401     		.uleb128 .LEHB118-.LFB1114
 3028 02ac 05       		.uleb128 .LEHE118-.LEHB118
 3029 02ad 00       		.uleb128 0
 3030 02ae 00       		.uleb128 0
 3031 02af AC01     		.uleb128 .LEHB119-.LFB1114
 3032 02b1 3F       		.uleb128 .LEHE119-.LEHB119
 3033 02b2 EC02     		.uleb128 .L155-.LFB1114
 3034 02b4 01       		.uleb128 0x1
 3035 02b5 F201     		.uleb128 .LEHB120-.LFB1114
 3036 02b7 05       		.uleb128 .LEHE120-.LEHB120
 3037 02b8 00       		.uleb128 0
 3038 02b9 00       		.uleb128 0
 3039 02ba 8A02     		.uleb128 .LEHB121-.LFB1114
 3040 02bc 05       		.uleb128 .LEHE121-.LEHB121
 3041 02bd 00       		.uleb128 0
 3042 02be 00       		.uleb128 0
 3043 02bf 9702     		.uleb128 .LEHB122-.LFB1114
 3044 02c1 38       		.uleb128 .LEHE122-.LEHB122
 3045 02c2 FC01     		.uleb128 .L154-.LFB1114
 3046 02c4 00       		.uleb128 0
 3047 02c5 CF02     		.uleb128 .LEHB123-.LFB1114
 3048 02c7 05       		.uleb128 .LEHE123-.LEHB123
 3049 02c8 00       		.uleb128 0
 3050 02c9 00       		.uleb128 0
 3051 02ca E702     		.uleb128 .LEHB124-.LFB1114
 3052 02cc 05       		.uleb128 .LEHE124-.LEHB124
 3053 02cd 00       		.uleb128 0
 3054 02ce 00       		.uleb128 0
 3055 02cf F402     		.uleb128 .LEHB125-.LFB1114
 3056 02d1 38       		.uleb128 .LEHE125-.LEHB125
 3057 02d2 D902     		.uleb128 .L156-.LFB1114
 3058 02d4 00       		.uleb128 0
 3059 02d5 AC03     		.uleb128 .LEHB126-.LFB1114
 3060 02d7 05       		.uleb128 .LEHE126-.LEHB126
 3061 02d8 00       		.uleb128 0
 3062 02d9 00       		.uleb128 0
 3063              	.LLSDACSE1114:
 3064 02da 01       		.byte	0x1
 3065 02db 00       		.byte	0
 3066              		.align 4
 3067 02dc 00000000 		.long	0
 3068              	
 3069              	.LLSDATT1114:
 3070              		.text
 3072              		.section	.rodata
 3073              	.LC31:
 3074 04f6 48657849 		.string	"HexIO_testJunkDataByte"
 3074      4F5F7465 
 3074      73744A75 
 3074      6E6B4461 
 3074      74614279 
 3075              		.section	.text._ZN26TestHexIO_testJunkDataByteC2Ev,"axG",@progbits,_ZN26TestHexIO_testJunkDataByte
 3076              		.align 2
 3077              		.weak	_ZN26TestHexIO_testJunkDataByteC2Ev
 3079              	_ZN26TestHexIO_testJunkDataByteC2Ev:
 3080              	.LFB1116:
 133:testHexIO.cpp **** 
 134:testHexIO.cpp **** TEST(HexIO_testJunkDataByte) {
 3081              		.loc 4 134 0
 3082              		.cfi_startproc
 3083 0000 55       		pushq	%rbp
 3084              		.cfi_def_cfa_offset 16
 3085              		.cfi_offset 6, -16
 3086 0001 4889E5   		movq	%rsp, %rbp
 3087              		.cfi_def_cfa_register 6
 3088 0004 4883EC10 		subq	$16, %rsp
 3089 0008 48897DF8 		movq	%rdi, -8(%rbp)
 3090              	.LBB19:
 3091              		.loc 4 134 0
 3092 000c E8000000 		call	_ZN13UnitTestSuite12GetSuiteNameEv
 3092      00
 3093 0011 4889C2   		movq	%rax, %rdx
 3094 0014 488B45F8 		movq	-8(%rbp), %rax
 3095 0018 41B88600 		movl	$134, %r8d
 3095      0000
 3096 001e B9000000 		movl	$.LC1, %ecx
 3096      00
 3097 0023 BE000000 		movl	$.LC31, %esi
 3097      00
 3098 0028 4889C7   		movq	%rax, %rdi
 3099 002b E8000000 		call	_ZN8UnitTest4TestC2EPKcS2_S2_i
 3099      00
 3100 0030 488B45F8 		movq	-8(%rbp), %rax
 3101 0034 48C70000 		movq	$_ZTV26TestHexIO_testJunkDataByte+16, (%rax)
 3101      000000
 3102              	.LBE19:
 3103 003b C9       		leave
 3104              		.cfi_def_cfa 7, 8
 3105 003c C3       		ret
 3106              		.cfi_endproc
 3107              	.LFE1116:
 3109              		.weak	_ZN26TestHexIO_testJunkDataByteC1Ev
 3110              		.set	_ZN26TestHexIO_testJunkDataByteC1Ev,_ZN26TestHexIO_testJunkDataByteC2Ev
 3111              		.globl	testHexIO_testJunkDataByteInstance
 3112              		.bss
 3113 01b9 00000000 		.align 32
 3113      000000
 3116              	testHexIO_testJunkDataByteInstance:
 3117 01c0 00000000 		.zero	56
 3117      00000000 
 3117      00000000 
 3117      00000000 
 3117      00000000 
 3118              		.globl	adderHexIO_testJunkDataByte
 3121              	adderHexIO_testJunkDataByte:
 3122 01f8 00       		.zero	1
 3123              		.section	.rodata
 3124              	.LC32:
 3125 050d 3A303430 		.string	":040BE100..820022F7\n"
 3125      42453130 
 3125      302E2E38 
 3125      32303032 
 3125      3246370A 
 3126 0522 00000000 		.align 8
 3126      0000
 3127              	.LC33:
 3128 0528 556E6861 		.string	"Unhandled exception in CHECK_EQUAL(HEX_JUNK_DATA_BYTE, status)"
 3128      6E646C65 
 3128      64206578 
 3128      63657074 
 3128      696F6E20 
 3129              		.text
 3130 1443 90       		.align 2
 3131              		.globl	_ZNK26TestHexIO_testJunkDataByte7RunImplEv
 3133              	_ZNK26TestHexIO_testJunkDataByte7RunImplEv:
 3134              	.LFB1118:
 3135              		.loc 4 134 0
 3136              		.cfi_startproc
 3137              		.cfi_personality 0x3,__gxx_personality_v0
 3138              		.cfi_lsda 0x3,.LLSDA1118
 3139 1444 55       		pushq	%rbp
 3140              		.cfi_def_cfa_offset 16
 3141              		.cfi_offset 6, -16
 3142 1445 4889E5   		movq	%rsp, %rbp
 3143              		.cfi_def_cfa_register 6
 3144 1448 53       		pushq	%rbx
 3145 1449 4883EC78 		subq	$120, %rsp
 3146              		.cfi_offset 3, -24
 3147 144d 48897D88 		movq	%rdi, -120(%rbp)
 3148              	.LBB20:
 135:testHexIO.cpp **** 	Buffer data;
 136:testHexIO.cpp **** 	BufferStatus status;
 137:testHexIO.cpp **** 	const char *line = ":040BE100..820022F7\n";
 3149              		.loc 4 137 0
 3150 1451 48C745A8 		movq	$.LC32, -88(%rbp)
 3150      00000000 
 138:testHexIO.cpp **** 	uint8 recordType;
 139:testHexIO.cpp **** 	uint32 seg = 0x00000000;
 3151              		.loc 4 139 0
 3152 1459 C745A000 		movl	$0, -96(%rbp)
 3152      000000
 140:testHexIO.cpp **** 	status = bufInitialise(&data, 1024, 0x00, NULL);
 3153              		.loc 4 140 0
 3154 1460 488D45B0 		leaq	-80(%rbp), %rax
 3155 1464 B9000000 		movl	$0, %ecx
 3155      00
 3156 1469 BA000000 		movl	$0, %edx
 3156      00
 3157 146e BE000400 		movl	$1024, %esi
 3157      00
 3158 1473 4889C7   		movq	%rax, %rdi
 3159              	.LEHB127:
 3160 1476 E8000000 		call	bufInitialise
 3160      00
 3161              	.LEHE127:
 3162 147b 89459C   		movl	%eax, -100(%rbp)
 3163              	.LEHB128:
 141:testHexIO.cpp **** 	CHECK_EQUAL(BUF_SUCCESS, status);
 3164              		.loc 4 141 0
 3165 147e E8000000 		call	_ZN8UnitTest11CurrentTest7DetailsEv
 3165      00
 3166 1483 488B08   		movq	(%rax), %rcx
 3167 1486 488D45D0 		leaq	-48(%rbp), %rax
 3168 148a BA8D0000 		movl	$141, %edx
 3168      00
 3169 148f 4889CE   		movq	%rcx, %rsi
 3170 1492 4889C7   		movq	%rax, %rdi
 3171 1495 E8000000 		call	_ZN8UnitTest11TestDetailsC1ERKS0_i
 3171      00
 3172              		.loc 4 141 0 is_stmt 0 discriminator 1
 3173 149a C745A400 		movl	$0, -92(%rbp)
 3173      000000
 3174 14a1 E8000000 		call	_ZN8UnitTest11CurrentTest7ResultsEv
 3174      00
 3175 14a6 488B00   		movq	(%rax), %rax
 3176 14a9 488D4DD0 		leaq	-48(%rbp), %rcx
 3177 14ad 488D559C 		leaq	-100(%rbp), %rdx
 3178 14b1 488D75A4 		leaq	-92(%rbp), %rsi
 3179 14b5 4889C7   		movq	%rax, %rdi
 3180 14b8 E8000000 		call	_ZN8UnitTest10CheckEqualI12BufferStatusS1_EEvRNS_11TestResultsERKT_RKT0_RKNS_11TestDetailsE
 3180      00
 3181              	.LEHE128:
 3182              	.L162:
 142:testHexIO.cpp **** 	status = bufProcessLine(line, 0, &data, NULL, &seg, &recordType, NULL);
 3183              		.loc 4 142 0 is_stmt 1
 3184 14bd 488D759B 		leaq	-101(%rbp), %rsi
 3185 14c1 488D4DA0 		leaq	-96(%rbp), %rcx
 3186 14c5 488D55B0 		leaq	-80(%rbp), %rdx
 3187 14c9 488B45A8 		movq	-88(%rbp), %rax
 3188 14cd 48C70424 		movq	$0, (%rsp)
 3188      00000000 
 3189 14d5 4989F1   		movq	%rsi, %r9
 3190 14d8 4989C8   		movq	%rcx, %r8
 3191 14db B9000000 		movl	$0, %ecx
 3191      00
 3192 14e0 BE000000 		movl	$0, %esi
 3192      00
 3193 14e5 4889C7   		movq	%rax, %rdi
 3194              	.LEHB129:
 3195 14e8 E8000000 		call	bufProcessLine
 3195      00
 3196              	.LEHE129:
 3197 14ed 89459C   		movl	%eax, -100(%rbp)
 3198              	.LEHB130:
 143:testHexIO.cpp **** 	CHECK_EQUAL(HEX_JUNK_DATA_BYTE, status);
 3199              		.loc 4 143 0
 3200 14f0 E8000000 		call	_ZN8UnitTest11CurrentTest7DetailsEv
 3200      00
 3201 14f5 488B08   		movq	(%rax), %rcx
 3202 14f8 488D45D0 		leaq	-48(%rbp), %rax
 3203 14fc BA8F0000 		movl	$143, %edx
 3203      00
 3204 1501 4889CE   		movq	%rcx, %rsi
 3205 1504 4889C7   		movq	%rax, %rdi
 3206 1507 E8000000 		call	_ZN8UnitTest11TestDetailsC1ERKS0_i
 3206      00
 3207              		.loc 4 143 0 is_stmt 0 discriminator 1
 3208 150c C745A40E 		movl	$14, -92(%rbp)
 3208      000000
 3209 1513 E8000000 		call	_ZN8UnitTest11CurrentTest7ResultsEv
 3209      00
 3210 1518 488B00   		movq	(%rax), %rax
 3211 151b 488D4DD0 		leaq	-48(%rbp), %rcx
 3212 151f 488D559C 		leaq	-100(%rbp), %rdx
 3213 1523 488D75A4 		leaq	-92(%rbp), %rsi
 3214 1527 4889C7   		movq	%rax, %rdi
 3215 152a E8000000 		call	_ZN8UnitTest10CheckEqualI12BufferStatusS1_EEvRNS_11TestResultsERKT_RKT0_RKNS_11TestDetailsE
 3215      00
 3216              	.LEHE130:
 3217              	.L165:
 144:testHexIO.cpp **** 	bufDestroy(&data);
 3218              		.loc 4 144 0 is_stmt 1
 3219 152f 488D45B0 		leaq	-80(%rbp), %rax
 3220 1533 4889C7   		movq	%rax, %rdi
 3221              	.LEHB131:
 3222 1536 E8000000 		call	bufDestroy
 3222      00
 3223              	.LEHE131:
 3224 153b E9BA0000 		jmp	.L170
 3224      00
 3225              	.L167:
 3226 1540 4889C3   		movq	%rax, %rbx
 141:testHexIO.cpp **** 	status = bufProcessLine(line, 0, &data, NULL, &seg, &recordType, NULL);
 3227              		.loc 4 141 0
 3228 1543 E8000000 		call	__cxa_end_catch
 3228      00
 3229 1548 4889D8   		movq	%rbx, %rax
 3230 154b 4889C7   		movq	%rax, %rdi
 3231              	.LEHB132:
 3232 154e E8000000 		call	_Unwind_Resume
 3232      00
 3233              	.LEHE132:
 3234              	.L166:
 3235 1553 4889C7   		movq	%rax, %rdi
 3236 1556 E8000000 		call	__cxa_begin_catch
 3236      00
 3237              	.LEHB133:
 3238 155b E8000000 		call	_ZN8UnitTest11CurrentTest7DetailsEv
 3238      00
 3239 1560 488B08   		movq	(%rax), %rcx
 3240 1563 488D45D0 		leaq	-48(%rbp), %rax
 3241 1567 BA8D0000 		movl	$141, %edx
 3241      00
 3242 156c 4889CE   		movq	%rcx, %rsi
 3243 156f 4889C7   		movq	%rax, %rdi
 3244 1572 E8000000 		call	_ZN8UnitTest11TestDetailsC1ERKS0_i
 3244      00
 141:testHexIO.cpp **** 	status = bufProcessLine(line, 0, &data, NULL, &seg, &recordType, NULL);
 3245              		.loc 4 141 0 is_stmt 0 discriminator 1
 3246 1577 E8000000 		call	_ZN8UnitTest11CurrentTest7ResultsEv
 3246      00
 3247 157c 488B00   		movq	(%rax), %rax
 3248 157f 488D4DD0 		leaq	-48(%rbp), %rcx
 3249 1583 BA000000 		movl	$.LC4, %edx
 3249      00
 3250 1588 4889CE   		movq	%rcx, %rsi
 3251 158b 4889C7   		movq	%rax, %rdi
 3252 158e E8000000 		call	_ZN8UnitTest11TestResults13OnTestFailureERKNS_11TestDetailsEPKc
 3252      00
 3253              	.LEHE133:
 3254              	.LEHB134:
 3255 1593 E8000000 		call	__cxa_end_catch
 3255      00
 3256              	.LEHE134:
 3257 1598 E920FFFF 		jmp	.L162
 3257      FF
 3258              	.L169:
 3259 159d 4889C3   		movq	%rax, %rbx
 143:testHexIO.cpp **** 	CHECK_EQUAL(HEX_JUNK_DATA_BYTE, status);
 3260              		.loc 4 143 0 is_stmt 1
 3261 15a0 E8000000 		call	__cxa_end_catch
 3261      00
 3262 15a5 4889D8   		movq	%rbx, %rax
 3263 15a8 4889C7   		movq	%rax, %rdi
 3264              	.LEHB135:
 3265 15ab E8000000 		call	_Unwind_Resume
 3265      00
 3266              	.LEHE135:
 3267              	.L168:
 3268 15b0 4889C7   		movq	%rax, %rdi
 3269 15b3 E8000000 		call	__cxa_begin_catch
 3269      00
 3270              	.LEHB136:
 3271 15b8 E8000000 		call	_ZN8UnitTest11CurrentTest7DetailsEv
 3271      00
 3272 15bd 488B08   		movq	(%rax), %rcx
 3273 15c0 488D45D0 		leaq	-48(%rbp), %rax
 3274 15c4 BA8F0000 		movl	$143, %edx
 3274      00
 3275 15c9 4889CE   		movq	%rcx, %rsi
 3276 15cc 4889C7   		movq	%rax, %rdi
 3277 15cf E8000000 		call	_ZN8UnitTest11TestDetailsC1ERKS0_i
 3277      00
 143:testHexIO.cpp **** 	CHECK_EQUAL(HEX_JUNK_DATA_BYTE, status);
 3278              		.loc 4 143 0 is_stmt 0 discriminator 1
 3279 15d4 E8000000 		call	_ZN8UnitTest11CurrentTest7ResultsEv
 3279      00
 3280 15d9 488B00   		movq	(%rax), %rax
 3281 15dc 488D4DD0 		leaq	-48(%rbp), %rcx
 3282 15e0 BA000000 		movl	$.LC33, %edx
 3282      00
 3283 15e5 4889CE   		movq	%rcx, %rsi
 3284 15e8 4889C7   		movq	%rax, %rdi
 3285 15eb E8000000 		call	_ZN8UnitTest11TestResults13OnTestFailureERKNS_11TestDetailsEPKc
 3285      00
 3286              	.LEHE136:
 3287              	.LEHB137:
 3288 15f0 E8000000 		call	__cxa_end_catch
 3288      00
 3289              	.LEHE137:
 3290 15f5 E935FFFF 		jmp	.L165
 3290      FF
 3291              	.L170:
 3292              	.LBE20:
 145:testHexIO.cpp **** }
 3293              		.loc 4 145 0 is_stmt 1
 3294 15fa 4883C478 		addq	$120, %rsp
 3295 15fe 5B       		popq	%rbx
 3296 15ff 5D       		popq	%rbp
 3297              		.cfi_def_cfa 7, 8
 3298 1600 C3       		ret
 3299              		.cfi_endproc
 3300              	.LFE1118:
 3301              		.section	.gcc_except_table
 3302              		.align 4
 3303              	.LLSDA1118:
 3304 02e0 FF       		.byte	0xff
 3305 02e1 03       		.byte	0x3
 3306 02e2 41       		.uleb128 .LLSDATT1118-.LLSDATTD1118
 3307              	.LLSDATTD1118:
 3308 02e3 01       		.byte	0x1
 3309 02e4 39       		.uleb128 .LLSDACSE1118-.LLSDACSB1118
 3310              	.LLSDACSB1118:
 3311 02e5 32       		.uleb128 .LEHB127-.LFB1118
 3312 02e6 05       		.uleb128 .LEHE127-.LEHB127
 3313 02e7 00       		.uleb128 0
 3314 02e8 00       		.uleb128 0
 3315 02e9 3A       		.uleb128 .LEHB128-.LFB1118
 3316 02ea 3F       		.uleb128 .LEHE128-.LEHB128
 3317 02eb 8F02     		.uleb128 .L166-.LFB1118
 3318 02ed 01       		.uleb128 0x1
 3319 02ee A401     		.uleb128 .LEHB129-.LFB1118
 3320 02f0 05       		.uleb128 .LEHE129-.LEHB129
 3321 02f1 00       		.uleb128 0
 3322 02f2 00       		.uleb128 0
 3323 02f3 AC01     		.uleb128 .LEHB130-.LFB1118
 3324 02f5 3F       		.uleb128 .LEHE130-.LEHB130
 3325 02f6 EC02     		.uleb128 .L168-.LFB1118
 3326 02f8 01       		.uleb128 0x1
 3327 02f9 F201     		.uleb128 .LEHB131-.LFB1118
 3328 02fb 05       		.uleb128 .LEHE131-.LEHB131
 3329 02fc 00       		.uleb128 0
 3330 02fd 00       		.uleb128 0
 3331 02fe 8A02     		.uleb128 .LEHB132-.LFB1118
 3332 0300 05       		.uleb128 .LEHE132-.LEHB132
 3333 0301 00       		.uleb128 0
 3334 0302 00       		.uleb128 0
 3335 0303 9702     		.uleb128 .LEHB133-.LFB1118
 3336 0305 38       		.uleb128 .LEHE133-.LEHB133
 3337 0306 FC01     		.uleb128 .L167-.LFB1118
 3338 0308 00       		.uleb128 0
 3339 0309 CF02     		.uleb128 .LEHB134-.LFB1118
 3340 030b 05       		.uleb128 .LEHE134-.LEHB134
 3341 030c 00       		.uleb128 0
 3342 030d 00       		.uleb128 0
 3343 030e E702     		.uleb128 .LEHB135-.LFB1118
 3344 0310 05       		.uleb128 .LEHE135-.LEHB135
 3345 0311 00       		.uleb128 0
 3346 0312 00       		.uleb128 0
 3347 0313 F402     		.uleb128 .LEHB136-.LFB1118
 3348 0315 38       		.uleb128 .LEHE136-.LEHB136
 3349 0316 D902     		.uleb128 .L169-.LFB1118
 3350 0318 00       		.uleb128 0
 3351 0319 AC03     		.uleb128 .LEHB137-.LFB1118
 3352 031b 05       		.uleb128 .LEHE137-.LEHB137
 3353 031c 00       		.uleb128 0
 3354 031d 00       		.uleb128 0
 3355              	.LLSDACSE1118:
 3356 031e 01       		.byte	0x1
 3357 031f 00       		.byte	0
 3358              		.align 4
 3359 0320 00000000 		.long	0
 3360              	
 3361              	.LLSDATT1118:
 3362              		.text
 3364              		.section	.rodata
 3365              	.LC34:
 3366 0567 48657849 		.string	"HexIO_testJunkChecksum"
 3366      4F5F7465 
 3366      73744A75 
 3366      6E6B4368 
 3366      65636B73 
 3367              		.section	.text._ZN26TestHexIO_testJunkChecksumC2Ev,"axG",@progbits,_ZN26TestHexIO_testJunkChecksum
 3368              		.align 2
 3369              		.weak	_ZN26TestHexIO_testJunkChecksumC2Ev
 3371              	_ZN26TestHexIO_testJunkChecksumC2Ev:
 3372              	.LFB1120:
 146:testHexIO.cpp **** 
 147:testHexIO.cpp **** TEST(HexIO_testJunkChecksum) {
 3373              		.loc 4 147 0
 3374              		.cfi_startproc
 3375 0000 55       		pushq	%rbp
 3376              		.cfi_def_cfa_offset 16
 3377              		.cfi_offset 6, -16
 3378 0001 4889E5   		movq	%rsp, %rbp
 3379              		.cfi_def_cfa_register 6
 3380 0004 4883EC10 		subq	$16, %rsp
 3381 0008 48897DF8 		movq	%rdi, -8(%rbp)
 3382              	.LBB21:
 3383              		.loc 4 147 0
 3384 000c E8000000 		call	_ZN13UnitTestSuite12GetSuiteNameEv
 3384      00
 3385 0011 4889C2   		movq	%rax, %rdx
 3386 0014 488B45F8 		movq	-8(%rbp), %rax
 3387 0018 41B89300 		movl	$147, %r8d
 3387      0000
 3388 001e B9000000 		movl	$.LC1, %ecx
 3388      00
 3389 0023 BE000000 		movl	$.LC34, %esi
 3389      00
 3390 0028 4889C7   		movq	%rax, %rdi
 3391 002b E8000000 		call	_ZN8UnitTest4TestC2EPKcS2_S2_i
 3391      00
 3392 0030 488B45F8 		movq	-8(%rbp), %rax
 3393 0034 48C70000 		movq	$_ZTV26TestHexIO_testJunkChecksum+16, (%rax)
 3393      000000
 3394              	.LBE21:
 3395 003b C9       		leave
 3396              		.cfi_def_cfa 7, 8
 3397 003c C3       		ret
 3398              		.cfi_endproc
 3399              	.LFE1120:
 3401              		.weak	_ZN26TestHexIO_testJunkChecksumC1Ev
 3402              		.set	_ZN26TestHexIO_testJunkChecksumC1Ev,_ZN26TestHexIO_testJunkChecksumC2Ev
 3403              		.globl	testHexIO_testJunkChecksumInstance
 3404              		.bss
 3405 01f9 00000000 		.align 32
 3405      000000
 3408              	testHexIO_testJunkChecksumInstance:
 3409 0200 00000000 		.zero	56
 3409      00000000 
 3409      00000000 
 3409      00000000 
 3409      00000000 
 3410              		.globl	adderHexIO_testJunkChecksum
 3413              	adderHexIO_testJunkChecksum:
 3414 0238 00       		.zero	1
 3415              		.section	.rodata
 3416              	.LC35:
 3417 057e 3A303430 		.string	":040BE10075820022..\n"
 3417      42453130 
 3417      30373538 
 3417      32303032 
 3417      322E2E0A 
 3418 0593 00000000 		.align 8
 3418      00
 3419              	.LC36:
 3420 0598 556E6861 		.string	"Unhandled exception in CHECK_EQUAL(HEX_JUNK_CHECKSUM, status)"
 3420      6E646C65 
 3420      64206578 
 3420      63657074 
 3420      696F6E20 
 3421              		.text
 3422 1601 90       		.align 2
 3423              		.globl	_ZNK26TestHexIO_testJunkChecksum7RunImplEv
 3425              	_ZNK26TestHexIO_testJunkChecksum7RunImplEv:
 3426              	.LFB1122:
 3427              		.loc 4 147 0
 3428              		.cfi_startproc
 3429              		.cfi_personality 0x3,__gxx_personality_v0
 3430              		.cfi_lsda 0x3,.LLSDA1122
 3431 1602 55       		pushq	%rbp
 3432              		.cfi_def_cfa_offset 16
 3433              		.cfi_offset 6, -16
 3434 1603 4889E5   		movq	%rsp, %rbp
 3435              		.cfi_def_cfa_register 6
 3436 1606 53       		pushq	%rbx
 3437 1607 4883EC78 		subq	$120, %rsp
 3438              		.cfi_offset 3, -24
 3439 160b 48897D88 		movq	%rdi, -120(%rbp)
 3440              	.LBB22:
 148:testHexIO.cpp **** 	Buffer data;
 149:testHexIO.cpp **** 	BufferStatus status;
 150:testHexIO.cpp **** 	const char *line = ":040BE10075820022..\n";
 3441              		.loc 4 150 0
 3442 160f 48C745A8 		movq	$.LC35, -88(%rbp)
 3442      00000000 
 151:testHexIO.cpp **** 	uint8 recordType;
 152:testHexIO.cpp **** 	uint32 seg = 0x00000000;
 3443              		.loc 4 152 0
 3444 1617 C745A000 		movl	$0, -96(%rbp)
 3444      000000
 153:testHexIO.cpp **** 	status = bufInitialise(&data, 1024, 0x00, NULL);
 3445              		.loc 4 153 0
 3446 161e 488D45B0 		leaq	-80(%rbp), %rax
 3447 1622 B9000000 		movl	$0, %ecx
 3447      00
 3448 1627 BA000000 		movl	$0, %edx
 3448      00
 3449 162c BE000400 		movl	$1024, %esi
 3449      00
 3450 1631 4889C7   		movq	%rax, %rdi
 3451              	.LEHB138:
 3452 1634 E8000000 		call	bufInitialise
 3452      00
 3453              	.LEHE138:
 3454 1639 89459C   		movl	%eax, -100(%rbp)
 3455              	.LEHB139:
 154:testHexIO.cpp **** 	CHECK_EQUAL(BUF_SUCCESS, status);
 3456              		.loc 4 154 0
 3457 163c E8000000 		call	_ZN8UnitTest11CurrentTest7DetailsEv
 3457      00
 3458 1641 488B08   		movq	(%rax), %rcx
 3459 1644 488D45D0 		leaq	-48(%rbp), %rax
 3460 1648 BA9A0000 		movl	$154, %edx
 3460      00
 3461 164d 4889CE   		movq	%rcx, %rsi
 3462 1650 4889C7   		movq	%rax, %rdi
 3463 1653 E8000000 		call	_ZN8UnitTest11TestDetailsC1ERKS0_i
 3463      00
 3464              		.loc 4 154 0 is_stmt 0 discriminator 1
 3465 1658 C745A400 		movl	$0, -92(%rbp)
 3465      000000
 3466 165f E8000000 		call	_ZN8UnitTest11CurrentTest7ResultsEv
 3466      00
 3467 1664 488B00   		movq	(%rax), %rax
 3468 1667 488D4DD0 		leaq	-48(%rbp), %rcx
 3469 166b 488D559C 		leaq	-100(%rbp), %rdx
 3470 166f 488D75A4 		leaq	-92(%rbp), %rsi
 3471 1673 4889C7   		movq	%rax, %rdi
 3472 1676 E8000000 		call	_ZN8UnitTest10CheckEqualI12BufferStatusS1_EEvRNS_11TestResultsERKT_RKT0_RKNS_11TestDetailsE
 3472      00
 3473              	.LEHE139:
 3474              	.L175:
 155:testHexIO.cpp **** 	status = bufProcessLine(line, 0, &data, NULL, &seg, &recordType, NULL);
 3475              		.loc 4 155 0 is_stmt 1
 3476 167b 488D759B 		leaq	-101(%rbp), %rsi
 3477 167f 488D4DA0 		leaq	-96(%rbp), %rcx
 3478 1683 488D55B0 		leaq	-80(%rbp), %rdx
 3479 1687 488B45A8 		movq	-88(%rbp), %rax
 3480 168b 48C70424 		movq	$0, (%rsp)
 3480      00000000 
 3481 1693 4989F1   		movq	%rsi, %r9
 3482 1696 4989C8   		movq	%rcx, %r8
 3483 1699 B9000000 		movl	$0, %ecx
 3483      00
 3484 169e BE000000 		movl	$0, %esi
 3484      00
 3485 16a3 4889C7   		movq	%rax, %rdi
 3486              	.LEHB140:
 3487 16a6 E8000000 		call	bufProcessLine
 3487      00
 3488              	.LEHE140:
 3489 16ab 89459C   		movl	%eax, -100(%rbp)
 3490              	.LEHB141:
 156:testHexIO.cpp **** 	CHECK_EQUAL(HEX_JUNK_CHECKSUM, status);
 3491              		.loc 4 156 0
 3492 16ae E8000000 		call	_ZN8UnitTest11CurrentTest7DetailsEv
 3492      00
 3493 16b3 488B08   		movq	(%rax), %rcx
 3494 16b6 488D45D0 		leaq	-48(%rbp), %rax
 3495 16ba BA9C0000 		movl	$156, %edx
 3495      00
 3496 16bf 4889CE   		movq	%rcx, %rsi
 3497 16c2 4889C7   		movq	%rax, %rdi
 3498 16c5 E8000000 		call	_ZN8UnitTest11TestDetailsC1ERKS0_i
 3498      00
 3499              		.loc 4 156 0 is_stmt 0 discriminator 1
 3500 16ca C745A40F 		movl	$15, -92(%rbp)
 3500      000000
 3501 16d1 E8000000 		call	_ZN8UnitTest11CurrentTest7ResultsEv
 3501      00
 3502 16d6 488B00   		movq	(%rax), %rax
 3503 16d9 488D4DD0 		leaq	-48(%rbp), %rcx
 3504 16dd 488D559C 		leaq	-100(%rbp), %rdx
 3505 16e1 488D75A4 		leaq	-92(%rbp), %rsi
 3506 16e5 4889C7   		movq	%rax, %rdi
 3507 16e8 E8000000 		call	_ZN8UnitTest10CheckEqualI12BufferStatusS1_EEvRNS_11TestResultsERKT_RKT0_RKNS_11TestDetailsE
 3507      00
 3508              	.LEHE141:
 3509              	.L178:
 157:testHexIO.cpp **** 	bufDestroy(&data);
 3510              		.loc 4 157 0 is_stmt 1
 3511 16ed 488D45B0 		leaq	-80(%rbp), %rax
 3512 16f1 4889C7   		movq	%rax, %rdi
 3513              	.LEHB142:
 3514 16f4 E8000000 		call	bufDestroy
 3514      00
 3515              	.LEHE142:
 3516 16f9 E9BA0000 		jmp	.L183
 3516      00
 3517              	.L180:
 3518 16fe 4889C3   		movq	%rax, %rbx
 154:testHexIO.cpp **** 	status = bufProcessLine(line, 0, &data, NULL, &seg, &recordType, NULL);
 3519              		.loc 4 154 0
 3520 1701 E8000000 		call	__cxa_end_catch
 3520      00
 3521 1706 4889D8   		movq	%rbx, %rax
 3522 1709 4889C7   		movq	%rax, %rdi
 3523              	.LEHB143:
 3524 170c E8000000 		call	_Unwind_Resume
 3524      00
 3525              	.LEHE143:
 3526              	.L179:
 3527 1711 4889C7   		movq	%rax, %rdi
 3528 1714 E8000000 		call	__cxa_begin_catch
 3528      00
 3529              	.LEHB144:
 3530 1719 E8000000 		call	_ZN8UnitTest11CurrentTest7DetailsEv
 3530      00
 3531 171e 488B08   		movq	(%rax), %rcx
 3532 1721 488D45D0 		leaq	-48(%rbp), %rax
 3533 1725 BA9A0000 		movl	$154, %edx
 3533      00
 3534 172a 4889CE   		movq	%rcx, %rsi
 3535 172d 4889C7   		movq	%rax, %rdi
 3536 1730 E8000000 		call	_ZN8UnitTest11TestDetailsC1ERKS0_i
 3536      00
 154:testHexIO.cpp **** 	status = bufProcessLine(line, 0, &data, NULL, &seg, &recordType, NULL);
 3537              		.loc 4 154 0 is_stmt 0 discriminator 1
 3538 1735 E8000000 		call	_ZN8UnitTest11CurrentTest7ResultsEv
 3538      00
 3539 173a 488B00   		movq	(%rax), %rax
 3540 173d 488D4DD0 		leaq	-48(%rbp), %rcx
 3541 1741 BA000000 		movl	$.LC4, %edx
 3541      00
 3542 1746 4889CE   		movq	%rcx, %rsi
 3543 1749 4889C7   		movq	%rax, %rdi
 3544 174c E8000000 		call	_ZN8UnitTest11TestResults13OnTestFailureERKNS_11TestDetailsEPKc
 3544      00
 3545              	.LEHE144:
 3546              	.LEHB145:
 3547 1751 E8000000 		call	__cxa_end_catch
 3547      00
 3548              	.LEHE145:
 3549 1756 E920FFFF 		jmp	.L175
 3549      FF
 3550              	.L182:
 3551 175b 4889C3   		movq	%rax, %rbx
 156:testHexIO.cpp **** 	CHECK_EQUAL(HEX_JUNK_CHECKSUM, status);
 3552              		.loc 4 156 0 is_stmt 1
 3553 175e E8000000 		call	__cxa_end_catch
 3553      00
 3554 1763 4889D8   		movq	%rbx, %rax
 3555 1766 4889C7   		movq	%rax, %rdi
 3556              	.LEHB146:
 3557 1769 E8000000 		call	_Unwind_Resume
 3557      00
 3558              	.LEHE146:
 3559              	.L181:
 3560 176e 4889C7   		movq	%rax, %rdi
 3561 1771 E8000000 		call	__cxa_begin_catch
 3561      00
 3562              	.LEHB147:
 3563 1776 E8000000 		call	_ZN8UnitTest11CurrentTest7DetailsEv
 3563      00
 3564 177b 488B08   		movq	(%rax), %rcx
 3565 177e 488D45D0 		leaq	-48(%rbp), %rax
 3566 1782 BA9C0000 		movl	$156, %edx
 3566      00
 3567 1787 4889CE   		movq	%rcx, %rsi
 3568 178a 4889C7   		movq	%rax, %rdi
 3569 178d E8000000 		call	_ZN8UnitTest11TestDetailsC1ERKS0_i
 3569      00
 156:testHexIO.cpp **** 	CHECK_EQUAL(HEX_JUNK_CHECKSUM, status);
 3570              		.loc 4 156 0 is_stmt 0 discriminator 1
 3571 1792 E8000000 		call	_ZN8UnitTest11CurrentTest7ResultsEv
 3571      00
 3572 1797 488B00   		movq	(%rax), %rax
 3573 179a 488D4DD0 		leaq	-48(%rbp), %rcx
 3574 179e BA000000 		movl	$.LC36, %edx
 3574      00
 3575 17a3 4889CE   		movq	%rcx, %rsi
 3576 17a6 4889C7   		movq	%rax, %rdi
 3577 17a9 E8000000 		call	_ZN8UnitTest11TestResults13OnTestFailureERKNS_11TestDetailsEPKc
 3577      00
 3578              	.LEHE147:
 3579              	.LEHB148:
 3580 17ae E8000000 		call	__cxa_end_catch
 3580      00
 3581              	.LEHE148:
 3582 17b3 E935FFFF 		jmp	.L178
 3582      FF
 3583              	.L183:
 3584              	.LBE22:
 158:testHexIO.cpp **** }
 3585              		.loc 4 158 0 is_stmt 1
 3586 17b8 4883C478 		addq	$120, %rsp
 3587 17bc 5B       		popq	%rbx
 3588 17bd 5D       		popq	%rbp
 3589              		.cfi_def_cfa 7, 8
 3590 17be C3       		ret
 3591              		.cfi_endproc
 3592              	.LFE1122:
 3593              		.section	.gcc_except_table
 3594              		.align 4
 3595              	.LLSDA1122:
 3596 0324 FF       		.byte	0xff
 3597 0325 03       		.byte	0x3
 3598 0326 41       		.uleb128 .LLSDATT1122-.LLSDATTD1122
 3599              	.LLSDATTD1122:
 3600 0327 01       		.byte	0x1
 3601 0328 39       		.uleb128 .LLSDACSE1122-.LLSDACSB1122
 3602              	.LLSDACSB1122:
 3603 0329 32       		.uleb128 .LEHB138-.LFB1122
 3604 032a 05       		.uleb128 .LEHE138-.LEHB138
 3605 032b 00       		.uleb128 0
 3606 032c 00       		.uleb128 0
 3607 032d 3A       		.uleb128 .LEHB139-.LFB1122
 3608 032e 3F       		.uleb128 .LEHE139-.LEHB139
 3609 032f 8F02     		.uleb128 .L179-.LFB1122
 3610 0331 01       		.uleb128 0x1
 3611 0332 A401     		.uleb128 .LEHB140-.LFB1122
 3612 0334 05       		.uleb128 .LEHE140-.LEHB140
 3613 0335 00       		.uleb128 0
 3614 0336 00       		.uleb128 0
 3615 0337 AC01     		.uleb128 .LEHB141-.LFB1122
 3616 0339 3F       		.uleb128 .LEHE141-.LEHB141
 3617 033a EC02     		.uleb128 .L181-.LFB1122
 3618 033c 01       		.uleb128 0x1
 3619 033d F201     		.uleb128 .LEHB142-.LFB1122
 3620 033f 05       		.uleb128 .LEHE142-.LEHB142
 3621 0340 00       		.uleb128 0
 3622 0341 00       		.uleb128 0
 3623 0342 8A02     		.uleb128 .LEHB143-.LFB1122
 3624 0344 05       		.uleb128 .LEHE143-.LEHB143
 3625 0345 00       		.uleb128 0
 3626 0346 00       		.uleb128 0
 3627 0347 9702     		.uleb128 .LEHB144-.LFB1122
 3628 0349 38       		.uleb128 .LEHE144-.LEHB144
 3629 034a FC01     		.uleb128 .L180-.LFB1122
 3630 034c 00       		.uleb128 0
 3631 034d CF02     		.uleb128 .LEHB145-.LFB1122
 3632 034f 05       		.uleb128 .LEHE145-.LEHB145
 3633 0350 00       		.uleb128 0
 3634 0351 00       		.uleb128 0
 3635 0352 E702     		.uleb128 .LEHB146-.LFB1122
 3636 0354 05       		.uleb128 .LEHE146-.LEHB146
 3637 0355 00       		.uleb128 0
 3638 0356 00       		.uleb128 0
 3639 0357 F402     		.uleb128 .LEHB147-.LFB1122
 3640 0359 38       		.uleb128 .LEHE147-.LEHB147
 3641 035a D902     		.uleb128 .L182-.LFB1122
 3642 035c 00       		.uleb128 0
 3643 035d AC03     		.uleb128 .LEHB148-.LFB1122
 3644 035f 05       		.uleb128 .LEHE148-.LEHB148
 3645 0360 00       		.uleb128 0
 3646 0361 00       		.uleb128 0
 3647              	.LLSDACSE1122:
 3648 0362 01       		.byte	0x1
 3649 0363 00       		.byte	0
 3650              		.align 4
 3651 0364 00000000 		.long	0
 3652              	
 3653              	.LLSDATT1122:
 3654              		.text
 3656              		.section	.rodata
 3657              	.LC37:
 3658 05d6 48657849 		.string	"HexIO_testBadChecksum"
 3658      4F5F7465 
 3658      73744261 
 3658      64436865 
 3658      636B7375 
 3659              		.section	.text._ZN25TestHexIO_testBadChecksumC2Ev,"axG",@progbits,_ZN25TestHexIO_testBadChecksumC5
 3660              		.align 2
 3661              		.weak	_ZN25TestHexIO_testBadChecksumC2Ev
 3663              	_ZN25TestHexIO_testBadChecksumC2Ev:
 3664              	.LFB1124:
 159:testHexIO.cpp **** 
 160:testHexIO.cpp **** TEST(HexIO_testBadChecksum) {
 3665              		.loc 4 160 0
 3666              		.cfi_startproc
 3667 0000 55       		pushq	%rbp
 3668              		.cfi_def_cfa_offset 16
 3669              		.cfi_offset 6, -16
 3670 0001 4889E5   		movq	%rsp, %rbp
 3671              		.cfi_def_cfa_register 6
 3672 0004 4883EC10 		subq	$16, %rsp
 3673 0008 48897DF8 		movq	%rdi, -8(%rbp)
 3674              	.LBB23:
 3675              		.loc 4 160 0
 3676 000c E8000000 		call	_ZN13UnitTestSuite12GetSuiteNameEv
 3676      00
 3677 0011 4889C2   		movq	%rax, %rdx
 3678 0014 488B45F8 		movq	-8(%rbp), %rax
 3679 0018 41B8A000 		movl	$160, %r8d
 3679      0000
 3680 001e B9000000 		movl	$.LC1, %ecx
 3680      00
 3681 0023 BE000000 		movl	$.LC37, %esi
 3681      00
 3682 0028 4889C7   		movq	%rax, %rdi
 3683 002b E8000000 		call	_ZN8UnitTest4TestC2EPKcS2_S2_i
 3683      00
 3684 0030 488B45F8 		movq	-8(%rbp), %rax
 3685 0034 48C70000 		movq	$_ZTV25TestHexIO_testBadChecksum+16, (%rax)
 3685      000000
 3686              	.LBE23:
 3687 003b C9       		leave
 3688              		.cfi_def_cfa 7, 8
 3689 003c C3       		ret
 3690              		.cfi_endproc
 3691              	.LFE1124:
 3693              		.weak	_ZN25TestHexIO_testBadChecksumC1Ev
 3694              		.set	_ZN25TestHexIO_testBadChecksumC1Ev,_ZN25TestHexIO_testBadChecksumC2Ev
 3695              		.globl	testHexIO_testBadChecksumInstance
 3696              		.bss
 3697 0239 00000000 		.align 32
 3697      000000
 3700              	testHexIO_testBadChecksumInstance:
 3701 0240 00000000 		.zero	56
 3701      00000000 
 3701      00000000 
 3701      00000000 
 3701      00000000 
 3702              		.globl	adderHexIO_testBadChecksum
 3705              	adderHexIO_testBadChecksum:
 3706 0278 00       		.zero	1
 3707              		.section	.rodata
 3708              	.LC38:
 3709 05ec 3A303430 		.string	":040BE10075820022F8\n"
 3709      42453130 
 3709      30373538 
 3709      32303032 
 3709      3246380A 
 3710 0601 00000000 		.align 8
 3710      000000
 3711              	.LC39:
 3712 0608 556E6861 		.string	"Unhandled exception in CHECK_EQUAL(HEX_BAD_CHECKSUM, status)"
 3712      6E646C65 
 3712      64206578 
 3712      63657074 
 3712      696F6E20 
 3713              		.text
 3714 17bf 90       		.align 2
 3715              		.globl	_ZNK25TestHexIO_testBadChecksum7RunImplEv
 3717              	_ZNK25TestHexIO_testBadChecksum7RunImplEv:
 3718              	.LFB1126:
 3719              		.loc 4 160 0
 3720              		.cfi_startproc
 3721              		.cfi_personality 0x3,__gxx_personality_v0
 3722              		.cfi_lsda 0x3,.LLSDA1126
 3723 17c0 55       		pushq	%rbp
 3724              		.cfi_def_cfa_offset 16
 3725              		.cfi_offset 6, -16
 3726 17c1 4889E5   		movq	%rsp, %rbp
 3727              		.cfi_def_cfa_register 6
 3728 17c4 53       		pushq	%rbx
 3729 17c5 4883EC78 		subq	$120, %rsp
 3730              		.cfi_offset 3, -24
 3731 17c9 48897D88 		movq	%rdi, -120(%rbp)
 3732              	.LBB24:
 161:testHexIO.cpp **** 	Buffer data;
 162:testHexIO.cpp **** 	BufferStatus status;
 163:testHexIO.cpp **** 	const char *line = ":040BE10075820022F8\n";
 3733              		.loc 4 163 0
 3734 17cd 48C745A8 		movq	$.LC38, -88(%rbp)
 3734      00000000 
 164:testHexIO.cpp **** 	uint8 recordType;
 165:testHexIO.cpp **** 	uint32 seg = 0x00000000;
 3735              		.loc 4 165 0
 3736 17d5 C745A000 		movl	$0, -96(%rbp)
 3736      000000
 166:testHexIO.cpp **** 	status = bufInitialise(&data, 1024, 0x00, NULL);
 3737              		.loc 4 166 0
 3738 17dc 488D45B0 		leaq	-80(%rbp), %rax
 3739 17e0 B9000000 		movl	$0, %ecx
 3739      00
 3740 17e5 BA000000 		movl	$0, %edx
 3740      00
 3741 17ea BE000400 		movl	$1024, %esi
 3741      00
 3742 17ef 4889C7   		movq	%rax, %rdi
 3743              	.LEHB149:
 3744 17f2 E8000000 		call	bufInitialise
 3744      00
 3745              	.LEHE149:
 3746 17f7 89459C   		movl	%eax, -100(%rbp)
 3747              	.LEHB150:
 167:testHexIO.cpp **** 	CHECK_EQUAL(BUF_SUCCESS, status);
 3748              		.loc 4 167 0
 3749 17fa E8000000 		call	_ZN8UnitTest11CurrentTest7DetailsEv
 3749      00
 3750 17ff 488B08   		movq	(%rax), %rcx
 3751 1802 488D45D0 		leaq	-48(%rbp), %rax
 3752 1806 BAA70000 		movl	$167, %edx
 3752      00
 3753 180b 4889CE   		movq	%rcx, %rsi
 3754 180e 4889C7   		movq	%rax, %rdi
 3755 1811 E8000000 		call	_ZN8UnitTest11TestDetailsC1ERKS0_i
 3755      00
 3756              		.loc 4 167 0 is_stmt 0 discriminator 1
 3757 1816 C745A400 		movl	$0, -92(%rbp)
 3757      000000
 3758 181d E8000000 		call	_ZN8UnitTest11CurrentTest7ResultsEv
 3758      00
 3759 1822 488B00   		movq	(%rax), %rax
 3760 1825 488D4DD0 		leaq	-48(%rbp), %rcx
 3761 1829 488D559C 		leaq	-100(%rbp), %rdx
 3762 182d 488D75A4 		leaq	-92(%rbp), %rsi
 3763 1831 4889C7   		movq	%rax, %rdi
 3764 1834 E8000000 		call	_ZN8UnitTest10CheckEqualI12BufferStatusS1_EEvRNS_11TestResultsERKT_RKT0_RKNS_11TestDetailsE
 3764      00
 3765              	.LEHE150:
 3766              	.L188:
 168:testHexIO.cpp **** 	status = bufProcessLine(line, 0, &data, NULL, &seg, &recordType, NULL);
 3767              		.loc 4 168 0 is_stmt 1
 3768 1839 488D759B 		leaq	-101(%rbp), %rsi
 3769 183d 488D4DA0 		leaq	-96(%rbp), %rcx
 3770 1841 488D55B0 		leaq	-80(%rbp), %rdx
 3771 1845 488B45A8 		movq	-88(%rbp), %rax
 3772 1849 48C70424 		movq	$0, (%rsp)
 3772      00000000 
 3773 1851 4989F1   		movq	%rsi, %r9
 3774 1854 4989C8   		movq	%rcx, %r8
 3775 1857 B9000000 		movl	$0, %ecx
 3775      00
 3776 185c BE000000 		movl	$0, %esi
 3776      00
 3777 1861 4889C7   		movq	%rax, %rdi
 3778              	.LEHB151:
 3779 1864 E8000000 		call	bufProcessLine
 3779      00
 3780              	.LEHE151:
 3781 1869 89459C   		movl	%eax, -100(%rbp)
 3782              	.LEHB152:
 169:testHexIO.cpp **** 	CHECK_EQUAL(HEX_BAD_CHECKSUM, status);
 3783              		.loc 4 169 0
 3784 186c E8000000 		call	_ZN8UnitTest11CurrentTest7DetailsEv
 3784      00
 3785 1871 488B08   		movq	(%rax), %rcx
 3786 1874 488D45D0 		leaq	-48(%rbp), %rax
 3787 1878 BAA90000 		movl	$169, %edx
 3787      00
 3788 187d 4889CE   		movq	%rcx, %rsi
 3789 1880 4889C7   		movq	%rax, %rdi
 3790 1883 E8000000 		call	_ZN8UnitTest11TestDetailsC1ERKS0_i
 3790      00
 3791              		.loc 4 169 0 is_stmt 0 discriminator 1
 3792 1888 C745A410 		movl	$16, -92(%rbp)
 3792      000000
 3793 188f E8000000 		call	_ZN8UnitTest11CurrentTest7ResultsEv
 3793      00
 3794 1894 488B00   		movq	(%rax), %rax
 3795 1897 488D4DD0 		leaq	-48(%rbp), %rcx
 3796 189b 488D559C 		leaq	-100(%rbp), %rdx
 3797 189f 488D75A4 		leaq	-92(%rbp), %rsi
 3798 18a3 4889C7   		movq	%rax, %rdi
 3799 18a6 E8000000 		call	_ZN8UnitTest10CheckEqualI12BufferStatusS1_EEvRNS_11TestResultsERKT_RKT0_RKNS_11TestDetailsE
 3799      00
 3800              	.LEHE152:
 3801              	.L191:
 170:testHexIO.cpp **** 	bufDestroy(&data);
 3802              		.loc 4 170 0 is_stmt 1
 3803 18ab 488D45B0 		leaq	-80(%rbp), %rax
 3804 18af 4889C7   		movq	%rax, %rdi
 3805              	.LEHB153:
 3806 18b2 E8000000 		call	bufDestroy
 3806      00
 3807              	.LEHE153:
 3808 18b7 E9BA0000 		jmp	.L196
 3808      00
 3809              	.L193:
 3810 18bc 4889C3   		movq	%rax, %rbx
 167:testHexIO.cpp **** 	status = bufProcessLine(line, 0, &data, NULL, &seg, &recordType, NULL);
 3811              		.loc 4 167 0
 3812 18bf E8000000 		call	__cxa_end_catch
 3812      00
 3813 18c4 4889D8   		movq	%rbx, %rax
 3814 18c7 4889C7   		movq	%rax, %rdi
 3815              	.LEHB154:
 3816 18ca E8000000 		call	_Unwind_Resume
 3816      00
 3817              	.LEHE154:
 3818              	.L192:
 3819 18cf 4889C7   		movq	%rax, %rdi
 3820 18d2 E8000000 		call	__cxa_begin_catch
 3820      00
 3821              	.LEHB155:
 3822 18d7 E8000000 		call	_ZN8UnitTest11CurrentTest7DetailsEv
 3822      00
 3823 18dc 488B08   		movq	(%rax), %rcx
 3824 18df 488D45D0 		leaq	-48(%rbp), %rax
 3825 18e3 BAA70000 		movl	$167, %edx
 3825      00
 3826 18e8 4889CE   		movq	%rcx, %rsi
 3827 18eb 4889C7   		movq	%rax, %rdi
 3828 18ee E8000000 		call	_ZN8UnitTest11TestDetailsC1ERKS0_i
 3828      00
 167:testHexIO.cpp **** 	status = bufProcessLine(line, 0, &data, NULL, &seg, &recordType, NULL);
 3829              		.loc 4 167 0 is_stmt 0 discriminator 1
 3830 18f3 E8000000 		call	_ZN8UnitTest11CurrentTest7ResultsEv
 3830      00
 3831 18f8 488B00   		movq	(%rax), %rax
 3832 18fb 488D4DD0 		leaq	-48(%rbp), %rcx
 3833 18ff BA000000 		movl	$.LC4, %edx
 3833      00
 3834 1904 4889CE   		movq	%rcx, %rsi
 3835 1907 4889C7   		movq	%rax, %rdi
 3836 190a E8000000 		call	_ZN8UnitTest11TestResults13OnTestFailureERKNS_11TestDetailsEPKc
 3836      00
 3837              	.LEHE155:
 3838              	.LEHB156:
 3839 190f E8000000 		call	__cxa_end_catch
 3839      00
 3840              	.LEHE156:
 3841 1914 E920FFFF 		jmp	.L188
 3841      FF
 3842              	.L195:
 3843 1919 4889C3   		movq	%rax, %rbx
 169:testHexIO.cpp **** 	CHECK_EQUAL(HEX_BAD_CHECKSUM, status);
 3844              		.loc 4 169 0 is_stmt 1
 3845 191c E8000000 		call	__cxa_end_catch
 3845      00
 3846 1921 4889D8   		movq	%rbx, %rax
 3847 1924 4889C7   		movq	%rax, %rdi
 3848              	.LEHB157:
 3849 1927 E8000000 		call	_Unwind_Resume
 3849      00
 3850              	.LEHE157:
 3851              	.L194:
 3852 192c 4889C7   		movq	%rax, %rdi
 3853 192f E8000000 		call	__cxa_begin_catch
 3853      00
 3854              	.LEHB158:
 3855 1934 E8000000 		call	_ZN8UnitTest11CurrentTest7DetailsEv
 3855      00
 3856 1939 488B08   		movq	(%rax), %rcx
 3857 193c 488D45D0 		leaq	-48(%rbp), %rax
 3858 1940 BAA90000 		movl	$169, %edx
 3858      00
 3859 1945 4889CE   		movq	%rcx, %rsi
 3860 1948 4889C7   		movq	%rax, %rdi
 3861 194b E8000000 		call	_ZN8UnitTest11TestDetailsC1ERKS0_i
 3861      00
 169:testHexIO.cpp **** 	CHECK_EQUAL(HEX_BAD_CHECKSUM, status);
 3862              		.loc 4 169 0 is_stmt 0 discriminator 1
 3863 1950 E8000000 		call	_ZN8UnitTest11CurrentTest7ResultsEv
 3863      00
 3864 1955 488B00   		movq	(%rax), %rax
 3865 1958 488D4DD0 		leaq	-48(%rbp), %rcx
 3866 195c BA000000 		movl	$.LC39, %edx
 3866      00
 3867 1961 4889CE   		movq	%rcx, %rsi
 3868 1964 4889C7   		movq	%rax, %rdi
 3869 1967 E8000000 		call	_ZN8UnitTest11TestResults13OnTestFailureERKNS_11TestDetailsEPKc
 3869      00
 3870              	.LEHE158:
 3871              	.LEHB159:
 3872 196c E8000000 		call	__cxa_end_catch
 3872      00
 3873              	.LEHE159:
 3874 1971 E935FFFF 		jmp	.L191
 3874      FF
 3875              	.L196:
 3876              	.LBE24:
 171:testHexIO.cpp **** }
 3877              		.loc 4 171 0 is_stmt 1
 3878 1976 4883C478 		addq	$120, %rsp
 3879 197a 5B       		popq	%rbx
 3880 197b 5D       		popq	%rbp
 3881              		.cfi_def_cfa 7, 8
 3882 197c C3       		ret
 3883              		.cfi_endproc
 3884              	.LFE1126:
 3885              		.section	.gcc_except_table
 3886              		.align 4
 3887              	.LLSDA1126:
 3888 0368 FF       		.byte	0xff
 3889 0369 03       		.byte	0x3
 3890 036a 41       		.uleb128 .LLSDATT1126-.LLSDATTD1126
 3891              	.LLSDATTD1126:
 3892 036b 01       		.byte	0x1
 3893 036c 39       		.uleb128 .LLSDACSE1126-.LLSDACSB1126
 3894              	.LLSDACSB1126:
 3895 036d 32       		.uleb128 .LEHB149-.LFB1126
 3896 036e 05       		.uleb128 .LEHE149-.LEHB149
 3897 036f 00       		.uleb128 0
 3898 0370 00       		.uleb128 0
 3899 0371 3A       		.uleb128 .LEHB150-.LFB1126
 3900 0372 3F       		.uleb128 .LEHE150-.LEHB150
 3901 0373 8F02     		.uleb128 .L192-.LFB1126
 3902 0375 01       		.uleb128 0x1
 3903 0376 A401     		.uleb128 .LEHB151-.LFB1126
 3904 0378 05       		.uleb128 .LEHE151-.LEHB151
 3905 0379 00       		.uleb128 0
 3906 037a 00       		.uleb128 0
 3907 037b AC01     		.uleb128 .LEHB152-.LFB1126
 3908 037d 3F       		.uleb128 .LEHE152-.LEHB152
 3909 037e EC02     		.uleb128 .L194-.LFB1126
 3910 0380 01       		.uleb128 0x1
 3911 0381 F201     		.uleb128 .LEHB153-.LFB1126
 3912 0383 05       		.uleb128 .LEHE153-.LEHB153
 3913 0384 00       		.uleb128 0
 3914 0385 00       		.uleb128 0
 3915 0386 8A02     		.uleb128 .LEHB154-.LFB1126
 3916 0388 05       		.uleb128 .LEHE154-.LEHB154
 3917 0389 00       		.uleb128 0
 3918 038a 00       		.uleb128 0
 3919 038b 9702     		.uleb128 .LEHB155-.LFB1126
 3920 038d 38       		.uleb128 .LEHE155-.LEHB155
 3921 038e FC01     		.uleb128 .L193-.LFB1126
 3922 0390 00       		.uleb128 0
 3923 0391 CF02     		.uleb128 .LEHB156-.LFB1126
 3924 0393 05       		.uleb128 .LEHE156-.LEHB156
 3925 0394 00       		.uleb128 0
 3926 0395 00       		.uleb128 0
 3927 0396 E702     		.uleb128 .LEHB157-.LFB1126
 3928 0398 05       		.uleb128 .LEHE157-.LEHB157
 3929 0399 00       		.uleb128 0
 3930 039a 00       		.uleb128 0
 3931 039b F402     		.uleb128 .LEHB158-.LFB1126
 3932 039d 38       		.uleb128 .LEHE158-.LEHB158
 3933 039e D902     		.uleb128 .L195-.LFB1126
 3934 03a0 00       		.uleb128 0
 3935 03a1 AC03     		.uleb128 .LEHB159-.LFB1126
 3936 03a3 05       		.uleb128 .LEHE159-.LEHB159
 3937 03a4 00       		.uleb128 0
 3938 03a5 00       		.uleb128 0
 3939              	.LLSDACSE1126:
 3940 03a6 01       		.byte	0x1
 3941 03a7 00       		.byte	0
 3942              		.align 4
 3943 03a8 00000000 		.long	0
 3944              	
 3945              	.LLSDATT1126:
 3946              		.text
 3948              		.section	.rodata
 3949              	.LC40:
 3950 0645 48657849 		.string	"HexIO_testCorruptLine"
 3950      4F5F7465 
 3950      7374436F 
 3950      72727570 
 3950      744C696E 
 3951              		.section	.text._ZN25TestHexIO_testCorruptLineC2Ev,"axG",@progbits,_ZN25TestHexIO_testCorruptLineC5
 3952              		.align 2
 3953              		.weak	_ZN25TestHexIO_testCorruptLineC2Ev
 3955              	_ZN25TestHexIO_testCorruptLineC2Ev:
 3956              	.LFB1128:
 172:testHexIO.cpp **** 
 173:testHexIO.cpp **** TEST(HexIO_testCorruptLine) {
 3957              		.loc 4 173 0
 3958              		.cfi_startproc
 3959 0000 55       		pushq	%rbp
 3960              		.cfi_def_cfa_offset 16
 3961              		.cfi_offset 6, -16
 3962 0001 4889E5   		movq	%rsp, %rbp
 3963              		.cfi_def_cfa_register 6
 3964 0004 4883EC10 		subq	$16, %rsp
 3965 0008 48897DF8 		movq	%rdi, -8(%rbp)
 3966              	.LBB25:
 3967              		.loc 4 173 0
 3968 000c E8000000 		call	_ZN13UnitTestSuite12GetSuiteNameEv
 3968      00
 3969 0011 4889C2   		movq	%rax, %rdx
 3970 0014 488B45F8 		movq	-8(%rbp), %rax
 3971 0018 41B8AD00 		movl	$173, %r8d
 3971      0000
 3972 001e B9000000 		movl	$.LC1, %ecx
 3972      00
 3973 0023 BE000000 		movl	$.LC40, %esi
 3973      00
 3974 0028 4889C7   		movq	%rax, %rdi
 3975 002b E8000000 		call	_ZN8UnitTest4TestC2EPKcS2_S2_i
 3975      00
 3976 0030 488B45F8 		movq	-8(%rbp), %rax
 3977 0034 48C70000 		movq	$_ZTV25TestHexIO_testCorruptLine+16, (%rax)
 3977      000000
 3978              	.LBE25:
 3979 003b C9       		leave
 3980              		.cfi_def_cfa 7, 8
 3981 003c C3       		ret
 3982              		.cfi_endproc
 3983              	.LFE1128:
 3985              		.weak	_ZN25TestHexIO_testCorruptLineC1Ev
 3986              		.set	_ZN25TestHexIO_testCorruptLineC1Ev,_ZN25TestHexIO_testCorruptLineC2Ev
 3987              		.globl	testHexIO_testCorruptLineInstance
 3988              		.bss
 3989 0279 00000000 		.align 32
 3989      000000
 3992              	testHexIO_testCorruptLineInstance:
 3993 0280 00000000 		.zero	56
 3993      00000000 
 3993      00000000 
 3993      00000000 
 3993      00000000 
 3994              		.globl	adderHexIO_testCorruptLine
 3997              	adderHexIO_testCorruptLine:
 3998 02b8 00       		.zero	1
 3999              		.section	.rodata
 4000              	.LC41:
 4001 065b 3A303430 		.string	":040BE10075820022F7 \n"
 4001      42453130 
 4001      30373538 
 4001      32303032 
 4001      32463720 
 4002 0671 00000000 		.align 8
 4002      000000
 4003              	.LC42:
 4004 0678 556E6861 		.string	"Unhandled exception in CHECK_EQUAL(HEX_CORRUPT_LINE, status)"
 4004      6E646C65 
 4004      64206578 
 4004      63657074 
 4004      696F6E20 
 4005              		.text
 4006 197d 90       		.align 2
 4007              		.globl	_ZNK25TestHexIO_testCorruptLine7RunImplEv
 4009              	_ZNK25TestHexIO_testCorruptLine7RunImplEv:
 4010              	.LFB1130:
 4011              		.loc 4 173 0
 4012              		.cfi_startproc
 4013              		.cfi_personality 0x3,__gxx_personality_v0
 4014              		.cfi_lsda 0x3,.LLSDA1130
 4015 197e 55       		pushq	%rbp
 4016              		.cfi_def_cfa_offset 16
 4017              		.cfi_offset 6, -16
 4018 197f 4889E5   		movq	%rsp, %rbp
 4019              		.cfi_def_cfa_register 6
 4020 1982 53       		pushq	%rbx
 4021 1983 4883EC78 		subq	$120, %rsp
 4022              		.cfi_offset 3, -24
 4023 1987 48897D88 		movq	%rdi, -120(%rbp)
 4024              	.LBB26:
 174:testHexIO.cpp **** 	Buffer data;
 175:testHexIO.cpp **** 	BufferStatus status;
 176:testHexIO.cpp **** 	const char *line = ":040BE10075820022F7 \n";
 4025              		.loc 4 176 0
 4026 198b 48C745A8 		movq	$.LC41, -88(%rbp)
 4026      00000000 
 177:testHexIO.cpp **** 	uint8 recordType;
 178:testHexIO.cpp **** 	uint32 seg = 0x00000000;
 4027              		.loc 4 178 0
 4028 1993 C745A000 		movl	$0, -96(%rbp)
 4028      000000
 179:testHexIO.cpp **** 	status = bufInitialise(&data, 1024, 0x00, NULL);
 4029              		.loc 4 179 0
 4030 199a 488D45B0 		leaq	-80(%rbp), %rax
 4031 199e B9000000 		movl	$0, %ecx
 4031      00
 4032 19a3 BA000000 		movl	$0, %edx
 4032      00
 4033 19a8 BE000400 		movl	$1024, %esi
 4033      00
 4034 19ad 4889C7   		movq	%rax, %rdi
 4035              	.LEHB160:
 4036 19b0 E8000000 		call	bufInitialise
 4036      00
 4037              	.LEHE160:
 4038 19b5 89459C   		movl	%eax, -100(%rbp)
 4039              	.LEHB161:
 180:testHexIO.cpp **** 	CHECK_EQUAL(BUF_SUCCESS, status);
 4040              		.loc 4 180 0
 4041 19b8 E8000000 		call	_ZN8UnitTest11CurrentTest7DetailsEv
 4041      00
 4042 19bd 488B08   		movq	(%rax), %rcx
 4043 19c0 488D45D0 		leaq	-48(%rbp), %rax
 4044 19c4 BAB40000 		movl	$180, %edx
 4044      00
 4045 19c9 4889CE   		movq	%rcx, %rsi
 4046 19cc 4889C7   		movq	%rax, %rdi
 4047 19cf E8000000 		call	_ZN8UnitTest11TestDetailsC1ERKS0_i
 4047      00
 4048              		.loc 4 180 0 is_stmt 0 discriminator 1
 4049 19d4 C745A400 		movl	$0, -92(%rbp)
 4049      000000
 4050 19db E8000000 		call	_ZN8UnitTest11CurrentTest7ResultsEv
 4050      00
 4051 19e0 488B00   		movq	(%rax), %rax
 4052 19e3 488D4DD0 		leaq	-48(%rbp), %rcx
 4053 19e7 488D559C 		leaq	-100(%rbp), %rdx
 4054 19eb 488D75A4 		leaq	-92(%rbp), %rsi
 4055 19ef 4889C7   		movq	%rax, %rdi
 4056 19f2 E8000000 		call	_ZN8UnitTest10CheckEqualI12BufferStatusS1_EEvRNS_11TestResultsERKT_RKT0_RKNS_11TestDetailsE
 4056      00
 4057              	.LEHE161:
 4058              	.L201:
 181:testHexIO.cpp **** 	status = bufProcessLine(line, 0, &data, NULL, &seg, &recordType, NULL);
 4059              		.loc 4 181 0 is_stmt 1
 4060 19f7 488D759B 		leaq	-101(%rbp), %rsi
 4061 19fb 488D4DA0 		leaq	-96(%rbp), %rcx
 4062 19ff 488D55B0 		leaq	-80(%rbp), %rdx
 4063 1a03 488B45A8 		movq	-88(%rbp), %rax
 4064 1a07 48C70424 		movq	$0, (%rsp)
 4064      00000000 
 4065 1a0f 4989F1   		movq	%rsi, %r9
 4066 1a12 4989C8   		movq	%rcx, %r8
 4067 1a15 B9000000 		movl	$0, %ecx
 4067      00
 4068 1a1a BE000000 		movl	$0, %esi
 4068      00
 4069 1a1f 4889C7   		movq	%rax, %rdi
 4070              	.LEHB162:
 4071 1a22 E8000000 		call	bufProcessLine
 4071      00
 4072              	.LEHE162:
 4073 1a27 89459C   		movl	%eax, -100(%rbp)
 4074              	.LEHB163:
 182:testHexIO.cpp **** 	CHECK_EQUAL(HEX_CORRUPT_LINE, status);
 4075              		.loc 4 182 0
 4076 1a2a E8000000 		call	_ZN8UnitTest11CurrentTest7DetailsEv
 4076      00
 4077 1a2f 488B08   		movq	(%rax), %rcx
 4078 1a32 488D45D0 		leaq	-48(%rbp), %rax
 4079 1a36 BAB60000 		movl	$182, %edx
 4079      00
 4080 1a3b 4889CE   		movq	%rcx, %rsi
 4081 1a3e 4889C7   		movq	%rax, %rdi
 4082 1a41 E8000000 		call	_ZN8UnitTest11TestDetailsC1ERKS0_i
 4082      00
 4083              		.loc 4 182 0 is_stmt 0 discriminator 1
 4084 1a46 C745A411 		movl	$17, -92(%rbp)
 4084      000000
 4085 1a4d E8000000 		call	_ZN8UnitTest11CurrentTest7ResultsEv
 4085      00
 4086 1a52 488B00   		movq	(%rax), %rax
 4087 1a55 488D4DD0 		leaq	-48(%rbp), %rcx
 4088 1a59 488D559C 		leaq	-100(%rbp), %rdx
 4089 1a5d 488D75A4 		leaq	-92(%rbp), %rsi
 4090 1a61 4889C7   		movq	%rax, %rdi
 4091 1a64 E8000000 		call	_ZN8UnitTest10CheckEqualI12BufferStatusS1_EEvRNS_11TestResultsERKT_RKT0_RKNS_11TestDetailsE
 4091      00
 4092              	.LEHE163:
 4093              	.L204:
 183:testHexIO.cpp **** 	bufDestroy(&data);
 4094              		.loc 4 183 0 is_stmt 1
 4095 1a69 488D45B0 		leaq	-80(%rbp), %rax
 4096 1a6d 4889C7   		movq	%rax, %rdi
 4097              	.LEHB164:
 4098 1a70 E8000000 		call	bufDestroy
 4098      00
 4099              	.LEHE164:
 4100 1a75 E9BA0000 		jmp	.L209
 4100      00
 4101              	.L206:
 4102 1a7a 4889C3   		movq	%rax, %rbx
 180:testHexIO.cpp **** 	status = bufProcessLine(line, 0, &data, NULL, &seg, &recordType, NULL);
 4103              		.loc 4 180 0
 4104 1a7d E8000000 		call	__cxa_end_catch
 4104      00
 4105 1a82 4889D8   		movq	%rbx, %rax
 4106 1a85 4889C7   		movq	%rax, %rdi
 4107              	.LEHB165:
 4108 1a88 E8000000 		call	_Unwind_Resume
 4108      00
 4109              	.LEHE165:
 4110              	.L205:
 4111 1a8d 4889C7   		movq	%rax, %rdi
 4112 1a90 E8000000 		call	__cxa_begin_catch
 4112      00
 4113              	.LEHB166:
 4114 1a95 E8000000 		call	_ZN8UnitTest11CurrentTest7DetailsEv
 4114      00
 4115 1a9a 488B08   		movq	(%rax), %rcx
 4116 1a9d 488D45D0 		leaq	-48(%rbp), %rax
 4117 1aa1 BAB40000 		movl	$180, %edx
 4117      00
 4118 1aa6 4889CE   		movq	%rcx, %rsi
 4119 1aa9 4889C7   		movq	%rax, %rdi
 4120 1aac E8000000 		call	_ZN8UnitTest11TestDetailsC1ERKS0_i
 4120      00
 180:testHexIO.cpp **** 	status = bufProcessLine(line, 0, &data, NULL, &seg, &recordType, NULL);
 4121              		.loc 4 180 0 is_stmt 0 discriminator 1
 4122 1ab1 E8000000 		call	_ZN8UnitTest11CurrentTest7ResultsEv
 4122      00
 4123 1ab6 488B00   		movq	(%rax), %rax
 4124 1ab9 488D4DD0 		leaq	-48(%rbp), %rcx
 4125 1abd BA000000 		movl	$.LC4, %edx
 4125      00
 4126 1ac2 4889CE   		movq	%rcx, %rsi
 4127 1ac5 4889C7   		movq	%rax, %rdi
 4128 1ac8 E8000000 		call	_ZN8UnitTest11TestResults13OnTestFailureERKNS_11TestDetailsEPKc
 4128      00
 4129              	.LEHE166:
 4130              	.LEHB167:
 4131 1acd E8000000 		call	__cxa_end_catch
 4131      00
 4132              	.LEHE167:
 4133 1ad2 E920FFFF 		jmp	.L201
 4133      FF
 4134              	.L208:
 4135 1ad7 4889C3   		movq	%rax, %rbx
 182:testHexIO.cpp **** 	CHECK_EQUAL(HEX_CORRUPT_LINE, status);
 4136              		.loc 4 182 0 is_stmt 1
 4137 1ada E8000000 		call	__cxa_end_catch
 4137      00
 4138 1adf 4889D8   		movq	%rbx, %rax
 4139 1ae2 4889C7   		movq	%rax, %rdi
 4140              	.LEHB168:
 4141 1ae5 E8000000 		call	_Unwind_Resume
 4141      00
 4142              	.LEHE168:
 4143              	.L207:
 4144 1aea 4889C7   		movq	%rax, %rdi
 4145 1aed E8000000 		call	__cxa_begin_catch
 4145      00
 4146              	.LEHB169:
 4147 1af2 E8000000 		call	_ZN8UnitTest11CurrentTest7DetailsEv
 4147      00
 4148 1af7 488B08   		movq	(%rax), %rcx
 4149 1afa 488D45D0 		leaq	-48(%rbp), %rax
 4150 1afe BAB60000 		movl	$182, %edx
 4150      00
 4151 1b03 4889CE   		movq	%rcx, %rsi
 4152 1b06 4889C7   		movq	%rax, %rdi
 4153 1b09 E8000000 		call	_ZN8UnitTest11TestDetailsC1ERKS0_i
 4153      00
 182:testHexIO.cpp **** 	CHECK_EQUAL(HEX_CORRUPT_LINE, status);
 4154              		.loc 4 182 0 is_stmt 0 discriminator 1
 4155 1b0e E8000000 		call	_ZN8UnitTest11CurrentTest7ResultsEv
 4155      00
 4156 1b13 488B00   		movq	(%rax), %rax
 4157 1b16 488D4DD0 		leaq	-48(%rbp), %rcx
 4158 1b1a BA000000 		movl	$.LC42, %edx
 4158      00
 4159 1b1f 4889CE   		movq	%rcx, %rsi
 4160 1b22 4889C7   		movq	%rax, %rdi
 4161 1b25 E8000000 		call	_ZN8UnitTest11TestResults13OnTestFailureERKNS_11TestDetailsEPKc
 4161      00
 4162              	.LEHE169:
 4163              	.LEHB170:
 4164 1b2a E8000000 		call	__cxa_end_catch
 4164      00
 4165              	.LEHE170:
 4166 1b2f E935FFFF 		jmp	.L204
 4166      FF
 4167              	.L209:
 4168              	.LBE26:
 184:testHexIO.cpp **** }
 4169              		.loc 4 184 0 is_stmt 1
 4170 1b34 4883C478 		addq	$120, %rsp
 4171 1b38 5B       		popq	%rbx
 4172 1b39 5D       		popq	%rbp
 4173              		.cfi_def_cfa 7, 8
 4174 1b3a C3       		ret
 4175              		.cfi_endproc
 4176              	.LFE1130:
 4177              		.section	.gcc_except_table
 4178              		.align 4
 4179              	.LLSDA1130:
 4180 03ac FF       		.byte	0xff
 4181 03ad 03       		.byte	0x3
 4182 03ae 41       		.uleb128 .LLSDATT1130-.LLSDATTD1130
 4183              	.LLSDATTD1130:
 4184 03af 01       		.byte	0x1
 4185 03b0 39       		.uleb128 .LLSDACSE1130-.LLSDACSB1130
 4186              	.LLSDACSB1130:
 4187 03b1 32       		.uleb128 .LEHB160-.LFB1130
 4188 03b2 05       		.uleb128 .LEHE160-.LEHB160
 4189 03b3 00       		.uleb128 0
 4190 03b4 00       		.uleb128 0
 4191 03b5 3A       		.uleb128 .LEHB161-.LFB1130
 4192 03b6 3F       		.uleb128 .LEHE161-.LEHB161
 4193 03b7 8F02     		.uleb128 .L205-.LFB1130
 4194 03b9 01       		.uleb128 0x1
 4195 03ba A401     		.uleb128 .LEHB162-.LFB1130
 4196 03bc 05       		.uleb128 .LEHE162-.LEHB162
 4197 03bd 00       		.uleb128 0
 4198 03be 00       		.uleb128 0
 4199 03bf AC01     		.uleb128 .LEHB163-.LFB1130
 4200 03c1 3F       		.uleb128 .LEHE163-.LEHB163
 4201 03c2 EC02     		.uleb128 .L207-.LFB1130
 4202 03c4 01       		.uleb128 0x1
 4203 03c5 F201     		.uleb128 .LEHB164-.LFB1130
 4204 03c7 05       		.uleb128 .LEHE164-.LEHB164
 4205 03c8 00       		.uleb128 0
 4206 03c9 00       		.uleb128 0
 4207 03ca 8A02     		.uleb128 .LEHB165-.LFB1130
 4208 03cc 05       		.uleb128 .LEHE165-.LEHB165
 4209 03cd 00       		.uleb128 0
 4210 03ce 00       		.uleb128 0
 4211 03cf 9702     		.uleb128 .LEHB166-.LFB1130
 4212 03d1 38       		.uleb128 .LEHE166-.LEHB166
 4213 03d2 FC01     		.uleb128 .L206-.LFB1130
 4214 03d4 00       		.uleb128 0
 4215 03d5 CF02     		.uleb128 .LEHB167-.LFB1130
 4216 03d7 05       		.uleb128 .LEHE167-.LEHB167
 4217 03d8 00       		.uleb128 0
 4218 03d9 00       		.uleb128 0
 4219 03da E702     		.uleb128 .LEHB168-.LFB1130
 4220 03dc 05       		.uleb128 .LEHE168-.LEHB168
 4221 03dd 00       		.uleb128 0
 4222 03de 00       		.uleb128 0
 4223 03df F402     		.uleb128 .LEHB169-.LFB1130
 4224 03e1 38       		.uleb128 .LEHE169-.LEHB169
 4225 03e2 D902     		.uleb128 .L208-.LFB1130
 4226 03e4 00       		.uleb128 0
 4227 03e5 AC03     		.uleb128 .LEHB170-.LFB1130
 4228 03e7 05       		.uleb128 .LEHE170-.LEHB170
 4229 03e8 00       		.uleb128 0
 4230 03e9 00       		.uleb128 0
 4231              	.LLSDACSE1130:
 4232 03ea 01       		.byte	0x1
 4233 03eb 00       		.byte	0
 4234              		.align 4
 4235 03ec 00000000 		.long	0
 4236              	
 4237              	.LLSDATT1130:
 4238              		.text
 4240              		.section	.rodata
 4241              	.LC43:
 4242 06b5 746D7046 		.string	"tmpFile.hex"
 4242      696C652E 
 4242      68657800 
 4243              	.LC44:
 4244 06c1 66696C65 		.string	"file.is_open()"
 4244      2E69735F 
 4244      6F70656E 
 4244      282900
 4245              		.align 8
 4246              	.LC45:
 4247 06d0 556E6861 		.string	"Unhandled exception in CHECK(file.is_open())"
 4247      6E646C65 
 4247      64206578 
 4247      63657074 
 4247      696F6E20 
 4248 06fd 000000   		.align 8
 4249              	.LC46:
 4250 0700 556E6861 		.string	"Unhandled exception in CHECK_EQUAL(expected.size(), (unsigned int)length)"
 4250      6E646C65 
 4250      64206578 
 4250      63657074 
 4250      696F6E20 
 4251 074a 00000000 		.align 8
 4251      0000
 4252              	.LC47:
 4253 0750 556E6861 		.string	"Unhandled exception in CHECK_ARRAY_EQUAL(expected.c_str(), (const char *)fileData)"
 4253      6E646C65 
 4253      64206578 
 4253      63657074 
 4253      696F6E20 
 4254 07a3 00000000 		.align 8
 4254      00
 4255              	.LC48:
 4256 07a8 556E6861 		.string	"Unhandled exception in CHECK_EQUAL(data.length, readbackData.length)"
 4256      6E646C65 
 4256      64206578 
 4256      63657074 
 4256      696F6E20 
 4257 07ed 000000   		.align 8
 4258              	.LC49:
 4259 07f0 556E6861 		.string	"Unhandled exception in CHECK_ARRAY_EQUAL(data.data, readbackData.data)"
 4259      6E646C65 
 4259      64206578 
 4259      63657074 
 4259      696F6E20 
 4260 0837 00       		.align 8
 4261              	.LC50:
 4262 0838 556E6861 		.string	"Unhandled exception in CHECK_EQUAL(mask.length, readbackMask.length)"
 4262      6E646C65 
 4262      64206578 
 4262      63657074 
 4262      696F6E20 
 4263 087d 000000   		.align 8
 4264              	.LC51:
 4265 0880 556E6861 		.string	"Unhandled exception in CHECK_ARRAY_EQUAL(mask.data, readbackMask.data)"
 4265      6E646C65 
 4265      64206578 
 4265      63657074 
 4265      696F6E20 
 4266              		.text
 4267              		.globl	_Z13testRoundTripPKcz
 4269              	_Z13testRoundTripPKcz:
 4270              	.LFB1131:
 185:testHexIO.cpp **** 
 186:testHexIO.cpp **** void testRoundTrip(const char *firstLine, ...) {
 4271              		.loc 4 186 0
 4272              		.cfi_startproc
 4273              		.cfi_personality 0x3,__gxx_personality_v0
 4274              		.cfi_lsda 0x3,.LLSDA1131
 4275 1b3b 55       		pushq	%rbp
 4276              		.cfi_def_cfa_offset 16
 4277              		.cfi_offset 6, -16
 4278 1b3c 4889E5   		movq	%rsp, %rbp
 4279              		.cfi_def_cfa_register 6
 4280 1b3f 53       		pushq	%rbx
 4281 1b40 4881ECD8 		subq	$984, %rsp
 4281      030000
 4282              		.cfi_offset 3, -24
 4283 1b47 4889B548 		movq	%rsi, -184(%rbp)
 4283      FFFFFF
 4284 1b4e 48899550 		movq	%rdx, -176(%rbp)
 4284      FFFFFF
 4285 1b55 48898D58 		movq	%rcx, -168(%rbp)
 4285      FFFFFF
 4286 1b5c 4C898560 		movq	%r8, -160(%rbp)
 4286      FFFFFF
 4287 1b63 4C898D68 		movq	%r9, -152(%rbp)
 4287      FFFFFF
 4288 1b6a 84C0     		testb	%al, %al
 4289 1b6c 7423     		je	.L211
 4290              		.loc 4 186 0
 4291 1b6e 0F298570 		movaps	%xmm0, -144(%rbp)
 4291      FFFFFF
 4292 1b75 0F294D80 		movaps	%xmm1, -128(%rbp)
 4293 1b79 0F295590 		movaps	%xmm2, -112(%rbp)
 4294 1b7d 0F295DA0 		movaps	%xmm3, -96(%rbp)
 4295 1b81 0F2965B0 		movaps	%xmm4, -80(%rbp)
 4296 1b85 0F296DC0 		movaps	%xmm5, -64(%rbp)
 4297 1b89 0F2975D0 		movaps	%xmm6, -48(%rbp)
 4298 1b8d 0F297DE0 		movaps	%xmm7, -32(%rbp)
 4299              	.L211:
 4300 1b91 4889BD28 		movq	%rdi, -984(%rbp)
 4300      FCFFFF
 4301 1b98 64488B04 		movq	%fs:40, %rax
 4301      25280000 
 4301      00
 4302 1ba1 48898538 		movq	%rax, -200(%rbp)
 4302      FFFFFF
 4303 1ba8 31C0     		xorl	%eax, %eax
 4304              	.LBB27:
 187:testHexIO.cpp **** 	const char *const FILENAME = "tmpFile.hex";
 4305              		.loc 4 187 0
 4306 1baa 48C78550 		movq	$.LC43, -944(%rbp)
 4306      FCFFFF00 
 4306      000000
 188:testHexIO.cpp **** 	Buffer data, mask, readbackData, readbackMask;
 189:testHexIO.cpp **** 	BufferStatus status;
 190:testHexIO.cpp **** 	va_list vl;
 191:testHexIO.cpp **** 	const char *line;
 192:testHexIO.cpp **** 	string expected;
 4307              		.loc 4 192 0
 4308 1bb5 488D8540 		leaq	-960(%rbp), %rax
 4308      FCFFFF
 4309 1bbc 4889C7   		movq	%rax, %rdi
 4310              	.LEHB171:
 4311 1bbf E8000000 		call	_ZNSsC1Ev
 4311      00
 4312              	.LEHE171:
 193:testHexIO.cpp **** 	uint8 recordType;
 194:testHexIO.cpp **** 	uint32 seg = 0x00000000;
 4313              		.loc 4 194 0
 4314 1bc4 C78538FC 		movl	$0, -968(%rbp)
 4314      FFFF0000 
 4314      0000
 195:testHexIO.cpp **** 	status = bufInitialise(&data, 1024, 0x00, NULL);
 4315              		.loc 4 195 0
 4316 1bce 488D8580 		leaq	-896(%rbp), %rax
 4316      FCFFFF
 4317 1bd5 B9000000 		movl	$0, %ecx
 4317      00
 4318 1bda BA000000 		movl	$0, %edx
 4318      00
 4319 1bdf BE000400 		movl	$1024, %esi
 4319      00
 4320 1be4 4889C7   		movq	%rax, %rdi
 4321              	.LEHB172:
 4322 1be7 E8000000 		call	bufInitialise
 4322      00
 4323              	.LEHE172:
 4324 1bec 898534FC 		movl	%eax, -972(%rbp)
 4324      FFFF
 4325              	.LEHB173:
 196:testHexIO.cpp **** 	CHECK_EQUAL(BUF_SUCCESS, status);
 4326              		.loc 4 196 0
 4327 1bf2 E8000000 		call	_ZN8UnitTest11CurrentTest7DetailsEv
 4327      00
 4328              		.loc 4 196 0 is_stmt 0 discriminator 1
 4329 1bf7 488B08   		movq	(%rax), %rcx
 4330 1bfa 488D8500 		leaq	-768(%rbp), %rax
 4330      FDFFFF
 4331 1c01 BAC40000 		movl	$196, %edx
 4331      00
 4332 1c06 4889CE   		movq	%rcx, %rsi
 4333 1c09 4889C7   		movq	%rax, %rdi
 4334 1c0c E8000000 		call	_ZN8UnitTest11TestDetailsC1ERKS0_i
 4334      00
 4335 1c11 C785E0FC 		movl	$0, -800(%rbp)
 4335      FFFF0000 
 4335      0000
 4336 1c1b E8000000 		call	_ZN8UnitTest11CurrentTest7ResultsEv
 4336      00
 4337 1c20 488B00   		movq	(%rax), %rax
 4338 1c23 488D8D00 		leaq	-768(%rbp), %rcx
 4338      FDFFFF
 4339 1c2a 488D9534 		leaq	-972(%rbp), %rdx
 4339      FCFFFF
 4340 1c31 488DB5E0 		leaq	-800(%rbp), %rsi
 4340      FCFFFF
 4341 1c38 4889C7   		movq	%rax, %rdi
 4342 1c3b E8000000 		call	_ZN8UnitTest10CheckEqualI12BufferStatusS1_EEvRNS_11TestResultsERKT_RKT0_RKNS_11TestDetailsE
 4342      00
 4343              	.LEHE173:
 4344              	.L219:
 197:testHexIO.cpp **** 	status = bufInitialise(&mask, 1024, 0x00, NULL);
 4345              		.loc 4 197 0 is_stmt 1
 4346 1c40 488D85A0 		leaq	-864(%rbp), %rax
 4346      FCFFFF
 4347 1c47 B9000000 		movl	$0, %ecx
 4347      00
 4348 1c4c BA000000 		movl	$0, %edx
 4348      00
 4349 1c51 BE000400 		movl	$1024, %esi
 4349      00
 4350 1c56 4889C7   		movq	%rax, %rdi
 4351              	.LEHB174:
 4352 1c59 E8000000 		call	bufInitialise
 4352      00
 4353              	.LEHE174:
 4354 1c5e 898534FC 		movl	%eax, -972(%rbp)
 4354      FFFF
 4355              	.LEHB175:
 198:testHexIO.cpp **** 	CHECK_EQUAL(BUF_SUCCESS, status);
 4356              		.loc 4 198 0
 4357 1c64 E8000000 		call	_ZN8UnitTest11CurrentTest7DetailsEv
 4357      00
 4358              		.loc 4 198 0 is_stmt 0 discriminator 1
 4359 1c69 488B08   		movq	(%rax), %rcx
 4360 1c6c 488D8500 		leaq	-768(%rbp), %rax
 4360      FDFFFF
 4361 1c73 BAC60000 		movl	$198, %edx
 4361      00
 4362 1c78 4889CE   		movq	%rcx, %rsi
 4363 1c7b 4889C7   		movq	%rax, %rdi
 4364 1c7e E8000000 		call	_ZN8UnitTest11TestDetailsC1ERKS0_i
 4364      00
 4365 1c83 C785E0FC 		movl	$0, -800(%rbp)
 4365      FFFF0000 
 4365      0000
 4366 1c8d E8000000 		call	_ZN8UnitTest11CurrentTest7ResultsEv
 4366      00
 4367 1c92 488B00   		movq	(%rax), %rax
 4368 1c95 488D8D00 		leaq	-768(%rbp), %rcx
 4368      FDFFFF
 4369 1c9c 488D9534 		leaq	-972(%rbp), %rdx
 4369      FCFFFF
 4370 1ca3 488DB5E0 		leaq	-800(%rbp), %rsi
 4370      FCFFFF
 4371 1caa 4889C7   		movq	%rax, %rdi
 4372 1cad E8000000 		call	_ZN8UnitTest10CheckEqualI12BufferStatusS1_EEvRNS_11TestResultsERKT_RKT0_RKNS_11TestDetailsE
 4372      00
 4373              	.LEHE175:
 4374              	.L222:
 199:testHexIO.cpp **** 	va_start(vl, firstLine);
 4375              		.loc 4 199 0 is_stmt 1
 4376 1cb2 C78568FC 		movl	$8, -920(%rbp)
 4376      FFFF0800 
 4376      0000
 4377 1cbc C7856CFC 		movl	$48, -916(%rbp)
 4377      FFFF3000 
 4377      0000
 4378 1cc6 488D4510 		leaq	16(%rbp), %rax
 4379 1cca 48898570 		movq	%rax, -912(%rbp)
 4379      FCFFFF
 4380 1cd1 488D8540 		leaq	-192(%rbp), %rax
 4380      FFFFFF
 4381 1cd8 48898578 		movq	%rax, -904(%rbp)
 4381      FCFFFF
 200:testHexIO.cpp **** 	line = firstLine;
 4382              		.loc 4 200 0
 4383 1cdf 488B8528 		movq	-984(%rbp), %rax
 4383      FCFFFF
 4384 1ce6 48898548 		movq	%rax, -952(%rbp)
 4384      FCFFFF
 4385              	.L214:
 201:testHexIO.cpp **** 	do {
 202:testHexIO.cpp **** 		status = bufProcessLine(line, 0, &data, &mask, &seg, &recordType, NULL);
 4386              		.loc 4 202 0
 4387 1ced 488DBD33 		leaq	-973(%rbp), %rdi
 4387      FCFFFF
 4388 1cf4 488DB538 		leaq	-968(%rbp), %rsi
 4388      FCFFFF
 4389 1cfb 488D8DA0 		leaq	-864(%rbp), %rcx
 4389      FCFFFF
 4390 1d02 488D9580 		leaq	-896(%rbp), %rdx
 4390      FCFFFF
 4391 1d09 488B8548 		movq	-952(%rbp), %rax
 4391      FCFFFF
 4392 1d10 48C70424 		movq	$0, (%rsp)
 4392      00000000 
 4393 1d18 4989F9   		movq	%rdi, %r9
 4394 1d1b 4989F0   		movq	%rsi, %r8
 4395 1d1e BE000000 		movl	$0, %esi
 4395      00
 4396 1d23 4889C7   		movq	%rax, %rdi
 4397              	.LEHB176:
 4398 1d26 E8000000 		call	bufProcessLine
 4398      00
 4399              	.LEHE176:
 4400 1d2b 898534FC 		movl	%eax, -972(%rbp)
 4400      FFFF
 4401              	.LEHB177:
 203:testHexIO.cpp **** 		CHECK_EQUAL(BUF_SUCCESS, status);
 4402              		.loc 4 203 0
 4403 1d31 E8000000 		call	_ZN8UnitTest11CurrentTest7DetailsEv
 4403      00
 4404              		.loc 4 203 0 is_stmt 0 discriminator 1
 4405 1d36 488B08   		movq	(%rax), %rcx
 4406 1d39 488D8500 		leaq	-768(%rbp), %rax
 4406      FDFFFF
 4407 1d40 BACB0000 		movl	$203, %edx
 4407      00
 4408 1d45 4889CE   		movq	%rcx, %rsi
 4409 1d48 4889C7   		movq	%rax, %rdi
 4410 1d4b E8000000 		call	_ZN8UnitTest11TestDetailsC1ERKS0_i
 4410      00
 4411 1d50 C785E0FC 		movl	$0, -800(%rbp)
 4411      FFFF0000 
 4411      0000
 4412 1d5a E8000000 		call	_ZN8UnitTest11CurrentTest7ResultsEv
 4412      00
 4413 1d5f 488B00   		movq	(%rax), %rax
 4414 1d62 488D8D00 		leaq	-768(%rbp), %rcx
 4414      FDFFFF
 4415 1d69 488D9534 		leaq	-972(%rbp), %rdx
 4415      FCFFFF
 4416 1d70 488DB5E0 		leaq	-800(%rbp), %rsi
 4416      FCFFFF
 4417 1d77 4889C7   		movq	%rax, %rdi
 4418 1d7a E8000000 		call	_ZN8UnitTest10CheckEqualI12BufferStatusS1_EEvRNS_11TestResultsERKT_RKT0_RKNS_11TestDetailsE
 4418      00
 4419              	.LEHE177:
 4420              	.L225:
 204:testHexIO.cpp **** 		expected += line;
 4421              		.loc 4 204 0 is_stmt 1
 4422 1d7f 488B9548 		movq	-952(%rbp), %rdx
 4422      FCFFFF
 4423 1d86 488D8540 		leaq	-960(%rbp), %rax
 4423      FCFFFF
 4424 1d8d 4889D6   		movq	%rdx, %rsi
 4425 1d90 4889C7   		movq	%rax, %rdi
 4426              	.LEHB178:
 4427 1d93 E8000000 		call	_ZNSspLEPKc
 4427      00
 205:testHexIO.cpp **** 		expected += '\n';
 4428              		.loc 4 205 0
 4429 1d98 488D8540 		leaq	-960(%rbp), %rax
 4429      FCFFFF
 4430 1d9f BE0A0000 		movl	$10, %esi
 4430      00
 4431 1da4 4889C7   		movq	%rax, %rdi
 4432 1da7 E8000000 		call	_ZNSspLEc
 4432      00
 206:testHexIO.cpp **** 		line = va_arg(vl, const char *);
 4433              		.loc 4 206 0
 4434 1dac 8B8568FC 		movl	-920(%rbp), %eax
 4434      FFFF
 4435 1db2 83F830   		cmpl	$48, %eax
 4436 1db5 7323     		jnb	.L212
 4437              		.loc 4 206 0 is_stmt 0 discriminator 2
 4438 1db7 488B9578 		movq	-904(%rbp), %rdx
 4438      FCFFFF
 4439 1dbe 8B8568FC 		movl	-920(%rbp), %eax
 4439      FFFF
 4440 1dc4 89C0     		movl	%eax, %eax
 4441 1dc6 4801D0   		addq	%rdx, %rax
 4442 1dc9 8B9568FC 		movl	-920(%rbp), %edx
 4442      FFFF
 4443 1dcf 83C208   		addl	$8, %edx
 4444 1dd2 899568FC 		movl	%edx, -920(%rbp)
 4444      FFFF
 4445 1dd8 EB15     		jmp	.L213
 4446              	.L212:
 4447              		.loc 4 206 0 discriminator 1
 4448 1dda 488B9570 		movq	-912(%rbp), %rdx
 4448      FCFFFF
 4449 1de1 4889D0   		movq	%rdx, %rax
 4450 1de4 4883C208 		addq	$8, %rdx
 4451 1de8 48899570 		movq	%rdx, -912(%rbp)
 4451      FCFFFF
 4452              	.L213:
 4453 1def 488B00   		movq	(%rax), %rax
 4454 1df2 48898548 		movq	%rax, -952(%rbp)
 4454      FCFFFF
 201:testHexIO.cpp **** 		status = bufProcessLine(line, 0, &data, &mask, &seg, &recordType, NULL);
 4455              		.loc 4 201 0 is_stmt 1 discriminator 1
 4456 1df9 4883BD48 		cmpq	$0, -952(%rbp)
 4456      FCFFFF00 
 4457 1e01 0F85E6FE 		jne	.L214
 4457      FFFF
 207:testHexIO.cpp **** 	} while ( line );
 208:testHexIO.cpp **** 	expected += ":00000001FF\n";
 4458              		.loc 4 208 0
 4459 1e07 488D8540 		leaq	-960(%rbp), %rax
 4459      FCFFFF
 4460 1e0e BE000000 		movl	$.LC12, %esi
 4460      00
 4461 1e13 4889C7   		movq	%rax, %rdi
 4462 1e16 E8000000 		call	_ZNSspLEPKc
 4462      00
 209:testHexIO.cpp **** 	va_end(vl);
 210:testHexIO.cpp **** 	status = bufWriteToIntelHexFile(&data, &mask, FILENAME, 16, false, NULL);
 4463              		.loc 4 210 0
 4464 1e1b 488DB5A0 		leaq	-864(%rbp), %rsi
 4464      FCFFFF
 4465 1e22 488D8580 		leaq	-896(%rbp), %rax
 4465      FCFFFF
 4466 1e29 41B90000 		movl	$0, %r9d
 4466      0000
 4467 1e2f 41B80000 		movl	$0, %r8d
 4467      0000
 4468 1e35 B9100000 		movl	$16, %ecx
 4468      00
 4469 1e3a BA000000 		movl	$.LC43, %edx
 4469      00
 4470 1e3f 4889C7   		movq	%rax, %rdi
 4471 1e42 E8000000 		call	bufWriteToIntelHexFile
 4471      00
 4472              	.LEHE178:
 4473 1e47 898534FC 		movl	%eax, -972(%rbp)
 4473      FFFF
 4474              	.LEHB179:
 211:testHexIO.cpp **** 	CHECK_EQUAL(BUF_SUCCESS, status);
 4475              		.loc 4 211 0
 4476 1e4d E8000000 		call	_ZN8UnitTest11CurrentTest7DetailsEv
 4476      00
 4477              		.loc 4 211 0 is_stmt 0 discriminator 1
 4478 1e52 488B08   		movq	(%rax), %rcx
 4479 1e55 488D8500 		leaq	-768(%rbp), %rax
 4479      FDFFFF
 4480 1e5c BAD30000 		movl	$211, %edx
 4480      00
 4481 1e61 4889CE   		movq	%rcx, %rsi
 4482 1e64 4889C7   		movq	%rax, %rdi
 4483 1e67 E8000000 		call	_ZN8UnitTest11TestDetailsC1ERKS0_i
 4483      00
 4484 1e6c C785E0FC 		movl	$0, -800(%rbp)
 4484      FFFF0000 
 4484      0000
 4485 1e76 E8000000 		call	_ZN8UnitTest11CurrentTest7ResultsEv
 4485      00
 4486 1e7b 488B00   		movq	(%rax), %rax
 4487 1e7e 488D8D00 		leaq	-768(%rbp), %rcx
 4487      FDFFFF
 4488 1e85 488D9534 		leaq	-972(%rbp), %rdx
 4488      FCFFFF
 4489 1e8c 488DB5E0 		leaq	-800(%rbp), %rsi
 4489      FCFFFF
 4490 1e93 4889C7   		movq	%rax, %rdi
 4491 1e96 E8000000 		call	_ZN8UnitTest10CheckEqualI12BufferStatusS1_EEvRNS_11TestResultsERKT_RKT0_RKNS_11TestDetailsE
 4491      00
 4492              	.LEHE179:
 4493              	.L228:
 212:testHexIO.cpp **** 
 213:testHexIO.cpp **** 	ifstream file;
 4494              		.loc 4 213 0 is_stmt 1
 4495 1e9b 488D8530 		leaq	-720(%rbp), %rax
 4495      FDFFFF
 4496 1ea2 4889C7   		movq	%rax, %rdi
 4497              	.LEHB180:
 4498 1ea5 E8000000 		call	_ZNSt14basic_ifstreamIcSt11char_traitsIcEEC1Ev
 4498      00
 4499              	.LEHE180:
 214:testHexIO.cpp **** 	streamoff length;
 215:testHexIO.cpp **** 	file.open(FILENAME, ios::in|ios::ate);
 4500              		.loc 4 215 0
 4501 1eaa BE020000 		movl	$2, %esi
 4501      00
 4502 1eaf BF080000 		movl	$8, %edi
 4502      00
 4503 1eb4 E8000000 		call	_ZStorSt13_Ios_OpenmodeS_
 4503      00
 4504 1eb9 89C2     		movl	%eax, %edx
 4505 1ebb 488D8530 		leaq	-720(%rbp), %rax
 4505      FDFFFF
 4506 1ec2 BE000000 		movl	$.LC43, %esi
 4506      00
 4507 1ec7 4889C7   		movq	%rax, %rdi
 4508              	.LEHB181:
 4509 1eca E8000000 		call	_ZNSt14basic_ifstreamIcSt11char_traitsIcEE4openEPKcSt13_Ios_Openmode
 4509      00
 4510              	.LEHE181:
 216:testHexIO.cpp **** 	CHECK(file.is_open());
 4511              		.loc 4 216 0
 4512 1ecf 488D8530 		leaq	-720(%rbp), %rax
 4512      FDFFFF
 4513 1ed6 4889C7   		movq	%rax, %rdi
 4514              	.LEHB182:
 4515 1ed9 E8000000 		call	_ZNSt14basic_ifstreamIcSt11char_traitsIcEE7is_openEv
 4515      00
 4516 1ede 0FB6C0   		movzbl	%al, %eax
 4517 1ee1 89C7     		movl	%eax, %edi
 4518 1ee3 E8000000 		call	_ZN8UnitTest5CheckIbEEbT_
 4518      00
 4519 1ee8 83F001   		xorl	$1, %eax
 4520 1eeb 84C0     		testb	%al, %al
 4521 1eed 743E     		je	.L215
 4522              		.loc 4 216 0 is_stmt 0 discriminator 1
 4523 1eef E8000000 		call	_ZN8UnitTest11CurrentTest7DetailsEv
 4523      00
 4524 1ef4 488B08   		movq	(%rax), %rcx
 4525 1ef7 488D8500 		leaq	-768(%rbp), %rax
 4525      FDFFFF
 4526 1efe BAD80000 		movl	$216, %edx
 4526      00
 4527 1f03 4889CE   		movq	%rcx, %rsi
 4528 1f06 4889C7   		movq	%rax, %rdi
 4529 1f09 E8000000 		call	_ZN8UnitTest11TestDetailsC1ERKS0_i
 4529      00
 4530 1f0e E8000000 		call	_ZN8UnitTest11CurrentTest7ResultsEv
 4530      00
 4531 1f13 488B00   		movq	(%rax), %rax
 4532 1f16 488D8D00 		leaq	-768(%rbp), %rcx
 4532      FDFFFF
 4533 1f1d BA000000 		movl	$.LC44, %edx
 4533      00
 4534 1f22 4889CE   		movq	%rcx, %rsi
 4535 1f25 4889C7   		movq	%rax, %rdi
 4536 1f28 E8000000 		call	_ZN8UnitTest11TestResults13OnTestFailureERKNS_11TestDetailsEPKc
 4536      00
 4537              	.LEHE182:
 4538              	.L215:
 217:testHexIO.cpp **** 	length = file.tellg();
 4539              		.loc 4 217 0 is_stmt 1
 4540 1f2d 488D8530 		leaq	-720(%rbp), %rax
 4540      FDFFFF
 4541 1f34 4889C7   		movq	%rax, %rdi
 4542              	.LEHB183:
 4543 1f37 E8000000 		call	_ZNSi5tellgEv
 4543      00
 4544              	.LEHE183:
 4545 1f3c 48898520 		movq	%rax, -736(%rbp)
 4545      FDFFFF
 4546 1f43 48899528 		movq	%rdx, -728(%rbp)
 4546      FDFFFF
 4547 1f4a 488D8520 		leaq	-736(%rbp), %rax
 4547      FDFFFF
 4548 1f51 4889C7   		movq	%rax, %rdi
 4549 1f54 E8000000 		call	_ZNKSt4fposI11__mbstate_tEcvlEv
 4549      00
 4550 1f59 48898558 		movq	%rax, -936(%rbp)
 4550      FCFFFF
 4551              	.LEHB184:
 218:testHexIO.cpp **** 	CHECK_EQUAL(expected.size(), (unsigned int)length);
 4552              		.loc 4 218 0
 4553 1f60 E8000000 		call	_ZN8UnitTest11CurrentTest7DetailsEv
 4553      00
 4554              		.loc 4 218 0 is_stmt 0 discriminator 1
 4555 1f65 488B08   		movq	(%rax), %rcx
 4556 1f68 488D8500 		leaq	-768(%rbp), %rax
 4556      FDFFFF
 4557 1f6f BADA0000 		movl	$218, %edx
 4557      00
 4558 1f74 4889CE   		movq	%rcx, %rsi
 4559 1f77 4889C7   		movq	%rax, %rdi
 4560 1f7a E8000000 		call	_ZN8UnitTest11TestDetailsC1ERKS0_i
 4560      00
 4561 1f7f 488B8558 		movq	-936(%rbp), %rax
 4561      FCFFFF
 4562 1f86 8985C0FC 		movl	%eax, -832(%rbp)
 4562      FFFF
 4563 1f8c 488D8540 		leaq	-960(%rbp), %rax
 4563      FCFFFF
 4564 1f93 4889C7   		movq	%rax, %rdi
 4565 1f96 E8000000 		call	_ZNKSs4sizeEv
 4565      00
 4566 1f9b 488985E0 		movq	%rax, -800(%rbp)
 4566      FCFFFF
 4567 1fa2 E8000000 		call	_ZN8UnitTest11CurrentTest7ResultsEv
 4567      00
 4568 1fa7 488B00   		movq	(%rax), %rax
 4569 1faa 488D8D00 		leaq	-768(%rbp), %rcx
 4569      FDFFFF
 4570 1fb1 488D95C0 		leaq	-832(%rbp), %rdx
 4570      FCFFFF
 4571 1fb8 488DB5E0 		leaq	-800(%rbp), %rsi
 4571      FCFFFF
 4572 1fbf 4889C7   		movq	%rax, %rdi
 4573 1fc2 E8000000 		call	_ZN8UnitTest10CheckEqualImjEEvRNS_11TestResultsERKT_RKT0_RKNS_11TestDetailsE
 4573      00
 4574              	.LEHE184:
 4575              	.L234:
 219:testHexIO.cpp **** 	char *fileData = new char[(unsigned int)length];
 4576              		.loc 4 219 0 is_stmt 1
 4577 1fc7 488B8558 		movq	-936(%rbp), %rax
 4577      FCFFFF
 4578 1fce 89C0     		movl	%eax, %eax
 4579 1fd0 4889C7   		movq	%rax, %rdi
 4580              	.LEHB185:
 4581 1fd3 E8000000 		call	_Znam
 4581      00
 4582 1fd8 48898560 		movq	%rax, -928(%rbp)
 4582      FCFFFF
 220:testHexIO.cpp **** 	file.seekg(0, ios::beg);
 4583              		.loc 4 220 0
 4584 1fdf 488D8530 		leaq	-720(%rbp), %rax
 4584      FDFFFF
 4585 1fe6 BA000000 		movl	$0, %edx
 4585      00
 4586 1feb BE000000 		movl	$0, %esi
 4586      00
 4587 1ff0 4889C7   		movq	%rax, %rdi
 4588 1ff3 E8000000 		call	_ZNSi5seekgElSt12_Ios_Seekdir
 4588      00
 221:testHexIO.cpp **** 	file.read(fileData, (streamsize)length);
 4589              		.loc 4 221 0
 4590 1ff8 488B9558 		movq	-936(%rbp), %rdx
 4590      FCFFFF
 4591 1fff 488B8D60 		movq	-928(%rbp), %rcx
 4591      FCFFFF
 4592 2006 488D8530 		leaq	-720(%rbp), %rax
 4592      FDFFFF
 4593 200d 4889CE   		movq	%rcx, %rsi
 4594 2010 4889C7   		movq	%rax, %rdi
 4595 2013 E8000000 		call	_ZNSi4readEPcl
 4595      00
 222:testHexIO.cpp **** 	file.close();
 4596              		.loc 4 222 0
 4597 2018 488D8530 		leaq	-720(%rbp), %rax
 4597      FDFFFF
 4598 201f 4889C7   		movq	%rax, %rdi
 4599 2022 E8000000 		call	_ZNSt14basic_ifstreamIcSt11char_traitsIcEE5closeEv
 4599      00
 4600              	.LEHE185:
 4601              	.LEHB186:
 223:testHexIO.cpp **** 	CHECK_ARRAY_EQUAL(expected.c_str(), (const char *)fileData, (int)length);
 4602              		.loc 4 223 0
 4603 2027 E8000000 		call	_ZN8UnitTest11CurrentTest7DetailsEv
 4603      00
 4604 202c 488B08   		movq	(%rax), %rcx
 4605 202f 488D8500 		leaq	-768(%rbp), %rax
 4605      FDFFFF
 4606 2036 BADF0000 		movl	$223, %edx
 4606      00
 4607 203b 4889CE   		movq	%rcx, %rsi
 4608 203e 4889C7   		movq	%rax, %rdi
 4609 2041 E8000000 		call	_ZN8UnitTest11TestDetailsC1ERKS0_i
 4609      00
 4610              		.loc 4 223 0 is_stmt 0 discriminator 1
 4611 2046 488B8558 		movq	-936(%rbp), %rax
 4611      FCFFFF
 4612 204d 89C3     		movl	%eax, %ebx
 4613 204f 488B8560 		movq	-928(%rbp), %rax
 4613      FCFFFF
 4614 2056 488985E0 		movq	%rax, -800(%rbp)
 4614      FCFFFF
 4615 205d 488D8540 		leaq	-960(%rbp), %rax
 4615      FCFFFF
 4616 2064 4889C7   		movq	%rax, %rdi
 4617 2067 E8000000 		call	_ZNKSs5c_strEv
 4617      00
 4618 206c 488985C0 		movq	%rax, -832(%rbp)
 4618      FCFFFF
 4619 2073 E8000000 		call	_ZN8UnitTest11CurrentTest7ResultsEv
 4619      00
 4620 2078 488B00   		movq	(%rax), %rax
 4621 207b 488D8D00 		leaq	-768(%rbp), %rcx
 4621      FDFFFF
 4622 2082 488D95E0 		leaq	-800(%rbp), %rdx
 4622      FCFFFF
 4623 2089 488DB5C0 		leaq	-832(%rbp), %rsi
 4623      FCFFFF
 4624 2090 4989C8   		movq	%rcx, %r8
 4625 2093 89D9     		movl	%ebx, %ecx
 4626 2095 4889C7   		movq	%rax, %rdi
 4627 2098 E8000000 		call	_ZN8UnitTest15CheckArrayEqualIPKcS2_EEvRNS_11TestResultsERKT_RKT0_iRKNS_11TestDetailsE
 4627      00
 4628              	.LEHE186:
 4629              	.L237:
 224:testHexIO.cpp **** 
 225:testHexIO.cpp **** 	status = bufInitialise(&readbackData, 1024, 0x00, NULL);
 4630              		.loc 4 225 0 is_stmt 1
 4631 209d 488D85C0 		leaq	-832(%rbp), %rax
 4631      FCFFFF
 4632 20a4 B9000000 		movl	$0, %ecx
 4632      00
 4633 20a9 BA000000 		movl	$0, %edx
 4633      00
 4634 20ae BE000400 		movl	$1024, %esi
 4634      00
 4635 20b3 4889C7   		movq	%rax, %rdi
 4636              	.LEHB187:
 4637 20b6 E8000000 		call	bufInitialise
 4637      00
 4638              	.LEHE187:
 4639 20bb 898534FC 		movl	%eax, -972(%rbp)
 4639      FFFF
 4640              	.LEHB188:
 226:testHexIO.cpp **** 	CHECK_EQUAL(BUF_SUCCESS, status);
 4641              		.loc 4 226 0
 4642 20c1 E8000000 		call	_ZN8UnitTest11CurrentTest7DetailsEv
 4642      00
 4643              		.loc 4 226 0 is_stmt 0 discriminator 1
 4644 20c6 488B08   		movq	(%rax), %rcx
 4645 20c9 488D8500 		leaq	-768(%rbp), %rax
 4645      FDFFFF
 4646 20d0 BAE20000 		movl	$226, %edx
 4646      00
 4647 20d5 4889CE   		movq	%rcx, %rsi
 4648 20d8 4889C7   		movq	%rax, %rdi
 4649 20db E8000000 		call	_ZN8UnitTest11TestDetailsC1ERKS0_i
 4649      00
 4650 20e0 C785E0FC 		movl	$0, -800(%rbp)
 4650      FFFF0000 
 4650      0000
 4651 20ea E8000000 		call	_ZN8UnitTest11CurrentTest7ResultsEv
 4651      00
 4652 20ef 488B00   		movq	(%rax), %rax
 4653 20f2 488D8D00 		leaq	-768(%rbp), %rcx
 4653      FDFFFF
 4654 20f9 488D9534 		leaq	-972(%rbp), %rdx
 4654      FCFFFF
 4655 2100 488DB5E0 		leaq	-800(%rbp), %rsi
 4655      FCFFFF
 4656 2107 4889C7   		movq	%rax, %rdi
 4657 210a E8000000 		call	_ZN8UnitTest10CheckEqualI12BufferStatusS1_EEvRNS_11TestResultsERKT_RKT0_RKNS_11TestDetailsE
 4657      00
 4658              	.LEHE188:
 4659              	.L240:
 227:testHexIO.cpp **** 	status = bufInitialise(&readbackMask, 1024, 0x00, NULL);
 4660              		.loc 4 227 0 is_stmt 1
 4661 210f 488D85E0 		leaq	-800(%rbp), %rax
 4661      FCFFFF
 4662 2116 B9000000 		movl	$0, %ecx
 4662      00
 4663 211b BA000000 		movl	$0, %edx
 4663      00
 4664 2120 BE000400 		movl	$1024, %esi
 4664      00
 4665 2125 4889C7   		movq	%rax, %rdi
 4666              	.LEHB189:
 4667 2128 E8000000 		call	bufInitialise
 4667      00
 4668              	.LEHE189:
 4669 212d 898534FC 		movl	%eax, -972(%rbp)
 4669      FFFF
 4670              	.LEHB190:
 228:testHexIO.cpp **** 	CHECK_EQUAL(BUF_SUCCESS, status);
 4671              		.loc 4 228 0
 4672 2133 E8000000 		call	_ZN8UnitTest11CurrentTest7DetailsEv
 4672      00
 4673              		.loc 4 228 0 is_stmt 0 discriminator 1
 4674 2138 488B08   		movq	(%rax), %rcx
 4675 213b 488D8500 		leaq	-768(%rbp), %rax
 4675      FDFFFF
 4676 2142 BAE40000 		movl	$228, %edx
 4676      00
 4677 2147 4889CE   		movq	%rcx, %rsi
 4678 214a 4889C7   		movq	%rax, %rdi
 4679 214d E8000000 		call	_ZN8UnitTest11TestDetailsC1ERKS0_i
 4679      00
 4680 2152 C7853CFC 		movl	$0, -964(%rbp)
 4680      FFFF0000 
 4680      0000
 4681 215c E8000000 		call	_ZN8UnitTest11CurrentTest7ResultsEv
 4681      00
 4682 2161 488B00   		movq	(%rax), %rax
 4683 2164 488D8D00 		leaq	-768(%rbp), %rcx
 4683      FDFFFF
 4684 216b 488D9534 		leaq	-972(%rbp), %rdx
 4684      FCFFFF
 4685 2172 488DB53C 		leaq	-964(%rbp), %rsi
 4685      FCFFFF
 4686 2179 4889C7   		movq	%rax, %rdi
 4687 217c E8000000 		call	_ZN8UnitTest10CheckEqualI12BufferStatusS1_EEvRNS_11TestResultsERKT_RKT0_RKNS_11TestDetailsE
 4687      00
 4688              	.LEHE190:
 4689              	.L243:
 229:testHexIO.cpp **** 	status = bufReadFromIntelHexFile(&readbackData, &readbackMask, FILENAME, NULL);
 4690              		.loc 4 229 0 is_stmt 1
 4691 2181 488DB5E0 		leaq	-800(%rbp), %rsi
 4691      FCFFFF
 4692 2188 488D85C0 		leaq	-832(%rbp), %rax
 4692      FCFFFF
 4693 218f B9000000 		movl	$0, %ecx
 4693      00
 4694 2194 BA000000 		movl	$.LC43, %edx
 4694      00
 4695 2199 4889C7   		movq	%rax, %rdi
 4696              	.LEHB191:
 4697 219c E8000000 		call	bufReadFromIntelHexFile
 4697      00
 4698              	.LEHE191:
 4699 21a1 898534FC 		movl	%eax, -972(%rbp)
 4699      FFFF
 4700              	.LEHB192:
 230:testHexIO.cpp **** 	CHECK_EQUAL(BUF_SUCCESS, status);
 4701              		.loc 4 230 0
 4702 21a7 E8000000 		call	_ZN8UnitTest11CurrentTest7DetailsEv
 4702      00
 4703              		.loc 4 230 0 is_stmt 0 discriminator 1
 4704 21ac 488B08   		movq	(%rax), %rcx
 4705 21af 488D8500 		leaq	-768(%rbp), %rax
 4705      FDFFFF
 4706 21b6 BAE60000 		movl	$230, %edx
 4706      00
 4707 21bb 4889CE   		movq	%rcx, %rsi
 4708 21be 4889C7   		movq	%rax, %rdi
 4709 21c1 E8000000 		call	_ZN8UnitTest11TestDetailsC1ERKS0_i
 4709      00
 4710 21c6 C7853CFC 		movl	$0, -964(%rbp)
 4710      FFFF0000 
 4710      0000
 4711 21d0 E8000000 		call	_ZN8UnitTest11CurrentTest7ResultsEv
 4711      00
 4712 21d5 488B00   		movq	(%rax), %rax
 4713 21d8 488D8D00 		leaq	-768(%rbp), %rcx
 4713      FDFFFF
 4714 21df 488D9534 		leaq	-972(%rbp), %rdx
 4714      FCFFFF
 4715 21e6 488DB53C 		leaq	-964(%rbp), %rsi
 4715      FCFFFF
 4716 21ed 4889C7   		movq	%rax, %rdi
 4717 21f0 E8000000 		call	_ZN8UnitTest10CheckEqualI12BufferStatusS1_EEvRNS_11TestResultsERKT_RKT0_RKNS_11TestDetailsE
 4717      00
 4718              	.LEHE192:
 4719              	.L246:
 4720              	.LEHB193:
 231:testHexIO.cpp **** 	CHECK_EQUAL(data.length, readbackData.length);
 4721              		.loc 4 231 0 is_stmt 1
 4722 21f5 E8000000 		call	_ZN8UnitTest11CurrentTest7DetailsEv
 4722      00
 4723 21fa 488B08   		movq	(%rax), %rcx
 4724 21fd 488D8500 		leaq	-768(%rbp), %rax
 4724      FDFFFF
 4725 2204 BAE70000 		movl	$231, %edx
 4725      00
 4726 2209 4889CE   		movq	%rcx, %rsi
 4727 220c 4889C7   		movq	%rax, %rdi
 4728 220f E8000000 		call	_ZN8UnitTest11TestDetailsC1ERKS0_i
 4728      00
 4729              		.loc 4 231 0 is_stmt 0 discriminator 1
 4730 2214 E8000000 		call	_ZN8UnitTest11CurrentTest7ResultsEv
 4730      00
 4731 2219 488B00   		movq	(%rax), %rax
 4732 221c 488D9500 		leaq	-768(%rbp), %rdx
 4732      FDFFFF
 4733 2223 488D8DC0 		leaq	-832(%rbp), %rcx
 4733      FCFFFF
 4734 222a 488D7908 		leaq	8(%rcx), %rdi
 4735 222e 488D8D80 		leaq	-896(%rbp), %rcx
 4735      FCFFFF
 4736 2235 488D7108 		leaq	8(%rcx), %rsi
 4737 2239 4889D1   		movq	%rdx, %rcx
 4738 223c 4889FA   		movq	%rdi, %rdx
 4739 223f 4889C7   		movq	%rax, %rdi
 4740 2242 E8000000 		call	_ZN8UnitTest10CheckEqualImmEEvRNS_11TestResultsERKT_RKT0_RKNS_11TestDetailsE
 4740      00
 4741              	.LEHE193:
 4742              	.L249:
 4743              	.LEHB194:
 232:testHexIO.cpp **** 	CHECK_ARRAY_EQUAL(data.data, readbackData.data, (int)data.length);
 4744              		.loc 4 232 0 is_stmt 1
 4745 2247 E8000000 		call	_ZN8UnitTest11CurrentTest7DetailsEv
 4745      00
 4746 224c 488B08   		movq	(%rax), %rcx
 4747 224f 488D8500 		leaq	-768(%rbp), %rax
 4747      FDFFFF
 4748 2256 BAE80000 		movl	$232, %edx
 4748      00
 4749 225b 4889CE   		movq	%rcx, %rsi
 4750 225e 4889C7   		movq	%rax, %rdi
 4751 2261 E8000000 		call	_ZN8UnitTest11TestDetailsC1ERKS0_i
 4751      00
 4752              		.loc 4 232 0 is_stmt 0 discriminator 1
 4753 2266 488B8588 		movq	-888(%rbp), %rax
 4753      FCFFFF
 4754 226d 89C3     		movl	%eax, %ebx
 4755 226f E8000000 		call	_ZN8UnitTest11CurrentTest7ResultsEv
 4755      00
 4756 2274 488B00   		movq	(%rax), %rax
 4757 2277 488D8D00 		leaq	-768(%rbp), %rcx
 4757      FDFFFF
 4758 227e 488D95C0 		leaq	-832(%rbp), %rdx
 4758      FCFFFF
 4759 2285 488DB580 		leaq	-896(%rbp), %rsi
 4759      FCFFFF
 4760 228c 4989C8   		movq	%rcx, %r8
 4761 228f 89D9     		movl	%ebx, %ecx
 4762 2291 4889C7   		movq	%rax, %rdi
 4763 2294 E8000000 		call	_ZN8UnitTest15CheckArrayEqualIPhS1_EEvRNS_11TestResultsERKT_RKT0_iRKNS_11TestDetailsE
 4763      00
 4764              	.LEHE194:
 4765              	.L252:
 4766              	.LEHB195:
 233:testHexIO.cpp **** 	CHECK_EQUAL(mask.length, readbackMask.length);
 4767              		.loc 4 233 0 is_stmt 1
 4768 2299 E8000000 		call	_ZN8UnitTest11CurrentTest7DetailsEv
 4768      00
 4769 229e 488B08   		movq	(%rax), %rcx
 4770 22a1 488D8500 		leaq	-768(%rbp), %rax
 4770      FDFFFF
 4771 22a8 BAE90000 		movl	$233, %edx
 4771      00
 4772 22ad 4889CE   		movq	%rcx, %rsi
 4773 22b0 4889C7   		movq	%rax, %rdi
 4774 22b3 E8000000 		call	_ZN8UnitTest11TestDetailsC1ERKS0_i
 4774      00
 4775              		.loc 4 233 0 is_stmt 0 discriminator 1
 4776 22b8 E8000000 		call	_ZN8UnitTest11CurrentTest7ResultsEv
 4776      00
 4777 22bd 488B00   		movq	(%rax), %rax
 4778 22c0 488D9500 		leaq	-768(%rbp), %rdx
 4778      FDFFFF
 4779 22c7 488D8DE0 		leaq	-800(%rbp), %rcx
 4779      FCFFFF
 4780 22ce 488D7908 		leaq	8(%rcx), %rdi
 4781 22d2 488D8DA0 		leaq	-864(%rbp), %rcx
 4781      FCFFFF
 4782 22d9 488D7108 		leaq	8(%rcx), %rsi
 4783 22dd 4889D1   		movq	%rdx, %rcx
 4784 22e0 4889FA   		movq	%rdi, %rdx
 4785 22e3 4889C7   		movq	%rax, %rdi
 4786 22e6 E8000000 		call	_ZN8UnitTest10CheckEqualImmEEvRNS_11TestResultsERKT_RKT0_RKNS_11TestDetailsE
 4786      00
 4787              	.LEHE195:
 4788              	.L255:
 4789              	.LEHB196:
 234:testHexIO.cpp **** 	CHECK_ARRAY_EQUAL(mask.data, readbackMask.data, (int)mask.length);
 4790              		.loc 4 234 0 is_stmt 1
 4791 22eb E8000000 		call	_ZN8UnitTest11CurrentTest7DetailsEv
 4791      00
 4792 22f0 488B08   		movq	(%rax), %rcx
 4793 22f3 488D8500 		leaq	-768(%rbp), %rax
 4793      FDFFFF
 4794 22fa BAEA0000 		movl	$234, %edx
 4794      00
 4795 22ff 4889CE   		movq	%rcx, %rsi
 4796 2302 4889C7   		movq	%rax, %rdi
 4797 2305 E8000000 		call	_ZN8UnitTest11TestDetailsC1ERKS0_i
 4797      00
 4798              		.loc 4 234 0 is_stmt 0 discriminator 1
 4799 230a 488B85A8 		movq	-856(%rbp), %rax
 4799      FCFFFF
 4800 2311 89C3     		movl	%eax, %ebx
 4801 2313 E8000000 		call	_ZN8UnitTest11CurrentTest7ResultsEv
 4801      00
 4802 2318 488B00   		movq	(%rax), %rax
 4803 231b 488D8D00 		leaq	-768(%rbp), %rcx
 4803      FDFFFF
 4804 2322 488D95E0 		leaq	-800(%rbp), %rdx
 4804      FCFFFF
 4805 2329 488DB5A0 		leaq	-864(%rbp), %rsi
 4805      FCFFFF
 4806 2330 4989C8   		movq	%rcx, %r8
 4807 2333 89D9     		movl	%ebx, %ecx
 4808 2335 4889C7   		movq	%rax, %rdi
 4809 2338 E8000000 		call	_ZN8UnitTest15CheckArrayEqualIPhS1_EEvRNS_11TestResultsERKT_RKT0_iRKNS_11TestDetailsE
 4809      00
 4810              	.LEHE196:
