   1              		.file	"DeferredTestReporter.cpp"
   2              		.text
   3              	.Ltext0:
   4              		.section	.text._ZnwmPv,"axG",@progbits,_ZnwmPv,comdat
   5              		.weak	_ZnwmPv
   7              	_ZnwmPv:
   8              	.LFB220:
   9              		.file 1 "/usr/include/c++/4.8/new"
   1:/usr/include/c++/4.8/new **** // The -*- C++ -*- dynamic memory management header.
   2:/usr/include/c++/4.8/new **** 
   3:/usr/include/c++/4.8/new **** // Copyright (C) 1994-2013 Free Software Foundation, Inc.
   4:/usr/include/c++/4.8/new **** 
   5:/usr/include/c++/4.8/new **** // This file is part of GCC.
   6:/usr/include/c++/4.8/new **** //
   7:/usr/include/c++/4.8/new **** // GCC is free software; you can redistribute it and/or modify
   8:/usr/include/c++/4.8/new **** // it under the terms of the GNU General Public License as published by
   9:/usr/include/c++/4.8/new **** // the Free Software Foundation; either version 3, or (at your option)
  10:/usr/include/c++/4.8/new **** // any later version.
  11:/usr/include/c++/4.8/new **** // 
  12:/usr/include/c++/4.8/new **** // GCC is distributed in the hope that it will be useful,
  13:/usr/include/c++/4.8/new **** // but WITHOUT ANY WARRANTY; without even the implied warranty of
  14:/usr/include/c++/4.8/new **** // MERCHANTABILITY or FITNESS FOR A PARTICULAR PURPOSE.  See the
  15:/usr/include/c++/4.8/new **** // GNU General Public License for more details.
  16:/usr/include/c++/4.8/new **** // 
  17:/usr/include/c++/4.8/new **** // Under Section 7 of GPL version 3, you are granted additional
  18:/usr/include/c++/4.8/new **** // permissions described in the GCC Runtime Library Exception, version
  19:/usr/include/c++/4.8/new **** // 3.1, as published by the Free Software Foundation.
  20:/usr/include/c++/4.8/new **** 
  21:/usr/include/c++/4.8/new **** // You should have received a copy of the GNU General Public License and
  22:/usr/include/c++/4.8/new **** // a copy of the GCC Runtime Library Exception along with this program;
  23:/usr/include/c++/4.8/new **** // see the files COPYING3 and COPYING.RUNTIME respectively.  If not, see
  24:/usr/include/c++/4.8/new **** // <http://www.gnu.org/licenses/>.
  25:/usr/include/c++/4.8/new **** 
  26:/usr/include/c++/4.8/new **** /** @file new
  27:/usr/include/c++/4.8/new ****  *  This is a Standard C++ Library header.
  28:/usr/include/c++/4.8/new ****  *
  29:/usr/include/c++/4.8/new ****  *  The header @c new defines several functions to manage dynamic memory and
  30:/usr/include/c++/4.8/new ****  *  handling memory allocation errors; see
  31:/usr/include/c++/4.8/new ****  *  http://gcc.gnu.org/onlinedocs/libstdc++/18_support/howto.html#4 for more.
  32:/usr/include/c++/4.8/new ****  */
  33:/usr/include/c++/4.8/new **** 
  34:/usr/include/c++/4.8/new **** #ifndef _NEW
  35:/usr/include/c++/4.8/new **** #define _NEW
  36:/usr/include/c++/4.8/new **** 
  37:/usr/include/c++/4.8/new **** #pragma GCC system_header
  38:/usr/include/c++/4.8/new **** 
  39:/usr/include/c++/4.8/new **** #include <bits/c++config.h>
  40:/usr/include/c++/4.8/new **** #include <exception>
  41:/usr/include/c++/4.8/new **** 
  42:/usr/include/c++/4.8/new **** #pragma GCC visibility push(default)
  43:/usr/include/c++/4.8/new **** 
  44:/usr/include/c++/4.8/new **** extern "C++" {
  45:/usr/include/c++/4.8/new **** 
  46:/usr/include/c++/4.8/new **** namespace std 
  47:/usr/include/c++/4.8/new **** {
  48:/usr/include/c++/4.8/new ****   /**
  49:/usr/include/c++/4.8/new ****    *  @brief  Exception possibly thrown by @c new.
  50:/usr/include/c++/4.8/new ****    *  @ingroup exceptions
  51:/usr/include/c++/4.8/new ****    *
  52:/usr/include/c++/4.8/new ****    *  @c bad_alloc (or classes derived from it) is used to report allocation
  53:/usr/include/c++/4.8/new ****    *  errors from the throwing forms of @c new.  */
  54:/usr/include/c++/4.8/new ****   class bad_alloc : public exception 
  55:/usr/include/c++/4.8/new ****   {
  56:/usr/include/c++/4.8/new ****   public:
  57:/usr/include/c++/4.8/new ****     bad_alloc() throw() { }
  58:/usr/include/c++/4.8/new **** 
  59:/usr/include/c++/4.8/new ****     // This declaration is not useless:
  60:/usr/include/c++/4.8/new ****     // http://gcc.gnu.org/onlinedocs/gcc-3.0.2/gcc_6.html#SEC118
  61:/usr/include/c++/4.8/new ****     virtual ~bad_alloc() throw();
  62:/usr/include/c++/4.8/new **** 
  63:/usr/include/c++/4.8/new ****     // See comment in eh_exception.cc.
  64:/usr/include/c++/4.8/new ****     virtual const char* what() const throw();
  65:/usr/include/c++/4.8/new ****   };
  66:/usr/include/c++/4.8/new **** 
  67:/usr/include/c++/4.8/new ****   struct nothrow_t { };
  68:/usr/include/c++/4.8/new **** 
  69:/usr/include/c++/4.8/new ****   extern const nothrow_t nothrow;
  70:/usr/include/c++/4.8/new **** 
  71:/usr/include/c++/4.8/new ****   /** If you write your own error handler to be called by @c new, it must
  72:/usr/include/c++/4.8/new ****    *  be of this type.  */
  73:/usr/include/c++/4.8/new ****   typedef void (*new_handler)();
  74:/usr/include/c++/4.8/new **** 
  75:/usr/include/c++/4.8/new ****   /// Takes a replacement handler as the argument, returns the
  76:/usr/include/c++/4.8/new ****   /// previous handler.
  77:/usr/include/c++/4.8/new ****   new_handler set_new_handler(new_handler) throw();
  78:/usr/include/c++/4.8/new **** } // namespace std
  79:/usr/include/c++/4.8/new **** 
  80:/usr/include/c++/4.8/new **** //@{
  81:/usr/include/c++/4.8/new **** /** These are replaceable signatures:
  82:/usr/include/c++/4.8/new ****  *  - normal single new and delete (no arguments, throw @c bad_alloc on error)
  83:/usr/include/c++/4.8/new ****  *  - normal array new and delete (same)
  84:/usr/include/c++/4.8/new ****  *  - @c nothrow single new and delete (take a @c nothrow argument, return
  85:/usr/include/c++/4.8/new ****  *    @c NULL on error)
  86:/usr/include/c++/4.8/new ****  *  - @c nothrow array new and delete (same)
  87:/usr/include/c++/4.8/new ****  *
  88:/usr/include/c++/4.8/new ****  *  Placement new and delete signatures (take a memory address argument,
  89:/usr/include/c++/4.8/new ****  *  does nothing) may not be replaced by a user's program.
  90:/usr/include/c++/4.8/new **** */
  91:/usr/include/c++/4.8/new **** void* operator new(std::size_t) _GLIBCXX_THROW (std::bad_alloc)
  92:/usr/include/c++/4.8/new ****   __attribute__((__externally_visible__));
  93:/usr/include/c++/4.8/new **** void* operator new[](std::size_t) _GLIBCXX_THROW (std::bad_alloc)
  94:/usr/include/c++/4.8/new ****   __attribute__((__externally_visible__));
  95:/usr/include/c++/4.8/new **** void operator delete(void*) _GLIBCXX_USE_NOEXCEPT
  96:/usr/include/c++/4.8/new ****   __attribute__((__externally_visible__));
  97:/usr/include/c++/4.8/new **** void operator delete[](void*) _GLIBCXX_USE_NOEXCEPT
  98:/usr/include/c++/4.8/new ****   __attribute__((__externally_visible__));
  99:/usr/include/c++/4.8/new **** void* operator new(std::size_t, const std::nothrow_t&) _GLIBCXX_USE_NOEXCEPT
 100:/usr/include/c++/4.8/new ****   __attribute__((__externally_visible__));
 101:/usr/include/c++/4.8/new **** void* operator new[](std::size_t, const std::nothrow_t&) _GLIBCXX_USE_NOEXCEPT
 102:/usr/include/c++/4.8/new ****   __attribute__((__externally_visible__));
 103:/usr/include/c++/4.8/new **** void operator delete(void*, const std::nothrow_t&) _GLIBCXX_USE_NOEXCEPT
 104:/usr/include/c++/4.8/new ****   __attribute__((__externally_visible__));
 105:/usr/include/c++/4.8/new **** void operator delete[](void*, const std::nothrow_t&) _GLIBCXX_USE_NOEXCEPT
 106:/usr/include/c++/4.8/new ****   __attribute__((__externally_visible__));
 107:/usr/include/c++/4.8/new **** 
 108:/usr/include/c++/4.8/new **** // Default placement versions of operator new.
 109:/usr/include/c++/4.8/new **** inline void* operator new(std::size_t, void* __p) _GLIBCXX_USE_NOEXCEPT
 110:/usr/include/c++/4.8/new **** { return __p; }
  10              		.loc 1 110 0
  11              		.cfi_startproc
  12 0000 55       		pushq	%rbp
  13              		.cfi_def_cfa_offset 16
  14              		.cfi_offset 6, -16
  15 0001 4889E5   		movq	%rsp, %rbp
  16              		.cfi_def_cfa_register 6
  17 0004 48897DF8 		movq	%rdi, -8(%rbp)
  18 0008 488975F0 		movq	%rsi, -16(%rbp)
  19              		.loc 1 110 0
  20 000c 488B45F0 		movq	-16(%rbp), %rax
  21 0010 5D       		popq	%rbp
  22              		.cfi_def_cfa 7, 8
  23 0011 C3       		ret
  24              		.cfi_endproc
  25              	.LFE220:
  27              		.section	.text._ZdlPvS_,"axG",@progbits,_ZdlPvS_,comdat
  28              		.weak	_ZdlPvS_
  30              	_ZdlPvS_:
  31              	.LFB222:
 111:/usr/include/c++/4.8/new **** inline void* operator new[](std::size_t, void* __p) _GLIBCXX_USE_NOEXCEPT
 112:/usr/include/c++/4.8/new **** { return __p; }
 113:/usr/include/c++/4.8/new **** 
 114:/usr/include/c++/4.8/new **** // Default placement versions of operator delete.
 115:/usr/include/c++/4.8/new **** inline void operator delete  (void*, void*) _GLIBCXX_USE_NOEXCEPT { }
  32              		.loc 1 115 0
  33              		.cfi_startproc
  34 0000 55       		pushq	%rbp
  35              		.cfi_def_cfa_offset 16
  36              		.cfi_offset 6, -16
  37 0001 4889E5   		movq	%rsp, %rbp
  38              		.cfi_def_cfa_register 6
  39 0004 48897DF8 		movq	%rdi, -8(%rbp)
  40 0008 488975F0 		movq	%rsi, -16(%rbp)
  41              		.loc 1 115 0
  42 000c 5D       		popq	%rbp
  43              		.cfi_def_cfa 7, 8
  44 000d C3       		ret
  45              		.cfi_endproc
  46              	.LFE222:
  48              		.section	.text._ZN8UnitTest18DeferredTestResultD2Ev,"axG",@progbits,_ZN8UnitTest18DeferredTestResu
  49              		.align 2
  50              		.weak	_ZN8UnitTest18DeferredTestResultD2Ev
  52              	_ZN8UnitTest18DeferredTestResultD2Ev:
  53              	.LFB819:
  54              		.file 2 "DeferredTestResult.h"
   1:DeferredTestResult.h **** #ifndef UNITTEST_DEFERREDTESTRESULT_H
   2:DeferredTestResult.h **** #define UNITTEST_DEFERREDTESTRESULT_H
   3:DeferredTestResult.h **** 
   4:DeferredTestResult.h **** #include <string>
   5:DeferredTestResult.h **** #include <vector>
   6:DeferredTestResult.h **** 
   7:DeferredTestResult.h **** namespace UnitTest
   8:DeferredTestResult.h **** {
   9:DeferredTestResult.h **** 
  10:DeferredTestResult.h **** struct DeferredTestResult
  55              		.loc 2 10 0
  56              		.cfi_startproc
  57              		.cfi_personality 0x9b,DW.ref.__gxx_personality_v0
  58              		.cfi_lsda 0x1b,.LLSDA819
  59 0000 55       		pushq	%rbp
  60              		.cfi_def_cfa_offset 16
  61              		.cfi_offset 6, -16
  62 0001 4889E5   		movq	%rsp, %rbp
  63              		.cfi_def_cfa_register 6
  64 0004 53       		pushq	%rbx
  65 0005 4883EC18 		subq	$24, %rsp
  66              		.cfi_offset 3, -24
  67 0009 48897DE8 		movq	%rdi, -24(%rbp)
  68              	.LBB2:
  69              		.loc 2 10 0
  70 000d 488B45E8 		movq	-24(%rbp), %rax
  71 0011 4883C018 		addq	$24, %rax
  72 0015 4889C7   		movq	%rax, %rdi
  73              	.LEHB0:
  74 0018 E8000000 		call	_ZNSt6vectorISt4pairIiSsESaIS1_EED1Ev@PLT
  74      00
  75              	.LEHE0:
  76              		.loc 2 10 0 is_stmt 0 discriminator 1
  77 001d 488B45E8 		movq	-24(%rbp), %rax
  78 0021 4883C010 		addq	$16, %rax
  79 0025 4889C7   		movq	%rax, %rdi
  80              	.LEHB1:
  81 0028 E8000000 		call	_ZNSsD1Ev@PLT
  81      00
  82              	.LEHE1:
  83              		.loc 2 10 0 discriminator 2
  84 002d 488B45E8 		movq	-24(%rbp), %rax
  85 0031 4883C008 		addq	$8, %rax
  86 0035 4889C7   		movq	%rax, %rdi
  87              	.LEHB2:
  88 0038 E8000000 		call	_ZNSsD1Ev@PLT
  88      00
  89              	.LEHE2:
  90              		.loc 2 10 0 discriminator 3
  91 003d 488B45E8 		movq	-24(%rbp), %rax
  92 0041 4889C7   		movq	%rax, %rdi
  93              	.LEHB3:
  94 0044 E8000000 		call	_ZNSsD1Ev@PLT
  94      00
  95              	.LEHE3:
  96 0049 EB44     		jmp	.L12
  97              	.L9:
  98 004b 4889C3   		movq	%rax, %rbx
  99              		.loc 2 10 0
 100 004e 488B45E8 		movq	-24(%rbp), %rax
 101 0052 4883C010 		addq	$16, %rax
 102 0056 4889C7   		movq	%rax, %rdi
 103 0059 E8000000 		call	_ZNSsD1Ev@PLT
 103      00
 104 005e EB03     		jmp	.L7
 105              	.L10:
 106 0060 4889C3   		movq	%rax, %rbx
 107              	.L7:
 108 0063 488B45E8 		movq	-24(%rbp), %rax
 109 0067 4883C008 		addq	$8, %rax
 110 006b 4889C7   		movq	%rax, %rdi
 111 006e E8000000 		call	_ZNSsD1Ev@PLT
 111      00
 112 0073 EB03     		jmp	.L8
 113              	.L11:
 114 0075 4889C3   		movq	%rax, %rbx
 115              	.L8:
 116 0078 488B45E8 		movq	-24(%rbp), %rax
 117 007c 4889C7   		movq	%rax, %rdi
 118 007f E8000000 		call	_ZNSsD1Ev@PLT
 118      00
 119 0084 4889D8   		movq	%rbx, %rax
 120 0087 4889C7   		movq	%rax, %rdi
 121              	.LEHB4:
 122 008a E8000000 		call	_Unwind_Resume@PLT
 122      00
 123              	.LEHE4:
 124              	.L12:
 125              	.LBE2:
 126 008f 4883C418 		addq	$24, %rsp
 127 0093 5B       		popq	%rbx
 128 0094 5D       		popq	%rbp
 129              		.cfi_def_cfa 7, 8
 130 0095 C3       		ret
 131              		.cfi_endproc
 132              	.LFE819:
 133              		.globl	__gxx_personality_v0
 134              		.section	.gcc_except_table._ZN8UnitTest18DeferredTestResultD2Ev,"aG",@progbits,_ZN8UnitTest18Defer
 135              	.LLSDA819:
 136 0000 FF       		.byte	0xff
 137 0001 FF       		.byte	0xff
 138 0002 01       		.byte	0x1
 139 0003 15       		.uleb128 .LLSDACSE819-.LLSDACSB819
 140              	.LLSDACSB819:
 141 0004 18       		.uleb128 .LEHB0-.LFB819
 142 0005 05       		.uleb128 .LEHE0-.LEHB0
 143 0006 4B       		.uleb128 .L9-.LFB819
 144 0007 00       		.uleb128 0
 145 0008 28       		.uleb128 .LEHB1-.LFB819
 146 0009 05       		.uleb128 .LEHE1-.LEHB1
 147 000a 60       		.uleb128 .L10-.LFB819
 148 000b 00       		.uleb128 0
 149 000c 38       		.uleb128 .LEHB2-.LFB819
 150 000d 05       		.uleb128 .LEHE2-.LEHB2
 151 000e 75       		.uleb128 .L11-.LFB819
 152 000f 00       		.uleb128 0
 153 0010 44       		.uleb128 .LEHB3-.LFB819
 154 0011 05       		.uleb128 .LEHE3-.LEHB3
 155 0012 00       		.uleb128 0
 156 0013 00       		.uleb128 0
 157 0014 8A01     		.uleb128 .LEHB4-.LFB819
 158 0016 05       		.uleb128 .LEHE4-.LEHB4
 159 0017 00       		.uleb128 0
 160 0018 00       		.uleb128 0
 161              	.LLSDACSE819:
 162              		.section	.text._ZN8UnitTest18DeferredTestResultD2Ev,"axG",@progbits,_ZN8UnitTest18DeferredTestResu
 164              		.weak	_ZN8UnitTest18DeferredTestResultD1Ev
 165              		.set	_ZN8UnitTest18DeferredTestResultD1Ev,_ZN8UnitTest18DeferredTestResultD2Ev
 166              		.text
 167              		.align 2
 168              		.globl	_ZN8UnitTest20DeferredTestReporter15ReportTestStartERKNS_11TestDetailsE
 170              	_ZN8UnitTest20DeferredTestReporter15ReportTestStartERKNS_11TestDetailsE:
 171              	.LFB817:
 172              		.file 3 "DeferredTestReporter.cpp"
   1:DeferredTestReporter.cpp **** #include "DeferredTestReporter.h"
   2:DeferredTestReporter.cpp **** #include "TestDetails.h"
   3:DeferredTestReporter.cpp **** #include "Config.h"
   4:DeferredTestReporter.cpp **** 
   5:DeferredTestReporter.cpp **** using namespace UnitTest;
   6:DeferredTestReporter.cpp **** 
   7:DeferredTestReporter.cpp **** void DeferredTestReporter::ReportTestStart(TestDetails const& details)
   8:DeferredTestReporter.cpp **** {
 173              		.loc 3 8 0 is_stmt 1
 174              		.cfi_startproc
 175              		.cfi_personality 0x9b,DW.ref.__gxx_personality_v0
 176              		.cfi_lsda 0x1b,.LLSDA817
 177 0000 55       		pushq	%rbp
 178              		.cfi_def_cfa_offset 16
 179              		.cfi_offset 6, -16
 180 0001 4889E5   		movq	%rsp, %rbp
 181              		.cfi_def_cfa_register 6
 182 0004 53       		pushq	%rbx
 183 0005 4883EC58 		subq	$88, %rsp
 184              		.cfi_offset 3, -24
 185 0009 48897DA8 		movq	%rdi, -88(%rbp)
 186 000d 488975A0 		movq	%rsi, -96(%rbp)
   9:DeferredTestReporter.cpp ****     m_results.push_back(DeferredTestResult(details.suiteName, details.testName));
 187              		.loc 3 9 0
 188 0011 488B45A0 		movq	-96(%rbp), %rax
 189 0015 488B5008 		movq	8(%rax), %rdx
 190 0019 488B45A0 		movq	-96(%rbp), %rax
 191 001d 488B08   		movq	(%rax), %rcx
 192 0020 488D45B0 		leaq	-80(%rbp), %rax
 193 0024 4889CE   		movq	%rcx, %rsi
 194 0027 4889C7   		movq	%rax, %rdi
 195              	.LEHB5:
 196 002a E8000000 		call	_ZN8UnitTest18DeferredTestResultC1EPKcS2_@PLT
 196      00
 197              	.LEHE5:
 198 002f 488B45A8 		movq	-88(%rbp), %rax
 199 0033 488D5008 		leaq	8(%rax), %rdx
 200 0037 488D45B0 		leaq	-80(%rbp), %rax
 201 003b 4889C6   		movq	%rax, %rsi
 202 003e 4889D7   		movq	%rdx, %rdi
 203              	.LEHB6:
 204 0041 E8000000 		call	_ZNSt6vectorIN8UnitTest18DeferredTestResultESaIS1_EE9push_backERKS1_@PLT
 204      00
 205              	.LEHE6:
 206              		.loc 3 9 0 is_stmt 0 discriminator 1
 207 0046 488D45B0 		leaq	-80(%rbp), %rax
 208 004a 4889C7   		movq	%rax, %rdi
 209              	.LEHB7:
 210 004d E8000000 		call	_ZN8UnitTest18DeferredTestResultD1Ev@PLT
 210      00
 211              	.LEHE7:
 212 0052 EB1A     		jmp	.L16
 213              	.L15:
 214 0054 4889C3   		movq	%rax, %rbx
 215              		.loc 3 9 0
 216 0057 488D45B0 		leaq	-80(%rbp), %rax
 217 005b 4889C7   		movq	%rax, %rdi
 218 005e E8000000 		call	_ZN8UnitTest18DeferredTestResultD1Ev@PLT
 218      00
 219 0063 4889D8   		movq	%rbx, %rax
 220 0066 4889C7   		movq	%rax, %rdi
 221              	.LEHB8:
 222 0069 E8000000 		call	_Unwind_Resume@PLT
 222      00
 223              	.LEHE8:
 224              	.L16:
  10:DeferredTestReporter.cpp **** }
 225              		.loc 3 10 0 is_stmt 1
 226 006e 4883C458 		addq	$88, %rsp
 227 0072 5B       		popq	%rbx
 228 0073 5D       		popq	%rbp
 229              		.cfi_def_cfa 7, 8
 230 0074 C3       		ret
 231              		.cfi_endproc
 232              	.LFE817:
 233              		.section	.gcc_except_table,"a",@progbits
 234              	.LLSDA817:
 235 0000 FF       		.byte	0xff
 236 0001 FF       		.byte	0xff
 237 0002 01       		.byte	0x1
 238 0003 10       		.uleb128 .LLSDACSE817-.LLSDACSB817
 239              	.LLSDACSB817:
 240 0004 2A       		.uleb128 .LEHB5-.LFB817
 241 0005 05       		.uleb128 .LEHE5-.LEHB5
 242 0006 00       		.uleb128 0
 243 0007 00       		.uleb128 0
 244 0008 41       		.uleb128 .LEHB6-.LFB817
 245 0009 05       		.uleb128 .LEHE6-.LEHB6
 246 000a 54       		.uleb128 .L15-.LFB817
 247 000b 00       		.uleb128 0
 248 000c 4D       		.uleb128 .LEHB7-.LFB817
 249 000d 05       		.uleb128 .LEHE7-.LEHB7
 250 000e 00       		.uleb128 0
 251 000f 00       		.uleb128 0
 252 0010 69       		.uleb128 .LEHB8-.LFB817
 253 0011 05       		.uleb128 .LEHE8-.LEHB8
 254 0012 00       		.uleb128 0
 255 0013 00       		.uleb128 0
 256              	.LLSDACSE817:
 257              		.text
 259              		.section	.text._ZNSt4pairIiSsED2Ev,"axG",@progbits,_ZNSt4pairIiSsED5Ev,comdat
 260              		.align 2
 261              		.weak	_ZNSt4pairIiSsED2Ev
 263              	_ZNSt4pairIiSsED2Ev:
 264              	.LFB823:
 265              		.file 4 "/usr/include/c++/4.8/bits/stl_pair.h"
   1:/usr/include/c++/4.8/bits/stl_pair.h **** // Pair implementation -*- C++ -*-
   2:/usr/include/c++/4.8/bits/stl_pair.h **** 
   3:/usr/include/c++/4.8/bits/stl_pair.h **** // Copyright (C) 2001-2013 Free Software Foundation, Inc.
   4:/usr/include/c++/4.8/bits/stl_pair.h **** //
   5:/usr/include/c++/4.8/bits/stl_pair.h **** // This file is part of the GNU ISO C++ Library.  This library is free
   6:/usr/include/c++/4.8/bits/stl_pair.h **** // software; you can redistribute it and/or modify it under the
   7:/usr/include/c++/4.8/bits/stl_pair.h **** // terms of the GNU General Public License as published by the
   8:/usr/include/c++/4.8/bits/stl_pair.h **** // Free Software Foundation; either version 3, or (at your option)
   9:/usr/include/c++/4.8/bits/stl_pair.h **** // any later version.
  10:/usr/include/c++/4.8/bits/stl_pair.h **** 
  11:/usr/include/c++/4.8/bits/stl_pair.h **** // This library is distributed in the hope that it will be useful,
  12:/usr/include/c++/4.8/bits/stl_pair.h **** // but WITHOUT ANY WARRANTY; without even the implied warranty of
  13:/usr/include/c++/4.8/bits/stl_pair.h **** // MERCHANTABILITY or FITNESS FOR A PARTICULAR PURPOSE.  See the
  14:/usr/include/c++/4.8/bits/stl_pair.h **** // GNU General Public License for more details.
  15:/usr/include/c++/4.8/bits/stl_pair.h **** 
  16:/usr/include/c++/4.8/bits/stl_pair.h **** // Under Section 7 of GPL version 3, you are granted additional
  17:/usr/include/c++/4.8/bits/stl_pair.h **** // permissions described in the GCC Runtime Library Exception, version
  18:/usr/include/c++/4.8/bits/stl_pair.h **** // 3.1, as published by the Free Software Foundation.
  19:/usr/include/c++/4.8/bits/stl_pair.h **** 
  20:/usr/include/c++/4.8/bits/stl_pair.h **** // You should have received a copy of the GNU General Public License and
  21:/usr/include/c++/4.8/bits/stl_pair.h **** // a copy of the GCC Runtime Library Exception along with this program;
  22:/usr/include/c++/4.8/bits/stl_pair.h **** // see the files COPYING3 and COPYING.RUNTIME respectively.  If not, see
  23:/usr/include/c++/4.8/bits/stl_pair.h **** // <http://www.gnu.org/licenses/>.
  24:/usr/include/c++/4.8/bits/stl_pair.h **** 
  25:/usr/include/c++/4.8/bits/stl_pair.h **** /*
  26:/usr/include/c++/4.8/bits/stl_pair.h ****  *
  27:/usr/include/c++/4.8/bits/stl_pair.h ****  * Copyright (c) 1994
  28:/usr/include/c++/4.8/bits/stl_pair.h ****  * Hewlett-Packard Company
  29:/usr/include/c++/4.8/bits/stl_pair.h ****  *
  30:/usr/include/c++/4.8/bits/stl_pair.h ****  * Permission to use, copy, modify, distribute and sell this software
  31:/usr/include/c++/4.8/bits/stl_pair.h ****  * and its documentation for any purpose is hereby granted without fee,
  32:/usr/include/c++/4.8/bits/stl_pair.h ****  * provided that the above copyright notice appear in all copies and
  33:/usr/include/c++/4.8/bits/stl_pair.h ****  * that both that copyright notice and this permission notice appear
  34:/usr/include/c++/4.8/bits/stl_pair.h ****  * in supporting documentation.  Hewlett-Packard Company makes no
  35:/usr/include/c++/4.8/bits/stl_pair.h ****  * representations about the suitability of this software for any
  36:/usr/include/c++/4.8/bits/stl_pair.h ****  * purpose.  It is provided "as is" without express or implied warranty.
  37:/usr/include/c++/4.8/bits/stl_pair.h ****  *
  38:/usr/include/c++/4.8/bits/stl_pair.h ****  *
  39:/usr/include/c++/4.8/bits/stl_pair.h ****  * Copyright (c) 1996,1997
  40:/usr/include/c++/4.8/bits/stl_pair.h ****  * Silicon Graphics Computer Systems, Inc.
  41:/usr/include/c++/4.8/bits/stl_pair.h ****  *
  42:/usr/include/c++/4.8/bits/stl_pair.h ****  * Permission to use, copy, modify, distribute and sell this software
  43:/usr/include/c++/4.8/bits/stl_pair.h ****  * and its documentation for any purpose is hereby granted without fee,
  44:/usr/include/c++/4.8/bits/stl_pair.h ****  * provided that the above copyright notice appear in all copies and
  45:/usr/include/c++/4.8/bits/stl_pair.h ****  * that both that copyright notice and this permission notice appear
  46:/usr/include/c++/4.8/bits/stl_pair.h ****  * in supporting documentation.  Silicon Graphics makes no
  47:/usr/include/c++/4.8/bits/stl_pair.h ****  * representations about the suitability of this software for any
  48:/usr/include/c++/4.8/bits/stl_pair.h ****  * purpose.  It is provided "as is" without express or implied warranty.
  49:/usr/include/c++/4.8/bits/stl_pair.h ****  */
  50:/usr/include/c++/4.8/bits/stl_pair.h **** 
  51:/usr/include/c++/4.8/bits/stl_pair.h **** /** @file bits/stl_pair.h
  52:/usr/include/c++/4.8/bits/stl_pair.h ****  *  This is an internal header file, included by other library headers.
  53:/usr/include/c++/4.8/bits/stl_pair.h ****  *  Do not attempt to use it directly. @headername{utility}
  54:/usr/include/c++/4.8/bits/stl_pair.h ****  */
  55:/usr/include/c++/4.8/bits/stl_pair.h **** 
  56:/usr/include/c++/4.8/bits/stl_pair.h **** #ifndef _STL_PAIR_H
  57:/usr/include/c++/4.8/bits/stl_pair.h **** #define _STL_PAIR_H 1
  58:/usr/include/c++/4.8/bits/stl_pair.h **** 
  59:/usr/include/c++/4.8/bits/stl_pair.h **** #include <bits/move.h> // for std::move / std::forward, and std::swap
  60:/usr/include/c++/4.8/bits/stl_pair.h **** 
  61:/usr/include/c++/4.8/bits/stl_pair.h **** #if __cplusplus >= 201103L
  62:/usr/include/c++/4.8/bits/stl_pair.h **** #include <type_traits> // for std::__decay_and_strip too
  63:/usr/include/c++/4.8/bits/stl_pair.h **** #endif
  64:/usr/include/c++/4.8/bits/stl_pair.h **** 
  65:/usr/include/c++/4.8/bits/stl_pair.h **** namespace std _GLIBCXX_VISIBILITY(default)
  66:/usr/include/c++/4.8/bits/stl_pair.h **** {
  67:/usr/include/c++/4.8/bits/stl_pair.h **** _GLIBCXX_BEGIN_NAMESPACE_VERSION
  68:/usr/include/c++/4.8/bits/stl_pair.h **** 
  69:/usr/include/c++/4.8/bits/stl_pair.h ****   /**
  70:/usr/include/c++/4.8/bits/stl_pair.h ****    *  @addtogroup utilities
  71:/usr/include/c++/4.8/bits/stl_pair.h ****    *  @{
  72:/usr/include/c++/4.8/bits/stl_pair.h ****    */
  73:/usr/include/c++/4.8/bits/stl_pair.h **** 
  74:/usr/include/c++/4.8/bits/stl_pair.h **** #if __cplusplus >= 201103L
  75:/usr/include/c++/4.8/bits/stl_pair.h ****   /// piecewise_construct_t
  76:/usr/include/c++/4.8/bits/stl_pair.h ****   struct piecewise_construct_t { };
  77:/usr/include/c++/4.8/bits/stl_pair.h **** 
  78:/usr/include/c++/4.8/bits/stl_pair.h ****   /// piecewise_construct
  79:/usr/include/c++/4.8/bits/stl_pair.h ****   constexpr piecewise_construct_t piecewise_construct = piecewise_construct_t();
  80:/usr/include/c++/4.8/bits/stl_pair.h **** 
  81:/usr/include/c++/4.8/bits/stl_pair.h ****   // Forward declarations.
  82:/usr/include/c++/4.8/bits/stl_pair.h ****   template<typename...>
  83:/usr/include/c++/4.8/bits/stl_pair.h ****     class tuple;
  84:/usr/include/c++/4.8/bits/stl_pair.h **** 
  85:/usr/include/c++/4.8/bits/stl_pair.h ****   template<std::size_t...>
  86:/usr/include/c++/4.8/bits/stl_pair.h ****     struct _Index_tuple;
  87:/usr/include/c++/4.8/bits/stl_pair.h **** #endif
  88:/usr/include/c++/4.8/bits/stl_pair.h **** 
  89:/usr/include/c++/4.8/bits/stl_pair.h ****  /**
  90:/usr/include/c++/4.8/bits/stl_pair.h ****    *  @brief Struct holding two objects of arbitrary type.
  91:/usr/include/c++/4.8/bits/stl_pair.h ****    *
  92:/usr/include/c++/4.8/bits/stl_pair.h ****    *  @tparam _T1  Type of first object.
  93:/usr/include/c++/4.8/bits/stl_pair.h ****    *  @tparam _T2  Type of second object.
  94:/usr/include/c++/4.8/bits/stl_pair.h ****    */
  95:/usr/include/c++/4.8/bits/stl_pair.h ****   template<class _T1, class _T2>
  96:/usr/include/c++/4.8/bits/stl_pair.h ****     struct pair
 266              		.loc 4 96 0
 267              		.cfi_startproc
 268 0000 55       		pushq	%rbp
 269              		.cfi_def_cfa_offset 16
 270              		.cfi_offset 6, -16
 271 0001 4889E5   		movq	%rsp, %rbp
 272              		.cfi_def_cfa_register 6
 273 0004 4883EC10 		subq	$16, %rsp
 274 0008 48897DF8 		movq	%rdi, -8(%rbp)
 275              	.LBB3:
 276              		.loc 4 96 0
 277 000c 488B45F8 		movq	-8(%rbp), %rax
 278 0010 4883C008 		addq	$8, %rax
 279 0014 4889C7   		movq	%rax, %rdi
 280 0017 E8000000 		call	_ZNSsD1Ev@PLT
 280      00
 281              	.LBE3:
 282 001c C9       		leave
 283              		.cfi_def_cfa 7, 8
 284 001d C3       		ret
 285              		.cfi_endproc
 286              	.LFE823:
 288              		.weak	_ZNSt4pairIiSsED1Ev
 289              		.set	_ZNSt4pairIiSsED1Ev,_ZNSt4pairIiSsED2Ev
 290              		.text
 291 0075 90       		.align 2
 292              		.globl	_ZN8UnitTest20DeferredTestReporter13ReportFailureERKNS_11TestDetailsEPKc
 294              	_ZN8UnitTest20DeferredTestReporter13ReportFailureERKNS_11TestDetailsEPKc:
 295              	.LFB821:
  11:DeferredTestReporter.cpp **** 
  12:DeferredTestReporter.cpp **** void DeferredTestReporter::ReportFailure(TestDetails const& details, char const* failure)
  13:DeferredTestReporter.cpp **** {
 296              		.loc 3 13 0
 297              		.cfi_startproc
 298              		.cfi_personality 0x9b,DW.ref.__gxx_personality_v0
 299              		.cfi_lsda 0x1b,.LLSDA821
 300 0076 55       		pushq	%rbp
 301              		.cfi_def_cfa_offset 16
 302              		.cfi_offset 6, -16
 303 0077 4889E5   		movq	%rsp, %rbp
 304              		.cfi_def_cfa_register 6
 305 007a 53       		pushq	%rbx
 306 007b 4883EC58 		subq	$88, %rsp
 307              		.cfi_offset 3, -24
 308 007f 48897DB8 		movq	%rdi, -72(%rbp)
 309 0083 488975B0 		movq	%rsi, -80(%rbp)
 310 0087 488955A8 		movq	%rdx, -88(%rbp)
 311              	.LBB4:
  14:DeferredTestReporter.cpp ****     DeferredTestResult& r = m_results.back();
 312              		.loc 3 14 0
 313 008b 488B45B8 		movq	-72(%rbp), %rax
 314 008f 4883C008 		addq	$8, %rax
 315 0093 4889C7   		movq	%rax, %rdi
 316              	.LEHB9:
 317 0096 E8000000 		call	_ZNSt6vectorIN8UnitTest18DeferredTestResultESaIS1_EE4backEv@PLT
 317      00
 318              	.LEHE9:
 319 009b 488945D8 		movq	%rax, -40(%rbp)
  15:DeferredTestReporter.cpp ****     r.failed = true;
 320              		.loc 3 15 0
 321 009f 488B45D8 		movq	-40(%rbp), %rax
 322 00a3 C6403401 		movb	$1, 52(%rax)
  16:DeferredTestReporter.cpp ****     r.failures.push_back(DeferredTestResult::Failure(details.lineNumber, failure));
 323              		.loc 3 16 0
 324 00a7 488D45CF 		leaq	-49(%rbp), %rax
 325 00ab 4889C7   		movq	%rax, %rdi
 326 00ae E8000000 		call	_ZNSaIcEC1Ev@PLT
 326      00
 327 00b3 488D55CF 		leaq	-49(%rbp), %rdx
 328 00b7 488B4DA8 		movq	-88(%rbp), %rcx
 329 00bb 488D45D0 		leaq	-48(%rbp), %rax
 330 00bf 4889CE   		movq	%rcx, %rsi
 331 00c2 4889C7   		movq	%rax, %rdi
 332              	.LEHB10:
 333 00c5 E8000000 		call	_ZNSsC1EPKcRKSaIcE@PLT
 333      00
 334              	.LEHE10:
 335              		.loc 3 16 0 is_stmt 0 discriminator 1
 336 00ca 488B45B0 		movq	-80(%rbp), %rax
 337 00ce 488D4818 		leaq	24(%rax), %rcx
 338 00d2 488D55D0 		leaq	-48(%rbp), %rdx
 339 00d6 488D45E0 		leaq	-32(%rbp), %rax
 340 00da 4889CE   		movq	%rcx, %rsi
 341 00dd 4889C7   		movq	%rax, %rdi
 342              	.LEHB11:
 343 00e0 E8000000 		call	_ZNSt4pairIiSsEC1ERKiRKSs@PLT
 343      00
 344              	.LEHE11:
 345              		.loc 3 16 0 discriminator 2
 346 00e5 488B45D8 		movq	-40(%rbp), %rax
 347 00e9 488D5018 		leaq	24(%rax), %rdx
 348 00ed 488D45E0 		leaq	-32(%rbp), %rax
 349 00f1 4889C6   		movq	%rax, %rsi
 350 00f4 4889D7   		movq	%rdx, %rdi
 351              	.LEHB12:
 352 00f7 E8000000 		call	_ZNSt6vectorISt4pairIiSsESaIS1_EE9push_backERKS1_@PLT
 352      00
 353              	.LEHE12:
 354              		.loc 3 16 0 discriminator 1
 355 00fc 488D45E0 		leaq	-32(%rbp), %rax
 356 0100 4889C7   		movq	%rax, %rdi
 357              	.LEHB13:
 358 0103 E8000000 		call	_ZNSt4pairIiSsED1Ev@PLT
 358      00
 359              	.LEHE13:
 360              		.loc 3 16 0 discriminator 3
 361 0108 488D45D0 		leaq	-48(%rbp), %rax
 362 010c 4889C7   		movq	%rax, %rdi
 363              	.LEHB14:
 364 010f E8000000 		call	_ZNSsD1Ev@PLT
 364      00
 365              	.LEHE14:
 366              		.loc 3 16 0 discriminator 4
 367 0114 488D45CF 		leaq	-49(%rbp), %rax
 368 0118 4889C7   		movq	%rax, %rdi
 369 011b E8000000 		call	_ZNSaIcED1Ev@PLT
 369      00
  17:DeferredTestReporter.cpp ****     r.failureFile = details.filename;
 370              		.loc 3 17 0 is_stmt 1 discriminator 4
 371 0120 488B45B0 		movq	-80(%rbp), %rax
 372 0124 488B4010 		movq	16(%rax), %rax
 373 0128 488B55D8 		movq	-40(%rbp), %rdx
 374 012c 4883C210 		addq	$16, %rdx
 375 0130 4889C6   		movq	%rax, %rsi
 376 0133 4889D7   		movq	%rdx, %rdi
 377              	.LEHB15:
 378 0136 E8000000 		call	_ZNSsaSEPKc@PLT
 378      00
 379              	.LEHE15:
 380 013b EB3C     		jmp	.L26
 381              	.L25:
 382 013d 4889C3   		movq	%rax, %rbx
  16:DeferredTestReporter.cpp ****     r.failures.push_back(DeferredTestResult::Failure(details.lineNumber, failure));
 383              		.loc 3 16 0
 384 0140 488D45E0 		leaq	-32(%rbp), %rax
 385 0144 4889C7   		movq	%rax, %rdi
 386 0147 E8000000 		call	_ZNSt4pairIiSsED1Ev@PLT
 386      00
 387 014c EB03     		jmp	.L21
 388              	.L24:
 389 014e 4889C3   		movq	%rax, %rbx
 390              	.L21:
 391 0151 488D45D0 		leaq	-48(%rbp), %rax
 392 0155 4889C7   		movq	%rax, %rdi
 393 0158 E8000000 		call	_ZNSsD1Ev@PLT
 393      00
 394 015d EB03     		jmp	.L22
 395              	.L23:
 396 015f 4889C3   		movq	%rax, %rbx
 397              	.L22:
 398 0162 488D45CF 		leaq	-49(%rbp), %rax
 399 0166 4889C7   		movq	%rax, %rdi
 400 0169 E8000000 		call	_ZNSaIcED1Ev@PLT
 400      00
 401 016e 4889D8   		movq	%rbx, %rax
 402 0171 4889C7   		movq	%rax, %rdi
 403              	.LEHB16:
 404 0174 E8000000 		call	_Unwind_Resume@PLT
 404      00
 405              	.LEHE16:
 406              	.L26:
 407              	.LBE4:
  18:DeferredTestReporter.cpp **** }
 408              		.loc 3 18 0
 409 0179 4883C458 		addq	$88, %rsp
 410 017d 5B       		popq	%rbx
 411 017e 5D       		popq	%rbp
 412              		.cfi_def_cfa 7, 8
 413 017f C3       		ret
 414              		.cfi_endproc
 415              	.LFE821:
 416              		.section	.gcc_except_table
 417              	.LLSDA821:
 418 0014 FF       		.byte	0xff
 419 0015 FF       		.byte	0xff
 420 0016 01       		.byte	0x1
 421 0017 2A       		.uleb128 .LLSDACSE821-.LLSDACSB821
 422              	.LLSDACSB821:
 423 0018 20       		.uleb128 .LEHB9-.LFB821
 424 0019 05       		.uleb128 .LEHE9-.LEHB9
 425 001a 00       		.uleb128 0
 426 001b 00       		.uleb128 0
 427 001c 4F       		.uleb128 .LEHB10-.LFB821
 428 001d 05       		.uleb128 .LEHE10-.LEHB10
 429 001e E901     		.uleb128 .L23-.LFB821
 430 0020 00       		.uleb128 0
 431 0021 6A       		.uleb128 .LEHB11-.LFB821
 432 0022 05       		.uleb128 .LEHE11-.LEHB11
 433 0023 D801     		.uleb128 .L24-.LFB821
 434 0025 00       		.uleb128 0
 435 0026 8101     		.uleb128 .LEHB12-.LFB821
 436 0028 05       		.uleb128 .LEHE12-.LEHB12
 437 0029 C701     		.uleb128 .L25-.LFB821
 438 002b 00       		.uleb128 0
 439 002c 8D01     		.uleb128 .LEHB13-.LFB821
 440 002e 05       		.uleb128 .LEHE13-.LEHB13
 441 002f D801     		.uleb128 .L24-.LFB821
 442 0031 00       		.uleb128 0
 443 0032 9901     		.uleb128 .LEHB14-.LFB821
 444 0034 05       		.uleb128 .LEHE14-.LEHB14
 445 0035 E901     		.uleb128 .L23-.LFB821
 446 0037 00       		.uleb128 0
 447 0038 C001     		.uleb128 .LEHB15-.LFB821
 448 003a 05       		.uleb128 .LEHE15-.LEHB15
 449 003b 00       		.uleb128 0
 450 003c 00       		.uleb128 0
 451 003d FE01     		.uleb128 .LEHB16-.LFB821
 452 003f 05       		.uleb128 .LEHE16-.LEHB16
 453 0040 00       		.uleb128 0
 454 0041 00       		.uleb128 0
 455              	.LLSDACSE821:
 456              		.text
 458              		.align 2
 459              		.globl	_ZN8UnitTest20DeferredTestReporter16ReportTestFinishERKNS_11TestDetailsEf
 461              	_ZN8UnitTest20DeferredTestReporter16ReportTestFinishERKNS_11TestDetailsEf:
 462              	.LFB825:
  19:DeferredTestReporter.cpp **** 
  20:DeferredTestReporter.cpp **** void DeferredTestReporter::ReportTestFinish(TestDetails const&, float secondsElapsed)
  21:DeferredTestReporter.cpp **** {
 463              		.loc 3 21 0
 464              		.cfi_startproc
 465 0180 55       		pushq	%rbp
 466              		.cfi_def_cfa_offset 16
 467              		.cfi_offset 6, -16
 468 0181 4889E5   		movq	%rsp, %rbp
 469              		.cfi_def_cfa_register 6
 470 0184 4883EC30 		subq	$48, %rsp
 471 0188 48897DE8 		movq	%rdi, -24(%rbp)
 472 018c 488975E0 		movq	%rsi, -32(%rbp)
 473 0190 F30F1145 		movss	%xmm0, -36(%rbp)
 473      DC
 474              	.LBB5:
  22:DeferredTestReporter.cpp ****     DeferredTestResult& r = m_results.back();
 475              		.loc 3 22 0
 476 0195 488B45E8 		movq	-24(%rbp), %rax
 477 0199 4883C008 		addq	$8, %rax
 478 019d 4889C7   		movq	%rax, %rdi
 479 01a0 E8000000 		call	_ZNSt6vectorIN8UnitTest18DeferredTestResultESaIS1_EE4backEv@PLT
 479      00
 480 01a5 488945F8 		movq	%rax, -8(%rbp)
  23:DeferredTestReporter.cpp ****     r.timeElapsed = secondsElapsed;
 481              		.loc 3 23 0
 482 01a9 488B55F8 		movq	-8(%rbp), %rdx
 483 01ad 8B45DC   		movl	-36(%rbp), %eax
 484 01b0 894230   		movl	%eax, 48(%rdx)
 485              	.LBE5:
  24:DeferredTestReporter.cpp **** }
 486              		.loc 3 24 0
 487 01b3 C9       		leave
 488              		.cfi_def_cfa 7, 8
 489 01b4 C3       		ret
 490              		.cfi_endproc
 491              	.LFE825:
 493 01b5 90       		.align 2
 494              		.globl	_ZN8UnitTest20DeferredTestReporter10GetResultsEv
 496              	_ZN8UnitTest20DeferredTestReporter10GetResultsEv:
 497              	.LFB826:
  25:DeferredTestReporter.cpp **** 
  26:DeferredTestReporter.cpp **** DeferredTestReporter::DeferredTestResultList& DeferredTestReporter::GetResults()
  27:DeferredTestReporter.cpp **** {
 498              		.loc 3 27 0
 499              		.cfi_startproc
 500 01b6 55       		pushq	%rbp
 501              		.cfi_def_cfa_offset 16
 502              		.cfi_offset 6, -16
 503 01b7 4889E5   		movq	%rsp, %rbp
 504              		.cfi_def_cfa_register 6
 505 01ba 48897DF8 		movq	%rdi, -8(%rbp)
  28:DeferredTestReporter.cpp ****     return m_results;
 506              		.loc 3 28 0
 507 01be 488B45F8 		movq	-8(%rbp), %rax
 508 01c2 4883C008 		addq	$8, %rax
  29:DeferredTestReporter.cpp **** }
 509              		.loc 3 29 0
 510 01c6 5D       		popq	%rbp
 511              		.cfi_def_cfa 7, 8
 512 01c7 C3       		ret
 513              		.cfi_endproc
 514              	.LFE826:
 516              		.section	.text._ZNSt6vectorISt4pairIiSsESaIS1_EED2Ev,"axG",@progbits,_ZNSt6vectorISt4pairIiSsESaIS
 517              		.align 2
 518              		.weak	_ZNSt6vectorISt4pairIiSsESaIS1_EED2Ev
 520              	_ZNSt6vectorISt4pairIiSsESaIS1_EED2Ev:
 521              	.LFB835:
 522              		.file 5 "/usr/include/c++/4.8/bits/stl_vector.h"
   1:/usr/include/c++/4.8/bits/stl_vector.h **** // Vector implementation -*- C++ -*-
   2:/usr/include/c++/4.8/bits/stl_vector.h **** 
   3:/usr/include/c++/4.8/bits/stl_vector.h **** // Copyright (C) 2001-2013 Free Software Foundation, Inc.
   4:/usr/include/c++/4.8/bits/stl_vector.h **** //
   5:/usr/include/c++/4.8/bits/stl_vector.h **** // This file is part of the GNU ISO C++ Library.  This library is free
   6:/usr/include/c++/4.8/bits/stl_vector.h **** // software; you can redistribute it and/or modify it under the
   7:/usr/include/c++/4.8/bits/stl_vector.h **** // terms of the GNU General Public License as published by the
   8:/usr/include/c++/4.8/bits/stl_vector.h **** // Free Software Foundation; either version 3, or (at your option)
   9:/usr/include/c++/4.8/bits/stl_vector.h **** // any later version.
  10:/usr/include/c++/4.8/bits/stl_vector.h **** 
  11:/usr/include/c++/4.8/bits/stl_vector.h **** // This library is distributed in the hope that it will be useful,
  12:/usr/include/c++/4.8/bits/stl_vector.h **** // but WITHOUT ANY WARRANTY; without even the implied warranty of
  13:/usr/include/c++/4.8/bits/stl_vector.h **** // MERCHANTABILITY or FITNESS FOR A PARTICULAR PURPOSE.  See the
  14:/usr/include/c++/4.8/bits/stl_vector.h **** // GNU General Public License for more details.
  15:/usr/include/c++/4.8/bits/stl_vector.h **** 
  16:/usr/include/c++/4.8/bits/stl_vector.h **** // Under Section 7 of GPL version 3, you are granted additional
  17:/usr/include/c++/4.8/bits/stl_vector.h **** // permissions described in the GCC Runtime Library Exception, version
  18:/usr/include/c++/4.8/bits/stl_vector.h **** // 3.1, as published by the Free Software Foundation.
  19:/usr/include/c++/4.8/bits/stl_vector.h **** 
  20:/usr/include/c++/4.8/bits/stl_vector.h **** // You should have received a copy of the GNU General Public License and
  21:/usr/include/c++/4.8/bits/stl_vector.h **** // a copy of the GCC Runtime Library Exception along with this program;
  22:/usr/include/c++/4.8/bits/stl_vector.h **** // see the files COPYING3 and COPYING.RUNTIME respectively.  If not, see
  23:/usr/include/c++/4.8/bits/stl_vector.h **** // <http://www.gnu.org/licenses/>.
  24:/usr/include/c++/4.8/bits/stl_vector.h **** 
  25:/usr/include/c++/4.8/bits/stl_vector.h **** /*
  26:/usr/include/c++/4.8/bits/stl_vector.h ****  *
  27:/usr/include/c++/4.8/bits/stl_vector.h ****  * Copyright (c) 1994
  28:/usr/include/c++/4.8/bits/stl_vector.h ****  * Hewlett-Packard Company
  29:/usr/include/c++/4.8/bits/stl_vector.h ****  *
  30:/usr/include/c++/4.8/bits/stl_vector.h ****  * Permission to use, copy, modify, distribute and sell this software
  31:/usr/include/c++/4.8/bits/stl_vector.h ****  * and its documentation for any purpose is hereby granted without fee,
  32:/usr/include/c++/4.8/bits/stl_vector.h ****  * provided that the above copyright notice appear in all copies and
  33:/usr/include/c++/4.8/bits/stl_vector.h ****  * that both that copyright notice and this permission notice appear
  34:/usr/include/c++/4.8/bits/stl_vector.h ****  * in supporting documentation.  Hewlett-Packard Company makes no
  35:/usr/include/c++/4.8/bits/stl_vector.h ****  * representations about the suitability of this software for any
  36:/usr/include/c++/4.8/bits/stl_vector.h ****  * purpose.  It is provided "as is" without express or implied warranty.
  37:/usr/include/c++/4.8/bits/stl_vector.h ****  *
  38:/usr/include/c++/4.8/bits/stl_vector.h ****  *
  39:/usr/include/c++/4.8/bits/stl_vector.h ****  * Copyright (c) 1996
  40:/usr/include/c++/4.8/bits/stl_vector.h ****  * Silicon Graphics Computer Systems, Inc.
  41:/usr/include/c++/4.8/bits/stl_vector.h ****  *
  42:/usr/include/c++/4.8/bits/stl_vector.h ****  * Permission to use, copy, modify, distribute and sell this software
  43:/usr/include/c++/4.8/bits/stl_vector.h ****  * and its documentation for any purpose is hereby granted without fee,
  44:/usr/include/c++/4.8/bits/stl_vector.h ****  * provided that the above copyright notice appear in all copies and
  45:/usr/include/c++/4.8/bits/stl_vector.h ****  * that both that copyright notice and this permission notice appear
  46:/usr/include/c++/4.8/bits/stl_vector.h ****  * in supporting documentation.  Silicon Graphics makes no
  47:/usr/include/c++/4.8/bits/stl_vector.h ****  * representations about the suitability of this  software for any
  48:/usr/include/c++/4.8/bits/stl_vector.h ****  * purpose.  It is provided "as is" without express or implied warranty.
  49:/usr/include/c++/4.8/bits/stl_vector.h ****  */
  50:/usr/include/c++/4.8/bits/stl_vector.h **** 
  51:/usr/include/c++/4.8/bits/stl_vector.h **** /** @file bits/stl_vector.h
  52:/usr/include/c++/4.8/bits/stl_vector.h ****  *  This is an internal header file, included by other library headers.
  53:/usr/include/c++/4.8/bits/stl_vector.h ****  *  Do not attempt to use it directly. @headername{vector}
  54:/usr/include/c++/4.8/bits/stl_vector.h ****  */
  55:/usr/include/c++/4.8/bits/stl_vector.h **** 
  56:/usr/include/c++/4.8/bits/stl_vector.h **** #ifndef _STL_VECTOR_H
  57:/usr/include/c++/4.8/bits/stl_vector.h **** #define _STL_VECTOR_H 1
  58:/usr/include/c++/4.8/bits/stl_vector.h **** 
  59:/usr/include/c++/4.8/bits/stl_vector.h **** #include <bits/stl_iterator_base_funcs.h>
  60:/usr/include/c++/4.8/bits/stl_vector.h **** #include <bits/functexcept.h>
  61:/usr/include/c++/4.8/bits/stl_vector.h **** #include <bits/concept_check.h>
  62:/usr/include/c++/4.8/bits/stl_vector.h **** #if __cplusplus >= 201103L
  63:/usr/include/c++/4.8/bits/stl_vector.h **** #include <initializer_list>
  64:/usr/include/c++/4.8/bits/stl_vector.h **** #endif
  65:/usr/include/c++/4.8/bits/stl_vector.h **** 
  66:/usr/include/c++/4.8/bits/stl_vector.h **** namespace std _GLIBCXX_VISIBILITY(default)
  67:/usr/include/c++/4.8/bits/stl_vector.h **** {
  68:/usr/include/c++/4.8/bits/stl_vector.h **** _GLIBCXX_BEGIN_NAMESPACE_CONTAINER
  69:/usr/include/c++/4.8/bits/stl_vector.h **** 
  70:/usr/include/c++/4.8/bits/stl_vector.h ****   /// See bits/stl_deque.h's _Deque_base for an explanation.
  71:/usr/include/c++/4.8/bits/stl_vector.h ****   template<typename _Tp, typename _Alloc>
  72:/usr/include/c++/4.8/bits/stl_vector.h ****     struct _Vector_base
  73:/usr/include/c++/4.8/bits/stl_vector.h ****     {
  74:/usr/include/c++/4.8/bits/stl_vector.h ****       typedef typename __gnu_cxx::__alloc_traits<_Alloc>::template
  75:/usr/include/c++/4.8/bits/stl_vector.h ****         rebind<_Tp>::other _Tp_alloc_type;
  76:/usr/include/c++/4.8/bits/stl_vector.h ****       typedef typename __gnu_cxx::__alloc_traits<_Tp_alloc_type>::pointer
  77:/usr/include/c++/4.8/bits/stl_vector.h ****        	pointer;
  78:/usr/include/c++/4.8/bits/stl_vector.h **** 
  79:/usr/include/c++/4.8/bits/stl_vector.h ****       struct _Vector_impl 
  80:/usr/include/c++/4.8/bits/stl_vector.h ****       : public _Tp_alloc_type
  81:/usr/include/c++/4.8/bits/stl_vector.h ****       {
  82:/usr/include/c++/4.8/bits/stl_vector.h **** 	pointer _M_start;
  83:/usr/include/c++/4.8/bits/stl_vector.h **** 	pointer _M_finish;
  84:/usr/include/c++/4.8/bits/stl_vector.h **** 	pointer _M_end_of_storage;
  85:/usr/include/c++/4.8/bits/stl_vector.h **** 
  86:/usr/include/c++/4.8/bits/stl_vector.h **** 	_Vector_impl()
  87:/usr/include/c++/4.8/bits/stl_vector.h **** 	: _Tp_alloc_type(), _M_start(0), _M_finish(0), _M_end_of_storage(0)
  88:/usr/include/c++/4.8/bits/stl_vector.h **** 	{ }
  89:/usr/include/c++/4.8/bits/stl_vector.h **** 
  90:/usr/include/c++/4.8/bits/stl_vector.h **** 	_Vector_impl(_Tp_alloc_type const& __a)
  91:/usr/include/c++/4.8/bits/stl_vector.h **** 	: _Tp_alloc_type(__a), _M_start(0), _M_finish(0), _M_end_of_storage(0)
  92:/usr/include/c++/4.8/bits/stl_vector.h **** 	{ }
  93:/usr/include/c++/4.8/bits/stl_vector.h **** 
  94:/usr/include/c++/4.8/bits/stl_vector.h **** #if __cplusplus >= 201103L
  95:/usr/include/c++/4.8/bits/stl_vector.h **** 	_Vector_impl(_Tp_alloc_type&& __a)
  96:/usr/include/c++/4.8/bits/stl_vector.h **** 	: _Tp_alloc_type(std::move(__a)),
  97:/usr/include/c++/4.8/bits/stl_vector.h **** 	  _M_start(0), _M_finish(0), _M_end_of_storage(0)
  98:/usr/include/c++/4.8/bits/stl_vector.h **** 	{ }
  99:/usr/include/c++/4.8/bits/stl_vector.h **** #endif
 100:/usr/include/c++/4.8/bits/stl_vector.h **** 
 101:/usr/include/c++/4.8/bits/stl_vector.h **** 	void _M_swap_data(_Vector_impl& __x)
 102:/usr/include/c++/4.8/bits/stl_vector.h **** 	{
 103:/usr/include/c++/4.8/bits/stl_vector.h **** 	  std::swap(_M_start, __x._M_start);
 104:/usr/include/c++/4.8/bits/stl_vector.h **** 	  std::swap(_M_finish, __x._M_finish);
 105:/usr/include/c++/4.8/bits/stl_vector.h **** 	  std::swap(_M_end_of_storage, __x._M_end_of_storage);
 106:/usr/include/c++/4.8/bits/stl_vector.h **** 	}
 107:/usr/include/c++/4.8/bits/stl_vector.h ****       };
 108:/usr/include/c++/4.8/bits/stl_vector.h ****       
 109:/usr/include/c++/4.8/bits/stl_vector.h ****     public:
 110:/usr/include/c++/4.8/bits/stl_vector.h ****       typedef _Alloc allocator_type;
 111:/usr/include/c++/4.8/bits/stl_vector.h **** 
 112:/usr/include/c++/4.8/bits/stl_vector.h ****       _Tp_alloc_type&
 113:/usr/include/c++/4.8/bits/stl_vector.h ****       _M_get_Tp_allocator() _GLIBCXX_NOEXCEPT
 114:/usr/include/c++/4.8/bits/stl_vector.h ****       { return *static_cast<_Tp_alloc_type*>(&this->_M_impl); }
 115:/usr/include/c++/4.8/bits/stl_vector.h **** 
 116:/usr/include/c++/4.8/bits/stl_vector.h ****       const _Tp_alloc_type&
 117:/usr/include/c++/4.8/bits/stl_vector.h ****       _M_get_Tp_allocator() const _GLIBCXX_NOEXCEPT
 118:/usr/include/c++/4.8/bits/stl_vector.h ****       { return *static_cast<const _Tp_alloc_type*>(&this->_M_impl); }
 119:/usr/include/c++/4.8/bits/stl_vector.h **** 
 120:/usr/include/c++/4.8/bits/stl_vector.h ****       allocator_type
 121:/usr/include/c++/4.8/bits/stl_vector.h ****       get_allocator() const _GLIBCXX_NOEXCEPT
 122:/usr/include/c++/4.8/bits/stl_vector.h ****       { return allocator_type(_M_get_Tp_allocator()); }
 123:/usr/include/c++/4.8/bits/stl_vector.h **** 
 124:/usr/include/c++/4.8/bits/stl_vector.h ****       _Vector_base()
 125:/usr/include/c++/4.8/bits/stl_vector.h ****       : _M_impl() { }
 126:/usr/include/c++/4.8/bits/stl_vector.h **** 
 127:/usr/include/c++/4.8/bits/stl_vector.h ****       _Vector_base(const allocator_type& __a)
 128:/usr/include/c++/4.8/bits/stl_vector.h ****       : _M_impl(__a) { }
 129:/usr/include/c++/4.8/bits/stl_vector.h **** 
 130:/usr/include/c++/4.8/bits/stl_vector.h ****       _Vector_base(size_t __n)
 131:/usr/include/c++/4.8/bits/stl_vector.h ****       : _M_impl()
 132:/usr/include/c++/4.8/bits/stl_vector.h ****       { _M_create_storage(__n); }
 133:/usr/include/c++/4.8/bits/stl_vector.h **** 
 134:/usr/include/c++/4.8/bits/stl_vector.h ****       _Vector_base(size_t __n, const allocator_type& __a)
 135:/usr/include/c++/4.8/bits/stl_vector.h ****       : _M_impl(__a)
 136:/usr/include/c++/4.8/bits/stl_vector.h ****       { _M_create_storage(__n); }
 137:/usr/include/c++/4.8/bits/stl_vector.h **** 
 138:/usr/include/c++/4.8/bits/stl_vector.h **** #if __cplusplus >= 201103L
 139:/usr/include/c++/4.8/bits/stl_vector.h ****       _Vector_base(_Tp_alloc_type&& __a)
 140:/usr/include/c++/4.8/bits/stl_vector.h ****       : _M_impl(std::move(__a)) { }
 141:/usr/include/c++/4.8/bits/stl_vector.h **** 
 142:/usr/include/c++/4.8/bits/stl_vector.h ****       _Vector_base(_Vector_base&& __x)
 143:/usr/include/c++/4.8/bits/stl_vector.h ****       : _M_impl(std::move(__x._M_get_Tp_allocator()))
 144:/usr/include/c++/4.8/bits/stl_vector.h ****       { this->_M_impl._M_swap_data(__x._M_impl); }
 145:/usr/include/c++/4.8/bits/stl_vector.h **** 
 146:/usr/include/c++/4.8/bits/stl_vector.h ****       _Vector_base(_Vector_base&& __x, const allocator_type& __a)
 147:/usr/include/c++/4.8/bits/stl_vector.h ****       : _M_impl(__a)
 148:/usr/include/c++/4.8/bits/stl_vector.h ****       {
 149:/usr/include/c++/4.8/bits/stl_vector.h **** 	if (__x.get_allocator() == __a)
 150:/usr/include/c++/4.8/bits/stl_vector.h **** 	  this->_M_impl._M_swap_data(__x._M_impl);
 151:/usr/include/c++/4.8/bits/stl_vector.h **** 	else
 152:/usr/include/c++/4.8/bits/stl_vector.h **** 	  {
 153:/usr/include/c++/4.8/bits/stl_vector.h **** 	    size_t __n = __x._M_impl._M_finish - __x._M_impl._M_start;
 154:/usr/include/c++/4.8/bits/stl_vector.h **** 	    _M_create_storage(__n);
 155:/usr/include/c++/4.8/bits/stl_vector.h **** 	  }
 156:/usr/include/c++/4.8/bits/stl_vector.h ****       }
 157:/usr/include/c++/4.8/bits/stl_vector.h **** #endif
 158:/usr/include/c++/4.8/bits/stl_vector.h **** 
 159:/usr/include/c++/4.8/bits/stl_vector.h ****       ~_Vector_base()
 160:/usr/include/c++/4.8/bits/stl_vector.h ****       { _M_deallocate(this->_M_impl._M_start, this->_M_impl._M_end_of_storage
 161:/usr/include/c++/4.8/bits/stl_vector.h **** 		      - this->_M_impl._M_start); }
 162:/usr/include/c++/4.8/bits/stl_vector.h **** 
 163:/usr/include/c++/4.8/bits/stl_vector.h ****     public:
 164:/usr/include/c++/4.8/bits/stl_vector.h ****       _Vector_impl _M_impl;
 165:/usr/include/c++/4.8/bits/stl_vector.h **** 
 166:/usr/include/c++/4.8/bits/stl_vector.h ****       pointer
 167:/usr/include/c++/4.8/bits/stl_vector.h ****       _M_allocate(size_t __n)
 168:/usr/include/c++/4.8/bits/stl_vector.h ****       { return __n != 0 ? _M_impl.allocate(__n) : 0; }
 169:/usr/include/c++/4.8/bits/stl_vector.h **** 
 170:/usr/include/c++/4.8/bits/stl_vector.h ****       void
 171:/usr/include/c++/4.8/bits/stl_vector.h ****       _M_deallocate(pointer __p, size_t __n)
 172:/usr/include/c++/4.8/bits/stl_vector.h ****       {
 173:/usr/include/c++/4.8/bits/stl_vector.h **** 	if (__p)
 174:/usr/include/c++/4.8/bits/stl_vector.h **** 	  _M_impl.deallocate(__p, __n);
 175:/usr/include/c++/4.8/bits/stl_vector.h ****       }
 176:/usr/include/c++/4.8/bits/stl_vector.h **** 
 177:/usr/include/c++/4.8/bits/stl_vector.h ****     private:
 178:/usr/include/c++/4.8/bits/stl_vector.h ****       void
 179:/usr/include/c++/4.8/bits/stl_vector.h ****       _M_create_storage(size_t __n)
 180:/usr/include/c++/4.8/bits/stl_vector.h ****       {
 181:/usr/include/c++/4.8/bits/stl_vector.h **** 	this->_M_impl._M_start = this->_M_allocate(__n);
 182:/usr/include/c++/4.8/bits/stl_vector.h **** 	this->_M_impl._M_finish = this->_M_impl._M_start;
 183:/usr/include/c++/4.8/bits/stl_vector.h **** 	this->_M_impl._M_end_of_storage = this->_M_impl._M_start + __n;
 184:/usr/include/c++/4.8/bits/stl_vector.h ****       }
 185:/usr/include/c++/4.8/bits/stl_vector.h ****     };
 186:/usr/include/c++/4.8/bits/stl_vector.h **** 
 187:/usr/include/c++/4.8/bits/stl_vector.h **** 
 188:/usr/include/c++/4.8/bits/stl_vector.h ****   /**
 189:/usr/include/c++/4.8/bits/stl_vector.h ****    *  @brief A standard container which offers fixed time access to
 190:/usr/include/c++/4.8/bits/stl_vector.h ****    *  individual elements in any order.
 191:/usr/include/c++/4.8/bits/stl_vector.h ****    *
 192:/usr/include/c++/4.8/bits/stl_vector.h ****    *  @ingroup sequences
 193:/usr/include/c++/4.8/bits/stl_vector.h ****    *
 194:/usr/include/c++/4.8/bits/stl_vector.h ****    *  @tparam _Tp  Type of element.
 195:/usr/include/c++/4.8/bits/stl_vector.h ****    *  @tparam _Alloc  Allocator type, defaults to allocator<_Tp>.
 196:/usr/include/c++/4.8/bits/stl_vector.h ****    *
 197:/usr/include/c++/4.8/bits/stl_vector.h ****    *  Meets the requirements of a <a href="tables.html#65">container</a>, a
 198:/usr/include/c++/4.8/bits/stl_vector.h ****    *  <a href="tables.html#66">reversible container</a>, and a
 199:/usr/include/c++/4.8/bits/stl_vector.h ****    *  <a href="tables.html#67">sequence</a>, including the
 200:/usr/include/c++/4.8/bits/stl_vector.h ****    *  <a href="tables.html#68">optional sequence requirements</a> with the
 201:/usr/include/c++/4.8/bits/stl_vector.h ****    *  %exception of @c push_front and @c pop_front.
 202:/usr/include/c++/4.8/bits/stl_vector.h ****    *
 203:/usr/include/c++/4.8/bits/stl_vector.h ****    *  In some terminology a %vector can be described as a dynamic
 204:/usr/include/c++/4.8/bits/stl_vector.h ****    *  C-style array, it offers fast and efficient access to individual
 205:/usr/include/c++/4.8/bits/stl_vector.h ****    *  elements in any order and saves the user from worrying about
 206:/usr/include/c++/4.8/bits/stl_vector.h ****    *  memory and size allocation.  Subscripting ( @c [] ) access is
 207:/usr/include/c++/4.8/bits/stl_vector.h ****    *  also provided as with C-style arrays.
 208:/usr/include/c++/4.8/bits/stl_vector.h ****   */
 209:/usr/include/c++/4.8/bits/stl_vector.h ****   template<typename _Tp, typename _Alloc = std::allocator<_Tp> >
 210:/usr/include/c++/4.8/bits/stl_vector.h ****     class vector : protected _Vector_base<_Tp, _Alloc>
 211:/usr/include/c++/4.8/bits/stl_vector.h ****     {
 212:/usr/include/c++/4.8/bits/stl_vector.h ****       // Concept requirements.
 213:/usr/include/c++/4.8/bits/stl_vector.h ****       typedef typename _Alloc::value_type                _Alloc_value_type;
 214:/usr/include/c++/4.8/bits/stl_vector.h ****       __glibcxx_class_requires(_Tp, _SGIAssignableConcept)
 215:/usr/include/c++/4.8/bits/stl_vector.h ****       __glibcxx_class_requires2(_Tp, _Alloc_value_type, _SameTypeConcept)
 216:/usr/include/c++/4.8/bits/stl_vector.h ****       
 217:/usr/include/c++/4.8/bits/stl_vector.h ****       typedef _Vector_base<_Tp, _Alloc>			 _Base;
 218:/usr/include/c++/4.8/bits/stl_vector.h ****       typedef typename _Base::_Tp_alloc_type		 _Tp_alloc_type;
 219:/usr/include/c++/4.8/bits/stl_vector.h ****       typedef __gnu_cxx::__alloc_traits<_Tp_alloc_type>  _Alloc_traits;
 220:/usr/include/c++/4.8/bits/stl_vector.h **** 
 221:/usr/include/c++/4.8/bits/stl_vector.h ****     public:
 222:/usr/include/c++/4.8/bits/stl_vector.h ****       typedef _Tp					 value_type;
 223:/usr/include/c++/4.8/bits/stl_vector.h ****       typedef typename _Base::pointer                    pointer;
 224:/usr/include/c++/4.8/bits/stl_vector.h ****       typedef typename _Alloc_traits::const_pointer      const_pointer;
 225:/usr/include/c++/4.8/bits/stl_vector.h ****       typedef typename _Alloc_traits::reference          reference;
 226:/usr/include/c++/4.8/bits/stl_vector.h ****       typedef typename _Alloc_traits::const_reference    const_reference;
 227:/usr/include/c++/4.8/bits/stl_vector.h ****       typedef __gnu_cxx::__normal_iterator<pointer, vector> iterator;
 228:/usr/include/c++/4.8/bits/stl_vector.h ****       typedef __gnu_cxx::__normal_iterator<const_pointer, vector>
 229:/usr/include/c++/4.8/bits/stl_vector.h ****       const_iterator;
 230:/usr/include/c++/4.8/bits/stl_vector.h ****       typedef std::reverse_iterator<const_iterator>  const_reverse_iterator;
 231:/usr/include/c++/4.8/bits/stl_vector.h ****       typedef std::reverse_iterator<iterator>		 reverse_iterator;
 232:/usr/include/c++/4.8/bits/stl_vector.h ****       typedef size_t					 size_type;
 233:/usr/include/c++/4.8/bits/stl_vector.h ****       typedef ptrdiff_t					 difference_type;
 234:/usr/include/c++/4.8/bits/stl_vector.h ****       typedef _Alloc                        		 allocator_type;
 235:/usr/include/c++/4.8/bits/stl_vector.h **** 
 236:/usr/include/c++/4.8/bits/stl_vector.h ****     protected:
 237:/usr/include/c++/4.8/bits/stl_vector.h ****       using _Base::_M_allocate;
 238:/usr/include/c++/4.8/bits/stl_vector.h ****       using _Base::_M_deallocate;
 239:/usr/include/c++/4.8/bits/stl_vector.h ****       using _Base::_M_impl;
 240:/usr/include/c++/4.8/bits/stl_vector.h ****       using _Base::_M_get_Tp_allocator;
 241:/usr/include/c++/4.8/bits/stl_vector.h **** 
 242:/usr/include/c++/4.8/bits/stl_vector.h ****     public:
 243:/usr/include/c++/4.8/bits/stl_vector.h ****       // [23.2.4.1] construct/copy/destroy
 244:/usr/include/c++/4.8/bits/stl_vector.h ****       // (assign() and get_allocator() are also listed in this section)
 245:/usr/include/c++/4.8/bits/stl_vector.h ****       /**
 246:/usr/include/c++/4.8/bits/stl_vector.h ****        *  @brief  Default constructor creates no elements.
 247:/usr/include/c++/4.8/bits/stl_vector.h ****        */
 248:/usr/include/c++/4.8/bits/stl_vector.h ****       vector()
 249:/usr/include/c++/4.8/bits/stl_vector.h ****       : _Base() { }
 250:/usr/include/c++/4.8/bits/stl_vector.h **** 
 251:/usr/include/c++/4.8/bits/stl_vector.h ****       /**
 252:/usr/include/c++/4.8/bits/stl_vector.h ****        *  @brief  Creates a %vector with no elements.
 253:/usr/include/c++/4.8/bits/stl_vector.h ****        *  @param  __a  An allocator object.
 254:/usr/include/c++/4.8/bits/stl_vector.h ****        */
 255:/usr/include/c++/4.8/bits/stl_vector.h ****       explicit
 256:/usr/include/c++/4.8/bits/stl_vector.h ****       vector(const allocator_type& __a)
 257:/usr/include/c++/4.8/bits/stl_vector.h ****       : _Base(__a) { }
 258:/usr/include/c++/4.8/bits/stl_vector.h **** 
 259:/usr/include/c++/4.8/bits/stl_vector.h **** #if __cplusplus >= 201103L
 260:/usr/include/c++/4.8/bits/stl_vector.h ****       /**
 261:/usr/include/c++/4.8/bits/stl_vector.h ****        *  @brief  Creates a %vector with default constructed elements.
 262:/usr/include/c++/4.8/bits/stl_vector.h ****        *  @param  __n  The number of elements to initially create.
 263:/usr/include/c++/4.8/bits/stl_vector.h ****        *  @param  __a  An allocator.
 264:/usr/include/c++/4.8/bits/stl_vector.h ****        *
 265:/usr/include/c++/4.8/bits/stl_vector.h ****        *  This constructor fills the %vector with @a __n default
 266:/usr/include/c++/4.8/bits/stl_vector.h ****        *  constructed elements.
 267:/usr/include/c++/4.8/bits/stl_vector.h ****        */
 268:/usr/include/c++/4.8/bits/stl_vector.h ****       explicit
 269:/usr/include/c++/4.8/bits/stl_vector.h ****       vector(size_type __n, const allocator_type& __a = allocator_type())
 270:/usr/include/c++/4.8/bits/stl_vector.h ****       : _Base(__n, __a)
 271:/usr/include/c++/4.8/bits/stl_vector.h ****       { _M_default_initialize(__n); }
 272:/usr/include/c++/4.8/bits/stl_vector.h **** 
 273:/usr/include/c++/4.8/bits/stl_vector.h ****       /**
 274:/usr/include/c++/4.8/bits/stl_vector.h ****        *  @brief  Creates a %vector with copies of an exemplar element.
 275:/usr/include/c++/4.8/bits/stl_vector.h ****        *  @param  __n  The number of elements to initially create.
 276:/usr/include/c++/4.8/bits/stl_vector.h ****        *  @param  __value  An element to copy.
 277:/usr/include/c++/4.8/bits/stl_vector.h ****        *  @param  __a  An allocator.
 278:/usr/include/c++/4.8/bits/stl_vector.h ****        *
 279:/usr/include/c++/4.8/bits/stl_vector.h ****        *  This constructor fills the %vector with @a __n copies of @a __value.
 280:/usr/include/c++/4.8/bits/stl_vector.h ****        */
 281:/usr/include/c++/4.8/bits/stl_vector.h ****       vector(size_type __n, const value_type& __value,
 282:/usr/include/c++/4.8/bits/stl_vector.h **** 	     const allocator_type& __a = allocator_type())
 283:/usr/include/c++/4.8/bits/stl_vector.h ****       : _Base(__n, __a)
 284:/usr/include/c++/4.8/bits/stl_vector.h ****       { _M_fill_initialize(__n, __value); }
 285:/usr/include/c++/4.8/bits/stl_vector.h **** #else
 286:/usr/include/c++/4.8/bits/stl_vector.h ****       /**
 287:/usr/include/c++/4.8/bits/stl_vector.h ****        *  @brief  Creates a %vector with copies of an exemplar element.
 288:/usr/include/c++/4.8/bits/stl_vector.h ****        *  @param  __n  The number of elements to initially create.
 289:/usr/include/c++/4.8/bits/stl_vector.h ****        *  @param  __value  An element to copy.
 290:/usr/include/c++/4.8/bits/stl_vector.h ****        *  @param  __a  An allocator.
 291:/usr/include/c++/4.8/bits/stl_vector.h ****        *
 292:/usr/include/c++/4.8/bits/stl_vector.h ****        *  This constructor fills the %vector with @a __n copies of @a __value.
 293:/usr/include/c++/4.8/bits/stl_vector.h ****        */
 294:/usr/include/c++/4.8/bits/stl_vector.h ****       explicit
 295:/usr/include/c++/4.8/bits/stl_vector.h ****       vector(size_type __n, const value_type& __value = value_type(),
 296:/usr/include/c++/4.8/bits/stl_vector.h **** 	     const allocator_type& __a = allocator_type())
 297:/usr/include/c++/4.8/bits/stl_vector.h ****       : _Base(__n, __a)
 298:/usr/include/c++/4.8/bits/stl_vector.h ****       { _M_fill_initialize(__n, __value); }
 299:/usr/include/c++/4.8/bits/stl_vector.h **** #endif
 300:/usr/include/c++/4.8/bits/stl_vector.h **** 
 301:/usr/include/c++/4.8/bits/stl_vector.h ****       /**
 302:/usr/include/c++/4.8/bits/stl_vector.h ****        *  @brief  %Vector copy constructor.
 303:/usr/include/c++/4.8/bits/stl_vector.h ****        *  @param  __x  A %vector of identical element and allocator types.
 304:/usr/include/c++/4.8/bits/stl_vector.h ****        *
 305:/usr/include/c++/4.8/bits/stl_vector.h ****        *  The newly-created %vector uses a copy of the allocation
 306:/usr/include/c++/4.8/bits/stl_vector.h ****        *  object used by @a __x.  All the elements of @a __x are copied,
 307:/usr/include/c++/4.8/bits/stl_vector.h ****        *  but any extra memory in
 308:/usr/include/c++/4.8/bits/stl_vector.h ****        *  @a __x (for fast expansion) will not be copied.
 309:/usr/include/c++/4.8/bits/stl_vector.h ****        */
 310:/usr/include/c++/4.8/bits/stl_vector.h ****       vector(const vector& __x)
 311:/usr/include/c++/4.8/bits/stl_vector.h ****       : _Base(__x.size(),
 312:/usr/include/c++/4.8/bits/stl_vector.h ****         _Alloc_traits::_S_select_on_copy(__x._M_get_Tp_allocator()))
 313:/usr/include/c++/4.8/bits/stl_vector.h ****       { this->_M_impl._M_finish =
 314:/usr/include/c++/4.8/bits/stl_vector.h **** 	  std::__uninitialized_copy_a(__x.begin(), __x.end(),
 315:/usr/include/c++/4.8/bits/stl_vector.h **** 				      this->_M_impl._M_start,
 316:/usr/include/c++/4.8/bits/stl_vector.h **** 				      _M_get_Tp_allocator());
 317:/usr/include/c++/4.8/bits/stl_vector.h ****       }
 318:/usr/include/c++/4.8/bits/stl_vector.h **** 
 319:/usr/include/c++/4.8/bits/stl_vector.h **** #if __cplusplus >= 201103L
 320:/usr/include/c++/4.8/bits/stl_vector.h ****       /**
 321:/usr/include/c++/4.8/bits/stl_vector.h ****        *  @brief  %Vector move constructor.
 322:/usr/include/c++/4.8/bits/stl_vector.h ****        *  @param  __x  A %vector of identical element and allocator types.
 323:/usr/include/c++/4.8/bits/stl_vector.h ****        *
 324:/usr/include/c++/4.8/bits/stl_vector.h ****        *  The newly-created %vector contains the exact contents of @a __x.
 325:/usr/include/c++/4.8/bits/stl_vector.h ****        *  The contents of @a __x are a valid, but unspecified %vector.
 326:/usr/include/c++/4.8/bits/stl_vector.h ****        */
 327:/usr/include/c++/4.8/bits/stl_vector.h ****       vector(vector&& __x) noexcept
 328:/usr/include/c++/4.8/bits/stl_vector.h ****       : _Base(std::move(__x)) { }
 329:/usr/include/c++/4.8/bits/stl_vector.h **** 
 330:/usr/include/c++/4.8/bits/stl_vector.h ****       /// Copy constructor with alternative allocator
 331:/usr/include/c++/4.8/bits/stl_vector.h ****       vector(const vector& __x, const allocator_type& __a)
 332:/usr/include/c++/4.8/bits/stl_vector.h ****       : _Base(__x.size(), __a)
 333:/usr/include/c++/4.8/bits/stl_vector.h ****       { this->_M_impl._M_finish =
 334:/usr/include/c++/4.8/bits/stl_vector.h **** 	  std::__uninitialized_copy_a(__x.begin(), __x.end(),
 335:/usr/include/c++/4.8/bits/stl_vector.h **** 				      this->_M_impl._M_start,
 336:/usr/include/c++/4.8/bits/stl_vector.h **** 				      _M_get_Tp_allocator());
 337:/usr/include/c++/4.8/bits/stl_vector.h ****       }
 338:/usr/include/c++/4.8/bits/stl_vector.h **** 
 339:/usr/include/c++/4.8/bits/stl_vector.h ****       /// Move constructor with alternative allocator
 340:/usr/include/c++/4.8/bits/stl_vector.h ****       vector(vector&& __rv, const allocator_type& __m)
 341:/usr/include/c++/4.8/bits/stl_vector.h ****       : _Base(std::move(__rv), __m)
 342:/usr/include/c++/4.8/bits/stl_vector.h ****       {
 343:/usr/include/c++/4.8/bits/stl_vector.h **** 	if (__rv.get_allocator() != __m)
 344:/usr/include/c++/4.8/bits/stl_vector.h **** 	  {
 345:/usr/include/c++/4.8/bits/stl_vector.h **** 	    this->_M_impl._M_finish =
 346:/usr/include/c++/4.8/bits/stl_vector.h **** 	      std::__uninitialized_move_a(__rv.begin(), __rv.end(),
 347:/usr/include/c++/4.8/bits/stl_vector.h **** 					  this->_M_impl._M_start,
 348:/usr/include/c++/4.8/bits/stl_vector.h **** 					  _M_get_Tp_allocator());
 349:/usr/include/c++/4.8/bits/stl_vector.h **** 	    __rv.clear();
 350:/usr/include/c++/4.8/bits/stl_vector.h **** 	  }
 351:/usr/include/c++/4.8/bits/stl_vector.h ****       }
 352:/usr/include/c++/4.8/bits/stl_vector.h **** 
 353:/usr/include/c++/4.8/bits/stl_vector.h ****       /**
 354:/usr/include/c++/4.8/bits/stl_vector.h ****        *  @brief  Builds a %vector from an initializer list.
 355:/usr/include/c++/4.8/bits/stl_vector.h ****        *  @param  __l  An initializer_list.
 356:/usr/include/c++/4.8/bits/stl_vector.h ****        *  @param  __a  An allocator.
 357:/usr/include/c++/4.8/bits/stl_vector.h ****        *
 358:/usr/include/c++/4.8/bits/stl_vector.h ****        *  Create a %vector consisting of copies of the elements in the
 359:/usr/include/c++/4.8/bits/stl_vector.h ****        *  initializer_list @a __l.
 360:/usr/include/c++/4.8/bits/stl_vector.h ****        *
 361:/usr/include/c++/4.8/bits/stl_vector.h ****        *  This will call the element type's copy constructor N times
 362:/usr/include/c++/4.8/bits/stl_vector.h ****        *  (where N is @a __l.size()) and do no memory reallocation.
 363:/usr/include/c++/4.8/bits/stl_vector.h ****        */
 364:/usr/include/c++/4.8/bits/stl_vector.h ****       vector(initializer_list<value_type> __l,
 365:/usr/include/c++/4.8/bits/stl_vector.h **** 	     const allocator_type& __a = allocator_type())
 366:/usr/include/c++/4.8/bits/stl_vector.h ****       : _Base(__a)
 367:/usr/include/c++/4.8/bits/stl_vector.h ****       {
 368:/usr/include/c++/4.8/bits/stl_vector.h **** 	_M_range_initialize(__l.begin(), __l.end(),
 369:/usr/include/c++/4.8/bits/stl_vector.h **** 			    random_access_iterator_tag());
 370:/usr/include/c++/4.8/bits/stl_vector.h ****       }
 371:/usr/include/c++/4.8/bits/stl_vector.h **** #endif
 372:/usr/include/c++/4.8/bits/stl_vector.h **** 
 373:/usr/include/c++/4.8/bits/stl_vector.h ****       /**
 374:/usr/include/c++/4.8/bits/stl_vector.h ****        *  @brief  Builds a %vector from a range.
 375:/usr/include/c++/4.8/bits/stl_vector.h ****        *  @param  __first  An input iterator.
 376:/usr/include/c++/4.8/bits/stl_vector.h ****        *  @param  __last  An input iterator.
 377:/usr/include/c++/4.8/bits/stl_vector.h ****        *  @param  __a  An allocator.
 378:/usr/include/c++/4.8/bits/stl_vector.h ****        *
 379:/usr/include/c++/4.8/bits/stl_vector.h ****        *  Create a %vector consisting of copies of the elements from
 380:/usr/include/c++/4.8/bits/stl_vector.h ****        *  [first,last).
 381:/usr/include/c++/4.8/bits/stl_vector.h ****        *
 382:/usr/include/c++/4.8/bits/stl_vector.h ****        *  If the iterators are forward, bidirectional, or
 383:/usr/include/c++/4.8/bits/stl_vector.h ****        *  random-access, then this will call the elements' copy
 384:/usr/include/c++/4.8/bits/stl_vector.h ****        *  constructor N times (where N is distance(first,last)) and do
 385:/usr/include/c++/4.8/bits/stl_vector.h ****        *  no memory reallocation.  But if only input iterators are
 386:/usr/include/c++/4.8/bits/stl_vector.h ****        *  used, then this will do at most 2N calls to the copy
 387:/usr/include/c++/4.8/bits/stl_vector.h ****        *  constructor, and logN memory reallocations.
 388:/usr/include/c++/4.8/bits/stl_vector.h ****        */
 389:/usr/include/c++/4.8/bits/stl_vector.h **** #if __cplusplus >= 201103L
 390:/usr/include/c++/4.8/bits/stl_vector.h ****       template<typename _InputIterator,
 391:/usr/include/c++/4.8/bits/stl_vector.h **** 	       typename = std::_RequireInputIter<_InputIterator>>
 392:/usr/include/c++/4.8/bits/stl_vector.h ****         vector(_InputIterator __first, _InputIterator __last,
 393:/usr/include/c++/4.8/bits/stl_vector.h **** 	       const allocator_type& __a = allocator_type())
 394:/usr/include/c++/4.8/bits/stl_vector.h **** 	: _Base(__a)
 395:/usr/include/c++/4.8/bits/stl_vector.h ****         { _M_initialize_dispatch(__first, __last, __false_type()); }
 396:/usr/include/c++/4.8/bits/stl_vector.h **** #else
 397:/usr/include/c++/4.8/bits/stl_vector.h ****       template<typename _InputIterator>
 398:/usr/include/c++/4.8/bits/stl_vector.h ****         vector(_InputIterator __first, _InputIterator __last,
 399:/usr/include/c++/4.8/bits/stl_vector.h **** 	       const allocator_type& __a = allocator_type())
 400:/usr/include/c++/4.8/bits/stl_vector.h **** 	: _Base(__a)
 401:/usr/include/c++/4.8/bits/stl_vector.h ****         {
 402:/usr/include/c++/4.8/bits/stl_vector.h **** 	  // Check whether it's an integral type.  If so, it's not an iterator.
 403:/usr/include/c++/4.8/bits/stl_vector.h **** 	  typedef typename std::__is_integer<_InputIterator>::__type _Integral;
 404:/usr/include/c++/4.8/bits/stl_vector.h **** 	  _M_initialize_dispatch(__first, __last, _Integral());
 405:/usr/include/c++/4.8/bits/stl_vector.h **** 	}
 406:/usr/include/c++/4.8/bits/stl_vector.h **** #endif
 407:/usr/include/c++/4.8/bits/stl_vector.h **** 
 408:/usr/include/c++/4.8/bits/stl_vector.h ****       /**
 409:/usr/include/c++/4.8/bits/stl_vector.h ****        *  The dtor only erases the elements, and note that if the
 410:/usr/include/c++/4.8/bits/stl_vector.h ****        *  elements themselves are pointers, the pointed-to memory is
 411:/usr/include/c++/4.8/bits/stl_vector.h ****        *  not touched in any way.  Managing the pointer is the user's
 412:/usr/include/c++/4.8/bits/stl_vector.h ****        *  responsibility.
 413:/usr/include/c++/4.8/bits/stl_vector.h ****        */
 414:/usr/include/c++/4.8/bits/stl_vector.h ****       ~vector() _GLIBCXX_NOEXCEPT
 523              		.loc 5 414 0
 524              		.cfi_startproc
 525              		.cfi_personality 0x9b,DW.ref.__gxx_personality_v0
 526              		.cfi_lsda 0x1b,.LLSDA835
 527 0000 55       		pushq	%rbp
 528              		.cfi_def_cfa_offset 16
 529              		.cfi_offset 6, -16
 530 0001 4889E5   		movq	%rsp, %rbp
 531              		.cfi_def_cfa_register 6
 532 0004 53       		pushq	%rbx
 533 0005 4883EC18 		subq	$24, %rsp
 534              		.cfi_offset 3, -24
 535 0009 48897DE8 		movq	%rdi, -24(%rbp)
 536              	.LBB6:
 415:/usr/include/c++/4.8/bits/stl_vector.h ****       { std::_Destroy(this->_M_impl._M_start, this->_M_impl._M_finish,
 416:/usr/include/c++/4.8/bits/stl_vector.h **** 		      _M_get_Tp_allocator()); }
 537              		.loc 5 416 0
 538 000d 488B45E8 		movq	-24(%rbp), %rax
 539 0011 4889C7   		movq	%rax, %rdi
 540              	.LEHB17:
 541 0014 E8000000 		call	_ZNSt12_Vector_baseISt4pairIiSsESaIS1_EE19_M_get_Tp_allocatorEv@PLT
 541      00
 542 0019 4889C2   		movq	%rax, %rdx
 543 001c 488B45E8 		movq	-24(%rbp), %rax
 544 0020 488B4808 		movq	8(%rax), %rcx
 545 0024 488B45E8 		movq	-24(%rbp), %rax
 546 0028 488B00   		movq	(%rax), %rax
 415:/usr/include/c++/4.8/bits/stl_vector.h ****       { std::_Destroy(this->_M_impl._M_start, this->_M_impl._M_finish,
 547              		.loc 5 415 0
 548 002b 4889CE   		movq	%rcx, %rsi
 549 002e 4889C7   		movq	%rax, %rdi
 550 0031 E8000000 		call	_ZSt8_DestroyIPSt4pairIiSsES1_EvT_S3_RSaIT0_E@PLT
 550      00
 551              	.LEHE17:
 552              		.loc 5 416 0
 553 0036 488B45E8 		movq	-24(%rbp), %rax
 554 003a 4889C7   		movq	%rax, %rdi
 555              	.LEHB18:
 556 003d E8000000 		call	_ZNSt12_Vector_baseISt4pairIiSsESaIS1_EED2Ev@PLT
 556      00
 557              	.LEHE18:
 558 0042 EB1A     		jmp	.L34
 559              	.L33:
 560 0044 4889C3   		movq	%rax, %rbx
 561 0047 488B45E8 		movq	-24(%rbp), %rax
 562 004b 4889C7   		movq	%rax, %rdi
 563 004e E8000000 		call	_ZNSt12_Vector_baseISt4pairIiSsESaIS1_EED2Ev@PLT
 563      00
 564 0053 4889D8   		movq	%rbx, %rax
 565 0056 4889C7   		movq	%rax, %rdi
 566              	.LEHB19:
 567 0059 E8000000 		call	_Unwind_Resume@PLT
 567      00
 568              	.LEHE19:
 569              	.L34:
 570              	.LBE6:
 571 005e 4883C418 		addq	$24, %rsp
 572 0062 5B       		popq	%rbx
 573 0063 5D       		popq	%rbp
 574              		.cfi_def_cfa 7, 8
 575 0064 C3       		ret
 576              		.cfi_endproc
 577              	.LFE835:
 578              		.section	.gcc_except_table
 579              	.LLSDA835:
 580 0042 FF       		.byte	0xff
 581 0043 FF       		.byte	0xff
 582 0044 01       		.byte	0x1
 583 0045 0C       		.uleb128 .LLSDACSE835-.LLSDACSB835
 584              	.LLSDACSB835:
 585 0046 14       		.uleb128 .LEHB17-.LFB835
 586 0047 22       		.uleb128 .LEHE17-.LEHB17
 587 0048 44       		.uleb128 .L33-.LFB835
 588 0049 00       		.uleb128 0
 589 004a 3D       		.uleb128 .LEHB18-.LFB835
 590 004b 05       		.uleb128 .LEHE18-.LEHB18
 591 004c 00       		.uleb128 0
 592 004d 00       		.uleb128 0
 593 004e 59       		.uleb128 .LEHB19-.LFB835
 594 004f 05       		.uleb128 .LEHE19-.LEHB19
 595 0050 00       		.uleb128 0
 596 0051 00       		.uleb128 0
 597              	.LLSDACSE835:
 598              		.section	.text._ZNSt6vectorISt4pairIiSsESaIS1_EED2Ev,"axG",@progbits,_ZNSt6vectorISt4pairIiSsESaIS
 600              		.weak	_ZNSt6vectorISt4pairIiSsESaIS1_EED1Ev
 601              		.set	_ZNSt6vectorISt4pairIiSsESaIS1_EED1Ev,_ZNSt6vectorISt4pairIiSsESaIS1_EED2Ev
 602              		.section	.text._ZNSt6vectorIN8UnitTest18DeferredTestResultESaIS1_EE9push_backERKS1_,"axG",@progbit
 603              		.align 2
 604              		.weak	_ZNSt6vectorIN8UnitTest18DeferredTestResultESaIS1_EE9push_backERKS1_
 606              	_ZNSt6vectorIN8UnitTest18DeferredTestResultESaIS1_EE9push_backERKS1_:
 607              	.LFB837:
 417:/usr/include/c++/4.8/bits/stl_vector.h **** 
 418:/usr/include/c++/4.8/bits/stl_vector.h ****       /**
 419:/usr/include/c++/4.8/bits/stl_vector.h ****        *  @brief  %Vector assignment operator.
 420:/usr/include/c++/4.8/bits/stl_vector.h ****        *  @param  __x  A %vector of identical element and allocator types.
 421:/usr/include/c++/4.8/bits/stl_vector.h ****        *
 422:/usr/include/c++/4.8/bits/stl_vector.h ****        *  All the elements of @a __x are copied, but any extra memory in
 423:/usr/include/c++/4.8/bits/stl_vector.h ****        *  @a __x (for fast expansion) will not be copied.  Unlike the
 424:/usr/include/c++/4.8/bits/stl_vector.h ****        *  copy constructor, the allocator object is not copied.
 425:/usr/include/c++/4.8/bits/stl_vector.h ****        */
 426:/usr/include/c++/4.8/bits/stl_vector.h ****       vector&
 427:/usr/include/c++/4.8/bits/stl_vector.h ****       operator=(const vector& __x);
 428:/usr/include/c++/4.8/bits/stl_vector.h **** 
 429:/usr/include/c++/4.8/bits/stl_vector.h **** #if __cplusplus >= 201103L
 430:/usr/include/c++/4.8/bits/stl_vector.h ****       /**
 431:/usr/include/c++/4.8/bits/stl_vector.h ****        *  @brief  %Vector move assignment operator.
 432:/usr/include/c++/4.8/bits/stl_vector.h ****        *  @param  __x  A %vector of identical element and allocator types.
 433:/usr/include/c++/4.8/bits/stl_vector.h ****        *
 434:/usr/include/c++/4.8/bits/stl_vector.h ****        *  The contents of @a __x are moved into this %vector (without copying,
 435:/usr/include/c++/4.8/bits/stl_vector.h ****        *  if the allocators permit it).
 436:/usr/include/c++/4.8/bits/stl_vector.h ****        *  @a __x is a valid, but unspecified %vector.
 437:/usr/include/c++/4.8/bits/stl_vector.h ****        */
 438:/usr/include/c++/4.8/bits/stl_vector.h ****       vector&
 439:/usr/include/c++/4.8/bits/stl_vector.h ****       operator=(vector&& __x) noexcept(_Alloc_traits::_S_nothrow_move())
 440:/usr/include/c++/4.8/bits/stl_vector.h ****       {
 441:/usr/include/c++/4.8/bits/stl_vector.h ****         constexpr bool __move_storage =
 442:/usr/include/c++/4.8/bits/stl_vector.h ****           _Alloc_traits::_S_propagate_on_move_assign()
 443:/usr/include/c++/4.8/bits/stl_vector.h ****           || _Alloc_traits::_S_always_equal();
 444:/usr/include/c++/4.8/bits/stl_vector.h ****         _M_move_assign(std::move(__x),
 445:/usr/include/c++/4.8/bits/stl_vector.h ****                        integral_constant<bool, __move_storage>());
 446:/usr/include/c++/4.8/bits/stl_vector.h **** 	return *this;
 447:/usr/include/c++/4.8/bits/stl_vector.h ****       }
 448:/usr/include/c++/4.8/bits/stl_vector.h **** 
 449:/usr/include/c++/4.8/bits/stl_vector.h ****       /**
 450:/usr/include/c++/4.8/bits/stl_vector.h ****        *  @brief  %Vector list assignment operator.
 451:/usr/include/c++/4.8/bits/stl_vector.h ****        *  @param  __l  An initializer_list.
 452:/usr/include/c++/4.8/bits/stl_vector.h ****        *
 453:/usr/include/c++/4.8/bits/stl_vector.h ****        *  This function fills a %vector with copies of the elements in the
 454:/usr/include/c++/4.8/bits/stl_vector.h ****        *  initializer list @a __l.
 455:/usr/include/c++/4.8/bits/stl_vector.h ****        *
 456:/usr/include/c++/4.8/bits/stl_vector.h ****        *  Note that the assignment completely changes the %vector and
 457:/usr/include/c++/4.8/bits/stl_vector.h ****        *  that the resulting %vector's size is the same as the number
 458:/usr/include/c++/4.8/bits/stl_vector.h ****        *  of elements assigned.  Old data may be lost.
 459:/usr/include/c++/4.8/bits/stl_vector.h ****        */
 460:/usr/include/c++/4.8/bits/stl_vector.h ****       vector&
 461:/usr/include/c++/4.8/bits/stl_vector.h ****       operator=(initializer_list<value_type> __l)
 462:/usr/include/c++/4.8/bits/stl_vector.h ****       {
 463:/usr/include/c++/4.8/bits/stl_vector.h **** 	this->assign(__l.begin(), __l.end());
 464:/usr/include/c++/4.8/bits/stl_vector.h **** 	return *this;
 465:/usr/include/c++/4.8/bits/stl_vector.h ****       }
 466:/usr/include/c++/4.8/bits/stl_vector.h **** #endif
 467:/usr/include/c++/4.8/bits/stl_vector.h **** 
 468:/usr/include/c++/4.8/bits/stl_vector.h ****       /**
 469:/usr/include/c++/4.8/bits/stl_vector.h ****        *  @brief  Assigns a given value to a %vector.
 470:/usr/include/c++/4.8/bits/stl_vector.h ****        *  @param  __n  Number of elements to be assigned.
 471:/usr/include/c++/4.8/bits/stl_vector.h ****        *  @param  __val  Value to be assigned.
 472:/usr/include/c++/4.8/bits/stl_vector.h ****        *
 473:/usr/include/c++/4.8/bits/stl_vector.h ****        *  This function fills a %vector with @a __n copies of the given
 474:/usr/include/c++/4.8/bits/stl_vector.h ****        *  value.  Note that the assignment completely changes the
 475:/usr/include/c++/4.8/bits/stl_vector.h ****        *  %vector and that the resulting %vector's size is the same as
 476:/usr/include/c++/4.8/bits/stl_vector.h ****        *  the number of elements assigned.  Old data may be lost.
 477:/usr/include/c++/4.8/bits/stl_vector.h ****        */
 478:/usr/include/c++/4.8/bits/stl_vector.h ****       void
 479:/usr/include/c++/4.8/bits/stl_vector.h ****       assign(size_type __n, const value_type& __val)
 480:/usr/include/c++/4.8/bits/stl_vector.h ****       { _M_fill_assign(__n, __val); }
 481:/usr/include/c++/4.8/bits/stl_vector.h **** 
 482:/usr/include/c++/4.8/bits/stl_vector.h ****       /**
 483:/usr/include/c++/4.8/bits/stl_vector.h ****        *  @brief  Assigns a range to a %vector.
 484:/usr/include/c++/4.8/bits/stl_vector.h ****        *  @param  __first  An input iterator.
 485:/usr/include/c++/4.8/bits/stl_vector.h ****        *  @param  __last   An input iterator.
 486:/usr/include/c++/4.8/bits/stl_vector.h ****        *
 487:/usr/include/c++/4.8/bits/stl_vector.h ****        *  This function fills a %vector with copies of the elements in the
 488:/usr/include/c++/4.8/bits/stl_vector.h ****        *  range [__first,__last).
 489:/usr/include/c++/4.8/bits/stl_vector.h ****        *
 490:/usr/include/c++/4.8/bits/stl_vector.h ****        *  Note that the assignment completely changes the %vector and
 491:/usr/include/c++/4.8/bits/stl_vector.h ****        *  that the resulting %vector's size is the same as the number
 492:/usr/include/c++/4.8/bits/stl_vector.h ****        *  of elements assigned.  Old data may be lost.
 493:/usr/include/c++/4.8/bits/stl_vector.h ****        */
 494:/usr/include/c++/4.8/bits/stl_vector.h **** #if __cplusplus >= 201103L
 495:/usr/include/c++/4.8/bits/stl_vector.h ****       template<typename _InputIterator,
 496:/usr/include/c++/4.8/bits/stl_vector.h **** 	       typename = std::_RequireInputIter<_InputIterator>>
 497:/usr/include/c++/4.8/bits/stl_vector.h ****         void
 498:/usr/include/c++/4.8/bits/stl_vector.h ****         assign(_InputIterator __first, _InputIterator __last)
 499:/usr/include/c++/4.8/bits/stl_vector.h ****         { _M_assign_dispatch(__first, __last, __false_type()); }
 500:/usr/include/c++/4.8/bits/stl_vector.h **** #else
 501:/usr/include/c++/4.8/bits/stl_vector.h ****       template<typename _InputIterator>
 502:/usr/include/c++/4.8/bits/stl_vector.h ****         void
 503:/usr/include/c++/4.8/bits/stl_vector.h ****         assign(_InputIterator __first, _InputIterator __last)
 504:/usr/include/c++/4.8/bits/stl_vector.h ****         {
 505:/usr/include/c++/4.8/bits/stl_vector.h **** 	  // Check whether it's an integral type.  If so, it's not an iterator.
 506:/usr/include/c++/4.8/bits/stl_vector.h **** 	  typedef typename std::__is_integer<_InputIterator>::__type _Integral;
 507:/usr/include/c++/4.8/bits/stl_vector.h **** 	  _M_assign_dispatch(__first, __last, _Integral());
 508:/usr/include/c++/4.8/bits/stl_vector.h **** 	}
 509:/usr/include/c++/4.8/bits/stl_vector.h **** #endif
 510:/usr/include/c++/4.8/bits/stl_vector.h **** 
 511:/usr/include/c++/4.8/bits/stl_vector.h **** #if __cplusplus >= 201103L
 512:/usr/include/c++/4.8/bits/stl_vector.h ****       /**
 513:/usr/include/c++/4.8/bits/stl_vector.h ****        *  @brief  Assigns an initializer list to a %vector.
 514:/usr/include/c++/4.8/bits/stl_vector.h ****        *  @param  __l  An initializer_list.
 515:/usr/include/c++/4.8/bits/stl_vector.h ****        *
 516:/usr/include/c++/4.8/bits/stl_vector.h ****        *  This function fills a %vector with copies of the elements in the
 517:/usr/include/c++/4.8/bits/stl_vector.h ****        *  initializer list @a __l.
 518:/usr/include/c++/4.8/bits/stl_vector.h ****        *
 519:/usr/include/c++/4.8/bits/stl_vector.h ****        *  Note that the assignment completely changes the %vector and
 520:/usr/include/c++/4.8/bits/stl_vector.h ****        *  that the resulting %vector's size is the same as the number
 521:/usr/include/c++/4.8/bits/stl_vector.h ****        *  of elements assigned.  Old data may be lost.
 522:/usr/include/c++/4.8/bits/stl_vector.h ****        */
 523:/usr/include/c++/4.8/bits/stl_vector.h ****       void
 524:/usr/include/c++/4.8/bits/stl_vector.h ****       assign(initializer_list<value_type> __l)
 525:/usr/include/c++/4.8/bits/stl_vector.h ****       { this->assign(__l.begin(), __l.end()); }
 526:/usr/include/c++/4.8/bits/stl_vector.h **** #endif
 527:/usr/include/c++/4.8/bits/stl_vector.h **** 
 528:/usr/include/c++/4.8/bits/stl_vector.h ****       /// Get a copy of the memory allocation object.
 529:/usr/include/c++/4.8/bits/stl_vector.h ****       using _Base::get_allocator;
 530:/usr/include/c++/4.8/bits/stl_vector.h **** 
 531:/usr/include/c++/4.8/bits/stl_vector.h ****       // iterators
 532:/usr/include/c++/4.8/bits/stl_vector.h ****       /**
 533:/usr/include/c++/4.8/bits/stl_vector.h ****        *  Returns a read/write iterator that points to the first
 534:/usr/include/c++/4.8/bits/stl_vector.h ****        *  element in the %vector.  Iteration is done in ordinary
 535:/usr/include/c++/4.8/bits/stl_vector.h ****        *  element order.
 536:/usr/include/c++/4.8/bits/stl_vector.h ****        */
 537:/usr/include/c++/4.8/bits/stl_vector.h ****       iterator
 538:/usr/include/c++/4.8/bits/stl_vector.h ****       begin() _GLIBCXX_NOEXCEPT
 539:/usr/include/c++/4.8/bits/stl_vector.h ****       { return iterator(this->_M_impl._M_start); }
 540:/usr/include/c++/4.8/bits/stl_vector.h **** 
 541:/usr/include/c++/4.8/bits/stl_vector.h ****       /**
 542:/usr/include/c++/4.8/bits/stl_vector.h ****        *  Returns a read-only (constant) iterator that points to the
 543:/usr/include/c++/4.8/bits/stl_vector.h ****        *  first element in the %vector.  Iteration is done in ordinary
 544:/usr/include/c++/4.8/bits/stl_vector.h ****        *  element order.
 545:/usr/include/c++/4.8/bits/stl_vector.h ****        */
 546:/usr/include/c++/4.8/bits/stl_vector.h ****       const_iterator
 547:/usr/include/c++/4.8/bits/stl_vector.h ****       begin() const _GLIBCXX_NOEXCEPT
 548:/usr/include/c++/4.8/bits/stl_vector.h ****       { return const_iterator(this->_M_impl._M_start); }
 549:/usr/include/c++/4.8/bits/stl_vector.h **** 
 550:/usr/include/c++/4.8/bits/stl_vector.h ****       /**
 551:/usr/include/c++/4.8/bits/stl_vector.h ****        *  Returns a read/write iterator that points one past the last
 552:/usr/include/c++/4.8/bits/stl_vector.h ****        *  element in the %vector.  Iteration is done in ordinary
 553:/usr/include/c++/4.8/bits/stl_vector.h ****        *  element order.
 554:/usr/include/c++/4.8/bits/stl_vector.h ****        */
 555:/usr/include/c++/4.8/bits/stl_vector.h ****       iterator
 556:/usr/include/c++/4.8/bits/stl_vector.h ****       end() _GLIBCXX_NOEXCEPT
 557:/usr/include/c++/4.8/bits/stl_vector.h ****       { return iterator(this->_M_impl._M_finish); }
 558:/usr/include/c++/4.8/bits/stl_vector.h **** 
 559:/usr/include/c++/4.8/bits/stl_vector.h ****       /**
 560:/usr/include/c++/4.8/bits/stl_vector.h ****        *  Returns a read-only (constant) iterator that points one past
 561:/usr/include/c++/4.8/bits/stl_vector.h ****        *  the last element in the %vector.  Iteration is done in
 562:/usr/include/c++/4.8/bits/stl_vector.h ****        *  ordinary element order.
 563:/usr/include/c++/4.8/bits/stl_vector.h ****        */
 564:/usr/include/c++/4.8/bits/stl_vector.h ****       const_iterator
 565:/usr/include/c++/4.8/bits/stl_vector.h ****       end() const _GLIBCXX_NOEXCEPT
 566:/usr/include/c++/4.8/bits/stl_vector.h ****       { return const_iterator(this->_M_impl._M_finish); }
 567:/usr/include/c++/4.8/bits/stl_vector.h **** 
 568:/usr/include/c++/4.8/bits/stl_vector.h ****       /**
 569:/usr/include/c++/4.8/bits/stl_vector.h ****        *  Returns a read/write reverse iterator that points to the
 570:/usr/include/c++/4.8/bits/stl_vector.h ****        *  last element in the %vector.  Iteration is done in reverse
 571:/usr/include/c++/4.8/bits/stl_vector.h ****        *  element order.
 572:/usr/include/c++/4.8/bits/stl_vector.h ****        */
 573:/usr/include/c++/4.8/bits/stl_vector.h ****       reverse_iterator
 574:/usr/include/c++/4.8/bits/stl_vector.h ****       rbegin() _GLIBCXX_NOEXCEPT
 575:/usr/include/c++/4.8/bits/stl_vector.h ****       { return reverse_iterator(end()); }
 576:/usr/include/c++/4.8/bits/stl_vector.h **** 
 577:/usr/include/c++/4.8/bits/stl_vector.h ****       /**
 578:/usr/include/c++/4.8/bits/stl_vector.h ****        *  Returns a read-only (constant) reverse iterator that points
 579:/usr/include/c++/4.8/bits/stl_vector.h ****        *  to the last element in the %vector.  Iteration is done in
 580:/usr/include/c++/4.8/bits/stl_vector.h ****        *  reverse element order.
 581:/usr/include/c++/4.8/bits/stl_vector.h ****        */
 582:/usr/include/c++/4.8/bits/stl_vector.h ****       const_reverse_iterator
 583:/usr/include/c++/4.8/bits/stl_vector.h ****       rbegin() const _GLIBCXX_NOEXCEPT
 584:/usr/include/c++/4.8/bits/stl_vector.h ****       { return const_reverse_iterator(end()); }
 585:/usr/include/c++/4.8/bits/stl_vector.h **** 
 586:/usr/include/c++/4.8/bits/stl_vector.h ****       /**
 587:/usr/include/c++/4.8/bits/stl_vector.h ****        *  Returns a read/write reverse iterator that points to one
 588:/usr/include/c++/4.8/bits/stl_vector.h ****        *  before the first element in the %vector.  Iteration is done
 589:/usr/include/c++/4.8/bits/stl_vector.h ****        *  in reverse element order.
 590:/usr/include/c++/4.8/bits/stl_vector.h ****        */
 591:/usr/include/c++/4.8/bits/stl_vector.h ****       reverse_iterator
 592:/usr/include/c++/4.8/bits/stl_vector.h ****       rend() _GLIBCXX_NOEXCEPT
 593:/usr/include/c++/4.8/bits/stl_vector.h ****       { return reverse_iterator(begin()); }
 594:/usr/include/c++/4.8/bits/stl_vector.h **** 
 595:/usr/include/c++/4.8/bits/stl_vector.h ****       /**
 596:/usr/include/c++/4.8/bits/stl_vector.h ****        *  Returns a read-only (constant) reverse iterator that points
 597:/usr/include/c++/4.8/bits/stl_vector.h ****        *  to one before the first element in the %vector.  Iteration
 598:/usr/include/c++/4.8/bits/stl_vector.h ****        *  is done in reverse element order.
 599:/usr/include/c++/4.8/bits/stl_vector.h ****        */
 600:/usr/include/c++/4.8/bits/stl_vector.h ****       const_reverse_iterator
 601:/usr/include/c++/4.8/bits/stl_vector.h ****       rend() const _GLIBCXX_NOEXCEPT
 602:/usr/include/c++/4.8/bits/stl_vector.h ****       { return const_reverse_iterator(begin()); }
 603:/usr/include/c++/4.8/bits/stl_vector.h **** 
 604:/usr/include/c++/4.8/bits/stl_vector.h **** #if __cplusplus >= 201103L
 605:/usr/include/c++/4.8/bits/stl_vector.h ****       /**
 606:/usr/include/c++/4.8/bits/stl_vector.h ****        *  Returns a read-only (constant) iterator that points to the
 607:/usr/include/c++/4.8/bits/stl_vector.h ****        *  first element in the %vector.  Iteration is done in ordinary
 608:/usr/include/c++/4.8/bits/stl_vector.h ****        *  element order.
 609:/usr/include/c++/4.8/bits/stl_vector.h ****        */
 610:/usr/include/c++/4.8/bits/stl_vector.h ****       const_iterator
 611:/usr/include/c++/4.8/bits/stl_vector.h ****       cbegin() const noexcept
 612:/usr/include/c++/4.8/bits/stl_vector.h ****       { return const_iterator(this->_M_impl._M_start); }
 613:/usr/include/c++/4.8/bits/stl_vector.h **** 
 614:/usr/include/c++/4.8/bits/stl_vector.h ****       /**
 615:/usr/include/c++/4.8/bits/stl_vector.h ****        *  Returns a read-only (constant) iterator that points one past
 616:/usr/include/c++/4.8/bits/stl_vector.h ****        *  the last element in the %vector.  Iteration is done in
 617:/usr/include/c++/4.8/bits/stl_vector.h ****        *  ordinary element order.
 618:/usr/include/c++/4.8/bits/stl_vector.h ****        */
 619:/usr/include/c++/4.8/bits/stl_vector.h ****       const_iterator
 620:/usr/include/c++/4.8/bits/stl_vector.h ****       cend() const noexcept
 621:/usr/include/c++/4.8/bits/stl_vector.h ****       { return const_iterator(this->_M_impl._M_finish); }
 622:/usr/include/c++/4.8/bits/stl_vector.h **** 
 623:/usr/include/c++/4.8/bits/stl_vector.h ****       /**
 624:/usr/include/c++/4.8/bits/stl_vector.h ****        *  Returns a read-only (constant) reverse iterator that points
 625:/usr/include/c++/4.8/bits/stl_vector.h ****        *  to the last element in the %vector.  Iteration is done in
 626:/usr/include/c++/4.8/bits/stl_vector.h ****        *  reverse element order.
 627:/usr/include/c++/4.8/bits/stl_vector.h ****        */
 628:/usr/include/c++/4.8/bits/stl_vector.h ****       const_reverse_iterator
 629:/usr/include/c++/4.8/bits/stl_vector.h ****       crbegin() const noexcept
 630:/usr/include/c++/4.8/bits/stl_vector.h ****       { return const_reverse_iterator(end()); }
 631:/usr/include/c++/4.8/bits/stl_vector.h **** 
 632:/usr/include/c++/4.8/bits/stl_vector.h ****       /**
 633:/usr/include/c++/4.8/bits/stl_vector.h ****        *  Returns a read-only (constant) reverse iterator that points
 634:/usr/include/c++/4.8/bits/stl_vector.h ****        *  to one before the first element in the %vector.  Iteration
 635:/usr/include/c++/4.8/bits/stl_vector.h ****        *  is done in reverse element order.
 636:/usr/include/c++/4.8/bits/stl_vector.h ****        */
 637:/usr/include/c++/4.8/bits/stl_vector.h ****       const_reverse_iterator
 638:/usr/include/c++/4.8/bits/stl_vector.h ****       crend() const noexcept
 639:/usr/include/c++/4.8/bits/stl_vector.h ****       { return const_reverse_iterator(begin()); }
 640:/usr/include/c++/4.8/bits/stl_vector.h **** #endif
 641:/usr/include/c++/4.8/bits/stl_vector.h **** 
 642:/usr/include/c++/4.8/bits/stl_vector.h ****       // [23.2.4.2] capacity
 643:/usr/include/c++/4.8/bits/stl_vector.h ****       /**  Returns the number of elements in the %vector.  */
 644:/usr/include/c++/4.8/bits/stl_vector.h ****       size_type
 645:/usr/include/c++/4.8/bits/stl_vector.h ****       size() const _GLIBCXX_NOEXCEPT
 646:/usr/include/c++/4.8/bits/stl_vector.h ****       { return size_type(this->_M_impl._M_finish - this->_M_impl._M_start); }
 647:/usr/include/c++/4.8/bits/stl_vector.h **** 
 648:/usr/include/c++/4.8/bits/stl_vector.h ****       /**  Returns the size() of the largest possible %vector.  */
 649:/usr/include/c++/4.8/bits/stl_vector.h ****       size_type
 650:/usr/include/c++/4.8/bits/stl_vector.h ****       max_size() const _GLIBCXX_NOEXCEPT
 651:/usr/include/c++/4.8/bits/stl_vector.h ****       { return _Alloc_traits::max_size(_M_get_Tp_allocator()); }
 652:/usr/include/c++/4.8/bits/stl_vector.h **** 
 653:/usr/include/c++/4.8/bits/stl_vector.h **** #if __cplusplus >= 201103L
 654:/usr/include/c++/4.8/bits/stl_vector.h ****       /**
 655:/usr/include/c++/4.8/bits/stl_vector.h ****        *  @brief  Resizes the %vector to the specified number of elements.
 656:/usr/include/c++/4.8/bits/stl_vector.h ****        *  @param  __new_size  Number of elements the %vector should contain.
 657:/usr/include/c++/4.8/bits/stl_vector.h ****        *
 658:/usr/include/c++/4.8/bits/stl_vector.h ****        *  This function will %resize the %vector to the specified
 659:/usr/include/c++/4.8/bits/stl_vector.h ****        *  number of elements.  If the number is smaller than the
 660:/usr/include/c++/4.8/bits/stl_vector.h ****        *  %vector's current size the %vector is truncated, otherwise
 661:/usr/include/c++/4.8/bits/stl_vector.h ****        *  default constructed elements are appended.
 662:/usr/include/c++/4.8/bits/stl_vector.h ****        */
 663:/usr/include/c++/4.8/bits/stl_vector.h ****       void
 664:/usr/include/c++/4.8/bits/stl_vector.h ****       resize(size_type __new_size)
 665:/usr/include/c++/4.8/bits/stl_vector.h ****       {
 666:/usr/include/c++/4.8/bits/stl_vector.h **** 	if (__new_size > size())
 667:/usr/include/c++/4.8/bits/stl_vector.h **** 	  _M_default_append(__new_size - size());
 668:/usr/include/c++/4.8/bits/stl_vector.h **** 	else if (__new_size < size())
 669:/usr/include/c++/4.8/bits/stl_vector.h **** 	  _M_erase_at_end(this->_M_impl._M_start + __new_size);
 670:/usr/include/c++/4.8/bits/stl_vector.h ****       }
 671:/usr/include/c++/4.8/bits/stl_vector.h **** 
 672:/usr/include/c++/4.8/bits/stl_vector.h ****       /**
 673:/usr/include/c++/4.8/bits/stl_vector.h ****        *  @brief  Resizes the %vector to the specified number of elements.
 674:/usr/include/c++/4.8/bits/stl_vector.h ****        *  @param  __new_size  Number of elements the %vector should contain.
 675:/usr/include/c++/4.8/bits/stl_vector.h ****        *  @param  __x  Data with which new elements should be populated.
 676:/usr/include/c++/4.8/bits/stl_vector.h ****        *
 677:/usr/include/c++/4.8/bits/stl_vector.h ****        *  This function will %resize the %vector to the specified
 678:/usr/include/c++/4.8/bits/stl_vector.h ****        *  number of elements.  If the number is smaller than the
 679:/usr/include/c++/4.8/bits/stl_vector.h ****        *  %vector's current size the %vector is truncated, otherwise
 680:/usr/include/c++/4.8/bits/stl_vector.h ****        *  the %vector is extended and new elements are populated with
 681:/usr/include/c++/4.8/bits/stl_vector.h ****        *  given data.
 682:/usr/include/c++/4.8/bits/stl_vector.h ****        */
 683:/usr/include/c++/4.8/bits/stl_vector.h ****       void
 684:/usr/include/c++/4.8/bits/stl_vector.h ****       resize(size_type __new_size, const value_type& __x)
 685:/usr/include/c++/4.8/bits/stl_vector.h ****       {
 686:/usr/include/c++/4.8/bits/stl_vector.h **** 	if (__new_size > size())
 687:/usr/include/c++/4.8/bits/stl_vector.h **** 	  insert(end(), __new_size - size(), __x);
 688:/usr/include/c++/4.8/bits/stl_vector.h **** 	else if (__new_size < size())
 689:/usr/include/c++/4.8/bits/stl_vector.h **** 	  _M_erase_at_end(this->_M_impl._M_start + __new_size);
 690:/usr/include/c++/4.8/bits/stl_vector.h ****       }
 691:/usr/include/c++/4.8/bits/stl_vector.h **** #else
 692:/usr/include/c++/4.8/bits/stl_vector.h ****       /**
 693:/usr/include/c++/4.8/bits/stl_vector.h ****        *  @brief  Resizes the %vector to the specified number of elements.
 694:/usr/include/c++/4.8/bits/stl_vector.h ****        *  @param  __new_size  Number of elements the %vector should contain.
 695:/usr/include/c++/4.8/bits/stl_vector.h ****        *  @param  __x  Data with which new elements should be populated.
 696:/usr/include/c++/4.8/bits/stl_vector.h ****        *
 697:/usr/include/c++/4.8/bits/stl_vector.h ****        *  This function will %resize the %vector to the specified
 698:/usr/include/c++/4.8/bits/stl_vector.h ****        *  number of elements.  If the number is smaller than the
 699:/usr/include/c++/4.8/bits/stl_vector.h ****        *  %vector's current size the %vector is truncated, otherwise
 700:/usr/include/c++/4.8/bits/stl_vector.h ****        *  the %vector is extended and new elements are populated with
 701:/usr/include/c++/4.8/bits/stl_vector.h ****        *  given data.
 702:/usr/include/c++/4.8/bits/stl_vector.h ****        */
 703:/usr/include/c++/4.8/bits/stl_vector.h ****       void
 704:/usr/include/c++/4.8/bits/stl_vector.h ****       resize(size_type __new_size, value_type __x = value_type())
 705:/usr/include/c++/4.8/bits/stl_vector.h ****       {
 706:/usr/include/c++/4.8/bits/stl_vector.h **** 	if (__new_size > size())
 707:/usr/include/c++/4.8/bits/stl_vector.h **** 	  insert(end(), __new_size - size(), __x);
 708:/usr/include/c++/4.8/bits/stl_vector.h **** 	else if (__new_size < size())
 709:/usr/include/c++/4.8/bits/stl_vector.h **** 	  _M_erase_at_end(this->_M_impl._M_start + __new_size);
 710:/usr/include/c++/4.8/bits/stl_vector.h ****       }
 711:/usr/include/c++/4.8/bits/stl_vector.h **** #endif
 712:/usr/include/c++/4.8/bits/stl_vector.h **** 
 713:/usr/include/c++/4.8/bits/stl_vector.h **** #if __cplusplus >= 201103L
 714:/usr/include/c++/4.8/bits/stl_vector.h ****       /**  A non-binding request to reduce capacity() to size().  */
 715:/usr/include/c++/4.8/bits/stl_vector.h ****       void
 716:/usr/include/c++/4.8/bits/stl_vector.h ****       shrink_to_fit()
 717:/usr/include/c++/4.8/bits/stl_vector.h ****       { _M_shrink_to_fit(); }
 718:/usr/include/c++/4.8/bits/stl_vector.h **** #endif
 719:/usr/include/c++/4.8/bits/stl_vector.h **** 
 720:/usr/include/c++/4.8/bits/stl_vector.h ****       /**
 721:/usr/include/c++/4.8/bits/stl_vector.h ****        *  Returns the total number of elements that the %vector can
 722:/usr/include/c++/4.8/bits/stl_vector.h ****        *  hold before needing to allocate more memory.
 723:/usr/include/c++/4.8/bits/stl_vector.h ****        */
 724:/usr/include/c++/4.8/bits/stl_vector.h ****       size_type
 725:/usr/include/c++/4.8/bits/stl_vector.h ****       capacity() const _GLIBCXX_NOEXCEPT
 726:/usr/include/c++/4.8/bits/stl_vector.h ****       { return size_type(this->_M_impl._M_end_of_storage
 727:/usr/include/c++/4.8/bits/stl_vector.h **** 			 - this->_M_impl._M_start); }
 728:/usr/include/c++/4.8/bits/stl_vector.h **** 
 729:/usr/include/c++/4.8/bits/stl_vector.h ****       /**
 730:/usr/include/c++/4.8/bits/stl_vector.h ****        *  Returns true if the %vector is empty.  (Thus begin() would
 731:/usr/include/c++/4.8/bits/stl_vector.h ****        *  equal end().)
 732:/usr/include/c++/4.8/bits/stl_vector.h ****        */
 733:/usr/include/c++/4.8/bits/stl_vector.h ****       bool
 734:/usr/include/c++/4.8/bits/stl_vector.h ****       empty() const _GLIBCXX_NOEXCEPT
 735:/usr/include/c++/4.8/bits/stl_vector.h ****       { return begin() == end(); }
 736:/usr/include/c++/4.8/bits/stl_vector.h **** 
 737:/usr/include/c++/4.8/bits/stl_vector.h ****       /**
 738:/usr/include/c++/4.8/bits/stl_vector.h ****        *  @brief  Attempt to preallocate enough memory for specified number of
 739:/usr/include/c++/4.8/bits/stl_vector.h ****        *          elements.
 740:/usr/include/c++/4.8/bits/stl_vector.h ****        *  @param  __n  Number of elements required.
 741:/usr/include/c++/4.8/bits/stl_vector.h ****        *  @throw  std::length_error  If @a n exceeds @c max_size().
 742:/usr/include/c++/4.8/bits/stl_vector.h ****        *
 743:/usr/include/c++/4.8/bits/stl_vector.h ****        *  This function attempts to reserve enough memory for the
 744:/usr/include/c++/4.8/bits/stl_vector.h ****        *  %vector to hold the specified number of elements.  If the
 745:/usr/include/c++/4.8/bits/stl_vector.h ****        *  number requested is more than max_size(), length_error is
 746:/usr/include/c++/4.8/bits/stl_vector.h ****        *  thrown.
 747:/usr/include/c++/4.8/bits/stl_vector.h ****        *
 748:/usr/include/c++/4.8/bits/stl_vector.h ****        *  The advantage of this function is that if optimal code is a
 749:/usr/include/c++/4.8/bits/stl_vector.h ****        *  necessity and the user can determine the number of elements
 750:/usr/include/c++/4.8/bits/stl_vector.h ****        *  that will be required, the user can reserve the memory in
 751:/usr/include/c++/4.8/bits/stl_vector.h ****        *  %advance, and thus prevent a possible reallocation of memory
 752:/usr/include/c++/4.8/bits/stl_vector.h ****        *  and copying of %vector data.
 753:/usr/include/c++/4.8/bits/stl_vector.h ****        */
 754:/usr/include/c++/4.8/bits/stl_vector.h ****       void
 755:/usr/include/c++/4.8/bits/stl_vector.h ****       reserve(size_type __n);
 756:/usr/include/c++/4.8/bits/stl_vector.h **** 
 757:/usr/include/c++/4.8/bits/stl_vector.h ****       // element access
 758:/usr/include/c++/4.8/bits/stl_vector.h ****       /**
 759:/usr/include/c++/4.8/bits/stl_vector.h ****        *  @brief  Subscript access to the data contained in the %vector.
 760:/usr/include/c++/4.8/bits/stl_vector.h ****        *  @param __n The index of the element for which data should be
 761:/usr/include/c++/4.8/bits/stl_vector.h ****        *  accessed.
 762:/usr/include/c++/4.8/bits/stl_vector.h ****        *  @return  Read/write reference to data.
 763:/usr/include/c++/4.8/bits/stl_vector.h ****        *
 764:/usr/include/c++/4.8/bits/stl_vector.h ****        *  This operator allows for easy, array-style, data access.
 765:/usr/include/c++/4.8/bits/stl_vector.h ****        *  Note that data access with this operator is unchecked and
 766:/usr/include/c++/4.8/bits/stl_vector.h ****        *  out_of_range lookups are not defined. (For checked lookups
 767:/usr/include/c++/4.8/bits/stl_vector.h ****        *  see at().)
 768:/usr/include/c++/4.8/bits/stl_vector.h ****        */
 769:/usr/include/c++/4.8/bits/stl_vector.h ****       reference
 770:/usr/include/c++/4.8/bits/stl_vector.h ****       operator[](size_type __n)
 771:/usr/include/c++/4.8/bits/stl_vector.h ****       { return *(this->_M_impl._M_start + __n); }
 772:/usr/include/c++/4.8/bits/stl_vector.h **** 
 773:/usr/include/c++/4.8/bits/stl_vector.h ****       /**
 774:/usr/include/c++/4.8/bits/stl_vector.h ****        *  @brief  Subscript access to the data contained in the %vector.
 775:/usr/include/c++/4.8/bits/stl_vector.h ****        *  @param __n The index of the element for which data should be
 776:/usr/include/c++/4.8/bits/stl_vector.h ****        *  accessed.
 777:/usr/include/c++/4.8/bits/stl_vector.h ****        *  @return  Read-only (constant) reference to data.
 778:/usr/include/c++/4.8/bits/stl_vector.h ****        *
 779:/usr/include/c++/4.8/bits/stl_vector.h ****        *  This operator allows for easy, array-style, data access.
 780:/usr/include/c++/4.8/bits/stl_vector.h ****        *  Note that data access with this operator is unchecked and
 781:/usr/include/c++/4.8/bits/stl_vector.h ****        *  out_of_range lookups are not defined. (For checked lookups
 782:/usr/include/c++/4.8/bits/stl_vector.h ****        *  see at().)
 783:/usr/include/c++/4.8/bits/stl_vector.h ****        */
 784:/usr/include/c++/4.8/bits/stl_vector.h ****       const_reference
 785:/usr/include/c++/4.8/bits/stl_vector.h ****       operator[](size_type __n) const
 786:/usr/include/c++/4.8/bits/stl_vector.h ****       { return *(this->_M_impl._M_start + __n); }
 787:/usr/include/c++/4.8/bits/stl_vector.h **** 
 788:/usr/include/c++/4.8/bits/stl_vector.h ****     protected:
 789:/usr/include/c++/4.8/bits/stl_vector.h ****       /// Safety check used only from at().
 790:/usr/include/c++/4.8/bits/stl_vector.h ****       void
 791:/usr/include/c++/4.8/bits/stl_vector.h ****       _M_range_check(size_type __n) const
 792:/usr/include/c++/4.8/bits/stl_vector.h ****       {
 793:/usr/include/c++/4.8/bits/stl_vector.h **** 	if (__n >= this->size())
 794:/usr/include/c++/4.8/bits/stl_vector.h **** 	  __throw_out_of_range(__N("vector::_M_range_check"));
 795:/usr/include/c++/4.8/bits/stl_vector.h ****       }
 796:/usr/include/c++/4.8/bits/stl_vector.h **** 
 797:/usr/include/c++/4.8/bits/stl_vector.h ****     public:
 798:/usr/include/c++/4.8/bits/stl_vector.h ****       /**
 799:/usr/include/c++/4.8/bits/stl_vector.h ****        *  @brief  Provides access to the data contained in the %vector.
 800:/usr/include/c++/4.8/bits/stl_vector.h ****        *  @param __n The index of the element for which data should be
 801:/usr/include/c++/4.8/bits/stl_vector.h ****        *  accessed.
 802:/usr/include/c++/4.8/bits/stl_vector.h ****        *  @return  Read/write reference to data.
 803:/usr/include/c++/4.8/bits/stl_vector.h ****        *  @throw  std::out_of_range  If @a __n is an invalid index.
 804:/usr/include/c++/4.8/bits/stl_vector.h ****        *
 805:/usr/include/c++/4.8/bits/stl_vector.h ****        *  This function provides for safer data access.  The parameter
 806:/usr/include/c++/4.8/bits/stl_vector.h ****        *  is first checked that it is in the range of the vector.  The
 807:/usr/include/c++/4.8/bits/stl_vector.h ****        *  function throws out_of_range if the check fails.
 808:/usr/include/c++/4.8/bits/stl_vector.h ****        */
 809:/usr/include/c++/4.8/bits/stl_vector.h ****       reference
 810:/usr/include/c++/4.8/bits/stl_vector.h ****       at(size_type __n)
 811:/usr/include/c++/4.8/bits/stl_vector.h ****       {
 812:/usr/include/c++/4.8/bits/stl_vector.h **** 	_M_range_check(__n);
 813:/usr/include/c++/4.8/bits/stl_vector.h **** 	return (*this)[__n]; 
 814:/usr/include/c++/4.8/bits/stl_vector.h ****       }
 815:/usr/include/c++/4.8/bits/stl_vector.h **** 
 816:/usr/include/c++/4.8/bits/stl_vector.h ****       /**
 817:/usr/include/c++/4.8/bits/stl_vector.h ****        *  @brief  Provides access to the data contained in the %vector.
 818:/usr/include/c++/4.8/bits/stl_vector.h ****        *  @param __n The index of the element for which data should be
 819:/usr/include/c++/4.8/bits/stl_vector.h ****        *  accessed.
 820:/usr/include/c++/4.8/bits/stl_vector.h ****        *  @return  Read-only (constant) reference to data.
 821:/usr/include/c++/4.8/bits/stl_vector.h ****        *  @throw  std::out_of_range  If @a __n is an invalid index.
 822:/usr/include/c++/4.8/bits/stl_vector.h ****        *
 823:/usr/include/c++/4.8/bits/stl_vector.h ****        *  This function provides for safer data access.  The parameter
 824:/usr/include/c++/4.8/bits/stl_vector.h ****        *  is first checked that it is in the range of the vector.  The
 825:/usr/include/c++/4.8/bits/stl_vector.h ****        *  function throws out_of_range if the check fails.
 826:/usr/include/c++/4.8/bits/stl_vector.h ****        */
 827:/usr/include/c++/4.8/bits/stl_vector.h ****       const_reference
 828:/usr/include/c++/4.8/bits/stl_vector.h ****       at(size_type __n) const
 829:/usr/include/c++/4.8/bits/stl_vector.h ****       {
 830:/usr/include/c++/4.8/bits/stl_vector.h **** 	_M_range_check(__n);
 831:/usr/include/c++/4.8/bits/stl_vector.h **** 	return (*this)[__n];
 832:/usr/include/c++/4.8/bits/stl_vector.h ****       }
 833:/usr/include/c++/4.8/bits/stl_vector.h **** 
 834:/usr/include/c++/4.8/bits/stl_vector.h ****       /**
 835:/usr/include/c++/4.8/bits/stl_vector.h ****        *  Returns a read/write reference to the data at the first
 836:/usr/include/c++/4.8/bits/stl_vector.h ****        *  element of the %vector.
 837:/usr/include/c++/4.8/bits/stl_vector.h ****        */
 838:/usr/include/c++/4.8/bits/stl_vector.h ****       reference
 839:/usr/include/c++/4.8/bits/stl_vector.h ****       front()
 840:/usr/include/c++/4.8/bits/stl_vector.h ****       { return *begin(); }
 841:/usr/include/c++/4.8/bits/stl_vector.h **** 
 842:/usr/include/c++/4.8/bits/stl_vector.h ****       /**
 843:/usr/include/c++/4.8/bits/stl_vector.h ****        *  Returns a read-only (constant) reference to the data at the first
 844:/usr/include/c++/4.8/bits/stl_vector.h ****        *  element of the %vector.
 845:/usr/include/c++/4.8/bits/stl_vector.h ****        */
 846:/usr/include/c++/4.8/bits/stl_vector.h ****       const_reference
 847:/usr/include/c++/4.8/bits/stl_vector.h ****       front() const
 848:/usr/include/c++/4.8/bits/stl_vector.h ****       { return *begin(); }
 849:/usr/include/c++/4.8/bits/stl_vector.h **** 
 850:/usr/include/c++/4.8/bits/stl_vector.h ****       /**
 851:/usr/include/c++/4.8/bits/stl_vector.h ****        *  Returns a read/write reference to the data at the last
 852:/usr/include/c++/4.8/bits/stl_vector.h ****        *  element of the %vector.
 853:/usr/include/c++/4.8/bits/stl_vector.h ****        */
 854:/usr/include/c++/4.8/bits/stl_vector.h ****       reference
 855:/usr/include/c++/4.8/bits/stl_vector.h ****       back()
 856:/usr/include/c++/4.8/bits/stl_vector.h ****       { return *(end() - 1); }
 857:/usr/include/c++/4.8/bits/stl_vector.h ****       
 858:/usr/include/c++/4.8/bits/stl_vector.h ****       /**
 859:/usr/include/c++/4.8/bits/stl_vector.h ****        *  Returns a read-only (constant) reference to the data at the
 860:/usr/include/c++/4.8/bits/stl_vector.h ****        *  last element of the %vector.
 861:/usr/include/c++/4.8/bits/stl_vector.h ****        */
 862:/usr/include/c++/4.8/bits/stl_vector.h ****       const_reference
 863:/usr/include/c++/4.8/bits/stl_vector.h ****       back() const
 864:/usr/include/c++/4.8/bits/stl_vector.h ****       { return *(end() - 1); }
 865:/usr/include/c++/4.8/bits/stl_vector.h **** 
 866:/usr/include/c++/4.8/bits/stl_vector.h ****       // _GLIBCXX_RESOLVE_LIB_DEFECTS
 867:/usr/include/c++/4.8/bits/stl_vector.h ****       // DR 464. Suggestion for new member functions in standard containers.
 868:/usr/include/c++/4.8/bits/stl_vector.h ****       // data access
 869:/usr/include/c++/4.8/bits/stl_vector.h ****       /**
 870:/usr/include/c++/4.8/bits/stl_vector.h ****        *   Returns a pointer such that [data(), data() + size()) is a valid
 871:/usr/include/c++/4.8/bits/stl_vector.h ****        *   range.  For a non-empty %vector, data() == &front().
 872:/usr/include/c++/4.8/bits/stl_vector.h ****        */
 873:/usr/include/c++/4.8/bits/stl_vector.h **** #if __cplusplus >= 201103L
 874:/usr/include/c++/4.8/bits/stl_vector.h ****       _Tp*
 875:/usr/include/c++/4.8/bits/stl_vector.h **** #else
 876:/usr/include/c++/4.8/bits/stl_vector.h ****       pointer
 877:/usr/include/c++/4.8/bits/stl_vector.h **** #endif
 878:/usr/include/c++/4.8/bits/stl_vector.h ****       data() _GLIBCXX_NOEXCEPT
 879:/usr/include/c++/4.8/bits/stl_vector.h ****       { return std::__addressof(front()); }
 880:/usr/include/c++/4.8/bits/stl_vector.h **** 
 881:/usr/include/c++/4.8/bits/stl_vector.h **** #if __cplusplus >= 201103L
 882:/usr/include/c++/4.8/bits/stl_vector.h ****       const _Tp*
 883:/usr/include/c++/4.8/bits/stl_vector.h **** #else
 884:/usr/include/c++/4.8/bits/stl_vector.h ****       const_pointer
 885:/usr/include/c++/4.8/bits/stl_vector.h **** #endif
 886:/usr/include/c++/4.8/bits/stl_vector.h ****       data() const _GLIBCXX_NOEXCEPT
 887:/usr/include/c++/4.8/bits/stl_vector.h ****       { return std::__addressof(front()); }
 888:/usr/include/c++/4.8/bits/stl_vector.h **** 
 889:/usr/include/c++/4.8/bits/stl_vector.h ****       // [23.2.4.3] modifiers
 890:/usr/include/c++/4.8/bits/stl_vector.h ****       /**
 891:/usr/include/c++/4.8/bits/stl_vector.h ****        *  @brief  Add data to the end of the %vector.
 892:/usr/include/c++/4.8/bits/stl_vector.h ****        *  @param  __x  Data to be added.
 893:/usr/include/c++/4.8/bits/stl_vector.h ****        *
 894:/usr/include/c++/4.8/bits/stl_vector.h ****        *  This is a typical stack operation.  The function creates an
 895:/usr/include/c++/4.8/bits/stl_vector.h ****        *  element at the end of the %vector and assigns the given data
 896:/usr/include/c++/4.8/bits/stl_vector.h ****        *  to it.  Due to the nature of a %vector this operation can be
 897:/usr/include/c++/4.8/bits/stl_vector.h ****        *  done in constant time if the %vector has preallocated space
 898:/usr/include/c++/4.8/bits/stl_vector.h ****        *  available.
 899:/usr/include/c++/4.8/bits/stl_vector.h ****        */
 900:/usr/include/c++/4.8/bits/stl_vector.h ****       void
 901:/usr/include/c++/4.8/bits/stl_vector.h ****       push_back(const value_type& __x)
 608              		.loc 5 901 0
 609              		.cfi_startproc
 610 0000 55       		pushq	%rbp
 611              		.cfi_def_cfa_offset 16
 612              		.cfi_offset 6, -16
 613 0001 4889E5   		movq	%rsp, %rbp
 614              		.cfi_def_cfa_register 6
 615 0004 4883EC10 		subq	$16, %rsp
 616 0008 48897DF8 		movq	%rdi, -8(%rbp)
 617 000c 488975F0 		movq	%rsi, -16(%rbp)
 902:/usr/include/c++/4.8/bits/stl_vector.h ****       {
 903:/usr/include/c++/4.8/bits/stl_vector.h **** 	if (this->_M_impl._M_finish != this->_M_impl._M_end_of_storage)
 618              		.loc 5 903 0
 619 0010 488B45F8 		movq	-8(%rbp), %rax
 620 0014 488B5008 		movq	8(%rax), %rdx
 621 0018 488B45F8 		movq	-8(%rbp), %rax
 622 001c 488B4010 		movq	16(%rax), %rax
 623 0020 4839C2   		cmpq	%rax, %rdx
 624 0023 7431     		je	.L36
 904:/usr/include/c++/4.8/bits/stl_vector.h **** 	  {
 905:/usr/include/c++/4.8/bits/stl_vector.h **** 	    _Alloc_traits::construct(this->_M_impl, this->_M_impl._M_finish,
 906:/usr/include/c++/4.8/bits/stl_vector.h **** 	                             __x);
 625              		.loc 5 906 0
 626 0025 488B45F8 		movq	-8(%rbp), %rax
 627 0029 488B4808 		movq	8(%rax), %rcx
 628 002d 488B45F8 		movq	-8(%rbp), %rax
 905:/usr/include/c++/4.8/bits/stl_vector.h **** 	                             __x);
 629              		.loc 5 905 0
 630 0031 488B55F0 		movq	-16(%rbp), %rdx
 631 0035 4889CE   		movq	%rcx, %rsi
 632 0038 4889C7   		movq	%rax, %rdi
 633 003b E8000000 		call	_ZN9__gnu_cxx14__alloc_traitsISaIN8UnitTest18DeferredTestResultEEE9constructIS2_EEvRS3_PS2_RK
 633      00
 907:/usr/include/c++/4.8/bits/stl_vector.h **** 	    ++this->_M_impl._M_finish;
 634              		.loc 5 907 0
 635 0040 488B45F8 		movq	-8(%rbp), %rax
 636 0044 488B4008 		movq	8(%rax), %rax
 637 0048 488D5038 		leaq	56(%rax), %rdx
 638 004c 488B45F8 		movq	-8(%rbp), %rax
 639 0050 48895008 		movq	%rdx, 8(%rax)
 640 0054 EB22     		jmp	.L35
 641              	.L36:
 908:/usr/include/c++/4.8/bits/stl_vector.h **** 	  }
 909:/usr/include/c++/4.8/bits/stl_vector.h **** 	else
 910:/usr/include/c++/4.8/bits/stl_vector.h **** #if __cplusplus >= 201103L
 911:/usr/include/c++/4.8/bits/stl_vector.h **** 	  _M_emplace_back_aux(__x);
 912:/usr/include/c++/4.8/bits/stl_vector.h **** #else
 913:/usr/include/c++/4.8/bits/stl_vector.h **** 	  _M_insert_aux(end(), __x);
 642              		.loc 5 913 0
 643 0056 488B45F8 		movq	-8(%rbp), %rax
 644 005a 4889C7   		movq	%rax, %rdi
 645 005d E8000000 		call	_ZNSt6vectorIN8UnitTest18DeferredTestResultESaIS1_EE3endEv@PLT
 645      00
 646 0062 4889C1   		movq	%rax, %rcx
 647 0065 488B55F0 		movq	-16(%rbp), %rdx
 648 0069 488B45F8 		movq	-8(%rbp), %rax
 649 006d 4889CE   		movq	%rcx, %rsi
 650 0070 4889C7   		movq	%rax, %rdi
 651 0073 E8000000 		call	_ZNSt6vectorIN8UnitTest18DeferredTestResultESaIS1_EE13_M_insert_auxEN9__gnu_cxx17__normal_ite
 651      00
 652              	.L35:
 914:/usr/include/c++/4.8/bits/stl_vector.h **** #endif
 915:/usr/include/c++/4.8/bits/stl_vector.h ****       }
 653              		.loc 5 915 0
 654 0078 C9       		leave
 655              		.cfi_def_cfa 7, 8
 656 0079 C3       		ret
 657              		.cfi_endproc
 658              	.LFE837:
 660              		.section	.text._ZNSt6vectorIN8UnitTest18DeferredTestResultESaIS1_EE4backEv,"axG",@progbits,_ZNSt6v
 661              		.align 2
 662              		.weak	_ZNSt6vectorIN8UnitTest18DeferredTestResultESaIS1_EE4backEv
 664              	_ZNSt6vectorIN8UnitTest18DeferredTestResultESaIS1_EE4backEv:
 665              	.LFB838:
 855:/usr/include/c++/4.8/bits/stl_vector.h ****       { return *(end() - 1); }
 666              		.loc 5 855 0
 667              		.cfi_startproc
 668 0000 55       		pushq	%rbp
 669              		.cfi_def_cfa_offset 16
 670              		.cfi_offset 6, -16
 671 0001 4889E5   		movq	%rsp, %rbp
 672              		.cfi_def_cfa_register 6
 673 0004 4883EC30 		subq	$48, %rsp
 674 0008 48897DD8 		movq	%rdi, -40(%rbp)
 856:/usr/include/c++/4.8/bits/stl_vector.h ****       
 675              		.loc 5 856 0
 676 000c 48C745F8 		movq	$1, -8(%rbp)
 676      01000000 
 677 0014 488B45D8 		movq	-40(%rbp), %rax
 678 0018 4889C7   		movq	%rax, %rdi
 679 001b E8000000 		call	_ZNSt6vectorIN8UnitTest18DeferredTestResultESaIS1_EE3endEv@PLT
 679      00
 680 0020 488945E0 		movq	%rax, -32(%rbp)
 681 0024 488D55F8 		leaq	-8(%rbp), %rdx
 682 0028 488D45E0 		leaq	-32(%rbp), %rax
 683 002c 4889D6   		movq	%rdx, %rsi
 684 002f 4889C7   		movq	%rax, %rdi
 685 0032 E8000000 		call	_ZNK9__gnu_cxx17__normal_iteratorIPN8UnitTest18DeferredTestResultESt6vectorIS2_SaIS2_EEEmiERK
 685      00
 686 0037 488945F0 		movq	%rax, -16(%rbp)
 687 003b 488D45F0 		leaq	-16(%rbp), %rax
 688 003f 4889C7   		movq	%rax, %rdi
 689 0042 E8000000 		call	_ZNK9__gnu_cxx17__normal_iteratorIPN8UnitTest18DeferredTestResultESt6vectorIS2_SaIS2_EEEdeEv@
 689      00
 690 0047 C9       		leave
 691              		.cfi_def_cfa 7, 8
 692 0048 C3       		ret
 693              		.cfi_endproc
 694              	.LFE838:
 696              		.section	.text._ZNSt4pairIiSsEC2ERKiRKSs,"axG",@progbits,_ZNSt4pairIiSsEC5ERKiRKSs,comdat
 697              		.align 2
 698              		.weak	_ZNSt4pairIiSsEC2ERKiRKSs
 700              	_ZNSt4pairIiSsEC2ERKiRKSs:
 701              	.LFB846:
  97:/usr/include/c++/4.8/bits/stl_pair.h ****     {
  98:/usr/include/c++/4.8/bits/stl_pair.h ****       typedef _T1 first_type;    /// @c first_type is the first bound type
  99:/usr/include/c++/4.8/bits/stl_pair.h ****       typedef _T2 second_type;   /// @c second_type is the second bound type
 100:/usr/include/c++/4.8/bits/stl_pair.h **** 
 101:/usr/include/c++/4.8/bits/stl_pair.h ****       _T1 first;                 /// @c first is a copy of the first object
 102:/usr/include/c++/4.8/bits/stl_pair.h ****       _T2 second;                /// @c second is a copy of the second object
 103:/usr/include/c++/4.8/bits/stl_pair.h **** 
 104:/usr/include/c++/4.8/bits/stl_pair.h ****       // _GLIBCXX_RESOLVE_LIB_DEFECTS
 105:/usr/include/c++/4.8/bits/stl_pair.h ****       // 265.  std::pair::pair() effects overly restrictive
 106:/usr/include/c++/4.8/bits/stl_pair.h ****       /** The default constructor creates @c first and @c second using their
 107:/usr/include/c++/4.8/bits/stl_pair.h ****        *  respective default constructors.  */
 108:/usr/include/c++/4.8/bits/stl_pair.h ****       _GLIBCXX_CONSTEXPR pair()
 109:/usr/include/c++/4.8/bits/stl_pair.h ****       : first(), second() { }
 110:/usr/include/c++/4.8/bits/stl_pair.h **** 
 111:/usr/include/c++/4.8/bits/stl_pair.h ****       /** Two objects may be passed to a @c pair constructor to be copied.  */
 112:/usr/include/c++/4.8/bits/stl_pair.h ****       _GLIBCXX_CONSTEXPR pair(const _T1& __a, const _T2& __b)
 702              		.loc 4 112 0
 703              		.cfi_startproc
 704 0000 55       		pushq	%rbp
 705              		.cfi_def_cfa_offset 16
 706              		.cfi_offset 6, -16
 707 0001 4889E5   		movq	%rsp, %rbp
 708              		.cfi_def_cfa_register 6
 709 0004 4883EC20 		subq	$32, %rsp
 710 0008 48897DF8 		movq	%rdi, -8(%rbp)
 711 000c 488975F0 		movq	%rsi, -16(%rbp)
 712 0010 488955E8 		movq	%rdx, -24(%rbp)
 713              	.LBB7:
 113:/usr/include/c++/4.8/bits/stl_pair.h ****       : first(__a), second(__b) { }
 714              		.loc 4 113 0
 715 0014 488B45F0 		movq	-16(%rbp), %rax
 716 0018 8B10     		movl	(%rax), %edx
 717 001a 488B45F8 		movq	-8(%rbp), %rax
 718 001e 8910     		movl	%edx, (%rax)
 719 0020 488B45F8 		movq	-8(%rbp), %rax
 720 0024 488D5008 		leaq	8(%rax), %rdx
 721 0028 488B45E8 		movq	-24(%rbp), %rax
 722 002c 4889C6   		movq	%rax, %rsi
 723 002f 4889D7   		movq	%rdx, %rdi
 724 0032 E8000000 		call	_ZNSsC1ERKSs@PLT
 724      00
 725              	.LBE7:
 726 0037 C9       		leave
 727              		.cfi_def_cfa 7, 8
 728 0038 C3       		ret
 729              		.cfi_endproc
 730              	.LFE846:
 732              		.weak	_ZNSt4pairIiSsEC1ERKiRKSs
 733              		.set	_ZNSt4pairIiSsEC1ERKiRKSs,_ZNSt4pairIiSsEC2ERKiRKSs
 734              		.section	.text._ZNSt6vectorISt4pairIiSsESaIS1_EE9push_backERKS1_,"axG",@progbits,_ZNSt6vectorISt4p
 735              		.align 2
 736              		.weak	_ZNSt6vectorISt4pairIiSsESaIS1_EE9push_backERKS1_
 738              	_ZNSt6vectorISt4pairIiSsESaIS1_EE9push_backERKS1_:
 739              	.LFB848:
 901:/usr/include/c++/4.8/bits/stl_vector.h ****       {
 740              		.loc 5 901 0
 741              		.cfi_startproc
 742 0000 55       		pushq	%rbp
 743              		.cfi_def_cfa_offset 16
 744              		.cfi_offset 6, -16
 745 0001 4889E5   		movq	%rsp, %rbp
 746              		.cfi_def_cfa_register 6
 747 0004 4883EC10 		subq	$16, %rsp
 748 0008 48897DF8 		movq	%rdi, -8(%rbp)
 749 000c 488975F0 		movq	%rsi, -16(%rbp)
 903:/usr/include/c++/4.8/bits/stl_vector.h **** 	  {
 750              		.loc 5 903 0
 751 0010 488B45F8 		movq	-8(%rbp), %rax
 752 0014 488B5008 		movq	8(%rax), %rdx
 753 0018 488B45F8 		movq	-8(%rbp), %rax
 754 001c 488B4010 		movq	16(%rax), %rax
 755 0020 4839C2   		cmpq	%rax, %rdx
 756 0023 7431     		je	.L42
 906:/usr/include/c++/4.8/bits/stl_vector.h **** 	    ++this->_M_impl._M_finish;
 757              		.loc 5 906 0
 758 0025 488B45F8 		movq	-8(%rbp), %rax
 759 0029 488B4808 		movq	8(%rax), %rcx
 760 002d 488B45F8 		movq	-8(%rbp), %rax
 905:/usr/include/c++/4.8/bits/stl_vector.h **** 	                             __x);
 761              		.loc 5 905 0
 762 0031 488B55F0 		movq	-16(%rbp), %rdx
 763 0035 4889CE   		movq	%rcx, %rsi
 764 0038 4889C7   		movq	%rax, %rdi
 765 003b E8000000 		call	_ZN9__gnu_cxx14__alloc_traitsISaISt4pairIiSsEEE9constructIS2_EEvRS3_PS2_RKT_@PLT
 765      00
 907:/usr/include/c++/4.8/bits/stl_vector.h **** 	  }
 766              		.loc 5 907 0
 767 0040 488B45F8 		movq	-8(%rbp), %rax
 768 0044 488B4008 		movq	8(%rax), %rax
 769 0048 488D5010 		leaq	16(%rax), %rdx
 770 004c 488B45F8 		movq	-8(%rbp), %rax
 771 0050 48895008 		movq	%rdx, 8(%rax)
 772 0054 EB22     		jmp	.L41
 773              	.L42:
 913:/usr/include/c++/4.8/bits/stl_vector.h **** #endif
 774              		.loc 5 913 0
 775 0056 488B45F8 		movq	-8(%rbp), %rax
 776 005a 4889C7   		movq	%rax, %rdi
 777 005d E8000000 		call	_ZNSt6vectorISt4pairIiSsESaIS1_EE3endEv@PLT
 777      00
 778 0062 4889C1   		movq	%rax, %rcx
 779 0065 488B55F0 		movq	-16(%rbp), %rdx
 780 0069 488B45F8 		movq	-8(%rbp), %rax
 781 006d 4889CE   		movq	%rcx, %rsi
 782 0070 4889C7   		movq	%rax, %rdi
 783 0073 E8000000 		call	_ZNSt6vectorISt4pairIiSsESaIS1_EE13_M_insert_auxEN9__gnu_cxx17__normal_iteratorIPS1_S3_EERKS1
 783      00
 784              	.L41:
 785              		.loc 5 915 0
 786 0078 C9       		leave
 787              		.cfi_def_cfa 7, 8
 788 0079 C3       		ret
 789              		.cfi_endproc
 790              	.LFE848:
 792              		.section	.text._ZNSt12_Vector_baseISt4pairIiSsESaIS1_EE12_Vector_implD2Ev,"axG",@progbits,_ZNSt12_
 793              		.align 2
 794              		.weak	_ZNSt12_Vector_baseISt4pairIiSsESaIS1_EE12_Vector_implD2Ev
 796              	_ZNSt12_Vector_baseISt4pairIiSsESaIS1_EE12_Vector_implD2Ev:
 797              	.LFB857:
  79:/usr/include/c++/4.8/bits/stl_vector.h ****       : public _Tp_alloc_type
 798              		.loc 5 79 0
 799              		.cfi_startproc
 800 0000 55       		pushq	%rbp
 801              		.cfi_def_cfa_offset 16
 802              		.cfi_offset 6, -16
 803 0001 4889E5   		movq	%rsp, %rbp
 804              		.cfi_def_cfa_register 6
 805 0004 4883EC10 		subq	$16, %rsp
 806 0008 48897DF8 		movq	%rdi, -8(%rbp)
 807              	.LBB8:
  79:/usr/include/c++/4.8/bits/stl_vector.h ****       : public _Tp_alloc_type
 808              		.loc 5 79 0
 809 000c 488B45F8 		movq	-8(%rbp), %rax
 810 0010 4889C7   		movq	%rax, %rdi
 811 0013 E8000000 		call	_ZNSaISt4pairIiSsEED2Ev@PLT
 811      00
 812              	.LBE8:
 813 0018 C9       		leave
 814              		.cfi_def_cfa 7, 8
 815 0019 C3       		ret
 816              		.cfi_endproc
 817              	.LFE857:
 819              		.weak	_ZNSt12_Vector_baseISt4pairIiSsESaIS1_EE12_Vector_implD1Ev
 820              		.set	_ZNSt12_Vector_baseISt4pairIiSsESaIS1_EE12_Vector_implD1Ev,_ZNSt12_Vector_baseISt4pairIiSsESa
 821              		.section	.text._ZNSt12_Vector_baseISt4pairIiSsESaIS1_EED2Ev,"axG",@progbits,_ZNSt12_Vector_baseISt
 822              		.align 2
 823              		.weak	_ZNSt12_Vector_baseISt4pairIiSsESaIS1_EED2Ev
 825              	_ZNSt12_Vector_baseISt4pairIiSsESaIS1_EED2Ev:
 826              	.LFB859:
 159:/usr/include/c++/4.8/bits/stl_vector.h ****       { _M_deallocate(this->_M_impl._M_start, this->_M_impl._M_end_of_storage
 827              		.loc 5 159 0
 828              		.cfi_startproc
 829              		.cfi_personality 0x9b,DW.ref.__gxx_personality_v0
 830              		.cfi_lsda 0x1b,.LLSDA859
 831 0000 55       		pushq	%rbp
 832              		.cfi_def_cfa_offset 16
 833              		.cfi_offset 6, -16
 834 0001 4889E5   		movq	%rsp, %rbp
 835              		.cfi_def_cfa_register 6
 836 0004 53       		pushq	%rbx
 837 0005 4883EC18 		subq	$24, %rsp
 838              		.cfi_offset 3, -24
 839 0009 48897DE8 		movq	%rdi, -24(%rbp)
 840              	.LBB9:
 161:/usr/include/c++/4.8/bits/stl_vector.h **** 
 841              		.loc 5 161 0
 842 000d 488B45E8 		movq	-24(%rbp), %rax
 843 0011 488B4010 		movq	16(%rax), %rax
 844 0015 4889C2   		movq	%rax, %rdx
 845 0018 488B45E8 		movq	-24(%rbp), %rax
 846 001c 488B00   		movq	(%rax), %rax
 847 001f 4829C2   		subq	%rax, %rdx
 848 0022 4889D0   		movq	%rdx, %rax
 849 0025 48C1F804 		sarq	$4, %rax
 850 0029 4889C2   		movq	%rax, %rdx
 851 002c 488B45E8 		movq	-24(%rbp), %rax
 852 0030 488B08   		movq	(%rax), %rcx
 160:/usr/include/c++/4.8/bits/stl_vector.h **** 		      - this->_M_impl._M_start); }
 853              		.loc 5 160 0
 854 0033 488B45E8 		movq	-24(%rbp), %rax
 855 0037 4889CE   		movq	%rcx, %rsi
 856 003a 4889C7   		movq	%rax, %rdi
 857              	.LEHB20:
 858 003d E8000000 		call	_ZNSt12_Vector_baseISt4pairIiSsESaIS1_EE13_M_deallocateEPS1_m@PLT
 858      00
 859              	.LEHE20:
 161:/usr/include/c++/4.8/bits/stl_vector.h **** 
 860              		.loc 5 161 0
 861 0042 488B45E8 		movq	-24(%rbp), %rax
 862 0046 4889C7   		movq	%rax, %rdi
 863 0049 E8000000 		call	_ZNSt12_Vector_baseISt4pairIiSsESaIS1_EE12_Vector_implD1Ev@PLT
 863      00
 864 004e EB1A     		jmp	.L50
 865              	.L49:
 866 0050 4889C3   		movq	%rax, %rbx
 867 0053 488B45E8 		movq	-24(%rbp), %rax
 868 0057 4889C7   		movq	%rax, %rdi
 869 005a E8000000 		call	_ZNSt12_Vector_baseISt4pairIiSsESaIS1_EE12_Vector_implD1Ev@PLT
 869      00
 870 005f 4889D8   		movq	%rbx, %rax
 871 0062 4889C7   		movq	%rax, %rdi
 872              	.LEHB21:
 873 0065 E8000000 		call	_Unwind_Resume@PLT
 873      00
 874              	.LEHE21:
 875              	.L50:
 876              	.LBE9:
 877 006a 4883C418 		addq	$24, %rsp
 878 006e 5B       		popq	%rbx
 879 006f 5D       		popq	%rbp
 880              		.cfi_def_cfa 7, 8
 881 0070 C3       		ret
 882              		.cfi_endproc
 883              	.LFE859:
 884              		.section	.gcc_except_table
 885              	.LLSDA859:
 886 0052 FF       		.byte	0xff
 887 0053 FF       		.byte	0xff
 888 0054 01       		.byte	0x1
 889 0055 08       		.uleb128 .LLSDACSE859-.LLSDACSB859
 890              	.LLSDACSB859:
 891 0056 3D       		.uleb128 .LEHB20-.LFB859
 892 0057 05       		.uleb128 .LEHE20-.LEHB20
 893 0058 50       		.uleb128 .L49-.LFB859
 894 0059 00       		.uleb128 0
 895 005a 65       		.uleb128 .LEHB21-.LFB859
 896 005b 05       		.uleb128 .LEHE21-.LEHB21
 897 005c 00       		.uleb128 0
 898 005d 00       		.uleb128 0
 899              	.LLSDACSE859:
 900              		.section	.text._ZNSt12_Vector_baseISt4pairIiSsESaIS1_EED2Ev,"axG",@progbits,_ZNSt12_Vector_baseISt
 902              		.weak	_ZNSt12_Vector_baseISt4pairIiSsESaIS1_EED1Ev
 903              		.set	_ZNSt12_Vector_baseISt4pairIiSsESaIS1_EED1Ev,_ZNSt12_Vector_baseISt4pairIiSsESaIS1_EED2Ev
 904              		.section	.text._ZNSt12_Vector_baseISt4pairIiSsESaIS1_EE19_M_get_Tp_allocatorEv,"axG",@progbits,_ZN
 905              		.align 2
 906              		.weak	_ZNSt12_Vector_baseISt4pairIiSsESaIS1_EE19_M_get_Tp_allocatorEv
 908              	_ZNSt12_Vector_baseISt4pairIiSsESaIS1_EE19_M_get_Tp_allocatorEv:
 909              	.LFB861:
 113:/usr/include/c++/4.8/bits/stl_vector.h ****       { return *static_cast<_Tp_alloc_type*>(&this->_M_impl); }
 910              		.loc 5 113 0
 911              		.cfi_startproc
 912 0000 55       		pushq	%rbp
 913              		.cfi_def_cfa_offset 16
 914              		.cfi_offset 6, -16
 915 0001 4889E5   		movq	%rsp, %rbp
 916              		.cfi_def_cfa_register 6
 917 0004 48897DF8 		movq	%rdi, -8(%rbp)
 114:/usr/include/c++/4.8/bits/stl_vector.h **** 
 918              		.loc 5 114 0
 919 0008 488B45F8 		movq	-8(%rbp), %rax
 920 000c 5D       		popq	%rbp
 921              		.cfi_def_cfa 7, 8
 922 000d C3       		ret
 923              		.cfi_endproc
 924              	.LFE861:
 926              		.section	.text._ZSt8_DestroyIPSt4pairIiSsES1_EvT_S3_RSaIT0_E,"axG",@progbits,_ZSt8_DestroyIPSt4pai
 927              		.weak	_ZSt8_DestroyIPSt4pairIiSsES1_EvT_S3_RSaIT0_E
 929              	_ZSt8_DestroyIPSt4pairIiSsES1_EvT_S3_RSaIT0_E:
 930              	.LFB862:
 931              		.file 6 "/usr/include/c++/4.8/bits/stl_construct.h"
   1:/usr/include/c++/4.8/bits/stl_construct.h **** // nonstandard construct and destroy functions -*- C++ -*-
   2:/usr/include/c++/4.8/bits/stl_construct.h **** 
   3:/usr/include/c++/4.8/bits/stl_construct.h **** // Copyright (C) 2001-2013 Free Software Foundation, Inc.
   4:/usr/include/c++/4.8/bits/stl_construct.h **** //
   5:/usr/include/c++/4.8/bits/stl_construct.h **** // This file is part of the GNU ISO C++ Library.  This library is free
   6:/usr/include/c++/4.8/bits/stl_construct.h **** // software; you can redistribute it and/or modify it under the
   7:/usr/include/c++/4.8/bits/stl_construct.h **** // terms of the GNU General Public License as published by the
   8:/usr/include/c++/4.8/bits/stl_construct.h **** // Free Software Foundation; either version 3, or (at your option)
   9:/usr/include/c++/4.8/bits/stl_construct.h **** // any later version.
  10:/usr/include/c++/4.8/bits/stl_construct.h **** 
  11:/usr/include/c++/4.8/bits/stl_construct.h **** // This library is distributed in the hope that it will be useful,
  12:/usr/include/c++/4.8/bits/stl_construct.h **** // but WITHOUT ANY WARRANTY; without even the implied warranty of
  13:/usr/include/c++/4.8/bits/stl_construct.h **** // MERCHANTABILITY or FITNESS FOR A PARTICULAR PURPOSE.  See the
  14:/usr/include/c++/4.8/bits/stl_construct.h **** // GNU General Public License for more details.
  15:/usr/include/c++/4.8/bits/stl_construct.h **** 
  16:/usr/include/c++/4.8/bits/stl_construct.h **** // Under Section 7 of GPL version 3, you are granted additional
  17:/usr/include/c++/4.8/bits/stl_construct.h **** // permissions described in the GCC Runtime Library Exception, version
  18:/usr/include/c++/4.8/bits/stl_construct.h **** // 3.1, as published by the Free Software Foundation.
  19:/usr/include/c++/4.8/bits/stl_construct.h **** 
  20:/usr/include/c++/4.8/bits/stl_construct.h **** // You should have received a copy of the GNU General Public License and
  21:/usr/include/c++/4.8/bits/stl_construct.h **** // a copy of the GCC Runtime Library Exception along with this program;
  22:/usr/include/c++/4.8/bits/stl_construct.h **** // see the files COPYING3 and COPYING.RUNTIME respectively.  If not, see
  23:/usr/include/c++/4.8/bits/stl_construct.h **** // <http://www.gnu.org/licenses/>.
  24:/usr/include/c++/4.8/bits/stl_construct.h **** 
  25:/usr/include/c++/4.8/bits/stl_construct.h **** /*
  26:/usr/include/c++/4.8/bits/stl_construct.h ****  *
  27:/usr/include/c++/4.8/bits/stl_construct.h ****  * Copyright (c) 1994
  28:/usr/include/c++/4.8/bits/stl_construct.h ****  * Hewlett-Packard Company
  29:/usr/include/c++/4.8/bits/stl_construct.h ****  *
  30:/usr/include/c++/4.8/bits/stl_construct.h ****  * Permission to use, copy, modify, distribute and sell this software
  31:/usr/include/c++/4.8/bits/stl_construct.h ****  * and its documentation for any purpose is hereby granted without fee,
  32:/usr/include/c++/4.8/bits/stl_construct.h ****  * provided that the above copyright notice appear in all copies and
  33:/usr/include/c++/4.8/bits/stl_construct.h ****  * that both that copyright notice and this permission notice appear
  34:/usr/include/c++/4.8/bits/stl_construct.h ****  * in supporting documentation.  Hewlett-Packard Company makes no
  35:/usr/include/c++/4.8/bits/stl_construct.h ****  * representations about the suitability of this software for any
  36:/usr/include/c++/4.8/bits/stl_construct.h ****  * purpose.  It is provided "as is" without express or implied warranty.
  37:/usr/include/c++/4.8/bits/stl_construct.h ****  *
  38:/usr/include/c++/4.8/bits/stl_construct.h ****  *
  39:/usr/include/c++/4.8/bits/stl_construct.h ****  * Copyright (c) 1996,1997
  40:/usr/include/c++/4.8/bits/stl_construct.h ****  * Silicon Graphics Computer Systems, Inc.
  41:/usr/include/c++/4.8/bits/stl_construct.h ****  *
  42:/usr/include/c++/4.8/bits/stl_construct.h ****  * Permission to use, copy, modify, distribute and sell this software
  43:/usr/include/c++/4.8/bits/stl_construct.h ****  * and its documentation for any purpose is hereby granted without fee,
  44:/usr/include/c++/4.8/bits/stl_construct.h ****  * provided that the above copyright notice appear in all copies and
  45:/usr/include/c++/4.8/bits/stl_construct.h ****  * that both that copyright notice and this permission notice appear
  46:/usr/include/c++/4.8/bits/stl_construct.h ****  * in supporting documentation.  Silicon Graphics makes no
  47:/usr/include/c++/4.8/bits/stl_construct.h ****  * representations about the suitability of this software for any
  48:/usr/include/c++/4.8/bits/stl_construct.h ****  * purpose.  It is provided "as is" without express or implied warranty.
  49:/usr/include/c++/4.8/bits/stl_construct.h ****  */
  50:/usr/include/c++/4.8/bits/stl_construct.h **** 
  51:/usr/include/c++/4.8/bits/stl_construct.h **** /** @file bits/stl_construct.h
  52:/usr/include/c++/4.8/bits/stl_construct.h ****  *  This is an internal header file, included by other library headers.
  53:/usr/include/c++/4.8/bits/stl_construct.h ****  *  Do not attempt to use it directly. @headername{memory}
  54:/usr/include/c++/4.8/bits/stl_construct.h ****  */
  55:/usr/include/c++/4.8/bits/stl_construct.h **** 
  56:/usr/include/c++/4.8/bits/stl_construct.h **** #ifndef _STL_CONSTRUCT_H
  57:/usr/include/c++/4.8/bits/stl_construct.h **** #define _STL_CONSTRUCT_H 1
  58:/usr/include/c++/4.8/bits/stl_construct.h **** 
  59:/usr/include/c++/4.8/bits/stl_construct.h **** #include <new>
  60:/usr/include/c++/4.8/bits/stl_construct.h **** #include <bits/move.h>
  61:/usr/include/c++/4.8/bits/stl_construct.h **** #include <ext/alloc_traits.h>
  62:/usr/include/c++/4.8/bits/stl_construct.h **** 
  63:/usr/include/c++/4.8/bits/stl_construct.h **** namespace std _GLIBCXX_VISIBILITY(default)
  64:/usr/include/c++/4.8/bits/stl_construct.h **** {
  65:/usr/include/c++/4.8/bits/stl_construct.h **** _GLIBCXX_BEGIN_NAMESPACE_VERSION
  66:/usr/include/c++/4.8/bits/stl_construct.h **** 
  67:/usr/include/c++/4.8/bits/stl_construct.h ****   /**
  68:/usr/include/c++/4.8/bits/stl_construct.h ****    * Constructs an object in existing memory by invoking an allocated
  69:/usr/include/c++/4.8/bits/stl_construct.h ****    * object's constructor with an initializer.
  70:/usr/include/c++/4.8/bits/stl_construct.h ****    */
  71:/usr/include/c++/4.8/bits/stl_construct.h **** #if __cplusplus >= 201103L
  72:/usr/include/c++/4.8/bits/stl_construct.h ****   template<typename _T1, typename... _Args>
  73:/usr/include/c++/4.8/bits/stl_construct.h ****     inline void
  74:/usr/include/c++/4.8/bits/stl_construct.h ****     _Construct(_T1* __p, _Args&&... __args)
  75:/usr/include/c++/4.8/bits/stl_construct.h ****     { ::new(static_cast<void*>(__p)) _T1(std::forward<_Args>(__args)...); }
  76:/usr/include/c++/4.8/bits/stl_construct.h **** #else
  77:/usr/include/c++/4.8/bits/stl_construct.h ****   template<typename _T1, typename _T2>
  78:/usr/include/c++/4.8/bits/stl_construct.h ****     inline void
  79:/usr/include/c++/4.8/bits/stl_construct.h ****     _Construct(_T1* __p, const _T2& __value)
  80:/usr/include/c++/4.8/bits/stl_construct.h ****     {
  81:/usr/include/c++/4.8/bits/stl_construct.h ****       // _GLIBCXX_RESOLVE_LIB_DEFECTS
  82:/usr/include/c++/4.8/bits/stl_construct.h ****       // 402. wrong new expression in [some_]allocator::construct
  83:/usr/include/c++/4.8/bits/stl_construct.h ****       ::new(static_cast<void*>(__p)) _T1(__value);
  84:/usr/include/c++/4.8/bits/stl_construct.h ****     }
  85:/usr/include/c++/4.8/bits/stl_construct.h **** #endif
  86:/usr/include/c++/4.8/bits/stl_construct.h **** 
  87:/usr/include/c++/4.8/bits/stl_construct.h ****   /**
  88:/usr/include/c++/4.8/bits/stl_construct.h ****    * Destroy the object pointed to by a pointer type.
  89:/usr/include/c++/4.8/bits/stl_construct.h ****    */
  90:/usr/include/c++/4.8/bits/stl_construct.h ****   template<typename _Tp>
  91:/usr/include/c++/4.8/bits/stl_construct.h ****     inline void
  92:/usr/include/c++/4.8/bits/stl_construct.h ****     _Destroy(_Tp* __pointer)
  93:/usr/include/c++/4.8/bits/stl_construct.h ****     { __pointer->~_Tp(); }
  94:/usr/include/c++/4.8/bits/stl_construct.h **** 
  95:/usr/include/c++/4.8/bits/stl_construct.h ****   template<bool>
  96:/usr/include/c++/4.8/bits/stl_construct.h ****     struct _Destroy_aux
  97:/usr/include/c++/4.8/bits/stl_construct.h ****     {
  98:/usr/include/c++/4.8/bits/stl_construct.h ****       template<typename _ForwardIterator>
  99:/usr/include/c++/4.8/bits/stl_construct.h ****         static void
 100:/usr/include/c++/4.8/bits/stl_construct.h ****         __destroy(_ForwardIterator __first, _ForwardIterator __last)
 101:/usr/include/c++/4.8/bits/stl_construct.h **** 	{
 102:/usr/include/c++/4.8/bits/stl_construct.h **** 	  for (; __first != __last; ++__first)
 103:/usr/include/c++/4.8/bits/stl_construct.h **** 	    std::_Destroy(std::__addressof(*__first));
 104:/usr/include/c++/4.8/bits/stl_construct.h **** 	}
 105:/usr/include/c++/4.8/bits/stl_construct.h ****     };
 106:/usr/include/c++/4.8/bits/stl_construct.h **** 
 107:/usr/include/c++/4.8/bits/stl_construct.h ****   template<>
 108:/usr/include/c++/4.8/bits/stl_construct.h ****     struct _Destroy_aux<true>
 109:/usr/include/c++/4.8/bits/stl_construct.h ****     {
 110:/usr/include/c++/4.8/bits/stl_construct.h ****       template<typename _ForwardIterator>
 111:/usr/include/c++/4.8/bits/stl_construct.h ****         static void
 112:/usr/include/c++/4.8/bits/stl_construct.h ****         __destroy(_ForwardIterator, _ForwardIterator) { }
 113:/usr/include/c++/4.8/bits/stl_construct.h ****     };
 114:/usr/include/c++/4.8/bits/stl_construct.h **** 
 115:/usr/include/c++/4.8/bits/stl_construct.h ****   /**
 116:/usr/include/c++/4.8/bits/stl_construct.h ****    * Destroy a range of objects.  If the value_type of the object has
 117:/usr/include/c++/4.8/bits/stl_construct.h ****    * a trivial destructor, the compiler should optimize all of this
 118:/usr/include/c++/4.8/bits/stl_construct.h ****    * away, otherwise the objects' destructors must be invoked.
 119:/usr/include/c++/4.8/bits/stl_construct.h ****    */
 120:/usr/include/c++/4.8/bits/stl_construct.h ****   template<typename _ForwardIterator>
 121:/usr/include/c++/4.8/bits/stl_construct.h ****     inline void
 122:/usr/include/c++/4.8/bits/stl_construct.h ****     _Destroy(_ForwardIterator __first, _ForwardIterator __last)
 123:/usr/include/c++/4.8/bits/stl_construct.h ****     {
 124:/usr/include/c++/4.8/bits/stl_construct.h ****       typedef typename iterator_traits<_ForwardIterator>::value_type
 125:/usr/include/c++/4.8/bits/stl_construct.h ****                        _Value_type;
 126:/usr/include/c++/4.8/bits/stl_construct.h ****       std::_Destroy_aux<__has_trivial_destructor(_Value_type)>::
 127:/usr/include/c++/4.8/bits/stl_construct.h **** 	__destroy(__first, __last);
 128:/usr/include/c++/4.8/bits/stl_construct.h ****     }
 129:/usr/include/c++/4.8/bits/stl_construct.h **** 
 130:/usr/include/c++/4.8/bits/stl_construct.h ****   /**
 131:/usr/include/c++/4.8/bits/stl_construct.h ****    * Destroy a range of objects using the supplied allocator.  For
 132:/usr/include/c++/4.8/bits/stl_construct.h ****    * nondefault allocators we do not optimize away invocation of 
 133:/usr/include/c++/4.8/bits/stl_construct.h ****    * destroy() even if _Tp has a trivial destructor.
 134:/usr/include/c++/4.8/bits/stl_construct.h ****    */
 135:/usr/include/c++/4.8/bits/stl_construct.h **** 
 136:/usr/include/c++/4.8/bits/stl_construct.h ****   template<typename _ForwardIterator, typename _Allocator>
 137:/usr/include/c++/4.8/bits/stl_construct.h ****     void
 138:/usr/include/c++/4.8/bits/stl_construct.h ****     _Destroy(_ForwardIterator __first, _ForwardIterator __last,
 139:/usr/include/c++/4.8/bits/stl_construct.h **** 	     _Allocator& __alloc)
 140:/usr/include/c++/4.8/bits/stl_construct.h ****     {
 141:/usr/include/c++/4.8/bits/stl_construct.h ****       typedef __gnu_cxx::__alloc_traits<_Allocator> __traits;
 142:/usr/include/c++/4.8/bits/stl_construct.h ****       for (; __first != __last; ++__first)
 143:/usr/include/c++/4.8/bits/stl_construct.h **** 	__traits::destroy(__alloc, std::__addressof(*__first));
 144:/usr/include/c++/4.8/bits/stl_construct.h ****     }
 145:/usr/include/c++/4.8/bits/stl_construct.h **** 
 146:/usr/include/c++/4.8/bits/stl_construct.h ****   template<typename _ForwardIterator, typename _Tp>
 147:/usr/include/c++/4.8/bits/stl_construct.h ****     inline void
 148:/usr/include/c++/4.8/bits/stl_construct.h ****     _Destroy(_ForwardIterator __first, _ForwardIterator __last,
 932              		.loc 6 148 0
 933              		.cfi_startproc
 934 0000 55       		pushq	%rbp
 935              		.cfi_def_cfa_offset 16
 936              		.cfi_offset 6, -16
 937 0001 4889E5   		movq	%rsp, %rbp
 938              		.cfi_def_cfa_register 6
 939 0004 4883EC20 		subq	$32, %rsp
 940 0008 48897DF8 		movq	%rdi, -8(%rbp)
 941 000c 488975F0 		movq	%rsi, -16(%rbp)
 942 0010 488955E8 		movq	%rdx, -24(%rbp)
 149:/usr/include/c++/4.8/bits/stl_construct.h **** 	     allocator<_Tp>&)
 150:/usr/include/c++/4.8/bits/stl_construct.h ****     {
 151:/usr/include/c++/4.8/bits/stl_construct.h ****       _Destroy(__first, __last);
 943              		.loc 6 151 0
 944 0014 488B55F0 		movq	-16(%rbp), %rdx
 945 0018 488B45F8 		movq	-8(%rbp), %rax
 946 001c 4889D6   		movq	%rdx, %rsi
 947 001f 4889C7   		movq	%rax, %rdi
 948 0022 E8000000 		call	_ZSt8_DestroyIPSt4pairIiSsEEvT_S3_@PLT
 948      00
 152:/usr/include/c++/4.8/bits/stl_construct.h ****     }
 949              		.loc 6 152 0
 950 0027 C9       		leave
 951              		.cfi_def_cfa 7, 8
 952 0028 C3       		ret
 953              		.cfi_endproc
 954              	.LFE862:
 956              		.section	.text._ZN9__gnu_cxx14__alloc_traitsISaIN8UnitTest18DeferredTestResultEEE9constructIS2_EEv
 957              		.weak	_ZN9__gnu_cxx14__alloc_traitsISaIN8UnitTest18DeferredTestResultEEE9constructIS2_EEvRS3_PS2_R
 959              	_ZN9__gnu_cxx14__alloc_traitsISaIN8UnitTest18DeferredTestResultEEE9constructIS2_EEvRS3_PS2_RKT_:
 960              	.LFB863:
 961              		.file 7 "/usr/include/c++/4.8/ext/alloc_traits.h"
   1:/usr/include/c++/4.8/ext/alloc_traits.h **** // Allocator traits -*- C++ -*-
   2:/usr/include/c++/4.8/ext/alloc_traits.h **** 
   3:/usr/include/c++/4.8/ext/alloc_traits.h **** // Copyright (C) 2011-2013 Free Software Foundation, Inc.
   4:/usr/include/c++/4.8/ext/alloc_traits.h **** //
   5:/usr/include/c++/4.8/ext/alloc_traits.h **** // This file is part of the GNU ISO C++ Library.  This library is free
   6:/usr/include/c++/4.8/ext/alloc_traits.h **** // software; you can redistribute it and/or modify it under the
   7:/usr/include/c++/4.8/ext/alloc_traits.h **** // terms of the GNU General Public License as published by the
   8:/usr/include/c++/4.8/ext/alloc_traits.h **** // Free Software Foundation; either version 3, or (at your option)
   9:/usr/include/c++/4.8/ext/alloc_traits.h **** // any later version.
  10:/usr/include/c++/4.8/ext/alloc_traits.h **** 
  11:/usr/include/c++/4.8/ext/alloc_traits.h **** // This library is distributed in the hope that it will be useful,
  12:/usr/include/c++/4.8/ext/alloc_traits.h **** // but WITHOUT ANY WARRANTY; without even the implied warranty of
  13:/usr/include/c++/4.8/ext/alloc_traits.h **** // MERCHANTABILITY or FITNESS FOR A PARTICULAR PURPOSE.  See the
  14:/usr/include/c++/4.8/ext/alloc_traits.h **** // GNU General Public License for more details.
  15:/usr/include/c++/4.8/ext/alloc_traits.h **** 
  16:/usr/include/c++/4.8/ext/alloc_traits.h **** // Under Section 7 of GPL version 3, you are granted additional
  17:/usr/include/c++/4.8/ext/alloc_traits.h **** // permissions described in the GCC Runtime Library Exception, version
  18:/usr/include/c++/4.8/ext/alloc_traits.h **** // 3.1, as published by the Free Software Foundation.
  19:/usr/include/c++/4.8/ext/alloc_traits.h **** 
  20:/usr/include/c++/4.8/ext/alloc_traits.h **** // You should have received a copy of the GNU General Public License and
  21:/usr/include/c++/4.8/ext/alloc_traits.h **** // a copy of the GCC Runtime Library Exception along with this program;
  22:/usr/include/c++/4.8/ext/alloc_traits.h **** // see the files COPYING3 and COPYING.RUNTIME respectively.  If not, see
  23:/usr/include/c++/4.8/ext/alloc_traits.h **** // <http://www.gnu.org/licenses/>.
  24:/usr/include/c++/4.8/ext/alloc_traits.h **** 
  25:/usr/include/c++/4.8/ext/alloc_traits.h **** /** @file ext/alloc_traits.h
  26:/usr/include/c++/4.8/ext/alloc_traits.h ****  *  This file is a GNU extension to the Standard C++ Library.
  27:/usr/include/c++/4.8/ext/alloc_traits.h ****  */
  28:/usr/include/c++/4.8/ext/alloc_traits.h **** 
  29:/usr/include/c++/4.8/ext/alloc_traits.h **** #ifndef _EXT_ALLOC_TRAITS_H
  30:/usr/include/c++/4.8/ext/alloc_traits.h **** #define _EXT_ALLOC_TRAITS_H 1
  31:/usr/include/c++/4.8/ext/alloc_traits.h **** 
  32:/usr/include/c++/4.8/ext/alloc_traits.h **** #pragma GCC system_header
  33:/usr/include/c++/4.8/ext/alloc_traits.h **** 
  34:/usr/include/c++/4.8/ext/alloc_traits.h **** #if __cplusplus >= 201103L
  35:/usr/include/c++/4.8/ext/alloc_traits.h **** # include <bits/move.h>
  36:/usr/include/c++/4.8/ext/alloc_traits.h **** # include <bits/alloc_traits.h>
  37:/usr/include/c++/4.8/ext/alloc_traits.h **** #else
  38:/usr/include/c++/4.8/ext/alloc_traits.h **** # include <bits/allocator.h>  // for __alloc_swap
  39:/usr/include/c++/4.8/ext/alloc_traits.h **** #endif
  40:/usr/include/c++/4.8/ext/alloc_traits.h **** 
  41:/usr/include/c++/4.8/ext/alloc_traits.h **** namespace __gnu_cxx _GLIBCXX_VISIBILITY(default)
  42:/usr/include/c++/4.8/ext/alloc_traits.h **** {
  43:/usr/include/c++/4.8/ext/alloc_traits.h **** _GLIBCXX_BEGIN_NAMESPACE_VERSION
  44:/usr/include/c++/4.8/ext/alloc_traits.h **** 
  45:/usr/include/c++/4.8/ext/alloc_traits.h **** #if __cplusplus >= 201103L
  46:/usr/include/c++/4.8/ext/alloc_traits.h ****   template<typename _Alloc>
  47:/usr/include/c++/4.8/ext/alloc_traits.h ****     struct __allocator_always_compares_equal
  48:/usr/include/c++/4.8/ext/alloc_traits.h ****     { static const bool value = false; };
  49:/usr/include/c++/4.8/ext/alloc_traits.h **** 
  50:/usr/include/c++/4.8/ext/alloc_traits.h ****   template<typename _Alloc>
  51:/usr/include/c++/4.8/ext/alloc_traits.h ****     const bool __allocator_always_compares_equal<_Alloc>::value;
  52:/usr/include/c++/4.8/ext/alloc_traits.h **** 
  53:/usr/include/c++/4.8/ext/alloc_traits.h ****   template<typename _Tp>
  54:/usr/include/c++/4.8/ext/alloc_traits.h ****     struct __allocator_always_compares_equal<std::allocator<_Tp>>
  55:/usr/include/c++/4.8/ext/alloc_traits.h ****     { static const bool value = true; };
  56:/usr/include/c++/4.8/ext/alloc_traits.h **** 
  57:/usr/include/c++/4.8/ext/alloc_traits.h ****   template<typename _Tp>
  58:/usr/include/c++/4.8/ext/alloc_traits.h ****     const bool __allocator_always_compares_equal<std::allocator<_Tp>>::value;
  59:/usr/include/c++/4.8/ext/alloc_traits.h **** 
  60:/usr/include/c++/4.8/ext/alloc_traits.h ****   template<typename, typename> struct array_allocator;
  61:/usr/include/c++/4.8/ext/alloc_traits.h **** 
  62:/usr/include/c++/4.8/ext/alloc_traits.h ****   template<typename _Tp, typename _Array>
  63:/usr/include/c++/4.8/ext/alloc_traits.h ****     struct __allocator_always_compares_equal<array_allocator<_Tp, _Array>>
  64:/usr/include/c++/4.8/ext/alloc_traits.h ****     { static const bool value = true; };
  65:/usr/include/c++/4.8/ext/alloc_traits.h **** 
  66:/usr/include/c++/4.8/ext/alloc_traits.h ****   template<typename _Tp, typename _Array>
  67:/usr/include/c++/4.8/ext/alloc_traits.h ****     const bool
  68:/usr/include/c++/4.8/ext/alloc_traits.h ****     __allocator_always_compares_equal<array_allocator<_Tp, _Array>>::value;
  69:/usr/include/c++/4.8/ext/alloc_traits.h **** 
  70:/usr/include/c++/4.8/ext/alloc_traits.h ****   template<typename> struct bitmap_allocator;
  71:/usr/include/c++/4.8/ext/alloc_traits.h **** 
  72:/usr/include/c++/4.8/ext/alloc_traits.h ****   template<typename _Tp>
  73:/usr/include/c++/4.8/ext/alloc_traits.h ****     struct __allocator_always_compares_equal<bitmap_allocator<_Tp>>
  74:/usr/include/c++/4.8/ext/alloc_traits.h ****     { static const bool value = true; };
  75:/usr/include/c++/4.8/ext/alloc_traits.h **** 
  76:/usr/include/c++/4.8/ext/alloc_traits.h ****   template<typename _Tp>
  77:/usr/include/c++/4.8/ext/alloc_traits.h ****     const bool __allocator_always_compares_equal<bitmap_allocator<_Tp>>::value;
  78:/usr/include/c++/4.8/ext/alloc_traits.h **** 
  79:/usr/include/c++/4.8/ext/alloc_traits.h ****   template<typename> struct malloc_allocator;
  80:/usr/include/c++/4.8/ext/alloc_traits.h **** 
  81:/usr/include/c++/4.8/ext/alloc_traits.h ****   template<typename _Tp>
  82:/usr/include/c++/4.8/ext/alloc_traits.h ****     struct __allocator_always_compares_equal<malloc_allocator<_Tp>>
  83:/usr/include/c++/4.8/ext/alloc_traits.h ****     { static const bool value = true; };
  84:/usr/include/c++/4.8/ext/alloc_traits.h **** 
  85:/usr/include/c++/4.8/ext/alloc_traits.h ****   template<typename _Tp>
  86:/usr/include/c++/4.8/ext/alloc_traits.h ****     const bool __allocator_always_compares_equal<malloc_allocator<_Tp>>::value;
  87:/usr/include/c++/4.8/ext/alloc_traits.h **** 
  88:/usr/include/c++/4.8/ext/alloc_traits.h ****   template<typename> struct mt_allocator;
  89:/usr/include/c++/4.8/ext/alloc_traits.h **** 
  90:/usr/include/c++/4.8/ext/alloc_traits.h ****   template<typename _Tp>
  91:/usr/include/c++/4.8/ext/alloc_traits.h ****     struct __allocator_always_compares_equal<mt_allocator<_Tp>>
  92:/usr/include/c++/4.8/ext/alloc_traits.h ****     { static const bool value = true; };
  93:/usr/include/c++/4.8/ext/alloc_traits.h **** 
  94:/usr/include/c++/4.8/ext/alloc_traits.h ****   template<typename _Tp>
  95:/usr/include/c++/4.8/ext/alloc_traits.h ****     const bool __allocator_always_compares_equal<mt_allocator<_Tp>>::value;
  96:/usr/include/c++/4.8/ext/alloc_traits.h **** 
  97:/usr/include/c++/4.8/ext/alloc_traits.h ****   template<typename> struct new_allocator;
  98:/usr/include/c++/4.8/ext/alloc_traits.h **** 
  99:/usr/include/c++/4.8/ext/alloc_traits.h ****   template<typename _Tp>
 100:/usr/include/c++/4.8/ext/alloc_traits.h ****     struct __allocator_always_compares_equal<new_allocator<_Tp>>
 101:/usr/include/c++/4.8/ext/alloc_traits.h ****     { static const bool value = true; };
 102:/usr/include/c++/4.8/ext/alloc_traits.h **** 
 103:/usr/include/c++/4.8/ext/alloc_traits.h ****   template<typename _Tp>
 104:/usr/include/c++/4.8/ext/alloc_traits.h ****     const bool __allocator_always_compares_equal<new_allocator<_Tp>>::value;
 105:/usr/include/c++/4.8/ext/alloc_traits.h **** 
 106:/usr/include/c++/4.8/ext/alloc_traits.h ****   template<typename> struct pool_allocator;
 107:/usr/include/c++/4.8/ext/alloc_traits.h **** 
 108:/usr/include/c++/4.8/ext/alloc_traits.h ****   template<typename _Tp>
 109:/usr/include/c++/4.8/ext/alloc_traits.h ****     struct __allocator_always_compares_equal<pool_allocator<_Tp>>
 110:/usr/include/c++/4.8/ext/alloc_traits.h ****     { static const bool value = true; };
 111:/usr/include/c++/4.8/ext/alloc_traits.h **** 
 112:/usr/include/c++/4.8/ext/alloc_traits.h ****   template<typename _Tp>
 113:/usr/include/c++/4.8/ext/alloc_traits.h ****     const bool __allocator_always_compares_equal<pool_allocator<_Tp>>::value;
 114:/usr/include/c++/4.8/ext/alloc_traits.h **** #endif
 115:/usr/include/c++/4.8/ext/alloc_traits.h **** 
 116:/usr/include/c++/4.8/ext/alloc_traits.h **** /**
 117:/usr/include/c++/4.8/ext/alloc_traits.h ****  * @brief  Uniform interface to C++98 and C++0x allocators.
 118:/usr/include/c++/4.8/ext/alloc_traits.h ****  * @ingroup allocators
 119:/usr/include/c++/4.8/ext/alloc_traits.h **** */
 120:/usr/include/c++/4.8/ext/alloc_traits.h **** template<typename _Alloc>
 121:/usr/include/c++/4.8/ext/alloc_traits.h ****   struct __alloc_traits
 122:/usr/include/c++/4.8/ext/alloc_traits.h **** #if __cplusplus >= 201103L
 123:/usr/include/c++/4.8/ext/alloc_traits.h ****   : std::allocator_traits<_Alloc>
 124:/usr/include/c++/4.8/ext/alloc_traits.h **** #endif
 125:/usr/include/c++/4.8/ext/alloc_traits.h ****   {
 126:/usr/include/c++/4.8/ext/alloc_traits.h ****     typedef _Alloc allocator_type;
 127:/usr/include/c++/4.8/ext/alloc_traits.h **** #if __cplusplus >= 201103L
 128:/usr/include/c++/4.8/ext/alloc_traits.h ****     typedef std::allocator_traits<_Alloc>           _Base_type;
 129:/usr/include/c++/4.8/ext/alloc_traits.h ****     typedef typename _Base_type::value_type         value_type;
 130:/usr/include/c++/4.8/ext/alloc_traits.h ****     typedef typename _Base_type::pointer            pointer;
 131:/usr/include/c++/4.8/ext/alloc_traits.h ****     typedef typename _Base_type::const_pointer      const_pointer;
 132:/usr/include/c++/4.8/ext/alloc_traits.h ****     typedef typename _Base_type::size_type          size_type;
 133:/usr/include/c++/4.8/ext/alloc_traits.h ****     typedef typename _Base_type::difference_type    difference_type;
 134:/usr/include/c++/4.8/ext/alloc_traits.h ****     // C++0x allocators do not define reference or const_reference
 135:/usr/include/c++/4.8/ext/alloc_traits.h ****     typedef value_type&                             reference;
 136:/usr/include/c++/4.8/ext/alloc_traits.h ****     typedef const value_type&                       const_reference;
 137:/usr/include/c++/4.8/ext/alloc_traits.h ****     using _Base_type::allocate;
 138:/usr/include/c++/4.8/ext/alloc_traits.h ****     using _Base_type::deallocate;
 139:/usr/include/c++/4.8/ext/alloc_traits.h ****     using _Base_type::construct;
 140:/usr/include/c++/4.8/ext/alloc_traits.h ****     using _Base_type::destroy;
 141:/usr/include/c++/4.8/ext/alloc_traits.h ****     using _Base_type::max_size;
 142:/usr/include/c++/4.8/ext/alloc_traits.h **** 
 143:/usr/include/c++/4.8/ext/alloc_traits.h ****   private:
 144:/usr/include/c++/4.8/ext/alloc_traits.h ****     template<typename _Ptr>
 145:/usr/include/c++/4.8/ext/alloc_traits.h ****       struct __is_custom_pointer
 146:/usr/include/c++/4.8/ext/alloc_traits.h ****       : std::integral_constant<bool, std::is_same<pointer, _Ptr>::value
 147:/usr/include/c++/4.8/ext/alloc_traits.h ****                                      && !std::is_pointer<_Ptr>::value>
 148:/usr/include/c++/4.8/ext/alloc_traits.h ****       { };
 149:/usr/include/c++/4.8/ext/alloc_traits.h **** 
 150:/usr/include/c++/4.8/ext/alloc_traits.h ****   public:
 151:/usr/include/c++/4.8/ext/alloc_traits.h ****     // overload construct for non-standard pointer types
 152:/usr/include/c++/4.8/ext/alloc_traits.h ****     template<typename _Ptr, typename... _Args>
 153:/usr/include/c++/4.8/ext/alloc_traits.h ****       static typename std::enable_if<__is_custom_pointer<_Ptr>::value>::type
 154:/usr/include/c++/4.8/ext/alloc_traits.h ****       construct(_Alloc& __a, _Ptr __p, _Args&&... __args)
 155:/usr/include/c++/4.8/ext/alloc_traits.h ****       {
 156:/usr/include/c++/4.8/ext/alloc_traits.h **** 	_Base_type::construct(__a, std::addressof(*__p),
 157:/usr/include/c++/4.8/ext/alloc_traits.h **** 			      std::forward<_Args>(__args)...);
 158:/usr/include/c++/4.8/ext/alloc_traits.h ****       }
 159:/usr/include/c++/4.8/ext/alloc_traits.h **** 
 160:/usr/include/c++/4.8/ext/alloc_traits.h ****     // overload destroy for non-standard pointer types
 161:/usr/include/c++/4.8/ext/alloc_traits.h ****     template<typename _Ptr>
 162:/usr/include/c++/4.8/ext/alloc_traits.h ****       static typename std::enable_if<__is_custom_pointer<_Ptr>::value>::type
 163:/usr/include/c++/4.8/ext/alloc_traits.h ****       destroy(_Alloc& __a, _Ptr __p)
 164:/usr/include/c++/4.8/ext/alloc_traits.h ****       { _Base_type::destroy(__a, std::addressof(*__p)); }
 165:/usr/include/c++/4.8/ext/alloc_traits.h **** 
 166:/usr/include/c++/4.8/ext/alloc_traits.h ****     static _Alloc _S_select_on_copy(const _Alloc& __a)
 167:/usr/include/c++/4.8/ext/alloc_traits.h ****     { return _Base_type::select_on_container_copy_construction(__a); }
 168:/usr/include/c++/4.8/ext/alloc_traits.h **** 
 169:/usr/include/c++/4.8/ext/alloc_traits.h ****     static void _S_on_swap(_Alloc& __a, _Alloc& __b)
 170:/usr/include/c++/4.8/ext/alloc_traits.h ****     { std::__alloc_on_swap(__a, __b); }
 171:/usr/include/c++/4.8/ext/alloc_traits.h **** 
 172:/usr/include/c++/4.8/ext/alloc_traits.h ****     static constexpr bool _S_propagate_on_copy_assign()
 173:/usr/include/c++/4.8/ext/alloc_traits.h ****     { return _Base_type::propagate_on_container_copy_assignment::value; }
 174:/usr/include/c++/4.8/ext/alloc_traits.h **** 
 175:/usr/include/c++/4.8/ext/alloc_traits.h ****     static constexpr bool _S_propagate_on_move_assign()
 176:/usr/include/c++/4.8/ext/alloc_traits.h ****     { return _Base_type::propagate_on_container_move_assignment::value; }
 177:/usr/include/c++/4.8/ext/alloc_traits.h **** 
 178:/usr/include/c++/4.8/ext/alloc_traits.h ****     static constexpr bool _S_propagate_on_swap()
 179:/usr/include/c++/4.8/ext/alloc_traits.h ****     { return _Base_type::propagate_on_container_swap::value; }
 180:/usr/include/c++/4.8/ext/alloc_traits.h **** 
 181:/usr/include/c++/4.8/ext/alloc_traits.h ****     static constexpr bool _S_always_equal()
 182:/usr/include/c++/4.8/ext/alloc_traits.h ****     { return __allocator_always_compares_equal<_Alloc>::value; }
 183:/usr/include/c++/4.8/ext/alloc_traits.h **** 
 184:/usr/include/c++/4.8/ext/alloc_traits.h ****     static constexpr bool _S_nothrow_move()
 185:/usr/include/c++/4.8/ext/alloc_traits.h ****     { return _S_propagate_on_move_assign() || _S_always_equal(); }
 186:/usr/include/c++/4.8/ext/alloc_traits.h **** 
 187:/usr/include/c++/4.8/ext/alloc_traits.h ****     static constexpr bool _S_nothrow_swap()
 188:/usr/include/c++/4.8/ext/alloc_traits.h ****     {
 189:/usr/include/c++/4.8/ext/alloc_traits.h ****       using std::swap;
 190:/usr/include/c++/4.8/ext/alloc_traits.h ****       return !_S_propagate_on_swap()
 191:/usr/include/c++/4.8/ext/alloc_traits.h ****        	|| noexcept(swap(std::declval<_Alloc&>(), std::declval<_Alloc&>()));
 192:/usr/include/c++/4.8/ext/alloc_traits.h ****     }
 193:/usr/include/c++/4.8/ext/alloc_traits.h **** 
 194:/usr/include/c++/4.8/ext/alloc_traits.h ****     template<typename _Tp>
 195:/usr/include/c++/4.8/ext/alloc_traits.h ****       struct rebind
 196:/usr/include/c++/4.8/ext/alloc_traits.h ****       { typedef typename _Base_type::template rebind_alloc<_Tp> other; };
 197:/usr/include/c++/4.8/ext/alloc_traits.h **** #else
 198:/usr/include/c++/4.8/ext/alloc_traits.h **** 
 199:/usr/include/c++/4.8/ext/alloc_traits.h ****     typedef typename _Alloc::pointer                pointer;
 200:/usr/include/c++/4.8/ext/alloc_traits.h ****     typedef typename _Alloc::const_pointer          const_pointer;
 201:/usr/include/c++/4.8/ext/alloc_traits.h ****     typedef typename _Alloc::value_type             value_type;
 202:/usr/include/c++/4.8/ext/alloc_traits.h ****     typedef typename _Alloc::reference              reference;
 203:/usr/include/c++/4.8/ext/alloc_traits.h ****     typedef typename _Alloc::const_reference        const_reference;
 204:/usr/include/c++/4.8/ext/alloc_traits.h ****     typedef typename _Alloc::size_type              size_type;
 205:/usr/include/c++/4.8/ext/alloc_traits.h ****     typedef typename _Alloc::difference_type        difference_type;
 206:/usr/include/c++/4.8/ext/alloc_traits.h **** 
 207:/usr/include/c++/4.8/ext/alloc_traits.h ****     static pointer
 208:/usr/include/c++/4.8/ext/alloc_traits.h ****     allocate(_Alloc& __a, size_type __n)
 209:/usr/include/c++/4.8/ext/alloc_traits.h ****     { return __a.allocate(__n); }
 210:/usr/include/c++/4.8/ext/alloc_traits.h **** 
 211:/usr/include/c++/4.8/ext/alloc_traits.h ****     static void deallocate(_Alloc& __a, pointer __p, size_type __n)
 212:/usr/include/c++/4.8/ext/alloc_traits.h ****     { __a.deallocate(__p, __n); }
 213:/usr/include/c++/4.8/ext/alloc_traits.h **** 
 214:/usr/include/c++/4.8/ext/alloc_traits.h ****     template<typename _Tp>
 215:/usr/include/c++/4.8/ext/alloc_traits.h ****       static void construct(_Alloc& __a, pointer __p, const _Tp& __arg)
 962              		.loc 7 215 0
 963              		.cfi_startproc
 964 0000 55       		pushq	%rbp
 965              		.cfi_def_cfa_offset 16
 966              		.cfi_offset 6, -16
 967 0001 4889E5   		movq	%rsp, %rbp
 968              		.cfi_def_cfa_register 6
 969 0004 4883EC20 		subq	$32, %rsp
 970 0008 48897DF8 		movq	%rdi, -8(%rbp)
 971 000c 488975F0 		movq	%rsi, -16(%rbp)
 972 0010 488955E8 		movq	%rdx, -24(%rbp)
 216:/usr/include/c++/4.8/ext/alloc_traits.h ****       { __a.construct(__p, __arg); }
 973              		.loc 7 216 0
 974 0014 488B55E8 		movq	-24(%rbp), %rdx
 975 0018 488B4DF0 		movq	-16(%rbp), %rcx
 976 001c 488B45F8 		movq	-8(%rbp), %rax
 977 0020 4889CE   		movq	%rcx, %rsi
 978 0023 4889C7   		movq	%rax, %rdi
 979 0026 E8000000 		call	_ZN9__gnu_cxx13new_allocatorIN8UnitTest18DeferredTestResultEE9constructEPS2_RKS2_@PLT
 979      00
 980 002b C9       		leave
 981              		.cfi_def_cfa 7, 8
 982 002c C3       		ret
 983              		.cfi_endproc
 984              	.LFE863:
 986              		.section	.text._ZN8UnitTest18DeferredTestResultC2ERKS0_,"axG",@progbits,_ZN8UnitTest18DeferredTest
 987              		.align 2
 988              		.weak	_ZN8UnitTest18DeferredTestResultC2ERKS0_
 990              	_ZN8UnitTest18DeferredTestResultC2ERKS0_:
 991              	.LFB866:
 992              		.loc 2 10 0
 993              		.cfi_startproc
 994              		.cfi_personality 0x9b,DW.ref.__gxx_personality_v0
 995              		.cfi_lsda 0x1b,.LLSDA866
 996 0000 55       		pushq	%rbp
 997              		.cfi_def_cfa_offset 16
 998              		.cfi_offset 6, -16
 999 0001 4889E5   		movq	%rsp, %rbp
 1000              		.cfi_def_cfa_register 6
 1001 0004 53       		pushq	%rbx
 1002 0005 4883EC18 		subq	$24, %rsp
 1003              		.cfi_offset 3, -24
 1004 0009 48897DE8 		movq	%rdi, -24(%rbp)
 1005 000d 488975E0 		movq	%rsi, -32(%rbp)
 1006              	.LBB10:
 1007              		.loc 2 10 0
 1008 0011 488B55E0 		movq	-32(%rbp), %rdx
 1009 0015 488B45E8 		movq	-24(%rbp), %rax
 1010 0019 4889D6   		movq	%rdx, %rsi
 1011 001c 4889C7   		movq	%rax, %rdi
 1012              	.LEHB22:
 1013 001f E8000000 		call	_ZNSsC1ERKSs@PLT
 1013      00
 1014              	.LEHE22:
 1015 0024 488B45E0 		movq	-32(%rbp), %rax
 1016 0028 488D5008 		leaq	8(%rax), %rdx
 1017 002c 488B45E8 		movq	-24(%rbp), %rax
 1018 0030 4883C008 		addq	$8, %rax
 1019 0034 4889D6   		movq	%rdx, %rsi
 1020 0037 4889C7   		movq	%rax, %rdi
 1021              	.LEHB23:
 1022 003a E8000000 		call	_ZNSsC1ERKSs@PLT
 1022      00
 1023              	.LEHE23:
 1024              		.loc 2 10 0 is_stmt 0 discriminator 1
 1025 003f 488B45E0 		movq	-32(%rbp), %rax
 1026 0043 488D5010 		leaq	16(%rax), %rdx
 1027 0047 488B45E8 		movq	-24(%rbp), %rax
 1028 004b 4883C010 		addq	$16, %rax
 1029 004f 4889D6   		movq	%rdx, %rsi
 1030 0052 4889C7   		movq	%rax, %rdi
 1031              	.LEHB24:
 1032 0055 E8000000 		call	_ZNSsC1ERKSs@PLT
 1032      00
 1033              	.LEHE24:
 1034              		.loc 2 10 0 discriminator 2
 1035 005a 488B45E0 		movq	-32(%rbp), %rax
 1036 005e 488D5018 		leaq	24(%rax), %rdx
 1037 0062 488B45E8 		movq	-24(%rbp), %rax
 1038 0066 4883C018 		addq	$24, %rax
 1039 006a 4889D6   		movq	%rdx, %rsi
 1040 006d 4889C7   		movq	%rax, %rdi
 1041              	.LEHB25:
 1042 0070 E8000000 		call	_ZNSt6vectorISt4pairIiSsESaIS1_EEC1ERKS3_@PLT
 1042      00
 1043              	.LEHE25:
 1044              		.loc 2 10 0 discriminator 3
 1045 0075 488B45E0 		movq	-32(%rbp), %rax
 1046 0079 8B4030   		movl	48(%rax), %eax
 1047 007c 488B55E8 		movq	-24(%rbp), %rdx
 1048 0080 894230   		movl	%eax, 48(%rdx)
 1049 0083 488B45E0 		movq	-32(%rbp), %rax
 1050 0087 0FB65034 		movzbl	52(%rax), %edx
 1051 008b 488B45E8 		movq	-24(%rbp), %rax
 1052 008f 885034   		movb	%dl, 52(%rax)
 1053 0092 EB44     		jmp	.L62
 1054              	.L61:
 1055 0094 4889C3   		movq	%rax, %rbx
 1056              		.loc 2 10 0
 1057 0097 488B45E8 		movq	-24(%rbp), %rax
 1058 009b 4883C010 		addq	$16, %rax
 1059 009f 4889C7   		movq	%rax, %rdi
 1060 00a2 E8000000 		call	_ZNSsD1Ev@PLT
 1060      00
 1061 00a7 EB03     		jmp	.L57
 1062              	.L60:
 1063 00a9 4889C3   		movq	%rax, %rbx
 1064              	.L57:
 1065 00ac 488B45E8 		movq	-24(%rbp), %rax
 1066 00b0 4883C008 		addq	$8, %rax
 1067 00b4 4889C7   		movq	%rax, %rdi
 1068 00b7 E8000000 		call	_ZNSsD1Ev@PLT
 1068      00
 1069 00bc EB03     		jmp	.L58
 1070              	.L59:
 1071 00be 4889C3   		movq	%rax, %rbx
 1072              	.L58:
 1073 00c1 488B45E8 		movq	-24(%rbp), %rax
 1074 00c5 4889C7   		movq	%rax, %rdi
 1075 00c8 E8000000 		call	_ZNSsD1Ev@PLT
 1075      00
 1076 00cd 4889D8   		movq	%rbx, %rax
 1077 00d0 4889C7   		movq	%rax, %rdi
 1078              	.LEHB26:
 1079 00d3 E8000000 		call	_Unwind_Resume@PLT
 1079      00
 1080              	.LEHE26:
 1081              	.L62:
 1082              	.LBE10:
 1083 00d8 4883C418 		addq	$24, %rsp
 1084 00dc 5B       		popq	%rbx
 1085 00dd 5D       		popq	%rbp
 1086              		.cfi_def_cfa 7, 8
 1087 00de C3       		ret
 1088              		.cfi_endproc
 1089              	.LFE866:
 1090              		.section	.gcc_except_table
 1091              	.LLSDA866:
 1092 005e FF       		.byte	0xff
 1093 005f FF       		.byte	0xff
 1094 0060 01       		.byte	0x1
 1095 0061 18       		.uleb128 .LLSDACSE866-.LLSDACSB866
 1096              	.LLSDACSB866:
 1097 0062 1F       		.uleb128 .LEHB22-.LFB866
 1098 0063 05       		.uleb128 .LEHE22-.LEHB22
 1099 0064 00       		.uleb128 0
 1100 0065 00       		.uleb128 0
 1101 0066 3A       		.uleb128 .LEHB23-.LFB866
 1102 0067 05       		.uleb128 .LEHE23-.LEHB23
 1103 0068 BE01     		.uleb128 .L59-.LFB866
 1104 006a 00       		.uleb128 0
 1105 006b 55       		.uleb128 .LEHB24-.LFB866
 1106 006c 05       		.uleb128 .LEHE24-.LEHB24
 1107 006d A901     		.uleb128 .L60-.LFB866
 1108 006f 00       		.uleb128 0
 1109 0070 70       		.uleb128 .LEHB25-.LFB866
 1110 0071 05       		.uleb128 .LEHE25-.LEHB25
 1111 0072 9401     		.uleb128 .L61-.LFB866
 1112 0074 00       		.uleb128 0
 1113 0075 D301     		.uleb128 .LEHB26-.LFB866
 1114 0077 05       		.uleb128 .LEHE26-.LEHB26
 1115 0078 00       		.uleb128 0
 1116 0079 00       		.uleb128 0
 1117              	.LLSDACSE866:
 1118              		.section	.text._ZN8UnitTest18DeferredTestResultC2ERKS0_,"axG",@progbits,_ZN8UnitTest18DeferredTest
 1120              		.weak	_ZN8UnitTest18DeferredTestResultC1ERKS0_
 1121              		.set	_ZN8UnitTest18DeferredTestResultC1ERKS0_,_ZN8UnitTest18DeferredTestResultC2ERKS0_
 1122              		.section	.text._ZN8UnitTest18DeferredTestResultaSERKS0_,"axG",@progbits,_ZN8UnitTest18DeferredTest
 1123              		.align 2
 1124              		.weak	_ZN8UnitTest18DeferredTestResultaSERKS0_
 1126              	_ZN8UnitTest18DeferredTestResultaSERKS0_:
 1127              	.LFB868:
 1128              		.loc 2 10 0 is_stmt 1
 1129              		.cfi_startproc
 1130 0000 55       		pushq	%rbp
 1131              		.cfi_def_cfa_offset 16
 1132              		.cfi_offset 6, -16
 1133 0001 4889E5   		movq	%rsp, %rbp
 1134              		.cfi_def_cfa_register 6
 1135 0004 4883EC10 		subq	$16, %rsp
 1136 0008 48897DF8 		movq	%rdi, -8(%rbp)
 1137 000c 488975F0 		movq	%rsi, -16(%rbp)
 1138              		.loc 2 10 0
 1139 0010 488B55F0 		movq	-16(%rbp), %rdx
 1140 0014 488B45F8 		movq	-8(%rbp), %rax
 1141 0018 4889D6   		movq	%rdx, %rsi
 1142 001b 4889C7   		movq	%rax, %rdi
 1143 001e E8000000 		call	_ZNSsaSERKSs@PLT
 1143      00
 1144 0023 488B45F0 		movq	-16(%rbp), %rax
 1145 0027 488D5008 		leaq	8(%rax), %rdx
 1146 002b 488B45F8 		movq	-8(%rbp), %rax
 1147 002f 4883C008 		addq	$8, %rax
 1148 0033 4889D6   		movq	%rdx, %rsi
 1149 0036 4889C7   		movq	%rax, %rdi
 1150 0039 E8000000 		call	_ZNSsaSERKSs@PLT
 1150      00
 1151 003e 488B45F0 		movq	-16(%rbp), %rax
 1152 0042 488D5010 		leaq	16(%rax), %rdx
 1153 0046 488B45F8 		movq	-8(%rbp), %rax
 1154 004a 4883C010 		addq	$16, %rax
 1155 004e 4889D6   		movq	%rdx, %rsi
 1156 0051 4889C7   		movq	%rax, %rdi
 1157 0054 E8000000 		call	_ZNSsaSERKSs@PLT
 1157      00
 1158 0059 488B45F0 		movq	-16(%rbp), %rax
 1159 005d 488D5018 		leaq	24(%rax), %rdx
 1160 0061 488B45F8 		movq	-8(%rbp), %rax
 1161 0065 4883C018 		addq	$24, %rax
 1162 0069 4889D6   		movq	%rdx, %rsi
 1163 006c 4889C7   		movq	%rax, %rdi
 1164 006f E8000000 		call	_ZNSt6vectorISt4pairIiSsESaIS1_EEaSERKS3_@PLT
 1164      00
 1165 0074 488B45F0 		movq	-16(%rbp), %rax
 1166 0078 8B4030   		movl	48(%rax), %eax
 1167 007b 488B55F8 		movq	-8(%rbp), %rdx
 1168 007f 894230   		movl	%eax, 48(%rdx)
 1169 0082 488B45F0 		movq	-16(%rbp), %rax
 1170 0086 0FB65034 		movzbl	52(%rax), %edx
 1171 008a 488B45F8 		movq	-8(%rbp), %rax
 1172 008e 885034   		movb	%dl, 52(%rax)
 1173 0091 488B45F8 		movq	-8(%rbp), %rax
 1174 0095 C9       		leave
 1175              		.cfi_def_cfa 7, 8
 1176 0096 C3       		ret
 1177              		.cfi_endproc
 1178              	.LFE868:
 1180              		.section	.rodata
 1181              	.LC0:
 1182 0000 76656374 		.string	"vector::_M_insert_aux"
 1182      6F723A3A 
 1182      5F4D5F69 
 1182      6E736572 
 1182      745F6175 
 1183              		.section	.text._ZNSt6vectorIN8UnitTest18DeferredTestResultESaIS1_EE13_M_insert_auxEN9__gnu_cxx17__
 1184              		.align 2
 1185              		.weak	_ZNSt6vectorIN8UnitTest18DeferredTestResultESaIS1_EE13_M_insert_auxEN9__gnu_cxx17__normal_it
 1187              	_ZNSt6vectorIN8UnitTest18DeferredTestResultESaIS1_EE13_M_insert_auxEN9__gnu_cxx17__normal_iteratorI
 1188              	.LFB864:
 1189              		.file 8 "/usr/include/c++/4.8/bits/vector.tcc"
   1:/usr/include/c++/4.8/bits/vector.tcc **** // Vector implementation (out of line) -*- C++ -*-
   2:/usr/include/c++/4.8/bits/vector.tcc **** 
   3:/usr/include/c++/4.8/bits/vector.tcc **** // Copyright (C) 2001-2013 Free Software Foundation, Inc.
   4:/usr/include/c++/4.8/bits/vector.tcc **** //
   5:/usr/include/c++/4.8/bits/vector.tcc **** // This file is part of the GNU ISO C++ Library.  This library is free
   6:/usr/include/c++/4.8/bits/vector.tcc **** // software; you can redistribute it and/or modify it under the
   7:/usr/include/c++/4.8/bits/vector.tcc **** // terms of the GNU General Public License as published by the
   8:/usr/include/c++/4.8/bits/vector.tcc **** // Free Software Foundation; either version 3, or (at your option)
   9:/usr/include/c++/4.8/bits/vector.tcc **** // any later version.
  10:/usr/include/c++/4.8/bits/vector.tcc **** 
  11:/usr/include/c++/4.8/bits/vector.tcc **** // This library is distributed in the hope that it will be useful,
  12:/usr/include/c++/4.8/bits/vector.tcc **** // but WITHOUT ANY WARRANTY; without even the implied warranty of
  13:/usr/include/c++/4.8/bits/vector.tcc **** // MERCHANTABILITY or FITNESS FOR A PARTICULAR PURPOSE.  See the
  14:/usr/include/c++/4.8/bits/vector.tcc **** // GNU General Public License for more details.
  15:/usr/include/c++/4.8/bits/vector.tcc **** 
  16:/usr/include/c++/4.8/bits/vector.tcc **** // Under Section 7 of GPL version 3, you are granted additional
  17:/usr/include/c++/4.8/bits/vector.tcc **** // permissions described in the GCC Runtime Library Exception, version
  18:/usr/include/c++/4.8/bits/vector.tcc **** // 3.1, as published by the Free Software Foundation.
  19:/usr/include/c++/4.8/bits/vector.tcc **** 
  20:/usr/include/c++/4.8/bits/vector.tcc **** // You should have received a copy of the GNU General Public License and
  21:/usr/include/c++/4.8/bits/vector.tcc **** // a copy of the GCC Runtime Library Exception along with this program;
  22:/usr/include/c++/4.8/bits/vector.tcc **** // see the files COPYING3 and COPYING.RUNTIME respectively.  If not, see
  23:/usr/include/c++/4.8/bits/vector.tcc **** // <http://www.gnu.org/licenses/>.
  24:/usr/include/c++/4.8/bits/vector.tcc **** 
  25:/usr/include/c++/4.8/bits/vector.tcc **** /*
  26:/usr/include/c++/4.8/bits/vector.tcc ****  *
  27:/usr/include/c++/4.8/bits/vector.tcc ****  * Copyright (c) 1994
  28:/usr/include/c++/4.8/bits/vector.tcc ****  * Hewlett-Packard Company
  29:/usr/include/c++/4.8/bits/vector.tcc ****  *
  30:/usr/include/c++/4.8/bits/vector.tcc ****  * Permission to use, copy, modify, distribute and sell this software
  31:/usr/include/c++/4.8/bits/vector.tcc ****  * and its documentation for any purpose is hereby granted without fee,
  32:/usr/include/c++/4.8/bits/vector.tcc ****  * provided that the above copyright notice appear in all copies and
  33:/usr/include/c++/4.8/bits/vector.tcc ****  * that both that copyright notice and this permission notice appear
  34:/usr/include/c++/4.8/bits/vector.tcc ****  * in supporting documentation.  Hewlett-Packard Company makes no
  35:/usr/include/c++/4.8/bits/vector.tcc ****  * representations about the suitability of this software for any
  36:/usr/include/c++/4.8/bits/vector.tcc ****  * purpose.  It is provided "as is" without express or implied warranty.
  37:/usr/include/c++/4.8/bits/vector.tcc ****  *
  38:/usr/include/c++/4.8/bits/vector.tcc ****  *
  39:/usr/include/c++/4.8/bits/vector.tcc ****  * Copyright (c) 1996
  40:/usr/include/c++/4.8/bits/vector.tcc ****  * Silicon Graphics Computer Systems, Inc.
  41:/usr/include/c++/4.8/bits/vector.tcc ****  *
  42:/usr/include/c++/4.8/bits/vector.tcc ****  * Permission to use, copy, modify, distribute and sell this software
  43:/usr/include/c++/4.8/bits/vector.tcc ****  * and its documentation for any purpose is hereby granted without fee,
  44:/usr/include/c++/4.8/bits/vector.tcc ****  * provided that the above copyright notice appear in all copies and
  45:/usr/include/c++/4.8/bits/vector.tcc ****  * that both that copyright notice and this permission notice appear
  46:/usr/include/c++/4.8/bits/vector.tcc ****  * in supporting documentation.  Silicon Graphics makes no
  47:/usr/include/c++/4.8/bits/vector.tcc ****  * representations about the suitability of this  software for any
  48:/usr/include/c++/4.8/bits/vector.tcc ****  * purpose.  It is provided "as is" without express or implied warranty.
  49:/usr/include/c++/4.8/bits/vector.tcc ****  */
  50:/usr/include/c++/4.8/bits/vector.tcc **** 
  51:/usr/include/c++/4.8/bits/vector.tcc **** /** @file bits/vector.tcc
  52:/usr/include/c++/4.8/bits/vector.tcc ****  *  This is an internal header file, included by other library headers.
  53:/usr/include/c++/4.8/bits/vector.tcc ****  *  Do not attempt to use it directly. @headername{vector}
  54:/usr/include/c++/4.8/bits/vector.tcc ****  */
  55:/usr/include/c++/4.8/bits/vector.tcc **** 
  56:/usr/include/c++/4.8/bits/vector.tcc **** #ifndef _VECTOR_TCC
  57:/usr/include/c++/4.8/bits/vector.tcc **** #define _VECTOR_TCC 1
  58:/usr/include/c++/4.8/bits/vector.tcc **** 
  59:/usr/include/c++/4.8/bits/vector.tcc **** namespace std _GLIBCXX_VISIBILITY(default)
  60:/usr/include/c++/4.8/bits/vector.tcc **** {
  61:/usr/include/c++/4.8/bits/vector.tcc **** _GLIBCXX_BEGIN_NAMESPACE_CONTAINER
  62:/usr/include/c++/4.8/bits/vector.tcc **** 
  63:/usr/include/c++/4.8/bits/vector.tcc ****   template<typename _Tp, typename _Alloc>
  64:/usr/include/c++/4.8/bits/vector.tcc ****     void
  65:/usr/include/c++/4.8/bits/vector.tcc ****     vector<_Tp, _Alloc>::
  66:/usr/include/c++/4.8/bits/vector.tcc ****     reserve(size_type __n)
  67:/usr/include/c++/4.8/bits/vector.tcc ****     {
  68:/usr/include/c++/4.8/bits/vector.tcc ****       if (__n > this->max_size())
  69:/usr/include/c++/4.8/bits/vector.tcc **** 	__throw_length_error(__N("vector::reserve"));
  70:/usr/include/c++/4.8/bits/vector.tcc ****       if (this->capacity() < __n)
  71:/usr/include/c++/4.8/bits/vector.tcc **** 	{
  72:/usr/include/c++/4.8/bits/vector.tcc **** 	  const size_type __old_size = size();
  73:/usr/include/c++/4.8/bits/vector.tcc **** 	  pointer __tmp = _M_allocate_and_copy(__n,
  74:/usr/include/c++/4.8/bits/vector.tcc **** 	    _GLIBCXX_MAKE_MOVE_IF_NOEXCEPT_ITERATOR(this->_M_impl._M_start),
  75:/usr/include/c++/4.8/bits/vector.tcc **** 	    _GLIBCXX_MAKE_MOVE_IF_NOEXCEPT_ITERATOR(this->_M_impl._M_finish));
  76:/usr/include/c++/4.8/bits/vector.tcc **** 	  std::_Destroy(this->_M_impl._M_start, this->_M_impl._M_finish,
  77:/usr/include/c++/4.8/bits/vector.tcc **** 			_M_get_Tp_allocator());
  78:/usr/include/c++/4.8/bits/vector.tcc **** 	  _M_deallocate(this->_M_impl._M_start,
  79:/usr/include/c++/4.8/bits/vector.tcc **** 			this->_M_impl._M_end_of_storage
  80:/usr/include/c++/4.8/bits/vector.tcc **** 			- this->_M_impl._M_start);
  81:/usr/include/c++/4.8/bits/vector.tcc **** 	  this->_M_impl._M_start = __tmp;
  82:/usr/include/c++/4.8/bits/vector.tcc **** 	  this->_M_impl._M_finish = __tmp + __old_size;
  83:/usr/include/c++/4.8/bits/vector.tcc **** 	  this->_M_impl._M_end_of_storage = this->_M_impl._M_start + __n;
  84:/usr/include/c++/4.8/bits/vector.tcc **** 	}
  85:/usr/include/c++/4.8/bits/vector.tcc ****     }
  86:/usr/include/c++/4.8/bits/vector.tcc **** 
  87:/usr/include/c++/4.8/bits/vector.tcc **** #if __cplusplus >= 201103L
  88:/usr/include/c++/4.8/bits/vector.tcc ****   template<typename _Tp, typename _Alloc>
  89:/usr/include/c++/4.8/bits/vector.tcc ****     template<typename... _Args>
  90:/usr/include/c++/4.8/bits/vector.tcc ****       void
  91:/usr/include/c++/4.8/bits/vector.tcc ****       vector<_Tp, _Alloc>::
  92:/usr/include/c++/4.8/bits/vector.tcc ****       emplace_back(_Args&&... __args)
  93:/usr/include/c++/4.8/bits/vector.tcc ****       {
  94:/usr/include/c++/4.8/bits/vector.tcc **** 	if (this->_M_impl._M_finish != this->_M_impl._M_end_of_storage)
  95:/usr/include/c++/4.8/bits/vector.tcc **** 	  {
  96:/usr/include/c++/4.8/bits/vector.tcc **** 	    _Alloc_traits::construct(this->_M_impl, this->_M_impl._M_finish,
  97:/usr/include/c++/4.8/bits/vector.tcc **** 				     std::forward<_Args>(__args)...);
  98:/usr/include/c++/4.8/bits/vector.tcc **** 	    ++this->_M_impl._M_finish;
  99:/usr/include/c++/4.8/bits/vector.tcc **** 	  }
 100:/usr/include/c++/4.8/bits/vector.tcc **** 	else
 101:/usr/include/c++/4.8/bits/vector.tcc **** 	  _M_emplace_back_aux(std::forward<_Args>(__args)...);
 102:/usr/include/c++/4.8/bits/vector.tcc ****       }
 103:/usr/include/c++/4.8/bits/vector.tcc **** #endif
 104:/usr/include/c++/4.8/bits/vector.tcc **** 
 105:/usr/include/c++/4.8/bits/vector.tcc ****   template<typename _Tp, typename _Alloc>
 106:/usr/include/c++/4.8/bits/vector.tcc ****     typename vector<_Tp, _Alloc>::iterator
 107:/usr/include/c++/4.8/bits/vector.tcc ****     vector<_Tp, _Alloc>::
 108:/usr/include/c++/4.8/bits/vector.tcc ****     insert(iterator __position, const value_type& __x)
 109:/usr/include/c++/4.8/bits/vector.tcc ****     {
 110:/usr/include/c++/4.8/bits/vector.tcc ****       const size_type __n = __position - begin();
 111:/usr/include/c++/4.8/bits/vector.tcc ****       if (this->_M_impl._M_finish != this->_M_impl._M_end_of_storage
 112:/usr/include/c++/4.8/bits/vector.tcc **** 	  && __position == end())
 113:/usr/include/c++/4.8/bits/vector.tcc **** 	{
 114:/usr/include/c++/4.8/bits/vector.tcc **** 	  _Alloc_traits::construct(this->_M_impl, this->_M_impl._M_finish, __x);
 115:/usr/include/c++/4.8/bits/vector.tcc **** 	  ++this->_M_impl._M_finish;
 116:/usr/include/c++/4.8/bits/vector.tcc **** 	}
 117:/usr/include/c++/4.8/bits/vector.tcc ****       else
 118:/usr/include/c++/4.8/bits/vector.tcc **** 	{
 119:/usr/include/c++/4.8/bits/vector.tcc **** #if __cplusplus >= 201103L
 120:/usr/include/c++/4.8/bits/vector.tcc **** 	  if (this->_M_impl._M_finish != this->_M_impl._M_end_of_storage)
 121:/usr/include/c++/4.8/bits/vector.tcc **** 	    {
 122:/usr/include/c++/4.8/bits/vector.tcc **** 	      _Tp __x_copy = __x;
 123:/usr/include/c++/4.8/bits/vector.tcc **** 	      _M_insert_aux(__position, std::move(__x_copy));
 124:/usr/include/c++/4.8/bits/vector.tcc **** 	    }
 125:/usr/include/c++/4.8/bits/vector.tcc **** 	  else
 126:/usr/include/c++/4.8/bits/vector.tcc **** #endif
 127:/usr/include/c++/4.8/bits/vector.tcc **** 	    _M_insert_aux(__position, __x);
 128:/usr/include/c++/4.8/bits/vector.tcc **** 	}
 129:/usr/include/c++/4.8/bits/vector.tcc ****       return iterator(this->_M_impl._M_start + __n);
 130:/usr/include/c++/4.8/bits/vector.tcc ****     }
 131:/usr/include/c++/4.8/bits/vector.tcc **** 
 132:/usr/include/c++/4.8/bits/vector.tcc ****   template<typename _Tp, typename _Alloc>
 133:/usr/include/c++/4.8/bits/vector.tcc ****     typename vector<_Tp, _Alloc>::iterator
 134:/usr/include/c++/4.8/bits/vector.tcc ****     vector<_Tp, _Alloc>::
 135:/usr/include/c++/4.8/bits/vector.tcc ****     erase(iterator __position)
 136:/usr/include/c++/4.8/bits/vector.tcc ****     {
 137:/usr/include/c++/4.8/bits/vector.tcc ****       if (__position + 1 != end())
 138:/usr/include/c++/4.8/bits/vector.tcc **** 	_GLIBCXX_MOVE3(__position + 1, end(), __position);
 139:/usr/include/c++/4.8/bits/vector.tcc ****       --this->_M_impl._M_finish;
 140:/usr/include/c++/4.8/bits/vector.tcc ****       _Alloc_traits::destroy(this->_M_impl, this->_M_impl._M_finish);
 141:/usr/include/c++/4.8/bits/vector.tcc ****       return __position;
 142:/usr/include/c++/4.8/bits/vector.tcc ****     }
 143:/usr/include/c++/4.8/bits/vector.tcc **** 
 144:/usr/include/c++/4.8/bits/vector.tcc ****   template<typename _Tp, typename _Alloc>
 145:/usr/include/c++/4.8/bits/vector.tcc ****     typename vector<_Tp, _Alloc>::iterator
 146:/usr/include/c++/4.8/bits/vector.tcc ****     vector<_Tp, _Alloc>::
 147:/usr/include/c++/4.8/bits/vector.tcc ****     erase(iterator __first, iterator __last)
 148:/usr/include/c++/4.8/bits/vector.tcc ****     {
 149:/usr/include/c++/4.8/bits/vector.tcc ****       if (__first != __last)
 150:/usr/include/c++/4.8/bits/vector.tcc **** 	{
 151:/usr/include/c++/4.8/bits/vector.tcc **** 	  if (__last != end())
 152:/usr/include/c++/4.8/bits/vector.tcc **** 	    _GLIBCXX_MOVE3(__last, end(), __first);
 153:/usr/include/c++/4.8/bits/vector.tcc **** 	  _M_erase_at_end(__first.base() + (end() - __last));
 154:/usr/include/c++/4.8/bits/vector.tcc **** 	}
 155:/usr/include/c++/4.8/bits/vector.tcc ****       return __first;
 156:/usr/include/c++/4.8/bits/vector.tcc ****     }
 157:/usr/include/c++/4.8/bits/vector.tcc **** 
 158:/usr/include/c++/4.8/bits/vector.tcc ****   template<typename _Tp, typename _Alloc>
 159:/usr/include/c++/4.8/bits/vector.tcc ****     vector<_Tp, _Alloc>&
 160:/usr/include/c++/4.8/bits/vector.tcc ****     vector<_Tp, _Alloc>::
 161:/usr/include/c++/4.8/bits/vector.tcc ****     operator=(const vector<_Tp, _Alloc>& __x)
 162:/usr/include/c++/4.8/bits/vector.tcc ****     {
 163:/usr/include/c++/4.8/bits/vector.tcc ****       if (&__x != this)
 164:/usr/include/c++/4.8/bits/vector.tcc **** 	{
 165:/usr/include/c++/4.8/bits/vector.tcc **** #if __cplusplus >= 201103L
 166:/usr/include/c++/4.8/bits/vector.tcc **** 	  if (_Alloc_traits::_S_propagate_on_copy_assign())
 167:/usr/include/c++/4.8/bits/vector.tcc **** 	    {
 168:/usr/include/c++/4.8/bits/vector.tcc **** 	      if (!_Alloc_traits::_S_always_equal()
 169:/usr/include/c++/4.8/bits/vector.tcc **** 	          && _M_get_Tp_allocator() != __x._M_get_Tp_allocator())
 170:/usr/include/c++/4.8/bits/vector.tcc **** 	        {
 171:/usr/include/c++/4.8/bits/vector.tcc **** 		  // replacement allocator cannot free existing storage
 172:/usr/include/c++/4.8/bits/vector.tcc **** 		  this->clear();
 173:/usr/include/c++/4.8/bits/vector.tcc **** 		  _M_deallocate(this->_M_impl._M_start,
 174:/usr/include/c++/4.8/bits/vector.tcc **** 				this->_M_impl._M_end_of_storage
 175:/usr/include/c++/4.8/bits/vector.tcc **** 				- this->_M_impl._M_start);
 176:/usr/include/c++/4.8/bits/vector.tcc **** 		  this->_M_impl._M_start = nullptr;
 177:/usr/include/c++/4.8/bits/vector.tcc **** 		  this->_M_impl._M_finish = nullptr;
 178:/usr/include/c++/4.8/bits/vector.tcc **** 		  this->_M_impl._M_end_of_storage = nullptr;
 179:/usr/include/c++/4.8/bits/vector.tcc **** 		}
 180:/usr/include/c++/4.8/bits/vector.tcc **** 	      std::__alloc_on_copy(_M_get_Tp_allocator(),
 181:/usr/include/c++/4.8/bits/vector.tcc **** 				   __x._M_get_Tp_allocator());
 182:/usr/include/c++/4.8/bits/vector.tcc **** 	    }
 183:/usr/include/c++/4.8/bits/vector.tcc **** #endif
 184:/usr/include/c++/4.8/bits/vector.tcc **** 	  const size_type __xlen = __x.size();
 185:/usr/include/c++/4.8/bits/vector.tcc **** 	  if (__xlen > capacity())
 186:/usr/include/c++/4.8/bits/vector.tcc **** 	    {
 187:/usr/include/c++/4.8/bits/vector.tcc **** 	      pointer __tmp = _M_allocate_and_copy(__xlen, __x.begin(),
 188:/usr/include/c++/4.8/bits/vector.tcc **** 						   __x.end());
 189:/usr/include/c++/4.8/bits/vector.tcc **** 	      std::_Destroy(this->_M_impl._M_start, this->_M_impl._M_finish,
 190:/usr/include/c++/4.8/bits/vector.tcc **** 			    _M_get_Tp_allocator());
 191:/usr/include/c++/4.8/bits/vector.tcc **** 	      _M_deallocate(this->_M_impl._M_start,
 192:/usr/include/c++/4.8/bits/vector.tcc **** 			    this->_M_impl._M_end_of_storage
 193:/usr/include/c++/4.8/bits/vector.tcc **** 			    - this->_M_impl._M_start);
 194:/usr/include/c++/4.8/bits/vector.tcc **** 	      this->_M_impl._M_start = __tmp;
 195:/usr/include/c++/4.8/bits/vector.tcc **** 	      this->_M_impl._M_end_of_storage = this->_M_impl._M_start + __xlen;
 196:/usr/include/c++/4.8/bits/vector.tcc **** 	    }
 197:/usr/include/c++/4.8/bits/vector.tcc **** 	  else if (size() >= __xlen)
 198:/usr/include/c++/4.8/bits/vector.tcc **** 	    {
 199:/usr/include/c++/4.8/bits/vector.tcc **** 	      std::_Destroy(std::copy(__x.begin(), __x.end(), begin()),
 200:/usr/include/c++/4.8/bits/vector.tcc **** 			    end(), _M_get_Tp_allocator());
 201:/usr/include/c++/4.8/bits/vector.tcc **** 	    }
 202:/usr/include/c++/4.8/bits/vector.tcc **** 	  else
 203:/usr/include/c++/4.8/bits/vector.tcc **** 	    {
 204:/usr/include/c++/4.8/bits/vector.tcc **** 	      std::copy(__x._M_impl._M_start, __x._M_impl._M_start + size(),
 205:/usr/include/c++/4.8/bits/vector.tcc **** 			this->_M_impl._M_start);
 206:/usr/include/c++/4.8/bits/vector.tcc **** 	      std::__uninitialized_copy_a(__x._M_impl._M_start + size(),
 207:/usr/include/c++/4.8/bits/vector.tcc **** 					  __x._M_impl._M_finish,
 208:/usr/include/c++/4.8/bits/vector.tcc **** 					  this->_M_impl._M_finish,
 209:/usr/include/c++/4.8/bits/vector.tcc **** 					  _M_get_Tp_allocator());
 210:/usr/include/c++/4.8/bits/vector.tcc **** 	    }
 211:/usr/include/c++/4.8/bits/vector.tcc **** 	  this->_M_impl._M_finish = this->_M_impl._M_start + __xlen;
 212:/usr/include/c++/4.8/bits/vector.tcc **** 	}
 213:/usr/include/c++/4.8/bits/vector.tcc ****       return *this;
 214:/usr/include/c++/4.8/bits/vector.tcc ****     }
 215:/usr/include/c++/4.8/bits/vector.tcc **** 
 216:/usr/include/c++/4.8/bits/vector.tcc ****   template<typename _Tp, typename _Alloc>
 217:/usr/include/c++/4.8/bits/vector.tcc ****     void
 218:/usr/include/c++/4.8/bits/vector.tcc ****     vector<_Tp, _Alloc>::
 219:/usr/include/c++/4.8/bits/vector.tcc ****     _M_fill_assign(size_t __n, const value_type& __val)
 220:/usr/include/c++/4.8/bits/vector.tcc ****     {
 221:/usr/include/c++/4.8/bits/vector.tcc ****       if (__n > capacity())
 222:/usr/include/c++/4.8/bits/vector.tcc **** 	{
 223:/usr/include/c++/4.8/bits/vector.tcc **** 	  vector __tmp(__n, __val, _M_get_Tp_allocator());
 224:/usr/include/c++/4.8/bits/vector.tcc **** 	  __tmp.swap(*this);
 225:/usr/include/c++/4.8/bits/vector.tcc **** 	}
 226:/usr/include/c++/4.8/bits/vector.tcc ****       else if (__n > size())
 227:/usr/include/c++/4.8/bits/vector.tcc **** 	{
 228:/usr/include/c++/4.8/bits/vector.tcc **** 	  std::fill(begin(), end(), __val);
 229:/usr/include/c++/4.8/bits/vector.tcc **** 	  std::__uninitialized_fill_n_a(this->_M_impl._M_finish,
 230:/usr/include/c++/4.8/bits/vector.tcc **** 					__n - size(), __val,
 231:/usr/include/c++/4.8/bits/vector.tcc **** 					_M_get_Tp_allocator());
 232:/usr/include/c++/4.8/bits/vector.tcc **** 	  this->_M_impl._M_finish += __n - size();
 233:/usr/include/c++/4.8/bits/vector.tcc **** 	}
 234:/usr/include/c++/4.8/bits/vector.tcc ****       else
 235:/usr/include/c++/4.8/bits/vector.tcc ****         _M_erase_at_end(std::fill_n(this->_M_impl._M_start, __n, __val));
 236:/usr/include/c++/4.8/bits/vector.tcc ****     }
 237:/usr/include/c++/4.8/bits/vector.tcc **** 
 238:/usr/include/c++/4.8/bits/vector.tcc ****   template<typename _Tp, typename _Alloc>
 239:/usr/include/c++/4.8/bits/vector.tcc ****     template<typename _InputIterator>
 240:/usr/include/c++/4.8/bits/vector.tcc ****       void
 241:/usr/include/c++/4.8/bits/vector.tcc ****       vector<_Tp, _Alloc>::
 242:/usr/include/c++/4.8/bits/vector.tcc ****       _M_assign_aux(_InputIterator __first, _InputIterator __last,
 243:/usr/include/c++/4.8/bits/vector.tcc **** 		    std::input_iterator_tag)
 244:/usr/include/c++/4.8/bits/vector.tcc ****       {
 245:/usr/include/c++/4.8/bits/vector.tcc **** 	pointer __cur(this->_M_impl._M_start);
 246:/usr/include/c++/4.8/bits/vector.tcc **** 	for (; __first != __last && __cur != this->_M_impl._M_finish;
 247:/usr/include/c++/4.8/bits/vector.tcc **** 	     ++__cur, ++__first)
 248:/usr/include/c++/4.8/bits/vector.tcc **** 	  *__cur = *__first;
 249:/usr/include/c++/4.8/bits/vector.tcc **** 	if (__first == __last)
 250:/usr/include/c++/4.8/bits/vector.tcc **** 	  _M_erase_at_end(__cur);
 251:/usr/include/c++/4.8/bits/vector.tcc **** 	else
 252:/usr/include/c++/4.8/bits/vector.tcc **** 	  insert(end(), __first, __last);
 253:/usr/include/c++/4.8/bits/vector.tcc ****       }
 254:/usr/include/c++/4.8/bits/vector.tcc **** 
 255:/usr/include/c++/4.8/bits/vector.tcc ****   template<typename _Tp, typename _Alloc>
 256:/usr/include/c++/4.8/bits/vector.tcc ****     template<typename _ForwardIterator>
 257:/usr/include/c++/4.8/bits/vector.tcc ****       void
 258:/usr/include/c++/4.8/bits/vector.tcc ****       vector<_Tp, _Alloc>::
 259:/usr/include/c++/4.8/bits/vector.tcc ****       _M_assign_aux(_ForwardIterator __first, _ForwardIterator __last,
 260:/usr/include/c++/4.8/bits/vector.tcc **** 		    std::forward_iterator_tag)
 261:/usr/include/c++/4.8/bits/vector.tcc ****       {
 262:/usr/include/c++/4.8/bits/vector.tcc **** 	const size_type __len = std::distance(__first, __last);
 263:/usr/include/c++/4.8/bits/vector.tcc **** 
 264:/usr/include/c++/4.8/bits/vector.tcc **** 	if (__len > capacity())
 265:/usr/include/c++/4.8/bits/vector.tcc **** 	  {
 266:/usr/include/c++/4.8/bits/vector.tcc **** 	    pointer __tmp(_M_allocate_and_copy(__len, __first, __last));
 267:/usr/include/c++/4.8/bits/vector.tcc **** 	    std::_Destroy(this->_M_impl._M_start, this->_M_impl._M_finish,
 268:/usr/include/c++/4.8/bits/vector.tcc **** 			  _M_get_Tp_allocator());
 269:/usr/include/c++/4.8/bits/vector.tcc **** 	    _M_deallocate(this->_M_impl._M_start,
 270:/usr/include/c++/4.8/bits/vector.tcc **** 			  this->_M_impl._M_end_of_storage
 271:/usr/include/c++/4.8/bits/vector.tcc **** 			  - this->_M_impl._M_start);
 272:/usr/include/c++/4.8/bits/vector.tcc **** 	    this->_M_impl._M_start = __tmp;
 273:/usr/include/c++/4.8/bits/vector.tcc **** 	    this->_M_impl._M_finish = this->_M_impl._M_start + __len;
 274:/usr/include/c++/4.8/bits/vector.tcc **** 	    this->_M_impl._M_end_of_storage = this->_M_impl._M_finish;
 275:/usr/include/c++/4.8/bits/vector.tcc **** 	  }
 276:/usr/include/c++/4.8/bits/vector.tcc **** 	else if (size() >= __len)
 277:/usr/include/c++/4.8/bits/vector.tcc **** 	  _M_erase_at_end(std::copy(__first, __last, this->_M_impl._M_start));
 278:/usr/include/c++/4.8/bits/vector.tcc **** 	else
 279:/usr/include/c++/4.8/bits/vector.tcc **** 	  {
 280:/usr/include/c++/4.8/bits/vector.tcc **** 	    _ForwardIterator __mid = __first;
 281:/usr/include/c++/4.8/bits/vector.tcc **** 	    std::advance(__mid, size());
 282:/usr/include/c++/4.8/bits/vector.tcc **** 	    std::copy(__first, __mid, this->_M_impl._M_start);
 283:/usr/include/c++/4.8/bits/vector.tcc **** 	    this->_M_impl._M_finish =
 284:/usr/include/c++/4.8/bits/vector.tcc **** 	      std::__uninitialized_copy_a(__mid, __last,
 285:/usr/include/c++/4.8/bits/vector.tcc **** 					  this->_M_impl._M_finish,
 286:/usr/include/c++/4.8/bits/vector.tcc **** 					  _M_get_Tp_allocator());
 287:/usr/include/c++/4.8/bits/vector.tcc **** 	  }
 288:/usr/include/c++/4.8/bits/vector.tcc ****       }
 289:/usr/include/c++/4.8/bits/vector.tcc **** 
 290:/usr/include/c++/4.8/bits/vector.tcc **** #if __cplusplus >= 201103L
 291:/usr/include/c++/4.8/bits/vector.tcc ****   template<typename _Tp, typename _Alloc>
 292:/usr/include/c++/4.8/bits/vector.tcc ****     template<typename... _Args>
 293:/usr/include/c++/4.8/bits/vector.tcc ****       typename vector<_Tp, _Alloc>::iterator
 294:/usr/include/c++/4.8/bits/vector.tcc ****       vector<_Tp, _Alloc>::
 295:/usr/include/c++/4.8/bits/vector.tcc ****       emplace(iterator __position, _Args&&... __args)
 296:/usr/include/c++/4.8/bits/vector.tcc ****       {
 297:/usr/include/c++/4.8/bits/vector.tcc **** 	const size_type __n = __position - begin();
 298:/usr/include/c++/4.8/bits/vector.tcc **** 	if (this->_M_impl._M_finish != this->_M_impl._M_end_of_storage
 299:/usr/include/c++/4.8/bits/vector.tcc **** 	    && __position == end())
 300:/usr/include/c++/4.8/bits/vector.tcc **** 	  {
 301:/usr/include/c++/4.8/bits/vector.tcc **** 	    _Alloc_traits::construct(this->_M_impl, this->_M_impl._M_finish,
 302:/usr/include/c++/4.8/bits/vector.tcc **** 				     std::forward<_Args>(__args)...);
 303:/usr/include/c++/4.8/bits/vector.tcc **** 	    ++this->_M_impl._M_finish;
 304:/usr/include/c++/4.8/bits/vector.tcc **** 	  }
 305:/usr/include/c++/4.8/bits/vector.tcc **** 	else
 306:/usr/include/c++/4.8/bits/vector.tcc **** 	  _M_insert_aux(__position, std::forward<_Args>(__args)...);
 307:/usr/include/c++/4.8/bits/vector.tcc **** 	return iterator(this->_M_impl._M_start + __n);
 308:/usr/include/c++/4.8/bits/vector.tcc ****       }
 309:/usr/include/c++/4.8/bits/vector.tcc **** 
 310:/usr/include/c++/4.8/bits/vector.tcc ****   template<typename _Tp, typename _Alloc>
 311:/usr/include/c++/4.8/bits/vector.tcc ****     template<typename... _Args>
 312:/usr/include/c++/4.8/bits/vector.tcc ****       void
 313:/usr/include/c++/4.8/bits/vector.tcc ****       vector<_Tp, _Alloc>::
 314:/usr/include/c++/4.8/bits/vector.tcc ****       _M_insert_aux(iterator __position, _Args&&... __args)
 315:/usr/include/c++/4.8/bits/vector.tcc **** #else
 316:/usr/include/c++/4.8/bits/vector.tcc ****   template<typename _Tp, typename _Alloc>
 317:/usr/include/c++/4.8/bits/vector.tcc ****     void
 318:/usr/include/c++/4.8/bits/vector.tcc ****     vector<_Tp, _Alloc>::
 1190              		.loc 8 318 0
 1191              		.cfi_startproc
 1192              		.cfi_personality 0x9b,DW.ref.__gxx_personality_v0
 1193              		.cfi_lsda 0x1b,.LLSDA864
 1194 0000 55       		pushq	%rbp
 1195              		.cfi_def_cfa_offset 16
 1196              		.cfi_offset 6, -16
 1197 0001 4889E5   		movq	%rsp, %rbp
 1198              		.cfi_def_cfa_register 6
 1199 0004 4154     		pushq	%r12
 1200 0006 53       		pushq	%rbx
 1201 0007 4883C480 		addq	$-128, %rsp
 1202              		.cfi_offset 12, -24
 1203              		.cfi_offset 3, -32
 1204 000b 48897D88 		movq	%rdi, -120(%rbp)
 1205 000f 48897580 		movq	%rsi, -128(%rbp)
 1206 0013 48899578 		movq	%rdx, -136(%rbp)
 1206      FFFFFF
 1207              	.LBB11:
 1208              	.LBB12:
 319:/usr/include/c++/4.8/bits/vector.tcc ****     _M_insert_aux(iterator __position, const _Tp& __x)
 320:/usr/include/c++/4.8/bits/vector.tcc **** #endif
 321:/usr/include/c++/4.8/bits/vector.tcc ****     {
 322:/usr/include/c++/4.8/bits/vector.tcc ****       if (this->_M_impl._M_finish != this->_M_impl._M_end_of_storage)
 1209              		.loc 8 322 0
 1210 001a 488B4588 		movq	-120(%rbp), %rax
 1211 001e 488B5008 		movq	8(%rax), %rdx
 1212 0022 488B4588 		movq	-120(%rbp), %rax
 1213 0026 488B4010 		movq	16(%rax), %rax
 1214 002a 4839C2   		cmpq	%rax, %rdx
 1215 002d 0F84AE00 		je	.L66
 1215      0000
 1216              	.LBB13:
 323:/usr/include/c++/4.8/bits/vector.tcc **** 	{
 324:/usr/include/c++/4.8/bits/vector.tcc **** 	  _Alloc_traits::construct(this->_M_impl, this->_M_impl._M_finish,
 325:/usr/include/c++/4.8/bits/vector.tcc **** 			           _GLIBCXX_MOVE(*(this->_M_impl._M_finish
 326:/usr/include/c++/4.8/bits/vector.tcc **** 				                   - 1)));
 1217              		.loc 8 326 0
 1218 0033 488B4588 		movq	-120(%rbp), %rax
 1219 0037 488B4008 		movq	8(%rax), %rax
 1220 003b 488D50C8 		leaq	-56(%rax), %rdx
 1221 003f 488B4588 		movq	-120(%rbp), %rax
 1222 0043 488B4808 		movq	8(%rax), %rcx
 1223 0047 488B4588 		movq	-120(%rbp), %rax
 324:/usr/include/c++/4.8/bits/vector.tcc **** 			           _GLIBCXX_MOVE(*(this->_M_impl._M_finish
 1224              		.loc 8 324 0
 1225 004b 4889CE   		movq	%rcx, %rsi
 1226 004e 4889C7   		movq	%rax, %rdi
 1227              	.LEHB27:
 1228 0051 E8000000 		call	_ZN9__gnu_cxx14__alloc_traitsISaIN8UnitTest18DeferredTestResultEEE9constructIS2_EEvRS3_PS2_RK
 1228      00
 327:/usr/include/c++/4.8/bits/vector.tcc **** 	  ++this->_M_impl._M_finish;
 1229              		.loc 8 327 0
 1230 0056 488B4588 		movq	-120(%rbp), %rax
 1231 005a 488B4008 		movq	8(%rax), %rax
 1232 005e 488D5038 		leaq	56(%rax), %rdx
 1233 0062 488B4588 		movq	-120(%rbp), %rax
 1234 0066 48895008 		movq	%rdx, 8(%rax)
 328:/usr/include/c++/4.8/bits/vector.tcc **** #if __cplusplus < 201103L
 329:/usr/include/c++/4.8/bits/vector.tcc **** 	  _Tp __x_copy = __x;
 1235              		.loc 8 329 0
 1236 006a 488B9578 		movq	-136(%rbp), %rdx
 1236      FFFFFF
 1237 0071 488D45B0 		leaq	-80(%rbp), %rax
 1238 0075 4889D6   		movq	%rdx, %rsi
 1239 0078 4889C7   		movq	%rax, %rdi
 1240 007b E8000000 		call	_ZN8UnitTest18DeferredTestResultC1ERKS0_@PLT
 1240      00
 1241              	.LEHE27:
 330:/usr/include/c++/4.8/bits/vector.tcc **** #endif
 331:/usr/include/c++/4.8/bits/vector.tcc **** 	  _GLIBCXX_MOVE_BACKWARD3(__position.base(),
 1242              		.loc 8 331 0
 1243 0080 488B4588 		movq	-120(%rbp), %rax
 1244 0084 488B4008 		movq	8(%rax), %rax
 1245 0088 4C8D60C8 		leaq	-56(%rax), %r12
 1246 008c 488B4588 		movq	-120(%rbp), %rax
 1247 0090 488B4008 		movq	8(%rax), %rax
 1248 0094 488D5890 		leaq	-112(%rax), %rbx
 1249 0098 488D4580 		leaq	-128(%rbp), %rax
 1250 009c 4889C7   		movq	%rax, %rdi
 1251              	.LEHB28:
 1252 009f E8000000 		call	_ZNK9__gnu_cxx17__normal_iteratorIPN8UnitTest18DeferredTestResultESt6vectorIS2_SaIS2_EEE4base
 1252      00
 1253 00a4 488B00   		movq	(%rax), %rax
 1254 00a7 4C89E2   		movq	%r12, %rdx
 1255 00aa 4889DE   		movq	%rbx, %rsi
 1256 00ad 4889C7   		movq	%rax, %rdi
 1257 00b0 E8000000 		call	_ZSt13copy_backwardIPN8UnitTest18DeferredTestResultES2_ET0_T_S4_S3_@PLT
 1257      00
 332:/usr/include/c++/4.8/bits/vector.tcc **** 				  this->_M_impl._M_finish - 2,
 333:/usr/include/c++/4.8/bits/vector.tcc **** 				  this->_M_impl._M_finish - 1);
 334:/usr/include/c++/4.8/bits/vector.tcc **** #if __cplusplus < 201103L
 335:/usr/include/c++/4.8/bits/vector.tcc **** 	  *__position = __x_copy;
 1258              		.loc 8 335 0
 1259 00b5 488D4580 		leaq	-128(%rbp), %rax
 1260 00b9 4889C7   		movq	%rax, %rdi
 1261 00bc E8000000 		call	_ZNK9__gnu_cxx17__normal_iteratorIPN8UnitTest18DeferredTestResultESt6vectorIS2_SaIS2_EEEdeEv@
 1261      00
 1262 00c1 488D55B0 		leaq	-80(%rbp), %rdx
 1263 00c5 4889D6   		movq	%rdx, %rsi
 1264 00c8 4889C7   		movq	%rax, %rdi
 1265 00cb E8000000 		call	_ZN8UnitTest18DeferredTestResultaSERKS0_@PLT
 1265      00
 1266              	.LEHE28:
 1267              		.loc 8 335 0 is_stmt 0 discriminator 2
 1268 00d0 488D45B0 		leaq	-80(%rbp), %rax
 1269 00d4 4889C7   		movq	%rax, %rdi
 1270              	.LEHB29:
 1271 00d7 E8000000 		call	_ZN8UnitTest18DeferredTestResultD1Ev@PLT
 1271      00
 1272              	.LBE13:
 1273 00dc E9660200 		jmp	.L65
 1273      00
 1274              	.L66:
 1275              	.LBB14:
 336:/usr/include/c++/4.8/bits/vector.tcc **** #else
 337:/usr/include/c++/4.8/bits/vector.tcc **** 	  *__position = _Tp(std::forward<_Args>(__args)...);
 338:/usr/include/c++/4.8/bits/vector.tcc **** #endif
 339:/usr/include/c++/4.8/bits/vector.tcc **** 	}
 340:/usr/include/c++/4.8/bits/vector.tcc ****       else
 341:/usr/include/c++/4.8/bits/vector.tcc **** 	{
 342:/usr/include/c++/4.8/bits/vector.tcc **** 	  const size_type __len =
 343:/usr/include/c++/4.8/bits/vector.tcc **** 	    _M_check_len(size_type(1), "vector::_M_insert_aux");
 1276              		.loc 8 343 0 is_stmt 1
 1277 00e1 488B4588 		movq	-120(%rbp), %rax
 1278 00e5 488D1500 		leaq	.LC0(%rip), %rdx
 1278      000000
 1279 00ec BE010000 		movl	$1, %esi
 1279      00
 1280 00f1 4889C7   		movq	%rax, %rdi
 1281 00f4 E8000000 		call	_ZNKSt6vectorIN8UnitTest18DeferredTestResultESaIS1_EE12_M_check_lenEmPKc@PLT
 1281      00
 1282 00f9 48894598 		movq	%rax, -104(%rbp)
 344:/usr/include/c++/4.8/bits/vector.tcc **** 	  const size_type __elems_before = __position - begin();
 1283              		.loc 8 344 0
 1284 00fd 488B4588 		movq	-120(%rbp), %rax
 1285 0101 4889C7   		movq	%rax, %rdi
 1286 0104 E8000000 		call	_ZNSt6vectorIN8UnitTest18DeferredTestResultESaIS1_EE5beginEv@PLT
 1286      00
 1287 0109 488945B0 		movq	%rax, -80(%rbp)
 1288 010d 488D55B0 		leaq	-80(%rbp), %rdx
 1289 0111 488D4580 		leaq	-128(%rbp), %rax
 1290 0115 4889D6   		movq	%rdx, %rsi
 1291 0118 4889C7   		movq	%rax, %rdi
 1292 011b E8000000 		call	_ZN9__gnu_cxxmiIPN8UnitTest18DeferredTestResultESt6vectorIS2_SaIS2_EEEENS_17__normal_iterator
 1292      00
 1293 0120 488945A0 		movq	%rax, -96(%rbp)
 345:/usr/include/c++/4.8/bits/vector.tcc **** 	  pointer __new_start(this->_M_allocate(__len));
 1294              		.loc 8 345 0
 1295 0124 488B4588 		movq	-120(%rbp), %rax
 1296 0128 488B5598 		movq	-104(%rbp), %rdx
 1297 012c 4889D6   		movq	%rdx, %rsi
 1298 012f 4889C7   		movq	%rax, %rdi
 1299 0132 E8000000 		call	_ZNSt12_Vector_baseIN8UnitTest18DeferredTestResultESaIS1_EE11_M_allocateEm@PLT
 1299      00
 1300              	.LEHE29:
 1301 0137 488945A8 		movq	%rax, -88(%rbp)
 346:/usr/include/c++/4.8/bits/vector.tcc **** 	  pointer __new_finish(__new_start);
 1302              		.loc 8 346 0
 1303 013b 488B45A8 		movq	-88(%rbp), %rax
 1304 013f 48894590 		movq	%rax, -112(%rbp)
 347:/usr/include/c++/4.8/bits/vector.tcc **** 	  __try
 348:/usr/include/c++/4.8/bits/vector.tcc **** 	    {
 349:/usr/include/c++/4.8/bits/vector.tcc **** 	      // The order of the three operations is dictated by the C++0x
 350:/usr/include/c++/4.8/bits/vector.tcc **** 	      // case, where the moves could alter a new element belonging
 351:/usr/include/c++/4.8/bits/vector.tcc **** 	      // to the existing vector.  This is an issue only for callers
 352:/usr/include/c++/4.8/bits/vector.tcc **** 	      // taking the element by const lvalue ref (see 23.1/13).
 353:/usr/include/c++/4.8/bits/vector.tcc **** 	      _Alloc_traits::construct(this->_M_impl,
 354:/usr/include/c++/4.8/bits/vector.tcc **** 		                       __new_start + __elems_before,
 355:/usr/include/c++/4.8/bits/vector.tcc **** #if __cplusplus >= 201103L
 356:/usr/include/c++/4.8/bits/vector.tcc **** 				       std::forward<_Args>(__args)...);
 357:/usr/include/c++/4.8/bits/vector.tcc **** #else
 358:/usr/include/c++/4.8/bits/vector.tcc **** 	                               __x);
 1305              		.loc 8 358 0
 1306 0143 488B45A0 		movq	-96(%rbp), %rax
 1307 0147 48C1E003 		salq	$3, %rax
 1308 014b 488D14C5 		leaq	0(,%rax,8), %rdx
 1308      00000000 
 1309 0153 4829C2   		subq	%rax, %rdx
 1310 0156 488B45A8 		movq	-88(%rbp), %rax
 1311 015a 488D0C02 		leaq	(%rdx,%rax), %rcx
 1312 015e 488B4588 		movq	-120(%rbp), %rax
 353:/usr/include/c++/4.8/bits/vector.tcc **** 		                       __new_start + __elems_before,
 1313              		.loc 8 353 0
 1314 0162 488B9578 		movq	-136(%rbp), %rdx
 1314      FFFFFF
 1315 0169 4889CE   		movq	%rcx, %rsi
 1316 016c 4889C7   		movq	%rax, %rdi
 1317              	.LEHB30:
 1318 016f E8000000 		call	_ZN9__gnu_cxx14__alloc_traitsISaIN8UnitTest18DeferredTestResultEEE9constructIS2_EEvRS3_PS2_RK
 1318      00
 359:/usr/include/c++/4.8/bits/vector.tcc **** #endif
 360:/usr/include/c++/4.8/bits/vector.tcc **** 	      __new_finish = 0;
 1319              		.loc 8 360 0
 1320 0174 48C74590 		movq	$0, -112(%rbp)
 1320      00000000 
 361:/usr/include/c++/4.8/bits/vector.tcc **** 
 362:/usr/include/c++/4.8/bits/vector.tcc **** 	      __new_finish
 363:/usr/include/c++/4.8/bits/vector.tcc **** 		= std::__uninitialized_move_if_noexcept_a
 364:/usr/include/c++/4.8/bits/vector.tcc **** 		(this->_M_impl._M_start, __position.base(),
 365:/usr/include/c++/4.8/bits/vector.tcc **** 		 __new_start, _M_get_Tp_allocator());
 1321              		.loc 8 365 0
 1322 017c 488B4588 		movq	-120(%rbp), %rax
 1323 0180 4889C7   		movq	%rax, %rdi
 1324 0183 E8000000 		call	_ZNSt12_Vector_baseIN8UnitTest18DeferredTestResultESaIS1_EE19_M_get_Tp_allocatorEv@PLT
 1324      00
 1325 0188 4889C3   		movq	%rax, %rbx
 1326 018b 488D4580 		leaq	-128(%rbp), %rax
 1327 018f 4889C7   		movq	%rax, %rdi
 1328 0192 E8000000 		call	_ZNK9__gnu_cxx17__normal_iteratorIPN8UnitTest18DeferredTestResultESt6vectorIS2_SaIS2_EEE4base
 1328      00
 1329              		.loc 8 365 0 is_stmt 0 discriminator 1
 1330 0197 488B30   		movq	(%rax), %rsi
 1331 019a 488B4588 		movq	-120(%rbp), %rax
 1332 019e 488B00   		movq	(%rax), %rax
 362:/usr/include/c++/4.8/bits/vector.tcc **** 		= std::__uninitialized_move_if_noexcept_a
 1333              		.loc 8 362 0 is_stmt 1 discriminator 1
 1334 01a1 488B55A8 		movq	-88(%rbp), %rdx
 1335 01a5 4889D9   		movq	%rbx, %rcx
 1336 01a8 4889C7   		movq	%rax, %rdi
 1337 01ab E8000000 		call	_ZSt34__uninitialized_move_if_noexcept_aIPN8UnitTest18DeferredTestResultES2_SaIS1_EET0_T_S5_S
 1337      00
 1338 01b0 48894590 		movq	%rax, -112(%rbp)
 366:/usr/include/c++/4.8/bits/vector.tcc **** 
 367:/usr/include/c++/4.8/bits/vector.tcc **** 	      ++__new_finish;
 1339              		.loc 8 367 0 discriminator 1
 1340 01b4 48834590 		addq	$56, -112(%rbp)
 1340      38
 368:/usr/include/c++/4.8/bits/vector.tcc **** 
 369:/usr/include/c++/4.8/bits/vector.tcc **** 	      __new_finish
 370:/usr/include/c++/4.8/bits/vector.tcc **** 		= std::__uninitialized_move_if_noexcept_a
 371:/usr/include/c++/4.8/bits/vector.tcc **** 		(__position.base(), this->_M_impl._M_finish,
 372:/usr/include/c++/4.8/bits/vector.tcc **** 		 __new_finish, _M_get_Tp_allocator());
 1341              		.loc 8 372 0 discriminator 1
 1342 01b9 488B4588 		movq	-120(%rbp), %rax
 1343 01bd 4889C7   		movq	%rax, %rdi
 1344 01c0 E8000000 		call	_ZNSt12_Vector_baseIN8UnitTest18DeferredTestResultESaIS1_EE19_M_get_Tp_allocatorEv@PLT
 1344      00
 1345 01c5 4989C4   		movq	%rax, %r12
 1346 01c8 488B4588 		movq	-120(%rbp), %rax
 1347 01cc 488B5808 		movq	8(%rax), %rbx
 1348 01d0 488D4580 		leaq	-128(%rbp), %rax
 1349 01d4 4889C7   		movq	%rax, %rdi
 1350 01d7 E8000000 		call	_ZNK9__gnu_cxx17__normal_iteratorIPN8UnitTest18DeferredTestResultESt6vectorIS2_SaIS2_EEE4base
 1350      00
 1351 01dc 488B00   		movq	(%rax), %rax
 369:/usr/include/c++/4.8/bits/vector.tcc **** 		= std::__uninitialized_move_if_noexcept_a
 1352              		.loc 8 369 0 discriminator 1
 1353 01df 488B5590 		movq	-112(%rbp), %rdx
 1354 01e3 4C89E1   		movq	%r12, %rcx
 1355 01e6 4889DE   		movq	%rbx, %rsi
 1356 01e9 4889C7   		movq	%rax, %rdi
 1357 01ec E8000000 		call	_ZSt34__uninitialized_move_if_noexcept_aIPN8UnitTest18DeferredTestResultES2_SaIS1_EET0_T_S5_S
 1357      00
 1358              	.LEHE30:
 1359 01f1 48894590 		movq	%rax, -112(%rbp)
 373:/usr/include/c++/4.8/bits/vector.tcc **** 	    }
 374:/usr/include/c++/4.8/bits/vector.tcc ****           __catch(...)
 375:/usr/include/c++/4.8/bits/vector.tcc **** 	    {
 376:/usr/include/c++/4.8/bits/vector.tcc **** 	      if (!__new_finish)
 377:/usr/include/c++/4.8/bits/vector.tcc **** 		_Alloc_traits::destroy(this->_M_impl,
 378:/usr/include/c++/4.8/bits/vector.tcc **** 		                       __new_start + __elems_before);
 379:/usr/include/c++/4.8/bits/vector.tcc **** 	      else
 380:/usr/include/c++/4.8/bits/vector.tcc **** 		std::_Destroy(__new_start, __new_finish, _M_get_Tp_allocator());
 381:/usr/include/c++/4.8/bits/vector.tcc **** 	      _M_deallocate(__new_start, __len);
 382:/usr/include/c++/4.8/bits/vector.tcc **** 	      __throw_exception_again;
 383:/usr/include/c++/4.8/bits/vector.tcc **** 	    }
 384:/usr/include/c++/4.8/bits/vector.tcc **** 	  std::_Destroy(this->_M_impl._M_start, this->_M_impl._M_finish,
 385:/usr/include/c++/4.8/bits/vector.tcc **** 			_M_get_Tp_allocator());
 1360              		.loc 8 385 0 discriminator 1
 1361 01f5 488B4588 		movq	-120(%rbp), %rax
 1362 01f9 4889C7   		movq	%rax, %rdi
 1363              	.LEHB31:
 1364 01fc E8000000 		call	_ZNSt12_Vector_baseIN8UnitTest18DeferredTestResultESaIS1_EE19_M_get_Tp_allocatorEv@PLT
 1364      00
 1365 0201 4889C2   		movq	%rax, %rdx
 1366 0204 488B4588 		movq	-120(%rbp), %rax
 1367 0208 488B4808 		movq	8(%rax), %rcx
 1368 020c 488B4588 		movq	-120(%rbp), %rax
 1369 0210 488B00   		movq	(%rax), %rax
 384:/usr/include/c++/4.8/bits/vector.tcc **** 			_M_get_Tp_allocator());
 1370              		.loc 8 384 0 discriminator 1
 1371 0213 4889CE   		movq	%rcx, %rsi
 1372 0216 4889C7   		movq	%rax, %rdi
 1373 0219 E8000000 		call	_ZSt8_DestroyIPN8UnitTest18DeferredTestResultES1_EvT_S3_RSaIT0_E@PLT
 1373      00
 386:/usr/include/c++/4.8/bits/vector.tcc **** 	  _M_deallocate(this->_M_impl._M_start,
 387:/usr/include/c++/4.8/bits/vector.tcc **** 			this->_M_impl._M_end_of_storage
 388:/usr/include/c++/4.8/bits/vector.tcc **** 			- this->_M_impl._M_start);
 1374              		.loc 8 388 0 discriminator 1
 1375 021e 488B4588 		movq	-120(%rbp), %rax
 1376 0222 488B4010 		movq	16(%rax), %rax
 1377 0226 4889C2   		movq	%rax, %rdx
 1378 0229 488B4588 		movq	-120(%rbp), %rax
 1379 022d 488B00   		movq	(%rax), %rax
 1380 0230 4829C2   		subq	%rax, %rdx
 1381 0233 4889D0   		movq	%rdx, %rax
 1382 0236 48C1F803 		sarq	$3, %rax
 1383 023a 4889C2   		movq	%rax, %rdx
 1384 023d 48B8B76D 		movabsq	$7905747460161236407, %rax
 1384      DBB66DDB 
 1384      B66D
 1385 0247 480FAFC2 		imulq	%rdx, %rax
 1386 024b 4889C2   		movq	%rax, %rdx
 1387 024e 488B4588 		movq	-120(%rbp), %rax
 1388 0252 488B08   		movq	(%rax), %rcx
 1389 0255 488B4588 		movq	-120(%rbp), %rax
 386:/usr/include/c++/4.8/bits/vector.tcc **** 	  _M_deallocate(this->_M_impl._M_start,
 1390              		.loc 8 386 0 discriminator 1
 1391 0259 4889CE   		movq	%rcx, %rsi
 1392 025c 4889C7   		movq	%rax, %rdi
 1393 025f E8000000 		call	_ZNSt12_Vector_baseIN8UnitTest18DeferredTestResultESaIS1_EE13_M_deallocateEPS1_m@PLT
 1393      00
 1394              	.LEHE31:
 389:/usr/include/c++/4.8/bits/vector.tcc **** 	  this->_M_impl._M_start = __new_start;
 1395              		.loc 8 389 0 discriminator 1
 1396 0264 488B4588 		movq	-120(%rbp), %rax
 1397 0268 488B55A8 		movq	-88(%rbp), %rdx
 1398 026c 488910   		movq	%rdx, (%rax)
 390:/usr/include/c++/4.8/bits/vector.tcc **** 	  this->_M_impl._M_finish = __new_finish;
 1399              		.loc 8 390 0 discriminator 1
 1400 026f 488B4588 		movq	-120(%rbp), %rax
 1401 0273 488B5590 		movq	-112(%rbp), %rdx
 1402 0277 48895008 		movq	%rdx, 8(%rax)
 391:/usr/include/c++/4.8/bits/vector.tcc **** 	  this->_M_impl._M_end_of_storage = __new_start + __len;
 1403              		.loc 8 391 0 discriminator 1
 1404 027b 488B4598 		movq	-104(%rbp), %rax
 1405 027f 48C1E003 		salq	$3, %rax
 1406 0283 488D14C5 		leaq	0(,%rax,8), %rdx
 1406      00000000 
 1407 028b 4829C2   		subq	%rax, %rdx
 1408 028e 488B45A8 		movq	-88(%rbp), %rax
 1409 0292 4801C2   		addq	%rax, %rdx
 1410 0295 488B4588 		movq	-120(%rbp), %rax
 1411 0299 48895010 		movq	%rdx, 16(%rax)
 1412              	.LBE14:
 1413              	.LBE12:
 1414              	.LBE11:
 392:/usr/include/c++/4.8/bits/vector.tcc **** 	}
 393:/usr/include/c++/4.8/bits/vector.tcc ****     }
 1415              		.loc 8 393 0 discriminator 1
 1416 029d E9A50000 		jmp	.L65
 1416      00
 1417              	.L73:
 1418 02a2 4889C3   		movq	%rax, %rbx
 1419              	.LBB18:
 1420              	.LBB17:
 1421              	.LBB15:
 335:/usr/include/c++/4.8/bits/vector.tcc **** #else
 1422              		.loc 8 335 0
 1423 02a5 488D45B0 		leaq	-80(%rbp), %rax
 1424 02a9 4889C7   		movq	%rax, %rdi
 1425 02ac E8000000 		call	_ZN8UnitTest18DeferredTestResultD1Ev@PLT
 1425      00
 1426 02b1 4889D8   		movq	%rbx, %rax
 1427 02b4 4889C7   		movq	%rax, %rdi
 1428              	.LEHB32:
 1429 02b7 E8000000 		call	_Unwind_Resume@PLT
 1429      00
 1430              	.LEHE32:
 1431              	.L75:
 1432 02bc 4889C3   		movq	%rax, %rbx
 1433              	.LBE15:
 1434              	.LBB16:
 374:/usr/include/c++/4.8/bits/vector.tcc **** 	    {
 1435              		.loc 8 374 0
 1436 02bf E8000000 		call	__cxa_end_catch@PLT
 1436      00
 1437 02c4 4889D8   		movq	%rbx, %rax
 1438 02c7 4889C7   		movq	%rax, %rdi
 1439              	.LEHB33:
 1440 02ca E8000000 		call	_Unwind_Resume@PLT
 1440      00
 1441              	.LEHE33:
 1442              	.L74:
 1443 02cf 4889C7   		movq	%rax, %rdi
 1444 02d2 E8000000 		call	__cxa_begin_catch@PLT
 1444      00
 376:/usr/include/c++/4.8/bits/vector.tcc **** 		_Alloc_traits::destroy(this->_M_impl,
 1445              		.loc 8 376 0
 1446 02d7 48837D90 		cmpq	$0, -112(%rbp)
 1446      00
 1447 02dc 752B     		jne	.L71
 378:/usr/include/c++/4.8/bits/vector.tcc **** 	      else
 1448              		.loc 8 378 0
 1449 02de 488B45A0 		movq	-96(%rbp), %rax
 1450 02e2 48C1E003 		salq	$3, %rax
 1451 02e6 488D14C5 		leaq	0(,%rax,8), %rdx
 1451      00000000 
 1452 02ee 4829C2   		subq	%rax, %rdx
 1453 02f1 488B45A8 		movq	-88(%rbp), %rax
 1454 02f5 4801C2   		addq	%rax, %rdx
 1455 02f8 488B4588 		movq	-120(%rbp), %rax
 377:/usr/include/c++/4.8/bits/vector.tcc **** 		                       __new_start + __elems_before);
 1456              		.loc 8 377 0
 1457 02fc 4889D6   		movq	%rdx, %rsi
 1458 02ff 4889C7   		movq	%rax, %rdi
 1459              	.LEHB34:
 1460 0302 E8000000 		call	_ZN9__gnu_cxx14__alloc_traitsISaIN8UnitTest18DeferredTestResultEEE7destroyERS3_PS2_@PLT
 1460      00
 1461 0307 EB22     		jmp	.L72
 1462              	.L71:
 380:/usr/include/c++/4.8/bits/vector.tcc **** 	      _M_deallocate(__new_start, __len);
 1463              		.loc 8 380 0
 1464 0309 488B4588 		movq	-120(%rbp), %rax
 1465 030d 4889C7   		movq	%rax, %rdi
 1466 0310 E8000000 		call	_ZNSt12_Vector_baseIN8UnitTest18DeferredTestResultESaIS1_EE19_M_get_Tp_allocatorEv@PLT
 1466      00
 1467 0315 4889C2   		movq	%rax, %rdx
 1468 0318 488B4D90 		movq	-112(%rbp), %rcx
 1469 031c 488B45A8 		movq	-88(%rbp), %rax
 1470 0320 4889CE   		movq	%rcx, %rsi
 1471 0323 4889C7   		movq	%rax, %rdi
 1472 0326 E8000000 		call	_ZSt8_DestroyIPN8UnitTest18DeferredTestResultES1_EvT_S3_RSaIT0_E@PLT
 1472      00
 1473              	.L72:
 381:/usr/include/c++/4.8/bits/vector.tcc **** 	      __throw_exception_again;
 1474              		.loc 8 381 0
 1475 032b 488B4588 		movq	-120(%rbp), %rax
 1476 032f 488B5598 		movq	-104(%rbp), %rdx
 1477 0333 488B4DA8 		movq	-88(%rbp), %rcx
 1478 0337 4889CE   		movq	%rcx, %rsi
 1479 033a 4889C7   		movq	%rax, %rdi
 1480 033d E8000000 		call	_ZNSt12_Vector_baseIN8UnitTest18DeferredTestResultESaIS1_EE13_M_deallocateEPS1_m@PLT
 1480      00
 382:/usr/include/c++/4.8/bits/vector.tcc **** 	    }
 1481              		.loc 8 382 0
 1482 0342 E8000000 		call	__cxa_rethrow@PLT
 1482      00
 1483              	.LEHE34:
 1484              	.L65:
 1485              	.LBE16:
 1486              	.LBE17:
 1487              	.LBE18:
 1488              		.loc 8 393 0
 1489 0347 4883EC80 		subq	$-128, %rsp
 1490 034b 5B       		popq	%rbx
 1491 034c 415C     		popq	%r12
 1492 034e 5D       		popq	%rbp
 1493              		.cfi_def_cfa 7, 8
 1494 034f C3       		ret
 1495              		.cfi_endproc
 1496              	.LFE864:
 1497              		.section	.gcc_except_table
 1498 007a 0000     		.align 4
 1499              	.LLSDA864:
 1500 007c FF       		.byte	0xff
 1501 007d 9B       		.byte	0x9b
 1502 007e 35       		.uleb128 .LLSDATT864-.LLSDATTD864
 1503              	.LLSDATTD864:
 1504 007f 01       		.byte	0x1
 1505 0080 2B       		.uleb128 .LLSDACSE864-.LLSDACSB864
 1506              	.LLSDACSB864:
 1507 0081 51       		.uleb128 .LEHB27-.LFB864
 1508 0082 2F       		.uleb128 .LEHE27-.LEHB27
 1509 0083 00       		.uleb128 0
 1510 0084 00       		.uleb128 0
 1511 0085 9F01     		.uleb128 .LEHB28-.LFB864
 1512 0087 31       		.uleb128 .LEHE28-.LEHB28
 1513 0088 A205     		.uleb128 .L73-.LFB864
 1514 008a 00       		.uleb128 0
 1515 008b D701     		.uleb128 .LEHB29-.LFB864
 1516 008d 60       		.uleb128 .LEHE29-.LEHB29
 1517 008e 00       		.uleb128 0
 1518 008f 00       		.uleb128 0
 1519 0090 EF02     		.uleb128 .LEHB30-.LFB864
 1520 0092 8201     		.uleb128 .LEHE30-.LEHB30
 1521 0094 CF05     		.uleb128 .L74-.LFB864
 1522 0096 01       		.uleb128 0x1
 1523 0097 FC03     		.uleb128 .LEHB31-.LFB864
 1524 0099 68       		.uleb128 .LEHE31-.LEHB31
 1525 009a 00       		.uleb128 0
 1526 009b 00       		.uleb128 0
 1527 009c B705     		.uleb128 .LEHB32-.LFB864
 1528 009e 05       		.uleb128 .LEHE32-.LEHB32
 1529 009f 00       		.uleb128 0
 1530 00a0 00       		.uleb128 0
 1531 00a1 CA05     		.uleb128 .LEHB33-.LFB864
 1532 00a3 05       		.uleb128 .LEHE33-.LEHB33
 1533 00a4 00       		.uleb128 0
 1534 00a5 00       		.uleb128 0
 1535 00a6 8206     		.uleb128 .LEHB34-.LFB864
 1536 00a8 45       		.uleb128 .LEHE34-.LEHB34
 1537 00a9 BC05     		.uleb128 .L75-.LFB864
 1538 00ab 00       		.uleb128 0
 1539              	.LLSDACSE864:
 1540 00ac 01       		.byte	0x1
 1541 00ad 00       		.byte	0
 1542 00ae 0000     		.align 4
 1543 00b0 00000000 		.long	0
 1544              	
 1545              	.LLSDATT864:
 1546              		.section	.text._ZNSt6vectorIN8UnitTest18DeferredTestResultESaIS1_EE13_M_insert_auxEN9__gnu_cxx17__
 1548              		.section	.text._ZNSt6vectorIN8UnitTest18DeferredTestResultESaIS1_EE3endEv,"axG",@progbits,_ZNSt6ve
 1549              		.align 2
 1550              		.weak	_ZNSt6vectorIN8UnitTest18DeferredTestResultESaIS1_EE3endEv
 1552              	_ZNSt6vectorIN8UnitTest18DeferredTestResultESaIS1_EE3endEv:
 1553              	.LFB869:
 556:/usr/include/c++/4.8/bits/stl_vector.h ****       { return iterator(this->_M_impl._M_finish); }
 1554              		.loc 5 556 0
 1555              		.cfi_startproc
 1556 0000 55       		pushq	%rbp
 1557              		.cfi_def_cfa_offset 16
 1558              		.cfi_offset 6, -16
 1559 0001 4889E5   		movq	%rsp, %rbp
 1560              		.cfi_def_cfa_register 6
 1561 0004 4883EC20 		subq	$32, %rsp
 1562 0008 48897DE8 		movq	%rdi, -24(%rbp)
 557:/usr/include/c++/4.8/bits/stl_vector.h **** 
 1563              		.loc 5 557 0
 1564 000c 488B45E8 		movq	-24(%rbp), %rax
 1565 0010 488D5008 		leaq	8(%rax), %rdx
 1566 0014 488D45F0 		leaq	-16(%rbp), %rax
 1567 0018 4889D6   		movq	%rdx, %rsi
 1568 001b 4889C7   		movq	%rax, %rdi
 1569 001e E8000000 		call	_ZN9__gnu_cxx17__normal_iteratorIPN8UnitTest18DeferredTestResultESt6vectorIS2_SaIS2_EEEC1ERKS
 1569      00
 1570 0023 488B45F0 		movq	-16(%rbp), %rax
 1571 0027 C9       		leave
 1572              		.cfi_def_cfa 7, 8
 1573 0028 C3       		ret
 1574              		.cfi_endproc
 1575              	.LFE869:
 1577              		.section	.text._ZNK9__gnu_cxx17__normal_iteratorIPN8UnitTest18DeferredTestResultESt6vectorIS2_SaIS
 1578              		.align 2
 1579              		.weak	_ZNK9__gnu_cxx17__normal_iteratorIPN8UnitTest18DeferredTestResultESt6vectorIS2_SaIS2_EEEmiER
 1581              	_ZNK9__gnu_cxx17__normal_iteratorIPN8UnitTest18DeferredTestResultESt6vectorIS2_SaIS2_EEEmiERKl:
 1582              	.LFB870:
 1583              		.file 9 "/usr/include/c++/4.8/bits/stl_iterator.h"
   1:/usr/include/c++/4.8/bits/stl_iterator.h **** // Iterators -*- C++ -*-
   2:/usr/include/c++/4.8/bits/stl_iterator.h **** 
   3:/usr/include/c++/4.8/bits/stl_iterator.h **** // Copyright (C) 2001-2013 Free Software Foundation, Inc.
   4:/usr/include/c++/4.8/bits/stl_iterator.h **** //
   5:/usr/include/c++/4.8/bits/stl_iterator.h **** // This file is part of the GNU ISO C++ Library.  This library is free
   6:/usr/include/c++/4.8/bits/stl_iterator.h **** // software; you can redistribute it and/or modify it under the
   7:/usr/include/c++/4.8/bits/stl_iterator.h **** // terms of the GNU General Public License as published by the
   8:/usr/include/c++/4.8/bits/stl_iterator.h **** // Free Software Foundation; either version 3, or (at your option)
   9:/usr/include/c++/4.8/bits/stl_iterator.h **** // any later version.
  10:/usr/include/c++/4.8/bits/stl_iterator.h **** 
  11:/usr/include/c++/4.8/bits/stl_iterator.h **** // This library is distributed in the hope that it will be useful,
  12:/usr/include/c++/4.8/bits/stl_iterator.h **** // but WITHOUT ANY WARRANTY; without even the implied warranty of
  13:/usr/include/c++/4.8/bits/stl_iterator.h **** // MERCHANTABILITY or FITNESS FOR A PARTICULAR PURPOSE.  See the
  14:/usr/include/c++/4.8/bits/stl_iterator.h **** // GNU General Public License for more details.
  15:/usr/include/c++/4.8/bits/stl_iterator.h **** 
  16:/usr/include/c++/4.8/bits/stl_iterator.h **** // Under Section 7 of GPL version 3, you are granted additional
  17:/usr/include/c++/4.8/bits/stl_iterator.h **** // permissions described in the GCC Runtime Library Exception, version
  18:/usr/include/c++/4.8/bits/stl_iterator.h **** // 3.1, as published by the Free Software Foundation.
  19:/usr/include/c++/4.8/bits/stl_iterator.h **** 
  20:/usr/include/c++/4.8/bits/stl_iterator.h **** // You should have received a copy of the GNU General Public License and
  21:/usr/include/c++/4.8/bits/stl_iterator.h **** // a copy of the GCC Runtime Library Exception along with this program;
  22:/usr/include/c++/4.8/bits/stl_iterator.h **** // see the files COPYING3 and COPYING.RUNTIME respectively.  If not, see
  23:/usr/include/c++/4.8/bits/stl_iterator.h **** // <http://www.gnu.org/licenses/>.
  24:/usr/include/c++/4.8/bits/stl_iterator.h **** 
  25:/usr/include/c++/4.8/bits/stl_iterator.h **** /*
  26:/usr/include/c++/4.8/bits/stl_iterator.h ****  *
  27:/usr/include/c++/4.8/bits/stl_iterator.h ****  * Copyright (c) 1994
  28:/usr/include/c++/4.8/bits/stl_iterator.h ****  * Hewlett-Packard Company
  29:/usr/include/c++/4.8/bits/stl_iterator.h ****  *
  30:/usr/include/c++/4.8/bits/stl_iterator.h ****  * Permission to use, copy, modify, distribute and sell this software
  31:/usr/include/c++/4.8/bits/stl_iterator.h ****  * and its documentation for any purpose is hereby granted without fee,
  32:/usr/include/c++/4.8/bits/stl_iterator.h ****  * provided that the above copyright notice appear in all copies and
  33:/usr/include/c++/4.8/bits/stl_iterator.h ****  * that both that copyright notice and this permission notice appear
  34:/usr/include/c++/4.8/bits/stl_iterator.h ****  * in supporting documentation.  Hewlett-Packard Company makes no
  35:/usr/include/c++/4.8/bits/stl_iterator.h ****  * representations about the suitability of this software for any
  36:/usr/include/c++/4.8/bits/stl_iterator.h ****  * purpose.  It is provided "as is" without express or implied warranty.
  37:/usr/include/c++/4.8/bits/stl_iterator.h ****  *
  38:/usr/include/c++/4.8/bits/stl_iterator.h ****  *
  39:/usr/include/c++/4.8/bits/stl_iterator.h ****  * Copyright (c) 1996-1998
  40:/usr/include/c++/4.8/bits/stl_iterator.h ****  * Silicon Graphics Computer Systems, Inc.
  41:/usr/include/c++/4.8/bits/stl_iterator.h ****  *
  42:/usr/include/c++/4.8/bits/stl_iterator.h ****  * Permission to use, copy, modify, distribute and sell this software
  43:/usr/include/c++/4.8/bits/stl_iterator.h ****  * and its documentation for any purpose is hereby granted without fee,
  44:/usr/include/c++/4.8/bits/stl_iterator.h ****  * provided that the above copyright notice appear in all copies and
  45:/usr/include/c++/4.8/bits/stl_iterator.h ****  * that both that copyright notice and this permission notice appear
  46:/usr/include/c++/4.8/bits/stl_iterator.h ****  * in supporting documentation.  Silicon Graphics makes no
  47:/usr/include/c++/4.8/bits/stl_iterator.h ****  * representations about the suitability of this software for any
  48:/usr/include/c++/4.8/bits/stl_iterator.h ****  * purpose.  It is provided "as is" without express or implied warranty.
  49:/usr/include/c++/4.8/bits/stl_iterator.h ****  */
  50:/usr/include/c++/4.8/bits/stl_iterator.h **** 
  51:/usr/include/c++/4.8/bits/stl_iterator.h **** /** @file bits/stl_iterator.h
  52:/usr/include/c++/4.8/bits/stl_iterator.h ****  *  This is an internal header file, included by other library headers.
  53:/usr/include/c++/4.8/bits/stl_iterator.h ****  *  Do not attempt to use it directly. @headername{iterator}
  54:/usr/include/c++/4.8/bits/stl_iterator.h ****  *
  55:/usr/include/c++/4.8/bits/stl_iterator.h ****  *  This file implements reverse_iterator, back_insert_iterator,
  56:/usr/include/c++/4.8/bits/stl_iterator.h ****  *  front_insert_iterator, insert_iterator, __normal_iterator, and their
  57:/usr/include/c++/4.8/bits/stl_iterator.h ****  *  supporting functions and overloaded operators.
  58:/usr/include/c++/4.8/bits/stl_iterator.h ****  */
  59:/usr/include/c++/4.8/bits/stl_iterator.h **** 
  60:/usr/include/c++/4.8/bits/stl_iterator.h **** #ifndef _STL_ITERATOR_H
  61:/usr/include/c++/4.8/bits/stl_iterator.h **** #define _STL_ITERATOR_H 1
  62:/usr/include/c++/4.8/bits/stl_iterator.h **** 
  63:/usr/include/c++/4.8/bits/stl_iterator.h **** #include <bits/cpp_type_traits.h>
  64:/usr/include/c++/4.8/bits/stl_iterator.h **** #include <ext/type_traits.h>
  65:/usr/include/c++/4.8/bits/stl_iterator.h **** #include <bits/move.h>
  66:/usr/include/c++/4.8/bits/stl_iterator.h **** 
  67:/usr/include/c++/4.8/bits/stl_iterator.h **** namespace std _GLIBCXX_VISIBILITY(default)
  68:/usr/include/c++/4.8/bits/stl_iterator.h **** {
  69:/usr/include/c++/4.8/bits/stl_iterator.h **** _GLIBCXX_BEGIN_NAMESPACE_VERSION
  70:/usr/include/c++/4.8/bits/stl_iterator.h **** 
  71:/usr/include/c++/4.8/bits/stl_iterator.h ****   /**
  72:/usr/include/c++/4.8/bits/stl_iterator.h ****    * @addtogroup iterators
  73:/usr/include/c++/4.8/bits/stl_iterator.h ****    * @{
  74:/usr/include/c++/4.8/bits/stl_iterator.h ****    */
  75:/usr/include/c++/4.8/bits/stl_iterator.h **** 
  76:/usr/include/c++/4.8/bits/stl_iterator.h ****   // 24.4.1 Reverse iterators
  77:/usr/include/c++/4.8/bits/stl_iterator.h ****   /**
  78:/usr/include/c++/4.8/bits/stl_iterator.h ****    *  Bidirectional and random access iterators have corresponding reverse
  79:/usr/include/c++/4.8/bits/stl_iterator.h ****    *  %iterator adaptors that iterate through the data structure in the
  80:/usr/include/c++/4.8/bits/stl_iterator.h ****    *  opposite direction.  They have the same signatures as the corresponding
  81:/usr/include/c++/4.8/bits/stl_iterator.h ****    *  iterators.  The fundamental relation between a reverse %iterator and its
  82:/usr/include/c++/4.8/bits/stl_iterator.h ****    *  corresponding %iterator @c i is established by the identity:
  83:/usr/include/c++/4.8/bits/stl_iterator.h ****    *  @code
  84:/usr/include/c++/4.8/bits/stl_iterator.h ****    *      &*(reverse_iterator(i)) == &*(i - 1)
  85:/usr/include/c++/4.8/bits/stl_iterator.h ****    *  @endcode
  86:/usr/include/c++/4.8/bits/stl_iterator.h ****    *
  87:/usr/include/c++/4.8/bits/stl_iterator.h ****    *  <em>This mapping is dictated by the fact that while there is always a
  88:/usr/include/c++/4.8/bits/stl_iterator.h ****    *  pointer past the end of an array, there might not be a valid pointer
  89:/usr/include/c++/4.8/bits/stl_iterator.h ****    *  before the beginning of an array.</em> [24.4.1]/1,2
  90:/usr/include/c++/4.8/bits/stl_iterator.h ****    *
  91:/usr/include/c++/4.8/bits/stl_iterator.h ****    *  Reverse iterators can be tricky and surprising at first.  Their
  92:/usr/include/c++/4.8/bits/stl_iterator.h ****    *  semantics make sense, however, and the trickiness is a side effect of
  93:/usr/include/c++/4.8/bits/stl_iterator.h ****    *  the requirement that the iterators must be safe.
  94:/usr/include/c++/4.8/bits/stl_iterator.h ****   */
  95:/usr/include/c++/4.8/bits/stl_iterator.h ****   template<typename _Iterator>
  96:/usr/include/c++/4.8/bits/stl_iterator.h ****     class reverse_iterator
  97:/usr/include/c++/4.8/bits/stl_iterator.h ****     : public iterator<typename iterator_traits<_Iterator>::iterator_category,
  98:/usr/include/c++/4.8/bits/stl_iterator.h **** 		      typename iterator_traits<_Iterator>::value_type,
  99:/usr/include/c++/4.8/bits/stl_iterator.h **** 		      typename iterator_traits<_Iterator>::difference_type,
 100:/usr/include/c++/4.8/bits/stl_iterator.h **** 		      typename iterator_traits<_Iterator>::pointer,
 101:/usr/include/c++/4.8/bits/stl_iterator.h ****                       typename iterator_traits<_Iterator>::reference>
 102:/usr/include/c++/4.8/bits/stl_iterator.h ****     {
 103:/usr/include/c++/4.8/bits/stl_iterator.h ****     protected:
 104:/usr/include/c++/4.8/bits/stl_iterator.h ****       _Iterator current;
 105:/usr/include/c++/4.8/bits/stl_iterator.h **** 
 106:/usr/include/c++/4.8/bits/stl_iterator.h ****       typedef iterator_traits<_Iterator>		__traits_type;
 107:/usr/include/c++/4.8/bits/stl_iterator.h **** 
 108:/usr/include/c++/4.8/bits/stl_iterator.h ****     public:
 109:/usr/include/c++/4.8/bits/stl_iterator.h ****       typedef _Iterator					iterator_type;
 110:/usr/include/c++/4.8/bits/stl_iterator.h ****       typedef typename __traits_type::difference_type	difference_type;
 111:/usr/include/c++/4.8/bits/stl_iterator.h ****       typedef typename __traits_type::pointer		pointer;
 112:/usr/include/c++/4.8/bits/stl_iterator.h ****       typedef typename __traits_type::reference		reference;
 113:/usr/include/c++/4.8/bits/stl_iterator.h **** 
 114:/usr/include/c++/4.8/bits/stl_iterator.h ****       /**
 115:/usr/include/c++/4.8/bits/stl_iterator.h ****        *  The default constructor value-initializes member @p current.
 116:/usr/include/c++/4.8/bits/stl_iterator.h ****        *  If it is a pointer, that means it is zero-initialized.
 117:/usr/include/c++/4.8/bits/stl_iterator.h ****       */
 118:/usr/include/c++/4.8/bits/stl_iterator.h ****       // _GLIBCXX_RESOLVE_LIB_DEFECTS
 119:/usr/include/c++/4.8/bits/stl_iterator.h ****       // 235 No specification of default ctor for reverse_iterator
 120:/usr/include/c++/4.8/bits/stl_iterator.h ****       reverse_iterator() : current() { }
 121:/usr/include/c++/4.8/bits/stl_iterator.h **** 
 122:/usr/include/c++/4.8/bits/stl_iterator.h ****       /**
 123:/usr/include/c++/4.8/bits/stl_iterator.h ****        *  This %iterator will move in the opposite direction that @p x does.
 124:/usr/include/c++/4.8/bits/stl_iterator.h ****       */
 125:/usr/include/c++/4.8/bits/stl_iterator.h ****       explicit
 126:/usr/include/c++/4.8/bits/stl_iterator.h ****       reverse_iterator(iterator_type __x) : current(__x) { }
 127:/usr/include/c++/4.8/bits/stl_iterator.h **** 
 128:/usr/include/c++/4.8/bits/stl_iterator.h ****       /**
 129:/usr/include/c++/4.8/bits/stl_iterator.h ****        *  The copy constructor is normal.
 130:/usr/include/c++/4.8/bits/stl_iterator.h ****       */
 131:/usr/include/c++/4.8/bits/stl_iterator.h ****       reverse_iterator(const reverse_iterator& __x)
 132:/usr/include/c++/4.8/bits/stl_iterator.h ****       : current(__x.current) { }
 133:/usr/include/c++/4.8/bits/stl_iterator.h **** 
 134:/usr/include/c++/4.8/bits/stl_iterator.h ****       /**
 135:/usr/include/c++/4.8/bits/stl_iterator.h ****        *  A %reverse_iterator across other types can be copied if the
 136:/usr/include/c++/4.8/bits/stl_iterator.h ****        *  underlying %iterator can be converted to the type of @c current.
 137:/usr/include/c++/4.8/bits/stl_iterator.h ****       */
 138:/usr/include/c++/4.8/bits/stl_iterator.h ****       template<typename _Iter>
 139:/usr/include/c++/4.8/bits/stl_iterator.h ****         reverse_iterator(const reverse_iterator<_Iter>& __x)
 140:/usr/include/c++/4.8/bits/stl_iterator.h **** 	: current(__x.base()) { }
 141:/usr/include/c++/4.8/bits/stl_iterator.h **** 
 142:/usr/include/c++/4.8/bits/stl_iterator.h ****       /**
 143:/usr/include/c++/4.8/bits/stl_iterator.h ****        *  @return  @c current, the %iterator used for underlying work.
 144:/usr/include/c++/4.8/bits/stl_iterator.h ****       */
 145:/usr/include/c++/4.8/bits/stl_iterator.h ****       iterator_type
 146:/usr/include/c++/4.8/bits/stl_iterator.h ****       base() const
 147:/usr/include/c++/4.8/bits/stl_iterator.h ****       { return current; }
 148:/usr/include/c++/4.8/bits/stl_iterator.h **** 
 149:/usr/include/c++/4.8/bits/stl_iterator.h ****       /**
 150:/usr/include/c++/4.8/bits/stl_iterator.h ****        *  @return  A reference to the value at @c --current
 151:/usr/include/c++/4.8/bits/stl_iterator.h ****        *
 152:/usr/include/c++/4.8/bits/stl_iterator.h ****        *  This requires that @c --current is dereferenceable.
 153:/usr/include/c++/4.8/bits/stl_iterator.h ****        *
 154:/usr/include/c++/4.8/bits/stl_iterator.h ****        *  @warning This implementation requires that for an iterator of the
 155:/usr/include/c++/4.8/bits/stl_iterator.h ****        *           underlying iterator type, @c x, a reference obtained by
 156:/usr/include/c++/4.8/bits/stl_iterator.h ****        *           @c *x remains valid after @c x has been modified or
 157:/usr/include/c++/4.8/bits/stl_iterator.h ****        *           destroyed. This is a bug: http://gcc.gnu.org/PR51823
 158:/usr/include/c++/4.8/bits/stl_iterator.h ****       */
 159:/usr/include/c++/4.8/bits/stl_iterator.h ****       reference
 160:/usr/include/c++/4.8/bits/stl_iterator.h ****       operator*() const
 161:/usr/include/c++/4.8/bits/stl_iterator.h ****       {
 162:/usr/include/c++/4.8/bits/stl_iterator.h **** 	_Iterator __tmp = current;
 163:/usr/include/c++/4.8/bits/stl_iterator.h **** 	return *--__tmp;
 164:/usr/include/c++/4.8/bits/stl_iterator.h ****       }
 165:/usr/include/c++/4.8/bits/stl_iterator.h **** 
 166:/usr/include/c++/4.8/bits/stl_iterator.h ****       /**
 167:/usr/include/c++/4.8/bits/stl_iterator.h ****        *  @return  A pointer to the value at @c --current
 168:/usr/include/c++/4.8/bits/stl_iterator.h ****        *
 169:/usr/include/c++/4.8/bits/stl_iterator.h ****        *  This requires that @c --current is dereferenceable.
 170:/usr/include/c++/4.8/bits/stl_iterator.h ****       */
 171:/usr/include/c++/4.8/bits/stl_iterator.h ****       pointer
 172:/usr/include/c++/4.8/bits/stl_iterator.h ****       operator->() const
 173:/usr/include/c++/4.8/bits/stl_iterator.h ****       { return &(operator*()); }
 174:/usr/include/c++/4.8/bits/stl_iterator.h **** 
 175:/usr/include/c++/4.8/bits/stl_iterator.h ****       /**
 176:/usr/include/c++/4.8/bits/stl_iterator.h ****        *  @return  @c *this
 177:/usr/include/c++/4.8/bits/stl_iterator.h ****        *
 178:/usr/include/c++/4.8/bits/stl_iterator.h ****        *  Decrements the underlying iterator.
 179:/usr/include/c++/4.8/bits/stl_iterator.h ****       */
 180:/usr/include/c++/4.8/bits/stl_iterator.h ****       reverse_iterator&
 181:/usr/include/c++/4.8/bits/stl_iterator.h ****       operator++()
 182:/usr/include/c++/4.8/bits/stl_iterator.h ****       {
 183:/usr/include/c++/4.8/bits/stl_iterator.h **** 	--current;
 184:/usr/include/c++/4.8/bits/stl_iterator.h **** 	return *this;
 185:/usr/include/c++/4.8/bits/stl_iterator.h ****       }
 186:/usr/include/c++/4.8/bits/stl_iterator.h **** 
 187:/usr/include/c++/4.8/bits/stl_iterator.h ****       /**
 188:/usr/include/c++/4.8/bits/stl_iterator.h ****        *  @return  The original value of @c *this
 189:/usr/include/c++/4.8/bits/stl_iterator.h ****        *
 190:/usr/include/c++/4.8/bits/stl_iterator.h ****        *  Decrements the underlying iterator.
 191:/usr/include/c++/4.8/bits/stl_iterator.h ****       */
 192:/usr/include/c++/4.8/bits/stl_iterator.h ****       reverse_iterator
 193:/usr/include/c++/4.8/bits/stl_iterator.h ****       operator++(int)
 194:/usr/include/c++/4.8/bits/stl_iterator.h ****       {
 195:/usr/include/c++/4.8/bits/stl_iterator.h **** 	reverse_iterator __tmp = *this;
 196:/usr/include/c++/4.8/bits/stl_iterator.h **** 	--current;
 197:/usr/include/c++/4.8/bits/stl_iterator.h **** 	return __tmp;
 198:/usr/include/c++/4.8/bits/stl_iterator.h ****       }
 199:/usr/include/c++/4.8/bits/stl_iterator.h **** 
 200:/usr/include/c++/4.8/bits/stl_iterator.h ****       /**
 201:/usr/include/c++/4.8/bits/stl_iterator.h ****        *  @return  @c *this
 202:/usr/include/c++/4.8/bits/stl_iterator.h ****        *
 203:/usr/include/c++/4.8/bits/stl_iterator.h ****        *  Increments the underlying iterator.
 204:/usr/include/c++/4.8/bits/stl_iterator.h ****       */
 205:/usr/include/c++/4.8/bits/stl_iterator.h ****       reverse_iterator&
 206:/usr/include/c++/4.8/bits/stl_iterator.h ****       operator--()
 207:/usr/include/c++/4.8/bits/stl_iterator.h ****       {
 208:/usr/include/c++/4.8/bits/stl_iterator.h **** 	++current;
 209:/usr/include/c++/4.8/bits/stl_iterator.h **** 	return *this;
 210:/usr/include/c++/4.8/bits/stl_iterator.h ****       }
 211:/usr/include/c++/4.8/bits/stl_iterator.h **** 
 212:/usr/include/c++/4.8/bits/stl_iterator.h ****       /**
 213:/usr/include/c++/4.8/bits/stl_iterator.h ****        *  @return  A reverse_iterator with the previous value of @c *this
 214:/usr/include/c++/4.8/bits/stl_iterator.h ****        *
 215:/usr/include/c++/4.8/bits/stl_iterator.h ****        *  Increments the underlying iterator.
 216:/usr/include/c++/4.8/bits/stl_iterator.h ****       */
 217:/usr/include/c++/4.8/bits/stl_iterator.h ****       reverse_iterator
 218:/usr/include/c++/4.8/bits/stl_iterator.h ****       operator--(int)
 219:/usr/include/c++/4.8/bits/stl_iterator.h ****       {
 220:/usr/include/c++/4.8/bits/stl_iterator.h **** 	reverse_iterator __tmp = *this;
 221:/usr/include/c++/4.8/bits/stl_iterator.h **** 	++current;
 222:/usr/include/c++/4.8/bits/stl_iterator.h **** 	return __tmp;
 223:/usr/include/c++/4.8/bits/stl_iterator.h ****       }
 224:/usr/include/c++/4.8/bits/stl_iterator.h **** 
 225:/usr/include/c++/4.8/bits/stl_iterator.h ****       /**
 226:/usr/include/c++/4.8/bits/stl_iterator.h ****        *  @return  A reverse_iterator that refers to @c current - @a __n
 227:/usr/include/c++/4.8/bits/stl_iterator.h ****        *
 228:/usr/include/c++/4.8/bits/stl_iterator.h ****        *  The underlying iterator must be a Random Access Iterator.
 229:/usr/include/c++/4.8/bits/stl_iterator.h ****       */
 230:/usr/include/c++/4.8/bits/stl_iterator.h ****       reverse_iterator
 231:/usr/include/c++/4.8/bits/stl_iterator.h ****       operator+(difference_type __n) const
 232:/usr/include/c++/4.8/bits/stl_iterator.h ****       { return reverse_iterator(current - __n); }
 233:/usr/include/c++/4.8/bits/stl_iterator.h **** 
 234:/usr/include/c++/4.8/bits/stl_iterator.h ****       /**
 235:/usr/include/c++/4.8/bits/stl_iterator.h ****        *  @return  *this
 236:/usr/include/c++/4.8/bits/stl_iterator.h ****        *
 237:/usr/include/c++/4.8/bits/stl_iterator.h ****        *  Moves the underlying iterator backwards @a __n steps.
 238:/usr/include/c++/4.8/bits/stl_iterator.h ****        *  The underlying iterator must be a Random Access Iterator.
 239:/usr/include/c++/4.8/bits/stl_iterator.h ****       */
 240:/usr/include/c++/4.8/bits/stl_iterator.h ****       reverse_iterator&
 241:/usr/include/c++/4.8/bits/stl_iterator.h ****       operator+=(difference_type __n)
 242:/usr/include/c++/4.8/bits/stl_iterator.h ****       {
 243:/usr/include/c++/4.8/bits/stl_iterator.h **** 	current -= __n;
 244:/usr/include/c++/4.8/bits/stl_iterator.h **** 	return *this;
 245:/usr/include/c++/4.8/bits/stl_iterator.h ****       }
 246:/usr/include/c++/4.8/bits/stl_iterator.h **** 
 247:/usr/include/c++/4.8/bits/stl_iterator.h ****       /**
 248:/usr/include/c++/4.8/bits/stl_iterator.h ****        *  @return  A reverse_iterator that refers to @c current - @a __n
 249:/usr/include/c++/4.8/bits/stl_iterator.h ****        *
 250:/usr/include/c++/4.8/bits/stl_iterator.h ****        *  The underlying iterator must be a Random Access Iterator.
 251:/usr/include/c++/4.8/bits/stl_iterator.h ****       */
 252:/usr/include/c++/4.8/bits/stl_iterator.h ****       reverse_iterator
 253:/usr/include/c++/4.8/bits/stl_iterator.h ****       operator-(difference_type __n) const
 254:/usr/include/c++/4.8/bits/stl_iterator.h ****       { return reverse_iterator(current + __n); }
 255:/usr/include/c++/4.8/bits/stl_iterator.h **** 
 256:/usr/include/c++/4.8/bits/stl_iterator.h ****       /**
 257:/usr/include/c++/4.8/bits/stl_iterator.h ****        *  @return  *this
 258:/usr/include/c++/4.8/bits/stl_iterator.h ****        *
 259:/usr/include/c++/4.8/bits/stl_iterator.h ****        *  Moves the underlying iterator forwards @a __n steps.
 260:/usr/include/c++/4.8/bits/stl_iterator.h ****        *  The underlying iterator must be a Random Access Iterator.
 261:/usr/include/c++/4.8/bits/stl_iterator.h ****       */
 262:/usr/include/c++/4.8/bits/stl_iterator.h ****       reverse_iterator&
 263:/usr/include/c++/4.8/bits/stl_iterator.h ****       operator-=(difference_type __n)
 264:/usr/include/c++/4.8/bits/stl_iterator.h ****       {
 265:/usr/include/c++/4.8/bits/stl_iterator.h **** 	current += __n;
 266:/usr/include/c++/4.8/bits/stl_iterator.h **** 	return *this;
 267:/usr/include/c++/4.8/bits/stl_iterator.h ****       }
 268:/usr/include/c++/4.8/bits/stl_iterator.h **** 
 269:/usr/include/c++/4.8/bits/stl_iterator.h ****       /**
 270:/usr/include/c++/4.8/bits/stl_iterator.h ****        *  @return  The value at @c current - @a __n - 1
 271:/usr/include/c++/4.8/bits/stl_iterator.h ****        *
 272:/usr/include/c++/4.8/bits/stl_iterator.h ****        *  The underlying iterator must be a Random Access Iterator.
 273:/usr/include/c++/4.8/bits/stl_iterator.h ****       */
 274:/usr/include/c++/4.8/bits/stl_iterator.h ****       reference
 275:/usr/include/c++/4.8/bits/stl_iterator.h ****       operator[](difference_type __n) const
