   1              		.file	"DeferredTestReporter.cpp"
   2              		.text
   3              		.align 2
   4              		.p2align 4,,15
   5              		.globl	_ZN8UnitTest20DeferredTestReporter16ReportTestFinishERKNS_11TestDetailsEf
   7              	_ZN8UnitTest20DeferredTestReporter16ReportTestFinishERKNS_11TestDetailsEf:
   8              	.LFB852:
   9              		.cfi_startproc
  10 0000 488B4710 		movq	16(%rdi), %rax
  11 0004 F30F1140 		movss	%xmm0, -8(%rax)
  11      F8
  12 0009 C3       		ret
  13              		.cfi_endproc
  14              	.LFE852:
  16              		.section	.text._ZN8UnitTest20DeferredTestReporterD2Ev,"axG",@progbits,_ZN8UnitTest20DeferredTestRe
  17              		.align 2
  18              		.p2align 4,,15
  19              		.weak	_ZN8UnitTest20DeferredTestReporterD2Ev
  21              	_ZN8UnitTest20DeferredTestReporterD2Ev:
  22              	.LFB1055:
  23              		.cfi_startproc
  24 0000 4157     		pushq	%r15
  25              		.cfi_def_cfa_offset 16
  26              		.cfi_offset 15, -16
  27 0002 4156     		pushq	%r14
  28              		.cfi_def_cfa_offset 24
  29              		.cfi_offset 14, -24
  30 0004 4155     		pushq	%r13
  31              		.cfi_def_cfa_offset 32
  32              		.cfi_offset 13, -32
  33 0006 4154     		pushq	%r12
  34              		.cfi_def_cfa_offset 40
  35              		.cfi_offset 12, -40
  36 0008 55       		pushq	%rbp
  37              		.cfi_def_cfa_offset 48
  38              		.cfi_offset 6, -48
  39 0009 53       		pushq	%rbx
  40              		.cfi_def_cfa_offset 56
  41              		.cfi_offset 3, -56
  42 000a 4883EC58 		subq	$88, %rsp
  43              		.cfi_def_cfa_offset 144
  44 000e 488B0500 		movq	_ZTVN8UnitTest20DeferredTestReporterE@GOTPCREL(%rip), %rax
  44      000000
  45 0015 488B6F08 		movq	8(%rdi), %rbp
  46 0019 48897C24 		movq	%rdi, 24(%rsp)
  46      18
  47 001e 4883C010 		addq	$16, %rax
  48 0022 488907   		movq	%rax, (%rdi)
  49 0025 488B4710 		movq	16(%rdi), %rax
  50 0029 4839E8   		cmpq	%rbp, %rax
  51 002c 48894424 		movq	%rax, 8(%rsp)
  51      08
  52 0031 0F840901 		je	.L33
  52      0000
  53 0037 4C8D6D20 		leaq	32(%rbp), %r13
  54 003b 488D4508 		leaq	8(%rbp), %rax
  55 003f 488D7424 		leaq	79(%rsp), %rsi
  55      4F
  56 0044 4C8B3D00 		movq	_ZNSs4_Rep20_S_empty_rep_storageE@GOTPCREL(%rip), %r15
  56      000000
  57 004b 4C8D7510 		leaq	16(%rbp), %r14
  58 004f 48896C24 		movq	%rbp, 16(%rsp)
  58      10
  59 0054 4D89EC   		movq	%r13, %r12
  60 0057 48897424 		movq	%rsi, 32(%rsp)
  60      20
  61 005c 4989C5   		movq	%rax, %r13
  62 005f 90       		.p2align 4,,10
  63              		.p2align 3
  64              	.L31:
  65 0060 498B0C24 		movq	(%r12), %rcx
  66 0064 498B5424 		movq	-8(%r12), %rdx
  66      F8
  67 0069 4839D1   		cmpq	%rdx, %rcx
  68 006c 0F84C600 		je	.L34
  68      0000
  69 0072 48833D00 		cmpq	$0, _ZL28__gthrw___pthread_key_createPjPFvPvE@GOTPCREL(%rip)
  69      00000000 
  70 007a 4889D3   		movq	%rdx, %rbx
  71 007d 4C8D4208 		leaq	8(%rdx), %r8
  72 0081 0F84FD00 		je	.L9
  72      0000
  73 0087 660F1F84 		.p2align 4,,10
  73      00000000 
  73      00
  74              		.p2align 3
  75              	.L13:
  76 0090 4889D8   		movq	%rbx, %rax
  77 0093 4829D0   		subq	%rdx, %rax
  78 0096 498B0400 		movq	(%r8,%rax), %rax
  79 009a 488D78E8 		leaq	-24(%rax), %rdi
  80 009e 4C39FF   		cmpq	%r15, %rdi
  81 00a1 0F859E00 		jne	.L43
  81      0000
  82              	.L11:
  83 00a7 4883C310 		addq	$16, %rbx
  84 00ab 4839D9   		cmpq	%rbx, %rcx
  85 00ae 75E0     		jne	.L13
  86              	.L8:
  87 00b0 488B7D18 		movq	24(%rbp), %rdi
  88              	.L4:
  89 00b4 4885FF   		testq	%rdi, %rdi
  90 00b7 7405     		je	.L14
  91 00b9 E8000000 		call	_ZdlPv@PLT
  91      00
  92              	.L14:
  93 00be 4889EB   		movq	%rbp, %rbx
  94 00c1 482B5C24 		subq	16(%rsp), %rbx
  94      10
  95 00c6 4A8B0433 		movq	(%rbx,%r14), %rax
  96 00ca 488D78E8 		leaq	-24(%rax), %rdi
  97 00ce 4C39FF   		cmpq	%r15, %rdi
  98 00d1 0F857001 		jne	.L44
  98      0000
  99              	.L16:
 100 00d7 4A8B042B 		movq	(%rbx,%r13), %rax
 101 00db 488D78E8 		leaq	-24(%rax), %rdi
 102 00df 4C39FF   		cmpq	%r15, %rdi
 103 00e2 0F85BD00 		jne	.L45
 103      0000
 104              	.L21:
 105 00e8 488B4500 		movq	0(%rbp), %rax
 106 00ec 488D78E8 		leaq	-24(%rax), %rdi
 107 00f0 4C39FF   		cmpq	%r15, %rdi
 108 00f3 0F852001 		jne	.L46
 108      0000
 109              	.L26:
 110 00f9 4883C538 		addq	$56, %rbp
 111 00fd 4983C438 		addq	$56, %r12
 112 0101 48396C24 		cmpq	%rbp, 8(%rsp)
 112      08
 113 0106 0F8554FF 		jne	.L31
 113      FFFF
 114 010c 488B4424 		movq	24(%rsp), %rax
 114      18
 115 0111 488B7808 		movq	8(%rax), %rdi
 116              	.L3:
 117 0115 4885FF   		testq	%rdi, %rdi
 118 0118 7405     		je	.L32
 119 011a E8000000 		call	_ZdlPv@PLT
 119      00
 120              	.L32:
 121 011f 488B7C24 		movq	24(%rsp), %rdi
 121      18
 122 0124 E8000000 		call	_ZN8UnitTest12TestReporterD2Ev@PLT
 122      00
 123 0129 4883C458 		addq	$88, %rsp
 124              		.cfi_remember_state
 125              		.cfi_def_cfa_offset 56
 126 012d 5B       		popq	%rbx
 127              		.cfi_def_cfa_offset 48
 128 012e 5D       		popq	%rbp
 129              		.cfi_def_cfa_offset 40
 130 012f 415C     		popq	%r12
 131              		.cfi_def_cfa_offset 32
 132 0131 415D     		popq	%r13
 133              		.cfi_def_cfa_offset 24
 134 0133 415E     		popq	%r14
 135              		.cfi_def_cfa_offset 16
 136 0135 415F     		popq	%r15
 137              		.cfi_def_cfa_offset 8
 138 0137 C3       		ret
 139              	.L34:
 140              		.cfi_restore_state
 141 0138 4889CF   		movq	%rcx, %rdi
 142 013b E974FFFF 		jmp	.L4
 142      FF
 143              	.L33:
 144 0140 4889C7   		movq	%rax, %rdi
 145 0143 EBD0     		jmp	.L3
 146              	.L43:
 147 0145 BEFFFFFF 		movl	$-1, %esi
 147      FF
 148 014a F00FC170 		lock xaddl	%esi, -8(%rax)
 148      F8
 149 014f 85F6     		testl	%esi, %esi
 150 0151 0F8F50FF 		jg	.L11
 150      FFFF
 151 0157 488B7424 		movq	32(%rsp), %rsi
 151      20
 152 015c 4C894424 		movq	%r8, 56(%rsp)
 152      38
 153 0161 48895424 		movq	%rdx, 48(%rsp)
 153      30
 154 0166 48894C24 		movq	%rcx, 40(%rsp)
 154      28
 155 016b E8000000 		call	_ZNSs4_Rep10_M_destroyERKSaIcE@PLT
 155      00
 156 0170 4C8B4424 		movq	56(%rsp), %r8
 156      38
 157 0175 488B5424 		movq	48(%rsp), %rdx
 157      30
 158 017a 488B4C24 		movq	40(%rsp), %rcx
 158      28
 159 017f E923FFFF 		jmp	.L11
 159      FF
 160              	.L9:
 161 0184 4889D8   		movq	%rbx, %rax
 162 0187 4829D0   		subq	%rdx, %rax
 163 018a 498B0400 		movq	(%r8,%rax), %rax
 164 018e 488D78E8 		leaq	-24(%rax), %rdi
 165 0192 4C39FF   		cmpq	%r15, %rdi
 166 0195 753C     		jne	.L47
 167              	.L7:
 168 0197 4883C310 		addq	$16, %rbx
 169 019b 4839D9   		cmpq	%rbx, %rcx
 170 019e 75E4     		jne	.L9
 171 01a0 E90BFFFF 		jmp	.L8
 171      FF
 172              	.L45:
 173 01a5 48833D00 		cmpq	$0, _ZL28__gthrw___pthread_key_createPjPFvPvE@GOTPCREL(%rip)
 173      00000000 
 174 01ad 488D5710 		leaq	16(%rdi), %rdx
 175 01b1 7459     		je	.L22
 176 01b3 B8FFFFFF 		movl	$-1, %eax
 176      FF
 177 01b8 F00FC102 		lock xaddl	%eax, (%rdx)
 178              	.L23:
 179 01bc 85C0     		testl	%eax, %eax
 180 01be 0F8F24FF 		jg	.L21
 180      FFFF
 181 01c4 488B7424 		movq	32(%rsp), %rsi
 181      20
 182 01c9 E8000000 		call	_ZNSs4_Rep10_M_destroyERKSaIcE@PLT
 182      00
 183 01ce E915FFFF 		jmp	.L21
 183      FF
 184              	.L47:
 185 01d3 8B70F8   		movl	-8(%rax), %esi
 186 01d6 448D4EFF 		leal	-1(%rsi), %r9d
 187 01da 85F6     		testl	%esi, %esi
 188 01dc 448948F8 		movl	%r9d, -8(%rax)
 189 01e0 7FB5     		jg	.L7
 190 01e2 488B7424 		movq	32(%rsp), %rsi
 190      20
 191 01e7 4C894424 		movq	%r8, 56(%rsp)
 191      38
 192 01ec 48895424 		movq	%rdx, 48(%rsp)
 192      30
 193 01f1 48894C24 		movq	%rcx, 40(%rsp)
 193      28
 194 01f6 E8000000 		call	_ZNSs4_Rep10_M_destroyERKSaIcE@PLT
 194      00
 195 01fb 4C8B4424 		movq	56(%rsp), %r8
 195      38
 196 0200 488B5424 		movq	48(%rsp), %rdx
 196      30
 197 0205 488B4C24 		movq	40(%rsp), %rcx
 197      28
 198 020a EB8B     		jmp	.L7
 199              	.L22:
 200 020c 8B50F8   		movl	-8(%rax), %edx
 201 020f 8D4AFF   		leal	-1(%rdx), %ecx
 202 0212 8948F8   		movl	%ecx, -8(%rax)
 203 0215 89D0     		movl	%edx, %eax
 204 0217 EBA3     		jmp	.L23
 205              	.L46:
 206 0219 48833D00 		cmpq	$0, _ZL28__gthrw___pthread_key_createPjPFvPvE@GOTPCREL(%rip)
 206      00000000 
 207 0221 488D5710 		leaq	16(%rdi), %rdx
 208 0225 744E     		je	.L27
 209 0227 B8FFFFFF 		movl	$-1, %eax
 209      FF
 210 022c F00FC102 		lock xaddl	%eax, (%rdx)
 211              	.L28:
 212 0230 85C0     		testl	%eax, %eax
 213 0232 0F8FC1FE 		jg	.L26
 213      FFFF
 214 0238 488B7424 		movq	32(%rsp), %rsi
 214      20
 215 023d E8000000 		call	_ZNSs4_Rep10_M_destroyERKSaIcE@PLT
 215      00
 216 0242 E9B2FEFF 		jmp	.L26
 216      FF
 217              	.L44:
 218 0247 48833D00 		cmpq	$0, _ZL28__gthrw___pthread_key_createPjPFvPvE@GOTPCREL(%rip)
 218      00000000 
 219 024f 488D5710 		leaq	16(%rdi), %rdx
 220 0253 742D     		je	.L17
 221 0255 B8FFFFFF 		movl	$-1, %eax
 221      FF
 222 025a F00FC102 		lock xaddl	%eax, (%rdx)
 223              	.L18:
 224 025e 85C0     		testl	%eax, %eax
 225 0260 0F8F71FE 		jg	.L16
 225      FFFF
 226 0266 488B7424 		movq	32(%rsp), %rsi
 226      20
 227 026b E8000000 		call	_ZNSs4_Rep10_M_destroyERKSaIcE@PLT
 227      00
 228 0270 E962FEFF 		jmp	.L16
 228      FF
 229              	.L27:
 230 0275 8B50F8   		movl	-8(%rax), %edx
 231 0278 8D4AFF   		leal	-1(%rdx), %ecx
 232 027b 8948F8   		movl	%ecx, -8(%rax)
 233 027e 89D0     		movl	%edx, %eax
 234 0280 EBAE     		jmp	.L28
 235              	.L17:
 236 0282 8B50F8   		movl	-8(%rax), %edx
 237 0285 8D4AFF   		leal	-1(%rdx), %ecx
 238 0288 8948F8   		movl	%ecx, -8(%rax)
 239 028b 89D0     		movl	%edx, %eax
 240 028d EBCF     		jmp	.L18
 241              		.cfi_endproc
 242              	.LFE1055:
 244              		.weak	_ZN8UnitTest20DeferredTestReporterD1Ev
 245              		.set	_ZN8UnitTest20DeferredTestReporterD1Ev,_ZN8UnitTest20DeferredTestReporterD2Ev
 246              		.section	.text._ZN8UnitTest20DeferredTestReporterD0Ev,"axG",@progbits,_ZN8UnitTest20DeferredTestRe
 247              		.align 2
 248              		.p2align 4,,15
 249              		.weak	_ZN8UnitTest20DeferredTestReporterD0Ev
 251              	_ZN8UnitTest20DeferredTestReporterD0Ev:
 252              	.LFB1057:
 253              		.cfi_startproc
 254 0000 4157     		pushq	%r15
 255              		.cfi_def_cfa_offset 16
 256              		.cfi_offset 15, -16
 257 0002 4156     		pushq	%r14
 258              		.cfi_def_cfa_offset 24
 259              		.cfi_offset 14, -24
 260 0004 4155     		pushq	%r13
 261              		.cfi_def_cfa_offset 32
 262              		.cfi_offset 13, -32
 263 0006 4154     		pushq	%r12
 264              		.cfi_def_cfa_offset 40
 265              		.cfi_offset 12, -40
 266 0008 55       		pushq	%rbp
 267              		.cfi_def_cfa_offset 48
 268              		.cfi_offset 6, -48
 269 0009 53       		pushq	%rbx
 270              		.cfi_def_cfa_offset 56
 271              		.cfi_offset 3, -56
 272 000a 4883EC58 		subq	$88, %rsp
 273              		.cfi_def_cfa_offset 144
 274 000e 488B0500 		movq	_ZTVN8UnitTest20DeferredTestReporterE@GOTPCREL(%rip), %rax
 274      000000
 275 0015 488B6F08 		movq	8(%rdi), %rbp
 276 0019 48897C24 		movq	%rdi, 24(%rsp)
 276      18
 277 001e 4883C010 		addq	$16, %rax
 278 0022 488907   		movq	%rax, (%rdi)
 279 0025 488B4710 		movq	16(%rdi), %rax
 280 0029 4839E8   		cmpq	%rbp, %rax
 281 002c 48894424 		movq	%rax, 8(%rsp)
 281      08
 282 0031 0F841401 		je	.L79
 282      0000
 283 0037 4C8D6D20 		leaq	32(%rbp), %r13
 284 003b 488D4508 		leaq	8(%rbp), %rax
 285 003f 488D7424 		leaq	79(%rsp), %rsi
 285      4F
 286 0044 4C8B3D00 		movq	_ZNSs4_Rep20_S_empty_rep_storageE@GOTPCREL(%rip), %r15
 286      000000
 287 004b 4C8D7510 		leaq	16(%rbp), %r14
 288 004f 48896C24 		movq	%rbp, 16(%rsp)
 288      10
 289 0054 4D89EC   		movq	%r13, %r12
 290 0057 48897424 		movq	%rsi, 32(%rsp)
 290      20
 291 005c 4989C5   		movq	%rax, %r13
 292 005f 90       		.p2align 4,,10
 293              		.p2align 3
 294              	.L77:
 295 0060 498B0C24 		movq	(%r12), %rcx
 296 0064 498B5424 		movq	-8(%r12), %rdx
 296      F8
 297 0069 4839D1   		cmpq	%rdx, %rcx
 298 006c 0F84D100 		je	.L80
 298      0000
 299 0072 48833D00 		cmpq	$0, _ZL28__gthrw___pthread_key_createPjPFvPvE@GOTPCREL(%rip)
 299      00000000 
 300 007a 4889D3   		movq	%rdx, %rbx
 301 007d 4C8D4208 		leaq	8(%rdx), %r8
 302 0081 0F840801 		je	.L55
 302      0000
 303 0087 660F1F84 		.p2align 4,,10
 303      00000000 
 303      00
 304              		.p2align 3
 305              	.L59:
 306 0090 4889D8   		movq	%rbx, %rax
 307 0093 4829D0   		subq	%rdx, %rax
 308 0096 498B0400 		movq	(%r8,%rax), %rax
 309 009a 488D78E8 		leaq	-24(%rax), %rdi
 310 009e 4C39FF   		cmpq	%r15, %rdi
 311 00a1 0F85A900 		jne	.L88
 311      0000
 312              	.L57:
 313 00a7 4883C310 		addq	$16, %rbx
 314 00ab 4839D9   		cmpq	%rbx, %rcx
 315 00ae 75E0     		jne	.L59
 316              	.L54:
 317 00b0 488B7D18 		movq	24(%rbp), %rdi
 318              	.L50:
 319 00b4 4885FF   		testq	%rdi, %rdi
 320 00b7 7405     		je	.L60
 321 00b9 E8000000 		call	_ZdlPv@PLT
 321      00
 322              	.L60:
 323 00be 4889EB   		movq	%rbp, %rbx
 324 00c1 482B5C24 		subq	16(%rsp), %rbx
 324      10
 325 00c6 4A8B0433 		movq	(%rbx,%r14), %rax
 326 00ca 488D78E8 		leaq	-24(%rax), %rdi
 327 00ce 4C39FF   		cmpq	%r15, %rdi
 328 00d1 0F857B01 		jne	.L89
 328      0000
 329              	.L62:
 330 00d7 4A8B042B 		movq	(%rbx,%r13), %rax
 331 00db 488D78E8 		leaq	-24(%rax), %rdi
 332 00df 4C39FF   		cmpq	%r15, %rdi
 333 00e2 0F85C800 		jne	.L90
 333      0000
 334              	.L67:
 335 00e8 488B4500 		movq	0(%rbp), %rax
 336 00ec 488D78E8 		leaq	-24(%rax), %rdi
 337 00f0 4C39FF   		cmpq	%r15, %rdi
 338 00f3 0F852B01 		jne	.L91
 338      0000
 339              	.L72:
 340 00f9 4883C538 		addq	$56, %rbp
 341 00fd 4983C438 		addq	$56, %r12
 342 0101 48396C24 		cmpq	%rbp, 8(%rsp)
 342      08
 343 0106 0F8554FF 		jne	.L77
 343      FFFF
 344 010c 488B4424 		movq	24(%rsp), %rax
 344      18
 345 0111 488B7808 		movq	8(%rax), %rdi
 346              	.L49:
 347 0115 4885FF   		testq	%rdi, %rdi
 348 0118 7405     		je	.L78
 349 011a E8000000 		call	_ZdlPv@PLT
 349      00
 350              	.L78:
 351 011f 488B5C24 		movq	24(%rsp), %rbx
 351      18
 352 0124 4889DF   		movq	%rbx, %rdi
 353 0127 E8000000 		call	_ZN8UnitTest12TestReporterD2Ev@PLT
 353      00
 354 012c 4889DF   		movq	%rbx, %rdi
 355 012f E8000000 		call	_ZdlPv@PLT
 355      00
 356 0134 4883C458 		addq	$88, %rsp
 357              		.cfi_remember_state
 358              		.cfi_def_cfa_offset 56
 359 0138 5B       		popq	%rbx
 360              		.cfi_def_cfa_offset 48
 361 0139 5D       		popq	%rbp
 362              		.cfi_def_cfa_offset 40
 363 013a 415C     		popq	%r12
 364              		.cfi_def_cfa_offset 32
 365 013c 415D     		popq	%r13
 366              		.cfi_def_cfa_offset 24
 367 013e 415E     		popq	%r14
 368              		.cfi_def_cfa_offset 16
 369 0140 415F     		popq	%r15
 370              		.cfi_def_cfa_offset 8
 371 0142 C3       		ret
 372              	.L80:
 373              		.cfi_restore_state
 374 0143 4889CF   		movq	%rcx, %rdi
 375 0146 E969FFFF 		jmp	.L50
 375      FF
 376              	.L79:
 377 014b 4889C7   		movq	%rax, %rdi
 378 014e EBC5     		jmp	.L49
 379              	.L88:
 380 0150 BEFFFFFF 		movl	$-1, %esi
 380      FF
 381 0155 F00FC170 		lock xaddl	%esi, -8(%rax)
 381      F8
 382 015a 85F6     		testl	%esi, %esi
 383 015c 0F8F45FF 		jg	.L57
 383      FFFF
 384 0162 488B7424 		movq	32(%rsp), %rsi
 384      20
 385 0167 4C894424 		movq	%r8, 56(%rsp)
 385      38
 386 016c 48895424 		movq	%rdx, 48(%rsp)
 386      30
 387 0171 48894C24 		movq	%rcx, 40(%rsp)
 387      28
 388 0176 E8000000 		call	_ZNSs4_Rep10_M_destroyERKSaIcE@PLT
 388      00
 389 017b 4C8B4424 		movq	56(%rsp), %r8
 389      38
 390 0180 488B5424 		movq	48(%rsp), %rdx
 390      30
 391 0185 488B4C24 		movq	40(%rsp), %rcx
 391      28
 392 018a E918FFFF 		jmp	.L57
 392      FF
 393              	.L55:
 394 018f 4889D8   		movq	%rbx, %rax
 395 0192 4829D0   		subq	%rdx, %rax
 396 0195 498B0400 		movq	(%r8,%rax), %rax
 397 0199 488D78E8 		leaq	-24(%rax), %rdi
 398 019d 4C39FF   		cmpq	%r15, %rdi
 399 01a0 753C     		jne	.L92
 400              	.L53:
 401 01a2 4883C310 		addq	$16, %rbx
 402 01a6 4839D9   		cmpq	%rbx, %rcx
 403 01a9 75E4     		jne	.L55
 404 01ab E900FFFF 		jmp	.L54
 404      FF
 405              	.L90:
 406 01b0 48833D00 		cmpq	$0, _ZL28__gthrw___pthread_key_createPjPFvPvE@GOTPCREL(%rip)
 406      00000000 
 407 01b8 488D5710 		leaq	16(%rdi), %rdx
 408 01bc 7459     		je	.L68
 409 01be B8FFFFFF 		movl	$-1, %eax
 409      FF
 410 01c3 F00FC102 		lock xaddl	%eax, (%rdx)
 411              	.L69:
 412 01c7 85C0     		testl	%eax, %eax
 413 01c9 0F8F19FF 		jg	.L67
 413      FFFF
 414 01cf 488B7424 		movq	32(%rsp), %rsi
 414      20
 415 01d4 E8000000 		call	_ZNSs4_Rep10_M_destroyERKSaIcE@PLT
 415      00
 416 01d9 E90AFFFF 		jmp	.L67
 416      FF
 417              	.L92:
 418 01de 8B70F8   		movl	-8(%rax), %esi
 419 01e1 448D4EFF 		leal	-1(%rsi), %r9d
 420 01e5 85F6     		testl	%esi, %esi
 421 01e7 448948F8 		movl	%r9d, -8(%rax)
 422 01eb 7FB5     		jg	.L53
 423 01ed 488B7424 		movq	32(%rsp), %rsi
 423      20
 424 01f2 4C894424 		movq	%r8, 56(%rsp)
 424      38
 425 01f7 48895424 		movq	%rdx, 48(%rsp)
 425      30
 426 01fc 48894C24 		movq	%rcx, 40(%rsp)
 426      28
 427 0201 E8000000 		call	_ZNSs4_Rep10_M_destroyERKSaIcE@PLT
 427      00
 428 0206 4C8B4424 		movq	56(%rsp), %r8
 428      38
 429 020b 488B5424 		movq	48(%rsp), %rdx
 429      30
 430 0210 488B4C24 		movq	40(%rsp), %rcx
 430      28
 431 0215 EB8B     		jmp	.L53
 432              	.L68:
 433 0217 8B50F8   		movl	-8(%rax), %edx
 434 021a 8D4AFF   		leal	-1(%rdx), %ecx
 435 021d 8948F8   		movl	%ecx, -8(%rax)
 436 0220 89D0     		movl	%edx, %eax
 437 0222 EBA3     		jmp	.L69
 438              	.L91:
 439 0224 48833D00 		cmpq	$0, _ZL28__gthrw___pthread_key_createPjPFvPvE@GOTPCREL(%rip)
 439      00000000 
 440 022c 488D5710 		leaq	16(%rdi), %rdx
 441 0230 744E     		je	.L73
 442 0232 B8FFFFFF 		movl	$-1, %eax
 442      FF
 443 0237 F00FC102 		lock xaddl	%eax, (%rdx)
 444              	.L74:
 445 023b 85C0     		testl	%eax, %eax
 446 023d 0F8FB6FE 		jg	.L72
 446      FFFF
 447 0243 488B7424 		movq	32(%rsp), %rsi
 447      20
 448 0248 E8000000 		call	_ZNSs4_Rep10_M_destroyERKSaIcE@PLT
 448      00
 449 024d E9A7FEFF 		jmp	.L72
 449      FF
 450              	.L89:
 451 0252 48833D00 		cmpq	$0, _ZL28__gthrw___pthread_key_createPjPFvPvE@GOTPCREL(%rip)
 451      00000000 
 452 025a 488D5710 		leaq	16(%rdi), %rdx
 453 025e 742D     		je	.L63
 454 0260 B8FFFFFF 		movl	$-1, %eax
 454      FF
 455 0265 F00FC102 		lock xaddl	%eax, (%rdx)
 456              	.L64:
 457 0269 85C0     		testl	%eax, %eax
 458 026b 0F8F66FE 		jg	.L62
 458      FFFF
 459 0271 488B7424 		movq	32(%rsp), %rsi
 459      20
 460 0276 E8000000 		call	_ZNSs4_Rep10_M_destroyERKSaIcE@PLT
 460      00
 461 027b E957FEFF 		jmp	.L62
 461      FF
 462              	.L73:
 463 0280 8B50F8   		movl	-8(%rax), %edx
 464 0283 8D4AFF   		leal	-1(%rdx), %ecx
 465 0286 8948F8   		movl	%ecx, -8(%rax)
 466 0289 89D0     		movl	%edx, %eax
 467 028b EBAE     		jmp	.L74
 468              	.L63:
 469 028d 8B50F8   		movl	-8(%rax), %edx
 470 0290 8D4AFF   		leal	-1(%rdx), %ecx
 471 0293 8948F8   		movl	%ecx, -8(%rax)
 472 0296 89D0     		movl	%edx, %eax
 473 0298 EBCF     		jmp	.L64
 474              		.cfi_endproc
 475              	.LFE1057:
 477              		.section	.text._ZN8UnitTest18DeferredTestResultD2Ev,"axG",@progbits,_ZN8UnitTest18DeferredTestResu
 478              		.align 2
 479              		.p2align 4,,15
 480              		.weak	_ZN8UnitTest18DeferredTestResultD2Ev
 482              	_ZN8UnitTest18DeferredTestResultD2Ev:
 483              	.LFB846:
 484              		.cfi_startproc
 485 0000 4157     		pushq	%r15
 486              		.cfi_def_cfa_offset 16
 487              		.cfi_offset 15, -16
 488 0002 4989FF   		movq	%rdi, %r15
 489 0005 4156     		pushq	%r14
 490              		.cfi_def_cfa_offset 24
 491              		.cfi_offset 14, -24
 492 0007 4155     		pushq	%r13
 493              		.cfi_def_cfa_offset 32
 494              		.cfi_offset 13, -32
 495 0009 4154     		pushq	%r12
 496              		.cfi_def_cfa_offset 40
 497              		.cfi_offset 12, -40
 498 000b 55       		pushq	%rbp
 499              		.cfi_def_cfa_offset 48
 500              		.cfi_offset 6, -48
 501 000c 53       		pushq	%rbx
 502              		.cfi_def_cfa_offset 56
 503              		.cfi_offset 3, -56
 504 000d 4883EC28 		subq	$40, %rsp
 505              		.cfi_def_cfa_offset 96
 506 0011 4C8B6F20 		movq	32(%rdi), %r13
 507 0015 4C8B6718 		movq	24(%rdi), %r12
 508 0019 4D39E5   		cmpq	%r12, %r13
 509 001c 0F848D00 		je	.L120
 509      0000
 510 0022 48833D00 		cmpq	$0, _ZL28__gthrw___pthread_key_createPjPFvPvE@GOTPCREL(%rip)
 510      00000000 
 511 002a 4C89E3   		movq	%r12, %rbx
 512 002d 4D8D7424 		leaq	8(%r12), %r14
 512      08
 513 0032 488B2D00 		movq	_ZNSs4_Rep20_S_empty_rep_storageE@GOTPCREL(%rip), %rbp
 513      000000
 514 0039 0F84A100 		je	.L125
 514      0000
 515 003f 488D4C24 		leaq	31(%rsp), %rcx
 515      1F
 516              		.p2align 4,,10
 517 0044 0F1F4000 		.p2align 3
 518              	.L103:
 519 0048 4889D8   		movq	%rbx, %rax
 520 004b 4C29E0   		subq	%r12, %rax
 521 004e 498B0406 		movq	(%r14,%rax), %rax
 522 0052 488D78E8 		leaq	-24(%rax), %rdi
 523 0056 4839EF   		cmpq	%rbp, %rdi
 524 0059 7560     		jne	.L126
 525              	.L101:
 526 005b 4883C310 		addq	$16, %rbx
 527 005f 4939DD   		cmpq	%rbx, %r13
 528 0062 75E4     		jne	.L103
 529              	.L98:
 530 0064 498B7F18 		movq	24(%r15), %rdi
 531              	.L94:
 532 0068 4885FF   		testq	%rdi, %rdi
 533 006b 7405     		je	.L104
 534 006d E8000000 		call	_ZdlPv@PLT
 534      00
 535              	.L104:
 536 0072 498B4710 		movq	16(%r15), %rax
 537 0076 488D78E8 		leaq	-24(%rax), %rdi
 538 007a 4839EF   		cmpq	%rbp, %rdi
 539 007d 0F850A01 		jne	.L127
 539      0000
 540              	.L106:
 541 0083 498B4708 		movq	8(%r15), %rax
 542 0087 488D78E8 		leaq	-24(%rax), %rdi
 543 008b 4839EF   		cmpq	%rbp, %rdi
 544 008e 757B     		jne	.L128
 545              	.L111:
 546 0090 498B07   		movq	(%r15), %rax
 547 0093 488D78E8 		leaq	-24(%rax), %rdi
 548 0097 4839EF   		cmpq	%rbp, %rdi
 549 009a 0F85BF00 		jne	.L129
 549      0000
 550              	.L93:
 551 00a0 4883C428 		addq	$40, %rsp
 552              		.cfi_remember_state
 553              		.cfi_def_cfa_offset 56
 554 00a4 5B       		popq	%rbx
 555              		.cfi_def_cfa_offset 48
 556 00a5 5D       		popq	%rbp
 557              		.cfi_def_cfa_offset 40
 558 00a6 415C     		popq	%r12
 559              		.cfi_def_cfa_offset 32
 560 00a8 415D     		popq	%r13
 561              		.cfi_def_cfa_offset 24
 562 00aa 415E     		popq	%r14
 563              		.cfi_def_cfa_offset 16
 564 00ac 415F     		popq	%r15
 565              		.cfi_def_cfa_offset 8
 566 00ae C3       		ret
 567              	.L120:
 568              		.cfi_restore_state
 569 00af 4C89EF   		movq	%r13, %rdi
 570 00b2 488B2D00 		movq	_ZNSs4_Rep20_S_empty_rep_storageE@GOTPCREL(%rip), %rbp
 570      000000
 571 00b9 EBAD     		jmp	.L94
 572              	.L126:
 573 00bb BEFFFFFF 		movl	$-1, %esi
 573      FF
 574 00c0 F00FC170 		lock xaddl	%esi, -8(%rax)
 574      F8
 575 00c5 85F6     		testl	%esi, %esi
 576 00c7 7F92     		jg	.L101
 577 00c9 4889CE   		movq	%rcx, %rsi
 578 00cc 48894C24 		movq	%rcx, 8(%rsp)
 578      08
 579 00d1 E8000000 		call	_ZNSs4_Rep10_M_destroyERKSaIcE@PLT
 579      00
 580 00d6 488B4C24 		movq	8(%rsp), %rcx
 580      08
 581 00db E97BFFFF 		jmp	.L101
 581      FF
 582              	.L125:
 583 00e0 488D4424 		leaq	31(%rsp), %rax
 583      1F
 584 00e5 48894424 		movq	%rax, 8(%rsp)
 584      08
 585              	.L99:
 586 00ea 4889DA   		movq	%rbx, %rdx
 587 00ed 4C29E2   		subq	%r12, %rdx
 588 00f0 498B1416 		movq	(%r14,%rdx), %rdx
 589 00f4 488D7AE8 		leaq	-24(%rdx), %rdi
 590 00f8 4839EF   		cmpq	%rbp, %rdi
 591 00fb 753C     		jne	.L130
 592              	.L97:
 593 00fd 4883C310 		addq	$16, %rbx
 594 0101 4939DD   		cmpq	%rbx, %r13
 595 0104 75E4     		jne	.L99
 596 0106 E959FFFF 		jmp	.L98
 596      FF
 597              	.L128:
 598 010b 48833D00 		cmpq	$0, _ZL28__gthrw___pthread_key_createPjPFvPvE@GOTPCREL(%rip)
 598      00000000 
 599 0113 488D5710 		leaq	16(%rdi), %rdx
 600 0117 7439     		je	.L112
 601 0119 B8FFFFFF 		movl	$-1, %eax
 601      FF
 602 011e F00FC102 		lock xaddl	%eax, (%rdx)
 603              	.L113:
 604 0122 85C0     		testl	%eax, %eax
 605 0124 0F8F66FF 		jg	.L111
 605      FFFF
 606 012a 488D7424 		leaq	31(%rsp), %rsi
 606      1F
 607 012f E8000000 		call	_ZNSs4_Rep10_M_destroyERKSaIcE@PLT
 607      00
 608 0134 E957FFFF 		jmp	.L111
 608      FF
 609              	.L130:
 610 0139 8B4AF8   		movl	-8(%rdx), %ecx
 611 013c 8D71FF   		leal	-1(%rcx), %esi
 612 013f 85C9     		testl	%ecx, %ecx
 613 0141 8972F8   		movl	%esi, -8(%rdx)
 614 0144 7FB7     		jg	.L97
 615 0146 488B7424 		movq	8(%rsp), %rsi
 615      08
 616 014b E8000000 		call	_ZNSs4_Rep10_M_destroyERKSaIcE@PLT
 616      00
 617 0150 EBAB     		jmp	.L97
 618              	.L112:
 619 0152 8B50F8   		movl	-8(%rax), %edx
 620 0155 8D4AFF   		leal	-1(%rdx), %ecx
 621 0158 8948F8   		movl	%ecx, -8(%rax)
 622 015b 89D0     		movl	%edx, %eax
 623 015d EBC3     		jmp	.L113
 624              	.L129:
 625 015f 48833D00 		cmpq	$0, _ZL28__gthrw___pthread_key_createPjPFvPvE@GOTPCREL(%rip)
 625      00000000 
 626 0167 488D5710 		leaq	16(%rdi), %rdx
 627 016b 744E     		je	.L117
 628 016d B8FFFFFF 		movl	$-1, %eax
 628      FF
 629 0172 F00FC102 		lock xaddl	%eax, (%rdx)
 630              	.L118:
 631 0176 85C0     		testl	%eax, %eax
 632 0178 0F8F22FF 		jg	.L93
 632      FFFF
 633 017e 488D7424 		leaq	31(%rsp), %rsi
 633      1F
 634 0183 E8000000 		call	_ZNSs4_Rep10_M_destroyERKSaIcE@PLT
 634      00
 635 0188 E913FFFF 		jmp	.L93
 635      FF
 636              	.L127:
 637 018d 48833D00 		cmpq	$0, _ZL28__gthrw___pthread_key_createPjPFvPvE@GOTPCREL(%rip)
 637      00000000 
 638 0195 488D5710 		leaq	16(%rdi), %rdx
 639 0199 742D     		je	.L107
 640 019b B8FFFFFF 		movl	$-1, %eax
 640      FF
 641 01a0 F00FC102 		lock xaddl	%eax, (%rdx)
 642              	.L108:
 643 01a4 85C0     		testl	%eax, %eax
 644 01a6 0F8FD7FE 		jg	.L106
 644      FFFF
 645 01ac 488D7424 		leaq	31(%rsp), %rsi
 645      1F
 646 01b1 E8000000 		call	_ZNSs4_Rep10_M_destroyERKSaIcE@PLT
 646      00
 647 01b6 E9C8FEFF 		jmp	.L106
 647      FF
 648              	.L117:
 649 01bb 8B50F8   		movl	-8(%rax), %edx
 650 01be 8D4AFF   		leal	-1(%rdx), %ecx
 651 01c1 8948F8   		movl	%ecx, -8(%rax)
 652 01c4 89D0     		movl	%edx, %eax
 653 01c6 EBAE     		jmp	.L118
 654              	.L107:
 655 01c8 8B50F8   		movl	-8(%rax), %edx
 656 01cb 8D4AFF   		leal	-1(%rdx), %ecx
 657 01ce 8948F8   		movl	%ecx, -8(%rax)
 658 01d1 89D0     		movl	%edx, %eax
 659 01d3 EBCF     		jmp	.L108
 660              		.cfi_endproc
 661              	.LFE846:
 663              		.weak	_ZN8UnitTest18DeferredTestResultD1Ev
 664              		.set	_ZN8UnitTest18DeferredTestResultD1Ev,_ZN8UnitTest18DeferredTestResultD2Ev
 665              		.text
 666              		.align 2
 667 000a 660F1F44 		.p2align 4,,15
 667      0000
 668              		.globl	_ZN8UnitTest20DeferredTestReporter10GetResultsEv
 670              	_ZN8UnitTest20DeferredTestReporter10GetResultsEv:
 671              	.LFB853:
 672              		.cfi_startproc
 673 0010 488D4708 		leaq	8(%rdi), %rax
 674 0014 C3       		ret
 675              		.cfi_endproc
 676              	.LFE853:
 678              		.section	.text._ZNSt6vectorISt4pairIiSsESaIS1_EE13_M_insert_auxEN9__gnu_cxx17__normal_iteratorIPS1
 679              		.align 2
 680              		.p2align 4,,15
 681              		.weak	_ZNSt6vectorISt4pairIiSsESaIS1_EE13_M_insert_auxEN9__gnu_cxx17__normal_iteratorIPS1_S3_EERKS
 683              	_ZNSt6vectorISt4pairIiSsESaIS1_EE13_M_insert_auxEN9__gnu_cxx17__normal_iteratorIPS1_S3_EERKS1_:
 684              	.LFB906:
 685              		.cfi_startproc
 686              		.cfi_personality 0x9b,DW.ref.__gxx_personality_v0
 687              		.cfi_lsda 0x1b,.LLSDA906
 688 0000 4157     		pushq	%r15
 689              		.cfi_def_cfa_offset 16
 690              		.cfi_offset 15, -16
 691 0002 4156     		pushq	%r14
 692              		.cfi_def_cfa_offset 24
 693              		.cfi_offset 14, -24
 694 0004 4989F6   		movq	%rsi, %r14
 695 0007 4155     		pushq	%r13
 696              		.cfi_def_cfa_offset 32
 697              		.cfi_offset 13, -32
 698 0009 4989FD   		movq	%rdi, %r13
 699 000c 4154     		pushq	%r12
 700              		.cfi_def_cfa_offset 40
 701              		.cfi_offset 12, -40
 702 000e 55       		pushq	%rbp
 703              		.cfi_def_cfa_offset 48
 704              		.cfi_offset 6, -48
 705 000f 53       		pushq	%rbx
 706              		.cfi_def_cfa_offset 56
 707              		.cfi_offset 3, -56
 708 0010 4889D3   		movq	%rdx, %rbx
 709 0013 4883EC48 		subq	$72, %rsp
 710              		.cfi_def_cfa_offset 128
 711 0017 488B7F08 		movq	8(%rdi), %rdi
 712 001b 493B7D10 		cmpq	16(%r13), %rdi
 713 001f 0F84B000 		je	.L133
 713      0000
 714 0025 31C0     		xorl	%eax, %eax
 715 0027 4885FF   		testq	%rdi, %rdi
 716 002a 7417     		je	.L134
 717 002c 8B47F0   		movl	-16(%rdi), %eax
 718 002f 488D77F8 		leaq	-8(%rdi), %rsi
 719 0033 4883C708 		addq	$8, %rdi
 720 0037 8947F8   		movl	%eax, -8(%rdi)
 721              	.LEHB0:
 722 003a E8000000 		call	_ZNSsC1ERKSs@PLT
 722      00
 723 003f 498B4508 		movq	8(%r13), %rax
 724              	.L134:
 725 0043 4883C010 		addq	$16, %rax
 726 0047 4C8D6424 		leaq	48(%rsp), %r12
 726      30
 727 004c 488D7308 		leaq	8(%rbx), %rsi
 728 0050 49894508 		movq	%rax, 8(%r13)
 729 0054 8B03     		movl	(%rbx), %eax
 730 0056 498D7C24 		leaq	8(%r12), %rdi
 730      08
 731 005b 89442430 		movl	%eax, 48(%rsp)
 732 005f E8000000 		call	_ZNSsC1ERKSs@PLT
 732      00
 733              	.LEHE0:
 734 0064 498B7D08 		movq	8(%r13), %rdi
 735 0068 488D5FE0 		leaq	-32(%rdi), %rbx
 736 006c 4883EF18 		subq	$24, %rdi
 737 0070 4C29F3   		subq	%r14, %rbx
 738 0073 48C1FB04 		sarq	$4, %rbx
 739 0077 4885DB   		testq	%rbx, %rbx
 740 007a 7E1F     		jle	.L137
 741 007c 0F1F4000 		.p2align 4,,10
 742              		.p2align 3
 743              	.L216:
 744 0080 8B47E8   		movl	-24(%rdi), %eax
 745 0083 488D6FF0 		leaq	-16(%rdi), %rbp
 746 0087 4889EE   		movq	%rbp, %rsi
 747 008a 8947F8   		movl	%eax, -8(%rdi)
 748              	.LEHB1:
 749 008d E8000000 		call	_ZNSs6assignERKSs@PLT
 749      00
 750 0092 4883EB01 		subq	$1, %rbx
 751 0096 4889EF   		movq	%rbp, %rdi
 752 0099 75E5     		jne	.L216
 753              	.L137:
 754 009b 8B442430 		movl	48(%rsp), %eax
 755 009f 498D7424 		leaq	8(%r12), %rsi
 755      08
 756 00a4 498D7E08 		leaq	8(%r14), %rdi
 757 00a8 418906   		movl	%eax, (%r14)
 758 00ab E8000000 		call	_ZNSs6assignERKSs@PLT
 758      00
 759              	.LEHE1:
 760 00b0 488B4424 		movq	56(%rsp), %rax
 760      38
 761 00b5 488D78E8 		leaq	-24(%rax), %rdi
 762 00b9 483B3D00 		cmpq	_ZNSs4_Rep20_S_empty_rep_storageE@GOTPCREL(%rip), %rdi
 762      000000
 763 00c0 0F85E301 		jne	.L229
 763      0000
 764              	.L132:
 765 00c6 4883C448 		addq	$72, %rsp
 766              		.cfi_remember_state
 767              		.cfi_def_cfa_offset 56
 768 00ca 5B       		popq	%rbx
 769              		.cfi_def_cfa_offset 48
 770 00cb 5D       		popq	%rbp
 771              		.cfi_def_cfa_offset 40
 772 00cc 415C     		popq	%r12
 773              		.cfi_def_cfa_offset 32
 774 00ce 415D     		popq	%r13
 775              		.cfi_def_cfa_offset 24
 776 00d0 415E     		popq	%r14
 777              		.cfi_def_cfa_offset 16
 778 00d2 415F     		popq	%r15
 779              		.cfi_def_cfa_offset 8
 780 00d4 C3       		ret
 781              	.L133:
 782              		.cfi_restore_state
 783 00d5 498B4500 		movq	0(%r13), %rax
 784 00d9 4829C7   		subq	%rax, %rdi
 785 00dc 48C1FF04 		sarq	$4, %rdi
 786 00e0 4885FF   		testq	%rdi, %rdi
 787 00e3 0F854601 		jne	.L230
 787      0000
 788 00e9 4889F5   		movq	%rsi, %rbp
 789 00ec BA010000 		movl	$1, %edx
 789      00
 790 00f1 4829C5   		subq	%rax, %rbp
 791 00f4 48C1FD04 		sarq	$4, %rbp
 792              	.L196:
 793 00f8 4889D7   		movq	%rdx, %rdi
 794 00fb 48895424 		movq	%rdx, 8(%rsp)
 794      08
 795 0100 48C1E704 		salq	$4, %rdi
 796              	.L195:
 797              	.LEHB2:
 798 0104 E8000000 		call	_Znwm@PLT
 798      00
 799              	.LEHE2:
 800 0109 48890424 		movq	%rax, (%rsp)
 801              	.L147:
 802 010d 48C1E504 		salq	$4, %rbp
 803 0111 48032C24 		addq	(%rsp), %rbp
 804 0115 48896C24 		movq	%rbp, 16(%rsp)
 804      10
 805 011a 7412     		je	.L151
 806 011c 8B03     		movl	(%rbx), %eax
 807 011e 488D7308 		leaq	8(%rbx), %rsi
 808 0122 488D7D08 		leaq	8(%rbp), %rdi
 809 0126 894500   		movl	%eax, 0(%rbp)
 810              	.LEHB3:
 811 0129 E8000000 		call	_ZNSsC1ERKSs@PLT
 811      00
 812              	.LEHE3:
 813              	.L151:
 814 012e 498B6D00 		movq	0(%r13), %rbp
 815 0132 488B1C24 		movq	(%rsp), %rbx
 816 0136 4939EE   		cmpq	%rbp, %r14
 817 0139 7429     		je	.L150
 818 013b 0F1F4400 		.p2align 4,,10
 818      00
 819              		.p2align 3
 820              	.L217:
 821 0140 4885DB   		testq	%rbx, %rbx
 822 0143 7412     		je	.L154
 823 0145 8B4500   		movl	0(%rbp), %eax
 824 0148 488D7508 		leaq	8(%rbp), %rsi
 825 014c 488D7B08 		leaq	8(%rbx), %rdi
 826 0150 8903     		movl	%eax, (%rbx)
 827              	.LEHB4:
 828 0152 E8000000 		call	_ZNSsC1ERKSs@PLT
 828      00
 829              	.LEHE4:
 830              	.L154:
 831 0157 4883C510 		addq	$16, %rbp
 832 015b 4883C310 		addq	$16, %rbx
 833 015f 4939EE   		cmpq	%rbp, %r14
 834 0162 75DC     		jne	.L217
 835              	.L150:
 836 0164 4D8B7D08 		movq	8(%r13), %r15
 837 0168 488D4310 		leaq	16(%rbx), %rax
 838 016c 4D89F4   		movq	%r14, %r12
 839 016f 48894424 		movq	%rax, 24(%rsp)
 839      18
 840 0174 4889C5   		movq	%rax, %rbp
 841 0177 4D39FE   		cmpq	%r15, %r14
 842 017a 742F     		je	.L157
 843 017c 0F1F4000 		.p2align 4,,10
 844              		.p2align 3
 845              	.L218:
 846 0180 4885ED   		testq	%rbp, %rbp
 847 0183 7415     		je	.L167
 848 0185 418B0424 		movl	(%r12), %eax
 849 0189 498D7424 		leaq	8(%r12), %rsi
 849      08
 850 018e 488D7D08 		leaq	8(%rbp), %rdi
 851 0192 894500   		movl	%eax, 0(%rbp)
 852              	.LEHB5:
 853 0195 E8000000 		call	_ZNSsC1ERKSs@PLT
 853      00
 854              	.LEHE5:
 855              	.L167:
 856 019a 4983C410 		addq	$16, %r12
 857 019e 4883C510 		addq	$16, %rbp
 858 01a2 4D39E7   		cmpq	%r12, %r15
 859 01a5 75D9     		jne	.L218
 860 01a7 4D8B7508 		movq	8(%r13), %r14
 861              	.L157:
 862 01ab 4D8B6500 		movq	0(%r13), %r12
 863 01af 4C89F7   		movq	%r14, %rdi
 864 01b2 4D39F4   		cmpq	%r14, %r12
 865 01b5 744D     		je	.L170
 866 01b7 48833D00 		cmpq	$0, _ZL28__gthrw___pthread_key_createPjPFvPvE@GOTPCREL(%rip)
 866      00000000 
 867 01bf 4C89E3   		movq	%r12, %rbx
 868 01c2 488B1500 		movq	_ZNSs4_Rep20_S_empty_rep_storageE@GOTPCREL(%rip), %rdx
 868      000000
 869 01c9 4D8D7C24 		leaq	8(%r12), %r15
 869      08
 870 01ce 0F849301 		je	.L231
 870      0000
 871 01d4 488D4C24 		leaq	48(%rsp), %rcx
 871      30
 872 01d9 0F1F8000 		.p2align 4,,10
 872      000000
 873              		.p2align 3
 874              	.L185:
 875 01e0 4889D8   		movq	%rbx, %rax
 876 01e3 4C29E0   		subq	%r12, %rax
 877 01e6 498B0407 		movq	(%r15,%rax), %rax
 878 01ea 488D78E8 		leaq	-24(%rax), %rdi
 879 01ee 4839D7   		cmpq	%rdx, %rdi
 880 01f1 0F853D01 		jne	.L232
 880      0000
 881              	.L183:
 882 01f7 4883C310 		addq	$16, %rbx
 883 01fb 4C39F3   		cmpq	%r14, %rbx
 884 01fe 75E0     		jne	.L185
 885              	.L180:
 886 0200 498B7D00 		movq	0(%r13), %rdi
 887              	.L170:
 888 0204 4885FF   		testq	%rdi, %rdi
 889 0207 7405     		je	.L186
 890 0209 E8000000 		call	_ZdlPv@PLT
 890      00
 891              	.L186:
 892 020e 488B4424 		movq	8(%rsp), %rax
 892      08
 893 0213 488B0C24 		movq	(%rsp), %rcx
 894 0217 49896D08 		movq	%rbp, 8(%r13)
 895 021b 48C1E004 		salq	$4, %rax
 896 021f 49894D00 		movq	%rcx, 0(%r13)
 897 0223 4801C8   		addq	%rcx, %rax
 898 0226 49894510 		movq	%rax, 16(%r13)
 899 022a E997FEFF 		jmp	.L132
 899      FF
 900              	.L230:
 901 022f 488D143F 		leaq	(%rdi,%rdi), %rdx
 902 0233 4889F5   		movq	%rsi, %rbp
 903 0236 4829C5   		subq	%rax, %rbp
 904 0239 48C1FD04 		sarq	$4, %rbp
 905 023d 4839D7   		cmpq	%rdx, %rdi
 906 0240 7639     		jbe	.L233
 907              	.L146:
 908 0242 48B8FFFF 		movabsq	$1152921504606846975, %rax
 908      FFFFFFFF 
 908      FF0F
 909 024c 48C7C7F0 		movq	$-16, %rdi
 909      FFFFFF
 910 0253 48894424 		movq	%rax, 8(%rsp)
 910      08
 911 0258 E9A7FEFF 		jmp	.L195
 911      FF
 912              	.L199:
 913 025d 4889C3   		movq	%rax, %rbx
 914 0260 488B4424 		movq	56(%rsp), %rax
 914      38
 915 0265 488D7424 		leaq	47(%rsp), %rsi
 915      2F
 916 026a 488D78E8 		leaq	-24(%rax), %rdi
 917 026e E8000000 		call	_ZNSs4_Rep10_M_disposeERKSaIcE@PLT
 917      00
 918 0273 4889DF   		movq	%rbx, %rdi
 919              	.LEHB6:
 920 0276 E8000000 		call	_Unwind_Resume@PLT
 920      00
 921              	.LEHE6:
 922              	.L233:
 923 027b 48B9FFFF 		movabsq	$1152921504606846975, %rcx
 923      FFFFFFFF 
 923      FF0F
 924 0285 4839CA   		cmpq	%rcx, %rdx
 925 0288 77B8     		ja	.L146
 926 028a 4885D2   		testq	%rdx, %rdx
 927 028d 0F8565FE 		jne	.L196
 927      FFFF
 928 0293 48C74424 		movq	$0, 8(%rsp)
 928      08000000 
 928      00
 929 029c 48C70424 		movq	$0, (%rsp)
 929      00000000 
 930 02a4 E964FEFF 		jmp	.L147
 930      FF
 931              	.L229:
 932 02a9 48833D00 		cmpq	$0, _ZL28__gthrw___pthread_key_createPjPFvPvE@GOTPCREL(%rip)
 932      00000000 
 933 02b1 488D5710 		leaq	16(%rdi), %rdx
 934 02b5 743D     		je	.L141
 935 02b7 B8FFFFFF 		movl	$-1, %eax
 935      FF
 936 02bc F00FC102 		lock xaddl	%eax, (%rdx)
 937              	.L142:
 938 02c0 85C0     		testl	%eax, %eax
 939 02c2 0F8FFEFD 		jg	.L132
 939      FFFF
 940 02c8 488D7424 		leaq	47(%rsp), %rsi
 940      2F
 941 02cd E8000000 		call	_ZNSs4_Rep10_M_destroyERKSaIcE@PLT
 941      00
 942 02d2 E9EFFDFF 		jmp	.L132
 942      FF
 943              	.L205:
 944 02d7 4889C7   		movq	%rax, %rdi
 945 02da E8000000 		call	__cxa_begin_catch@PLT
 945      00
 946 02df 48833C24 		cmpq	$0, (%rsp)
 946      00
 947 02e4 742B     		je	.L228
 948              	.L226:
 949 02e6 488B3C24 		movq	(%rsp), %rdi
 950 02ea E8000000 		call	_ZdlPv@PLT
 950      00
 951              	.L194:
 952              	.LEHB7:
 953 02ef E8000000 		call	__cxa_rethrow@PLT
 953      00
 954              	.LEHE7:
 955              	.L141:
 956 02f4 8B50F8   		movl	-8(%rax), %edx
 957 02f7 8D4AFF   		leal	-1(%rdx), %ecx
 958 02fa 8948F8   		movl	%ecx, -8(%rax)
 959 02fd 89D0     		movl	%edx, %eax
 960 02ff EBBF     		jmp	.L142
 961              	.L200:
 962 0301 4889C3   		movq	%rax, %rbx
 963 0304 E8000000 		call	__cxa_end_catch@PLT
 963      00
 964 0309 4889DF   		movq	%rbx, %rdi
 965              	.LEHB8:
 966 030c E8000000 		call	_Unwind_Resume@PLT
 966      00
 967              	.LEHE8:
 968              	.L228:
 969 0311 4C8D6424 		leaq	48(%rsp), %r12
 969      30
 970              	.L159:
 971 0316 488B4424 		movq	16(%rsp), %rax
 971      10
 972 031b 4C89E6   		movq	%r12, %rsi
 973 031e 488B7808 		movq	8(%rax), %rdi
 974 0322 4883EF18 		subq	$24, %rdi
 975 0326 E8000000 		call	_ZNSs4_Rep10_M_disposeERKSaIcE@PLT
 975      00
 976              	.L192:
 977 032b 48833C24 		cmpq	$0, (%rsp)
 977      00
 978 0330 75B4     		jne	.L226
 979 0332 EBBB     		jmp	.L194
 980              	.L232:
 981 0334 BEFFFFFF 		movl	$-1, %esi
 981      FF
 982 0339 F00FC170 		lock xaddl	%esi, -8(%rax)
 982      F8
 983 033e 85F6     		testl	%esi, %esi
 984 0340 0F8FB1FE 		jg	.L183
 984      FFFF
 985 0346 4889CE   		movq	%rcx, %rsi
 986 0349 48895424 		movq	%rdx, 24(%rsp)
 986      18
 987 034e 48894C24 		movq	%rcx, 16(%rsp)
 987      10
 988 0353 E8000000 		call	_ZNSs4_Rep10_M_destroyERKSaIcE@PLT
 988      00
 989 0358 488B5424 		movq	24(%rsp), %rdx
 989      18
 990 035d 488B4C24 		movq	16(%rsp), %rcx
 990      10
 991 0362 E990FEFF 		jmp	.L183
 991      FF
 992              	.L231:
 993 0367 488D4424 		leaq	48(%rsp), %rax
 993      30
 994 036c 48894424 		movq	%rax, 16(%rsp)
 994      10
 995              	.L181:
 996 0371 4889D9   		movq	%rbx, %rcx
 997 0374 4C29E1   		subq	%r12, %rcx
 998 0377 498B0C0F 		movq	(%r15,%rcx), %rcx
 999 037b 488D79E8 		leaq	-24(%rcx), %rdi
 1000 037f 4839D7   		cmpq	%rdx, %rdi
 1001 0382 0F859B00 		jne	.L234
 1001      0000
 1002              	.L179:
 1003 0388 4883C310 		addq	$16, %rbx
 1004 038c 4C39F3   		cmpq	%r14, %rbx
 1005 038f 75E0     		jne	.L181
 1006 0391 E96AFEFF 		jmp	.L180
 1006      FF
 1007              	.L202:
 1008 0396 4889C7   		movq	%rax, %rdi
 1009 0399 E8000000 		call	__cxa_begin_catch@PLT
 1009      00
 1010 039e 48391C24 		cmpq	%rbx, (%rsp)
 1011 03a2 0F84A700 		je	.L235
 1011      0000
 1012 03a8 488B0424 		movq	(%rsp), %rax
 1013 03ac 4C8D6424 		leaq	48(%rsp), %r12
 1013      30
 1014 03b1 4C8D6808 		leaq	8(%rax), %r13
 1015 03b5 4889C5   		movq	%rax, %rbp
 1016              	.L163:
 1017 03b8 4889E8   		movq	%rbp, %rax
 1018 03bb 482B0424 		subq	(%rsp), %rax
 1019 03bf 4C89E6   		movq	%r12, %rsi
 1020 03c2 4883C510 		addq	$16, %rbp
 1021 03c6 498B7C05 		movq	0(%r13,%rax), %rdi
 1021      00
 1022 03cb 4883EF18 		subq	$24, %rdi
 1023 03cf E8000000 		call	_ZNSs4_Rep10_M_disposeERKSaIcE@PLT
 1023      00
 1024 03d4 4839DD   		cmpq	%rbx, %rbp
 1025 03d7 75DF     		jne	.L163
 1026              	.L162:
 1027              	.LEHB9:
 1028 03d9 E8000000 		call	__cxa_rethrow@PLT
 1028      00
 1029              	.LEHE9:
 1030              	.L204:
 1031 03de 4889C7   		movq	%rax, %rdi
 1032 03e1 E8000000 		call	__cxa_begin_catch@PLT
 1032      00
 1033 03e6 48396C24 		cmpq	%rbp, 24(%rsp)
 1033      18
 1034 03eb 7431     		je	.L175
 1035 03ed 488B4424 		movq	24(%rsp), %rax
 1035      18
 1036 03f2 4C8D6424 		leaq	48(%rsp), %r12
 1036      30
 1037 03f7 4C8D7008 		leaq	8(%rax), %r14
 1038 03fb 4989C5   		movq	%rax, %r13
 1039              	.L176:
 1040 03fe 4C89E8   		movq	%r13, %rax
 1041 0401 4C89E6   		movq	%r12, %rsi
 1042 0404 4983C510 		addq	$16, %r13
 1043 0408 4829D8   		subq	%rbx, %rax
 1044 040b 498B7C06 		movq	-16(%r14,%rax), %rdi
 1044      F0
 1045 0410 4883EF18 		subq	$24, %rdi
 1046 0414 E8000000 		call	_ZNSs4_Rep10_M_disposeERKSaIcE@PLT
 1046      00
 1047 0419 4939ED   		cmpq	%rbp, %r13
 1048 041c 75E0     		jne	.L176
 1049              	.L175:
 1050              	.LEHB10:
 1051 041e E8000000 		call	__cxa_rethrow@PLT
 1051      00
 1052              	.LEHE10:
 1053              	.L234:
 1054 0423 8B71F8   		movl	-8(%rcx), %esi
 1055 0426 448D46FF 		leal	-1(%rsi), %r8d
 1056 042a 85F6     		testl	%esi, %esi
 1057 042c 448941F8 		movl	%r8d, -8(%rcx)
 1058 0430 0F8F52FF 		jg	.L179
 1058      FFFF
 1059 0436 488B7424 		movq	16(%rsp), %rsi
 1059      10
 1060 043b 48895424 		movq	%rdx, 24(%rsp)
 1060      18
 1061 0440 E8000000 		call	_ZNSs4_Rep10_M_destroyERKSaIcE@PLT
 1061      00
 1062 0445 488B5424 		movq	24(%rsp), %rdx
 1062      18
 1063 044a E939FFFF 		jmp	.L179
 1063      FF
 1064              	.L235:
 1065 044f 4C8D6424 		leaq	48(%rsp), %r12
 1065      30
 1066 0454 EB83     		jmp	.L162
 1067              	.L203:
 1068 0456 4889C3   		movq	%rax, %rbx
 1069 0459 E8000000 		call	__cxa_end_catch@PLT
 1069      00
 1070 045e 4889DF   		movq	%rbx, %rdi
 1071 0461 E8000000 		call	__cxa_begin_catch@PLT
 1071      00
 1072 0466 48837C24 		cmpq	$0, 24(%rsp)
 1072      1800
 1073 046c 0F849FFE 		je	.L228
 1073      FFFF
 1074 0472 488B0424 		movq	(%rsp), %rax
 1075 0476 48394424 		cmpq	%rax, 24(%rsp)
 1075      18
 1076 047b 4C8D6424 		leaq	48(%rsp), %r12
 1076      30
 1077 0480 4889C3   		movq	%rax, %rbx
 1078 0483 4C8D6808 		leaq	8(%rax), %r13
 1079 0487 0F849EFE 		je	.L192
 1079      FFFF
 1080              	.L193:
 1081 048d 4889D8   		movq	%rbx, %rax
 1082 0490 482B0424 		subq	(%rsp), %rax
 1083 0494 4C89E6   		movq	%r12, %rsi
 1084 0497 4883C310 		addq	$16, %rbx
 1085 049b 498B7C05 		movq	0(%r13,%rax), %rdi
 1085      00
 1086 04a0 4883EF18 		subq	$24, %rdi
 1087 04a4 E8000000 		call	_ZNSs4_Rep10_M_disposeERKSaIcE@PLT
 1087      00
 1088 04a9 48395C24 		cmpq	%rbx, 24(%rsp)
 1088      18
 1089 04ae 75DD     		jne	.L193
 1090 04b0 E976FEFF 		jmp	.L192
 1090      FF
 1091              	.L201:
 1092 04b5 4889C3   		movq	%rax, %rbx
 1093 04b8 E8000000 		call	__cxa_end_catch@PLT
 1093      00
 1094 04bd 4889DF   		movq	%rbx, %rdi
 1095 04c0 E8000000 		call	__cxa_begin_catch@PLT
 1095      00
 1096 04c5 E94CFEFF 		jmp	.L159
 1096      FF
 1097              		.cfi_endproc
 1098              	.LFE906:
 1099              		.globl	__gxx_personality_v0
 1100              		.section	.gcc_except_table._ZNSt6vectorISt4pairIiSsESaIS1_EE13_M_insert_auxEN9__gnu_cxx17__normal_
 1101              		.align 4
 1102              	.LLSDA906:
 1103 0000 FF       		.byte	0xff
 1104 0001 9B       		.byte	0x9b
 1105 0002 49       		.uleb128 .LLSDATT906-.LLSDATTD906
 1106              	.LLSDATTD906:
 1107 0003 01       		.byte	0x1
 1108 0004 3D       		.uleb128 .LLSDACSE906-.LLSDACSB906
 1109              	.LLSDACSB906:
 1110 0005 3A       		.uleb128 .LEHB0-.LFB906
 1111 0006 2A       		.uleb128 .LEHE0-.LEHB0
 1112 0007 00       		.uleb128 0
 1113 0008 00       		.uleb128 0
 1114 0009 8D01     		.uleb128 .LEHB1-.LFB906
 1115 000b 23       		.uleb128 .LEHE1-.LEHB1
 1116 000c DD04     		.uleb128 .L199-.LFB906
 1117 000e 00       		.uleb128 0
 1118 000f 8402     		.uleb128 .LEHB2-.LFB906
 1119 0011 05       		.uleb128 .LEHE2-.LEHB2
 1120 0012 00       		.uleb128 0
 1121 0013 00       		.uleb128 0
 1122 0014 A902     		.uleb128 .LEHB3-.LFB906
 1123 0016 05       		.uleb128 .LEHE3-.LEHB3
 1124 0017 D705     		.uleb128 .L205-.LFB906
 1125 0019 01       		.uleb128 0x1
 1126 001a D202     		.uleb128 .LEHB4-.LFB906
 1127 001c 05       		.uleb128 .LEHE4-.LEHB4
 1128 001d 9607     		.uleb128 .L202-.LFB906
 1129 001f 01       		.uleb128 0x1
 1130 0020 9503     		.uleb128 .LEHB5-.LFB906
 1131 0022 05       		.uleb128 .LEHE5-.LEHB5
 1132 0023 DE07     		.uleb128 .L204-.LFB906
 1133 0025 01       		.uleb128 0x1
 1134 0026 F604     		.uleb128 .LEHB6-.LFB906
 1135 0028 05       		.uleb128 .LEHE6-.LEHB6
 1136 0029 00       		.uleb128 0
 1137 002a 00       		.uleb128 0
 1138 002b EF05     		.uleb128 .LEHB7-.LFB906
 1139 002d 05       		.uleb128 .LEHE7-.LEHB7
 1140 002e 8106     		.uleb128 .L200-.LFB906
 1141 0030 00       		.uleb128 0
 1142 0031 8C06     		.uleb128 .LEHB8-.LFB906
 1143 0033 05       		.uleb128 .LEHE8-.LEHB8
 1144 0034 00       		.uleb128 0
 1145 0035 00       		.uleb128 0
 1146 0036 D907     		.uleb128 .LEHB9-.LFB906
 1147 0038 05       		.uleb128 .LEHE9-.LEHB9
 1148 0039 B509     		.uleb128 .L201-.LFB906
 1149 003b 03       		.uleb128 0x3
 1150 003c 9E08     		.uleb128 .LEHB10-.LFB906
 1151 003e 05       		.uleb128 .LEHE10-.LEHB10
 1152 003f D608     		.uleb128 .L203-.LFB906
 1153 0041 03       		.uleb128 0x3
 1154              	.LLSDACSE906:
 1155 0042 01       		.byte	0x1
 1156 0043 00       		.byte	0
 1157 0044 00       		.byte	0
 1158 0045 7D       		.byte	0x7d
 1159 0046 0000     		.align 4
 1160 0048 00000000 		.long	0
 1161              	
 1162              	.LLSDATT906:
 1163              		.section	.text._ZNSt6vectorISt4pairIiSsESaIS1_EE13_M_insert_auxEN9__gnu_cxx17__normal_iteratorIPS1
 1165              		.text
 1166 0015 90       		.align 2
 1167 0016 662E0F1F 		.p2align 4,,15
 1167      84000000 
 1167      0000
 1168              		.globl	_ZN8UnitTest20DeferredTestReporter13ReportFailureERKNS_11TestDetailsEPKc
 1170              	_ZN8UnitTest20DeferredTestReporter13ReportFailureERKNS_11TestDetailsEPKc:
 1171              	.LFB848:
 1172              		.cfi_startproc
 1173              		.cfi_personality 0x9b,DW.ref.__gxx_personality_v0
 1174              		.cfi_lsda 0x1b,.LLSDA848
 1175 0020 4155     		pushq	%r13
 1176              		.cfi_def_cfa_offset 16
 1177              		.cfi_offset 13, -16
 1178 0022 4154     		pushq	%r12
 1179              		.cfi_def_cfa_offset 24
 1180              		.cfi_offset 12, -24
 1181 0024 55       		pushq	%rbp
 1182              		.cfi_def_cfa_offset 32
 1183              		.cfi_offset 6, -32
 1184 0025 4889F5   		movq	%rsi, %rbp
 1185 0028 4889D6   		movq	%rdx, %rsi
 1186 002b 53       		pushq	%rbx
 1187              		.cfi_def_cfa_offset 40
 1188              		.cfi_offset 3, -40
 1189 002c 4883EC38 		subq	$56, %rsp
 1190              		.cfi_def_cfa_offset 96
 1191 0030 488B5F10 		movq	16(%rdi), %rbx
 1192 0034 4C8D6424 		leaq	16(%rsp), %r12
 1192      10
 1193 0039 488D5424 		leaq	14(%rsp), %rdx
 1193      0E
 1194 003e 4C8D6C24 		leaq	32(%rsp), %r13
 1194      20
 1195 0043 4C89E7   		movq	%r12, %rdi
 1196 0046 C643FC01 		movb	$1, -4(%rbx)
 1197              	.LEHB11:
 1198 004a E8000000 		call	_ZNSsC1EPKcRKSaIcE@PLT
 1198      00
 1199              	.LEHE11:
 1200 004f 8B4518   		movl	24(%rbp), %eax
 1201 0052 498D7D08 		leaq	8(%r13), %rdi
 1202 0056 4C89E6   		movq	%r12, %rsi
 1203 0059 89442420 		movl	%eax, 32(%rsp)
 1204              	.LEHB12:
 1205 005d E8000000 		call	_ZNSsC1ERKSs@PLT
 1205      00
 1206              	.LEHE12:
 1207 0062 488B43E8 		movq	-24(%rbx), %rax
 1208 0066 483B43F0 		cmpq	-16(%rbx), %rax
 1209 006a 747C     		je	.L237
 1210 006c 4885C0   		testq	%rax, %rax
 1211 006f 746F     		je	.L252
 1212 0071 8B542420 		movl	32(%rsp), %edx
 1213 0075 498D7508 		leaq	8(%r13), %rsi
 1214 0079 488D7808 		leaq	8(%rax), %rdi
 1215 007d 8910     		movl	%edx, (%rax)
 1216              	.LEHB13:
 1217 007f E8000000 		call	_ZNSsC1ERKSs@PLT
 1217      00
 1218              	.LEHE13:
 1219 0084 488B43E8 		movq	-24(%rbx), %rax
 1220              	.L238:
 1221 0088 4883C010 		addq	$16, %rax
 1222 008c 4883EB38 		subq	$56, %rbx
 1223 0090 48894320 		movq	%rax, 32(%rbx)
 1224              	.L239:
 1225 0094 488B4424 		movq	40(%rsp), %rax
 1225      28
 1226 0099 4C8B2500 		movq	_ZNSs4_Rep20_S_empty_rep_storageE@GOTPCREL(%rip), %r12
 1226      000000
 1227 00a0 488D78E8 		leaq	-24(%rax), %rdi
 1228 00a4 4C39E7   		cmpq	%r12, %rdi
 1229 00a7 7554     		jne	.L257
 1230              	.L241:
 1231 00a9 488B4424 		movq	16(%rsp), %rax
 1231      10
 1232 00ae 488D78E8 		leaq	-24(%rax), %rdi
 1233 00b2 4C39E7   		cmpq	%r12, %rdi
 1234 00b5 756F     		jne	.L258
 1235              	.L246:
 1236 00b7 488B6D10 		movq	16(%rbp), %rbp
 1237 00bb 4889EF   		movq	%rbp, %rdi
 1238 00be E8000000 		call	strlen@PLT
 1238      00
 1239 00c3 488D7B10 		leaq	16(%rbx), %rdi
 1240 00c7 4889EE   		movq	%rbp, %rsi
 1241 00ca 4889C2   		movq	%rax, %rdx
 1242              	.LEHB14:
 1243 00cd E8000000 		call	_ZNSs6assignEPKcm@PLT
 1243      00
 1244              	.LEHE14:
 1245 00d2 4883C438 		addq	$56, %rsp
 1246              		.cfi_remember_state
 1247              		.cfi_def_cfa_offset 40
 1248 00d6 5B       		popq	%rbx
 1249              		.cfi_def_cfa_offset 32
 1250 00d7 5D       		popq	%rbp
 1251              		.cfi_def_cfa_offset 24
 1252 00d8 415C     		popq	%r12
 1253              		.cfi_def_cfa_offset 16
 1254 00da 415D     		popq	%r13
 1255              		.cfi_def_cfa_offset 8
 1256 00dc C3       		ret
 1257 00dd 0F1F00   		.p2align 4,,10
 1258              		.p2align 3
 1259              	.L252:
 1260              		.cfi_restore_state
 1261 00e0 31C0     		xorl	%eax, %eax
 1262 00e2 EBA4     		jmp	.L238
 1263              		.p2align 4,,10
 1264 00e4 0F1F4000 		.p2align 3
 1265              	.L237:
 1266 00e8 4883EB38 		subq	$56, %rbx
 1267 00ec 4C89EA   		movq	%r13, %rdx
 1268 00ef 4889C6   		movq	%rax, %rsi
 1269 00f2 488D7B18 		leaq	24(%rbx), %rdi
 1270              	.LEHB15:
 1271 00f6 E8000000 		call	_ZNSt6vectorISt4pairIiSsESaIS1_EE13_M_insert_auxEN9__gnu_cxx17__normal_iteratorIPS1_S3_EERKS1
 1271      00
 1272              	.LEHE15:
 1273 00fb EB97     		jmp	.L239
 1274              	.L257:
 1275 00fd 48833D00 		cmpq	$0, _ZL28__gthrw___pthread_key_createPjPFvPvE@GOTPCREL(%rip)
 1275      00000000 
 1276 0105 488D5710 		leaq	16(%rdi), %rdx
 1277 0109 0F848A00 		je	.L242
 1277      0000
 1278 010f 83C8FF   		orl	$-1, %eax
 1279 0112 F00FC102 		lock xaddl	%eax, (%rdx)
 1280              	.L243:
 1281 0116 85C0     		testl	%eax, %eax
 1282 0118 7F8F     		jg	.L241
 1283 011a 488D7424 		leaq	15(%rsp), %rsi
 1283      0F
 1284 011f E8000000 		call	_ZNSs4_Rep10_M_destroyERKSaIcE@PLT
 1284      00
 1285 0124 EB83     		jmp	.L241
 1286              	.L258:
 1287 0126 48833D00 		cmpq	$0, _ZL28__gthrw___pthread_key_createPjPFvPvE@GOTPCREL(%rip)
 1287      00000000 
 1288 012e 488D5710 		leaq	16(%rdi), %rdx
 1289 0132 743D     		je	.L247
 1290 0134 83C8FF   		orl	$-1, %eax
 1291 0137 F00FC102 		lock xaddl	%eax, (%rdx)
 1292              	.L248:
 1293 013b 85C0     		testl	%eax, %eax
 1294 013d 0F8F74FF 		jg	.L246
 1294      FFFF
 1295 0143 4C89EE   		movq	%r13, %rsi
 1296 0146 E8000000 		call	_ZNSs4_Rep10_M_destroyERKSaIcE@PLT
 1296      00
 1297 014b E967FFFF 		jmp	.L246
 1297      FF
 1298              	.L253:
 1299 0150 488D5C24 		leaq	15(%rsp), %rbx
 1299      0F
 1300 0155 4889C5   		movq	%rax, %rbp
 1301              	.L251:
 1302 0158 488B4424 		movq	16(%rsp), %rax
 1302      10
 1303 015d 4889DE   		movq	%rbx, %rsi
 1304 0160 488D78E8 		leaq	-24(%rax), %rdi
 1305 0164 E8000000 		call	_ZNSs4_Rep10_M_disposeERKSaIcE@PLT
 1305      00
 1306 0169 4889EF   		movq	%rbp, %rdi
 1307              	.LEHB16:
 1308 016c E8000000 		call	_Unwind_Resume@PLT
 1308      00
 1309              	.LEHE16:
 1310              	.L247:
 1311 0171 8B50F8   		movl	-8(%rax), %edx
 1312 0174 8D4AFF   		leal	-1(%rdx), %ecx
 1313 0177 8948F8   		movl	%ecx, -8(%rax)
 1314 017a 89D0     		movl	%edx, %eax
 1315 017c EBBD     		jmp	.L248
 1316              	.L254:
 1317 017e 4889C5   		movq	%rax, %rbp
 1318 0181 488B4424 		movq	40(%rsp), %rax
 1318      28
 1319 0186 488D5C24 		leaq	15(%rsp), %rbx
 1319      0F
 1320 018b 4889DE   		movq	%rbx, %rsi
 1321 018e 488D78E8 		leaq	-24(%rax), %rdi
 1322 0192 E8000000 		call	_ZNSs4_Rep10_M_disposeERKSaIcE@PLT
 1322      00
 1323 0197 EBBF     		jmp	.L251
 1324              	.L242:
 1325 0199 8B50F8   		movl	-8(%rax), %edx
 1326 019c 8D4AFF   		leal	-1(%rdx), %ecx
 1327 019f 8948F8   		movl	%ecx, -8(%rax)
 1328 01a2 89D0     		movl	%edx, %eax
 1329 01a4 E96DFFFF 		jmp	.L243
 1329      FF
 1330              		.cfi_endproc
 1331              	.LFE848:
 1332              		.section	.gcc_except_table,"a",@progbits
 1333              	.LLSDA848:
 1334 0000 FF       		.byte	0xff
 1335 0001 FF       		.byte	0xff
 1336 0002 01       		.byte	0x1
 1337 0003 1E       		.uleb128 .LLSDACSE848-.LLSDACSB848
 1338              	.LLSDACSB848:
 1339 0004 2A       		.uleb128 .LEHB11-.LFB848
 1340 0005 05       		.uleb128 .LEHE11-.LEHB11
 1341 0006 00       		.uleb128 0
 1342 0007 00       		.uleb128 0
 1343 0008 3D       		.uleb128 .LEHB12-.LFB848
 1344 0009 05       		.uleb128 .LEHE12-.LEHB12
 1345 000a B002     		.uleb128 .L253-.LFB848
 1346 000c 00       		.uleb128 0
 1347 000d 5F       		.uleb128 .LEHB13-.LFB848
 1348 000e 05       		.uleb128 .LEHE13-.LEHB13
 1349 000f DE02     		.uleb128 .L254-.LFB848
 1350 0011 00       		.uleb128 0
 1351 0012 AD01     		.uleb128 .LEHB14-.LFB848
 1352 0014 05       		.uleb128 .LEHE14-.LEHB14
 1353 0015 00       		.uleb128 0
 1354 0016 00       		.uleb128 0
 1355 0017 D601     		.uleb128 .LEHB15-.LFB848
 1356 0019 05       		.uleb128 .LEHE15-.LEHB15
 1357 001a DE02     		.uleb128 .L254-.LFB848
 1358 001c 00       		.uleb128 0
 1359 001d CC02     		.uleb128 .LEHB16-.LFB848
 1360 001f 05       		.uleb128 .LEHE16-.LEHB16
 1361 0020 00       		.uleb128 0
 1362 0021 00       		.uleb128 0
 1363              	.LLSDACSE848:
 1364              		.text
 1366              		.section	.text._ZNSt6vectorISt4pairIiSsESaIS1_EEaSERKS3_,"axG",@progbits,_ZNSt6vectorISt4pairIiSsE
 1367              		.align 2
 1368              		.p2align 4,,15
 1369              		.weak	_ZNSt6vectorISt4pairIiSsESaIS1_EEaSERKS3_
 1371              	_ZNSt6vectorISt4pairIiSsESaIS1_EEaSERKS3_:
 1372              	.LFB931:
 1373              		.cfi_startproc
 1374              		.cfi_personality 0x9b,DW.ref.__gxx_personality_v0
 1375              		.cfi_lsda 0x1b,.LLSDA931
 1376 0000 4157     		pushq	%r15
 1377              		.cfi_def_cfa_offset 16
 1378              		.cfi_offset 15, -16
 1379 0002 4156     		pushq	%r14
 1380              		.cfi_def_cfa_offset 24
 1381              		.cfi_offset 14, -24
 1382 0004 4155     		pushq	%r13
 1383              		.cfi_def_cfa_offset 32
 1384              		.cfi_offset 13, -32
 1385 0006 4154     		pushq	%r12
 1386              		.cfi_def_cfa_offset 40
 1387              		.cfi_offset 12, -40
 1388 0008 4989FC   		movq	%rdi, %r12
 1389 000b 55       		pushq	%rbp
 1390              		.cfi_def_cfa_offset 48
 1391              		.cfi_offset 6, -48
 1392 000c 53       		pushq	%rbx
 1393              		.cfi_def_cfa_offset 56
 1394              		.cfi_offset 3, -56
 1395 000d 4883EC38 		subq	$56, %rsp
 1396              		.cfi_def_cfa_offset 112
 1397 0011 4839FE   		cmpq	%rdi, %rsi
 1398 0014 48897424 		movq	%rsi, 16(%rsp)
 1398      10
 1399 0019 0F84D800 		je	.L260
 1399      0000
 1400 001f 4C8B7608 		movq	8(%rsi), %r14
 1401 0023 488B1E   		movq	(%rsi), %rbx
 1402 0026 4C8B2F   		movq	(%rdi), %r13
 1403 0029 488B4710 		movq	16(%rdi), %rax
 1404 002d 4D89F7   		movq	%r14, %r15
 1405 0030 4929DF   		subq	%rbx, %r15
 1406 0033 4C29E8   		subq	%r13, %rax
 1407 0036 49C1FF04 		sarq	$4, %r15
 1408 003a 48C1F804 		sarq	$4, %rax
 1409 003e 4939C7   		cmpq	%rax, %r15
 1410 0041 4C89FD   		movq	%r15, %rbp
 1411 0044 0F876601 		ja	.L332
 1411      0000
 1412 004a 488B4708 		movq	8(%rdi), %rax
 1413 004e 48894424 		movq	%rax, 8(%rsp)
 1413      08
 1414 0053 4C29E8   		subq	%r13, %rax
 1415 0056 48C1F804 		sarq	$4, %rax
 1416 005a 4939C7   		cmpq	%rax, %r15
 1417 005d 0F87AD00 		ja	.L290
 1417      0000
 1418 0063 4D85FF   		testq	%r15, %r15
 1419 0066 7E32     		jle	.L291
 1420 0068 4D8D7508 		leaq	8(%r13), %r14
 1421 006c 4883C308 		addq	$8, %rbx
 1422              		.p2align 4,,10
 1423              		.p2align 3
 1424              	.L293:
 1425 0070 8B43F8   		movl	-8(%rbx), %eax
 1426 0073 4889DE   		movq	%rbx, %rsi
 1427 0076 4C89F7   		movq	%r14, %rdi
 1428 0079 4883C310 		addq	$16, %rbx
 1429 007d 4983C610 		addq	$16, %r14
 1430 0081 418946E8 		movl	%eax, -24(%r14)
 1431              	.LEHB17:
 1432 0085 E8000000 		call	_ZNSs6assignERKSs@PLT
 1432      00
 1433 008a 4883ED01 		subq	$1, %rbp
 1434 008e 75E0     		jne	.L293
 1435 0090 4C89F8   		movq	%r15, %rax
 1436 0093 48C1E004 		salq	$4, %rax
 1437 0097 4901C5   		addq	%rax, %r13
 1438              	.L291:
 1439 009a 4C396C24 		cmpq	%r13, 8(%rsp)
 1439      08
 1440 009f 7449     		je	.L294
 1441 00a1 48833D00 		cmpq	$0, _ZL28__gthrw___pthread_key_createPjPFvPvE@GOTPCREL(%rip)
 1441      00000000 
 1442 00a9 4C89EB   		movq	%r13, %rbx
 1443 00ac 488B2D00 		movq	_ZNSs4_Rep20_S_empty_rep_storageE@GOTPCREL(%rip), %rbp
 1443      000000
 1444 00b3 4D8D7508 		leaq	8(%r13), %r14
 1445 00b7 0F848402 		je	.L333
 1445      0000
 1446 00bd 488D5424 		leaq	47(%rsp), %rdx
 1446      2F
 1447              		.p2align 4,,10
 1448 00c2 660F1F44 		.p2align 3
 1448      0000
 1449              	.L304:
 1450 00c8 4889D8   		movq	%rbx, %rax
 1451 00cb 4C29E8   		subq	%r13, %rax
 1452 00ce 498B0406 		movq	(%r14,%rax), %rax
 1453 00d2 488D78E8 		leaq	-24(%rax), %rdi
 1454 00d6 4839EF   		cmpq	%rbp, %rdi
 1455 00d9 0F85C401 		jne	.L334
 1455      0000
 1456              	.L301:
 1457 00df 4883C310 		addq	$16, %rbx
 1458 00e3 48395C24 		cmpq	%rbx, 8(%rsp)
 1458      08
 1459 00e8 75DE     		jne	.L304
 1460              	.L294:
 1461 00ea 49C1E704 		salq	$4, %r15
 1462 00ee 4D033C24 		addq	(%r12), %r15
 1463              	.L289:
 1464 00f2 4D897C24 		movq	%r15, 8(%r12)
 1464      08
 1465              	.L260:
 1466 00f7 4883C438 		addq	$56, %rsp
 1467              		.cfi_remember_state
 1468              		.cfi_def_cfa_offset 56
 1469 00fb 4C89E0   		movq	%r12, %rax
 1470 00fe 5B       		popq	%rbx
 1471              		.cfi_def_cfa_offset 48
 1472 00ff 5D       		popq	%rbp
 1473              		.cfi_def_cfa_offset 40
 1474 0100 415C     		popq	%r12
 1475              		.cfi_def_cfa_offset 32
 1476 0102 415D     		popq	%r13
 1477              		.cfi_def_cfa_offset 24
 1478 0104 415E     		popq	%r14
 1479              		.cfi_def_cfa_offset 16
 1480 0106 415F     		popq	%r15
 1481              		.cfi_def_cfa_offset 8
 1482 0108 C3       		ret
 1483 0109 0F1F8000 		.p2align 4,,10
 1483      000000
 1484              		.p2align 3
 1485              	.L290:
 1486              		.cfi_restore_state
 1487 0110 4889C5   		movq	%rax, %rbp
 1488 0113 48C1E504 		salq	$4, %rbp
 1489 0117 488D042B 		leaq	(%rbx,%rbp), %rax
 1490 011b 48C1FD04 		sarq	$4, %rbp
 1491 011f 4885ED   		testq	%rbp, %rbp
 1492 0122 0F8E5F01 		jle	.L319
 1492      0000
 1493 0128 4983C508 		addq	$8, %r13
 1494 012c 4883C308 		addq	$8, %rbx
 1495              		.p2align 4,,10
 1496              		.p2align 3
 1497              	.L307:
 1498 0130 8B43F8   		movl	-8(%rbx), %eax
 1499 0133 4889DE   		movq	%rbx, %rsi
 1500 0136 4C89EF   		movq	%r13, %rdi
 1501 0139 4883C310 		addq	$16, %rbx
 1502 013d 4983C510 		addq	$16, %r13
 1503 0141 418945E8 		movl	%eax, -24(%r13)
 1504 0145 E8000000 		call	_ZNSs6assignERKSs@PLT
 1504      00
 1505              	.LEHE17:
 1506 014a 4883ED01 		subq	$1, %rbp
 1507 014e 75E0     		jne	.L307
 1508 0150 4D8B6C24 		movq	8(%r12), %r13
 1508      08
 1509 0155 498B0424 		movq	(%r12), %rax
 1510 0159 488B4C24 		movq	16(%rsp), %rcx
 1510      10
 1511 015e 4C89EB   		movq	%r13, %rbx
 1512 0161 4829C3   		subq	%rax, %rbx
 1513 0164 4C8B7108 		movq	8(%rcx), %r14
 1514 0168 4883E3F0 		andq	$-16, %rbx
 1515 016c 480319   		addq	(%rcx), %rbx
 1516              	.L305:
 1517 016f 4C39F3   		cmpq	%r14, %rbx
 1518 0172 4C89ED   		movq	%r13, %rbp
 1519 0175 0F841C01 		je	.L335
 1519      0000
 1520 017b 0F1F4400 		.p2align 4,,10
 1520      00
 1521              		.p2align 3
 1522              	.L328:
 1523 0180 4885ED   		testq	%rbp, %rbp
 1524 0183 7412     		je	.L312
 1525 0185 8B03     		movl	(%rbx), %eax
 1526 0187 488D7308 		leaq	8(%rbx), %rsi
 1527 018b 488D7D08 		leaq	8(%rbp), %rdi
 1528 018f 894500   		movl	%eax, 0(%rbp)
 1529              	.LEHB18:
 1530 0192 E8000000 		call	_ZNSsC1ERKSs@PLT
 1530      00
 1531              	.LEHE18:
 1532              	.L312:
 1533 0197 4883C310 		addq	$16, %rbx
 1534 019b 4883C510 		addq	$16, %rbp
 1535 019f 4939DE   		cmpq	%rbx, %r14
 1536 01a2 75DC     		jne	.L328
 1537 01a4 E941FFFF 		jmp	.L294
 1537      FF
 1538 01a9 0F1F8000 		.p2align 4,,10
 1538      000000
 1539              		.p2align 3
 1540              	.L332:
 1541 01b0 4D85FF   		testq	%r15, %r15
 1542 01b3 0F84C600 		je	.L318
 1542      0000
 1543 01b9 48B8FFFF 		movabsq	$1152921504606846975, %rax
 1543      FFFFFFFF 
 1543      FF0F
 1544 01c3 4939C7   		cmpq	%rax, %r15
 1545 01c6 0F877001 		ja	.L336
 1545      0000
 1546 01cc 4C89FF   		movq	%r15, %rdi
 1547 01cf 48C1E704 		salq	$4, %rdi
 1548              	.LEHB19:
 1549 01d3 E8000000 		call	_Znwm@PLT
 1549      00
 1550              	.LEHE19:
 1551 01d8 4989C5   		movq	%rax, %r13
 1552              	.L262:
 1553 01db 4C39F3   		cmpq	%r14, %rbx
 1554 01de 4C89ED   		movq	%r13, %rbp
 1555 01e1 7429     		je	.L269
 1556              		.p2align 4,,10
 1557 01e3 0F1F4400 		.p2align 3
 1557      00
 1558              	.L327:
 1559 01e8 4885ED   		testq	%rbp, %rbp
 1560 01eb 7412     		je	.L270
 1561 01ed 8B03     		movl	(%rbx), %eax
 1562 01ef 488D7308 		leaq	8(%rbx), %rsi
 1563 01f3 488D7D08 		leaq	8(%rbp), %rdi
 1564 01f7 894500   		movl	%eax, 0(%rbp)
 1565              	.LEHB20:
 1566 01fa E8000000 		call	_ZNSsC1ERKSs@PLT
 1566      00
 1567              	.LEHE20:
 1568              	.L270:
 1569 01ff 4883C310 		addq	$16, %rbx
 1570 0203 4883C510 		addq	$16, %rbp
 1571 0207 4939DE   		cmpq	%rbx, %r14
 1572 020a 75DC     		jne	.L327
 1573              	.L269:
 1574 020c 498B5424 		movq	8(%r12), %rdx
 1574      08
 1575 0211 4D8B3424 		movq	(%r12), %r14
 1576 0215 4C39F2   		cmpq	%r14, %rdx
 1577 0218 4889D7   		movq	%rdx, %rdi
 1578 021b 7443     		je	.L266
 1579 021d 48833D00 		cmpq	$0, _ZL28__gthrw___pthread_key_createPjPFvPvE@GOTPCREL(%rip)
 1579      00000000 
 1580 0225 4C89F3   		movq	%r14, %rbx
 1581 0228 498D4E08 		leaq	8(%r14), %rcx
 1582 022c 488B2D00 		movq	_ZNSs4_Rep20_S_empty_rep_storageE@GOTPCREL(%rip), %rbp
 1582      000000
 1583 0233 0F84D400 		je	.L337
 1583      0000
 1584 0239 4C8D4424 		leaq	47(%rsp), %r8
 1584      2F
 1585 023e 6690     		.p2align 4,,10
 1586              		.p2align 3
 1587              	.L287:
 1588 0240 4889D8   		movq	%rbx, %rax
 1589 0243 4C29F0   		subq	%r14, %rax
 1590 0246 488B0401 		movq	(%rcx,%rax), %rax
 1591 024a 488D78E8 		leaq	-24(%rax), %rdi
 1592 024e 4839EF   		cmpq	%rbp, %rdi
 1593 0251 757D     		jne	.L338
 1594              	.L285:
 1595 0253 4883C310 		addq	$16, %rbx
 1596 0257 4839DA   		cmpq	%rbx, %rdx
 1597 025a 75E4     		jne	.L287
 1598              	.L282:
 1599 025c 498B3C24 		movq	(%r12), %rdi
 1600              	.L266:
 1601 0260 4885FF   		testq	%rdi, %rdi
 1602 0263 7405     		je	.L288
 1603 0265 E8000000 		call	_ZdlPv@PLT
 1603      00
 1604              	.L288:
 1605 026a 49C1E704 		salq	$4, %r15
 1606 026e 4D892C24 		movq	%r13, (%r12)
 1607 0272 4D01EF   		addq	%r13, %r15
 1608 0275 4D897C24 		movq	%r15, 16(%r12)
 1608      10
 1609 027a E973FEFF 		jmp	.L289
 1609      FF
 1610              	.L318:
 1611 027f 4531ED   		xorl	%r13d, %r13d
 1612 0282 E954FFFF 		jmp	.L262
 1612      FF
 1613              	.L319:
 1614 0287 4889C3   		movq	%rax, %rbx
 1615 028a 4C89E8   		movq	%r13, %rax
 1616 028d 4C8B6C24 		movq	8(%rsp), %r13
 1616      08
 1617 0292 E9D8FEFF 		jmp	.L305
 1617      FF
 1618              	.L335:
 1619 0297 49C1E704 		salq	$4, %r15
 1620 029b 4901C7   		addq	%rax, %r15
 1621 029e E94FFEFF 		jmp	.L289
 1621      FF
 1622              	.L334:
 1623 02a3 B9FFFFFF 		movl	$-1, %ecx
 1623      FF
 1624 02a8 F00FC148 		lock xaddl	%ecx, -8(%rax)
 1624      F8
 1625 02ad 85C9     		testl	%ecx, %ecx
 1626 02af 0F8F2AFE 		jg	.L301
 1626      FFFF
 1627 02b5 4889D6   		movq	%rdx, %rsi
 1628 02b8 48895424 		movq	%rdx, 16(%rsp)
 1628      10
 1629 02bd E8000000 		call	_ZNSs4_Rep10_M_destroyERKSaIcE@PLT
 1629      00
 1630 02c2 488B5424 		movq	16(%rsp), %rdx
 1630      10
 1631 02c7 E913FEFF 		jmp	.L301
 1631      FF
 1632 02cc 0F1F4000 		.p2align 4,,10
 1633              		.p2align 3
 1634              	.L338:
 1635 02d0 BEFFFFFF 		movl	$-1, %esi
 1635      FF
 1636 02d5 F00FC170 		lock xaddl	%esi, -8(%rax)
 1636      F8
 1637 02da 85F6     		testl	%esi, %esi
 1638 02dc 0F8F71FF 		jg	.L285
 1638      FFFF
 1639 02e2 4C89C6   		movq	%r8, %rsi
 1640 02e5 48894C24 		movq	%rcx, 24(%rsp)
 1640      18
 1641 02ea 48895424 		movq	%rdx, 16(%rsp)
 1641      10
 1642 02ef 4C894424 		movq	%r8, 8(%rsp)
 1642      08
 1643 02f4 E8000000 		call	_ZNSs4_Rep10_M_destroyERKSaIcE@PLT
 1643      00
 1644 02f9 488B4C24 		movq	24(%rsp), %rcx
 1644      18
 1645 02fe 488B5424 		movq	16(%rsp), %rdx
 1645      10
 1646 0303 4C8B4424 		movq	8(%rsp), %r8
 1646      08
 1647 0308 E946FFFF 		jmp	.L285
 1647      FF
 1648              	.L337:
 1649 030d 488D4424 		leaq	47(%rsp), %rax
 1649      2F
 1650 0312 48894424 		movq	%rax, 8(%rsp)
 1650      08
 1651              	.L283:
 1652 0317 4889DE   		movq	%rbx, %rsi
 1653 031a 4C29F6   		subq	%r14, %rsi
 1654 031d 488B3431 		movq	(%rcx,%rsi), %rsi
 1655 0321 488D7EE8 		leaq	-24(%rsi), %rdi
 1656 0325 4839EF   		cmpq	%rbp, %rdi
 1657 0328 0F85B100 		jne	.L339
 1657      0000
 1658              	.L281:
 1659 032e 4883C310 		addq	$16, %rbx
 1660 0332 4839DA   		cmpq	%rbx, %rdx
 1661 0335 75E0     		jne	.L283
 1662 0337 E920FFFF 		jmp	.L282
 1662      FF
 1663              	.L336:
 1664              	.LEHB21:
 1665 033c E8000000 		call	_ZSt17__throw_bad_allocv@PLT
 1665      00
 1666              	.LEHE21:
 1667              	.L333:
 1668 0341 488D4424 		leaq	47(%rsp), %rax
 1668      2F
 1669 0346 48894424 		movq	%rax, 16(%rsp)
 1669      10
 1670              	.L299:
 1671 034b 4889DA   		movq	%rbx, %rdx
 1672 034e 4C29EA   		subq	%r13, %rdx
 1673 0351 498B1416 		movq	(%r14,%rdx), %rdx
 1674 0355 488D7AE8 		leaq	-24(%rdx), %rdi
 1675 0359 4839EF   		cmpq	%rbp, %rdi
 1676 035c 7538     		jne	.L340
 1677              	.L297:
 1678 035e 4883C310 		addq	$16, %rbx
 1679 0362 48395C24 		cmpq	%rbx, 8(%rsp)
 1679      08
 1680 0367 75E2     		jne	.L299
 1681 0369 E97CFDFF 		jmp	.L294
 1681      FF
 1682              	.L324:
 1683 036e 488D5C24 		leaq	47(%rsp), %rbx
 1683      2F
 1684 0373 4889C7   		movq	%rax, %rdi
 1685 0376 E8000000 		call	__cxa_begin_catch@PLT
 1685      00
 1686              	.L316:
 1687 037b 4939ED   		cmpq	%rbp, %r13
 1688 037e 742F     		je	.L341
 1689 0380 498B4508 		movq	8(%r13), %rax
 1690 0384 4889DE   		movq	%rbx, %rsi
 1691 0387 4983C510 		addq	$16, %r13
 1692 038b 488D78E8 		leaq	-24(%rax), %rdi
 1693 038f E8000000 		call	_ZNSs4_Rep10_M_disposeERKSaIcE@PLT
 1693      00
 1694 0394 EBE5     		jmp	.L316
 1695              	.L340:
 1696 0396 8B4AF8   		movl	-8(%rdx), %ecx
 1697 0399 8D71FF   		leal	-1(%rcx), %esi
 1698 039c 85C9     		testl	%ecx, %ecx
 1699 039e 8972F8   		movl	%esi, -8(%rdx)
 1700 03a1 7FBB     		jg	.L297
 1701 03a3 488B7424 		movq	16(%rsp), %rsi
 1701      10
 1702 03a8 E8000000 		call	_ZNSs4_Rep10_M_destroyERKSaIcE@PLT
 1702      00
 1703 03ad EBAF     		jmp	.L297
 1704              	.L341:
 1705              	.LEHB22:
 1706 03af E8000000 		call	__cxa_rethrow@PLT
 1706      00
 1707              	.LEHE22:
 1708              	.L322:
 1709 03b4 4C8D6424 		leaq	47(%rsp), %r12
 1709      2F
 1710 03b9 4889C7   		movq	%rax, %rdi
 1711 03bc 4C89EB   		movq	%r13, %rbx
 1712 03bf E8000000 		call	__cxa_begin_catch@PLT
 1712      00
 1713              	.L276:
 1714 03c4 4839EB   		cmpq	%rbp, %rbx
 1715 03c7 745E     		je	.L342
 1716 03c9 488B4308 		movq	8(%rbx), %rax
 1717 03cd 4C89E6   		movq	%r12, %rsi
 1718 03d0 4883C310 		addq	$16, %rbx
 1719 03d4 488D78E8 		leaq	-24(%rax), %rdi
 1720 03d8 E8000000 		call	_ZNSs4_Rep10_M_disposeERKSaIcE@PLT
 1720      00
 1721 03dd EBE5     		jmp	.L276
 1722              	.L339:
 1723 03df 448B46F8 		movl	-8(%rsi), %r8d
 1724 03e3 458D48FF 		leal	-1(%r8), %r9d
 1725 03e7 4585C0   		testl	%r8d, %r8d
 1726 03ea 44894EF8 		movl	%r9d, -8(%rsi)
 1727 03ee 0F8F3AFF 		jg	.L281
 1727      FFFF
 1728 03f4 488B7424 		movq	8(%rsp), %rsi
 1728      08
 1729 03f9 48894C24 		movq	%rcx, 24(%rsp)
 1729      18
 1730 03fe 48895424 		movq	%rdx, 16(%rsp)
 1730      10
 1731 0403 E8000000 		call	_ZNSs4_Rep10_M_destroyERKSaIcE@PLT
 1731      00
 1732 0408 488B4C24 		movq	24(%rsp), %rcx
 1732      18
 1733 040d 488B5424 		movq	16(%rsp), %rdx
 1733      10
 1734 0412 E917FFFF 		jmp	.L281
 1734      FF
 1735              	.L323:
 1736 0417 4889C3   		movq	%rax, %rbx
 1737 041a E8000000 		call	__cxa_end_catch@PLT
 1737      00
 1738 041f 4889DF   		movq	%rbx, %rdi
 1739              	.LEHB23:
 1740 0422 E8000000 		call	_Unwind_Resume@PLT
 1740      00
 1741              	.LEHE23:
 1742              	.L342:
 1743              	.LEHB24:
 1744 0427 E8000000 		call	__cxa_rethrow@PLT
 1744      00
 1745              	.LEHE24:
 1746              	.L321:
 1747 042c 4889C3   		movq	%rax, %rbx
 1748 042f E8000000 		call	__cxa_end_catch@PLT
 1748      00
 1749 0434 4889DF   		movq	%rbx, %rdi
 1750 0437 E8000000 		call	__cxa_begin_catch@PLT
 1750      00
 1751 043c 4D85ED   		testq	%r13, %r13
 1752 043f 7408     		je	.L274
 1753 0441 4C89EF   		movq	%r13, %rdi
 1754 0444 E8000000 		call	_ZdlPv@PLT
 1754      00
 1755              	.L274:
 1756              	.LEHB25:
 1757 0449 E8000000 		call	__cxa_rethrow@PLT
 1757      00
 1758              	.LEHE25:
 1759              	.L320:
 1760 044e 4889C3   		movq	%rax, %rbx
 1761 0451 E8000000 		call	__cxa_end_catch@PLT
 1761      00
 1762 0456 4889DF   		movq	%rbx, %rdi
 1763              	.LEHB26:
 1764 0459 E8000000 		call	_Unwind_Resume@PLT
 1764      00
 1765              	.LEHE26:
 1766              		.cfi_endproc
 1767              	.LFE931:
 1768              		.section	.gcc_except_table
 1769 0022 0000     		.align 4
 1770              	.LLSDA931:
 1771 0024 FF       		.byte	0xff
 1772 0025 9B       		.byte	0x9b
 1773 0026 45       		.uleb128 .LLSDATT931-.LLSDATTD931
 1774              	.LLSDATTD931:
 1775 0027 01       		.byte	0x1
 1776 0028 38       		.uleb128 .LLSDACSE931-.LLSDACSB931
 1777              	.LLSDACSB931:
 1778 0029 8501     		.uleb128 .LEHB17-.LFB931
 1779 002b C501     		.uleb128 .LEHE17-.LEHB17
 1780 002d 00       		.uleb128 0
 1781 002e 00       		.uleb128 0
 1782 002f 9203     		.uleb128 .LEHB18-.LFB931
 1783 0031 05       		.uleb128 .LEHE18-.LEHB18
 1784 0032 EE06     		.uleb128 .L324-.LFB931
 1785 0034 01       		.uleb128 0x1
 1786 0035 D303     		.uleb128 .LEHB19-.LFB931
 1787 0037 05       		.uleb128 .LEHE19-.LEHB19
 1788 0038 00       		.uleb128 0
 1789 0039 00       		.uleb128 0
 1790 003a FA03     		.uleb128 .LEHB20-.LFB931
 1791 003c 05       		.uleb128 .LEHE20-.LEHB20
 1792 003d B407     		.uleb128 .L322-.LFB931
 1793 003f 01       		.uleb128 0x1
 1794 0040 BC06     		.uleb128 .LEHB21-.LFB931
 1795 0042 05       		.uleb128 .LEHE21-.LEHB21
 1796 0043 00       		.uleb128 0
 1797 0044 00       		.uleb128 0
 1798 0045 AF07     		.uleb128 .LEHB22-.LFB931
 1799 0047 05       		.uleb128 .LEHE22-.LEHB22
 1800 0048 9708     		.uleb128 .L323-.LFB931
 1801 004a 00       		.uleb128 0
 1802 004b A208     		.uleb128 .LEHB23-.LFB931
 1803 004d 05       		.uleb128 .LEHE23-.LEHB23
 1804 004e 00       		.uleb128 0
 1805 004f 00       		.uleb128 0
 1806 0050 A708     		.uleb128 .LEHB24-.LFB931
 1807 0052 05       		.uleb128 .LEHE24-.LEHB24
 1808 0053 AC08     		.uleb128 .L321-.LFB931
 1809 0055 03       		.uleb128 0x3
 1810 0056 C908     		.uleb128 .LEHB25-.LFB931
 1811 0058 05       		.uleb128 .LEHE25-.LEHB25
 1812 0059 CE08     		.uleb128 .L320-.LFB931
 1813 005b 00       		.uleb128 0
 1814 005c D908     		.uleb128 .LEHB26-.LFB931
 1815 005e 05       		.uleb128 .LEHE26-.LEHB26
 1816 005f 00       		.uleb128 0
 1817 0060 00       		.uleb128 0
 1818              	.LLSDACSE931:
 1819 0061 01       		.byte	0x1
 1820 0062 00       		.byte	0
 1821 0063 00       		.byte	0
 1822 0064 7D       		.byte	0x7d
 1823 0065 000000   		.align 4
 1824 0068 00000000 		.long	0
 1825              	
 1826              	.LLSDATT931:
 1827              		.section	.text._ZNSt6vectorISt4pairIiSsESaIS1_EEaSERKS3_,"axG",@progbits,_ZNSt6vectorISt4pairIiSsE
 1829              		.section	.text._ZNSt6vectorIN8UnitTest18DeferredTestResultESaIS1_EE13_M_insert_auxEN9__gnu_cxx17__
 1830              		.align 2
 1831              		.p2align 4,,15
 1832              		.weak	_ZNSt6vectorIN8UnitTest18DeferredTestResultESaIS1_EE13_M_insert_auxEN9__gnu_cxx17__normal_it
 1834              	_ZNSt6vectorIN8UnitTest18DeferredTestResultESaIS1_EE13_M_insert_auxEN9__gnu_cxx17__normal_iteratorI
 1835              	.LFB891:
 1836              		.cfi_startproc
 1837              		.cfi_personality 0x9b,DW.ref.__gxx_personality_v0
 1838              		.cfi_lsda 0x1b,.LLSDA891
 1839 0000 4157     		pushq	%r15
 1840              		.cfi_def_cfa_offset 16
 1841              		.cfi_offset 15, -16
 1842 0002 4156     		pushq	%r14
 1843              		.cfi_def_cfa_offset 24
 1844              		.cfi_offset 14, -24
 1845 0004 4155     		pushq	%r13
 1846              		.cfi_def_cfa_offset 32
 1847              		.cfi_offset 13, -32
 1848 0006 4989D5   		movq	%rdx, %r13
 1849 0009 4154     		pushq	%r12
 1850              		.cfi_def_cfa_offset 40
 1851              		.cfi_offset 12, -40
 1852 000b 55       		pushq	%rbp
 1853              		.cfi_def_cfa_offset 48
 1854              		.cfi_offset 6, -48
 1855 000c 53       		pushq	%rbx
 1856              		.cfi_def_cfa_offset 56
 1857              		.cfi_offset 3, -56
 1858 000d 4881ECA8 		subq	$168, %rsp
 1858      000000
 1859              		.cfi_def_cfa_offset 224
 1860 0014 4C8B6708 		movq	8(%rdi), %r12
 1861 0018 4C3B6710 		cmpq	16(%rdi), %r12
 1862 001c 48897C24 		movq	%rdi, 16(%rsp)
 1862      10
 1863 0021 48897424 		movq	%rsi, 8(%rsp)
 1863      08
 1864 0026 0F84C903 		je	.L344
 1864      0000
 1865 002c 4D85E4   		testq	%r12, %r12
 1866 002f 0F84AA03 		je	.L539
 1866      0000
 1867 0035 498D5C24 		leaq	-56(%r12), %rbx
 1867      C8
 1868 003a 4C89E7   		movq	%r12, %rdi
 1869 003d 4889DE   		movq	%rbx, %rsi
 1870              	.LEHB27:
 1871 0040 E8000000 		call	_ZNSsC1ERKSs@PLT
 1871      00
 1872              	.LEHE27:
 1873 0045 488D7308 		leaq	8(%rbx), %rsi
 1874 0049 498D7C24 		leaq	8(%r12), %rdi
 1874      08
 1875              	.LEHB28:
 1876 004e E8000000 		call	_ZNSsC1ERKSs@PLT
 1876      00
 1877              	.LEHE28:
 1878 0053 488D7310 		leaq	16(%rbx), %rsi
 1879 0057 498D7C24 		leaq	16(%r12), %rdi
 1879      10
 1880              	.LEHB29:
 1881 005c E8000000 		call	_ZNSsC1ERKSs@PLT
 1881      00
 1882              	.LEHE29:
 1883 0061 4D8B7424 		movq	-24(%r12), %r14
 1883      E8
 1884 0066 498B6C24 		movq	-32(%r12), %rbp
 1884      E0
 1885 006b 49C74424 		movq	$0, 24(%r12)
 1885      18000000 
 1885      00
 1886 0074 49C74424 		movq	$0, 32(%r12)
 1886      20000000 
 1886      00
 1887 007d 49C74424 		movq	$0, 40(%r12)
 1887      28000000 
 1887      00
 1888 0086 4C89F3   		movq	%r14, %rbx
 1889 0089 4829EB   		subq	%rbp, %rbx
 1890 008c 48C1FB04 		sarq	$4, %rbx
 1891 0090 4885DB   		testq	%rbx, %rbx
 1892 0093 0F85DE02 		jne	.L642
 1892      0000
 1893 0099 31DB     		xorl	%ebx, %ebx
 1894 009b 4531FF   		xorl	%r15d, %r15d
 1895              	.L346:
 1896 009e 4C01FB   		addq	%r15, %rbx
 1897 00a1 4939EE   		cmpq	%rbp, %r14
 1898 00a4 4D897C24 		movq	%r15, 24(%r12)
 1898      18
 1899 00a9 49895C24 		movq	%rbx, 40(%r12)
 1899      28
 1900 00ae 4D897C24 		movq	%r15, 32(%r12)
 1900      20
 1901 00b3 4C89FB   		movq	%r15, %rbx
 1902 00b6 742C     		je	.L348
 1903 00b8 0F1F8400 		.p2align 4,,10
 1903      00000000 
 1904              		.p2align 3
 1905              	.L352:
 1906 00c0 4885DB   		testq	%rbx, %rbx
 1907 00c3 7412     		je	.L351
 1908 00c5 8B4500   		movl	0(%rbp), %eax
 1909 00c8 488D7508 		leaq	8(%rbp), %rsi
 1910 00cc 488D7B08 		leaq	8(%rbx), %rdi
 1911 00d0 8903     		movl	%eax, (%rbx)
 1912              	.LEHB30:
 1913 00d2 E8000000 		call	_ZNSsC1ERKSs@PLT
 1913      00
 1914              	.LEHE30:
 1915              	.L351:
 1916 00d7 4883C510 		addq	$16, %rbp
 1917 00db 4883C310 		addq	$16, %rbx
 1918 00df 4939EE   		cmpq	%rbp, %r14
 1919 00e2 75DC     		jne	.L352
 1920              	.L348:
 1921 00e4 410FB644 		movzbl	-4(%r12), %eax
 1921      24FC
 1922 00ea F3410F10 		movss	-8(%r12), %xmm0
 1922      4424F8
 1923 00f1 F3410F11 		movss	%xmm0, 48(%r12)
 1923      442430
 1924 00f8 49895C24 		movq	%rbx, 32(%r12)
 1924      20
 1925 00fd 41884424 		movb	%al, 52(%r12)
 1925      34
 1926 0102 488B4424 		movq	16(%rsp), %rax
 1926      10
 1927 0107 488B4008 		movq	8(%rax), %rax
 1928              	.L345:
 1929 010b 488B4C24 		movq	16(%rsp), %rcx
 1929      10
 1930 0110 4C8D7424 		leaq	96(%rsp), %r14
 1930      60
 1931 0115 4883C038 		addq	$56, %rax
 1932 0119 4C89EE   		movq	%r13, %rsi
 1933 011c 4C89F7   		movq	%r14, %rdi
 1934 011f 48894108 		movq	%rax, 8(%rcx)
 1935              	.LEHB31:
 1936 0123 E8000000 		call	_ZNSsC1ERKSs@PLT
 1936      00
 1937              	.LEHE31:
 1938 0128 498D7508 		leaq	8(%r13), %rsi
 1939 012c 498D7E08 		leaq	8(%r14), %rdi
 1940              	.LEHB32:
 1941 0130 E8000000 		call	_ZNSsC1ERKSs@PLT
 1941      00
 1942              	.LEHE32:
 1943 0135 498D7510 		leaq	16(%r13), %rsi
 1944 0139 498D7E10 		leaq	16(%r14), %rdi
 1945              	.LEHB33:
 1946 013d E8000000 		call	_ZNSsC1ERKSs@PLT
 1946      00
 1947              	.LEHE33:
 1948 0142 4D8B6520 		movq	32(%r13), %r12
 1949 0146 498B6D18 		movq	24(%r13), %rbp
 1950 014a 48C74424 		movq	$0, 120(%rsp)
 1950      78000000 
 1950      00
 1951 0153 48C78424 		movq	$0, 128(%rsp)
 1951      80000000 
 1951      00000000 
 1952 015f 48C78424 		movq	$0, 136(%rsp)
 1952      88000000 
 1952      00000000 
 1953 016b 4C89E3   		movq	%r12, %rbx
 1954 016e 4829EB   		subq	%rbp, %rbx
 1955 0171 48C1FB04 		sarq	$4, %rbx
 1956 0175 4885DB   		testq	%rbx, %rbx
 1957 0178 0F853202 		jne	.L643
 1957      0000
 1958 017e 31DB     		xorl	%ebx, %ebx
 1959 0180 4531FF   		xorl	%r15d, %r15d
 1960              	.L363:
 1961 0183 4C01FB   		addq	%r15, %rbx
 1962 0186 4939EC   		cmpq	%rbp, %r12
 1963 0189 4C897C24 		movq	%r15, 120(%rsp)
 1963      78
 1964 018e 48899C24 		movq	%rbx, 136(%rsp)
 1964      88000000 
 1965 0196 4C89BC24 		movq	%r15, 128(%rsp)
 1965      80000000 
 1966 019e 4C89FB   		movq	%r15, %rbx
 1967 01a1 7429     		je	.L365
 1968              		.p2align 4,,10
 1969 01a3 0F1F4400 		.p2align 3
 1969      00
 1970              	.L369:
 1971 01a8 4885DB   		testq	%rbx, %rbx
 1972 01ab 7412     		je	.L368
 1973 01ad 8B4500   		movl	0(%rbp), %eax
 1974 01b0 488D7508 		leaq	8(%rbp), %rsi
 1975 01b4 488D7B08 		leaq	8(%rbx), %rdi
 1976 01b8 8903     		movl	%eax, (%rbx)
 1977              	.LEHB34:
 1978 01ba E8000000 		call	_ZNSsC1ERKSs@PLT
 1978      00
 1979              	.LEHE34:
 1980              	.L368:
 1981 01bf 4883C510 		addq	$16, %rbp
 1982 01c3 4883C310 		addq	$16, %rbx
 1983 01c7 4939EC   		cmpq	%rbp, %r12
 1984 01ca 75DC     		jne	.L369
 1985              	.L365:
 1986 01cc 410FB645 		movzbl	52(%r13), %eax
 1986      34
 1987 01d1 48BAB76D 		movabsq	$7905747460161236407, %rdx
 1987      DBB66DDB 
 1987      B66D
 1988 01db 48899C24 		movq	%rbx, 128(%rsp)
 1988      80000000 
 1989 01e3 F3410F10 		movss	48(%r13), %xmm0
 1989      4530
 1990 01e9 F30F1184 		movss	%xmm0, 144(%rsp)
 1990      24900000 
 1990      00
 1991 01f2 88842494 		movb	%al, 148(%rsp)
 1991      000000
 1992 01f9 488B4424 		movq	16(%rsp), %rax
 1992      10
 1993 01fe 488B4008 		movq	8(%rax), %rax
 1994 0202 4C8D6090 		leaq	-112(%rax), %r12
 1995 0206 4C2B6424 		subq	8(%rsp), %r12
 1995      08
 1996 020b 488D6890 		leaq	-112(%rax), %rbp
 1997 020f 49C1FC03 		sarq	$3, %r12
 1998 0213 4C0FAFE2 		imulq	%rdx, %r12
 1999 0217 4D85E4   		testq	%r12, %r12
 2000 021a 7E54     		jle	.L382
 2001 021c 0F1F4000 		.p2align 4,,10
 2002              		.p2align 3
 2003              	.L608:
 2004 0220 4889EB   		movq	%rbp, %rbx
 2005 0223 4883ED38 		subq	$56, %rbp
 2006 0227 4889EE   		movq	%rbp, %rsi
 2007 022a 4889DF   		movq	%rbx, %rdi
 2008              	.LEHB35:
 2009 022d E8000000 		call	_ZNSs6assignERKSs@PLT
 2009      00
 2010 0232 488D73D0 		leaq	-48(%rbx), %rsi
 2011 0236 488D7B08 		leaq	8(%rbx), %rdi
 2012 023a E8000000 		call	_ZNSs6assignERKSs@PLT
 2012      00
 2013 023f 488D73D8 		leaq	-40(%rbx), %rsi
 2014 0243 488D7B10 		leaq	16(%rbx), %rdi
 2015 0247 E8000000 		call	_ZNSs6assignERKSs@PLT
 2015      00
 2016 024c 488D73E0 		leaq	-32(%rbx), %rsi
 2017 0250 488D7B18 		leaq	24(%rbx), %rdi
 2018 0254 E8000000 		call	_ZNSt6vectorISt4pairIiSsESaIS1_EEaSERKS3_@PLT
 2018      00
 2019 0259 0FB643FC 		movzbl	-4(%rbx), %eax
 2020 025d F30F1043 		movss	-8(%rbx), %xmm0
 2020      F8
 2021 0262 4983EC01 		subq	$1, %r12
 2022 0266 F30F1143 		movss	%xmm0, 48(%rbx)
 2022      30
 2023 026b 884334   		movb	%al, 52(%rbx)
 2024 026e 75B0     		jne	.L608
 2025              	.L382:
 2026 0270 488B7C24 		movq	8(%rsp), %rdi
 2026      08
 2027 0275 4C89F6   		movq	%r14, %rsi
 2028 0278 E8000000 		call	_ZNSs6assignERKSs@PLT
 2028      00
 2029 027d 488B5C24 		movq	8(%rsp), %rbx
 2029      08
 2030 0282 498D7608 		leaq	8(%r14), %rsi
 2031 0286 488D7B08 		leaq	8(%rbx), %rdi
 2032 028a E8000000 		call	_ZNSs6assignERKSs@PLT
 2032      00
 2033 028f 498D7610 		leaq	16(%r14), %rsi
 2034 0293 488D7B10 		leaq	16(%rbx), %rdi
 2035 0297 E8000000 		call	_ZNSs6assignERKSs@PLT
 2035      00
 2036 029c 498D7618 		leaq	24(%r14), %rsi
 2037 02a0 488D7B18 		leaq	24(%rbx), %rdi
 2038 02a4 E8000000 		call	_ZNSt6vectorISt4pairIiSsESaIS1_EEaSERKS3_@PLT
 2038      00
 2039              	.LEHE35:
 2040 02a9 0FB68424 		movzbl	148(%rsp), %eax
 2040      94000000 
 2041 02b1 4C8BAC24 		movq	128(%rsp), %r13
 2041      80000000 
 2042 02b9 4C8B6424 		movq	120(%rsp), %r12
 2042      78
 2043 02be F30F1084 		movss	144(%rsp), %xmm0
 2043      24900000 
 2043      00
 2044 02c7 F30F1143 		movss	%xmm0, 48(%rbx)
 2044      30
 2045 02cc 4D39E5   		cmpq	%r12, %r13
 2046 02cf 884334   		movb	%al, 52(%rbx)
 2047 02d2 0F840E01 		je	.L544
 2047      0000
 2048 02d8 48833D00 		cmpq	$0, _ZL28__gthrw___pthread_key_createPjPFvPvE@GOTPCREL(%rip)
 2048      00000000 
 2049 02e0 4C89E5   		movq	%r12, %rbp
 2050 02e3 4D8D7424 		leaq	8(%r12), %r14
 2050      08
 2051 02e8 488B1D00 		movq	_ZNSs4_Rep20_S_empty_rep_storageE@GOTPCREL(%rip), %rbx
 2051      000000
 2052 02ef 4C8D7C24 		leaq	95(%rsp), %r15
 2052      5F
 2053 02f4 0F84C20D 		je	.L389
 2053      0000
 2054 02fa 660F1F44 		.p2align 4,,10
 2054      0000
 2055              		.p2align 3
 2056              	.L393:
 2057 0300 4889E8   		movq	%rbp, %rax
 2058 0303 4C29E0   		subq	%r12, %rax
 2059 0306 498B0406 		movq	(%r14,%rax), %rax
 2060 030a 488D78E8 		leaq	-24(%rax), %rdi
 2061 030e 4839DF   		cmpq	%rbx, %rdi
 2062 0311 0F85A506 		jne	.L644
 2062      0000
 2063              	.L391:
 2064 0317 4883C510 		addq	$16, %rbp
 2065 031b 4939ED   		cmpq	%rbp, %r13
 2066 031e 75E0     		jne	.L393
 2067              	.L388:
 2068 0320 488B7C24 		movq	120(%rsp), %rdi
 2068      78
 2069              	.L384:
 2070 0325 4885FF   		testq	%rdi, %rdi
 2071 0328 7405     		je	.L394
 2072 032a E8000000 		call	_ZdlPv@PLT
 2072      00
 2073              	.L394:
 2074 032f 488B4424 		movq	112(%rsp), %rax
 2074      70
 2075 0334 488D78E8 		leaq	-24(%rax), %rdi
 2076 0338 4839DF   		cmpq	%rbx, %rdi
 2077 033b 0F85D70D 		jne	.L645
 2077      0000
 2078              	.L396:
 2079 0341 488B4424 		movq	104(%rsp), %rax
 2079      68
 2080 0346 488D78E8 		leaq	-24(%rax), %rdi
 2081 034a 4839DF   		cmpq	%rbx, %rdi
 2082 034d 0F853B0D 		jne	.L646
 2082      0000
 2083              	.L401:
 2084 0353 488B4424 		movq	96(%rsp), %rax
 2084      60
 2085 0358 488D78E8 		leaq	-24(%rax), %rdi
 2086 035c 4839DF   		cmpq	%rbx, %rdi
 2087 035f 0F85B909 		jne	.L647
 2087      0000
 2088              	.L343:
 2089 0365 4881C4A8 		addq	$168, %rsp
 2089      000000
 2090              		.cfi_remember_state
 2091              		.cfi_def_cfa_offset 56
 2092 036c 5B       		popq	%rbx
 2093              		.cfi_def_cfa_offset 48
 2094 036d 5D       		popq	%rbp
 2095              		.cfi_def_cfa_offset 40
 2096 036e 415C     		popq	%r12
 2097              		.cfi_def_cfa_offset 32
 2098 0370 415D     		popq	%r13
 2099              		.cfi_def_cfa_offset 24
 2100 0372 415E     		popq	%r14
 2101              		.cfi_def_cfa_offset 16
 2102 0374 415F     		popq	%r15
 2103              		.cfi_def_cfa_offset 8
 2104 0376 C3       		ret
 2105              	.L642:
 2106              		.cfi_restore_state
 2107 0377 48B8FFFF 		movabsq	$1152921504606846975, %rax
 2107      FFFFFFFF 
 2107      FF0F
 2108 0381 4839C3   		cmpq	%rax, %rbx
 2109 0384 0F878908 		ja	.L648
 2109      0000
 2110 038a 48C1E304 		salq	$4, %rbx
 2111 038e 4889DF   		movq	%rbx, %rdi
 2112              	.LEHB36:
 2113 0391 E8000000 		call	_Znwm@PLT
 2113      00
 2114              	.LEHE36:
 2115 0396 4989C7   		movq	%rax, %r15
 2116 0399 4D8B7424 		movq	-24(%r12), %r14
 2116      E8
 2117 039e 498B6C24 		movq	-32(%r12), %rbp
 2117      E0
 2118 03a3 E9F6FCFF 		jmp	.L346
 2118      FF
 2119 03a8 0F1F8400 		.p2align 4,,10
 2119      00000000 
 2120              		.p2align 3
 2121              	.L643:
 2122 03b0 48B8FFFF 		movabsq	$1152921504606846975, %rax
 2122      FFFFFFFF 
 2122      FF0F
 2123 03ba 4839C3   		cmpq	%rax, %rbx
 2124 03bd 0F87500D 		ja	.L649
 2124      0000
 2125 03c3 48C1E304 		salq	$4, %rbx
 2126 03c7 4889DF   		movq	%rbx, %rdi
 2127              	.LEHB37:
 2128 03ca E8000000 		call	_Znwm@PLT
 2128      00
 2129              	.LEHE37:
 2130 03cf 4989C7   		movq	%rax, %r15
 2131 03d2 4D8B6520 		movq	32(%r13), %r12
 2132 03d6 498B6D18 		movq	24(%r13), %rbp
 2133 03da E9A4FDFF 		jmp	.L363
 2133      FF
 2134              	.L539:
 2135 03df 31C0     		xorl	%eax, %eax
 2136 03e1 E925FDFF 		jmp	.L345
 2136      FF
 2137              	.L544:
 2138 03e6 4C89EF   		movq	%r13, %rdi
 2139 03e9 488B1D00 		movq	_ZNSs4_Rep20_S_empty_rep_storageE@GOTPCREL(%rip), %rbx
 2139      000000
 2140 03f0 E930FFFF 		jmp	.L384
 2140      FF
 2141              	.L344:
 2142 03f5 488B17   		movq	(%rdi), %rdx
 2143 03f8 48B9B76D 		movabsq	$7905747460161236407, %rcx
 2143      DBB66DDB 
 2143      B66D
 2144 0402 4929D4   		subq	%rdx, %r12
 2145 0405 49C1FC03 		sarq	$3, %r12
 2146 0409 4C0FAFE1 		imulq	%rcx, %r12
 2147 040d 4D85E4   		testq	%r12, %r12
 2148 0410 0F85D204 		jne	.L650
 2148      0000
 2149 0416 488B5C24 		movq	8(%rsp), %rbx
 2149      08
 2150 041b B8010000 		movl	$1, %eax
 2150      00
 2151 0420 4829D3   		subq	%rdx, %rbx
 2152 0423 48C1FB03 		sarq	$3, %rbx
 2153 0427 480FAFD9 		imulq	%rcx, %rbx
 2154              	.L538:
 2155 042b 488D14C5 		leaq	0(,%rax,8), %rdx
 2155      00000000 
 2156 0433 4889C7   		movq	%rax, %rdi
 2157 0436 48894424 		movq	%rax, 64(%rsp)
 2157      40
 2158 043b 48C1E706 		salq	$6, %rdi
 2159 043f 4829D7   		subq	%rdx, %rdi
 2160              	.L537:
 2161              	.LEHB38:
 2162 0442 E8000000 		call	_Znwm@PLT
 2162      00
 2163              	.LEHE38:
 2164 0447 48894424 		movq	%rax, 32(%rsp)
 2164      20
 2165              	.L413:
 2166 044c 488D04DD 		leaq	0(,%rbx,8), %rax
 2166      00000000 
 2167 0454 48C1E306 		salq	$6, %rbx
 2168 0458 4829C3   		subq	%rax, %rbx
 2169 045b 48035C24 		addq	32(%rsp), %rbx
 2169      20
 2170 0460 48895C24 		movq	%rbx, 56(%rsp)
 2170      38
 2171 0465 0F84C500 		je	.L414
 2171      0000
 2172 046b 4C89EE   		movq	%r13, %rsi
 2173 046e 4889DF   		movq	%rbx, %rdi
 2174              	.LEHB39:
 2175 0471 E8000000 		call	_ZNSsC1ERKSs@PLT
 2175      00
 2176              	.LEHE39:
 2177 0476 498D7508 		leaq	8(%r13), %rsi
 2178 047a 488D7B08 		leaq	8(%rbx), %rdi
 2179              	.LEHB40:
 2180 047e E8000000 		call	_ZNSsC1ERKSs@PLT
 2180      00
 2181              	.LEHE40:
 2182 0483 498D7510 		leaq	16(%r13), %rsi
 2183 0487 488D7B10 		leaq	16(%rbx), %rdi
 2184              	.LEHB41:
 2185 048b E8000000 		call	_ZNSsC1ERKSs@PLT
 2185      00
 2186              	.LEHE41:
 2187 0490 498B4520 		movq	32(%r13), %rax
 2188 0494 492B4518 		subq	24(%r13), %rax
 2189 0498 4531E4   		xorl	%r12d, %r12d
 2190 049b 48C74318 		movq	$0, 24(%rbx)
 2190      00000000 
 2191 04a3 48C74320 		movq	$0, 32(%rbx)
 2191      00000000 
 2192 04ab 48C74328 		movq	$0, 40(%rbx)
 2192      00000000 
 2193 04b3 31DB     		xorl	%ebx, %ebx
 2194 04b5 48C1F804 		sarq	$4, %rax
 2195 04b9 4885C0   		testq	%rax, %rax
 2196 04bc 0F85D004 		jne	.L651
 2196      0000
 2197              	.L415:
 2198 04c2 488B4424 		movq	56(%rsp), %rax
 2198      38
 2199 04c7 4C01E3   		addq	%r12, %rbx
 2200 04ca 48895828 		movq	%rbx, 40(%rax)
 2201 04ce 4C896018 		movq	%r12, 24(%rax)
 2202 04d2 4C89E3   		movq	%r12, %rbx
 2203 04d5 4C896020 		movq	%r12, 32(%rax)
 2204 04d9 4D8B7520 		movq	32(%r13), %r14
 2205 04dd 498B6D18 		movq	24(%r13), %rbp
 2206 04e1 4939EE   		cmpq	%rbp, %r14
 2207 04e4 742E     		je	.L417
 2208 04e6 662E0F1F 		.p2align 4,,10
 2208      84000000 
 2208      0000
 2209              		.p2align 3
 2210              	.L421:
 2211 04f0 4885DB   		testq	%rbx, %rbx
 2212 04f3 7412     		je	.L420
 2213 04f5 8B4500   		movl	0(%rbp), %eax
 2214 04f8 488D7508 		leaq	8(%rbp), %rsi
 2215 04fc 488D7B08 		leaq	8(%rbx), %rdi
 2216 0500 8903     		movl	%eax, (%rbx)
 2217              	.LEHB42:
 2218 0502 E8000000 		call	_ZNSsC1ERKSs@PLT
 2218      00
 2219              	.LEHE42:
 2220              	.L420:
 2221 0507 4883C510 		addq	$16, %rbp
 2222 050b 4883C310 		addq	$16, %rbx
 2223 050f 4939EE   		cmpq	%rbp, %r14
 2224 0512 75DC     		jne	.L421
 2225              	.L417:
 2226 0514 488B4C24 		movq	56(%rsp), %rcx
 2226      38
 2227 0519 410FB645 		movzbl	52(%r13), %eax
 2227      34
 2228 051e F3410F10 		movss	48(%r13), %xmm0
 2228      4530
 2229 0524 F30F1141 		movss	%xmm0, 48(%rcx)
 2229      30
 2230 0529 48895920 		movq	%rbx, 32(%rcx)
 2231 052d 884134   		movb	%al, 52(%rcx)
 2232              	.L414:
 2233 0530 488B4424 		movq	16(%rsp), %rax
 2233      10
 2234 0535 4C8B30   		movq	(%rax), %r14
 2235 0538 4C397424 		cmpq	%r14, 8(%rsp)
 2235      08
 2236 053d 0F849D04 		je	.L548
 2236      0000
 2237 0543 488B5424 		movq	32(%rsp), %rdx
 2237      20
 2238 0548 4889D0   		movq	%rdx, %rax
 2239 054b 48891424 		movq	%rdx, (%rsp)
 2240 054f 4883C018 		addq	$24, %rax
 2241 0553 48894424 		movq	%rax, 40(%rsp)
 2241      28
 2242 0558 4989C7   		movq	%rax, %r15
 2243 055b 48894424 		movq	%rax, 24(%rsp)
 2243      18
 2244              		.p2align 4,,10
 2245              		.p2align 3
 2246              	.L459:
 2247 0560 488B1C24 		movq	(%rsp), %rbx
 2248 0564 4885DB   		testq	%rbx, %rbx
 2249 0567 0F84D000 		je	.L434
 2249      0000
 2250 056d 4C89F6   		movq	%r14, %rsi
 2251 0570 4889DF   		movq	%rbx, %rdi
 2252              	.LEHB43:
 2253 0573 E8000000 		call	_ZNSsC1ERKSs@PLT
 2253      00
 2254              	.LEHE43:
 2255 0578 498D7608 		leaq	8(%r14), %rsi
 2256 057c 488D7B08 		leaq	8(%rbx), %rdi
 2257              	.LEHB44:
 2258 0580 E8000000 		call	_ZNSsC1ERKSs@PLT
 2258      00
 2259              	.LEHE44:
 2260 0585 488B0424 		movq	(%rsp), %rax
 2261 0589 498D7610 		leaq	16(%r14), %rsi
 2262 058d 488D7810 		leaq	16(%rax), %rdi
 2263              	.LEHB45:
 2264 0591 E8000000 		call	_ZNSsC1ERKSs@PLT
 2264      00
 2265              	.LEHE45:
 2266 0596 498B4620 		movq	32(%r14), %rax
 2267 059a 492B4618 		subq	24(%r14), %rax
 2268 059e 31DB     		xorl	%ebx, %ebx
 2269 05a0 488B5424 		movq	24(%rsp), %rdx
 2269      18
 2270 05a5 4531ED   		xorl	%r13d, %r13d
 2271 05a8 48C1F804 		sarq	$4, %rax
 2272 05ac 48C70200 		movq	$0, (%rdx)
 2272      000000
 2273 05b3 48C74208 		movq	$0, 8(%rdx)
 2273      00000000 
 2274 05bb 4885C0   		testq	%rax, %rax
 2275 05be 48C74210 		movq	$0, 16(%rdx)
 2275      00000000 
 2276 05c6 0F859403 		jne	.L652
 2276      0000
 2277              	.L441:
 2278 05cc 4C01EB   		addq	%r13, %rbx
 2279 05cf 4D892F   		movq	%r13, (%r15)
 2280 05d2 4D896F08 		movq	%r13, 8(%r15)
 2281 05d6 49895F10 		movq	%rbx, 16(%r15)
 2282 05da 4D8B6620 		movq	32(%r14), %r12
 2283 05de 4C89EB   		movq	%r13, %rbx
 2284 05e1 498B6E18 		movq	24(%r14), %rbp
 2285 05e5 4939EC   		cmpq	%rbp, %r12
 2286 05e8 742A     		je	.L446
 2287 05ea 660F1F44 		.p2align 4,,10
 2287      0000
 2288              		.p2align 3
 2289              	.L450:
 2290 05f0 4885DB   		testq	%rbx, %rbx
 2291 05f3 7412     		je	.L449
 2292 05f5 8B4500   		movl	0(%rbp), %eax
 2293 05f8 488D7508 		leaq	8(%rbp), %rsi
 2294 05fc 488D7B08 		leaq	8(%rbx), %rdi
 2295 0600 8903     		movl	%eax, (%rbx)
 2296              	.LEHB46:
 2297 0602 E8000000 		call	_ZNSsC1ERKSs@PLT
 2297      00
 2298              	.LEHE46:
 2299              	.L449:
 2300 0607 4883C510 		addq	$16, %rbp
 2301 060b 4883C310 		addq	$16, %rbx
 2302 060f 4939EC   		cmpq	%rbp, %r12
 2303 0612 75DC     		jne	.L450
 2304              	.L446:
 2305 0614 488B0C24 		movq	(%rsp), %rcx
 2306 0618 488B5424 		movq	40(%rsp), %rdx
 2306      28
 2307 061d 4889C8   		movq	%rcx, %rax
 2308 0620 482B4424 		subq	32(%rsp), %rax
 2308      20
 2309 0625 48895C02 		movq	%rbx, 8(%rdx,%rax)
 2309      08
 2310 062a F3410F10 		movss	48(%r14), %xmm0
 2310      4630
 2311 0630 F30F1141 		movss	%xmm0, 48(%rcx)
 2311      30
 2312 0635 410FB646 		movzbl	52(%r14), %eax
 2312      34
 2313 063a 884134   		movb	%al, 52(%rcx)
 2314              	.L434:
 2315 063d 4983C638 		addq	$56, %r14
 2316 0641 48830424 		addq	$56, (%rsp)
 2316      38
 2317 0646 4983C738 		addq	$56, %r15
 2318 064a 48834424 		addq	$56, 24(%rsp)
 2318      1838
 2319 0650 4C397424 		cmpq	%r14, 8(%rsp)
 2319      08
 2320 0655 0F8505FF 		jne	.L459
 2320      FFFF
 2321 065b 488B0424 		movq	(%rsp), %rax
 2322              	.L433:
 2323 065f 4883C038 		addq	$56, %rax
 2324 0663 48894424 		movq	%rax, 40(%rsp)
 2324      28
 2325 0668 488B4424 		movq	16(%rsp), %rax
 2325      10
 2326 066d 488B4008 		movq	8(%rax), %rax
 2327 0671 48394424 		cmpq	%rax, 8(%rsp)
 2327      08
 2328 0676 48894424 		movq	%rax, 48(%rsp)
 2328      30
 2329 067b 0F846D03 		je	.L653
 2329      0000
 2330 0681 488B0424 		movq	(%rsp), %rax
 2331 0685 4C8B7C24 		movq	40(%rsp), %r15
 2331      28
 2332 068a 4C8B7424 		movq	8(%rsp), %r14
 2332      08
 2333 068f 4883C050 		addq	$80, %rax
 2334 0693 48894424 		movq	%rax, 24(%rsp)
 2334      18
 2335 0698 48894424 		movq	%rax, 8(%rsp)
 2335      08
 2336 069d 0F1F00   		.p2align 4,,10
 2337              		.p2align 3
 2338              	.L493:
 2339 06a0 4D85FF   		testq	%r15, %r15
 2340 06a3 0F84D100 		je	.L467
 2340      0000
 2341 06a9 4C89F6   		movq	%r14, %rsi
 2342 06ac 4C89FF   		movq	%r15, %rdi
 2343              	.LEHB47:
 2344 06af E8000000 		call	_ZNSsC1ERKSs@PLT
 2344      00
 2345              	.LEHE47:
 2346 06b4 498D7608 		leaq	8(%r14), %rsi
 2347 06b8 498D7F08 		leaq	8(%r15), %rdi
 2348              	.LEHB48:
 2349 06bc E8000000 		call	_ZNSsC1ERKSs@PLT
 2349      00
 2350              	.LEHE48:
 2351 06c1 498D7610 		leaq	16(%r14), %rsi
 2352 06c5 498D7F10 		leaq	16(%r15), %rdi
 2353              	.LEHB49:
 2354 06c9 E8000000 		call	_ZNSsC1ERKSs@PLT
 2354      00
 2355              	.LEHE49:
 2356 06ce 498B4620 		movq	32(%r14), %rax
 2357 06d2 492B4618 		subq	24(%r14), %rax
 2358 06d6 31DB     		xorl	%ebx, %ebx
 2359 06d8 488B4C24 		movq	8(%rsp), %rcx
 2359      08
 2360 06dd 4531ED   		xorl	%r13d, %r13d
 2361 06e0 48C1F804 		sarq	$4, %rax
 2362 06e4 48C70100 		movq	$0, (%rcx)
 2362      000000
 2363 06eb 48C74108 		movq	$0, 8(%rcx)
 2363      00000000 
 2364 06f3 4885C0   		testq	%rax, %rax
 2365 06f6 48C74110 		movq	$0, 16(%rcx)
 2365      00000000 
 2366 06fe 0F852C02 		jne	.L654
 2366      0000
 2367              	.L474:
 2368 0704 488B4424 		movq	24(%rsp), %rax
 2368      18
 2369 0709 4C01EB   		addq	%r13, %rbx
 2370 070c 48895810 		movq	%rbx, 16(%rax)
 2371 0710 4C8928   		movq	%r13, (%rax)
 2372 0713 4C89EB   		movq	%r13, %rbx
 2373 0716 4C896808 		movq	%r13, 8(%rax)
 2374 071a 4D8B6620 		movq	32(%r14), %r12
 2375 071e 498B6E18 		movq	24(%r14), %rbp
 2376 0722 4939EC   		cmpq	%rbp, %r12
 2377 0725 742D     		je	.L479
 2378 0727 660F1F84 		.p2align 4,,10
 2378      00000000 
 2378      00
 2379              		.p2align 3
 2380              	.L483:
 2381 0730 4885DB   		testq	%rbx, %rbx
 2382 0733 7412     		je	.L482
 2383 0735 8B4500   		movl	0(%rbp), %eax
 2384 0738 488D7508 		leaq	8(%rbp), %rsi
 2385 073c 488D7B08 		leaq	8(%rbx), %rdi
 2386 0740 8903     		movl	%eax, (%rbx)
 2387              	.LEHB50:
 2388 0742 E8000000 		call	_ZNSsC1ERKSs@PLT
 2388      00
 2389              	.LEHE50:
 2390              	.L482:
 2391 0747 4883C510 		addq	$16, %rbp
 2392 074b 4883C310 		addq	$16, %rbx
 2393 074f 4939EC   		cmpq	%rbp, %r12
 2394 0752 75DC     		jne	.L483
 2395              	.L479:
 2396 0754 4C89F8   		movq	%r15, %rax
 2397 0757 482B0424 		subq	(%rsp), %rax
 2398 075b 488B4C24 		movq	40(%rsp), %rcx
 2398      28
 2399 0760 48895C01 		movq	%rbx, -24(%rcx,%rax)
 2399      E8
 2400 0765 F3410F10 		movss	48(%r14), %xmm0
 2400      4630
 2401 076b F3410F11 		movss	%xmm0, 48(%r15)
 2401      4730
 2402 0771 410FB646 		movzbl	52(%r14), %eax
 2402      34
 2403 0776 41884734 		movb	%al, 52(%r15)
 2404              	.L467:
 2405 077a 4983C738 		addq	$56, %r15
 2406 077e 4983C638 		addq	$56, %r14
 2407 0782 48834424 		addq	$56, 24(%rsp)
 2407      1838
 2408 0788 48834424 		addq	$56, 8(%rsp)
 2408      0838
 2409 078e 4C397424 		cmpq	%r14, 48(%rsp)
 2409      30
 2410 0793 0F8507FF 		jne	.L493
 2410      FFFF
 2411 0799 488B4424 		movq	16(%rsp), %rax
 2411      10
 2412 079e 488B4008 		movq	8(%rax), %rax
 2413 07a2 48890424 		movq	%rax, (%rsp)
 2414              	.L461:
 2415 07a6 488B4424 		movq	16(%rsp), %rax
 2415      10
 2416 07ab 488B3C24 		movq	(%rsp), %rdi
 2417 07af 488B00   		movq	(%rax), %rax
 2418 07b2 483B0424 		cmpq	(%rsp), %rax
 2419 07b6 48894424 		movq	%rax, 8(%rsp)
 2419      08
 2420 07bb 0F84E900 		je	.L495
 2420      0000
 2421 07c1 4889C2   		movq	%rax, %rdx
 2422 07c4 488D7424 		leaq	96(%rsp), %rsi
 2422      60
 2423 07c9 488B1D00 		movq	_ZNSs4_Rep20_S_empty_rep_storageE@GOTPCREL(%rip), %rbx
 2423      000000
 2424 07d0 488D4A10 		leaq	16(%rdx), %rcx
 2425 07d4 4989D4   		movq	%rdx, %r12
 2426 07d7 4883C020 		addq	$32, %rax
 2427 07db 4883C208 		addq	$8, %rdx
 2428 07df 4D89E5   		movq	%r12, %r13
 2429 07e2 4C897C24 		movq	%r15, 40(%rsp)
 2429      28
 2430 07e7 48897424 		movq	%rsi, 24(%rsp)
 2430      18
 2431 07ec 4989C6   		movq	%rax, %r14
 2432 07ef 4989D7   		movq	%rdx, %r15
 2433 07f2 4989CC   		movq	%rcx, %r12
 2434              		.p2align 4,,10
 2435 07f5 0F1F00   		.p2align 3
 2436              	.L528:
 2437 07f8 498B16   		movq	(%r14), %rdx
 2438 07fb 498B6EF8 		movq	-8(%r14), %rbp
 2439 07ff 4839EA   		cmpq	%rbp, %rdx
 2440 0802 0F848201 		je	.L553
 2440      0000
 2441 0808 48833D00 		cmpq	$0, _ZL28__gthrw___pthread_key_createPjPFvPvE@GOTPCREL(%rip)
 2441      00000000 
 2442 0810 4989E9   		movq	%rbp, %r9
 2443 0813 488D4D08 		leaq	8(%rbp), %rcx
 2444 0817 0F84EA05 		je	.L506
 2444      0000
 2445 081d 0F1F00   		.p2align 4,,10
 2446              		.p2align 3
 2447              	.L510:
 2448 0820 4C89C8   		movq	%r9, %rax
 2449 0823 4829E8   		subq	%rbp, %rax
 2450 0826 488B0401 		movq	(%rcx,%rax), %rax
 2451 082a 488D78E8 		leaq	-24(%rax), %rdi
 2452 082e 4839DF   		cmpq	%rbx, %rdi
 2453 0831 0F85CA01 		jne	.L655
 2453      0000
 2454              	.L508:
 2455 0837 4983C110 		addq	$16, %r9
 2456 083b 4C39CA   		cmpq	%r9, %rdx
 2457 083e 75E0     		jne	.L510
 2458              	.L505:
 2459 0840 498B7D18 		movq	24(%r13), %rdi
 2460              	.L501:
 2461 0844 4885FF   		testq	%rdi, %rdi
 2462 0847 7405     		je	.L511
 2463 0849 E8000000 		call	_ZdlPv@PLT
 2463      00
 2464              	.L511:
 2465 084e 4C89ED   		movq	%r13, %rbp
 2466 0851 482B6C24 		subq	8(%rsp), %rbp
 2466      08
 2467 0856 4A8B5425 		movq	0(%rbp,%r12), %rdx
 2467      00
 2468 085b 488D7AE8 		leaq	-24(%rdx), %rdi
 2469 085f 4839DF   		cmpq	%rbx, %rdi
 2470 0862 0F855205 		jne	.L656
 2470      0000
 2471              	.L513:
 2472 0868 4A8B543D 		movq	0(%rbp,%r15), %rdx
 2472      00
 2473 086d 488D7AE8 		leaq	-24(%rdx), %rdi
 2474 0871 4839DF   		cmpq	%rbx, %rdi
 2475 0874 0F85D604 		jne	.L657
 2475      0000
 2476              	.L518:
 2477 087a 498B5500 		movq	0(%r13), %rdx
 2478 087e 488D7AE8 		leaq	-24(%rdx), %rdi
 2479 0882 4839DF   		cmpq	%rbx, %rdi
 2480 0885 0F85A106 		jne	.L658
 2480      0000
 2481              	.L523:
 2482 088b 4983C538 		addq	$56, %r13
 2483 088f 4983C638 		addq	$56, %r14
 2484 0893 4C3B2C24 		cmpq	(%rsp), %r13
 2485 0897 0F855BFF 		jne	.L528
 2485      FFFF
 2486 089d 488B4424 		movq	16(%rsp), %rax
 2486      10
 2487 08a2 4C8B7C24 		movq	40(%rsp), %r15
 2487      28
 2488 08a7 488B38   		movq	(%rax), %rdi
 2489              	.L495:
 2490 08aa 4885FF   		testq	%rdi, %rdi
 2491 08ad 7405     		je	.L529
 2492 08af E8000000 		call	_ZdlPv@PLT
 2492      00
 2493              	.L529:
 2494 08b4 488B4424 		movq	16(%rsp), %rax
 2494      10
 2495 08b9 488B7424 		movq	32(%rsp), %rsi
 2495      20
 2496 08be 4889C1   		movq	%rax, %rcx
 2497 08c1 488930   		movq	%rsi, (%rax)
 2498 08c4 4C897808 		movq	%r15, 8(%rax)
 2499 08c8 488B4424 		movq	64(%rsp), %rax
 2499      40
 2500 08cd 488D14C5 		leaq	0(,%rax,8), %rdx
 2500      00000000 
 2501 08d5 48C1E006 		salq	$6, %rax
 2502 08d9 4829D0   		subq	%rdx, %rax
 2503 08dc 4801F0   		addq	%rsi, %rax
 2504 08df 48894110 		movq	%rax, 16(%rcx)
 2505 08e3 E97DFAFF 		jmp	.L343
 2505      FF
 2506              	.L650:
 2507 08e8 488B5C24 		movq	8(%rsp), %rbx
 2507      08
 2508 08ed 4B8D0424 		leaq	(%r12,%r12), %rax
 2509 08f1 4829D3   		subq	%rdx, %rbx
 2510 08f4 48C1FB03 		sarq	$3, %rbx
 2511 08f8 4939C4   		cmpq	%rax, %r12
 2512 08fb 0F866A01 		jbe	.L659
 2512      0000
 2513              	.L412:
 2514 0901 48B8B76D 		movabsq	$7905747460161236407, %rax
 2514      DBB66DDB 
 2514      B66D
 2515 090b 48C7C7F0 		movq	$-16, %rdi
 2515      FFFFFF
 2516 0912 480FAFD8 		imulq	%rax, %rbx
 2517 0916 48B89224 		movabsq	$329406144173384850, %rax
 2517      49922449 
 2517      9204
 2518 0920 48894424 		movq	%rax, 64(%rsp)
 2518      40
 2519 0925 E918FBFF 		jmp	.L537
 2519      FF
 2520 092a 660F1F44 		.p2align 4,,10
 2520      0000
 2521              		.p2align 3
 2522              	.L654:
 2523 0930 48BAFFFF 		movabsq	$1152921504606846975, %rdx
 2523      FFFFFFFF 
 2523      FF0F
 2524 093a 4839D0   		cmpq	%rdx, %rax
 2525 093d 0F875002 		ja	.L660
 2525      0000
 2526 0943 4889C3   		movq	%rax, %rbx
 2527 0946 48C1E304 		salq	$4, %rbx
 2528 094a 4889DF   		movq	%rbx, %rdi
 2529              	.LEHB51:
 2530 094d E8000000 		call	_Znwm@PLT
 2530      00
 2531              	.LEHE51:
 2532 0952 4989C5   		movq	%rax, %r13
 2533 0955 E9AAFDFF 		jmp	.L474
 2533      FF
 2534 095a 660F1F44 		.p2align 4,,10
 2534      0000
 2535              		.p2align 3
 2536              	.L652:
 2537 0960 48B9FFFF 		movabsq	$1152921504606846975, %rcx
 2537      FFFFFFFF 
 2537      FF0F
 2538 096a 4839C8   		cmpq	%rcx, %rax
 2539 096d 0F874204 		ja	.L661
 2539      0000
 2540 0973 4889C3   		movq	%rax, %rbx
 2541 0976 48C1E304 		salq	$4, %rbx
 2542 097a 4889DF   		movq	%rbx, %rdi
 2543              	.LEHB52:
 2544 097d E8000000 		call	_Znwm@PLT
 2544      00
 2545              	.LEHE52:
 2546 0982 4989C5   		movq	%rax, %r13
 2547 0985 E942FCFF 		jmp	.L441
 2547      FF
 2548              	.L553:
 2549 098a 4889D7   		movq	%rdx, %rdi
 2550 098d E9B2FEFF 		jmp	.L501
 2550      FF
 2551              	.L651:
 2552 0992 48BAFFFF 		movabsq	$1152921504606846975, %rdx
 2552      FFFFFFFF 
 2552      FF0F
 2553 099c 4839D0   		cmpq	%rdx, %rax
 2554 099f 0F876907 		ja	.L662
 2554      0000
 2555 09a5 4889C3   		movq	%rax, %rbx
 2556 09a8 48C1E304 		salq	$4, %rbx
 2557 09ac 4889DF   		movq	%rbx, %rdi
 2558              	.LEHB53:
 2559 09af E8000000 		call	_Znwm@PLT
 2559      00
 2560              	.LEHE53:
 2561 09b4 4989C4   		movq	%rax, %r12
 2562 09b7 E906FBFF 		jmp	.L415
 2562      FF
 2563              	.L644:
 2564 09bc BAFFFFFF 		movl	$-1, %edx
 2564      FF
 2565 09c1 F00FC150 		lock xaddl	%edx, -8(%rax)
 2565      F8
 2566 09c6 85D2     		testl	%edx, %edx
 2567 09c8 0F8F49F9 		jg	.L391
 2567      FFFF
 2568 09ce 4C89FE   		movq	%r15, %rsi
 2569 09d1 E8000000 		call	_ZNSs4_Rep10_M_destroyERKSaIcE@PLT
 2569      00
 2570 09d6 E93CF9FF 		jmp	.L391
 2570      FF
 2571 09db 0F1F4400 		.p2align 4,,10
 2571      00
 2572              		.p2align 3
 2573              	.L548:
 2574 09e0 488B4424 		movq	32(%rsp), %rax
 2574      20
 2575 09e5 48890424 		movq	%rax, (%rsp)
 2576 09e9 E971FCFF 		jmp	.L433
 2576      FF
 2577              	.L653:
 2578 09ee 488B4424 		movq	8(%rsp), %rax
 2578      08
 2579 09f3 4C8B7C24 		movq	40(%rsp), %r15
 2579      28
 2580 09f8 48890424 		movq	%rax, (%rsp)
 2581 09fc E9A5FDFF 		jmp	.L461
 2581      FF
 2582              	.L655:
 2583 0a01 BEFFFFFF 		movl	$-1, %esi
 2583      FF
 2584 0a06 F00FC170 		lock xaddl	%esi, -8(%rax)
 2584      F8
 2585 0a0b 85F6     		testl	%esi, %esi
 2586 0a0d 0F8F24FE 		jg	.L508
 2586      FFFF
 2587 0a13 488B7424 		movq	24(%rsp), %rsi
 2587      18
 2588 0a18 48894C24 		movq	%rcx, 72(%rsp)
 2588      48
 2589 0a1d 4C894C24 		movq	%r9, 56(%rsp)
 2589      38
 2590 0a22 48895424 		movq	%rdx, 48(%rsp)
 2590      30
 2591 0a27 E8000000 		call	_ZNSs4_Rep10_M_destroyERKSaIcE@PLT
 2591      00
 2592 0a2c 488B4C24 		movq	72(%rsp), %rcx
 2592      48
 2593 0a31 4C8B4C24 		movq	56(%rsp), %r9
 2593      38
 2594 0a36 488B5424 		movq	48(%rsp), %rdx
 2594      30
 2595 0a3b E9F7FDFF 		jmp	.L508
 2595      FF
 2596              	.L579:
 2597              	.L491:
 2598 0a40 4889C7   		movq	%rax, %rdi
 2599 0a43 E8000000 		call	__cxa_begin_catch@PLT
 2599      00
 2600 0a48 488B4424 		movq	40(%rsp), %rax
 2600      28
 2601 0a4d 4C39F8   		cmpq	%r15, %rax
 2602 0a50 4889C3   		movq	%rax, %rbx
 2603 0a53 7411     		je	.L499
 2604              	.L612:
 2605 0a55 4889DF   		movq	%rbx, %rdi
 2606 0a58 4883C338 		addq	$56, %rbx
 2607 0a5c E8000000 		call	_ZN8UnitTest18DeferredTestResultD1Ev@PLT
 2607      00
 2608 0a61 4C39FB   		cmpq	%r15, %rbx
 2609 0a64 75EF     		jne	.L612
 2610              	.L499:
 2611              	.LEHB54:
 2612 0a66 E8000000 		call	__cxa_rethrow@PLT
 2612      00
 2613              	.LEHE54:
 2614              	.L659:
 2615 0a6b 48BE9224 		movabsq	$329406144173384850, %rsi
 2615      49922449 
 2615      9204
 2616 0a75 4839F0   		cmpq	%rsi, %rax
 2617 0a78 0F8783FE 		ja	.L412
 2617      FFFF
 2618 0a7e 480FAFD9 		imulq	%rcx, %rbx
 2619 0a82 4885C0   		testq	%rax, %rax
 2620 0a85 0F85A0F9 		jne	.L538
 2620      FFFF
 2621 0a8b 48C74424 		movq	$0, 64(%rsp)
 2621      40000000 
 2621      00
 2622 0a94 48C74424 		movq	$0, 32(%rsp)
 2622      20000000 
 2622      00
 2623 0a9d E9AAF9FF 		jmp	.L413
 2623      FF
 2624              	.L574:
 2625 0aa2 4C8D7424 		leaq	96(%rsp), %r14
 2625      60
 2626 0aa7 4889C3   		movq	%rax, %rbx
 2627              	.L440:
 2628 0aaa 488B0424 		movq	(%rsp), %rax
 2629 0aae 4C89F6   		movq	%r14, %rsi
 2630 0ab1 488B4008 		movq	8(%rax), %rax
 2631 0ab5 488D78E8 		leaq	-24(%rax), %rdi
 2632 0ab9 48894424 		movq	%rax, 8(%rsp)
 2632      08
 2633 0abe E8000000 		call	_ZNSs4_Rep10_M_disposeERKSaIcE@PLT
 2633      00
 2634              	.L437:
 2635 0ac3 488B0424 		movq	(%rsp), %rax
 2636 0ac7 488D7424 		leaq	95(%rsp), %rsi
 2636      5F
 2637 0acc 488B00   		movq	(%rax), %rax
 2638 0acf 488D78E8 		leaq	-24(%rax), %rdi
 2639 0ad3 48894424 		movq	%rax, 8(%rsp)
 2639      08
 2640 0ad8 E8000000 		call	_ZNSs4_Rep10_M_disposeERKSaIcE@PLT
 2640      00
 2641 0add 4889D8   		movq	%rbx, %rax
 2642              	.L458:
 2643 0ae0 4889C7   		movq	%rax, %rdi
 2644 0ae3 E8000000 		call	__cxa_begin_catch@PLT
 2644      00
 2645 0ae8 488B4424 		movq	32(%rsp), %rax
 2645      20
 2646 0aed 488B0C24 		movq	(%rsp), %rcx
 2647 0af1 4839C8   		cmpq	%rcx, %rax
 2648 0af4 4889C3   		movq	%rax, %rbx
 2649 0af7 7412     		je	.L465
 2650              	.L610:
 2651 0af9 4889DF   		movq	%rbx, %rdi
 2652 0afc 4883C338 		addq	$56, %rbx
 2653 0b00 E8000000 		call	_ZN8UnitTest18DeferredTestResultD1Ev@PLT
 2653      00
 2654 0b05 48391C24 		cmpq	%rbx, (%rsp)
 2655 0b09 75EE     		jne	.L610
 2656              	.L465:
 2657              	.LEHB55:
 2658 0b0b E8000000 		call	__cxa_rethrow@PLT
 2658      00
 2659              	.LEHE55:
 2660              	.L587:
 2661              	.L641:
 2662 0b10 4C8D7424 		leaq	96(%rsp), %r14
 2662      60
 2663 0b15 4889C3   		movq	%rax, %rbx
 2664              	.L477:
 2665 0b18 498B4710 		movq	16(%r15), %rax
 2666 0b1c 4C89F6   		movq	%r14, %rsi
 2667 0b1f 488D78E8 		leaq	-24(%rax), %rdi
 2668 0b23 E8000000 		call	_ZNSs4_Rep10_M_disposeERKSaIcE@PLT
 2668      00
 2669              	.L473:
 2670 0b28 498B4708 		movq	8(%r15), %rax
 2671 0b2c 4C89F6   		movq	%r14, %rsi
 2672 0b2f 488D78E8 		leaq	-24(%rax), %rdi
 2673 0b33 E8000000 		call	_ZNSs4_Rep10_M_disposeERKSaIcE@PLT
 2673      00
 2674              	.L470:
 2675 0b38 498B07   		movq	(%r15), %rax
 2676 0b3b 4C89F6   		movq	%r14, %rsi
 2677 0b3e 488D78E8 		leaq	-24(%rax), %rdi
 2678 0b42 E8000000 		call	_ZNSs4_Rep10_M_disposeERKSaIcE@PLT
 2678      00
 2679 0b47 4889D8   		movq	%rbx, %rax
 2680 0b4a E9F1FEFF 		jmp	.L491
 2680      FF
 2681              	.L573:
 2682 0b4f 4889C3   		movq	%rax, %rbx
 2683 0b52 E96CFFFF 		jmp	.L437
 2683      FF
 2684              	.L578:
 2685 0b57 4889C3   		movq	%rax, %rbx
 2686 0b5a E8000000 		call	__cxa_end_catch@PLT
 2686      00
 2687 0b5f 4889DF   		movq	%rbx, %rdi
 2688 0b62 E8000000 		call	__cxa_begin_catch@PLT
 2688      00
 2689 0b67 48837C24 		cmpq	$0, 40(%rsp)
 2689      2800
 2690 0b6d 7446     		je	.L463
 2691 0b6f 488B4424 		movq	32(%rsp), %rax
 2691      20
 2692 0b74 48394424 		cmpq	%rax, 40(%rsp)
 2692      28
 2693 0b79 4889C3   		movq	%rax, %rbx
 2694 0b7c 7441     		je	.L533
 2695              	.L613:
 2696 0b7e 4889DF   		movq	%rbx, %rdi
 2697 0b81 4883C338 		addq	$56, %rbx
 2698 0b85 E8000000 		call	_ZN8UnitTest18DeferredTestResultD1Ev@PLT
 2698      00
 2699 0b8a 48395C24 		cmpq	%rbx, 40(%rsp)
 2699      28
 2700 0b8f 75ED     		jne	.L613
 2701 0b91 EB2C     		jmp	.L533
 2702              	.L660:
 2703              		.p2align 4,,6
 2704              	.LEHB56:
 2705 0b93 E8000000 		call	_ZSt17__throw_bad_allocv@PLT
 2705      00
 2706              	.LEHE56:
 2707              	.L582:
 2708 0b98 0F1F8400 		.p2align 4,,8
 2708      00000000 
 2709 0ba0 E96BFFFF 		jmp	.L641
 2709      FF
 2710              	.L571:
 2711 0ba5 4889C3   		movq	%rax, %rbx
 2712              		.p2align 4,,5
 2713 0ba8 E8000000 		call	__cxa_end_catch@PLT
 2713      00
 2714 0bad 4889DF   		movq	%rbx, %rdi
 2715 0bb0 E8000000 		call	__cxa_begin_catch@PLT
 2715      00
 2716              	.L463:
 2717 0bb5 488B7C24 		movq	56(%rsp), %rdi
 2717      38
 2718 0bba E8000000 		call	_ZN8UnitTest18DeferredTestResultD1Ev@PLT
 2718      00
 2719              	.L533:
 2720 0bbf 48837C24 		cmpq	$0, 32(%rsp)
 2720      2000
 2721 0bc5 740A     		je	.L536
 2722              	.L633:
 2723 0bc7 488B7C24 		movq	32(%rsp), %rdi
 2723      20
 2724 0bcc E8000000 		call	_ZdlPv@PLT
 2724      00
 2725              	.L536:
 2726              	.LEHB57:
 2727 0bd1 E8000000 		call	__cxa_rethrow@PLT
 2727      00
 2728              	.LEHE57:
 2729              	.L584:
 2730 0bd6 4889C7   		movq	%rax, %rdi
 2731 0bd9 4C89ED   		movq	%r13, %rbp
 2732 0bdc 4C8D7424 		leaq	96(%rsp), %r14
 2732      60
 2733 0be1 E8000000 		call	__cxa_begin_catch@PLT
 2733      00
 2734 0be6 4939DD   		cmpq	%rbx, %r13
 2735 0be9 4D8D6508 		leaq	8(%r13), %r12
 2736 0bed 741F     		je	.L489
 2737              	.L611:
 2738 0bef 4C89E8   		movq	%r13, %rax
 2739 0bf2 4C89F6   		movq	%r14, %rsi
 2740 0bf5 4983C510 		addq	$16, %r13
 2741 0bf9 4829E8   		subq	%rbp, %rax
 2742 0bfc 498B3C04 		movq	(%r12,%rax), %rdi
 2743 0c00 4883EF18 		subq	$24, %rdi
 2744 0c04 E8000000 		call	_ZNSs4_Rep10_M_disposeERKSaIcE@PLT
 2744      00
 2745 0c09 4939DD   		cmpq	%rbx, %r13
 2746 0c0c 75E1     		jne	.L611
 2747              	.L489:
 2748              	.LEHB58:
 2749 0c0e E8000000 		call	__cxa_rethrow@PLT
 2749      00
 2750              	.LEHE58:
 2751              	.L648:
 2752              		.p2align 4,,5
 2753              	.LEHB59:
 2754 0c13 E8000000 		call	_ZSt17__throw_bad_allocv@PLT
 2754      00
 2755              	.LEHE59:
 2756              	.L561:
 2757 0c18 488D6C24 		leaq	95(%rsp), %rbp
 2757      5F
 2758 0c1d 4889C3   		movq	%rax, %rbx
 2759              	.L381:
 2760 0c20 488B4424 		movq	96(%rsp), %rax
 2760      60
 2761 0c25 4889EE   		movq	%rbp, %rsi
 2762 0c28 488D78E8 		leaq	-24(%rax), %rdi
 2763 0c2c E8000000 		call	_ZNSs4_Rep10_M_disposeERKSaIcE@PLT
 2763      00
 2764 0c31 4889DF   		movq	%rbx, %rdi
 2765              	.LEHB60:
 2766 0c34 E8000000 		call	_Unwind_Resume@PLT
 2766      00
 2767              	.LEHE60:
 2768              	.L562:
 2769 0c39 488D6C24 		leaq	95(%rsp), %rbp
 2769      5F
 2770 0c3e 4889C3   		movq	%rax, %rbx
 2771              	.L380:
 2772 0c41 488B4424 		movq	104(%rsp), %rax
 2772      68
 2773 0c46 4889EE   		movq	%rbp, %rsi
 2774 0c49 488D78E8 		leaq	-24(%rax), %rdi
 2775 0c4d E8000000 		call	_ZNSs4_Rep10_M_disposeERKSaIcE@PLT
 2775      00
 2776 0c52 EBCC     		jmp	.L381
 2777              	.L565:
 2778 0c54 4889C7   		movq	%rax, %rdi
 2779 0c57 4D89FC   		movq	%r15, %r12
 2780 0c5a 488D6C24 		leaq	95(%rsp), %rbp
 2780      5F
 2781 0c5f E8000000 		call	__cxa_begin_catch@PLT
 2781      00
 2782 0c64 4939DF   		cmpq	%rbx, %r15
 2783 0c67 4D8D6F08 		leaq	8(%r15), %r13
 2784 0c6b 7456     		je	.L663
 2785              	.L378:
 2786 0c6d 4C89E0   		movq	%r12, %rax
 2787 0c70 4889EE   		movq	%rbp, %rsi
 2788 0c73 4983C410 		addq	$16, %r12
 2789 0c77 4C29F8   		subq	%r15, %rax
 2790 0c7a 498B7C05 		movq	0(%r13,%rax), %rdi
 2790      00
 2791 0c7f 4883EF18 		subq	$24, %rdi
 2792 0c83 E8000000 		call	_ZNSs4_Rep10_M_disposeERKSaIcE@PLT
 2792      00
 2793 0c88 4939DC   		cmpq	%rbx, %r12
 2794 0c8b 75E0     		jne	.L378
 2795              	.L377:
 2796              	.LEHB61:
 2797 0c8d E8000000 		call	__cxa_rethrow@PLT
 2797      00
 2798              	.LEHE61:
 2799              	.L557:
 2800 0c92 4C8D7424 		leaq	96(%rsp), %r14
 2800      60
 2801 0c97 4889C3   		movq	%rax, %rbx
 2802              	.L361:
 2803 0c9a 498B4424 		movq	8(%r12), %rax
 2803      08
 2804 0c9f 4C89F6   		movq	%r14, %rsi
 2805 0ca2 488D78E8 		leaq	-24(%rax), %rdi
 2806 0ca6 E8000000 		call	_ZNSs4_Rep10_M_disposeERKSaIcE@PLT
 2806      00
 2807              	.L362:
 2808 0cab 498B3C24 		movq	(%r12), %rdi
 2809 0caf 4C89F6   		movq	%r14, %rsi
 2810 0cb2 4883EF18 		subq	$24, %rdi
 2811 0cb6 E8000000 		call	_ZNSs4_Rep10_M_disposeERKSaIcE@PLT
 2811      00
 2812 0cbb 4889DF   		movq	%rbx, %rdi
 2813              	.LEHB62:
 2814 0cbe E8000000 		call	_Unwind_Resume@PLT
 2814      00
 2815              	.LEHE62:
 2816              	.L663:
 2817 0cc3 488D6C24 		leaq	95(%rsp), %rbp
 2817      5F
 2818 0cc8 EBC3     		jmp	.L377
 2819              	.L564:
 2820 0cca 4889C3   		movq	%rax, %rbx
 2821 0ccd E8000000 		call	__cxa_end_catch@PLT
 2821      00
 2822 0cd2 488B7C24 		movq	120(%rsp), %rdi
 2822      78
 2823 0cd7 4885FF   		testq	%rdi, %rdi
 2824 0cda 7405     		je	.L379
 2825 0cdc E8000000 		call	_ZdlPv@PLT
 2825      00
 2826              	.L379:
 2827 0ce1 488B4424 		movq	112(%rsp), %rax
 2827      70
 2828 0ce6 4889EE   		movq	%rbp, %rsi
 2829 0ce9 488D78E8 		leaq	-24(%rax), %rdi
 2830 0ced E8000000 		call	_ZNSs4_Rep10_M_disposeERKSaIcE@PLT
 2830      00
 2831 0cf2 E94AFFFF 		jmp	.L380
 2831      FF
 2832              	.L556:
 2833 0cf7 4889C3   		movq	%rax, %rbx
 2834 0cfa 4C8D7424 		leaq	96(%rsp), %r14
 2834      60
 2835 0cff EBAA     		jmp	.L362
 2836              	.L563:
 2837 0d01 4889C3   		movq	%rax, %rbx
 2838 0d04 488D6C24 		leaq	95(%rsp), %rbp
 2838      5F
 2839 0d09 EBD6     		jmp	.L379
 2840              	.L554:
 2841 0d0b 4889C3   		movq	%rax, %rbx
 2842 0d0e 4C89F7   		movq	%r14, %rdi
 2843 0d11 E8000000 		call	_ZN8UnitTest18DeferredTestResultD1Ev@PLT
 2843      00
 2844 0d16 4889DF   		movq	%rbx, %rdi
 2845              	.LEHB63:
 2846 0d19 E8000000 		call	_Unwind_Resume@PLT
 2846      00
 2847              	.LEHE63:
 2848              	.L647:
 2849 0d1e 48833D00 		cmpq	$0, _ZL28__gthrw___pthread_key_createPjPFvPvE@GOTPCREL(%rip)
 2849      00000000 
 2850 0d26 488D5710 		leaq	16(%rdi), %rdx
 2851 0d2a 0F84B800 		je	.L407
 2851      0000
 2852 0d30 B8FFFFFF 		movl	$-1, %eax
 2852      FF
 2853 0d35 F00FC102 		lock xaddl	%eax, (%rdx)
 2854              	.L408:
 2855 0d39 85C0     		testl	%eax, %eax
 2856 0d3b 0F8F24F6 		jg	.L343
 2856      FFFF
 2857 0d41 488D7424 		leaq	95(%rsp), %rsi
 2857      5F
 2858 0d46 E8000000 		call	_ZNSs4_Rep10_M_destroyERKSaIcE@PLT
 2858      00
 2859 0d4b E915F6FF 		jmp	.L343
 2859      FF
 2860              	.L657:
 2861 0d50 48833D00 		cmpq	$0, _ZL28__gthrw___pthread_key_createPjPFvPvE@GOTPCREL(%rip)
 2861      00000000 
 2862 0d58 488D4F10 		leaq	16(%rdi), %rcx
 2863 0d5c 0F841C01 		je	.L519
 2863      0000
 2864 0d62 BAFFFFFF 		movl	$-1, %edx
 2864      FF
 2865 0d67 F00FC111 		lock xaddl	%edx, (%rcx)
 2866              	.L520:
 2867 0d6b 85D2     		testl	%edx, %edx
 2868 0d6d 0F8F07FB 		jg	.L518
 2868      FFFF
 2869 0d73 488B7424 		movq	24(%rsp), %rsi
 2869      18
 2870 0d78 E8000000 		call	_ZNSs4_Rep10_M_destroyERKSaIcE@PLT
 2870      00
 2871 0d7d E9F8FAFF 		jmp	.L518
 2871      FF
 2872              	.L581:
 2873 0d82 4889C3   		movq	%rax, %rbx
 2874 0d85 4C8D7424 		leaq	96(%rsp), %r14
 2874      60
 2875 0d8a E999FDFF 		jmp	.L473
 2875      FF
 2876              	.L586:
 2877              	.L640:
 2878 0d8f 4C8D7424 		leaq	96(%rsp), %r14
 2878      60
 2879 0d94 4889C3   		movq	%rax, %rbx
 2880              	.L444:
 2881 0d97 488B0424 		movq	(%rsp), %rax
 2882 0d9b 4C89F6   		movq	%r14, %rsi
 2883 0d9e 488B4010 		movq	16(%rax), %rax
 2884 0da2 488D78E8 		leaq	-24(%rax), %rdi
 2885 0da6 48894424 		movq	%rax, 8(%rsp)
 2885      08
 2886 0dab E8000000 		call	_ZNSs4_Rep10_M_disposeERKSaIcE@PLT
 2886      00
 2887 0db0 E9F5FCFF 		jmp	.L440
 2887      FF
 2888              	.L661:
 2889              	.LEHB64:
 2890 0db5 E8000000 		call	_ZSt17__throw_bad_allocv@PLT
 2890      00
 2891              	.LEHE64:
 2892              	.L656:
 2893 0dba 48833D00 		cmpq	$0, _ZL28__gthrw___pthread_key_createPjPFvPvE@GOTPCREL(%rip)
 2893      00000000 
 2894 0dc2 488D4F10 		leaq	16(%rdi), %rcx
 2895 0dc6 7432     		je	.L514
 2896 0dc8 BAFFFFFF 		movl	$-1, %edx
 2896      FF
 2897 0dcd F00FC111 		lock xaddl	%edx, (%rcx)
 2898              	.L515:
 2899 0dd1 85D2     		testl	%edx, %edx
 2900 0dd3 0F8F8FFA 		jg	.L513
 2900      FFFF
 2901 0dd9 488B7424 		movq	24(%rsp), %rsi
 2901      18
 2902 0dde E8000000 		call	_ZNSs4_Rep10_M_destroyERKSaIcE@PLT
 2902      00
 2903 0de3 E980FAFF 		jmp	.L513
 2903      FF
 2904              	.L407:
 2905 0de8 8B50F8   		movl	-8(%rax), %edx
 2906 0deb 8D4AFF   		leal	-1(%rdx), %ecx
 2907 0dee 8948F8   		movl	%ecx, -8(%rax)
 2908 0df1 89D0     		movl	%edx, %eax
 2909 0df3 E941FFFF 		jmp	.L408
 2909      FF
 2910              	.L575:
 2911 0df8 EB95     		jmp	.L640
 2912              	.L514:
 2913 0dfa 8B4AF8   		movl	-8(%rdx), %ecx
 2914 0dfd 8D71FF   		leal	-1(%rcx), %esi
 2915 0e00 8972F8   		movl	%esi, -8(%rdx)
 2916 0e03 89CA     		movl	%ecx, %edx
 2917 0e05 EBCA     		jmp	.L515
 2918              	.L506:
 2919 0e07 4C89C8   		movq	%r9, %rax
 2920 0e0a 4829E8   		subq	%rbp, %rax
 2921 0e0d 488B0401 		movq	(%rcx,%rax), %rax
 2922 0e11 488D78E8 		leaq	-24(%rax), %rdi
 2923 0e15 4839DF   		cmpq	%rbx, %rdi
 2924 0e18 751E     		jne	.L664
 2925              	.L504:
 2926 0e1a 4983C110 		addq	$16, %r9
 2927 0e1e 4C39CA   		cmpq	%r9, %rdx
 2928 0e21 75E4     		jne	.L506
 2929 0e23 E918FAFF 		jmp	.L505
 2929      FF
 2930              	.L555:
 2931 0e28 4889C3   		movq	%rax, %rbx
 2932 0e2b E8000000 		call	__cxa_end_catch@PLT
 2932      00
 2933 0e30 4889DF   		movq	%rbx, %rdi
 2934              	.LEHB65:
 2935 0e33 E8000000 		call	_Unwind_Resume@PLT
 2935      00
 2936              	.LEHE65:
 2937              	.L664:
 2938 0e38 8B70F8   		movl	-8(%rax), %esi
 2939 0e3b 448D46FF 		leal	-1(%rsi), %r8d
 2940 0e3f 85F6     		testl	%esi, %esi
 2941 0e41 448940F8 		movl	%r8d, -8(%rax)
 2942 0e45 7FD3     		jg	.L504
 2943 0e47 488B7424 		movq	24(%rsp), %rsi
 2943      18
 2944 0e4c 48894C24 		movq	%rcx, 72(%rsp)
 2944      48
 2945 0e51 48895424 		movq	%rdx, 56(%rsp)
 2945      38
 2946 0e56 4C894C24 		movq	%r9, 48(%rsp)
 2946      30
 2947 0e5b E8000000 		call	_ZNSs4_Rep10_M_destroyERKSaIcE@PLT
 2947      00
 2948 0e60 488B4C24 		movq	72(%rsp), %rcx
 2948      48
 2949 0e65 488B5424 		movq	56(%rsp), %rdx
 2949      38
 2950 0e6a 4C8B4C24 		movq	48(%rsp), %r9
 2950      30
 2951 0e6f EBA9     		jmp	.L504
 2952              	.L580:
 2953 0e71 4889C3   		movq	%rax, %rbx
 2954 0e74 4C8D7424 		leaq	96(%rsp), %r14
 2954      60
 2955 0e79 E9BAFCFF 		jmp	.L470
 2955      FF
 2956              	.L519:
 2957 0e7e 8B4AF8   		movl	-8(%rdx), %ecx
 2958 0e81 8D71FF   		leal	-1(%rcx), %esi
 2959 0e84 8972F8   		movl	%esi, -8(%rdx)
 2960 0e87 89CA     		movl	%ecx, %edx
 2961 0e89 E9DDFEFF 		jmp	.L520
 2961      FF
 2962              	.L572:
 2963 0e8e E94DFCFF 		jmp	.L458
 2963      FF
 2964              	.L577:
 2965 0e93 4889C7   		movq	%rax, %rdi
 2966 0e96 4C89ED   		movq	%r13, %rbp
 2967 0e99 4C8D7424 		leaq	96(%rsp), %r14
 2967      60
 2968 0e9e E8000000 		call	__cxa_begin_catch@PLT
 2968      00
 2969 0ea3 4939DD   		cmpq	%rbx, %r13
 2970 0ea6 4D8D6508 		leaq	8(%r13), %r12
 2971 0eaa 741F     		je	.L456
 2972              	.L609:
 2973 0eac 4C89E8   		movq	%r13, %rax
 2974 0eaf 4C89F6   		movq	%r14, %rsi
 2975 0eb2 4983C510 		addq	$16, %r13
 2976 0eb6 4829E8   		subq	%rbp, %rax
 2977 0eb9 498B3C04 		movq	(%r12,%rax), %rdi
 2978 0ebd 4883EF18 		subq	$24, %rdi
 2979 0ec1 E8000000 		call	_ZNSs4_Rep10_M_disposeERKSaIcE@PLT
 2979      00
 2980 0ec6 4939DD   		cmpq	%rbx, %r13
 2981 0ec9 75E1     		jne	.L609
 2982              	.L456:
 2983              	.LEHB66:
 2984 0ecb E8000000 		call	__cxa_rethrow@PLT
 2984      00
 2985              	.LEHE66:
 2986              	.L567:
 2987 0ed0 4C8D7424 		leaq	96(%rsp), %r14
 2987      60
 2988 0ed5 4889C3   		movq	%rax, %rbx
 2989              	.L430:
 2990 0ed8 488B4424 		movq	56(%rsp), %rax
 2990      38
 2991 0edd 4C89F6   		movq	%r14, %rsi
 2992 0ee0 488B4008 		movq	8(%rax), %rax
 2993 0ee4 488D78E8 		leaq	-24(%rax), %rdi
 2994 0ee8 48890424 		movq	%rax, (%rsp)
 2995 0eec E8000000 		call	_ZNSs4_Rep10_M_disposeERKSaIcE@PLT
 2995      00
 2996              	.L431:
 2997 0ef1 488B4424 		movq	56(%rsp), %rax
 2997      38
 2998 0ef6 488D7424 		leaq	94(%rsp), %rsi
 2998      5E
 2999 0efb 488B00   		movq	(%rax), %rax
 3000 0efe 488D78E8 		leaq	-24(%rax), %rdi
 3001 0f02 48890424 		movq	%rax, (%rsp)
 3002 0f06 E8000000 		call	_ZNSs4_Rep10_M_disposeERKSaIcE@PLT
 3002      00
 3003 0f0b 4889D8   		movq	%rbx, %rax
 3004              	.L432:
 3005 0f0e 4889C7   		movq	%rax, %rdi
 3006 0f11 E8000000 		call	__cxa_begin_catch@PLT
 3006      00
 3007 0f16 48837C24 		cmpq	$0, 32(%rsp)
 3007      2000
 3008 0f1c 0F85A5FC 		jne	.L633
 3008      FFFF
 3009 0f22 E98EFCFF 		jmp	.L463
 3009      FF
 3010              	.L566:
 3011 0f27 4889C3   		movq	%rax, %rbx
 3012              		.p2align 4,,2
 3013 0f2a EBC5     		jmp	.L431
 3014              	.L658:
 3015 0f2c 48833D00 		cmpq	$0, _ZL28__gthrw___pthread_key_createPjPFvPvE@GOTPCREL(%rip)
 3015      00000000 
 3016 0f34 488D4F10 		leaq	16(%rdi), %rcx
 3017 0f38 0F84C900 		je	.L524
 3017      0000
 3018 0f3e BAFFFFFF 		movl	$-1, %edx
 3018      FF
 3019 0f43 F00FC111 		lock xaddl	%edx, (%rcx)
 3020              	.L525:
 3021 0f47 85D2     		testl	%edx, %edx
 3022 0f49 0F8F3CF9 		jg	.L523
 3022      FFFF
 3023 0f4f 488B7424 		movq	24(%rsp), %rsi
 3023      18
 3024 0f54 E8000000 		call	_ZNSs4_Rep10_M_destroyERKSaIcE@PLT
 3024      00
 3025 0f59 E92DF9FF 		jmp	.L523
 3025      FF
 3026              	.L560:
 3027 0f5e 4889C7   		movq	%rax, %rdi
 3028 0f61 4C89FD   		movq	%r15, %rbp
 3029 0f64 4C8D7424 		leaq	96(%rsp), %r14
 3029      60
 3030 0f69 E8000000 		call	__cxa_begin_catch@PLT
 3030      00
 3031 0f6e 4939DF   		cmpq	%rbx, %r15
 3032 0f71 4D8D6F08 		leaq	8(%r15), %r13
 3033 0f75 0F84DC00 		je	.L665
 3033      0000
 3034              	.L359:
 3035 0f7b 4889E8   		movq	%rbp, %rax
 3036 0f7e 4C89F6   		movq	%r14, %rsi
 3037 0f81 4883C510 		addq	$16, %rbp
 3038 0f85 4C29F8   		subq	%r15, %rax
 3039 0f88 498B7C05 		movq	0(%r13,%rax), %rdi
 3039      00
 3040 0f8d 4883EF18 		subq	$24, %rdi
 3041 0f91 E8000000 		call	_ZNSs4_Rep10_M_disposeERKSaIcE@PLT
 3041      00
 3042 0f96 4839DD   		cmpq	%rbx, %rbp
 3043 0f99 75E0     		jne	.L359
 3044              	.L358:
 3045              	.LEHB67:
 3046 0f9b E8000000 		call	__cxa_rethrow@PLT
 3046      00
 3047              	.LEHE67:
 3048              	.L585:
 3049              		.p2align 4,,5
 3050 0fa0 E969FFFF 		jmp	.L432
 3050      FF
 3051              	.L576:
 3052 0fa5 4889C3   		movq	%rax, %rbx
 3053              		.p2align 4,,5
 3054 0fa8 E8000000 		call	__cxa_end_catch@PLT
 3054      00
 3055 0fad 488B0424 		movq	(%rsp), %rax
 3056 0fb1 488B7818 		movq	24(%rax), %rdi
 3057 0fb5 4885FF   		testq	%rdi, %rdi
 3058 0fb8 0F84D9FD 		je	.L444
 3058      FFFF
 3059 0fbe E8000000 		call	_ZdlPv@PLT
 3059      00
 3060 0fc3 E9CFFDFF 		jmp	.L444
 3060      FF
 3061              	.L570:
 3062 0fc8 4889C7   		movq	%rax, %rdi
 3063 0fcb 4C89E5   		movq	%r12, %rbp
 3064 0fce 4C8D7424 		leaq	96(%rsp), %r14
 3064      60
 3065 0fd3 E8000000 		call	__cxa_begin_catch@PLT
 3065      00
 3066 0fd8 4939DC   		cmpq	%rbx, %r12
 3067 0fdb 4D8D6C24 		leaq	8(%r12), %r13
 3067      08
 3068 0fe0 7435     		je	.L666
 3069              	.L428:
 3070 0fe2 4889E8   		movq	%rbp, %rax
 3071 0fe5 4C89F6   		movq	%r14, %rsi
 3072 0fe8 4883C510 		addq	$16, %rbp
 3073 0fec 4C29E0   		subq	%r12, %rax
 3074 0fef 498B7C05 		movq	0(%r13,%rax), %rdi
 3074      00
 3075 0ff4 4883EF18 		subq	$24, %rdi
 3076 0ff8 E8000000 		call	_ZNSs4_Rep10_M_disposeERKSaIcE@PLT
 3076      00
 3077 0ffd 4839DD   		cmpq	%rbx, %rbp
 3078 1000 75E0     		jne	.L428
 3079              	.L427:
 3080              	.LEHB68:
 3081 1002 E8000000 		call	__cxa_rethrow@PLT
 3081      00
 3082              	.LEHE68:
 3083              	.L524:
 3084 1007 8B4AF8   		movl	-8(%rdx), %ecx
 3085 100a 8D71FF   		leal	-1(%rcx), %esi
 3086 100d 8972F8   		movl	%esi, -8(%rdx)
 3087 1010 89CA     		movl	%ecx, %edx
 3088 1012 E930FFFF 		jmp	.L525
 3088      FF
 3089              	.L666:
 3090 1017 4C8D7424 		leaq	96(%rsp), %r14
 3090      60
 3091 101c EBE4     		jmp	.L427
 3092              	.L569:
 3093 101e 4889C3   		movq	%rax, %rbx
 3094 1021 E8000000 		call	__cxa_end_catch@PLT
 3094      00
 3095 1026 488B4424 		movq	56(%rsp), %rax
 3095      38
 3096 102b 488B7818 		movq	24(%rax), %rdi
 3097 102f 4885FF   		testq	%rdi, %rdi
 3098 1032 7405     		je	.L429
 3099 1034 E8000000 		call	_ZdlPv@PLT
 3099      00
 3100              	.L429:
 3101 1039 488B4424 		movq	56(%rsp), %rax
 3101      38
 3102 103e 4C89F6   		movq	%r14, %rsi
 3103 1041 488B4010 		movq	16(%rax), %rax
 3104 1045 488D78E8 		leaq	-24(%rax), %rdi
 3105 1049 48890424 		movq	%rax, (%rsp)
 3106 104d E8000000 		call	_ZNSs4_Rep10_M_disposeERKSaIcE@PLT
 3106      00
 3107 1052 E981FEFF 		jmp	.L430
 3107      FF
 3108              	.L665:
 3109 1057 4C8D7424 		leaq	96(%rsp), %r14
 3109      60
 3110 105c E93AFFFF 		jmp	.L358
 3110      FF
 3111              	.L559:
 3112 1061 4889C3   		movq	%rax, %rbx
 3113 1064 E8000000 		call	__cxa_end_catch@PLT
 3113      00
 3114 1069 498B7C24 		movq	24(%r12), %rdi
 3114      18
 3115 106e 4885FF   		testq	%rdi, %rdi
 3116 1071 7405     		je	.L360
 3117 1073 E8000000 		call	_ZdlPv@PLT
 3117      00
 3118              	.L360:
 3119 1078 498B4424 		movq	16(%r12), %rax
 3119      10
 3120 107d 4C89F6   		movq	%r14, %rsi
 3121 1080 488D78E8 		leaq	-24(%rax), %rdi
 3122 1084 E8000000 		call	_ZNSs4_Rep10_M_disposeERKSaIcE@PLT
 3122      00
 3123 1089 E90CFCFF 		jmp	.L361
 3123      FF
 3124              	.L646:
 3125 108e 48833D00 		cmpq	$0, _ZL28__gthrw___pthread_key_createPjPFvPvE@GOTPCREL(%rip)
 3125      00000000 
 3126 1096 488D5710 		leaq	16(%rdi), %rdx
 3127 109a 7441     		je	.L402
 3128 109c B8FFFFFF 		movl	$-1, %eax
 3128      FF
 3129 10a1 F00FC102 		lock xaddl	%eax, (%rdx)
 3130              	.L403:
 3131 10a5 85C0     		testl	%eax, %eax
 3132 10a7 0F8FA6F2 		jg	.L401
 3132      FFFF
 3133 10ad 488D7424 		leaq	95(%rsp), %rsi
 3133      5F
 3134 10b2 E8000000 		call	_ZNSs4_Rep10_M_destroyERKSaIcE@PLT
 3134      00
 3135 10b7 E997F2FF 		jmp	.L401
 3135      FF
 3136              	.L389:
 3137 10bc 4889E8   		movq	%rbp, %rax
 3138 10bf 4C29E0   		subq	%r12, %rax
 3139 10c2 498B0406 		movq	(%r14,%rax), %rax
 3140 10c6 488D78E8 		leaq	-24(%rax), %rdi
 3141 10ca 4839DF   		cmpq	%rbx, %rdi
 3142 10cd 751B     		jne	.L667
 3143              	.L387:
 3144 10cf 4883C510 		addq	$16, %rbp
 3145 10d3 4939ED   		cmpq	%rbp, %r13
 3146 10d6 75E4     		jne	.L389
 3147 10d8 E943F2FF 		jmp	.L388
 3147      FF
 3148              	.L402:
 3149 10dd 8B50F8   		movl	-8(%rax), %edx
 3150 10e0 8D4AFF   		leal	-1(%rdx), %ecx
 3151 10e3 8948F8   		movl	%ecx, -8(%rax)
 3152 10e6 89D0     		movl	%edx, %eax
 3153 10e8 EBBB     		jmp	.L403
 3154              	.L667:
 3155 10ea 8B50F8   		movl	-8(%rax), %edx
 3156 10ed 8D4AFF   		leal	-1(%rdx), %ecx
 3157 10f0 85D2     		testl	%edx, %edx
 3158 10f2 8948F8   		movl	%ecx, -8(%rax)
 3159 10f5 7FD8     		jg	.L387
 3160 10f7 4C89FE   		movq	%r15, %rsi
 3161 10fa E8000000 		call	_ZNSs4_Rep10_M_destroyERKSaIcE@PLT
 3161      00
 3162 10ff EBCE     		jmp	.L387
 3163              	.L568:
 3164 1101 4889C3   		movq	%rax, %rbx
 3165 1104 4C8D7424 		leaq	96(%rsp), %r14
 3165      60
 3166 1109 E92BFFFF 		jmp	.L429
 3166      FF
 3167              	.L662:
 3168              	.LEHB69:
 3169 110e E8000000 		call	_ZSt17__throw_bad_allocv@PLT
 3169      00
 3170              	.LEHE69:
 3171              	.L649:
 3172              	.LEHB70:
 3173 1113 E8000000 		call	_ZSt17__throw_bad_allocv@PLT
 3173      00
 3174              	.LEHE70:
 3175              	.L645:
 3176 1118 48833D00 		cmpq	$0, _ZL28__gthrw___pthread_key_createPjPFvPvE@GOTPCREL(%rip)
 3176      00000000 
 3177 1120 488D5710 		leaq	16(%rdi), %rdx
 3178 1124 742D     		je	.L397
 3179 1126 B8FFFFFF 		movl	$-1, %eax
 3179      FF
 3180 112b F00FC102 		lock xaddl	%eax, (%rdx)
 3181              	.L398:
 3182 112f 85C0     		testl	%eax, %eax
 3183 1131 0F8F0AF2 		jg	.L396
 3183      FFFF
 3184 1137 488D7424 		leaq	95(%rsp), %rsi
 3184      5F
 3185 113c E8000000 		call	_ZNSs4_Rep10_M_destroyERKSaIcE@PLT
 3185      00
 3186 1141 E9FBF1FF 		jmp	.L396
 3186      FF
 3187              	.L558:
 3188 1146 4889C3   		movq	%rax, %rbx
 3189 1149 4C8D7424 		leaq	96(%rsp), %r14
 3189      60
 3190 114e E925FFFF 		jmp	.L360
 3190      FF
 3191              	.L397:
 3192 1153 8B50F8   		movl	-8(%rax), %edx
 3193 1156 8D4AFF   		leal	-1(%rdx), %ecx
 3194 1159 8948F8   		movl	%ecx, -8(%rax)
 3195 115c 89D0     		movl	%edx, %eax
 3196 115e EBCF     		jmp	.L398
 3197              	.L583:
 3198 1160 4889C3   		movq	%rax, %rbx
 3199 1163 E8000000 		call	__cxa_end_catch@PLT
 3199      00
 3200 1168 498B7F18 		movq	24(%r15), %rdi
 3201 116c 4885FF   		testq	%rdi, %rdi
 3202 116f 0F84A3F9 		je	.L477
 3202      FFFF
 3203 1175 E8000000 		call	_ZdlPv@PLT
 3203      00
 3204 117a E999F9FF 		jmp	.L477
 3204      FF
 3205              		.cfi_endproc
 3206              	.LFE891:
 3207              		.section	.gcc_except_table
 3208              		.align 4
 3209              	.LLSDA891:
 3210 006c FF       		.byte	0xff
 3211 006d 9B       		.byte	0x9b
 3212 006e 8C02     		.uleb128 .LLSDATT891-.LLSDATTD891
 3213              	.LLSDATTD891:
 3214 0070 01       		.byte	0x1
 3215 0071 FE01     		.uleb128 .LLSDACSE891-.LLSDACSB891
 3216              	.LLSDACSB891:
 3217 0073 40       		.uleb128 .LEHB27-.LFB891
 3218 0074 05       		.uleb128 .LEHE27-.LEHB27
 3219 0075 00       		.uleb128 0
 3220 0076 00       		.uleb128 0
 3221 0077 4E       		.uleb128 .LEHB28-.LFB891
 3222 0078 05       		.uleb128 .LEHE28-.LEHB28
 3223 0079 F719     		.uleb128 .L556-.LFB891
 3224 007b 00       		.uleb128 0
 3225 007c 5C       		.uleb128 .LEHB29-.LFB891
 3226 007d 05       		.uleb128 .LEHE29-.LEHB29
 3227 007e 9219     		.uleb128 .L557-.LFB891
 3228 0080 00       		.uleb128 0
 3229 0081 D201     		.uleb128 .LEHB30-.LFB891
 3230 0083 05       		.uleb128 .LEHE30-.LEHB30
 3231 0084 DE1E     		.uleb128 .L560-.LFB891
 3232 0086 01       		.uleb128 0x1
 3233 0087 A302     		.uleb128 .LEHB31-.LFB891
 3234 0089 05       		.uleb128 .LEHE31-.LEHB31
 3235 008a 00       		.uleb128 0
 3236 008b 00       		.uleb128 0
 3237 008c B002     		.uleb128 .LEHB32-.LFB891
 3238 008e 05       		.uleb128 .LEHE32-.LEHB32
 3239 008f 9818     		.uleb128 .L561-.LFB891
 3240 0091 00       		.uleb128 0
 3241 0092 BD02     		.uleb128 .LEHB33-.LFB891
 3242 0094 05       		.uleb128 .LEHE33-.LEHB33
 3243 0095 B918     		.uleb128 .L562-.LFB891
 3244 0097 00       		.uleb128 0
 3245 0098 BA03     		.uleb128 .LEHB34-.LFB891
 3246 009a 05       		.uleb128 .LEHE34-.LEHB34
 3247 009b D418     		.uleb128 .L565-.LFB891
 3248 009d 01       		.uleb128 0x1
 3249 009e AD04     		.uleb128 .LEHB35-.LFB891
 3250 00a0 7C       		.uleb128 .LEHE35-.LEHB35
 3251 00a1 8B1A     		.uleb128 .L554-.LFB891
 3252 00a3 00       		.uleb128 0
 3253 00a4 9107     		.uleb128 .LEHB36-.LFB891
 3254 00a6 05       		.uleb128 .LEHE36-.LEHB36
 3255 00a7 C622     		.uleb128 .L558-.LFB891
 3256 00a9 00       		.uleb128 0
 3257 00aa CA07     		.uleb128 .LEHB37-.LFB891
 3258 00ac 05       		.uleb128 .LEHE37-.LEHB37
 3259 00ad 811A     		.uleb128 .L563-.LFB891
 3260 00af 00       		.uleb128 0
 3261 00b0 C208     		.uleb128 .LEHB38-.LFB891
 3262 00b2 05       		.uleb128 .LEHE38-.LEHB38
 3263 00b3 00       		.uleb128 0
 3264 00b4 00       		.uleb128 0
 3265 00b5 F108     		.uleb128 .LEHB39-.LFB891
 3266 00b7 05       		.uleb128 .LEHE39-.LEHB39
 3267 00b8 A01F     		.uleb128 .L585-.LFB891
 3268 00ba 01       		.uleb128 0x1
 3269 00bb FE08     		.uleb128 .LEHB40-.LFB891
 3270 00bd 05       		.uleb128 .LEHE40-.LEHB40
 3271 00be A71E     		.uleb128 .L566-.LFB891
 3272 00c0 03       		.uleb128 0x3
 3273 00c1 8B09     		.uleb128 .LEHB41-.LFB891
 3274 00c3 05       		.uleb128 .LEHE41-.LEHB41
 3275 00c4 D01D     		.uleb128 .L567-.LFB891
 3276 00c6 03       		.uleb128 0x3
 3277 00c7 820A     		.uleb128 .LEHB42-.LFB891
 3278 00c9 05       		.uleb128 .LEHE42-.LEHB42
 3279 00ca C81F     		.uleb128 .L570-.LFB891
 3280 00cc 01       		.uleb128 0x1
 3281 00cd F30A     		.uleb128 .LEHB43-.LFB891
 3282 00cf 05       		.uleb128 .LEHE43-.LEHB43
 3283 00d0 8E1D     		.uleb128 .L572-.LFB891
 3284 00d2 01       		.uleb128 0x1
 3285 00d3 800B     		.uleb128 .LEHB44-.LFB891
 3286 00d5 05       		.uleb128 .LEHE44-.LEHB44
 3287 00d6 CF16     		.uleb128 .L573-.LFB891
 3288 00d8 03       		.uleb128 0x3
 3289 00d9 910B     		.uleb128 .LEHB45-.LFB891
 3290 00db 05       		.uleb128 .LEHE45-.LEHB45
 3291 00dc A215     		.uleb128 .L574-.LFB891
 3292 00de 03       		.uleb128 0x3
 3293 00df 820C     		.uleb128 .LEHB46-.LFB891
 3294 00e1 05       		.uleb128 .LEHE46-.LEHB46
 3295 00e2 931D     		.uleb128 .L577-.LFB891
 3296 00e4 01       		.uleb128 0x1
 3297 00e5 AF0D     		.uleb128 .LEHB47-.LFB891
 3298 00e7 05       		.uleb128 .LEHE47-.LEHB47
 3299 00e8 C014     		.uleb128 .L579-.LFB891
 3300 00ea 01       		.uleb128 0x1
 3301 00eb BC0D     		.uleb128 .LEHB48-.LFB891
 3302 00ed 05       		.uleb128 .LEHE48-.LEHB48
 3303 00ee F11C     		.uleb128 .L580-.LFB891
 3304 00f0 03       		.uleb128 0x3
 3305 00f1 C90D     		.uleb128 .LEHB49-.LFB891
 3306 00f3 05       		.uleb128 .LEHE49-.LEHB49
 3307 00f4 821B     		.uleb128 .L581-.LFB891
 3308 00f6 03       		.uleb128 0x3
 3309 00f7 C20E     		.uleb128 .LEHB50-.LFB891
 3310 00f9 05       		.uleb128 .LEHE50-.LEHB50
 3311 00fa D617     		.uleb128 .L584-.LFB891
 3312 00fc 01       		.uleb128 0x1
 3313 00fd CD12     		.uleb128 .LEHB51-.LFB891
 3314 00ff 05       		.uleb128 .LEHE51-.LEHB51
 3315 0100 9016     		.uleb128 .L587-.LFB891
 3316 0102 03       		.uleb128 0x3
 3317 0103 FD12     		.uleb128 .LEHB52-.LFB891
 3318 0105 05       		.uleb128 .LEHE52-.LEHB52
 3319 0106 8F1B     		.uleb128 .L586-.LFB891
 3320 0108 03       		.uleb128 0x3
 3321 0109 AF13     		.uleb128 .LEHB53-.LFB891
 3322 010b 05       		.uleb128 .LEHE53-.LEHB53
 3323 010c 8122     		.uleb128 .L568-.LFB891
 3324 010e 03       		.uleb128 0x3
 3325 010f E614     		.uleb128 .LEHB54-.LFB891
 3326 0111 05       		.uleb128 .LEHE54-.LEHB54
 3327 0112 D716     		.uleb128 .L578-.LFB891
 3328 0114 03       		.uleb128 0x3
 3329 0115 8B16     		.uleb128 .LEHB55-.LFB891
 3330 0117 05       		.uleb128 .LEHE55-.LEHB55
 3331 0118 A517     		.uleb128 .L571-.LFB891
 3332 011a 03       		.uleb128 0x3
 3333 011b 9317     		.uleb128 .LEHB56-.LFB891
 3334 011d 05       		.uleb128 .LEHE56-.LEHB56
 3335 011e 9817     		.uleb128 .L582-.LFB891
 3336 0120 03       		.uleb128 0x3
 3337 0121 D117     		.uleb128 .LEHB57-.LFB891
 3338 0123 05       		.uleb128 .LEHE57-.LEHB57
 3339 0124 A81C     		.uleb128 .L555-.LFB891
 3340 0126 00       		.uleb128 0
 3341 0127 8E18     		.uleb128 .LEHB58-.LFB891
 3342 0129 05       		.uleb128 .LEHE58-.LEHB58
 3343 012a E022     		.uleb128 .L583-.LFB891
 3344 012c 03       		.uleb128 0x3
 3345 012d 9318     		.uleb128 .LEHB59-.LFB891
 3346 012f 05       		.uleb128 .LEHE59-.LEHB59
 3347 0130 C622     		.uleb128 .L558-.LFB891
 3348 0132 00       		.uleb128 0
 3349 0133 B418     		.uleb128 .LEHB60-.LFB891
 3350 0135 05       		.uleb128 .LEHE60-.LEHB60
 3351 0136 00       		.uleb128 0
 3352 0137 00       		.uleb128 0
 3353 0138 8D19     		.uleb128 .LEHB61-.LFB891
 3354 013a 05       		.uleb128 .LEHE61-.LEHB61
 3355 013b CA19     		.uleb128 .L564-.LFB891
 3356 013d 00       		.uleb128 0
 3357 013e BE19     		.uleb128 .LEHB62-.LFB891
 3358 0140 05       		.uleb128 .LEHE62-.LEHB62
 3359 0141 00       		.uleb128 0
 3360 0142 00       		.uleb128 0
 3361 0143 991A     		.uleb128 .LEHB63-.LFB891
 3362 0145 05       		.uleb128 .LEHE63-.LEHB63
 3363 0146 00       		.uleb128 0
 3364 0147 00       		.uleb128 0
 3365 0148 B51B     		.uleb128 .LEHB64-.LFB891
 3366 014a 05       		.uleb128 .LEHE64-.LEHB64
 3367 014b F81B     		.uleb128 .L575-.LFB891
 3368 014d 03       		.uleb128 0x3
 3369 014e B31C     		.uleb128 .LEHB65-.LFB891
 3370 0150 05       		.uleb128 .LEHE65-.LEHB65
 3371 0151 00       		.uleb128 0
 3372 0152 00       		.uleb128 0
 3373 0153 CB1D     		.uleb128 .LEHB66-.LFB891
 3374 0155 05       		.uleb128 .LEHE66-.LEHB66
 3375 0156 A51F     		.uleb128 .L576-.LFB891
 3376 0158 03       		.uleb128 0x3
 3377 0159 9B1F     		.uleb128 .LEHB67-.LFB891
 3378 015b 05       		.uleb128 .LEHE67-.LEHB67
 3379 015c E120     		.uleb128 .L559-.LFB891
 3380 015e 00       		.uleb128 0
 3381 015f 8220     		.uleb128 .LEHB68-.LFB891
 3382 0161 05       		.uleb128 .LEHE68-.LEHB68
 3383 0162 9E20     		.uleb128 .L569-.LFB891
 3384 0164 03       		.uleb128 0x3
 3385 0165 8E22     		.uleb128 .LEHB69-.LFB891
 3386 0167 05       		.uleb128 .LEHE69-.LEHB69
 3387 0168 8122     		.uleb128 .L568-.LFB891
 3388 016a 03       		.uleb128 0x3
 3389 016b 9322     		.uleb128 .LEHB70-.LFB891
 3390 016d 05       		.uleb128 .LEHE70-.LEHB70
 3391 016e 811A     		.uleb128 .L563-.LFB891
 3392 0170 00       		.uleb128 0
 3393              	.LLSDACSE891:
 3394 0171 01       		.byte	0x1
 3395 0172 00       		.byte	0
 3396 0173 00       		.byte	0
 3397 0174 7D       		.byte	0x7d
 3398 0175 000000   		.align 4
 3399 0178 00000000 		.long	0
 3400              	
 3401              	.LLSDATT891:
 3402              		.section	.text._ZNSt6vectorIN8UnitTest18DeferredTestResultESaIS1_EE13_M_insert_auxEN9__gnu_cxx17__
 3404              		.text
 3405 01a9 90       		.align 2
 3406 01aa 660F1F44 		.p2align 4,,15
 3406      0000
 3407              		.globl	_ZN8UnitTest20DeferredTestReporter15ReportTestStartERKNS_11TestDetailsE
 3409              	_ZN8UnitTest20DeferredTestReporter15ReportTestStartERKNS_11TestDetailsE:
 3410              	.LFB844:
 3411              		.cfi_startproc
 3412              		.cfi_personality 0x9b,DW.ref.__gxx_personality_v0
 3413              		.cfi_lsda 0x1b,.LLSDA844
 3414 01b0 4157     		pushq	%r15
 3415              		.cfi_def_cfa_offset 16
 3416              		.cfi_offset 15, -16
 3417 01b2 4156     		pushq	%r14
 3418              		.cfi_def_cfa_offset 24
 3419              		.cfi_offset 14, -24
 3420 01b4 4989FE   		movq	%rdi, %r14
 3421 01b7 4155     		pushq	%r13
 3422              		.cfi_def_cfa_offset 32
 3423              		.cfi_offset 13, -32
 3424 01b9 4154     		pushq	%r12
 3425              		.cfi_def_cfa_offset 40
 3426              		.cfi_offset 12, -40
 3427 01bb 55       		pushq	%rbp
 3428              		.cfi_def_cfa_offset 48
 3429              		.cfi_offset 6, -48
 3430 01bc 53       		pushq	%rbx
 3431              		.cfi_def_cfa_offset 56
 3432              		.cfi_offset 3, -56
 3433 01bd 4883EC68 		subq	$104, %rsp
 3434              		.cfi_def_cfa_offset 160
 3435 01c1 488B5608 		movq	8(%rsi), %rdx
 3436 01c5 488B36   		movq	(%rsi), %rsi
 3437 01c8 4C8D7C24 		leaq	32(%rsp), %r15
 3437      20
 3438 01cd 4C89FF   		movq	%r15, %rdi
 3439              	.LEHB71:
 3440 01d0 E8000000 		call	_ZN8UnitTest18DeferredTestResultC1EPKcS2_@PLT
 3440      00
 3441              	.LEHE71:
 3442 01d5 4D8B6E10 		movq	16(%r14), %r13
 3443 01d9 4D3B6E18 		cmpq	24(%r14), %r13
 3444 01dd 0F84E001 		je	.L669
 3444      0000
 3445 01e3 4D85ED   		testq	%r13, %r13
 3446 01e6 0F84BC01 		je	.L670
 3446      0000
 3447 01ec 4C89FE   		movq	%r15, %rsi
 3448 01ef 4C89EF   		movq	%r13, %rdi
 3449              	.LEHB72:
 3450 01f2 E8000000 		call	_ZNSsC1ERKSs@PLT
 3450      00
 3451              	.LEHE72:
 3452 01f7 498D7708 		leaq	8(%r15), %rsi
 3453 01fb 498D7D08 		leaq	8(%r13), %rdi
 3454              	.LEHB73:
 3455 01ff E8000000 		call	_ZNSsC1ERKSs@PLT
 3455      00
 3456              	.LEHE73:
 3457 0204 498D7710 		leaq	16(%r15), %rsi
 3458 0208 498D7D10 		leaq	16(%r13), %rdi
 3459              	.LEHB74:
 3460 020c E8000000 		call	_ZNSsC1ERKSs@PLT
 3460      00
 3461              	.LEHE74:
 3462 0211 488B4424 		movq	64(%rsp), %rax
 3462      40
 3463 0216 482B4424 		subq	56(%rsp), %rax
 3463      38
 3464 021b 31DB     		xorl	%ebx, %ebx
 3465 021d 49C74518 		movq	$0, 24(%r13)
 3465      00000000 
 3466 0225 49C74520 		movq	$0, 32(%r13)
 3466      00000000 
 3467 022d 49C74528 		movq	$0, 40(%r13)
 3467      00000000 
 3468 0235 48C74424 		movq	$0, 8(%rsp)
 3468      08000000 
 3468      00
 3469 023e 48C1F804 		sarq	$4, %rax
 3470 0242 4885C0   		testq	%rax, %rax
 3471 0245 0F852D01 		jne	.L733
 3471      0000
 3472              	.L671:
 3473 024b 488B4424 		movq	8(%rsp), %rax
 3473      08
 3474 0250 49894518 		movq	%rax, 24(%r13)
 3475 0254 49894520 		movq	%rax, 32(%r13)
 3476 0258 4801C3   		addq	%rax, %rbx
 3477 025b 4C8B6424 		movq	64(%rsp), %r12
 3477      40
 3478 0260 488B6C24 		movq	56(%rsp), %rbp
 3478      38
 3479 0265 49895D28 		movq	%rbx, 40(%r13)
 3480 0269 4889C3   		movq	%rax, %rbx
 3481 026c 4939EC   		cmpq	%rbp, %r12
 3482 026f 7430     		je	.L673
 3483              		.p2align 4,,10
 3484 0271 0F1F8000 		.p2align 3
 3484      000000
 3485              	.L678:
 3486 0278 4885DB   		testq	%rbx, %rbx
 3487 027b 7412     		je	.L677
 3488 027d 8B4500   		movl	0(%rbp), %eax
 3489 0280 488D7508 		leaq	8(%rbp), %rsi
 3490 0284 488D7B08 		leaq	8(%rbx), %rdi
 3491 0288 8903     		movl	%eax, (%rbx)
 3492              	.LEHB75:
 3493 028a E8000000 		call	_ZNSsC1ERKSs@PLT
 3493      00
 3494              	.LEHE75:
 3495              	.L677:
 3496 028f 4883C510 		addq	$16, %rbp
 3497 0293 4883C310 		addq	$16, %rbx
 3498 0297 4939EC   		cmpq	%rbp, %r12
 3499 029a 75DC     		jne	.L678
 3500 029c 4C8B6424 		movq	56(%rsp), %r12
 3500      38
 3501              	.L673:
 3502 02a1 0FB64424 		movzbl	84(%rsp), %eax
 3502      54
 3503 02a6 F30F1044 		movss	80(%rsp), %xmm0
 3503      2450
 3504 02ac F3410F11 		movss	%xmm0, 48(%r13)
 3504      4530
 3505 02b2 49895D20 		movq	%rbx, 32(%r13)
 3506 02b6 41884534 		movb	%al, 52(%r13)
 3507 02ba 498B4610 		movq	16(%r14), %rax
 3508              	.L679:
 3509 02be 4883C038 		addq	$56, %rax
 3510 02c2 49894610 		movq	%rax, 16(%r14)
 3511              	.L691:
 3512 02c6 4C8B6C24 		movq	64(%rsp), %r13
 3512      40
 3513 02cb 4D39E5   		cmpq	%r12, %r13
 3514 02ce 0F84E000 		je	.L720
 3514      0000
 3515 02d4 48833D00 		cmpq	$0, _ZL28__gthrw___pthread_key_createPjPFvPvE@GOTPCREL(%rip)
 3515      00000000 
 3516 02dc 4C89E3   		movq	%r12, %rbx
 3517 02df 4D8D7424 		leaq	8(%r12), %r14
 3517      08
 3518 02e4 488B2D00 		movq	_ZNSs4_Rep20_S_empty_rep_storageE@GOTPCREL(%rip), %rbp
 3518      000000
 3519 02eb 4C8D7C24 		leaq	31(%rsp), %r15
 3519      1F
 3520 02f0 0F84E601 		je	.L697
 3520      0000
 3521 02f6 662E0F1F 		.p2align 4,,10
 3521      84000000 
 3521      0000
 3522              		.p2align 3
 3523              	.L701:
 3524 0300 4889D8   		movq	%rbx, %rax
 3525 0303 4C29E0   		subq	%r12, %rax
 3526 0306 498B0406 		movq	(%r14,%rax), %rax
 3527 030a 488D78E8 		leaq	-24(%rax), %rdi
 3528 030e 4839EF   		cmpq	%rbp, %rdi
 3529 0311 0F85C500 		jne	.L734
 3529      0000
 3530              	.L699:
 3531 0317 4883C310 		addq	$16, %rbx
 3532 031b 4939DD   		cmpq	%rbx, %r13
 3533 031e 75E0     		jne	.L701
 3534              	.L696:
 3535 0320 488B7C24 		movq	56(%rsp), %rdi
 3535      38
 3536              	.L692:
 3537 0325 4885FF   		testq	%rdi, %rdi
 3538 0328 7405     		je	.L702
 3539 032a E8000000 		call	_ZdlPv@PLT
 3539      00
 3540              	.L702:
 3541 032f 488B4424 		movq	48(%rsp), %rax
 3541      30
 3542 0334 488D78E8 		leaq	-24(%rax), %rdi
 3543 0338 4839EF   		cmpq	%rbp, %rdi
 3544 033b 0F850E02 		jne	.L735
 3544      0000
 3545              	.L704:
 3546 0341 488B4424 		movq	40(%rsp), %rax
 3546      28
 3547 0346 488D78E8 		leaq	-24(%rax), %rdi
 3548 034a 4839EF   		cmpq	%rbp, %rdi
 3549 034d 0F85CE01 		jne	.L736
 3549      0000
 3550              	.L709:
 3551 0353 488B4424 		movq	32(%rsp), %rax
 3551      20
 3552 0358 488D78E8 		leaq	-24(%rax), %rdi
 3553 035c 4839EF   		cmpq	%rbp, %rdi
 3554 035f 0F854901 		jne	.L737
 3554      0000
 3555              	.L668:
 3556 0365 4883C468 		addq	$104, %rsp
 3557              		.cfi_remember_state
 3558              		.cfi_def_cfa_offset 56
 3559 0369 5B       		popq	%rbx
 3560              		.cfi_def_cfa_offset 48
 3561 036a 5D       		popq	%rbp
 3562              		.cfi_def_cfa_offset 40
 3563 036b 415C     		popq	%r12
 3564              		.cfi_def_cfa_offset 32
 3565 036d 415D     		popq	%r13
 3566              		.cfi_def_cfa_offset 24
 3567 036f 415E     		popq	%r14
 3568              		.cfi_def_cfa_offset 16
 3569 0371 415F     		popq	%r15
 3570              		.cfi_def_cfa_offset 8
 3571 0373 C3       		ret
 3572              		.p2align 4,,10
 3573 0374 0F1F4000 		.p2align 3
 3574              	.L733:
 3575              		.cfi_restore_state
 3576 0378 48BAFFFF 		movabsq	$1152921504606846975, %rdx
 3576      FFFFFFFF 
 3576      FF0F
 3577 0382 4839D0   		cmpq	%rdx, %rax
 3578 0385 0F870401 		ja	.L738
 3578      0000
 3579 038b 4889C3   		movq	%rax, %rbx
 3580 038e 48C1E304 		salq	$4, %rbx
 3581 0392 4889DF   		movq	%rbx, %rdi
 3582              	.LEHB76:
 3583 0395 E8000000 		call	_Znwm@PLT
 3583      00
 3584              	.LEHE76:
 3585 039a 48894424 		movq	%rax, 8(%rsp)
 3585      08
 3586 039f E9A7FEFF 		jmp	.L671
 3586      FF
 3587              		.p2align 4,,10
 3588 03a4 0F1F4000 		.p2align 3
 3589              	.L670:
 3590 03a8 4C8B6424 		movq	56(%rsp), %r12
 3590      38
 3591 03ad 31C0     		xorl	%eax, %eax
 3592 03af E90AFFFF 		jmp	.L679
 3592      FF
 3593              	.L720:
 3594 03b4 4C89E7   		movq	%r12, %rdi
 3595 03b7 488B2D00 		movq	_ZNSs4_Rep20_S_empty_rep_storageE@GOTPCREL(%rip), %rbp
 3595      000000
 3596 03be E962FFFF 		jmp	.L692
 3596      FF
 3597              	.L669:
 3598 03c3 498D7E08 		leaq	8(%r14), %rdi
 3599 03c7 4C89FA   		movq	%r15, %rdx
 3600 03ca 4C89EE   		movq	%r13, %rsi
 3601              	.LEHB77:
 3602 03cd E8000000 		call	_ZNSt6vectorIN8UnitTest18DeferredTestResultESaIS1_EE13_M_insert_auxEN9__gnu_cxx17__normal_ite
 3602      00
 3603              	.LEHE77:
 3604 03d2 4C8B6424 		movq	56(%rsp), %r12
 3604      38
 3605 03d7 E9EAFEFF 		jmp	.L691
 3605      FF
 3606              	.L734:
 3607 03dc BAFFFFFF 		movl	$-1, %edx
 3607      FF
 3608 03e1 F00FC150 		lock xaddl	%edx, -8(%rax)
 3608      F8
 3609 03e6 85D2     		testl	%edx, %edx
 3610 03e8 0F8F29FF 		jg	.L699
 3610      FFFF
 3611 03ee 4C89FE   		movq	%r15, %rsi
 3612 03f1 E8000000 		call	_ZNSs4_Rep10_M_destroyERKSaIcE@PLT
 3612      00
 3613 03f6 E91CFFFF 		jmp	.L699
 3613      FF
 3614              	.L721:
 3615 03fb 4889C3   		movq	%rax, %rbx
 3616              	.L690:
 3617 03fe 4C89FF   		movq	%r15, %rdi
 3618 0401 E8000000 		call	_ZN8UnitTest18DeferredTestResultD1Ev@PLT
 3618      00
 3619 0406 4889DF   		movq	%rbx, %rdi
 3620              	.LEHB78:
 3621 0409 E8000000 		call	_Unwind_Resume@PLT
 3621      00
 3622              	.LEHE78:
 3623              	.L726:
 3624 040e 4889C7   		movq	%rax, %rdi
 3625 0411 E8000000 		call	__cxa_begin_catch@PLT
 3625      00
 3626 0416 48395C24 		cmpq	%rbx, 8(%rsp)
 3626      08
 3627 041b 0F847601 		je	.L739
 3627      0000
 3628 0421 488B4424 		movq	8(%rsp), %rax
 3628      08
 3629 0426 488D6C24 		leaq	31(%rsp), %rbp
 3629      1F
 3630 042b 4C8D7008 		leaq	8(%rax), %r14
 3631 042f 4989C4   		movq	%rax, %r12
 3632              	.L686:
 3633 0432 4C89E0   		movq	%r12, %rax
 3634 0435 482B4424 		subq	8(%rsp), %rax
 3634      08
 3635 043a 4889EE   		movq	%rbp, %rsi
 3636 043d 4983C410 		addq	$16, %r12
 3637 0441 498B3C06 		movq	(%r14,%rax), %rdi
 3638 0445 4883EF18 		subq	$24, %rdi
 3639 0449 E8000000 		call	_ZNSs4_Rep10_M_disposeERKSaIcE@PLT
 3639      00
 3640 044e 4939DC   		cmpq	%rbx, %r12
 3641 0451 75DF     		jne	.L686
 3642              	.L685:
 3643              	.LEHB79:
 3644 0453 E8000000 		call	__cxa_rethrow@PLT
 3644      00
 3645              	.LEHE79:
 3646              	.L723:
 3647 0458 488D6C24 		leaq	31(%rsp), %rbp
 3647      1F
 3648 045d 4889C3   		movq	%rax, %rbx
 3649              	.L688:
 3650 0460 498B4508 		movq	8(%r13), %rax
 3651 0464 4889EE   		movq	%rbp, %rsi
 3652 0467 488D78E8 		leaq	-24(%rax), %rdi
 3653 046b E8000000 		call	_ZNSs4_Rep10_M_disposeERKSaIcE@PLT
 3653      00
 3654              	.L689:
 3655 0470 498B7D00 		movq	0(%r13), %rdi
 3656 0474 4889EE   		movq	%rbp, %rsi
 3657 0477 4883EF18 		subq	$24, %rdi
 3658 047b E8000000 		call	_ZNSs4_Rep10_M_disposeERKSaIcE@PLT
 3658      00
 3659 0480 E979FFFF 		jmp	.L690
 3659      FF
 3660              	.L722:
 3661 0485 4889C3   		movq	%rax, %rbx
 3662 0488 488D6C24 		leaq	31(%rsp), %rbp
 3662      1F
 3663 048d EBE1     		jmp	.L689
 3664              	.L738:
 3665              	.LEHB80:
 3666 048f E8000000 		call	_ZSt17__throw_bad_allocv@PLT
 3666      00
 3667              	.LEHE80:
 3668              	.L724:
 3669 0494 488D6C24 		leaq	31(%rsp), %rbp
 3669      1F
 3670 0499 4889C3   		movq	%rax, %rbx
 3671              	.L687:
 3672 049c 498B4510 		movq	16(%r13), %rax
 3673 04a0 4889EE   		movq	%rbp, %rsi
 3674 04a3 488D78E8 		leaq	-24(%rax), %rdi
 3675 04a7 E8000000 		call	_ZNSs4_Rep10_M_disposeERKSaIcE@PLT
 3675      00
 3676 04ac EBB2     		jmp	.L688
 3677              	.L737:
 3678 04ae 48833D00 		cmpq	$0, _ZL28__gthrw___pthread_key_createPjPFvPvE@GOTPCREL(%rip)
 3678      00000000 
 3679 04b6 488D5710 		leaq	16(%rdi), %rdx
 3680 04ba 7441     		je	.L715
 3681 04bc B8FFFFFF 		movl	$-1, %eax
 3681      FF
 3682 04c1 F00FC102 		lock xaddl	%eax, (%rdx)
 3683              	.L716:
 3684 04c5 85C0     		testl	%eax, %eax
 3685 04c7 0F8F98FE 		jg	.L668
 3685      FFFF
 3686 04cd 488D7424 		leaq	31(%rsp), %rsi
 3686      1F
 3687 04d2 E8000000 		call	_ZNSs4_Rep10_M_destroyERKSaIcE@PLT
 3687      00
 3688 04d7 E989FEFF 		jmp	.L668
 3688      FF
 3689              	.L697:
 3690 04dc 4889D8   		movq	%rbx, %rax
 3691 04df 4C29E0   		subq	%r12, %rax
 3692 04e2 498B0406 		movq	(%r14,%rax), %rax
 3693 04e6 488D78E8 		leaq	-24(%rax), %rdi
 3694 04ea 4839EF   		cmpq	%rbp, %rdi
 3695 04ed 751B     		jne	.L740
 3696              	.L695:
 3697 04ef 4883C310 		addq	$16, %rbx
 3698 04f3 4939DD   		cmpq	%rbx, %r13
 3699 04f6 75E4     		jne	.L697
 3700 04f8 E923FEFF 		jmp	.L696
 3700      FF
 3701              	.L715:
 3702 04fd 8B50F8   		movl	-8(%rax), %edx
 3703 0500 8D4AFF   		leal	-1(%rdx), %ecx
 3704 0503 8948F8   		movl	%ecx, -8(%rax)
 3705 0506 89D0     		movl	%edx, %eax
 3706 0508 EBBB     		jmp	.L716
 3707              	.L740:
 3708 050a 8B50F8   		movl	-8(%rax), %edx
 3709 050d 8D4AFF   		leal	-1(%rdx), %ecx
 3710 0510 85D2     		testl	%edx, %edx
 3711 0512 8948F8   		movl	%ecx, -8(%rax)
 3712 0515 7FD8     		jg	.L695
 3713 0517 4C89FE   		movq	%r15, %rsi
 3714 051a E8000000 		call	_ZNSs4_Rep10_M_destroyERKSaIcE@PLT
 3714      00
 3715 051f EBCE     		jmp	.L695
 3716              	.L736:
 3717 0521 48833D00 		cmpq	$0, _ZL28__gthrw___pthread_key_createPjPFvPvE@GOTPCREL(%rip)
 3717      00000000 
 3718 0529 488D5710 		leaq	16(%rdi), %rdx
 3719 052d 744E     		je	.L710
 3720 052f B8FFFFFF 		movl	$-1, %eax
 3720      FF
 3721 0534 F00FC102 		lock xaddl	%eax, (%rdx)
 3722              	.L711:
 3723 0538 85C0     		testl	%eax, %eax
 3724 053a 0F8F13FE 		jg	.L709
 3724      FFFF
 3725 0540 488D7424 		leaq	31(%rsp), %rsi
 3725      1F
 3726 0545 E8000000 		call	_ZNSs4_Rep10_M_destroyERKSaIcE@PLT
 3726      00
 3727 054a E904FEFF 		jmp	.L709
 3727      FF
 3728              	.L735:
 3729 054f 48833D00 		cmpq	$0, _ZL28__gthrw___pthread_key_createPjPFvPvE@GOTPCREL(%rip)
 3729      00000000 
 3730 0557 488D5710 		leaq	16(%rdi), %rdx
 3731 055b 742D     		je	.L705
 3732 055d B8FFFFFF 		movl	$-1, %eax
 3732      FF
 3733 0562 F00FC102 		lock xaddl	%eax, (%rdx)
 3734              	.L706:
 3735 0566 85C0     		testl	%eax, %eax
 3736 0568 0F8FD3FD 		jg	.L704
 3736      FFFF
 3737 056e 488D7424 		leaq	31(%rsp), %rsi
 3737      1F
 3738 0573 E8000000 		call	_ZNSs4_Rep10_M_destroyERKSaIcE@PLT
 3738      00
 3739 0578 E9C4FDFF 		jmp	.L704
 3739      FF
 3740              	.L710:
 3741 057d 8B50F8   		movl	-8(%rax), %edx
 3742 0580 8D4AFF   		leal	-1(%rdx), %ecx
 3743 0583 8948F8   		movl	%ecx, -8(%rax)
 3744 0586 89D0     		movl	%edx, %eax
 3745 0588 EBAE     		jmp	.L711
 3746              	.L705:
 3747 058a 8B50F8   		movl	-8(%rax), %edx
 3748 058d 8D4AFF   		leal	-1(%rdx), %ecx
 3749 0590 8948F8   		movl	%ecx, -8(%rax)
 3750 0593 89D0     		movl	%edx, %eax
 3751 0595 EBCF     		jmp	.L706
 3752              	.L739:
 3753 0597 488D6C24 		leaq	31(%rsp), %rbp
 3753      1F
 3754 059c E9B2FEFF 		jmp	.L685
 3754      FF
 3755              	.L725:
 3756 05a1 4889C3   		movq	%rax, %rbx
 3757 05a4 E8000000 		call	__cxa_end_catch@PLT
 3757      00
 3758 05a9 498B7D18 		movq	24(%r13), %rdi
 3759 05ad 4885FF   		testq	%rdi, %rdi
 3760 05b0 0F84E6FE 		je	.L687
 3760      FFFF
 3761 05b6 E8000000 		call	_ZdlPv@PLT
 3761      00
 3762 05bb E9DCFEFF 		jmp	.L687
 3762      FF
 3763              		.cfi_endproc
 3764              	.LFE844:
 3765              		.section	.gcc_except_table
 3766              		.align 4
 3767              	.LLSDA844:
 3768 017c FF       		.byte	0xff
 3769 017d 9B       		.byte	0x9b
 3770 017e 41       		.uleb128 .LLSDATT844-.LLSDATTD844
 3771              	.LLSDATTD844:
 3772 017f 01       		.byte	0x1
 3773 0180 36       		.uleb128 .LLSDACSE844-.LLSDACSB844
 3774              	.LLSDACSB844:
 3775 0181 20       		.uleb128 .LEHB71-.LFB844
 3776 0182 05       		.uleb128 .LEHE71-.LEHB71
 3777 0183 00       		.uleb128 0
 3778 0184 00       		.uleb128 0
 3779 0185 42       		.uleb128 .LEHB72-.LFB844
 3780 0186 05       		.uleb128 .LEHE72-.LEHB72
 3781 0187 CB04     		.uleb128 .L721-.LFB844
 3782 0189 00       		.uleb128 0
 3783 018a 4F       		.uleb128 .LEHB73-.LFB844
 3784 018b 05       		.uleb128 .LEHE73-.LEHB73
 3785 018c D505     		.uleb128 .L722-.LFB844
 3786 018e 00       		.uleb128 0
 3787 018f 5C       		.uleb128 .LEHB74-.LFB844
 3788 0190 05       		.uleb128 .LEHE74-.LEHB74
 3789 0191 A805     		.uleb128 .L723-.LFB844
 3790 0193 00       		.uleb128 0
 3791 0194 DA01     		.uleb128 .LEHB75-.LFB844
 3792 0196 05       		.uleb128 .LEHE75-.LEHB75
 3793 0197 DE04     		.uleb128 .L726-.LFB844
 3794 0199 01       		.uleb128 0x1
 3795 019a E503     		.uleb128 .LEHB76-.LFB844
 3796 019c 05       		.uleb128 .LEHE76-.LEHB76
 3797 019d E405     		.uleb128 .L724-.LFB844
 3798 019f 00       		.uleb128 0
 3799 01a0 9D04     		.uleb128 .LEHB77-.LFB844
 3800 01a2 05       		.uleb128 .LEHE77-.LEHB77
 3801 01a3 CB04     		.uleb128 .L721-.LFB844
 3802 01a5 00       		.uleb128 0
 3803 01a6 D904     		.uleb128 .LEHB78-.LFB844
 3804 01a8 05       		.uleb128 .LEHE78-.LEHB78
 3805 01a9 00       		.uleb128 0
 3806 01aa 00       		.uleb128 0
 3807 01ab A305     		.uleb128 .LEHB79-.LFB844
 3808 01ad 05       		.uleb128 .LEHE79-.LEHB79
 3809 01ae F107     		.uleb128 .L725-.LFB844
 3810 01b0 00       		.uleb128 0
 3811 01b1 DF05     		.uleb128 .LEHB80-.LFB844
 3812 01b3 05       		.uleb128 .LEHE80-.LEHB80
 3813 01b4 E405     		.uleb128 .L724-.LFB844
 3814 01b6 00       		.uleb128 0
 3815              	.LLSDACSE844:
 3816 01b7 01       		.byte	0x1
 3817 01b8 00       		.byte	0
 3818 01b9 000000   		.align 4
 3819 01bc 00000000 		.long	0
 3820              	
 3821              	.LLSDATT844:
 3822              		.text
 3824              		.weak	_ZTSN8UnitTest20DeferredTestReporterE
 3825              		.section	.rodata._ZTSN8UnitTest20DeferredTestReporterE,"aG",@progbits,_ZTSN8UnitTest20DeferredTest
 3826              		.align 32
 3829              	_ZTSN8UnitTest20DeferredTestReporterE:
 3830 0000 4E38556E 		.string	"N8UnitTest20DeferredTestReporterE"
 3830      69745465 
 3830      73743230 
 3830      44656665 
 3830      72726564 
 3831              		.weak	_ZTIN8UnitTest20DeferredTestReporterE
 3832              		.section	.data.rel.ro._ZTIN8UnitTest20DeferredTestReporterE,"awG",@progbits,_ZTIN8UnitTest20Deferr
 3833              		.align 16
 3836              	_ZTIN8UnitTest20DeferredTestReporterE:
 3837 0000 00000000 		.quad	_ZTVN10__cxxabiv120__si_class_type_infoE+16
 3837      00000000 
 3838 0008 00000000 		.quad	_ZTSN8UnitTest20DeferredTestReporterE
 3838      00000000 
 3839 0010 00000000 		.quad	_ZTIN8UnitTest12TestReporterE
 3839      00000000 
 3840              		.weak	_ZTVN8UnitTest20DeferredTestReporterE
 3841              		.section	.data.rel.ro._ZTVN8UnitTest20DeferredTestReporterE,"awG",@progbits,_ZTVN8UnitTest20Deferr
 3842              		.align 32
 3845              	_ZTVN8UnitTest20DeferredTestReporterE:
 3846 0000 00000000 		.quad	0
 3846      00000000 
 3847 0008 00000000 		.quad	_ZTIN8UnitTest20DeferredTestReporterE
 3847      00000000 
 3848 0010 00000000 		.quad	_ZN8UnitTest20DeferredTestReporterD1Ev
 3848      00000000 
 3849 0018 00000000 		.quad	_ZN8UnitTest20DeferredTestReporterD0Ev
 3849      00000000 
 3850 0020 00000000 		.quad	_ZN8UnitTest20DeferredTestReporter15ReportTestStartERKNS_11TestDetailsE
 3850      00000000 
 3851 0028 00000000 		.quad	_ZN8UnitTest20DeferredTestReporter13ReportFailureERKNS_11TestDetailsEPKc
 3851      00000000 
 3852 0030 00000000 		.quad	_ZN8UnitTest20DeferredTestReporter16ReportTestFinishERKNS_11TestDetailsEf
 3852      00000000 
 3853 0038 00000000 		.quad	__cxa_pure_virtual
 3853      00000000 
 3854              		.weakref	_ZL28__gthrw___pthread_key_createPjPFvPvE,__pthread_key_create
 3855              		.hidden	DW.ref.__gxx_personality_v0
 3856              		.weak	DW.ref.__gxx_personality_v0
 3857              		.section	.data.DW.ref.__gxx_personality_v0,"awG",@progbits,DW.ref.__gxx_personality_v0,comdat
 3858              		.align 8
 3861              	DW.ref.__gxx_personality_v0:
 3862 0000 00000000 		.quad	__gxx_personality_v0
 3862      00000000 
 3863              		.ident	"GCC: (Ubuntu 4.8.4-2ubuntu1~14.04.3) 4.8.4"
 3864              		.section	.note.GNU-stack,"",@progbits