   1              		.file	"TestUnitTest++.cpp"
   2              		.text
   3              	.Ltext0:
   4              		.section	.rodata
   5              	.LC0:
   6 0000 44656661 		.string	"DefaultSuite"
   6      756C7453 
   6      75697465 
   6      00
   7              		.section	.text._ZN13UnitTestSuite12GetSuiteNameEv,"axG",@progbits,_ZN13UnitTestSuite12GetSuiteName
   8              		.weak	_ZN13UnitTestSuite12GetSuiteNameEv
  10              	_ZN13UnitTestSuite12GetSuiteNameEv:
  11              	.LFB0:
  12              		.file 1 "../TestSuite.h"
   1:../TestSuite.h **** #ifndef UNITTEST_TESTSUITE_H
   2:../TestSuite.h **** #define UNITTEST_TESTSUITE_H
   3:../TestSuite.h **** 
   4:../TestSuite.h **** namespace UnitTestSuite {
   5:../TestSuite.h **** 
   6:../TestSuite.h ****     inline char const* GetSuiteName ()
   7:../TestSuite.h ****     {
  13              		.loc 1 7 0
  14              		.cfi_startproc
  15 0000 55       		pushq	%rbp
  16              		.cfi_def_cfa_offset 16
  17              		.cfi_offset 6, -16
  18 0001 4889E5   		movq	%rsp, %rbp
  19              		.cfi_def_cfa_register 6
   8:../TestSuite.h ****         return "DefaultSuite";
  20              		.loc 1 8 0
  21 0004 B8000000 		movl	$.LC0, %eax
  21      00
   9:../TestSuite.h ****     }
  22              		.loc 1 9 0
  23 0009 5D       		popq	%rbp
  24              		.cfi_def_cfa 7, 8
  25 000a C3       		ret
  26              		.cfi_endproc
  27              	.LFE0:
  29              		.section	.text._ZN8UnitTest15MemoryOutStreamC1Ev,"axG",@progbits,_ZN8UnitTest15MemoryOutStreamC1Ev
  30              		.align 2
  31              		.weak	_ZN8UnitTest15MemoryOutStreamC1Ev
  33              	_ZN8UnitTest15MemoryOutStreamC1Ev:
  34              	.LFB1007:
  35              		.file 2 "../MemoryOutStream.h"
   1:../MemoryOutStream.h **** #ifndef UNITTEST_MEMORYOUTSTREAM_H
   2:../MemoryOutStream.h **** #define UNITTEST_MEMORYOUTSTREAM_H
   3:../MemoryOutStream.h **** 
   4:../MemoryOutStream.h **** #include "Config.h"
   5:../MemoryOutStream.h **** 
   6:../MemoryOutStream.h **** #ifndef UNITTEST_USE_CUSTOM_STREAMS
   7:../MemoryOutStream.h **** 
   8:../MemoryOutStream.h **** #include <sstream>
   9:../MemoryOutStream.h **** 
  10:../MemoryOutStream.h **** namespace UnitTest
  11:../MemoryOutStream.h **** {
  12:../MemoryOutStream.h **** 
  13:../MemoryOutStream.h **** class MemoryOutStream : public std::ostringstream
  14:../MemoryOutStream.h **** {
  15:../MemoryOutStream.h **** public:
  16:../MemoryOutStream.h ****     MemoryOutStream() {}
  36              		.loc 2 16 0
  37              		.cfi_startproc
  38              		.cfi_personality 0x3,__gxx_personality_v0
  39              		.cfi_lsda 0x3,.LLSDA1007
  40 0000 55       		pushq	%rbp
  41              		.cfi_def_cfa_offset 16
  42              		.cfi_offset 6, -16
  43 0001 4889E5   		movq	%rsp, %rbp
  44              		.cfi_def_cfa_register 6
  45 0004 53       		pushq	%rbx
  46 0005 4883EC18 		subq	$24, %rsp
  47              		.cfi_offset 3, -24
  48 0009 48897DE8 		movq	%rdi, -24(%rbp)
  49              	.LBB2:
  50              		.loc 2 16 0
  51 000d 488B45E8 		movq	-24(%rbp), %rax
  52 0011 4883C060 		addq	$96, %rax
  53 0015 4889C7   		movq	%rax, %rdi
  54              	.LEHB0:
  55 0018 E8000000 		call	_ZNSt9basic_iosIcSt11char_traitsIcEEC2Ev
  55      00
  56              	.LEHE0:
  57 001d B9000000 		movl	$_ZTTN8UnitTest15MemoryOutStreamE+8, %ecx
  57      00
  58 0022 488B45E8 		movq	-24(%rbp), %rax
  59 0026 BA100000 		movl	$16, %edx
  59      00
  60 002b 4889CE   		movq	%rcx, %rsi
  61 002e 4889C7   		movq	%rax, %rdi
  62              	.LEHB1:
  63 0031 E8000000 		call	_ZNSt19basic_ostringstreamIcSt11char_traitsIcESaIcEEC2ESt13_Ios_Openmode
  63      00
  64              	.LEHE1:
  65              		.loc 2 16 0 is_stmt 0 discriminator 6
  66 0036 BA000000 		movl	$_ZTVN8UnitTest15MemoryOutStreamE+24, %edx
  66      00
  67 003b 488B45E8 		movq	-24(%rbp), %rax
  68 003f 488910   		movq	%rdx, (%rax)
  69 0042 BA600000 		movl	$96, %edx
  69      00
  70 0047 488B45E8 		movq	-24(%rbp), %rax
  71 004b 4801C2   		addq	%rax, %rdx
  72 004e B8000000 		movl	$_ZTVN8UnitTest15MemoryOutStreamE+64, %eax
  72      00
  73 0053 488902   		movq	%rax, (%rdx)
  74 0056 488B45E8 		movq	-24(%rbp), %rax
  75 005a 4883C058 		addq	$88, %rax
  76 005e 4889C7   		movq	%rax, %rdi
  77              	.LEHB2:
  78 0061 E8000000 		call	_ZNSsC1Ev
  78      00
  79              	.LEHE2:
  80              	.LBE2:
  81              		.loc 2 16 0
  82 0066 EB37     		jmp	.L8
  83              	.L6:
  84 0068 4889C3   		movq	%rax, %rbx
  85              	.LBB3:
  86 006b BA000000 		movl	$_ZTTN8UnitTest15MemoryOutStreamE+8, %edx
  86      00
  87 0070 488B45E8 		movq	-24(%rbp), %rax
  88 0074 4889D6   		movq	%rdx, %rsi
  89 0077 4889C7   		movq	%rax, %rdi
  90 007a E8000000 		call	_ZNSt19basic_ostringstreamIcSt11char_traitsIcESaIcEED2Ev
  90      00
  91 007f EB03     		jmp	.L5
  92              	.L7:
  93 0081 4889C3   		movq	%rax, %rbx
  94              	.L5:
  95              		.loc 2 16 0 discriminator 19
  96 0084 488B45E8 		movq	-24(%rbp), %rax
  97 0088 4883C060 		addq	$96, %rax
  98 008c 4889C7   		movq	%rax, %rdi
  99 008f E8000000 		call	_ZNSt9basic_iosIcSt11char_traitsIcEED2Ev
  99      00
 100 0094 4889D8   		movq	%rbx, %rax
 101 0097 4889C7   		movq	%rax, %rdi
 102              	.LEHB3:
 103 009a E8000000 		call	_Unwind_Resume
 103      00
 104              	.LEHE3:
 105              	.L8:
 106              	.LBE3:
 107              		.loc 2 16 0
 108 009f 4883C418 		addq	$24, %rsp
 109 00a3 5B       		popq	%rbx
 110 00a4 5D       		popq	%rbp
 111              		.cfi_def_cfa 7, 8
 112 00a5 C3       		ret
 113              		.cfi_endproc
 114              	.LFE1007:
 115              		.globl	__gxx_personality_v0
 116              		.section	.gcc_except_table._ZN8UnitTest15MemoryOutStreamC1Ev,"aG",@progbits,_ZN8UnitTest15MemoryOu
 117              	.LLSDA1007:
 118 0000 FF       		.byte	0xff
 119 0001 FF       		.byte	0xff
 120 0002 01       		.byte	0x1
 121 0003 12       		.uleb128 .LLSDACSE1007-.LLSDACSB1007
 122              	.LLSDACSB1007:
 123 0004 18       		.uleb128 .LEHB0-.LFB1007
 124 0005 05       		.uleb128 .LEHE0-.LEHB0
 125 0006 00       		.uleb128 0
 126 0007 00       		.uleb128 0
 127 0008 31       		.uleb128 .LEHB1-.LFB1007
 128 0009 05       		.uleb128 .LEHE1-.LEHB1
 129 000a 8101     		.uleb128 .L7-.LFB1007
 130 000c 00       		.uleb128 0
 131 000d 61       		.uleb128 .LEHB2-.LFB1007
 132 000e 05       		.uleb128 .LEHE2-.LEHB2
 133 000f 68       		.uleb128 .L6-.LFB1007
 134 0010 00       		.uleb128 0
 135 0011 9A01     		.uleb128 .LEHB3-.LFB1007
 136 0013 05       		.uleb128 .LEHE3-.LEHB3
 137 0014 00       		.uleb128 0
 138 0015 00       		.uleb128 0
 139              	.LLSDACSE1007:
 140              		.section	.text._ZN8UnitTest15MemoryOutStreamC1Ev,"axG",@progbits,_ZN8UnitTest15MemoryOutStreamC1Ev
 142              		.section	.text._ZN17ScopedCurrentTestC2ERN8UnitTest11TestResultsEPKNS0_11TestDetailsE,"axG",@progb
 143              		.align 2
 144              		.weak	_ZN17ScopedCurrentTestC2ERN8UnitTest11TestResultsEPKNS0_11TestDetailsE
 146              	_ZN17ScopedCurrentTestC2ERN8UnitTest11TestResultsEPKNS0_11TestDetailsE:
 147              	.LFB1023:
 148              		.file 3 "ScopedCurrentTest.h"
   1:ScopedCurrentTest.h **** #ifndef UNITTEST_SCOPEDCURRENTTEST_H
   2:ScopedCurrentTest.h **** #define UNITTEST_SCOPEDCURRENTTEST_H
   3:ScopedCurrentTest.h **** 
   4:ScopedCurrentTest.h **** #include "../CurrentTest.h"
   5:ScopedCurrentTest.h **** #include <cstddef>
   6:ScopedCurrentTest.h **** 
   7:ScopedCurrentTest.h **** class ScopedCurrentTest
   8:ScopedCurrentTest.h **** {
   9:ScopedCurrentTest.h **** public:
  10:ScopedCurrentTest.h **** 	ScopedCurrentTest()
  11:ScopedCurrentTest.h **** 		: m_oldTestResults(UnitTest::CurrentTest::Results())
  12:ScopedCurrentTest.h **** 		, m_oldTestDetails(UnitTest::CurrentTest::Details())
  13:ScopedCurrentTest.h **** 	{
  14:ScopedCurrentTest.h **** 	}
  15:ScopedCurrentTest.h **** 
  16:ScopedCurrentTest.h **** 	explicit ScopedCurrentTest(UnitTest::TestResults& newResults, const UnitTest::TestDetails* newDeta
 149              		.loc 3 16 0 is_stmt 1
 150              		.cfi_startproc
 151 0000 55       		pushq	%rbp
 152              		.cfi_def_cfa_offset 16
 153              		.cfi_offset 6, -16
 154 0001 4889E5   		movq	%rsp, %rbp
 155              		.cfi_def_cfa_register 6
 156 0004 4883EC20 		subq	$32, %rsp
 157 0008 48897DF8 		movq	%rdi, -8(%rbp)
 158 000c 488975F0 		movq	%rsi, -16(%rbp)
 159 0010 488955E8 		movq	%rdx, -24(%rbp)
 160              	.LBB4:
  17:ScopedCurrentTest.h **** 		: m_oldTestResults(UnitTest::CurrentTest::Results())
 161              		.loc 3 17 0
 162 0014 E8000000 		call	_ZN8UnitTest11CurrentTest7ResultsEv
 162      00
  18:ScopedCurrentTest.h **** 		, m_oldTestDetails(UnitTest::CurrentTest::Details())
 163              		.loc 3 18 0
 164 0019 488B10   		movq	(%rax), %rdx
 165 001c 488B45F8 		movq	-8(%rbp), %rax
 166 0020 488910   		movq	%rdx, (%rax)
 167 0023 E8000000 		call	_ZN8UnitTest11CurrentTest7DetailsEv
 167      00
 168 0028 488B10   		movq	(%rax), %rdx
 169 002b 488B45F8 		movq	-8(%rbp), %rax
 170 002f 48895008 		movq	%rdx, 8(%rax)
  19:ScopedCurrentTest.h **** 	{
  20:ScopedCurrentTest.h **** 		UnitTest::CurrentTest::Results() = &newResults;
 171              		.loc 3 20 0
 172 0033 E8000000 		call	_ZN8UnitTest11CurrentTest7ResultsEv
 172      00
 173 0038 488B55F0 		movq	-16(%rbp), %rdx
 174 003c 488910   		movq	%rdx, (%rax)
  21:ScopedCurrentTest.h **** 
  22:ScopedCurrentTest.h **** 		if (newDetails != NULL)
 175              		.loc 3 22 0
 176 003f 48837DE8 		cmpq	$0, -24(%rbp)
 176      00
 177 0044 740C     		je	.L9
  23:ScopedCurrentTest.h **** 			UnitTest::CurrentTest::Details() = newDetails;
 178              		.loc 3 23 0
 179 0046 E8000000 		call	_ZN8UnitTest11CurrentTest7DetailsEv
 179      00
 180 004b 488B55E8 		movq	-24(%rbp), %rdx
 181 004f 488910   		movq	%rdx, (%rax)
 182              	.L9:
 183              	.LBE4:
  24:ScopedCurrentTest.h **** 	}
 184              		.loc 3 24 0
 185 0052 C9       		leave
 186              		.cfi_def_cfa 7, 8
 187 0053 C3       		ret
 188              		.cfi_endproc
 189              	.LFE1023:
 191              		.weak	_ZN17ScopedCurrentTestC1ERN8UnitTest11TestResultsEPKNS0_11TestDetailsE
 192              		.set	_ZN17ScopedCurrentTestC1ERN8UnitTest11TestResultsEPKNS0_11TestDetailsE,_ZN17ScopedCurrentTest
 193              		.section	.text._ZN17ScopedCurrentTestD2Ev,"axG",@progbits,_ZN17ScopedCurrentTestD5Ev,comdat
 194              		.align 2
 195              		.weak	_ZN17ScopedCurrentTestD2Ev
 197              	_ZN17ScopedCurrentTestD2Ev:
 198              	.LFB1026:
  25:ScopedCurrentTest.h **** 
  26:ScopedCurrentTest.h **** 	~ScopedCurrentTest()
 199              		.loc 3 26 0
 200              		.cfi_startproc
 201 0000 55       		pushq	%rbp
 202              		.cfi_def_cfa_offset 16
 203              		.cfi_offset 6, -16
 204 0001 4889E5   		movq	%rsp, %rbp
 205              		.cfi_def_cfa_register 6
 206 0004 4883EC10 		subq	$16, %rsp
 207 0008 48897DF8 		movq	%rdi, -8(%rbp)
 208              	.LBB5:
  27:ScopedCurrentTest.h **** 	{
  28:ScopedCurrentTest.h **** 		UnitTest::CurrentTest::Results() = m_oldTestResults;
 209              		.loc 3 28 0
 210 000c E8000000 		call	_ZN8UnitTest11CurrentTest7ResultsEv
 210      00
 211 0011 488B55F8 		movq	-8(%rbp), %rdx
 212 0015 488B12   		movq	(%rdx), %rdx
 213 0018 488910   		movq	%rdx, (%rax)
  29:ScopedCurrentTest.h **** 		UnitTest::CurrentTest::Details() = m_oldTestDetails;
 214              		.loc 3 29 0
 215 001b E8000000 		call	_ZN8UnitTest11CurrentTest7DetailsEv
 215      00
 216 0020 488B55F8 		movq	-8(%rbp), %rdx
 217 0024 488B5208 		movq	8(%rdx), %rdx
 218 0028 488910   		movq	%rdx, (%rax)
 219              	.LBE5:
  30:ScopedCurrentTest.h **** 	}
 220              		.loc 3 30 0
 221 002b C9       		leave
 222              		.cfi_def_cfa 7, 8
 223 002c C3       		ret
 224              		.cfi_endproc
 225              	.LFE1026:
 227              		.weak	_ZN17ScopedCurrentTestD1Ev
 228              		.set	_ZN17ScopedCurrentTestD1Ev,_ZN17ScopedCurrentTestD2Ev
 229              		.section	.rodata
 230              	.LC1:
 231 000d 54657374 		.string	"TestUnitTest++.cpp"
 231      556E6974 
 231      54657374 
 231      2B2B2E63 
 231      707000
 232              	.LC2:
 233 0020 56616C69 		.string	"ValidCheckSucceeds"
 233      64436865 
 233      636B5375 
 233      63636565 
 233      647300
 234              		.text
 235              		.align 2
 237              	_ZN12_GLOBAL__N_122TestValidCheckSucceedsC2Ev:
 238              	.LFB1290:
 239              		.file 4 "TestUnitTest++.cpp"
   1:TestUnitTest++.cpp **** #include "../UnitTest++.h"
   2:TestUnitTest++.cpp **** #include "../ReportAssert.h"
   3:TestUnitTest++.cpp **** #include "ScopedCurrentTest.h"
   4:TestUnitTest++.cpp **** 
   5:TestUnitTest++.cpp **** #include <vector>
   6:TestUnitTest++.cpp **** 
   7:TestUnitTest++.cpp **** // These are sample tests that show the different features of the framework
   8:TestUnitTest++.cpp **** 
   9:TestUnitTest++.cpp **** namespace {
  10:TestUnitTest++.cpp **** 
  11:TestUnitTest++.cpp **** TEST(ValidCheckSucceeds)
 240              		.loc 4 11 0
 241              		.cfi_startproc
 242 0000 55       		pushq	%rbp
 243              		.cfi_def_cfa_offset 16
 244              		.cfi_offset 6, -16
 245 0001 4889E5   		movq	%rsp, %rbp
 246              		.cfi_def_cfa_register 6
 247 0004 4883EC10 		subq	$16, %rsp
 248 0008 48897DF8 		movq	%rdi, -8(%rbp)
 249              	.LBB6:
 250              		.loc 4 11 0
 251 000c E8000000 		call	_ZN13UnitTestSuite12GetSuiteNameEv
 251      00
 252 0011 4889C2   		movq	%rax, %rdx
 253 0014 488B45F8 		movq	-8(%rbp), %rax
 254 0018 41B80B00 		movl	$11, %r8d
 254      0000
 255 001e B9000000 		movl	$.LC1, %ecx
 255      00
 256 0023 BE000000 		movl	$.LC2, %esi
 256      00
 257 0028 4889C7   		movq	%rax, %rdi
 258 002b E8000000 		call	_ZN8UnitTest4TestC2EPKcS2_S2_i
 258      00
 259 0030 488B45F8 		movq	-8(%rbp), %rax
 260 0034 48C70000 		movq	$_ZTVN12_GLOBAL__N_122TestValidCheckSucceedsE+16, (%rax)
 260      000000
 261              	.LBE6:
 262 003b C9       		leave
 263              		.cfi_def_cfa 7, 8
 264 003c C3       		ret
 265              		.cfi_endproc
 266              	.LFE1290:
 268              		.set	_ZN12_GLOBAL__N_122TestValidCheckSucceedsC1Ev,_ZN12_GLOBAL__N_122TestValidCheckSucceedsC2Ev
 269              		.local	_ZN12_GLOBAL__N_130testValidCheckSucceedsInstanceE
 270              		.comm	_ZN12_GLOBAL__N_130testValidCheckSucceedsInstanceE,56,32
 271              		.local	_ZN12_GLOBAL__N_123adderValidCheckSucceedsE
 272              		.comm	_ZN12_GLOBAL__N_123adderValidCheckSucceedsE,1,1
 273              		.section	.rodata
 274              	.LC3:
 275 0033 6200     		.string	"b"
 276 0035 000000   		.align 8
 277              	.LC4:
 278 0038 556E6861 		.string	"Unhandled exception in CHECK(b)"
 278      6E646C65 
 278      64206578 
 278      63657074 
 278      696F6E20 
 279              		.text
 280 003d 90       		.align 2
 282              	_ZNK12_GLOBAL__N_122TestValidCheckSucceeds7RunImplEv:
 283              	.LFB1292:
  12:TestUnitTest++.cpp **** {
 284              		.loc 4 12 0
 285              		.cfi_startproc
 286              		.cfi_personality 0x3,__gxx_personality_v0
 287              		.cfi_lsda 0x3,.LLSDA1292
 288 003e 55       		pushq	%rbp
 289              		.cfi_def_cfa_offset 16
 290              		.cfi_offset 6, -16
 291 003f 4889E5   		movq	%rsp, %rbp
 292              		.cfi_def_cfa_register 6
 293 0042 53       		pushq	%rbx
 294 0043 4883EC48 		subq	$72, %rsp
 295              		.cfi_offset 3, -24
 296 0047 48897DB8 		movq	%rdi, -72(%rbp)
 297              	.LBB7:
  13:TestUnitTest++.cpp ****     bool const b = true;
 298              		.loc 4 13 0
 299 004b C645CF01 		movb	$1, -49(%rbp)
  14:TestUnitTest++.cpp ****     CHECK(b);
 300              		.loc 4 14 0
 301 004f BF010000 		movl	$1, %edi
 301      00
 302 0054 E8000000 		call	_ZN8UnitTest5CheckIbEEbT_
 302      00
 303 0059 83F001   		xorl	$1, %eax
 304 005c 84C0     		testb	%al, %al
 305 005e 0F849300 		je	.L14
 305      0000
 306              	.LEHB4:
 307              		.loc 4 14 0 is_stmt 0 discriminator 1
 308 0064 E8000000 		call	_ZN8UnitTest11CurrentTest7DetailsEv
 308      00
 309 0069 488B08   		movq	(%rax), %rcx
 310 006c 488D45D0 		leaq	-48(%rbp), %rax
 311 0070 BA0E0000 		movl	$14, %edx
 311      00
 312 0075 4889CE   		movq	%rcx, %rsi
 313 0078 4889C7   		movq	%rax, %rdi
 314 007b E8000000 		call	_ZN8UnitTest11TestDetailsC1ERKS0_i
 314      00
 315 0080 E8000000 		call	_ZN8UnitTest11CurrentTest7ResultsEv
 315      00
 316 0085 488B00   		movq	(%rax), %rax
 317 0088 488D4DD0 		leaq	-48(%rbp), %rcx
 318 008c BA000000 		movl	$.LC3, %edx
 318      00
 319 0091 4889CE   		movq	%rcx, %rsi
 320 0094 4889C7   		movq	%rax, %rdi
 321 0097 E8000000 		call	_ZN8UnitTest11TestResults13OnTestFailureERKNS_11TestDetailsEPKc
 321      00
 322              	.LEHE4:
 323 009c EB59     		jmp	.L14
 324              	.L19:
 325 009e 4889C3   		movq	%rax, %rbx
 326              		.loc 4 14 0
 327 00a1 E8000000 		call	__cxa_end_catch
 327      00
 328 00a6 4889D8   		movq	%rbx, %rax
 329 00a9 4889C7   		movq	%rax, %rdi
 330              	.LEHB5:
 331 00ac E8000000 		call	_Unwind_Resume
 331      00
 332              	.LEHE5:
 333              	.L18:
 334 00b1 4889C7   		movq	%rax, %rdi
 335 00b4 E8000000 		call	__cxa_begin_catch
 335      00
 336              	.LEHB6:
 337 00b9 E8000000 		call	_ZN8UnitTest11CurrentTest7DetailsEv
 337      00
 338 00be 488B08   		movq	(%rax), %rcx
 339 00c1 488D45D0 		leaq	-48(%rbp), %rax
 340 00c5 BA0E0000 		movl	$14, %edx
 340      00
 341 00ca 4889CE   		movq	%rcx, %rsi
 342 00cd 4889C7   		movq	%rax, %rdi
 343 00d0 E8000000 		call	_ZN8UnitTest11TestDetailsC1ERKS0_i
 343      00
 344              		.loc 4 14 0 discriminator 1
 345 00d5 E8000000 		call	_ZN8UnitTest11CurrentTest7ResultsEv
 345      00
 346 00da 488B00   		movq	(%rax), %rax
 347 00dd 488D4DD0 		leaq	-48(%rbp), %rcx
 348 00e1 BA000000 		movl	$.LC4, %edx
 348      00
 349 00e6 4889CE   		movq	%rcx, %rsi
 350 00e9 4889C7   		movq	%rax, %rdi
 351 00ec E8000000 		call	_ZN8UnitTest11TestResults13OnTestFailureERKNS_11TestDetailsEPKc
 351      00
 352              	.LEHE6:
 353              	.LEHB7:
 354 00f1 E8000000 		call	__cxa_end_catch
 354      00
 355              	.LEHE7:
 356              	.LBE7:
  15:TestUnitTest++.cpp **** }
 357              		.loc 4 15 0 is_stmt 1 discriminator 1
 358 00f6 90       		nop
 359              	.L14:
 360              		.loc 4 15 0 is_stmt 0
 361 00f7 4883C448 		addq	$72, %rsp
 362 00fb 5B       		popq	%rbx
 363 00fc 5D       		popq	%rbp
 364              		.cfi_def_cfa 7, 8
 365 00fd C3       		ret
 366              		.cfi_endproc
 367              	.LFE1292:
 368              		.section	.gcc_except_table,"a",@progbits
 369              		.align 4
 370              	.LLSDA1292:
 371 0000 FF       		.byte	0xff
 372 0001 03       		.byte	0x3
 373 0002 19       		.uleb128 .LLSDATT1292-.LLSDATTD1292
 374              	.LLSDATTD1292:
 375 0003 01       		.byte	0x1
 376 0004 11       		.uleb128 .LLSDACSE1292-.LLSDACSB1292
 377              	.LLSDACSB1292:
 378 0005 26       		.uleb128 .LEHB4-.LFB1292
 379 0006 38       		.uleb128 .LEHE4-.LEHB4
 380 0007 73       		.uleb128 .L18-.LFB1292
 381 0008 01       		.uleb128 0x1
 382 0009 6E       		.uleb128 .LEHB5-.LFB1292
 383 000a 05       		.uleb128 .LEHE5-.LEHB5
 384 000b 00       		.uleb128 0
 385 000c 00       		.uleb128 0
 386 000d 7B       		.uleb128 .LEHB6-.LFB1292
 387 000e 38       		.uleb128 .LEHE6-.LEHB6
 388 000f 60       		.uleb128 .L19-.LFB1292
 389 0010 00       		.uleb128 0
 390 0011 B301     		.uleb128 .LEHB7-.LFB1292
 391 0013 05       		.uleb128 .LEHE7-.LEHB7
 392 0014 00       		.uleb128 0
 393 0015 00       		.uleb128 0
 394              	.LLSDACSE1292:
 395 0016 01       		.byte	0x1
 396 0017 00       		.byte	0
 397              		.align 4
 398 0018 00000000 		.long	0
 399              	
 400              	.LLSDATT1292:
 401              		.text
 403              		.section	.rodata
 404              	.LC5:
 405 0058 43686563 		.string	"CheckWorksWithPointers"
 405      6B576F72 
 405      6B735769 
 405      7468506F 
 405      696E7465 
 406              		.text
 407              		.align 2
 409              	_ZN12_GLOBAL__N_126TestCheckWorksWithPointersC2Ev:
 410              	.LFB1294:
  16:TestUnitTest++.cpp **** 
  17:TestUnitTest++.cpp **** TEST(CheckWorksWithPointers)
 411              		.loc 4 17 0 is_stmt 1
 412              		.cfi_startproc
 413 00fe 55       		pushq	%rbp
 414              		.cfi_def_cfa_offset 16
 415              		.cfi_offset 6, -16
 416 00ff 4889E5   		movq	%rsp, %rbp
 417              		.cfi_def_cfa_register 6
 418 0102 4883EC10 		subq	$16, %rsp
 419 0106 48897DF8 		movq	%rdi, -8(%rbp)
 420              	.LBB8:
 421              		.loc 4 17 0
 422 010a E8000000 		call	_ZN13UnitTestSuite12GetSuiteNameEv
 422      00
 423 010f 4889C2   		movq	%rax, %rdx
 424 0112 488B45F8 		movq	-8(%rbp), %rax
 425 0116 41B81100 		movl	$17, %r8d
 425      0000
 426 011c B9000000 		movl	$.LC1, %ecx
 426      00
 427 0121 BE000000 		movl	$.LC5, %esi
 427      00
 428 0126 4889C7   		movq	%rax, %rdi
 429 0129 E8000000 		call	_ZN8UnitTest4TestC2EPKcS2_S2_i
 429      00
 430 012e 488B45F8 		movq	-8(%rbp), %rax
 431 0132 48C70000 		movq	$_ZTVN12_GLOBAL__N_126TestCheckWorksWithPointersE+16, (%rax)
 431      000000
 432              	.LBE8:
 433 0139 C9       		leave
 434              		.cfi_def_cfa 7, 8
 435 013a C3       		ret
 436              		.cfi_endproc
 437              	.LFE1294:
 439              		.set	_ZN12_GLOBAL__N_126TestCheckWorksWithPointersC1Ev,_ZN12_GLOBAL__N_126TestCheckWorksWithPointe
 440              		.local	_ZN12_GLOBAL__N_134testCheckWorksWithPointersInstanceE
 441              		.comm	_ZN12_GLOBAL__N_134testCheckWorksWithPointersInstanceE,56,32
 442              		.local	_ZN12_GLOBAL__N_127adderCheckWorksWithPointersE
 443              		.comm	_ZN12_GLOBAL__N_127adderCheckWorksWithPointersE,1,1
 444              		.section	.rodata
 445              	.LC6:
 446 006f 7000     		.string	"p"
 447              	.LC7:
 448 0071 7020213D 		.string	"p != 0"
 448      203000
 449              		.align 8
 450              	.LC8:
 451 0078 556E6861 		.string	"Unhandled exception in CHECK(p)"
 451      6E646C65 
 451      64206578 
 451      63657074 
 451      696F6E20 
 452              		.align 8
 453              	.LC9:
 454 0098 556E6861 		.string	"Unhandled exception in CHECK(p != 0)"
 454      6E646C65 
 454      64206578 
 454      63657074 
 454      696F6E20 
 455              		.text
 456 013b 90       		.align 2
 458              	_ZNK12_GLOBAL__N_126TestCheckWorksWithPointers7RunImplEv:
 459              	.LFB1296:
  18:TestUnitTest++.cpp **** {
 460              		.loc 4 18 0
 461              		.cfi_startproc
 462              		.cfi_personality 0x3,__gxx_personality_v0
 463              		.cfi_lsda 0x3,.LLSDA1296
 464 013c 55       		pushq	%rbp
 465              		.cfi_def_cfa_offset 16
 466              		.cfi_offset 6, -16
 467 013d 4889E5   		movq	%rsp, %rbp
 468              		.cfi_def_cfa_register 6
 469 0140 53       		pushq	%rbx
 470 0141 4883EC48 		subq	$72, %rsp
 471              		.cfi_offset 3, -24
 472 0145 48897DB8 		movq	%rdi, -72(%rbp)
 473              	.LBB9:
  19:TestUnitTest++.cpp ****     void* p = (void *)0x100;
 474              		.loc 4 19 0
 475 0149 48C745C8 		movq	$256, -56(%rbp)
 475      00010000 
  20:TestUnitTest++.cpp ****     CHECK(p);
 476              		.loc 4 20 0
 477 0151 488B45C8 		movq	-56(%rbp), %rax
 478 0155 4889C7   		movq	%rax, %rdi
 479 0158 E8000000 		call	_ZN8UnitTest5CheckIPvEEbT_
 479      00
 480 015d 83F001   		xorl	$1, %eax
 481 0160 84C0     		testb	%al, %al
 482 0162 7438     		je	.L22
 483              	.LEHB8:
 484              		.loc 4 20 0 is_stmt 0 discriminator 1
 485 0164 E8000000 		call	_ZN8UnitTest11CurrentTest7DetailsEv
 485      00
 486 0169 488B08   		movq	(%rax), %rcx
 487 016c 488D45D0 		leaq	-48(%rbp), %rax
 488 0170 BA140000 		movl	$20, %edx
 488      00
 489 0175 4889CE   		movq	%rcx, %rsi
 490 0178 4889C7   		movq	%rax, %rdi
 491 017b E8000000 		call	_ZN8UnitTest11TestDetailsC1ERKS0_i
 491      00
 492 0180 E8000000 		call	_ZN8UnitTest11CurrentTest7ResultsEv
 492      00
 493 0185 488B00   		movq	(%rax), %rax
 494 0188 488D4DD0 		leaq	-48(%rbp), %rcx
 495 018c BA000000 		movl	$.LC6, %edx
 495      00
 496 0191 4889CE   		movq	%rcx, %rsi
 497 0194 4889C7   		movq	%rax, %rdi
 498 0197 E8000000 		call	_ZN8UnitTest11TestResults13OnTestFailureERKNS_11TestDetailsEPKc
 498      00
 499              	.LEHE8:
 500              	.L22:
  21:TestUnitTest++.cpp ****     CHECK(p != 0);
 501              		.loc 4 21 0 is_stmt 1
 502 019c 48837DC8 		cmpq	$0, -56(%rbp)
 502      00
 503 01a1 0F95C0   		setne	%al
 504 01a4 0FB6C0   		movzbl	%al, %eax
 505 01a7 89C7     		movl	%eax, %edi
 506 01a9 E8000000 		call	_ZN8UnitTest5CheckIbEEbT_
 506      00
 507 01ae 83F001   		xorl	$1, %eax
 508 01b1 84C0     		testb	%al, %al
 509 01b3 0F84F300 		je	.L21
 509      0000
 510              	.LEHB9:
 511              		.loc 4 21 0 is_stmt 0 discriminator 1
 512 01b9 E8000000 		call	_ZN8UnitTest11CurrentTest7DetailsEv
 512      00
 513 01be 488B08   		movq	(%rax), %rcx
 514 01c1 488D45D0 		leaq	-48(%rbp), %rax
 515 01c5 BA150000 		movl	$21, %edx
 515      00
 516 01ca 4889CE   		movq	%rcx, %rsi
 517 01cd 4889C7   		movq	%rax, %rdi
 518 01d0 E8000000 		call	_ZN8UnitTest11TestDetailsC1ERKS0_i
 518      00
 519 01d5 E8000000 		call	_ZN8UnitTest11CurrentTest7ResultsEv
 519      00
 520 01da 488B00   		movq	(%rax), %rax
 521 01dd 488D4DD0 		leaq	-48(%rbp), %rcx
 522 01e1 BA000000 		movl	$.LC7, %edx
 522      00
 523 01e6 4889CE   		movq	%rcx, %rsi
 524 01e9 4889C7   		movq	%rax, %rdi
 525 01ec E8000000 		call	_ZN8UnitTest11TestResults13OnTestFailureERKNS_11TestDetailsEPKc
 525      00
 526              	.LEHE9:
 527 01f1 E9B60000 		jmp	.L21
 527      00
 528              	.L29:
 529 01f6 4889C3   		movq	%rax, %rbx
  20:TestUnitTest++.cpp ****     CHECK(p);
 530              		.loc 4 20 0 is_stmt 1
 531 01f9 E8000000 		call	__cxa_end_catch
 531      00
 532 01fe 4889D8   		movq	%rbx, %rax
 533 0201 4889C7   		movq	%rax, %rdi
 534              	.LEHB10:
 535 0204 E8000000 		call	_Unwind_Resume
 535      00
 536              	.LEHE10:
 537              	.L28:
 538 0209 4889C7   		movq	%rax, %rdi
 539 020c E8000000 		call	__cxa_begin_catch
 539      00
 540              	.LEHB11:
 541 0211 E8000000 		call	_ZN8UnitTest11CurrentTest7DetailsEv
 541      00
 542 0216 488B08   		movq	(%rax), %rcx
 543 0219 488D45D0 		leaq	-48(%rbp), %rax
 544 021d BA140000 		movl	$20, %edx
 544      00
 545 0222 4889CE   		movq	%rcx, %rsi
 546 0225 4889C7   		movq	%rax, %rdi
 547 0228 E8000000 		call	_ZN8UnitTest11TestDetailsC1ERKS0_i
 547      00
  20:TestUnitTest++.cpp ****     CHECK(p);
 548              		.loc 4 20 0 is_stmt 0 discriminator 1
 549 022d E8000000 		call	_ZN8UnitTest11CurrentTest7ResultsEv
 549      00
 550 0232 488B00   		movq	(%rax), %rax
 551 0235 488D4DD0 		leaq	-48(%rbp), %rcx
 552 0239 BA000000 		movl	$.LC8, %edx
 552      00
 553 023e 4889CE   		movq	%rcx, %rsi
 554 0241 4889C7   		movq	%rax, %rdi
 555 0244 E8000000 		call	_ZN8UnitTest11TestResults13OnTestFailureERKNS_11TestDetailsEPKc
 555      00
 556              	.LEHE11:
 557              	.LEHB12:
 558 0249 E8000000 		call	__cxa_end_catch
 558      00
 559              	.LEHE12:
 560 024e E949FFFF 		jmp	.L22
 560      FF
 561              	.L31:
 562 0253 4889C3   		movq	%rax, %rbx
 563              		.loc 4 21 0 is_stmt 1
 564 0256 E8000000 		call	__cxa_end_catch
 564      00
 565 025b 4889D8   		movq	%rbx, %rax
 566 025e 4889C7   		movq	%rax, %rdi
 567              	.LEHB13:
 568 0261 E8000000 		call	_Unwind_Resume
 568      00
 569              	.LEHE13:
 570              	.L30:
 571 0266 4889C7   		movq	%rax, %rdi
 572 0269 E8000000 		call	__cxa_begin_catch
 572      00
 573              	.LEHB14:
 574 026e E8000000 		call	_ZN8UnitTest11CurrentTest7DetailsEv
 574      00
 575 0273 488B08   		movq	(%rax), %rcx
 576 0276 488D45D0 		leaq	-48(%rbp), %rax
 577 027a BA150000 		movl	$21, %edx
 577      00
 578 027f 4889CE   		movq	%rcx, %rsi
 579 0282 4889C7   		movq	%rax, %rdi
 580 0285 E8000000 		call	_ZN8UnitTest11TestDetailsC1ERKS0_i
 580      00
 581              		.loc 4 21 0 is_stmt 0 discriminator 1
 582 028a E8000000 		call	_ZN8UnitTest11CurrentTest7ResultsEv
 582      00
 583 028f 488B00   		movq	(%rax), %rax
 584 0292 488D4DD0 		leaq	-48(%rbp), %rcx
 585 0296 BA000000 		movl	$.LC9, %edx
 585      00
 586 029b 4889CE   		movq	%rcx, %rsi
 587 029e 4889C7   		movq	%rax, %rdi
 588 02a1 E8000000 		call	_ZN8UnitTest11TestResults13OnTestFailureERKNS_11TestDetailsEPKc
 588      00
 589              	.LEHE14:
 590              	.LEHB15:
 591 02a6 E8000000 		call	__cxa_end_catch
 591      00
 592              	.LEHE15:
 593              	.LBE9:
  22:TestUnitTest++.cpp **** }
 594              		.loc 4 22 0 is_stmt 1 discriminator 1
 595 02ab 90       		nop
 596              	.L21:
 597              		.loc 4 22 0 is_stmt 0
 598 02ac 4883C448 		addq	$72, %rsp
 599 02b0 5B       		popq	%rbx
 600 02b1 5D       		popq	%rbp
 601              		.cfi_def_cfa 7, 8
 602 02b2 C3       		ret
 603              		.cfi_endproc
 604              	.LFE1296:
 605              		.section	.gcc_except_table
 606              		.align 4
 607              	.LLSDA1296:
 608 001c FF       		.byte	0xff
 609 001d 03       		.byte	0x3
 610 001e 35       		.uleb128 .LLSDATT1296-.LLSDATTD1296
 611              	.LLSDATTD1296:
 612 001f 01       		.byte	0x1
 613 0020 2A       		.uleb128 .LLSDACSE1296-.LLSDACSB1296
 614              	.LLSDACSB1296:
 615 0021 28       		.uleb128 .LEHB8-.LFB1296
 616 0022 38       		.uleb128 .LEHE8-.LEHB8
 617 0023 CD01     		.uleb128 .L28-.LFB1296
 618 0025 01       		.uleb128 0x1
 619 0026 7D       		.uleb128 .LEHB9-.LFB1296
 620 0027 38       		.uleb128 .LEHE9-.LEHB9
 621 0028 AA02     		.uleb128 .L30-.LFB1296
 622 002a 01       		.uleb128 0x1
 623 002b C801     		.uleb128 .LEHB10-.LFB1296
 624 002d 05       		.uleb128 .LEHE10-.LEHB10
 625 002e 00       		.uleb128 0
 626 002f 00       		.uleb128 0
 627 0030 D501     		.uleb128 .LEHB11-.LFB1296
 628 0032 38       		.uleb128 .LEHE11-.LEHB11
 629 0033 BA01     		.uleb128 .L29-.LFB1296
 630 0035 00       		.uleb128 0
 631 0036 8D02     		.uleb128 .LEHB12-.LFB1296
 632 0038 05       		.uleb128 .LEHE12-.LEHB12
 633 0039 00       		.uleb128 0
 634 003a 00       		.uleb128 0
 635 003b A502     		.uleb128 .LEHB13-.LFB1296
 636 003d 05       		.uleb128 .LEHE13-.LEHB13
 637 003e 00       		.uleb128 0
 638 003f 00       		.uleb128 0
 639 0040 B202     		.uleb128 .LEHB14-.LFB1296
 640 0042 38       		.uleb128 .LEHE14-.LEHB14
 641 0043 9702     		.uleb128 .L31-.LFB1296
 642 0045 00       		.uleb128 0
 643 0046 EA02     		.uleb128 .LEHB15-.LFB1296
 644 0048 05       		.uleb128 .LEHE15-.LEHB15
 645 0049 00       		.uleb128 0
 646 004a 00       		.uleb128 0
 647              	.LLSDACSE1296:
 648 004b 01       		.byte	0x1
 649 004c 00       		.byte	0
 650 004d 000000   		.align 4
 651 0050 00000000 		.long	0
 652              	
 653              	.LLSDATT1296:
 654              		.text
 656              		.section	.rodata
 657              	.LC10:
 658 00bd 56616C69 		.string	"ValidCheckEqualSucceeds"
 658      64436865 
 658      636B4571 
 658      75616C53 
 658      75636365 
 659              		.text
 660 02b3 90       		.align 2
 662              	_ZN12_GLOBAL__N_127TestValidCheckEqualSucceedsC2Ev:
 663              	.LFB1298:
  23:TestUnitTest++.cpp **** 
  24:TestUnitTest++.cpp **** TEST(ValidCheckEqualSucceeds)
 664              		.loc 4 24 0 is_stmt 1
 665              		.cfi_startproc
 666 02b4 55       		pushq	%rbp
 667              		.cfi_def_cfa_offset 16
 668              		.cfi_offset 6, -16
 669 02b5 4889E5   		movq	%rsp, %rbp
 670              		.cfi_def_cfa_register 6
 671 02b8 4883EC10 		subq	$16, %rsp
 672 02bc 48897DF8 		movq	%rdi, -8(%rbp)
 673              	.LBB10:
 674              		.loc 4 24 0
 675 02c0 E8000000 		call	_ZN13UnitTestSuite12GetSuiteNameEv
 675      00
 676 02c5 4889C2   		movq	%rax, %rdx
 677 02c8 488B45F8 		movq	-8(%rbp), %rax
 678 02cc 41B81800 		movl	$24, %r8d
 678      0000
 679 02d2 B9000000 		movl	$.LC1, %ecx
 679      00
 680 02d7 BE000000 		movl	$.LC10, %esi
 680      00
 681 02dc 4889C7   		movq	%rax, %rdi
 682 02df E8000000 		call	_ZN8UnitTest4TestC2EPKcS2_S2_i
 682      00
 683 02e4 488B45F8 		movq	-8(%rbp), %rax
 684 02e8 48C70000 		movq	$_ZTVN12_GLOBAL__N_127TestValidCheckEqualSucceedsE+16, (%rax)
 684      000000
 685              	.LBE10:
 686 02ef C9       		leave
 687              		.cfi_def_cfa 7, 8
 688 02f0 C3       		ret
 689              		.cfi_endproc
 690              	.LFE1298:
 692              		.set	_ZN12_GLOBAL__N_127TestValidCheckEqualSucceedsC1Ev,_ZN12_GLOBAL__N_127TestValidCheckEqualSucc
 693              		.local	_ZN12_GLOBAL__N_135testValidCheckEqualSucceedsInstanceE
 694              		.comm	_ZN12_GLOBAL__N_135testValidCheckEqualSucceedsInstanceE,56,32
 695              		.local	_ZN12_GLOBAL__N_128adderValidCheckEqualSucceedsE
 696              		.comm	_ZN12_GLOBAL__N_128adderValidCheckEqualSucceedsE,1,1
 697              		.section	.rodata
 698 00d5 000000   		.align 8
 699              	.LC11:
 700 00d8 556E6861 		.string	"Unhandled exception in CHECK_EQUAL(x, y)"
 700      6E646C65 
 700      64206578 
 700      63657074 
 700      696F6E20 
 701              		.text
 702 02f1 90       		.align 2
 704              	_ZNK12_GLOBAL__N_127TestValidCheckEqualSucceeds7RunImplEv:
 705              	.LFB1300:
  25:TestUnitTest++.cpp **** {
 706              		.loc 4 25 0
 707              		.cfi_startproc
 708              		.cfi_personality 0x3,__gxx_personality_v0
 709              		.cfi_lsda 0x3,.LLSDA1300
 710 02f2 55       		pushq	%rbp
 711              		.cfi_def_cfa_offset 16
 712              		.cfi_offset 6, -16
 713 02f3 4889E5   		movq	%rsp, %rbp
 714              		.cfi_def_cfa_register 6
 715 02f6 53       		pushq	%rbx
 716 02f7 4883EC48 		subq	$72, %rsp
 717              		.cfi_offset 3, -24
 718 02fb 48897DB8 		movq	%rdi, -72(%rbp)
 719              	.LBB11:
  26:TestUnitTest++.cpp ****     int const x = 3;
 720              		.loc 4 26 0
 721 02ff C745C803 		movl	$3, -56(%rbp)
 721      000000
  27:TestUnitTest++.cpp ****     int const y = 3;
 722              		.loc 4 27 0
 723 0306 C745CC03 		movl	$3, -52(%rbp)
 723      000000
 724              	.LEHB16:
  28:TestUnitTest++.cpp ****     CHECK_EQUAL(x, y);
 725              		.loc 4 28 0
 726 030d E8000000 		call	_ZN8UnitTest11CurrentTest7DetailsEv
 726      00
 727 0312 488B08   		movq	(%rax), %rcx
 728 0315 488D45D0 		leaq	-48(%rbp), %rax
 729 0319 BA1C0000 		movl	$28, %edx
 729      00
 730 031e 4889CE   		movq	%rcx, %rsi
 731 0321 4889C7   		movq	%rax, %rdi
 732 0324 E8000000 		call	_ZN8UnitTest11TestDetailsC1ERKS0_i
 732      00
 733              		.loc 4 28 0 is_stmt 0 discriminator 1
 734 0329 E8000000 		call	_ZN8UnitTest11CurrentTest7ResultsEv
 734      00
 735 032e 488B00   		movq	(%rax), %rax
 736 0331 488D4DD0 		leaq	-48(%rbp), %rcx
 737 0335 488D55CC 		leaq	-52(%rbp), %rdx
 738 0339 488D75C8 		leaq	-56(%rbp), %rsi
 739 033d 4889C7   		movq	%rax, %rdi
 740 0340 E8000000 		call	_ZN8UnitTest10CheckEqualIiiEEvRNS_11TestResultsERKT_RKT0_RKNS_11TestDetailsE
 740      00
 741              	.LEHE16:
 742              	.LBE11:
  29:TestUnitTest++.cpp **** }
 743              		.loc 4 29 0 is_stmt 1
 744 0345 EB58     		jmp	.L39
 745              	.L38:
 746 0347 4889C3   		movq	%rax, %rbx
 747              	.LBB12:
  28:TestUnitTest++.cpp ****     CHECK_EQUAL(x, y);
 748              		.loc 4 28 0
 749 034a E8000000 		call	__cxa_end_catch
 749      00
 750 034f 4889D8   		movq	%rbx, %rax
 751 0352 4889C7   		movq	%rax, %rdi
 752              	.LEHB17:
 753 0355 E8000000 		call	_Unwind_Resume
 753      00
 754              	.LEHE17:
 755              	.L37:
 756 035a 4889C7   		movq	%rax, %rdi
 757 035d E8000000 		call	__cxa_begin_catch
 757      00
 758              	.LEHB18:
 759 0362 E8000000 		call	_ZN8UnitTest11CurrentTest7DetailsEv
 759      00
 760 0367 488B08   		movq	(%rax), %rcx
 761 036a 488D45D0 		leaq	-48(%rbp), %rax
 762 036e BA1C0000 		movl	$28, %edx
 762      00
 763 0373 4889CE   		movq	%rcx, %rsi
 764 0376 4889C7   		movq	%rax, %rdi
 765 0379 E8000000 		call	_ZN8UnitTest11TestDetailsC1ERKS0_i
 765      00
  28:TestUnitTest++.cpp ****     CHECK_EQUAL(x, y);
 766              		.loc 4 28 0 is_stmt 0 discriminator 1
 767 037e E8000000 		call	_ZN8UnitTest11CurrentTest7ResultsEv
 767      00
 768 0383 488B00   		movq	(%rax), %rax
 769 0386 488D4DD0 		leaq	-48(%rbp), %rcx
 770 038a BA000000 		movl	$.LC11, %edx
 770      00
 771 038f 4889CE   		movq	%rcx, %rsi
 772 0392 4889C7   		movq	%rax, %rdi
 773 0395 E8000000 		call	_ZN8UnitTest11TestResults13OnTestFailureERKNS_11TestDetailsEPKc
 773      00
 774              	.LEHE18:
 775              	.LEHB19:
 776 039a E8000000 		call	__cxa_end_catch
 776      00
 777              	.LEHE19:
 778              	.L39:
 779              	.LBE12:
 780              		.loc 4 29 0 is_stmt 1
 781 039f 90       		nop
 782 03a0 4883C448 		addq	$72, %rsp
 783 03a4 5B       		popq	%rbx
 784 03a5 5D       		popq	%rbp
 785              		.cfi_def_cfa 7, 8
 786 03a6 C3       		ret
 787              		.cfi_endproc
 788              	.LFE1300:
 789              		.section	.gcc_except_table
 790              		.align 4
 791              	.LLSDA1300:
 792 0054 FF       		.byte	0xff
 793 0055 03       		.byte	0x3
 794 0056 19       		.uleb128 .LLSDATT1300-.LLSDATTD1300
 795              	.LLSDATTD1300:
 796 0057 01       		.byte	0x1
 797 0058 11       		.uleb128 .LLSDACSE1300-.LLSDACSB1300
 798              	.LLSDACSB1300:
 799 0059 1B       		.uleb128 .LEHB16-.LFB1300
 800 005a 38       		.uleb128 .LEHE16-.LEHB16
 801 005b 68       		.uleb128 .L37-.LFB1300
 802 005c 01       		.uleb128 0x1
 803 005d 63       		.uleb128 .LEHB17-.LFB1300
 804 005e 05       		.uleb128 .LEHE17-.LEHB17
 805 005f 00       		.uleb128 0
 806 0060 00       		.uleb128 0
 807 0061 70       		.uleb128 .LEHB18-.LFB1300
 808 0062 38       		.uleb128 .LEHE18-.LEHB18
 809 0063 55       		.uleb128 .L38-.LFB1300
 810 0064 00       		.uleb128 0
 811 0065 A801     		.uleb128 .LEHB19-.LFB1300
 812 0067 05       		.uleb128 .LEHE19-.LEHB19
 813 0068 00       		.uleb128 0
 814 0069 00       		.uleb128 0
 815              	.LLSDACSE1300:
 816 006a 01       		.byte	0x1
 817 006b 00       		.byte	0
 818              		.align 4
 819 006c 00000000 		.long	0
 820              	
 821              	.LLSDATT1300:
 822              		.text
 824              		.section	.rodata
 825              	.LC12:
 826 0101 43686563 		.string	"CheckEqualWorksWithPointers"
 826      6B457175 
 826      616C576F 
 826      726B7357 
 826      69746850 
 827              		.text
 828 03a7 90       		.align 2
 830              	_ZN12_GLOBAL__N_131TestCheckEqualWorksWithPointersC2Ev:
 831              	.LFB1302:
  30:TestUnitTest++.cpp **** 
  31:TestUnitTest++.cpp **** TEST(CheckEqualWorksWithPointers)
 832              		.loc 4 31 0
 833              		.cfi_startproc
 834 03a8 55       		pushq	%rbp
 835              		.cfi_def_cfa_offset 16
 836              		.cfi_offset 6, -16
 837 03a9 4889E5   		movq	%rsp, %rbp
 838              		.cfi_def_cfa_register 6
 839 03ac 4883EC10 		subq	$16, %rsp
 840 03b0 48897DF8 		movq	%rdi, -8(%rbp)
 841              	.LBB13:
 842              		.loc 4 31 0
 843 03b4 E8000000 		call	_ZN13UnitTestSuite12GetSuiteNameEv
 843      00
 844 03b9 4889C2   		movq	%rax, %rdx
 845 03bc 488B45F8 		movq	-8(%rbp), %rax
 846 03c0 41B81F00 		movl	$31, %r8d
 846      0000
 847 03c6 B9000000 		movl	$.LC1, %ecx
 847      00
 848 03cb BE000000 		movl	$.LC12, %esi
 848      00
 849 03d0 4889C7   		movq	%rax, %rdi
 850 03d3 E8000000 		call	_ZN8UnitTest4TestC2EPKcS2_S2_i
 850      00
 851 03d8 488B45F8 		movq	-8(%rbp), %rax
 852 03dc 48C70000 		movq	$_ZTVN12_GLOBAL__N_131TestCheckEqualWorksWithPointersE+16, (%rax)
 852      000000
 853              	.LBE13:
 854 03e3 C9       		leave
 855              		.cfi_def_cfa 7, 8
 856 03e4 C3       		ret
 857              		.cfi_endproc
 858              	.LFE1302:
 860              		.set	_ZN12_GLOBAL__N_131TestCheckEqualWorksWithPointersC1Ev,_ZN12_GLOBAL__N_131TestCheckEqualWorks
 861              		.local	_ZN12_GLOBAL__N_139testCheckEqualWorksWithPointersInstanceE
 862              		.comm	_ZN12_GLOBAL__N_139testCheckEqualWorksWithPointersInstanceE,56,32
 863              		.local	_ZN12_GLOBAL__N_132adderCheckEqualWorksWithPointersE
 864              		.comm	_ZN12_GLOBAL__N_132adderCheckEqualWorksWithPointersE,1,1
 865              		.section	.rodata
 866 011d 000000   		.align 8
 867              	.LC13:
 868 0120 556E6861 		.string	"Unhandled exception in CHECK_EQUAL((void*)0, p)"
 868      6E646C65 
 868      64206578 
 868      63657074 
 868      696F6E20 
 869              		.text
 870 03e5 90       		.align 2
 872              	_ZNK12_GLOBAL__N_131TestCheckEqualWorksWithPointers7RunImplEv:
 873              	.LFB1304:
  32:TestUnitTest++.cpp **** {
 874              		.loc 4 32 0
 875              		.cfi_startproc
 876              		.cfi_personality 0x3,__gxx_personality_v0
 877              		.cfi_lsda 0x3,.LLSDA1304
 878 03e6 55       		pushq	%rbp
 879              		.cfi_def_cfa_offset 16
 880              		.cfi_offset 6, -16
 881 03e7 4889E5   		movq	%rsp, %rbp
 882              		.cfi_def_cfa_register 6
 883 03ea 53       		pushq	%rbx
 884 03eb 4883EC48 		subq	$72, %rsp
 885              		.cfi_offset 3, -24
 886 03ef 48897DB8 		movq	%rdi, -72(%rbp)
 887              	.LBB14:
  33:TestUnitTest++.cpp ****     void* p = (void *)0;
 888              		.loc 4 33 0
 889 03f3 48C745C0 		movq	$0, -64(%rbp)
 889      00000000 
 890              	.LEHB20:
  34:TestUnitTest++.cpp ****     CHECK_EQUAL((void*)0, p);
 891              		.loc 4 34 0
 892 03fb E8000000 		call	_ZN8UnitTest11CurrentTest7DetailsEv
 892      00
 893 0400 488B08   		movq	(%rax), %rcx
 894 0403 488D45D0 		leaq	-48(%rbp), %rax
 895 0407 BA220000 		movl	$34, %edx
 895      00
 896 040c 4889CE   		movq	%rcx, %rsi
 897 040f 4889C7   		movq	%rax, %rdi
 898 0412 E8000000 		call	_ZN8UnitTest11TestDetailsC1ERKS0_i
 898      00
 899              		.loc 4 34 0 is_stmt 0 discriminator 1
 900 0417 48C745C8 		movq	$0, -56(%rbp)
 900      00000000 
 901 041f E8000000 		call	_ZN8UnitTest11CurrentTest7ResultsEv
 901      00
 902 0424 488B00   		movq	(%rax), %rax
 903 0427 488D4DD0 		leaq	-48(%rbp), %rcx
 904 042b 488D55C0 		leaq	-64(%rbp), %rdx
 905 042f 488D75C8 		leaq	-56(%rbp), %rsi
 906 0433 4889C7   		movq	%rax, %rdi
 907 0436 E8000000 		call	_ZN8UnitTest10CheckEqualIPvS1_EEvRNS_11TestResultsERKT_RKT0_RKNS_11TestDetailsE
 907      00
 908              	.LEHE20:
 909              	.LBE14:
  35:TestUnitTest++.cpp **** }
 910              		.loc 4 35 0 is_stmt 1
 911 043b EB58     		jmp	.L47
 912              	.L46:
 913 043d 4889C3   		movq	%rax, %rbx
 914              	.LBB15:
  34:TestUnitTest++.cpp ****     CHECK_EQUAL((void*)0, p);
 915              		.loc 4 34 0
 916 0440 E8000000 		call	__cxa_end_catch
 916      00
 917 0445 4889D8   		movq	%rbx, %rax
 918 0448 4889C7   		movq	%rax, %rdi
 919              	.LEHB21:
 920 044b E8000000 		call	_Unwind_Resume
 920      00
 921              	.LEHE21:
 922              	.L45:
 923 0450 4889C7   		movq	%rax, %rdi
 924 0453 E8000000 		call	__cxa_begin_catch
 924      00
 925              	.LEHB22:
 926 0458 E8000000 		call	_ZN8UnitTest11CurrentTest7DetailsEv
 926      00
 927 045d 488B08   		movq	(%rax), %rcx
 928 0460 488D45D0 		leaq	-48(%rbp), %rax
 929 0464 BA220000 		movl	$34, %edx
 929      00
 930 0469 4889CE   		movq	%rcx, %rsi
 931 046c 4889C7   		movq	%rax, %rdi
 932 046f E8000000 		call	_ZN8UnitTest11TestDetailsC1ERKS0_i
 932      00
  34:TestUnitTest++.cpp ****     CHECK_EQUAL((void*)0, p);
 933              		.loc 4 34 0 is_stmt 0 discriminator 1
 934 0474 E8000000 		call	_ZN8UnitTest11CurrentTest7ResultsEv
 934      00
 935 0479 488B00   		movq	(%rax), %rax
 936 047c 488D4DD0 		leaq	-48(%rbp), %rcx
 937 0480 BA000000 		movl	$.LC13, %edx
 937      00
 938 0485 4889CE   		movq	%rcx, %rsi
 939 0488 4889C7   		movq	%rax, %rdi
 940 048b E8000000 		call	_ZN8UnitTest11TestResults13OnTestFailureERKNS_11TestDetailsEPKc
 940      00
 941              	.LEHE22:
 942              	.LEHB23:
 943 0490 E8000000 		call	__cxa_end_catch
 943      00
 944              	.LEHE23:
 945              	.L47:
 946              	.LBE15:
 947              		.loc 4 35 0 is_stmt 1
 948 0495 90       		nop
 949 0496 4883C448 		addq	$72, %rsp
 950 049a 5B       		popq	%rbx
 951 049b 5D       		popq	%rbp
 952              		.cfi_def_cfa 7, 8
 953 049c C3       		ret
 954              		.cfi_endproc
 955              	.LFE1304:
 956              		.section	.gcc_except_table
 957              		.align 4
 958              	.LLSDA1304:
 959 0070 FF       		.byte	0xff
 960 0071 03       		.byte	0x3
 961 0072 19       		.uleb128 .LLSDATT1304-.LLSDATTD1304
 962              	.LLSDATTD1304:
 963 0073 01       		.byte	0x1
 964 0074 11       		.uleb128 .LLSDACSE1304-.LLSDACSB1304
 965              	.LLSDACSB1304:
 966 0075 15       		.uleb128 .LEHB20-.LFB1304
 967 0076 40       		.uleb128 .LEHE20-.LEHB20
 968 0077 6A       		.uleb128 .L45-.LFB1304
 969 0078 01       		.uleb128 0x1
 970 0079 65       		.uleb128 .LEHB21-.LFB1304
 971 007a 05       		.uleb128 .LEHE21-.LEHB21
 972 007b 00       		.uleb128 0
 973 007c 00       		.uleb128 0
 974 007d 72       		.uleb128 .LEHB22-.LFB1304
 975 007e 38       		.uleb128 .LEHE22-.LEHB22
 976 007f 57       		.uleb128 .L46-.LFB1304
 977 0080 00       		.uleb128 0
 978 0081 AA01     		.uleb128 .LEHB23-.LFB1304
 979 0083 05       		.uleb128 .LEHE23-.LEHB23
 980 0084 00       		.uleb128 0
 981 0085 00       		.uleb128 0
 982              	.LLSDACSE1304:
 983 0086 01       		.byte	0x1
 984 0087 00       		.byte	0
 985              		.align 4
 986 0088 00000000 		.long	0
 987              	
 988              	.LLSDATT1304:
 989              		.text
 991              		.section	.rodata
 992              	.LC14:
 993 0150 56616C69 		.string	"ValidCheckCloseSucceeds"
 993      64436865 
 993      636B436C 
 993      6F736553 
 993      75636365 
 994              		.text
 995 049d 90       		.align 2
 997              	_ZN12_GLOBAL__N_127TestValidCheckCloseSucceedsC2Ev:
 998              	.LFB1306:
  36:TestUnitTest++.cpp **** 
  37:TestUnitTest++.cpp **** TEST(ValidCheckCloseSucceeds)
 999              		.loc 4 37 0
 1000              		.cfi_startproc
 1001 049e 55       		pushq	%rbp
 1002              		.cfi_def_cfa_offset 16
 1003              		.cfi_offset 6, -16
 1004 049f 4889E5   		movq	%rsp, %rbp
 1005              		.cfi_def_cfa_register 6
 1006 04a2 4883EC10 		subq	$16, %rsp
 1007 04a6 48897DF8 		movq	%rdi, -8(%rbp)
 1008              	.LBB16:
 1009              		.loc 4 37 0
 1010 04aa E8000000 		call	_ZN13UnitTestSuite12GetSuiteNameEv
 1010      00
 1011 04af 4889C2   		movq	%rax, %rdx
 1012 04b2 488B45F8 		movq	-8(%rbp), %rax
 1013 04b6 41B82500 		movl	$37, %r8d
 1013      0000
 1014 04bc B9000000 		movl	$.LC1, %ecx
 1014      00
 1015 04c1 BE000000 		movl	$.LC14, %esi
 1015      00
 1016 04c6 4889C7   		movq	%rax, %rdi
 1017 04c9 E8000000 		call	_ZN8UnitTest4TestC2EPKcS2_S2_i
 1017      00
 1018 04ce 488B45F8 		movq	-8(%rbp), %rax
 1019 04d2 48C70000 		movq	$_ZTVN12_GLOBAL__N_127TestValidCheckCloseSucceedsE+16, (%rax)
 1019      000000
 1020              	.LBE16:
 1021 04d9 C9       		leave
 1022              		.cfi_def_cfa 7, 8
 1023 04da C3       		ret
 1024              		.cfi_endproc
 1025              	.LFE1306:
 1027              		.set	_ZN12_GLOBAL__N_127TestValidCheckCloseSucceedsC1Ev,_ZN12_GLOBAL__N_127TestValidCheckCloseSucc
 1028              		.local	_ZN12_GLOBAL__N_135testValidCheckCloseSucceedsInstanceE
 1029              		.comm	_ZN12_GLOBAL__N_135testValidCheckCloseSucceedsInstanceE,56,32
 1030              		.local	_ZN12_GLOBAL__N_128adderValidCheckCloseSucceedsE
 1031              		.comm	_ZN12_GLOBAL__N_128adderValidCheckCloseSucceedsE,1,1
 1032              		.section	.rodata
 1033              		.align 8
 1034              	.LC18:
 1035 0168 556E6861 		.string	"Unhandled exception in CHECK_CLOSE(2.0f, 2.001f)"
 1035      6E646C65 
 1035      64206578 
 1035      63657074 
 1035      696F6E20 
 1036 0199 00000000 		.align 8
 1036      000000
 1037              	.LC19:
 1038 01a0 556E6861 		.string	"Unhandled exception in CHECK_CLOSE(2.001f, 2.0f)"
 1038      6E646C65 
 1038      64206578 
 1038      63657074 
 1038      696F6E20 
 1039              		.text
 1040 04db 90       		.align 2
 1042              	_ZNK12_GLOBAL__N_127TestValidCheckCloseSucceeds7RunImplEv:
 1043              	.LFB1308:
  38:TestUnitTest++.cpp **** {
 1044              		.loc 4 38 0
 1045              		.cfi_startproc
 1046              		.cfi_personality 0x3,__gxx_personality_v0
 1047              		.cfi_lsda 0x3,.LLSDA1308
 1048 04dc 55       		pushq	%rbp
 1049              		.cfi_def_cfa_offset 16
 1050              		.cfi_offset 6, -16
 1051 04dd 4889E5   		movq	%rsp, %rbp
 1052              		.cfi_def_cfa_register 6
 1053 04e0 53       		pushq	%rbx
 1054 04e1 4883EC48 		subq	$72, %rsp
 1055              		.cfi_offset 3, -24
 1056 04e5 48897DB8 		movq	%rdi, -72(%rbp)
 1057              	.LEHB24:
  39:TestUnitTest++.cpp ****     CHECK_CLOSE(2.0f, 2.001f, 0.01f);
 1058              		.loc 4 39 0
 1059 04e9 E8000000 		call	_ZN8UnitTest11CurrentTest7DetailsEv
 1059      00
 1060 04ee 488B08   		movq	(%rax), %rcx
 1061 04f1 488D45D0 		leaq	-48(%rbp), %rax
 1062 04f5 BA270000 		movl	$39, %edx
 1062      00
 1063 04fa 4889CE   		movq	%rcx, %rsi
 1064 04fd 4889C7   		movq	%rax, %rdi
 1065 0500 E8000000 		call	_ZN8UnitTest11TestDetailsC1ERKS0_i
 1065      00
 1066              		.loc 4 39 0 is_stmt 0 discriminator 1
 1067 0505 8B050000 		movl	.LC15(%rip), %eax
 1067      0000
 1068 050b 8945CC   		movl	%eax, -52(%rbp)
 1069 050e 8B050000 		movl	.LC16(%rip), %eax
 1069      0000
 1070 0514 8945C8   		movl	%eax, -56(%rbp)
 1071 0517 8B050000 		movl	.LC17(%rip), %eax
 1071      0000
 1072 051d 8945C4   		movl	%eax, -60(%rbp)
 1073 0520 E8000000 		call	_ZN8UnitTest11CurrentTest7ResultsEv
 1073      00
 1074 0525 488B00   		movq	(%rax), %rax
 1075 0528 488D7DD0 		leaq	-48(%rbp), %rdi
 1076 052c 488D4DCC 		leaq	-52(%rbp), %rcx
 1077 0530 488D55C8 		leaq	-56(%rbp), %rdx
 1078 0534 488D75C4 		leaq	-60(%rbp), %rsi
 1079 0538 4989F8   		movq	%rdi, %r8
 1080 053b 4889C7   		movq	%rax, %rdi
 1081 053e E8000000 		call	_ZN8UnitTest10CheckCloseIfffEEvRNS_11TestResultsERKT_RKT0_RKT1_RKNS_11TestDetailsE
 1081      00
 1082              	.LEHE24:
 1083              	.L52:
 1084              	.LEHB25:
  40:TestUnitTest++.cpp ****     CHECK_CLOSE(2.001f, 2.0f, 0.01f);
 1085              		.loc 4 40 0 is_stmt 1
 1086 0543 E8000000 		call	_ZN8UnitTest11CurrentTest7DetailsEv
 1086      00
 1087 0548 488B08   		movq	(%rax), %rcx
 1088 054b 488D45D0 		leaq	-48(%rbp), %rax
 1089 054f BA280000 		movl	$40, %edx
 1089      00
 1090 0554 4889CE   		movq	%rcx, %rsi
 1091 0557 4889C7   		movq	%rax, %rdi
 1092 055a E8000000 		call	_ZN8UnitTest11TestDetailsC1ERKS0_i
 1092      00
 1093              		.loc 4 40 0 is_stmt 0 discriminator 1
 1094 055f 8B050000 		movl	.LC15(%rip), %eax
 1094      0000
 1095 0565 8945CC   		movl	%eax, -52(%rbp)
 1096 0568 8B050000 		movl	.LC17(%rip), %eax
 1096      0000
 1097 056e 8945C8   		movl	%eax, -56(%rbp)
 1098 0571 8B050000 		movl	.LC16(%rip), %eax
 1098      0000
 1099 0577 8945C4   		movl	%eax, -60(%rbp)
 1100 057a E8000000 		call	_ZN8UnitTest11CurrentTest7ResultsEv
 1100      00
 1101 057f 488B00   		movq	(%rax), %rax
 1102 0582 488D7DD0 		leaq	-48(%rbp), %rdi
 1103 0586 488D4DCC 		leaq	-52(%rbp), %rcx
 1104 058a 488D55C8 		leaq	-56(%rbp), %rdx
 1105 058e 488D75C4 		leaq	-60(%rbp), %rsi
 1106 0592 4989F8   		movq	%rdi, %r8
 1107 0595 4889C7   		movq	%rax, %rdi
 1108 0598 E8000000 		call	_ZN8UnitTest10CheckCloseIfffEEvRNS_11TestResultsERKT_RKT0_RKT1_RKNS_11TestDetailsE
 1108      00
 1109              	.LEHE25:
  41:TestUnitTest++.cpp **** }
 1110              		.loc 4 41 0 is_stmt 1
 1111 059d E9B50000 		jmp	.L60
 1111      00
 1112              	.L57:
 1113 05a2 4889C3   		movq	%rax, %rbx
  39:TestUnitTest++.cpp ****     CHECK_CLOSE(2.0f, 2.001f, 0.01f);
 1114              		.loc 4 39 0
 1115 05a5 E8000000 		call	__cxa_end_catch
 1115      00
 1116 05aa 4889D8   		movq	%rbx, %rax
 1117 05ad 4889C7   		movq	%rax, %rdi
 1118              	.LEHB26:
 1119 05b0 E8000000 		call	_Unwind_Resume
 1119      00
 1120              	.LEHE26:
 1121              	.L56:
 1122 05b5 4889C7   		movq	%rax, %rdi
 1123 05b8 E8000000 		call	__cxa_begin_catch
 1123      00
 1124              	.LEHB27:
 1125 05bd E8000000 		call	_ZN8UnitTest11CurrentTest7DetailsEv
 1125      00
 1126 05c2 488B08   		movq	(%rax), %rcx
 1127 05c5 488D45D0 		leaq	-48(%rbp), %rax
 1128 05c9 BA270000 		movl	$39, %edx
 1128      00
 1129 05ce 4889CE   		movq	%rcx, %rsi
 1130 05d1 4889C7   		movq	%rax, %rdi
 1131 05d4 E8000000 		call	_ZN8UnitTest11TestDetailsC1ERKS0_i
 1131      00
  39:TestUnitTest++.cpp ****     CHECK_CLOSE(2.0f, 2.001f, 0.01f);
 1132              		.loc 4 39 0 is_stmt 0 discriminator 1
 1133 05d9 E8000000 		call	_ZN8UnitTest11CurrentTest7ResultsEv
 1133      00
 1134 05de 488B00   		movq	(%rax), %rax
 1135 05e1 488D4DD0 		leaq	-48(%rbp), %rcx
 1136 05e5 BA000000 		movl	$.LC18, %edx
 1136      00
 1137 05ea 4889CE   		movq	%rcx, %rsi
 1138 05ed 4889C7   		movq	%rax, %rdi
 1139 05f0 E8000000 		call	_ZN8UnitTest11TestResults13OnTestFailureERKNS_11TestDetailsEPKc
 1139      00
 1140              	.LEHE27:
 1141              	.LEHB28:
 1142 05f5 E8000000 		call	__cxa_end_catch
 1142      00
 1143              	.LEHE28:
 1144 05fa E944FFFF 		jmp	.L52
 1144      FF
 1145              	.L59:
 1146 05ff 4889C3   		movq	%rax, %rbx
  40:TestUnitTest++.cpp ****     CHECK_CLOSE(2.001f, 2.0f, 0.01f);
 1147              		.loc 4 40 0 is_stmt 1
 1148 0602 E8000000 		call	__cxa_end_catch
 1148      00
 1149 0607 4889D8   		movq	%rbx, %rax
 1150 060a 4889C7   		movq	%rax, %rdi
 1151              	.LEHB29:
 1152 060d E8000000 		call	_Unwind_Resume
 1152      00
 1153              	.LEHE29:
 1154              	.L58:
 1155 0612 4889C7   		movq	%rax, %rdi
 1156 0615 E8000000 		call	__cxa_begin_catch
 1156      00
 1157              	.LEHB30:
 1158 061a E8000000 		call	_ZN8UnitTest11CurrentTest7DetailsEv
 1158      00
 1159 061f 488B08   		movq	(%rax), %rcx
 1160 0622 488D45D0 		leaq	-48(%rbp), %rax
 1161 0626 BA280000 		movl	$40, %edx
 1161      00
 1162 062b 4889CE   		movq	%rcx, %rsi
 1163 062e 4889C7   		movq	%rax, %rdi
 1164 0631 E8000000 		call	_ZN8UnitTest11TestDetailsC1ERKS0_i
 1164      00
  40:TestUnitTest++.cpp ****     CHECK_CLOSE(2.001f, 2.0f, 0.01f);
 1165              		.loc 4 40 0 is_stmt 0 discriminator 1
 1166 0636 E8000000 		call	_ZN8UnitTest11CurrentTest7ResultsEv
 1166      00
 1167 063b 488B00   		movq	(%rax), %rax
 1168 063e 488D4DD0 		leaq	-48(%rbp), %rcx
 1169 0642 BA000000 		movl	$.LC19, %edx
 1169      00
 1170 0647 4889CE   		movq	%rcx, %rsi
 1171 064a 4889C7   		movq	%rax, %rdi
 1172 064d E8000000 		call	_ZN8UnitTest11TestResults13OnTestFailureERKNS_11TestDetailsEPKc
 1172      00
 1173              	.LEHE30:
 1174              	.LEHB31:
 1175 0652 E8000000 		call	__cxa_end_catch
 1175      00
 1176              	.LEHE31:
 1177              	.L60:
 1178              		.loc 4 41 0 is_stmt 1
 1179 0657 90       		nop
 1180 0658 4883C448 		addq	$72, %rsp
 1181 065c 5B       		popq	%rbx
 1182 065d 5D       		popq	%rbp
 1183              		.cfi_def_cfa 7, 8
 1184 065e C3       		ret
 1185              		.cfi_endproc
 1186              	.LFE1308:
 1187              		.section	.gcc_except_table
 1188              		.align 4
 1189              	.LLSDA1308:
 1190 008c FF       		.byte	0xff
 1191 008d 03       		.byte	0x3
 1192 008e 35       		.uleb128 .LLSDATT1308-.LLSDATTD1308
 1193              	.LLSDATTD1308:
 1194 008f 01       		.byte	0x1
 1195 0090 2A       		.uleb128 .LLSDACSE1308-.LLSDACSB1308
 1196              	.LLSDACSB1308:
 1197 0091 0D       		.uleb128 .LEHB24-.LFB1308
 1198 0092 5A       		.uleb128 .LEHE24-.LEHB24
 1199 0093 D901     		.uleb128 .L56-.LFB1308
 1200 0095 01       		.uleb128 0x1
 1201 0096 67       		.uleb128 .LEHB25-.LFB1308
 1202 0097 5A       		.uleb128 .LEHE25-.LEHB25
 1203 0098 B602     		.uleb128 .L58-.LFB1308
 1204 009a 01       		.uleb128 0x1
 1205 009b D401     		.uleb128 .LEHB26-.LFB1308
 1206 009d 05       		.uleb128 .LEHE26-.LEHB26
 1207 009e 00       		.uleb128 0
 1208 009f 00       		.uleb128 0
 1209 00a0 E101     		.uleb128 .LEHB27-.LFB1308
 1210 00a2 38       		.uleb128 .LEHE27-.LEHB27
 1211 00a3 C601     		.uleb128 .L57-.LFB1308
 1212 00a5 00       		.uleb128 0
 1213 00a6 9902     		.uleb128 .LEHB28-.LFB1308
 1214 00a8 05       		.uleb128 .LEHE28-.LEHB28
 1215 00a9 00       		.uleb128 0
 1216 00aa 00       		.uleb128 0
 1217 00ab B102     		.uleb128 .LEHB29-.LFB1308
 1218 00ad 05       		.uleb128 .LEHE29-.LEHB29
 1219 00ae 00       		.uleb128 0
 1220 00af 00       		.uleb128 0
 1221 00b0 BE02     		.uleb128 .LEHB30-.LFB1308
 1222 00b2 38       		.uleb128 .LEHE30-.LEHB30
 1223 00b3 A302     		.uleb128 .L59-.LFB1308
 1224 00b5 00       		.uleb128 0
 1225 00b6 F602     		.uleb128 .LEHB31-.LFB1308
 1226 00b8 05       		.uleb128 .LEHE31-.LEHB31
 1227 00b9 00       		.uleb128 0
 1228 00ba 00       		.uleb128 0
 1229              	.LLSDACSE1308:
 1230 00bb 01       		.byte	0x1
 1231 00bc 00       		.byte	0
 1232 00bd 000000   		.align 4
 1233 00c0 00000000 		.long	0
 1234              	
 1235              	.LLSDATT1308:
 1236              		.text
 1238              		.section	.rodata
 1239              	.LC20:
 1240 01d1 41727261 		.string	"ArrayCloseSucceeds"
 1240      79436C6F 
 1240      73655375 
 1240      63636565 
 1240      647300
 1241              		.text
 1242 065f 90       		.align 2
 1244              	_ZN12_GLOBAL__N_122TestArrayCloseSucceedsC2Ev:
 1245              	.LFB1310:
  42:TestUnitTest++.cpp **** 
  43:TestUnitTest++.cpp **** TEST(ArrayCloseSucceeds)
 1246              		.loc 4 43 0
 1247              		.cfi_startproc
 1248 0660 55       		pushq	%rbp
 1249              		.cfi_def_cfa_offset 16
 1250              		.cfi_offset 6, -16
 1251 0661 4889E5   		movq	%rsp, %rbp
 1252              		.cfi_def_cfa_register 6
 1253 0664 4883EC10 		subq	$16, %rsp
 1254 0668 48897DF8 		movq	%rdi, -8(%rbp)
 1255              	.LBB17:
 1256              		.loc 4 43 0
 1257 066c E8000000 		call	_ZN13UnitTestSuite12GetSuiteNameEv
 1257      00
 1258 0671 4889C2   		movq	%rax, %rdx
 1259 0674 488B45F8 		movq	-8(%rbp), %rax
 1260 0678 41B82B00 		movl	$43, %r8d
 1260      0000
 1261 067e B9000000 		movl	$.LC1, %ecx
 1261      00
 1262 0683 BE000000 		movl	$.LC20, %esi
 1262      00
 1263 0688 4889C7   		movq	%rax, %rdi
 1264 068b E8000000 		call	_ZN8UnitTest4TestC2EPKcS2_S2_i
 1264      00
 1265 0690 488B45F8 		movq	-8(%rbp), %rax
 1266 0694 48C70000 		movq	$_ZTVN12_GLOBAL__N_122TestArrayCloseSucceedsE+16, (%rax)
 1266      000000
 1267              	.LBE17:
 1268 069b C9       		leave
 1269              		.cfi_def_cfa 7, 8
 1270 069c C3       		ret
 1271              		.cfi_endproc
 1272              	.LFE1310:
 1274              		.set	_ZN12_GLOBAL__N_122TestArrayCloseSucceedsC1Ev,_ZN12_GLOBAL__N_122TestArrayCloseSucceedsC2Ev
 1275              		.local	_ZN12_GLOBAL__N_130testArrayCloseSucceedsInstanceE
 1276              		.comm	_ZN12_GLOBAL__N_130testArrayCloseSucceedsInstanceE,56,32
 1277              		.local	_ZN12_GLOBAL__N_123adderArrayCloseSucceedsE
 1278              		.comm	_ZN12_GLOBAL__N_123adderArrayCloseSucceedsE,1,1
 1279              		.section	.rodata
 1280 01e4 00000000 		.align 8
 1281              	.LC25:
 1282 01e8 556E6861 		.string	"Unhandled exception in CHECK_ARRAY_CLOSE(a1, a2)"
 1282      6E646C65 
 1282      64206578 
 1282      63657074 
 1282      696F6E20 
 1283              		.text
 1284 069d 90       		.align 2
 1286              	_ZNK12_GLOBAL__N_122TestArrayCloseSucceeds7RunImplEv:
 1287              	.LFB1312:
  44:TestUnitTest++.cpp **** {
 1288              		.loc 4 44 0
 1289              		.cfi_startproc
 1290              		.cfi_personality 0x3,__gxx_personality_v0
 1291              		.cfi_lsda 0x3,.LLSDA1312
 1292 069e 55       		pushq	%rbp
 1293              		.cfi_def_cfa_offset 16
 1294              		.cfi_offset 6, -16
 1295 069f 4889E5   		movq	%rsp, %rbp
 1296              		.cfi_def_cfa_register 6
 1297 06a2 53       		pushq	%rbx
 1298 06a3 4883EC68 		subq	$104, %rsp
 1299              		.cfi_offset 3, -24
 1300 06a7 48897D98 		movq	%rdi, -104(%rbp)
 1301              	.LBB18:
  45:TestUnitTest++.cpp ****     float const a1[] = {1, 2, 3};
 1302              		.loc 4 45 0
 1303 06ab 8B050000 		movl	.LC21(%rip), %eax
 1303      0000
 1304 06b1 8945B0   		movl	%eax, -80(%rbp)
 1305 06b4 8B050000 		movl	.LC17(%rip), %eax
 1305      0000
 1306 06ba 8945B4   		movl	%eax, -76(%rbp)
 1307 06bd 8B050000 		movl	.LC22(%rip), %eax
 1307      0000
 1308 06c3 8945B8   		movl	%eax, -72(%rbp)
  46:TestUnitTest++.cpp ****     float const a2[] = {1, 2.01f, 3};
 1309              		.loc 4 46 0
 1310 06c6 8B050000 		movl	.LC21(%rip), %eax
 1310      0000
 1311 06cc 8945C0   		movl	%eax, -64(%rbp)
 1312 06cf 8B050000 		movl	.LC23(%rip), %eax
 1312      0000
 1313 06d5 8945C4   		movl	%eax, -60(%rbp)
 1314 06d8 8B050000 		movl	.LC22(%rip), %eax
 1314      0000
 1315 06de 8945C8   		movl	%eax, -56(%rbp)
 1316              	.LEHB32:
  47:TestUnitTest++.cpp ****     CHECK_ARRAY_CLOSE(a1, a2, 3, 0.1f);
 1317              		.loc 4 47 0
 1318 06e1 E8000000 		call	_ZN8UnitTest11CurrentTest7DetailsEv
 1318      00
 1319 06e6 488B08   		movq	(%rax), %rcx
 1320 06e9 488D45D0 		leaq	-48(%rbp), %rax
 1321 06ed BA2F0000 		movl	$47, %edx
 1321      00
 1322 06f2 4889CE   		movq	%rcx, %rsi
 1323 06f5 4889C7   		movq	%rax, %rdi
 1324 06f8 E8000000 		call	_ZN8UnitTest11TestDetailsC1ERKS0_i
 1324      00
 1325              		.loc 4 47 0 is_stmt 0 discriminator 1
 1326 06fd 8B050000 		movl	.LC24(%rip), %eax
 1326      0000
 1327 0703 8945AC   		movl	%eax, -84(%rbp)
 1328 0706 E8000000 		call	_ZN8UnitTest11CurrentTest7ResultsEv
 1328      00
 1329 070b 488B00   		movq	(%rax), %rax
 1330 070e 488D7DD0 		leaq	-48(%rbp), %rdi
 1331 0712 488D4DAC 		leaq	-84(%rbp), %rcx
 1332 0716 488D55C0 		leaq	-64(%rbp), %rdx
 1333 071a 488D75B0 		leaq	-80(%rbp), %rsi
 1334 071e 4989F9   		movq	%rdi, %r9
 1335 0721 4989C8   		movq	%rcx, %r8
 1336 0724 B9030000 		movl	$3, %ecx
 1336      00
 1337 0729 4889C7   		movq	%rax, %rdi
 1338 072c E8000000 		call	_ZN8UnitTest15CheckArrayCloseIA3_fS1_fEEvRNS_11TestResultsERKT_RKT0_iRKT1_RKNS_11TestDetailsE
 1338      00
 1339              	.LEHE32:
 1340              	.LBE18:
  48:TestUnitTest++.cpp **** }
 1341              		.loc 4 48 0 is_stmt 1
 1342 0731 EB58     		jmp	.L68
 1343              	.L67:
 1344 0733 4889C3   		movq	%rax, %rbx
 1345              	.LBB19:
  47:TestUnitTest++.cpp ****     CHECK_ARRAY_CLOSE(a1, a2, 3, 0.1f);
 1346              		.loc 4 47 0
 1347 0736 E8000000 		call	__cxa_end_catch
 1347      00
 1348 073b 4889D8   		movq	%rbx, %rax
 1349 073e 4889C7   		movq	%rax, %rdi
 1350              	.LEHB33:
 1351 0741 E8000000 		call	_Unwind_Resume
 1351      00
 1352              	.LEHE33:
 1353              	.L66:
 1354 0746 4889C7   		movq	%rax, %rdi
 1355 0749 E8000000 		call	__cxa_begin_catch
 1355      00
 1356              	.LEHB34:
 1357 074e E8000000 		call	_ZN8UnitTest11CurrentTest7DetailsEv
 1357      00
 1358 0753 488B08   		movq	(%rax), %rcx
 1359 0756 488D45D0 		leaq	-48(%rbp), %rax
 1360 075a BA2F0000 		movl	$47, %edx
 1360      00
 1361 075f 4889CE   		movq	%rcx, %rsi
 1362 0762 4889C7   		movq	%rax, %rdi
 1363 0765 E8000000 		call	_ZN8UnitTest11TestDetailsC1ERKS0_i
 1363      00
  47:TestUnitTest++.cpp ****     CHECK_ARRAY_CLOSE(a1, a2, 3, 0.1f);
 1364              		.loc 4 47 0 is_stmt 0 discriminator 1
 1365 076a E8000000 		call	_ZN8UnitTest11CurrentTest7ResultsEv
 1365      00
 1366 076f 488B00   		movq	(%rax), %rax
 1367 0772 488D4DD0 		leaq	-48(%rbp), %rcx
 1368 0776 BA000000 		movl	$.LC25, %edx
 1368      00
 1369 077b 4889CE   		movq	%rcx, %rsi
 1370 077e 4889C7   		movq	%rax, %rdi
 1371 0781 E8000000 		call	_ZN8UnitTest11TestResults13OnTestFailureERKNS_11TestDetailsEPKc
 1371      00
 1372              	.LEHE34:
 1373              	.LEHB35:
 1374 0786 E8000000 		call	__cxa_end_catch
 1374      00
 1375              	.LEHE35:
 1376              	.L68:
 1377              	.LBE19:
 1378              		.loc 4 48 0 is_stmt 1
 1379 078b 90       		nop
 1380 078c 4883C468 		addq	$104, %rsp
 1381 0790 5B       		popq	%rbx
 1382 0791 5D       		popq	%rbp
 1383              		.cfi_def_cfa 7, 8
 1384 0792 C3       		ret
 1385              		.cfi_endproc
 1386              	.LFE1312:
 1387              		.section	.gcc_except_table
 1388              		.align 4
 1389              	.LLSDA1312:
 1390 00c4 FF       		.byte	0xff
 1391 00c5 03       		.byte	0x3
 1392 00c6 1D       		.uleb128 .LLSDATT1312-.LLSDATTD1312
 1393              	.LLSDATTD1312:
 1394 00c7 01       		.byte	0x1
 1395 00c8 15       		.uleb128 .LLSDACSE1312-.LLSDACSB1312
 1396              	.LLSDACSB1312:
 1397 00c9 43       		.uleb128 .LEHB32-.LFB1312
 1398 00ca 50       		.uleb128 .LEHE32-.LEHB32
 1399 00cb A801     		.uleb128 .L66-.LFB1312
 1400 00cd 01       		.uleb128 0x1
 1401 00ce A301     		.uleb128 .LEHB33-.LFB1312
 1402 00d0 05       		.uleb128 .LEHE33-.LEHB33
 1403 00d1 00       		.uleb128 0
 1404 00d2 00       		.uleb128 0
 1405 00d3 B001     		.uleb128 .LEHB34-.LFB1312
 1406 00d5 38       		.uleb128 .LEHE34-.LEHB34
 1407 00d6 9501     		.uleb128 .L67-.LFB1312
 1408 00d8 00       		.uleb128 0
 1409 00d9 E801     		.uleb128 .LEHB35-.LFB1312
 1410 00db 05       		.uleb128 .LEHE35-.LEHB35
 1411 00dc 00       		.uleb128 0
 1412 00dd 00       		.uleb128 0
 1413              	.LLSDACSE1312:
 1414 00de 01       		.byte	0x1
 1415 00df 00       		.byte	0
 1416              		.align 4
 1417 00e0 00000000 		.long	0
 1418              	
 1419              	.LLSDATT1312:
 1420              		.text
 1422              		.section	.rodata
 1423 0219 00000000 		.align 8
 1423      000000
 1424              	.LC26:
 1425 0220 43686563 		.string	"CheckArrayCloseWorksWithVectors"
 1425      6B417272 
 1425      6179436C 
 1425      6F736557 
 1425      6F726B73 
 1426              		.text
 1427 0793 90       		.align 2
 1429              	_ZN12_GLOBAL__N_135TestCheckArrayCloseWorksWithVectorsC2Ev:
 1430              	.LFB1314:
  49:TestUnitTest++.cpp **** 
  50:TestUnitTest++.cpp **** TEST (CheckArrayCloseWorksWithVectors)
 1431              		.loc 4 50 0
 1432              		.cfi_startproc
 1433 0794 55       		pushq	%rbp
 1434              		.cfi_def_cfa_offset 16
 1435              		.cfi_offset 6, -16
 1436 0795 4889E5   		movq	%rsp, %rbp
 1437              		.cfi_def_cfa_register 6
 1438 0798 4883EC10 		subq	$16, %rsp
 1439 079c 48897DF8 		movq	%rdi, -8(%rbp)
 1440              	.LBB20:
 1441              		.loc 4 50 0
 1442 07a0 E8000000 		call	_ZN13UnitTestSuite12GetSuiteNameEv
 1442      00
 1443 07a5 4889C2   		movq	%rax, %rdx
 1444 07a8 488B45F8 		movq	-8(%rbp), %rax
 1445 07ac 41B83200 		movl	$50, %r8d
 1445      0000
 1446 07b2 B9000000 		movl	$.LC1, %ecx
 1446      00
 1447 07b7 BE000000 		movl	$.LC26, %esi
 1447      00
 1448 07bc 4889C7   		movq	%rax, %rdi
 1449 07bf E8000000 		call	_ZN8UnitTest4TestC2EPKcS2_S2_i
 1449      00
 1450 07c4 488B45F8 		movq	-8(%rbp), %rax
 1451 07c8 48C70000 		movq	$_ZTVN12_GLOBAL__N_135TestCheckArrayCloseWorksWithVectorsE+16, (%rax)
 1451      000000
 1452              	.LBE20:
 1453 07cf C9       		leave
 1454              		.cfi_def_cfa 7, 8
 1455 07d0 C3       		ret
 1456              		.cfi_endproc
 1457              	.LFE1314:
 1459              		.set	_ZN12_GLOBAL__N_135TestCheckArrayCloseWorksWithVectorsC1Ev,_ZN12_GLOBAL__N_135TestCheckArrayC
 1460              		.local	_ZN12_GLOBAL__N_143testCheckArrayCloseWorksWithVectorsInstanceE
 1461              		.comm	_ZN12_GLOBAL__N_143testCheckArrayCloseWorksWithVectorsInstanceE,56,32
 1462              		.local	_ZN12_GLOBAL__N_136adderCheckArrayCloseWorksWithVectorsE
 1463              		.comm	_ZN12_GLOBAL__N_136adderCheckArrayCloseWorksWithVectorsE,1,1
 1464              		.section	.rodata
 1465              		.align 8
 1466              	.LC29:
 1467 0240 556E6861 		.string	"Unhandled exception in CHECK_ARRAY_CLOSE(a, a)"
 1467      6E646C65 
 1467      64206578 
 1467      63657074 
 1467      696F6E20 
 1468              		.text
 1469 07d1 90       		.align 2
 1471              	_ZNK12_GLOBAL__N_135TestCheckArrayCloseWorksWithVectors7RunImplEv:
 1472              	.LFB1316:
  51:TestUnitTest++.cpp **** {
 1473              		.loc 4 51 0
 1474              		.cfi_startproc
 1475              		.cfi_personality 0x3,__gxx_personality_v0
 1476              		.cfi_lsda 0x3,.LLSDA1316
 1477 07d2 55       		pushq	%rbp
 1478              		.cfi_def_cfa_offset 16
 1479              		.cfi_offset 6, -16
 1480 07d3 4889E5   		movq	%rsp, %rbp
 1481              		.cfi_def_cfa_register 6
 1482 07d6 53       		pushq	%rbx
 1483 07d7 4883EC68 		subq	$104, %rsp
 1484              		.cfi_offset 3, -24
 1485 07db 48897D98 		movq	%rdi, -104(%rbp)
 1486              	.LBB21:
  52:TestUnitTest++.cpp ****     std::vector< float > a(4);
 1487              		.loc 4 52 0
 1488 07df 488D45A8 		leaq	-88(%rbp), %rax
 1489 07e3 4889C7   		movq	%rax, %rdi
 1490 07e6 E8000000 		call	_ZNSaIfEC1Ev
 1490      00
 1491 07eb 8B050000 		movl	.LC27(%rip), %eax
 1491      0000
 1492 07f1 8945D0   		movl	%eax, -48(%rbp)
 1493 07f4 488D4DA8 		leaq	-88(%rbp), %rcx
 1494 07f8 488D55D0 		leaq	-48(%rbp), %rdx
 1495 07fc 488D45B0 		leaq	-80(%rbp), %rax
 1496 0800 BE040000 		movl	$4, %esi
 1496      00
 1497 0805 4889C7   		movq	%rax, %rdi
 1498              	.LEHB36:
 1499 0808 E8000000 		call	_ZNSt6vectorIfSaIfEEC1EmRKfRKS0_
 1499      00
 1500              	.LEHE36:
 1501              		.loc 4 52 0 is_stmt 0 discriminator 1
 1502 080d 488D45A8 		leaq	-88(%rbp), %rax
 1503 0811 4889C7   		movq	%rax, %rdi
 1504 0814 E8000000 		call	_ZNSaIfED1Ev
 1504      00
 1505              	.LBB22:
  53:TestUnitTest++.cpp ****     for (int i = 0; i < 4; ++i)
 1506              		.loc 4 53 0 is_stmt 1 discriminator 1
 1507 0819 C745AC00 		movl	$0, -84(%rbp)
 1507      000000
 1508 0820 EB22     		jmp	.L71
 1509              	.L72:
  54:TestUnitTest++.cpp ****         a[i] = (float)i;
 1510              		.loc 4 54 0 discriminator 2
 1511 0822 8B45AC   		movl	-84(%rbp), %eax
 1512 0825 4863D0   		movslq	%eax, %rdx
 1513 0828 488D45B0 		leaq	-80(%rbp), %rax
 1514 082c 4889D6   		movq	%rdx, %rsi
 1515 082f 4889C7   		movq	%rax, %rdi
 1516 0832 E8000000 		call	_ZNSt6vectorIfSaIfEEixEm
 1516      00
 1517 0837 F30F2A45 		cvtsi2ss	-84(%rbp), %xmm0
 1517      AC
 1518 083c F30F1100 		movss	%xmm0, (%rax)
  53:TestUnitTest++.cpp ****     for (int i = 0; i < 4; ++i)
 1519              		.loc 4 53 0 discriminator 2
 1520 0840 8345AC01 		addl	$1, -84(%rbp)
 1521              	.L71:
  53:TestUnitTest++.cpp ****     for (int i = 0; i < 4; ++i)
 1522              		.loc 4 53 0 is_stmt 0 discriminator 1
 1523 0844 837DAC03 		cmpl	$3, -84(%rbp)
 1524 0848 7ED8     		jle	.L72
 1525              	.LEHB37:
 1526              	.LBE22:
  55:TestUnitTest++.cpp **** 
  56:TestUnitTest++.cpp ****     CHECK_ARRAY_CLOSE(a, a, (int)a.size(), 0.0001f);
 1527              		.loc 4 56 0 is_stmt 1
 1528 084a E8000000 		call	_ZN8UnitTest11CurrentTest7DetailsEv
 1528      00
 1529 084f 488B08   		movq	(%rax), %rcx
 1530 0852 488D45D0 		leaq	-48(%rbp), %rax
 1531 0856 BA380000 		movl	$56, %edx
 1531      00
 1532 085b 4889CE   		movq	%rcx, %rsi
 1533 085e 4889C7   		movq	%rax, %rdi
 1534 0861 E8000000 		call	_ZN8UnitTest11TestDetailsC1ERKS0_i
 1534      00
 1535              		.loc 4 56 0 is_stmt 0 discriminator 1
 1536 0866 8B050000 		movl	.LC28(%rip), %eax
 1536      0000
 1537 086c 8945A8   		movl	%eax, -88(%rbp)
 1538 086f 488D45B0 		leaq	-80(%rbp), %rax
 1539 0873 4889C7   		movq	%rax, %rdi
 1540 0876 E8000000 		call	_ZNKSt6vectorIfSaIfEE4sizeEv
 1540      00
 1541 087b 89C3     		movl	%eax, %ebx
 1542 087d E8000000 		call	_ZN8UnitTest11CurrentTest7ResultsEv
 1542      00
 1543 0882 488B00   		movq	(%rax), %rax
 1544 0885 488D7DD0 		leaq	-48(%rbp), %rdi
 1545 0889 488D4DA8 		leaq	-88(%rbp), %rcx
 1546 088d 488D55B0 		leaq	-80(%rbp), %rdx
 1547 0891 488D75B0 		leaq	-80(%rbp), %rsi
 1548 0895 4989F9   		movq	%rdi, %r9
 1549 0898 4989C8   		movq	%rcx, %r8
 1550 089b 89D9     		movl	%ebx, %ecx
 1551 089d 4889C7   		movq	%rax, %rdi
 1552 08a0 E8000000 		call	_ZN8UnitTest15CheckArrayCloseISt6vectorIfSaIfEES3_fEEvRNS_11TestResultsERKT_RKT0_iRKT1_RKNS_1
 1552      00
 1553              	.LEHE37:
 1554              	.L77:
 1555              		.loc 4 56 0 discriminator 2
 1556 08a5 488D45B0 		leaq	-80(%rbp), %rax
 1557 08a9 4889C7   		movq	%rax, %rdi
 1558              	.LEHB38:
 1559 08ac E8000000 		call	_ZNSt6vectorIfSaIfEED1Ev
 1559      00
 1560 08b1 E9850000 		jmp	.L82
 1560      00
 1561              	.L78:
 1562 08b6 4889C3   		movq	%rax, %rbx
 1563 08b9 488D45A8 		leaq	-88(%rbp), %rax
 1564 08bd 4889C7   		movq	%rax, %rdi
 1565 08c0 E8000000 		call	_ZNSaIfED1Ev
 1565      00
 1566 08c5 4889D8   		movq	%rbx, %rax
 1567 08c8 4889C7   		movq	%rax, %rdi
 1568 08cb E8000000 		call	_Unwind_Resume
 1568      00
 1569              	.LEHE38:
 1570              	.L81:
 1571 08d0 4889C3   		movq	%rax, %rbx
 1572              		.loc 4 56 0
 1573 08d3 E8000000 		call	__cxa_end_catch
 1573      00
 1574 08d8 EB4A     		jmp	.L75
 1575              	.L79:
 1576 08da 4889C7   		movq	%rax, %rdi
 1577 08dd E8000000 		call	__cxa_begin_catch
 1577      00
 1578              	.LEHB39:
 1579 08e2 E8000000 		call	_ZN8UnitTest11CurrentTest7DetailsEv
 1579      00
 1580 08e7 488B08   		movq	(%rax), %rcx
 1581 08ea 488D45D0 		leaq	-48(%rbp), %rax
 1582 08ee BA380000 		movl	$56, %edx
 1582      00
 1583 08f3 4889CE   		movq	%rcx, %rsi
 1584 08f6 4889C7   		movq	%rax, %rdi
 1585 08f9 E8000000 		call	_ZN8UnitTest11TestDetailsC1ERKS0_i
 1585      00
 1586              		.loc 4 56 0 discriminator 1
 1587 08fe E8000000 		call	_ZN8UnitTest11CurrentTest7ResultsEv
 1587      00
 1588 0903 488B00   		movq	(%rax), %rax
 1589 0906 488D4DD0 		leaq	-48(%rbp), %rcx
 1590 090a BA000000 		movl	$.LC29, %edx
 1590      00
 1591 090f 4889CE   		movq	%rcx, %rsi
 1592 0912 4889C7   		movq	%rax, %rdi
 1593 0915 E8000000 		call	_ZN8UnitTest11TestResults13OnTestFailureERKNS_11TestDetailsEPKc
 1593      00
 1594              	.LEHE39:
 1595              	.LEHB40:
 1596 091a E8000000 		call	__cxa_end_catch
 1596      00
 1597              	.LEHE40:
 1598              		.loc 4 56 0
 1599 091f EB84     		jmp	.L77
 1600              	.L80:
 1601 0921 4889C3   		movq	%rax, %rbx
 1602              	.L75:
 1603 0924 488D45B0 		leaq	-80(%rbp), %rax
 1604 0928 4889C7   		movq	%rax, %rdi
 1605 092b E8000000 		call	_ZNSt6vectorIfSaIfEED1Ev
 1605      00
 1606 0930 4889D8   		movq	%rbx, %rax
 1607 0933 4889C7   		movq	%rax, %rdi
 1608              	.LEHB41:
 1609 0936 E8000000 		call	_Unwind_Resume
 1609      00
 1610              	.LEHE41:
 1611              	.L82:
 1612              	.LBE21:
  57:TestUnitTest++.cpp **** }
 1613              		.loc 4 57 0 is_stmt 1
 1614 093b 4883C468 		addq	$104, %rsp
 1615 093f 5B       		popq	%rbx
 1616 0940 5D       		popq	%rbp
 1617              		.cfi_def_cfa 7, 8
 1618 0941 C3       		ret
 1619              		.cfi_endproc
 1620              	.LFE1316:
 1621              		.section	.gcc_except_table
 1622              		.align 4
 1623              	.LLSDA1316:
 1624 00e4 FF       		.byte	0xff
 1625 00e5 03       		.byte	0x3
 1626 00e6 29       		.uleb128 .LLSDATT1316-.LLSDATTD1316
 1627              	.LLSDATTD1316:
 1628 00e7 01       		.byte	0x1
 1629 00e8 20       		.uleb128 .LLSDACSE1316-.LLSDACSB1316
 1630              	.LLSDACSB1316:
 1631 00e9 36       		.uleb128 .LEHB36-.LFB1316
 1632 00ea 05       		.uleb128 .LEHE36-.LEHB36
 1633 00eb E401     		.uleb128 .L78-.LFB1316
 1634 00ed 00       		.uleb128 0
 1635 00ee 78       		.uleb128 .LEHB37-.LFB1316
 1636 00ef 5B       		.uleb128 .LEHE37-.LEHB37
 1637 00f0 8802     		.uleb128 .L79-.LFB1316
 1638 00f2 01       		.uleb128 0x1
 1639 00f3 DA01     		.uleb128 .LEHB38-.LFB1316
 1640 00f5 24       		.uleb128 .LEHE38-.LEHB38
 1641 00f6 00       		.uleb128 0
 1642 00f7 00       		.uleb128 0
 1643 00f8 9002     		.uleb128 .LEHB39-.LFB1316
 1644 00fa 38       		.uleb128 .LEHE39-.LEHB39
 1645 00fb FE01     		.uleb128 .L81-.LFB1316
 1646 00fd 00       		.uleb128 0
 1647 00fe C802     		.uleb128 .LEHB40-.LFB1316
 1648 0100 05       		.uleb128 .LEHE40-.LEHB40
 1649 0101 CF02     		.uleb128 .L80-.LFB1316
 1650 0103 00       		.uleb128 0
 1651 0104 E402     		.uleb128 .LEHB41-.LFB1316
 1652 0106 05       		.uleb128 .LEHE41-.LEHB41
 1653 0107 00       		.uleb128 0
 1654 0108 00       		.uleb128 0
 1655              	.LLSDACSE1316:
 1656 0109 01       		.byte	0x1
 1657 010a 00       		.byte	0
 1658 010b 00       		.align 4
 1659 010c 00000000 		.long	0
 1660              	
 1661              	.LLSDATT1316:
 1662              		.text
 1664              		.section	.rodata
 1665 026f 00       		.align 8
 1666              	.LC30:
 1667 0270 43686563 		.string	"CheckThrowMacroSucceedsOnCorrectException"
 1667      6B546872 
 1667      6F774D61 
 1667      63726F53 
 1667      75636365 
 1668              		.text
 1669              		.align 2
 1671              	_ZN12_GLOBAL__N_145TestCheckThrowMacroSucceedsOnCorrectExceptionC2Ev:
 1672              	.LFB1318:
  58:TestUnitTest++.cpp **** 
  59:TestUnitTest++.cpp **** TEST(CheckThrowMacroSucceedsOnCorrectException)
 1673              		.loc 4 59 0
 1674              		.cfi_startproc
 1675 0942 55       		pushq	%rbp
 1676              		.cfi_def_cfa_offset 16
 1677              		.cfi_offset 6, -16
 1678 0943 4889E5   		movq	%rsp, %rbp
 1679              		.cfi_def_cfa_register 6
 1680 0946 4883EC10 		subq	$16, %rsp
 1681 094a 48897DF8 		movq	%rdi, -8(%rbp)
 1682              	.LBB23:
 1683              		.loc 4 59 0
 1684 094e E8000000 		call	_ZN13UnitTestSuite12GetSuiteNameEv
 1684      00
 1685 0953 4889C2   		movq	%rax, %rdx
 1686 0956 488B45F8 		movq	-8(%rbp), %rax
 1687 095a 41B83B00 		movl	$59, %r8d
 1687      0000
 1688 0960 B9000000 		movl	$.LC1, %ecx
 1688      00
 1689 0965 BE000000 		movl	$.LC30, %esi
 1689      00
 1690 096a 4889C7   		movq	%rax, %rdi
 1691 096d E8000000 		call	_ZN8UnitTest4TestC2EPKcS2_S2_i
 1691      00
 1692 0972 488B45F8 		movq	-8(%rbp), %rax
 1693 0976 48C70000 		movq	$_ZTVN12_GLOBAL__N_145TestCheckThrowMacroSucceedsOnCorrectExceptionE+16, (%rax)
 1693      000000
 1694              	.LBE23:
 1695 097d C9       		leave
 1696              		.cfi_def_cfa 7, 8
 1697 097e C3       		ret
 1698              		.cfi_endproc
 1699              	.LFE1318:
 1701              		.set	_ZN12_GLOBAL__N_145TestCheckThrowMacroSucceedsOnCorrectExceptionC1Ev,_ZN12_GLOBAL__N_145TestC
 1702              		.local	_ZN12_GLOBAL__N_153testCheckThrowMacroSucceedsOnCorrectExceptionInstanceE
 1703              		.comm	_ZN12_GLOBAL__N_153testCheckThrowMacroSucceedsOnCorrectExceptionInstanceE,56,32
 1704              		.local	_ZN12_GLOBAL__N_146adderCheckThrowMacroSucceedsOnCorrectExceptionE
 1705              		.comm	_ZN12_GLOBAL__N_146adderCheckThrowMacroSucceedsOnCorrectExceptionE,1,1
 1706              		.section	.rodata
 1707 029a 00000000 		.align 8
 1707      0000
 1708              	.LC31:
 1709 02a0 45787065 		.string	"Expected exception: \"TestException\" not thrown"
 1709      63746564 
 1709      20657863 
 1709      65707469 
 1709      6F6E3A20 
 1710              		.text
 1711 097f 90       		.align 2
 1713              	_ZNK12_GLOBAL__N_145TestCheckThrowMacroSucceedsOnCorrectException7RunImplEv:
 1714              	.LFB1320:
  60:TestUnitTest++.cpp **** {
 1715              		.loc 4 60 0
 1716              		.cfi_startproc
 1717              		.cfi_personality 0x3,__gxx_personality_v0
 1718              		.cfi_lsda 0x3,.LLSDA1320
 1719 0980 55       		pushq	%rbp
 1720              		.cfi_def_cfa_offset 16
 1721              		.cfi_offset 6, -16
 1722 0981 4889E5   		movq	%rsp, %rbp
 1723              		.cfi_def_cfa_register 6
 1724 0984 4883EC40 		subq	$64, %rsp
 1725 0988 48897DC8 		movq	%rdi, -56(%rbp)
 1726              	.LBB24:
 1727              	.LBB25:
  61:TestUnitTest++.cpp ****     struct TestException {};
  62:TestUnitTest++.cpp ****     CHECK_THROW(throw TestException(), TestException);
 1728              		.loc 4 62 0
 1729 098c C645D700 		movb	$0, -41(%rbp)
 1730 0990 BF010000 		movl	$1, %edi
 1730      00
 1731 0995 E8000000 		call	__cxa_allocate_exception
 1731      00
 1732 099a BA000000 		movl	$0, %edx
 1732      00
 1733 099f BE000000 		movl	$_ZTIZNK12_GLOBAL__N_145TestCheckThrowMacroSucceedsOnCorrectException7RunImplEvE13TestExcepti
 1733      00
 1734 09a4 4889C7   		movq	%rax, %rdi
 1735              	.LEHB42:
 1736 09a7 E8000000 		call	__cxa_throw
 1736      00
 1737              	.LEHE42:
 1738              	.L89:
 1739 09ac 0FB645D7 		movzbl	-41(%rbp), %eax
 1740 09b0 83F001   		xorl	$1, %eax
 1741 09b3 84C0     		testb	%al, %al
 1742 09b5 7466     		je	.L91
 1743              	.LEHB43:
 1744              		.loc 4 62 0 is_stmt 0 discriminator 1
 1745 09b7 E8000000 		call	_ZN8UnitTest11CurrentTest7DetailsEv
 1745      00
 1746 09bc 488B08   		movq	(%rax), %rcx
 1747 09bf 488D45E0 		leaq	-32(%rbp), %rax
 1748 09c3 BA3E0000 		movl	$62, %edx
 1748      00
 1749 09c8 4889CE   		movq	%rcx, %rsi
 1750 09cb 4889C7   		movq	%rax, %rdi
 1751 09ce E8000000 		call	_ZN8UnitTest11TestDetailsC1ERKS0_i
 1751      00
 1752 09d3 E8000000 		call	_ZN8UnitTest11CurrentTest7ResultsEv
 1752      00
 1753 09d8 488B00   		movq	(%rax), %rax
 1754 09db 488D4DE0 		leaq	-32(%rbp), %rcx
 1755 09df BA000000 		movl	$.LC31, %edx
 1755      00
 1756 09e4 4889CE   		movq	%rcx, %rsi
 1757 09e7 4889C7   		movq	%rax, %rdi
 1758 09ea E8000000 		call	_ZN8UnitTest11TestResults13OnTestFailureERKNS_11TestDetailsEPKc
 1758      00
 1759 09ef EB2C     		jmp	.L91
 1760              	.L90:
 1761 09f1 4883FA01 		cmpq	$1, %rdx
 1762 09f5 7517     		jne	.L92
 1763              	.LBB26:
 1764              		.loc 4 62 0
 1765 09f7 4889C7   		movq	%rax, %rdi
 1766 09fa E8000000 		call	__cxa_begin_catch
 1766      00
 1767 09ff 488945D8 		movq	%rax, -40(%rbp)
 1768 0a03 C645D701 		movb	$1, -41(%rbp)
 1769 0a07 E8000000 		call	__cxa_end_catch
 1769      00
 1770 0a0c EB9E     		jmp	.L89
 1771              	.L92:
 1772              	.LBE26:
 1773 0a0e 4889C7   		movq	%rax, %rdi
 1774 0a11 E8000000 		call	__cxa_begin_catch
 1774      00
 1775 0a16 E8000000 		call	__cxa_end_catch
 1775      00
 1776              	.LEHE43:
 1777 0a1b EB8F     		jmp	.L89
 1778              	.L91:
 1779              	.LBE25:
 1780              	.LBE24:
  63:TestUnitTest++.cpp **** }
 1781              		.loc 4 63 0 is_stmt 1
 1782 0a1d C9       		leave
 1783              		.cfi_def_cfa 7, 8
 1784 0a1e C3       		ret
 1785              		.cfi_endproc
 1786              	.LFE1320:
 1787              		.section	.gcc_except_table
 1788              		.align 4
 1789              	.LLSDA1320:
 1790 0110 FF       		.byte	0xff
 1791 0111 03       		.byte	0x3
 1792 0112 19       		.uleb128 .LLSDATT1320-.LLSDATTD1320
 1793              	.LLSDATTD1320:
 1794 0113 01       		.byte	0x1
 1795 0114 08       		.uleb128 .LLSDACSE1320-.LLSDACSB1320
 1796              	.LLSDACSB1320:
 1797 0115 27       		.uleb128 .LEHB42-.LFB1320
 1798 0116 05       		.uleb128 .LEHE42-.LEHB42
 1799 0117 71       		.uleb128 .L90-.LFB1320
 1800 0118 03       		.uleb128 0x3
 1801 0119 37       		.uleb128 .LEHB43-.LFB1320
 1802 011a 64       		.uleb128 .LEHE43-.LEHB43
 1803 011b 00       		.uleb128 0
 1804 011c 00       		.uleb128 0
 1805              	.LLSDACSE1320:
 1806 011d 02       		.byte	0x2
 1807 011e 00       		.byte	0
 1808 011f 01       		.byte	0x1
 1809 0120 7D       		.byte	0x7d
 1810 0121 000000   		.align 4
 1811 0124 00000000 		.long	0
 1812              	
 1813 0128 00000000 		.long	_ZTIZNK12_GLOBAL__N_145TestCheckThrowMacroSucceedsOnCorrectException7RunImplEvE13TestExcepti
 1814              	.LLSDATT1320:
 1815              		.text
 1817              		.section	.rodata
 1818              	.LC32:
 1819 02cf 43686563 		.string	"CheckAssertSucceeds"
 1819      6B417373 
 1819      65727453 
 1819      75636365 
 1819      65647300 
 1820              		.text
 1821 0a1f 90       		.align 2
 1823              	_ZN12_GLOBAL__N_123TestCheckAssertSucceedsC2Ev:
 1824              	.LFB1322:
  64:TestUnitTest++.cpp **** 
  65:TestUnitTest++.cpp **** TEST(CheckAssertSucceeds)
 1825              		.loc 4 65 0
 1826              		.cfi_startproc
 1827 0a20 55       		pushq	%rbp
 1828              		.cfi_def_cfa_offset 16
 1829              		.cfi_offset 6, -16
 1830 0a21 4889E5   		movq	%rsp, %rbp
 1831              		.cfi_def_cfa_register 6
 1832 0a24 4883EC10 		subq	$16, %rsp
 1833 0a28 48897DF8 		movq	%rdi, -8(%rbp)
 1834              	.LBB27:
 1835              		.loc 4 65 0
 1836 0a2c E8000000 		call	_ZN13UnitTestSuite12GetSuiteNameEv
 1836      00
 1837 0a31 4889C2   		movq	%rax, %rdx
 1838 0a34 488B45F8 		movq	-8(%rbp), %rax
 1839 0a38 41B84100 		movl	$65, %r8d
 1839      0000
 1840 0a3e B9000000 		movl	$.LC1, %ecx
 1840      00
 1841 0a43 BE000000 		movl	$.LC32, %esi
 1841      00
 1842 0a48 4889C7   		movq	%rax, %rdi
 1843 0a4b E8000000 		call	_ZN8UnitTest4TestC2EPKcS2_S2_i
 1843      00
 1844 0a50 488B45F8 		movq	-8(%rbp), %rax
 1845 0a54 48C70000 		movq	$_ZTVN12_GLOBAL__N_123TestCheckAssertSucceedsE+16, (%rax)
 1845      000000
 1846              	.LBE27:
 1847 0a5b C9       		leave
 1848              		.cfi_def_cfa 7, 8
 1849 0a5c C3       		ret
 1850              		.cfi_endproc
 1851              	.LFE1322:
 1853              		.set	_ZN12_GLOBAL__N_123TestCheckAssertSucceedsC1Ev,_ZN12_GLOBAL__N_123TestCheckAssertSucceedsC2Ev
 1854              		.local	_ZN12_GLOBAL__N_131testCheckAssertSucceedsInstanceE
 1855              		.comm	_ZN12_GLOBAL__N_131testCheckAssertSucceedsInstanceE,56,32
 1856              		.local	_ZN12_GLOBAL__N_124adderCheckAssertSucceedsE
 1857              		.comm	_ZN12_GLOBAL__N_124adderCheckAssertSucceedsE,1,1
 1858              		.section	.rodata
 1859              	.LC33:
 1860 02e3 66696C65 		.string	"file"
 1860      00
 1861              	.LC34:
 1862 02e8 64657363 		.string	"desc"
 1862      00
 1863 02ed 000000   		.align 8
 1864              	.LC35:
 1865 02f0 45787065 		.string	"Expected exception: \"UnitTest::AssertException\" not thrown"
 1865      63746564 
 1865      20657863 
 1865      65707469 
 1865      6F6E3A20 
 1866              		.text
 1867 0a5d 90       		.align 2
 1869              	_ZNK12_GLOBAL__N_123TestCheckAssertSucceeds7RunImplEv:
 1870              	.LFB1324:
  66:TestUnitTest++.cpp **** {
 1871              		.loc 4 66 0
 1872              		.cfi_startproc
 1873              		.cfi_personality 0x3,__gxx_personality_v0
 1874              		.cfi_lsda 0x3,.LLSDA1324
 1875 0a5e 55       		pushq	%rbp
 1876              		.cfi_def_cfa_offset 16
 1877              		.cfi_offset 6, -16
 1878 0a5f 4889E5   		movq	%rsp, %rbp
 1879              		.cfi_def_cfa_register 6
 1880 0a62 4883EC40 		subq	$64, %rsp
 1881 0a66 48897DC8 		movq	%rdi, -56(%rbp)
 1882              	.LBB28:
 1883              	.LBB29:
  67:TestUnitTest++.cpp ****     CHECK_ASSERT(UnitTest::ReportAssert("desc", "file", 0));
 1884              		.loc 4 67 0
 1885 0a6a C645D700 		movb	$0, -41(%rbp)
 1886 0a6e BA000000 		movl	$0, %edx
 1886      00
 1887 0a73 BE000000 		movl	$.LC33, %esi
 1887      00
 1888 0a78 BF000000 		movl	$.LC34, %edi
 1888      00
 1889              	.LEHB44:
 1890 0a7d E8000000 		call	_ZN8UnitTest12ReportAssertEPKcS1_i
 1890      00
 1891              	.LEHE44:
 1892              	.L99:
 1893              		.loc 4 67 0 is_stmt 0 discriminator 1
 1894 0a82 0FB645D7 		movzbl	-41(%rbp), %eax
 1895 0a86 83F001   		xorl	$1, %eax
 1896 0a89 84C0     		testb	%al, %al
 1897 0a8b 7466     		je	.L101
 1898              	.LEHB45:
 1899 0a8d E8000000 		call	_ZN8UnitTest11CurrentTest7DetailsEv
 1899      00
 1900 0a92 488B08   		movq	(%rax), %rcx
 1901 0a95 488D45E0 		leaq	-32(%rbp), %rax
 1902 0a99 BA430000 		movl	$67, %edx
 1902      00
 1903 0a9e 4889CE   		movq	%rcx, %rsi
 1904 0aa1 4889C7   		movq	%rax, %rdi
 1905 0aa4 E8000000 		call	_ZN8UnitTest11TestDetailsC1ERKS0_i
 1905      00
 1906 0aa9 E8000000 		call	_ZN8UnitTest11CurrentTest7ResultsEv
 1906      00
 1907 0aae 488B00   		movq	(%rax), %rax
 1908 0ab1 488D4DE0 		leaq	-32(%rbp), %rcx
 1909 0ab5 BA000000 		movl	$.LC35, %edx
 1909      00
 1910 0aba 4889CE   		movq	%rcx, %rsi
 1911 0abd 4889C7   		movq	%rax, %rdi
 1912 0ac0 E8000000 		call	_ZN8UnitTest11TestResults13OnTestFailureERKNS_11TestDetailsEPKc
 1912      00
 1913 0ac5 EB2C     		jmp	.L101
 1914              	.L100:
 1915 0ac7 4883FA01 		cmpq	$1, %rdx
 1916 0acb 7517     		jne	.L102
 1917              	.LBB30:
 1918              		.loc 4 67 0
 1919 0acd 4889C7   		movq	%rax, %rdi
 1920 0ad0 E8000000 		call	__cxa_begin_catch
 1920      00
 1921 0ad5 488945D8 		movq	%rax, -40(%rbp)
 1922 0ad9 C645D701 		movb	$1, -41(%rbp)
 1923 0add E8000000 		call	__cxa_end_catch
 1923      00
 1924 0ae2 EB9E     		jmp	.L99
 1925              	.L102:
 1926              	.LBE30:
 1927 0ae4 4889C7   		movq	%rax, %rdi
 1928 0ae7 E8000000 		call	__cxa_begin_catch
 1928      00
 1929 0aec E8000000 		call	__cxa_end_catch
 1929      00
 1930              	.LEHE45:
 1931 0af1 EB8F     		jmp	.L99
 1932              	.L101:
 1933              	.LBE29:
 1934              	.LBE28:
  68:TestUnitTest++.cpp **** }
 1935              		.loc 4 68 0 is_stmt 1
 1936 0af3 C9       		leave
 1937              		.cfi_def_cfa 7, 8
 1938 0af4 C3       		ret
 1939              		.cfi_endproc
 1940              	.LFE1324:
 1941              		.section	.gcc_except_table
 1942              		.align 4
 1943              	.LLSDA1324:
 1944 012c FF       		.byte	0xff
 1945 012d 03       		.byte	0x3
 1946 012e 19       		.uleb128 .LLSDATT1324-.LLSDATTD1324
 1947              	.LLSDATTD1324:
 1948 012f 01       		.byte	0x1
 1949 0130 08       		.uleb128 .LLSDACSE1324-.LLSDACSB1324
 1950              	.LLSDACSB1324:
 1951 0131 1F       		.uleb128 .LEHB44-.LFB1324
 1952 0132 05       		.uleb128 .LEHE44-.LEHB44
 1953 0133 69       		.uleb128 .L100-.LFB1324
 1954 0134 03       		.uleb128 0x3
 1955 0135 2F       		.uleb128 .LEHB45-.LFB1324
 1956 0136 64       		.uleb128 .LEHE45-.LEHB45
 1957 0137 00       		.uleb128 0
 1958 0138 00       		.uleb128 0
 1959              	.LLSDACSE1324:
 1960 0139 02       		.byte	0x2
 1961 013a 00       		.byte	0
 1962 013b 01       		.byte	0x1
 1963 013c 7D       		.byte	0x7d
 1964 013d 000000   		.align 4
 1965 0140 00000000 		.long	0
 1966              	
 1967 0144 00000000 		.long	_ZTIN8UnitTest15AssertExceptionE
 1968              	.LLSDATT1324:
 1969              		.text
 1971              		.section	.rodata
 1972 032b 00000000 		.align 8
 1972      00
 1973              	.LC36:
 1974 0330 43686563 		.string	"CheckThrowMacroFailsOnMissingException"
 1974      6B546872 
 1974      6F774D61 
 1974      63726F46 
 1974      61696C73 
 1975              		.text
 1976 0af5 90       		.align 2
 1978              	_ZN12_GLOBAL__N_142TestCheckThrowMacroFailsOnMissingExceptionC2Ev:
 1979              	.LFB1326:
  69:TestUnitTest++.cpp **** 
  70:TestUnitTest++.cpp **** TEST(CheckThrowMacroFailsOnMissingException)
 1980              		.loc 4 70 0
 1981              		.cfi_startproc
 1982 0af6 55       		pushq	%rbp
 1983              		.cfi_def_cfa_offset 16
 1984              		.cfi_offset 6, -16
 1985 0af7 4889E5   		movq	%rsp, %rbp
 1986              		.cfi_def_cfa_register 6
 1987 0afa 4883EC10 		subq	$16, %rsp
 1988 0afe 48897DF8 		movq	%rdi, -8(%rbp)
 1989              	.LBB31:
 1990              		.loc 4 70 0
 1991 0b02 E8000000 		call	_ZN13UnitTestSuite12GetSuiteNameEv
 1991      00
 1992 0b07 4889C2   		movq	%rax, %rdx
 1993 0b0a 488B45F8 		movq	-8(%rbp), %rax
 1994 0b0e 41B84600 		movl	$70, %r8d
 1994      0000
 1995 0b14 B9000000 		movl	$.LC1, %ecx
 1995      00
 1996 0b19 BE000000 		movl	$.LC36, %esi
 1996      00
 1997 0b1e 4889C7   		movq	%rax, %rdi
 1998 0b21 E8000000 		call	_ZN8UnitTest4TestC2EPKcS2_S2_i
 1998      00
 1999 0b26 488B45F8 		movq	-8(%rbp), %rax
 2000 0b2a 48C70000 		movq	$_ZTVN12_GLOBAL__N_142TestCheckThrowMacroFailsOnMissingExceptionE+16, (%rax)
 2000      000000
 2001              	.LBE31:
 2002 0b31 C9       		leave
 2003              		.cfi_def_cfa 7, 8
 2004 0b32 C3       		ret
 2005              		.cfi_endproc
 2006              	.LFE1326:
 2008              		.set	_ZN12_GLOBAL__N_142TestCheckThrowMacroFailsOnMissingExceptionC1Ev,_ZN12_GLOBAL__N_142TestChec
 2009              		.local	_ZN12_GLOBAL__N_150testCheckThrowMacroFailsOnMissingExceptionInstanceE
 2010              		.comm	_ZN12_GLOBAL__N_150testCheckThrowMacroFailsOnMissingExceptionInstanceE,56,32
 2011              		.local	_ZN12_GLOBAL__N_143adderCheckThrowMacroFailsOnMissingExceptionE
 2012              		.comm	_ZN12_GLOBAL__N_143adderCheckThrowMacroFailsOnMissingExceptionE,1,1
 2013              		.section	.rodata
 2014              	.LC37:
 2015 0357 00       		.string	""
 2016              	.LC38:
 2017 0358 6E6F7468 		.string	"nothrow"
 2017      726F7700 
 2018              		.text
 2019 0b33 90       		.align 2
 2021              	_ZZNK12_GLOBAL__N_142TestCheckThrowMacroFailsOnMissingException7RunImplEvEN11NoThrowTestC2Ev:
 2022              	.LFB1330:
  71:TestUnitTest++.cpp **** {
  72:TestUnitTest++.cpp ****     class NoThrowTest : public UnitTest::Test
  73:TestUnitTest++.cpp ****     {
  74:TestUnitTest++.cpp ****     public:
  75:TestUnitTest++.cpp ****         NoThrowTest() : Test("nothrow") {}
 2023              		.loc 4 75 0
 2024              		.cfi_startproc
 2025 0b34 55       		pushq	%rbp
 2026              		.cfi_def_cfa_offset 16
 2027              		.cfi_offset 6, -16
 2028 0b35 4889E5   		movq	%rsp, %rbp
 2029              		.cfi_def_cfa_register 6
 2030 0b38 4883EC10 		subq	$16, %rsp
 2031 0b3c 48897DF8 		movq	%rdi, -8(%rbp)
 2032              	.LBB32:
 2033              		.loc 4 75 0
 2034 0b40 488B45F8 		movq	-8(%rbp), %rax
 2035 0b44 41B80000 		movl	$0, %r8d
 2035      0000
 2036 0b4a B9000000 		movl	$.LC37, %ecx
 2036      00
 2037 0b4f BA000000 		movl	$.LC0, %edx
 2037      00
 2038 0b54 BE000000 		movl	$.LC38, %esi
 2038      00
 2039 0b59 4889C7   		movq	%rax, %rdi
 2040 0b5c E8000000 		call	_ZN8UnitTest4TestC2EPKcS2_S2_i
 2040      00
 2041 0b61 488B45F8 		movq	-8(%rbp), %rax
 2042 0b65 48C70000 		movq	$_ZTVZNK12_GLOBAL__N_142TestCheckThrowMacroFailsOnMissingException7RunImplEvE11NoThrowTest+16
 2042      000000
 2043              	.LBE32:
 2044 0b6c C9       		leave
 2045              		.cfi_def_cfa 7, 8
 2046 0b6d C3       		ret
 2047              		.cfi_endproc
 2048              	.LFE1330:
 2050              		.set	_ZZNK12_GLOBAL__N_142TestCheckThrowMacroFailsOnMissingException7RunImplEvEN11NoThrowTestC1Ev,
 2051              		.align 2
 2053              	_ZZNK12_GLOBAL__N_142TestCheckThrowMacroFailsOnMissingException7RunImplEvENK11NoThrowTest9DontThrow
 2054              	.LFB1332:
  76:TestUnitTest++.cpp ****         void DontThrow() const
 2055              		.loc 4 76 0
 2056              		.cfi_startproc
 2057 0b6e 55       		pushq	%rbp
 2058              		.cfi_def_cfa_offset 16
 2059              		.cfi_offset 6, -16
 2060 0b6f 4889E5   		movq	%rsp, %rbp
 2061              		.cfi_def_cfa_register 6
 2062 0b72 48897DF8 		movq	%rdi, -8(%rbp)
  77:TestUnitTest++.cpp ****         {
  78:TestUnitTest++.cpp ****         }
 2063              		.loc 4 78 0
 2064 0b76 5D       		popq	%rbp
 2065              		.cfi_def_cfa 7, 8
 2066 0b77 C3       		ret
 2067              		.cfi_endproc
 2068              	.LFE1332:
 2070              		.section	.rodata
 2071              		.align 8
 2072              	.LC39:
 2073 0360 45787065 		.string	"Expected exception: \"int\" not thrown"
 2073      63746564 
 2073      20657863 
 2073      65707469 
 2073      6F6E3A20 
 2074              		.text
 2075              		.align 2
 2077              	_ZZNK12_GLOBAL__N_142TestCheckThrowMacroFailsOnMissingException7RunImplEvENK11NoThrowTest7RunImplEv
 2078              	.LFB1333:
  79:TestUnitTest++.cpp **** 
  80:TestUnitTest++.cpp ****         virtual void RunImpl() const
 2079              		.loc 4 80 0
 2080              		.cfi_startproc
 2081 0b78 55       		pushq	%rbp
 2082              		.cfi_def_cfa_offset 16
 2083              		.cfi_offset 6, -16
 2084 0b79 4889E5   		movq	%rsp, %rbp
 2085              		.cfi_def_cfa_register 6
 2086 0b7c 4883EC40 		subq	$64, %rsp
 2087 0b80 48897DC8 		movq	%rdi, -56(%rbp)
 2088              	.LBB33:
 2089              	.LBB34:
  81:TestUnitTest++.cpp ****         {
  82:TestUnitTest++.cpp ****             CHECK_THROW(DontThrow(), int);
 2090              		.loc 4 82 0
 2091 0b84 C645DF00 		movb	$0, -33(%rbp)
 2092 0b88 488B45C8 		movq	-56(%rbp), %rax
 2093 0b8c 4889C7   		movq	%rax, %rdi
 2094 0b8f E8DAFFFF 		call	_ZZNK12_GLOBAL__N_142TestCheckThrowMacroFailsOnMissingException7RunImplEvENK11NoThrowTest9Don
 2094      FF
 2095 0b94 0FB645DF 		movzbl	-33(%rbp), %eax
 2096 0b98 83F001   		xorl	$1, %eax
 2097 0b9b 84C0     		testb	%al, %al
 2098 0b9d 7438     		je	.L106
 2099              		.loc 4 82 0 is_stmt 0 discriminator 1
 2100 0b9f E8000000 		call	_ZN8UnitTest11CurrentTest7DetailsEv
 2100      00
 2101 0ba4 488B08   		movq	(%rax), %rcx
 2102 0ba7 488D45E0 		leaq	-32(%rbp), %rax
 2103 0bab BA520000 		movl	$82, %edx
 2103      00
 2104 0bb0 4889CE   		movq	%rcx, %rsi
 2105 0bb3 4889C7   		movq	%rax, %rdi
 2106 0bb6 E8000000 		call	_ZN8UnitTest11TestDetailsC1ERKS0_i
 2106      00
 2107 0bbb E8000000 		call	_ZN8UnitTest11CurrentTest7ResultsEv
 2107      00
 2108 0bc0 488B00   		movq	(%rax), %rax
 2109 0bc3 488D4DE0 		leaq	-32(%rbp), %rcx
 2110 0bc7 BA000000 		movl	$.LC39, %edx
 2110      00
 2111 0bcc 4889CE   		movq	%rcx, %rsi
 2112 0bcf 4889C7   		movq	%rax, %rdi
 2113 0bd2 E8000000 		call	_ZN8UnitTest11TestResults13OnTestFailureERKNS_11TestDetailsEPKc
 2113      00
 2114              	.L106:
 2115              	.LBE34:
 2116              	.LBE33:
  83:TestUnitTest++.cpp ****         }
 2117              		.loc 4 83 0 is_stmt 1
 2118 0bd7 C9       		leave
 2119              		.cfi_def_cfa 7, 8
 2120 0bd8 C3       		ret
 2121              		.cfi_endproc
 2122              	.LFE1333:
 2124              		.section	.rodata
 2125 0385 000000   		.align 8
 2126              	.LC40:
 2127 0388 556E6861 		.string	"Unhandled exception in CHECK_EQUAL(1, results.GetFailureCount())"
 2127      6E646C65 
 2127      64206578 
 2127      63657074 
 2127      696F6E20 
 2128              		.text
 2129 0bd9 90       		.align 2
 2131              	_ZNK12_GLOBAL__N_142TestCheckThrowMacroFailsOnMissingException7RunImplEv:
 2132              	.LFB1328:
  71:TestUnitTest++.cpp ****     class NoThrowTest : public UnitTest::Test
 2133              		.loc 4 71 0
 2134              		.cfi_startproc
 2135              		.cfi_personality 0x3,__gxx_personality_v0
 2136              		.cfi_lsda 0x3,.LLSDA1328
 2137 0bda 55       		pushq	%rbp
 2138              		.cfi_def_cfa_offset 16
 2139              		.cfi_offset 6, -16
 2140 0bdb 4889E5   		movq	%rsp, %rbp
 2141              		.cfi_def_cfa_register 6
 2142 0bde 53       		pushq	%rbx
 2143 0bdf 4881EC98 		subq	$152, %rsp
 2143      000000
 2144              		.cfi_offset 3, -24
 2145 0be6 4889BD68 		movq	%rdi, -152(%rbp)
 2145      FFFFFF
 2146              	.LBB35:
  84:TestUnitTest++.cpp ****     };
  85:TestUnitTest++.cpp **** 
  86:TestUnitTest++.cpp ****     UnitTest::TestResults results;
 2147              		.loc 4 86 0
 2148 0bed 488D4590 		leaq	-112(%rbp), %rax
 2149 0bf1 BE000000 		movl	$0, %esi
 2149      00
 2150 0bf6 4889C7   		movq	%rax, %rdi
 2151              	.LEHB46:
 2152 0bf9 E8000000 		call	_ZN8UnitTest11TestResultsC1EPNS_12TestReporterE
 2152      00
 2153              	.LBB36:
  87:TestUnitTest++.cpp **** 	{
  88:TestUnitTest++.cpp **** 		ScopedCurrentTest scopedResults(results);
 2154              		.loc 4 88 0
 2155 0bfe 488D4D90 		leaq	-112(%rbp), %rcx
 2156 0c02 488D4580 		leaq	-128(%rbp), %rax
 2157 0c06 BA000000 		movl	$0, %edx
 2157      00
 2158 0c0b 4889CE   		movq	%rcx, %rsi
 2159 0c0e 4889C7   		movq	%rax, %rdi
 2160 0c11 E8000000 		call	_ZN17ScopedCurrentTestC1ERN8UnitTest11TestResultsEPKNS0_11TestDetailsE
 2160      00
 2161              	.LEHE46:
  89:TestUnitTest++.cpp **** 
  90:TestUnitTest++.cpp **** 		NoThrowTest test;
 2162              		.loc 4 90 0
 2163 0c16 488D45B0 		leaq	-80(%rbp), %rax
 2164 0c1a 4889C7   		movq	%rax, %rdi
 2165              	.LEHB47:
 2166 0c1d E812FFFF 		call	_ZZNK12_GLOBAL__N_142TestCheckThrowMacroFailsOnMissingException7RunImplEvEN11NoThrowTestC1Ev
 2166      FF
 2167              	.LEHE47:
  91:TestUnitTest++.cpp **** 		test.Run();
 2168              		.loc 4 91 0
 2169 0c22 488D45B0 		leaq	-80(%rbp), %rax
 2170 0c26 4889C7   		movq	%rax, %rdi
 2171              	.LEHB48:
 2172 0c29 E8000000 		call	_ZN8UnitTest4Test3RunEv
 2172      00
 2173              	.LEHE48:
  90:TestUnitTest++.cpp **** 		test.Run();
 2174              		.loc 4 90 0
 2175 0c2e 488D45B0 		leaq	-80(%rbp), %rax
 2176 0c32 4889C7   		movq	%rax, %rdi
 2177              	.LEHB49:
 2178 0c35 E85C1400 		call	_ZZNK12_GLOBAL__N_142TestCheckThrowMacroFailsOnMissingException7RunImplEvEN11NoThrowTestD1Ev
 2178      00
 2179              	.LEHE49:
 2180              		.loc 4 91 0
 2181 0c3a 488D4580 		leaq	-128(%rbp), %rax
 2182 0c3e 4889C7   		movq	%rax, %rdi
 2183              	.LEHB50:
 2184 0c41 E8000000 		call	_ZN17ScopedCurrentTestD1Ev
 2184      00
 2185              	.LEHE50:
 2186              	.LEHB51:
 2187              	.LBE36:
  92:TestUnitTest++.cpp **** 	}
  93:TestUnitTest++.cpp **** 
  94:TestUnitTest++.cpp **** 	CHECK_EQUAL(1, results.GetFailureCount());
 2188              		.loc 4 94 0
 2189 0c46 E8000000 		call	_ZN8UnitTest11CurrentTest7DetailsEv
 2189      00
 2190 0c4b 488B08   		movq	(%rax), %rcx
 2191 0c4e 488D45B0 		leaq	-80(%rbp), %rax
 2192 0c52 BA5E0000 		movl	$94, %edx
 2192      00
 2193 0c57 4889CE   		movq	%rcx, %rsi
 2194 0c5a 4889C7   		movq	%rax, %rdi
 2195 0c5d E8000000 		call	_ZN8UnitTest11TestDetailsC1ERKS0_i
 2195      00
 2196              		.loc 4 94 0 is_stmt 0 discriminator 1
 2197 0c62 488D4590 		leaq	-112(%rbp), %rax
 2198 0c66 4889C7   		movq	%rax, %rdi
 2199 0c69 E8000000 		call	_ZNK8UnitTest11TestResults15GetFailureCountEv
 2199      00
 2200 0c6e 894580   		movl	%eax, -128(%rbp)
 2201 0c71 C7857CFF 		movl	$1, -132(%rbp)
 2201      FFFF0100 
 2201      0000
 2202 0c7b E8000000 		call	_ZN8UnitTest11CurrentTest7ResultsEv
 2202      00
 2203 0c80 488B00   		movq	(%rax), %rax
 2204 0c83 488D4DB0 		leaq	-80(%rbp), %rcx
 2205 0c87 488D5580 		leaq	-128(%rbp), %rdx
 2206 0c8b 488DB57C 		leaq	-132(%rbp), %rsi
 2206      FFFFFF
 2207 0c92 4889C7   		movq	%rax, %rdi
 2208 0c95 E8000000 		call	_ZN8UnitTest10CheckEqualIiiEEvRNS_11TestResultsERKT_RKT0_RKNS_11TestDetailsE
 2208      00
 2209              	.LEHE51:
 2210              	.LBE35:
  95:TestUnitTest++.cpp **** }
 2211              		.loc 4 95 0 is_stmt 1
 2212 0c9a E9830000 		jmp	.L118
 2212      00
 2213              	.L115:
 2214 0c9f 4889C3   		movq	%rax, %rbx
 2215              	.LBB38:
 2216              	.LBB37:
  90:TestUnitTest++.cpp **** 		test.Run();
 2217              		.loc 4 90 0
 2218 0ca2 488D45B0 		leaq	-80(%rbp), %rax
 2219 0ca6 4889C7   		movq	%rax, %rdi
 2220 0ca9 E8E81300 		call	_ZZNK12_GLOBAL__N_142TestCheckThrowMacroFailsOnMissingException7RunImplEvEN11NoThrowTestD1Ev
 2220      00
 2221 0cae EB03     		jmp	.L110
 2222              	.L114:
 2223 0cb0 4889C3   		movq	%rax, %rbx
 2224              	.L110:
  91:TestUnitTest++.cpp **** 	}
 2225              		.loc 4 91 0
 2226 0cb3 488D4580 		leaq	-128(%rbp), %rax
 2227 0cb7 4889C7   		movq	%rax, %rdi
 2228 0cba E8000000 		call	_ZN17ScopedCurrentTestD1Ev
 2228      00
 2229 0cbf 4889D8   		movq	%rbx, %rax
 2230 0cc2 4889C7   		movq	%rax, %rdi
 2231              	.LEHB52:
 2232 0cc5 E8000000 		call	_Unwind_Resume
 2232      00
 2233              	.LEHE52:
 2234              	.L117:
 2235 0cca 4889C3   		movq	%rax, %rbx
 2236              	.LBE37:
  94:TestUnitTest++.cpp **** }
 2237              		.loc 4 94 0
 2238 0ccd E8000000 		call	__cxa_end_catch
 2238      00
 2239 0cd2 4889D8   		movq	%rbx, %rax
 2240 0cd5 4889C7   		movq	%rax, %rdi
 2241              	.LEHB53:
 2242 0cd8 E8000000 		call	_Unwind_Resume
 2242      00
 2243              	.LEHE53:
 2244              	.L116:
 2245 0cdd 4889C7   		movq	%rax, %rdi
 2246 0ce0 E8000000 		call	__cxa_begin_catch
 2246      00
 2247              	.LEHB54:
 2248 0ce5 E8000000 		call	_ZN8UnitTest11CurrentTest7DetailsEv
 2248      00
 2249 0cea 488B08   		movq	(%rax), %rcx
 2250 0ced 488D45B0 		leaq	-80(%rbp), %rax
 2251 0cf1 BA5E0000 		movl	$94, %edx
 2251      00
 2252 0cf6 4889CE   		movq	%rcx, %rsi
 2253 0cf9 4889C7   		movq	%rax, %rdi
 2254 0cfc E8000000 		call	_ZN8UnitTest11TestDetailsC1ERKS0_i
 2254      00
  94:TestUnitTest++.cpp **** }
 2255              		.loc 4 94 0 is_stmt 0 discriminator 1
 2256 0d01 E8000000 		call	_ZN8UnitTest11CurrentTest7ResultsEv
 2256      00
 2257 0d06 488B00   		movq	(%rax), %rax
 2258 0d09 488D4DB0 		leaq	-80(%rbp), %rcx
 2259 0d0d BA000000 		movl	$.LC40, %edx
 2259      00
 2260 0d12 4889CE   		movq	%rcx, %rsi
 2261 0d15 4889C7   		movq	%rax, %rdi
 2262 0d18 E8000000 		call	_ZN8UnitTest11TestResults13OnTestFailureERKNS_11TestDetailsEPKc
 2262      00
 2263              	.LEHE54:
 2264              	.LEHB55:
 2265 0d1d E8000000 		call	__cxa_end_catch
 2265      00
 2266              	.LEHE55:
 2267              	.L118:
 2268              	.LBE38:
 2269              		.loc 4 95 0 is_stmt 1
 2270 0d22 90       		nop
 2271 0d23 4881C498 		addq	$152, %rsp
 2271      000000
 2272 0d2a 5B       		popq	%rbx
 2273 0d2b 5D       		popq	%rbp
 2274              		.cfi_def_cfa 7, 8
 2275 0d2c C3       		ret
 2276              		.cfi_endproc
 2277              	.LFE1328:
 2278              		.section	.gcc_except_table
 2279              		.align 4
 2280              	.LLSDA1328:
 2281 0148 FF       		.byte	0xff
 2282 0149 03       		.byte	0x3
 2283 014a 39       		.uleb128 .LLSDATT1328-.LLSDATTD1328
 2284              	.LLSDATTD1328:
 2285 014b 01       		.byte	0x1
 2286 014c 31       		.uleb128 .LLSDACSE1328-.LLSDACSB1328
 2287              	.LLSDACSB1328:
 2288 014d 1F       		.uleb128 .LEHB46-.LFB1328
 2289 014e 1D       		.uleb128 .LEHE46-.LEHB46
 2290 014f 00       		.uleb128 0
 2291 0150 00       		.uleb128 0
 2292 0151 43       		.uleb128 .LEHB47-.LFB1328
 2293 0152 05       		.uleb128 .LEHE47-.LEHB47
 2294 0153 D601     		.uleb128 .L114-.LFB1328
 2295 0155 00       		.uleb128 0
 2296 0156 4F       		.uleb128 .LEHB48-.LFB1328
 2297 0157 05       		.uleb128 .LEHE48-.LEHB48
 2298 0158 C501     		.uleb128 .L115-.LFB1328
 2299 015a 00       		.uleb128 0
 2300 015b 5B       		.uleb128 .LEHB49-.LFB1328
 2301 015c 05       		.uleb128 .LEHE49-.LEHB49
 2302 015d D601     		.uleb128 .L114-.LFB1328
 2303 015f 00       		.uleb128 0
 2304 0160 67       		.uleb128 .LEHB50-.LFB1328
 2305 0161 05       		.uleb128 .LEHE50-.LEHB50
 2306 0162 00       		.uleb128 0
 2307 0163 00       		.uleb128 0
 2308 0164 6C       		.uleb128 .LEHB51-.LFB1328
 2309 0165 54       		.uleb128 .LEHE51-.LEHB51
 2310 0166 8302     		.uleb128 .L116-.LFB1328
 2311 0168 01       		.uleb128 0x1
 2312 0169 EB01     		.uleb128 .LEHB52-.LFB1328
 2313 016b 05       		.uleb128 .LEHE52-.LEHB52
 2314 016c 00       		.uleb128 0
 2315 016d 00       		.uleb128 0
 2316 016e FE01     		.uleb128 .LEHB53-.LFB1328
 2317 0170 05       		.uleb128 .LEHE53-.LEHB53
 2318 0171 00       		.uleb128 0
 2319 0172 00       		.uleb128 0
 2320 0173 8B02     		.uleb128 .LEHB54-.LFB1328
 2321 0175 38       		.uleb128 .LEHE54-.LEHB54
 2322 0176 F001     		.uleb128 .L117-.LFB1328
 2323 0178 00       		.uleb128 0
 2324 0179 C302     		.uleb128 .LEHB55-.LFB1328
 2325 017b 05       		.uleb128 .LEHE55-.LEHB55
 2326 017c 00       		.uleb128 0
 2327 017d 00       		.uleb128 0
 2328              	.LLSDACSE1328:
 2329 017e 01       		.byte	0x1
 2330 017f 00       		.byte	0
 2331              		.align 4
 2332 0180 00000000 		.long	0
 2333              	
 2334              	.LLSDATT1328:
 2335              		.text
 2337              		.section	.rodata
 2338 03c9 00000000 		.align 8
 2338      000000
 2339              	.LC41:
 2340 03d0 43686563 		.string	"CheckThrowMacroFailsOnWrongException"
 2340      6B546872 
 2340      6F774D61 
 2340      63726F46 
 2340      61696C73 
 2341              		.text
 2342 0d2d 90       		.align 2
 2344              	_ZN12_GLOBAL__N_140TestCheckThrowMacroFailsOnWrongExceptionC2Ev:
 2345              	.LFB1335:
  96:TestUnitTest++.cpp **** 
  97:TestUnitTest++.cpp **** TEST(CheckThrowMacroFailsOnWrongException)
 2346              		.loc 4 97 0
 2347              		.cfi_startproc
 2348 0d2e 55       		pushq	%rbp
 2349              		.cfi_def_cfa_offset 16
 2350              		.cfi_offset 6, -16
 2351 0d2f 4889E5   		movq	%rsp, %rbp
 2352              		.cfi_def_cfa_register 6
 2353 0d32 4883EC10 		subq	$16, %rsp
 2354 0d36 48897DF8 		movq	%rdi, -8(%rbp)
 2355              	.LBB39:
 2356              		.loc 4 97 0
 2357 0d3a E8000000 		call	_ZN13UnitTestSuite12GetSuiteNameEv
 2357      00
 2358 0d3f 4889C2   		movq	%rax, %rdx
 2359 0d42 488B45F8 		movq	-8(%rbp), %rax
 2360 0d46 41B86100 		movl	$97, %r8d
 2360      0000
 2361 0d4c B9000000 		movl	$.LC1, %ecx
 2361      00
 2362 0d51 BE000000 		movl	$.LC41, %esi
 2362      00
 2363 0d56 4889C7   		movq	%rax, %rdi
 2364 0d59 E8000000 		call	_ZN8UnitTest4TestC2EPKcS2_S2_i
 2364      00
 2365 0d5e 488B45F8 		movq	-8(%rbp), %rax
 2366 0d62 48C70000 		movq	$_ZTVN12_GLOBAL__N_140TestCheckThrowMacroFailsOnWrongExceptionE+16, (%rax)
 2366      000000
 2367              	.LBE39:
 2368 0d69 C9       		leave
 2369              		.cfi_def_cfa 7, 8
 2370 0d6a C3       		ret
 2371              		.cfi_endproc
 2372              	.LFE1335:
 2374              		.set	_ZN12_GLOBAL__N_140TestCheckThrowMacroFailsOnWrongExceptionC1Ev,_ZN12_GLOBAL__N_140TestCheckT
 2375              		.local	_ZN12_GLOBAL__N_148testCheckThrowMacroFailsOnWrongExceptionInstanceE
 2376              		.comm	_ZN12_GLOBAL__N_148testCheckThrowMacroFailsOnWrongExceptionInstanceE,56,32
 2377              		.local	_ZN12_GLOBAL__N_141adderCheckThrowMacroFailsOnWrongExceptionE
 2378              		.comm	_ZN12_GLOBAL__N_141adderCheckThrowMacroFailsOnWrongExceptionE,1,1
 2379              		.section	.rodata
 2380              	.LC42:
 2381 03f5 77726F6E 		.string	"wrongthrow"
 2381      67746872 
 2381      6F7700
 2382              		.text
 2383 0d6b 90       		.align 2
 2385              	_ZZNK12_GLOBAL__N_140TestCheckThrowMacroFailsOnWrongException7RunImplEvEN14WrongThrowTestC2Ev:
 2386              	.LFB1339:
  98:TestUnitTest++.cpp **** {
  99:TestUnitTest++.cpp ****     class WrongThrowTest : public UnitTest::Test
 100:TestUnitTest++.cpp ****     {
 101:TestUnitTest++.cpp ****     public:
 102:TestUnitTest++.cpp ****         WrongThrowTest() : Test("wrongthrow") {}
 2387              		.loc 4 102 0
 2388              		.cfi_startproc
 2389 0d6c 55       		pushq	%rbp
 2390              		.cfi_def_cfa_offset 16
 2391              		.cfi_offset 6, -16
 2392 0d6d 4889E5   		movq	%rsp, %rbp
 2393              		.cfi_def_cfa_register 6
 2394 0d70 4883EC10 		subq	$16, %rsp
 2395 0d74 48897DF8 		movq	%rdi, -8(%rbp)
 2396              	.LBB40:
 2397              		.loc 4 102 0
 2398 0d78 488B45F8 		movq	-8(%rbp), %rax
 2399 0d7c 41B80000 		movl	$0, %r8d
 2399      0000
 2400 0d82 B9000000 		movl	$.LC37, %ecx
 2400      00
 2401 0d87 BA000000 		movl	$.LC0, %edx
 2401      00
 2402 0d8c BE000000 		movl	$.LC42, %esi
 2402      00
 2403 0d91 4889C7   		movq	%rax, %rdi
 2404 0d94 E8000000 		call	_ZN8UnitTest4TestC2EPKcS2_S2_i
 2404      00
 2405 0d99 488B45F8 		movq	-8(%rbp), %rax
 2406 0d9d 48C70000 		movq	$_ZTVZNK12_GLOBAL__N_140TestCheckThrowMacroFailsOnWrongException7RunImplEvE14WrongThrowTest+1
 2406      000000
 2407              	.LBE40:
 2408 0da4 C9       		leave
 2409              		.cfi_def_cfa 7, 8
 2410 0da5 C3       		ret
 2411              		.cfi_endproc
 2412              	.LFE1339:
 2414              		.set	_ZZNK12_GLOBAL__N_140TestCheckThrowMacroFailsOnWrongException7RunImplEvEN14WrongThrowTestC1Ev
 2415              		.section	.rodata
 2416              	.LC43:
 2417 0400 6F6F7073 		.string	"oops"
 2417      00
 2418              		.text
 2419              		.align 2
 2421              	_ZZNK12_GLOBAL__N_140TestCheckThrowMacroFailsOnWrongException7RunImplEvENK14WrongThrowTest7RunImplE
 2422              	.LFB1341:
 103:TestUnitTest++.cpp ****         virtual void RunImpl() const
 2423              		.loc 4 103 0
 2424              		.cfi_startproc
 2425              		.cfi_personality 0x3,__gxx_personality_v0
 2426              		.cfi_lsda 0x3,.LLSDA1341
 2427 0da6 55       		pushq	%rbp
 2428              		.cfi_def_cfa_offset 16
 2429              		.cfi_offset 6, -16
 2430 0da7 4889E5   		movq	%rsp, %rbp
 2431              		.cfi_def_cfa_register 6
 2432 0daa 4883EC40 		subq	$64, %rsp
 2433 0dae 48897DC8 		movq	%rdi, -56(%rbp)
 2434              	.LBB41:
 2435              	.LBB42:
 104:TestUnitTest++.cpp ****         {
 105:TestUnitTest++.cpp ****             CHECK_THROW(throw "oops", int);
 2436              		.loc 4 105 0
 2437 0db2 C645D700 		movb	$0, -41(%rbp)
 2438 0db6 BF080000 		movl	$8, %edi
 2438      00
 2439 0dbb E8000000 		call	__cxa_allocate_exception
 2439      00
 2440 0dc0 48C70000 		movq	$.LC43, (%rax)
 2440      000000
 2441 0dc7 BA000000 		movl	$0, %edx
 2441      00
 2442 0dcc BE000000 		movl	$_ZTIPKc, %esi
 2442      00
 2443 0dd1 4889C7   		movq	%rax, %rdi
 2444              	.LEHB56:
 2445 0dd4 E8000000 		call	__cxa_throw
 2445      00
 2446              	.LEHE56:
 2447              	.L126:
 2448 0dd9 0FB645D7 		movzbl	-41(%rbp), %eax
 2449 0ddd 83F001   		xorl	$1, %eax
 2450 0de0 84C0     		testb	%al, %al
 2451 0de2 7466     		je	.L128
 2452              	.LEHB57:
 2453              		.loc 4 105 0 is_stmt 0 discriminator 1
 2454 0de4 E8000000 		call	_ZN8UnitTest11CurrentTest7DetailsEv
 2454      00
 2455 0de9 488B08   		movq	(%rax), %rcx
 2456 0dec 488D45E0 		leaq	-32(%rbp), %rax
 2457 0df0 BA690000 		movl	$105, %edx
 2457      00
 2458 0df5 4889CE   		movq	%rcx, %rsi
 2459 0df8 4889C7   		movq	%rax, %rdi
 2460 0dfb E8000000 		call	_ZN8UnitTest11TestDetailsC1ERKS0_i
 2460      00
 2461 0e00 E8000000 		call	_ZN8UnitTest11CurrentTest7ResultsEv
 2461      00
 2462 0e05 488B00   		movq	(%rax), %rax
 2463 0e08 488D4DE0 		leaq	-32(%rbp), %rcx
 2464 0e0c BA000000 		movl	$.LC39, %edx
 2464      00
 2465 0e11 4889CE   		movq	%rcx, %rsi
 2466 0e14 4889C7   		movq	%rax, %rdi
 2467 0e17 E8000000 		call	_ZN8UnitTest11TestResults13OnTestFailureERKNS_11TestDetailsEPKc
 2467      00
 2468 0e1c EB2C     		jmp	.L128
 2469              	.L127:
 2470 0e1e 4883FA01 		cmpq	$1, %rdx
 2471 0e22 7517     		jne	.L129
 2472              	.LBB43:
 2473              		.loc 4 105 0
 2474 0e24 4889C7   		movq	%rax, %rdi
 2475 0e27 E8000000 		call	__cxa_begin_catch
 2475      00
 2476 0e2c 488945D8 		movq	%rax, -40(%rbp)
 2477 0e30 C645D701 		movb	$1, -41(%rbp)
 2478 0e34 E8000000 		call	__cxa_end_catch
 2478      00
 2479 0e39 EB9E     		jmp	.L126
 2480              	.L129:
 2481              	.LBE43:
 2482 0e3b 4889C7   		movq	%rax, %rdi
 2483 0e3e E8000000 		call	__cxa_begin_catch
 2483      00
 2484 0e43 E8000000 		call	__cxa_end_catch
 2484      00
 2485              	.LEHE57:
 2486 0e48 EB8F     		jmp	.L126
 2487              	.L128:
 2488              	.LBE42:
 2489              	.LBE41:
 106:TestUnitTest++.cpp ****         }
 2490              		.loc 4 106 0 is_stmt 1
 2491 0e4a C9       		leave
 2492              		.cfi_def_cfa 7, 8
 2493 0e4b C3       		ret
 2494              		.cfi_endproc
 2495              	.LFE1341:
 2496              		.section	.gcc_except_table
 2497              		.align 4
 2498              	.LLSDA1341:
 2499 0184 FF       		.byte	0xff
 2500 0185 03       		.byte	0x3
 2501 0186 19       		.uleb128 .LLSDATT1341-.LLSDATTD1341
 2502              	.LLSDATTD1341:
 2503 0187 01       		.byte	0x1
 2504 0188 08       		.uleb128 .LLSDACSE1341-.LLSDACSB1341
 2505              	.LLSDACSB1341:
 2506 0189 2E       		.uleb128 .LEHB56-.LFB1341
 2507 018a 05       		.uleb128 .LEHE56-.LEHB56
 2508 018b 78       		.uleb128 .L127-.LFB1341
 2509 018c 03       		.uleb128 0x3
 2510 018d 3E       		.uleb128 .LEHB57-.LFB1341
 2511 018e 64       		.uleb128 .LEHE57-.LEHB57
 2512 018f 00       		.uleb128 0
 2513 0190 00       		.uleb128 0
 2514              	.LLSDACSE1341:
 2515 0191 02       		.byte	0x2
 2516 0192 00       		.byte	0
 2517 0193 01       		.byte	0x1
 2518 0194 7D       		.byte	0x7d
 2519 0195 000000   		.align 4
 2520 0198 00000000 		.long	0
 2521              	
 2522 019c 00000000 		.long	_ZTIi
 2523              	.LLSDATT1341:
 2524              		.text
 2526              		.align 2
 2528              	_ZNK12_GLOBAL__N_140TestCheckThrowMacroFailsOnWrongException7RunImplEv:
 2529              	.LFB1337:
  98:TestUnitTest++.cpp ****     class WrongThrowTest : public UnitTest::Test
 2530              		.loc 4 98 0
 2531              		.cfi_startproc
 2532              		.cfi_personality 0x3,__gxx_personality_v0
 2533              		.cfi_lsda 0x3,.LLSDA1337
 2534 0e4c 55       		pushq	%rbp
 2535              		.cfi_def_cfa_offset 16
 2536              		.cfi_offset 6, -16
 2537 0e4d 4889E5   		movq	%rsp, %rbp
 2538              		.cfi_def_cfa_register 6
 2539 0e50 53       		pushq	%rbx
 2540 0e51 4881EC98 		subq	$152, %rsp
 2540      000000
 2541              		.cfi_offset 3, -24
 2542 0e58 4889BD68 		movq	%rdi, -152(%rbp)
 2542      FFFFFF
 2543              	.LBB44:
 107:TestUnitTest++.cpp ****     };
 108:TestUnitTest++.cpp **** 
 109:TestUnitTest++.cpp ****     UnitTest::TestResults results;
 2544              		.loc 4 109 0
 2545 0e5f 488D4590 		leaq	-112(%rbp), %rax
 2546 0e63 BE000000 		movl	$0, %esi
 2546      00
 2547 0e68 4889C7   		movq	%rax, %rdi
 2548              	.LEHB58:
 2549 0e6b E8000000 		call	_ZN8UnitTest11TestResultsC1EPNS_12TestReporterE
 2549      00
 2550              	.LBB45:
 110:TestUnitTest++.cpp **** 	{
 111:TestUnitTest++.cpp **** 		ScopedCurrentTest scopedResults(results);
 2551              		.loc 4 111 0
 2552 0e70 488D4D90 		leaq	-112(%rbp), %rcx
 2553 0e74 488D4580 		leaq	-128(%rbp), %rax
 2554 0e78 BA000000 		movl	$0, %edx
 2554      00
 2555 0e7d 4889CE   		movq	%rcx, %rsi
 2556 0e80 4889C7   		movq	%rax, %rdi
 2557 0e83 E8000000 		call	_ZN17ScopedCurrentTestC1ERN8UnitTest11TestResultsEPKNS0_11TestDetailsE
 2557      00
 2558              	.LEHE58:
 112:TestUnitTest++.cpp **** 
 113:TestUnitTest++.cpp **** 		WrongThrowTest test;
 2559              		.loc 4 113 0
 2560 0e88 488D45B0 		leaq	-80(%rbp), %rax
 2561 0e8c 4889C7   		movq	%rax, %rdi
 2562              	.LEHB59:
 2563 0e8f E8D8FEFF 		call	_ZZNK12_GLOBAL__N_140TestCheckThrowMacroFailsOnWrongException7RunImplEvEN14WrongThrowTestC1Ev
 2563      FF
 2564              	.LEHE59:
 114:TestUnitTest++.cpp **** 		test.Run();
 2565              		.loc 4 114 0
 2566 0e94 488D45B0 		leaq	-80(%rbp), %rax
 2567 0e98 4889C7   		movq	%rax, %rdi
 2568              	.LEHB60:
 2569 0e9b E8000000 		call	_ZN8UnitTest4Test3RunEv
 2569      00
 2570              	.LEHE60:
 113:TestUnitTest++.cpp **** 		test.Run();
 2571              		.loc 4 113 0
 2572 0ea0 488D45B0 		leaq	-80(%rbp), %rax
 2573 0ea4 4889C7   		movq	%rax, %rdi
 2574              	.LEHB61:
 2575 0ea7 E82A1100 		call	_ZZNK12_GLOBAL__N_140TestCheckThrowMacroFailsOnWrongException7RunImplEvEN14WrongThrowTestD1Ev
 2575      00
 2576              	.LEHE61:
 2577              		.loc 4 114 0
 2578 0eac 488D4580 		leaq	-128(%rbp), %rax
 2579 0eb0 4889C7   		movq	%rax, %rdi
 2580              	.LEHB62:
 2581 0eb3 E8000000 		call	_ZN17ScopedCurrentTestD1Ev
 2581      00
 2582              	.LEHE62:
 2583              	.LEHB63:
 2584              	.LBE45:
 115:TestUnitTest++.cpp **** 	}
 116:TestUnitTest++.cpp **** 
 117:TestUnitTest++.cpp **** 	CHECK_EQUAL(1, results.GetFailureCount());
 2585              		.loc 4 117 0
 2586 0eb8 E8000000 		call	_ZN8UnitTest11CurrentTest7DetailsEv
 2586      00
 2587 0ebd 488B08   		movq	(%rax), %rcx
 2588 0ec0 488D45B0 		leaq	-80(%rbp), %rax
 2589 0ec4 BA750000 		movl	$117, %edx
 2589      00
 2590 0ec9 4889CE   		movq	%rcx, %rsi
 2591 0ecc 4889C7   		movq	%rax, %rdi
 2592 0ecf E8000000 		call	_ZN8UnitTest11TestDetailsC1ERKS0_i
 2592      00
 2593              		.loc 4 117 0 is_stmt 0 discriminator 1
 2594 0ed4 488D4590 		leaq	-112(%rbp), %rax
 2595 0ed8 4889C7   		movq	%rax, %rdi
 2596 0edb E8000000 		call	_ZNK8UnitTest11TestResults15GetFailureCountEv
 2596      00
 2597 0ee0 894580   		movl	%eax, -128(%rbp)
 2598 0ee3 C7857CFF 		movl	$1, -132(%rbp)
 2598      FFFF0100 
 2598      0000
 2599 0eed E8000000 		call	_ZN8UnitTest11CurrentTest7ResultsEv
 2599      00
 2600 0ef2 488B00   		movq	(%rax), %rax
 2601 0ef5 488D4DB0 		leaq	-80(%rbp), %rcx
 2602 0ef9 488D5580 		leaq	-128(%rbp), %rdx
 2603 0efd 488DB57C 		leaq	-132(%rbp), %rsi
 2603      FFFFFF
 2604 0f04 4889C7   		movq	%rax, %rdi
 2605 0f07 E8000000 		call	_ZN8UnitTest10CheckEqualIiiEEvRNS_11TestResultsERKT_RKT0_RKNS_11TestDetailsE
 2605      00
 2606              	.LEHE63:
 2607              	.LBE44:
 118:TestUnitTest++.cpp **** }
 2608              		.loc 4 118 0 is_stmt 1
 2609 0f0c E9830000 		jmp	.L140
 2609      00
 2610              	.L137:
 2611 0f11 4889C3   		movq	%rax, %rbx
 2612              	.LBB47:
 2613              	.LBB46:
 113:TestUnitTest++.cpp **** 		test.Run();
 2614              		.loc 4 113 0
 2615 0f14 488D45B0 		leaq	-80(%rbp), %rax
 2616 0f18 4889C7   		movq	%rax, %rdi
 2617 0f1b E8B61000 		call	_ZZNK12_GLOBAL__N_140TestCheckThrowMacroFailsOnWrongException7RunImplEvEN14WrongThrowTestD1Ev
 2617      00
 2618 0f20 EB03     		jmp	.L132
 2619              	.L136:
 2620 0f22 4889C3   		movq	%rax, %rbx
 2621              	.L132:
 114:TestUnitTest++.cpp **** 	}
 2622              		.loc 4 114 0
 2623 0f25 488D4580 		leaq	-128(%rbp), %rax
 2624 0f29 4889C7   		movq	%rax, %rdi
 2625 0f2c E8000000 		call	_ZN17ScopedCurrentTestD1Ev
 2625      00
 2626 0f31 4889D8   		movq	%rbx, %rax
 2627 0f34 4889C7   		movq	%rax, %rdi
 2628              	.LEHB64:
 2629 0f37 E8000000 		call	_Unwind_Resume
 2629      00
 2630              	.LEHE64:
 2631              	.L139:
 2632 0f3c 4889C3   		movq	%rax, %rbx
 2633              	.LBE46:
 117:TestUnitTest++.cpp **** }
 2634              		.loc 4 117 0
 2635 0f3f E8000000 		call	__cxa_end_catch
 2635      00
 2636 0f44 4889D8   		movq	%rbx, %rax
 2637 0f47 4889C7   		movq	%rax, %rdi
 2638              	.LEHB65:
 2639 0f4a E8000000 		call	_Unwind_Resume
 2639      00
 2640              	.LEHE65:
 2641              	.L138:
 2642 0f4f 4889C7   		movq	%rax, %rdi
 2643 0f52 E8000000 		call	__cxa_begin_catch
 2643      00
 2644              	.LEHB66:
 2645 0f57 E8000000 		call	_ZN8UnitTest11CurrentTest7DetailsEv
 2645      00
 2646 0f5c 488B08   		movq	(%rax), %rcx
 2647 0f5f 488D45B0 		leaq	-80(%rbp), %rax
 2648 0f63 BA750000 		movl	$117, %edx
 2648      00
 2649 0f68 4889CE   		movq	%rcx, %rsi
 2650 0f6b 4889C7   		movq	%rax, %rdi
 2651 0f6e E8000000 		call	_ZN8UnitTest11TestDetailsC1ERKS0_i
 2651      00
 117:TestUnitTest++.cpp **** }
 2652              		.loc 4 117 0 is_stmt 0 discriminator 1
 2653 0f73 E8000000 		call	_ZN8UnitTest11CurrentTest7ResultsEv
 2653      00
 2654 0f78 488B00   		movq	(%rax), %rax
 2655 0f7b 488D4DB0 		leaq	-80(%rbp), %rcx
 2656 0f7f BA000000 		movl	$.LC40, %edx
 2656      00
 2657 0f84 4889CE   		movq	%rcx, %rsi
 2658 0f87 4889C7   		movq	%rax, %rdi
 2659 0f8a E8000000 		call	_ZN8UnitTest11TestResults13OnTestFailureERKNS_11TestDetailsEPKc
 2659      00
 2660              	.LEHE66:
 2661              	.LEHB67:
 2662 0f8f E8000000 		call	__cxa_end_catch
 2662      00
 2663              	.LEHE67:
 2664              	.L140:
 2665              	.LBE47:
 2666              		.loc 4 118 0 is_stmt 1
 2667 0f94 90       		nop
 2668 0f95 4881C498 		addq	$152, %rsp
 2668      000000
 2669 0f9c 5B       		popq	%rbx
 2670 0f9d 5D       		popq	%rbp
 2671              		.cfi_def_cfa 7, 8
 2672 0f9e C3       		ret
 2673              		.cfi_endproc
 2674              	.LFE1337:
 2675              		.section	.gcc_except_table
 2676              		.align 4
 2677              	.LLSDA1337:
 2678 01a0 FF       		.byte	0xff
 2679 01a1 03       		.byte	0x3
 2680 01a2 39       		.uleb128 .LLSDATT1337-.LLSDATTD1337
 2681              	.LLSDATTD1337:
 2682 01a3 01       		.byte	0x1
 2683 01a4 31       		.uleb128 .LLSDACSE1337-.LLSDACSB1337
 2684              	.LLSDACSB1337:
 2685 01a5 1F       		.uleb128 .LEHB58-.LFB1337
 2686 01a6 1D       		.uleb128 .LEHE58-.LEHB58
 2687 01a7 00       		.uleb128 0
 2688 01a8 00       		.uleb128 0
 2689 01a9 43       		.uleb128 .LEHB59-.LFB1337
 2690 01aa 05       		.uleb128 .LEHE59-.LEHB59
 2691 01ab D601     		.uleb128 .L136-.LFB1337
 2692 01ad 00       		.uleb128 0
 2693 01ae 4F       		.uleb128 .LEHB60-.LFB1337
 2694 01af 05       		.uleb128 .LEHE60-.LEHB60
 2695 01b0 C501     		.uleb128 .L137-.LFB1337
 2696 01b2 00       		.uleb128 0
 2697 01b3 5B       		.uleb128 .LEHB61-.LFB1337
 2698 01b4 05       		.uleb128 .LEHE61-.LEHB61
 2699 01b5 D601     		.uleb128 .L136-.LFB1337
 2700 01b7 00       		.uleb128 0
 2701 01b8 67       		.uleb128 .LEHB62-.LFB1337
 2702 01b9 05       		.uleb128 .LEHE62-.LEHB62
 2703 01ba 00       		.uleb128 0
 2704 01bb 00       		.uleb128 0
 2705 01bc 6C       		.uleb128 .LEHB63-.LFB1337
 2706 01bd 54       		.uleb128 .LEHE63-.LEHB63
 2707 01be 8302     		.uleb128 .L138-.LFB1337
 2708 01c0 01       		.uleb128 0x1
 2709 01c1 EB01     		.uleb128 .LEHB64-.LFB1337
 2710 01c3 05       		.uleb128 .LEHE64-.LEHB64
 2711 01c4 00       		.uleb128 0
 2712 01c5 00       		.uleb128 0
 2713 01c6 FE01     		.uleb128 .LEHB65-.LFB1337
 2714 01c8 05       		.uleb128 .LEHE65-.LEHB65
 2715 01c9 00       		.uleb128 0
 2716 01ca 00       		.uleb128 0
 2717 01cb 8B02     		.uleb128 .LEHB66-.LFB1337
 2718 01cd 38       		.uleb128 .LEHE66-.LEHB66
 2719 01ce F001     		.uleb128 .L139-.LFB1337
 2720 01d0 00       		.uleb128 0
 2721 01d1 C302     		.uleb128 .LEHB67-.LFB1337
 2722 01d3 05       		.uleb128 .LEHE67-.LEHB67
 2723 01d4 00       		.uleb128 0
 2724 01d5 00       		.uleb128 0
 2725              	.LLSDACSE1337:
 2726 01d6 01       		.byte	0x1
 2727 01d7 00       		.byte	0
 2728              		.align 4
 2729 01d8 00000000 		.long	0
 2730              	
 2731              	.LLSDATT1337:
 2732              		.text
 2734 0f9f 90       		.align 2
 2736              	_ZN12_GLOBAL__N_113SimpleFixtureC2Ev:
 2737              	.LFB1343:
 119:TestUnitTest++.cpp **** 
 120:TestUnitTest++.cpp **** struct SimpleFixture
 121:TestUnitTest++.cpp **** {
 122:TestUnitTest++.cpp ****     SimpleFixture()
 2738              		.loc 4 122 0
 2739              		.cfi_startproc
 2740 0fa0 55       		pushq	%rbp
 2741              		.cfi_def_cfa_offset 16
 2742              		.cfi_offset 6, -16
 2743 0fa1 4889E5   		movq	%rsp, %rbp
 2744              		.cfi_def_cfa_register 6
 2745 0fa4 48897DF8 		movq	%rdi, -8(%rbp)
 2746              	.LBB48:
 123:TestUnitTest++.cpp ****     {
 124:TestUnitTest++.cpp ****         ++instanceCount;
 2747              		.loc 4 124 0
 2748 0fa8 8B050000 		movl	_ZN12_GLOBAL__N_113SimpleFixture13instanceCountE(%rip), %eax
 2748      0000
 2749 0fae 83C001   		addl	$1, %eax
 2750 0fb1 89050000 		movl	%eax, _ZN12_GLOBAL__N_113SimpleFixture13instanceCountE(%rip)
 2750      0000
 2751              	.LBE48:
 125:TestUnitTest++.cpp ****     }
 2752              		.loc 4 125 0
 2753 0fb7 5D       		popq	%rbp
 2754              		.cfi_def_cfa 7, 8
 2755 0fb8 C3       		ret
 2756              		.cfi_endproc
 2757              	.LFE1343:
 2759 0fb9 90       		.align 2
 2761              	_ZN12_GLOBAL__N_113SimpleFixtureD2Ev:
 2762              	.LFB1346:
 126:TestUnitTest++.cpp ****     ~SimpleFixture()
 2763              		.loc 4 126 0
 2764              		.cfi_startproc
 2765 0fba 55       		pushq	%rbp
 2766              		.cfi_def_cfa_offset 16
 2767              		.cfi_offset 6, -16
 2768 0fbb 4889E5   		movq	%rsp, %rbp
 2769              		.cfi_def_cfa_register 6
 2770 0fbe 48897DF8 		movq	%rdi, -8(%rbp)
 2771              	.LBB49:
 127:TestUnitTest++.cpp ****     {
 128:TestUnitTest++.cpp ****         --instanceCount;
 2772              		.loc 4 128 0
 2773 0fc2 8B050000 		movl	_ZN12_GLOBAL__N_113SimpleFixture13instanceCountE(%rip), %eax
 2773      0000
 2774 0fc8 83E801   		subl	$1, %eax
 2775 0fcb 89050000 		movl	%eax, _ZN12_GLOBAL__N_113SimpleFixture13instanceCountE(%rip)
 2775      0000
 2776              	.LBE49:
 129:TestUnitTest++.cpp ****     }
 2777              		.loc 4 129 0
 2778 0fd1 5D       		popq	%rbp
 2779              		.cfi_def_cfa 7, 8
 2780 0fd2 C3       		ret
 2781              		.cfi_endproc
 2782              	.LFE1346:
 2784              		.local	_ZN12_GLOBAL__N_113SimpleFixture13instanceCountE
 2785              		.comm	_ZN12_GLOBAL__N_113SimpleFixture13instanceCountE,4,4
 2786 0fd3 90       		.align 2
 2788              	_ZN12_GLOBAL__N_145SimpleFixtureDefaultFixtureCtorIsCalledHelperC2ERKN8UnitTest11TestDetailsE:
 2789              	.LFB1349:
 130:TestUnitTest++.cpp **** 
 131:TestUnitTest++.cpp ****     static int instanceCount;
 132:TestUnitTest++.cpp **** };
 133:TestUnitTest++.cpp **** 
 134:TestUnitTest++.cpp **** int SimpleFixture::instanceCount = 0;
 135:TestUnitTest++.cpp **** 
 136:TestUnitTest++.cpp **** TEST_FIXTURE(SimpleFixture, DefaultFixtureCtorIsCalled)
 2790              		.loc 4 136 0
 2791              		.cfi_startproc
 2792 0fd4 55       		pushq	%rbp
 2793              		.cfi_def_cfa_offset 16
 2794              		.cfi_offset 6, -16
 2795 0fd5 4889E5   		movq	%rsp, %rbp
 2796              		.cfi_def_cfa_register 6
 2797 0fd8 4883EC10 		subq	$16, %rsp
 2798 0fdc 48897DF8 		movq	%rdi, -8(%rbp)
 2799 0fe0 488975F0 		movq	%rsi, -16(%rbp)
 2800              	.LBB50:
 2801              		.loc 4 136 0
 2802 0fe4 488B45F8 		movq	-8(%rbp), %rax
 2803 0fe8 4889C7   		movq	%rax, %rdi
 2804 0feb E8B0FFFF 		call	_ZN12_GLOBAL__N_113SimpleFixtureC2Ev
 2804      FF
 2805 0ff0 488B45F8 		movq	-8(%rbp), %rax
 2806 0ff4 488B55F0 		movq	-16(%rbp), %rdx
 2807 0ff8 488910   		movq	%rdx, (%rax)
 2808              	.LBE50:
 2809 0ffb C9       		leave
 2810              		.cfi_def_cfa 7, 8
 2811 0ffc C3       		ret
 2812              		.cfi_endproc
 2813              	.LFE1349:
 2815              		.set	_ZN12_GLOBAL__N_145SimpleFixtureDefaultFixtureCtorIsCalledHelperC1ERKN8UnitTest11TestDetailsE
 2816              		.section	.rodata
 2817              	.LC44:
 2818 0405 44656661 		.string	"DefaultFixtureCtorIsCalled"
 2818      756C7446 
 2818      69787475 
 2818      72654374 
 2818      6F724973 
 2819              		.text
 2820 0ffd 90       		.align 2
 2822              	_ZN12_GLOBAL__N_143TestSimpleFixtureDefaultFixtureCtorIsCalledC2Ev:
 2823              	.LFB1352:
 2824              		.loc 4 136 0
 2825              		.cfi_startproc
 2826 0ffe 55       		pushq	%rbp
 2827              		.cfi_def_cfa_offset 16
 2828              		.cfi_offset 6, -16
 2829 0fff 4889E5   		movq	%rsp, %rbp
 2830              		.cfi_def_cfa_register 6
 2831 1002 4883EC10 		subq	$16, %rsp
 2832 1006 48897DF8 		movq	%rdi, -8(%rbp)
 2833              	.LBB51:
 2834              		.loc 4 136 0
 2835 100a E8000000 		call	_ZN13UnitTestSuite12GetSuiteNameEv
 2835      00
 2836 100f 4889C2   		movq	%rax, %rdx
 2837 1012 488B45F8 		movq	-8(%rbp), %rax
 2838 1016 41B88800 		movl	$136, %r8d
 2838      0000
 2839 101c B9000000 		movl	$.LC1, %ecx
 2839      00
 2840 1021 BE000000 		movl	$.LC44, %esi
 2840      00
 2841 1026 4889C7   		movq	%rax, %rdi
 2842 1029 E8000000 		call	_ZN8UnitTest4TestC2EPKcS2_S2_i
 2842      00
 2843 102e 488B45F8 		movq	-8(%rbp), %rax
 2844 1032 48C70000 		movq	$_ZTVN12_GLOBAL__N_143TestSimpleFixtureDefaultFixtureCtorIsCalledE+16, (%rax)
 2844      000000
 2845              	.LBE51:
 2846 1039 C9       		leave
 2847              		.cfi_def_cfa 7, 8
 2848 103a C3       		ret
 2849              		.cfi_endproc
 2850              	.LFE1352:
 2852              		.set	_ZN12_GLOBAL__N_143TestSimpleFixtureDefaultFixtureCtorIsCalledC1Ev,_ZN12_GLOBAL__N_143TestSim
 2853              		.local	_ZN12_GLOBAL__N_151testSimpleFixtureDefaultFixtureCtorIsCalledInstanceE
 2854              		.comm	_ZN12_GLOBAL__N_151testSimpleFixtureDefaultFixtureCtorIsCalledInstanceE,56,32
 2855              		.local	_ZN12_GLOBAL__N_144adderSimpleFixtureDefaultFixtureCtorIsCalledE
 2856              		.comm	_ZN12_GLOBAL__N_144adderSimpleFixtureDefaultFixtureCtorIsCalledE,1,1
 2857 103b 90       		.align 2
 2859              	_ZN12_GLOBAL__N_145SimpleFixtureDefaultFixtureCtorIsCalledHelperD2Ev:
 2860              	.LFB1356:
 2861              		.loc 4 136 0
 2862              		.cfi_startproc
 2863 103c 55       		pushq	%rbp
 2864              		.cfi_def_cfa_offset 16
 2865              		.cfi_offset 6, -16
 2866 103d 4889E5   		movq	%rsp, %rbp
 2867              		.cfi_def_cfa_register 6
 2868 1040 4883EC08 		subq	$8, %rsp
 2869 1044 48897DF8 		movq	%rdi, -8(%rbp)
 2870              	.LBB52:
 2871              		.loc 4 136 0
 2872 1048 488B45F8 		movq	-8(%rbp), %rax
 2873 104c 4889C7   		movq	%rax, %rdi
 2874 104f E866FFFF 		call	_ZN12_GLOBAL__N_113SimpleFixtureD2Ev
 2874      FF
 2875              	.LBE52:
 2876 1054 C9       		leave
 2877              		.cfi_def_cfa 7, 8
 2878 1055 C3       		ret
 2879              		.cfi_endproc
 2880              	.LFE1356:
 2882              		.set	_ZN12_GLOBAL__N_145SimpleFixtureDefaultFixtureCtorIsCalledHelperD1Ev,_ZN12_GLOBAL__N_145Simpl
 2883              		.section	.rodata
 2884              	.LC45:
 2885 0420 556E6861 		.string	"Unhandled exception: "
 2885      6E646C65 
 2885      64206578 
 2885      63657074 
 2885      696F6E3A 
 2886 0436 0000     		.align 8
 2887              	.LC46:
 2888 0438 556E6861 		.string	"Unhandled exception while destroying fixture SimpleFixture"
 2888      6E646C65 
 2888      64206578 
 2888      63657074 
 2888      696F6E20 
 2889 0473 00000000 		.align 8
 2889      00
 2890              	.LC47:
 2891 0478 556E6861 		.string	"Unhandled exception while constructing fixture SimpleFixture"
 2891      6E646C65 
 2891      64206578 
 2891      63657074 
 2891      696F6E20 
 2892              		.text
 2893              		.align 2
 2895              	_ZNK12_GLOBAL__N_143TestSimpleFixtureDefaultFixtureCtorIsCalled7RunImplEv:
 2896              	.LFB1354:
 2897              		.loc 4 136 0
 2898              		.cfi_startproc
 2899              		.cfi_personality 0x3,__gxx_personality_v0
 2900              		.cfi_lsda 0x3,.LLSDA1354
 2901 1056 55       		pushq	%rbp
 2902              		.cfi_def_cfa_offset 16
 2903              		.cfi_offset 6, -16
 2904 1057 4889E5   		movq	%rsp, %rbp
 2905              		.cfi_def_cfa_register 6
 2906 105a 4154     		pushq	%r12
 2907 105c 53       		pushq	%rbx
 2908 105d 4881ECA0 		subq	$416, %rsp
 2908      010000
 2909              		.cfi_offset 12, -24
 2910              		.cfi_offset 3, -32
 2911 1064 4889BD58 		movq	%rdi, -424(%rbp)
 2911      FEFFFF
 2912              	.LBB53:
 2913              		.loc 4 136 0
 2914 106b C6856FFE 		movb	$0, -401(%rbp)
 2914      FFFF00
 2915              	.LBB54:
 2916 1072 488B8558 		movq	-424(%rbp), %rax
 2916      FEFFFF
 2917 1079 488D5008 		leaq	8(%rax), %rdx
 2918 107d 488D8580 		leaq	-384(%rbp), %rax
 2918      FEFFFF
 2919 1084 4889D6   		movq	%rdx, %rsi
 2920 1087 4889C7   		movq	%rax, %rdi
 2921 108a E845FFFF 		call	_ZN12_GLOBAL__N_145SimpleFixtureDefaultFixtureCtorIsCalledHelperC1ERKN8UnitTest11TestDetailsE
 2921      FF
 2922 108f C6856FFE 		movb	$1, -401(%rbp)
 2922      FFFF01
 2923 1096 488B8558 		movq	-424(%rbp), %rax
 2923      FEFFFF
 2924 109d 488D5008 		leaq	8(%rax), %rdx
 2925 10a1 488D8580 		leaq	-384(%rbp), %rax
 2925      FEFFFF
 2926 10a8 4889D6   		movq	%rdx, %rsi
 2927 10ab 4889C7   		movq	%rax, %rdi
 2928              	.LEHB68:
 2929 10ae E8730800 		call	_ZN8UnitTest11ExecuteTestIN12_GLOBAL__N_145SimpleFixtureDefaultFixtureCtorIsCalledHelperEEEvR
 2929      00
 2930              	.LEHE68:
 2931              		.loc 4 136 0 is_stmt 0 discriminator 1
 2932 10b3 488D8580 		leaq	-384(%rbp), %rax
 2932      FEFFFF
 2933 10ba 4889C7   		movq	%rax, %rdi
 2934 10bd E87AFFFF 		call	_ZN12_GLOBAL__N_145SimpleFixtureDefaultFixtureCtorIsCalledHelperD1Ev
 2934      FF
 2935              	.LBE54:
 2936              	.LBE53:
 2937 10c2 E9620200 		jmp	.L166
 2937      00
 2938              	.L160:
 2939 10c7 4989C4   		movq	%rax, %r12
 2940 10ca 4889D3   		movq	%rdx, %rbx
 2941              	.LBB62:
 2942              	.LBB55:
 2943              		.loc 4 136 0
 2944 10cd 488D8580 		leaq	-384(%rbp), %rax
 2944      FEFFFF
 2945 10d4 4889C7   		movq	%rax, %rdi
 2946 10d7 E860FFFF 		call	_ZN12_GLOBAL__N_145SimpleFixtureDefaultFixtureCtorIsCalledHelperD1Ev
 2946      FF
 2947 10dc 4C89E0   		movq	%r12, %rax
 2948 10df 4889DA   		movq	%rbx, %rdx
 2949 10e2 4883FA01 		cmpq	$1, %rdx
 2950 10e6 745C     		je	.L151
 2951 10e8 4883FA02 		cmpq	$2, %rdx
 2952 10ec 0F84F400 		je	.L152
 2952      0000
 2953 10f2 E9980100 		jmp	.L165
 2953      00
 2954              	.L161:
 2955 10f7 4889C3   		movq	%rax, %rbx
 2956              	.LBE55:
 2957              	.LBB56:
 2958 10fa E8000000 		call	__cxa_end_catch
 2958      00
 2959 10ff 4889D8   		movq	%rbx, %rax
 2960 1102 4889C7   		movq	%rax, %rdi
 2961              	.LEHB69:
 2962 1105 E8000000 		call	_Unwind_Resume
 2962      00
 2963              	.LEHE69:
 2964              	.L162:
 2965 110a 4889C3   		movq	%rax, %rbx
 2966              	.LBE56:
 2967              	.LBB57:
 2968              	.LBB58:
 2969 110d 488D8580 		leaq	-384(%rbp), %rax
 2969      FEFFFF
 2970 1114 4889C7   		movq	%rax, %rdi
 2971 1117 E8000000 		call	_ZN8UnitTest15MemoryOutStreamD1Ev
 2971      00
 2972 111c EB03     		jmp	.L155
 2973              	.L163:
 2974 111e 4889C3   		movq	%rax, %rbx
 2975              	.L155:
 2976              	.LBE58:
 2977 1121 E8000000 		call	__cxa_end_catch
 2977      00
 2978 1126 4889D8   		movq	%rbx, %rax
 2979 1129 4889C7   		movq	%rax, %rdi
 2980              	.LEHB70:
 2981 112c E8000000 		call	_Unwind_Resume
 2981      00
 2982              	.LEHE70:
 2983              	.L164:
 2984 1131 4889C3   		movq	%rax, %rbx
 2985              	.LBE57:
 2986 1134 E8000000 		call	__cxa_end_catch
 2986      00
 2987 1139 4889D8   		movq	%rbx, %rax
 2988 113c 4889C7   		movq	%rax, %rdi
 2989              	.LEHB71:
 2990 113f E8000000 		call	_Unwind_Resume
 2990      00
 2991              	.LEHE71:
 2992              	.L151:
 2993              	.LBB60:
 2994 1144 4889C7   		movq	%rax, %rdi
 2995 1147 E8000000 		call	__cxa_begin_catch
 2995      00
 2996 114c 48898570 		movq	%rax, -400(%rbp)
 2996      FEFFFF
 2997 1153 488B8570 		movq	-400(%rbp), %rax
 2997      FEFFFF
 2998 115a 488B00   		movq	(%rax), %rax
 2999 115d 4883C010 		addq	$16, %rax
 3000 1161 488B00   		movq	(%rax), %rax
 3001 1164 488B9570 		movq	-400(%rbp), %rdx
 3001      FEFFFF
 3002 116b 4889D7   		movq	%rdx, %rdi
 3003 116e FFD0     		call	*%rax
 3004 1170 4889C3   		movq	%rax, %rbx
 3005 1173 488B8570 		movq	-400(%rbp), %rax
 3005      FEFFFF
 3006 117a 4889C7   		movq	%rax, %rdi
 3007              	.LEHB72:
 3008 117d E8000000 		call	_ZNK8UnitTest15AssertException10LineNumberEv
 3008      00
 3009 1182 4189C4   		movl	%eax, %r12d
 3010 1185 488B8570 		movq	-400(%rbp), %rax
 3010      FEFFFF
 3011 118c 4889C7   		movq	%rax, %rdi
 3012 118f E8000000 		call	_ZNK8UnitTest15AssertException8FilenameEv
 3012      00
 3013              		.loc 4 136 0 discriminator 1
 3014 1194 4889C1   		movq	%rax, %rcx
 3015 1197 488B8558 		movq	-424(%rbp), %rax
 3015      FEFFFF
 3016 119e 488B5008 		movq	8(%rax), %rdx
 3017 11a2 488B8558 		movq	-424(%rbp), %rax
 3017      FEFFFF
 3018 11a9 488B7010 		movq	16(%rax), %rsi
 3019 11ad 488D8580 		leaq	-384(%rbp), %rax
 3019      FEFFFF
 3020 11b4 4589E0   		movl	%r12d, %r8d
 3021 11b7 4889C7   		movq	%rax, %rdi
 3022 11ba E8000000 		call	_ZN8UnitTest11TestDetailsC1EPKcS2_S2_i
 3022      00
 3023              		.loc 4 136 0 discriminator 3
 3024 11bf E8000000 		call	_ZN8UnitTest11CurrentTest7ResultsEv
 3024      00
 3025 11c4 488B00   		movq	(%rax), %rax
 3026 11c7 488D8D80 		leaq	-384(%rbp), %rcx
 3026      FEFFFF
 3027 11ce 4889DA   		movq	%rbx, %rdx
 3028 11d1 4889CE   		movq	%rcx, %rsi
 3029 11d4 4889C7   		movq	%rax, %rdi
 3030 11d7 E8000000 		call	_ZN8UnitTest11TestResults13OnTestFailureERKNS_11TestDetailsEPKc
 3030      00
 3031              	.LEHE72:
 3032              		.loc 4 136 0 discriminator 1
 3033 11dc E8000000 		call	__cxa_end_catch
 3033      00
 3034              	.LBE60:
 3035              	.LBE62:
 3036 11e1 E9430100 		jmp	.L166
 3036      00
 3037              	.L152:
 3038              	.LBB63:
 3039              	.LBB61:
 3040              		.loc 4 136 0
 3041 11e6 4889C7   		movq	%rax, %rdi
 3042 11e9 E8000000 		call	__cxa_begin_catch
 3042      00
 3043 11ee 48898578 		movq	%rax, -392(%rbp)
 3043      FEFFFF
 3044              	.LBB59:
 3045 11f5 488D8580 		leaq	-384(%rbp), %rax
 3045      FEFFFF
 3046 11fc 4889C7   		movq	%rax, %rdi
 3047              	.LEHB73:
 3048 11ff E8000000 		call	_ZN8UnitTest15MemoryOutStreamC1Ev
 3048      00
 3049              	.LEHE73:
 3050              		.loc 4 136 0 discriminator 1
 3051 1204 488B8578 		movq	-392(%rbp), %rax
 3051      FEFFFF
 3052 120b 488B00   		movq	(%rax), %rax
 3053 120e 4883C010 		addq	$16, %rax
 3054 1212 488B00   		movq	(%rax), %rax
 3055 1215 488B9578 		movq	-392(%rbp), %rdx
 3055      FEFFFF
 3056 121c 4889D7   		movq	%rdx, %rdi
 3057 121f FFD0     		call	*%rax
 3058 1221 4889C3   		movq	%rax, %rbx
 3059 1224 488D8580 		leaq	-384(%rbp), %rax
 3059      FEFFFF
 3060 122b BE000000 		movl	$.LC45, %esi
 3060      00
 3061 1230 4889C7   		movq	%rax, %rdi
 3062              	.LEHB74:
 3063 1233 E8000000 		call	_ZStlsISt11char_traitsIcEERSt13basic_ostreamIcT_ES5_PKc
 3063      00
 3064 1238 4889DE   		movq	%rbx, %rsi
 3065 123b 4889C7   		movq	%rax, %rdi
 3066 123e E8000000 		call	_ZStlsISt11char_traitsIcEERSt13basic_ostreamIcT_ES5_PKc
 3066      00
 3067 1243 488D8580 		leaq	-384(%rbp), %rax
 3067      FEFFFF
 3068 124a 4889C7   		movq	%rax, %rdi
 3069 124d E8000000 		call	_ZNK8UnitTest15MemoryOutStream7GetTextEv
 3069      00
 3070 1252 4889C3   		movq	%rax, %rbx
 3071 1255 488B8558 		movq	-424(%rbp), %rax
 3071      FEFFFF
 3072 125c 4C8D6008 		leaq	8(%rax), %r12
 3073 1260 E8000000 		call	_ZN8UnitTest11CurrentTest7ResultsEv
 3073      00
 3074 1265 488B00   		movq	(%rax), %rax
 3075 1268 4889DA   		movq	%rbx, %rdx
 3076 126b 4C89E6   		movq	%r12, %rsi
 3077 126e 4889C7   		movq	%rax, %rdi
 3078 1271 E8000000 		call	_ZN8UnitTest11TestResults13OnTestFailureERKNS_11TestDetailsEPKc
 3078      00
 3079              	.LEHE74:
 3080 1276 488D8580 		leaq	-384(%rbp), %rax
 3080      FEFFFF
 3081 127d 4889C7   		movq	%rax, %rdi
 3082              	.LEHB75:
 3083 1280 E8000000 		call	_ZN8UnitTest15MemoryOutStreamD1Ev
 3083      00
 3084              	.LEHE75:
 3085              	.LBE59:
 3086              		.loc 4 136 0
 3087 1285 E8000000 		call	__cxa_end_catch
 3087      00
 3088              	.LBE61:
 3089              	.LBE63:
 3090 128a E99A0000 		jmp	.L166
 3090      00
 3091              	.L165:
 3092              	.LBB64:
 3093 128f 4889C7   		movq	%rax, %rdi
 3094 1292 E8000000 		call	__cxa_begin_catch
 3094      00
 3095 1297 80BD6FFE 		cmpb	$0, -401(%rbp)
 3095      FFFF00
 3096 129e 7443     		je	.L158
 3097              		.loc 4 136 0 discriminator 1
 3098 12a0 488B8558 		movq	-424(%rbp), %rax
 3098      FEFFFF
 3099 12a7 488D4808 		leaq	8(%rax), %rcx
 3100 12ab 488D8580 		leaq	-384(%rbp), %rax
 3100      FEFFFF
 3101 12b2 BA880000 		movl	$136, %edx
 3101      00
 3102 12b7 4889CE   		movq	%rcx, %rsi
 3103 12ba 4889C7   		movq	%rax, %rdi
 3104              	.LEHB76:
 3105 12bd E8000000 		call	_ZN8UnitTest11TestDetailsC1ERKS0_i
 3105      00
 3106 12c2 E8000000 		call	_ZN8UnitTest11CurrentTest7ResultsEv
 3106      00
 3107 12c7 488B00   		movq	(%rax), %rax
 3108 12ca 488D8D80 		leaq	-384(%rbp), %rcx
 3108      FEFFFF
 3109 12d1 BA000000 		movl	$.LC46, %edx
 3109      00
 3110 12d6 4889CE   		movq	%rcx, %rsi
 3111 12d9 4889C7   		movq	%rax, %rdi
 3112 12dc E8000000 		call	_ZN8UnitTest11TestResults13OnTestFailureERKNS_11TestDetailsEPKc
 3112      00
 3113 12e1 EB41     		jmp	.L159
 3114              	.L158:
 3115              		.loc 4 136 0 discriminator 2
 3116 12e3 488B8558 		movq	-424(%rbp), %rax
 3116      FEFFFF
 3117 12ea 488D4808 		leaq	8(%rax), %rcx
 3118 12ee 488D8580 		leaq	-384(%rbp), %rax
 3118      FEFFFF
 3119 12f5 BA880000 		movl	$136, %edx
 3119      00
 3120 12fa 4889CE   		movq	%rcx, %rsi
 3121 12fd 4889C7   		movq	%rax, %rdi
 3122 1300 E8000000 		call	_ZN8UnitTest11TestDetailsC1ERKS0_i
 3122      00
 3123              		.loc 4 136 0 discriminator 1
 3124 1305 E8000000 		call	_ZN8UnitTest11CurrentTest7ResultsEv
 3124      00
 3125 130a 488B00   		movq	(%rax), %rax
 3126 130d 488D8D80 		leaq	-384(%rbp), %rcx
 3126      FEFFFF
 3127 1314 BA000000 		movl	$.LC47, %edx
 3127      00
 3128 1319 4889CE   		movq	%rcx, %rsi
 3129 131c 4889C7   		movq	%rax, %rdi
 3130 131f E8000000 		call	_ZN8UnitTest11TestResults13OnTestFailureERKNS_11TestDetailsEPKc
 3130      00
 3131              	.LEHE76:
 3132              	.L159:
 3133              	.LEHB77:
 3134 1324 E8000000 		call	__cxa_end_catch
 3134      00
 3135              	.LEHE77:
 3136              	.L166:
 3137              	.LBE64:
 3138              		.loc 4 136 0
 3139 1329 90       		nop
 3140 132a 4881C4A0 		addq	$416, %rsp
 3140      010000
 3141 1331 5B       		popq	%rbx
 3142 1332 415C     		popq	%r12
 3143 1334 5D       		popq	%rbp
 3144              		.cfi_def_cfa 7, 8
 3145 1335 C3       		ret
 3146              		.cfi_endproc
 3147              	.LFE1354:
 3148              		.section	.gcc_except_table
 3149              		.align 4
 3150              	.LLSDA1354:
 3151 01dc FF       		.byte	0xff
 3152 01dd 03       		.byte	0x3
 3153 01de 4D       		.uleb128 .LLSDATT1354-.LLSDATTD1354
 3154              	.LLSDATTD1354:
 3155 01df 01       		.byte	0x1
 3156 01e0 36       		.uleb128 .LLSDACSE1354-.LLSDACSB1354
 3157              	.LLSDACSB1354:
 3158 01e1 58       		.uleb128 .LEHB68-.LFB1354
 3159 01e2 05       		.uleb128 .LEHE68-.LEHB68
 3160 01e3 71       		.uleb128 .L160-.LFB1354
 3161 01e4 07       		.uleb128 0x7
 3162 01e5 AF01     		.uleb128 .LEHB69-.LFB1354
 3163 01e7 05       		.uleb128 .LEHE69-.LEHB69
 3164 01e8 00       		.uleb128 0
 3165 01e9 00       		.uleb128 0
 3166 01ea D601     		.uleb128 .LEHB70-.LFB1354
 3167 01ec 05       		.uleb128 .LEHE70-.LEHB70
 3168 01ed 00       		.uleb128 0
 3169 01ee 00       		.uleb128 0
 3170 01ef E901     		.uleb128 .LEHB71-.LFB1354
 3171 01f1 05       		.uleb128 .LEHE71-.LEHB71
 3172 01f2 00       		.uleb128 0
 3173 01f3 00       		.uleb128 0
 3174 01f4 A702     		.uleb128 .LEHB72-.LFB1354
 3175 01f6 5F       		.uleb128 .LEHE72-.LEHB72
 3176 01f7 A101     		.uleb128 .L161-.LFB1354
 3177 01f9 00       		.uleb128 0
 3178 01fa A903     		.uleb128 .LEHB73-.LFB1354
 3179 01fc 05       		.uleb128 .LEHE73-.LEHB73
 3180 01fd C801     		.uleb128 .L163-.LFB1354
 3181 01ff 00       		.uleb128 0
 3182 0200 DD03     		.uleb128 .LEHB74-.LFB1354
 3183 0202 43       		.uleb128 .LEHE74-.LEHB74
 3184 0203 B401     		.uleb128 .L162-.LFB1354
 3185 0205 00       		.uleb128 0
 3186 0206 AA04     		.uleb128 .LEHB75-.LFB1354
 3187 0208 05       		.uleb128 .LEHE75-.LEHB75
 3188 0209 C801     		.uleb128 .L163-.LFB1354
 3189 020b 00       		.uleb128 0
 3190 020c E704     		.uleb128 .LEHB76-.LFB1354
 3191 020e 67       		.uleb128 .LEHE76-.LEHB76
 3192 020f DB01     		.uleb128 .L164-.LFB1354
 3193 0211 00       		.uleb128 0
 3194 0212 CE05     		.uleb128 .LEHB77-.LFB1354
 3195 0214 05       		.uleb128 .LEHE77-.LEHB77
 3196 0215 00       		.uleb128 0
 3197 0216 00       		.uleb128 0
 3198              	.LLSDACSE1354:
 3199 0217 03       		.byte	0x3
 3200 0218 00       		.byte	0
 3201 0219 02       		.byte	0x2
 3202 021a 7D       		.byte	0x7d
 3203 021b 01       		.byte	0x1
 3204 021c 7D       		.byte	0x7d
 3205 021d 00       		.byte	0
 3206 021e 7D       		.byte	0x7d
 3207 021f 00       		.align 4
 3208 0220 00000000 		.long	0
 3209              	
 3210 0224 00000000 		.long	_ZTISt9exception
 3211 0228 00000000 		.long	_ZTIN8UnitTest15AssertExceptionE
 3212              	.LLSDATT1354:
 3213              		.text
 3215              		.section	.rodata
 3216 04b5 000000   		.align 8
 3217              	.LC48:
 3218 04b8 53696D70 		.string	"SimpleFixture::instanceCount > 0"
 3218      6C654669 
 3218      78747572 
 3218      653A3A69 
 3218      6E737461 
 3219 04d9 00000000 		.align 8
 3219      000000
 3220              	.LC49:
 3221 04e0 556E6861 		.string	"Unhandled exception in CHECK(SimpleFixture::instanceCount > 0)"
 3221      6E646C65 
 3221      64206578 
 3221      63657074 
 3221      696F6E20 
 3222              		.text
 3223              		.align 2
 3225              	_ZN12_GLOBAL__N_145SimpleFixtureDefaultFixtureCtorIsCalledHelper7RunImplEv:
 3226              	.LFB1358:
 137:TestUnitTest++.cpp **** {
 3227              		.loc 4 137 0 is_stmt 1
 3228              		.cfi_startproc
 3229              		.cfi_personality 0x3,__gxx_personality_v0
 3230              		.cfi_lsda 0x3,.LLSDA1358
 3231 1336 55       		pushq	%rbp
 3232              		.cfi_def_cfa_offset 16
 3233              		.cfi_offset 6, -16
 3234 1337 4889E5   		movq	%rsp, %rbp
 3235              		.cfi_def_cfa_register 6
 3236 133a 53       		pushq	%rbx
 3237 133b 4883EC38 		subq	$56, %rsp
 3238              		.cfi_offset 3, -24
 3239 133f 48897DC8 		movq	%rdi, -56(%rbp)
 138:TestUnitTest++.cpp ****     CHECK(SimpleFixture::instanceCount > 0);
 3240              		.loc 4 138 0
 3241 1343 8B050000 		movl	_ZN12_GLOBAL__N_113SimpleFixture13instanceCountE(%rip), %eax
 3241      0000
 3242 1349 85C0     		testl	%eax, %eax
 3243 134b 0F9FC0   		setg	%al
 3244 134e 0FB6C0   		movzbl	%al, %eax
 3245 1351 89C7     		movl	%eax, %edi
 3246 1353 E8000000 		call	_ZN8UnitTest5CheckIbEEbT_
 3246      00
 3247 1358 83F001   		xorl	$1, %eax
 3248 135b 84C0     		testb	%al, %al
 3249 135d 0F849300 		je	.L167
 3249      0000
 3250              	.LEHB78:
 3251              		.loc 4 138 0 is_stmt 0 discriminator 1
 3252 1363 E8000000 		call	_ZN8UnitTest11CurrentTest7DetailsEv
 3252      00
 3253 1368 488B08   		movq	(%rax), %rcx
 3254 136b 488D45D0 		leaq	-48(%rbp), %rax
 3255 136f BA8A0000 		movl	$138, %edx
 3255      00
 3256 1374 4889CE   		movq	%rcx, %rsi
 3257 1377 4889C7   		movq	%rax, %rdi
 3258 137a E8000000 		call	_ZN8UnitTest11TestDetailsC1ERKS0_i
 3258      00
 3259 137f E8000000 		call	_ZN8UnitTest11CurrentTest7ResultsEv
 3259      00
 3260 1384 488B00   		movq	(%rax), %rax
 3261 1387 488D4DD0 		leaq	-48(%rbp), %rcx
 3262 138b BA000000 		movl	$.LC48, %edx
 3262      00
 3263 1390 4889CE   		movq	%rcx, %rsi
 3264 1393 4889C7   		movq	%rax, %rdi
 3265 1396 E8000000 		call	_ZN8UnitTest11TestResults13OnTestFailureERKNS_11TestDetailsEPKc
 3265      00
 3266              	.LEHE78:
 3267 139b EB59     		jmp	.L167
 3268              	.L172:
 3269 139d 4889C3   		movq	%rax, %rbx
 3270              		.loc 4 138 0
 3271 13a0 E8000000 		call	__cxa_end_catch
 3271      00
 3272 13a5 4889D8   		movq	%rbx, %rax
 3273 13a8 4889C7   		movq	%rax, %rdi
 3274              	.LEHB79:
 3275 13ab E8000000 		call	_Unwind_Resume
 3275      00
 3276              	.LEHE79:
 3277              	.L171:
 3278 13b0 4889C7   		movq	%rax, %rdi
 3279 13b3 E8000000 		call	__cxa_begin_catch
 3279      00
 3280              	.LEHB80:
 3281 13b8 E8000000 		call	_ZN8UnitTest11CurrentTest7DetailsEv
 3281      00
 3282 13bd 488B08   		movq	(%rax), %rcx
 3283 13c0 488D45D0 		leaq	-48(%rbp), %rax
 3284 13c4 BA8A0000 		movl	$138, %edx
 3284      00
 3285 13c9 4889CE   		movq	%rcx, %rsi
 3286 13cc 4889C7   		movq	%rax, %rdi
 3287 13cf E8000000 		call	_ZN8UnitTest11TestDetailsC1ERKS0_i
 3287      00
 3288              		.loc 4 138 0 discriminator 1
 3289 13d4 E8000000 		call	_ZN8UnitTest11CurrentTest7ResultsEv
 3289      00
 3290 13d9 488B00   		movq	(%rax), %rax
 3291 13dc 488D4DD0 		leaq	-48(%rbp), %rcx
 3292 13e0 BA000000 		movl	$.LC49, %edx
 3292      00
 3293 13e5 4889CE   		movq	%rcx, %rsi
 3294 13e8 4889C7   		movq	%rax, %rdi
 3295 13eb E8000000 		call	_ZN8UnitTest11TestResults13OnTestFailureERKNS_11TestDetailsEPKc
 3295      00
 3296              	.LEHE80:
 3297              	.LEHB81:
 3298 13f0 E8000000 		call	__cxa_end_catch
 3298      00
 3299              	.LEHE81:
 139:TestUnitTest++.cpp **** }
 3300              		.loc 4 139 0 is_stmt 1 discriminator 1
 3301 13f5 90       		nop
 3302              	.L167:
 3303              		.loc 4 139 0 is_stmt 0
 3304 13f6 4883C438 		addq	$56, %rsp
 3305 13fa 5B       		popq	%rbx
 3306 13fb 5D       		popq	%rbp
 3307              		.cfi_def_cfa 7, 8
 3308 13fc C3       		ret
 3309              		.cfi_endproc
 3310              	.LFE1358:
 3311              		.section	.gcc_except_table
 3312              		.align 4
 3313              	.LLSDA1358:
 3314 022c FF       		.byte	0xff
 3315 022d 03       		.byte	0x3
 3316 022e 1D       		.uleb128 .LLSDATT1358-.LLSDATTD1358
 3317              	.LLSDATTD1358:
 3318 022f 01       		.byte	0x1
 3319 0230 12       		.uleb128 .LLSDACSE1358-.LLSDACSB1358
 3320              	.LLSDACSB1358:
 3321 0231 2D       		.uleb128 .LEHB78-.LFB1358
 3322 0232 38       		.uleb128 .LEHE78-.LEHB78
 3323 0233 7A       		.uleb128 .L171-.LFB1358
 3324 0234 01       		.uleb128 0x1
 3325 0235 75       		.uleb128 .LEHB79-.LFB1358
 3326 0236 05       		.uleb128 .LEHE79-.LEHB79
 3327 0237 00       		.uleb128 0
 3328 0238 00       		.uleb128 0
 3329 0239 8201     		.uleb128 .LEHB80-.LFB1358
 3330 023b 38       		.uleb128 .LEHE80-.LEHB80
 3331 023c 67       		.uleb128 .L172-.LFB1358
 3332 023d 00       		.uleb128 0
 3333 023e BA01     		.uleb128 .LEHB81-.LFB1358
 3334 0240 05       		.uleb128 .LEHE81-.LEHB81
 3335 0241 00       		.uleb128 0
 3336 0242 00       		.uleb128 0
 3337              	.LLSDACSE1358:
 3338 0243 01       		.byte	0x1
 3339 0244 00       		.byte	0
 3340 0245 000000   		.align 4
 3341 0248 00000000 		.long	0
 3342              	
 3343              	.LLSDATT1358:
 3344              		.text
 3346 13fd 90       		.align 2
 3348              	_ZN12_GLOBAL__N_145SimpleFixtureOnlyOneFixtureAliveAtATimeHelperC2ERKN8UnitTest11TestDetailsE:
 3349              	.LFB1360:
 140:TestUnitTest++.cpp **** 
 141:TestUnitTest++.cpp **** TEST_FIXTURE(SimpleFixture, OnlyOneFixtureAliveAtATime)
 3350              		.loc 4 141 0 is_stmt 1
 3351              		.cfi_startproc
 3352 13fe 55       		pushq	%rbp
 3353              		.cfi_def_cfa_offset 16
 3354              		.cfi_offset 6, -16
 3355 13ff 4889E5   		movq	%rsp, %rbp
 3356              		.cfi_def_cfa_register 6
 3357 1402 4883EC10 		subq	$16, %rsp
 3358 1406 48897DF8 		movq	%rdi, -8(%rbp)
 3359 140a 488975F0 		movq	%rsi, -16(%rbp)
 3360              	.LBB65:
 3361              		.loc 4 141 0
 3362 140e 488B45F8 		movq	-8(%rbp), %rax
 3363 1412 4889C7   		movq	%rax, %rdi
 3364 1415 E886FBFF 		call	_ZN12_GLOBAL__N_113SimpleFixtureC2Ev
 3364      FF
 3365 141a 488B45F8 		movq	-8(%rbp), %rax
 3366 141e 488B55F0 		movq	-16(%rbp), %rdx
 3367 1422 488910   		movq	%rdx, (%rax)
 3368              	.LBE65:
 3369 1425 C9       		leave
 3370              		.cfi_def_cfa 7, 8
 3371 1426 C3       		ret
 3372              		.cfi_endproc
 3373              	.LFE1360:
 3375              		.set	_ZN12_GLOBAL__N_145SimpleFixtureOnlyOneFixtureAliveAtATimeHelperC1ERKN8UnitTest11TestDetailsE
 3376              		.section	.rodata
 3377              	.LC50:
 3378 051f 4F6E6C79 		.string	"OnlyOneFixtureAliveAtATime"
 3378      4F6E6546 
 3378      69787475 
 3378      7265416C 
 3378      69766541 
 3379              		.text
 3380 1427 90       		.align 2
 3382              	_ZN12_GLOBAL__N_143TestSimpleFixtureOnlyOneFixtureAliveAtATimeC2Ev:
 3383              	.LFB1363:
 3384              		.loc 4 141 0
 3385              		.cfi_startproc
 3386 1428 55       		pushq	%rbp
 3387              		.cfi_def_cfa_offset 16
 3388              		.cfi_offset 6, -16
 3389 1429 4889E5   		movq	%rsp, %rbp
 3390              		.cfi_def_cfa_register 6
 3391 142c 4883EC10 		subq	$16, %rsp
 3392 1430 48897DF8 		movq	%rdi, -8(%rbp)
 3393              	.LBB66:
 3394              		.loc 4 141 0
 3395 1434 E8000000 		call	_ZN13UnitTestSuite12GetSuiteNameEv
 3395      00
 3396 1439 4889C2   		movq	%rax, %rdx
 3397 143c 488B45F8 		movq	-8(%rbp), %rax
 3398 1440 41B88D00 		movl	$141, %r8d
 3398      0000
 3399 1446 B9000000 		movl	$.LC1, %ecx
 3399      00
 3400 144b BE000000 		movl	$.LC50, %esi
 3400      00
 3401 1450 4889C7   		movq	%rax, %rdi
 3402 1453 E8000000 		call	_ZN8UnitTest4TestC2EPKcS2_S2_i
 3402      00
 3403 1458 488B45F8 		movq	-8(%rbp), %rax
 3404 145c 48C70000 		movq	$_ZTVN12_GLOBAL__N_143TestSimpleFixtureOnlyOneFixtureAliveAtATimeE+16, (%rax)
 3404      000000
 3405              	.LBE66:
 3406 1463 C9       		leave
 3407              		.cfi_def_cfa 7, 8
 3408 1464 C3       		ret
 3409              		.cfi_endproc
 3410              	.LFE1363:
 3412              		.set	_ZN12_GLOBAL__N_143TestSimpleFixtureOnlyOneFixtureAliveAtATimeC1Ev,_ZN12_GLOBAL__N_143TestSim
 3413              		.local	_ZN12_GLOBAL__N_151testSimpleFixtureOnlyOneFixtureAliveAtATimeInstanceE
 3414              		.comm	_ZN12_GLOBAL__N_151testSimpleFixtureOnlyOneFixtureAliveAtATimeInstanceE,56,32
 3415              		.local	_ZN12_GLOBAL__N_144adderSimpleFixtureOnlyOneFixtureAliveAtATimeE
 3416              		.comm	_ZN12_GLOBAL__N_144adderSimpleFixtureOnlyOneFixtureAliveAtATimeE,1,1
 3417 1465 90       		.align 2
 3419              	_ZN12_GLOBAL__N_145SimpleFixtureOnlyOneFixtureAliveAtATimeHelperD2Ev:
 3420              	.LFB1367:
 3421              		.loc 4 141 0
 3422              		.cfi_startproc
 3423 1466 55       		pushq	%rbp
 3424              		.cfi_def_cfa_offset 16
 3425              		.cfi_offset 6, -16
 3426 1467 4889E5   		movq	%rsp, %rbp
 3427              		.cfi_def_cfa_register 6
 3428 146a 4883EC08 		subq	$8, %rsp
 3429 146e 48897DF8 		movq	%rdi, -8(%rbp)
 3430              	.LBB67:
 3431              		.loc 4 141 0
 3432 1472 488B45F8 		movq	-8(%rbp), %rax
 3433 1476 4889C7   		movq	%rax, %rdi
 3434 1479 E83CFBFF 		call	_ZN12_GLOBAL__N_113SimpleFixtureD2Ev
 3434      FF
 3435              	.LBE67:
 3436 147e C9       		leave
 3437              		.cfi_def_cfa 7, 8
 3438 147f C3       		ret
 3439              		.cfi_endproc
 3440              	.LFE1367:
 3442              		.set	_ZN12_GLOBAL__N_145SimpleFixtureOnlyOneFixtureAliveAtATimeHelperD1Ev,_ZN12_GLOBAL__N_145Simpl
 3443              		.align 2
 3445              	_ZNK12_GLOBAL__N_143TestSimpleFixtureOnlyOneFixtureAliveAtATime7RunImplEv:
 3446              	.LFB1365:
 3447              		.loc 4 141 0
 3448              		.cfi_startproc
 3449              		.cfi_personality 0x3,__gxx_personality_v0
 3450              		.cfi_lsda 0x3,.LLSDA1365
 3451 1480 55       		pushq	%rbp
 3452              		.cfi_def_cfa_offset 16
 3453              		.cfi_offset 6, -16
 3454 1481 4889E5   		movq	%rsp, %rbp
 3455              		.cfi_def_cfa_register 6
 3456 1484 4154     		pushq	%r12
 3457 1486 53       		pushq	%rbx
 3458 1487 4881ECA0 		subq	$416, %rsp
 3458      010000
 3459              		.cfi_offset 12, -24
 3460              		.cfi_offset 3, -32
 3461 148e 4889BD58 		movq	%rdi, -424(%rbp)
 3461      FEFFFF
 3462              	.LBB68:
 3463              		.loc 4 141 0
 3464 1495 C6856FFE 		movb	$0, -401(%rbp)
 3464      FFFF00
 3465              	.LBB69:
 3466 149c 488B8558 		movq	-424(%rbp), %rax
 3466      FEFFFF
 3467 14a3 488D5008 		leaq	8(%rax), %rdx
 3468 14a7 488D8580 		leaq	-384(%rbp), %rax
 3468      FEFFFF
 3469 14ae 4889D6   		movq	%rdx, %rsi
 3470 14b1 4889C7   		movq	%rax, %rdi
 3471 14b4 E845FFFF 		call	_ZN12_GLOBAL__N_145SimpleFixtureOnlyOneFixtureAliveAtATimeHelperC1ERKN8UnitTest11TestDetailsE
 3471      FF
 3472 14b9 C6856FFE 		movb	$1, -401(%rbp)
 3472      FFFF01
 3473 14c0 488B8558 		movq	-424(%rbp), %rax
 3473      FEFFFF
 3474 14c7 488D5008 		leaq	8(%rax), %rdx
 3475 14cb 488D8580 		leaq	-384(%rbp), %rax
 3475      FEFFFF
 3476 14d2 4889D6   		movq	%rdx, %rsi
 3477 14d5 4889C7   		movq	%rax, %rdi
 3478              	.LEHB82:
 3479 14d8 E8E10600 		call	_ZN8UnitTest11ExecuteTestIN12_GLOBAL__N_145SimpleFixtureOnlyOneFixtureAliveAtATimeHelperEEEvR
 3479      00
 3480              	.LEHE82:
 3481              		.loc 4 141 0 is_stmt 0 discriminator 1
 3482 14dd 488D8580 		leaq	-384(%rbp), %rax
 3482      FEFFFF
 3483 14e4 4889C7   		movq	%rax, %rdi
 3484 14e7 E87AFFFF 		call	_ZN12_GLOBAL__N_145SimpleFixtureOnlyOneFixtureAliveAtATimeHelperD1Ev
 3484      FF
 3485              	.LBE69:
 3486              	.LBE68:
 3487 14ec E9620200 		jmp	.L195
 3487      00
 3488              	.L189:
 3489 14f1 4989C4   		movq	%rax, %r12
 3490 14f4 4889D3   		movq	%rdx, %rbx
 3491              	.LBB77:
 3492              	.LBB70:
 3493              		.loc 4 141 0
 3494 14f7 488D8580 		leaq	-384(%rbp), %rax
 3494      FEFFFF
 3495 14fe 4889C7   		movq	%rax, %rdi
 3496 1501 E860FFFF 		call	_ZN12_GLOBAL__N_145SimpleFixtureOnlyOneFixtureAliveAtATimeHelperD1Ev
 3496      FF
 3497 1506 4C89E0   		movq	%r12, %rax
 3498 1509 4889DA   		movq	%rbx, %rdx
 3499 150c 4883FA01 		cmpq	$1, %rdx
 3500 1510 745C     		je	.L180
 3501 1512 4883FA02 		cmpq	$2, %rdx
 3502 1516 0F84F400 		je	.L181
 3502      0000
 3503 151c E9980100 		jmp	.L194
 3503      00
 3504              	.L190:
 3505 1521 4889C3   		movq	%rax, %rbx
 3506              	.LBE70:
 3507              	.LBB71:
 3508 1524 E8000000 		call	__cxa_end_catch
 3508      00
 3509 1529 4889D8   		movq	%rbx, %rax
 3510 152c 4889C7   		movq	%rax, %rdi
 3511              	.LEHB83:
 3512 152f E8000000 		call	_Unwind_Resume
 3512      00
 3513              	.LEHE83:
 3514              	.L191:
 3515 1534 4889C3   		movq	%rax, %rbx
 3516              	.LBE71:
 3517              	.LBB72:
 3518              	.LBB73:
 3519 1537 488D8580 		leaq	-384(%rbp), %rax
 3519      FEFFFF
 3520 153e 4889C7   		movq	%rax, %rdi
 3521 1541 E8000000 		call	_ZN8UnitTest15MemoryOutStreamD1Ev
 3521      00
 3522 1546 EB03     		jmp	.L184
 3523              	.L192:
 3524 1548 4889C3   		movq	%rax, %rbx
 3525              	.L184:
 3526              	.LBE73:
 3527 154b E8000000 		call	__cxa_end_catch
 3527      00
 3528 1550 4889D8   		movq	%rbx, %rax
 3529 1553 4889C7   		movq	%rax, %rdi
 3530              	.LEHB84:
 3531 1556 E8000000 		call	_Unwind_Resume
 3531      00
 3532              	.LEHE84:
 3533              	.L193:
 3534 155b 4889C3   		movq	%rax, %rbx
 3535              	.LBE72:
 3536 155e E8000000 		call	__cxa_end_catch
 3536      00
 3537 1563 4889D8   		movq	%rbx, %rax
 3538 1566 4889C7   		movq	%rax, %rdi
 3539              	.LEHB85:
 3540 1569 E8000000 		call	_Unwind_Resume
 3540      00
 3541              	.LEHE85:
 3542              	.L180:
 3543              	.LBB75:
 3544 156e 4889C7   		movq	%rax, %rdi
 3545 1571 E8000000 		call	__cxa_begin_catch
 3545      00
 3546 1576 48898570 		movq	%rax, -400(%rbp)
 3546      FEFFFF
 3547 157d 488B8570 		movq	-400(%rbp), %rax
 3547      FEFFFF
 3548 1584 488B00   		movq	(%rax), %rax
 3549 1587 4883C010 		addq	$16, %rax
 3550 158b 488B00   		movq	(%rax), %rax
 3551 158e 488B9570 		movq	-400(%rbp), %rdx
 3551      FEFFFF
 3552 1595 4889D7   		movq	%rdx, %rdi
 3553 1598 FFD0     		call	*%rax
 3554 159a 4889C3   		movq	%rax, %rbx
 3555 159d 488B8570 		movq	-400(%rbp), %rax
 3555      FEFFFF
 3556 15a4 4889C7   		movq	%rax, %rdi
 3557              	.LEHB86:
 3558 15a7 E8000000 		call	_ZNK8UnitTest15AssertException10LineNumberEv
 3558      00
 3559 15ac 4189C4   		movl	%eax, %r12d
 3560 15af 488B8570 		movq	-400(%rbp), %rax
 3560      FEFFFF
 3561 15b6 4889C7   		movq	%rax, %rdi
 3562 15b9 E8000000 		call	_ZNK8UnitTest15AssertException8FilenameEv
 3562      00
 3563              		.loc 4 141 0 discriminator 1
 3564 15be 4889C1   		movq	%rax, %rcx
 3565 15c1 488B8558 		movq	-424(%rbp), %rax
 3565      FEFFFF
 3566 15c8 488B5008 		movq	8(%rax), %rdx
 3567 15cc 488B8558 		movq	-424(%rbp), %rax
 3567      FEFFFF
 3568 15d3 488B7010 		movq	16(%rax), %rsi
 3569 15d7 488D8580 		leaq	-384(%rbp), %rax
 3569      FEFFFF
 3570 15de 4589E0   		movl	%r12d, %r8d
 3571 15e1 4889C7   		movq	%rax, %rdi
 3572 15e4 E8000000 		call	_ZN8UnitTest11TestDetailsC1EPKcS2_S2_i
 3572      00
 3573              		.loc 4 141 0 discriminator 3
 3574 15e9 E8000000 		call	_ZN8UnitTest11CurrentTest7ResultsEv
 3574      00
 3575 15ee 488B00   		movq	(%rax), %rax
 3576 15f1 488D8D80 		leaq	-384(%rbp), %rcx
 3576      FEFFFF
 3577 15f8 4889DA   		movq	%rbx, %rdx
 3578 15fb 4889CE   		movq	%rcx, %rsi
 3579 15fe 4889C7   		movq	%rax, %rdi
 3580 1601 E8000000 		call	_ZN8UnitTest11TestResults13OnTestFailureERKNS_11TestDetailsEPKc
 3580      00
 3581              	.LEHE86:
 3582              		.loc 4 141 0 discriminator 1
 3583 1606 E8000000 		call	__cxa_end_catch
 3583      00
 3584              	.LBE75:
 3585              	.LBE77:
 3586 160b E9430100 		jmp	.L195
 3586      00
 3587              	.L181:
 3588              	.LBB78:
 3589              	.LBB76:
 3590              		.loc 4 141 0
 3591 1610 4889C7   		movq	%rax, %rdi
 3592 1613 E8000000 		call	__cxa_begin_catch
 3592      00
 3593 1618 48898578 		movq	%rax, -392(%rbp)
 3593      FEFFFF
 3594              	.LBB74:
 3595 161f 488D8580 		leaq	-384(%rbp), %rax
 3595      FEFFFF
 3596 1626 4889C7   		movq	%rax, %rdi
 3597              	.LEHB87:
 3598 1629 E8000000 		call	_ZN8UnitTest15MemoryOutStreamC1Ev
 3598      00
 3599              	.LEHE87:
 3600              		.loc 4 141 0 discriminator 1
 3601 162e 488B8578 		movq	-392(%rbp), %rax
 3601      FEFFFF
 3602 1635 488B00   		movq	(%rax), %rax
 3603 1638 4883C010 		addq	$16, %rax
 3604 163c 488B00   		movq	(%rax), %rax
 3605 163f 488B9578 		movq	-392(%rbp), %rdx
 3605      FEFFFF
 3606 1646 4889D7   		movq	%rdx, %rdi
 3607 1649 FFD0     		call	*%rax
 3608 164b 4889C3   		movq	%rax, %rbx
 3609 164e 488D8580 		leaq	-384(%rbp), %rax
 3609      FEFFFF
 3610 1655 BE000000 		movl	$.LC45, %esi
 3610      00
 3611 165a 4889C7   		movq	%rax, %rdi
 3612              	.LEHB88:
 3613 165d E8000000 		call	_ZStlsISt11char_traitsIcEERSt13basic_ostreamIcT_ES5_PKc
 3613      00
 3614 1662 4889DE   		movq	%rbx, %rsi
 3615 1665 4889C7   		movq	%rax, %rdi
 3616 1668 E8000000 		call	_ZStlsISt11char_traitsIcEERSt13basic_ostreamIcT_ES5_PKc
 3616      00
 3617 166d 488D8580 		leaq	-384(%rbp), %rax
 3617      FEFFFF
 3618 1674 4889C7   		movq	%rax, %rdi
 3619 1677 E8000000 		call	_ZNK8UnitTest15MemoryOutStream7GetTextEv
 3619      00
 3620 167c 4889C3   		movq	%rax, %rbx
 3621 167f 488B8558 		movq	-424(%rbp), %rax
 3621      FEFFFF
 3622 1686 4C8D6008 		leaq	8(%rax), %r12
 3623 168a E8000000 		call	_ZN8UnitTest11CurrentTest7ResultsEv
 3623      00
 3624 168f 488B00   		movq	(%rax), %rax
 3625 1692 4889DA   		movq	%rbx, %rdx
 3626 1695 4C89E6   		movq	%r12, %rsi
 3627 1698 4889C7   		movq	%rax, %rdi
 3628 169b E8000000 		call	_ZN8UnitTest11TestResults13OnTestFailureERKNS_11TestDetailsEPKc
 3628      00
 3629              	.LEHE88:
 3630 16a0 488D8580 		leaq	-384(%rbp), %rax
 3630      FEFFFF
 3631 16a7 4889C7   		movq	%rax, %rdi
 3632              	.LEHB89:
 3633 16aa E8000000 		call	_ZN8UnitTest15MemoryOutStreamD1Ev
 3633      00
 3634              	.LEHE89:
 3635              	.LBE74:
 3636              		.loc 4 141 0
 3637 16af E8000000 		call	__cxa_end_catch
 3637      00
 3638              	.LBE76:
 3639              	.LBE78:
 3640 16b4 E99A0000 		jmp	.L195
 3640      00
 3641              	.L194:
 3642              	.LBB79:
 3643 16b9 4889C7   		movq	%rax, %rdi
 3644 16bc E8000000 		call	__cxa_begin_catch
 3644      00
 3645 16c1 80BD6FFE 		cmpb	$0, -401(%rbp)
 3645      FFFF00
 3646 16c8 7443     		je	.L187
 3647              		.loc 4 141 0 discriminator 1
 3648 16ca 488B8558 		movq	-424(%rbp), %rax
 3648      FEFFFF
 3649 16d1 488D4808 		leaq	8(%rax), %rcx
 3650 16d5 488D8580 		leaq	-384(%rbp), %rax
 3650      FEFFFF
 3651 16dc BA8D0000 		movl	$141, %edx
 3651      00
 3652 16e1 4889CE   		movq	%rcx, %rsi
 3653 16e4 4889C7   		movq	%rax, %rdi
 3654              	.LEHB90:
 3655 16e7 E8000000 		call	_ZN8UnitTest11TestDetailsC1ERKS0_i
 3655      00
 3656 16ec E8000000 		call	_ZN8UnitTest11CurrentTest7ResultsEv
 3656      00
 3657 16f1 488B00   		movq	(%rax), %rax
 3658 16f4 488D8D80 		leaq	-384(%rbp), %rcx
 3658      FEFFFF
 3659 16fb BA000000 		movl	$.LC46, %edx
 3659      00
 3660 1700 4889CE   		movq	%rcx, %rsi
 3661 1703 4889C7   		movq	%rax, %rdi
 3662 1706 E8000000 		call	_ZN8UnitTest11TestResults13OnTestFailureERKNS_11TestDetailsEPKc
 3662      00
 3663 170b EB41     		jmp	.L188
 3664              	.L187:
 3665              		.loc 4 141 0 discriminator 2
 3666 170d 488B8558 		movq	-424(%rbp), %rax
 3666      FEFFFF
 3667 1714 488D4808 		leaq	8(%rax), %rcx
 3668 1718 488D8580 		leaq	-384(%rbp), %rax
 3668      FEFFFF
 3669 171f BA8D0000 		movl	$141, %edx
 3669      00
 3670 1724 4889CE   		movq	%rcx, %rsi
 3671 1727 4889C7   		movq	%rax, %rdi
 3672 172a E8000000 		call	_ZN8UnitTest11TestDetailsC1ERKS0_i
 3672      00
 3673              		.loc 4 141 0 discriminator 1
 3674 172f E8000000 		call	_ZN8UnitTest11CurrentTest7ResultsEv
 3674      00
 3675 1734 488B00   		movq	(%rax), %rax
 3676 1737 488D8D80 		leaq	-384(%rbp), %rcx
 3676      FEFFFF
 3677 173e BA000000 		movl	$.LC47, %edx
 3677      00
 3678 1743 4889CE   		movq	%rcx, %rsi
 3679 1746 4889C7   		movq	%rax, %rdi
 3680 1749 E8000000 		call	_ZN8UnitTest11TestResults13OnTestFailureERKNS_11TestDetailsEPKc
 3680      00
 3681              	.LEHE90:
 3682              	.L188:
 3683              	.LEHB91:
 3684 174e E8000000 		call	__cxa_end_catch
 3684      00
 3685              	.LEHE91:
 3686              	.L195:
 3687              	.LBE79:
 3688              		.loc 4 141 0
 3689 1753 90       		nop
 3690 1754 4881C4A0 		addq	$416, %rsp
 3690      010000
 3691 175b 5B       		popq	%rbx
 3692 175c 415C     		popq	%r12
 3693 175e 5D       		popq	%rbp
 3694              		.cfi_def_cfa 7, 8
 3695 175f C3       		ret
 3696              		.cfi_endproc
 3697              	.LFE1365:
 3698              		.section	.gcc_except_table
 3699              		.align 4
 3700              	.LLSDA1365:
 3701 024c FF       		.byte	0xff
 3702 024d 03       		.byte	0x3
 3703 024e 4D       		.uleb128 .LLSDATT1365-.LLSDATTD1365
 3704              	.LLSDATTD1365:
 3705 024f 01       		.byte	0x1
 3706 0250 36       		.uleb128 .LLSDACSE1365-.LLSDACSB1365
 3707              	.LLSDACSB1365:
 3708 0251 58       		.uleb128 .LEHB82-.LFB1365
 3709 0252 05       		.uleb128 .LEHE82-.LEHB82
 3710 0253 71       		.uleb128 .L189-.LFB1365
 3711 0254 07       		.uleb128 0x7
 3712 0255 AF01     		.uleb128 .LEHB83-.LFB1365
 3713 0257 05       		.uleb128 .LEHE83-.LEHB83
 3714 0258 00       		.uleb128 0
 3715 0259 00       		.uleb128 0
 3716 025a D601     		.uleb128 .LEHB84-.LFB1365
 3717 025c 05       		.uleb128 .LEHE84-.LEHB84
 3718 025d 00       		.uleb128 0
 3719 025e 00       		.uleb128 0
 3720 025f E901     		.uleb128 .LEHB85-.LFB1365
 3721 0261 05       		.uleb128 .LEHE85-.LEHB85
 3722 0262 00       		.uleb128 0
 3723 0263 00       		.uleb128 0
 3724 0264 A702     		.uleb128 .LEHB86-.LFB1365
 3725 0266 5F       		.uleb128 .LEHE86-.LEHB86
 3726 0267 A101     		.uleb128 .L190-.LFB1365
 3727 0269 00       		.uleb128 0
 3728 026a A903     		.uleb128 .LEHB87-.LFB1365
 3729 026c 05       		.uleb128 .LEHE87-.LEHB87
 3730 026d C801     		.uleb128 .L192-.LFB1365
 3731 026f 00       		.uleb128 0
 3732 0270 DD03     		.uleb128 .LEHB88-.LFB1365
 3733 0272 43       		.uleb128 .LEHE88-.LEHB88
 3734 0273 B401     		.uleb128 .L191-.LFB1365
 3735 0275 00       		.uleb128 0
 3736 0276 AA04     		.uleb128 .LEHB89-.LFB1365
 3737 0278 05       		.uleb128 .LEHE89-.LEHB89
 3738 0279 C801     		.uleb128 .L192-.LFB1365
 3739 027b 00       		.uleb128 0
 3740 027c E704     		.uleb128 .LEHB90-.LFB1365
 3741 027e 67       		.uleb128 .LEHE90-.LEHB90
 3742 027f DB01     		.uleb128 .L193-.LFB1365
 3743 0281 00       		.uleb128 0
 3744 0282 CE05     		.uleb128 .LEHB91-.LFB1365
 3745 0284 05       		.uleb128 .LEHE91-.LEHB91
 3746 0285 00       		.uleb128 0
 3747 0286 00       		.uleb128 0
 3748              	.LLSDACSE1365:
 3749 0287 03       		.byte	0x3
 3750 0288 00       		.byte	0
 3751 0289 02       		.byte	0x2
 3752 028a 7D       		.byte	0x7d
 3753 028b 01       		.byte	0x1
 3754 028c 7D       		.byte	0x7d
 3755 028d 00       		.byte	0
 3756 028e 7D       		.byte	0x7d
 3757 028f 00       		.align 4
 3758 0290 00000000 		.long	0
 3759              	
 3760 0294 00000000 		.long	_ZTISt9exception
 3761 0298 00000000 		.long	_ZTIN8UnitTest15AssertExceptionE
 3762              	.LLSDATT1365:
 3763              		.text
 3765              		.section	.rodata
 3766 053a 00000000 		.align 8
 3766      0000
 3767              	.LC51:
 3768 0540 556E6861 		.string	"Unhandled exception in CHECK_EQUAL(1, SimpleFixture::instanceCount)"
 3768      6E646C65 
 3768      64206578 
 3768      63657074 
 3768      696F6E20 
 3769              		.text
 3770              		.align 2
 3772              	_ZN12_GLOBAL__N_145SimpleFixtureOnlyOneFixtureAliveAtATimeHelper7RunImplEv:
 3773              	.LFB1369:
 142:TestUnitTest++.cpp **** {
 3774              		.loc 4 142 0 is_stmt 1
 3775              		.cfi_startproc
 3776              		.cfi_personality 0x3,__gxx_personality_v0
 3777              		.cfi_lsda 0x3,.LLSDA1369
 3778 1760 55       		pushq	%rbp
 3779              		.cfi_def_cfa_offset 16
 3780              		.cfi_offset 6, -16
 3781 1761 4889E5   		movq	%rsp, %rbp
 3782              		.cfi_def_cfa_register 6
 3783 1764 53       		pushq	%rbx
 3784 1765 4883EC48 		subq	$72, %rsp
 3785              		.cfi_offset 3, -24
 3786 1769 48897DB8 		movq	%rdi, -72(%rbp)
 3787              	.LEHB92:
 143:TestUnitTest++.cpp ****     CHECK_EQUAL(1, SimpleFixture::instanceCount);
 3788              		.loc 4 143 0
 3789 176d E8000000 		call	_ZN8UnitTest11CurrentTest7DetailsEv
 3789      00
 3790 1772 488B08   		movq	(%rax), %rcx
 3791 1775 488D45D0 		leaq	-48(%rbp), %rax
 3792 1779 BA8F0000 		movl	$143, %edx
 3792      00
 3793 177e 4889CE   		movq	%rcx, %rsi
 3794 1781 4889C7   		movq	%rax, %rdi
 3795 1784 E8000000 		call	_ZN8UnitTest11TestDetailsC1ERKS0_i
 3795      00
 3796              		.loc 4 143 0 is_stmt 0 discriminator 1
 3797 1789 C745CC01 		movl	$1, -52(%rbp)
 3797      000000
 3798 1790 E8000000 		call	_ZN8UnitTest11CurrentTest7ResultsEv
 3798      00
 3799 1795 488B00   		movq	(%rax), %rax
 3800 1798 488D55D0 		leaq	-48(%rbp), %rdx
 3801 179c 488D75CC 		leaq	-52(%rbp), %rsi
 3802 17a0 4889D1   		movq	%rdx, %rcx
 3803 17a3 BA000000 		movl	$_ZN12_GLOBAL__N_113SimpleFixture13instanceCountE, %edx
 3803      00
 3804 17a8 4889C7   		movq	%rax, %rdi
 3805 17ab E8000000 		call	_ZN8UnitTest10CheckEqualIiiEEvRNS_11TestResultsERKT_RKT0_RKNS_11TestDetailsE
 3805      00
 3806              	.LEHE92:
 144:TestUnitTest++.cpp **** }
 3807              		.loc 4 144 0 is_stmt 1
 3808 17b0 EB58     		jmp	.L202
 3809              	.L201:
 3810 17b2 4889C3   		movq	%rax, %rbx
 143:TestUnitTest++.cpp ****     CHECK_EQUAL(1, SimpleFixture::instanceCount);
 3811              		.loc 4 143 0
 3812 17b5 E8000000 		call	__cxa_end_catch
 3812      00
 3813 17ba 4889D8   		movq	%rbx, %rax
 3814 17bd 4889C7   		movq	%rax, %rdi
 3815              	.LEHB93:
 3816 17c0 E8000000 		call	_Unwind_Resume
 3816      00
 3817              	.LEHE93:
 3818              	.L200:
 3819 17c5 4889C7   		movq	%rax, %rdi
 3820 17c8 E8000000 		call	__cxa_begin_catch
 3820      00
 3821              	.LEHB94:
 3822 17cd E8000000 		call	_ZN8UnitTest11CurrentTest7DetailsEv
 3822      00
 3823 17d2 488B08   		movq	(%rax), %rcx
 3824 17d5 488D45D0 		leaq	-48(%rbp), %rax
 3825 17d9 BA8F0000 		movl	$143, %edx
 3825      00
 3826 17de 4889CE   		movq	%rcx, %rsi
 3827 17e1 4889C7   		movq	%rax, %rdi
 3828 17e4 E8000000 		call	_ZN8UnitTest11TestDetailsC1ERKS0_i
 3828      00
 143:TestUnitTest++.cpp ****     CHECK_EQUAL(1, SimpleFixture::instanceCount);
 3829              		.loc 4 143 0 is_stmt 0 discriminator 1
 3830 17e9 E8000000 		call	_ZN8UnitTest11CurrentTest7ResultsEv
 3830      00
 3831 17ee 488B00   		movq	(%rax), %rax
 3832 17f1 488D4DD0 		leaq	-48(%rbp), %rcx
 3833 17f5 BA000000 		movl	$.LC51, %edx
 3833      00
 3834 17fa 4889CE   		movq	%rcx, %rsi
 3835 17fd 4889C7   		movq	%rax, %rdi
 3836 1800 E8000000 		call	_ZN8UnitTest11TestResults13OnTestFailureERKNS_11TestDetailsEPKc
 3836      00
 3837              	.LEHE94:
 3838              	.LEHB95:
 3839 1805 E8000000 		call	__cxa_end_catch
 3839      00
 3840              	.LEHE95:
 3841              	.L202:
 3842              		.loc 4 144 0 is_stmt 1
 3843 180a 90       		nop
 3844 180b 4883C448 		addq	$72, %rsp
 3845 180f 5B       		popq	%rbx
 3846 1810 5D       		popq	%rbp
 3847              		.cfi_def_cfa 7, 8
 3848 1811 C3       		ret
 3849              		.cfi_endproc
 3850              	.LFE1369:
 3851              		.section	.gcc_except_table
 3852              		.align 4
 3853              	.LLSDA1369:
 3854 029c FF       		.byte	0xff
 3855 029d 03       		.byte	0x3
 3856 029e 19       		.uleb128 .LLSDATT1369-.LLSDATTD1369
 3857              	.LLSDATTD1369:
 3858 029f 01       		.byte	0x1
 3859 02a0 11       		.uleb128 .LLSDACSE1369-.LLSDACSB1369
 3860              	.LLSDACSB1369:
 3861 02a1 0D       		.uleb128 .LEHB92-.LFB1369
 3862 02a2 43       		.uleb128 .LEHE92-.LEHB92
 3863 02a3 65       		.uleb128 .L200-.LFB1369
 3864 02a4 01       		.uleb128 0x1
 3865 02a5 60       		.uleb128 .LEHB93-.LFB1369
 3866 02a6 05       		.uleb128 .LEHE93-.LEHB93
 3867 02a7 00       		.uleb128 0
 3868 02a8 00       		.uleb128 0
 3869 02a9 6D       		.uleb128 .LEHB94-.LFB1369
 3870 02aa 38       		.uleb128 .LEHE94-.LEHB94
 3871 02ab 52       		.uleb128 .L201-.LFB1369
 3872 02ac 00       		.uleb128 0
 3873 02ad A501     		.uleb128 .LEHB95-.LFB1369
 3874 02af 05       		.uleb128 .LEHE95-.LEHB95
 3875 02b0 00       		.uleb128 0
 3876 02b1 00       		.uleb128 0
 3877              	.LLSDACSE1369:
 3878 02b2 01       		.byte	0x1
 3879 02b3 00       		.byte	0
 3880              		.align 4
 3881 02b4 00000000 		.long	0
 3882              	
 3883              	.LLSDATT1369:
 3884              		.text
 3887              	_ZN12_GLOBAL__N_19CheckBoolEb:
 3888              	.LFB1370:
 145:TestUnitTest++.cpp **** 
 146:TestUnitTest++.cpp **** void CheckBool(const bool b)
 147:TestUnitTest++.cpp **** {
 3889              		.loc 4 147 0
 3890              		.cfi_startproc
 3891              		.cfi_personality 0x3,__gxx_personality_v0
 3892              		.cfi_lsda 0x3,.LLSDA1370
 3893 1812 55       		pushq	%rbp
 3894              		.cfi_def_cfa_offset 16
 3895              		.cfi_offset 6, -16
 3896 1813 4889E5   		movq	%rsp, %rbp
 3897              		.cfi_def_cfa_register 6
 3898 1816 53       		pushq	%rbx
 3899 1817 4883EC38 		subq	$56, %rsp
 3900              		.cfi_offset 3, -24
 3901 181b 89F8     		movl	%edi, %eax
 3902 181d 8845CC   		movb	%al, -52(%rbp)
 148:TestUnitTest++.cpp **** 	CHECK(b);
 3903              		.loc 4 148 0
 3904 1820 0FB645CC 		movzbl	-52(%rbp), %eax
 3905 1824 89C7     		movl	%eax, %edi
 3906 1826 E8000000 		call	_ZN8UnitTest5CheckIbEEbT_
 3906      00
 3907 182b 83F001   		xorl	$1, %eax
 3908 182e 84C0     		testb	%al, %al
 3909 1830 0F849300 		je	.L203
 3909      0000
 3910              	.LEHB96:
 3911              		.loc 4 148 0 is_stmt 0 discriminator 1
 3912 1836 E8000000 		call	_ZN8UnitTest11CurrentTest7DetailsEv
 3912      00
 3913 183b 488B08   		movq	(%rax), %rcx
 3914 183e 488D45D0 		leaq	-48(%rbp), %rax
 3915 1842 BA940000 		movl	$148, %edx
 3915      00
 3916 1847 4889CE   		movq	%rcx, %rsi
 3917 184a 4889C7   		movq	%rax, %rdi
 3918 184d E8000000 		call	_ZN8UnitTest11TestDetailsC1ERKS0_i
 3918      00
 3919 1852 E8000000 		call	_ZN8UnitTest11CurrentTest7ResultsEv
 3919      00
 3920 1857 488B00   		movq	(%rax), %rax
 3921 185a 488D4DD0 		leaq	-48(%rbp), %rcx
 3922 185e BA000000 		movl	$.LC3, %edx
 3922      00
 3923 1863 4889CE   		movq	%rcx, %rsi
 3924 1866 4889C7   		movq	%rax, %rdi
 3925 1869 E8000000 		call	_ZN8UnitTest11TestResults13OnTestFailureERKNS_11TestDetailsEPKc
 3925      00
 3926              	.LEHE96:
 3927 186e EB59     		jmp	.L203
 3928              	.L208:
 3929 1870 4889C3   		movq	%rax, %rbx
 3930              		.loc 4 148 0
 3931 1873 E8000000 		call	__cxa_end_catch
 3931      00
 3932 1878 4889D8   		movq	%rbx, %rax
 3933 187b 4889C7   		movq	%rax, %rdi
 3934              	.LEHB97:
 3935 187e E8000000 		call	_Unwind_Resume
 3935      00
 3936              	.LEHE97:
 3937              	.L207:
 3938 1883 4889C7   		movq	%rax, %rdi
 3939 1886 E8000000 		call	__cxa_begin_catch
 3939      00
 3940              	.LEHB98:
 3941 188b E8000000 		call	_ZN8UnitTest11CurrentTest7DetailsEv
 3941      00
 3942 1890 488B08   		movq	(%rax), %rcx
 3943 1893 488D45D0 		leaq	-48(%rbp), %rax
 3944 1897 BA940000 		movl	$148, %edx
 3944      00
 3945 189c 4889CE   		movq	%rcx, %rsi
 3946 189f 4889C7   		movq	%rax, %rdi
 3947 18a2 E8000000 		call	_ZN8UnitTest11TestDetailsC1ERKS0_i
 3947      00
 3948              		.loc 4 148 0 discriminator 1
 3949 18a7 E8000000 		call	_ZN8UnitTest11CurrentTest7ResultsEv
 3949      00
 3950 18ac 488B00   		movq	(%rax), %rax
 3951 18af 488D4DD0 		leaq	-48(%rbp), %rcx
 3952 18b3 BA000000 		movl	$.LC4, %edx
 3952      00
 3953 18b8 4889CE   		movq	%rcx, %rsi
 3954 18bb 4889C7   		movq	%rax, %rdi
 3955 18be E8000000 		call	_ZN8UnitTest11TestResults13OnTestFailureERKNS_11TestDetailsEPKc
 3955      00
 3956              	.LEHE98:
 3957              	.LEHB99:
 3958 18c3 E8000000 		call	__cxa_end_catch
 3958      00
 3959              	.LEHE99:
 149:TestUnitTest++.cpp **** }
 3960              		.loc 4 149 0 is_stmt 1 discriminator 1
 3961 18c8 90       		nop
 3962              	.L203:
 3963              		.loc 4 149 0 is_stmt 0
 3964 18c9 4883C438 		addq	$56, %rsp
 3965 18cd 5B       		popq	%rbx
 3966 18ce 5D       		popq	%rbp
 3967              		.cfi_def_cfa 7, 8
 3968 18cf C3       		ret
 3969              		.cfi_endproc
 3970              	.LFE1370:
 3971              		.section	.gcc_except_table
 3972              		.align 4
 3973              	.LLSDA1370:
 3974 02b8 FF       		.byte	0xff
 3975 02b9 03       		.byte	0x3
 3976 02ba 19       		.uleb128 .LLSDATT1370-.LLSDATTD1370
 3977              	.LLSDATTD1370:
 3978 02bb 01       		.byte	0x1
 3979 02bc 11       		.uleb128 .LLSDACSE1370-.LLSDACSB1370
 3980              	.LLSDACSB1370:
 3981 02bd 24       		.uleb128 .LEHB96-.LFB1370
 3982 02be 38       		.uleb128 .LEHE96-.LEHB96
 3983 02bf 71       		.uleb128 .L207-.LFB1370
 3984 02c0 01       		.uleb128 0x1
 3985 02c1 6C       		.uleb128 .LEHB97-.LFB1370
 3986 02c2 05       		.uleb128 .LEHE97-.LEHB97
 3987 02c3 00       		.uleb128 0
 3988 02c4 00       		.uleb128 0
 3989 02c5 79       		.uleb128 .LEHB98-.LFB1370
 3990 02c6 38       		.uleb128 .LEHE98-.LEHB98
 3991 02c7 5E       		.uleb128 .L208-.LFB1370
 3992 02c8 00       		.uleb128 0
 3993 02c9 B101     		.uleb128 .LEHB99-.LFB1370
 3994 02cb 05       		.uleb128 .LEHE99-.LEHB99
 3995 02cc 00       		.uleb128 0
 3996 02cd 00       		.uleb128 0
 3997              	.LLSDACSE1370:
 3998 02ce 01       		.byte	0x1
 3999 02cf 00       		.byte	0
 4000              		.align 4
 4001 02d0 00000000 		.long	0
 4002              	
 4003              	.LLSDATT1370:
 4004              		.text
 4006              		.section	.rodata
 4007 0584 00000000 		.align 8
 4008              	.LC52:
 4009 0588 43616E43 		.string	"CanCallCHECKOutsideOfTestFunction"
 4009      616C6C43 
 4009      4845434B 
 4009      4F757473 
 4009      6964654F 
 4010              		.text
 4011              		.align 2
 4013              	_ZN12_GLOBAL__N_137TestCanCallCHECKOutsideOfTestFunctionC2Ev:
 4014              	.LFB1372:
 150:TestUnitTest++.cpp **** 
 151:TestUnitTest++.cpp **** TEST(CanCallCHECKOutsideOfTestFunction)
 4015              		.loc 4 151 0 is_stmt 1
 4016              		.cfi_startproc
 4017 18d0 55       		pushq	%rbp
 4018              		.cfi_def_cfa_offset 16
 4019              		.cfi_offset 6, -16
 4020 18d1 4889E5   		movq	%rsp, %rbp
 4021              		.cfi_def_cfa_register 6
 4022 18d4 4883EC10 		subq	$16, %rsp
 4023 18d8 48897DF8 		movq	%rdi, -8(%rbp)
 4024              	.LBB80:
 4025              		.loc 4 151 0
 4026 18dc E8000000 		call	_ZN13UnitTestSuite12GetSuiteNameEv
 4026      00
 4027 18e1 4889C2   		movq	%rax, %rdx
 4028 18e4 488B45F8 		movq	-8(%rbp), %rax
 4029 18e8 41B89700 		movl	$151, %r8d
 4029      0000
 4030 18ee B9000000 		movl	$.LC1, %ecx
 4030      00
 4031 18f3 BE000000 		movl	$.LC52, %esi
 4031      00
 4032 18f8 4889C7   		movq	%rax, %rdi
 4033 18fb E8000000 		call	_ZN8UnitTest4TestC2EPKcS2_S2_i
 4033      00
 4034 1900 488B45F8 		movq	-8(%rbp), %rax
 4035 1904 48C70000 		movq	$_ZTVN12_GLOBAL__N_137TestCanCallCHECKOutsideOfTestFunctionE+16, (%rax)
 4035      000000
 4036              	.LBE80:
 4037 190b C9       		leave
 4038              		.cfi_def_cfa 7, 8
 4039 190c C3       		ret
 4040              		.cfi_endproc
 4041              	.LFE1372:
 4043              		.set	_ZN12_GLOBAL__N_137TestCanCallCHECKOutsideOfTestFunctionC1Ev,_ZN12_GLOBAL__N_137TestCanCallCH
 4044              		.local	_ZN12_GLOBAL__N_145testCanCallCHECKOutsideOfTestFunctionInstanceE
 4045              		.comm	_ZN12_GLOBAL__N_145testCanCallCHECKOutsideOfTestFunctionInstanceE,56,32
 4046              		.local	_ZN12_GLOBAL__N_138adderCanCallCHECKOutsideOfTestFunctionE
 4047              		.comm	_ZN12_GLOBAL__N_138adderCanCallCHECKOutsideOfTestFunctionE,1,1
 4048 190d 90       		.align 2
 4050              	_ZNK12_GLOBAL__N_137TestCanCallCHECKOutsideOfTestFunction7RunImplEv:
 4051              	.LFB1374:
 152:TestUnitTest++.cpp **** {
 4052              		.loc 4 152 0
 4053              		.cfi_startproc
 4054 190e 55       		pushq	%rbp
 4055              		.cfi_def_cfa_offset 16
 4056              		.cfi_offset 6, -16
 4057 190f 4889E5   		movq	%rsp, %rbp
 4058              		.cfi_def_cfa_register 6
 4059 1912 4883EC10 		subq	$16, %rsp
 4060 1916 48897DF8 		movq	%rdi, -8(%rbp)
 153:TestUnitTest++.cpp **** 	CheckBool(true);
 4061              		.loc 4 153 0
 4062 191a BF010000 		movl	$1, %edi
 4062      00
 4063 191f E8EEFEFF 		call	_ZN12_GLOBAL__N_19CheckBoolEb
 4063      FF
 154:TestUnitTest++.cpp **** }
 4064              		.loc 4 154 0
 4065 1924 C9       		leave
 4066              		.cfi_def_cfa 7, 8
 4067 1925 C3       		ret
 4068              		.cfi_endproc
 4069              	.LFE1374:
 4071              		.section	.text._ZN8UnitTest5CheckIbEEbT_,"axG",@progbits,_ZN8UnitTest5CheckIbEEbT_,comdat
 4072              		.weak	_ZN8UnitTest5CheckIbEEbT_
 4074              	_ZN8UnitTest5CheckIbEEbT_:
 4075              	.LFB1403:
 4076              		.file 5 "../Checks.h"
   1:../Checks.h   **** #ifndef UNITTEST_CHECKS_H
   2:../Checks.h   **** #define UNITTEST_CHECKS_H
   3:../Checks.h   **** 
   4:../Checks.h   **** #include "Config.h"
   5:../Checks.h   **** #include "TestResults.h"
   6:../Checks.h   **** #include "MemoryOutStream.h"
   7:../Checks.h   **** 
   8:../Checks.h   **** namespace UnitTest {
   9:../Checks.h   **** 
  10:../Checks.h   **** 
  11:../Checks.h   **** template< typename Value >
  12:../Checks.h   **** bool Check(Value const value)
 4077              		.loc 5 12 0
 4078              		.cfi_startproc
 4079 0000 55       		pushq	%rbp
 4080              		.cfi_def_cfa_offset 16
 4081              		.cfi_offset 6, -16
 4082 0001 4889E5   		movq	%rsp, %rbp
 4083              		.cfi_def_cfa_register 6
 4084 0004 89F8     		movl	%edi, %eax
 4085 0006 8845FC   		movb	%al, -4(%rbp)
  13:../Checks.h   **** {
  14:../Checks.h   ****     return !!value; // doing double negative to avoid silly VS warnings
 4086              		.loc 5 14 0
 4087 0009 0FB645FC 		movzbl	-4(%rbp), %eax
  15:../Checks.h   **** }
 4088              		.loc 5 15 0
 4089 000d 5D       		popq	%rbp
 4090              		.cfi_def_cfa 7, 8
 4091 000e C3       		ret
 4092              		.cfi_endproc
 4093              	.LFE1403:
 4095              		.section	.text._ZN8UnitTest5CheckIPvEEbT_,"axG",@progbits,_ZN8UnitTest5CheckIPvEEbT_,comdat
 4096              		.weak	_ZN8UnitTest5CheckIPvEEbT_
 4098              	_ZN8UnitTest5CheckIPvEEbT_:
 4099              	.LFB1404:
  12:../Checks.h   **** {
 4100              		.loc 5 12 0
 4101              		.cfi_startproc
 4102 0000 55       		pushq	%rbp
 4103              		.cfi_def_cfa_offset 16
 4104              		.cfi_offset 6, -16
 4105 0001 4889E5   		movq	%rsp, %rbp
 4106              		.cfi_def_cfa_register 6
 4107 0004 48897DF8 		movq	%rdi, -8(%rbp)
  14:../Checks.h   **** }
 4108              		.loc 5 14 0
 4109 0008 48837DF8 		cmpq	$0, -8(%rbp)
 4109      00
 4110 000d 0F95C0   		setne	%al
 4111              		.loc 5 15 0
 4112 0010 5D       		popq	%rbp
 4113              		.cfi_def_cfa 7, 8
 4114 0011 C3       		ret
 4115              		.cfi_endproc
 4116              	.LFE1404:
 4118              		.section	.rodata
 4119              	.LC53:
 4120 05aa 45787065 		.string	"Expected "
 4120      63746564 
 4120      2000
 4121              	.LC54:
 4122 05b4 20627574 		.string	" but was "
 4122      20776173 
 4122      2000
 4123              		.section	.text._ZN8UnitTest10CheckEqualIiiEEvRNS_11TestResultsERKT_RKT0_RKNS_11TestDetailsE,"axG",
 4124              		.weak	_ZN8UnitTest10CheckEqualIiiEEvRNS_11TestResultsERKT_RKT0_RKNS_11TestDetailsE
 4126              	_ZN8UnitTest10CheckEqualIiiEEvRNS_11TestResultsERKT_RKT0_RKNS_11TestDetailsE:
 4127              	.LFB1405:
  16:../Checks.h   **** 
  17:../Checks.h   **** 
  18:../Checks.h   **** template< typename Expected, typename Actual >
  19:../Checks.h   **** void CheckEqual(TestResults& results, Expected const& expected, Actual const& actual, TestDetails c
 4128              		.loc 5 19 0
 4129              		.cfi_startproc
 4130              		.cfi_personality 0x3,__gxx_personality_v0
 4131              		.cfi_lsda 0x3,.LLSDA1405
 4132 0000 55       		pushq	%rbp
 4133              		.cfi_def_cfa_offset 16
 4134              		.cfi_offset 6, -16
 4135 0001 4889E5   		movq	%rsp, %rbp
 4136              		.cfi_def_cfa_register 6
 4137 0004 4154     		pushq	%r12
 4138 0006 53       		pushq	%rbx
 4139 0007 4881EC90 		subq	$400, %rsp
 4139      010000
 4140              		.cfi_offset 12, -24
 4141              		.cfi_offset 3, -32
 4142 000e 4889BD78 		movq	%rdi, -392(%rbp)
 4142      FEFFFF
 4143 0015 4889B570 		movq	%rsi, -400(%rbp)
 4143      FEFFFF
 4144 001c 48899568 		movq	%rdx, -408(%rbp)
 4144      FEFFFF
 4145 0023 48898D60 		movq	%rcx, -416(%rbp)
 4145      FEFFFF
 4146              	.LBB81:
 4147              	.LBB82:
  20:../Checks.h   **** {
  21:../Checks.h   ****     if (!(expected == actual))
 4148              		.loc 5 21 0
 4149 002a 488B8570 		movq	-400(%rbp), %rax
 4149      FEFFFF
 4150 0031 8B10     		movl	(%rax), %edx
 4151 0033 488B8568 		movq	-408(%rbp), %rax
 4151      FEFFFF
 4152 003a 8B00     		movl	(%rax), %eax
 4153 003c 39C2     		cmpl	%eax, %edx
 4154 003e 0F84B100 		je	.L219
 4154      0000
 4155              	.LBB83:
  22:../Checks.h   ****     {
  23:../Checks.h   ****         UnitTest::MemoryOutStream stream;
 4156              		.loc 5 23 0
 4157 0044 488D8580 		leaq	-384(%rbp), %rax
 4157      FEFFFF
 4158 004b 4889C7   		movq	%rax, %rdi
 4159              	.LEHB100:
 4160 004e E8000000 		call	_ZN8UnitTest15MemoryOutStreamC1Ev
 4160      00
 4161              	.LEHE100:
  24:../Checks.h   ****         stream << "Expected " << expected << " but was " << actual;
 4162              		.loc 5 24 0
 4163 0053 488B8568 		movq	-408(%rbp), %rax
 4163      FEFFFF
 4164 005a 8B18     		movl	(%rax), %ebx
 4165 005c 488B8570 		movq	-400(%rbp), %rax
 4165      FEFFFF
 4166 0063 448B20   		movl	(%rax), %r12d
 4167 0066 488D8580 		leaq	-384(%rbp), %rax
 4167      FEFFFF
 4168 006d BE000000 		movl	$.LC53, %esi
 4168      00
 4169 0072 4889C7   		movq	%rax, %rdi
 4170              	.LEHB101:
 4171 0075 E8000000 		call	_ZStlsISt11char_traitsIcEERSt13basic_ostreamIcT_ES5_PKc
 4171      00
 4172 007a 4489E6   		movl	%r12d, %esi
 4173 007d 4889C7   		movq	%rax, %rdi
 4174 0080 E8000000 		call	_ZNSolsEi
 4174      00
 4175              		.loc 5 24 0 is_stmt 0 discriminator 1
 4176 0085 BE000000 		movl	$.LC54, %esi
 4176      00
 4177 008a 4889C7   		movq	%rax, %rdi
 4178 008d E8000000 		call	_ZStlsISt11char_traitsIcEERSt13basic_ostreamIcT_ES5_PKc
 4178      00
 4179 0092 89DE     		movl	%ebx, %esi
 4180 0094 4889C7   		movq	%rax, %rdi
 4181 0097 E8000000 		call	_ZNSolsEi
 4181      00
  25:../Checks.h   **** 
  26:../Checks.h   ****         results.OnTestFailure(details, stream.GetText());
 4182              		.loc 5 26 0 is_stmt 1
 4183 009c 488D8580 		leaq	-384(%rbp), %rax
 4183      FEFFFF
 4184 00a3 4889C7   		movq	%rax, %rdi
 4185 00a6 E8000000 		call	_ZNK8UnitTest15MemoryOutStream7GetTextEv
 4185      00
 4186 00ab 4889C2   		movq	%rax, %rdx
 4187 00ae 488B8D60 		movq	-416(%rbp), %rcx
 4187      FEFFFF
 4188 00b5 488B8578 		movq	-392(%rbp), %rax
 4188      FEFFFF
 4189 00bc 4889CE   		movq	%rcx, %rsi
 4190 00bf 4889C7   		movq	%rax, %rdi
 4191 00c2 E8000000 		call	_ZN8UnitTest11TestResults13OnTestFailureERKNS_11TestDetailsEPKc
 4191      00
 4192              	.LEHE101:
 4193              		.loc 5 26 0 is_stmt 0 discriminator 1
 4194 00c7 488D8580 		leaq	-384(%rbp), %rax
 4194      FEFFFF
 4195 00ce 4889C7   		movq	%rax, %rdi
 4196              	.LEHB102:
 4197 00d1 E8000000 		call	_ZN8UnitTest15MemoryOutStreamD1Ev
 4197      00
 4198              	.LEHE102:
 4199              	.LBE83:
 4200 00d6 EB1D     		jmp	.L219
 4201              	.L218:
 4202 00d8 4889C3   		movq	%rax, %rbx
 4203              	.LBB84:
 4204              		.loc 5 26 0
 4205 00db 488D8580 		leaq	-384(%rbp), %rax
 4205      FEFFFF
 4206 00e2 4889C7   		movq	%rax, %rdi
 4207 00e5 E8000000 		call	_ZN8UnitTest15MemoryOutStreamD1Ev
 4207      00
 4208 00ea 4889D8   		movq	%rbx, %rax
 4209 00ed 4889C7   		movq	%rax, %rdi
 4210              	.LEHB103:
 4211 00f0 E8000000 		call	_Unwind_Resume
 4211      00
 4212              	.LEHE103:
 4213              	.L219:
 4214              	.LBE84:
 4215              	.LBE82:
 4216              	.LBE81:
  27:../Checks.h   ****     }
  28:../Checks.h   **** }
 4217              		.loc 5 28 0 is_stmt 1
 4218 00f5 4881C490 		addq	$400, %rsp
 4218      010000
 4219 00fc 5B       		popq	%rbx
 4220 00fd 415C     		popq	%r12
 4221 00ff 5D       		popq	%rbp
 4222              		.cfi_def_cfa 7, 8
 4223 0100 C3       		ret
 4224              		.cfi_endproc
 4225              	.LFE1405:
 4226              		.section	.gcc_except_table
 4227              	.LLSDA1405:
 4228 02d4 FF       		.byte	0xff
 4229 02d5 FF       		.byte	0xff
 4230 02d6 01       		.byte	0x1
 4231 02d7 13       		.uleb128 .LLSDACSE1405-.LLSDACSB1405
 4232              	.LLSDACSB1405:
 4233 02d8 4E       		.uleb128 .LEHB100-.LFB1405
 4234 02d9 05       		.uleb128 .LEHE100-.LEHB100
 4235 02da 00       		.uleb128 0
 4236 02db 00       		.uleb128 0
 4237 02dc 75       		.uleb128 .LEHB101-.LFB1405
 4238 02dd 52       		.uleb128 .LEHE101-.LEHB101
 4239 02de D801     		.uleb128 .L218-.LFB1405
 4240 02e0 00       		.uleb128 0
 4241 02e1 D101     		.uleb128 .LEHB102-.LFB1405
 4242 02e3 05       		.uleb128 .LEHE102-.LEHB102
 4243 02e4 00       		.uleb128 0
 4244 02e5 00       		.uleb128 0
 4245 02e6 F001     		.uleb128 .LEHB103-.LFB1405
 4246 02e8 05       		.uleb128 .LEHE103-.LEHB103
 4247 02e9 00       		.uleb128 0
 4248 02ea 00       		.uleb128 0
 4249              	.LLSDACSE1405:
 4250              		.section	.text._ZN8UnitTest10CheckEqualIiiEEvRNS_11TestResultsERKT_RKT0_RKNS_11TestDetailsE,"axG",
 4252              		.section	.text._ZN8UnitTest10CheckEqualIPvS1_EEvRNS_11TestResultsERKT_RKT0_RKNS_11TestDetailsE,"ax
 4253              		.weak	_ZN8UnitTest10CheckEqualIPvS1_EEvRNS_11TestResultsERKT_RKT0_RKNS_11TestDetailsE
 4255              	_ZN8UnitTest10CheckEqualIPvS1_EEvRNS_11TestResultsERKT_RKT0_RKNS_11TestDetailsE:
 4256              	.LFB1406:
  19:../Checks.h   **** {
 4257              		.loc 5 19 0
 4258              		.cfi_startproc
 4259              		.cfi_personality 0x3,__gxx_personality_v0
 4260              		.cfi_lsda 0x3,.LLSDA1406
 4261 0000 55       		pushq	%rbp
 4262              		.cfi_def_cfa_offset 16
 4263              		.cfi_offset 6, -16
 4264 0001 4889E5   		movq	%rsp, %rbp
 4265              		.cfi_def_cfa_register 6
 4266 0004 4154     		pushq	%r12
 4267 0006 53       		pushq	%rbx
 4268 0007 4881EC90 		subq	$400, %rsp
 4268      010000
 4269              		.cfi_offset 12, -24
 4270              		.cfi_offset 3, -32
 4271 000e 4889BD78 		movq	%rdi, -392(%rbp)
 4271      FEFFFF
 4272 0015 4889B570 		movq	%rsi, -400(%rbp)
 4272      FEFFFF
 4273 001c 48899568 		movq	%rdx, -408(%rbp)
 4273      FEFFFF
 4274 0023 48898D60 		movq	%rcx, -416(%rbp)
 4274      FEFFFF
 4275              	.LBB85:
 4276              	.LBB86:
  21:../Checks.h   ****     {
 4277              		.loc 5 21 0
 4278 002a 488B8570 		movq	-400(%rbp), %rax
 4278      FEFFFF
 4279 0031 488B10   		movq	(%rax), %rdx
 4280 0034 488B8568 		movq	-408(%rbp), %rax
 4280      FEFFFF
 4281 003b 488B00   		movq	(%rax), %rax
 4282 003e 4839C2   		cmpq	%rax, %rdx
 4283 0041 0F84B300 		je	.L224
 4283      0000
 4284              	.LBB87:
  23:../Checks.h   ****         stream << "Expected " << expected << " but was " << actual;
 4285              		.loc 5 23 0
 4286 0047 488D8580 		leaq	-384(%rbp), %rax
 4286      FEFFFF
 4287 004e 4889C7   		movq	%rax, %rdi
 4288              	.LEHB104:
 4289 0051 E8000000 		call	_ZN8UnitTest15MemoryOutStreamC1Ev
 4289      00
 4290              	.LEHE104:
  24:../Checks.h   **** 
 4291              		.loc 5 24 0
 4292 0056 488B8568 		movq	-408(%rbp), %rax
 4292      FEFFFF
 4293 005d 488B18   		movq	(%rax), %rbx
 4294 0060 488B8570 		movq	-400(%rbp), %rax
 4294      FEFFFF
 4295 0067 4C8B20   		movq	(%rax), %r12
 4296 006a 488D8580 		leaq	-384(%rbp), %rax
 4296      FEFFFF
 4297 0071 BE000000 		movl	$.LC53, %esi
 4297      00
 4298 0076 4889C7   		movq	%rax, %rdi
 4299              	.LEHB105:
 4300 0079 E8000000 		call	_ZStlsISt11char_traitsIcEERSt13basic_ostreamIcT_ES5_PKc
 4300      00
 4301 007e 4C89E6   		movq	%r12, %rsi
 4302 0081 4889C7   		movq	%rax, %rdi
 4303 0084 E8000000 		call	_ZNSolsEPKv
 4303      00
  24:../Checks.h   **** 
 4304              		.loc 5 24 0 is_stmt 0 discriminator 1
 4305 0089 BE000000 		movl	$.LC54, %esi
 4305      00
 4306 008e 4889C7   		movq	%rax, %rdi
 4307 0091 E8000000 		call	_ZStlsISt11char_traitsIcEERSt13basic_ostreamIcT_ES5_PKc
 4307      00
 4308 0096 4889DE   		movq	%rbx, %rsi
 4309 0099 4889C7   		movq	%rax, %rdi
 4310 009c E8000000 		call	_ZNSolsEPKv
 4310      00
  26:../Checks.h   ****     }
 4311              		.loc 5 26 0 is_stmt 1
 4312 00a1 488D8580 		leaq	-384(%rbp), %rax
 4312      FEFFFF
 4313 00a8 4889C7   		movq	%rax, %rdi
 4314 00ab E8000000 		call	_ZNK8UnitTest15MemoryOutStream7GetTextEv
 4314      00
 4315 00b0 4889C2   		movq	%rax, %rdx
 4316 00b3 488B8D60 		movq	-416(%rbp), %rcx
 4316      FEFFFF
 4317 00ba 488B8578 		movq	-392(%rbp), %rax
 4317      FEFFFF
 4318 00c1 4889CE   		movq	%rcx, %rsi
 4319 00c4 4889C7   		movq	%rax, %rdi
 4320 00c7 E8000000 		call	_ZN8UnitTest11TestResults13OnTestFailureERKNS_11TestDetailsEPKc
 4320      00
 4321              	.LEHE105:
  26:../Checks.h   ****     }
 4322              		.loc 5 26 0 is_stmt 0 discriminator 1
 4323 00cc 488D8580 		leaq	-384(%rbp), %rax
 4323      FEFFFF
 4324 00d3 4889C7   		movq	%rax, %rdi
 4325              	.LEHB106:
 4326 00d6 E8000000 		call	_ZN8UnitTest15MemoryOutStreamD1Ev
 4326      00
 4327              	.LEHE106:
 4328              	.LBE87:
 4329 00db EB1D     		jmp	.L224
 4330              	.L223:
 4331 00dd 4889C3   		movq	%rax, %rbx
 4332              	.LBB88:
  26:../Checks.h   ****     }
 4333              		.loc 5 26 0
 4334 00e0 488D8580 		leaq	-384(%rbp), %rax
 4334      FEFFFF
 4335 00e7 4889C7   		movq	%rax, %rdi
 4336 00ea E8000000 		call	_ZN8UnitTest15MemoryOutStreamD1Ev
 4336      00
 4337 00ef 4889D8   		movq	%rbx, %rax
 4338 00f2 4889C7   		movq	%rax, %rdi
 4339              	.LEHB107:
 4340 00f5 E8000000 		call	_Unwind_Resume
 4340      00
 4341              	.LEHE107:
 4342              	.L224:
 4343              	.LBE88:
 4344              	.LBE86:
 4345              	.LBE85:
 4346              		.loc 5 28 0 is_stmt 1
 4347 00fa 4881C490 		addq	$400, %rsp
 4347      010000
 4348 0101 5B       		popq	%rbx
 4349 0102 415C     		popq	%r12
 4350 0104 5D       		popq	%rbp
 4351              		.cfi_def_cfa 7, 8
 4352 0105 C3       		ret
 4353              		.cfi_endproc
 4354              	.LFE1406:
 4355              		.section	.gcc_except_table
 4356              	.LLSDA1406:
 4357 02eb FF       		.byte	0xff
 4358 02ec FF       		.byte	0xff
 4359 02ed 01       		.byte	0x1
 4360 02ee 13       		.uleb128 .LLSDACSE1406-.LLSDACSB1406
 4361              	.LLSDACSB1406:
 4362 02ef 51       		.uleb128 .LEHB104-.LFB1406
 4363 02f0 05       		.uleb128 .LEHE104-.LEHB104
 4364 02f1 00       		.uleb128 0
 4365 02f2 00       		.uleb128 0
 4366 02f3 79       		.uleb128 .LEHB105-.LFB1406
 4367 02f4 53       		.uleb128 .LEHE105-.LEHB105
 4368 02f5 DD01     		.uleb128 .L223-.LFB1406
 4369 02f7 00       		.uleb128 0
 4370 02f8 D601     		.uleb128 .LEHB106-.LFB1406
 4371 02fa 05       		.uleb128 .LEHE106-.LEHB106
 4372 02fb 00       		.uleb128 0
 4373 02fc 00       		.uleb128 0
 4374 02fd F501     		.uleb128 .LEHB107-.LFB1406
 4375 02ff 05       		.uleb128 .LEHE107-.LEHB107
 4376 0300 00       		.uleb128 0
 4377 0301 00       		.uleb128 0
 4378              	.LLSDACSE1406:
 4379              		.section	.text._ZN8UnitTest10CheckEqualIPvS1_EEvRNS_11TestResultsERKT_RKT0_RKNS_11TestDetailsE,"ax
 4381              		.section	.rodata
 4382              	.LC55:
 4383 05be 202B2F2D 		.string	" +/- "
 4383      2000
 4384              		.section	.text._ZN8UnitTest10CheckCloseIfffEEvRNS_11TestResultsERKT_RKT0_RKT1_RKNS_11TestDetailsE,
 4385              		.weak	_ZN8UnitTest10CheckCloseIfffEEvRNS_11TestResultsERKT_RKT0_RKT1_RKNS_11TestDetailsE
 4387              	_ZN8UnitTest10CheckCloseIfffEEvRNS_11TestResultsERKT_RKT0_RKT1_RKNS_11TestDetailsE:
 4388              	.LFB1407:
  29:../Checks.h   **** 
  30:../Checks.h   **** void CheckEqual(TestResults& results, char const* expected, char const* actual, TestDetails const& 
  31:../Checks.h   **** 
  32:../Checks.h   **** void CheckEqual(TestResults& results, char* expected, char* actual, TestDetails const& details);
  33:../Checks.h   **** 
  34:../Checks.h   **** void CheckEqual(TestResults& results, char* expected, char const* actual, TestDetails const& detail
  35:../Checks.h   **** 
  36:../Checks.h   **** void CheckEqual(TestResults& results, char const* expected, char* actual, TestDetails const& detail
  37:../Checks.h   **** 
  38:../Checks.h   **** template< typename Expected, typename Actual, typename Tolerance >
  39:../Checks.h   **** bool AreClose(Expected const& expected, Actual const& actual, Tolerance const& tolerance)
  40:../Checks.h   **** {
  41:../Checks.h   ****     return (actual >= (expected - tolerance)) && (actual <= (expected + tolerance));
  42:../Checks.h   **** }
  43:../Checks.h   **** 
  44:../Checks.h   **** template< typename Expected, typename Actual, typename Tolerance >
  45:../Checks.h   **** void CheckClose(TestResults& results, Expected const& expected, Actual const& actual, Tolerance con
 4389              		.loc 5 45 0
 4390              		.cfi_startproc
 4391              		.cfi_personality 0x3,__gxx_personality_v0
 4392              		.cfi_lsda 0x3,.LLSDA1407
 4393 0000 55       		pushq	%rbp
 4394              		.cfi_def_cfa_offset 16
 4395              		.cfi_offset 6, -16
 4396 0001 4889E5   		movq	%rsp, %rbp
 4397              		.cfi_def_cfa_register 6
 4398 0004 4155     		pushq	%r13
 4399 0006 4154     		pushq	%r12
 4400 0008 53       		pushq	%rbx
 4401 0009 4881ECA8 		subq	$424, %rsp
 4401      010000
 4402              		.cfi_offset 13, -24
 4403              		.cfi_offset 12, -32
 4404              		.cfi_offset 3, -40
 4405 0010 4889BD68 		movq	%rdi, -408(%rbp)
 4405      FEFFFF
 4406 0017 4889B560 		movq	%rsi, -416(%rbp)
 4406      FEFFFF
 4407 001e 48899558 		movq	%rdx, -424(%rbp)
 4407      FEFFFF
 4408 0025 48898D50 		movq	%rcx, -432(%rbp)
 4408      FEFFFF
 4409 002c 4C898548 		movq	%r8, -440(%rbp)
 4409      FEFFFF
 4410              	.LBB89:
 4411              	.LBB90:
  46:../Checks.h   ****                 TestDetails const& details)
  47:../Checks.h   **** {
  48:../Checks.h   ****     if (!AreClose(expected, actual, tolerance))
 4412              		.loc 5 48 0
 4413 0033 488B9550 		movq	-432(%rbp), %rdx
 4413      FEFFFF
 4414 003a 488B8D58 		movq	-424(%rbp), %rcx
 4414      FEFFFF
 4415 0041 488B8560 		movq	-416(%rbp), %rax
 4415      FEFFFF
 4416 0048 4889CE   		movq	%rcx, %rsi
 4417 004b 4889C7   		movq	%rax, %rdi
 4418 004e E8000000 		call	_ZN8UnitTest8AreCloseIfffEEbRKT_RKT0_RKT1_
 4418      00
 4419 0053 83F001   		xorl	$1, %eax
 4420 0056 84C0     		testb	%al, %al
 4421 0058 0F84F700 		je	.L229
 4421      0000
 4422              	.LBB91:
  49:../Checks.h   ****     { 
  50:../Checks.h   ****         UnitTest::MemoryOutStream stream;
 4423              		.loc 5 50 0
 4424 005e 488D8570 		leaq	-400(%rbp), %rax
 4424      FEFFFF
 4425 0065 4889C7   		movq	%rax, %rdi
 4426              	.LEHB108:
 4427 0068 E8000000 		call	_ZN8UnitTest15MemoryOutStreamC1Ev
 4427      00
 4428              	.LEHE108:
  51:../Checks.h   ****         stream << "Expected " << expected << " +/- " << tolerance << " but was " << actual;
 4429              		.loc 5 51 0
 4430 006d 488B8558 		movq	-424(%rbp), %rax
 4430      FEFFFF
 4431 0074 8B18     		movl	(%rax), %ebx
 4432 0076 488B8550 		movq	-432(%rbp), %rax
 4432      FEFFFF
 4433 007d 448B20   		movl	(%rax), %r12d
 4434 0080 488B8560 		movq	-416(%rbp), %rax
 4434      FEFFFF
 4435 0087 448B28   		movl	(%rax), %r13d
 4436 008a 488D8570 		leaq	-400(%rbp), %rax
 4436      FEFFFF
 4437 0091 BE000000 		movl	$.LC53, %esi
 4437      00
 4438 0096 4889C7   		movq	%rax, %rdi
 4439              	.LEHB109:
 4440 0099 E8000000 		call	_ZStlsISt11char_traitsIcEERSt13basic_ostreamIcT_ES5_PKc
 4440      00
 4441 009e 4489AD44 		movl	%r13d, -444(%rbp)
 4441      FEFFFF
 4442 00a5 F30F1085 		movss	-444(%rbp), %xmm0
 4442      44FEFFFF 
 4443 00ad 4889C7   		movq	%rax, %rdi
 4444 00b0 E8000000 		call	_ZNSolsEf
 4444      00
 4445              		.loc 5 51 0 is_stmt 0 discriminator 1
 4446 00b5 BE000000 		movl	$.LC55, %esi
 4446      00
 4447 00ba 4889C7   		movq	%rax, %rdi
 4448 00bd E8000000 		call	_ZStlsISt11char_traitsIcEERSt13basic_ostreamIcT_ES5_PKc
 4448      00
 4449 00c2 4489A544 		movl	%r12d, -444(%rbp)
 4449      FEFFFF
 4450 00c9 F30F1085 		movss	-444(%rbp), %xmm0
 4450      44FEFFFF 
 4451 00d1 4889C7   		movq	%rax, %rdi
 4452 00d4 E8000000 		call	_ZNSolsEf
 4452      00
 4453 00d9 BE000000 		movl	$.LC54, %esi
 4453      00
 4454 00de 4889C7   		movq	%rax, %rdi
 4455 00e1 E8000000 		call	_ZStlsISt11char_traitsIcEERSt13basic_ostreamIcT_ES5_PKc
 4455      00
 4456 00e6 899D44FE 		movl	%ebx, -444(%rbp)
 4456      FFFF
 4457 00ec F30F1085 		movss	-444(%rbp), %xmm0
 4457      44FEFFFF 
 4458 00f4 4889C7   		movq	%rax, %rdi
 4459 00f7 E8000000 		call	_ZNSolsEf
 4459      00
  52:../Checks.h   **** 
  53:../Checks.h   ****         results.OnTestFailure(details, stream.GetText());
 4460              		.loc 5 53 0 is_stmt 1
 4461 00fc 488D8570 		leaq	-400(%rbp), %rax
 4461      FEFFFF
 4462 0103 4889C7   		movq	%rax, %rdi
 4463 0106 E8000000 		call	_ZNK8UnitTest15MemoryOutStream7GetTextEv
 4463      00
 4464 010b 4889C2   		movq	%rax, %rdx
 4465 010e 488B8D48 		movq	-440(%rbp), %rcx
 4465      FEFFFF
 4466 0115 488B8568 		movq	-408(%rbp), %rax
 4466      FEFFFF
 4467 011c 4889CE   		movq	%rcx, %rsi
 4468 011f 4889C7   		movq	%rax, %rdi
 4469 0122 E8000000 		call	_ZN8UnitTest11TestResults13OnTestFailureERKNS_11TestDetailsEPKc
 4469      00
 4470              	.LEHE109:
 4471              		.loc 5 53 0 is_stmt 0 discriminator 1
 4472 0127 488D8570 		leaq	-400(%rbp), %rax
 4472      FEFFFF
 4473 012e 4889C7   		movq	%rax, %rdi
 4474              	.LEHB110:
 4475 0131 E8000000 		call	_ZN8UnitTest15MemoryOutStreamD1Ev
 4475      00
 4476              	.LEHE110:
 4477              	.LBE91:
 4478 0136 EB1D     		jmp	.L229
 4479              	.L228:
 4480 0138 4889C3   		movq	%rax, %rbx
 4481              	.LBB92:
 4482              		.loc 5 53 0
 4483 013b 488D8570 		leaq	-400(%rbp), %rax
 4483      FEFFFF
 4484 0142 4889C7   		movq	%rax, %rdi
 4485 0145 E8000000 		call	_ZN8UnitTest15MemoryOutStreamD1Ev
 4485      00
 4486 014a 4889D8   		movq	%rbx, %rax
 4487 014d 4889C7   		movq	%rax, %rdi
 4488              	.LEHB111:
 4489 0150 E8000000 		call	_Unwind_Resume
 4489      00
 4490              	.LEHE111:
 4491              	.L229:
 4492              	.LBE92:
 4493              	.LBE90:
 4494              	.LBE89:
  54:../Checks.h   ****     }
  55:../Checks.h   **** }
 4495              		.loc 5 55 0 is_stmt 1
 4496 0155 4881C4A8 		addq	$424, %rsp
 4496      010000
 4497 015c 5B       		popq	%rbx
 4498 015d 415C     		popq	%r12
 4499 015f 415D     		popq	%r13
 4500 0161 5D       		popq	%rbp
 4501              		.cfi_def_cfa 7, 8
 4502 0162 C3       		ret
 4503              		.cfi_endproc
 4504              	.LFE1407:
 4505              		.section	.gcc_except_table
 4506              	.LLSDA1407:
 4507 0302 FF       		.byte	0xff
 4508 0303 FF       		.byte	0xff
 4509 0304 01       		.byte	0x1
 4510 0305 15       		.uleb128 .LLSDACSE1407-.LLSDACSB1407
 4511              	.LLSDACSB1407:
 4512 0306 68       		.uleb128 .LEHB108-.LFB1407
 4513 0307 05       		.uleb128 .LEHE108-.LEHB108
 4514 0308 00       		.uleb128 0
 4515 0309 00       		.uleb128 0
 4516 030a 9901     		.uleb128 .LEHB109-.LFB1407
 4517 030c 8E01     		.uleb128 .LEHE109-.LEHB109
 4518 030e B802     		.uleb128 .L228-.LFB1407
 4519 0310 00       		.uleb128 0
 4520 0311 B102     		.uleb128 .LEHB110-.LFB1407
 4521 0313 05       		.uleb128 .LEHE110-.LEHB110
 4522 0314 00       		.uleb128 0
 4523 0315 00       		.uleb128 0
 4524 0316 D002     		.uleb128 .LEHB111-.LFB1407
 4525 0318 05       		.uleb128 .LEHE111-.LEHB111
 4526 0319 00       		.uleb128 0
 4527 031a 00       		.uleb128 0
 4528              	.LLSDACSE1407:
 4529              		.section	.text._ZN8UnitTest10CheckCloseIfffEEvRNS_11TestResultsERKT_RKT0_RKT1_RKNS_11TestDetailsE,
 4531              		.section	.rodata
 4532              	.LC56:
 4533 05c4 45787065 		.string	"Expected [ "
 4533      63746564 
 4533      205B2000 
 4534              	.LC57:
 4535 05d0 2000     		.string	" "
 4536              	.LC58:
 4537 05d2 5D202B2F 		.string	"] +/- "
 4537      2D2000
 4538              	.LC59:
 4539 05d9 20627574 		.string	" but was [ "
 4539      20776173 
 4539      205B2000 
 4540              	.LC60:
 4541 05e5 5D00     		.string	"]"
 4542              		.section	.text._ZN8UnitTest15CheckArrayCloseIA3_fS1_fEEvRNS_11TestResultsERKT_RKT0_iRKT1_RKNS_11Te
 4543              		.weak	_ZN8UnitTest15CheckArrayCloseIA3_fS1_fEEvRNS_11TestResultsERKT_RKT0_iRKT1_RKNS_11TestDetails
 4545              	_ZN8UnitTest15CheckArrayCloseIA3_fS1_fEEvRNS_11TestResultsERKT_RKT0_iRKT1_RKNS_11TestDetailsE:
 4546              	.LFB1408:
  56:../Checks.h   **** 
  57:../Checks.h   **** 
  58:../Checks.h   **** template< typename Expected, typename Actual >
  59:../Checks.h   **** void CheckArrayEqual(TestResults& results, Expected const& expected, Actual const& actual,
  60:../Checks.h   ****                 int const count, TestDetails const& details)
  61:../Checks.h   **** {
  62:../Checks.h   ****     bool equal = true;
  63:../Checks.h   ****     for (int i = 0; i < count; ++i)
  64:../Checks.h   ****         equal &= (expected[i] == actual[i]);
  65:../Checks.h   **** 
  66:../Checks.h   ****     if (!equal)
  67:../Checks.h   ****     {
  68:../Checks.h   ****         UnitTest::MemoryOutStream stream;
  69:../Checks.h   **** 
  70:../Checks.h   **** 		stream << "Expected [ ";
  71:../Checks.h   **** 
  72:../Checks.h   **** 		for (int expectedIndex = 0; expectedIndex < count; ++expectedIndex)
  73:../Checks.h   ****             stream << expected[expectedIndex] << " ";
  74:../Checks.h   **** 
  75:../Checks.h   **** 		stream << "] but was [ ";
  76:../Checks.h   **** 
  77:../Checks.h   **** 		for (int actualIndex = 0; actualIndex < count; ++actualIndex)
  78:../Checks.h   ****             stream << actual[actualIndex] << " ";
  79:../Checks.h   **** 
  80:../Checks.h   **** 		stream << "]";
  81:../Checks.h   **** 
  82:../Checks.h   ****         results.OnTestFailure(details, stream.GetText());
  83:../Checks.h   ****     }
  84:../Checks.h   **** }
  85:../Checks.h   **** 
  86:../Checks.h   **** template< typename Expected, typename Actual, typename Tolerance >
  87:../Checks.h   **** bool ArrayAreClose(Expected const& expected, Actual const& actual, int const count, Tolerance const
  88:../Checks.h   **** {
  89:../Checks.h   ****     bool equal = true;
  90:../Checks.h   ****     for (int i = 0; i < count; ++i)
  91:../Checks.h   ****         equal &= AreClose(expected[i], actual[i], tolerance);
  92:../Checks.h   ****     return equal;
  93:../Checks.h   **** }
  94:../Checks.h   **** 
  95:../Checks.h   **** template< typename Expected, typename Actual, typename Tolerance >
  96:../Checks.h   **** void CheckArrayClose(TestResults& results, Expected const& expected, Actual const& actual,
 4547              		.loc 5 96 0
 4548              		.cfi_startproc
 4549              		.cfi_personality 0x3,__gxx_personality_v0
 4550              		.cfi_lsda 0x3,.LLSDA1408
 4551 0000 55       		pushq	%rbp
 4552              		.cfi_def_cfa_offset 16
 4553              		.cfi_offset 6, -16
 4554 0001 4889E5   		movq	%rsp, %rbp
 4555              		.cfi_def_cfa_register 6
 4556 0004 53       		pushq	%rbx
 4557 0005 4881ECB8 		subq	$440, %rsp
 4557      010000
 4558              		.cfi_offset 3, -24
 4559 000c 4889BD68 		movq	%rdi, -408(%rbp)
 4559      FEFFFF
 4560 0013 4889B560 		movq	%rsi, -416(%rbp)
 4560      FEFFFF
 4561 001a 48899558 		movq	%rdx, -424(%rbp)
 4561      FEFFFF
 4562 0021 898D54FE 		movl	%ecx, -428(%rbp)
 4562      FFFF
 4563 0027 4C898548 		movq	%r8, -440(%rbp)
 4563      FEFFFF
 4564 002e 4C898D40 		movq	%r9, -448(%rbp)
 4564      FEFFFF
 4565              	.LBB93:
  97:../Checks.h   ****                    int const count, Tolerance const& tolerance, TestDetails const& details)
  98:../Checks.h   **** {
  99:../Checks.h   ****     bool equal = ArrayAreClose(expected, actual, count, tolerance);
 4566              		.loc 5 99 0
 4567 0035 488B8D48 		movq	-440(%rbp), %rcx
 4567      FEFFFF
 4568 003c 8B9554FE 		movl	-428(%rbp), %edx
 4568      FFFF
 4569 0042 488BB558 		movq	-424(%rbp), %rsi
 4569      FEFFFF
 4570 0049 488B8560 		movq	-416(%rbp), %rax
 4570      FEFFFF
 4571 0050 4889C7   		movq	%rax, %rdi
 4572 0053 E8000000 		call	_ZN8UnitTest13ArrayAreCloseIA3_fS1_fEEbRKT_RKT0_iRKT1_
 4572      00
 4573 0058 888577FE 		movb	%al, -393(%rbp)
 4573      FFFF
 4574              	.LBB94:
 100:../Checks.h   **** 
 101:../Checks.h   ****     if (!equal)
 4575              		.loc 5 101 0
 4576 005e 0FB68577 		movzbl	-393(%rbp), %eax
 4576      FEFFFF
 4577 0065 83F001   		xorl	$1, %eax
 4578 0068 84C0     		testb	%al, %al
 4579 006a 0F848C01 		je	.L238
 4579      0000
 4580              	.LBB95:
 102:../Checks.h   ****     {
 103:../Checks.h   ****         UnitTest::MemoryOutStream stream;
 4581              		.loc 5 103 0
 4582 0070 488D8580 		leaq	-384(%rbp), %rax
 4582      FEFFFF
 4583 0077 4889C7   		movq	%rax, %rdi
 4584              	.LEHB112:
 4585 007a E8000000 		call	_ZN8UnitTest15MemoryOutStreamC1Ev
 4585      00
 4586              	.LEHE112:
 104:../Checks.h   **** 
 105:../Checks.h   ****         stream << "Expected [ ";
 4587              		.loc 5 105 0
 4588 007f 488D8580 		leaq	-384(%rbp), %rax
 4588      FEFFFF
 4589 0086 BE000000 		movl	$.LC56, %esi
 4589      00
 4590 008b 4889C7   		movq	%rax, %rdi
 4591              	.LEHB113:
 4592 008e E8000000 		call	_ZStlsISt11char_traitsIcEERSt13basic_ostreamIcT_ES5_PKc
 4592      00
 4593              	.LBB96:
 106:../Checks.h   ****         for (int expectedIndex = 0; expectedIndex < count; ++expectedIndex)
 4594              		.loc 5 106 0
 4595 0093 C78578FE 		movl	$0, -392(%rbp)
 4595      FFFF0000 
 4595      0000
 4596 009d EB44     		jmp	.L232
 4597              	.L233:
 107:../Checks.h   ****             stream << expected[expectedIndex] << " ";
 4598              		.loc 5 107 0
 4599 009f 488B8560 		movq	-416(%rbp), %rax
 4599      FEFFFF
 4600 00a6 8B9578FE 		movl	-392(%rbp), %edx
 4600      FFFF
 4601 00ac 4863D2   		movslq	%edx, %rdx
 4602 00af 8B0490   		movl	(%rax,%rdx,4), %eax
 4603 00b2 488D9580 		leaq	-384(%rbp), %rdx
 4603      FEFFFF
 4604 00b9 898550FE 		movl	%eax, -432(%rbp)
 4604      FFFF
 4605 00bf F30F1085 		movss	-432(%rbp), %xmm0
 4605      50FEFFFF 
 4606 00c7 4889D7   		movq	%rdx, %rdi
 4607 00ca E8000000 		call	_ZNSolsEf
 4607      00
 4608 00cf BE000000 		movl	$.LC57, %esi
 4608      00
 4609 00d4 4889C7   		movq	%rax, %rdi
 4610 00d7 E8000000 		call	_ZStlsISt11char_traitsIcEERSt13basic_ostreamIcT_ES5_PKc
 4610      00
 106:../Checks.h   ****         for (int expectedIndex = 0; expectedIndex < count; ++expectedIndex)
 4611              		.loc 5 106 0
 4612 00dc 838578FE 		addl	$1, -392(%rbp)
 4612      FFFF01
 4613              	.L232:
 106:../Checks.h   ****         for (int expectedIndex = 0; expectedIndex < count; ++expectedIndex)
 4614              		.loc 5 106 0 is_stmt 0 discriminator 1
 4615 00e3 8B8578FE 		movl	-392(%rbp), %eax
 4615      FFFF
 4616 00e9 3B8554FE 		cmpl	-428(%rbp), %eax
 4616      FFFF
 4617 00ef 7CAE     		jl	.L233
 4618              	.LBE96:
 108:../Checks.h   ****         stream << "] +/- " << tolerance << " but was [ ";
 4619              		.loc 5 108 0 is_stmt 1
 4620 00f1 488B8548 		movq	-440(%rbp), %rax
 4620      FEFFFF
 4621 00f8 8B18     		movl	(%rax), %ebx
 4622 00fa 488D8580 		leaq	-384(%rbp), %rax
 4622      FEFFFF
 4623 0101 BE000000 		movl	$.LC58, %esi
 4623      00
 4624 0106 4889C7   		movq	%rax, %rdi
 4625 0109 E8000000 		call	_ZStlsISt11char_traitsIcEERSt13basic_ostreamIcT_ES5_PKc
 4625      00
 4626 010e 899D50FE 		movl	%ebx, -432(%rbp)
 4626      FFFF
 4627 0114 F30F1085 		movss	-432(%rbp), %xmm0
 4627      50FEFFFF 
 4628 011c 4889C7   		movq	%rax, %rdi
 4629 011f E8000000 		call	_ZNSolsEf
 4629      00
 4630              		.loc 5 108 0 is_stmt 0 discriminator 1
 4631 0124 BE000000 		movl	$.LC59, %esi
 4631      00
 4632 0129 4889C7   		movq	%rax, %rdi
 4633 012c E8000000 		call	_ZStlsISt11char_traitsIcEERSt13basic_ostreamIcT_ES5_PKc
 4633      00
 4634              	.LBB97:
 109:../Checks.h   **** 
 110:../Checks.h   **** 		for (int actualIndex = 0; actualIndex < count; ++actualIndex)
 4635              		.loc 5 110 0 is_stmt 1
 4636 0131 C7857CFE 		movl	$0, -388(%rbp)
 4636      FFFF0000 
 4636      0000
 4637 013b EB44     		jmp	.L234
 4638              	.L235:
 111:../Checks.h   ****             stream << actual[actualIndex] << " ";
 4639              		.loc 5 111 0
 4640 013d 488B8558 		movq	-424(%rbp), %rax
 4640      FEFFFF
 4641 0144 8B957CFE 		movl	-388(%rbp), %edx
 4641      FFFF
 4642 014a 4863D2   		movslq	%edx, %rdx
 4643 014d 8B0490   		movl	(%rax,%rdx,4), %eax
 4644 0150 488D9580 		leaq	-384(%rbp), %rdx
 4644      FEFFFF
 4645 0157 898550FE 		movl	%eax, -432(%rbp)
 4645      FFFF
 4646 015d F30F1085 		movss	-432(%rbp), %xmm0
 4646      50FEFFFF 
 4647 0165 4889D7   		movq	%rdx, %rdi
 4648 0168 E8000000 		call	_ZNSolsEf
 4648      00
 4649 016d BE000000 		movl	$.LC57, %esi
 4649      00
 4650 0172 4889C7   		movq	%rax, %rdi
 4651 0175 E8000000 		call	_ZStlsISt11char_traitsIcEERSt13basic_ostreamIcT_ES5_PKc
 4651      00
 110:../Checks.h   ****             stream << actual[actualIndex] << " ";
 4652              		.loc 5 110 0
 4653 017a 83857CFE 		addl	$1, -388(%rbp)
 4653      FFFF01
 4654              	.L234:
 110:../Checks.h   ****             stream << actual[actualIndex] << " ";
 4655              		.loc 5 110 0 is_stmt 0 discriminator 1
 4656 0181 8B857CFE 		movl	-388(%rbp), %eax
 4656      FFFF
 4657 0187 3B8554FE 		cmpl	-428(%rbp), %eax
 4657      FFFF
 4658 018d 7CAE     		jl	.L235
 4659              	.LBE97:
 112:../Checks.h   ****         stream << "]";
 4660              		.loc 5 112 0 is_stmt 1
 4661 018f 488D8580 		leaq	-384(%rbp), %rax
 4661      FEFFFF
 4662 0196 BE000000 		movl	$.LC60, %esi
 4662      00
 4663 019b 4889C7   		movq	%rax, %rdi
 4664 019e E8000000 		call	_ZStlsISt11char_traitsIcEERSt13basic_ostreamIcT_ES5_PKc
 4664      00
 113:../Checks.h   **** 
 114:../Checks.h   ****         results.OnTestFailure(details, stream.GetText());
 4665              		.loc 5 114 0
 4666 01a3 488D8580 		leaq	-384(%rbp), %rax
 4666      FEFFFF
 4667 01aa 4889C7   		movq	%rax, %rdi
 4668 01ad E8000000 		call	_ZNK8UnitTest15MemoryOutStream7GetTextEv
 4668      00
 4669 01b2 4889C2   		movq	%rax, %rdx
 4670 01b5 488B8D40 		movq	-448(%rbp), %rcx
 4670      FEFFFF
 4671 01bc 488B8568 		movq	-408(%rbp), %rax
 4671      FEFFFF
 4672 01c3 4889CE   		movq	%rcx, %rsi
 4673 01c6 4889C7   		movq	%rax, %rdi
 4674 01c9 E8000000 		call	_ZN8UnitTest11TestResults13OnTestFailureERKNS_11TestDetailsEPKc
 4674      00
 4675              	.LEHE113:
 4676              		.loc 5 114 0 is_stmt 0 discriminator 1
 4677 01ce 488D8580 		leaq	-384(%rbp), %rax
 4677      FEFFFF
 4678 01d5 4889C7   		movq	%rax, %rdi
 4679              	.LEHB114:
 4680 01d8 E8000000 		call	_ZN8UnitTest15MemoryOutStreamD1Ev
 4680      00
 4681              	.LEHE114:
 4682              	.LBE95:
 4683 01dd EB1D     		jmp	.L238
 4684              	.L237:
 4685 01df 4889C3   		movq	%rax, %rbx
 4686              	.LBB98:
 4687              		.loc 5 114 0
 4688 01e2 488D8580 		leaq	-384(%rbp), %rax
 4688      FEFFFF
 4689 01e9 4889C7   		movq	%rax, %rdi
 4690 01ec E8000000 		call	_ZN8UnitTest15MemoryOutStreamD1Ev
 4690      00
 4691 01f1 4889D8   		movq	%rbx, %rax
 4692 01f4 4889C7   		movq	%rax, %rdi
 4693              	.LEHB115:
 4694 01f7 E8000000 		call	_Unwind_Resume
 4694      00
 4695              	.LEHE115:
 4696              	.L238:
 4697              	.LBE98:
 4698              	.LBE94:
 4699              	.LBE93:
 115:../Checks.h   ****     }
 116:../Checks.h   **** }
 4700              		.loc 5 116 0 is_stmt 1
 4701 01fc 4881C4B8 		addq	$440, %rsp
 4701      010000
 4702 0203 5B       		popq	%rbx
 4703 0204 5D       		popq	%rbp
 4704              		.cfi_def_cfa 7, 8
 4705 0205 C3       		ret
 4706              		.cfi_endproc
 4707              	.LFE1408:
 4708              		.section	.gcc_except_table
 4709              	.LLSDA1408:
 4710 031b FF       		.byte	0xff
 4711 031c FF       		.byte	0xff
 4712 031d 01       		.byte	0x1
 4713 031e 15       		.uleb128 .LLSDACSE1408-.LLSDACSB1408
 4714              	.LLSDACSB1408:
 4715 031f 7A       		.uleb128 .LEHB112-.LFB1408
 4716 0320 05       		.uleb128 .LEHE112-.LEHB112
 4717 0321 00       		.uleb128 0
 4718 0322 00       		.uleb128 0
 4719 0323 8E01     		.uleb128 .LEHB113-.LFB1408
 4720 0325 C002     		.uleb128 .LEHE113-.LEHB113
 4721 0327 DF03     		.uleb128 .L237-.LFB1408
 4722 0329 00       		.uleb128 0
 4723 032a D803     		.uleb128 .LEHB114-.LFB1408
 4724 032c 05       		.uleb128 .LEHE114-.LEHB114
 4725 032d 00       		.uleb128 0
 4726 032e 00       		.uleb128 0
 4727 032f F703     		.uleb128 .LEHB115-.LFB1408
 4728 0331 05       		.uleb128 .LEHE115-.LEHB115
 4729 0332 00       		.uleb128 0
 4730 0333 00       		.uleb128 0
 4731              	.LLSDACSE1408:
 4732              		.section	.text._ZN8UnitTest15CheckArrayCloseIA3_fS1_fEEvRNS_11TestResultsERKT_RKT0_iRKT1_RKNS_11Te
 4734              		.section	.text._ZNSaIfEC2Ev,"axG",@progbits,_ZNSaIfEC5Ev,comdat
 4735              		.align 2
 4736              		.weak	_ZNSaIfEC2Ev
 4738              	_ZNSaIfEC2Ev:
 4739              	.LFB1410:
 4740              		.file 6 "/usr/include/c++/4.8/bits/allocator.h"
   1:/usr/include/c++/4.8/bits/allocator.h **** // Allocators -*- C++ -*-
   2:/usr/include/c++/4.8/bits/allocator.h **** 
   3:/usr/include/c++/4.8/bits/allocator.h **** // Copyright (C) 2001-2013 Free Software Foundation, Inc.
   4:/usr/include/c++/4.8/bits/allocator.h **** //
   5:/usr/include/c++/4.8/bits/allocator.h **** // This file is part of the GNU ISO C++ Library.  This library is free
   6:/usr/include/c++/4.8/bits/allocator.h **** // software; you can redistribute it and/or modify it under the
   7:/usr/include/c++/4.8/bits/allocator.h **** // terms of the GNU General Public License as published by the
   8:/usr/include/c++/4.8/bits/allocator.h **** // Free Software Foundation; either version 3, or (at your option)
   9:/usr/include/c++/4.8/bits/allocator.h **** // any later version.
  10:/usr/include/c++/4.8/bits/allocator.h **** 
  11:/usr/include/c++/4.8/bits/allocator.h **** // This library is distributed in the hope that it will be useful,
  12:/usr/include/c++/4.8/bits/allocator.h **** // but WITHOUT ANY WARRANTY; without even the implied warranty of
  13:/usr/include/c++/4.8/bits/allocator.h **** // MERCHANTABILITY or FITNESS FOR A PARTICULAR PURPOSE.  See the
  14:/usr/include/c++/4.8/bits/allocator.h **** // GNU General Public License for more details.
  15:/usr/include/c++/4.8/bits/allocator.h **** 
  16:/usr/include/c++/4.8/bits/allocator.h **** // Under Section 7 of GPL version 3, you are granted additional
  17:/usr/include/c++/4.8/bits/allocator.h **** // permissions described in the GCC Runtime Library Exception, version
  18:/usr/include/c++/4.8/bits/allocator.h **** // 3.1, as published by the Free Software Foundation.
  19:/usr/include/c++/4.8/bits/allocator.h **** 
  20:/usr/include/c++/4.8/bits/allocator.h **** // You should have received a copy of the GNU General Public License and
  21:/usr/include/c++/4.8/bits/allocator.h **** // a copy of the GCC Runtime Library Exception along with this program;
  22:/usr/include/c++/4.8/bits/allocator.h **** // see the files COPYING3 and COPYING.RUNTIME respectively.  If not, see
  23:/usr/include/c++/4.8/bits/allocator.h **** // <http://www.gnu.org/licenses/>.
  24:/usr/include/c++/4.8/bits/allocator.h **** 
  25:/usr/include/c++/4.8/bits/allocator.h **** /*
  26:/usr/include/c++/4.8/bits/allocator.h ****  * Copyright (c) 1996-1997
  27:/usr/include/c++/4.8/bits/allocator.h ****  * Silicon Graphics Computer Systems, Inc.
  28:/usr/include/c++/4.8/bits/allocator.h ****  *
  29:/usr/include/c++/4.8/bits/allocator.h ****  * Permission to use, copy, modify, distribute and sell this software
  30:/usr/include/c++/4.8/bits/allocator.h ****  * and its documentation for any purpose is hereby granted without fee,
  31:/usr/include/c++/4.8/bits/allocator.h ****  * provided that the above copyright notice appear in all copies and
  32:/usr/include/c++/4.8/bits/allocator.h ****  * that both that copyright notice and this permission notice appear
  33:/usr/include/c++/4.8/bits/allocator.h ****  * in supporting documentation.  Silicon Graphics makes no
  34:/usr/include/c++/4.8/bits/allocator.h ****  * representations about the suitability of this software for any
  35:/usr/include/c++/4.8/bits/allocator.h ****  * purpose.  It is provided "as is" without express or implied warranty.
  36:/usr/include/c++/4.8/bits/allocator.h ****  */
  37:/usr/include/c++/4.8/bits/allocator.h **** 
  38:/usr/include/c++/4.8/bits/allocator.h **** /** @file bits/allocator.h
  39:/usr/include/c++/4.8/bits/allocator.h ****  *  This is an internal header file, included by other library headers.
  40:/usr/include/c++/4.8/bits/allocator.h ****  *  Do not attempt to use it directly. @headername{memory}
  41:/usr/include/c++/4.8/bits/allocator.h ****  */
  42:/usr/include/c++/4.8/bits/allocator.h **** 
  43:/usr/include/c++/4.8/bits/allocator.h **** #ifndef _ALLOCATOR_H
  44:/usr/include/c++/4.8/bits/allocator.h **** #define _ALLOCATOR_H 1
  45:/usr/include/c++/4.8/bits/allocator.h **** 
  46:/usr/include/c++/4.8/bits/allocator.h **** #include <bits/c++allocator.h> // Define the base class to std::allocator.
  47:/usr/include/c++/4.8/bits/allocator.h **** #include <bits/memoryfwd.h>
  48:/usr/include/c++/4.8/bits/allocator.h **** #if __cplusplus >= 201103L
  49:/usr/include/c++/4.8/bits/allocator.h **** #include <type_traits>
  50:/usr/include/c++/4.8/bits/allocator.h **** #endif
  51:/usr/include/c++/4.8/bits/allocator.h **** 
  52:/usr/include/c++/4.8/bits/allocator.h **** namespace std _GLIBCXX_VISIBILITY(default)
  53:/usr/include/c++/4.8/bits/allocator.h **** {
  54:/usr/include/c++/4.8/bits/allocator.h **** _GLIBCXX_BEGIN_NAMESPACE_VERSION
  55:/usr/include/c++/4.8/bits/allocator.h **** 
  56:/usr/include/c++/4.8/bits/allocator.h ****   /**
  57:/usr/include/c++/4.8/bits/allocator.h ****    *  @addtogroup allocators
  58:/usr/include/c++/4.8/bits/allocator.h ****    *  @{
  59:/usr/include/c++/4.8/bits/allocator.h ****    */
  60:/usr/include/c++/4.8/bits/allocator.h **** 
  61:/usr/include/c++/4.8/bits/allocator.h ****   /// allocator<void> specialization.
  62:/usr/include/c++/4.8/bits/allocator.h ****   template<>
  63:/usr/include/c++/4.8/bits/allocator.h ****     class allocator<void>
  64:/usr/include/c++/4.8/bits/allocator.h ****     {
  65:/usr/include/c++/4.8/bits/allocator.h ****     public:
  66:/usr/include/c++/4.8/bits/allocator.h ****       typedef size_t      size_type;
  67:/usr/include/c++/4.8/bits/allocator.h ****       typedef ptrdiff_t   difference_type;
  68:/usr/include/c++/4.8/bits/allocator.h ****       typedef void*       pointer;
  69:/usr/include/c++/4.8/bits/allocator.h ****       typedef const void* const_pointer;
  70:/usr/include/c++/4.8/bits/allocator.h ****       typedef void        value_type;
  71:/usr/include/c++/4.8/bits/allocator.h **** 
  72:/usr/include/c++/4.8/bits/allocator.h ****       template<typename _Tp1>
  73:/usr/include/c++/4.8/bits/allocator.h ****         struct rebind
  74:/usr/include/c++/4.8/bits/allocator.h ****         { typedef allocator<_Tp1> other; };
  75:/usr/include/c++/4.8/bits/allocator.h **** 
  76:/usr/include/c++/4.8/bits/allocator.h **** #if __cplusplus >= 201103L
  77:/usr/include/c++/4.8/bits/allocator.h ****       // _GLIBCXX_RESOLVE_LIB_DEFECTS
  78:/usr/include/c++/4.8/bits/allocator.h ****       // 2103. std::allocator propagate_on_container_move_assignment
  79:/usr/include/c++/4.8/bits/allocator.h ****       typedef true_type propagate_on_container_move_assignment;
  80:/usr/include/c++/4.8/bits/allocator.h **** #endif
  81:/usr/include/c++/4.8/bits/allocator.h ****     };
  82:/usr/include/c++/4.8/bits/allocator.h **** 
  83:/usr/include/c++/4.8/bits/allocator.h ****   /**
  84:/usr/include/c++/4.8/bits/allocator.h ****    * @brief  The @a standard allocator, as per [20.4].
  85:/usr/include/c++/4.8/bits/allocator.h ****    *
  86:/usr/include/c++/4.8/bits/allocator.h ****    *  See http://gcc.gnu.org/onlinedocs/libstdc++/manual/bk01pt04ch11.html
  87:/usr/include/c++/4.8/bits/allocator.h ****    *  for further details.
  88:/usr/include/c++/4.8/bits/allocator.h ****    *
  89:/usr/include/c++/4.8/bits/allocator.h ****    *  @tparam  _Tp  Type of allocated object.
  90:/usr/include/c++/4.8/bits/allocator.h ****    */
  91:/usr/include/c++/4.8/bits/allocator.h ****   template<typename _Tp>
  92:/usr/include/c++/4.8/bits/allocator.h ****     class allocator: public __allocator_base<_Tp>
  93:/usr/include/c++/4.8/bits/allocator.h ****     {
  94:/usr/include/c++/4.8/bits/allocator.h ****    public:
  95:/usr/include/c++/4.8/bits/allocator.h ****       typedef size_t     size_type;
  96:/usr/include/c++/4.8/bits/allocator.h ****       typedef ptrdiff_t  difference_type;
  97:/usr/include/c++/4.8/bits/allocator.h ****       typedef _Tp*       pointer;
  98:/usr/include/c++/4.8/bits/allocator.h ****       typedef const _Tp* const_pointer;
  99:/usr/include/c++/4.8/bits/allocator.h ****       typedef _Tp&       reference;
 100:/usr/include/c++/4.8/bits/allocator.h ****       typedef const _Tp& const_reference;
 101:/usr/include/c++/4.8/bits/allocator.h ****       typedef _Tp        value_type;
 102:/usr/include/c++/4.8/bits/allocator.h **** 
 103:/usr/include/c++/4.8/bits/allocator.h ****       template<typename _Tp1>
 104:/usr/include/c++/4.8/bits/allocator.h ****         struct rebind
 105:/usr/include/c++/4.8/bits/allocator.h ****         { typedef allocator<_Tp1> other; };
 106:/usr/include/c++/4.8/bits/allocator.h **** 
 107:/usr/include/c++/4.8/bits/allocator.h **** #if __cplusplus >= 201103L
 108:/usr/include/c++/4.8/bits/allocator.h ****       // _GLIBCXX_RESOLVE_LIB_DEFECTS
 109:/usr/include/c++/4.8/bits/allocator.h ****       // 2103. std::allocator propagate_on_container_move_assignment
 110:/usr/include/c++/4.8/bits/allocator.h ****       typedef true_type propagate_on_container_move_assignment;
 111:/usr/include/c++/4.8/bits/allocator.h **** #endif
 112:/usr/include/c++/4.8/bits/allocator.h **** 
 113:/usr/include/c++/4.8/bits/allocator.h ****       allocator() throw() { }
 4741              		.loc 6 113 0
 4742              		.cfi_startproc
 4743 0000 55       		pushq	%rbp
 4744              		.cfi_def_cfa_offset 16
 4745              		.cfi_offset 6, -16
 4746 0001 4889E5   		movq	%rsp, %rbp
 4747              		.cfi_def_cfa_register 6
 4748 0004 4883EC10 		subq	$16, %rsp
 4749 0008 48897DF8 		movq	%rdi, -8(%rbp)
 4750              	.LBB99:
 4751              		.loc 6 113 0
 4752 000c 488B45F8 		movq	-8(%rbp), %rax
 4753 0010 4889C7   		movq	%rax, %rdi
 4754 0013 E8000000 		call	_ZN9__gnu_cxx13new_allocatorIfEC2Ev
 4754      00
 4755              	.LBE99:
 4756 0018 C9       		leave
 4757              		.cfi_def_cfa 7, 8
 4758 0019 C3       		ret
 4759              		.cfi_endproc
 4760              	.LFE1410:
 4762              		.weak	_ZNSaIfEC1Ev
 4763              		.set	_ZNSaIfEC1Ev,_ZNSaIfEC2Ev
 4764              		.section	.text._ZNSaIfED2Ev,"axG",@progbits,_ZNSaIfED5Ev,comdat
 4765              		.align 2
 4766              		.weak	_ZNSaIfED2Ev
 4768              	_ZNSaIfED2Ev:
 4769              	.LFB1413:
 114:/usr/include/c++/4.8/bits/allocator.h **** 
 115:/usr/include/c++/4.8/bits/allocator.h ****       allocator(const allocator& __a) throw()
 116:/usr/include/c++/4.8/bits/allocator.h ****       : __allocator_base<_Tp>(__a) { }
 117:/usr/include/c++/4.8/bits/allocator.h **** 
 118:/usr/include/c++/4.8/bits/allocator.h ****       template<typename _Tp1>
 119:/usr/include/c++/4.8/bits/allocator.h ****         allocator(const allocator<_Tp1>&) throw() { }
 120:/usr/include/c++/4.8/bits/allocator.h **** 
 121:/usr/include/c++/4.8/bits/allocator.h ****       ~allocator() throw() { }
 4770              		.loc 6 121 0
 4771              		.cfi_startproc
 4772 0000 55       		pushq	%rbp
 4773              		.cfi_def_cfa_offset 16
 4774              		.cfi_offset 6, -16
 4775 0001 4889E5   		movq	%rsp, %rbp
 4776              		.cfi_def_cfa_register 6
 4777 0004 4883EC10 		subq	$16, %rsp
 4778 0008 48897DF8 		movq	%rdi, -8(%rbp)
 4779              	.LBB100:
 4780              		.loc 6 121 0
 4781 000c 488B45F8 		movq	-8(%rbp), %rax
 4782 0010 4889C7   		movq	%rax, %rdi
 4783 0013 E8000000 		call	_ZN9__gnu_cxx13new_allocatorIfED2Ev
 4783      00
 4784              	.LBE100:
 4785 0018 C9       		leave
 4786              		.cfi_def_cfa 7, 8
 4787 0019 C3       		ret
 4788              		.cfi_endproc
 4789              	.LFE1413:
 4791              		.weak	_ZNSaIfED1Ev
 4792              		.set	_ZNSaIfED1Ev,_ZNSaIfED2Ev
 4793              		.section	.text._ZNSt6vectorIfSaIfEEC2EmRKfRKS0_,"axG",@progbits,_ZNSt6vectorIfSaIfEEC5EmRKfRKS0_,c
 4794              		.align 2
 4795              		.weak	_ZNSt6vectorIfSaIfEEC2EmRKfRKS0_
 4797              	_ZNSt6vectorIfSaIfEEC2EmRKfRKS0_:
 4798              	.LFB1416:
 4799              		.file 7 "/usr/include/c++/4.8/bits/stl_vector.h"
   1:/usr/include/c++/4.8/bits/stl_vector.h **** // Vector implementation -*- C++ -*-
   2:/usr/include/c++/4.8/bits/stl_vector.h **** 
   3:/usr/include/c++/4.8/bits/stl_vector.h **** // Copyright (C) 2001-2013 Free Software Foundation, Inc.
   4:/usr/include/c++/4.8/bits/stl_vector.h **** //
   5:/usr/include/c++/4.8/bits/stl_vector.h **** // This file is part of the GNU ISO C++ Library.  This library is free
   6:/usr/include/c++/4.8/bits/stl_vector.h **** // software; you can redistribute it and/or modify it under the
   7:/usr/include/c++/4.8/bits/stl_vector.h **** // terms of the GNU General Public License as published by the
   8:/usr/include/c++/4.8/bits/stl_vector.h **** // Free Software Foundation; either version 3, or (at your option)
   9:/usr/include/c++/4.8/bits/stl_vector.h **** // any later version.
  10:/usr/include/c++/4.8/bits/stl_vector.h **** 
  11:/usr/include/c++/4.8/bits/stl_vector.h **** // This library is distributed in the hope that it will be useful,
  12:/usr/include/c++/4.8/bits/stl_vector.h **** // but WITHOUT ANY WARRANTY; without even the implied warranty of
  13:/usr/include/c++/4.8/bits/stl_vector.h **** // MERCHANTABILITY or FITNESS FOR A PARTICULAR PURPOSE.  See the
  14:/usr/include/c++/4.8/bits/stl_vector.h **** // GNU General Public License for more details.
  15:/usr/include/c++/4.8/bits/stl_vector.h **** 
  16:/usr/include/c++/4.8/bits/stl_vector.h **** // Under Section 7 of GPL version 3, you are granted additional
  17:/usr/include/c++/4.8/bits/stl_vector.h **** // permissions described in the GCC Runtime Library Exception, version
  18:/usr/include/c++/4.8/bits/stl_vector.h **** // 3.1, as published by the Free Software Foundation.
  19:/usr/include/c++/4.8/bits/stl_vector.h **** 
  20:/usr/include/c++/4.8/bits/stl_vector.h **** // You should have received a copy of the GNU General Public License and
  21:/usr/include/c++/4.8/bits/stl_vector.h **** // a copy of the GCC Runtime Library Exception along with this program;
  22:/usr/include/c++/4.8/bits/stl_vector.h **** // see the files COPYING3 and COPYING.RUNTIME respectively.  If not, see
  23:/usr/include/c++/4.8/bits/stl_vector.h **** // <http://www.gnu.org/licenses/>.
  24:/usr/include/c++/4.8/bits/stl_vector.h **** 
  25:/usr/include/c++/4.8/bits/stl_vector.h **** /*
  26:/usr/include/c++/4.8/bits/stl_vector.h ****  *
  27:/usr/include/c++/4.8/bits/stl_vector.h ****  * Copyright (c) 1994
  28:/usr/include/c++/4.8/bits/stl_vector.h ****  * Hewlett-Packard Company
  29:/usr/include/c++/4.8/bits/stl_vector.h ****  *
  30:/usr/include/c++/4.8/bits/stl_vector.h ****  * Permission to use, copy, modify, distribute and sell this software
  31:/usr/include/c++/4.8/bits/stl_vector.h ****  * and its documentation for any purpose is hereby granted without fee,
  32:/usr/include/c++/4.8/bits/stl_vector.h ****  * provided that the above copyright notice appear in all copies and
  33:/usr/include/c++/4.8/bits/stl_vector.h ****  * that both that copyright notice and this permission notice appear
  34:/usr/include/c++/4.8/bits/stl_vector.h ****  * in supporting documentation.  Hewlett-Packard Company makes no
  35:/usr/include/c++/4.8/bits/stl_vector.h ****  * representations about the suitability of this software for any
  36:/usr/include/c++/4.8/bits/stl_vector.h ****  * purpose.  It is provided "as is" without express or implied warranty.
  37:/usr/include/c++/4.8/bits/stl_vector.h ****  *
  38:/usr/include/c++/4.8/bits/stl_vector.h ****  *
  39:/usr/include/c++/4.8/bits/stl_vector.h ****  * Copyright (c) 1996
  40:/usr/include/c++/4.8/bits/stl_vector.h ****  * Silicon Graphics Computer Systems, Inc.
  41:/usr/include/c++/4.8/bits/stl_vector.h ****  *
  42:/usr/include/c++/4.8/bits/stl_vector.h ****  * Permission to use, copy, modify, distribute and sell this software
  43:/usr/include/c++/4.8/bits/stl_vector.h ****  * and its documentation for any purpose is hereby granted without fee,
  44:/usr/include/c++/4.8/bits/stl_vector.h ****  * provided that the above copyright notice appear in all copies and
  45:/usr/include/c++/4.8/bits/stl_vector.h ****  * that both that copyright notice and this permission notice appear
  46:/usr/include/c++/4.8/bits/stl_vector.h ****  * in supporting documentation.  Silicon Graphics makes no
  47:/usr/include/c++/4.8/bits/stl_vector.h ****  * representations about the suitability of this  software for any
  48:/usr/include/c++/4.8/bits/stl_vector.h ****  * purpose.  It is provided "as is" without express or implied warranty.
  49:/usr/include/c++/4.8/bits/stl_vector.h ****  */
  50:/usr/include/c++/4.8/bits/stl_vector.h **** 
  51:/usr/include/c++/4.8/bits/stl_vector.h **** /** @file bits/stl_vector.h
  52:/usr/include/c++/4.8/bits/stl_vector.h ****  *  This is an internal header file, included by other library headers.
  53:/usr/include/c++/4.8/bits/stl_vector.h ****  *  Do not attempt to use it directly. @headername{vector}
  54:/usr/include/c++/4.8/bits/stl_vector.h ****  */
  55:/usr/include/c++/4.8/bits/stl_vector.h **** 
  56:/usr/include/c++/4.8/bits/stl_vector.h **** #ifndef _STL_VECTOR_H
  57:/usr/include/c++/4.8/bits/stl_vector.h **** #define _STL_VECTOR_H 1
  58:/usr/include/c++/4.8/bits/stl_vector.h **** 
  59:/usr/include/c++/4.8/bits/stl_vector.h **** #include <bits/stl_iterator_base_funcs.h>
  60:/usr/include/c++/4.8/bits/stl_vector.h **** #include <bits/functexcept.h>
  61:/usr/include/c++/4.8/bits/stl_vector.h **** #include <bits/concept_check.h>
  62:/usr/include/c++/4.8/bits/stl_vector.h **** #if __cplusplus >= 201103L
  63:/usr/include/c++/4.8/bits/stl_vector.h **** #include <initializer_list>
  64:/usr/include/c++/4.8/bits/stl_vector.h **** #endif
  65:/usr/include/c++/4.8/bits/stl_vector.h **** 
  66:/usr/include/c++/4.8/bits/stl_vector.h **** namespace std _GLIBCXX_VISIBILITY(default)
  67:/usr/include/c++/4.8/bits/stl_vector.h **** {
  68:/usr/include/c++/4.8/bits/stl_vector.h **** _GLIBCXX_BEGIN_NAMESPACE_CONTAINER
  69:/usr/include/c++/4.8/bits/stl_vector.h **** 
  70:/usr/include/c++/4.8/bits/stl_vector.h ****   /// See bits/stl_deque.h's _Deque_base for an explanation.
  71:/usr/include/c++/4.8/bits/stl_vector.h ****   template<typename _Tp, typename _Alloc>
  72:/usr/include/c++/4.8/bits/stl_vector.h ****     struct _Vector_base
  73:/usr/include/c++/4.8/bits/stl_vector.h ****     {
  74:/usr/include/c++/4.8/bits/stl_vector.h ****       typedef typename __gnu_cxx::__alloc_traits<_Alloc>::template
  75:/usr/include/c++/4.8/bits/stl_vector.h ****         rebind<_Tp>::other _Tp_alloc_type;
  76:/usr/include/c++/4.8/bits/stl_vector.h ****       typedef typename __gnu_cxx::__alloc_traits<_Tp_alloc_type>::pointer
  77:/usr/include/c++/4.8/bits/stl_vector.h ****        	pointer;
  78:/usr/include/c++/4.8/bits/stl_vector.h **** 
  79:/usr/include/c++/4.8/bits/stl_vector.h ****       struct _Vector_impl 
  80:/usr/include/c++/4.8/bits/stl_vector.h ****       : public _Tp_alloc_type
  81:/usr/include/c++/4.8/bits/stl_vector.h ****       {
  82:/usr/include/c++/4.8/bits/stl_vector.h **** 	pointer _M_start;
  83:/usr/include/c++/4.8/bits/stl_vector.h **** 	pointer _M_finish;
  84:/usr/include/c++/4.8/bits/stl_vector.h **** 	pointer _M_end_of_storage;
  85:/usr/include/c++/4.8/bits/stl_vector.h **** 
  86:/usr/include/c++/4.8/bits/stl_vector.h **** 	_Vector_impl()
  87:/usr/include/c++/4.8/bits/stl_vector.h **** 	: _Tp_alloc_type(), _M_start(0), _M_finish(0), _M_end_of_storage(0)
  88:/usr/include/c++/4.8/bits/stl_vector.h **** 	{ }
  89:/usr/include/c++/4.8/bits/stl_vector.h **** 
  90:/usr/include/c++/4.8/bits/stl_vector.h **** 	_Vector_impl(_Tp_alloc_type const& __a)
  91:/usr/include/c++/4.8/bits/stl_vector.h **** 	: _Tp_alloc_type(__a), _M_start(0), _M_finish(0), _M_end_of_storage(0)
  92:/usr/include/c++/4.8/bits/stl_vector.h **** 	{ }
  93:/usr/include/c++/4.8/bits/stl_vector.h **** 
  94:/usr/include/c++/4.8/bits/stl_vector.h **** #if __cplusplus >= 201103L
  95:/usr/include/c++/4.8/bits/stl_vector.h **** 	_Vector_impl(_Tp_alloc_type&& __a)
  96:/usr/include/c++/4.8/bits/stl_vector.h **** 	: _Tp_alloc_type(std::move(__a)),
  97:/usr/include/c++/4.8/bits/stl_vector.h **** 	  _M_start(0), _M_finish(0), _M_end_of_storage(0)
  98:/usr/include/c++/4.8/bits/stl_vector.h **** 	{ }
  99:/usr/include/c++/4.8/bits/stl_vector.h **** #endif
 100:/usr/include/c++/4.8/bits/stl_vector.h **** 
 101:/usr/include/c++/4.8/bits/stl_vector.h **** 	void _M_swap_data(_Vector_impl& __x)
 102:/usr/include/c++/4.8/bits/stl_vector.h **** 	{
 103:/usr/include/c++/4.8/bits/stl_vector.h **** 	  std::swap(_M_start, __x._M_start);
 104:/usr/include/c++/4.8/bits/stl_vector.h **** 	  std::swap(_M_finish, __x._M_finish);
 105:/usr/include/c++/4.8/bits/stl_vector.h **** 	  std::swap(_M_end_of_storage, __x._M_end_of_storage);
 106:/usr/include/c++/4.8/bits/stl_vector.h **** 	}
 107:/usr/include/c++/4.8/bits/stl_vector.h ****       };
 108:/usr/include/c++/4.8/bits/stl_vector.h ****       
 109:/usr/include/c++/4.8/bits/stl_vector.h ****     public:
 110:/usr/include/c++/4.8/bits/stl_vector.h ****       typedef _Alloc allocator_type;
 111:/usr/include/c++/4.8/bits/stl_vector.h **** 
 112:/usr/include/c++/4.8/bits/stl_vector.h ****       _Tp_alloc_type&
 113:/usr/include/c++/4.8/bits/stl_vector.h ****       _M_get_Tp_allocator() _GLIBCXX_NOEXCEPT
 114:/usr/include/c++/4.8/bits/stl_vector.h ****       { return *static_cast<_Tp_alloc_type*>(&this->_M_impl); }
 115:/usr/include/c++/4.8/bits/stl_vector.h **** 
 116:/usr/include/c++/4.8/bits/stl_vector.h ****       const _Tp_alloc_type&
 117:/usr/include/c++/4.8/bits/stl_vector.h ****       _M_get_Tp_allocator() const _GLIBCXX_NOEXCEPT
 118:/usr/include/c++/4.8/bits/stl_vector.h ****       { return *static_cast<const _Tp_alloc_type*>(&this->_M_impl); }
 119:/usr/include/c++/4.8/bits/stl_vector.h **** 
 120:/usr/include/c++/4.8/bits/stl_vector.h ****       allocator_type
 121:/usr/include/c++/4.8/bits/stl_vector.h ****       get_allocator() const _GLIBCXX_NOEXCEPT
 122:/usr/include/c++/4.8/bits/stl_vector.h ****       { return allocator_type(_M_get_Tp_allocator()); }
 123:/usr/include/c++/4.8/bits/stl_vector.h **** 
 124:/usr/include/c++/4.8/bits/stl_vector.h ****       _Vector_base()
 125:/usr/include/c++/4.8/bits/stl_vector.h ****       : _M_impl() { }
 126:/usr/include/c++/4.8/bits/stl_vector.h **** 
 127:/usr/include/c++/4.8/bits/stl_vector.h ****       _Vector_base(const allocator_type& __a)
 128:/usr/include/c++/4.8/bits/stl_vector.h ****       : _M_impl(__a) { }
 129:/usr/include/c++/4.8/bits/stl_vector.h **** 
 130:/usr/include/c++/4.8/bits/stl_vector.h ****       _Vector_base(size_t __n)
 131:/usr/include/c++/4.8/bits/stl_vector.h ****       : _M_impl()
 132:/usr/include/c++/4.8/bits/stl_vector.h ****       { _M_create_storage(__n); }
 133:/usr/include/c++/4.8/bits/stl_vector.h **** 
 134:/usr/include/c++/4.8/bits/stl_vector.h ****       _Vector_base(size_t __n, const allocator_type& __a)
 135:/usr/include/c++/4.8/bits/stl_vector.h ****       : _M_impl(__a)
 136:/usr/include/c++/4.8/bits/stl_vector.h ****       { _M_create_storage(__n); }
 137:/usr/include/c++/4.8/bits/stl_vector.h **** 
