   1              		.file	"TestDeferredTestReporter.cpp"
   2              		.text
   3              	.Ltext0:
   4              		.section	.rodata
   5              	.LC0:
   6 0000 44656661 		.string	"DefaultSuite"
   6      756C7453 
   6      75697465 
   6      00
   7              		.section	.text._ZN13UnitTestSuite12GetSuiteNameEv,"axG",@progbits,_ZN13UnitTestSuite12GetSuiteName
   8              		.weak	_ZN13UnitTestSuite12GetSuiteNameEv
  10              	_ZN13UnitTestSuite12GetSuiteNameEv:
  11              	.LFB0:
  12              		.file 1 "../TestSuite.h"
   1:../TestSuite.h **** #ifndef UNITTEST_TESTSUITE_H
   2:../TestSuite.h **** #define UNITTEST_TESTSUITE_H
   3:../TestSuite.h **** 
   4:../TestSuite.h **** namespace UnitTestSuite {
   5:../TestSuite.h **** 
   6:../TestSuite.h ****     inline char const* GetSuiteName ()
   7:../TestSuite.h ****     {
  13              		.loc 1 7 0
  14              		.cfi_startproc
  15 0000 55       		pushq	%rbp
  16              		.cfi_def_cfa_offset 16
  17              		.cfi_offset 6, -16
  18 0001 4889E5   		movq	%rsp, %rbp
  19              		.cfi_def_cfa_register 6
   8:../TestSuite.h ****         return "DefaultSuite";
  20              		.loc 1 8 0
  21 0004 B8000000 		movl	$.LC0, %eax
  21      00
   9:../TestSuite.h ****     }
  22              		.loc 1 9 0
  23 0009 5D       		popq	%rbp
  24              		.cfi_def_cfa 7, 8
  25 000a C3       		ret
  26              		.cfi_endproc
  27              	.LFE0:
  29              		.section	.text._ZN8UnitTest15MemoryOutStreamC1Ev,"axG",@progbits,_ZN8UnitTest15MemoryOutStreamC1Ev
  30              		.align 2
  31              		.weak	_ZN8UnitTest15MemoryOutStreamC1Ev
  33              	_ZN8UnitTest15MemoryOutStreamC1Ev:
  34              	.LFB1007:
  35              		.file 2 "../MemoryOutStream.h"
   1:../MemoryOutStream.h **** #ifndef UNITTEST_MEMORYOUTSTREAM_H
   2:../MemoryOutStream.h **** #define UNITTEST_MEMORYOUTSTREAM_H
   3:../MemoryOutStream.h **** 
   4:../MemoryOutStream.h **** #include "Config.h"
   5:../MemoryOutStream.h **** 
   6:../MemoryOutStream.h **** #ifndef UNITTEST_USE_CUSTOM_STREAMS
   7:../MemoryOutStream.h **** 
   8:../MemoryOutStream.h **** #include <sstream>
   9:../MemoryOutStream.h **** 
  10:../MemoryOutStream.h **** namespace UnitTest
  11:../MemoryOutStream.h **** {
  12:../MemoryOutStream.h **** 
  13:../MemoryOutStream.h **** class MemoryOutStream : public std::ostringstream
  14:../MemoryOutStream.h **** {
  15:../MemoryOutStream.h **** public:
  16:../MemoryOutStream.h ****     MemoryOutStream() {}
  36              		.loc 2 16 0
  37              		.cfi_startproc
  38              		.cfi_personality 0x3,__gxx_personality_v0
  39              		.cfi_lsda 0x3,.LLSDA1007
  40 0000 55       		pushq	%rbp
  41              		.cfi_def_cfa_offset 16
  42              		.cfi_offset 6, -16
  43 0001 4889E5   		movq	%rsp, %rbp
  44              		.cfi_def_cfa_register 6
  45 0004 53       		pushq	%rbx
  46 0005 4883EC18 		subq	$24, %rsp
  47              		.cfi_offset 3, -24
  48 0009 48897DE8 		movq	%rdi, -24(%rbp)
  49              	.LBB2:
  50              		.loc 2 16 0
  51 000d 488B45E8 		movq	-24(%rbp), %rax
  52 0011 4883C060 		addq	$96, %rax
  53 0015 4889C7   		movq	%rax, %rdi
  54              	.LEHB0:
  55 0018 E8000000 		call	_ZNSt9basic_iosIcSt11char_traitsIcEEC2Ev
  55      00
  56              	.LEHE0:
  57 001d B9000000 		movl	$_ZTTN8UnitTest15MemoryOutStreamE+8, %ecx
  57      00
  58 0022 488B45E8 		movq	-24(%rbp), %rax
  59 0026 BA100000 		movl	$16, %edx
  59      00
  60 002b 4889CE   		movq	%rcx, %rsi
  61 002e 4889C7   		movq	%rax, %rdi
  62              	.LEHB1:
  63 0031 E8000000 		call	_ZNSt19basic_ostringstreamIcSt11char_traitsIcESaIcEEC2ESt13_Ios_Openmode
  63      00
  64              	.LEHE1:
  65              		.loc 2 16 0 is_stmt 0 discriminator 6
  66 0036 BA000000 		movl	$_ZTVN8UnitTest15MemoryOutStreamE+24, %edx
  66      00
  67 003b 488B45E8 		movq	-24(%rbp), %rax
  68 003f 488910   		movq	%rdx, (%rax)
  69 0042 BA600000 		movl	$96, %edx
  69      00
  70 0047 488B45E8 		movq	-24(%rbp), %rax
  71 004b 4801C2   		addq	%rax, %rdx
  72 004e B8000000 		movl	$_ZTVN8UnitTest15MemoryOutStreamE+64, %eax
  72      00
  73 0053 488902   		movq	%rax, (%rdx)
  74 0056 488B45E8 		movq	-24(%rbp), %rax
  75 005a 4883C058 		addq	$88, %rax
  76 005e 4889C7   		movq	%rax, %rdi
  77              	.LEHB2:
  78 0061 E8000000 		call	_ZNSsC1Ev
  78      00
  79              	.LEHE2:
  80              	.LBE2:
  81              		.loc 2 16 0
  82 0066 EB37     		jmp	.L8
  83              	.L6:
  84 0068 4889C3   		movq	%rax, %rbx
  85              	.LBB3:
  86 006b BA000000 		movl	$_ZTTN8UnitTest15MemoryOutStreamE+8, %edx
  86      00
  87 0070 488B45E8 		movq	-24(%rbp), %rax
  88 0074 4889D6   		movq	%rdx, %rsi
  89 0077 4889C7   		movq	%rax, %rdi
  90 007a E8000000 		call	_ZNSt19basic_ostringstreamIcSt11char_traitsIcESaIcEED2Ev
  90      00
  91 007f EB03     		jmp	.L5
  92              	.L7:
  93 0081 4889C3   		movq	%rax, %rbx
  94              	.L5:
  95              		.loc 2 16 0 discriminator 19
  96 0084 488B45E8 		movq	-24(%rbp), %rax
  97 0088 4883C060 		addq	$96, %rax
  98 008c 4889C7   		movq	%rax, %rdi
  99 008f E8000000 		call	_ZNSt9basic_iosIcSt11char_traitsIcEED2Ev
  99      00
 100 0094 4889D8   		movq	%rbx, %rax
 101 0097 4889C7   		movq	%rax, %rdi
 102              	.LEHB3:
 103 009a E8000000 		call	_Unwind_Resume
 103      00
 104              	.LEHE3:
 105              	.L8:
 106              	.LBE3:
 107              		.loc 2 16 0
 108 009f 4883C418 		addq	$24, %rsp
 109 00a3 5B       		popq	%rbx
 110 00a4 5D       		popq	%rbp
 111              		.cfi_def_cfa 7, 8
 112 00a5 C3       		ret
 113              		.cfi_endproc
 114              	.LFE1007:
 115              		.globl	__gxx_personality_v0
 116              		.section	.gcc_except_table._ZN8UnitTest15MemoryOutStreamC1Ev,"aG",@progbits,_ZN8UnitTest15MemoryOu
 117              	.LLSDA1007:
 118 0000 FF       		.byte	0xff
 119 0001 FF       		.byte	0xff
 120 0002 01       		.byte	0x1
 121 0003 12       		.uleb128 .LLSDACSE1007-.LLSDACSB1007
 122              	.LLSDACSB1007:
 123 0004 18       		.uleb128 .LEHB0-.LFB1007
 124 0005 05       		.uleb128 .LEHE0-.LEHB0
 125 0006 00       		.uleb128 0
 126 0007 00       		.uleb128 0
 127 0008 31       		.uleb128 .LEHB1-.LFB1007
 128 0009 05       		.uleb128 .LEHE1-.LEHB1
 129 000a 8101     		.uleb128 .L7-.LFB1007
 130 000c 00       		.uleb128 0
 131 000d 61       		.uleb128 .LEHB2-.LFB1007
 132 000e 05       		.uleb128 .LEHE2-.LEHB2
 133 000f 68       		.uleb128 .L6-.LFB1007
 134 0010 00       		.uleb128 0
 135 0011 9A01     		.uleb128 .LEHB3-.LFB1007
 136 0013 05       		.uleb128 .LEHE3-.LEHB3
 137 0014 00       		.uleb128 0
 138 0015 00       		.uleb128 0
 139              	.LLSDACSE1007:
 140              		.section	.text._ZN8UnitTest15MemoryOutStreamC1Ev,"axG",@progbits,_ZN8UnitTest15MemoryOutStreamC1Ev
 142              		.text
 143              		.align 2
 145              	_ZN8UnitTest12_GLOBAL__N_124MockDeferredTestReporter13ReportSummaryEiiif:
 146              	.LFB1280:
 147              		.file 3 "TestDeferredTestReporter.cpp"
   1:TestDeferredTestReporter.cpp **** #include "../UnitTest++.h"
   2:TestDeferredTestReporter.cpp **** #include "../DeferredTestReporter.h"
   3:TestDeferredTestReporter.cpp **** #include "../Config.h"
   4:TestDeferredTestReporter.cpp **** #include <cstring>
   5:TestDeferredTestReporter.cpp **** 
   6:TestDeferredTestReporter.cpp **** namespace UnitTest
   7:TestDeferredTestReporter.cpp **** {
   8:TestDeferredTestReporter.cpp **** 
   9:TestDeferredTestReporter.cpp **** namespace 
  10:TestDeferredTestReporter.cpp **** {
  11:TestDeferredTestReporter.cpp **** 
  12:TestDeferredTestReporter.cpp **** #ifdef UNITTEST_USE_CUSTOM_STREAMS
  13:TestDeferredTestReporter.cpp **** 	MemoryOutStream& operator <<(MemoryOutStream& lhs, const std::string& rhs)
  14:TestDeferredTestReporter.cpp **** 	{
  15:TestDeferredTestReporter.cpp **** 		lhs << rhs.c_str();
  16:TestDeferredTestReporter.cpp **** 		return lhs;
  17:TestDeferredTestReporter.cpp **** 	}
  18:TestDeferredTestReporter.cpp **** #endif
  19:TestDeferredTestReporter.cpp **** 
  20:TestDeferredTestReporter.cpp **** struct MockDeferredTestReporter : public DeferredTestReporter
  21:TestDeferredTestReporter.cpp **** {
  22:TestDeferredTestReporter.cpp ****     virtual void ReportSummary(int, int, int, float) 
 148              		.loc 3 22 0 is_stmt 1
 149              		.cfi_startproc
 150 0000 55       		pushq	%rbp
 151              		.cfi_def_cfa_offset 16
 152              		.cfi_offset 6, -16
 153 0001 4889E5   		movq	%rsp, %rbp
 154              		.cfi_def_cfa_register 6
 155 0004 48897DF8 		movq	%rdi, -8(%rbp)
 156 0008 8975F4   		movl	%esi, -12(%rbp)
 157 000b 8955F0   		movl	%edx, -16(%rbp)
 158 000e 894DEC   		movl	%ecx, -20(%rbp)
 159 0011 F30F1145 		movss	%xmm0, -24(%rbp)
 159      E8
  23:TestDeferredTestReporter.cpp ****     {
  24:TestDeferredTestReporter.cpp ****     }
 160              		.loc 3 24 0
 161 0016 5D       		popq	%rbp
 162              		.cfi_def_cfa 7, 8
 163 0017 C3       		ret
 164              		.cfi_endproc
 165              	.LFE1280:
 167              		.section	.text._ZN8UnitTest12TestReporterC2Ev,"axG",@progbits,_ZN8UnitTest12TestReporterC5Ev,comda
 168              		.align 2
 169              		.weak	_ZN8UnitTest12TestReporterC2Ev
 171              	_ZN8UnitTest12TestReporterC2Ev:
 172              	.LFB1285:
 173              		.file 4 "../TestReporter.h"
   1:../TestReporter.h **** #ifndef UNITTEST_TESTREPORTER_H
   2:../TestReporter.h **** #define UNITTEST_TESTREPORTER_H
   3:../TestReporter.h **** 
   4:../TestReporter.h **** namespace UnitTest {
   5:../TestReporter.h **** 
   6:../TestReporter.h **** class TestDetails;
   7:../TestReporter.h **** 
   8:../TestReporter.h **** class TestReporter
 174              		.loc 4 8 0
 175              		.cfi_startproc
 176 0000 55       		pushq	%rbp
 177              		.cfi_def_cfa_offset 16
 178              		.cfi_offset 6, -16
 179 0001 4889E5   		movq	%rsp, %rbp
 180              		.cfi_def_cfa_register 6
 181 0004 48897DF8 		movq	%rdi, -8(%rbp)
 182              	.LBB4:
 183              		.loc 4 8 0
 184 0008 488B45F8 		movq	-8(%rbp), %rax
 185 000c 48C70000 		movq	$_ZTVN8UnitTest12TestReporterE+16, (%rax)
 185      000000
 186              	.LBE4:
 187 0013 5D       		popq	%rbp
 188              		.cfi_def_cfa 7, 8
 189 0014 C3       		ret
 190              		.cfi_endproc
 191              	.LFE1285:
 193              		.weak	_ZN8UnitTest12TestReporterC1Ev
 194              		.set	_ZN8UnitTest12TestReporterC1Ev,_ZN8UnitTest12TestReporterC2Ev
 195              		.section	.text._ZN8UnitTest20DeferredTestReporterC2Ev,"axG",@progbits,_ZN8UnitTest20DeferredTestRe
 196              		.align 2
 197              		.weak	_ZN8UnitTest20DeferredTestReporterC2Ev
 199              	_ZN8UnitTest20DeferredTestReporterC2Ev:
 200              	.LFB1287:
 201              		.file 5 "../DeferredTestReporter.h"
   1:../DeferredTestReporter.h **** #ifndef UNITTEST_DEFERREDTESTREPORTER_H
   2:../DeferredTestReporter.h **** #define UNITTEST_DEFERREDTESTREPORTER_H
   3:../DeferredTestReporter.h **** 
   4:../DeferredTestReporter.h **** #include "TestReporter.h"
   5:../DeferredTestReporter.h **** #include "DeferredTestResult.h"
   6:../DeferredTestReporter.h **** 
   7:../DeferredTestReporter.h **** #include <vector>
   8:../DeferredTestReporter.h **** 
   9:../DeferredTestReporter.h **** namespace UnitTest
  10:../DeferredTestReporter.h **** {
  11:../DeferredTestReporter.h **** 
  12:../DeferredTestReporter.h **** class DeferredTestReporter : public TestReporter
 202              		.loc 5 12 0
 203              		.cfi_startproc
 204              		.cfi_personality 0x3,__gxx_personality_v0
 205              		.cfi_lsda 0x3,.LLSDA1287
 206 0000 55       		pushq	%rbp
 207              		.cfi_def_cfa_offset 16
 208              		.cfi_offset 6, -16
 209 0001 4889E5   		movq	%rsp, %rbp
 210              		.cfi_def_cfa_register 6
 211 0004 53       		pushq	%rbx
 212 0005 4883EC18 		subq	$24, %rsp
 213              		.cfi_offset 3, -24
 214 0009 48897DE8 		movq	%rdi, -24(%rbp)
 215              	.LBB5:
 216              		.loc 5 12 0
 217 000d 488B45E8 		movq	-24(%rbp), %rax
 218 0011 4889C7   		movq	%rax, %rdi
 219 0014 E8000000 		call	_ZN8UnitTest12TestReporterC2Ev
 219      00
 220 0019 488B45E8 		movq	-24(%rbp), %rax
 221 001d 48C70000 		movq	$_ZTVN8UnitTest20DeferredTestReporterE+16, (%rax)
 221      000000
 222 0024 488B45E8 		movq	-24(%rbp), %rax
 223 0028 4883C008 		addq	$8, %rax
 224 002c 4889C7   		movq	%rax, %rdi
 225              	.LEHB4:
 226 002f E8000000 		call	_ZNSt6vectorIN8UnitTest18DeferredTestResultESaIS1_EEC1Ev
 226      00
 227              	.LEHE4:
 228              	.LBE5:
 229 0034 EB1A     		jmp	.L14
 230              	.L13:
 231 0036 4889C3   		movq	%rax, %rbx
 232              	.LBB6:
 233 0039 488B45E8 		movq	-24(%rbp), %rax
 234 003d 4889C7   		movq	%rax, %rdi
 235 0040 E8000000 		call	_ZN8UnitTest12TestReporterD2Ev
 235      00
 236 0045 4889D8   		movq	%rbx, %rax
 237 0048 4889C7   		movq	%rax, %rdi
 238              	.LEHB5:
 239 004b E8000000 		call	_Unwind_Resume
 239      00
 240              	.LEHE5:
 241              	.L14:
 242              	.LBE6:
 243 0050 4883C418 		addq	$24, %rsp
 244 0054 5B       		popq	%rbx
 245 0055 5D       		popq	%rbp
 246              		.cfi_def_cfa 7, 8
 247 0056 C3       		ret
 248              		.cfi_endproc
 249              	.LFE1287:
 250              		.section	.gcc_except_table._ZN8UnitTest20DeferredTestReporterC2Ev,"aG",@progbits,_ZN8UnitTest20Def
 251              	.LLSDA1287:
 252 0000 FF       		.byte	0xff
 253 0001 FF       		.byte	0xff
 254 0002 01       		.byte	0x1
 255 0003 08       		.uleb128 .LLSDACSE1287-.LLSDACSB1287
 256              	.LLSDACSB1287:
 257 0004 2F       		.uleb128 .LEHB4-.LFB1287
 258 0005 05       		.uleb128 .LEHE4-.LEHB4
 259 0006 36       		.uleb128 .L13-.LFB1287
 260 0007 00       		.uleb128 0
 261 0008 4B       		.uleb128 .LEHB5-.LFB1287
 262 0009 05       		.uleb128 .LEHE5-.LEHB5
 263 000a 00       		.uleb128 0
 264 000b 00       		.uleb128 0
 265              	.LLSDACSE1287:
 266              		.section	.text._ZN8UnitTest20DeferredTestReporterC2Ev,"axG",@progbits,_ZN8UnitTest20DeferredTestRe
 268              		.weak	_ZN8UnitTest20DeferredTestReporterC1Ev
 269              		.set	_ZN8UnitTest20DeferredTestReporterC1Ev,_ZN8UnitTest20DeferredTestReporterC2Ev
 270              		.section	.text._ZN8UnitTest20DeferredTestReporterD2Ev,"axG",@progbits,_ZN8UnitTest20DeferredTestRe
 271              		.align 2
 272              		.weak	_ZN8UnitTest20DeferredTestReporterD2Ev
 274              	_ZN8UnitTest20DeferredTestReporterD2Ev:
 275              	.LFB1290:
 276              		.loc 5 12 0
 277              		.cfi_startproc
 278              		.cfi_personality 0x3,__gxx_personality_v0
 279              		.cfi_lsda 0x3,.LLSDA1290
 280 0000 55       		pushq	%rbp
 281              		.cfi_def_cfa_offset 16
 282              		.cfi_offset 6, -16
 283 0001 4889E5   		movq	%rsp, %rbp
 284              		.cfi_def_cfa_register 6
 285 0004 53       		pushq	%rbx
 286 0005 4883EC18 		subq	$24, %rsp
 287              		.cfi_offset 3, -24
 288 0009 48897DE8 		movq	%rdi, -24(%rbp)
 289              	.LBB7:
 290              		.loc 5 12 0
 291 000d 488B45E8 		movq	-24(%rbp), %rax
 292 0011 48C70000 		movq	$_ZTVN8UnitTest20DeferredTestReporterE+16, (%rax)
 292      000000
 293 0018 488B45E8 		movq	-24(%rbp), %rax
 294 001c 4883C008 		addq	$8, %rax
 295 0020 4889C7   		movq	%rax, %rdi
 296              	.LEHB6:
 297 0023 E8000000 		call	_ZNSt6vectorIN8UnitTest18DeferredTestResultESaIS1_EED1Ev
 297      00
 298              	.LEHE6:
 299              		.loc 5 12 0 is_stmt 0 discriminator 1
 300 0028 488B45E8 		movq	-24(%rbp), %rax
 301 002c 4889C7   		movq	%rax, %rdi
 302              	.LEHB7:
 303 002f E8000000 		call	_ZN8UnitTest12TestReporterD2Ev
 303      00
 304              	.LEHE7:
 305              	.LBE7:
 306 0034 B8000000 		movl	$0, %eax
 306      00
 307 0039 85C0     		testl	%eax, %eax
 308 003b 7428     		je	.L20
 309 003d 488B45E8 		movq	-24(%rbp), %rax
 310 0041 4889C7   		movq	%rax, %rdi
 311 0044 E8000000 		call	_ZdlPv
 311      00
 312 0049 EB1A     		jmp	.L20
 313              	.L19:
 314 004b 4889C3   		movq	%rax, %rbx
 315              	.LBB8:
 316              		.loc 5 12 0
 317 004e 488B45E8 		movq	-24(%rbp), %rax
 318 0052 4889C7   		movq	%rax, %rdi
 319 0055 E8000000 		call	_ZN8UnitTest12TestReporterD2Ev
 319      00
 320 005a 4889D8   		movq	%rbx, %rax
 321 005d 4889C7   		movq	%rax, %rdi
 322              	.LEHB8:
 323 0060 E8000000 		call	_Unwind_Resume
 323      00
 324              	.LEHE8:
 325              	.L20:
 326              	.LBE8:
 327 0065 4883C418 		addq	$24, %rsp
 328 0069 5B       		popq	%rbx
 329 006a 5D       		popq	%rbp
 330              		.cfi_def_cfa 7, 8
 331 006b C3       		ret
 332              		.cfi_endproc
 333              	.LFE1290:
 334              		.section	.gcc_except_table._ZN8UnitTest20DeferredTestReporterD2Ev,"aG",@progbits,_ZN8UnitTest20Def
 335              	.LLSDA1290:
 336 0000 FF       		.byte	0xff
 337 0001 FF       		.byte	0xff
 338 0002 01       		.byte	0x1
 339 0003 0C       		.uleb128 .LLSDACSE1290-.LLSDACSB1290
 340              	.LLSDACSB1290:
 341 0004 23       		.uleb128 .LEHB6-.LFB1290
 342 0005 05       		.uleb128 .LEHE6-.LEHB6
 343 0006 4B       		.uleb128 .L19-.LFB1290
 344 0007 00       		.uleb128 0
 345 0008 2F       		.uleb128 .LEHB7-.LFB1290
 346 0009 05       		.uleb128 .LEHE7-.LEHB7
 347 000a 00       		.uleb128 0
 348 000b 00       		.uleb128 0
 349 000c 60       		.uleb128 .LEHB8-.LFB1290
 350 000d 05       		.uleb128 .LEHE8-.LEHB8
 351 000e 00       		.uleb128 0
 352 000f 00       		.uleb128 0
 353              	.LLSDACSE1290:
 354              		.section	.text._ZN8UnitTest20DeferredTestReporterD2Ev,"axG",@progbits,_ZN8UnitTest20DeferredTestRe
 356              		.weak	_ZN8UnitTest20DeferredTestReporterD1Ev
 357              		.set	_ZN8UnitTest20DeferredTestReporterD1Ev,_ZN8UnitTest20DeferredTestReporterD2Ev
 358              		.section	.text._ZN8UnitTest20DeferredTestReporterD0Ev,"axG",@progbits,_ZN8UnitTest20DeferredTestRe
 359              		.align 2
 360              		.weak	_ZN8UnitTest20DeferredTestReporterD0Ev
 362              	_ZN8UnitTest20DeferredTestReporterD0Ev:
 363              	.LFB1292:
 364              		.loc 5 12 0 is_stmt 1
 365              		.cfi_startproc
 366 0000 55       		pushq	%rbp
 367              		.cfi_def_cfa_offset 16
 368              		.cfi_offset 6, -16
 369 0001 4889E5   		movq	%rsp, %rbp
 370              		.cfi_def_cfa_register 6
 371 0004 4883EC10 		subq	$16, %rsp
 372 0008 48897DF8 		movq	%rdi, -8(%rbp)
 373              		.loc 5 12 0
 374 000c 488B45F8 		movq	-8(%rbp), %rax
 375 0010 4889C7   		movq	%rax, %rdi
 376 0013 E8000000 		call	_ZN8UnitTest20DeferredTestReporterD1Ev
 376      00
 377 0018 488B45F8 		movq	-8(%rbp), %rax
 378 001c 4889C7   		movq	%rax, %rdi
 379 001f E8000000 		call	_ZdlPv
 379      00
 380 0024 C9       		leave
 381              		.cfi_def_cfa 7, 8
 382 0025 C3       		ret
 383              		.cfi_endproc
 384              	.LFE1292:
 386              		.text
 387              		.align 2
 389              	_ZN8UnitTest12_GLOBAL__N_124MockDeferredTestReporterC2Ev:
 390              	.LFB1293:
  20:TestDeferredTestReporter.cpp **** {
 391              		.loc 3 20 0
 392              		.cfi_startproc
 393 0018 55       		pushq	%rbp
 394              		.cfi_def_cfa_offset 16
 395              		.cfi_offset 6, -16
 396 0019 4889E5   		movq	%rsp, %rbp
 397              		.cfi_def_cfa_register 6
 398 001c 4883EC10 		subq	$16, %rsp
 399 0020 48897DF8 		movq	%rdi, -8(%rbp)
 400              	.LBB9:
  20:TestDeferredTestReporter.cpp **** {
 401              		.loc 3 20 0
 402 0024 488B45F8 		movq	-8(%rbp), %rax
 403 0028 4889C7   		movq	%rax, %rdi
 404 002b E8000000 		call	_ZN8UnitTest20DeferredTestReporterC2Ev
 404      00
 405 0030 488B45F8 		movq	-8(%rbp), %rax
 406 0034 48C70000 		movq	$_ZTVN8UnitTest12_GLOBAL__N_124MockDeferredTestReporterE+16, (%rax)
 406      000000
 407              	.LBE9:
 408 003b C9       		leave
 409              		.cfi_def_cfa 7, 8
 410 003c C3       		ret
 411              		.cfi_endproc
 412              	.LFE1293:
 414              		.set	_ZN8UnitTest12_GLOBAL__N_124MockDeferredTestReporterC1Ev,_ZN8UnitTest12_GLOBAL__N_124MockDefe
 415              		.section	.rodata
 416              	.LC1:
 417 000d 556E6971 		.string	"UniqueTestName"
 417      75655465 
 417      73744E61 
 417      6D6500
 418              	.LC2:
 419 001c 556E6971 		.string	"UniqueTestSuite"
 419      75655465 
 419      73745375 
 419      69746500 
 420              	.LC3:
 421 002c 66696C65 		.string	"filename.h"
 421      6E616D65 
 421      2E6800
 422              		.text
 423 003d 90       		.align 2
 425              	_ZN8UnitTest12_GLOBAL__N_127DeferredTestReporterFixtureC2Ev:
 426              	.LFB1295:
  25:TestDeferredTestReporter.cpp **** };
  26:TestDeferredTestReporter.cpp **** 
  27:TestDeferredTestReporter.cpp **** struct DeferredTestReporterFixture
  28:TestDeferredTestReporter.cpp **** {
  29:TestDeferredTestReporter.cpp ****     DeferredTestReporterFixture()
 427              		.loc 3 29 0
 428              		.cfi_startproc
 429              		.cfi_personality 0x3,__gxx_personality_v0
 430              		.cfi_lsda 0x3,.LLSDA1295
 431 003e 55       		pushq	%rbp
 432              		.cfi_def_cfa_offset 16
 433              		.cfi_offset 6, -16
 434 003f 4889E5   		movq	%rsp, %rbp
 435              		.cfi_def_cfa_register 6
 436 0042 4155     		pushq	%r13
 437 0044 4154     		pushq	%r12
 438 0046 53       		pushq	%rbx
 439 0047 4883EC28 		subq	$40, %rsp
 440              		.cfi_offset 13, -24
 441              		.cfi_offset 12, -32
 442              		.cfi_offset 3, -40
 443 004b 48897DC8 		movq	%rdi, -56(%rbp)
 444              	.LBB10:
  30:TestDeferredTestReporter.cpp ****         : testName("UniqueTestName")
  31:TestDeferredTestReporter.cpp ****         , testSuite("UniqueTestSuite")
  32:TestDeferredTestReporter.cpp ****         , fileName("filename.h")
  33:TestDeferredTestReporter.cpp ****         , lineNumber(12)
  34:TestDeferredTestReporter.cpp ****         , details(testName.c_str(), testSuite.c_str(), fileName.c_str(), lineNumber)
 445              		.loc 3 34 0
 446 004f 488B45C8 		movq	-56(%rbp), %rax
 447 0053 4889C7   		movq	%rax, %rdi
 448              	.LEHB9:
 449 0056 E8BDFFFF 		call	_ZN8UnitTest12_GLOBAL__N_124MockDeferredTestReporterC1Ev
 449      FF
 450              	.LEHE9:
 451 005b 488D45DF 		leaq	-33(%rbp), %rax
 452 005f 4889C7   		movq	%rax, %rdi
 453 0062 E8000000 		call	_ZNSaIcEC1Ev
 453      00
 454 0067 488B45C8 		movq	-56(%rbp), %rax
 455 006b 488D4820 		leaq	32(%rax), %rcx
 456 006f 488D45DF 		leaq	-33(%rbp), %rax
 457 0073 4889C2   		movq	%rax, %rdx
 458 0076 BE000000 		movl	$.LC1, %esi
 458      00
 459 007b 4889CF   		movq	%rcx, %rdi
 460              	.LEHB10:
 461 007e E8000000 		call	_ZNSsC1EPKcRKSaIcE
 461      00
 462              	.LEHE10:
 463              		.loc 3 34 0 is_stmt 0 discriminator 1
 464 0083 488D45DF 		leaq	-33(%rbp), %rax
 465 0087 4889C7   		movq	%rax, %rdi
 466 008a E8000000 		call	_ZNSaIcED1Ev
 466      00
 467 008f 488D45DF 		leaq	-33(%rbp), %rax
 468 0093 4889C7   		movq	%rax, %rdi
 469 0096 E8000000 		call	_ZNSaIcEC1Ev
 469      00
 470 009b 488B45C8 		movq	-56(%rbp), %rax
 471 009f 488D4828 		leaq	40(%rax), %rcx
 472 00a3 488D45DF 		leaq	-33(%rbp), %rax
 473 00a7 4889C2   		movq	%rax, %rdx
 474 00aa BE000000 		movl	$.LC2, %esi
 474      00
 475 00af 4889CF   		movq	%rcx, %rdi
 476              	.LEHB11:
 477 00b2 E8000000 		call	_ZNSsC1EPKcRKSaIcE
 477      00
 478              	.LEHE11:
 479              		.loc 3 34 0 discriminator 2
 480 00b7 488D45DF 		leaq	-33(%rbp), %rax
 481 00bb 4889C7   		movq	%rax, %rdi
 482 00be E8000000 		call	_ZNSaIcED1Ev
 482      00
 483 00c3 488D45DF 		leaq	-33(%rbp), %rax
 484 00c7 4889C7   		movq	%rax, %rdi
 485 00ca E8000000 		call	_ZNSaIcEC1Ev
 485      00
 486 00cf 488B45C8 		movq	-56(%rbp), %rax
 487 00d3 488D4830 		leaq	48(%rax), %rcx
 488 00d7 488D45DF 		leaq	-33(%rbp), %rax
 489 00db 4889C2   		movq	%rax, %rdx
 490 00de BE000000 		movl	$.LC3, %esi
 490      00
 491 00e3 4889CF   		movq	%rcx, %rdi
 492              	.LEHB12:
 493 00e6 E8000000 		call	_ZNSsC1EPKcRKSaIcE
 493      00
 494              	.LEHE12:
 495              		.loc 3 34 0 discriminator 3
 496 00eb 488D45DF 		leaq	-33(%rbp), %rax
 497 00ef 4889C7   		movq	%rax, %rdi
 498 00f2 E8000000 		call	_ZNSaIcED1Ev
 498      00
 499 00f7 488B45C8 		movq	-56(%rbp), %rax
 500 00fb C740380C 		movl	$12, 56(%rax)
 500      000000
 501 0102 488B45C8 		movq	-56(%rbp), %rax
 502 0106 448B6838 		movl	56(%rax), %r13d
 503 010a 488B45C8 		movq	-56(%rbp), %rax
 504 010e 4883C030 		addq	$48, %rax
 505 0112 4889C7   		movq	%rax, %rdi
 506              	.LEHB13:
 507 0115 E8000000 		call	_ZNKSs5c_strEv
 507      00
 508 011a 4989C4   		movq	%rax, %r12
 509 011d 488B45C8 		movq	-56(%rbp), %rax
 510 0121 4883C028 		addq	$40, %rax
 511 0125 4889C7   		movq	%rax, %rdi
 512 0128 E8000000 		call	_ZNKSs5c_strEv
 512      00
 513              		.loc 3 34 0 discriminator 4
 514 012d 4889C3   		movq	%rax, %rbx
 515 0130 488B45C8 		movq	-56(%rbp), %rax
 516 0134 4883C020 		addq	$32, %rax
 517 0138 4889C7   		movq	%rax, %rdi
 518 013b E8000000 		call	_ZNKSs5c_strEv
 518      00
 519              		.loc 3 34 0 discriminator 5
 520 0140 488B55C8 		movq	-56(%rbp), %rdx
 521 0144 488D7A40 		leaq	64(%rdx), %rdi
 522 0148 4589E8   		movl	%r13d, %r8d
 523 014b 4C89E1   		movq	%r12, %rcx
 524 014e 4889DA   		movq	%rbx, %rdx
 525 0151 4889C6   		movq	%rax, %rsi
 526 0154 E8000000 		call	_ZN8UnitTest11TestDetailsC1EPKcS2_S2_i
 526      00
 527              	.LEHE13:
 528              	.LBE10:
  35:TestDeferredTestReporter.cpp ****     {
  36:TestDeferredTestReporter.cpp ****     }
 529              		.loc 3 36 0 is_stmt 1
 530 0159 EB7D     		jmp	.L36
 531              	.L32:
 532 015b 4889C3   		movq	%rax, %rbx
 533              	.LBB11:
  34:TestDeferredTestReporter.cpp ****     {
 534              		.loc 3 34 0
 535 015e 488D45DF 		leaq	-33(%rbp), %rax
 536 0162 4889C7   		movq	%rax, %rdi
 537 0165 E8000000 		call	_ZNSaIcED1Ev
 537      00
 538 016a EB55     		jmp	.L26
 539              	.L33:
 540 016c 4889C3   		movq	%rax, %rbx
 541 016f 488D45DF 		leaq	-33(%rbp), %rax
 542 0173 4889C7   		movq	%rax, %rdi
 543 0176 E8000000 		call	_ZNSaIcED1Ev
 543      00
 544 017b EB34     		jmp	.L28
 545              	.L34:
 546 017d 4889C3   		movq	%rax, %rbx
 547 0180 488D45DF 		leaq	-33(%rbp), %rax
 548 0184 4889C7   		movq	%rax, %rdi
 549 0187 E8000000 		call	_ZNSaIcED1Ev
 549      00
 550 018c EB13     		jmp	.L30
 551              	.L35:
 552 018e 4889C3   		movq	%rax, %rbx
 553 0191 488B45C8 		movq	-56(%rbp), %rax
 554 0195 4883C030 		addq	$48, %rax
 555 0199 4889C7   		movq	%rax, %rdi
 556 019c E8000000 		call	_ZNSsD1Ev
 556      00
 557              	.L30:
 558 01a1 488B45C8 		movq	-56(%rbp), %rax
 559 01a5 4883C028 		addq	$40, %rax
 560 01a9 4889C7   		movq	%rax, %rdi
 561 01ac E8000000 		call	_ZNSsD1Ev
 561      00
 562              	.L28:
 563 01b1 488B45C8 		movq	-56(%rbp), %rax
 564 01b5 4883C020 		addq	$32, %rax
 565 01b9 4889C7   		movq	%rax, %rdi
 566 01bc E8000000 		call	_ZNSsD1Ev
 566      00
 567              	.L26:
 568 01c1 488B45C8 		movq	-56(%rbp), %rax
 569 01c5 4889C7   		movq	%rax, %rdi
 570 01c8 E8A13000 		call	_ZN8UnitTest12_GLOBAL__N_124MockDeferredTestReporterD1Ev
 570      00
 571 01cd 4889D8   		movq	%rbx, %rax
 572 01d0 4889C7   		movq	%rax, %rdi
 573              	.LEHB14:
 574 01d3 E8000000 		call	_Unwind_Resume
 574      00
 575              	.LEHE14:
 576              	.L36:
 577              	.LBE11:
 578              		.loc 3 36 0
 579 01d8 4883C428 		addq	$40, %rsp
 580 01dc 5B       		popq	%rbx
 581 01dd 415C     		popq	%r12
 582 01df 415D     		popq	%r13
 583 01e1 5D       		popq	%rbp
 584              		.cfi_def_cfa 7, 8
 585 01e2 C3       		ret
 586              		.cfi_endproc
 587              	.LFE1295:
 588              		.section	.gcc_except_table,"a",@progbits
 589              	.LLSDA1295:
 590 0000 FF       		.byte	0xff
 591 0001 FF       		.byte	0xff
 592 0002 01       		.byte	0x1
 593 0003 1F       		.uleb128 .LLSDACSE1295-.LLSDACSB1295
 594              	.LLSDACSB1295:
 595 0004 18       		.uleb128 .LEHB9-.LFB1295
 596 0005 05       		.uleb128 .LEHE9-.LEHB9
 597 0006 00       		.uleb128 0
 598 0007 00       		.uleb128 0
 599 0008 40       		.uleb128 .LEHB10-.LFB1295
 600 0009 05       		.uleb128 .LEHE10-.LEHB10
 601 000a 9D02     		.uleb128 .L32-.LFB1295
 602 000c 00       		.uleb128 0
 603 000d 74       		.uleb128 .LEHB11-.LFB1295
 604 000e 05       		.uleb128 .LEHE11-.LEHB11
 605 000f AE02     		.uleb128 .L33-.LFB1295
 606 0011 00       		.uleb128 0
 607 0012 A801     		.uleb128 .LEHB12-.LFB1295
 608 0014 05       		.uleb128 .LEHE12-.LEHB12
 609 0015 BF02     		.uleb128 .L34-.LFB1295
 610 0017 00       		.uleb128 0
 611 0018 D701     		.uleb128 .LEHB13-.LFB1295
 612 001a 44       		.uleb128 .LEHE13-.LEHB13
 613 001b D002     		.uleb128 .L35-.LFB1295
 614 001d 00       		.uleb128 0
 615 001e 9503     		.uleb128 .LEHB14-.LFB1295
 616 0020 05       		.uleb128 .LEHE14-.LEHB14
 617 0021 00       		.uleb128 0
 618 0022 00       		.uleb128 0
 619              	.LLSDACSE1295:
 620              		.text
 622 01e3 90       		.align 2
 624              	_ZN8UnitTest12_GLOBAL__N_127DeferredTestReporterFixtureD2Ev:
 625              	.LFB1299:
  27:TestDeferredTestReporter.cpp **** {
 626              		.loc 3 27 0
 627              		.cfi_startproc
 628              		.cfi_personality 0x3,__gxx_personality_v0
 629              		.cfi_lsda 0x3,.LLSDA1299
 630 01e4 55       		pushq	%rbp
 631              		.cfi_def_cfa_offset 16
 632              		.cfi_offset 6, -16
 633 01e5 4889E5   		movq	%rsp, %rbp
 634              		.cfi_def_cfa_register 6
 635 01e8 53       		pushq	%rbx
 636 01e9 4883EC18 		subq	$24, %rsp
 637              		.cfi_offset 3, -24
 638 01ed 48897DE8 		movq	%rdi, -24(%rbp)
 639              	.LBB12:
  27:TestDeferredTestReporter.cpp **** {
 640              		.loc 3 27 0
 641 01f1 488B45E8 		movq	-24(%rbp), %rax
 642 01f5 4883C030 		addq	$48, %rax
 643 01f9 4889C7   		movq	%rax, %rdi
 644              	.LEHB15:
 645 01fc E8000000 		call	_ZNSsD1Ev
 645      00
 646              	.LEHE15:
  27:TestDeferredTestReporter.cpp **** {
 647              		.loc 3 27 0 is_stmt 0 discriminator 1
 648 0201 488B45E8 		movq	-24(%rbp), %rax
 649 0205 4883C028 		addq	$40, %rax
 650 0209 4889C7   		movq	%rax, %rdi
 651              	.LEHB16:
 652 020c E8000000 		call	_ZNSsD1Ev
 652      00
 653              	.LEHE16:
  27:TestDeferredTestReporter.cpp **** {
 654              		.loc 3 27 0 discriminator 2
 655 0211 488B45E8 		movq	-24(%rbp), %rax
 656 0215 4883C020 		addq	$32, %rax
 657 0219 4889C7   		movq	%rax, %rdi
 658              	.LEHB17:
 659 021c E8000000 		call	_ZNSsD1Ev
 659      00
 660              	.LEHE17:
  27:TestDeferredTestReporter.cpp **** {
 661              		.loc 3 27 0 discriminator 3
 662 0221 488B45E8 		movq	-24(%rbp), %rax
 663 0225 4889C7   		movq	%rax, %rdi
 664              	.LEHB18:
 665 0228 E8413000 		call	_ZN8UnitTest12_GLOBAL__N_124MockDeferredTestReporterD1Ev
 665      00
 666              	.LEHE18:
 667 022d EB44     		jmp	.L45
 668              	.L42:
 669 022f 4889C3   		movq	%rax, %rbx
  27:TestDeferredTestReporter.cpp **** {
 670              		.loc 3 27 0
 671 0232 488B45E8 		movq	-24(%rbp), %rax
 672 0236 4883C028 		addq	$40, %rax
 673 023a 4889C7   		movq	%rax, %rdi
 674 023d E8000000 		call	_ZNSsD1Ev
 674      00
 675 0242 EB03     		jmp	.L40
 676              	.L43:
 677 0244 4889C3   		movq	%rax, %rbx
 678              	.L40:
 679 0247 488B45E8 		movq	-24(%rbp), %rax
 680 024b 4883C020 		addq	$32, %rax
 681 024f 4889C7   		movq	%rax, %rdi
 682 0252 E8000000 		call	_ZNSsD1Ev
 682      00
 683 0257 EB03     		jmp	.L41
 684              	.L44:
 685 0259 4889C3   		movq	%rax, %rbx
 686              	.L41:
 687 025c 488B45E8 		movq	-24(%rbp), %rax
 688 0260 4889C7   		movq	%rax, %rdi
 689 0263 E8063000 		call	_ZN8UnitTest12_GLOBAL__N_124MockDeferredTestReporterD1Ev
 689      00
 690 0268 4889D8   		movq	%rbx, %rax
 691 026b 4889C7   		movq	%rax, %rdi
 692              	.LEHB19:
 693 026e E8000000 		call	_Unwind_Resume
 693      00
 694              	.LEHE19:
 695              	.L45:
 696              	.LBE12:
 697 0273 4883C418 		addq	$24, %rsp
 698 0277 5B       		popq	%rbx
 699 0278 5D       		popq	%rbp
 700              		.cfi_def_cfa 7, 8
 701 0279 C3       		ret
 702              		.cfi_endproc
 703              	.LFE1299:
 704              		.section	.gcc_except_table
 705              	.LLSDA1299:
 706 0023 FF       		.byte	0xff
 707 0024 FF       		.byte	0xff
 708 0025 01       		.byte	0x1
 709 0026 15       		.uleb128 .LLSDACSE1299-.LLSDACSB1299
 710              	.LLSDACSB1299:
 711 0027 18       		.uleb128 .LEHB15-.LFB1299
 712 0028 05       		.uleb128 .LEHE15-.LEHB15
 713 0029 4B       		.uleb128 .L42-.LFB1299
 714 002a 00       		.uleb128 0
 715 002b 28       		.uleb128 .LEHB16-.LFB1299
 716 002c 05       		.uleb128 .LEHE16-.LEHB16
 717 002d 60       		.uleb128 .L43-.LFB1299
 718 002e 00       		.uleb128 0
 719 002f 38       		.uleb128 .LEHB17-.LFB1299
 720 0030 05       		.uleb128 .LEHE17-.LEHB17
 721 0031 75       		.uleb128 .L44-.LFB1299
 722 0032 00       		.uleb128 0
 723 0033 44       		.uleb128 .LEHB18-.LFB1299
 724 0034 05       		.uleb128 .LEHE18-.LEHB18
 725 0035 00       		.uleb128 0
 726 0036 00       		.uleb128 0
 727 0037 8A01     		.uleb128 .LEHB19-.LFB1299
 728 0039 05       		.uleb128 .LEHE19-.LEHB19
 729 003a 00       		.uleb128 0
 730 003b 00       		.uleb128 0
 731              	.LLSDACSE1299:
 732              		.text
 734              		.align 2
 736              	_ZN8UnitTest12_GLOBAL__N_171DeferredTestReporterFixtureReportTestStartCreatesANewDeferredTestHelper
 737              	.LFB1301:
  37:TestDeferredTestReporter.cpp **** 
  38:TestDeferredTestReporter.cpp ****     MockDeferredTestReporter reporter;
  39:TestDeferredTestReporter.cpp ****     std::string const testName;
  40:TestDeferredTestReporter.cpp ****     std::string const testSuite;
  41:TestDeferredTestReporter.cpp ****     std::string const fileName;
  42:TestDeferredTestReporter.cpp ****     int const lineNumber;
  43:TestDeferredTestReporter.cpp ****     TestDetails const details;
  44:TestDeferredTestReporter.cpp **** };
  45:TestDeferredTestReporter.cpp **** 
  46:TestDeferredTestReporter.cpp **** TEST_FIXTURE(DeferredTestReporterFixture, ReportTestStartCreatesANewDeferredTest)
 738              		.loc 3 46 0 is_stmt 1
 739              		.cfi_startproc
 740 027a 55       		pushq	%rbp
 741              		.cfi_def_cfa_offset 16
 742              		.cfi_offset 6, -16
 743 027b 4889E5   		movq	%rsp, %rbp
 744              		.cfi_def_cfa_register 6
 745 027e 4883EC10 		subq	$16, %rsp
 746 0282 48897DF8 		movq	%rdi, -8(%rbp)
 747 0286 488975F0 		movq	%rsi, -16(%rbp)
 748              	.LBB13:
 749              		.loc 3 46 0
 750 028a 488B45F8 		movq	-8(%rbp), %rax
 751 028e 4889C7   		movq	%rax, %rdi
 752 0291 E8A8FDFF 		call	_ZN8UnitTest12_GLOBAL__N_127DeferredTestReporterFixtureC2Ev
 752      FF
 753 0296 488B45F8 		movq	-8(%rbp), %rax
 754 029a 488B55F0 		movq	-16(%rbp), %rdx
 755 029e 48895060 		movq	%rdx, 96(%rax)
 756              	.LBE13:
 757 02a2 C9       		leave
 758              		.cfi_def_cfa 7, 8
 759 02a3 C3       		ret
 760              		.cfi_endproc
 761              	.LFE1301:
 763              		.set	_ZN8UnitTest12_GLOBAL__N_171DeferredTestReporterFixtureReportTestStartCreatesANewDeferredTest
 764              		.section	.rodata
 765              	.LC4:
 766 0037 54657374 		.string	"TestDeferredTestReporter.cpp"
 766      44656665 
 766      72726564 
 766      54657374 
 766      5265706F 
 767 0054 00000000 		.align 8
 768              	.LC5:
 769 0058 5265706F 		.string	"ReportTestStartCreatesANewDeferredTest"
 769      72745465 
 769      73745374 
 769      61727443 
 769      72656174 
 770              		.text
 771              		.align 2
 773              	_ZN8UnitTest12_GLOBAL__N_169TestDeferredTestReporterFixtureReportTestStartCreatesANewDeferredTestC2
 774              	.LFB1304:
 775              		.loc 3 46 0
 776              		.cfi_startproc
 777 02a4 55       		pushq	%rbp
 778              		.cfi_def_cfa_offset 16
 779              		.cfi_offset 6, -16
 780 02a5 4889E5   		movq	%rsp, %rbp
 781              		.cfi_def_cfa_register 6
 782 02a8 4883EC10 		subq	$16, %rsp
 783 02ac 48897DF8 		movq	%rdi, -8(%rbp)
 784              	.LBB14:
 785              		.loc 3 46 0
 786 02b0 E8000000 		call	_ZN13UnitTestSuite12GetSuiteNameEv
 786      00
 787 02b5 4889C2   		movq	%rax, %rdx
 788 02b8 488B45F8 		movq	-8(%rbp), %rax
 789 02bc 41B82E00 		movl	$46, %r8d
 789      0000
 790 02c2 B9000000 		movl	$.LC4, %ecx
 790      00
 791 02c7 BE000000 		movl	$.LC5, %esi
 791      00
 792 02cc 4889C7   		movq	%rax, %rdi
 793 02cf E8000000 		call	_ZN8UnitTest4TestC2EPKcS2_S2_i
 793      00
 794 02d4 488B45F8 		movq	-8(%rbp), %rax
 795 02d8 48C70000 		movq	$_ZTVN8UnitTest12_GLOBAL__N_169TestDeferredTestReporterFixtureReportTestStartCreatesANewDefer
 795      000000
 796              	.LBE14:
 797 02df C9       		leave
 798              		.cfi_def_cfa 7, 8
 799 02e0 C3       		ret
 800              		.cfi_endproc
 801              	.LFE1304:
 803              		.set	_ZN8UnitTest12_GLOBAL__N_169TestDeferredTestReporterFixtureReportTestStartCreatesANewDeferred
 804              		.local	_ZN8UnitTest12_GLOBAL__N_177testDeferredTestReporterFixtureReportTestStartCreatesANewDeferr
 805              		.comm	_ZN8UnitTest12_GLOBAL__N_177testDeferredTestReporterFixtureReportTestStartCreatesANewDeferre
 806              		.local	_ZN8UnitTest12_GLOBAL__N_170adderDeferredTestReporterFixtureReportTestStartCreatesANewDefer
 807              		.comm	_ZN8UnitTest12_GLOBAL__N_170adderDeferredTestReporterFixtureReportTestStartCreatesANewDeferr
 808 02e1 90       		.align 2
 810              	_ZN8UnitTest12_GLOBAL__N_171DeferredTestReporterFixtureReportTestStartCreatesANewDeferredTestHelper
 811              	.LFB1308:
 812              		.loc 3 46 0
 813              		.cfi_startproc
 814 02e2 55       		pushq	%rbp
 815              		.cfi_def_cfa_offset 16
 816              		.cfi_offset 6, -16
 817 02e3 4889E5   		movq	%rsp, %rbp
 818              		.cfi_def_cfa_register 6
 819 02e6 4883EC10 		subq	$16, %rsp
 820 02ea 48897DF8 		movq	%rdi, -8(%rbp)
 821              	.LBB15:
 822              		.loc 3 46 0
 823 02ee 488B45F8 		movq	-8(%rbp), %rax
 824 02f2 4889C7   		movq	%rax, %rdi
 825 02f5 E8EAFEFF 		call	_ZN8UnitTest12_GLOBAL__N_127DeferredTestReporterFixtureD2Ev
 825      FF
 826              	.LBE15:
 827 02fa C9       		leave
 828              		.cfi_def_cfa 7, 8
 829 02fb C3       		ret
 830              		.cfi_endproc
 831              	.LFE1308:
 833              		.set	_ZN8UnitTest12_GLOBAL__N_171DeferredTestReporterFixtureReportTestStartCreatesANewDeferredTest
 834              		.section	.rodata
 835              	.LC6:
 836 007f 556E6861 		.string	"Unhandled exception: "
 836      6E646C65 
 836      64206578 
 836      63657074 
 836      696F6E3A 
 837 0095 000000   		.align 8
 838              	.LC7:
 839 0098 556E6861 		.string	"Unhandled exception while destroying fixture DeferredTestReporterFixture"
 839      6E646C65 
 839      64206578 
 839      63657074 
 839      696F6E20 
 840 00e1 00000000 		.align 8
 840      000000
 841              	.LC8:
 842 00e8 556E6861 		.string	"Unhandled exception while constructing fixture DeferredTestReporterFixture"
 842      6E646C65 
 842      64206578 
 842      63657074 
 842      696F6E20 
 843              		.text
 844              		.align 2
 846              	_ZNK8UnitTest12_GLOBAL__N_169TestDeferredTestReporterFixtureReportTestStartCreatesANewDeferredTest7
 847              	.LFB1306:
 848              		.loc 3 46 0
 849              		.cfi_startproc
 850              		.cfi_personality 0x3,__gxx_personality_v0
 851              		.cfi_lsda 0x3,.LLSDA1306
 852 02fc 55       		pushq	%rbp
 853              		.cfi_def_cfa_offset 16
 854              		.cfi_offset 6, -16
 855 02fd 4889E5   		movq	%rsp, %rbp
 856              		.cfi_def_cfa_register 6
 857 0300 4154     		pushq	%r12
 858 0302 53       		pushq	%rbx
 859 0303 4881ECA0 		subq	$416, %rsp
 859      010000
 860              		.cfi_offset 12, -24
 861              		.cfi_offset 3, -32
 862 030a 4889BD58 		movq	%rdi, -424(%rbp)
 862      FEFFFF
 863              	.LBB16:
 864              		.loc 3 46 0
 865 0311 C6856FFE 		movb	$0, -401(%rbp)
 865      FFFF00
 866              	.LBB17:
 867 0318 488B8558 		movq	-424(%rbp), %rax
 867      FEFFFF
 868 031f 488D5008 		leaq	8(%rax), %rdx
 869 0323 488D8580 		leaq	-384(%rbp), %rax
 869      FEFFFF
 870 032a 4889D6   		movq	%rdx, %rsi
 871 032d 4889C7   		movq	%rax, %rdi
 872              	.LEHB20:
 873 0330 E845FFFF 		call	_ZN8UnitTest12_GLOBAL__N_171DeferredTestReporterFixtureReportTestStartCreatesANewDeferredTest
 873      FF
 874              	.LEHE20:
 875              		.loc 3 46 0 is_stmt 0 discriminator 1
 876 0335 C6856FFE 		movb	$1, -401(%rbp)
 876      FFFF01
 877 033c 488B8558 		movq	-424(%rbp), %rax
 877      FEFFFF
 878 0343 488D5008 		leaq	8(%rax), %rdx
 879 0347 488D8580 		leaq	-384(%rbp), %rax
 879      FEFFFF
 880 034e 4889D6   		movq	%rdx, %rsi
 881 0351 4889C7   		movq	%rax, %rdi
 882              	.LEHB21:
 883 0354 E8451D00 		call	_ZN8UnitTest11ExecuteTestINS_12_GLOBAL__N_171DeferredTestReporterFixtureReportTestStartCreate
 883      00
 884              	.LEHE21:
 885 0359 488D8580 		leaq	-384(%rbp), %rax
 885      FEFFFF
 886 0360 4889C7   		movq	%rax, %rdi
 887              	.LEHB22:
 888 0363 E87AFFFF 		call	_ZN8UnitTest12_GLOBAL__N_171DeferredTestReporterFixtureReportTestStartCreatesANewDeferredTest
 888      FF
 889              	.LEHE22:
 890              	.LBE17:
 891              	.LBE16:
 892              		.loc 3 46 0
 893 0368 E9640200 		jmp	.L70
 893      00
 894              	.L64:
 895 036d 4989C4   		movq	%rax, %r12
 896 0370 4889D3   		movq	%rdx, %rbx
 897              	.LBB25:
 898              	.LBB18:
 899 0373 488D8580 		leaq	-384(%rbp), %rax
 899      FEFFFF
 900 037a 4889C7   		movq	%rax, %rdi
 901 037d E860FFFF 		call	_ZN8UnitTest12_GLOBAL__N_171DeferredTestReporterFixtureReportTestStartCreatesANewDeferredTest
 901      FF
 902 0382 4C89E0   		movq	%r12, %rax
 903 0385 4889DA   		movq	%rbx, %rdx
 904 0388 EB00     		jmp	.L52
 905              	.L63:
 906              	.L52:
 907 038a 4883FA01 		cmpq	$1, %rdx
 908 038e 745C     		je	.L54
 909 0390 4883FA02 		cmpq	$2, %rdx
 910 0394 0F84F400 		je	.L55
 910      0000
 911 039a E9980100 		jmp	.L69
 911      00
 912              	.L65:
 913 039f 4889C3   		movq	%rax, %rbx
 914              	.LBE18:
 915              	.LBB19:
 916 03a2 E8000000 		call	__cxa_end_catch
 916      00
 917 03a7 4889D8   		movq	%rbx, %rax
 918 03aa 4889C7   		movq	%rax, %rdi
 919              	.LEHB23:
 920 03ad E8000000 		call	_Unwind_Resume
 920      00
 921              	.LEHE23:
 922              	.L66:
 923 03b2 4889C3   		movq	%rax, %rbx
 924              	.LBE19:
 925              	.LBB20:
 926              	.LBB21:
 927 03b5 488D8580 		leaq	-384(%rbp), %rax
 927      FEFFFF
 928 03bc 4889C7   		movq	%rax, %rdi
 929 03bf E8000000 		call	_ZN8UnitTest15MemoryOutStreamD1Ev
 929      00
 930 03c4 EB03     		jmp	.L58
 931              	.L67:
 932 03c6 4889C3   		movq	%rax, %rbx
 933              	.L58:
 934              	.LBE21:
 935 03c9 E8000000 		call	__cxa_end_catch
 935      00
 936 03ce 4889D8   		movq	%rbx, %rax
 937 03d1 4889C7   		movq	%rax, %rdi
 938              	.LEHB24:
 939 03d4 E8000000 		call	_Unwind_Resume
 939      00
 940              	.LEHE24:
 941              	.L68:
 942 03d9 4889C3   		movq	%rax, %rbx
 943              	.LBE20:
 944 03dc E8000000 		call	__cxa_end_catch
 944      00
 945 03e1 4889D8   		movq	%rbx, %rax
 946 03e4 4889C7   		movq	%rax, %rdi
 947              	.LEHB25:
 948 03e7 E8000000 		call	_Unwind_Resume
 948      00
 949              	.LEHE25:
 950              	.L54:
 951              	.LBB23:
 952 03ec 4889C7   		movq	%rax, %rdi
 953 03ef E8000000 		call	__cxa_begin_catch
 953      00
 954 03f4 48898570 		movq	%rax, -400(%rbp)
 954      FEFFFF
 955 03fb 488B8570 		movq	-400(%rbp), %rax
 955      FEFFFF
 956 0402 488B00   		movq	(%rax), %rax
 957 0405 4883C010 		addq	$16, %rax
 958 0409 488B00   		movq	(%rax), %rax
 959 040c 488B9570 		movq	-400(%rbp), %rdx
 959      FEFFFF
 960 0413 4889D7   		movq	%rdx, %rdi
 961 0416 FFD0     		call	*%rax
 962 0418 4889C3   		movq	%rax, %rbx
 963 041b 488B8570 		movq	-400(%rbp), %rax
 963      FEFFFF
 964 0422 4889C7   		movq	%rax, %rdi
 965              	.LEHB26:
 966 0425 E8000000 		call	_ZNK8UnitTest15AssertException10LineNumberEv
 966      00
 967 042a 4189C4   		movl	%eax, %r12d
 968 042d 488B8570 		movq	-400(%rbp), %rax
 968      FEFFFF
 969 0434 4889C7   		movq	%rax, %rdi
 970 0437 E8000000 		call	_ZNK8UnitTest15AssertException8FilenameEv
 970      00
 971              		.loc 3 46 0 discriminator 1
 972 043c 4889C1   		movq	%rax, %rcx
 973 043f 488B8558 		movq	-424(%rbp), %rax
 973      FEFFFF
 974 0446 488B5008 		movq	8(%rax), %rdx
 975 044a 488B8558 		movq	-424(%rbp), %rax
 975      FEFFFF
 976 0451 488B7010 		movq	16(%rax), %rsi
 977 0455 488D8580 		leaq	-384(%rbp), %rax
 977      FEFFFF
 978 045c 4589E0   		movl	%r12d, %r8d
 979 045f 4889C7   		movq	%rax, %rdi
 980 0462 E8000000 		call	_ZN8UnitTest11TestDetailsC1EPKcS2_S2_i
 980      00
 981              		.loc 3 46 0 discriminator 3
 982 0467 E8000000 		call	_ZN8UnitTest11CurrentTest7ResultsEv
 982      00
 983 046c 488B00   		movq	(%rax), %rax
 984 046f 488D8D80 		leaq	-384(%rbp), %rcx
 984      FEFFFF
 985 0476 4889DA   		movq	%rbx, %rdx
 986 0479 4889CE   		movq	%rcx, %rsi
 987 047c 4889C7   		movq	%rax, %rdi
 988 047f E8000000 		call	_ZN8UnitTest11TestResults13OnTestFailureERKNS_11TestDetailsEPKc
 988      00
 989              	.LEHE26:
 990              		.loc 3 46 0 discriminator 1
 991 0484 E8000000 		call	__cxa_end_catch
 991      00
 992              	.LBE23:
 993              	.LBE25:
 994 0489 E9430100 		jmp	.L70
 994      00
 995              	.L55:
 996              	.LBB26:
 997              	.LBB24:
 998              		.loc 3 46 0
 999 048e 4889C7   		movq	%rax, %rdi
 1000 0491 E8000000 		call	__cxa_begin_catch
 1000      00
 1001 0496 48898578 		movq	%rax, -392(%rbp)
 1001      FEFFFF
 1002              	.LBB22:
 1003 049d 488D8580 		leaq	-384(%rbp), %rax
 1003      FEFFFF
 1004 04a4 4889C7   		movq	%rax, %rdi
 1005              	.LEHB27:
 1006 04a7 E8000000 		call	_ZN8UnitTest15MemoryOutStreamC1Ev
 1006      00
 1007              	.LEHE27:
 1008              		.loc 3 46 0 discriminator 1
 1009 04ac 488B8578 		movq	-392(%rbp), %rax
 1009      FEFFFF
 1010 04b3 488B00   		movq	(%rax), %rax
 1011 04b6 4883C010 		addq	$16, %rax
 1012 04ba 488B00   		movq	(%rax), %rax
 1013 04bd 488B9578 		movq	-392(%rbp), %rdx
 1013      FEFFFF
 1014 04c4 4889D7   		movq	%rdx, %rdi
 1015 04c7 FFD0     		call	*%rax
 1016 04c9 4889C3   		movq	%rax, %rbx
 1017 04cc 488D8580 		leaq	-384(%rbp), %rax
 1017      FEFFFF
 1018 04d3 BE000000 		movl	$.LC6, %esi
 1018      00
 1019 04d8 4889C7   		movq	%rax, %rdi
 1020              	.LEHB28:
 1021 04db E8000000 		call	_ZStlsISt11char_traitsIcEERSt13basic_ostreamIcT_ES5_PKc
 1021      00
 1022 04e0 4889DE   		movq	%rbx, %rsi
 1023 04e3 4889C7   		movq	%rax, %rdi
 1024 04e6 E8000000 		call	_ZStlsISt11char_traitsIcEERSt13basic_ostreamIcT_ES5_PKc
 1024      00
 1025 04eb 488D8580 		leaq	-384(%rbp), %rax
 1025      FEFFFF
 1026 04f2 4889C7   		movq	%rax, %rdi
 1027 04f5 E8000000 		call	_ZNK8UnitTest15MemoryOutStream7GetTextEv
 1027      00
 1028 04fa 4889C3   		movq	%rax, %rbx
 1029 04fd 488B8558 		movq	-424(%rbp), %rax
 1029      FEFFFF
 1030 0504 4C8D6008 		leaq	8(%rax), %r12
 1031 0508 E8000000 		call	_ZN8UnitTest11CurrentTest7ResultsEv
 1031      00
 1032 050d 488B00   		movq	(%rax), %rax
 1033 0510 4889DA   		movq	%rbx, %rdx
 1034 0513 4C89E6   		movq	%r12, %rsi
 1035 0516 4889C7   		movq	%rax, %rdi
 1036 0519 E8000000 		call	_ZN8UnitTest11TestResults13OnTestFailureERKNS_11TestDetailsEPKc
 1036      00
 1037              	.LEHE28:
 1038 051e 488D8580 		leaq	-384(%rbp), %rax
 1038      FEFFFF
 1039 0525 4889C7   		movq	%rax, %rdi
 1040              	.LEHB29:
 1041 0528 E8000000 		call	_ZN8UnitTest15MemoryOutStreamD1Ev
 1041      00
 1042              	.LEHE29:
 1043              	.LBE22:
 1044              		.loc 3 46 0
 1045 052d E8000000 		call	__cxa_end_catch
 1045      00
 1046              	.LBE24:
 1047              	.LBE26:
 1048 0532 E99A0000 		jmp	.L70
 1048      00
 1049              	.L69:
 1050              	.LBB27:
 1051 0537 4889C7   		movq	%rax, %rdi
 1052 053a E8000000 		call	__cxa_begin_catch
 1052      00
 1053 053f 80BD6FFE 		cmpb	$0, -401(%rbp)
 1053      FFFF00
 1054 0546 7443     		je	.L61
 1055              		.loc 3 46 0 discriminator 1
 1056 0548 488B8558 		movq	-424(%rbp), %rax
 1056      FEFFFF
 1057 054f 488D4808 		leaq	8(%rax), %rcx
 1058 0553 488D8580 		leaq	-384(%rbp), %rax
 1058      FEFFFF
 1059 055a BA2E0000 		movl	$46, %edx
 1059      00
 1060 055f 4889CE   		movq	%rcx, %rsi
 1061 0562 4889C7   		movq	%rax, %rdi
 1062              	.LEHB30:
 1063 0565 E8000000 		call	_ZN8UnitTest11TestDetailsC1ERKS0_i
 1063      00
 1064 056a E8000000 		call	_ZN8UnitTest11CurrentTest7ResultsEv
 1064      00
 1065 056f 488B00   		movq	(%rax), %rax
 1066 0572 488D8D80 		leaq	-384(%rbp), %rcx
 1066      FEFFFF
 1067 0579 BA000000 		movl	$.LC7, %edx
 1067      00
 1068 057e 4889CE   		movq	%rcx, %rsi
 1069 0581 4889C7   		movq	%rax, %rdi
 1070 0584 E8000000 		call	_ZN8UnitTest11TestResults13OnTestFailureERKNS_11TestDetailsEPKc
 1070      00
 1071 0589 EB41     		jmp	.L62
 1072              	.L61:
 1073              		.loc 3 46 0 discriminator 2
 1074 058b 488B8558 		movq	-424(%rbp), %rax
 1074      FEFFFF
 1075 0592 488D4808 		leaq	8(%rax), %rcx
 1076 0596 488D8580 		leaq	-384(%rbp), %rax
 1076      FEFFFF
 1077 059d BA2E0000 		movl	$46, %edx
 1077      00
 1078 05a2 4889CE   		movq	%rcx, %rsi
 1079 05a5 4889C7   		movq	%rax, %rdi
 1080 05a8 E8000000 		call	_ZN8UnitTest11TestDetailsC1ERKS0_i
 1080      00
 1081              		.loc 3 46 0 discriminator 1
 1082 05ad E8000000 		call	_ZN8UnitTest11CurrentTest7ResultsEv
 1082      00
 1083 05b2 488B00   		movq	(%rax), %rax
 1084 05b5 488D8D80 		leaq	-384(%rbp), %rcx
 1084      FEFFFF
 1085 05bc BA000000 		movl	$.LC8, %edx
 1085      00
 1086 05c1 4889CE   		movq	%rcx, %rsi
 1087 05c4 4889C7   		movq	%rax, %rdi
 1088 05c7 E8000000 		call	_ZN8UnitTest11TestResults13OnTestFailureERKNS_11TestDetailsEPKc
 1088      00
 1089              	.LEHE30:
 1090              	.L62:
 1091              	.LEHB31:
 1092 05cc E8000000 		call	__cxa_end_catch
 1092      00
 1093              	.LEHE31:
 1094              	.L70:
 1095              	.LBE27:
 1096              		.loc 3 46 0
 1097 05d1 90       		nop
 1098 05d2 4881C4A0 		addq	$416, %rsp
 1098      010000
 1099 05d9 5B       		popq	%rbx
 1100 05da 415C     		popq	%r12
 1101 05dc 5D       		popq	%rbp
 1102              		.cfi_def_cfa 7, 8
 1103 05dd C3       		ret
 1104              		.cfi_endproc
 1105              	.LFE1306:
 1106              		.section	.gcc_except_table
 1107              		.align 4
 1108              	.LLSDA1306:
 1109 003c FF       		.byte	0xff
 1110 003d 03       		.byte	0x3
 1111 003e 59       		.uleb128 .LLSDATT1306-.LLSDATTD1306
 1112              	.LLSDATTD1306:
 1113 003f 01       		.byte	0x1
 1114 0040 40       		.uleb128 .LLSDACSE1306-.LLSDACSB1306
 1115              	.LLSDACSB1306:
 1116 0041 34       		.uleb128 .LEHB20-.LFB1306
 1117 0042 05       		.uleb128 .LEHE20-.LEHB20
 1118 0043 8E01     		.uleb128 .L63-.LFB1306
 1119 0045 05       		.uleb128 0x5
 1120 0046 58       		.uleb128 .LEHB21-.LFB1306
 1121 0047 05       		.uleb128 .LEHE21-.LEHB21
 1122 0048 71       		.uleb128 .L64-.LFB1306
 1123 0049 07       		.uleb128 0x7
 1124 004a 67       		.uleb128 .LEHB22-.LFB1306
 1125 004b 05       		.uleb128 .LEHE22-.LEHB22
 1126 004c 8E01     		.uleb128 .L63-.LFB1306
 1127 004e 05       		.uleb128 0x5
 1128 004f B101     		.uleb128 .LEHB23-.LFB1306
 1129 0051 05       		.uleb128 .LEHE23-.LEHB23
 1130 0052 00       		.uleb128 0
 1131 0053 00       		.uleb128 0
 1132 0054 D801     		.uleb128 .LEHB24-.LFB1306
 1133 0056 05       		.uleb128 .LEHE24-.LEHB24
 1134 0057 00       		.uleb128 0
 1135 0058 00       		.uleb128 0
 1136 0059 EB01     		.uleb128 .LEHB25-.LFB1306
 1137 005b 05       		.uleb128 .LEHE25-.LEHB25
 1138 005c 00       		.uleb128 0
 1139 005d 00       		.uleb128 0
 1140 005e A902     		.uleb128 .LEHB26-.LFB1306
 1141 0060 5F       		.uleb128 .LEHE26-.LEHB26
 1142 0061 A301     		.uleb128 .L65-.LFB1306
 1143 0063 00       		.uleb128 0
 1144 0064 AB03     		.uleb128 .LEHB27-.LFB1306
 1145 0066 05       		.uleb128 .LEHE27-.LEHB27
 1146 0067 CA01     		.uleb128 .L67-.LFB1306
 1147 0069 00       		.uleb128 0
 1148 006a DF03     		.uleb128 .LEHB28-.LFB1306
 1149 006c 43       		.uleb128 .LEHE28-.LEHB28
 1150 006d B601     		.uleb128 .L66-.LFB1306
 1151 006f 00       		.uleb128 0
 1152 0070 AC04     		.uleb128 .LEHB29-.LFB1306
 1153 0072 05       		.uleb128 .LEHE29-.LEHB29
 1154 0073 CA01     		.uleb128 .L67-.LFB1306
 1155 0075 00       		.uleb128 0
 1156 0076 E904     		.uleb128 .LEHB30-.LFB1306
 1157 0078 67       		.uleb128 .LEHE30-.LEHB30
 1158 0079 DD01     		.uleb128 .L68-.LFB1306
 1159 007b 00       		.uleb128 0
 1160 007c D005     		.uleb128 .LEHB31-.LFB1306
 1161 007e 05       		.uleb128 .LEHE31-.LEHB31
 1162 007f 00       		.uleb128 0
 1163 0080 00       		.uleb128 0
 1164              	.LLSDACSE1306:
 1165 0081 03       		.byte	0x3
 1166 0082 00       		.byte	0
 1167 0083 02       		.byte	0x2
 1168 0084 7D       		.byte	0x7d
 1169 0085 01       		.byte	0x1
 1170 0086 7D       		.byte	0x7d
 1171 0087 00       		.byte	0
 1172 0088 7D       		.byte	0x7d
 1173 0089 000000   		.align 4
 1174 008c 00000000 		.long	0
 1175              	
 1176 0090 00000000 		.long	_ZTISt9exception
 1177 0094 00000000 		.long	_ZTIN8UnitTest15AssertExceptionE
 1178              	.LLSDATT1306:
 1179              		.text
 1181              		.section	.rodata
 1182 0133 00000000 		.align 8
 1182      00
 1183              	.LC9:
 1184 0138 556E6861 		.string	"Unhandled exception in CHECK_EQUAL(1, (int)reporter.GetResults().size())"
 1184      6E646C65 
 1184      64206578 
 1184      63657074 
 1184      696F6E20 
 1185              		.text
 1186              		.align 2
 1188              	_ZN8UnitTest12_GLOBAL__N_171DeferredTestReporterFixtureReportTestStartCreatesANewDeferredTestHelper
 1189              	.LFB1310:
  47:TestDeferredTestReporter.cpp **** {
 1190              		.loc 3 47 0 is_stmt 1
 1191              		.cfi_startproc
 1192              		.cfi_personality 0x3,__gxx_personality_v0
 1193              		.cfi_lsda 0x3,.LLSDA1310
 1194 05de 55       		pushq	%rbp
 1195              		.cfi_def_cfa_offset 16
 1196              		.cfi_offset 6, -16
 1197 05df 4889E5   		movq	%rsp, %rbp
 1198              		.cfi_def_cfa_register 6
 1199 05e2 53       		pushq	%rbx
 1200 05e3 4883EC48 		subq	$72, %rsp
 1201              		.cfi_offset 3, -24
 1202 05e7 48897DB8 		movq	%rdi, -72(%rbp)
  48:TestDeferredTestReporter.cpp ****     reporter.ReportTestStart(details);
 1203              		.loc 3 48 0
 1204 05eb 488B45B8 		movq	-72(%rbp), %rax
 1205 05ef 488D5040 		leaq	64(%rax), %rdx
 1206 05f3 488B45B8 		movq	-72(%rbp), %rax
 1207 05f7 4889D6   		movq	%rdx, %rsi
 1208 05fa 4889C7   		movq	%rax, %rdi
 1209              	.LEHB32:
 1210 05fd E8000000 		call	_ZN8UnitTest20DeferredTestReporter15ReportTestStartERKNS_11TestDetailsE
 1210      00
 1211              	.LEHE32:
 1212              	.LEHB33:
  49:TestDeferredTestReporter.cpp ****     CHECK_EQUAL(1, (int)reporter.GetResults().size());
 1213              		.loc 3 49 0
 1214 0602 E8000000 		call	_ZN8UnitTest11CurrentTest7DetailsEv
 1214      00
 1215 0607 488B08   		movq	(%rax), %rcx
 1216 060a 488D45D0 		leaq	-48(%rbp), %rax
 1217 060e BA310000 		movl	$49, %edx
 1217      00
 1218 0613 4889CE   		movq	%rcx, %rsi
 1219 0616 4889C7   		movq	%rax, %rdi
 1220 0619 E8000000 		call	_ZN8UnitTest11TestDetailsC1ERKS0_i
 1220      00
 1221              		.loc 3 49 0 is_stmt 0 discriminator 1
 1222 061e 488B45B8 		movq	-72(%rbp), %rax
 1223 0622 4889C7   		movq	%rax, %rdi
 1224 0625 E8000000 		call	_ZN8UnitTest20DeferredTestReporter10GetResultsEv
 1224      00
 1225 062a 4889C7   		movq	%rax, %rdi
 1226 062d E8000000 		call	_ZNKSt6vectorIN8UnitTest18DeferredTestResultESaIS1_EE4sizeEv
 1226      00
 1227 0632 8945CC   		movl	%eax, -52(%rbp)
 1228 0635 C745C801 		movl	$1, -56(%rbp)
 1228      000000
 1229 063c E8000000 		call	_ZN8UnitTest11CurrentTest7ResultsEv
 1229      00
 1230 0641 488B00   		movq	(%rax), %rax
 1231 0644 488D4DD0 		leaq	-48(%rbp), %rcx
 1232 0648 488D55CC 		leaq	-52(%rbp), %rdx
 1233 064c 488D75C8 		leaq	-56(%rbp), %rsi
 1234 0650 4889C7   		movq	%rax, %rdi
 1235 0653 E8000000 		call	_ZN8UnitTest10CheckEqualIiiEEvRNS_11TestResultsERKT_RKT0_RKNS_11TestDetailsE
 1235      00
 1236              	.LEHE33:
  50:TestDeferredTestReporter.cpp **** }
 1237              		.loc 3 50 0 is_stmt 1
 1238 0658 EB58     		jmp	.L77
 1239              	.L76:
 1240 065a 4889C3   		movq	%rax, %rbx
  49:TestDeferredTestReporter.cpp ****     CHECK_EQUAL(1, (int)reporter.GetResults().size());
 1241              		.loc 3 49 0
 1242 065d E8000000 		call	__cxa_end_catch
 1242      00
 1243 0662 4889D8   		movq	%rbx, %rax
 1244 0665 4889C7   		movq	%rax, %rdi
 1245              	.LEHB34:
 1246 0668 E8000000 		call	_Unwind_Resume
 1246      00
 1247              	.LEHE34:
 1248              	.L75:
 1249 066d 4889C7   		movq	%rax, %rdi
 1250 0670 E8000000 		call	__cxa_begin_catch
 1250      00
 1251              	.LEHB35:
 1252 0675 E8000000 		call	_ZN8UnitTest11CurrentTest7DetailsEv
 1252      00
 1253 067a 488B08   		movq	(%rax), %rcx
 1254 067d 488D45D0 		leaq	-48(%rbp), %rax
 1255 0681 BA310000 		movl	$49, %edx
 1255      00
 1256 0686 4889CE   		movq	%rcx, %rsi
 1257 0689 4889C7   		movq	%rax, %rdi
 1258 068c E8000000 		call	_ZN8UnitTest11TestDetailsC1ERKS0_i
 1258      00
  49:TestDeferredTestReporter.cpp ****     CHECK_EQUAL(1, (int)reporter.GetResults().size());
 1259              		.loc 3 49 0 is_stmt 0 discriminator 1
 1260 0691 E8000000 		call	_ZN8UnitTest11CurrentTest7ResultsEv
 1260      00
 1261 0696 488B00   		movq	(%rax), %rax
 1262 0699 488D4DD0 		leaq	-48(%rbp), %rcx
 1263 069d BA000000 		movl	$.LC9, %edx
 1263      00
 1264 06a2 4889CE   		movq	%rcx, %rsi
 1265 06a5 4889C7   		movq	%rax, %rdi
 1266 06a8 E8000000 		call	_ZN8UnitTest11TestResults13OnTestFailureERKNS_11TestDetailsEPKc
 1266      00
 1267              	.LEHE35:
 1268              	.LEHB36:
 1269 06ad E8000000 		call	__cxa_end_catch
 1269      00
 1270              	.LEHE36:
 1271              	.L77:
 1272              		.loc 3 50 0 is_stmt 1
 1273 06b2 90       		nop
 1274 06b3 4883C448 		addq	$72, %rsp
 1275 06b7 5B       		popq	%rbx
 1276 06b8 5D       		popq	%rbp
 1277              		.cfi_def_cfa 7, 8
 1278 06b9 C3       		ret
 1279              		.cfi_endproc
 1280              	.LFE1310:
 1281              		.section	.gcc_except_table
 1282              		.align 4
 1283              	.LLSDA1310:
 1284 0098 FF       		.byte	0xff
 1285 0099 03       		.byte	0x3
 1286 009a 21       		.uleb128 .LLSDATT1310-.LLSDATTD1310
 1287              	.LLSDATTD1310:
 1288 009b 01       		.byte	0x1
 1289 009c 18       		.uleb128 .LLSDACSE1310-.LLSDACSB1310
 1290              	.LLSDACSB1310:
 1291 009d 1F       		.uleb128 .LEHB32-.LFB1310
 1292 009e 05       		.uleb128 .LEHE32-.LEHB32
 1293 009f 00       		.uleb128 0
 1294 00a0 00       		.uleb128 0
 1295 00a1 24       		.uleb128 .LEHB33-.LFB1310
 1296 00a2 56       		.uleb128 .LEHE33-.LEHB33
 1297 00a3 8F01     		.uleb128 .L75-.LFB1310
 1298 00a5 01       		.uleb128 0x1
 1299 00a6 8A01     		.uleb128 .LEHB34-.LFB1310
 1300 00a8 05       		.uleb128 .LEHE34-.LEHB34
 1301 00a9 00       		.uleb128 0
 1302 00aa 00       		.uleb128 0
 1303 00ab 9701     		.uleb128 .LEHB35-.LFB1310
 1304 00ad 38       		.uleb128 .LEHE35-.LEHB35
 1305 00ae 7C       		.uleb128 .L76-.LFB1310
 1306 00af 00       		.uleb128 0
 1307 00b0 CF01     		.uleb128 .LEHB36-.LFB1310
 1308 00b2 05       		.uleb128 .LEHE36-.LEHB36
 1309 00b3 00       		.uleb128 0
 1310 00b4 00       		.uleb128 0
 1311              	.LLSDACSE1310:
 1312 00b5 01       		.byte	0x1
 1313 00b6 00       		.byte	0
 1314 00b7 00       		.align 4
 1315 00b8 00000000 		.long	0
 1316              	
 1317              	.LLSDATT1310:
 1318              		.text
 1320              		.align 2
 1322              	_ZN8UnitTest12_GLOBAL__N_172DeferredTestReporterFixtureReportTestStartCapturesTestNameAndSuiteHelpe
 1323              	.LFB1312:
  51:TestDeferredTestReporter.cpp **** 
  52:TestDeferredTestReporter.cpp **** TEST_FIXTURE(DeferredTestReporterFixture, ReportTestStartCapturesTestNameAndSuite)
 1324              		.loc 3 52 0
 1325              		.cfi_startproc
 1326 06ba 55       		pushq	%rbp
 1327              		.cfi_def_cfa_offset 16
 1328              		.cfi_offset 6, -16
 1329 06bb 4889E5   		movq	%rsp, %rbp
 1330              		.cfi_def_cfa_register 6
 1331 06be 4883EC10 		subq	$16, %rsp
 1332 06c2 48897DF8 		movq	%rdi, -8(%rbp)
 1333 06c6 488975F0 		movq	%rsi, -16(%rbp)
 1334              	.LBB28:
 1335              		.loc 3 52 0
 1336 06ca 488B45F8 		movq	-8(%rbp), %rax
 1337 06ce 4889C7   		movq	%rax, %rdi
 1338 06d1 E868F9FF 		call	_ZN8UnitTest12_GLOBAL__N_127DeferredTestReporterFixtureC2Ev
 1338      FF
 1339 06d6 488B45F8 		movq	-8(%rbp), %rax
 1340 06da 488B55F0 		movq	-16(%rbp), %rdx
 1341 06de 48895060 		movq	%rdx, 96(%rax)
 1342              	.LBE28:
 1343 06e2 C9       		leave
 1344              		.cfi_def_cfa 7, 8
 1345 06e3 C3       		ret
 1346              		.cfi_endproc
 1347              	.LFE1312:
 1349              		.set	_ZN8UnitTest12_GLOBAL__N_172DeferredTestReporterFixtureReportTestStartCapturesTestNameAndSuit
 1350              		.section	.rodata
 1351 0181 00000000 		.align 8
 1351      000000
 1352              	.LC10:
 1353 0188 5265706F 		.string	"ReportTestStartCapturesTestNameAndSuite"
 1353      72745465 
 1353      73745374 
 1353      61727443 
 1353      61707475 
 1354              		.text
 1355              		.align 2
 1357              	_ZN8UnitTest12_GLOBAL__N_170TestDeferredTestReporterFixtureReportTestStartCapturesTestNameAndSuiteC
 1358              	.LFB1315:
 1359              		.loc 3 52 0
 1360              		.cfi_startproc
 1361 06e4 55       		pushq	%rbp
 1362              		.cfi_def_cfa_offset 16
 1363              		.cfi_offset 6, -16
 1364 06e5 4889E5   		movq	%rsp, %rbp
 1365              		.cfi_def_cfa_register 6
 1366 06e8 4883EC10 		subq	$16, %rsp
 1367 06ec 48897DF8 		movq	%rdi, -8(%rbp)
 1368              	.LBB29:
 1369              		.loc 3 52 0
 1370 06f0 E8000000 		call	_ZN13UnitTestSuite12GetSuiteNameEv
 1370      00
 1371 06f5 4889C2   		movq	%rax, %rdx
 1372 06f8 488B45F8 		movq	-8(%rbp), %rax
 1373 06fc 41B83400 		movl	$52, %r8d
 1373      0000
 1374 0702 B9000000 		movl	$.LC4, %ecx
 1374      00
 1375 0707 BE000000 		movl	$.LC10, %esi
 1375      00
 1376 070c 4889C7   		movq	%rax, %rdi
 1377 070f E8000000 		call	_ZN8UnitTest4TestC2EPKcS2_S2_i
 1377      00
 1378 0714 488B45F8 		movq	-8(%rbp), %rax
 1379 0718 48C70000 		movq	$_ZTVN8UnitTest12_GLOBAL__N_170TestDeferredTestReporterFixtureReportTestStartCapturesTestName
 1379      000000
 1380              	.LBE29:
 1381 071f C9       		leave
 1382              		.cfi_def_cfa 7, 8
 1383 0720 C3       		ret
 1384              		.cfi_endproc
 1385              	.LFE1315:
 1387              		.set	_ZN8UnitTest12_GLOBAL__N_170TestDeferredTestReporterFixtureReportTestStartCapturesTestNameAnd
 1388              		.local	_ZN8UnitTest12_GLOBAL__N_178testDeferredTestReporterFixtureReportTestStartCapturesTestNameA
 1389              		.comm	_ZN8UnitTest12_GLOBAL__N_178testDeferredTestReporterFixtureReportTestStartCapturesTestNameAn
 1390              		.local	_ZN8UnitTest12_GLOBAL__N_171adderDeferredTestReporterFixtureReportTestStartCapturesTestName
 1391              		.comm	_ZN8UnitTest12_GLOBAL__N_171adderDeferredTestReporterFixtureReportTestStartCapturesTestNameA
 1392 0721 90       		.align 2
 1394              	_ZN8UnitTest12_GLOBAL__N_172DeferredTestReporterFixtureReportTestStartCapturesTestNameAndSuiteHelpe
 1395              	.LFB1319:
 1396              		.loc 3 52 0
 1397              		.cfi_startproc
 1398 0722 55       		pushq	%rbp
 1399              		.cfi_def_cfa_offset 16
 1400              		.cfi_offset 6, -16
 1401 0723 4889E5   		movq	%rsp, %rbp
 1402              		.cfi_def_cfa_register 6
 1403 0726 4883EC10 		subq	$16, %rsp
 1404 072a 48897DF8 		movq	%rdi, -8(%rbp)
 1405              	.LBB30:
 1406              		.loc 3 52 0
 1407 072e 488B45F8 		movq	-8(%rbp), %rax
 1408 0732 4889C7   		movq	%rax, %rdi
 1409 0735 E8AAFAFF 		call	_ZN8UnitTest12_GLOBAL__N_127DeferredTestReporterFixtureD2Ev
 1409      FF
 1410              	.LBE30:
 1411 073a C9       		leave
 1412              		.cfi_def_cfa 7, 8
 1413 073b C3       		ret
 1414              		.cfi_endproc
 1415              	.LFE1319:
 1417              		.set	_ZN8UnitTest12_GLOBAL__N_172DeferredTestReporterFixtureReportTestStartCapturesTestNameAndSuit
 1418              		.align 2
 1420              	_ZNK8UnitTest12_GLOBAL__N_170TestDeferredTestReporterFixtureReportTestStartCapturesTestNameAndSuite
 1421              	.LFB1317:
 1422              		.loc 3 52 0
 1423              		.cfi_startproc
 1424              		.cfi_personality 0x3,__gxx_personality_v0
 1425              		.cfi_lsda 0x3,.LLSDA1317
 1426 073c 55       		pushq	%rbp
 1427              		.cfi_def_cfa_offset 16
 1428              		.cfi_offset 6, -16
 1429 073d 4889E5   		movq	%rsp, %rbp
 1430              		.cfi_def_cfa_register 6
 1431 0740 4154     		pushq	%r12
 1432 0742 53       		pushq	%rbx
 1433 0743 4881ECA0 		subq	$416, %rsp
 1433      010000
 1434              		.cfi_offset 12, -24
 1435              		.cfi_offset 3, -32
 1436 074a 4889BD58 		movq	%rdi, -424(%rbp)
 1436      FEFFFF
 1437              	.LBB31:
 1438              		.loc 3 52 0
 1439 0751 C6856FFE 		movb	$0, -401(%rbp)
 1439      FFFF00
 1440              	.LBB32:
 1441 0758 488B8558 		movq	-424(%rbp), %rax
 1441      FEFFFF
 1442 075f 488D5008 		leaq	8(%rax), %rdx
 1443 0763 488D8580 		leaq	-384(%rbp), %rax
 1443      FEFFFF
 1444 076a 4889D6   		movq	%rdx, %rsi
 1445 076d 4889C7   		movq	%rax, %rdi
 1446              	.LEHB37:
 1447 0770 E845FFFF 		call	_ZN8UnitTest12_GLOBAL__N_172DeferredTestReporterFixtureReportTestStartCapturesTestNameAndSuit
 1447      FF
 1448              	.LEHE37:
 1449              		.loc 3 52 0 is_stmt 0 discriminator 1
 1450 0775 C6856FFE 		movb	$1, -401(%rbp)
 1450      FFFF01
 1451 077c 488B8558 		movq	-424(%rbp), %rax
 1451      FEFFFF
 1452 0783 488D5008 		leaq	8(%rax), %rdx
 1453 0787 488D8580 		leaq	-384(%rbp), %rax
 1453      FEFFFF
 1454 078e 4889D6   		movq	%rdx, %rsi
 1455 0791 4889C7   		movq	%rax, %rdi
 1456              	.LEHB38:
 1457 0794 E89D1B00 		call	_ZN8UnitTest11ExecuteTestINS_12_GLOBAL__N_172DeferredTestReporterFixtureReportTestStartCaptur
 1457      00
 1458              	.LEHE38:
 1459 0799 488D8580 		leaq	-384(%rbp), %rax
 1459      FEFFFF
 1460 07a0 4889C7   		movq	%rax, %rdi
 1461              	.LEHB39:
 1462 07a3 E87AFFFF 		call	_ZN8UnitTest12_GLOBAL__N_172DeferredTestReporterFixtureReportTestStartCapturesTestNameAndSuit
 1462      FF
 1463              	.LEHE39:
 1464              	.LBE32:
 1465              	.LBE31:
 1466              		.loc 3 52 0
 1467 07a8 E9640200 		jmp	.L102
 1467      00
 1468              	.L96:
 1469 07ad 4989C4   		movq	%rax, %r12
 1470 07b0 4889D3   		movq	%rdx, %rbx
 1471              	.LBB40:
 1472              	.LBB33:
 1473 07b3 488D8580 		leaq	-384(%rbp), %rax
 1473      FEFFFF
 1474 07ba 4889C7   		movq	%rax, %rdi
 1475 07bd E860FFFF 		call	_ZN8UnitTest12_GLOBAL__N_172DeferredTestReporterFixtureReportTestStartCapturesTestNameAndSuit
 1475      FF
 1476 07c2 4C89E0   		movq	%r12, %rax
 1477 07c5 4889DA   		movq	%rbx, %rdx
 1478 07c8 EB00     		jmp	.L84
 1479              	.L95:
 1480              	.L84:
 1481 07ca 4883FA01 		cmpq	$1, %rdx
 1482 07ce 745C     		je	.L86
 1483 07d0 4883FA02 		cmpq	$2, %rdx
 1484 07d4 0F84F400 		je	.L87
 1484      0000
 1485 07da E9980100 		jmp	.L101
 1485      00
 1486              	.L97:
 1487 07df 4889C3   		movq	%rax, %rbx
 1488              	.LBE33:
 1489              	.LBB34:
 1490 07e2 E8000000 		call	__cxa_end_catch
 1490      00
 1491 07e7 4889D8   		movq	%rbx, %rax
 1492 07ea 4889C7   		movq	%rax, %rdi
 1493              	.LEHB40:
 1494 07ed E8000000 		call	_Unwind_Resume
 1494      00
 1495              	.LEHE40:
 1496              	.L98:
 1497 07f2 4889C3   		movq	%rax, %rbx
 1498              	.LBE34:
 1499              	.LBB35:
 1500              	.LBB36:
 1501 07f5 488D8580 		leaq	-384(%rbp), %rax
 1501      FEFFFF
 1502 07fc 4889C7   		movq	%rax, %rdi
 1503 07ff E8000000 		call	_ZN8UnitTest15MemoryOutStreamD1Ev
 1503      00
 1504 0804 EB03     		jmp	.L90
 1505              	.L99:
 1506 0806 4889C3   		movq	%rax, %rbx
 1507              	.L90:
 1508              	.LBE36:
 1509 0809 E8000000 		call	__cxa_end_catch
 1509      00
 1510 080e 4889D8   		movq	%rbx, %rax
 1511 0811 4889C7   		movq	%rax, %rdi
 1512              	.LEHB41:
 1513 0814 E8000000 		call	_Unwind_Resume
 1513      00
 1514              	.LEHE41:
 1515              	.L100:
 1516 0819 4889C3   		movq	%rax, %rbx
 1517              	.LBE35:
 1518 081c E8000000 		call	__cxa_end_catch
 1518      00
 1519 0821 4889D8   		movq	%rbx, %rax
 1520 0824 4889C7   		movq	%rax, %rdi
 1521              	.LEHB42:
 1522 0827 E8000000 		call	_Unwind_Resume
 1522      00
 1523              	.LEHE42:
 1524              	.L86:
 1525              	.LBB38:
 1526 082c 4889C7   		movq	%rax, %rdi
 1527 082f E8000000 		call	__cxa_begin_catch
 1527      00
 1528 0834 48898570 		movq	%rax, -400(%rbp)
 1528      FEFFFF
 1529 083b 488B8570 		movq	-400(%rbp), %rax
 1529      FEFFFF
 1530 0842 488B00   		movq	(%rax), %rax
 1531 0845 4883C010 		addq	$16, %rax
 1532 0849 488B00   		movq	(%rax), %rax
 1533 084c 488B9570 		movq	-400(%rbp), %rdx
 1533      FEFFFF
 1534 0853 4889D7   		movq	%rdx, %rdi
 1535 0856 FFD0     		call	*%rax
 1536 0858 4889C3   		movq	%rax, %rbx
 1537 085b 488B8570 		movq	-400(%rbp), %rax
 1537      FEFFFF
 1538 0862 4889C7   		movq	%rax, %rdi
 1539              	.LEHB43:
 1540 0865 E8000000 		call	_ZNK8UnitTest15AssertException10LineNumberEv
 1540      00
 1541 086a 4189C4   		movl	%eax, %r12d
 1542 086d 488B8570 		movq	-400(%rbp), %rax
 1542      FEFFFF
 1543 0874 4889C7   		movq	%rax, %rdi
 1544 0877 E8000000 		call	_ZNK8UnitTest15AssertException8FilenameEv
 1544      00
 1545              		.loc 3 52 0 discriminator 1
 1546 087c 4889C1   		movq	%rax, %rcx
 1547 087f 488B8558 		movq	-424(%rbp), %rax
 1547      FEFFFF
 1548 0886 488B5008 		movq	8(%rax), %rdx
 1549 088a 488B8558 		movq	-424(%rbp), %rax
 1549      FEFFFF
 1550 0891 488B7010 		movq	16(%rax), %rsi
 1551 0895 488D8580 		leaq	-384(%rbp), %rax
 1551      FEFFFF
 1552 089c 4589E0   		movl	%r12d, %r8d
 1553 089f 4889C7   		movq	%rax, %rdi
 1554 08a2 E8000000 		call	_ZN8UnitTest11TestDetailsC1EPKcS2_S2_i
 1554      00
 1555              		.loc 3 52 0 discriminator 3
 1556 08a7 E8000000 		call	_ZN8UnitTest11CurrentTest7ResultsEv
 1556      00
 1557 08ac 488B00   		movq	(%rax), %rax
 1558 08af 488D8D80 		leaq	-384(%rbp), %rcx
 1558      FEFFFF
 1559 08b6 4889DA   		movq	%rbx, %rdx
 1560 08b9 4889CE   		movq	%rcx, %rsi
 1561 08bc 4889C7   		movq	%rax, %rdi
 1562 08bf E8000000 		call	_ZN8UnitTest11TestResults13OnTestFailureERKNS_11TestDetailsEPKc
 1562      00
 1563              	.LEHE43:
 1564              		.loc 3 52 0 discriminator 1
 1565 08c4 E8000000 		call	__cxa_end_catch
 1565      00
 1566              	.LBE38:
 1567              	.LBE40:
 1568 08c9 E9430100 		jmp	.L102
 1568      00
 1569              	.L87:
 1570              	.LBB41:
 1571              	.LBB39:
 1572              		.loc 3 52 0
 1573 08ce 4889C7   		movq	%rax, %rdi
 1574 08d1 E8000000 		call	__cxa_begin_catch
 1574      00
 1575 08d6 48898578 		movq	%rax, -392(%rbp)
 1575      FEFFFF
 1576              	.LBB37:
 1577 08dd 488D8580 		leaq	-384(%rbp), %rax
 1577      FEFFFF
 1578 08e4 4889C7   		movq	%rax, %rdi
 1579              	.LEHB44:
 1580 08e7 E8000000 		call	_ZN8UnitTest15MemoryOutStreamC1Ev
 1580      00
 1581              	.LEHE44:
 1582              		.loc 3 52 0 discriminator 1
 1583 08ec 488B8578 		movq	-392(%rbp), %rax
 1583      FEFFFF
 1584 08f3 488B00   		movq	(%rax), %rax
 1585 08f6 4883C010 		addq	$16, %rax
 1586 08fa 488B00   		movq	(%rax), %rax
 1587 08fd 488B9578 		movq	-392(%rbp), %rdx
 1587      FEFFFF
 1588 0904 4889D7   		movq	%rdx, %rdi
 1589 0907 FFD0     		call	*%rax
 1590 0909 4889C3   		movq	%rax, %rbx
 1591 090c 488D8580 		leaq	-384(%rbp), %rax
 1591      FEFFFF
 1592 0913 BE000000 		movl	$.LC6, %esi
 1592      00
 1593 0918 4889C7   		movq	%rax, %rdi
 1594              	.LEHB45:
 1595 091b E8000000 		call	_ZStlsISt11char_traitsIcEERSt13basic_ostreamIcT_ES5_PKc
 1595      00
 1596 0920 4889DE   		movq	%rbx, %rsi
 1597 0923 4889C7   		movq	%rax, %rdi
 1598 0926 E8000000 		call	_ZStlsISt11char_traitsIcEERSt13basic_ostreamIcT_ES5_PKc
 1598      00
 1599 092b 488D8580 		leaq	-384(%rbp), %rax
 1599      FEFFFF
 1600 0932 4889C7   		movq	%rax, %rdi
 1601 0935 E8000000 		call	_ZNK8UnitTest15MemoryOutStream7GetTextEv
 1601      00
 1602 093a 4889C3   		movq	%rax, %rbx
 1603 093d 488B8558 		movq	-424(%rbp), %rax
 1603      FEFFFF
 1604 0944 4C8D6008 		leaq	8(%rax), %r12
 1605 0948 E8000000 		call	_ZN8UnitTest11CurrentTest7ResultsEv
 1605      00
 1606 094d 488B00   		movq	(%rax), %rax
 1607 0950 4889DA   		movq	%rbx, %rdx
 1608 0953 4C89E6   		movq	%r12, %rsi
 1609 0956 4889C7   		movq	%rax, %rdi
 1610 0959 E8000000 		call	_ZN8UnitTest11TestResults13OnTestFailureERKNS_11TestDetailsEPKc
 1610      00
 1611              	.LEHE45:
 1612 095e 488D8580 		leaq	-384(%rbp), %rax
 1612      FEFFFF
 1613 0965 4889C7   		movq	%rax, %rdi
 1614              	.LEHB46:
 1615 0968 E8000000 		call	_ZN8UnitTest15MemoryOutStreamD1Ev
 1615      00
 1616              	.LEHE46:
 1617              	.LBE37:
 1618              		.loc 3 52 0
 1619 096d E8000000 		call	__cxa_end_catch
 1619      00
 1620              	.LBE39:
 1621              	.LBE41:
 1622 0972 E99A0000 		jmp	.L102
 1622      00
 1623              	.L101:
 1624              	.LBB42:
 1625 0977 4889C7   		movq	%rax, %rdi
 1626 097a E8000000 		call	__cxa_begin_catch
 1626      00
 1627 097f 80BD6FFE 		cmpb	$0, -401(%rbp)
 1627      FFFF00
 1628 0986 7443     		je	.L93
 1629              		.loc 3 52 0 discriminator 1
 1630 0988 488B8558 		movq	-424(%rbp), %rax
 1630      FEFFFF
 1631 098f 488D4808 		leaq	8(%rax), %rcx
 1632 0993 488D8580 		leaq	-384(%rbp), %rax
 1632      FEFFFF
 1633 099a BA340000 		movl	$52, %edx
 1633      00
 1634 099f 4889CE   		movq	%rcx, %rsi
 1635 09a2 4889C7   		movq	%rax, %rdi
 1636              	.LEHB47:
 1637 09a5 E8000000 		call	_ZN8UnitTest11TestDetailsC1ERKS0_i
 1637      00
 1638 09aa E8000000 		call	_ZN8UnitTest11CurrentTest7ResultsEv
 1638      00
 1639 09af 488B00   		movq	(%rax), %rax
 1640 09b2 488D8D80 		leaq	-384(%rbp), %rcx
 1640      FEFFFF
 1641 09b9 BA000000 		movl	$.LC7, %edx
 1641      00
 1642 09be 4889CE   		movq	%rcx, %rsi
 1643 09c1 4889C7   		movq	%rax, %rdi
 1644 09c4 E8000000 		call	_ZN8UnitTest11TestResults13OnTestFailureERKNS_11TestDetailsEPKc
 1644      00
 1645 09c9 EB41     		jmp	.L94
 1646              	.L93:
 1647              		.loc 3 52 0 discriminator 2
 1648 09cb 488B8558 		movq	-424(%rbp), %rax
 1648      FEFFFF
 1649 09d2 488D4808 		leaq	8(%rax), %rcx
 1650 09d6 488D8580 		leaq	-384(%rbp), %rax
 1650      FEFFFF
 1651 09dd BA340000 		movl	$52, %edx
 1651      00
 1652 09e2 4889CE   		movq	%rcx, %rsi
 1653 09e5 4889C7   		movq	%rax, %rdi
 1654 09e8 E8000000 		call	_ZN8UnitTest11TestDetailsC1ERKS0_i
 1654      00
 1655              		.loc 3 52 0 discriminator 1
 1656 09ed E8000000 		call	_ZN8UnitTest11CurrentTest7ResultsEv
 1656      00
 1657 09f2 488B00   		movq	(%rax), %rax
 1658 09f5 488D8D80 		leaq	-384(%rbp), %rcx
 1658      FEFFFF
 1659 09fc BA000000 		movl	$.LC8, %edx
 1659      00
 1660 0a01 4889CE   		movq	%rcx, %rsi
 1661 0a04 4889C7   		movq	%rax, %rdi
 1662 0a07 E8000000 		call	_ZN8UnitTest11TestResults13OnTestFailureERKNS_11TestDetailsEPKc
 1662      00
 1663              	.LEHE47:
 1664              	.L94:
 1665              	.LEHB48:
 1666 0a0c E8000000 		call	__cxa_end_catch
 1666      00
 1667              	.LEHE48:
 1668              	.L102:
 1669              	.LBE42:
 1670              		.loc 3 52 0
 1671 0a11 90       		nop
 1672 0a12 4881C4A0 		addq	$416, %rsp
 1672      010000
 1673 0a19 5B       		popq	%rbx
 1674 0a1a 415C     		popq	%r12
 1675 0a1c 5D       		popq	%rbp
 1676              		.cfi_def_cfa 7, 8
 1677 0a1d C3       		ret
 1678              		.cfi_endproc
 1679              	.LFE1317:
 1680              		.section	.gcc_except_table
 1681              		.align 4
 1682              	.LLSDA1317:
 1683 00bc FF       		.byte	0xff
 1684 00bd 03       		.byte	0x3
 1685 00be 59       		.uleb128 .LLSDATT1317-.LLSDATTD1317
 1686              	.LLSDATTD1317:
 1687 00bf 01       		.byte	0x1
 1688 00c0 40       		.uleb128 .LLSDACSE1317-.LLSDACSB1317
 1689              	.LLSDACSB1317:
 1690 00c1 34       		.uleb128 .LEHB37-.LFB1317
 1691 00c2 05       		.uleb128 .LEHE37-.LEHB37
 1692 00c3 8E01     		.uleb128 .L95-.LFB1317
 1693 00c5 05       		.uleb128 0x5
 1694 00c6 58       		.uleb128 .LEHB38-.LFB1317
 1695 00c7 05       		.uleb128 .LEHE38-.LEHB38
 1696 00c8 71       		.uleb128 .L96-.LFB1317
 1697 00c9 07       		.uleb128 0x7
 1698 00ca 67       		.uleb128 .LEHB39-.LFB1317
 1699 00cb 05       		.uleb128 .LEHE39-.LEHB39
 1700 00cc 8E01     		.uleb128 .L95-.LFB1317
 1701 00ce 05       		.uleb128 0x5
 1702 00cf B101     		.uleb128 .LEHB40-.LFB1317
 1703 00d1 05       		.uleb128 .LEHE40-.LEHB40
 1704 00d2 00       		.uleb128 0
 1705 00d3 00       		.uleb128 0
 1706 00d4 D801     		.uleb128 .LEHB41-.LFB1317
 1707 00d6 05       		.uleb128 .LEHE41-.LEHB41
 1708 00d7 00       		.uleb128 0
 1709 00d8 00       		.uleb128 0
 1710 00d9 EB01     		.uleb128 .LEHB42-.LFB1317
 1711 00db 05       		.uleb128 .LEHE42-.LEHB42
 1712 00dc 00       		.uleb128 0
 1713 00dd 00       		.uleb128 0
 1714 00de A902     		.uleb128 .LEHB43-.LFB1317
 1715 00e0 5F       		.uleb128 .LEHE43-.LEHB43
 1716 00e1 A301     		.uleb128 .L97-.LFB1317
 1717 00e3 00       		.uleb128 0
 1718 00e4 AB03     		.uleb128 .LEHB44-.LFB1317
 1719 00e6 05       		.uleb128 .LEHE44-.LEHB44
 1720 00e7 CA01     		.uleb128 .L99-.LFB1317
 1721 00e9 00       		.uleb128 0
 1722 00ea DF03     		.uleb128 .LEHB45-.LFB1317
 1723 00ec 43       		.uleb128 .LEHE45-.LEHB45
 1724 00ed B601     		.uleb128 .L98-.LFB1317
 1725 00ef 00       		.uleb128 0
 1726 00f0 AC04     		.uleb128 .LEHB46-.LFB1317
 1727 00f2 05       		.uleb128 .LEHE46-.LEHB46
 1728 00f3 CA01     		.uleb128 .L99-.LFB1317
 1729 00f5 00       		.uleb128 0
 1730 00f6 E904     		.uleb128 .LEHB47-.LFB1317
 1731 00f8 67       		.uleb128 .LEHE47-.LEHB47
 1732 00f9 DD01     		.uleb128 .L100-.LFB1317
 1733 00fb 00       		.uleb128 0
 1734 00fc D005     		.uleb128 .LEHB48-.LFB1317
 1735 00fe 05       		.uleb128 .LEHE48-.LEHB48
 1736 00ff 00       		.uleb128 0
 1737 0100 00       		.uleb128 0
 1738              	.LLSDACSE1317:
 1739 0101 03       		.byte	0x3
 1740 0102 00       		.byte	0
 1741 0103 02       		.byte	0x2
 1742 0104 7D       		.byte	0x7d
 1743 0105 01       		.byte	0x1
 1744 0106 7D       		.byte	0x7d
 1745 0107 00       		.byte	0
 1746 0108 7D       		.byte	0x7d
 1747 0109 000000   		.align 4
 1748 010c 00000000 		.long	0
 1749              	
 1750 0110 00000000 		.long	_ZTISt9exception
 1751 0114 00000000 		.long	_ZTIN8UnitTest15AssertExceptionE
 1752              	.LLSDATT1317:
 1753              		.text
 1755              		.section	.rodata
 1756              		.align 8
 1757              	.LC11:
 1758 01b0 556E6861 		.string	"Unhandled exception in CHECK_EQUAL(testName.c_str(), result.testName)"
 1758      6E646C65 
 1758      64206578 
 1758      63657074 
 1758      696F6E20 
 1759 01f6 0000     		.align 8
 1760              	.LC12:
 1761 01f8 556E6861 		.string	"Unhandled exception in CHECK_EQUAL(testSuite.c_str(), result.suiteName)"
 1761      6E646C65 
 1761      64206578 
 1761      63657074 
 1761      696F6E20 
 1762              		.text
 1763              		.align 2
 1765              	_ZN8UnitTest12_GLOBAL__N_172DeferredTestReporterFixtureReportTestStartCapturesTestNameAndSuiteHelpe
 1766              	.LFB1321:
  53:TestDeferredTestReporter.cpp **** {
 1767              		.loc 3 53 0 is_stmt 1
 1768              		.cfi_startproc
 1769              		.cfi_personality 0x3,__gxx_personality_v0
 1770              		.cfi_lsda 0x3,.LLSDA1321
 1771 0a1e 55       		pushq	%rbp
 1772              		.cfi_def_cfa_offset 16
 1773              		.cfi_offset 6, -16
 1774 0a1f 4889E5   		movq	%rsp, %rbp
 1775              		.cfi_def_cfa_register 6
 1776 0a22 53       		pushq	%rbx
 1777 0a23 4883EC48 		subq	$72, %rsp
 1778              		.cfi_offset 3, -24
 1779 0a27 48897DB8 		movq	%rdi, -72(%rbp)
 1780              	.LBB43:
  54:TestDeferredTestReporter.cpp ****     reporter.ReportTestStart(details);
 1781              		.loc 3 54 0
 1782 0a2b 488B45B8 		movq	-72(%rbp), %rax
 1783 0a2f 488D5040 		leaq	64(%rax), %rdx
 1784 0a33 488B45B8 		movq	-72(%rbp), %rax
 1785 0a37 4889D6   		movq	%rdx, %rsi
 1786 0a3a 4889C7   		movq	%rax, %rdi
 1787              	.LEHB49:
 1788 0a3d E8000000 		call	_ZN8UnitTest20DeferredTestReporter15ReportTestStartERKNS_11TestDetailsE
 1788      00
  55:TestDeferredTestReporter.cpp **** 
  56:TestDeferredTestReporter.cpp ****     DeferredTestResult const& result = reporter.GetResults().at(0);
 1789              		.loc 3 56 0
 1790 0a42 488B45B8 		movq	-72(%rbp), %rax
 1791 0a46 4889C7   		movq	%rax, %rdi
 1792 0a49 E8000000 		call	_ZN8UnitTest20DeferredTestReporter10GetResultsEv
 1792      00
 1793 0a4e BE000000 		movl	$0, %esi
 1793      00
 1794 0a53 4889C7   		movq	%rax, %rdi
 1795 0a56 E8000000 		call	_ZNSt6vectorIN8UnitTest18DeferredTestResultESaIS1_EE2atEm
 1795      00
 1796              	.LEHE49:
 1797 0a5b 488945C8 		movq	%rax, -56(%rbp)
 1798              	.LEHB50:
  57:TestDeferredTestReporter.cpp ****     CHECK_EQUAL(testName.c_str(), result.testName);
 1799              		.loc 3 57 0
 1800 0a5f E8000000 		call	_ZN8UnitTest11CurrentTest7DetailsEv
 1800      00
 1801 0a64 488B08   		movq	(%rax), %rcx
 1802 0a67 488D45D0 		leaq	-48(%rbp), %rax
 1803 0a6b BA390000 		movl	$57, %edx
 1803      00
 1804 0a70 4889CE   		movq	%rcx, %rsi
 1805 0a73 4889C7   		movq	%rax, %rdi
 1806 0a76 E8000000 		call	_ZN8UnitTest11TestDetailsC1ERKS0_i
 1806      00
 1807              		.loc 3 57 0 is_stmt 0 discriminator 1
 1808 0a7b 488B45C8 		movq	-56(%rbp), %rax
 1809 0a7f 488D5808 		leaq	8(%rax), %rbx
 1810 0a83 488B45B8 		movq	-72(%rbp), %rax
 1811 0a87 4883C020 		addq	$32, %rax
 1812 0a8b 4889C7   		movq	%rax, %rdi
 1813 0a8e E8000000 		call	_ZNKSs5c_strEv
 1813      00
 1814 0a93 488945C0 		movq	%rax, -64(%rbp)
 1815 0a97 E8000000 		call	_ZN8UnitTest11CurrentTest7ResultsEv
 1815      00
 1816 0a9c 488B00   		movq	(%rax), %rax
 1817 0a9f 488D55D0 		leaq	-48(%rbp), %rdx
 1818 0aa3 488D75C0 		leaq	-64(%rbp), %rsi
 1819 0aa7 4889D1   		movq	%rdx, %rcx
 1820 0aaa 4889DA   		movq	%rbx, %rdx
 1821 0aad 4889C7   		movq	%rax, %rdi
 1822 0ab0 E8000000 		call	_ZN8UnitTest10CheckEqualIPKcSsEEvRNS_11TestResultsERKT_RKT0_RKNS_11TestDetailsE
 1822      00
 1823              	.LEHE50:
 1824              	.L106:
 1825              	.LEHB51:
  58:TestDeferredTestReporter.cpp ****     CHECK_EQUAL(testSuite.c_str(), result.suiteName);
 1826              		.loc 3 58 0 is_stmt 1
 1827 0ab5 E8000000 		call	_ZN8UnitTest11CurrentTest7DetailsEv
 1827      00
 1828 0aba 488B08   		movq	(%rax), %rcx
 1829 0abd 488D45D0 		leaq	-48(%rbp), %rax
 1830 0ac1 BA3A0000 		movl	$58, %edx
 1830      00
 1831 0ac6 4889CE   		movq	%rcx, %rsi
 1832 0ac9 4889C7   		movq	%rax, %rdi
 1833 0acc E8000000 		call	_ZN8UnitTest11TestDetailsC1ERKS0_i
 1833      00
 1834              		.loc 3 58 0 is_stmt 0 discriminator 1
 1835 0ad1 488B5DC8 		movq	-56(%rbp), %rbx
 1836 0ad5 488B45B8 		movq	-72(%rbp), %rax
 1837 0ad9 4883C028 		addq	$40, %rax
 1838 0add 4889C7   		movq	%rax, %rdi
 1839 0ae0 E8000000 		call	_ZNKSs5c_strEv
 1839      00
 1840 0ae5 488945C0 		movq	%rax, -64(%rbp)
 1841 0ae9 E8000000 		call	_ZN8UnitTest11CurrentTest7ResultsEv
 1841      00
 1842 0aee 488B00   		movq	(%rax), %rax
 1843 0af1 488D55D0 		leaq	-48(%rbp), %rdx
 1844 0af5 488D75C0 		leaq	-64(%rbp), %rsi
 1845 0af9 4889D1   		movq	%rdx, %rcx
 1846 0afc 4889DA   		movq	%rbx, %rdx
 1847 0aff 4889C7   		movq	%rax, %rdi
 1848 0b02 E8000000 		call	_ZN8UnitTest10CheckEqualIPKcSsEEvRNS_11TestResultsERKT_RKT0_RKNS_11TestDetailsE
 1848      00
 1849              	.LEHE51:
 1850              	.LBE43:
  59:TestDeferredTestReporter.cpp **** }
 1851              		.loc 3 59 0 is_stmt 1
 1852 0b07 E9B50000 		jmp	.L114
 1852      00
 1853              	.L111:
 1854 0b0c 4889C3   		movq	%rax, %rbx
 1855              	.LBB44:
  57:TestDeferredTestReporter.cpp ****     CHECK_EQUAL(testName.c_str(), result.testName);
 1856              		.loc 3 57 0
 1857 0b0f E8000000 		call	__cxa_end_catch
 1857      00
 1858 0b14 4889D8   		movq	%rbx, %rax
 1859 0b17 4889C7   		movq	%rax, %rdi
 1860              	.LEHB52:
 1861 0b1a E8000000 		call	_Unwind_Resume
 1861      00
 1862              	.LEHE52:
 1863              	.L110:
 1864 0b1f 4889C7   		movq	%rax, %rdi
 1865 0b22 E8000000 		call	__cxa_begin_catch
 1865      00
 1866              	.LEHB53:
 1867 0b27 E8000000 		call	_ZN8UnitTest11CurrentTest7DetailsEv
 1867      00
 1868 0b2c 488B08   		movq	(%rax), %rcx
 1869 0b2f 488D45D0 		leaq	-48(%rbp), %rax
 1870 0b33 BA390000 		movl	$57, %edx
 1870      00
 1871 0b38 4889CE   		movq	%rcx, %rsi
 1872 0b3b 4889C7   		movq	%rax, %rdi
 1873 0b3e E8000000 		call	_ZN8UnitTest11TestDetailsC1ERKS0_i
 1873      00
  57:TestDeferredTestReporter.cpp ****     CHECK_EQUAL(testName.c_str(), result.testName);
 1874              		.loc 3 57 0 is_stmt 0 discriminator 1
 1875 0b43 E8000000 		call	_ZN8UnitTest11CurrentTest7ResultsEv
 1875      00
 1876 0b48 488B00   		movq	(%rax), %rax
 1877 0b4b 488D4DD0 		leaq	-48(%rbp), %rcx
 1878 0b4f BA000000 		movl	$.LC11, %edx
 1878      00
 1879 0b54 4889CE   		movq	%rcx, %rsi
 1880 0b57 4889C7   		movq	%rax, %rdi
 1881 0b5a E8000000 		call	_ZN8UnitTest11TestResults13OnTestFailureERKNS_11TestDetailsEPKc
 1881      00
 1882              	.LEHE53:
 1883              	.LEHB54:
 1884 0b5f E8000000 		call	__cxa_end_catch
 1884      00
 1885              	.LEHE54:
 1886 0b64 E94CFFFF 		jmp	.L106
 1886      FF
 1887              	.L113:
 1888 0b69 4889C3   		movq	%rax, %rbx
  58:TestDeferredTestReporter.cpp ****     CHECK_EQUAL(testSuite.c_str(), result.suiteName);
 1889              		.loc 3 58 0 is_stmt 1
 1890 0b6c E8000000 		call	__cxa_end_catch
 1890      00
 1891 0b71 4889D8   		movq	%rbx, %rax
 1892 0b74 4889C7   		movq	%rax, %rdi
 1893              	.LEHB55:
 1894 0b77 E8000000 		call	_Unwind_Resume
 1894      00
 1895              	.LEHE55:
 1896              	.L112:
 1897 0b7c 4889C7   		movq	%rax, %rdi
 1898 0b7f E8000000 		call	__cxa_begin_catch
 1898      00
 1899              	.LEHB56:
 1900 0b84 E8000000 		call	_ZN8UnitTest11CurrentTest7DetailsEv
 1900      00
 1901 0b89 488B08   		movq	(%rax), %rcx
 1902 0b8c 488D45D0 		leaq	-48(%rbp), %rax
 1903 0b90 BA3A0000 		movl	$58, %edx
 1903      00
 1904 0b95 4889CE   		movq	%rcx, %rsi
 1905 0b98 4889C7   		movq	%rax, %rdi
 1906 0b9b E8000000 		call	_ZN8UnitTest11TestDetailsC1ERKS0_i
 1906      00
  58:TestDeferredTestReporter.cpp ****     CHECK_EQUAL(testSuite.c_str(), result.suiteName);
 1907              		.loc 3 58 0 is_stmt 0 discriminator 1
 1908 0ba0 E8000000 		call	_ZN8UnitTest11CurrentTest7ResultsEv
 1908      00
 1909 0ba5 488B00   		movq	(%rax), %rax
 1910 0ba8 488D4DD0 		leaq	-48(%rbp), %rcx
 1911 0bac BA000000 		movl	$.LC12, %edx
 1911      00
 1912 0bb1 4889CE   		movq	%rcx, %rsi
 1913 0bb4 4889C7   		movq	%rax, %rdi
 1914 0bb7 E8000000 		call	_ZN8UnitTest11TestResults13OnTestFailureERKNS_11TestDetailsEPKc
 1914      00
 1915              	.LEHE56:
 1916              	.LEHB57:
 1917 0bbc E8000000 		call	__cxa_end_catch
 1917      00
 1918              	.LEHE57:
 1919              	.L114:
 1920              	.LBE44:
 1921              		.loc 3 59 0 is_stmt 1
 1922 0bc1 90       		nop
 1923 0bc2 4883C448 		addq	$72, %rsp
 1924 0bc6 5B       		popq	%rbx
 1925 0bc7 5D       		popq	%rbp
 1926              		.cfi_def_cfa 7, 8
 1927 0bc8 C3       		ret
 1928              		.cfi_endproc
 1929              	.LFE1321:
 1930              		.section	.gcc_except_table
 1931              		.align 4
 1932              	.LLSDA1321:
 1933 0118 FF       		.byte	0xff
 1934 0119 03       		.byte	0x3
 1935 011a 39       		.uleb128 .LLSDATT1321-.LLSDATTD1321
 1936              	.LLSDATTD1321:
 1937 011b 01       		.byte	0x1
 1938 011c 2F       		.uleb128 .LLSDACSE1321-.LLSDACSB1321
 1939              	.LLSDACSB1321:
 1940 011d 1F       		.uleb128 .LEHB49-.LFB1321
 1941 011e 1E       		.uleb128 .LEHE49-.LEHB49
 1942 011f 00       		.uleb128 0
 1943 0120 00       		.uleb128 0
 1944 0121 41       		.uleb128 .LEHB50-.LFB1321
 1945 0122 56       		.uleb128 .LEHE50-.LEHB50
 1946 0123 8102     		.uleb128 .L110-.LFB1321
 1947 0125 01       		.uleb128 0x1
 1948 0126 9701     		.uleb128 .LEHB51-.LFB1321
 1949 0128 52       		.uleb128 .LEHE51-.LEHB51
 1950 0129 DE02     		.uleb128 .L112-.LFB1321
 1951 012b 01       		.uleb128 0x1
 1952 012c FC01     		.uleb128 .LEHB52-.LFB1321
 1953 012e 05       		.uleb128 .LEHE52-.LEHB52
 1954 012f 00       		.uleb128 0
 1955 0130 00       		.uleb128 0
 1956 0131 8902     		.uleb128 .LEHB53-.LFB1321
 1957 0133 38       		.uleb128 .LEHE53-.LEHB53
 1958 0134 EE01     		.uleb128 .L111-.LFB1321
 1959 0136 00       		.uleb128 0
 1960 0137 C102     		.uleb128 .LEHB54-.LFB1321
 1961 0139 05       		.uleb128 .LEHE54-.LEHB54
 1962 013a 00       		.uleb128 0
 1963 013b 00       		.uleb128 0
 1964 013c D902     		.uleb128 .LEHB55-.LFB1321
 1965 013e 05       		.uleb128 .LEHE55-.LEHB55
 1966 013f 00       		.uleb128 0
 1967 0140 00       		.uleb128 0
 1968 0141 E602     		.uleb128 .LEHB56-.LFB1321
 1969 0143 38       		.uleb128 .LEHE56-.LEHB56
 1970 0144 CB02     		.uleb128 .L113-.LFB1321
 1971 0146 00       		.uleb128 0
 1972 0147 9E03     		.uleb128 .LEHB57-.LFB1321
 1973 0149 05       		.uleb128 .LEHE57-.LEHB57
 1974 014a 00       		.uleb128 0
 1975 014b 00       		.uleb128 0
 1976              	.LLSDACSE1321:
 1977 014c 01       		.byte	0x1
 1978 014d 00       		.byte	0
 1979 014e 0000     		.align 4
 1980 0150 00000000 		.long	0
 1981              	
 1982              	.LLSDATT1321:
 1983              		.text
 1985 0bc9 90       		.align 2
 1987              	_ZN8UnitTest12_GLOBAL__N_162DeferredTestReporterFixtureReportTestEndCapturesTestTimeHelperC2ERKNS_1
 1988              	.LFB1323:
  60:TestDeferredTestReporter.cpp **** 
  61:TestDeferredTestReporter.cpp **** TEST_FIXTURE(DeferredTestReporterFixture, ReportTestEndCapturesTestTime)
 1989              		.loc 3 61 0
 1990              		.cfi_startproc
 1991 0bca 55       		pushq	%rbp
 1992              		.cfi_def_cfa_offset 16
 1993              		.cfi_offset 6, -16
 1994 0bcb 4889E5   		movq	%rsp, %rbp
 1995              		.cfi_def_cfa_register 6
 1996 0bce 4883EC10 		subq	$16, %rsp
 1997 0bd2 48897DF8 		movq	%rdi, -8(%rbp)
 1998 0bd6 488975F0 		movq	%rsi, -16(%rbp)
 1999              	.LBB45:
 2000              		.loc 3 61 0
 2001 0bda 488B45F8 		movq	-8(%rbp), %rax
 2002 0bde 4889C7   		movq	%rax, %rdi
 2003 0be1 E858F4FF 		call	_ZN8UnitTest12_GLOBAL__N_127DeferredTestReporterFixtureC2Ev
 2003      FF
 2004 0be6 488B45F8 		movq	-8(%rbp), %rax
 2005 0bea 488B55F0 		movq	-16(%rbp), %rdx
 2006 0bee 48895060 		movq	%rdx, 96(%rax)
 2007              	.LBE45:
 2008 0bf2 C9       		leave
 2009              		.cfi_def_cfa 7, 8
 2010 0bf3 C3       		ret
 2011              		.cfi_endproc
 2012              	.LFE1323:
 2014              		.set	_ZN8UnitTest12_GLOBAL__N_162DeferredTestReporterFixtureReportTestEndCapturesTestTimeHelperC1E
 2015              		.section	.rodata
 2016              	.LC13:
 2017 0240 5265706F 		.string	"ReportTestEndCapturesTestTime"
 2017      72745465 
 2017      7374456E 
 2017      64436170 
 2017      74757265 
 2018              		.text
 2019              		.align 2
 2021              	_ZN8UnitTest12_GLOBAL__N_160TestDeferredTestReporterFixtureReportTestEndCapturesTestTimeC2Ev:
 2022              	.LFB1326:
 2023              		.loc 3 61 0
 2024              		.cfi_startproc
 2025 0bf4 55       		pushq	%rbp
 2026              		.cfi_def_cfa_offset 16
 2027              		.cfi_offset 6, -16
 2028 0bf5 4889E5   		movq	%rsp, %rbp
 2029              		.cfi_def_cfa_register 6
 2030 0bf8 4883EC10 		subq	$16, %rsp
 2031 0bfc 48897DF8 		movq	%rdi, -8(%rbp)
 2032              	.LBB46:
 2033              		.loc 3 61 0
 2034 0c00 E8000000 		call	_ZN13UnitTestSuite12GetSuiteNameEv
 2034      00
 2035 0c05 4889C2   		movq	%rax, %rdx
 2036 0c08 488B45F8 		movq	-8(%rbp), %rax
 2037 0c0c 41B83D00 		movl	$61, %r8d
 2037      0000
 2038 0c12 B9000000 		movl	$.LC4, %ecx
 2038      00
 2039 0c17 BE000000 		movl	$.LC13, %esi
 2039      00
 2040 0c1c 4889C7   		movq	%rax, %rdi
 2041 0c1f E8000000 		call	_ZN8UnitTest4TestC2EPKcS2_S2_i
 2041      00
 2042 0c24 488B45F8 		movq	-8(%rbp), %rax
 2043 0c28 48C70000 		movq	$_ZTVN8UnitTest12_GLOBAL__N_160TestDeferredTestReporterFixtureReportTestEndCapturesTestTimeE+
 2043      000000
 2044              	.LBE46:
 2045 0c2f C9       		leave
 2046              		.cfi_def_cfa 7, 8
 2047 0c30 C3       		ret
 2048              		.cfi_endproc
 2049              	.LFE1326:
 2051              		.set	_ZN8UnitTest12_GLOBAL__N_160TestDeferredTestReporterFixtureReportTestEndCapturesTestTimeC1Ev,
 2052              		.local	_ZN8UnitTest12_GLOBAL__N_168testDeferredTestReporterFixtureReportTestEndCapturesTestTimeIns
 2053              		.comm	_ZN8UnitTest12_GLOBAL__N_168testDeferredTestReporterFixtureReportTestEndCapturesTestTimeInst
 2054              		.local	_ZN8UnitTest12_GLOBAL__N_161adderDeferredTestReporterFixtureReportTestEndCapturesTestTimeE
 2055              		.comm	_ZN8UnitTest12_GLOBAL__N_161adderDeferredTestReporterFixtureReportTestEndCapturesTestTimeE,1
 2056 0c31 90       		.align 2
 2058              	_ZN8UnitTest12_GLOBAL__N_162DeferredTestReporterFixtureReportTestEndCapturesTestTimeHelperD2Ev:
 2059              	.LFB1330:
 2060              		.loc 3 61 0
 2061              		.cfi_startproc
 2062 0c32 55       		pushq	%rbp
 2063              		.cfi_def_cfa_offset 16
 2064              		.cfi_offset 6, -16
 2065 0c33 4889E5   		movq	%rsp, %rbp
 2066              		.cfi_def_cfa_register 6
 2067 0c36 4883EC10 		subq	$16, %rsp
 2068 0c3a 48897DF8 		movq	%rdi, -8(%rbp)
 2069              	.LBB47:
 2070              		.loc 3 61 0
 2071 0c3e 488B45F8 		movq	-8(%rbp), %rax
 2072 0c42 4889C7   		movq	%rax, %rdi
 2073 0c45 E89AF5FF 		call	_ZN8UnitTest12_GLOBAL__N_127DeferredTestReporterFixtureD2Ev
 2073      FF
 2074              	.LBE47:
 2075 0c4a C9       		leave
 2076              		.cfi_def_cfa 7, 8
 2077 0c4b C3       		ret
 2078              		.cfi_endproc
 2079              	.LFE1330:
 2081              		.set	_ZN8UnitTest12_GLOBAL__N_162DeferredTestReporterFixtureReportTestEndCapturesTestTimeHelperD1E
 2082              		.align 2
 2084              	_ZNK8UnitTest12_GLOBAL__N_160TestDeferredTestReporterFixtureReportTestEndCapturesTestTime7RunImplEv
 2085              	.LFB1328:
 2086              		.loc 3 61 0
 2087              		.cfi_startproc
 2088              		.cfi_personality 0x3,__gxx_personality_v0
 2089              		.cfi_lsda 0x3,.LLSDA1328
 2090 0c4c 55       		pushq	%rbp
 2091              		.cfi_def_cfa_offset 16
 2092              		.cfi_offset 6, -16
 2093 0c4d 4889E5   		movq	%rsp, %rbp
 2094              		.cfi_def_cfa_register 6
 2095 0c50 4154     		pushq	%r12
 2096 0c52 53       		pushq	%rbx
 2097 0c53 4881ECA0 		subq	$416, %rsp
 2097      010000
 2098              		.cfi_offset 12, -24
 2099              		.cfi_offset 3, -32
 2100 0c5a 4889BD58 		movq	%rdi, -424(%rbp)
 2100      FEFFFF
 2101              	.LBB48:
 2102              		.loc 3 61 0
 2103 0c61 C6856FFE 		movb	$0, -401(%rbp)
 2103      FFFF00
 2104              	.LBB49:
 2105 0c68 488B8558 		movq	-424(%rbp), %rax
 2105      FEFFFF
 2106 0c6f 488D5008 		leaq	8(%rax), %rdx
 2107 0c73 488D8580 		leaq	-384(%rbp), %rax
 2107      FEFFFF
 2108 0c7a 4889D6   		movq	%rdx, %rsi
 2109 0c7d 4889C7   		movq	%rax, %rdi
 2110              	.LEHB58:
 2111 0c80 E845FFFF 		call	_ZN8UnitTest12_GLOBAL__N_162DeferredTestReporterFixtureReportTestEndCapturesTestTimeHelperC1E
 2111      FF
 2112              	.LEHE58:
 2113              		.loc 3 61 0 is_stmt 0 discriminator 1
 2114 0c85 C6856FFE 		movb	$1, -401(%rbp)
 2114      FFFF01
 2115 0c8c 488B8558 		movq	-424(%rbp), %rax
 2115      FEFFFF
 2116 0c93 488D5008 		leaq	8(%rax), %rdx
 2117 0c97 488D8580 		leaq	-384(%rbp), %rax
 2117      FEFFFF
 2118 0c9e 4889D6   		movq	%rdx, %rsi
 2119 0ca1 4889C7   		movq	%rax, %rdi
 2120              	.LEHB59:
 2121 0ca4 E8251900 		call	_ZN8UnitTest11ExecuteTestINS_12_GLOBAL__N_162DeferredTestReporterFixtureReportTestEndCaptures
 2121      00
 2122              	.LEHE59:
 2123 0ca9 488D8580 		leaq	-384(%rbp), %rax
 2123      FEFFFF
 2124 0cb0 4889C7   		movq	%rax, %rdi
 2125              	.LEHB60:
 2126 0cb3 E87AFFFF 		call	_ZN8UnitTest12_GLOBAL__N_162DeferredTestReporterFixtureReportTestEndCapturesTestTimeHelperD1E
 2126      FF
 2127              	.LEHE60:
 2128              	.LBE49:
 2129              	.LBE48:
 2130              		.loc 3 61 0
 2131 0cb8 E9640200 		jmp	.L139
 2131      00
 2132              	.L133:
 2133 0cbd 4989C4   		movq	%rax, %r12
 2134 0cc0 4889D3   		movq	%rdx, %rbx
 2135              	.LBB57:
 2136              	.LBB50:
 2137 0cc3 488D8580 		leaq	-384(%rbp), %rax
 2137      FEFFFF
 2138 0cca 4889C7   		movq	%rax, %rdi
 2139 0ccd E860FFFF 		call	_ZN8UnitTest12_GLOBAL__N_162DeferredTestReporterFixtureReportTestEndCapturesTestTimeHelperD1E
 2139      FF
 2140 0cd2 4C89E0   		movq	%r12, %rax
 2141 0cd5 4889DA   		movq	%rbx, %rdx
 2142 0cd8 EB00     		jmp	.L121
 2143              	.L132:
 2144              	.L121:
 2145 0cda 4883FA01 		cmpq	$1, %rdx
 2146 0cde 745C     		je	.L123
 2147 0ce0 4883FA02 		cmpq	$2, %rdx
 2148 0ce4 0F84F400 		je	.L124
 2148      0000
 2149 0cea E9980100 		jmp	.L138
 2149      00
 2150              	.L134:
 2151 0cef 4889C3   		movq	%rax, %rbx
 2152              	.LBE50:
 2153              	.LBB51:
 2154 0cf2 E8000000 		call	__cxa_end_catch
 2154      00
 2155 0cf7 4889D8   		movq	%rbx, %rax
 2156 0cfa 4889C7   		movq	%rax, %rdi
 2157              	.LEHB61:
 2158 0cfd E8000000 		call	_Unwind_Resume
 2158      00
 2159              	.LEHE61:
 2160              	.L135:
 2161 0d02 4889C3   		movq	%rax, %rbx
 2162              	.LBE51:
 2163              	.LBB52:
 2164              	.LBB53:
 2165 0d05 488D8580 		leaq	-384(%rbp), %rax
 2165      FEFFFF
 2166 0d0c 4889C7   		movq	%rax, %rdi
 2167 0d0f E8000000 		call	_ZN8UnitTest15MemoryOutStreamD1Ev
 2167      00
 2168 0d14 EB03     		jmp	.L127
 2169              	.L136:
 2170 0d16 4889C3   		movq	%rax, %rbx
 2171              	.L127:
 2172              	.LBE53:
 2173 0d19 E8000000 		call	__cxa_end_catch
 2173      00
 2174 0d1e 4889D8   		movq	%rbx, %rax
 2175 0d21 4889C7   		movq	%rax, %rdi
 2176              	.LEHB62:
 2177 0d24 E8000000 		call	_Unwind_Resume
 2177      00
 2178              	.LEHE62:
 2179              	.L137:
 2180 0d29 4889C3   		movq	%rax, %rbx
 2181              	.LBE52:
 2182 0d2c E8000000 		call	__cxa_end_catch
 2182      00
 2183 0d31 4889D8   		movq	%rbx, %rax
 2184 0d34 4889C7   		movq	%rax, %rdi
 2185              	.LEHB63:
 2186 0d37 E8000000 		call	_Unwind_Resume
 2186      00
 2187              	.LEHE63:
 2188              	.L123:
 2189              	.LBB55:
 2190 0d3c 4889C7   		movq	%rax, %rdi
 2191 0d3f E8000000 		call	__cxa_begin_catch
 2191      00
 2192 0d44 48898570 		movq	%rax, -400(%rbp)
 2192      FEFFFF
 2193 0d4b 488B8570 		movq	-400(%rbp), %rax
 2193      FEFFFF
 2194 0d52 488B00   		movq	(%rax), %rax
 2195 0d55 4883C010 		addq	$16, %rax
 2196 0d59 488B00   		movq	(%rax), %rax
 2197 0d5c 488B9570 		movq	-400(%rbp), %rdx
 2197      FEFFFF
 2198 0d63 4889D7   		movq	%rdx, %rdi
 2199 0d66 FFD0     		call	*%rax
 2200 0d68 4889C3   		movq	%rax, %rbx
 2201 0d6b 488B8570 		movq	-400(%rbp), %rax
 2201      FEFFFF
 2202 0d72 4889C7   		movq	%rax, %rdi
 2203              	.LEHB64:
 2204 0d75 E8000000 		call	_ZNK8UnitTest15AssertException10LineNumberEv
 2204      00
 2205 0d7a 4189C4   		movl	%eax, %r12d
 2206 0d7d 488B8570 		movq	-400(%rbp), %rax
 2206      FEFFFF
 2207 0d84 4889C7   		movq	%rax, %rdi
 2208 0d87 E8000000 		call	_ZNK8UnitTest15AssertException8FilenameEv
 2208      00
 2209              		.loc 3 61 0 discriminator 1
 2210 0d8c 4889C1   		movq	%rax, %rcx
 2211 0d8f 488B8558 		movq	-424(%rbp), %rax
 2211      FEFFFF
 2212 0d96 488B5008 		movq	8(%rax), %rdx
 2213 0d9a 488B8558 		movq	-424(%rbp), %rax
 2213      FEFFFF
 2214 0da1 488B7010 		movq	16(%rax), %rsi
 2215 0da5 488D8580 		leaq	-384(%rbp), %rax
 2215      FEFFFF
 2216 0dac 4589E0   		movl	%r12d, %r8d
 2217 0daf 4889C7   		movq	%rax, %rdi
 2218 0db2 E8000000 		call	_ZN8UnitTest11TestDetailsC1EPKcS2_S2_i
 2218      00
 2219              		.loc 3 61 0 discriminator 3
 2220 0db7 E8000000 		call	_ZN8UnitTest11CurrentTest7ResultsEv
 2220      00
 2221 0dbc 488B00   		movq	(%rax), %rax
 2222 0dbf 488D8D80 		leaq	-384(%rbp), %rcx
 2222      FEFFFF
 2223 0dc6 4889DA   		movq	%rbx, %rdx
 2224 0dc9 4889CE   		movq	%rcx, %rsi
 2225 0dcc 4889C7   		movq	%rax, %rdi
 2226 0dcf E8000000 		call	_ZN8UnitTest11TestResults13OnTestFailureERKNS_11TestDetailsEPKc
 2226      00
 2227              	.LEHE64:
 2228              		.loc 3 61 0 discriminator 1
 2229 0dd4 E8000000 		call	__cxa_end_catch
 2229      00
 2230              	.LBE55:
 2231              	.LBE57:
 2232 0dd9 E9430100 		jmp	.L139
 2232      00
 2233              	.L124:
 2234              	.LBB58:
 2235              	.LBB56:
 2236              		.loc 3 61 0
 2237 0dde 4889C7   		movq	%rax, %rdi
 2238 0de1 E8000000 		call	__cxa_begin_catch
 2238      00
 2239 0de6 48898578 		movq	%rax, -392(%rbp)
 2239      FEFFFF
 2240              	.LBB54:
 2241 0ded 488D8580 		leaq	-384(%rbp), %rax
 2241      FEFFFF
 2242 0df4 4889C7   		movq	%rax, %rdi
 2243              	.LEHB65:
 2244 0df7 E8000000 		call	_ZN8UnitTest15MemoryOutStreamC1Ev
 2244      00
 2245              	.LEHE65:
 2246              		.loc 3 61 0 discriminator 1
 2247 0dfc 488B8578 		movq	-392(%rbp), %rax
 2247      FEFFFF
 2248 0e03 488B00   		movq	(%rax), %rax
 2249 0e06 4883C010 		addq	$16, %rax
 2250 0e0a 488B00   		movq	(%rax), %rax
 2251 0e0d 488B9578 		movq	-392(%rbp), %rdx
 2251      FEFFFF
 2252 0e14 4889D7   		movq	%rdx, %rdi
 2253 0e17 FFD0     		call	*%rax
 2254 0e19 4889C3   		movq	%rax, %rbx
 2255 0e1c 488D8580 		leaq	-384(%rbp), %rax
 2255      FEFFFF
 2256 0e23 BE000000 		movl	$.LC6, %esi
 2256      00
 2257 0e28 4889C7   		movq	%rax, %rdi
 2258              	.LEHB66:
 2259 0e2b E8000000 		call	_ZStlsISt11char_traitsIcEERSt13basic_ostreamIcT_ES5_PKc
 2259      00
 2260 0e30 4889DE   		movq	%rbx, %rsi
 2261 0e33 4889C7   		movq	%rax, %rdi
 2262 0e36 E8000000 		call	_ZStlsISt11char_traitsIcEERSt13basic_ostreamIcT_ES5_PKc
 2262      00
 2263 0e3b 488D8580 		leaq	-384(%rbp), %rax
 2263      FEFFFF
 2264 0e42 4889C7   		movq	%rax, %rdi
 2265 0e45 E8000000 		call	_ZNK8UnitTest15MemoryOutStream7GetTextEv
 2265      00
 2266 0e4a 4889C3   		movq	%rax, %rbx
 2267 0e4d 488B8558 		movq	-424(%rbp), %rax
 2267      FEFFFF
 2268 0e54 4C8D6008 		leaq	8(%rax), %r12
 2269 0e58 E8000000 		call	_ZN8UnitTest11CurrentTest7ResultsEv
 2269      00
 2270 0e5d 488B00   		movq	(%rax), %rax
 2271 0e60 4889DA   		movq	%rbx, %rdx
 2272 0e63 4C89E6   		movq	%r12, %rsi
 2273 0e66 4889C7   		movq	%rax, %rdi
 2274 0e69 E8000000 		call	_ZN8UnitTest11TestResults13OnTestFailureERKNS_11TestDetailsEPKc
 2274      00
 2275              	.LEHE66:
 2276 0e6e 488D8580 		leaq	-384(%rbp), %rax
 2276      FEFFFF
 2277 0e75 4889C7   		movq	%rax, %rdi
 2278              	.LEHB67:
 2279 0e78 E8000000 		call	_ZN8UnitTest15MemoryOutStreamD1Ev
 2279      00
 2280              	.LEHE67:
 2281              	.LBE54:
 2282              		.loc 3 61 0
 2283 0e7d E8000000 		call	__cxa_end_catch
 2283      00
 2284              	.LBE56:
 2285              	.LBE58:
 2286 0e82 E99A0000 		jmp	.L139
 2286      00
 2287              	.L138:
 2288              	.LBB59:
 2289 0e87 4889C7   		movq	%rax, %rdi
 2290 0e8a E8000000 		call	__cxa_begin_catch
 2290      00
 2291 0e8f 80BD6FFE 		cmpb	$0, -401(%rbp)
 2291      FFFF00
 2292 0e96 7443     		je	.L130
 2293              		.loc 3 61 0 discriminator 1
 2294 0e98 488B8558 		movq	-424(%rbp), %rax
 2294      FEFFFF
 2295 0e9f 488D4808 		leaq	8(%rax), %rcx
 2296 0ea3 488D8580 		leaq	-384(%rbp), %rax
 2296      FEFFFF
 2297 0eaa BA3D0000 		movl	$61, %edx
 2297      00
 2298 0eaf 4889CE   		movq	%rcx, %rsi
 2299 0eb2 4889C7   		movq	%rax, %rdi
 2300              	.LEHB68:
 2301 0eb5 E8000000 		call	_ZN8UnitTest11TestDetailsC1ERKS0_i
 2301      00
 2302 0eba E8000000 		call	_ZN8UnitTest11CurrentTest7ResultsEv
 2302      00
 2303 0ebf 488B00   		movq	(%rax), %rax
 2304 0ec2 488D8D80 		leaq	-384(%rbp), %rcx
 2304      FEFFFF
 2305 0ec9 BA000000 		movl	$.LC7, %edx
 2305      00
 2306 0ece 4889CE   		movq	%rcx, %rsi
 2307 0ed1 4889C7   		movq	%rax, %rdi
 2308 0ed4 E8000000 		call	_ZN8UnitTest11TestResults13OnTestFailureERKNS_11TestDetailsEPKc
 2308      00
 2309 0ed9 EB41     		jmp	.L131
 2310              	.L130:
 2311              		.loc 3 61 0 discriminator 2
 2312 0edb 488B8558 		movq	-424(%rbp), %rax
 2312      FEFFFF
 2313 0ee2 488D4808 		leaq	8(%rax), %rcx
 2314 0ee6 488D8580 		leaq	-384(%rbp), %rax
 2314      FEFFFF
 2315 0eed BA3D0000 		movl	$61, %edx
 2315      00
 2316 0ef2 4889CE   		movq	%rcx, %rsi
 2317 0ef5 4889C7   		movq	%rax, %rdi
 2318 0ef8 E8000000 		call	_ZN8UnitTest11TestDetailsC1ERKS0_i
 2318      00
 2319              		.loc 3 61 0 discriminator 1
 2320 0efd E8000000 		call	_ZN8UnitTest11CurrentTest7ResultsEv
 2320      00
 2321 0f02 488B00   		movq	(%rax), %rax
 2322 0f05 488D8D80 		leaq	-384(%rbp), %rcx
 2322      FEFFFF
 2323 0f0c BA000000 		movl	$.LC8, %edx
 2323      00
 2324 0f11 4889CE   		movq	%rcx, %rsi
 2325 0f14 4889C7   		movq	%rax, %rdi
 2326 0f17 E8000000 		call	_ZN8UnitTest11TestResults13OnTestFailureERKNS_11TestDetailsEPKc
 2326      00
 2327              	.LEHE68:
 2328              	.L131:
 2329              	.LEHB69:
 2330 0f1c E8000000 		call	__cxa_end_catch
 2330      00
 2331              	.LEHE69:
 2332              	.L139:
 2333              	.LBE59:
 2334              		.loc 3 61 0
 2335 0f21 90       		nop
 2336 0f22 4881C4A0 		addq	$416, %rsp
 2336      010000
 2337 0f29 5B       		popq	%rbx
 2338 0f2a 415C     		popq	%r12
 2339 0f2c 5D       		popq	%rbp
 2340              		.cfi_def_cfa 7, 8
 2341 0f2d C3       		ret
 2342              		.cfi_endproc
 2343              	.LFE1328:
 2344              		.section	.gcc_except_table
 2345              		.align 4
 2346              	.LLSDA1328:
 2347 0154 FF       		.byte	0xff
 2348 0155 03       		.byte	0x3
 2349 0156 59       		.uleb128 .LLSDATT1328-.LLSDATTD1328
 2350              	.LLSDATTD1328:
 2351 0157 01       		.byte	0x1
 2352 0158 40       		.uleb128 .LLSDACSE1328-.LLSDACSB1328
 2353              	.LLSDACSB1328:
 2354 0159 34       		.uleb128 .LEHB58-.LFB1328
 2355 015a 05       		.uleb128 .LEHE58-.LEHB58
 2356 015b 8E01     		.uleb128 .L132-.LFB1328
 2357 015d 05       		.uleb128 0x5
 2358 015e 58       		.uleb128 .LEHB59-.LFB1328
 2359 015f 05       		.uleb128 .LEHE59-.LEHB59
 2360 0160 71       		.uleb128 .L133-.LFB1328
 2361 0161 07       		.uleb128 0x7
 2362 0162 67       		.uleb128 .LEHB60-.LFB1328
 2363 0163 05       		.uleb128 .LEHE60-.LEHB60
 2364 0164 8E01     		.uleb128 .L132-.LFB1328
 2365 0166 05       		.uleb128 0x5
 2366 0167 B101     		.uleb128 .LEHB61-.LFB1328
 2367 0169 05       		.uleb128 .LEHE61-.LEHB61
 2368 016a 00       		.uleb128 0
 2369 016b 00       		.uleb128 0
 2370 016c D801     		.uleb128 .LEHB62-.LFB1328
 2371 016e 05       		.uleb128 .LEHE62-.LEHB62
 2372 016f 00       		.uleb128 0
 2373 0170 00       		.uleb128 0
 2374 0171 EB01     		.uleb128 .LEHB63-.LFB1328
 2375 0173 05       		.uleb128 .LEHE63-.LEHB63
 2376 0174 00       		.uleb128 0
 2377 0175 00       		.uleb128 0
 2378 0176 A902     		.uleb128 .LEHB64-.LFB1328
 2379 0178 5F       		.uleb128 .LEHE64-.LEHB64
 2380 0179 A301     		.uleb128 .L134-.LFB1328
 2381 017b 00       		.uleb128 0
 2382 017c AB03     		.uleb128 .LEHB65-.LFB1328
 2383 017e 05       		.uleb128 .LEHE65-.LEHB65
 2384 017f CA01     		.uleb128 .L136-.LFB1328
 2385 0181 00       		.uleb128 0
 2386 0182 DF03     		.uleb128 .LEHB66-.LFB1328
 2387 0184 43       		.uleb128 .LEHE66-.LEHB66
 2388 0185 B601     		.uleb128 .L135-.LFB1328
 2389 0187 00       		.uleb128 0
 2390 0188 AC04     		.uleb128 .LEHB67-.LFB1328
 2391 018a 05       		.uleb128 .LEHE67-.LEHB67
 2392 018b CA01     		.uleb128 .L136-.LFB1328
 2393 018d 00       		.uleb128 0
 2394 018e E904     		.uleb128 .LEHB68-.LFB1328
 2395 0190 67       		.uleb128 .LEHE68-.LEHB68
 2396 0191 DD01     		.uleb128 .L137-.LFB1328
 2397 0193 00       		.uleb128 0
 2398 0194 D005     		.uleb128 .LEHB69-.LFB1328
 2399 0196 05       		.uleb128 .LEHE69-.LEHB69
 2400 0197 00       		.uleb128 0
 2401 0198 00       		.uleb128 0
 2402              	.LLSDACSE1328:
 2403 0199 03       		.byte	0x3
 2404 019a 00       		.byte	0
 2405 019b 02       		.byte	0x2
 2406 019c 7D       		.byte	0x7d
 2407 019d 01       		.byte	0x1
 2408 019e 7D       		.byte	0x7d
 2409 019f 00       		.byte	0
 2410 01a0 7D       		.byte	0x7d
 2411 01a1 000000   		.align 4
 2412 01a4 00000000 		.long	0
 2413              	
 2414 01a8 00000000 		.long	_ZTISt9exception
 2415 01ac 00000000 		.long	_ZTIN8UnitTest15AssertExceptionE
 2416              	.LLSDATT1328:
 2417              		.text
 2419              		.section	.rodata
 2420 025e 0000     		.align 8
 2421              	.LC16:
 2422 0260 556E6861 		.string	"Unhandled exception in CHECK_CLOSE(elapsed, result.timeElapsed)"
 2422      6E646C65 
 2422      64206578 
 2422      63657074 
 2422      696F6E20 
 2423              		.text
 2424              		.align 2
 2426              	_ZN8UnitTest12_GLOBAL__N_162DeferredTestReporterFixtureReportTestEndCapturesTestTimeHelper7RunImplE
 2427              	.LFB1332:
  62:TestDeferredTestReporter.cpp **** {
 2428              		.loc 3 62 0 is_stmt 1
 2429              		.cfi_startproc
 2430              		.cfi_personality 0x3,__gxx_personality_v0
 2431              		.cfi_lsda 0x3,.LLSDA1332
 2432 0f2e 55       		pushq	%rbp
 2433              		.cfi_def_cfa_offset 16
 2434              		.cfi_offset 6, -16
 2435 0f2f 4889E5   		movq	%rsp, %rbp
 2436              		.cfi_def_cfa_register 6
 2437 0f32 53       		pushq	%rbx
 2438 0f33 4883EC48 		subq	$72, %rsp
 2439              		.cfi_offset 3, -24
 2440 0f37 48897DB8 		movq	%rdi, -72(%rbp)
 2441              	.LBB60:
  63:TestDeferredTestReporter.cpp ****     float const elapsed = 123.45f;
 2442              		.loc 3 63 0
 2443 0f3b 8B050000 		movl	.LC14(%rip), %eax
 2443      0000
 2444 0f41 8945C0   		movl	%eax, -64(%rbp)
  64:TestDeferredTestReporter.cpp ****     reporter.ReportTestStart(details);
 2445              		.loc 3 64 0
 2446 0f44 488B45B8 		movq	-72(%rbp), %rax
 2447 0f48 488D5040 		leaq	64(%rax), %rdx
 2448 0f4c 488B45B8 		movq	-72(%rbp), %rax
 2449 0f50 4889D6   		movq	%rdx, %rsi
 2450 0f53 4889C7   		movq	%rax, %rdi
 2451              	.LEHB70:
 2452 0f56 E8000000 		call	_ZN8UnitTest20DeferredTestReporter15ReportTestStartERKNS_11TestDetailsE
 2452      00
  65:TestDeferredTestReporter.cpp ****     reporter.ReportTestFinish(details, elapsed);
 2453              		.loc 3 65 0
 2454 0f5b 488B45B8 		movq	-72(%rbp), %rax
 2455 0f5f 488D5040 		leaq	64(%rax), %rdx
 2456 0f63 488B45B8 		movq	-72(%rbp), %rax
 2457 0f67 F30F1005 		movss	.LC14(%rip), %xmm0
 2457      00000000 
 2458 0f6f 4889D6   		movq	%rdx, %rsi
 2459 0f72 4889C7   		movq	%rax, %rdi
 2460 0f75 E8000000 		call	_ZN8UnitTest20DeferredTestReporter16ReportTestFinishERKNS_11TestDetailsEf
 2460      00
  66:TestDeferredTestReporter.cpp **** 
  67:TestDeferredTestReporter.cpp ****     DeferredTestResult const& result = reporter.GetResults().at(0);
 2461              		.loc 3 67 0
 2462 0f7a 488B45B8 		movq	-72(%rbp), %rax
 2463 0f7e 4889C7   		movq	%rax, %rdi
 2464 0f81 E8000000 		call	_ZN8UnitTest20DeferredTestReporter10GetResultsEv
 2464      00
 2465 0f86 BE000000 		movl	$0, %esi
 2465      00
 2466 0f8b 4889C7   		movq	%rax, %rdi
 2467 0f8e E8000000 		call	_ZNSt6vectorIN8UnitTest18DeferredTestResultESaIS1_EE2atEm
 2467      00
 2468              	.LEHE70:
 2469 0f93 488945C8 		movq	%rax, -56(%rbp)
 2470              	.LEHB71:
  68:TestDeferredTestReporter.cpp ****     CHECK_CLOSE(elapsed, result.timeElapsed, 0.0001f);
 2471              		.loc 3 68 0
 2472 0f97 E8000000 		call	_ZN8UnitTest11CurrentTest7DetailsEv
 2472      00
 2473 0f9c 488B08   		movq	(%rax), %rcx
 2474 0f9f 488D45D0 		leaq	-48(%rbp), %rax
 2475 0fa3 BA440000 		movl	$68, %edx
 2475      00
 2476 0fa8 4889CE   		movq	%rcx, %rsi
 2477 0fab 4889C7   		movq	%rax, %rdi
 2478 0fae E8000000 		call	_ZN8UnitTest11TestDetailsC1ERKS0_i
 2478      00
 2479              		.loc 3 68 0 is_stmt 0 discriminator 1
 2480 0fb3 8B050000 		movl	.LC15(%rip), %eax
 2480      0000
 2481 0fb9 8945C4   		movl	%eax, -60(%rbp)
 2482 0fbc 488B45C8 		movq	-56(%rbp), %rax
 2483 0fc0 488D5830 		leaq	48(%rax), %rbx
 2484 0fc4 E8000000 		call	_ZN8UnitTest11CurrentTest7ResultsEv
 2484      00
 2485 0fc9 488B00   		movq	(%rax), %rax
 2486 0fcc 488D4DD0 		leaq	-48(%rbp), %rcx
 2487 0fd0 488D55C4 		leaq	-60(%rbp), %rdx
 2488 0fd4 488D75C0 		leaq	-64(%rbp), %rsi
 2489 0fd8 4989C8   		movq	%rcx, %r8
 2490 0fdb 4889D1   		movq	%rdx, %rcx
 2491 0fde 4889DA   		movq	%rbx, %rdx
 2492 0fe1 4889C7   		movq	%rax, %rdi
 2493 0fe4 E8000000 		call	_ZN8UnitTest10CheckCloseIfffEEvRNS_11TestResultsERKT_RKT0_RKT1_RKNS_11TestDetailsE
 2493      00
 2494              	.LEHE71:
 2495              	.LBE60:
  69:TestDeferredTestReporter.cpp **** }
 2496              		.loc 3 69 0 is_stmt 1
 2497 0fe9 EB58     		jmp	.L146
 2498              	.L145:
 2499 0feb 4889C3   		movq	%rax, %rbx
 2500              	.LBB61:
  68:TestDeferredTestReporter.cpp ****     CHECK_CLOSE(elapsed, result.timeElapsed, 0.0001f);
 2501              		.loc 3 68 0
 2502 0fee E8000000 		call	__cxa_end_catch
 2502      00
 2503 0ff3 4889D8   		movq	%rbx, %rax
 2504 0ff6 4889C7   		movq	%rax, %rdi
 2505              	.LEHB72:
 2506 0ff9 E8000000 		call	_Unwind_Resume
 2506      00
 2507              	.LEHE72:
 2508              	.L144:
 2509 0ffe 4889C7   		movq	%rax, %rdi
 2510 1001 E8000000 		call	__cxa_begin_catch
 2510      00
 2511              	.LEHB73:
 2512 1006 E8000000 		call	_ZN8UnitTest11CurrentTest7DetailsEv
 2512      00
 2513 100b 488B08   		movq	(%rax), %rcx
 2514 100e 488D45D0 		leaq	-48(%rbp), %rax
 2515 1012 BA440000 		movl	$68, %edx
 2515      00
 2516 1017 4889CE   		movq	%rcx, %rsi
 2517 101a 4889C7   		movq	%rax, %rdi
 2518 101d E8000000 		call	_ZN8UnitTest11TestDetailsC1ERKS0_i
 2518      00
  68:TestDeferredTestReporter.cpp ****     CHECK_CLOSE(elapsed, result.timeElapsed, 0.0001f);
 2519              		.loc 3 68 0 is_stmt 0 discriminator 1
 2520 1022 E8000000 		call	_ZN8UnitTest11CurrentTest7ResultsEv
 2520      00
 2521 1027 488B00   		movq	(%rax), %rax
 2522 102a 488D4DD0 		leaq	-48(%rbp), %rcx
 2523 102e BA000000 		movl	$.LC16, %edx
 2523      00
 2524 1033 4889CE   		movq	%rcx, %rsi
 2525 1036 4889C7   		movq	%rax, %rdi
 2526 1039 E8000000 		call	_ZN8UnitTest11TestResults13OnTestFailureERKNS_11TestDetailsEPKc
 2526      00
 2527              	.LEHE73:
 2528              	.LEHB74:
 2529 103e E8000000 		call	__cxa_end_catch
 2529      00
 2530              	.LEHE74:
 2531              	.L146:
 2532              	.LBE61:
 2533              		.loc 3 69 0 is_stmt 1
 2534 1043 90       		nop
 2535 1044 4883C448 		addq	$72, %rsp
 2536 1048 5B       		popq	%rbx
 2537 1049 5D       		popq	%rbp
 2538              		.cfi_def_cfa 7, 8
 2539 104a C3       		ret
 2540              		.cfi_endproc
 2541              	.LFE1332:
 2542              		.section	.gcc_except_table
 2543              		.align 4
 2544              	.LLSDA1332:
 2545 01b0 FF       		.byte	0xff
 2546 01b1 03       		.byte	0x3
 2547 01b2 21       		.uleb128 .LLSDATT1332-.LLSDATTD1332
 2548              	.LLSDATTD1332:
 2549 01b3 01       		.byte	0x1
 2550 01b4 19       		.uleb128 .LLSDACSE1332-.LLSDACSB1332
 2551              	.LLSDACSB1332:
 2552 01b5 28       		.uleb128 .LEHB70-.LFB1332
 2553 01b6 3D       		.uleb128 .LEHE70-.LEHB70
 2554 01b7 00       		.uleb128 0
 2555 01b8 00       		.uleb128 0
 2556 01b9 69       		.uleb128 .LEHB71-.LFB1332
 2557 01ba 52       		.uleb128 .LEHE71-.LEHB71
 2558 01bb D001     		.uleb128 .L144-.LFB1332
 2559 01bd 01       		.uleb128 0x1
 2560 01be CB01     		.uleb128 .LEHB72-.LFB1332
 2561 01c0 05       		.uleb128 .LEHE72-.LEHB72
 2562 01c1 00       		.uleb128 0
 2563 01c2 00       		.uleb128 0
 2564 01c3 D801     		.uleb128 .LEHB73-.LFB1332
 2565 01c5 38       		.uleb128 .LEHE73-.LEHB73
 2566 01c6 BD01     		.uleb128 .L145-.LFB1332
 2567 01c8 00       		.uleb128 0
 2568 01c9 9002     		.uleb128 .LEHB74-.LFB1332
 2569 01cb 05       		.uleb128 .LEHE74-.LEHB74
 2570 01cc 00       		.uleb128 0
 2571 01cd 00       		.uleb128 0
 2572              	.LLSDACSE1332:
 2573 01ce 01       		.byte	0x1
 2574 01cf 00       		.byte	0
 2575              		.align 4
 2576 01d0 00000000 		.long	0
 2577              	
 2578              	.LLSDATT1332:
 2579              		.text
 2581 104b 90       		.align 2
 2583              	_ZN8UnitTest12_GLOBAL__N_165DeferredTestReporterFixtureReportFailureSavesFailureDetailsHelperC2ERKN
 2584              	.LFB1334:
  70:TestDeferredTestReporter.cpp **** 
  71:TestDeferredTestReporter.cpp **** TEST_FIXTURE(DeferredTestReporterFixture, ReportFailureSavesFailureDetails)
 2585              		.loc 3 71 0
 2586              		.cfi_startproc
 2587 104c 55       		pushq	%rbp
 2588              		.cfi_def_cfa_offset 16
 2589              		.cfi_offset 6, -16
 2590 104d 4889E5   		movq	%rsp, %rbp
 2591              		.cfi_def_cfa_register 6
 2592 1050 4883EC10 		subq	$16, %rsp
 2593 1054 48897DF8 		movq	%rdi, -8(%rbp)
 2594 1058 488975F0 		movq	%rsi, -16(%rbp)
 2595              	.LBB62:
 2596              		.loc 3 71 0
 2597 105c 488B45F8 		movq	-8(%rbp), %rax
 2598 1060 4889C7   		movq	%rax, %rdi
 2599 1063 E8D6EFFF 		call	_ZN8UnitTest12_GLOBAL__N_127DeferredTestReporterFixtureC2Ev
 2599      FF
 2600 1068 488B45F8 		movq	-8(%rbp), %rax
 2601 106c 488B55F0 		movq	-16(%rbp), %rdx
 2602 1070 48895060 		movq	%rdx, 96(%rax)
 2603              	.LBE62:
 2604 1074 C9       		leave
 2605              		.cfi_def_cfa 7, 8
 2606 1075 C3       		ret
 2607              		.cfi_endproc
 2608              	.LFE1334:
 2610              		.set	_ZN8UnitTest12_GLOBAL__N_165DeferredTestReporterFixtureReportFailureSavesFailureDetailsHelper
 2611              		.section	.rodata
 2612              		.align 8
 2613              	.LC17:
 2614 02a0 5265706F 		.string	"ReportFailureSavesFailureDetails"
 2614      72744661 
 2614      696C7572 
 2614      65536176 
 2614      65734661 
 2615              		.text
 2616              		.align 2
 2618              	_ZN8UnitTest12_GLOBAL__N_163TestDeferredTestReporterFixtureReportFailureSavesFailureDetailsC2Ev:
 2619              	.LFB1337:
 2620              		.loc 3 71 0
 2621              		.cfi_startproc
 2622 1076 55       		pushq	%rbp
 2623              		.cfi_def_cfa_offset 16
 2624              		.cfi_offset 6, -16
 2625 1077 4889E5   		movq	%rsp, %rbp
 2626              		.cfi_def_cfa_register 6
 2627 107a 4883EC10 		subq	$16, %rsp
 2628 107e 48897DF8 		movq	%rdi, -8(%rbp)
 2629              	.LBB63:
 2630              		.loc 3 71 0
 2631 1082 E8000000 		call	_ZN13UnitTestSuite12GetSuiteNameEv
 2631      00
 2632 1087 4889C2   		movq	%rax, %rdx
 2633 108a 488B45F8 		movq	-8(%rbp), %rax
 2634 108e 41B84700 		movl	$71, %r8d
 2634      0000
 2635 1094 B9000000 		movl	$.LC4, %ecx
 2635      00
 2636 1099 BE000000 		movl	$.LC17, %esi
 2636      00
 2637 109e 4889C7   		movq	%rax, %rdi
 2638 10a1 E8000000 		call	_ZN8UnitTest4TestC2EPKcS2_S2_i
 2638      00
 2639 10a6 488B45F8 		movq	-8(%rbp), %rax
 2640 10aa 48C70000 		movq	$_ZTVN8UnitTest12_GLOBAL__N_163TestDeferredTestReporterFixtureReportFailureSavesFailureDetail
 2640      000000
 2641              	.LBE63:
 2642 10b1 C9       		leave
 2643              		.cfi_def_cfa 7, 8
 2644 10b2 C3       		ret
 2645              		.cfi_endproc
 2646              	.LFE1337:
 2648              		.set	_ZN8UnitTest12_GLOBAL__N_163TestDeferredTestReporterFixtureReportFailureSavesFailureDetailsC1
 2649              		.local	_ZN8UnitTest12_GLOBAL__N_171testDeferredTestReporterFixtureReportFailureSavesFailureDetails
 2650              		.comm	_ZN8UnitTest12_GLOBAL__N_171testDeferredTestReporterFixtureReportFailureSavesFailureDetailsI
 2651              		.local	_ZN8UnitTest12_GLOBAL__N_164adderDeferredTestReporterFixtureReportFailureSavesFailureDetail
 2652              		.comm	_ZN8UnitTest12_GLOBAL__N_164adderDeferredTestReporterFixtureReportFailureSavesFailureDetails
 2653 10b3 90       		.align 2
 2655              	_ZN8UnitTest12_GLOBAL__N_165DeferredTestReporterFixtureReportFailureSavesFailureDetailsHelperD2Ev:
 2656              	.LFB1341:
 2657              		.loc 3 71 0
 2658              		.cfi_startproc
 2659 10b4 55       		pushq	%rbp
 2660              		.cfi_def_cfa_offset 16
 2661              		.cfi_offset 6, -16
 2662 10b5 4889E5   		movq	%rsp, %rbp
 2663              		.cfi_def_cfa_register 6
 2664 10b8 4883EC10 		subq	$16, %rsp
 2665 10bc 48897DF8 		movq	%rdi, -8(%rbp)
 2666              	.LBB64:
 2667              		.loc 3 71 0
 2668 10c0 488B45F8 		movq	-8(%rbp), %rax
 2669 10c4 4889C7   		movq	%rax, %rdi
 2670 10c7 E818F1FF 		call	_ZN8UnitTest12_GLOBAL__N_127DeferredTestReporterFixtureD2Ev
 2670      FF
 2671              	.LBE64:
 2672 10cc C9       		leave
 2673              		.cfi_def_cfa 7, 8
 2674 10cd C3       		ret
 2675              		.cfi_endproc
 2676              	.LFE1341:
 2678              		.set	_ZN8UnitTest12_GLOBAL__N_165DeferredTestReporterFixtureReportFailureSavesFailureDetailsHelper
 2679              		.align 2
 2681              	_ZNK8UnitTest12_GLOBAL__N_163TestDeferredTestReporterFixtureReportFailureSavesFailureDetails7RunImp
 2682              	.LFB1339:
 2683              		.loc 3 71 0
 2684              		.cfi_startproc
 2685              		.cfi_personality 0x3,__gxx_personality_v0
 2686              		.cfi_lsda 0x3,.LLSDA1339
 2687 10ce 55       		pushq	%rbp
 2688              		.cfi_def_cfa_offset 16
 2689              		.cfi_offset 6, -16
 2690 10cf 4889E5   		movq	%rsp, %rbp
 2691              		.cfi_def_cfa_register 6
 2692 10d2 4154     		pushq	%r12
 2693 10d4 53       		pushq	%rbx
 2694 10d5 4881ECA0 		subq	$416, %rsp
 2694      010000
 2695              		.cfi_offset 12, -24
 2696              		.cfi_offset 3, -32
 2697 10dc 4889BD58 		movq	%rdi, -424(%rbp)
 2697      FEFFFF
 2698              	.LBB65:
 2699              		.loc 3 71 0
 2700 10e3 C6856FFE 		movb	$0, -401(%rbp)
 2700      FFFF00
 2701              	.LBB66:
 2702 10ea 488B8558 		movq	-424(%rbp), %rax
 2702      FEFFFF
 2703 10f1 488D5008 		leaq	8(%rax), %rdx
 2704 10f5 488D8580 		leaq	-384(%rbp), %rax
 2704      FEFFFF
 2705 10fc 4889D6   		movq	%rdx, %rsi
 2706 10ff 4889C7   		movq	%rax, %rdi
 2707              	.LEHB75:
 2708 1102 E845FFFF 		call	_ZN8UnitTest12_GLOBAL__N_165DeferredTestReporterFixtureReportFailureSavesFailureDetailsHelper
 2708      FF
 2709              	.LEHE75:
 2710              		.loc 3 71 0 is_stmt 0 discriminator 1
 2711 1107 C6856FFE 		movb	$1, -401(%rbp)
 2711      FFFF01
 2712 110e 488B8558 		movq	-424(%rbp), %rax
 2712      FEFFFF
 2713 1115 488D5008 		leaq	8(%rax), %rdx
 2714 1119 488D8580 		leaq	-384(%rbp), %rax
 2714      FEFFFF
 2715 1120 4889D6   		movq	%rdx, %rsi
 2716 1123 4889C7   		movq	%rax, %rdi
 2717              	.LEHB76:
 2718 1126 E83B1700 		call	_ZN8UnitTest11ExecuteTestINS_12_GLOBAL__N_165DeferredTestReporterFixtureReportFailureSavesFai
 2718      00
 2719              	.LEHE76:
 2720 112b 488D8580 		leaq	-384(%rbp), %rax
 2720      FEFFFF
 2721 1132 4889C7   		movq	%rax, %rdi
 2722              	.LEHB77:
 2723 1135 E87AFFFF 		call	_ZN8UnitTest12_GLOBAL__N_165DeferredTestReporterFixtureReportFailureSavesFailureDetailsHelper
 2723      FF
 2724              	.LEHE77:
 2725              	.LBE66:
 2726              	.LBE65:
 2727              		.loc 3 71 0
 2728 113a E9640200 		jmp	.L171
 2728      00
 2729              	.L165:
 2730 113f 4989C4   		movq	%rax, %r12
 2731 1142 4889D3   		movq	%rdx, %rbx
 2732              	.LBB74:
 2733              	.LBB67:
 2734 1145 488D8580 		leaq	-384(%rbp), %rax
 2734      FEFFFF
 2735 114c 4889C7   		movq	%rax, %rdi
 2736 114f E860FFFF 		call	_ZN8UnitTest12_GLOBAL__N_165DeferredTestReporterFixtureReportFailureSavesFailureDetailsHelper
 2736      FF
 2737 1154 4C89E0   		movq	%r12, %rax
 2738 1157 4889DA   		movq	%rbx, %rdx
 2739 115a EB00     		jmp	.L153
 2740              	.L164:
 2741              	.L153:
 2742 115c 4883FA01 		cmpq	$1, %rdx
 2743 1160 745C     		je	.L155
 2744 1162 4883FA02 		cmpq	$2, %rdx
 2745 1166 0F84F400 		je	.L156
 2745      0000
 2746 116c E9980100 		jmp	.L170
 2746      00
 2747              	.L166:
 2748 1171 4889C3   		movq	%rax, %rbx
 2749              	.LBE67:
 2750              	.LBB68:
 2751 1174 E8000000 		call	__cxa_end_catch
 2751      00
 2752 1179 4889D8   		movq	%rbx, %rax
 2753 117c 4889C7   		movq	%rax, %rdi
 2754              	.LEHB78:
 2755 117f E8000000 		call	_Unwind_Resume
 2755      00
 2756              	.LEHE78:
 2757              	.L167:
 2758 1184 4889C3   		movq	%rax, %rbx
 2759              	.LBE68:
 2760              	.LBB69:
 2761              	.LBB70:
 2762 1187 488D8580 		leaq	-384(%rbp), %rax
 2762      FEFFFF
 2763 118e 4889C7   		movq	%rax, %rdi
 2764 1191 E8000000 		call	_ZN8UnitTest15MemoryOutStreamD1Ev
 2764      00
 2765 1196 EB03     		jmp	.L159
 2766              	.L168:
 2767 1198 4889C3   		movq	%rax, %rbx
 2768              	.L159:
 2769              	.LBE70:
 2770 119b E8000000 		call	__cxa_end_catch
 2770      00
 2771 11a0 4889D8   		movq	%rbx, %rax
 2772 11a3 4889C7   		movq	%rax, %rdi
 2773              	.LEHB79:
 2774 11a6 E8000000 		call	_Unwind_Resume
 2774      00
 2775              	.LEHE79:
 2776              	.L169:
 2777 11ab 4889C3   		movq	%rax, %rbx
 2778              	.LBE69:
 2779 11ae E8000000 		call	__cxa_end_catch
 2779      00
 2780 11b3 4889D8   		movq	%rbx, %rax
 2781 11b6 4889C7   		movq	%rax, %rdi
 2782              	.LEHB80:
 2783 11b9 E8000000 		call	_Unwind_Resume
 2783      00
 2784              	.LEHE80:
 2785              	.L155:
 2786              	.LBB72:
 2787 11be 4889C7   		movq	%rax, %rdi
 2788 11c1 E8000000 		call	__cxa_begin_catch
 2788      00
 2789 11c6 48898570 		movq	%rax, -400(%rbp)
 2789      FEFFFF
 2790 11cd 488B8570 		movq	-400(%rbp), %rax
 2790      FEFFFF
 2791 11d4 488B00   		movq	(%rax), %rax
 2792 11d7 4883C010 		addq	$16, %rax
 2793 11db 488B00   		movq	(%rax), %rax
 2794 11de 488B9570 		movq	-400(%rbp), %rdx
 2794      FEFFFF
 2795 11e5 4889D7   		movq	%rdx, %rdi
 2796 11e8 FFD0     		call	*%rax
 2797 11ea 4889C3   		movq	%rax, %rbx
 2798 11ed 488B8570 		movq	-400(%rbp), %rax
 2798      FEFFFF
 2799 11f4 4889C7   		movq	%rax, %rdi
 2800              	.LEHB81:
 2801 11f7 E8000000 		call	_ZNK8UnitTest15AssertException10LineNumberEv
 2801      00
 2802 11fc 4189C4   		movl	%eax, %r12d
 2803 11ff 488B8570 		movq	-400(%rbp), %rax
 2803      FEFFFF
 2804 1206 4889C7   		movq	%rax, %rdi
 2805 1209 E8000000 		call	_ZNK8UnitTest15AssertException8FilenameEv
 2805      00
 2806              		.loc 3 71 0 discriminator 1
 2807 120e 4889C1   		movq	%rax, %rcx
 2808 1211 488B8558 		movq	-424(%rbp), %rax
 2808      FEFFFF
 2809 1218 488B5008 		movq	8(%rax), %rdx
 2810 121c 488B8558 		movq	-424(%rbp), %rax
 2810      FEFFFF
 2811 1223 488B7010 		movq	16(%rax), %rsi
 2812 1227 488D8580 		leaq	-384(%rbp), %rax
 2812      FEFFFF
 2813 122e 4589E0   		movl	%r12d, %r8d
 2814 1231 4889C7   		movq	%rax, %rdi
 2815 1234 E8000000 		call	_ZN8UnitTest11TestDetailsC1EPKcS2_S2_i
 2815      00
 2816              		.loc 3 71 0 discriminator 3
 2817 1239 E8000000 		call	_ZN8UnitTest11CurrentTest7ResultsEv
 2817      00
 2818 123e 488B00   		movq	(%rax), %rax
 2819 1241 488D8D80 		leaq	-384(%rbp), %rcx
 2819      FEFFFF
 2820 1248 4889DA   		movq	%rbx, %rdx
 2821 124b 4889CE   		movq	%rcx, %rsi
 2822 124e 4889C7   		movq	%rax, %rdi
 2823 1251 E8000000 		call	_ZN8UnitTest11TestResults13OnTestFailureERKNS_11TestDetailsEPKc
 2823      00
 2824              	.LEHE81:
 2825              		.loc 3 71 0 discriminator 1
 2826 1256 E8000000 		call	__cxa_end_catch
 2826      00
 2827              	.LBE72:
 2828              	.LBE74:
 2829 125b E9430100 		jmp	.L171
 2829      00
 2830              	.L156:
 2831              	.LBB75:
 2832              	.LBB73:
 2833              		.loc 3 71 0
 2834 1260 4889C7   		movq	%rax, %rdi
 2835 1263 E8000000 		call	__cxa_begin_catch
 2835      00
 2836 1268 48898578 		movq	%rax, -392(%rbp)
 2836      FEFFFF
 2837              	.LBB71:
 2838 126f 488D8580 		leaq	-384(%rbp), %rax
 2838      FEFFFF
 2839 1276 4889C7   		movq	%rax, %rdi
 2840              	.LEHB82:
 2841 1279 E8000000 		call	_ZN8UnitTest15MemoryOutStreamC1Ev
 2841      00
 2842              	.LEHE82:
 2843              		.loc 3 71 0 discriminator 1
 2844 127e 488B8578 		movq	-392(%rbp), %rax
 2844      FEFFFF
 2845 1285 488B00   		movq	(%rax), %rax
 2846 1288 4883C010 		addq	$16, %rax
 2847 128c 488B00   		movq	(%rax), %rax
 2848 128f 488B9578 		movq	-392(%rbp), %rdx
 2848      FEFFFF
 2849 1296 4889D7   		movq	%rdx, %rdi
 2850 1299 FFD0     		call	*%rax
 2851 129b 4889C3   		movq	%rax, %rbx
 2852 129e 488D8580 		leaq	-384(%rbp), %rax
 2852      FEFFFF
 2853 12a5 BE000000 		movl	$.LC6, %esi
 2853      00
 2854 12aa 4889C7   		movq	%rax, %rdi
 2855              	.LEHB83:
 2856 12ad E8000000 		call	_ZStlsISt11char_traitsIcEERSt13basic_ostreamIcT_ES5_PKc
 2856      00
 2857 12b2 4889DE   		movq	%rbx, %rsi
 2858 12b5 4889C7   		movq	%rax, %rdi
 2859 12b8 E8000000 		call	_ZStlsISt11char_traitsIcEERSt13basic_ostreamIcT_ES5_PKc
 2859      00
 2860 12bd 488D8580 		leaq	-384(%rbp), %rax
 2860      FEFFFF
 2861 12c4 4889C7   		movq	%rax, %rdi
 2862 12c7 E8000000 		call	_ZNK8UnitTest15MemoryOutStream7GetTextEv
 2862      00
 2863 12cc 4889C3   		movq	%rax, %rbx
 2864 12cf 488B8558 		movq	-424(%rbp), %rax
 2864      FEFFFF
 2865 12d6 4C8D6008 		leaq	8(%rax), %r12
 2866 12da E8000000 		call	_ZN8UnitTest11CurrentTest7ResultsEv
 2866      00
 2867 12df 488B00   		movq	(%rax), %rax
 2868 12e2 4889DA   		movq	%rbx, %rdx
 2869 12e5 4C89E6   		movq	%r12, %rsi
 2870 12e8 4889C7   		movq	%rax, %rdi
 2871 12eb E8000000 		call	_ZN8UnitTest11TestResults13OnTestFailureERKNS_11TestDetailsEPKc
 2871      00
 2872              	.LEHE83:
 2873 12f0 488D8580 		leaq	-384(%rbp), %rax
 2873      FEFFFF
 2874 12f7 4889C7   		movq	%rax, %rdi
 2875              	.LEHB84:
 2876 12fa E8000000 		call	_ZN8UnitTest15MemoryOutStreamD1Ev
 2876      00
 2877              	.LEHE84:
 2878              	.LBE71:
 2879              		.loc 3 71 0
 2880 12ff E8000000 		call	__cxa_end_catch
 2880      00
 2881              	.LBE73:
 2882              	.LBE75:
 2883 1304 E99A0000 		jmp	.L171
 2883      00
 2884              	.L170:
 2885              	.LBB76:
 2886 1309 4889C7   		movq	%rax, %rdi
 2887 130c E8000000 		call	__cxa_begin_catch
 2887      00
 2888 1311 80BD6FFE 		cmpb	$0, -401(%rbp)
 2888      FFFF00
 2889 1318 7443     		je	.L162
 2890              		.loc 3 71 0 discriminator 1
 2891 131a 488B8558 		movq	-424(%rbp), %rax
 2891      FEFFFF
 2892 1321 488D4808 		leaq	8(%rax), %rcx
 2893 1325 488D8580 		leaq	-384(%rbp), %rax
 2893      FEFFFF
 2894 132c BA470000 		movl	$71, %edx
 2894      00
 2895 1331 4889CE   		movq	%rcx, %rsi
 2896 1334 4889C7   		movq	%rax, %rdi
 2897              	.LEHB85:
 2898 1337 E8000000 		call	_ZN8UnitTest11TestDetailsC1ERKS0_i
 2898      00
 2899 133c E8000000 		call	_ZN8UnitTest11CurrentTest7ResultsEv
 2899      00
 2900 1341 488B00   		movq	(%rax), %rax
 2901 1344 488D8D80 		leaq	-384(%rbp), %rcx
 2901      FEFFFF
 2902 134b BA000000 		movl	$.LC7, %edx
 2902      00
 2903 1350 4889CE   		movq	%rcx, %rsi
 2904 1353 4889C7   		movq	%rax, %rdi
 2905 1356 E8000000 		call	_ZN8UnitTest11TestResults13OnTestFailureERKNS_11TestDetailsEPKc
 2905      00
 2906 135b EB41     		jmp	.L163
 2907              	.L162:
 2908              		.loc 3 71 0 discriminator 2
 2909 135d 488B8558 		movq	-424(%rbp), %rax
 2909      FEFFFF
 2910 1364 488D4808 		leaq	8(%rax), %rcx
 2911 1368 488D8580 		leaq	-384(%rbp), %rax
 2911      FEFFFF
 2912 136f BA470000 		movl	$71, %edx
 2912      00
 2913 1374 4889CE   		movq	%rcx, %rsi
 2914 1377 4889C7   		movq	%rax, %rdi
 2915 137a E8000000 		call	_ZN8UnitTest11TestDetailsC1ERKS0_i
 2915      00
 2916              		.loc 3 71 0 discriminator 1
 2917 137f E8000000 		call	_ZN8UnitTest11CurrentTest7ResultsEv
 2917      00
 2918 1384 488B00   		movq	(%rax), %rax
 2919 1387 488D8D80 		leaq	-384(%rbp), %rcx
 2919      FEFFFF
 2920 138e BA000000 		movl	$.LC8, %edx
 2920      00
 2921 1393 4889CE   		movq	%rcx, %rsi
 2922 1396 4889C7   		movq	%rax, %rdi
 2923 1399 E8000000 		call	_ZN8UnitTest11TestResults13OnTestFailureERKNS_11TestDetailsEPKc
 2923      00
 2924              	.LEHE85:
 2925              	.L163:
 2926              	.LEHB86:
 2927 139e E8000000 		call	__cxa_end_catch
 2927      00
 2928              	.LEHE86:
 2929              	.L171:
 2930              	.LBE76:
 2931              		.loc 3 71 0
 2932 13a3 90       		nop
 2933 13a4 4881C4A0 		addq	$416, %rsp
 2933      010000
 2934 13ab 5B       		popq	%rbx
 2935 13ac 415C     		popq	%r12
 2936 13ae 5D       		popq	%rbp
 2937              		.cfi_def_cfa 7, 8
 2938 13af C3       		ret
 2939              		.cfi_endproc
 2940              	.LFE1339:
 2941              		.section	.gcc_except_table
 2942              		.align 4
 2943              	.LLSDA1339:
 2944 01d4 FF       		.byte	0xff
 2945 01d5 03       		.byte	0x3
 2946 01d6 59       		.uleb128 .LLSDATT1339-.LLSDATTD1339
 2947              	.LLSDATTD1339:
 2948 01d7 01       		.byte	0x1
 2949 01d8 40       		.uleb128 .LLSDACSE1339-.LLSDACSB1339
 2950              	.LLSDACSB1339:
 2951 01d9 34       		.uleb128 .LEHB75-.LFB1339
 2952 01da 05       		.uleb128 .LEHE75-.LEHB75
 2953 01db 8E01     		.uleb128 .L164-.LFB1339
 2954 01dd 05       		.uleb128 0x5
 2955 01de 58       		.uleb128 .LEHB76-.LFB1339
 2956 01df 05       		.uleb128 .LEHE76-.LEHB76
 2957 01e0 71       		.uleb128 .L165-.LFB1339
 2958 01e1 07       		.uleb128 0x7
 2959 01e2 67       		.uleb128 .LEHB77-.LFB1339
 2960 01e3 05       		.uleb128 .LEHE77-.LEHB77
 2961 01e4 8E01     		.uleb128 .L164-.LFB1339
 2962 01e6 05       		.uleb128 0x5
 2963 01e7 B101     		.uleb128 .LEHB78-.LFB1339
 2964 01e9 05       		.uleb128 .LEHE78-.LEHB78
 2965 01ea 00       		.uleb128 0
 2966 01eb 00       		.uleb128 0
 2967 01ec D801     		.uleb128 .LEHB79-.LFB1339
 2968 01ee 05       		.uleb128 .LEHE79-.LEHB79
 2969 01ef 00       		.uleb128 0
 2970 01f0 00       		.uleb128 0
 2971 01f1 EB01     		.uleb128 .LEHB80-.LFB1339
 2972 01f3 05       		.uleb128 .LEHE80-.LEHB80
 2973 01f4 00       		.uleb128 0
 2974 01f5 00       		.uleb128 0
 2975 01f6 A902     		.uleb128 .LEHB81-.LFB1339
 2976 01f8 5F       		.uleb128 .LEHE81-.LEHB81
 2977 01f9 A301     		.uleb128 .L166-.LFB1339
 2978 01fb 00       		.uleb128 0
 2979 01fc AB03     		.uleb128 .LEHB82-.LFB1339
 2980 01fe 05       		.uleb128 .LEHE82-.LEHB82
 2981 01ff CA01     		.uleb128 .L168-.LFB1339
 2982 0201 00       		.uleb128 0
 2983 0202 DF03     		.uleb128 .LEHB83-.LFB1339
 2984 0204 43       		.uleb128 .LEHE83-.LEHB83
 2985 0205 B601     		.uleb128 .L167-.LFB1339
 2986 0207 00       		.uleb128 0
 2987 0208 AC04     		.uleb128 .LEHB84-.LFB1339
 2988 020a 05       		.uleb128 .LEHE84-.LEHB84
 2989 020b CA01     		.uleb128 .L168-.LFB1339
 2990 020d 00       		.uleb128 0
 2991 020e E904     		.uleb128 .LEHB85-.LFB1339
 2992 0210 67       		.uleb128 .LEHE85-.LEHB85
 2993 0211 DD01     		.uleb128 .L169-.LFB1339
 2994 0213 00       		.uleb128 0
 2995 0214 D005     		.uleb128 .LEHB86-.LFB1339
 2996 0216 05       		.uleb128 .LEHE86-.LEHB86
 2997 0217 00       		.uleb128 0
 2998 0218 00       		.uleb128 0
 2999              	.LLSDACSE1339:
 3000 0219 03       		.byte	0x3
 3001 021a 00       		.byte	0
 3002 021b 02       		.byte	0x2
 3003 021c 7D       		.byte	0x7d
 3004 021d 01       		.byte	0x1
 3005 021e 7D       		.byte	0x7d
 3006 021f 00       		.byte	0
 3007 0220 7D       		.byte	0x7d
 3008 0221 000000   		.align 4
 3009 0224 00000000 		.long	0
 3010              	
 3011 0228 00000000 		.long	_ZTISt9exception
 3012 022c 00000000 		.long	_ZTIN8UnitTest15AssertExceptionE
 3013              	.LLSDATT1339:
 3014              		.text
 3016              		.section	.rodata
 3017              	.LC18:
 3018 02c1 6661696C 		.string	"failure"
 3018      75726500 
 3019              	.LC19:
 3020 02c9 72657375 		.string	"result.failed == true"
 3020      6C742E66 
 3020      61696C65 
 3020      64203D3D 
 3020      20747275 
 3021 02df 00       		.align 8
 3022              	.LC20:
 3023 02e0 556E6861 		.string	"Unhandled exception in CHECK(result.failed == true)"
 3023      6E646C65 
 3023      64206578 
 3023      63657074 
 3023      696F6E20 
 3024 0314 00000000 		.align 8
 3025              	.LC21:
 3026 0318 556E6861 		.string	"Unhandled exception in CHECK_EQUAL(fileName.c_str(), result.failureFile)"
 3026      6E646C65 
 3026      64206578 
 3026      63657074 
 3026      696F6E20 
 3027              		.text
 3028              		.align 2
 3030              	_ZN8UnitTest12_GLOBAL__N_165DeferredTestReporterFixtureReportFailureSavesFailureDetailsHelper7RunIm
 3031              	.LFB1343:
  72:TestDeferredTestReporter.cpp **** {
 3032              		.loc 3 72 0 is_stmt 1
 3033              		.cfi_startproc
 3034              		.cfi_personality 0x3,__gxx_personality_v0
 3035              		.cfi_lsda 0x3,.LLSDA1343
 3036 13b0 55       		pushq	%rbp
 3037              		.cfi_def_cfa_offset 16
 3038              		.cfi_offset 6, -16
 3039 13b1 4889E5   		movq	%rsp, %rbp
 3040              		.cfi_def_cfa_register 6
 3041 13b4 53       		pushq	%rbx
 3042 13b5 4883EC58 		subq	$88, %rsp
 3043              		.cfi_offset 3, -24
 3044 13b9 48897DA8 		movq	%rdi, -88(%rbp)
 3045              	.LBB77:
  73:TestDeferredTestReporter.cpp ****     char const* failure = "failure";
 3046              		.loc 3 73 0
 3047 13bd 48C745C0 		movq	$.LC18, -64(%rbp)
 3047      00000000 
  74:TestDeferredTestReporter.cpp **** 
  75:TestDeferredTestReporter.cpp ****     reporter.ReportTestStart(details);
 3048              		.loc 3 75 0
 3049 13c5 488B45A8 		movq	-88(%rbp), %rax
 3050 13c9 488D5040 		leaq	64(%rax), %rdx
 3051 13cd 488B45A8 		movq	-88(%rbp), %rax
 3052 13d1 4889D6   		movq	%rdx, %rsi
 3053 13d4 4889C7   		movq	%rax, %rdi
 3054              	.LEHB87:
 3055 13d7 E8000000 		call	_ZN8UnitTest20DeferredTestReporter15ReportTestStartERKNS_11TestDetailsE
 3055      00
  76:TestDeferredTestReporter.cpp ****     reporter.ReportFailure(details, failure);
 3056              		.loc 3 76 0
 3057 13dc 488B45A8 		movq	-88(%rbp), %rax
 3058 13e0 488D4840 		leaq	64(%rax), %rcx
 3059 13e4 488B45A8 		movq	-88(%rbp), %rax
 3060 13e8 488B55C0 		movq	-64(%rbp), %rdx
 3061 13ec 4889CE   		movq	%rcx, %rsi
 3062 13ef 4889C7   		movq	%rax, %rdi
 3063 13f2 E8000000 		call	_ZN8UnitTest20DeferredTestReporter13ReportFailureERKNS_11TestDetailsEPKc
 3063      00
  77:TestDeferredTestReporter.cpp **** 
  78:TestDeferredTestReporter.cpp ****     DeferredTestResult const& result = reporter.GetResults().at(0);
 3064              		.loc 3 78 0
 3065 13f7 488B45A8 		movq	-88(%rbp), %rax
 3066 13fb 4889C7   		movq	%rax, %rdi
 3067 13fe E8000000 		call	_ZN8UnitTest20DeferredTestReporter10GetResultsEv
 3067      00
 3068 1403 BE000000 		movl	$0, %esi
 3068      00
 3069 1408 4889C7   		movq	%rax, %rdi
 3070 140b E8000000 		call	_ZNSt6vectorIN8UnitTest18DeferredTestResultESaIS1_EE2atEm
 3070      00
 3071              	.LEHE87:
 3072 1410 488945C8 		movq	%rax, -56(%rbp)
  79:TestDeferredTestReporter.cpp ****     CHECK(result.failed == true);
 3073              		.loc 3 79 0
 3074 1414 488B45C8 		movq	-56(%rbp), %rax
 3075 1418 0FB64034 		movzbl	52(%rax), %eax
 3076 141c 0FB6C0   		movzbl	%al, %eax
 3077 141f 89C7     		movl	%eax, %edi
 3078 1421 E8000000 		call	_ZN8UnitTest5CheckIbEEbT_
 3078      00
 3079 1426 83F001   		xorl	$1, %eax
 3080 1429 84C0     		testb	%al, %al
 3081 142b 7438     		je	.L173
 3082              	.LEHB88:
 3083              		.loc 3 79 0 is_stmt 0 discriminator 1
 3084 142d E8000000 		call	_ZN8UnitTest11CurrentTest7DetailsEv
 3084      00
 3085 1432 488B08   		movq	(%rax), %rcx
 3086 1435 488D45D0 		leaq	-48(%rbp), %rax
 3087 1439 BA4F0000 		movl	$79, %edx
 3087      00
 3088 143e 4889CE   		movq	%rcx, %rsi
 3089 1441 4889C7   		movq	%rax, %rdi
 3090 1444 E8000000 		call	_ZN8UnitTest11TestDetailsC1ERKS0_i
 3090      00
 3091 1449 E8000000 		call	_ZN8UnitTest11CurrentTest7ResultsEv
 3091      00
 3092 144e 488B00   		movq	(%rax), %rax
 3093 1451 488D4DD0 		leaq	-48(%rbp), %rcx
 3094 1455 BA000000 		movl	$.LC19, %edx
 3094      00
 3095 145a 4889CE   		movq	%rcx, %rsi
 3096 145d 4889C7   		movq	%rax, %rdi
 3097 1460 E8000000 		call	_ZN8UnitTest11TestResults13OnTestFailureERKNS_11TestDetailsEPKc
 3097      00
 3098              	.LEHE88:
 3099              	.L173:
 3100              	.LEHB89:
  80:TestDeferredTestReporter.cpp ****     CHECK_EQUAL(fileName.c_str(), result.failureFile);
 3101              		.loc 3 80 0 is_stmt 1
 3102 1465 E8000000 		call	_ZN8UnitTest11CurrentTest7DetailsEv
 3102      00
 3103 146a 488B08   		movq	(%rax), %rcx
 3104 146d 488D45D0 		leaq	-48(%rbp), %rax
 3105 1471 BA500000 		movl	$80, %edx
 3105      00
 3106 1476 4889CE   		movq	%rcx, %rsi
 3107 1479 4889C7   		movq	%rax, %rdi
 3108 147c E8000000 		call	_ZN8UnitTest11TestDetailsC1ERKS0_i
 3108      00
 3109              		.loc 3 80 0 is_stmt 0 discriminator 1
 3110 1481 488B45C8 		movq	-56(%rbp), %rax
 3111 1485 488D5810 		leaq	16(%rax), %rbx
 3112 1489 488B45A8 		movq	-88(%rbp), %rax
 3113 148d 4883C030 		addq	$48, %rax
 3114 1491 4889C7   		movq	%rax, %rdi
 3115 1494 E8000000 		call	_ZNKSs5c_strEv
 3115      00
 3116 1499 488945B8 		movq	%rax, -72(%rbp)
 3117 149d E8000000 		call	_ZN8UnitTest11CurrentTest7ResultsEv
 3117      00
 3118 14a2 488B00   		movq	(%rax), %rax
 3119 14a5 488D55D0 		leaq	-48(%rbp), %rdx
 3120 14a9 488D75B8 		leaq	-72(%rbp), %rsi
 3121 14ad 4889D1   		movq	%rdx, %rcx
 3122 14b0 4889DA   		movq	%rbx, %rdx
 3123 14b3 4889C7   		movq	%rax, %rdi
 3124 14b6 E8000000 		call	_ZN8UnitTest10CheckEqualIPKcSsEEvRNS_11TestResultsERKT_RKT0_RKNS_11TestDetailsE
 3124      00
 3125              	.LEHE89:
 3126              	.LBE77:
  81:TestDeferredTestReporter.cpp **** }
 3127              		.loc 3 81 0 is_stmt 1
 3128 14bb E9B50000 		jmp	.L183
 3128      00
 3129              	.L180:
 3130 14c0 4889C3   		movq	%rax, %rbx
 3131              	.LBB78:
  79:TestDeferredTestReporter.cpp ****     CHECK(result.failed == true);
 3132              		.loc 3 79 0
 3133 14c3 E8000000 		call	__cxa_end_catch
 3133      00
 3134 14c8 4889D8   		movq	%rbx, %rax
 3135 14cb 4889C7   		movq	%rax, %rdi
 3136              	.LEHB90:
 3137 14ce E8000000 		call	_Unwind_Resume
 3137      00
 3138              	.LEHE90:
 3139              	.L179:
 3140 14d3 4889C7   		movq	%rax, %rdi
 3141 14d6 E8000000 		call	__cxa_begin_catch
 3141      00
 3142              	.LEHB91:
 3143 14db E8000000 		call	_ZN8UnitTest11CurrentTest7DetailsEv
 3143      00
 3144 14e0 488B08   		movq	(%rax), %rcx
 3145 14e3 488D45D0 		leaq	-48(%rbp), %rax
 3146 14e7 BA4F0000 		movl	$79, %edx
 3146      00
 3147 14ec 4889CE   		movq	%rcx, %rsi
 3148 14ef 4889C7   		movq	%rax, %rdi
 3149 14f2 E8000000 		call	_ZN8UnitTest11TestDetailsC1ERKS0_i
 3149      00
  79:TestDeferredTestReporter.cpp ****     CHECK(result.failed == true);
 3150              		.loc 3 79 0 is_stmt 0 discriminator 1
 3151 14f7 E8000000 		call	_ZN8UnitTest11CurrentTest7ResultsEv
 3151      00
 3152 14fc 488B00   		movq	(%rax), %rax
 3153 14ff 488D4DD0 		leaq	-48(%rbp), %rcx
 3154 1503 BA000000 		movl	$.LC20, %edx
 3154      00
 3155 1508 4889CE   		movq	%rcx, %rsi
 3156 150b 4889C7   		movq	%rax, %rdi
 3157 150e E8000000 		call	_ZN8UnitTest11TestResults13OnTestFailureERKNS_11TestDetailsEPKc
 3157      00
 3158              	.LEHE91:
 3159              	.LEHB92:
 3160 1513 E8000000 		call	__cxa_end_catch
 3160      00
 3161              	.LEHE92:
 3162 1518 E948FFFF 		jmp	.L173
 3162      FF
 3163              	.L182:
 3164 151d 4889C3   		movq	%rax, %rbx
  80:TestDeferredTestReporter.cpp ****     CHECK_EQUAL(fileName.c_str(), result.failureFile);
 3165              		.loc 3 80 0 is_stmt 1
 3166 1520 E8000000 		call	__cxa_end_catch
 3166      00
 3167 1525 4889D8   		movq	%rbx, %rax
 3168 1528 4889C7   		movq	%rax, %rdi
 3169              	.LEHB93:
 3170 152b E8000000 		call	_Unwind_Resume
 3170      00
 3171              	.LEHE93:
 3172              	.L181:
 3173 1530 4889C7   		movq	%rax, %rdi
 3174 1533 E8000000 		call	__cxa_begin_catch
 3174      00
 3175              	.LEHB94:
 3176 1538 E8000000 		call	_ZN8UnitTest11CurrentTest7DetailsEv
 3176      00
 3177 153d 488B08   		movq	(%rax), %rcx
 3178 1540 488D45D0 		leaq	-48(%rbp), %rax
 3179 1544 BA500000 		movl	$80, %edx
 3179      00
 3180 1549 4889CE   		movq	%rcx, %rsi
 3181 154c 4889C7   		movq	%rax, %rdi
 3182 154f E8000000 		call	_ZN8UnitTest11TestDetailsC1ERKS0_i
 3182      00
  80:TestDeferredTestReporter.cpp ****     CHECK_EQUAL(fileName.c_str(), result.failureFile);
 3183              		.loc 3 80 0 is_stmt 0 discriminator 1
 3184 1554 E8000000 		call	_ZN8UnitTest11CurrentTest7ResultsEv
 3184      00
 3185 1559 488B00   		movq	(%rax), %rax
 3186 155c 488D4DD0 		leaq	-48(%rbp), %rcx
 3187 1560 BA000000 		movl	$.LC21, %edx
 3187      00
 3188 1565 4889CE   		movq	%rcx, %rsi
 3189 1568 4889C7   		movq	%rax, %rdi
 3190 156b E8000000 		call	_ZN8UnitTest11TestResults13OnTestFailureERKNS_11TestDetailsEPKc
 3190      00
 3191              	.LEHE94:
 3192              	.LEHB95:
 3193 1570 E8000000 		call	__cxa_end_catch
 3193      00
 3194              	.LEHE95:
 3195              	.L183:
 3196              	.LBE78:
 3197              		.loc 3 81 0 is_stmt 1
 3198 1575 90       		nop
 3199 1576 4883C458 		addq	$88, %rsp
 3200 157a 5B       		popq	%rbx
 3201 157b 5D       		popq	%rbp
 3202              		.cfi_def_cfa 7, 8
 3203 157c C3       		ret
 3204              		.cfi_endproc
 3205              	.LFE1343:
 3206              		.section	.gcc_except_table
 3207              		.align 4
 3208              	.LLSDA1343:
 3209 0230 FF       		.byte	0xff
 3210 0231 03       		.byte	0x3
 3211 0232 39       		.uleb128 .LLSDATT1343-.LLSDATTD1343
 3212              	.LLSDATTD1343:
 3213 0233 01       		.byte	0x1
 3214 0234 2F       		.uleb128 .LLSDACSE1343-.LLSDACSB1343
 3215              	.LLSDACSB1343:
 3216 0235 27       		.uleb128 .LEHB87-.LFB1343
 3217 0236 39       		.uleb128 .LEHE87-.LEHB87
 3218 0237 00       		.uleb128 0
 3219 0238 00       		.uleb128 0
 3220 0239 7D       		.uleb128 .LEHB88-.LFB1343
 3221 023a 38       		.uleb128 .LEHE88-.LEHB88
 3222 023b A302     		.uleb128 .L179-.LFB1343
 3223 023d 01       		.uleb128 0x1
 3224 023e B501     		.uleb128 .LEHB89-.LFB1343
 3225 0240 56       		.uleb128 .LEHE89-.LEHB89
 3226 0241 8003     		.uleb128 .L181-.LFB1343
 3227 0243 01       		.uleb128 0x1
 3228 0244 9E02     		.uleb128 .LEHB90-.LFB1343
 3229 0246 05       		.uleb128 .LEHE90-.LEHB90
 3230 0247 00       		.uleb128 0
 3231 0248 00       		.uleb128 0
 3232 0249 AB02     		.uleb128 .LEHB91-.LFB1343
 3233 024b 38       		.uleb128 .LEHE91-.LEHB91
 3234 024c 9002     		.uleb128 .L180-.LFB1343
 3235 024e 00       		.uleb128 0
 3236 024f E302     		.uleb128 .LEHB92-.LFB1343
 3237 0251 05       		.uleb128 .LEHE92-.LEHB92
 3238 0252 00       		.uleb128 0
 3239 0253 00       		.uleb128 0
 3240 0254 FB02     		.uleb128 .LEHB93-.LFB1343
 3241 0256 05       		.uleb128 .LEHE93-.LEHB93
 3242 0257 00       		.uleb128 0
 3243 0258 00       		.uleb128 0
 3244 0259 8803     		.uleb128 .LEHB94-.LFB1343
 3245 025b 38       		.uleb128 .LEHE94-.LEHB94
 3246 025c ED02     		.uleb128 .L182-.LFB1343
 3247 025e 00       		.uleb128 0
 3248 025f C003     		.uleb128 .LEHB95-.LFB1343
 3249 0261 05       		.uleb128 .LEHE95-.LEHB95
 3250 0262 00       		.uleb128 0
 3251 0263 00       		.uleb128 0
 3252              	.LLSDACSE1343:
 3253 0264 01       		.byte	0x1
 3254 0265 00       		.byte	0
 3255 0266 0000     		.align 4
 3256 0268 00000000 		.long	0
 3257              	
 3258              	.LLSDATT1343:
 3259              		.text
 3261 157d 90       		.align 2
 3263              	_ZN8UnitTest12_GLOBAL__N_184DeferredTestReporterFixtureReportFailureSavesFailureDetailsForMultipleF
 3264              	.LFB1345:
  82:TestDeferredTestReporter.cpp **** 
  83:TestDeferredTestReporter.cpp **** TEST_FIXTURE(DeferredTestReporterFixture, ReportFailureSavesFailureDetailsForMultipleFailures)
 3265              		.loc 3 83 0
 3266              		.cfi_startproc
 3267 157e 55       		pushq	%rbp
 3268              		.cfi_def_cfa_offset 16
 3269              		.cfi_offset 6, -16
 3270 157f 4889E5   		movq	%rsp, %rbp
 3271              		.cfi_def_cfa_register 6
 3272 1582 4883EC10 		subq	$16, %rsp
 3273 1586 48897DF8 		movq	%rdi, -8(%rbp)
 3274 158a 488975F0 		movq	%rsi, -16(%rbp)
 3275              	.LBB79:
 3276              		.loc 3 83 0
 3277 158e 488B45F8 		movq	-8(%rbp), %rax
 3278 1592 4889C7   		movq	%rax, %rdi
 3279 1595 E8A4EAFF 		call	_ZN8UnitTest12_GLOBAL__N_127DeferredTestReporterFixtureC2Ev
 3279      FF
 3280 159a 488B45F8 		movq	-8(%rbp), %rax
 3281 159e 488B55F0 		movq	-16(%rbp), %rdx
 3282 15a2 48895060 		movq	%rdx, 96(%rax)
 3283              	.LBE79:
 3284 15a6 C9       		leave
 3285              		.cfi_def_cfa 7, 8
 3286 15a7 C3       		ret
 3287              		.cfi_endproc
 3288              	.LFE1345:
 3290              		.set	_ZN8UnitTest12_GLOBAL__N_184DeferredTestReporterFixtureReportFailureSavesFailureDetailsForMul
 3291              		.section	.rodata
 3292 0361 00000000 		.align 8
 3292      000000
 3293              	.LC22:
 3294 0368 5265706F 		.string	"ReportFailureSavesFailureDetailsForMultipleFailures"
 3294      72744661 
 3294      696C7572 
 3294      65536176 
 3294      65734661 
 3295              		.text
 3296              		.align 2
 3298              	_ZN8UnitTest12_GLOBAL__N_182TestDeferredTestReporterFixtureReportFailureSavesFailureDetailsForMulti
 3299              	.LFB1348:
 3300              		.loc 3 83 0
 3301              		.cfi_startproc
 3302 15a8 55       		pushq	%rbp
 3303              		.cfi_def_cfa_offset 16
 3304              		.cfi_offset 6, -16
 3305 15a9 4889E5   		movq	%rsp, %rbp
 3306              		.cfi_def_cfa_register 6
 3307 15ac 4883EC10 		subq	$16, %rsp
 3308 15b0 48897DF8 		movq	%rdi, -8(%rbp)
 3309              	.LBB80:
 3310              		.loc 3 83 0
 3311 15b4 E8000000 		call	_ZN13UnitTestSuite12GetSuiteNameEv
 3311      00
 3312 15b9 4889C2   		movq	%rax, %rdx
 3313 15bc 488B45F8 		movq	-8(%rbp), %rax
 3314 15c0 41B85300 		movl	$83, %r8d
 3314      0000
 3315 15c6 B9000000 		movl	$.LC4, %ecx
 3315      00
 3316 15cb BE000000 		movl	$.LC22, %esi
 3316      00
 3317 15d0 4889C7   		movq	%rax, %rdi
 3318 15d3 E8000000 		call	_ZN8UnitTest4TestC2EPKcS2_S2_i
 3318      00
 3319 15d8 488B45F8 		movq	-8(%rbp), %rax
 3320 15dc 48C70000 		movq	$_ZTVN8UnitTest12_GLOBAL__N_182TestDeferredTestReporterFixtureReportFailureSavesFailureDetail
 3320      000000
 3321              	.LBE80:
 3322 15e3 C9       		leave
 3323              		.cfi_def_cfa 7, 8
 3324 15e4 C3       		ret
 3325              		.cfi_endproc
 3326              	.LFE1348:
 3328              		.set	_ZN8UnitTest12_GLOBAL__N_182TestDeferredTestReporterFixtureReportFailureSavesFailureDetailsFo
 3329              		.local	_ZN8UnitTest12_GLOBAL__N_190testDeferredTestReporterFixtureReportFailureSavesFailureDetails
 3330              		.comm	_ZN8UnitTest12_GLOBAL__N_190testDeferredTestReporterFixtureReportFailureSavesFailureDetailsF
 3331              		.local	_ZN8UnitTest12_GLOBAL__N_183adderDeferredTestReporterFixtureReportFailureSavesFailureDetail
 3332              		.comm	_ZN8UnitTest12_GLOBAL__N_183adderDeferredTestReporterFixtureReportFailureSavesFailureDetails
 3333 15e5 90       		.align 2
 3335              	_ZN8UnitTest12_GLOBAL__N_184DeferredTestReporterFixtureReportFailureSavesFailureDetailsForMultipleF
 3336              	.LFB1352:
 3337              		.loc 3 83 0
 3338              		.cfi_startproc
 3339 15e6 55       		pushq	%rbp
 3340              		.cfi_def_cfa_offset 16
 3341              		.cfi_offset 6, -16
 3342 15e7 4889E5   		movq	%rsp, %rbp
 3343              		.cfi_def_cfa_register 6
 3344 15ea 4883EC10 		subq	$16, %rsp
 3345 15ee 48897DF8 		movq	%rdi, -8(%rbp)
 3346              	.LBB81:
 3347              		.loc 3 83 0
 3348 15f2 488B45F8 		movq	-8(%rbp), %rax
 3349 15f6 4889C7   		movq	%rax, %rdi
 3350 15f9 E8E6EBFF 		call	_ZN8UnitTest12_GLOBAL__N_127DeferredTestReporterFixtureD2Ev
 3350      FF
 3351              	.LBE81:
 3352 15fe C9       		leave
 3353              		.cfi_def_cfa 7, 8
 3354 15ff C3       		ret
 3355              		.cfi_endproc
 3356              	.LFE1352:
 3358              		.set	_ZN8UnitTest12_GLOBAL__N_184DeferredTestReporterFixtureReportFailureSavesFailureDetailsForMul
 3359              		.align 2
 3361              	_ZNK8UnitTest12_GLOBAL__N_182TestDeferredTestReporterFixtureReportFailureSavesFailureDetailsForMult
 3362              	.LFB1350:
 3363              		.loc 3 83 0
 3364              		.cfi_startproc
 3365              		.cfi_personality 0x3,__gxx_personality_v0
 3366              		.cfi_lsda 0x3,.LLSDA1350
 3367 1600 55       		pushq	%rbp
 3368              		.cfi_def_cfa_offset 16
 3369              		.cfi_offset 6, -16
 3370 1601 4889E5   		movq	%rsp, %rbp
 3371              		.cfi_def_cfa_register 6
 3372 1604 4154     		pushq	%r12
 3373 1606 53       		pushq	%rbx
 3374 1607 4881ECA0 		subq	$416, %rsp
 3374      010000
 3375              		.cfi_offset 12, -24
 3376              		.cfi_offset 3, -32
 3377 160e 4889BD58 		movq	%rdi, -424(%rbp)
 3377      FEFFFF
 3378              	.LBB82:
 3379              		.loc 3 83 0
 3380 1615 C6856FFE 		movb	$0, -401(%rbp)
 3380      FFFF00
 3381              	.LBB83:
 3382 161c 488B8558 		movq	-424(%rbp), %rax
 3382      FEFFFF
 3383 1623 488D5008 		leaq	8(%rax), %rdx
 3384 1627 488D8580 		leaq	-384(%rbp), %rax
 3384      FEFFFF
 3385 162e 4889D6   		movq	%rdx, %rsi
 3386 1631 4889C7   		movq	%rax, %rdi
 3387              	.LEHB96:
 3388 1634 E845FFFF 		call	_ZN8UnitTest12_GLOBAL__N_184DeferredTestReporterFixtureReportFailureSavesFailureDetailsForMul
 3388      FF
 3389              	.LEHE96:
 3390              		.loc 3 83 0 is_stmt 0 discriminator 1
 3391 1639 C6856FFE 		movb	$1, -401(%rbp)
 3391      FFFF01
 3392 1640 488B8558 		movq	-424(%rbp), %rax
 3392      FEFFFF
 3393 1647 488D5008 		leaq	8(%rax), %rdx
 3394 164b 488D8580 		leaq	-384(%rbp), %rax
 3394      FEFFFF
 3395 1652 4889D6   		movq	%rdx, %rsi
 3396 1655 4889C7   		movq	%rax, %rdi
 3397              	.LEHB97:
 3398 1658 E8A11400 		call	_ZN8UnitTest11ExecuteTestINS_12_GLOBAL__N_184DeferredTestReporterFixtureReportFailureSavesFai
 3398      00
 3399              	.LEHE97:
 3400 165d 488D8580 		leaq	-384(%rbp), %rax
 3400      FEFFFF
 3401 1664 4889C7   		movq	%rax, %rdi
 3402              	.LEHB98:
 3403 1667 E87AFFFF 		call	_ZN8UnitTest12_GLOBAL__N_184DeferredTestReporterFixtureReportFailureSavesFailureDetailsForMul
 3403      FF
 3404              	.LEHE98:
 3405              	.LBE83:
 3406              	.LBE82:
 3407              		.loc 3 83 0
 3408 166c E9640200 		jmp	.L208
 3408      00
 3409              	.L202:
 3410 1671 4989C4   		movq	%rax, %r12
 3411 1674 4889D3   		movq	%rdx, %rbx
 3412              	.LBB91:
 3413              	.LBB84:
 3414 1677 488D8580 		leaq	-384(%rbp), %rax
 3414      FEFFFF
 3415 167e 4889C7   		movq	%rax, %rdi
 3416 1681 E860FFFF 		call	_ZN8UnitTest12_GLOBAL__N_184DeferredTestReporterFixtureReportFailureSavesFailureDetailsForMul
 3416      FF
 3417 1686 4C89E0   		movq	%r12, %rax
 3418 1689 4889DA   		movq	%rbx, %rdx
 3419 168c EB00     		jmp	.L190
 3420              	.L201:
 3421              	.L190:
 3422 168e 4883FA01 		cmpq	$1, %rdx
 3423 1692 745C     		je	.L192
 3424 1694 4883FA02 		cmpq	$2, %rdx
 3425 1698 0F84F400 		je	.L193
 3425      0000
 3426 169e E9980100 		jmp	.L207
 3426      00
 3427              	.L203:
 3428 16a3 4889C3   		movq	%rax, %rbx
 3429              	.LBE84:
 3430              	.LBB85:
 3431 16a6 E8000000 		call	__cxa_end_catch
 3431      00
 3432 16ab 4889D8   		movq	%rbx, %rax
 3433 16ae 4889C7   		movq	%rax, %rdi
 3434              	.LEHB99:
 3435 16b1 E8000000 		call	_Unwind_Resume
 3435      00
 3436              	.LEHE99:
 3437              	.L204:
 3438 16b6 4889C3   		movq	%rax, %rbx
 3439              	.LBE85:
 3440              	.LBB86:
 3441              	.LBB87:
 3442 16b9 488D8580 		leaq	-384(%rbp), %rax
 3442      FEFFFF
 3443 16c0 4889C7   		movq	%rax, %rdi
 3444 16c3 E8000000 		call	_ZN8UnitTest15MemoryOutStreamD1Ev
 3444      00
 3445 16c8 EB03     		jmp	.L196
 3446              	.L205:
 3447 16ca 4889C3   		movq	%rax, %rbx
 3448              	.L196:
 3449              	.LBE87:
 3450 16cd E8000000 		call	__cxa_end_catch
 3450      00
 3451 16d2 4889D8   		movq	%rbx, %rax
 3452 16d5 4889C7   		movq	%rax, %rdi
 3453              	.LEHB100:
 3454 16d8 E8000000 		call	_Unwind_Resume
 3454      00
 3455              	.LEHE100:
 3456              	.L206:
 3457 16dd 4889C3   		movq	%rax, %rbx
 3458              	.LBE86:
 3459 16e0 E8000000 		call	__cxa_end_catch
 3459      00
 3460 16e5 4889D8   		movq	%rbx, %rax
 3461 16e8 4889C7   		movq	%rax, %rdi
 3462              	.LEHB101:
 3463 16eb E8000000 		call	_Unwind_Resume
 3463      00
 3464              	.LEHE101:
 3465              	.L192:
 3466              	.LBB89:
 3467 16f0 4889C7   		movq	%rax, %rdi
 3468 16f3 E8000000 		call	__cxa_begin_catch
 3468      00
 3469 16f8 48898570 		movq	%rax, -400(%rbp)
 3469      FEFFFF
 3470 16ff 488B8570 		movq	-400(%rbp), %rax
 3470      FEFFFF
 3471 1706 488B00   		movq	(%rax), %rax
 3472 1709 4883C010 		addq	$16, %rax
 3473 170d 488B00   		movq	(%rax), %rax
 3474 1710 488B9570 		movq	-400(%rbp), %rdx
 3474      FEFFFF
 3475 1717 4889D7   		movq	%rdx, %rdi
 3476 171a FFD0     		call	*%rax
 3477 171c 4889C3   		movq	%rax, %rbx
 3478 171f 488B8570 		movq	-400(%rbp), %rax
 3478      FEFFFF
 3479 1726 4889C7   		movq	%rax, %rdi
 3480              	.LEHB102:
 3481 1729 E8000000 		call	_ZNK8UnitTest15AssertException10LineNumberEv
 3481      00
 3482 172e 4189C4   		movl	%eax, %r12d
 3483 1731 488B8570 		movq	-400(%rbp), %rax
 3483      FEFFFF
 3484 1738 4889C7   		movq	%rax, %rdi
 3485 173b E8000000 		call	_ZNK8UnitTest15AssertException8FilenameEv
 3485      00
 3486              		.loc 3 83 0 discriminator 1
 3487 1740 4889C1   		movq	%rax, %rcx
 3488 1743 488B8558 		movq	-424(%rbp), %rax
 3488      FEFFFF
 3489 174a 488B5008 		movq	8(%rax), %rdx
 3490 174e 488B8558 		movq	-424(%rbp), %rax
 3490      FEFFFF
 3491 1755 488B7010 		movq	16(%rax), %rsi
 3492 1759 488D8580 		leaq	-384(%rbp), %rax
 3492      FEFFFF
 3493 1760 4589E0   		movl	%r12d, %r8d
 3494 1763 4889C7   		movq	%rax, %rdi
 3495 1766 E8000000 		call	_ZN8UnitTest11TestDetailsC1EPKcS2_S2_i
 3495      00
 3496              		.loc 3 83 0 discriminator 3
 3497 176b E8000000 		call	_ZN8UnitTest11CurrentTest7ResultsEv
 3497      00
 3498 1770 488B00   		movq	(%rax), %rax
 3499 1773 488D8D80 		leaq	-384(%rbp), %rcx
 3499      FEFFFF
 3500 177a 4889DA   		movq	%rbx, %rdx
 3501 177d 4889CE   		movq	%rcx, %rsi
 3502 1780 4889C7   		movq	%rax, %rdi
 3503 1783 E8000000 		call	_ZN8UnitTest11TestResults13OnTestFailureERKNS_11TestDetailsEPKc
 3503      00
 3504              	.LEHE102:
 3505              		.loc 3 83 0 discriminator 1
 3506 1788 E8000000 		call	__cxa_end_catch
 3506      00
 3507              	.LBE89:
 3508              	.LBE91:
 3509 178d E9430100 		jmp	.L208
 3509      00
 3510              	.L193:
 3511              	.LBB92:
 3512              	.LBB90:
 3513              		.loc 3 83 0
 3514 1792 4889C7   		movq	%rax, %rdi
 3515 1795 E8000000 		call	__cxa_begin_catch
 3515      00
 3516 179a 48898578 		movq	%rax, -392(%rbp)
 3516      FEFFFF
 3517              	.LBB88:
 3518 17a1 488D8580 		leaq	-384(%rbp), %rax
 3518      FEFFFF
 3519 17a8 4889C7   		movq	%rax, %rdi
 3520              	.LEHB103:
 3521 17ab E8000000 		call	_ZN8UnitTest15MemoryOutStreamC1Ev
 3521      00
 3522              	.LEHE103:
 3523              		.loc 3 83 0 discriminator 1
 3524 17b0 488B8578 		movq	-392(%rbp), %rax
 3524      FEFFFF
 3525 17b7 488B00   		movq	(%rax), %rax
 3526 17ba 4883C010 		addq	$16, %rax
 3527 17be 488B00   		movq	(%rax), %rax
 3528 17c1 488B9578 		movq	-392(%rbp), %rdx
 3528      FEFFFF
 3529 17c8 4889D7   		movq	%rdx, %rdi
 3530 17cb FFD0     		call	*%rax
 3531 17cd 4889C3   		movq	%rax, %rbx
 3532 17d0 488D8580 		leaq	-384(%rbp), %rax
 3532      FEFFFF
 3533 17d7 BE000000 		movl	$.LC6, %esi
 3533      00
 3534 17dc 4889C7   		movq	%rax, %rdi
 3535              	.LEHB104:
 3536 17df E8000000 		call	_ZStlsISt11char_traitsIcEERSt13basic_ostreamIcT_ES5_PKc
 3536      00
 3537 17e4 4889DE   		movq	%rbx, %rsi
 3538 17e7 4889C7   		movq	%rax, %rdi
 3539 17ea E8000000 		call	_ZStlsISt11char_traitsIcEERSt13basic_ostreamIcT_ES5_PKc
 3539      00
 3540 17ef 488D8580 		leaq	-384(%rbp), %rax
 3540      FEFFFF
 3541 17f6 4889C7   		movq	%rax, %rdi
 3542 17f9 E8000000 		call	_ZNK8UnitTest15MemoryOutStream7GetTextEv
 3542      00
 3543 17fe 4889C3   		movq	%rax, %rbx
 3544 1801 488B8558 		movq	-424(%rbp), %rax
 3544      FEFFFF
 3545 1808 4C8D6008 		leaq	8(%rax), %r12
 3546 180c E8000000 		call	_ZN8UnitTest11CurrentTest7ResultsEv
 3546      00
 3547 1811 488B00   		movq	(%rax), %rax
 3548 1814 4889DA   		movq	%rbx, %rdx
 3549 1817 4C89E6   		movq	%r12, %rsi
 3550 181a 4889C7   		movq	%rax, %rdi
 3551 181d E8000000 		call	_ZN8UnitTest11TestResults13OnTestFailureERKNS_11TestDetailsEPKc
 3551      00
 3552              	.LEHE104:
 3553 1822 488D8580 		leaq	-384(%rbp), %rax
 3553      FEFFFF
 3554 1829 4889C7   		movq	%rax, %rdi
 3555              	.LEHB105:
 3556 182c E8000000 		call	_ZN8UnitTest15MemoryOutStreamD1Ev
 3556      00
 3557              	.LEHE105:
 3558              	.LBE88:
 3559              		.loc 3 83 0
 3560 1831 E8000000 		call	__cxa_end_catch
 3560      00
 3561              	.LBE90:
 3562              	.LBE92:
 3563 1836 E99A0000 		jmp	.L208
 3563      00
 3564              	.L207:
 3565              	.LBB93:
 3566 183b 4889C7   		movq	%rax, %rdi
 3567 183e E8000000 		call	__cxa_begin_catch
 3567      00
 3568 1843 80BD6FFE 		cmpb	$0, -401(%rbp)
 3568      FFFF00
 3569 184a 7443     		je	.L199
 3570              		.loc 3 83 0 discriminator 1
 3571 184c 488B8558 		movq	-424(%rbp), %rax
 3571      FEFFFF
 3572 1853 488D4808 		leaq	8(%rax), %rcx
 3573 1857 488D8580 		leaq	-384(%rbp), %rax
 3573      FEFFFF
 3574 185e BA530000 		movl	$83, %edx
 3574      00
 3575 1863 4889CE   		movq	%rcx, %rsi
 3576 1866 4889C7   		movq	%rax, %rdi
 3577              	.LEHB106:
 3578 1869 E8000000 		call	_ZN8UnitTest11TestDetailsC1ERKS0_i
 3578      00
 3579 186e E8000000 		call	_ZN8UnitTest11CurrentTest7ResultsEv
 3579      00
 3580 1873 488B00   		movq	(%rax), %rax
 3581 1876 488D8D80 		leaq	-384(%rbp), %rcx
 3581      FEFFFF
 3582 187d BA000000 		movl	$.LC7, %edx
 3582      00
 3583 1882 4889CE   		movq	%rcx, %rsi
 3584 1885 4889C7   		movq	%rax, %rdi
 3585 1888 E8000000 		call	_ZN8UnitTest11TestResults13OnTestFailureERKNS_11TestDetailsEPKc
 3585      00
 3586 188d EB41     		jmp	.L200
 3587              	.L199:
 3588              		.loc 3 83 0 discriminator 2
 3589 188f 488B8558 		movq	-424(%rbp), %rax
 3589      FEFFFF
 3590 1896 488D4808 		leaq	8(%rax), %rcx
 3591 189a 488D8580 		leaq	-384(%rbp), %rax
 3591      FEFFFF
 3592 18a1 BA530000 		movl	$83, %edx
 3592      00
 3593 18a6 4889CE   		movq	%rcx, %rsi
 3594 18a9 4889C7   		movq	%rax, %rdi
 3595 18ac E8000000 		call	_ZN8UnitTest11TestDetailsC1ERKS0_i
 3595      00
 3596              		.loc 3 83 0 discriminator 1
 3597 18b1 E8000000 		call	_ZN8UnitTest11CurrentTest7ResultsEv
 3597      00
 3598 18b6 488B00   		movq	(%rax), %rax
 3599 18b9 488D8D80 		leaq	-384(%rbp), %rcx
 3599      FEFFFF
 3600 18c0 BA000000 		movl	$.LC8, %edx
 3600      00
 3601 18c5 4889CE   		movq	%rcx, %rsi
 3602 18c8 4889C7   		movq	%rax, %rdi
 3603 18cb E8000000 		call	_ZN8UnitTest11TestResults13OnTestFailureERKNS_11TestDetailsEPKc
 3603      00
 3604              	.LEHE106:
 3605              	.L200:
 3606              	.LEHB107:
 3607 18d0 E8000000 		call	__cxa_end_catch
 3607      00
 3608              	.LEHE107:
 3609              	.L208:
 3610              	.LBE93:
 3611              		.loc 3 83 0
 3612 18d5 90       		nop
 3613 18d6 4881C4A0 		addq	$416, %rsp
 3613      010000
 3614 18dd 5B       		popq	%rbx
 3615 18de 415C     		popq	%r12
 3616 18e0 5D       		popq	%rbp
 3617              		.cfi_def_cfa 7, 8
 3618 18e1 C3       		ret
 3619              		.cfi_endproc
 3620              	.LFE1350:
 3621              		.section	.gcc_except_table
 3622              		.align 4
 3623              	.LLSDA1350:
 3624 026c FF       		.byte	0xff
 3625 026d 03       		.byte	0x3
 3626 026e 59       		.uleb128 .LLSDATT1350-.LLSDATTD1350
 3627              	.LLSDATTD1350:
 3628 026f 01       		.byte	0x1
 3629 0270 40       		.uleb128 .LLSDACSE1350-.LLSDACSB1350
 3630              	.LLSDACSB1350:
 3631 0271 34       		.uleb128 .LEHB96-.LFB1350
 3632 0272 05       		.uleb128 .LEHE96-.LEHB96
 3633 0273 8E01     		.uleb128 .L201-.LFB1350
 3634 0275 05       		.uleb128 0x5
 3635 0276 58       		.uleb128 .LEHB97-.LFB1350
 3636 0277 05       		.uleb128 .LEHE97-.LEHB97
 3637 0278 71       		.uleb128 .L202-.LFB1350
 3638 0279 07       		.uleb128 0x7
 3639 027a 67       		.uleb128 .LEHB98-.LFB1350
 3640 027b 05       		.uleb128 .LEHE98-.LEHB98
 3641 027c 8E01     		.uleb128 .L201-.LFB1350
 3642 027e 05       		.uleb128 0x5
 3643 027f B101     		.uleb128 .LEHB99-.LFB1350
 3644 0281 05       		.uleb128 .LEHE99-.LEHB99
 3645 0282 00       		.uleb128 0
 3646 0283 00       		.uleb128 0
 3647 0284 D801     		.uleb128 .LEHB100-.LFB1350
 3648 0286 05       		.uleb128 .LEHE100-.LEHB100
 3649 0287 00       		.uleb128 0
 3650 0288 00       		.uleb128 0
 3651 0289 EB01     		.uleb128 .LEHB101-.LFB1350
 3652 028b 05       		.uleb128 .LEHE101-.LEHB101
 3653 028c 00       		.uleb128 0
 3654 028d 00       		.uleb128 0
 3655 028e A902     		.uleb128 .LEHB102-.LFB1350
 3656 0290 5F       		.uleb128 .LEHE102-.LEHB102
 3657 0291 A301     		.uleb128 .L203-.LFB1350
 3658 0293 00       		.uleb128 0
 3659 0294 AB03     		.uleb128 .LEHB103-.LFB1350
 3660 0296 05       		.uleb128 .LEHE103-.LEHB103
 3661 0297 CA01     		.uleb128 .L205-.LFB1350
 3662 0299 00       		.uleb128 0
 3663 029a DF03     		.uleb128 .LEHB104-.LFB1350
 3664 029c 43       		.uleb128 .LEHE104-.LEHB104
 3665 029d B601     		.uleb128 .L204-.LFB1350
 3666 029f 00       		.uleb128 0
 3667 02a0 AC04     		.uleb128 .LEHB105-.LFB1350
 3668 02a2 05       		.uleb128 .LEHE105-.LEHB105
 3669 02a3 CA01     		.uleb128 .L205-.LFB1350
 3670 02a5 00       		.uleb128 0
 3671 02a6 E904     		.uleb128 .LEHB106-.LFB1350
 3672 02a8 67       		.uleb128 .LEHE106-.LEHB106
 3673 02a9 DD01     		.uleb128 .L206-.LFB1350
 3674 02ab 00       		.uleb128 0
 3675 02ac D005     		.uleb128 .LEHB107-.LFB1350
 3676 02ae 05       		.uleb128 .LEHE107-.LEHB107
 3677 02af 00       		.uleb128 0
 3678 02b0 00       		.uleb128 0
 3679              	.LLSDACSE1350:
 3680 02b1 03       		.byte	0x3
 3681 02b2 00       		.byte	0
 3682 02b3 02       		.byte	0x2
 3683 02b4 7D       		.byte	0x7d
 3684 02b5 01       		.byte	0x1
 3685 02b6 7D       		.byte	0x7d
 3686 02b7 00       		.byte	0
 3687 02b8 7D       		.byte	0x7d
 3688 02b9 000000   		.align 4
 3689 02bc 00000000 		.long	0
 3690              	
 3691 02c0 00000000 		.long	_ZTISt9exception
 3692 02c4 00000000 		.long	_ZTIN8UnitTest15AssertExceptionE
 3693              	.LLSDATT1350:
 3694              		.text
 3696              		.section	.rodata
 3697              	.LC23:
 3698 039c 6661696C 		.string	"failure 1"
 3698      75726520 
 3698      3100
 3699              	.LC24:
 3700 03a6 6661696C 		.string	"failure 2"
 3700      75726520 
 3700      3200
 3701              		.align 8
 3702              	.LC25:
 3703 03b0 556E6861 		.string	"Unhandled exception in CHECK_EQUAL(2, (int)result.failures.size())"
 3703      6E646C65 
 3703      64206578 
 3703      63657074 
 3703      696F6E20 
 3704 03f3 00000000 		.align 8
 3704      00
 3705              	.LC26:
 3706 03f8 556E6861 		.string	"Unhandled exception in CHECK_EQUAL(failure1, result.failures[0].second)"
 3706      6E646C65 
 3706      64206578 
 3706      63657074 
 3706      696F6E20 
 3707              		.align 8
 3708              	.LC27:
 3709 0440 556E6861 		.string	"Unhandled exception in CHECK_EQUAL(failure2, result.failures[1].second)"
 3709      6E646C65 
 3709      64206578 
 3709      63657074 
 3709      696F6E20 
 3710              		.text
 3711              		.align 2
 3713              	_ZN8UnitTest12_GLOBAL__N_184DeferredTestReporterFixtureReportFailureSavesFailureDetailsForMultipleF
 3714              	.LFB1354:
  84:TestDeferredTestReporter.cpp **** {
 3715              		.loc 3 84 0 is_stmt 1
 3716              		.cfi_startproc
 3717              		.cfi_personality 0x3,__gxx_personality_v0
 3718              		.cfi_lsda 0x3,.LLSDA1354
 3719 18e2 55       		pushq	%rbp
 3720              		.cfi_def_cfa_offset 16
 3721              		.cfi_offset 6, -16
 3722 18e3 4889E5   		movq	%rsp, %rbp
 3723              		.cfi_def_cfa_register 6
 3724 18e6 53       		pushq	%rbx
 3725 18e7 4883EC58 		subq	$88, %rsp
 3726              		.cfi_offset 3, -24
 3727 18eb 48897DA8 		movq	%rdi, -88(%rbp)
 3728              	.LBB94:
  85:TestDeferredTestReporter.cpp ****     char const* failure1 = "failure 1";
 3729              		.loc 3 85 0
 3730 18ef 48C745B8 		movq	$.LC23, -72(%rbp)
 3730      00000000 
  86:TestDeferredTestReporter.cpp ****     char const* failure2 = "failure 2";
 3731              		.loc 3 86 0
 3732 18f7 48C745C0 		movq	$.LC24, -64(%rbp)
 3732      00000000 
  87:TestDeferredTestReporter.cpp **** 
  88:TestDeferredTestReporter.cpp ****     reporter.ReportTestStart(details);
 3733              		.loc 3 88 0
 3734 18ff 488B45A8 		movq	-88(%rbp), %rax
 3735 1903 488D5040 		leaq	64(%rax), %rdx
 3736 1907 488B45A8 		movq	-88(%rbp), %rax
 3737 190b 4889D6   		movq	%rdx, %rsi
 3738 190e 4889C7   		movq	%rax, %rdi
 3739              	.LEHB108:
 3740 1911 E8000000 		call	_ZN8UnitTest20DeferredTestReporter15ReportTestStartERKNS_11TestDetailsE
 3740      00
  89:TestDeferredTestReporter.cpp ****     reporter.ReportFailure(details, failure1);
 3741              		.loc 3 89 0
 3742 1916 488B55B8 		movq	-72(%rbp), %rdx
 3743 191a 488B45A8 		movq	-88(%rbp), %rax
 3744 191e 488D4840 		leaq	64(%rax), %rcx
 3745 1922 488B45A8 		movq	-88(%rbp), %rax
 3746 1926 4889CE   		movq	%rcx, %rsi
 3747 1929 4889C7   		movq	%rax, %rdi
 3748 192c E8000000 		call	_ZN8UnitTest20DeferredTestReporter13ReportFailureERKNS_11TestDetailsEPKc
 3748      00
  90:TestDeferredTestReporter.cpp ****     reporter.ReportFailure(details, failure2);
 3749              		.loc 3 90 0
 3750 1931 488B55C0 		movq	-64(%rbp), %rdx
 3751 1935 488B45A8 		movq	-88(%rbp), %rax
 3752 1939 488D4840 		leaq	64(%rax), %rcx
 3753 193d 488B45A8 		movq	-88(%rbp), %rax
 3754 1941 4889CE   		movq	%rcx, %rsi
 3755 1944 4889C7   		movq	%rax, %rdi
 3756 1947 E8000000 		call	_ZN8UnitTest20DeferredTestReporter13ReportFailureERKNS_11TestDetailsEPKc
 3756      00
  91:TestDeferredTestReporter.cpp **** 
  92:TestDeferredTestReporter.cpp ****     DeferredTestResult const& result = reporter.GetResults().at(0);
 3757              		.loc 3 92 0
 3758 194c 488B45A8 		movq	-88(%rbp), %rax
 3759 1950 4889C7   		movq	%rax, %rdi
 3760 1953 E8000000 		call	_ZN8UnitTest20DeferredTestReporter10GetResultsEv
 3760      00
 3761 1958 BE000000 		movl	$0, %esi
 3761      00
 3762 195d 4889C7   		movq	%rax, %rdi
 3763 1960 E8000000 		call	_ZNSt6vectorIN8UnitTest18DeferredTestResultESaIS1_EE2atEm
 3763      00
 3764              	.LEHE108:
 3765 1965 488945C8 		movq	%rax, -56(%rbp)
 3766              	.LEHB109:
  93:TestDeferredTestReporter.cpp ****     CHECK_EQUAL(2, (int)result.failures.size());
 3767              		.loc 3 93 0
 3768 1969 E8000000 		call	_ZN8UnitTest11CurrentTest7DetailsEv
 3768      00
 3769 196e 488B08   		movq	(%rax), %rcx
 3770 1971 488D45D0 		leaq	-48(%rbp), %rax
 3771 1975 BA5D0000 		movl	$93, %edx
 3771      00
 3772 197a 4889CE   		movq	%rcx, %rsi
 3773 197d 4889C7   		movq	%rax, %rdi
 3774 1980 E8000000 		call	_ZN8UnitTest11TestDetailsC1ERKS0_i
 3774      00
 3775              		.loc 3 93 0 is_stmt 0 discriminator 1
 3776 1985 488B45C8 		movq	-56(%rbp), %rax
 3777 1989 4883C018 		addq	$24, %rax
 3778 198d 4889C7   		movq	%rax, %rdi
 3779 1990 E8000000 		call	_ZNKSt6vectorISt4pairIiSsESaIS1_EE4sizeEv
 3779      00
 3780 1995 8945B4   		movl	%eax, -76(%rbp)
 3781 1998 C745B002 		movl	$2, -80(%rbp)
 3781      000000
 3782 199f E8000000 		call	_ZN8UnitTest11CurrentTest7ResultsEv
 3782      00
 3783 19a4 488B00   		movq	(%rax), %rax
 3784 19a7 488D4DD0 		leaq	-48(%rbp), %rcx
 3785 19ab 488D55B4 		leaq	-76(%rbp), %rdx
 3786 19af 488D75B0 		leaq	-80(%rbp), %rsi
 3787 19b3 4889C7   		movq	%rax, %rdi
 3788 19b6 E8000000 		call	_ZN8UnitTest10CheckEqualIiiEEvRNS_11TestResultsERKT_RKT0_RKNS_11TestDetailsE
 3788      00
 3789              	.LEHE109:
 3790              	.L212:
 3791              	.LEHB110:
  94:TestDeferredTestReporter.cpp ****     CHECK_EQUAL(failure1, result.failures[0].second);
 3792              		.loc 3 94 0 is_stmt 1
 3793 19bb E8000000 		call	_ZN8UnitTest11CurrentTest7DetailsEv
 3793      00
 3794 19c0 488B08   		movq	(%rax), %rcx
 3795 19c3 488D45D0 		leaq	-48(%rbp), %rax
 3796 19c7 BA5E0000 		movl	$94, %edx
 3796      00
 3797 19cc 4889CE   		movq	%rcx, %rsi
 3798 19cf 4889C7   		movq	%rax, %rdi
 3799 19d2 E8000000 		call	_ZN8UnitTest11TestDetailsC1ERKS0_i
 3799      00
 3800              		.loc 3 94 0 is_stmt 0 discriminator 1
 3801 19d7 488B45C8 		movq	-56(%rbp), %rax
 3802 19db 4883C018 		addq	$24, %rax
 3803 19df BE000000 		movl	$0, %esi
 3803      00
 3804 19e4 4889C7   		movq	%rax, %rdi
 3805 19e7 E8000000 		call	_ZNKSt6vectorISt4pairIiSsESaIS1_EEixEm
 3805      00
 3806 19ec 488D5808 		leaq	8(%rax), %rbx
 3807 19f0 E8000000 		call	_ZN8UnitTest11CurrentTest7ResultsEv
 3807      00
 3808 19f5 488B00   		movq	(%rax), %rax
 3809 19f8 488D55D0 		leaq	-48(%rbp), %rdx
 3810 19fc 488D75B8 		leaq	-72(%rbp), %rsi
 3811 1a00 4889D1   		movq	%rdx, %rcx
 3812 1a03 4889DA   		movq	%rbx, %rdx
 3813 1a06 4889C7   		movq	%rax, %rdi
 3814 1a09 E8000000 		call	_ZN8UnitTest10CheckEqualIPKcSsEEvRNS_11TestResultsERKT_RKT0_RKNS_11TestDetailsE
 3814      00
 3815              	.LEHE110:
 3816              	.L215:
 3817              	.LEHB111:
  95:TestDeferredTestReporter.cpp ****     CHECK_EQUAL(failure2, result.failures[1].second);
 3818              		.loc 3 95 0 is_stmt 1
 3819 1a0e E8000000 		call	_ZN8UnitTest11CurrentTest7DetailsEv
 3819      00
 3820 1a13 488B08   		movq	(%rax), %rcx
 3821 1a16 488D45D0 		leaq	-48(%rbp), %rax
 3822 1a1a BA5F0000 		movl	$95, %edx
 3822      00
 3823 1a1f 4889CE   		movq	%rcx, %rsi
 3824 1a22 4889C7   		movq	%rax, %rdi
 3825 1a25 E8000000 		call	_ZN8UnitTest11TestDetailsC1ERKS0_i
 3825      00
 3826              		.loc 3 95 0 is_stmt 0 discriminator 1
 3827 1a2a 488B45C8 		movq	-56(%rbp), %rax
 3828 1a2e 4883C018 		addq	$24, %rax
 3829 1a32 BE010000 		movl	$1, %esi
 3829      00
 3830 1a37 4889C7   		movq	%rax, %rdi
 3831 1a3a E8000000 		call	_ZNKSt6vectorISt4pairIiSsESaIS1_EEixEm
 3831      00
 3832 1a3f 488D5808 		leaq	8(%rax), %rbx
 3833 1a43 E8000000 		call	_ZN8UnitTest11CurrentTest7ResultsEv
 3833      00
 3834 1a48 488B00   		movq	(%rax), %rax
 3835 1a4b 488D55D0 		leaq	-48(%rbp), %rdx
 3836 1a4f 488D75C0 		leaq	-64(%rbp), %rsi
 3837 1a53 4889D1   		movq	%rdx, %rcx
 3838 1a56 4889DA   		movq	%rbx, %rdx
 3839 1a59 4889C7   		movq	%rax, %rdi
 3840 1a5c E8000000 		call	_ZN8UnitTest10CheckEqualIPKcSsEEvRNS_11TestResultsERKT_RKT0_RKNS_11TestDetailsE
 3840      00
 3841              	.LEHE111:
 3842              	.LBE94:
  96:TestDeferredTestReporter.cpp **** }
 3843              		.loc 3 96 0 is_stmt 1
 3844 1a61 E9120100 		jmp	.L225
 3844      00
 3845              	.L220:
 3846 1a66 4889C3   		movq	%rax, %rbx
 3847              	.LBB95:
  93:TestDeferredTestReporter.cpp ****     CHECK_EQUAL(failure1, result.failures[0].second);
 3848              		.loc 3 93 0
 3849 1a69 E8000000 		call	__cxa_end_catch
 3849      00
 3850 1a6e 4889D8   		movq	%rbx, %rax
 3851 1a71 4889C7   		movq	%rax, %rdi
 3852              	.LEHB112:
 3853 1a74 E8000000 		call	_Unwind_Resume
 3853      00
 3854              	.LEHE112:
 3855              	.L219:
 3856 1a79 4889C7   		movq	%rax, %rdi
 3857 1a7c E8000000 		call	__cxa_begin_catch
 3857      00
 3858              	.LEHB113:
 3859 1a81 E8000000 		call	_ZN8UnitTest11CurrentTest7DetailsEv
 3859      00
 3860 1a86 488B08   		movq	(%rax), %rcx
 3861 1a89 488D45D0 		leaq	-48(%rbp), %rax
 3862 1a8d BA5D0000 		movl	$93, %edx
 3862      00
 3863 1a92 4889CE   		movq	%rcx, %rsi
 3864 1a95 4889C7   		movq	%rax, %rdi
 3865 1a98 E8000000 		call	_ZN8UnitTest11TestDetailsC1ERKS0_i
 3865      00
  93:TestDeferredTestReporter.cpp ****     CHECK_EQUAL(failure1, result.failures[0].second);
 3866              		.loc 3 93 0 is_stmt 0 discriminator 1
 3867 1a9d E8000000 		call	_ZN8UnitTest11CurrentTest7ResultsEv
 3867      00
 3868 1aa2 488B00   		movq	(%rax), %rax
 3869 1aa5 488D4DD0 		leaq	-48(%rbp), %rcx
 3870 1aa9 BA000000 		movl	$.LC25, %edx
 3870      00
 3871 1aae 4889CE   		movq	%rcx, %rsi
 3872 1ab1 4889C7   		movq	%rax, %rdi
 3873 1ab4 E8000000 		call	_ZN8UnitTest11TestResults13OnTestFailureERKNS_11TestDetailsEPKc
 3873      00
 3874              	.LEHE113:
 3875              	.LEHB114:
 3876 1ab9 E8000000 		call	__cxa_end_catch
 3876      00
 3877              	.LEHE114:
 3878 1abe E9F8FEFF 		jmp	.L212
 3878      FF
 3879              	.L222:
 3880 1ac3 4889C3   		movq	%rax, %rbx
  94:TestDeferredTestReporter.cpp ****     CHECK_EQUAL(failure2, result.failures[1].second);
 3881              		.loc 3 94 0 is_stmt 1
 3882 1ac6 E8000000 		call	__cxa_end_catch
 3882      00
 3883 1acb 4889D8   		movq	%rbx, %rax
 3884 1ace 4889C7   		movq	%rax, %rdi
 3885              	.LEHB115:
 3886 1ad1 E8000000 		call	_Unwind_Resume
 3886      00
 3887              	.LEHE115:
 3888              	.L221:
 3889 1ad6 4889C7   		movq	%rax, %rdi
 3890 1ad9 E8000000 		call	__cxa_begin_catch
 3890      00
 3891              	.LEHB116:
 3892 1ade E8000000 		call	_ZN8UnitTest11CurrentTest7DetailsEv
 3892      00
 3893 1ae3 488B08   		movq	(%rax), %rcx
 3894 1ae6 488D45D0 		leaq	-48(%rbp), %rax
 3895 1aea BA5E0000 		movl	$94, %edx
 3895      00
 3896 1aef 4889CE   		movq	%rcx, %rsi
 3897 1af2 4889C7   		movq	%rax, %rdi
 3898 1af5 E8000000 		call	_ZN8UnitTest11TestDetailsC1ERKS0_i
 3898      00
  94:TestDeferredTestReporter.cpp ****     CHECK_EQUAL(failure2, result.failures[1].second);
 3899              		.loc 3 94 0 is_stmt 0 discriminator 1
 3900 1afa E8000000 		call	_ZN8UnitTest11CurrentTest7ResultsEv
 3900      00
 3901 1aff 488B00   		movq	(%rax), %rax
 3902 1b02 488D4DD0 		leaq	-48(%rbp), %rcx
 3903 1b06 BA000000 		movl	$.LC26, %edx
 3903      00
 3904 1b0b 4889CE   		movq	%rcx, %rsi
 3905 1b0e 4889C7   		movq	%rax, %rdi
 3906 1b11 E8000000 		call	_ZN8UnitTest11TestResults13OnTestFailureERKNS_11TestDetailsEPKc
 3906      00
 3907              	.LEHE116:
 3908              	.LEHB117:
 3909 1b16 E8000000 		call	__cxa_end_catch
 3909      00
 3910              	.LEHE117:
 3911 1b1b E9EEFEFF 		jmp	.L215
 3911      FF
 3912              	.L224:
 3913 1b20 4889C3   		movq	%rax, %rbx
  95:TestDeferredTestReporter.cpp **** }
 3914              		.loc 3 95 0 is_stmt 1
 3915 1b23 E8000000 		call	__cxa_end_catch
 3915      00
 3916 1b28 4889D8   		movq	%rbx, %rax
 3917 1b2b 4889C7   		movq	%rax, %rdi
 3918              	.LEHB118:
 3919 1b2e E8000000 		call	_Unwind_Resume
 3919      00
 3920              	.LEHE118:
 3921              	.L223:
 3922 1b33 4889C7   		movq	%rax, %rdi
 3923 1b36 E8000000 		call	__cxa_begin_catch
 3923      00
 3924              	.LEHB119:
 3925 1b3b E8000000 		call	_ZN8UnitTest11CurrentTest7DetailsEv
 3925      00
 3926 1b40 488B08   		movq	(%rax), %rcx
 3927 1b43 488D45D0 		leaq	-48(%rbp), %rax
 3928 1b47 BA5F0000 		movl	$95, %edx
 3928      00
 3929 1b4c 4889CE   		movq	%rcx, %rsi
 3930 1b4f 4889C7   		movq	%rax, %rdi
 3931 1b52 E8000000 		call	_ZN8UnitTest11TestDetailsC1ERKS0_i
 3931      00
  95:TestDeferredTestReporter.cpp **** }
 3932              		.loc 3 95 0 is_stmt 0 discriminator 1
 3933 1b57 E8000000 		call	_ZN8UnitTest11CurrentTest7ResultsEv
 3933      00
 3934 1b5c 488B00   		movq	(%rax), %rax
 3935 1b5f 488D4DD0 		leaq	-48(%rbp), %rcx
 3936 1b63 BA000000 		movl	$.LC27, %edx
 3936      00
 3937 1b68 4889CE   		movq	%rcx, %rsi
 3938 1b6b 4889C7   		movq	%rax, %rdi
 3939 1b6e E8000000 		call	_ZN8UnitTest11TestResults13OnTestFailureERKNS_11TestDetailsEPKc
 3939      00
 3940              	.LEHE119:
 3941              	.LEHB120:
 3942 1b73 E8000000 		call	__cxa_end_catch
 3942      00
 3943              	.LEHE120:
 3944              	.L225:
 3945              	.LBE95:
 3946              		.loc 3 96 0 is_stmt 1
 3947 1b78 90       		nop
 3948 1b79 4883C458 		addq	$88, %rsp
 3949 1b7d 5B       		popq	%rbx
 3950 1b7e 5D       		popq	%rbp
 3951              		.cfi_def_cfa 7, 8
 3952 1b7f C3       		ret
 3953              		.cfi_endproc
 3954              	.LFE1354:
 3955              		.section	.gcc_except_table
 3956              		.align 4
 3957              	.LLSDA1354:
 3958 02c8 FF       		.byte	0xff
 3959 02c9 03       		.byte	0x3
 3960 02ca 51       		.uleb128 .LLSDATT1354-.LLSDATTD1354
 3961              	.LLSDATTD1354:
 3962 02cb 01       		.byte	0x1
 3963 02cc 46       		.uleb128 .LLSDACSE1354-.LLSDACSB1354
 3964              	.LLSDACSB1354:
 3965 02cd 2F       		.uleb128 .LEHB108-.LFB1354
 3966 02ce 54       		.uleb128 .LEHE108-.LEHB108
 3967 02cf 00       		.uleb128 0
 3968 02d0 00       		.uleb128 0
 3969 02d1 8701     		.uleb128 .LEHB109-.LFB1354
 3970 02d3 52       		.uleb128 .LEHE109-.LEHB109
 3971 02d4 9703     		.uleb128 .L219-.LFB1354
 3972 02d6 01       		.uleb128 0x1
 3973 02d7 D901     		.uleb128 .LEHB110-.LFB1354
 3974 02d9 53       		.uleb128 .LEHE110-.LEHB110
 3975 02da F403     		.uleb128 .L221-.LFB1354
 3976 02dc 01       		.uleb128 0x1
 3977 02dd AC02     		.uleb128 .LEHB111-.LFB1354
 3978 02df 53       		.uleb128 .LEHE111-.LEHB111
 3979 02e0 D104     		.uleb128 .L223-.LFB1354
 3980 02e2 01       		.uleb128 0x1
 3981 02e3 9203     		.uleb128 .LEHB112-.LFB1354
 3982 02e5 05       		.uleb128 .LEHE112-.LEHB112
 3983 02e6 00       		.uleb128 0
 3984 02e7 00       		.uleb128 0
 3985 02e8 9F03     		.uleb128 .LEHB113-.LFB1354
 3986 02ea 38       		.uleb128 .LEHE113-.LEHB113
 3987 02eb 8403     		.uleb128 .L220-.LFB1354
 3988 02ed 00       		.uleb128 0
 3989 02ee D703     		.uleb128 .LEHB114-.LFB1354
 3990 02f0 05       		.uleb128 .LEHE114-.LEHB114
 3991 02f1 00       		.uleb128 0
 3992 02f2 00       		.uleb128 0
 3993 02f3 EF03     		.uleb128 .LEHB115-.LFB1354
 3994 02f5 05       		.uleb128 .LEHE115-.LEHB115
 3995 02f6 00       		.uleb128 0
 3996 02f7 00       		.uleb128 0
 3997 02f8 FC03     		.uleb128 .LEHB116-.LFB1354
 3998 02fa 38       		.uleb128 .LEHE116-.LEHB116
 3999 02fb E103     		.uleb128 .L222-.LFB1354
 4000 02fd 00       		.uleb128 0
 4001 02fe B404     		.uleb128 .LEHB117-.LFB1354
 4002 0300 05       		.uleb128 .LEHE117-.LEHB117
 4003 0301 00       		.uleb128 0
 4004 0302 00       		.uleb128 0
 4005 0303 CC04     		.uleb128 .LEHB118-.LFB1354
 4006 0305 05       		.uleb128 .LEHE118-.LEHB118
 4007 0306 00       		.uleb128 0
 4008 0307 00       		.uleb128 0
 4009 0308 D904     		.uleb128 .LEHB119-.LFB1354
 4010 030a 38       		.uleb128 .LEHE119-.LEHB119
 4011 030b BE04     		.uleb128 .L224-.LFB1354
 4012 030d 00       		.uleb128 0
 4013 030e 9105     		.uleb128 .LEHB120-.LFB1354
 4014 0310 05       		.uleb128 .LEHE120-.LEHB120
 4015 0311 00       		.uleb128 0
 4016 0312 00       		.uleb128 0
 4017              	.LLSDACSE1354:
 4018 0313 01       		.byte	0x1
 4019 0314 00       		.byte	0
 4020 0315 000000   		.align 4
 4021 0318 00000000 		.long	0
 4022              	
 4023              	.LLSDATT1354:
 4024              		.text
 4026              		.align 2
 4028              	_ZN8UnitTest12_GLOBAL__N_178DeferredTestReporterFixtureDeferredTestReporterTakesCopyOfFailureMessag
 4029              	.LFB1356:
  97:TestDeferredTestReporter.cpp **** 
  98:TestDeferredTestReporter.cpp **** TEST_FIXTURE(DeferredTestReporterFixture, DeferredTestReporterTakesCopyOfFailureMessage)
 4030              		.loc 3 98 0
 4031              		.cfi_startproc
 4032 1b80 55       		pushq	%rbp
 4033              		.cfi_def_cfa_offset 16
 4034              		.cfi_offset 6, -16
 4035 1b81 4889E5   		movq	%rsp, %rbp
 4036              		.cfi_def_cfa_register 6
 4037 1b84 4883EC10 		subq	$16, %rsp
 4038 1b88 48897DF8 		movq	%rdi, -8(%rbp)
 4039 1b8c 488975F0 		movq	%rsi, -16(%rbp)
 4040              	.LBB96:
 4041              		.loc 3 98 0
 4042 1b90 488B45F8 		movq	-8(%rbp), %rax
 4043 1b94 4889C7   		movq	%rax, %rdi
 4044 1b97 E8A2E4FF 		call	_ZN8UnitTest12_GLOBAL__N_127DeferredTestReporterFixtureC2Ev
 4044      FF
 4045 1b9c 488B45F8 		movq	-8(%rbp), %rax
 4046 1ba0 488B55F0 		movq	-16(%rbp), %rdx
 4047 1ba4 48895060 		movq	%rdx, 96(%rax)
 4048              	.LBE96:
 4049 1ba8 C9       		leave
 4050              		.cfi_def_cfa 7, 8
 4051 1ba9 C3       		ret
 4052              		.cfi_endproc
 4053              	.LFE1356:
 4055              		.set	_ZN8UnitTest12_GLOBAL__N_178DeferredTestReporterFixtureDeferredTestReporterTakesCopyOfFailure
 4056              		.section	.rodata
 4057              		.align 8
 4058              	.LC28:
 4059 0488 44656665 		.string	"DeferredTestReporterTakesCopyOfFailureMessage"
 4059      72726564 
 4059      54657374 
 4059      5265706F 
 4059      72746572 
 4060              		.text
 4061              		.align 2
 4063              	_ZN8UnitTest12_GLOBAL__N_176TestDeferredTestReporterFixtureDeferredTestReporterTakesCopyOfFailureMe
 4064              	.LFB1359:
 4065              		.loc 3 98 0
 4066              		.cfi_startproc
 4067 1baa 55       		pushq	%rbp
 4068              		.cfi_def_cfa_offset 16
 4069              		.cfi_offset 6, -16
 4070 1bab 4889E5   		movq	%rsp, %rbp
 4071              		.cfi_def_cfa_register 6
 4072 1bae 4883EC10 		subq	$16, %rsp
 4073 1bb2 48897DF8 		movq	%rdi, -8(%rbp)
 4074              	.LBB97:
 4075              		.loc 3 98 0
 4076 1bb6 E8000000 		call	_ZN13UnitTestSuite12GetSuiteNameEv
 4076      00
 4077 1bbb 4889C2   		movq	%rax, %rdx
 4078 1bbe 488B45F8 		movq	-8(%rbp), %rax
 4079 1bc2 41B86200 		movl	$98, %r8d
 4079      0000
 4080 1bc8 B9000000 		movl	$.LC4, %ecx
 4080      00
 4081 1bcd BE000000 		movl	$.LC28, %esi
 4081      00
 4082 1bd2 4889C7   		movq	%rax, %rdi
 4083 1bd5 E8000000 		call	_ZN8UnitTest4TestC2EPKcS2_S2_i
 4083      00
 4084 1bda 488B45F8 		movq	-8(%rbp), %rax
 4085 1bde 48C70000 		movq	$_ZTVN8UnitTest12_GLOBAL__N_176TestDeferredTestReporterFixtureDeferredTestReporterTakesCopyOf
 4085      000000
 4086              	.LBE97:
 4087 1be5 C9       		leave
 4088              		.cfi_def_cfa 7, 8
 4089 1be6 C3       		ret
 4090              		.cfi_endproc
 4091              	.LFE1359:
 4093              		.set	_ZN8UnitTest12_GLOBAL__N_176TestDeferredTestReporterFixtureDeferredTestReporterTakesCopyOfFai
 4094              		.local	_ZN8UnitTest12_GLOBAL__N_184testDeferredTestReporterFixtureDeferredTestReporterTakesCopyOfF
 4095              		.comm	_ZN8UnitTest12_GLOBAL__N_184testDeferredTestReporterFixtureDeferredTestReporterTakesCopyOfFa
 4096              		.local	_ZN8UnitTest12_GLOBAL__N_177adderDeferredTestReporterFixtureDeferredTestReporterTakesCopyOf
 4097              		.comm	_ZN8UnitTest12_GLOBAL__N_177adderDeferredTestReporterFixtureDeferredTestReporterTakesCopyOfF
 4098 1be7 90       		.align 2
 4100              	_ZN8UnitTest12_GLOBAL__N_178DeferredTestReporterFixtureDeferredTestReporterTakesCopyOfFailureMessag
 4101              	.LFB1363:
 4102              		.loc 3 98 0
 4103              		.cfi_startproc
 4104 1be8 55       		pushq	%rbp
 4105              		.cfi_def_cfa_offset 16
 4106              		.cfi_offset 6, -16
 4107 1be9 4889E5   		movq	%rsp, %rbp
 4108              		.cfi_def_cfa_register 6
 4109 1bec 4883EC10 		subq	$16, %rsp
 4110 1bf0 48897DF8 		movq	%rdi, -8(%rbp)
 4111              	.LBB98:
 4112              		.loc 3 98 0
 4113 1bf4 488B45F8 		movq	-8(%rbp), %rax
 4114 1bf8 4889C7   		movq	%rax, %rdi
 4115 1bfb E8E4E5FF 		call	_ZN8UnitTest12_GLOBAL__N_127DeferredTestReporterFixtureD2Ev
 4115      FF
 4116              	.LBE98:
 4117 1c00 C9       		leave
 4118              		.cfi_def_cfa 7, 8
 4119 1c01 C3       		ret
 4120              		.cfi_endproc
 4121              	.LFE1363:
 4123              		.set	_ZN8UnitTest12_GLOBAL__N_178DeferredTestReporterFixtureDeferredTestReporterTakesCopyOfFailure
 4124              		.align 2
 4126              	_ZNK8UnitTest12_GLOBAL__N_176TestDeferredTestReporterFixtureDeferredTestReporterTakesCopyOfFailureM
 4127              	.LFB1361:
 4128              		.loc 3 98 0
 4129              		.cfi_startproc
 4130              		.cfi_personality 0x3,__gxx_personality_v0
 4131              		.cfi_lsda 0x3,.LLSDA1361
 4132 1c02 55       		pushq	%rbp
 4133              		.cfi_def_cfa_offset 16
 4134              		.cfi_offset 6, -16
 4135 1c03 4889E5   		movq	%rsp, %rbp
 4136              		.cfi_def_cfa_register 6
 4137 1c06 4154     		pushq	%r12
 4138 1c08 53       		pushq	%rbx
 4139 1c09 4881ECA0 		subq	$416, %rsp
 4139      010000
 4140              		.cfi_offset 12, -24
 4141              		.cfi_offset 3, -32
 4142 1c10 4889BD58 		movq	%rdi, -424(%rbp)
 4142      FEFFFF
 4143              	.LBB99:
 4144              		.loc 3 98 0
 4145 1c17 C6856FFE 		movb	$0, -401(%rbp)
 4145      FFFF00
 4146              	.LBB100:
 4147 1c1e 488B8558 		movq	-424(%rbp), %rax
 4147      FEFFFF
 4148 1c25 488D5008 		leaq	8(%rax), %rdx
 4149 1c29 488D8580 		leaq	-384(%rbp), %rax
 4149      FEFFFF
 4150 1c30 4889D6   		movq	%rdx, %rsi
 4151 1c33 4889C7   		movq	%rax, %rdi
 4152              	.LEHB121:
 4153 1c36 E845FFFF 		call	_ZN8UnitTest12_GLOBAL__N_178DeferredTestReporterFixtureDeferredTestReporterTakesCopyOfFailure
 4153      FF
 4154              	.LEHE121:
 4155              		.loc 3 98 0 is_stmt 0 discriminator 1
 4156 1c3b C6856FFE 		movb	$1, -401(%rbp)
 4156      FFFF01
 4157 1c42 488B8558 		movq	-424(%rbp), %rax
 4157      FEFFFF
 4158 1c49 488D5008 		leaq	8(%rax), %rdx
 4159 1c4d 488D8580 		leaq	-384(%rbp), %rax
 4159      FEFFFF
 4160 1c54 4889D6   		movq	%rdx, %rsi
 4161 1c57 4889C7   		movq	%rax, %rdi
 4162              	.LEHB122:
 4163 1c5a E8371100 		call	_ZN8UnitTest11ExecuteTestINS_12_GLOBAL__N_178DeferredTestReporterFixtureDeferredTestReporterT
 4163      00
 4164              	.LEHE122:
 4165 1c5f 488D8580 		leaq	-384(%rbp), %rax
 4165      FEFFFF
 4166 1c66 4889C7   		movq	%rax, %rdi
 4167              	.LEHB123:
 4168 1c69 E87AFFFF 		call	_ZN8UnitTest12_GLOBAL__N_178DeferredTestReporterFixtureDeferredTestReporterTakesCopyOfFailure
 4168      FF
 4169              	.LEHE123:
 4170              	.LBE100:
 4171              	.LBE99:
 4172              		.loc 3 98 0
 4173 1c6e E9640200 		jmp	.L250
 4173      00
 4174              	.L244:
 4175 1c73 4989C4   		movq	%rax, %r12
 4176 1c76 4889D3   		movq	%rdx, %rbx
 4177              	.LBB108:
 4178              	.LBB101:
 4179 1c79 488D8580 		leaq	-384(%rbp), %rax
 4179      FEFFFF
 4180 1c80 4889C7   		movq	%rax, %rdi
 4181 1c83 E860FFFF 		call	_ZN8UnitTest12_GLOBAL__N_178DeferredTestReporterFixtureDeferredTestReporterTakesCopyOfFailure
 4181      FF
 4182 1c88 4C89E0   		movq	%r12, %rax
 4183 1c8b 4889DA   		movq	%rbx, %rdx
 4184 1c8e EB00     		jmp	.L232
 4185              	.L243:
 4186              	.L232:
 4187 1c90 4883FA01 		cmpq	$1, %rdx
 4188 1c94 745C     		je	.L234
 4189 1c96 4883FA02 		cmpq	$2, %rdx
 4190 1c9a 0F84F400 		je	.L235
 4190      0000
 4191 1ca0 E9980100 		jmp	.L249
 4191      00
 4192              	.L245:
 4193 1ca5 4889C3   		movq	%rax, %rbx
 4194              	.LBE101:
 4195              	.LBB102:
 4196 1ca8 E8000000 		call	__cxa_end_catch
 4196      00
 4197 1cad 4889D8   		movq	%rbx, %rax
 4198 1cb0 4889C7   		movq	%rax, %rdi
 4199              	.LEHB124:
 4200 1cb3 E8000000 		call	_Unwind_Resume
 4200      00
 4201              	.LEHE124:
 4202              	.L246:
 4203 1cb8 4889C3   		movq	%rax, %rbx
 4204              	.LBE102:
 4205              	.LBB103:
 4206              	.LBB104:
 4207 1cbb 488D8580 		leaq	-384(%rbp), %rax
 4207      FEFFFF
 4208 1cc2 4889C7   		movq	%rax, %rdi
 4209 1cc5 E8000000 		call	_ZN8UnitTest15MemoryOutStreamD1Ev
 4209      00
 4210 1cca EB03     		jmp	.L238
 4211              	.L247:
 4212 1ccc 4889C3   		movq	%rax, %rbx
 4213              	.L238:
 4214              	.LBE104:
 4215 1ccf E8000000 		call	__cxa_end_catch
 4215      00
 4216 1cd4 4889D8   		movq	%rbx, %rax
 4217 1cd7 4889C7   		movq	%rax, %rdi
 4218              	.LEHB125:
 4219 1cda E8000000 		call	_Unwind_Resume
 4219      00
 4220              	.LEHE125:
 4221              	.L248:
 4222 1cdf 4889C3   		movq	%rax, %rbx
 4223              	.LBE103:
 4224 1ce2 E8000000 		call	__cxa_end_catch
 4224      00
 4225 1ce7 4889D8   		movq	%rbx, %rax
 4226 1cea 4889C7   		movq	%rax, %rdi
 4227              	.LEHB126:
 4228 1ced E8000000 		call	_Unwind_Resume
 4228      00
 4229              	.LEHE126:
 4230              	.L234:
 4231              	.LBB106:
 4232 1cf2 4889C7   		movq	%rax, %rdi
 4233 1cf5 E8000000 		call	__cxa_begin_catch
 4233      00
 4234 1cfa 48898570 		movq	%rax, -400(%rbp)
 4234      FEFFFF
 4235 1d01 488B8570 		movq	-400(%rbp), %rax
 4235      FEFFFF
 4236 1d08 488B00   		movq	(%rax), %rax
 4237 1d0b 4883C010 		addq	$16, %rax
 4238 1d0f 488B00   		movq	(%rax), %rax
 4239 1d12 488B9570 		movq	-400(%rbp), %rdx
 4239      FEFFFF
 4240 1d19 4889D7   		movq	%rdx, %rdi
 4241 1d1c FFD0     		call	*%rax
 4242 1d1e 4889C3   		movq	%rax, %rbx
 4243 1d21 488B8570 		movq	-400(%rbp), %rax
 4243      FEFFFF
 4244 1d28 4889C7   		movq	%rax, %rdi
 4245              	.LEHB127:
 4246 1d2b E8000000 		call	_ZNK8UnitTest15AssertException10LineNumberEv
 4246      00
 4247 1d30 4189C4   		movl	%eax, %r12d
 4248 1d33 488B8570 		movq	-400(%rbp), %rax
 4248      FEFFFF
 4249 1d3a 4889C7   		movq	%rax, %rdi
 4250 1d3d E8000000 		call	_ZNK8UnitTest15AssertException8FilenameEv
 4250      00
 4251              		.loc 3 98 0 discriminator 1
 4252 1d42 4889C1   		movq	%rax, %rcx
 4253 1d45 488B8558 		movq	-424(%rbp), %rax
 4253      FEFFFF
 4254 1d4c 488B5008 		movq	8(%rax), %rdx
 4255 1d50 488B8558 		movq	-424(%rbp), %rax
 4255      FEFFFF
 4256 1d57 488B7010 		movq	16(%rax), %rsi
 4257 1d5b 488D8580 		leaq	-384(%rbp), %rax
 4257      FEFFFF
 4258 1d62 4589E0   		movl	%r12d, %r8d
 4259 1d65 4889C7   		movq	%rax, %rdi
 4260 1d68 E8000000 		call	_ZN8UnitTest11TestDetailsC1EPKcS2_S2_i
 4260      00
 4261              		.loc 3 98 0 discriminator 3
 4262 1d6d E8000000 		call	_ZN8UnitTest11CurrentTest7ResultsEv
 4262      00
 4263 1d72 488B00   		movq	(%rax), %rax
 4264 1d75 488D8D80 		leaq	-384(%rbp), %rcx
 4264      FEFFFF
 4265 1d7c 4889DA   		movq	%rbx, %rdx
 4266 1d7f 4889CE   		movq	%rcx, %rsi
 4267 1d82 4889C7   		movq	%rax, %rdi
 4268 1d85 E8000000 		call	_ZN8UnitTest11TestResults13OnTestFailureERKNS_11TestDetailsEPKc
 4268      00
 4269              	.LEHE127:
 4270              		.loc 3 98 0 discriminator 1
 4271 1d8a E8000000 		call	__cxa_end_catch
 4271      00
 4272              	.LBE106:
 4273              	.LBE108:
 4274 1d8f E9430100 		jmp	.L250
 4274      00
 4275              	.L235:
 4276              	.LBB109:
 4277              	.LBB107:
 4278              		.loc 3 98 0
 4279 1d94 4889C7   		movq	%rax, %rdi
 4280 1d97 E8000000 		call	__cxa_begin_catch
 4280      00
 4281 1d9c 48898578 		movq	%rax, -392(%rbp)
 4281      FEFFFF
 4282              	.LBB105:
 4283 1da3 488D8580 		leaq	-384(%rbp), %rax
 4283      FEFFFF
 4284 1daa 4889C7   		movq	%rax, %rdi
 4285              	.LEHB128:
 4286 1dad E8000000 		call	_ZN8UnitTest15MemoryOutStreamC1Ev
 4286      00
 4287              	.LEHE128:
 4288              		.loc 3 98 0 discriminator 1
 4289 1db2 488B8578 		movq	-392(%rbp), %rax
 4289      FEFFFF
 4290 1db9 488B00   		movq	(%rax), %rax
 4291 1dbc 4883C010 		addq	$16, %rax
 4292 1dc0 488B00   		movq	(%rax), %rax
 4293 1dc3 488B9578 		movq	-392(%rbp), %rdx
 4293      FEFFFF
 4294 1dca 4889D7   		movq	%rdx, %rdi
 4295 1dcd FFD0     		call	*%rax
 4296 1dcf 4889C3   		movq	%rax, %rbx
 4297 1dd2 488D8580 		leaq	-384(%rbp), %rax
 4297      FEFFFF
 4298 1dd9 BE000000 		movl	$.LC6, %esi
 4298      00
 4299 1dde 4889C7   		movq	%rax, %rdi
 4300              	.LEHB129:
 4301 1de1 E8000000 		call	_ZStlsISt11char_traitsIcEERSt13basic_ostreamIcT_ES5_PKc
 4301      00
 4302 1de6 4889DE   		movq	%rbx, %rsi
 4303 1de9 4889C7   		movq	%rax, %rdi
 4304 1dec E8000000 		call	_ZStlsISt11char_traitsIcEERSt13basic_ostreamIcT_ES5_PKc
 4304      00
 4305 1df1 488D8580 		leaq	-384(%rbp), %rax
 4305      FEFFFF
 4306 1df8 4889C7   		movq	%rax, %rdi
 4307 1dfb E8000000 		call	_ZNK8UnitTest15MemoryOutStream7GetTextEv
 4307      00
 4308 1e00 4889C3   		movq	%rax, %rbx
 4309 1e03 488B8558 		movq	-424(%rbp), %rax
 4309      FEFFFF
 4310 1e0a 4C8D6008 		leaq	8(%rax), %r12
 4311 1e0e E8000000 		call	_ZN8UnitTest11CurrentTest7ResultsEv
 4311      00
 4312 1e13 488B00   		movq	(%rax), %rax
 4313 1e16 4889DA   		movq	%rbx, %rdx
 4314 1e19 4C89E6   		movq	%r12, %rsi
 4315 1e1c 4889C7   		movq	%rax, %rdi
 4316 1e1f E8000000 		call	_ZN8UnitTest11TestResults13OnTestFailureERKNS_11TestDetailsEPKc
 4316      00
 4317              	.LEHE129:
 4318 1e24 488D8580 		leaq	-384(%rbp), %rax
 4318      FEFFFF
 4319 1e2b 4889C7   		movq	%rax, %rdi
 4320              	.LEHB130:
 4321 1e2e E8000000 		call	_ZN8UnitTest15MemoryOutStreamD1Ev
 4321      00
 4322              	.LEHE130:
 4323              	.LBE105:
 4324              		.loc 3 98 0
 4325 1e33 E8000000 		call	__cxa_end_catch
 4325      00
 4326              	.LBE107:
 4327              	.LBE109:
 4328 1e38 E99A0000 		jmp	.L250
 4328      00
 4329              	.L249:
 4330              	.LBB110:
 4331 1e3d 4889C7   		movq	%rax, %rdi
 4332 1e40 E8000000 		call	__cxa_begin_catch
 4332      00
 4333 1e45 80BD6FFE 		cmpb	$0, -401(%rbp)
 4333      FFFF00
 4334 1e4c 7443     		je	.L241
 4335              		.loc 3 98 0 discriminator 1
 4336 1e4e 488B8558 		movq	-424(%rbp), %rax
 4336      FEFFFF
 4337 1e55 488D4808 		leaq	8(%rax), %rcx
 4338 1e59 488D8580 		leaq	-384(%rbp), %rax
 4338      FEFFFF
 4339 1e60 BA620000 		movl	$98, %edx
 4339      00
 4340 1e65 4889CE   		movq	%rcx, %rsi
 4341 1e68 4889C7   		movq	%rax, %rdi
 4342              	.LEHB131:
 4343 1e6b E8000000 		call	_ZN8UnitTest11TestDetailsC1ERKS0_i
 4343      00
 4344 1e70 E8000000 		call	_ZN8UnitTest11CurrentTest7ResultsEv
 4344      00
 4345 1e75 488B00   		movq	(%rax), %rax
 4346 1e78 488D8D80 		leaq	-384(%rbp), %rcx
 4346      FEFFFF
 4347 1e7f BA000000 		movl	$.LC7, %edx
 4347      00
 4348 1e84 4889CE   		movq	%rcx, %rsi
 4349 1e87 4889C7   		movq	%rax, %rdi
 4350 1e8a E8000000 		call	_ZN8UnitTest11TestResults13OnTestFailureERKNS_11TestDetailsEPKc
 4350      00
 4351 1e8f EB41     		jmp	.L242
 4352              	.L241:
 4353              		.loc 3 98 0 discriminator 2
 4354 1e91 488B8558 		movq	-424(%rbp), %rax
 4354      FEFFFF
 4355 1e98 488D4808 		leaq	8(%rax), %rcx
 4356 1e9c 488D8580 		leaq	-384(%rbp), %rax
 4356      FEFFFF
 4357 1ea3 BA620000 		movl	$98, %edx
 4357      00
 4358 1ea8 4889CE   		movq	%rcx, %rsi
 4359 1eab 4889C7   		movq	%rax, %rdi
 4360 1eae E8000000 		call	_ZN8UnitTest11TestDetailsC1ERKS0_i
 4360      00
 4361              		.loc 3 98 0 discriminator 1
 4362 1eb3 E8000000 		call	_ZN8UnitTest11CurrentTest7ResultsEv
 4362      00
 4363 1eb8 488B00   		movq	(%rax), %rax
 4364 1ebb 488D8D80 		leaq	-384(%rbp), %rcx
 4364      FEFFFF
 4365 1ec2 BA000000 		movl	$.LC8, %edx
 4365      00
 4366 1ec7 4889CE   		movq	%rcx, %rsi
 4367 1eca 4889C7   		movq	%rax, %rdi
 4368 1ecd E8000000 		call	_ZN8UnitTest11TestResults13OnTestFailureERKNS_11TestDetailsEPKc
 4368      00
 4369              	.LEHE131:
 4370              	.L242:
 4371              	.LEHB132:
 4372 1ed2 E8000000 		call	__cxa_end_catch
 4372      00
 4373              	.LEHE132:
 4374              	.L250:
 4375              	.LBE110:
 4376              		.loc 3 98 0
 4377 1ed7 90       		nop
 4378 1ed8 4881C4A0 		addq	$416, %rsp
 4378      010000
 4379 1edf 5B       		popq	%rbx
 4380 1ee0 415C     		popq	%r12
 4381 1ee2 5D       		popq	%rbp
 4382              		.cfi_def_cfa 7, 8
 4383 1ee3 C3       		ret
 4384              		.cfi_endproc
 4385              	.LFE1361:
 4386              		.section	.gcc_except_table
 4387              		.align 4
 4388              	.LLSDA1361:
 4389 031c FF       		.byte	0xff
 4390 031d 03       		.byte	0x3
 4391 031e 59       		.uleb128 .LLSDATT1361-.LLSDATTD1361
 4392              	.LLSDATTD1361:
 4393 031f 01       		.byte	0x1
 4394 0320 40       		.uleb128 .LLSDACSE1361-.LLSDACSB1361
 4395              	.LLSDACSB1361:
 4396 0321 34       		.uleb128 .LEHB121-.LFB1361
 4397 0322 05       		.uleb128 .LEHE121-.LEHB121
 4398 0323 8E01     		.uleb128 .L243-.LFB1361
 4399 0325 05       		.uleb128 0x5
 4400 0326 58       		.uleb128 .LEHB122-.LFB1361
 4401 0327 05       		.uleb128 .LEHE122-.LEHB122
 4402 0328 71       		.uleb128 .L244-.LFB1361
 4403 0329 07       		.uleb128 0x7
 4404 032a 67       		.uleb128 .LEHB123-.LFB1361
 4405 032b 05       		.uleb128 .LEHE123-.LEHB123
 4406 032c 8E01     		.uleb128 .L243-.LFB1361
 4407 032e 05       		.uleb128 0x5
 4408 032f B101     		.uleb128 .LEHB124-.LFB1361
 4409 0331 05       		.uleb128 .LEHE124-.LEHB124
 4410 0332 00       		.uleb128 0
 4411 0333 00       		.uleb128 0
 4412 0334 D801     		.uleb128 .LEHB125-.LFB1361
 4413 0336 05       		.uleb128 .LEHE125-.LEHB125
 4414 0337 00       		.uleb128 0
 4415 0338 00       		.uleb128 0
 4416 0339 EB01     		.uleb128 .LEHB126-.LFB1361
 4417 033b 05       		.uleb128 .LEHE126-.LEHB126
 4418 033c 00       		.uleb128 0
 4419 033d 00       		.uleb128 0
 4420 033e A902     		.uleb128 .LEHB127-.LFB1361
 4421 0340 5F       		.uleb128 .LEHE127-.LEHB127
 4422 0341 A301     		.uleb128 .L245-.LFB1361
 4423 0343 00       		.uleb128 0
 4424 0344 AB03     		.uleb128 .LEHB128-.LFB1361
 4425 0346 05       		.uleb128 .LEHE128-.LEHB128
 4426 0347 CA01     		.uleb128 .L247-.LFB1361
 4427 0349 00       		.uleb128 0
 4428 034a DF03     		.uleb128 .LEHB129-.LFB1361
 4429 034c 43       		.uleb128 .LEHE129-.LEHB129
 4430 034d B601     		.uleb128 .L246-.LFB1361
 4431 034f 00       		.uleb128 0
 4432 0350 AC04     		.uleb128 .LEHB130-.LFB1361
 4433 0352 05       		.uleb128 .LEHE130-.LEHB130
 4434 0353 CA01     		.uleb128 .L247-.LFB1361
 4435 0355 00       		.uleb128 0
 4436 0356 E904     		.uleb128 .LEHB131-.LFB1361
 4437 0358 67       		.uleb128 .LEHE131-.LEHB131
 4438 0359 DD01     		.uleb128 .L248-.LFB1361
 4439 035b 00       		.uleb128 0
 4440 035c D005     		.uleb128 .LEHB132-.LFB1361
 4441 035e 05       		.uleb128 .LEHE132-.LEHB132
 4442 035f 00       		.uleb128 0
 4443 0360 00       		.uleb128 0
 4444              	.LLSDACSE1361:
 4445 0361 03       		.byte	0x3
 4446 0362 00       		.byte	0
 4447 0363 02       		.byte	0x2
 4448 0364 7D       		.byte	0x7d
 4449 0365 01       		.byte	0x1
 4450 0366 7D       		.byte	0x7d
 4451 0367 00       		.byte	0
 4452 0368 7D       		.byte	0x7d
 4453 0369 000000   		.align 4
 4454 036c 00000000 		.long	0
 4455              	
 4456 0370 00000000 		.long	_ZTISt9exception
 4457 0374 00000000 		.long	_ZTIN8UnitTest15AssertExceptionE
 4458              	.LLSDATT1361:
 4459              		.text
 4461              		.section	.rodata
 4462              	.LC29:
 4463 04b6 5265616C 		.string	"Real failure message"
 4463      20666169 
 4463      6C757265 
 4463      206D6573 
 4463      73616765 
 4464              	.LC30:
 4465 04cb 426F6775 		.string	"Bogus failure message"
 4465      73206661 
 4465      696C7572 
 4465      65206D65 
 4465      73736167 
 4466 04e1 00000000 		.align 8
 4466      000000
 4467              	.LC31:
 4468 04e8 556E6861 		.string	"Unhandled exception in CHECK_EQUAL(goodStr, failure.second)"
 4468      6E646C65 
 4468      64206578 
 4468      63657074 
 4468      696F6E20 
 4469              		.text
 4470              		.align 2
 4472              	_ZN8UnitTest12_GLOBAL__N_178DeferredTestReporterFixtureDeferredTestReporterTakesCopyOfFailureMessag
 4473              	.LFB1365:
  99:TestDeferredTestReporter.cpp **** {
 4474              		.loc 3 99 0 is_stmt 1
 4475              		.cfi_startproc
 4476              		.cfi_personality 0x3,__gxx_personality_v0
 4477              		.cfi_lsda 0x3,.LLSDA1365
 4478 1ee4 55       		pushq	%rbp
 4479              		.cfi_def_cfa_offset 16
 4480              		.cfi_offset 6, -16
 4481 1ee5 4889E5   		movq	%rsp, %rbp
 4482              		.cfi_def_cfa_register 6
 4483 1ee8 53       		pushq	%rbx
 4484 1ee9 4881ECE8 		subq	$232, %rsp
 4484      000000
 4485              		.cfi_offset 3, -24
 4486 1ef0 4889BD18 		movq	%rdi, -232(%rbp)
 4486      FFFFFF
 4487              		.loc 3 99 0
 4488 1ef7 64488B04 		movq	%fs:40, %rax
 4488      25280000 
 4488      00
 4489 1f00 488945E8 		movq	%rax, -24(%rbp)
 4490 1f04 31C0     		xorl	%eax, %eax
 4491              	.LBB111:
 100:TestDeferredTestReporter.cpp ****     reporter.ReportTestStart(details);
 4492              		.loc 3 100 0
 4493 1f06 488B8518 		movq	-232(%rbp), %rax
 4493      FFFFFF
 4494 1f0d 488D5040 		leaq	64(%rax), %rdx
 4495 1f11 488B8518 		movq	-232(%rbp), %rax
 4495      FFFFFF
 4496 1f18 4889D6   		movq	%rdx, %rsi
 4497 1f1b 4889C7   		movq	%rax, %rdi
 4498              	.LEHB133:
 4499 1f1e E8000000 		call	_ZN8UnitTest20DeferredTestReporter15ReportTestStartERKNS_11TestDetailsE
 4499      00
 101:TestDeferredTestReporter.cpp **** 
 102:TestDeferredTestReporter.cpp ****     char failureMessage[128];
 103:TestDeferredTestReporter.cpp ****     char const* goodStr = "Real failure message";
 4500              		.loc 3 103 0
 4501 1f23 48C78520 		movq	$.LC29, -224(%rbp)
 4501      FFFFFF00 
 4501      000000
 104:TestDeferredTestReporter.cpp ****     char const* badStr = "Bogus failure message";
 4502              		.loc 3 104 0
 4503 1f2e 48C78528 		movq	$.LC30, -216(%rbp)
 4503      FFFFFF00 
 4503      000000
 105:TestDeferredTestReporter.cpp ****     
 106:TestDeferredTestReporter.cpp **** 	using namespace std;
 107:TestDeferredTestReporter.cpp **** 
 108:TestDeferredTestReporter.cpp ****     strcpy(failureMessage, goodStr);
 4504              		.loc 3 108 0
 4505 1f39 488B9520 		movq	-224(%rbp), %rdx
 4505      FFFFFF
 4506 1f40 488D8560 		leaq	-160(%rbp), %rax
 4506      FFFFFF
 4507 1f47 4889D6   		movq	%rdx, %rsi
 4508 1f4a 4889C7   		movq	%rax, %rdi
 4509 1f4d E8000000 		call	strcpy
 4509      00
 109:TestDeferredTestReporter.cpp ****     reporter.ReportFailure(details, failureMessage);
 4510              		.loc 3 109 0
 4511 1f52 488B8518 		movq	-232(%rbp), %rax
 4511      FFFFFF
 4512 1f59 488D4840 		leaq	64(%rax), %rcx
 4513 1f5d 488B8518 		movq	-232(%rbp), %rax
 4513      FFFFFF
 4514 1f64 488D9560 		leaq	-160(%rbp), %rdx
 4514      FFFFFF
 4515 1f6b 4889CE   		movq	%rcx, %rsi
 4516 1f6e 4889C7   		movq	%rax, %rdi
 4517 1f71 E8000000 		call	_ZN8UnitTest20DeferredTestReporter13ReportFailureERKNS_11TestDetailsEPKc
 4517      00
 110:TestDeferredTestReporter.cpp ****     strcpy(failureMessage, badStr);
 4518              		.loc 3 110 0
 4519 1f76 488B9528 		movq	-216(%rbp), %rdx
 4519      FFFFFF
 4520 1f7d 488D8560 		leaq	-160(%rbp), %rax
 4520      FFFFFF
 4521 1f84 4889D6   		movq	%rdx, %rsi
 4522 1f87 4889C7   		movq	%rax, %rdi
 4523 1f8a E8000000 		call	strcpy
 4523      00
 111:TestDeferredTestReporter.cpp **** 
 112:TestDeferredTestReporter.cpp ****     DeferredTestResult const& result = reporter.GetResults().at(0);
 4524              		.loc 3 112 0
 4525 1f8f 488B8518 		movq	-232(%rbp), %rax
 4525      FFFFFF
 4526 1f96 4889C7   		movq	%rax, %rdi
 4527 1f99 E8000000 		call	_ZN8UnitTest20DeferredTestReporter10GetResultsEv
 4527      00
 4528 1f9e BE000000 		movl	$0, %esi
 4528      00
 4529 1fa3 4889C7   		movq	%rax, %rdi
 4530 1fa6 E8000000 		call	_ZNSt6vectorIN8UnitTest18DeferredTestResultESaIS1_EE2atEm
 4530      00
 4531 1fab 48898530 		movq	%rax, -208(%rbp)
 4531      FFFFFF
 113:TestDeferredTestReporter.cpp ****     DeferredTestResult::Failure const& failure = result.failures.at(0);
 4532              		.loc 3 113 0
 4533 1fb2 488B8530 		movq	-208(%rbp), %rax
 4533      FFFFFF
 4534 1fb9 4883C018 		addq	$24, %rax
 4535 1fbd BE000000 		movl	$0, %esi
 4535      00
 4536 1fc2 4889C7   		movq	%rax, %rdi
 4537 1fc5 E8000000 		call	_ZNKSt6vectorISt4pairIiSsESaIS1_EE2atEm
 4537      00
 4538              	.LEHE133:
 4539 1fca 48898538 		movq	%rax, -200(%rbp)
 4539      FFFFFF
 4540              	.LEHB134:
 114:TestDeferredTestReporter.cpp ****     CHECK_EQUAL(goodStr, failure.second);
 4541              		.loc 3 114 0
 4542 1fd1 E8000000 		call	_ZN8UnitTest11CurrentTest7DetailsEv
 4542      00
 4543 1fd6 488B08   		movq	(%rax), %rcx
 4544 1fd9 488D8540 		leaq	-192(%rbp), %rax
 4544      FFFFFF
 4545 1fe0 BA720000 		movl	$114, %edx
 4545      00
 4546 1fe5 4889CE   		movq	%rcx, %rsi
 4547 1fe8 4889C7   		movq	%rax, %rdi
 4548 1feb E8000000 		call	_ZN8UnitTest11TestDetailsC1ERKS0_i
 4548      00
 4549              		.loc 3 114 0 is_stmt 0 discriminator 1
 4550 1ff0 488B8538 		movq	-200(%rbp), %rax
 4550      FFFFFF
 4551 1ff7 488D5808 		leaq	8(%rax), %rbx
 4552 1ffb E8000000 		call	_ZN8UnitTest11CurrentTest7ResultsEv
 4552      00
 4553 2000 488B00   		movq	(%rax), %rax
 4554 2003 488D9540 		leaq	-192(%rbp), %rdx
 4554      FFFFFF
 4555 200a 488DB520 		leaq	-224(%rbp), %rsi
 4555      FFFFFF
 4556 2011 4889D1   		movq	%rdx, %rcx
 4557 2014 4889DA   		movq	%rbx, %rdx
 4558 2017 4889C7   		movq	%rax, %rdi
 4559 201a E8000000 		call	_ZN8UnitTest10CheckEqualIPKcSsEEvRNS_11TestResultsERKT_RKT0_RKNS_11TestDetailsE
 4559      00
 4560              	.LEHE134:
 4561              	.LBE111:
 115:TestDeferredTestReporter.cpp **** }
 4562              		.loc 3 115 0 is_stmt 1
 4563 201f EB5E     		jmp	.L258
 4564              	.L257:
 4565 2021 4889C3   		movq	%rax, %rbx
 4566              	.LBB112:
 114:TestDeferredTestReporter.cpp ****     CHECK_EQUAL(goodStr, failure.second);
 4567              		.loc 3 114 0
 4568 2024 E8000000 		call	__cxa_end_catch
 4568      00
 4569 2029 4889D8   		movq	%rbx, %rax
 4570 202c 4889C7   		movq	%rax, %rdi
 4571              	.LEHB135:
 4572 202f E8000000 		call	_Unwind_Resume
 4572      00
 4573              	.LEHE135:
 4574              	.L256:
 4575 2034 4889C7   		movq	%rax, %rdi
 4576 2037 E8000000 		call	__cxa_begin_catch
 4576      00
 4577              	.LEHB136:
 4578 203c E8000000 		call	_ZN8UnitTest11CurrentTest7DetailsEv
 4578      00
 4579 2041 488B08   		movq	(%rax), %rcx
 4580 2044 488D8540 		leaq	-192(%rbp), %rax
 4580      FFFFFF
 4581 204b BA720000 		movl	$114, %edx
 4581      00
 4582 2050 4889CE   		movq	%rcx, %rsi
 4583 2053 4889C7   		movq	%rax, %rdi
 4584 2056 E8000000 		call	_ZN8UnitTest11TestDetailsC1ERKS0_i
 4584      00
 114:TestDeferredTestReporter.cpp ****     CHECK_EQUAL(goodStr, failure.second);
 4585              		.loc 3 114 0 is_stmt 0 discriminator 1
 4586 205b E8000000 		call	_ZN8UnitTest11CurrentTest7ResultsEv
 4586      00
 4587 2060 488B00   		movq	(%rax), %rax
 4588 2063 488D8D40 		leaq	-192(%rbp), %rcx
 4588      FFFFFF
 4589 206a BA000000 		movl	$.LC31, %edx
 4589      00
 4590 206f 4889CE   		movq	%rcx, %rsi
 4591 2072 4889C7   		movq	%rax, %rdi
 4592 2075 E8000000 		call	_ZN8UnitTest11TestResults13OnTestFailureERKNS_11TestDetailsEPKc
 4592      00
 4593              	.LEHE136:
 4594              	.LEHB137:
 4595 207a E8000000 		call	__cxa_end_catch
 4595      00
 4596              	.LEHE137:
 4597              	.L258:
 4598              	.LBE112:
 4599              		.loc 3 115 0 is_stmt 1
 4600 207f 90       		nop
 4601 2080 488B45E8 		movq	-24(%rbp), %rax
 4602 2084 64483304 		xorq	%fs:40, %rax
 4602      25280000 
 4602      00
 4603 208d 7405     		je	.L255
 4604 208f E8000000 		call	__stack_chk_fail
 4604      00
 4605              	.L255:
 4606 2094 4881C4E8 		addq	$232, %rsp
 4606      000000
 4607 209b 5B       		popq	%rbx
 4608 209c 5D       		popq	%rbp
 4609              		.cfi_def_cfa 7, 8
 4610 209d C3       		ret
 4611              		.cfi_endproc
 4612              	.LFE1365:
 4613              		.section	.gcc_except_table
 4614              		.align 4
 4615              	.LLSDA1365:
 4616 0378 FF       		.byte	0xff
 4617 0379 03       		.byte	0x3
 4618 037a 25       		.uleb128 .LLSDATT1365-.LLSDATTD1365
 4619              	.LLSDATTD1365:
 4620 037b 01       		.byte	0x1
 4621 037c 1B       		.uleb128 .LLSDACSE1365-.LLSDACSB1365
 4622              	.LLSDACSB1365:
 4623 037d 3A       		.uleb128 .LEHB133-.LFB1365
 4624 037e AC01     		.uleb128 .LEHE133-.LEHB133
 4625 0380 00       		.uleb128 0
 4626 0381 00       		.uleb128 0
 4627 0382 ED01     		.uleb128 .LEHB134-.LFB1365
 4628 0384 4E       		.uleb128 .LEHE134-.LEHB134
 4629 0385 D002     		.uleb128 .L256-.LFB1365
 4630 0387 01       		.uleb128 0x1
 4631 0388 CB02     		.uleb128 .LEHB135-.LFB1365
 4632 038a 05       		.uleb128 .LEHE135-.LEHB135
 4633 038b 00       		.uleb128 0
 4634 038c 00       		.uleb128 0
 4635 038d D802     		.uleb128 .LEHB136-.LFB1365
 4636 038f 3E       		.uleb128 .LEHE136-.LEHB136
 4637 0390 BD02     		.uleb128 .L257-.LFB1365
 4638 0392 00       		.uleb128 0
 4639 0393 9603     		.uleb128 .LEHB137-.LFB1365
 4640 0395 05       		.uleb128 .LEHE137-.LEHB137
 4641 0396 00       		.uleb128 0
 4642 0397 00       		.uleb128 0
 4643              	.LLSDACSE1365:
 4644 0398 01       		.byte	0x1
 4645 0399 00       		.byte	0
 4646 039a 0000     		.align 4
 4647 039c 00000000 		.long	0
 4648              	
 4649              	.LLSDATT1365:
 4650              		.text
 4652              		.section	.text._ZNSt6vectorIN8UnitTest18DeferredTestResultESaIS1_EEC2Ev,"axG",@progbits,_ZNSt6vect
 4653              		.align 2
 4654              		.weak	_ZNSt6vectorIN8UnitTest18DeferredTestResultESaIS1_EEC2Ev
 4656              	_ZNSt6vectorIN8UnitTest18DeferredTestResultESaIS1_EEC2Ev:
 4657              	.LFB1396:
 4658              		.file 6 "/usr/include/c++/4.8/bits/stl_vector.h"
   1:/usr/include/c++/4.8/bits/stl_vector.h **** // Vector implementation -*- C++ -*-
   2:/usr/include/c++/4.8/bits/stl_vector.h **** 
   3:/usr/include/c++/4.8/bits/stl_vector.h **** // Copyright (C) 2001-2013 Free Software Foundation, Inc.
   4:/usr/include/c++/4.8/bits/stl_vector.h **** //
   5:/usr/include/c++/4.8/bits/stl_vector.h **** // This file is part of the GNU ISO C++ Library.  This library is free
   6:/usr/include/c++/4.8/bits/stl_vector.h **** // software; you can redistribute it and/or modify it under the
   7:/usr/include/c++/4.8/bits/stl_vector.h **** // terms of the GNU General Public License as published by the
   8:/usr/include/c++/4.8/bits/stl_vector.h **** // Free Software Foundation; either version 3, or (at your option)
   9:/usr/include/c++/4.8/bits/stl_vector.h **** // any later version.
  10:/usr/include/c++/4.8/bits/stl_vector.h **** 
  11:/usr/include/c++/4.8/bits/stl_vector.h **** // This library is distributed in the hope that it will be useful,
  12:/usr/include/c++/4.8/bits/stl_vector.h **** // but WITHOUT ANY WARRANTY; without even the implied warranty of
  13:/usr/include/c++/4.8/bits/stl_vector.h **** // MERCHANTABILITY or FITNESS FOR A PARTICULAR PURPOSE.  See the
  14:/usr/include/c++/4.8/bits/stl_vector.h **** // GNU General Public License for more details.
  15:/usr/include/c++/4.8/bits/stl_vector.h **** 
  16:/usr/include/c++/4.8/bits/stl_vector.h **** // Under Section 7 of GPL version 3, you are granted additional
  17:/usr/include/c++/4.8/bits/stl_vector.h **** // permissions described in the GCC Runtime Library Exception, version
  18:/usr/include/c++/4.8/bits/stl_vector.h **** // 3.1, as published by the Free Software Foundation.
  19:/usr/include/c++/4.8/bits/stl_vector.h **** 
  20:/usr/include/c++/4.8/bits/stl_vector.h **** // You should have received a copy of the GNU General Public License and
  21:/usr/include/c++/4.8/bits/stl_vector.h **** // a copy of the GCC Runtime Library Exception along with this program;
  22:/usr/include/c++/4.8/bits/stl_vector.h **** // see the files COPYING3 and COPYING.RUNTIME respectively.  If not, see
  23:/usr/include/c++/4.8/bits/stl_vector.h **** // <http://www.gnu.org/licenses/>.
  24:/usr/include/c++/4.8/bits/stl_vector.h **** 
  25:/usr/include/c++/4.8/bits/stl_vector.h **** /*
  26:/usr/include/c++/4.8/bits/stl_vector.h ****  *
  27:/usr/include/c++/4.8/bits/stl_vector.h ****  * Copyright (c) 1994
  28:/usr/include/c++/4.8/bits/stl_vector.h ****  * Hewlett-Packard Company
  29:/usr/include/c++/4.8/bits/stl_vector.h ****  *
  30:/usr/include/c++/4.8/bits/stl_vector.h ****  * Permission to use, copy, modify, distribute and sell this software
  31:/usr/include/c++/4.8/bits/stl_vector.h ****  * and its documentation for any purpose is hereby granted without fee,
  32:/usr/include/c++/4.8/bits/stl_vector.h ****  * provided that the above copyright notice appear in all copies and
  33:/usr/include/c++/4.8/bits/stl_vector.h ****  * that both that copyright notice and this permission notice appear
  34:/usr/include/c++/4.8/bits/stl_vector.h ****  * in supporting documentation.  Hewlett-Packard Company makes no
  35:/usr/include/c++/4.8/bits/stl_vector.h ****  * representations about the suitability of this software for any
  36:/usr/include/c++/4.8/bits/stl_vector.h ****  * purpose.  It is provided "as is" without express or implied warranty.
  37:/usr/include/c++/4.8/bits/stl_vector.h ****  *
  38:/usr/include/c++/4.8/bits/stl_vector.h ****  *
  39:/usr/include/c++/4.8/bits/stl_vector.h ****  * Copyright (c) 1996
  40:/usr/include/c++/4.8/bits/stl_vector.h ****  * Silicon Graphics Computer Systems, Inc.
  41:/usr/include/c++/4.8/bits/stl_vector.h ****  *
  42:/usr/include/c++/4.8/bits/stl_vector.h ****  * Permission to use, copy, modify, distribute and sell this software
  43:/usr/include/c++/4.8/bits/stl_vector.h ****  * and its documentation for any purpose is hereby granted without fee,
  44:/usr/include/c++/4.8/bits/stl_vector.h ****  * provided that the above copyright notice appear in all copies and
  45:/usr/include/c++/4.8/bits/stl_vector.h ****  * that both that copyright notice and this permission notice appear
  46:/usr/include/c++/4.8/bits/stl_vector.h ****  * in supporting documentation.  Silicon Graphics makes no
  47:/usr/include/c++/4.8/bits/stl_vector.h ****  * representations about the suitability of this  software for any
  48:/usr/include/c++/4.8/bits/stl_vector.h ****  * purpose.  It is provided "as is" without express or implied warranty.
  49:/usr/include/c++/4.8/bits/stl_vector.h ****  */
  50:/usr/include/c++/4.8/bits/stl_vector.h **** 
  51:/usr/include/c++/4.8/bits/stl_vector.h **** /** @file bits/stl_vector.h
  52:/usr/include/c++/4.8/bits/stl_vector.h ****  *  This is an internal header file, included by other library headers.
  53:/usr/include/c++/4.8/bits/stl_vector.h ****  *  Do not attempt to use it directly. @headername{vector}
  54:/usr/include/c++/4.8/bits/stl_vector.h ****  */
  55:/usr/include/c++/4.8/bits/stl_vector.h **** 
  56:/usr/include/c++/4.8/bits/stl_vector.h **** #ifndef _STL_VECTOR_H
  57:/usr/include/c++/4.8/bits/stl_vector.h **** #define _STL_VECTOR_H 1
  58:/usr/include/c++/4.8/bits/stl_vector.h **** 
  59:/usr/include/c++/4.8/bits/stl_vector.h **** #include <bits/stl_iterator_base_funcs.h>
  60:/usr/include/c++/4.8/bits/stl_vector.h **** #include <bits/functexcept.h>
  61:/usr/include/c++/4.8/bits/stl_vector.h **** #include <bits/concept_check.h>
  62:/usr/include/c++/4.8/bits/stl_vector.h **** #if __cplusplus >= 201103L
  63:/usr/include/c++/4.8/bits/stl_vector.h **** #include <initializer_list>
  64:/usr/include/c++/4.8/bits/stl_vector.h **** #endif
  65:/usr/include/c++/4.8/bits/stl_vector.h **** 
  66:/usr/include/c++/4.8/bits/stl_vector.h **** namespace std _GLIBCXX_VISIBILITY(default)
  67:/usr/include/c++/4.8/bits/stl_vector.h **** {
  68:/usr/include/c++/4.8/bits/stl_vector.h **** _GLIBCXX_BEGIN_NAMESPACE_CONTAINER
  69:/usr/include/c++/4.8/bits/stl_vector.h **** 
  70:/usr/include/c++/4.8/bits/stl_vector.h ****   /// See bits/stl_deque.h's _Deque_base for an explanation.
  71:/usr/include/c++/4.8/bits/stl_vector.h ****   template<typename _Tp, typename _Alloc>
  72:/usr/include/c++/4.8/bits/stl_vector.h ****     struct _Vector_base
  73:/usr/include/c++/4.8/bits/stl_vector.h ****     {
  74:/usr/include/c++/4.8/bits/stl_vector.h ****       typedef typename __gnu_cxx::__alloc_traits<_Alloc>::template
  75:/usr/include/c++/4.8/bits/stl_vector.h ****         rebind<_Tp>::other _Tp_alloc_type;
  76:/usr/include/c++/4.8/bits/stl_vector.h ****       typedef typename __gnu_cxx::__alloc_traits<_Tp_alloc_type>::pointer
  77:/usr/include/c++/4.8/bits/stl_vector.h ****        	pointer;
  78:/usr/include/c++/4.8/bits/stl_vector.h **** 
  79:/usr/include/c++/4.8/bits/stl_vector.h ****       struct _Vector_impl 
  80:/usr/include/c++/4.8/bits/stl_vector.h ****       : public _Tp_alloc_type
  81:/usr/include/c++/4.8/bits/stl_vector.h ****       {
  82:/usr/include/c++/4.8/bits/stl_vector.h **** 	pointer _M_start;
  83:/usr/include/c++/4.8/bits/stl_vector.h **** 	pointer _M_finish;
  84:/usr/include/c++/4.8/bits/stl_vector.h **** 	pointer _M_end_of_storage;
  85:/usr/include/c++/4.8/bits/stl_vector.h **** 
  86:/usr/include/c++/4.8/bits/stl_vector.h **** 	_Vector_impl()
  87:/usr/include/c++/4.8/bits/stl_vector.h **** 	: _Tp_alloc_type(), _M_start(0), _M_finish(0), _M_end_of_storage(0)
  88:/usr/include/c++/4.8/bits/stl_vector.h **** 	{ }
  89:/usr/include/c++/4.8/bits/stl_vector.h **** 
  90:/usr/include/c++/4.8/bits/stl_vector.h **** 	_Vector_impl(_Tp_alloc_type const& __a)
  91:/usr/include/c++/4.8/bits/stl_vector.h **** 	: _Tp_alloc_type(__a), _M_start(0), _M_finish(0), _M_end_of_storage(0)
  92:/usr/include/c++/4.8/bits/stl_vector.h **** 	{ }
  93:/usr/include/c++/4.8/bits/stl_vector.h **** 
  94:/usr/include/c++/4.8/bits/stl_vector.h **** #if __cplusplus >= 201103L
  95:/usr/include/c++/4.8/bits/stl_vector.h **** 	_Vector_impl(_Tp_alloc_type&& __a)
  96:/usr/include/c++/4.8/bits/stl_vector.h **** 	: _Tp_alloc_type(std::move(__a)),
  97:/usr/include/c++/4.8/bits/stl_vector.h **** 	  _M_start(0), _M_finish(0), _M_end_of_storage(0)
  98:/usr/include/c++/4.8/bits/stl_vector.h **** 	{ }
  99:/usr/include/c++/4.8/bits/stl_vector.h **** #endif
 100:/usr/include/c++/4.8/bits/stl_vector.h **** 
 101:/usr/include/c++/4.8/bits/stl_vector.h **** 	void _M_swap_data(_Vector_impl& __x)
 102:/usr/include/c++/4.8/bits/stl_vector.h **** 	{
 103:/usr/include/c++/4.8/bits/stl_vector.h **** 	  std::swap(_M_start, __x._M_start);
 104:/usr/include/c++/4.8/bits/stl_vector.h **** 	  std::swap(_M_finish, __x._M_finish);
 105:/usr/include/c++/4.8/bits/stl_vector.h **** 	  std::swap(_M_end_of_storage, __x._M_end_of_storage);
 106:/usr/include/c++/4.8/bits/stl_vector.h **** 	}
 107:/usr/include/c++/4.8/bits/stl_vector.h ****       };
 108:/usr/include/c++/4.8/bits/stl_vector.h ****       
 109:/usr/include/c++/4.8/bits/stl_vector.h ****     public:
 110:/usr/include/c++/4.8/bits/stl_vector.h ****       typedef _Alloc allocator_type;
 111:/usr/include/c++/4.8/bits/stl_vector.h **** 
 112:/usr/include/c++/4.8/bits/stl_vector.h ****       _Tp_alloc_type&
 113:/usr/include/c++/4.8/bits/stl_vector.h ****       _M_get_Tp_allocator() _GLIBCXX_NOEXCEPT
 114:/usr/include/c++/4.8/bits/stl_vector.h ****       { return *static_cast<_Tp_alloc_type*>(&this->_M_impl); }
 115:/usr/include/c++/4.8/bits/stl_vector.h **** 
 116:/usr/include/c++/4.8/bits/stl_vector.h ****       const _Tp_alloc_type&
 117:/usr/include/c++/4.8/bits/stl_vector.h ****       _M_get_Tp_allocator() const _GLIBCXX_NOEXCEPT
 118:/usr/include/c++/4.8/bits/stl_vector.h ****       { return *static_cast<const _Tp_alloc_type*>(&this->_M_impl); }
 119:/usr/include/c++/4.8/bits/stl_vector.h **** 
 120:/usr/include/c++/4.8/bits/stl_vector.h ****       allocator_type
 121:/usr/include/c++/4.8/bits/stl_vector.h ****       get_allocator() const _GLIBCXX_NOEXCEPT
 122:/usr/include/c++/4.8/bits/stl_vector.h ****       { return allocator_type(_M_get_Tp_allocator()); }
 123:/usr/include/c++/4.8/bits/stl_vector.h **** 
 124:/usr/include/c++/4.8/bits/stl_vector.h ****       _Vector_base()
 125:/usr/include/c++/4.8/bits/stl_vector.h ****       : _M_impl() { }
 126:/usr/include/c++/4.8/bits/stl_vector.h **** 
 127:/usr/include/c++/4.8/bits/stl_vector.h ****       _Vector_base(const allocator_type& __a)
 128:/usr/include/c++/4.8/bits/stl_vector.h ****       : _M_impl(__a) { }
 129:/usr/include/c++/4.8/bits/stl_vector.h **** 
 130:/usr/include/c++/4.8/bits/stl_vector.h ****       _Vector_base(size_t __n)
 131:/usr/include/c++/4.8/bits/stl_vector.h ****       : _M_impl()
 132:/usr/include/c++/4.8/bits/stl_vector.h ****       { _M_create_storage(__n); }
 133:/usr/include/c++/4.8/bits/stl_vector.h **** 
 134:/usr/include/c++/4.8/bits/stl_vector.h ****       _Vector_base(size_t __n, const allocator_type& __a)
 135:/usr/include/c++/4.8/bits/stl_vector.h ****       : _M_impl(__a)
 136:/usr/include/c++/4.8/bits/stl_vector.h ****       { _M_create_storage(__n); }
 137:/usr/include/c++/4.8/bits/stl_vector.h **** 
 138:/usr/include/c++/4.8/bits/stl_vector.h **** #if __cplusplus >= 201103L
 139:/usr/include/c++/4.8/bits/stl_vector.h ****       _Vector_base(_Tp_alloc_type&& __a)
 140:/usr/include/c++/4.8/bits/stl_vector.h ****       : _M_impl(std::move(__a)) { }
 141:/usr/include/c++/4.8/bits/stl_vector.h **** 
 142:/usr/include/c++/4.8/bits/stl_vector.h ****       _Vector_base(_Vector_base&& __x)
 143:/usr/include/c++/4.8/bits/stl_vector.h ****       : _M_impl(std::move(__x._M_get_Tp_allocator()))
 144:/usr/include/c++/4.8/bits/stl_vector.h ****       { this->_M_impl._M_swap_data(__x._M_impl); }
 145:/usr/include/c++/4.8/bits/stl_vector.h **** 
 146:/usr/include/c++/4.8/bits/stl_vector.h ****       _Vector_base(_Vector_base&& __x, const allocator_type& __a)
 147:/usr/include/c++/4.8/bits/stl_vector.h ****       : _M_impl(__a)
 148:/usr/include/c++/4.8/bits/stl_vector.h ****       {
 149:/usr/include/c++/4.8/bits/stl_vector.h **** 	if (__x.get_allocator() == __a)
 150:/usr/include/c++/4.8/bits/stl_vector.h **** 	  this->_M_impl._M_swap_data(__x._M_impl);
 151:/usr/include/c++/4.8/bits/stl_vector.h **** 	else
 152:/usr/include/c++/4.8/bits/stl_vector.h **** 	  {
 153:/usr/include/c++/4.8/bits/stl_vector.h **** 	    size_t __n = __x._M_impl._M_finish - __x._M_impl._M_start;
 154:/usr/include/c++/4.8/bits/stl_vector.h **** 	    _M_create_storage(__n);
 155:/usr/include/c++/4.8/bits/stl_vector.h **** 	  }
 156:/usr/include/c++/4.8/bits/stl_vector.h ****       }
 157:/usr/include/c++/4.8/bits/stl_vector.h **** #endif
 158:/usr/include/c++/4.8/bits/stl_vector.h **** 
 159:/usr/include/c++/4.8/bits/stl_vector.h ****       ~_Vector_base()
 160:/usr/include/c++/4.8/bits/stl_vector.h ****       { _M_deallocate(this->_M_impl._M_start, this->_M_impl._M_end_of_storage
 161:/usr/include/c++/4.8/bits/stl_vector.h **** 		      - this->_M_impl._M_start); }
 162:/usr/include/c++/4.8/bits/stl_vector.h **** 
 163:/usr/include/c++/4.8/bits/stl_vector.h ****     public:
 164:/usr/include/c++/4.8/bits/stl_vector.h ****       _Vector_impl _M_impl;
 165:/usr/include/c++/4.8/bits/stl_vector.h **** 
 166:/usr/include/c++/4.8/bits/stl_vector.h ****       pointer
 167:/usr/include/c++/4.8/bits/stl_vector.h ****       _M_allocate(size_t __n)
 168:/usr/include/c++/4.8/bits/stl_vector.h ****       { return __n != 0 ? _M_impl.allocate(__n) : 0; }
 169:/usr/include/c++/4.8/bits/stl_vector.h **** 
 170:/usr/include/c++/4.8/bits/stl_vector.h ****       void
 171:/usr/include/c++/4.8/bits/stl_vector.h ****       _M_deallocate(pointer __p, size_t __n)
 172:/usr/include/c++/4.8/bits/stl_vector.h ****       {
 173:/usr/include/c++/4.8/bits/stl_vector.h **** 	if (__p)
 174:/usr/include/c++/4.8/bits/stl_vector.h **** 	  _M_impl.deallocate(__p, __n);
 175:/usr/include/c++/4.8/bits/stl_vector.h ****       }
 176:/usr/include/c++/4.8/bits/stl_vector.h **** 
 177:/usr/include/c++/4.8/bits/stl_vector.h ****     private:
 178:/usr/include/c++/4.8/bits/stl_vector.h ****       void
 179:/usr/include/c++/4.8/bits/stl_vector.h ****       _M_create_storage(size_t __n)
 180:/usr/include/c++/4.8/bits/stl_vector.h ****       {
 181:/usr/include/c++/4.8/bits/stl_vector.h **** 	this->_M_impl._M_start = this->_M_allocate(__n);
 182:/usr/include/c++/4.8/bits/stl_vector.h **** 	this->_M_impl._M_finish = this->_M_impl._M_start;
 183:/usr/include/c++/4.8/bits/stl_vector.h **** 	this->_M_impl._M_end_of_storage = this->_M_impl._M_start + __n;
 184:/usr/include/c++/4.8/bits/stl_vector.h ****       }
 185:/usr/include/c++/4.8/bits/stl_vector.h ****     };
 186:/usr/include/c++/4.8/bits/stl_vector.h **** 
 187:/usr/include/c++/4.8/bits/stl_vector.h **** 
 188:/usr/include/c++/4.8/bits/stl_vector.h ****   /**
 189:/usr/include/c++/4.8/bits/stl_vector.h ****    *  @brief A standard container which offers fixed time access to
 190:/usr/include/c++/4.8/bits/stl_vector.h ****    *  individual elements in any order.
 191:/usr/include/c++/4.8/bits/stl_vector.h ****    *
 192:/usr/include/c++/4.8/bits/stl_vector.h ****    *  @ingroup sequences
 193:/usr/include/c++/4.8/bits/stl_vector.h ****    *
 194:/usr/include/c++/4.8/bits/stl_vector.h ****    *  @tparam _Tp  Type of element.
 195:/usr/include/c++/4.8/bits/stl_vector.h ****    *  @tparam _Alloc  Allocator type, defaults to allocator<_Tp>.
 196:/usr/include/c++/4.8/bits/stl_vector.h ****    *
 197:/usr/include/c++/4.8/bits/stl_vector.h ****    *  Meets the requirements of a <a href="tables.html#65">container</a>, a
 198:/usr/include/c++/4.8/bits/stl_vector.h ****    *  <a href="tables.html#66">reversible container</a>, and a
 199:/usr/include/c++/4.8/bits/stl_vector.h ****    *  <a href="tables.html#67">sequence</a>, including the
 200:/usr/include/c++/4.8/bits/stl_vector.h ****    *  <a href="tables.html#68">optional sequence requirements</a> with the
 201:/usr/include/c++/4.8/bits/stl_vector.h ****    *  %exception of @c push_front and @c pop_front.
 202:/usr/include/c++/4.8/bits/stl_vector.h ****    *
 203:/usr/include/c++/4.8/bits/stl_vector.h ****    *  In some terminology a %vector can be described as a dynamic
 204:/usr/include/c++/4.8/bits/stl_vector.h ****    *  C-style array, it offers fast and efficient access to individual
 205:/usr/include/c++/4.8/bits/stl_vector.h ****    *  elements in any order and saves the user from worrying about
 206:/usr/include/c++/4.8/bits/stl_vector.h ****    *  memory and size allocation.  Subscripting ( @c [] ) access is
 207:/usr/include/c++/4.8/bits/stl_vector.h ****    *  also provided as with C-style arrays.
 208:/usr/include/c++/4.8/bits/stl_vector.h ****   */
 209:/usr/include/c++/4.8/bits/stl_vector.h ****   template<typename _Tp, typename _Alloc = std::allocator<_Tp> >
 210:/usr/include/c++/4.8/bits/stl_vector.h ****     class vector : protected _Vector_base<_Tp, _Alloc>
 211:/usr/include/c++/4.8/bits/stl_vector.h ****     {
 212:/usr/include/c++/4.8/bits/stl_vector.h ****       // Concept requirements.
 213:/usr/include/c++/4.8/bits/stl_vector.h ****       typedef typename _Alloc::value_type                _Alloc_value_type;
 214:/usr/include/c++/4.8/bits/stl_vector.h ****       __glibcxx_class_requires(_Tp, _SGIAssignableConcept)
 215:/usr/include/c++/4.8/bits/stl_vector.h ****       __glibcxx_class_requires2(_Tp, _Alloc_value_type, _SameTypeConcept)
 216:/usr/include/c++/4.8/bits/stl_vector.h ****       
 217:/usr/include/c++/4.8/bits/stl_vector.h ****       typedef _Vector_base<_Tp, _Alloc>			 _Base;
 218:/usr/include/c++/4.8/bits/stl_vector.h ****       typedef typename _Base::_Tp_alloc_type		 _Tp_alloc_type;
 219:/usr/include/c++/4.8/bits/stl_vector.h ****       typedef __gnu_cxx::__alloc_traits<_Tp_alloc_type>  _Alloc_traits;
 220:/usr/include/c++/4.8/bits/stl_vector.h **** 
 221:/usr/include/c++/4.8/bits/stl_vector.h ****     public:
 222:/usr/include/c++/4.8/bits/stl_vector.h ****       typedef _Tp					 value_type;
 223:/usr/include/c++/4.8/bits/stl_vector.h ****       typedef typename _Base::pointer                    pointer;
 224:/usr/include/c++/4.8/bits/stl_vector.h ****       typedef typename _Alloc_traits::const_pointer      const_pointer;
 225:/usr/include/c++/4.8/bits/stl_vector.h ****       typedef typename _Alloc_traits::reference          reference;
 226:/usr/include/c++/4.8/bits/stl_vector.h ****       typedef typename _Alloc_traits::const_reference    const_reference;
 227:/usr/include/c++/4.8/bits/stl_vector.h ****       typedef __gnu_cxx::__normal_iterator<pointer, vector> iterator;
 228:/usr/include/c++/4.8/bits/stl_vector.h ****       typedef __gnu_cxx::__normal_iterator<const_pointer, vector>
 229:/usr/include/c++/4.8/bits/stl_vector.h ****       const_iterator;
 230:/usr/include/c++/4.8/bits/stl_vector.h ****       typedef std::reverse_iterator<const_iterator>  const_reverse_iterator;
 231:/usr/include/c++/4.8/bits/stl_vector.h ****       typedef std::reverse_iterator<iterator>		 reverse_iterator;
 232:/usr/include/c++/4.8/bits/stl_vector.h ****       typedef size_t					 size_type;
 233:/usr/include/c++/4.8/bits/stl_vector.h ****       typedef ptrdiff_t					 difference_type;
 234:/usr/include/c++/4.8/bits/stl_vector.h ****       typedef _Alloc                        		 allocator_type;
 235:/usr/include/c++/4.8/bits/stl_vector.h **** 
 236:/usr/include/c++/4.8/bits/stl_vector.h ****     protected:
 237:/usr/include/c++/4.8/bits/stl_vector.h ****       using _Base::_M_allocate;
 238:/usr/include/c++/4.8/bits/stl_vector.h ****       using _Base::_M_deallocate;
 239:/usr/include/c++/4.8/bits/stl_vector.h ****       using _Base::_M_impl;
 240:/usr/include/c++/4.8/bits/stl_vector.h ****       using _Base::_M_get_Tp_allocator;
 241:/usr/include/c++/4.8/bits/stl_vector.h **** 
 242:/usr/include/c++/4.8/bits/stl_vector.h ****     public:
 243:/usr/include/c++/4.8/bits/stl_vector.h ****       // [23.2.4.1] construct/copy/destroy
 244:/usr/include/c++/4.8/bits/stl_vector.h ****       // (assign() and get_allocator() are also listed in this section)
 245:/usr/include/c++/4.8/bits/stl_vector.h ****       /**
 246:/usr/include/c++/4.8/bits/stl_vector.h ****        *  @brief  Default constructor creates no elements.
 247:/usr/include/c++/4.8/bits/stl_vector.h ****        */
 248:/usr/include/c++/4.8/bits/stl_vector.h ****       vector()
 4659              		.loc 6 248 0
 4660              		.cfi_startproc
 4661 0000 55       		pushq	%rbp
 4662              		.cfi_def_cfa_offset 16
 4663              		.cfi_offset 6, -16
 4664 0001 4889E5   		movq	%rsp, %rbp
 4665              		.cfi_def_cfa_register 6
 4666 0004 4883EC10 		subq	$16, %rsp
 4667 0008 48897DF8 		movq	%rdi, -8(%rbp)
 4668              	.LBB113:
 249:/usr/include/c++/4.8/bits/stl_vector.h ****       : _Base() { }
 4669              		.loc 6 249 0
 4670 000c 488B45F8 		movq	-8(%rbp), %rax
 4671 0010 4889C7   		movq	%rax, %rdi
 4672 0013 E8000000 		call	_ZNSt12_Vector_baseIN8UnitTest18DeferredTestResultESaIS1_EEC2Ev
 4672      00
 4673              	.LBE113:
 4674 0018 C9       		leave
 4675              		.cfi_def_cfa 7, 8
 4676 0019 C3       		ret
 4677              		.cfi_endproc
 4678              	.LFE1396:
 4680              		.weak	_ZNSt6vectorIN8UnitTest18DeferredTestResultESaIS1_EEC1Ev
 4681              		.set	_ZNSt6vectorIN8UnitTest18DeferredTestResultESaIS1_EEC1Ev,_ZNSt6vectorIN8UnitTest18DeferredTes
 4682              		.section	.text._ZNSt6vectorIN8UnitTest18DeferredTestResultESaIS1_EED2Ev,"axG",@progbits,_ZNSt6vect
 4683              		.align 2
 4684              		.weak	_ZNSt6vectorIN8UnitTest18DeferredTestResultESaIS1_EED2Ev
 4686              	_ZNSt6vectorIN8UnitTest18DeferredTestResultESaIS1_EED2Ev:
 4687              	.LFB1399:
 250:/usr/include/c++/4.8/bits/stl_vector.h **** 
 251:/usr/include/c++/4.8/bits/stl_vector.h ****       /**
 252:/usr/include/c++/4.8/bits/stl_vector.h ****        *  @brief  Creates a %vector with no elements.
 253:/usr/include/c++/4.8/bits/stl_vector.h ****        *  @param  __a  An allocator object.
 254:/usr/include/c++/4.8/bits/stl_vector.h ****        */
 255:/usr/include/c++/4.8/bits/stl_vector.h ****       explicit
 256:/usr/include/c++/4.8/bits/stl_vector.h ****       vector(const allocator_type& __a)
 257:/usr/include/c++/4.8/bits/stl_vector.h ****       : _Base(__a) { }
 258:/usr/include/c++/4.8/bits/stl_vector.h **** 
 259:/usr/include/c++/4.8/bits/stl_vector.h **** #if __cplusplus >= 201103L
 260:/usr/include/c++/4.8/bits/stl_vector.h ****       /**
 261:/usr/include/c++/4.8/bits/stl_vector.h ****        *  @brief  Creates a %vector with default constructed elements.
 262:/usr/include/c++/4.8/bits/stl_vector.h ****        *  @param  __n  The number of elements to initially create.
 263:/usr/include/c++/4.8/bits/stl_vector.h ****        *  @param  __a  An allocator.
 264:/usr/include/c++/4.8/bits/stl_vector.h ****        *
 265:/usr/include/c++/4.8/bits/stl_vector.h ****        *  This constructor fills the %vector with @a __n default
 266:/usr/include/c++/4.8/bits/stl_vector.h ****        *  constructed elements.
 267:/usr/include/c++/4.8/bits/stl_vector.h ****        */
 268:/usr/include/c++/4.8/bits/stl_vector.h ****       explicit
 269:/usr/include/c++/4.8/bits/stl_vector.h ****       vector(size_type __n, const allocator_type& __a = allocator_type())
 270:/usr/include/c++/4.8/bits/stl_vector.h ****       : _Base(__n, __a)
 271:/usr/include/c++/4.8/bits/stl_vector.h ****       { _M_default_initialize(__n); }
 272:/usr/include/c++/4.8/bits/stl_vector.h **** 
 273:/usr/include/c++/4.8/bits/stl_vector.h ****       /**
 274:/usr/include/c++/4.8/bits/stl_vector.h ****        *  @brief  Creates a %vector with copies of an exemplar element.
 275:/usr/include/c++/4.8/bits/stl_vector.h ****        *  @param  __n  The number of elements to initially create.
 276:/usr/include/c++/4.8/bits/stl_vector.h ****        *  @param  __value  An element to copy.
 277:/usr/include/c++/4.8/bits/stl_vector.h ****        *  @param  __a  An allocator.
 278:/usr/include/c++/4.8/bits/stl_vector.h ****        *
 279:/usr/include/c++/4.8/bits/stl_vector.h ****        *  This constructor fills the %vector with @a __n copies of @a __value.
 280:/usr/include/c++/4.8/bits/stl_vector.h ****        */
 281:/usr/include/c++/4.8/bits/stl_vector.h ****       vector(size_type __n, const value_type& __value,
 282:/usr/include/c++/4.8/bits/stl_vector.h **** 	     const allocator_type& __a = allocator_type())
 283:/usr/include/c++/4.8/bits/stl_vector.h ****       : _Base(__n, __a)
 284:/usr/include/c++/4.8/bits/stl_vector.h ****       { _M_fill_initialize(__n, __value); }
 285:/usr/include/c++/4.8/bits/stl_vector.h **** #else
 286:/usr/include/c++/4.8/bits/stl_vector.h ****       /**
 287:/usr/include/c++/4.8/bits/stl_vector.h ****        *  @brief  Creates a %vector with copies of an exemplar element.
 288:/usr/include/c++/4.8/bits/stl_vector.h ****        *  @param  __n  The number of elements to initially create.
 289:/usr/include/c++/4.8/bits/stl_vector.h ****        *  @param  __value  An element to copy.
 290:/usr/include/c++/4.8/bits/stl_vector.h ****        *  @param  __a  An allocator.
 291:/usr/include/c++/4.8/bits/stl_vector.h ****        *
 292:/usr/include/c++/4.8/bits/stl_vector.h ****        *  This constructor fills the %vector with @a __n copies of @a __value.
 293:/usr/include/c++/4.8/bits/stl_vector.h ****        */
 294:/usr/include/c++/4.8/bits/stl_vector.h ****       explicit
 295:/usr/include/c++/4.8/bits/stl_vector.h ****       vector(size_type __n, const value_type& __value = value_type(),
 296:/usr/include/c++/4.8/bits/stl_vector.h **** 	     const allocator_type& __a = allocator_type())
 297:/usr/include/c++/4.8/bits/stl_vector.h ****       : _Base(__n, __a)
 298:/usr/include/c++/4.8/bits/stl_vector.h ****       { _M_fill_initialize(__n, __value); }
 299:/usr/include/c++/4.8/bits/stl_vector.h **** #endif
 300:/usr/include/c++/4.8/bits/stl_vector.h **** 
 301:/usr/include/c++/4.8/bits/stl_vector.h ****       /**
 302:/usr/include/c++/4.8/bits/stl_vector.h ****        *  @brief  %Vector copy constructor.
 303:/usr/include/c++/4.8/bits/stl_vector.h ****        *  @param  __x  A %vector of identical element and allocator types.
 304:/usr/include/c++/4.8/bits/stl_vector.h ****        *
 305:/usr/include/c++/4.8/bits/stl_vector.h ****        *  The newly-created %vector uses a copy of the allocation
 306:/usr/include/c++/4.8/bits/stl_vector.h ****        *  object used by @a __x.  All the elements of @a __x are copied,
 307:/usr/include/c++/4.8/bits/stl_vector.h ****        *  but any extra memory in
 308:/usr/include/c++/4.8/bits/stl_vector.h ****        *  @a __x (for fast expansion) will not be copied.
 309:/usr/include/c++/4.8/bits/stl_vector.h ****        */
 310:/usr/include/c++/4.8/bits/stl_vector.h ****       vector(const vector& __x)
 311:/usr/include/c++/4.8/bits/stl_vector.h ****       : _Base(__x.size(),
 312:/usr/include/c++/4.8/bits/stl_vector.h ****         _Alloc_traits::_S_select_on_copy(__x._M_get_Tp_allocator()))
 313:/usr/include/c++/4.8/bits/stl_vector.h ****       { this->_M_impl._M_finish =
 314:/usr/include/c++/4.8/bits/stl_vector.h **** 	  std::__uninitialized_copy_a(__x.begin(), __x.end(),
 315:/usr/include/c++/4.8/bits/stl_vector.h **** 				      this->_M_impl._M_start,
 316:/usr/include/c++/4.8/bits/stl_vector.h **** 				      _M_get_Tp_allocator());
 317:/usr/include/c++/4.8/bits/stl_vector.h ****       }
 318:/usr/include/c++/4.8/bits/stl_vector.h **** 
 319:/usr/include/c++/4.8/bits/stl_vector.h **** #if __cplusplus >= 201103L
 320:/usr/include/c++/4.8/bits/stl_vector.h ****       /**
 321:/usr/include/c++/4.8/bits/stl_vector.h ****        *  @brief  %Vector move constructor.
 322:/usr/include/c++/4.8/bits/stl_vector.h ****        *  @param  __x  A %vector of identical element and allocator types.
 323:/usr/include/c++/4.8/bits/stl_vector.h ****        *
 324:/usr/include/c++/4.8/bits/stl_vector.h ****        *  The newly-created %vector contains the exact contents of @a __x.
 325:/usr/include/c++/4.8/bits/stl_vector.h ****        *  The contents of @a __x are a valid, but unspecified %vector.
 326:/usr/include/c++/4.8/bits/stl_vector.h ****        */
 327:/usr/include/c++/4.8/bits/stl_vector.h ****       vector(vector&& __x) noexcept
 328:/usr/include/c++/4.8/bits/stl_vector.h ****       : _Base(std::move(__x)) { }
 329:/usr/include/c++/4.8/bits/stl_vector.h **** 
 330:/usr/include/c++/4.8/bits/stl_vector.h ****       /// Copy constructor with alternative allocator
 331:/usr/include/c++/4.8/bits/stl_vector.h ****       vector(const vector& __x, const allocator_type& __a)
 332:/usr/include/c++/4.8/bits/stl_vector.h ****       : _Base(__x.size(), __a)
 333:/usr/include/c++/4.8/bits/stl_vector.h ****       { this->_M_impl._M_finish =
 334:/usr/include/c++/4.8/bits/stl_vector.h **** 	  std::__uninitialized_copy_a(__x.begin(), __x.end(),
 335:/usr/include/c++/4.8/bits/stl_vector.h **** 				      this->_M_impl._M_start,
 336:/usr/include/c++/4.8/bits/stl_vector.h **** 				      _M_get_Tp_allocator());
 337:/usr/include/c++/4.8/bits/stl_vector.h ****       }
 338:/usr/include/c++/4.8/bits/stl_vector.h **** 
 339:/usr/include/c++/4.8/bits/stl_vector.h ****       /// Move constructor with alternative allocator
 340:/usr/include/c++/4.8/bits/stl_vector.h ****       vector(vector&& __rv, const allocator_type& __m)
 341:/usr/include/c++/4.8/bits/stl_vector.h ****       : _Base(std::move(__rv), __m)
 342:/usr/include/c++/4.8/bits/stl_vector.h ****       {
 343:/usr/include/c++/4.8/bits/stl_vector.h **** 	if (__rv.get_allocator() != __m)
 344:/usr/include/c++/4.8/bits/stl_vector.h **** 	  {
 345:/usr/include/c++/4.8/bits/stl_vector.h **** 	    this->_M_impl._M_finish =
 346:/usr/include/c++/4.8/bits/stl_vector.h **** 	      std::__uninitialized_move_a(__rv.begin(), __rv.end(),
 347:/usr/include/c++/4.8/bits/stl_vector.h **** 					  this->_M_impl._M_start,
 348:/usr/include/c++/4.8/bits/stl_vector.h **** 					  _M_get_Tp_allocator());
 349:/usr/include/c++/4.8/bits/stl_vector.h **** 	    __rv.clear();
 350:/usr/include/c++/4.8/bits/stl_vector.h **** 	  }
 351:/usr/include/c++/4.8/bits/stl_vector.h ****       }
 352:/usr/include/c++/4.8/bits/stl_vector.h **** 
 353:/usr/include/c++/4.8/bits/stl_vector.h ****       /**
 354:/usr/include/c++/4.8/bits/stl_vector.h ****        *  @brief  Builds a %vector from an initializer list.
 355:/usr/include/c++/4.8/bits/stl_vector.h ****        *  @param  __l  An initializer_list.
 356:/usr/include/c++/4.8/bits/stl_vector.h ****        *  @param  __a  An allocator.
 357:/usr/include/c++/4.8/bits/stl_vector.h ****        *
 358:/usr/include/c++/4.8/bits/stl_vector.h ****        *  Create a %vector consisting of copies of the elements in the
 359:/usr/include/c++/4.8/bits/stl_vector.h ****        *  initializer_list @a __l.
 360:/usr/include/c++/4.8/bits/stl_vector.h ****        *
 361:/usr/include/c++/4.8/bits/stl_vector.h ****        *  This will call the element type's copy constructor N times
 362:/usr/include/c++/4.8/bits/stl_vector.h ****        *  (where N is @a __l.size()) and do no memory reallocation.
 363:/usr/include/c++/4.8/bits/stl_vector.h ****        */
 364:/usr/include/c++/4.8/bits/stl_vector.h ****       vector(initializer_list<value_type> __l,
 365:/usr/include/c++/4.8/bits/stl_vector.h **** 	     const allocator_type& __a = allocator_type())
 366:/usr/include/c++/4.8/bits/stl_vector.h ****       : _Base(__a)
 367:/usr/include/c++/4.8/bits/stl_vector.h ****       {
 368:/usr/include/c++/4.8/bits/stl_vector.h **** 	_M_range_initialize(__l.begin(), __l.end(),
 369:/usr/include/c++/4.8/bits/stl_vector.h **** 			    random_access_iterator_tag());
 370:/usr/include/c++/4.8/bits/stl_vector.h ****       }
 371:/usr/include/c++/4.8/bits/stl_vector.h **** #endif
