   1              		.file	"TestXmlTestReporter.cpp"
   2              		.text
   3              	.Ltext0:
   4              		.section	.rodata
   5              	.LC0:
   6 0000 44656661 		.string	"DefaultSuite"
   6      756C7453 
   6      75697465 
   6      00
   7              		.section	.text._ZN13UnitTestSuite12GetSuiteNameEv,"axG",@progbits,_ZN13UnitTestSuite12GetSuiteName
   8              		.weak	_ZN13UnitTestSuite12GetSuiteNameEv
  10              	_ZN13UnitTestSuite12GetSuiteNameEv:
  11              	.LFB0:
  12              		.file 1 "../TestSuite.h"
   1:../TestSuite.h **** #ifndef UNITTEST_TESTSUITE_H
   2:../TestSuite.h **** #define UNITTEST_TESTSUITE_H
   3:../TestSuite.h **** 
   4:../TestSuite.h **** namespace UnitTestSuite {
   5:../TestSuite.h **** 
   6:../TestSuite.h ****     inline char const* GetSuiteName ()
   7:../TestSuite.h ****     {
  13              		.loc 1 7 0
  14              		.cfi_startproc
  15 0000 55       		pushq	%rbp
  16              		.cfi_def_cfa_offset 16
  17              		.cfi_offset 6, -16
  18 0001 4889E5   		movq	%rsp, %rbp
  19              		.cfi_def_cfa_register 6
   8:../TestSuite.h ****         return "DefaultSuite";
  20              		.loc 1 8 0
  21 0004 B8000000 		movl	$.LC0, %eax
  21      00
   9:../TestSuite.h ****     }
  22              		.loc 1 9 0
  23 0009 5D       		popq	%rbp
  24              		.cfi_def_cfa 7, 8
  25 000a C3       		ret
  26              		.cfi_endproc
  27              	.LFE0:
  29              		.section	.text._ZN8UnitTest15MemoryOutStreamC1Ev,"axG",@progbits,_ZN8UnitTest15MemoryOutStreamC1Ev
  30              		.align 2
  31              		.weak	_ZN8UnitTest15MemoryOutStreamC1Ev
  33              	_ZN8UnitTest15MemoryOutStreamC1Ev:
  34              	.LFB1007:
  35              		.file 2 "../MemoryOutStream.h"
   1:../MemoryOutStream.h **** #ifndef UNITTEST_MEMORYOUTSTREAM_H
   2:../MemoryOutStream.h **** #define UNITTEST_MEMORYOUTSTREAM_H
   3:../MemoryOutStream.h **** 
   4:../MemoryOutStream.h **** #include "Config.h"
   5:../MemoryOutStream.h **** 
   6:../MemoryOutStream.h **** #ifndef UNITTEST_USE_CUSTOM_STREAMS
   7:../MemoryOutStream.h **** 
   8:../MemoryOutStream.h **** #include <sstream>
   9:../MemoryOutStream.h **** 
  10:../MemoryOutStream.h **** namespace UnitTest
  11:../MemoryOutStream.h **** {
  12:../MemoryOutStream.h **** 
  13:../MemoryOutStream.h **** class MemoryOutStream : public std::ostringstream
  14:../MemoryOutStream.h **** {
  15:../MemoryOutStream.h **** public:
  16:../MemoryOutStream.h ****     MemoryOutStream() {}
  36              		.loc 2 16 0
  37              		.cfi_startproc
  38              		.cfi_personality 0x3,__gxx_personality_v0
  39              		.cfi_lsda 0x3,.LLSDA1007
  40 0000 55       		pushq	%rbp
  41              		.cfi_def_cfa_offset 16
  42              		.cfi_offset 6, -16
  43 0001 4889E5   		movq	%rsp, %rbp
  44              		.cfi_def_cfa_register 6
  45 0004 53       		pushq	%rbx
  46 0005 4883EC18 		subq	$24, %rsp
  47              		.cfi_offset 3, -24
  48 0009 48897DE8 		movq	%rdi, -24(%rbp)
  49              	.LBB2:
  50              		.loc 2 16 0
  51 000d 488B45E8 		movq	-24(%rbp), %rax
  52 0011 4883C060 		addq	$96, %rax
  53 0015 4889C7   		movq	%rax, %rdi
  54              	.LEHB0:
  55 0018 E8000000 		call	_ZNSt9basic_iosIcSt11char_traitsIcEEC2Ev
  55      00
  56              	.LEHE0:
  57 001d B9000000 		movl	$_ZTTN8UnitTest15MemoryOutStreamE+8, %ecx
  57      00
  58 0022 488B45E8 		movq	-24(%rbp), %rax
  59 0026 BA100000 		movl	$16, %edx
  59      00
  60 002b 4889CE   		movq	%rcx, %rsi
  61 002e 4889C7   		movq	%rax, %rdi
  62              	.LEHB1:
  63 0031 E8000000 		call	_ZNSt19basic_ostringstreamIcSt11char_traitsIcESaIcEEC2ESt13_Ios_Openmode
  63      00
  64              	.LEHE1:
  65              		.loc 2 16 0 is_stmt 0 discriminator 6
  66 0036 BA000000 		movl	$_ZTVN8UnitTest15MemoryOutStreamE+24, %edx
  66      00
  67 003b 488B45E8 		movq	-24(%rbp), %rax
  68 003f 488910   		movq	%rdx, (%rax)
  69 0042 BA600000 		movl	$96, %edx
  69      00
  70 0047 488B45E8 		movq	-24(%rbp), %rax
  71 004b 4801C2   		addq	%rax, %rdx
  72 004e B8000000 		movl	$_ZTVN8UnitTest15MemoryOutStreamE+64, %eax
  72      00
  73 0053 488902   		movq	%rax, (%rdx)
  74 0056 488B45E8 		movq	-24(%rbp), %rax
  75 005a 4883C058 		addq	$88, %rax
  76 005e 4889C7   		movq	%rax, %rdi
  77              	.LEHB2:
  78 0061 E8000000 		call	_ZNSsC1Ev
  78      00
  79              	.LEHE2:
  80              	.LBE2:
  81              		.loc 2 16 0
  82 0066 EB37     		jmp	.L8
  83              	.L6:
  84 0068 4889C3   		movq	%rax, %rbx
  85              	.LBB3:
  86 006b BA000000 		movl	$_ZTTN8UnitTest15MemoryOutStreamE+8, %edx
  86      00
  87 0070 488B45E8 		movq	-24(%rbp), %rax
  88 0074 4889D6   		movq	%rdx, %rsi
  89 0077 4889C7   		movq	%rax, %rdi
  90 007a E8000000 		call	_ZNSt19basic_ostringstreamIcSt11char_traitsIcESaIcEED2Ev
  90      00
  91 007f EB03     		jmp	.L5
  92              	.L7:
  93 0081 4889C3   		movq	%rax, %rbx
  94              	.L5:
  95              		.loc 2 16 0 discriminator 19
  96 0084 488B45E8 		movq	-24(%rbp), %rax
  97 0088 4883C060 		addq	$96, %rax
  98 008c 4889C7   		movq	%rax, %rdi
  99 008f E8000000 		call	_ZNSt9basic_iosIcSt11char_traitsIcEED2Ev
  99      00
 100 0094 4889D8   		movq	%rbx, %rax
 101 0097 4889C7   		movq	%rax, %rdi
 102              	.LEHB3:
 103 009a E8000000 		call	_Unwind_Resume
 103      00
 104              	.LEHE3:
 105              	.L8:
 106              	.LBE3:
 107              		.loc 2 16 0
 108 009f 4883C418 		addq	$24, %rsp
 109 00a3 5B       		popq	%rbx
 110 00a4 5D       		popq	%rbp
 111              		.cfi_def_cfa 7, 8
 112 00a5 C3       		ret
 113              		.cfi_endproc
 114              	.LFE1007:
 115              		.globl	__gxx_personality_v0
 116              		.section	.gcc_except_table._ZN8UnitTest15MemoryOutStreamC1Ev,"aG",@progbits,_ZN8UnitTest15MemoryOu
 117              	.LLSDA1007:
 118 0000 FF       		.byte	0xff
 119 0001 FF       		.byte	0xff
 120 0002 01       		.byte	0x1
 121 0003 12       		.uleb128 .LLSDACSE1007-.LLSDACSB1007
 122              	.LLSDACSB1007:
 123 0004 18       		.uleb128 .LEHB0-.LFB1007
 124 0005 05       		.uleb128 .LEHE0-.LEHB0
 125 0006 00       		.uleb128 0
 126 0007 00       		.uleb128 0
 127 0008 31       		.uleb128 .LEHB1-.LFB1007
 128 0009 05       		.uleb128 .LEHE1-.LEHB1
 129 000a 8101     		.uleb128 .L7-.LFB1007
 130 000c 00       		.uleb128 0
 131 000d 61       		.uleb128 .LEHB2-.LFB1007
 132 000e 05       		.uleb128 .LEHE2-.LEHB2
 133 000f 68       		.uleb128 .L6-.LFB1007
 134 0010 00       		.uleb128 0
 135 0011 9A01     		.uleb128 .LEHB3-.LFB1007
 136 0013 05       		.uleb128 .LEHE3-.LEHB3
 137 0014 00       		.uleb128 0
 138 0015 00       		.uleb128 0
 139              	.LLSDACSE1007:
 140              		.section	.text._ZN8UnitTest15MemoryOutStreamC1Ev,"axG",@progbits,_ZN8UnitTest15MemoryOutStreamC1Ev
 142              		.text
 143              		.align 2
 145              	_ZN12_GLOBAL__N_122XmlTestReporterFixtureC2Ev:
 146              	.LFB1281:
 147              		.file 3 "TestXmlTestReporter.cpp"
   1:TestXmlTestReporter.cpp **** #include "../UnitTest++.h"
   2:TestXmlTestReporter.cpp **** #include "../XmlTestReporter.h"
   3:TestXmlTestReporter.cpp **** 
   4:TestXmlTestReporter.cpp **** #include <sstream>
   5:TestXmlTestReporter.cpp **** 
   6:TestXmlTestReporter.cpp **** using namespace UnitTest;
   7:TestXmlTestReporter.cpp **** using std::ostringstream;
   8:TestXmlTestReporter.cpp **** 
   9:TestXmlTestReporter.cpp **** namespace
  10:TestXmlTestReporter.cpp **** {
  11:TestXmlTestReporter.cpp **** 
  12:TestXmlTestReporter.cpp **** #ifdef UNITTEST_USE_CUSTOM_STREAMS
  13:TestXmlTestReporter.cpp **** 
  14:TestXmlTestReporter.cpp **** // Overload to let MemoryOutStream accept std::string
  15:TestXmlTestReporter.cpp **** MemoryOutStream& operator<<(MemoryOutStream& s, const std::string& value)
  16:TestXmlTestReporter.cpp **** {
  17:TestXmlTestReporter.cpp ****     s << value.c_str();
  18:TestXmlTestReporter.cpp ****     return s;
  19:TestXmlTestReporter.cpp **** }
  20:TestXmlTestReporter.cpp **** 
  21:TestXmlTestReporter.cpp **** #endif
  22:TestXmlTestReporter.cpp **** 
  23:TestXmlTestReporter.cpp **** struct XmlTestReporterFixture
  24:TestXmlTestReporter.cpp **** {
  25:TestXmlTestReporter.cpp ****     XmlTestReporterFixture()
 148              		.loc 3 25 0 is_stmt 1
 149              		.cfi_startproc
 150              		.cfi_personality 0x3,__gxx_personality_v0
 151              		.cfi_lsda 0x3,.LLSDA1281
 152 0000 55       		pushq	%rbp
 153              		.cfi_def_cfa_offset 16
 154              		.cfi_offset 6, -16
 155 0001 4889E5   		movq	%rsp, %rbp
 156              		.cfi_def_cfa_register 6
 157 0004 53       		pushq	%rbx
 158 0005 4883EC18 		subq	$24, %rsp
 159              		.cfi_offset 3, -24
 160 0009 48897DE8 		movq	%rdi, -24(%rbp)
 161              	.LBB4:
  26:TestXmlTestReporter.cpp ****         : reporter(output)
 162              		.loc 3 26 0
 163 000d 488B45E8 		movq	-24(%rbp), %rax
 164 0011 BE100000 		movl	$16, %esi
 164      00
 165 0016 4889C7   		movq	%rax, %rdi
 166              	.LEHB4:
 167 0019 E8000000 		call	_ZNSt19basic_ostringstreamIcSt11char_traitsIcESaIcEEC1ESt13_Ios_Openmode
 167      00
 168              	.LEHE4:
 169 001e 488B45E8 		movq	-24(%rbp), %rax
 170 0022 488B55E8 		movq	-24(%rbp), %rdx
 171 0026 4881C260 		addq	$352, %rdx
 171      010000
 172 002d 4889C6   		movq	%rax, %rsi
 173 0030 4889D7   		movq	%rdx, %rdi
 174              	.LEHB5:
 175 0033 E8000000 		call	_ZN8UnitTest15XmlTestReporterC1ERSo
 175      00
 176              	.LEHE5:
 177              	.LBE4:
  27:TestXmlTestReporter.cpp ****     {
  28:TestXmlTestReporter.cpp ****     }
 178              		.loc 3 28 0
 179 0038 EB1A     		jmp	.L12
 180              	.L11:
 181 003a 4889C3   		movq	%rax, %rbx
 182              	.LBB5:
  26:TestXmlTestReporter.cpp ****         : reporter(output)
 183              		.loc 3 26 0
 184 003d 488B45E8 		movq	-24(%rbp), %rax
 185 0041 4889C7   		movq	%rax, %rdi
 186 0044 E8000000 		call	_ZNSt19basic_ostringstreamIcSt11char_traitsIcESaIcEED1Ev
 186      00
 187 0049 4889D8   		movq	%rbx, %rax
 188 004c 4889C7   		movq	%rax, %rdi
 189              	.LEHB6:
 190 004f E8000000 		call	_Unwind_Resume
 190      00
 191              	.LEHE6:
 192              	.L12:
 193              	.LBE5:
 194              		.loc 3 28 0
 195 0054 4883C418 		addq	$24, %rsp
 196 0058 5B       		popq	%rbx
 197 0059 5D       		popq	%rbp
 198              		.cfi_def_cfa 7, 8
 199 005a C3       		ret
 200              		.cfi_endproc
 201              	.LFE1281:
 202              		.section	.gcc_except_table,"a",@progbits
 203              	.LLSDA1281:
 204 0000 FF       		.byte	0xff
 205 0001 FF       		.byte	0xff
 206 0002 01       		.byte	0x1
 207 0003 0C       		.uleb128 .LLSDACSE1281-.LLSDACSB1281
 208              	.LLSDACSB1281:
 209 0004 19       		.uleb128 .LEHB4-.LFB1281
 210 0005 05       		.uleb128 .LEHE4-.LEHB4
 211 0006 00       		.uleb128 0
 212 0007 00       		.uleb128 0
 213 0008 33       		.uleb128 .LEHB5-.LFB1281
 214 0009 05       		.uleb128 .LEHE5-.LEHB5
 215 000a 3A       		.uleb128 .L11-.LFB1281
 216 000b 00       		.uleb128 0
 217 000c 4F       		.uleb128 .LEHB6-.LFB1281
 218 000d 05       		.uleb128 .LEHE6-.LEHB6
 219 000e 00       		.uleb128 0
 220 000f 00       		.uleb128 0
 221              	.LLSDACSE1281:
 222              		.text
 224 005b 90       		.align 2
 226              	_ZN12_GLOBAL__N_122XmlTestReporterFixtureD2Ev:
 227              	.LFB1285:
  23:TestXmlTestReporter.cpp **** {
 228              		.loc 3 23 0
 229              		.cfi_startproc
 230              		.cfi_personality 0x3,__gxx_personality_v0
 231              		.cfi_lsda 0x3,.LLSDA1285
 232 005c 55       		pushq	%rbp
 233              		.cfi_def_cfa_offset 16
 234              		.cfi_offset 6, -16
 235 005d 4889E5   		movq	%rsp, %rbp
 236              		.cfi_def_cfa_register 6
 237 0060 53       		pushq	%rbx
 238 0061 4883EC18 		subq	$24, %rsp
 239              		.cfi_offset 3, -24
 240 0065 48897DE8 		movq	%rdi, -24(%rbp)
 241              	.LBB6:
  23:TestXmlTestReporter.cpp **** {
 242              		.loc 3 23 0
 243 0069 488B45E8 		movq	-24(%rbp), %rax
 244 006d 48056001 		addq	$352, %rax
 244      0000
 245 0073 4889C7   		movq	%rax, %rdi
 246              	.LEHB7:
 247 0076 E8000000 		call	_ZN8UnitTest15XmlTestReporterD1Ev
 247      00
 248              	.LEHE7:
  23:TestXmlTestReporter.cpp **** {
 249              		.loc 3 23 0 is_stmt 0 discriminator 1
 250 007b 488B45E8 		movq	-24(%rbp), %rax
 251 007f 4889C7   		movq	%rax, %rdi
 252              	.LEHB8:
 253 0082 E8000000 		call	_ZNSt19basic_ostringstreamIcSt11char_traitsIcESaIcEED1Ev
 253      00
 254              	.LEHE8:
 255 0087 EB1A     		jmp	.L17
 256              	.L16:
 257 0089 4889C3   		movq	%rax, %rbx
  23:TestXmlTestReporter.cpp **** {
 258              		.loc 3 23 0
 259 008c 488B45E8 		movq	-24(%rbp), %rax
 260 0090 4889C7   		movq	%rax, %rdi
 261 0093 E8000000 		call	_ZNSt19basic_ostringstreamIcSt11char_traitsIcESaIcEED1Ev
 261      00
 262 0098 4889D8   		movq	%rbx, %rax
 263 009b 4889C7   		movq	%rax, %rdi
 264              	.LEHB9:
 265 009e E8000000 		call	_Unwind_Resume
 265      00
 266              	.LEHE9:
 267              	.L17:
 268              	.LBE6:
 269 00a3 4883C418 		addq	$24, %rsp
 270 00a7 5B       		popq	%rbx
 271 00a8 5D       		popq	%rbp
 272              		.cfi_def_cfa 7, 8
 273 00a9 C3       		ret
 274              		.cfi_endproc
 275              	.LFE1285:
 276              		.section	.gcc_except_table
 277              	.LLSDA1285:
 278 0010 FF       		.byte	0xff
 279 0011 FF       		.byte	0xff
 280 0012 01       		.byte	0x1
 281 0013 0C       		.uleb128 .LLSDACSE1285-.LLSDACSB1285
 282              	.LLSDACSB1285:
 283 0014 1A       		.uleb128 .LEHB7-.LFB1285
 284 0015 05       		.uleb128 .LEHE7-.LEHB7
 285 0016 2D       		.uleb128 .L16-.LFB1285
 286 0017 00       		.uleb128 0
 287 0018 26       		.uleb128 .LEHB8-.LFB1285
 288 0019 05       		.uleb128 .LEHE8-.LEHB8
 289 001a 00       		.uleb128 0
 290 001b 00       		.uleb128 0
 291 001c 42       		.uleb128 .LEHB9-.LFB1285
 292 001d 05       		.uleb128 .LEHE9-.LEHB9
 293 001e 00       		.uleb128 0
 294 001f 00       		.uleb128 0
 295              	.LLSDACSE1285:
 296              		.text
 298              		.align 2
 300              	_ZN12_GLOBAL__N_156XmlTestReporterFixtureMultipleCharactersAreEscapedHelperC2ERKN8UnitTest11TestDet
 301              	.LFB1287:
  29:TestXmlTestReporter.cpp **** 
  30:TestXmlTestReporter.cpp ****     ostringstream output;
  31:TestXmlTestReporter.cpp ****     XmlTestReporter reporter;
  32:TestXmlTestReporter.cpp **** };
  33:TestXmlTestReporter.cpp **** 
  34:TestXmlTestReporter.cpp **** TEST_FIXTURE(XmlTestReporterFixture, MultipleCharactersAreEscaped)
 302              		.loc 3 34 0 is_stmt 1
 303              		.cfi_startproc
 304 00aa 55       		pushq	%rbp
 305              		.cfi_def_cfa_offset 16
 306              		.cfi_offset 6, -16
 307 00ab 4889E5   		movq	%rsp, %rbp
 308              		.cfi_def_cfa_register 6
 309 00ae 4883EC10 		subq	$16, %rsp
 310 00b2 48897DF8 		movq	%rdi, -8(%rbp)
 311 00b6 488975F0 		movq	%rsi, -16(%rbp)
 312              	.LBB7:
 313              		.loc 3 34 0
 314 00ba 488B45F8 		movq	-8(%rbp), %rax
 315 00be 4889C7   		movq	%rax, %rdi
 316 00c1 E83AFFFF 		call	_ZN12_GLOBAL__N_122XmlTestReporterFixtureC2Ev
 316      FF
 317 00c6 488B45F8 		movq	-8(%rbp), %rax
 318 00ca 488B55F0 		movq	-16(%rbp), %rdx
 319 00ce 48899088 		movq	%rdx, 392(%rax)
 319      010000
 320              	.LBE7:
 321 00d5 C9       		leave
 322              		.cfi_def_cfa 7, 8
 323 00d6 C3       		ret
 324              		.cfi_endproc
 325              	.LFE1287:
 327              		.set	_ZN12_GLOBAL__N_156XmlTestReporterFixtureMultipleCharactersAreEscapedHelperC1ERKN8UnitTest11T
 328              		.section	.rodata
 329              	.LC1:
 330 000d 54657374 		.string	"TestXmlTestReporter.cpp"
 330      586D6C54 
 330      65737452 
 330      65706F72 
 330      7465722E 
 331              	.LC2:
 332 0025 4D756C74 		.string	"MultipleCharactersAreEscaped"
 332      69706C65 
 332      43686172 
 332      61637465 
 332      72734172 
 333              		.text
 334 00d7 90       		.align 2
 336              	_ZN12_GLOBAL__N_154TestXmlTestReporterFixtureMultipleCharactersAreEscapedC2Ev:
 337              	.LFB1290:
 338              		.loc 3 34 0
 339              		.cfi_startproc
 340 00d8 55       		pushq	%rbp
 341              		.cfi_def_cfa_offset 16
 342              		.cfi_offset 6, -16
 343 00d9 4889E5   		movq	%rsp, %rbp
 344              		.cfi_def_cfa_register 6
 345 00dc 4883EC10 		subq	$16, %rsp
 346 00e0 48897DF8 		movq	%rdi, -8(%rbp)
 347              	.LBB8:
 348              		.loc 3 34 0
 349 00e4 E8000000 		call	_ZN13UnitTestSuite12GetSuiteNameEv
 349      00
 350 00e9 4889C2   		movq	%rax, %rdx
 351 00ec 488B45F8 		movq	-8(%rbp), %rax
 352 00f0 41B82200 		movl	$34, %r8d
 352      0000
 353 00f6 B9000000 		movl	$.LC1, %ecx
 353      00
 354 00fb BE000000 		movl	$.LC2, %esi
 354      00
 355 0100 4889C7   		movq	%rax, %rdi
 356 0103 E8000000 		call	_ZN8UnitTest4TestC2EPKcS2_S2_i
 356      00
 357 0108 488B45F8 		movq	-8(%rbp), %rax
 358 010c 48C70000 		movq	$_ZTVN12_GLOBAL__N_154TestXmlTestReporterFixtureMultipleCharactersAreEscapedE+16, (%rax)
 358      000000
 359              	.LBE8:
 360 0113 C9       		leave
 361              		.cfi_def_cfa 7, 8
 362 0114 C3       		ret
 363              		.cfi_endproc
 364              	.LFE1290:
 366              		.set	_ZN12_GLOBAL__N_154TestXmlTestReporterFixtureMultipleCharactersAreEscapedC1Ev,_ZN12_GLOBAL__N
 367              		.local	_ZN12_GLOBAL__N_162testXmlTestReporterFixtureMultipleCharactersAreEscapedInstanceE
 368              		.comm	_ZN12_GLOBAL__N_162testXmlTestReporterFixtureMultipleCharactersAreEscapedInstanceE,56,32
 369              		.local	_ZN12_GLOBAL__N_155adderXmlTestReporterFixtureMultipleCharactersAreEscapedE
 370              		.comm	_ZN12_GLOBAL__N_155adderXmlTestReporterFixtureMultipleCharactersAreEscapedE,1,1
 371 0115 90       		.align 2
 373              	_ZN12_GLOBAL__N_156XmlTestReporterFixtureMultipleCharactersAreEscapedHelperD2Ev:
 374              	.LFB1294:
 375              		.loc 3 34 0
 376              		.cfi_startproc
 377 0116 55       		pushq	%rbp
 378              		.cfi_def_cfa_offset 16
 379              		.cfi_offset 6, -16
 380 0117 4889E5   		movq	%rsp, %rbp
 381              		.cfi_def_cfa_register 6
 382 011a 4883EC10 		subq	$16, %rsp
 383 011e 48897DF8 		movq	%rdi, -8(%rbp)
 384              	.LBB9:
 385              		.loc 3 34 0
 386 0122 488B45F8 		movq	-8(%rbp), %rax
 387 0126 4889C7   		movq	%rax, %rdi
 388 0129 E82EFFFF 		call	_ZN12_GLOBAL__N_122XmlTestReporterFixtureD2Ev
 388      FF
 389              	.LBE9:
 390 012e C9       		leave
 391              		.cfi_def_cfa 7, 8
 392 012f C3       		ret
 393              		.cfi_endproc
 394              	.LFE1294:
 396              		.set	_ZN12_GLOBAL__N_156XmlTestReporterFixtureMultipleCharactersAreEscapedHelperD1Ev,_ZN12_GLOBAL_
 397              		.section	.rodata
 398              	.LC3:
 399 0042 556E6861 		.string	"Unhandled exception: "
 399      6E646C65 
 399      64206578 
 399      63657074 
 399      696F6E3A 
 400              		.align 8
 401              	.LC4:
 402 0058 556E6861 		.string	"Unhandled exception while destroying fixture XmlTestReporterFixture"
 402      6E646C65 
 402      64206578 
 402      63657074 
 402      696F6E20 
 403 009c 00000000 		.align 8
 404              	.LC5:
 405 00a0 556E6861 		.string	"Unhandled exception while constructing fixture XmlTestReporterFixture"
 405      6E646C65 
 405      64206578 
 405      63657074 
 405      696F6E20 
 406              		.text
 407              		.align 2
 409              	_ZNK12_GLOBAL__N_154TestXmlTestReporterFixtureMultipleCharactersAreEscaped7RunImplEv:
 410              	.LFB1292:
 411              		.loc 3 34 0
 412              		.cfi_startproc
 413              		.cfi_personality 0x3,__gxx_personality_v0
 414              		.cfi_lsda 0x3,.LLSDA1292
 415 0130 55       		pushq	%rbp
 416              		.cfi_def_cfa_offset 16
 417              		.cfi_offset 6, -16
 418 0131 4889E5   		movq	%rsp, %rbp
 419              		.cfi_def_cfa_register 6
 420 0134 4154     		pushq	%r12
 421 0136 53       		pushq	%rbx
 422 0137 4881ECC0 		subq	$448, %rsp
 422      010000
 423              		.cfi_offset 12, -24
 424              		.cfi_offset 3, -32
 425 013e 4889BD38 		movq	%rdi, -456(%rbp)
 425      FEFFFF
 426              	.LBB10:
 427              		.loc 3 34 0
 428 0145 C6854FFE 		movb	$0, -433(%rbp)
 428      FFFF00
 429              	.LBB11:
 430 014c 488B8538 		movq	-456(%rbp), %rax
 430      FEFFFF
 431 0153 488D5008 		leaq	8(%rax), %rdx
 432 0157 488D8560 		leaq	-416(%rbp), %rax
 432      FEFFFF
 433 015e 4889D6   		movq	%rdx, %rsi
 434 0161 4889C7   		movq	%rax, %rdi
 435              	.LEHB10:
 436 0164 E841FFFF 		call	_ZN12_GLOBAL__N_156XmlTestReporterFixtureMultipleCharactersAreEscapedHelperC1ERKN8UnitTest11T
 436      FF
 437              	.LEHE10:
 438              		.loc 3 34 0 is_stmt 0 discriminator 1
 439 0169 C6854FFE 		movb	$1, -433(%rbp)
 439      FFFF01
 440 0170 488B8538 		movq	-456(%rbp), %rax
 440      FEFFFF
 441 0177 488D5008 		leaq	8(%rax), %rdx
 442 017b 488D8560 		leaq	-416(%rbp), %rax
 442      FEFFFF
 443 0182 4889D6   		movq	%rdx, %rsi
 444 0185 4889C7   		movq	%rax, %rdi
 445              	.LEHB11:
 446 0188 E8992700 		call	_ZN8UnitTest11ExecuteTestIN12_GLOBAL__N_156XmlTestReporterFixtureMultipleCharactersAreEscaped
 446      00
 447              	.LEHE11:
 448 018d 488D8560 		leaq	-416(%rbp), %rax
 448      FEFFFF
 449 0194 4889C7   		movq	%rax, %rdi
 450              	.LEHB12:
 451 0197 E87AFFFF 		call	_ZN12_GLOBAL__N_156XmlTestReporterFixtureMultipleCharactersAreEscapedHelperD1Ev
 451      FF
 452              	.LEHE12:
 453              	.LBE11:
 454              	.LBE10:
 455              		.loc 3 34 0
 456 019c E9640200 		jmp	.L42
 456      00
 457              	.L36:
 458 01a1 4989C4   		movq	%rax, %r12
 459 01a4 4889D3   		movq	%rdx, %rbx
 460              	.LBB19:
 461              	.LBB12:
 462 01a7 488D8560 		leaq	-416(%rbp), %rax
 462      FEFFFF
 463 01ae 4889C7   		movq	%rax, %rdi
 464 01b1 E860FFFF 		call	_ZN12_GLOBAL__N_156XmlTestReporterFixtureMultipleCharactersAreEscapedHelperD1Ev
 464      FF
 465 01b6 4C89E0   		movq	%r12, %rax
 466 01b9 4889DA   		movq	%rbx, %rdx
 467 01bc EB00     		jmp	.L24
 468              	.L35:
 469              	.L24:
 470 01be 4883FA01 		cmpq	$1, %rdx
 471 01c2 745C     		je	.L26
 472 01c4 4883FA02 		cmpq	$2, %rdx
 473 01c8 0F84F400 		je	.L27
 473      0000
 474 01ce E9980100 		jmp	.L41
 474      00
 475              	.L37:
 476 01d3 4889C3   		movq	%rax, %rbx
 477              	.LBE12:
 478              	.LBB13:
 479 01d6 E8000000 		call	__cxa_end_catch
 479      00
 480 01db 4889D8   		movq	%rbx, %rax
 481 01de 4889C7   		movq	%rax, %rdi
 482              	.LEHB13:
 483 01e1 E8000000 		call	_Unwind_Resume
 483      00
 484              	.LEHE13:
 485              	.L38:
 486 01e6 4889C3   		movq	%rax, %rbx
 487              	.LBE13:
 488              	.LBB14:
 489              	.LBB15:
 490 01e9 488D8560 		leaq	-416(%rbp), %rax
 490      FEFFFF
 491 01f0 4889C7   		movq	%rax, %rdi
 492 01f3 E8000000 		call	_ZN8UnitTest15MemoryOutStreamD1Ev
 492      00
 493 01f8 EB03     		jmp	.L30
 494              	.L39:
 495 01fa 4889C3   		movq	%rax, %rbx
 496              	.L30:
 497              	.LBE15:
 498 01fd E8000000 		call	__cxa_end_catch
 498      00
 499 0202 4889D8   		movq	%rbx, %rax
 500 0205 4889C7   		movq	%rax, %rdi
 501              	.LEHB14:
 502 0208 E8000000 		call	_Unwind_Resume
 502      00
 503              	.LEHE14:
 504              	.L40:
 505 020d 4889C3   		movq	%rax, %rbx
 506              	.LBE14:
 507 0210 E8000000 		call	__cxa_end_catch
 507      00
 508 0215 4889D8   		movq	%rbx, %rax
 509 0218 4889C7   		movq	%rax, %rdi
 510              	.LEHB15:
 511 021b E8000000 		call	_Unwind_Resume
 511      00
 512              	.LEHE15:
 513              	.L26:
 514              	.LBB17:
 515 0220 4889C7   		movq	%rax, %rdi
 516 0223 E8000000 		call	__cxa_begin_catch
 516      00
 517 0228 48898550 		movq	%rax, -432(%rbp)
 517      FEFFFF
 518 022f 488B8550 		movq	-432(%rbp), %rax
 518      FEFFFF
 519 0236 488B00   		movq	(%rax), %rax
 520 0239 4883C010 		addq	$16, %rax
 521 023d 488B00   		movq	(%rax), %rax
 522 0240 488B9550 		movq	-432(%rbp), %rdx
 522      FEFFFF
 523 0247 4889D7   		movq	%rdx, %rdi
 524 024a FFD0     		call	*%rax
 525 024c 4889C3   		movq	%rax, %rbx
 526 024f 488B8550 		movq	-432(%rbp), %rax
 526      FEFFFF
 527 0256 4889C7   		movq	%rax, %rdi
 528              	.LEHB16:
 529 0259 E8000000 		call	_ZNK8UnitTest15AssertException10LineNumberEv
 529      00
 530 025e 4189C4   		movl	%eax, %r12d
 531 0261 488B8550 		movq	-432(%rbp), %rax
 531      FEFFFF
 532 0268 4889C7   		movq	%rax, %rdi
 533 026b E8000000 		call	_ZNK8UnitTest15AssertException8FilenameEv
 533      00
 534              		.loc 3 34 0 discriminator 1
 535 0270 4889C1   		movq	%rax, %rcx
 536 0273 488B8538 		movq	-456(%rbp), %rax
 536      FEFFFF
 537 027a 488B5008 		movq	8(%rax), %rdx
 538 027e 488B8538 		movq	-456(%rbp), %rax
 538      FEFFFF
 539 0285 488B7010 		movq	16(%rax), %rsi
 540 0289 488D8560 		leaq	-416(%rbp), %rax
 540      FEFFFF
 541 0290 4589E0   		movl	%r12d, %r8d
 542 0293 4889C7   		movq	%rax, %rdi
 543 0296 E8000000 		call	_ZN8UnitTest11TestDetailsC1EPKcS2_S2_i
 543      00
 544              		.loc 3 34 0 discriminator 3
 545 029b E8000000 		call	_ZN8UnitTest11CurrentTest7ResultsEv
 545      00
 546 02a0 488B00   		movq	(%rax), %rax
 547 02a3 488D8D60 		leaq	-416(%rbp), %rcx
 547      FEFFFF
 548 02aa 4889DA   		movq	%rbx, %rdx
 549 02ad 4889CE   		movq	%rcx, %rsi
 550 02b0 4889C7   		movq	%rax, %rdi
 551 02b3 E8000000 		call	_ZN8UnitTest11TestResults13OnTestFailureERKNS_11TestDetailsEPKc
 551      00
 552              	.LEHE16:
 553              		.loc 3 34 0 discriminator 1
 554 02b8 E8000000 		call	__cxa_end_catch
 554      00
 555              	.LBE17:
 556              	.LBE19:
 557 02bd E9430100 		jmp	.L42
 557      00
 558              	.L27:
 559              	.LBB20:
 560              	.LBB18:
 561              		.loc 3 34 0
 562 02c2 4889C7   		movq	%rax, %rdi
 563 02c5 E8000000 		call	__cxa_begin_catch
 563      00
 564 02ca 48898558 		movq	%rax, -424(%rbp)
 564      FEFFFF
 565              	.LBB16:
 566 02d1 488D8560 		leaq	-416(%rbp), %rax
 566      FEFFFF
 567 02d8 4889C7   		movq	%rax, %rdi
 568              	.LEHB17:
 569 02db E8000000 		call	_ZN8UnitTest15MemoryOutStreamC1Ev
 569      00
 570              	.LEHE17:
 571              		.loc 3 34 0 discriminator 1
 572 02e0 488B8558 		movq	-424(%rbp), %rax
 572      FEFFFF
 573 02e7 488B00   		movq	(%rax), %rax
 574 02ea 4883C010 		addq	$16, %rax
 575 02ee 488B00   		movq	(%rax), %rax
 576 02f1 488B9558 		movq	-424(%rbp), %rdx
 576      FEFFFF
 577 02f8 4889D7   		movq	%rdx, %rdi
 578 02fb FFD0     		call	*%rax
 579 02fd 4889C3   		movq	%rax, %rbx
 580 0300 488D8560 		leaq	-416(%rbp), %rax
 580      FEFFFF
 581 0307 BE000000 		movl	$.LC3, %esi
 581      00
 582 030c 4889C7   		movq	%rax, %rdi
 583              	.LEHB18:
 584 030f E8000000 		call	_ZStlsISt11char_traitsIcEERSt13basic_ostreamIcT_ES5_PKc
 584      00
 585 0314 4889DE   		movq	%rbx, %rsi
 586 0317 4889C7   		movq	%rax, %rdi
 587 031a E8000000 		call	_ZStlsISt11char_traitsIcEERSt13basic_ostreamIcT_ES5_PKc
 587      00
 588 031f 488D8560 		leaq	-416(%rbp), %rax
 588      FEFFFF
 589 0326 4889C7   		movq	%rax, %rdi
 590 0329 E8000000 		call	_ZNK8UnitTest15MemoryOutStream7GetTextEv
 590      00
 591 032e 4889C3   		movq	%rax, %rbx
 592 0331 488B8538 		movq	-456(%rbp), %rax
 592      FEFFFF
 593 0338 4C8D6008 		leaq	8(%rax), %r12
 594 033c E8000000 		call	_ZN8UnitTest11CurrentTest7ResultsEv
 594      00
 595 0341 488B00   		movq	(%rax), %rax
 596 0344 4889DA   		movq	%rbx, %rdx
 597 0347 4C89E6   		movq	%r12, %rsi
 598 034a 4889C7   		movq	%rax, %rdi
 599 034d E8000000 		call	_ZN8UnitTest11TestResults13OnTestFailureERKNS_11TestDetailsEPKc
 599      00
 600              	.LEHE18:
 601 0352 488D8560 		leaq	-416(%rbp), %rax
 601      FEFFFF
 602 0359 4889C7   		movq	%rax, %rdi
 603              	.LEHB19:
 604 035c E8000000 		call	_ZN8UnitTest15MemoryOutStreamD1Ev
 604      00
 605              	.LEHE19:
 606              	.LBE16:
 607              		.loc 3 34 0
 608 0361 E8000000 		call	__cxa_end_catch
 608      00
 609              	.LBE18:
 610              	.LBE20:
 611 0366 E99A0000 		jmp	.L42
 611      00
 612              	.L41:
 613              	.LBB21:
 614 036b 4889C7   		movq	%rax, %rdi
 615 036e E8000000 		call	__cxa_begin_catch
 615      00
 616 0373 80BD4FFE 		cmpb	$0, -433(%rbp)
 616      FFFF00
 617 037a 7443     		je	.L33
 618              		.loc 3 34 0 discriminator 1
 619 037c 488B8538 		movq	-456(%rbp), %rax
 619      FEFFFF
 620 0383 488D4808 		leaq	8(%rax), %rcx
 621 0387 488D8560 		leaq	-416(%rbp), %rax
 621      FEFFFF
 622 038e BA220000 		movl	$34, %edx
 622      00
 623 0393 4889CE   		movq	%rcx, %rsi
 624 0396 4889C7   		movq	%rax, %rdi
 625              	.LEHB20:
 626 0399 E8000000 		call	_ZN8UnitTest11TestDetailsC1ERKS0_i
 626      00
 627 039e E8000000 		call	_ZN8UnitTest11CurrentTest7ResultsEv
 627      00
 628 03a3 488B00   		movq	(%rax), %rax
 629 03a6 488D8D60 		leaq	-416(%rbp), %rcx
 629      FEFFFF
 630 03ad BA000000 		movl	$.LC4, %edx
 630      00
 631 03b2 4889CE   		movq	%rcx, %rsi
 632 03b5 4889C7   		movq	%rax, %rdi
 633 03b8 E8000000 		call	_ZN8UnitTest11TestResults13OnTestFailureERKNS_11TestDetailsEPKc
 633      00
 634 03bd EB41     		jmp	.L34
 635              	.L33:
 636              		.loc 3 34 0 discriminator 2
 637 03bf 488B8538 		movq	-456(%rbp), %rax
 637      FEFFFF
 638 03c6 488D4808 		leaq	8(%rax), %rcx
 639 03ca 488D8560 		leaq	-416(%rbp), %rax
 639      FEFFFF
 640 03d1 BA220000 		movl	$34, %edx
 640      00
 641 03d6 4889CE   		movq	%rcx, %rsi
 642 03d9 4889C7   		movq	%rax, %rdi
 643 03dc E8000000 		call	_ZN8UnitTest11TestDetailsC1ERKS0_i
 643      00
 644              		.loc 3 34 0 discriminator 1
 645 03e1 E8000000 		call	_ZN8UnitTest11CurrentTest7ResultsEv
 645      00
 646 03e6 488B00   		movq	(%rax), %rax
 647 03e9 488D8D60 		leaq	-416(%rbp), %rcx
 647      FEFFFF
 648 03f0 BA000000 		movl	$.LC5, %edx
 648      00
 649 03f5 4889CE   		movq	%rcx, %rsi
 650 03f8 4889C7   		movq	%rax, %rdi
 651 03fb E8000000 		call	_ZN8UnitTest11TestResults13OnTestFailureERKNS_11TestDetailsEPKc
 651      00
 652              	.LEHE20:
 653              	.L34:
 654              	.LEHB21:
 655 0400 E8000000 		call	__cxa_end_catch
 655      00
 656              	.LEHE21:
 657              	.L42:
 658              	.LBE21:
 659              		.loc 3 34 0
 660 0405 90       		nop
 661 0406 4881C4C0 		addq	$448, %rsp
 661      010000
 662 040d 5B       		popq	%rbx
 663 040e 415C     		popq	%r12
 664 0410 5D       		popq	%rbp
 665              		.cfi_def_cfa 7, 8
 666 0411 C3       		ret
 667              		.cfi_endproc
 668              	.LFE1292:
 669              		.section	.gcc_except_table
 670              		.align 4
 671              	.LLSDA1292:
 672 0020 FF       		.byte	0xff
 673 0021 03       		.byte	0x3
 674 0022 59       		.uleb128 .LLSDATT1292-.LLSDATTD1292
 675              	.LLSDATTD1292:
 676 0023 01       		.byte	0x1
 677 0024 40       		.uleb128 .LLSDACSE1292-.LLSDACSB1292
 678              	.LLSDACSB1292:
 679 0025 34       		.uleb128 .LEHB10-.LFB1292
 680 0026 05       		.uleb128 .LEHE10-.LEHB10
 681 0027 8E01     		.uleb128 .L35-.LFB1292
 682 0029 05       		.uleb128 0x5
 683 002a 58       		.uleb128 .LEHB11-.LFB1292
 684 002b 05       		.uleb128 .LEHE11-.LEHB11
 685 002c 71       		.uleb128 .L36-.LFB1292
 686 002d 07       		.uleb128 0x7
 687 002e 67       		.uleb128 .LEHB12-.LFB1292
 688 002f 05       		.uleb128 .LEHE12-.LEHB12
 689 0030 8E01     		.uleb128 .L35-.LFB1292
 690 0032 05       		.uleb128 0x5
 691 0033 B101     		.uleb128 .LEHB13-.LFB1292
 692 0035 05       		.uleb128 .LEHE13-.LEHB13
 693 0036 00       		.uleb128 0
 694 0037 00       		.uleb128 0
 695 0038 D801     		.uleb128 .LEHB14-.LFB1292
 696 003a 05       		.uleb128 .LEHE14-.LEHB14
 697 003b 00       		.uleb128 0
 698 003c 00       		.uleb128 0
 699 003d EB01     		.uleb128 .LEHB15-.LFB1292
 700 003f 05       		.uleb128 .LEHE15-.LEHB15
 701 0040 00       		.uleb128 0
 702 0041 00       		.uleb128 0
 703 0042 A902     		.uleb128 .LEHB16-.LFB1292
 704 0044 5F       		.uleb128 .LEHE16-.LEHB16
 705 0045 A301     		.uleb128 .L37-.LFB1292
 706 0047 00       		.uleb128 0
 707 0048 AB03     		.uleb128 .LEHB17-.LFB1292
 708 004a 05       		.uleb128 .LEHE17-.LEHB17
 709 004b CA01     		.uleb128 .L39-.LFB1292
 710 004d 00       		.uleb128 0
 711 004e DF03     		.uleb128 .LEHB18-.LFB1292
 712 0050 43       		.uleb128 .LEHE18-.LEHB18
 713 0051 B601     		.uleb128 .L38-.LFB1292
 714 0053 00       		.uleb128 0
 715 0054 AC04     		.uleb128 .LEHB19-.LFB1292
 716 0056 05       		.uleb128 .LEHE19-.LEHB19
 717 0057 CA01     		.uleb128 .L39-.LFB1292
 718 0059 00       		.uleb128 0
 719 005a E904     		.uleb128 .LEHB20-.LFB1292
 720 005c 67       		.uleb128 .LEHE20-.LEHB20
 721 005d DD01     		.uleb128 .L40-.LFB1292
 722 005f 00       		.uleb128 0
 723 0060 D005     		.uleb128 .LEHB21-.LFB1292
 724 0062 05       		.uleb128 .LEHE21-.LEHB21
 725 0063 00       		.uleb128 0
 726 0064 00       		.uleb128 0
 727              	.LLSDACSE1292:
 728 0065 03       		.byte	0x3
 729 0066 00       		.byte	0
 730 0067 02       		.byte	0x2
 731 0068 7D       		.byte	0x7d
 732 0069 01       		.byte	0x1
 733 006a 7D       		.byte	0x7d
 734 006b 00       		.byte	0
 735 006c 7D       		.byte	0x7d
 736 006d 000000   		.align 4
 737 0070 00000000 		.long	0
 738              	
 739 0074 00000000 		.long	_ZTISt9exception
 740 0078 00000000 		.long	_ZTIN8UnitTest15AssertExceptionE
 741              	.LLSDATT1292:
 742              		.text
 744              		.section	.rodata
 745              	.LC6:
 746 00e6 66696C65 		.string	"filename.h"
 746      6E616D65 
 746      2E6800
 747              	.LC7:
 748 00f1 73756974 		.string	"suite"
 748      6500
 749              	.LC8:
 750 00f7 54657374 		.string	"TestName"
 750      4E616D65 
 750      00
 751              	.LC9:
 752 0100 22222727 		.string	"\"\"''&&<<>>"
 752      26263C3C 
 752      3E3E00
 753 010b 00000000 		.align 8
 753      00
 754              	.LC11:
 755 0110 3C3F786D 		.string	"<?xml version=\"1.0\"?><unittest-results tests=\"1\" failedtests=\"2\" failures=\"3\" tim
 755      6C207665 
 755      7273696F 
 755      6E3D2231 
 755      2E30223F 
 756 020d 000000   		.align 8
 757              	.LC12:
 758 0210 556E6861 		.string	"Unhandled exception in CHECK_EQUAL(expected, output.str())"
 758      6E646C65 
 758      64206578 
 758      63657074 
 758      696F6E20 
 759              		.text
 760              		.align 2
 762              	_ZN12_GLOBAL__N_156XmlTestReporterFixtureMultipleCharactersAreEscapedHelper7RunImplEv:
 763              	.LFB1296:
  35:TestXmlTestReporter.cpp **** {
 764              		.loc 3 35 0 is_stmt 1
 765              		.cfi_startproc
 766              		.cfi_personality 0x3,__gxx_personality_v0
 767              		.cfi_lsda 0x3,.LLSDA1296
 768 0412 55       		pushq	%rbp
 769              		.cfi_def_cfa_offset 16
 770              		.cfi_offset 6, -16
 771 0413 4889E5   		movq	%rsp, %rbp
 772              		.cfi_def_cfa_register 6
 773 0416 53       		pushq	%rbx
 774 0417 4883EC68 		subq	$104, %rsp
 775              		.cfi_offset 3, -24
 776 041b 48897D98 		movq	%rdi, -104(%rbp)
 777              	.LBB22:
  36:TestXmlTestReporter.cpp ****     TestDetails const details("TestName", "suite", "filename.h", 4321);
 778              		.loc 3 36 0
 779 041f 488D45B0 		leaq	-80(%rbp), %rax
 780 0423 41B8E110 		movl	$4321, %r8d
 780      0000
 781 0429 B9000000 		movl	$.LC6, %ecx
 781      00
 782 042e BA000000 		movl	$.LC7, %edx
 782      00
 783 0433 BE000000 		movl	$.LC8, %esi
 783      00
 784 0438 4889C7   		movq	%rax, %rdi
 785              	.LEHB22:
 786 043b E8000000 		call	_ZN8UnitTest11TestDetailsC1EPKcS2_S2_i
 786      00
  37:TestXmlTestReporter.cpp **** 
  38:TestXmlTestReporter.cpp ****     reporter.ReportTestStart(details);
 787              		.loc 3 38 0
 788 0440 488B4598 		movq	-104(%rbp), %rax
 789 0444 488D9060 		leaq	352(%rax), %rdx
 789      010000
 790 044b 488D45B0 		leaq	-80(%rbp), %rax
 791 044f 4889C6   		movq	%rax, %rsi
 792 0452 4889D7   		movq	%rdx, %rdi
 793 0455 E8000000 		call	_ZN8UnitTest20DeferredTestReporter15ReportTestStartERKNS_11TestDetailsE
 793      00
  39:TestXmlTestReporter.cpp ****     reporter.ReportFailure(details, "\"\"\'\'&&<<>>");
 794              		.loc 3 39 0
 795 045a 488B4598 		movq	-104(%rbp), %rax
 796 045e 488D8860 		leaq	352(%rax), %rcx
 796      010000
 797 0465 488D45B0 		leaq	-80(%rbp), %rax
 798 0469 BA000000 		movl	$.LC9, %edx
 798      00
 799 046e 4889C6   		movq	%rax, %rsi
 800 0471 4889CF   		movq	%rcx, %rdi
 801 0474 E8000000 		call	_ZN8UnitTest20DeferredTestReporter13ReportFailureERKNS_11TestDetailsEPKc
 801      00
  40:TestXmlTestReporter.cpp ****     reporter.ReportTestFinish(details, 0.1f);
 802              		.loc 3 40 0
 803 0479 488B4598 		movq	-104(%rbp), %rax
 804 047d 488D9060 		leaq	352(%rax), %rdx
 804      010000
 805 0484 488D45B0 		leaq	-80(%rbp), %rax
 806 0488 F30F1005 		movss	.LC10(%rip), %xmm0
 806      00000000 
 807 0490 4889C6   		movq	%rax, %rsi
 808 0493 4889D7   		movq	%rdx, %rdi
 809 0496 E8000000 		call	_ZN8UnitTest20DeferredTestReporter16ReportTestFinishERKNS_11TestDetailsEf
 809      00
  41:TestXmlTestReporter.cpp ****     reporter.ReportSummary(1, 2, 3, 0.1f);
 810              		.loc 3 41 0
 811 049b 488B4598 		movq	-104(%rbp), %rax
 812 049f 48056001 		addq	$352, %rax
 812      0000
 813 04a5 F30F1005 		movss	.LC10(%rip), %xmm0
 813      00000000 
 814 04ad B9030000 		movl	$3, %ecx
 814      00
 815 04b2 BA020000 		movl	$2, %edx
 815      00
 816 04b7 BE010000 		movl	$1, %esi
 816      00
 817 04bc 4889C7   		movq	%rax, %rdi
 818 04bf E8000000 		call	_ZN8UnitTest15XmlTestReporter13ReportSummaryEiiif
 818      00
 819              	.LEHE22:
  42:TestXmlTestReporter.cpp **** 
  43:TestXmlTestReporter.cpp ****     char const* expected =
  44:TestXmlTestReporter.cpp ****         "<?xml version=\"1.0\"?>"
  45:TestXmlTestReporter.cpp ****         "<unittest-results tests=\"1\" failedtests=\"2\" failures=\"3\" time=\"0.1\">"
  46:TestXmlTestReporter.cpp ****         "<test suite=\"suite\" name=\"TestName\" time=\"0.1\">"
  47:TestXmlTestReporter.cpp ****         "<failure message=\"filename.h(4321) : "
  48:TestXmlTestReporter.cpp ****         "&quot;&quot;&apos;&apos;&amp;&amp;&lt;&lt;&gt;&gt;\"/>"
  49:TestXmlTestReporter.cpp ****         "</test>"
  50:TestXmlTestReporter.cpp ****         "</unittest-results>";
 820              		.loc 3 50 0
 821 04c4 48C745A8 		movq	$.LC11, -88(%rbp)
 821      00000000 
 822              	.LEHB23:
  51:TestXmlTestReporter.cpp **** 
  52:TestXmlTestReporter.cpp ****     CHECK_EQUAL(expected, output.str());
 823              		.loc 3 52 0
 824 04cc E8000000 		call	_ZN8UnitTest11CurrentTest7DetailsEv
 824      00
 825 04d1 488B08   		movq	(%rax), %rcx
 826 04d4 488D45D0 		leaq	-48(%rbp), %rax
 827 04d8 BA340000 		movl	$52, %edx
 827      00
 828 04dd 4889CE   		movq	%rcx, %rsi
 829 04e0 4889C7   		movq	%rax, %rdi
 830 04e3 E8000000 		call	_ZN8UnitTest11TestDetailsC1ERKS0_i
 830      00
 831              		.loc 3 52 0 is_stmt 0 discriminator 1
 832 04e8 488B5598 		movq	-104(%rbp), %rdx
 833 04ec 488D45A0 		leaq	-96(%rbp), %rax
 834 04f0 4889D6   		movq	%rdx, %rsi
 835 04f3 4889C7   		movq	%rax, %rdi
 836 04f6 E8000000 		call	_ZNKSt19basic_ostringstreamIcSt11char_traitsIcESaIcEE3strEv
 836      00
 837              	.LEHE23:
 838              	.LEHB24:
 839              		.loc 3 52 0 discriminator 2
 840 04fb E8000000 		call	_ZN8UnitTest11CurrentTest7ResultsEv
 840      00
 841 0500 488B00   		movq	(%rax), %rax
 842 0503 488D4DD0 		leaq	-48(%rbp), %rcx
 843 0507 488D55A0 		leaq	-96(%rbp), %rdx
 844 050b 488D75A8 		leaq	-88(%rbp), %rsi
 845 050f 4889C7   		movq	%rax, %rdi
 846 0512 E8000000 		call	_ZN8UnitTest10CheckEqualIPKcSsEEvRNS_11TestResultsERKT_RKT0_RKNS_11TestDetailsE
 846      00
 847              	.LEHE24:
 848              		.loc 3 52 0 discriminator 1
 849 0517 488D45A0 		leaq	-96(%rbp), %rax
 850 051b 4889C7   		movq	%rax, %rdi
 851              	.LEHB25:
 852 051e E8000000 		call	_ZNSsD1Ev
 852      00
 853              	.LEHE25:
 854              	.LBE22:
  53:TestXmlTestReporter.cpp **** }
 855              		.loc 3 53 0 is_stmt 1
 856 0523 EB6C     		jmp	.L51
 857              	.L49:
 858 0525 4889C3   		movq	%rax, %rbx
 859              	.LBB23:
  52:TestXmlTestReporter.cpp **** }
 860              		.loc 3 52 0
 861 0528 488D45A0 		leaq	-96(%rbp), %rax
 862 052c 4889C7   		movq	%rax, %rdi
 863 052f E8000000 		call	_ZNSsD1Ev
 863      00
 864 0534 4889D8   		movq	%rbx, %rax
 865 0537 EB13     		jmp	.L45
 866              	.L50:
 867 0539 4889C3   		movq	%rax, %rbx
 868 053c E8000000 		call	__cxa_end_catch
 868      00
 869 0541 4889D8   		movq	%rbx, %rax
 870 0544 4889C7   		movq	%rax, %rdi
 871              	.LEHB26:
 872 0547 E8000000 		call	_Unwind_Resume
 872      00
 873              	.LEHE26:
 874              	.L48:
 875              	.L45:
 876 054c 4889C7   		movq	%rax, %rdi
 877 054f E8000000 		call	__cxa_begin_catch
 877      00
 878              	.LEHB27:
 879 0554 E8000000 		call	_ZN8UnitTest11CurrentTest7DetailsEv
 879      00
 880 0559 488B08   		movq	(%rax), %rcx
 881 055c 488D45D0 		leaq	-48(%rbp), %rax
 882 0560 BA340000 		movl	$52, %edx
 882      00
 883 0565 4889CE   		movq	%rcx, %rsi
 884 0568 4889C7   		movq	%rax, %rdi
 885 056b E8000000 		call	_ZN8UnitTest11TestDetailsC1ERKS0_i
 885      00
  52:TestXmlTestReporter.cpp **** }
 886              		.loc 3 52 0 is_stmt 0 discriminator 1
 887 0570 E8000000 		call	_ZN8UnitTest11CurrentTest7ResultsEv
 887      00
 888 0575 488B00   		movq	(%rax), %rax
 889 0578 488D4DD0 		leaq	-48(%rbp), %rcx
 890 057c BA000000 		movl	$.LC12, %edx
 890      00
 891 0581 4889CE   		movq	%rcx, %rsi
 892 0584 4889C7   		movq	%rax, %rdi
 893 0587 E8000000 		call	_ZN8UnitTest11TestResults13OnTestFailureERKNS_11TestDetailsEPKc
 893      00
 894              	.LEHE27:
 895              	.LEHB28:
 896 058c E8000000 		call	__cxa_end_catch
 896      00
 897              	.LEHE28:
 898              	.L51:
 899              	.LBE23:
 900              		.loc 3 53 0 is_stmt 1
 901 0591 90       		nop
 902 0592 4883C468 		addq	$104, %rsp
 903 0596 5B       		popq	%rbx
 904 0597 5D       		popq	%rbp
 905              		.cfi_def_cfa 7, 8
 906 0598 C3       		ret
 907              		.cfi_endproc
 908              	.LFE1296:
 909              		.section	.gcc_except_table
 910              		.align 4
 911              	.LLSDA1296:
 912 007c FF       		.byte	0xff
 913 007d 03       		.byte	0x3
 914 007e 31       		.uleb128 .LLSDATT1296-.LLSDATTD1296
 915              	.LLSDATTD1296:
 916 007f 01       		.byte	0x1
 917 0080 27       		.uleb128 .LLSDACSE1296-.LLSDACSB1296
 918              	.LLSDACSB1296:
 919 0081 29       		.uleb128 .LEHB22-.LFB1296
 920 0082 8901     		.uleb128 .LEHE22-.LEHB22
 921 0084 00       		.uleb128 0
 922 0085 00       		.uleb128 0
 923 0086 BA01     		.uleb128 .LEHB23-.LFB1296
 924 0088 2F       		.uleb128 .LEHE23-.LEHB23
 925 0089 BA02     		.uleb128 .L48-.LFB1296
 926 008b 01       		.uleb128 0x1
 927 008c E901     		.uleb128 .LEHB24-.LFB1296
 928 008e 1C       		.uleb128 .LEHE24-.LEHB24
 929 008f 9302     		.uleb128 .L49-.LFB1296
 930 0091 03       		.uleb128 0x3
 931 0092 8C02     		.uleb128 .LEHB25-.LFB1296
 932 0094 05       		.uleb128 .LEHE25-.LEHB25
 933 0095 BA02     		.uleb128 .L48-.LFB1296
 934 0097 01       		.uleb128 0x1
 935 0098 B502     		.uleb128 .LEHB26-.LFB1296
 936 009a 05       		.uleb128 .LEHE26-.LEHB26
 937 009b 00       		.uleb128 0
 938 009c 00       		.uleb128 0
 939 009d C202     		.uleb128 .LEHB27-.LFB1296
 940 009f 38       		.uleb128 .LEHE27-.LEHB27
 941 00a0 A702     		.uleb128 .L50-.LFB1296
 942 00a2 00       		.uleb128 0
 943 00a3 FA02     		.uleb128 .LEHB28-.LFB1296
 944 00a5 05       		.uleb128 .LEHE28-.LEHB28
 945 00a6 00       		.uleb128 0
 946 00a7 00       		.uleb128 0
 947              	.LLSDACSE1296:
 948 00a8 01       		.byte	0x1
 949 00a9 00       		.byte	0
 950 00aa 00       		.byte	0
 951 00ab 7D       		.byte	0x7d
 952              		.align 4
 953 00ac 00000000 		.long	0
 954              	
 955              	.LLSDATT1296:
 956              		.text
 958 0599 90       		.align 2
 960              	_ZN12_GLOBAL__N_168XmlTestReporterFixtureOutputIsCachedUntilReportSummaryIsCalledHelperC2ERKN8UnitT
 961              	.LFB1298:
  54:TestXmlTestReporter.cpp **** 
  55:TestXmlTestReporter.cpp **** TEST_FIXTURE(XmlTestReporterFixture, OutputIsCachedUntilReportSummaryIsCalled)
 962              		.loc 3 55 0
 963              		.cfi_startproc
 964 059a 55       		pushq	%rbp
 965              		.cfi_def_cfa_offset 16
 966              		.cfi_offset 6, -16
 967 059b 4889E5   		movq	%rsp, %rbp
 968              		.cfi_def_cfa_register 6
 969 059e 4883EC10 		subq	$16, %rsp
 970 05a2 48897DF8 		movq	%rdi, -8(%rbp)
 971 05a6 488975F0 		movq	%rsi, -16(%rbp)
 972              	.LBB24:
 973              		.loc 3 55 0
 974 05aa 488B45F8 		movq	-8(%rbp), %rax
 975 05ae 4889C7   		movq	%rax, %rdi
 976 05b1 E84AFAFF 		call	_ZN12_GLOBAL__N_122XmlTestReporterFixtureC2Ev
 976      FF
 977 05b6 488B45F8 		movq	-8(%rbp), %rax
 978 05ba 488B55F0 		movq	-16(%rbp), %rdx
 979 05be 48899088 		movq	%rdx, 392(%rax)
 979      010000
 980              	.LBE24:
 981 05c5 C9       		leave
 982              		.cfi_def_cfa 7, 8
 983 05c6 C3       		ret
 984              		.cfi_endproc
 985              	.LFE1298:
 987              		.set	_ZN12_GLOBAL__N_168XmlTestReporterFixtureOutputIsCachedUntilReportSummaryIsCalledHelperC1ERKN
 988              		.section	.rodata
 989 024b 00000000 		.align 8
 989      00
 990              	.LC13:
 991 0250 4F757470 		.string	"OutputIsCachedUntilReportSummaryIsCalled"
 991      75744973 
 991      43616368 
 991      6564556E 
 991      74696C52 
 992              		.text
 993 05c7 90       		.align 2
 995              	_ZN12_GLOBAL__N_166TestXmlTestReporterFixtureOutputIsCachedUntilReportSummaryIsCalledC2Ev:
 996              	.LFB1301:
 997              		.loc 3 55 0
 998              		.cfi_startproc
 999 05c8 55       		pushq	%rbp
 1000              		.cfi_def_cfa_offset 16
 1001              		.cfi_offset 6, -16
 1002 05c9 4889E5   		movq	%rsp, %rbp
 1003              		.cfi_def_cfa_register 6
 1004 05cc 4883EC10 		subq	$16, %rsp
 1005 05d0 48897DF8 		movq	%rdi, -8(%rbp)
 1006              	.LBB25:
 1007              		.loc 3 55 0
 1008 05d4 E8000000 		call	_ZN13UnitTestSuite12GetSuiteNameEv
 1008      00
 1009 05d9 4889C2   		movq	%rax, %rdx
 1010 05dc 488B45F8 		movq	-8(%rbp), %rax
 1011 05e0 41B83700 		movl	$55, %r8d
 1011      0000
 1012 05e6 B9000000 		movl	$.LC1, %ecx
 1012      00
 1013 05eb BE000000 		movl	$.LC13, %esi
 1013      00
 1014 05f0 4889C7   		movq	%rax, %rdi
 1015 05f3 E8000000 		call	_ZN8UnitTest4TestC2EPKcS2_S2_i
 1015      00
 1016 05f8 488B45F8 		movq	-8(%rbp), %rax
 1017 05fc 48C70000 		movq	$_ZTVN12_GLOBAL__N_166TestXmlTestReporterFixtureOutputIsCachedUntilReportSummaryIsCalledE+16,
 1017      000000
 1018              	.LBE25:
 1019 0603 C9       		leave
 1020              		.cfi_def_cfa 7, 8
 1021 0604 C3       		ret
 1022              		.cfi_endproc
 1023              	.LFE1301:
 1025              		.set	_ZN12_GLOBAL__N_166TestXmlTestReporterFixtureOutputIsCachedUntilReportSummaryIsCalledC1Ev,_ZN
 1026              		.local	_ZN12_GLOBAL__N_174testXmlTestReporterFixtureOutputIsCachedUntilReportSummaryIsCalledInstan
 1027              		.comm	_ZN12_GLOBAL__N_174testXmlTestReporterFixtureOutputIsCachedUntilReportSummaryIsCalledInstanc
 1028              		.local	_ZN12_GLOBAL__N_167adderXmlTestReporterFixtureOutputIsCachedUntilReportSummaryIsCalledE
 1029              		.comm	_ZN12_GLOBAL__N_167adderXmlTestReporterFixtureOutputIsCachedUntilReportSummaryIsCalledE,1,1
 1030 0605 90       		.align 2
 1032              	_ZN12_GLOBAL__N_168XmlTestReporterFixtureOutputIsCachedUntilReportSummaryIsCalledHelperD2Ev:
 1033              	.LFB1305:
 1034              		.loc 3 55 0
 1035              		.cfi_startproc
 1036 0606 55       		pushq	%rbp
 1037              		.cfi_def_cfa_offset 16
 1038              		.cfi_offset 6, -16
 1039 0607 4889E5   		movq	%rsp, %rbp
 1040              		.cfi_def_cfa_register 6
 1041 060a 4883EC10 		subq	$16, %rsp
 1042 060e 48897DF8 		movq	%rdi, -8(%rbp)
 1043              	.LBB26:
 1044              		.loc 3 55 0
 1045 0612 488B45F8 		movq	-8(%rbp), %rax
 1046 0616 4889C7   		movq	%rax, %rdi
 1047 0619 E83EFAFF 		call	_ZN12_GLOBAL__N_122XmlTestReporterFixtureD2Ev
 1047      FF
 1048              	.LBE26:
 1049 061e C9       		leave
 1050              		.cfi_def_cfa 7, 8
 1051 061f C3       		ret
 1052              		.cfi_endproc
 1053              	.LFE1305:
 1055              		.set	_ZN12_GLOBAL__N_168XmlTestReporterFixtureOutputIsCachedUntilReportSummaryIsCalledHelperD1Ev,_
 1056              		.align 2
 1058              	_ZNK12_GLOBAL__N_166TestXmlTestReporterFixtureOutputIsCachedUntilReportSummaryIsCalled7RunImplEv:
 1059              	.LFB1303:
 1060              		.loc 3 55 0
 1061              		.cfi_startproc
 1062              		.cfi_personality 0x3,__gxx_personality_v0
 1063              		.cfi_lsda 0x3,.LLSDA1303
 1064 0620 55       		pushq	%rbp
 1065              		.cfi_def_cfa_offset 16
 1066              		.cfi_offset 6, -16
 1067 0621 4889E5   		movq	%rsp, %rbp
 1068              		.cfi_def_cfa_register 6
 1069 0624 4154     		pushq	%r12
 1070 0626 53       		pushq	%rbx
 1071 0627 4881ECC0 		subq	$448, %rsp
 1071      010000
 1072              		.cfi_offset 12, -24
 1073              		.cfi_offset 3, -32
 1074 062e 4889BD38 		movq	%rdi, -456(%rbp)
 1074      FEFFFF
 1075              	.LBB27:
 1076              		.loc 3 55 0
 1077 0635 C6854FFE 		movb	$0, -433(%rbp)
 1077      FFFF00
 1078              	.LBB28:
 1079 063c 488B8538 		movq	-456(%rbp), %rax
 1079      FEFFFF
 1080 0643 488D5008 		leaq	8(%rax), %rdx
 1081 0647 488D8560 		leaq	-416(%rbp), %rax
 1081      FEFFFF
 1082 064e 4889D6   		movq	%rdx, %rsi
 1083 0651 4889C7   		movq	%rax, %rdi
 1084              	.LEHB29:
 1085 0654 E841FFFF 		call	_ZN12_GLOBAL__N_168XmlTestReporterFixtureOutputIsCachedUntilReportSummaryIsCalledHelperC1ERKN
 1085      FF
 1086              	.LEHE29:
 1087              		.loc 3 55 0 is_stmt 0 discriminator 1
 1088 0659 C6854FFE 		movb	$1, -433(%rbp)
 1088      FFFF01
 1089 0660 488B8538 		movq	-456(%rbp), %rax
 1089      FEFFFF
 1090 0667 488D5008 		leaq	8(%rax), %rdx
 1091 066b 488D8560 		leaq	-416(%rbp), %rax
 1091      FEFFFF
 1092 0672 4889D6   		movq	%rdx, %rsi
 1093 0675 4889C7   		movq	%rax, %rdi
 1094              	.LEHB30:
 1095 0678 E8412500 		call	_ZN8UnitTest11ExecuteTestIN12_GLOBAL__N_168XmlTestReporterFixtureOutputIsCachedUntilReportSum
 1095      00
 1096              	.LEHE30:
 1097 067d 488D8560 		leaq	-416(%rbp), %rax
 1097      FEFFFF
 1098 0684 4889C7   		movq	%rax, %rdi
 1099              	.LEHB31:
 1100 0687 E87AFFFF 		call	_ZN12_GLOBAL__N_168XmlTestReporterFixtureOutputIsCachedUntilReportSummaryIsCalledHelperD1Ev
 1100      FF
 1101              	.LEHE31:
 1102              	.LBE28:
 1103              	.LBE27:
 1104              		.loc 3 55 0
 1105 068c E9640200 		jmp	.L76
 1105      00
 1106              	.L70:
 1107 0691 4989C4   		movq	%rax, %r12
 1108 0694 4889D3   		movq	%rdx, %rbx
 1109              	.LBB36:
 1110              	.LBB29:
 1111 0697 488D8560 		leaq	-416(%rbp), %rax
 1111      FEFFFF
 1112 069e 4889C7   		movq	%rax, %rdi
 1113 06a1 E860FFFF 		call	_ZN12_GLOBAL__N_168XmlTestReporterFixtureOutputIsCachedUntilReportSummaryIsCalledHelperD1Ev
 1113      FF
 1114 06a6 4C89E0   		movq	%r12, %rax
 1115 06a9 4889DA   		movq	%rbx, %rdx
 1116 06ac EB00     		jmp	.L58
 1117              	.L69:
 1118              	.L58:
 1119 06ae 4883FA01 		cmpq	$1, %rdx
 1120 06b2 745C     		je	.L60
 1121 06b4 4883FA02 		cmpq	$2, %rdx
 1122 06b8 0F84F400 		je	.L61
 1122      0000
 1123 06be E9980100 		jmp	.L75
 1123      00
 1124              	.L71:
 1125 06c3 4889C3   		movq	%rax, %rbx
 1126              	.LBE29:
 1127              	.LBB30:
 1128 06c6 E8000000 		call	__cxa_end_catch
 1128      00
 1129 06cb 4889D8   		movq	%rbx, %rax
 1130 06ce 4889C7   		movq	%rax, %rdi
 1131              	.LEHB32:
 1132 06d1 E8000000 		call	_Unwind_Resume
 1132      00
 1133              	.LEHE32:
 1134              	.L72:
 1135 06d6 4889C3   		movq	%rax, %rbx
 1136              	.LBE30:
 1137              	.LBB31:
 1138              	.LBB32:
 1139 06d9 488D8560 		leaq	-416(%rbp), %rax
 1139      FEFFFF
 1140 06e0 4889C7   		movq	%rax, %rdi
 1141 06e3 E8000000 		call	_ZN8UnitTest15MemoryOutStreamD1Ev
 1141      00
 1142 06e8 EB03     		jmp	.L64
 1143              	.L73:
 1144 06ea 4889C3   		movq	%rax, %rbx
 1145              	.L64:
 1146              	.LBE32:
 1147 06ed E8000000 		call	__cxa_end_catch
 1147      00
 1148 06f2 4889D8   		movq	%rbx, %rax
 1149 06f5 4889C7   		movq	%rax, %rdi
 1150              	.LEHB33:
 1151 06f8 E8000000 		call	_Unwind_Resume
 1151      00
 1152              	.LEHE33:
 1153              	.L74:
 1154 06fd 4889C3   		movq	%rax, %rbx
 1155              	.LBE31:
 1156 0700 E8000000 		call	__cxa_end_catch
 1156      00
 1157 0705 4889D8   		movq	%rbx, %rax
 1158 0708 4889C7   		movq	%rax, %rdi
 1159              	.LEHB34:
 1160 070b E8000000 		call	_Unwind_Resume
 1160      00
 1161              	.LEHE34:
 1162              	.L60:
 1163              	.LBB34:
 1164 0710 4889C7   		movq	%rax, %rdi
 1165 0713 E8000000 		call	__cxa_begin_catch
 1165      00
 1166 0718 48898550 		movq	%rax, -432(%rbp)
 1166      FEFFFF
 1167 071f 488B8550 		movq	-432(%rbp), %rax
 1167      FEFFFF
 1168 0726 488B00   		movq	(%rax), %rax
 1169 0729 4883C010 		addq	$16, %rax
 1170 072d 488B00   		movq	(%rax), %rax
 1171 0730 488B9550 		movq	-432(%rbp), %rdx
 1171      FEFFFF
 1172 0737 4889D7   		movq	%rdx, %rdi
 1173 073a FFD0     		call	*%rax
 1174 073c 4889C3   		movq	%rax, %rbx
 1175 073f 488B8550 		movq	-432(%rbp), %rax
 1175      FEFFFF
 1176 0746 4889C7   		movq	%rax, %rdi
 1177              	.LEHB35:
 1178 0749 E8000000 		call	_ZNK8UnitTest15AssertException10LineNumberEv
 1178      00
 1179 074e 4189C4   		movl	%eax, %r12d
 1180 0751 488B8550 		movq	-432(%rbp), %rax
 1180      FEFFFF
 1181 0758 4889C7   		movq	%rax, %rdi
 1182 075b E8000000 		call	_ZNK8UnitTest15AssertException8FilenameEv
 1182      00
 1183              		.loc 3 55 0 discriminator 1
 1184 0760 4889C1   		movq	%rax, %rcx
 1185 0763 488B8538 		movq	-456(%rbp), %rax
 1185      FEFFFF
 1186 076a 488B5008 		movq	8(%rax), %rdx
 1187 076e 488B8538 		movq	-456(%rbp), %rax
 1187      FEFFFF
 1188 0775 488B7010 		movq	16(%rax), %rsi
 1189 0779 488D8560 		leaq	-416(%rbp), %rax
 1189      FEFFFF
 1190 0780 4589E0   		movl	%r12d, %r8d
 1191 0783 4889C7   		movq	%rax, %rdi
 1192 0786 E8000000 		call	_ZN8UnitTest11TestDetailsC1EPKcS2_S2_i
 1192      00
 1193              		.loc 3 55 0 discriminator 3
 1194 078b E8000000 		call	_ZN8UnitTest11CurrentTest7ResultsEv
 1194      00
 1195 0790 488B00   		movq	(%rax), %rax
 1196 0793 488D8D60 		leaq	-416(%rbp), %rcx
 1196      FEFFFF
 1197 079a 4889DA   		movq	%rbx, %rdx
 1198 079d 4889CE   		movq	%rcx, %rsi
 1199 07a0 4889C7   		movq	%rax, %rdi
 1200 07a3 E8000000 		call	_ZN8UnitTest11TestResults13OnTestFailureERKNS_11TestDetailsEPKc
 1200      00
 1201              	.LEHE35:
 1202              		.loc 3 55 0 discriminator 1
 1203 07a8 E8000000 		call	__cxa_end_catch
 1203      00
 1204              	.LBE34:
 1205              	.LBE36:
 1206 07ad E9430100 		jmp	.L76
 1206      00
 1207              	.L61:
 1208              	.LBB37:
 1209              	.LBB35:
 1210              		.loc 3 55 0
 1211 07b2 4889C7   		movq	%rax, %rdi
 1212 07b5 E8000000 		call	__cxa_begin_catch
 1212      00
 1213 07ba 48898558 		movq	%rax, -424(%rbp)
 1213      FEFFFF
 1214              	.LBB33:
 1215 07c1 488D8560 		leaq	-416(%rbp), %rax
 1215      FEFFFF
 1216 07c8 4889C7   		movq	%rax, %rdi
 1217              	.LEHB36:
 1218 07cb E8000000 		call	_ZN8UnitTest15MemoryOutStreamC1Ev
 1218      00
 1219              	.LEHE36:
 1220              		.loc 3 55 0 discriminator 1
 1221 07d0 488B8558 		movq	-424(%rbp), %rax
 1221      FEFFFF
 1222 07d7 488B00   		movq	(%rax), %rax
 1223 07da 4883C010 		addq	$16, %rax
 1224 07de 488B00   		movq	(%rax), %rax
 1225 07e1 488B9558 		movq	-424(%rbp), %rdx
 1225      FEFFFF
 1226 07e8 4889D7   		movq	%rdx, %rdi
 1227 07eb FFD0     		call	*%rax
 1228 07ed 4889C3   		movq	%rax, %rbx
 1229 07f0 488D8560 		leaq	-416(%rbp), %rax
 1229      FEFFFF
 1230 07f7 BE000000 		movl	$.LC3, %esi
 1230      00
 1231 07fc 4889C7   		movq	%rax, %rdi
 1232              	.LEHB37:
 1233 07ff E8000000 		call	_ZStlsISt11char_traitsIcEERSt13basic_ostreamIcT_ES5_PKc
 1233      00
 1234 0804 4889DE   		movq	%rbx, %rsi
 1235 0807 4889C7   		movq	%rax, %rdi
 1236 080a E8000000 		call	_ZStlsISt11char_traitsIcEERSt13basic_ostreamIcT_ES5_PKc
 1236      00
 1237 080f 488D8560 		leaq	-416(%rbp), %rax
 1237      FEFFFF
 1238 0816 4889C7   		movq	%rax, %rdi
 1239 0819 E8000000 		call	_ZNK8UnitTest15MemoryOutStream7GetTextEv
 1239      00
 1240 081e 4889C3   		movq	%rax, %rbx
 1241 0821 488B8538 		movq	-456(%rbp), %rax
 1241      FEFFFF
 1242 0828 4C8D6008 		leaq	8(%rax), %r12
 1243 082c E8000000 		call	_ZN8UnitTest11CurrentTest7ResultsEv
 1243      00
 1244 0831 488B00   		movq	(%rax), %rax
 1245 0834 4889DA   		movq	%rbx, %rdx
 1246 0837 4C89E6   		movq	%r12, %rsi
 1247 083a 4889C7   		movq	%rax, %rdi
 1248 083d E8000000 		call	_ZN8UnitTest11TestResults13OnTestFailureERKNS_11TestDetailsEPKc
 1248      00
 1249              	.LEHE37:
 1250 0842 488D8560 		leaq	-416(%rbp), %rax
 1250      FEFFFF
 1251 0849 4889C7   		movq	%rax, %rdi
 1252              	.LEHB38:
 1253 084c E8000000 		call	_ZN8UnitTest15MemoryOutStreamD1Ev
 1253      00
 1254              	.LEHE38:
 1255              	.LBE33:
 1256              		.loc 3 55 0
 1257 0851 E8000000 		call	__cxa_end_catch
 1257      00
 1258              	.LBE35:
 1259              	.LBE37:
 1260 0856 E99A0000 		jmp	.L76
 1260      00
 1261              	.L75:
 1262              	.LBB38:
 1263 085b 4889C7   		movq	%rax, %rdi
 1264 085e E8000000 		call	__cxa_begin_catch
 1264      00
 1265 0863 80BD4FFE 		cmpb	$0, -433(%rbp)
 1265      FFFF00
 1266 086a 7443     		je	.L67
 1267              		.loc 3 55 0 discriminator 1
 1268 086c 488B8538 		movq	-456(%rbp), %rax
 1268      FEFFFF
 1269 0873 488D4808 		leaq	8(%rax), %rcx
 1270 0877 488D8560 		leaq	-416(%rbp), %rax
 1270      FEFFFF
 1271 087e BA370000 		movl	$55, %edx
 1271      00
 1272 0883 4889CE   		movq	%rcx, %rsi
 1273 0886 4889C7   		movq	%rax, %rdi
 1274              	.LEHB39:
 1275 0889 E8000000 		call	_ZN8UnitTest11TestDetailsC1ERKS0_i
 1275      00
 1276 088e E8000000 		call	_ZN8UnitTest11CurrentTest7ResultsEv
 1276      00
 1277 0893 488B00   		movq	(%rax), %rax
 1278 0896 488D8D60 		leaq	-416(%rbp), %rcx
 1278      FEFFFF
 1279 089d BA000000 		movl	$.LC4, %edx
 1279      00
 1280 08a2 4889CE   		movq	%rcx, %rsi
 1281 08a5 4889C7   		movq	%rax, %rdi
 1282 08a8 E8000000 		call	_ZN8UnitTest11TestResults13OnTestFailureERKNS_11TestDetailsEPKc
 1282      00
 1283 08ad EB41     		jmp	.L68
 1284              	.L67:
 1285              		.loc 3 55 0 discriminator 2
 1286 08af 488B8538 		movq	-456(%rbp), %rax
 1286      FEFFFF
 1287 08b6 488D4808 		leaq	8(%rax), %rcx
 1288 08ba 488D8560 		leaq	-416(%rbp), %rax
 1288      FEFFFF
 1289 08c1 BA370000 		movl	$55, %edx
 1289      00
 1290 08c6 4889CE   		movq	%rcx, %rsi
 1291 08c9 4889C7   		movq	%rax, %rdi
 1292 08cc E8000000 		call	_ZN8UnitTest11TestDetailsC1ERKS0_i
 1292      00
 1293              		.loc 3 55 0 discriminator 1
 1294 08d1 E8000000 		call	_ZN8UnitTest11CurrentTest7ResultsEv
 1294      00
 1295 08d6 488B00   		movq	(%rax), %rax
 1296 08d9 488D8D60 		leaq	-416(%rbp), %rcx
 1296      FEFFFF
 1297 08e0 BA000000 		movl	$.LC5, %edx
 1297      00
 1298 08e5 4889CE   		movq	%rcx, %rsi
 1299 08e8 4889C7   		movq	%rax, %rdi
 1300 08eb E8000000 		call	_ZN8UnitTest11TestResults13OnTestFailureERKNS_11TestDetailsEPKc
 1300      00
 1301              	.LEHE39:
 1302              	.L68:
 1303              	.LEHB40:
 1304 08f0 E8000000 		call	__cxa_end_catch
 1304      00
 1305              	.LEHE40:
 1306              	.L76:
 1307              	.LBE38:
 1308              		.loc 3 55 0
 1309 08f5 90       		nop
 1310 08f6 4881C4C0 		addq	$448, %rsp
 1310      010000
 1311 08fd 5B       		popq	%rbx
 1312 08fe 415C     		popq	%r12
 1313 0900 5D       		popq	%rbp
 1314              		.cfi_def_cfa 7, 8
 1315 0901 C3       		ret
 1316              		.cfi_endproc
 1317              	.LFE1303:
 1318              		.section	.gcc_except_table
 1319              		.align 4
 1320              	.LLSDA1303:
 1321 00b0 FF       		.byte	0xff
 1322 00b1 03       		.byte	0x3
 1323 00b2 59       		.uleb128 .LLSDATT1303-.LLSDATTD1303
 1324              	.LLSDATTD1303:
 1325 00b3 01       		.byte	0x1
 1326 00b4 40       		.uleb128 .LLSDACSE1303-.LLSDACSB1303
 1327              	.LLSDACSB1303:
 1328 00b5 34       		.uleb128 .LEHB29-.LFB1303
 1329 00b6 05       		.uleb128 .LEHE29-.LEHB29
 1330 00b7 8E01     		.uleb128 .L69-.LFB1303
 1331 00b9 05       		.uleb128 0x5
 1332 00ba 58       		.uleb128 .LEHB30-.LFB1303
 1333 00bb 05       		.uleb128 .LEHE30-.LEHB30
 1334 00bc 71       		.uleb128 .L70-.LFB1303
 1335 00bd 07       		.uleb128 0x7
 1336 00be 67       		.uleb128 .LEHB31-.LFB1303
 1337 00bf 05       		.uleb128 .LEHE31-.LEHB31
 1338 00c0 8E01     		.uleb128 .L69-.LFB1303
 1339 00c2 05       		.uleb128 0x5
 1340 00c3 B101     		.uleb128 .LEHB32-.LFB1303
 1341 00c5 05       		.uleb128 .LEHE32-.LEHB32
 1342 00c6 00       		.uleb128 0
 1343 00c7 00       		.uleb128 0
 1344 00c8 D801     		.uleb128 .LEHB33-.LFB1303
 1345 00ca 05       		.uleb128 .LEHE33-.LEHB33
 1346 00cb 00       		.uleb128 0
 1347 00cc 00       		.uleb128 0
 1348 00cd EB01     		.uleb128 .LEHB34-.LFB1303
 1349 00cf 05       		.uleb128 .LEHE34-.LEHB34
 1350 00d0 00       		.uleb128 0
 1351 00d1 00       		.uleb128 0
 1352 00d2 A902     		.uleb128 .LEHB35-.LFB1303
 1353 00d4 5F       		.uleb128 .LEHE35-.LEHB35
 1354 00d5 A301     		.uleb128 .L71-.LFB1303
 1355 00d7 00       		.uleb128 0
 1356 00d8 AB03     		.uleb128 .LEHB36-.LFB1303
 1357 00da 05       		.uleb128 .LEHE36-.LEHB36
 1358 00db CA01     		.uleb128 .L73-.LFB1303
 1359 00dd 00       		.uleb128 0
 1360 00de DF03     		.uleb128 .LEHB37-.LFB1303
 1361 00e0 43       		.uleb128 .LEHE37-.LEHB37
 1362 00e1 B601     		.uleb128 .L72-.LFB1303
 1363 00e3 00       		.uleb128 0
 1364 00e4 AC04     		.uleb128 .LEHB38-.LFB1303
 1365 00e6 05       		.uleb128 .LEHE38-.LEHB38
 1366 00e7 CA01     		.uleb128 .L73-.LFB1303
 1367 00e9 00       		.uleb128 0
 1368 00ea E904     		.uleb128 .LEHB39-.LFB1303
 1369 00ec 67       		.uleb128 .LEHE39-.LEHB39
 1370 00ed DD01     		.uleb128 .L74-.LFB1303
 1371 00ef 00       		.uleb128 0
 1372 00f0 D005     		.uleb128 .LEHB40-.LFB1303
 1373 00f2 05       		.uleb128 .LEHE40-.LEHB40
 1374 00f3 00       		.uleb128 0
 1375 00f4 00       		.uleb128 0
 1376              	.LLSDACSE1303:
 1377 00f5 03       		.byte	0x3
 1378 00f6 00       		.byte	0
 1379 00f7 02       		.byte	0x2
 1380 00f8 7D       		.byte	0x7d
 1381 00f9 01       		.byte	0x1
 1382 00fa 7D       		.byte	0x7d
 1383 00fb 00       		.byte	0
 1384 00fc 7D       		.byte	0x7d
 1385 00fd 000000   		.align 4
 1386 0100 00000000 		.long	0
 1387              	
 1388 0104 00000000 		.long	_ZTISt9exception
 1389 0108 00000000 		.long	_ZTIN8UnitTest15AssertExceptionE
 1390              	.LLSDATT1303:
 1391              		.text
 1393              		.section	.rodata
 1394              	.LC14:
 1395 0279 00       		.string	""
 1396              	.LC15:
 1397 027a 6D657373 		.string	"message"
 1397      61676500 
 1398              	.LC17:
 1399 0282 6F757470 		.string	"output.str().empty()"
 1399      75742E73 
 1399      74722829 
 1399      2E656D70 
 1399      74792829 
 1400              	.LC18:
 1401 0297 216F7574 		.string	"!output.str().empty()"
 1401      7075742E 
 1401      73747228 
 1401      292E656D 
 1401      70747928 
 1402 02ad 000000   		.align 8
 1403              	.LC19:
 1404 02b0 556E6861 		.string	"Unhandled exception in CHECK(output.str().empty())"
 1404      6E646C65 
 1404      64206578 
 1404      63657074 
 1404      696F6E20 
 1405 02e3 00000000 		.align 8
 1405      00
 1406              	.LC20:
 1407 02e8 556E6861 		.string	"Unhandled exception in CHECK(!output.str().empty())"
 1407      6E646C65 
 1407      64206578 
 1407      63657074 
 1407      696F6E20 
 1408              		.text
 1409              		.align 2
 1411              	_ZN12_GLOBAL__N_168XmlTestReporterFixtureOutputIsCachedUntilReportSummaryIsCalledHelper7RunImplEv:
 1412              	.LFB1307:
  56:TestXmlTestReporter.cpp **** {
 1413              		.loc 3 56 0 is_stmt 1
 1414              		.cfi_startproc
 1415              		.cfi_personality 0x3,__gxx_personality_v0
 1416              		.cfi_lsda 0x3,.LLSDA1307
 1417 0902 55       		pushq	%rbp
 1418              		.cfi_def_cfa_offset 16
 1419              		.cfi_offset 6, -16
 1420 0903 4889E5   		movq	%rsp, %rbp
 1421              		.cfi_def_cfa_register 6
 1422 0906 53       		pushq	%rbx
 1423 0907 4883EC78 		subq	$120, %rsp
 1424              		.cfi_offset 3, -24
 1425 090b 48897D88 		movq	%rdi, -120(%rbp)
 1426              	.LBB39:
  57:TestXmlTestReporter.cpp ****     TestDetails const details("", "", "", 0);
 1427              		.loc 3 57 0
 1428 090f 488D45B0 		leaq	-80(%rbp), %rax
 1429 0913 41B80000 		movl	$0, %r8d
 1429      0000
 1430 0919 B9000000 		movl	$.LC14, %ecx
 1430      00
 1431 091e BA000000 		movl	$.LC14, %edx
 1431      00
 1432 0923 BE000000 		movl	$.LC14, %esi
 1432      00
 1433 0928 4889C7   		movq	%rax, %rdi
 1434              	.LEHB41:
 1435 092b E8000000 		call	_ZN8UnitTest11TestDetailsC1EPKcS2_S2_i
 1435      00
  58:TestXmlTestReporter.cpp **** 
  59:TestXmlTestReporter.cpp ****     reporter.ReportTestStart(details);
 1436              		.loc 3 59 0
 1437 0930 488B4588 		movq	-120(%rbp), %rax
 1438 0934 488D9060 		leaq	352(%rax), %rdx
 1438      010000
 1439 093b 488D45B0 		leaq	-80(%rbp), %rax
 1440 093f 4889C6   		movq	%rax, %rsi
 1441 0942 4889D7   		movq	%rdx, %rdi
 1442 0945 E8000000 		call	_ZN8UnitTest20DeferredTestReporter15ReportTestStartERKNS_11TestDetailsE
 1442      00
  60:TestXmlTestReporter.cpp ****     reporter.ReportFailure(details, "message");
 1443              		.loc 3 60 0
 1444 094a 488B4588 		movq	-120(%rbp), %rax
 1445 094e 488D8860 		leaq	352(%rax), %rcx
 1445      010000
 1446 0955 488D45B0 		leaq	-80(%rbp), %rax
 1447 0959 BA000000 		movl	$.LC15, %edx
 1447      00
 1448 095e 4889C6   		movq	%rax, %rsi
 1449 0961 4889CF   		movq	%rcx, %rdi
 1450 0964 E8000000 		call	_ZN8UnitTest20DeferredTestReporter13ReportFailureERKNS_11TestDetailsEPKc
 1450      00
  61:TestXmlTestReporter.cpp ****     reporter.ReportTestFinish(details, 1.0F);
 1451              		.loc 3 61 0
 1452 0969 488B4588 		movq	-120(%rbp), %rax
 1453 096d 488D9060 		leaq	352(%rax), %rdx
 1453      010000
 1454 0974 488D45B0 		leaq	-80(%rbp), %rax
 1455 0978 F30F1005 		movss	.LC16(%rip), %xmm0
 1455      00000000 
 1456 0980 4889C6   		movq	%rax, %rsi
 1457 0983 4889D7   		movq	%rdx, %rdi
 1458 0986 E8000000 		call	_ZN8UnitTest20DeferredTestReporter16ReportTestFinishERKNS_11TestDetailsEf
 1458      00
 1459              	.LEHE41:
  62:TestXmlTestReporter.cpp ****     CHECK(output.str().empty());
 1460              		.loc 3 62 0
 1461 098b 488B5588 		movq	-120(%rbp), %rdx
 1462 098f 488D4590 		leaq	-112(%rbp), %rax
 1463 0993 4889D6   		movq	%rdx, %rsi
 1464 0996 4889C7   		movq	%rax, %rdi
 1465              	.LEHB42:
 1466 0999 E8000000 		call	_ZNKSt19basic_ostringstreamIcSt11char_traitsIcESaIcEE3strEv
 1466      00
 1467              	.LEHE42:
 1468              		.loc 3 62 0 is_stmt 0 discriminator 1
 1469 099e 488D4590 		leaq	-112(%rbp), %rax
 1470 09a2 4889C7   		movq	%rax, %rdi
 1471              	.LEHB43:
 1472 09a5 E8000000 		call	_ZNKSs5emptyEv
 1472      00
 1473              	.LEHE43:
 1474 09aa 0FB6C0   		movzbl	%al, %eax
 1475 09ad 89C7     		movl	%eax, %edi
 1476 09af E8000000 		call	_ZN8UnitTest5CheckIbEEbT_
 1476      00
 1477 09b4 83F001   		xorl	$1, %eax
 1478 09b7 89C3     		movl	%eax, %ebx
 1479 09b9 488D4590 		leaq	-112(%rbp), %rax
 1480 09bd 4889C7   		movq	%rax, %rdi
 1481              	.LEHB44:
 1482 09c0 E8000000 		call	_ZNSsD1Ev
 1482      00
 1483              		.loc 3 62 0 discriminator 3
 1484 09c5 84DB     		testb	%bl, %bl
 1485 09c7 7438     		je	.L78
 1486              		.loc 3 62 0 discriminator 1
 1487 09c9 E8000000 		call	_ZN8UnitTest11CurrentTest7DetailsEv
 1487      00
 1488 09ce 488B08   		movq	(%rax), %rcx
 1489 09d1 488D45D0 		leaq	-48(%rbp), %rax
 1490 09d5 BA3E0000 		movl	$62, %edx
 1490      00
 1491 09da 4889CE   		movq	%rcx, %rsi
 1492 09dd 4889C7   		movq	%rax, %rdi
 1493 09e0 E8000000 		call	_ZN8UnitTest11TestDetailsC1ERKS0_i
 1493      00
 1494 09e5 E8000000 		call	_ZN8UnitTest11CurrentTest7ResultsEv
 1494      00
 1495 09ea 488B00   		movq	(%rax), %rax
 1496 09ed 488D4DD0 		leaq	-48(%rbp), %rcx
 1497 09f1 BA000000 		movl	$.LC17, %edx
 1497      00
 1498 09f6 4889CE   		movq	%rcx, %rsi
 1499 09f9 4889C7   		movq	%rax, %rdi
 1500 09fc E8000000 		call	_ZN8UnitTest11TestResults13OnTestFailureERKNS_11TestDetailsEPKc
 1500      00
 1501              	.LEHE44:
 1502              	.L78:
  63:TestXmlTestReporter.cpp **** 
  64:TestXmlTestReporter.cpp ****     reporter.ReportSummary(1, 1, 1, 1.0f);
 1503              		.loc 3 64 0 is_stmt 1
 1504 0a01 488B4588 		movq	-120(%rbp), %rax
 1505 0a05 48056001 		addq	$352, %rax
 1505      0000
 1506 0a0b F30F1005 		movss	.LC16(%rip), %xmm0
 1506      00000000 
 1507 0a13 B9010000 		movl	$1, %ecx
 1507      00
 1508 0a18 BA010000 		movl	$1, %edx
 1508      00
 1509 0a1d BE010000 		movl	$1, %esi
 1509      00
 1510 0a22 4889C7   		movq	%rax, %rdi
 1511              	.LEHB45:
 1512 0a25 E8000000 		call	_ZN8UnitTest15XmlTestReporter13ReportSummaryEiiif
 1512      00
 1513              	.LEHE45:
  65:TestXmlTestReporter.cpp ****     CHECK(!output.str().empty());
 1514              		.loc 3 65 0
 1515 0a2a 488B5588 		movq	-120(%rbp), %rdx
 1516 0a2e 488D45A0 		leaq	-96(%rbp), %rax
 1517 0a32 4889D6   		movq	%rdx, %rsi
 1518 0a35 4889C7   		movq	%rax, %rdi
 1519              	.LEHB46:
 1520 0a38 E8000000 		call	_ZNKSt19basic_ostringstreamIcSt11char_traitsIcESaIcEE3strEv
 1520      00
 1521              	.LEHE46:
 1522              		.loc 3 65 0 is_stmt 0 discriminator 1
 1523 0a3d 488D45A0 		leaq	-96(%rbp), %rax
 1524 0a41 4889C7   		movq	%rax, %rdi
 1525              	.LEHB47:
 1526 0a44 E8000000 		call	_ZNKSs5emptyEv
 1526      00
 1527              	.LEHE47:
 1528 0a49 83F001   		xorl	$1, %eax
 1529 0a4c 0FB6C0   		movzbl	%al, %eax
 1530 0a4f 89C7     		movl	%eax, %edi
 1531 0a51 E8000000 		call	_ZN8UnitTest5CheckIbEEbT_
 1531      00
 1532 0a56 83F001   		xorl	$1, %eax
 1533 0a59 89C3     		movl	%eax, %ebx
 1534 0a5b 488D45A0 		leaq	-96(%rbp), %rax
 1535 0a5f 4889C7   		movq	%rax, %rdi
 1536              	.LEHB48:
 1537 0a62 E8000000 		call	_ZNSsD1Ev
 1537      00
 1538              		.loc 3 65 0 discriminator 3
 1539 0a67 84DB     		testb	%bl, %bl
 1540 0a69 0F841B01 		je	.L77
 1540      0000
 1541              		.loc 3 65 0 discriminator 1
 1542 0a6f E8000000 		call	_ZN8UnitTest11CurrentTest7DetailsEv
 1542      00
 1543 0a74 488B08   		movq	(%rax), %rcx
 1544 0a77 488D45D0 		leaq	-48(%rbp), %rax
 1545 0a7b BA410000 		movl	$65, %edx
 1545      00
 1546 0a80 4889CE   		movq	%rcx, %rsi
 1547 0a83 4889C7   		movq	%rax, %rdi
 1548 0a86 E8000000 		call	_ZN8UnitTest11TestDetailsC1ERKS0_i
 1548      00
 1549 0a8b E8000000 		call	_ZN8UnitTest11CurrentTest7ResultsEv
 1549      00
 1550 0a90 488B00   		movq	(%rax), %rax
 1551 0a93 488D4DD0 		leaq	-48(%rbp), %rcx
 1552 0a97 BA000000 		movl	$.LC18, %edx
 1552      00
 1553 0a9c 4889CE   		movq	%rcx, %rsi
 1554 0a9f 4889C7   		movq	%rax, %rdi
 1555 0aa2 E8000000 		call	_ZN8UnitTest11TestResults13OnTestFailureERKNS_11TestDetailsEPKc
 1555      00
 1556              	.LEHE48:
 1557 0aa7 E9DE0000 		jmp	.L77
 1557      00
 1558              	.L87:
 1559 0aac 4889C3   		movq	%rax, %rbx
  62:TestXmlTestReporter.cpp ****     CHECK(output.str().empty());
 1560              		.loc 3 62 0 is_stmt 1
 1561 0aaf 488D4590 		leaq	-112(%rbp), %rax
 1562 0ab3 4889C7   		movq	%rax, %rdi
 1563 0ab6 E8000000 		call	_ZNSsD1Ev
 1563      00
 1564 0abb 4889D8   		movq	%rbx, %rax
 1565 0abe EB13     		jmp	.L81
 1566              	.L88:
 1567 0ac0 4889C3   		movq	%rax, %rbx
 1568 0ac3 E8000000 		call	__cxa_end_catch
 1568      00
 1569 0ac8 4889D8   		movq	%rbx, %rax
 1570 0acb 4889C7   		movq	%rax, %rdi
 1571              	.LEHB49:
 1572 0ace E8000000 		call	_Unwind_Resume
 1572      00
 1573              	.LEHE49:
 1574              	.L86:
 1575              	.L81:
 1576 0ad3 4889C7   		movq	%rax, %rdi
 1577 0ad6 E8000000 		call	__cxa_begin_catch
 1577      00
 1578              	.LEHB50:
 1579 0adb E8000000 		call	_ZN8UnitTest11CurrentTest7DetailsEv
 1579      00
 1580 0ae0 488B08   		movq	(%rax), %rcx
 1581 0ae3 488D45D0 		leaq	-48(%rbp), %rax
 1582 0ae7 BA3E0000 		movl	$62, %edx
 1582      00
 1583 0aec 4889CE   		movq	%rcx, %rsi
 1584 0aef 4889C7   		movq	%rax, %rdi
 1585 0af2 E8000000 		call	_ZN8UnitTest11TestDetailsC1ERKS0_i
 1585      00
  62:TestXmlTestReporter.cpp ****     CHECK(output.str().empty());
 1586              		.loc 3 62 0 is_stmt 0 discriminator 1
 1587 0af7 E8000000 		call	_ZN8UnitTest11CurrentTest7ResultsEv
 1587      00
 1588 0afc 488B00   		movq	(%rax), %rax
 1589 0aff 488D4DD0 		leaq	-48(%rbp), %rcx
 1590 0b03 BA000000 		movl	$.LC19, %edx
 1590      00
 1591 0b08 4889CE   		movq	%rcx, %rsi
 1592 0b0b 4889C7   		movq	%rax, %rdi
 1593 0b0e E8000000 		call	_ZN8UnitTest11TestResults13OnTestFailureERKNS_11TestDetailsEPKc
 1593      00
 1594              	.LEHE50:
 1595              	.LEHB51:
 1596 0b13 E8000000 		call	__cxa_end_catch
 1596      00
 1597              	.LEHE51:
 1598 0b18 E9E4FEFF 		jmp	.L78
 1598      FF
 1599              	.L90:
 1600 0b1d 4889C3   		movq	%rax, %rbx
 1601              		.loc 3 65 0 is_stmt 1
 1602 0b20 488D45A0 		leaq	-96(%rbp), %rax
 1603 0b24 4889C7   		movq	%rax, %rdi
 1604 0b27 E8000000 		call	_ZNSsD1Ev
 1604      00
 1605 0b2c 4889D8   		movq	%rbx, %rax
 1606 0b2f EB13     		jmp	.L84
 1607              	.L91:
 1608 0b31 4889C3   		movq	%rax, %rbx
 1609 0b34 E8000000 		call	__cxa_end_catch
 1609      00
 1610 0b39 4889D8   		movq	%rbx, %rax
 1611 0b3c 4889C7   		movq	%rax, %rdi
 1612              	.LEHB52:
 1613 0b3f E8000000 		call	_Unwind_Resume
 1613      00
 1614              	.LEHE52:
 1615              	.L89:
 1616              	.L84:
 1617 0b44 4889C7   		movq	%rax, %rdi
 1618 0b47 E8000000 		call	__cxa_begin_catch
 1618      00
 1619              	.LEHB53:
 1620 0b4c E8000000 		call	_ZN8UnitTest11CurrentTest7DetailsEv
 1620      00
 1621 0b51 488B08   		movq	(%rax), %rcx
 1622 0b54 488D45D0 		leaq	-48(%rbp), %rax
 1623 0b58 BA410000 		movl	$65, %edx
 1623      00
 1624 0b5d 4889CE   		movq	%rcx, %rsi
 1625 0b60 4889C7   		movq	%rax, %rdi
 1626 0b63 E8000000 		call	_ZN8UnitTest11TestDetailsC1ERKS0_i
 1626      00
 1627              		.loc 3 65 0 is_stmt 0 discriminator 1
 1628 0b68 E8000000 		call	_ZN8UnitTest11CurrentTest7ResultsEv
 1628      00
 1629 0b6d 488B00   		movq	(%rax), %rax
 1630 0b70 488D4DD0 		leaq	-48(%rbp), %rcx
 1631 0b74 BA000000 		movl	$.LC20, %edx
 1631      00
 1632 0b79 4889CE   		movq	%rcx, %rsi
 1633 0b7c 4889C7   		movq	%rax, %rdi
 1634 0b7f E8000000 		call	_ZN8UnitTest11TestResults13OnTestFailureERKNS_11TestDetailsEPKc
 1634      00
 1635              	.LEHE53:
 1636              	.LEHB54:
 1637 0b84 E8000000 		call	__cxa_end_catch
 1637      00
 1638              	.LEHE54:
 1639              	.LBE39:
  66:TestXmlTestReporter.cpp **** }
 1640              		.loc 3 66 0 is_stmt 1 discriminator 1
 1641 0b89 90       		nop
 1642              	.L77:
 1643              		.loc 3 66 0 is_stmt 0
 1644 0b8a 4883C478 		addq	$120, %rsp
 1645 0b8e 5B       		popq	%rbx
 1646 0b8f 5D       		popq	%rbp
 1647              		.cfi_def_cfa 7, 8
 1648 0b90 C3       		ret
 1649              		.cfi_endproc
 1650              	.LFE1307:
 1651              		.section	.gcc_except_table
 1652              		.align 4
 1653              	.LLSDA1307:
 1654 010c FF       		.byte	0xff
 1655 010d 03       		.byte	0x3
 1656 010e 59       		.uleb128 .LLSDATT1307-.LLSDATTD1307
 1657              	.LLSDATTD1307:
 1658 010f 01       		.byte	0x1
 1659 0110 4D       		.uleb128 .LLSDACSE1307-.LLSDACSB1307
 1660              	.LLSDACSB1307:
 1661 0111 29       		.uleb128 .LEHB41-.LFB1307
 1662 0112 60       		.uleb128 .LEHE41-.LEHB41
 1663 0113 00       		.uleb128 0
 1664 0114 00       		.uleb128 0
 1665 0115 9701     		.uleb128 .LEHB42-.LFB1307
 1666 0117 05       		.uleb128 .LEHE42-.LEHB42
 1667 0118 D103     		.uleb128 .L86-.LFB1307
 1668 011a 01       		.uleb128 0x1
 1669 011b A301     		.uleb128 .LEHB43-.LFB1307
 1670 011d 05       		.uleb128 .LEHE43-.LEHB43
 1671 011e AA03     		.uleb128 .L87-.LFB1307
 1672 0120 03       		.uleb128 0x3
 1673 0121 BE01     		.uleb128 .LEHB44-.LFB1307
 1674 0123 41       		.uleb128 .LEHE44-.LEHB44
 1675 0124 D103     		.uleb128 .L86-.LFB1307
 1676 0126 01       		.uleb128 0x1
 1677 0127 A302     		.uleb128 .LEHB45-.LFB1307
 1678 0129 05       		.uleb128 .LEHE45-.LEHB45
 1679 012a 00       		.uleb128 0
 1680 012b 00       		.uleb128 0
 1681 012c B602     		.uleb128 .LEHB46-.LFB1307
 1682 012e 05       		.uleb128 .LEHE46-.LEHB46
 1683 012f C204     		.uleb128 .L89-.LFB1307
 1684 0131 01       		.uleb128 0x1
 1685 0132 C202     		.uleb128 .LEHB47-.LFB1307
 1686 0134 05       		.uleb128 .LEHE47-.LEHB47
 1687 0135 9B04     		.uleb128 .L90-.LFB1307
 1688 0137 03       		.uleb128 0x3
 1689 0138 E002     		.uleb128 .LEHB48-.LFB1307
 1690 013a 45       		.uleb128 .LEHE48-.LEHB48
 1691 013b C204     		.uleb128 .L89-.LFB1307
 1692 013d 01       		.uleb128 0x1
 1693 013e CC03     		.uleb128 .LEHB49-.LFB1307
 1694 0140 05       		.uleb128 .LEHE49-.LEHB49
 1695 0141 00       		.uleb128 0
 1696 0142 00       		.uleb128 0
 1697 0143 D903     		.uleb128 .LEHB50-.LFB1307
 1698 0145 38       		.uleb128 .LEHE50-.LEHB50
 1699 0146 BE03     		.uleb128 .L88-.LFB1307
 1700 0148 00       		.uleb128 0
 1701 0149 9104     		.uleb128 .LEHB51-.LFB1307
 1702 014b 05       		.uleb128 .LEHE51-.LEHB51
 1703 014c 00       		.uleb128 0
 1704 014d 00       		.uleb128 0
 1705 014e BD04     		.uleb128 .LEHB52-.LFB1307
 1706 0150 05       		.uleb128 .LEHE52-.LEHB52
 1707 0151 00       		.uleb128 0
 1708 0152 00       		.uleb128 0
 1709 0153 CA04     		.uleb128 .LEHB53-.LFB1307
 1710 0155 38       		.uleb128 .LEHE53-.LEHB53
 1711 0156 AF04     		.uleb128 .L91-.LFB1307
 1712 0158 00       		.uleb128 0
 1713 0159 8205     		.uleb128 .LEHB54-.LFB1307
 1714 015b 05       		.uleb128 .LEHE54-.LEHB54
 1715 015c 00       		.uleb128 0
 1716 015d 00       		.uleb128 0
 1717              	.LLSDACSE1307:
 1718 015e 01       		.byte	0x1
 1719 015f 00       		.byte	0
 1720 0160 00       		.byte	0
 1721 0161 7D       		.byte	0x7d
 1722 0162 0000     		.align 4
 1723 0164 00000000 		.long	0
 1724              	
 1725              	.LLSDATT1307:
 1726              		.text
 1728 0b91 90       		.align 2
 1730              	_ZN12_GLOBAL__N_152XmlTestReporterFixtureEmptyReportSummaryFormatHelperC2ERKN8UnitTest11TestDetails
 1731              	.LFB1309:
  67:TestXmlTestReporter.cpp **** 
  68:TestXmlTestReporter.cpp **** TEST_FIXTURE(XmlTestReporterFixture, EmptyReportSummaryFormat)
 1732              		.loc 3 68 0 is_stmt 1
 1733              		.cfi_startproc
 1734 0b92 55       		pushq	%rbp
 1735              		.cfi_def_cfa_offset 16
 1736              		.cfi_offset 6, -16
 1737 0b93 4889E5   		movq	%rsp, %rbp
 1738              		.cfi_def_cfa_register 6
 1739 0b96 4883EC10 		subq	$16, %rsp
 1740 0b9a 48897DF8 		movq	%rdi, -8(%rbp)
 1741 0b9e 488975F0 		movq	%rsi, -16(%rbp)
 1742              	.LBB40:
 1743              		.loc 3 68 0
 1744 0ba2 488B45F8 		movq	-8(%rbp), %rax
 1745 0ba6 4889C7   		movq	%rax, %rdi
 1746 0ba9 E852F4FF 		call	_ZN12_GLOBAL__N_122XmlTestReporterFixtureC2Ev
 1746      FF
 1747 0bae 488B45F8 		movq	-8(%rbp), %rax
 1748 0bb2 488B55F0 		movq	-16(%rbp), %rdx
 1749 0bb6 48899088 		movq	%rdx, 392(%rax)
 1749      010000
 1750              	.LBE40:
 1751 0bbd C9       		leave
 1752              		.cfi_def_cfa 7, 8
 1753 0bbe C3       		ret
 1754              		.cfi_endproc
 1755              	.LFE1309:
 1757              		.set	_ZN12_GLOBAL__N_152XmlTestReporterFixtureEmptyReportSummaryFormatHelperC1ERKN8UnitTest11TestD
 1758              		.section	.rodata
 1759              	.LC21:
 1760 031c 456D7074 		.string	"EmptyReportSummaryFormat"
 1760      79526570 
 1760      6F727453 
 1760      756D6D61 
 1760      7279466F 
 1761              		.text
 1762 0bbf 90       		.align 2
 1764              	_ZN12_GLOBAL__N_150TestXmlTestReporterFixtureEmptyReportSummaryFormatC2Ev:
 1765              	.LFB1312:
 1766              		.loc 3 68 0
 1767              		.cfi_startproc
 1768 0bc0 55       		pushq	%rbp
 1769              		.cfi_def_cfa_offset 16
 1770              		.cfi_offset 6, -16
 1771 0bc1 4889E5   		movq	%rsp, %rbp
 1772              		.cfi_def_cfa_register 6
 1773 0bc4 4883EC10 		subq	$16, %rsp
 1774 0bc8 48897DF8 		movq	%rdi, -8(%rbp)
 1775              	.LBB41:
 1776              		.loc 3 68 0
 1777 0bcc E8000000 		call	_ZN13UnitTestSuite12GetSuiteNameEv
 1777      00
 1778 0bd1 4889C2   		movq	%rax, %rdx
 1779 0bd4 488B45F8 		movq	-8(%rbp), %rax
 1780 0bd8 41B84400 		movl	$68, %r8d
 1780      0000
 1781 0bde B9000000 		movl	$.LC1, %ecx
 1781      00
 1782 0be3 BE000000 		movl	$.LC21, %esi
 1782      00
 1783 0be8 4889C7   		movq	%rax, %rdi
 1784 0beb E8000000 		call	_ZN8UnitTest4TestC2EPKcS2_S2_i
 1784      00
 1785 0bf0 488B45F8 		movq	-8(%rbp), %rax
 1786 0bf4 48C70000 		movq	$_ZTVN12_GLOBAL__N_150TestXmlTestReporterFixtureEmptyReportSummaryFormatE+16, (%rax)
 1786      000000
 1787              	.LBE41:
 1788 0bfb C9       		leave
 1789              		.cfi_def_cfa 7, 8
 1790 0bfc C3       		ret
 1791              		.cfi_endproc
 1792              	.LFE1312:
 1794              		.set	_ZN12_GLOBAL__N_150TestXmlTestReporterFixtureEmptyReportSummaryFormatC1Ev,_ZN12_GLOBAL__N_150
 1795              		.local	_ZN12_GLOBAL__N_158testXmlTestReporterFixtureEmptyReportSummaryFormatInstanceE
 1796              		.comm	_ZN12_GLOBAL__N_158testXmlTestReporterFixtureEmptyReportSummaryFormatInstanceE,56,32
 1797              		.local	_ZN12_GLOBAL__N_151adderXmlTestReporterFixtureEmptyReportSummaryFormatE
 1798              		.comm	_ZN12_GLOBAL__N_151adderXmlTestReporterFixtureEmptyReportSummaryFormatE,1,1
 1799 0bfd 90       		.align 2
 1801              	_ZN12_GLOBAL__N_152XmlTestReporterFixtureEmptyReportSummaryFormatHelperD2Ev:
 1802              	.LFB1316:
 1803              		.loc 3 68 0
 1804              		.cfi_startproc
 1805 0bfe 55       		pushq	%rbp
 1806              		.cfi_def_cfa_offset 16
 1807              		.cfi_offset 6, -16
 1808 0bff 4889E5   		movq	%rsp, %rbp
 1809              		.cfi_def_cfa_register 6
 1810 0c02 4883EC10 		subq	$16, %rsp
 1811 0c06 48897DF8 		movq	%rdi, -8(%rbp)
 1812              	.LBB42:
 1813              		.loc 3 68 0
 1814 0c0a 488B45F8 		movq	-8(%rbp), %rax
 1815 0c0e 4889C7   		movq	%rax, %rdi
 1816 0c11 E846F4FF 		call	_ZN12_GLOBAL__N_122XmlTestReporterFixtureD2Ev
 1816      FF
 1817              	.LBE42:
 1818 0c16 C9       		leave
 1819              		.cfi_def_cfa 7, 8
 1820 0c17 C3       		ret
 1821              		.cfi_endproc
 1822              	.LFE1316:
 1824              		.set	_ZN12_GLOBAL__N_152XmlTestReporterFixtureEmptyReportSummaryFormatHelperD1Ev,_ZN12_GLOBAL__N_1
 1825              		.align 2
 1827              	_ZNK12_GLOBAL__N_150TestXmlTestReporterFixtureEmptyReportSummaryFormat7RunImplEv:
 1828              	.LFB1314:
 1829              		.loc 3 68 0
 1830              		.cfi_startproc
 1831              		.cfi_personality 0x3,__gxx_personality_v0
 1832              		.cfi_lsda 0x3,.LLSDA1314
 1833 0c18 55       		pushq	%rbp
 1834              		.cfi_def_cfa_offset 16
 1835              		.cfi_offset 6, -16
 1836 0c19 4889E5   		movq	%rsp, %rbp
 1837              		.cfi_def_cfa_register 6
 1838 0c1c 4154     		pushq	%r12
 1839 0c1e 53       		pushq	%rbx
 1840 0c1f 4881ECC0 		subq	$448, %rsp
 1840      010000
 1841              		.cfi_offset 12, -24
 1842              		.cfi_offset 3, -32
 1843 0c26 4889BD38 		movq	%rdi, -456(%rbp)
 1843      FEFFFF
 1844              	.LBB43:
 1845              		.loc 3 68 0
 1846 0c2d C6854FFE 		movb	$0, -433(%rbp)
 1846      FFFF00
 1847              	.LBB44:
 1848 0c34 488B8538 		movq	-456(%rbp), %rax
 1848      FEFFFF
 1849 0c3b 488D5008 		leaq	8(%rax), %rdx
 1850 0c3f 488D8560 		leaq	-416(%rbp), %rax
 1850      FEFFFF
 1851 0c46 4889D6   		movq	%rdx, %rsi
 1852 0c49 4889C7   		movq	%rax, %rdi
 1853              	.LEHB55:
 1854 0c4c E841FFFF 		call	_ZN12_GLOBAL__N_152XmlTestReporterFixtureEmptyReportSummaryFormatHelperC1ERKN8UnitTest11TestD
 1854      FF
 1855              	.LEHE55:
 1856              		.loc 3 68 0 is_stmt 0 discriminator 1
 1857 0c51 C6854FFE 		movb	$1, -433(%rbp)
 1857      FFFF01
 1858 0c58 488B8538 		movq	-456(%rbp), %rax
 1858      FEFFFF
 1859 0c5f 488D5008 		leaq	8(%rax), %rdx
 1860 0c63 488D8560 		leaq	-416(%rbp), %rax
 1860      FEFFFF
 1861 0c6a 4889D6   		movq	%rdx, %rsi
 1862 0c6d 4889C7   		movq	%rax, %rdi
 1863              	.LEHB56:
 1864 0c70 E8E12100 		call	_ZN8UnitTest11ExecuteTestIN12_GLOBAL__N_152XmlTestReporterFixtureEmptyReportSummaryFormatHelp
 1864      00
 1865              	.LEHE56:
 1866 0c75 488D8560 		leaq	-416(%rbp), %rax
 1866      FEFFFF
 1867 0c7c 4889C7   		movq	%rax, %rdi
 1868              	.LEHB57:
 1869 0c7f E87AFFFF 		call	_ZN12_GLOBAL__N_152XmlTestReporterFixtureEmptyReportSummaryFormatHelperD1Ev
 1869      FF
 1870              	.LEHE57:
 1871              	.LBE44:
 1872              	.LBE43:
 1873              		.loc 3 68 0
 1874 0c84 E9640200 		jmp	.L116
 1874      00
 1875              	.L110:
 1876 0c89 4989C4   		movq	%rax, %r12
 1877 0c8c 4889D3   		movq	%rdx, %rbx
 1878              	.LBB52:
 1879              	.LBB45:
 1880 0c8f 488D8560 		leaq	-416(%rbp), %rax
 1880      FEFFFF
 1881 0c96 4889C7   		movq	%rax, %rdi
 1882 0c99 E860FFFF 		call	_ZN12_GLOBAL__N_152XmlTestReporterFixtureEmptyReportSummaryFormatHelperD1Ev
 1882      FF
 1883 0c9e 4C89E0   		movq	%r12, %rax
 1884 0ca1 4889DA   		movq	%rbx, %rdx
 1885 0ca4 EB00     		jmp	.L98
 1886              	.L109:
 1887              	.L98:
 1888 0ca6 4883FA01 		cmpq	$1, %rdx
 1889 0caa 745C     		je	.L100
 1890 0cac 4883FA02 		cmpq	$2, %rdx
 1891 0cb0 0F84F400 		je	.L101
 1891      0000
 1892 0cb6 E9980100 		jmp	.L115
 1892      00
 1893              	.L111:
 1894 0cbb 4889C3   		movq	%rax, %rbx
 1895              	.LBE45:
 1896              	.LBB46:
 1897 0cbe E8000000 		call	__cxa_end_catch
 1897      00
 1898 0cc3 4889D8   		movq	%rbx, %rax
 1899 0cc6 4889C7   		movq	%rax, %rdi
 1900              	.LEHB58:
 1901 0cc9 E8000000 		call	_Unwind_Resume
 1901      00
 1902              	.LEHE58:
 1903              	.L112:
 1904 0cce 4889C3   		movq	%rax, %rbx
 1905              	.LBE46:
 1906              	.LBB47:
 1907              	.LBB48:
 1908 0cd1 488D8560 		leaq	-416(%rbp), %rax
 1908      FEFFFF
 1909 0cd8 4889C7   		movq	%rax, %rdi
 1910 0cdb E8000000 		call	_ZN8UnitTest15MemoryOutStreamD1Ev
 1910      00
 1911 0ce0 EB03     		jmp	.L104
 1912              	.L113:
 1913 0ce2 4889C3   		movq	%rax, %rbx
 1914              	.L104:
 1915              	.LBE48:
 1916 0ce5 E8000000 		call	__cxa_end_catch
 1916      00
 1917 0cea 4889D8   		movq	%rbx, %rax
 1918 0ced 4889C7   		movq	%rax, %rdi
 1919              	.LEHB59:
 1920 0cf0 E8000000 		call	_Unwind_Resume
 1920      00
 1921              	.LEHE59:
 1922              	.L114:
 1923 0cf5 4889C3   		movq	%rax, %rbx
 1924              	.LBE47:
 1925 0cf8 E8000000 		call	__cxa_end_catch
 1925      00
 1926 0cfd 4889D8   		movq	%rbx, %rax
 1927 0d00 4889C7   		movq	%rax, %rdi
 1928              	.LEHB60:
 1929 0d03 E8000000 		call	_Unwind_Resume
 1929      00
 1930              	.LEHE60:
 1931              	.L100:
 1932              	.LBB50:
 1933 0d08 4889C7   		movq	%rax, %rdi
 1934 0d0b E8000000 		call	__cxa_begin_catch
 1934      00
 1935 0d10 48898550 		movq	%rax, -432(%rbp)
 1935      FEFFFF
 1936 0d17 488B8550 		movq	-432(%rbp), %rax
 1936      FEFFFF
 1937 0d1e 488B00   		movq	(%rax), %rax
 1938 0d21 4883C010 		addq	$16, %rax
 1939 0d25 488B00   		movq	(%rax), %rax
 1940 0d28 488B9550 		movq	-432(%rbp), %rdx
 1940      FEFFFF
 1941 0d2f 4889D7   		movq	%rdx, %rdi
 1942 0d32 FFD0     		call	*%rax
 1943 0d34 4889C3   		movq	%rax, %rbx
 1944 0d37 488B8550 		movq	-432(%rbp), %rax
 1944      FEFFFF
 1945 0d3e 4889C7   		movq	%rax, %rdi
 1946              	.LEHB61:
 1947 0d41 E8000000 		call	_ZNK8UnitTest15AssertException10LineNumberEv
 1947      00
 1948 0d46 4189C4   		movl	%eax, %r12d
 1949 0d49 488B8550 		movq	-432(%rbp), %rax
 1949      FEFFFF
 1950 0d50 4889C7   		movq	%rax, %rdi
 1951 0d53 E8000000 		call	_ZNK8UnitTest15AssertException8FilenameEv
 1951      00
 1952              		.loc 3 68 0 discriminator 1
 1953 0d58 4889C1   		movq	%rax, %rcx
 1954 0d5b 488B8538 		movq	-456(%rbp), %rax
 1954      FEFFFF
 1955 0d62 488B5008 		movq	8(%rax), %rdx
 1956 0d66 488B8538 		movq	-456(%rbp), %rax
 1956      FEFFFF
 1957 0d6d 488B7010 		movq	16(%rax), %rsi
 1958 0d71 488D8560 		leaq	-416(%rbp), %rax
 1958      FEFFFF
 1959 0d78 4589E0   		movl	%r12d, %r8d
 1960 0d7b 4889C7   		movq	%rax, %rdi
 1961 0d7e E8000000 		call	_ZN8UnitTest11TestDetailsC1EPKcS2_S2_i
 1961      00
 1962              		.loc 3 68 0 discriminator 3
 1963 0d83 E8000000 		call	_ZN8UnitTest11CurrentTest7ResultsEv
 1963      00
 1964 0d88 488B00   		movq	(%rax), %rax
 1965 0d8b 488D8D60 		leaq	-416(%rbp), %rcx
 1965      FEFFFF
 1966 0d92 4889DA   		movq	%rbx, %rdx
 1967 0d95 4889CE   		movq	%rcx, %rsi
 1968 0d98 4889C7   		movq	%rax, %rdi
 1969 0d9b E8000000 		call	_ZN8UnitTest11TestResults13OnTestFailureERKNS_11TestDetailsEPKc
 1969      00
 1970              	.LEHE61:
 1971              		.loc 3 68 0 discriminator 1
 1972 0da0 E8000000 		call	__cxa_end_catch
 1972      00
 1973              	.LBE50:
 1974              	.LBE52:
 1975 0da5 E9430100 		jmp	.L116
 1975      00
 1976              	.L101:
 1977              	.LBB53:
 1978              	.LBB51:
 1979              		.loc 3 68 0
 1980 0daa 4889C7   		movq	%rax, %rdi
 1981 0dad E8000000 		call	__cxa_begin_catch
 1981      00
 1982 0db2 48898558 		movq	%rax, -424(%rbp)
 1982      FEFFFF
 1983              	.LBB49:
 1984 0db9 488D8560 		leaq	-416(%rbp), %rax
 1984      FEFFFF
 1985 0dc0 4889C7   		movq	%rax, %rdi
 1986              	.LEHB62:
 1987 0dc3 E8000000 		call	_ZN8UnitTest15MemoryOutStreamC1Ev
 1987      00
 1988              	.LEHE62:
 1989              		.loc 3 68 0 discriminator 1
 1990 0dc8 488B8558 		movq	-424(%rbp), %rax
 1990      FEFFFF
 1991 0dcf 488B00   		movq	(%rax), %rax
 1992 0dd2 4883C010 		addq	$16, %rax
 1993 0dd6 488B00   		movq	(%rax), %rax
 1994 0dd9 488B9558 		movq	-424(%rbp), %rdx
 1994      FEFFFF
 1995 0de0 4889D7   		movq	%rdx, %rdi
 1996 0de3 FFD0     		call	*%rax
 1997 0de5 4889C3   		movq	%rax, %rbx
 1998 0de8 488D8560 		leaq	-416(%rbp), %rax
 1998      FEFFFF
 1999 0def BE000000 		movl	$.LC3, %esi
 1999      00
 2000 0df4 4889C7   		movq	%rax, %rdi
 2001              	.LEHB63:
 2002 0df7 E8000000 		call	_ZStlsISt11char_traitsIcEERSt13basic_ostreamIcT_ES5_PKc
 2002      00
 2003 0dfc 4889DE   		movq	%rbx, %rsi
 2004 0dff 4889C7   		movq	%rax, %rdi
 2005 0e02 E8000000 		call	_ZStlsISt11char_traitsIcEERSt13basic_ostreamIcT_ES5_PKc
 2005      00
 2006 0e07 488D8560 		leaq	-416(%rbp), %rax
 2006      FEFFFF
 2007 0e0e 4889C7   		movq	%rax, %rdi
 2008 0e11 E8000000 		call	_ZNK8UnitTest15MemoryOutStream7GetTextEv
 2008      00
 2009 0e16 4889C3   		movq	%rax, %rbx
 2010 0e19 488B8538 		movq	-456(%rbp), %rax
 2010      FEFFFF
 2011 0e20 4C8D6008 		leaq	8(%rax), %r12
 2012 0e24 E8000000 		call	_ZN8UnitTest11CurrentTest7ResultsEv
 2012      00
 2013 0e29 488B00   		movq	(%rax), %rax
 2014 0e2c 4889DA   		movq	%rbx, %rdx
 2015 0e2f 4C89E6   		movq	%r12, %rsi
 2016 0e32 4889C7   		movq	%rax, %rdi
 2017 0e35 E8000000 		call	_ZN8UnitTest11TestResults13OnTestFailureERKNS_11TestDetailsEPKc
 2017      00
 2018              	.LEHE63:
 2019 0e3a 488D8560 		leaq	-416(%rbp), %rax
 2019      FEFFFF
 2020 0e41 4889C7   		movq	%rax, %rdi
 2021              	.LEHB64:
 2022 0e44 E8000000 		call	_ZN8UnitTest15MemoryOutStreamD1Ev
 2022      00
 2023              	.LEHE64:
 2024              	.LBE49:
 2025              		.loc 3 68 0
 2026 0e49 E8000000 		call	__cxa_end_catch
 2026      00
 2027              	.LBE51:
 2028              	.LBE53:
 2029 0e4e E99A0000 		jmp	.L116
 2029      00
 2030              	.L115:
 2031              	.LBB54:
 2032 0e53 4889C7   		movq	%rax, %rdi
 2033 0e56 E8000000 		call	__cxa_begin_catch
 2033      00
 2034 0e5b 80BD4FFE 		cmpb	$0, -433(%rbp)
 2034      FFFF00
 2035 0e62 7443     		je	.L107
 2036              		.loc 3 68 0 discriminator 1
 2037 0e64 488B8538 		movq	-456(%rbp), %rax
 2037      FEFFFF
 2038 0e6b 488D4808 		leaq	8(%rax), %rcx
 2039 0e6f 488D8560 		leaq	-416(%rbp), %rax
 2039      FEFFFF
 2040 0e76 BA440000 		movl	$68, %edx
 2040      00
 2041 0e7b 4889CE   		movq	%rcx, %rsi
 2042 0e7e 4889C7   		movq	%rax, %rdi
 2043              	.LEHB65:
 2044 0e81 E8000000 		call	_ZN8UnitTest11TestDetailsC1ERKS0_i
 2044      00
 2045 0e86 E8000000 		call	_ZN8UnitTest11CurrentTest7ResultsEv
 2045      00
 2046 0e8b 488B00   		movq	(%rax), %rax
 2047 0e8e 488D8D60 		leaq	-416(%rbp), %rcx
 2047      FEFFFF
 2048 0e95 BA000000 		movl	$.LC4, %edx
 2048      00
 2049 0e9a 4889CE   		movq	%rcx, %rsi
 2050 0e9d 4889C7   		movq	%rax, %rdi
 2051 0ea0 E8000000 		call	_ZN8UnitTest11TestResults13OnTestFailureERKNS_11TestDetailsEPKc
 2051      00
 2052 0ea5 EB41     		jmp	.L108
 2053              	.L107:
 2054              		.loc 3 68 0 discriminator 2
 2055 0ea7 488B8538 		movq	-456(%rbp), %rax
 2055      FEFFFF
 2056 0eae 488D4808 		leaq	8(%rax), %rcx
 2057 0eb2 488D8560 		leaq	-416(%rbp), %rax
 2057      FEFFFF
 2058 0eb9 BA440000 		movl	$68, %edx
 2058      00
 2059 0ebe 4889CE   		movq	%rcx, %rsi
 2060 0ec1 4889C7   		movq	%rax, %rdi
 2061 0ec4 E8000000 		call	_ZN8UnitTest11TestDetailsC1ERKS0_i
 2061      00
 2062              		.loc 3 68 0 discriminator 1
 2063 0ec9 E8000000 		call	_ZN8UnitTest11CurrentTest7ResultsEv
 2063      00
 2064 0ece 488B00   		movq	(%rax), %rax
 2065 0ed1 488D8D60 		leaq	-416(%rbp), %rcx
 2065      FEFFFF
 2066 0ed8 BA000000 		movl	$.LC5, %edx
 2066      00
 2067 0edd 4889CE   		movq	%rcx, %rsi
 2068 0ee0 4889C7   		movq	%rax, %rdi
 2069 0ee3 E8000000 		call	_ZN8UnitTest11TestResults13OnTestFailureERKNS_11TestDetailsEPKc
 2069      00
 2070              	.LEHE65:
 2071              	.L108:
 2072              	.LEHB66:
 2073 0ee8 E8000000 		call	__cxa_end_catch
 2073      00
 2074              	.LEHE66:
 2075              	.L116:
 2076              	.LBE54:
 2077              		.loc 3 68 0
 2078 0eed 90       		nop
 2079 0eee 4881C4C0 		addq	$448, %rsp
 2079      010000
 2080 0ef5 5B       		popq	%rbx
 2081 0ef6 415C     		popq	%r12
 2082 0ef8 5D       		popq	%rbp
 2083              		.cfi_def_cfa 7, 8
 2084 0ef9 C3       		ret
 2085              		.cfi_endproc
 2086              	.LFE1314:
 2087              		.section	.gcc_except_table
 2088              		.align 4
 2089              	.LLSDA1314:
 2090 0168 FF       		.byte	0xff
 2091 0169 03       		.byte	0x3
 2092 016a 59       		.uleb128 .LLSDATT1314-.LLSDATTD1314
 2093              	.LLSDATTD1314:
 2094 016b 01       		.byte	0x1
 2095 016c 40       		.uleb128 .LLSDACSE1314-.LLSDACSB1314
 2096              	.LLSDACSB1314:
 2097 016d 34       		.uleb128 .LEHB55-.LFB1314
 2098 016e 05       		.uleb128 .LEHE55-.LEHB55
 2099 016f 8E01     		.uleb128 .L109-.LFB1314
 2100 0171 05       		.uleb128 0x5
 2101 0172 58       		.uleb128 .LEHB56-.LFB1314
 2102 0173 05       		.uleb128 .LEHE56-.LEHB56
 2103 0174 71       		.uleb128 .L110-.LFB1314
 2104 0175 07       		.uleb128 0x7
 2105 0176 67       		.uleb128 .LEHB57-.LFB1314
 2106 0177 05       		.uleb128 .LEHE57-.LEHB57
 2107 0178 8E01     		.uleb128 .L109-.LFB1314
 2108 017a 05       		.uleb128 0x5
 2109 017b B101     		.uleb128 .LEHB58-.LFB1314
 2110 017d 05       		.uleb128 .LEHE58-.LEHB58
 2111 017e 00       		.uleb128 0
 2112 017f 00       		.uleb128 0
 2113 0180 D801     		.uleb128 .LEHB59-.LFB1314
 2114 0182 05       		.uleb128 .LEHE59-.LEHB59
 2115 0183 00       		.uleb128 0
 2116 0184 00       		.uleb128 0
 2117 0185 EB01     		.uleb128 .LEHB60-.LFB1314
 2118 0187 05       		.uleb128 .LEHE60-.LEHB60
 2119 0188 00       		.uleb128 0
 2120 0189 00       		.uleb128 0
 2121 018a A902     		.uleb128 .LEHB61-.LFB1314
 2122 018c 5F       		.uleb128 .LEHE61-.LEHB61
 2123 018d A301     		.uleb128 .L111-.LFB1314
 2124 018f 00       		.uleb128 0
 2125 0190 AB03     		.uleb128 .LEHB62-.LFB1314
 2126 0192 05       		.uleb128 .LEHE62-.LEHB62
 2127 0193 CA01     		.uleb128 .L113-.LFB1314
 2128 0195 00       		.uleb128 0
 2129 0196 DF03     		.uleb128 .LEHB63-.LFB1314
 2130 0198 43       		.uleb128 .LEHE63-.LEHB63
 2131 0199 B601     		.uleb128 .L112-.LFB1314
 2132 019b 00       		.uleb128 0
 2133 019c AC04     		.uleb128 .LEHB64-.LFB1314
 2134 019e 05       		.uleb128 .LEHE64-.LEHB64
 2135 019f CA01     		.uleb128 .L113-.LFB1314
 2136 01a1 00       		.uleb128 0
 2137 01a2 E904     		.uleb128 .LEHB65-.LFB1314
 2138 01a4 67       		.uleb128 .LEHE65-.LEHB65
 2139 01a5 DD01     		.uleb128 .L114-.LFB1314
 2140 01a7 00       		.uleb128 0
 2141 01a8 D005     		.uleb128 .LEHB66-.LFB1314
 2142 01aa 05       		.uleb128 .LEHE66-.LEHB66
 2143 01ab 00       		.uleb128 0
 2144 01ac 00       		.uleb128 0
 2145              	.LLSDACSE1314:
 2146 01ad 03       		.byte	0x3
 2147 01ae 00       		.byte	0
 2148 01af 02       		.byte	0x2
 2149 01b0 7D       		.byte	0x7d
 2150 01b1 01       		.byte	0x1
 2151 01b2 7D       		.byte	0x7d
 2152 01b3 00       		.byte	0
 2153 01b4 7D       		.byte	0x7d
 2154 01b5 000000   		.align 4
 2155 01b8 00000000 		.long	0
 2156              	
 2157 01bc 00000000 		.long	_ZTISt9exception
 2158 01c0 00000000 		.long	_ZTIN8UnitTest15AssertExceptionE
 2159              	.LLSDATT1314:
 2160              		.text
 2162              		.section	.rodata
 2163 0335 000000   		.align 8
 2164              	.LC22:
 2165 0338 3C3F786D 		.string	"<?xml version=\"1.0\"?><unittest-results tests=\"0\" failedtests=\"0\" failures=\"0\" tim
 2165      6C207665 
 2165      7273696F 
 2165      6E3D2231 
 2165      2E30223F 
 2166              		.text
 2167              		.align 2
 2169              	_ZN12_GLOBAL__N_152XmlTestReporterFixtureEmptyReportSummaryFormatHelper7RunImplEv:
 2170              	.LFB1318:
  69:TestXmlTestReporter.cpp **** {
 2171              		.loc 3 69 0 is_stmt 1
 2172              		.cfi_startproc
 2173              		.cfi_personality 0x3,__gxx_personality_v0
 2174              		.cfi_lsda 0x3,.LLSDA1318
 2175 0efa 55       		pushq	%rbp
 2176              		.cfi_def_cfa_offset 16
 2177              		.cfi_offset 6, -16
 2178 0efb 4889E5   		movq	%rsp, %rbp
 2179              		.cfi_def_cfa_register 6
 2180 0efe 53       		pushq	%rbx
 2181 0eff 4883EC48 		subq	$72, %rsp
 2182              		.cfi_offset 3, -24
 2183 0f03 48897DB8 		movq	%rdi, -72(%rbp)
 2184              	.LBB55:
  70:TestXmlTestReporter.cpp ****     reporter.ReportSummary(0, 0, 0, 0.1f);
 2185              		.loc 3 70 0
 2186 0f07 488B45B8 		movq	-72(%rbp), %rax
 2187 0f0b 48056001 		addq	$352, %rax
 2187      0000
 2188 0f11 F30F1005 		movss	.LC10(%rip), %xmm0
 2188      00000000 
 2189 0f19 B9000000 		movl	$0, %ecx
 2189      00
 2190 0f1e BA000000 		movl	$0, %edx
 2190      00
 2191 0f23 BE000000 		movl	$0, %esi
 2191      00
 2192 0f28 4889C7   		movq	%rax, %rdi
 2193              	.LEHB67:
 2194 0f2b E8000000 		call	_ZN8UnitTest15XmlTestReporter13ReportSummaryEiiif
 2194      00
 2195              	.LEHE67:
  71:TestXmlTestReporter.cpp **** 
  72:TestXmlTestReporter.cpp ****     const char *expected =
  73:TestXmlTestReporter.cpp **** "<?xml version=\"1.0\"?>"
  74:TestXmlTestReporter.cpp **** "<unittest-results tests=\"0\" failedtests=\"0\" failures=\"0\" time=\"0.1\">"
  75:TestXmlTestReporter.cpp **** "</unittest-results>";
 2196              		.loc 3 75 0
 2197 0f30 48C745C8 		movq	$.LC22, -56(%rbp)
 2197      00000000 
 2198              	.LEHB68:
  76:TestXmlTestReporter.cpp **** 
  77:TestXmlTestReporter.cpp ****     CHECK_EQUAL(expected, output.str());
 2199              		.loc 3 77 0
 2200 0f38 E8000000 		call	_ZN8UnitTest11CurrentTest7DetailsEv
 2200      00
 2201 0f3d 488B08   		movq	(%rax), %rcx
 2202 0f40 488D45D0 		leaq	-48(%rbp), %rax
 2203 0f44 BA4D0000 		movl	$77, %edx
 2203      00
 2204 0f49 4889CE   		movq	%rcx, %rsi
 2205 0f4c 4889C7   		movq	%rax, %rdi
 2206 0f4f E8000000 		call	_ZN8UnitTest11TestDetailsC1ERKS0_i
 2206      00
 2207              		.loc 3 77 0 is_stmt 0 discriminator 1
 2208 0f54 488B55B8 		movq	-72(%rbp), %rdx
 2209 0f58 488D45C0 		leaq	-64(%rbp), %rax
 2210 0f5c 4889D6   		movq	%rdx, %rsi
 2211 0f5f 4889C7   		movq	%rax, %rdi
 2212 0f62 E8000000 		call	_ZNKSt19basic_ostringstreamIcSt11char_traitsIcESaIcEE3strEv
 2212      00
 2213              	.LEHE68:
 2214              	.LEHB69:
 2215              		.loc 3 77 0 discriminator 2
 2216 0f67 E8000000 		call	_ZN8UnitTest11CurrentTest7ResultsEv
 2216      00
 2217 0f6c 488B00   		movq	(%rax), %rax
 2218 0f6f 488D4DD0 		leaq	-48(%rbp), %rcx
 2219 0f73 488D55C0 		leaq	-64(%rbp), %rdx
 2220 0f77 488D75C8 		leaq	-56(%rbp), %rsi
 2221 0f7b 4889C7   		movq	%rax, %rdi
 2222 0f7e E8000000 		call	_ZN8UnitTest10CheckEqualIPKcSsEEvRNS_11TestResultsERKT_RKT0_RKNS_11TestDetailsE
 2222      00
 2223              	.LEHE69:
 2224              		.loc 3 77 0 discriminator 1
 2225 0f83 488D45C0 		leaq	-64(%rbp), %rax
 2226 0f87 4889C7   		movq	%rax, %rdi
 2227              	.LEHB70:
 2228 0f8a E8000000 		call	_ZNSsD1Ev
 2228      00
 2229              	.LEHE70:
 2230              	.LBE55:
  78:TestXmlTestReporter.cpp **** }
 2231              		.loc 3 78 0 is_stmt 1
 2232 0f8f EB6C     		jmp	.L125
 2233              	.L123:
 2234 0f91 4889C3   		movq	%rax, %rbx
 2235              	.LBB56:
  77:TestXmlTestReporter.cpp **** }
 2236              		.loc 3 77 0
 2237 0f94 488D45C0 		leaq	-64(%rbp), %rax
 2238 0f98 4889C7   		movq	%rax, %rdi
 2239 0f9b E8000000 		call	_ZNSsD1Ev
 2239      00
 2240 0fa0 4889D8   		movq	%rbx, %rax
 2241 0fa3 EB13     		jmp	.L119
 2242              	.L124:
 2243 0fa5 4889C3   		movq	%rax, %rbx
 2244 0fa8 E8000000 		call	__cxa_end_catch
 2244      00
 2245 0fad 4889D8   		movq	%rbx, %rax
 2246 0fb0 4889C7   		movq	%rax, %rdi
 2247              	.LEHB71:
 2248 0fb3 E8000000 		call	_Unwind_Resume
 2248      00
 2249              	.LEHE71:
 2250              	.L122:
 2251              	.L119:
 2252 0fb8 4889C7   		movq	%rax, %rdi
 2253 0fbb E8000000 		call	__cxa_begin_catch
 2253      00
 2254              	.LEHB72:
 2255 0fc0 E8000000 		call	_ZN8UnitTest11CurrentTest7DetailsEv
 2255      00
 2256 0fc5 488B08   		movq	(%rax), %rcx
 2257 0fc8 488D45D0 		leaq	-48(%rbp), %rax
 2258 0fcc BA4D0000 		movl	$77, %edx
 2258      00
 2259 0fd1 4889CE   		movq	%rcx, %rsi
 2260 0fd4 4889C7   		movq	%rax, %rdi
 2261 0fd7 E8000000 		call	_ZN8UnitTest11TestDetailsC1ERKS0_i
 2261      00
  77:TestXmlTestReporter.cpp **** }
 2262              		.loc 3 77 0 is_stmt 0 discriminator 1
 2263 0fdc E8000000 		call	_ZN8UnitTest11CurrentTest7ResultsEv
 2263      00
 2264 0fe1 488B00   		movq	(%rax), %rax
 2265 0fe4 488D4DD0 		leaq	-48(%rbp), %rcx
 2266 0fe8 BA000000 		movl	$.LC12, %edx
 2266      00
 2267 0fed 4889CE   		movq	%rcx, %rsi
 2268 0ff0 4889C7   		movq	%rax, %rdi
 2269 0ff3 E8000000 		call	_ZN8UnitTest11TestResults13OnTestFailureERKNS_11TestDetailsEPKc
 2269      00
 2270              	.LEHE72:
 2271              	.LEHB73:
 2272 0ff8 E8000000 		call	__cxa_end_catch
 2272      00
 2273              	.LEHE73:
 2274              	.L125:
 2275              	.LBE56:
 2276              		.loc 3 78 0 is_stmt 1
 2277 0ffd 90       		nop
 2278 0ffe 4883C448 		addq	$72, %rsp
 2279 1002 5B       		popq	%rbx
 2280 1003 5D       		popq	%rbp
 2281              		.cfi_def_cfa 7, 8
 2282 1004 C3       		ret
 2283              		.cfi_endproc
 2284              	.LFE1318:
 2285              		.section	.gcc_except_table
 2286              		.align 4
 2287              	.LLSDA1318:
 2288 01c4 FF       		.byte	0xff
 2289 01c5 03       		.byte	0x3
 2290 01c6 31       		.uleb128 .LLSDATT1318-.LLSDATTD1318
 2291              	.LLSDATTD1318:
 2292 01c7 01       		.byte	0x1
 2293 01c8 24       		.uleb128 .LLSDACSE1318-.LLSDACSB1318
 2294              	.LLSDACSB1318:
 2295 01c9 31       		.uleb128 .LEHB67-.LFB1318
 2296 01ca 05       		.uleb128 .LEHE67-.LEHB67
 2297 01cb 00       		.uleb128 0
 2298 01cc 00       		.uleb128 0
 2299 01cd 3E       		.uleb128 .LEHB68-.LFB1318
 2300 01ce 2F       		.uleb128 .LEHE68-.LEHB68
 2301 01cf BE01     		.uleb128 .L122-.LFB1318
 2302 01d1 01       		.uleb128 0x1
 2303 01d2 6D       		.uleb128 .LEHB69-.LFB1318
 2304 01d3 1C       		.uleb128 .LEHE69-.LEHB69
 2305 01d4 9701     		.uleb128 .L123-.LFB1318
 2306 01d6 03       		.uleb128 0x3
 2307 01d7 9001     		.uleb128 .LEHB70-.LFB1318
 2308 01d9 05       		.uleb128 .LEHE70-.LEHB70
 2309 01da BE01     		.uleb128 .L122-.LFB1318
 2310 01dc 01       		.uleb128 0x1
 2311 01dd B901     		.uleb128 .LEHB71-.LFB1318
 2312 01df 05       		.uleb128 .LEHE71-.LEHB71
 2313 01e0 00       		.uleb128 0
 2314 01e1 00       		.uleb128 0
 2315 01e2 C601     		.uleb128 .LEHB72-.LFB1318
 2316 01e4 38       		.uleb128 .LEHE72-.LEHB72
 2317 01e5 AB01     		.uleb128 .L124-.LFB1318
 2318 01e7 00       		.uleb128 0
 2319 01e8 FE01     		.uleb128 .LEHB73-.LFB1318
 2320 01ea 05       		.uleb128 .LEHE73-.LEHB73
 2321 01eb 00       		.uleb128 0
 2322 01ec 00       		.uleb128 0
 2323              	.LLSDACSE1318:
 2324 01ed 01       		.byte	0x1
 2325 01ee 00       		.byte	0
 2326 01ef 00       		.byte	0
 2327 01f0 7D       		.byte	0x7d
 2328 01f1 000000   		.align 4
 2329 01f4 00000000 		.long	0
 2330              	
 2331              	.LLSDATT1318:
 2332              		.text
 2334 1005 90       		.align 2
 2336              	_ZN12_GLOBAL__N_167XmlTestReporterFixtureSingleSuccessfulTestReportSummaryFormatHelperC2ERKN8UnitTe
 2337              	.LFB1320:
  79:TestXmlTestReporter.cpp **** 
  80:TestXmlTestReporter.cpp **** TEST_FIXTURE(XmlTestReporterFixture, SingleSuccessfulTestReportSummaryFormat)
 2338              		.loc 3 80 0
 2339              		.cfi_startproc
 2340 1006 55       		pushq	%rbp
 2341              		.cfi_def_cfa_offset 16
 2342              		.cfi_offset 6, -16
 2343 1007 4889E5   		movq	%rsp, %rbp
 2344              		.cfi_def_cfa_register 6
 2345 100a 4883EC10 		subq	$16, %rsp
 2346 100e 48897DF8 		movq	%rdi, -8(%rbp)
 2347 1012 488975F0 		movq	%rsi, -16(%rbp)
 2348              	.LBB57:
 2349              		.loc 3 80 0
 2350 1016 488B45F8 		movq	-8(%rbp), %rax
 2351 101a 4889C7   		movq	%rax, %rdi
 2352 101d E8DEEFFF 		call	_ZN12_GLOBAL__N_122XmlTestReporterFixtureC2Ev
 2352      FF
 2353 1022 488B45F8 		movq	-8(%rbp), %rax
 2354 1026 488B55F0 		movq	-16(%rbp), %rdx
 2355 102a 48899088 		movq	%rdx, 392(%rax)
 2355      010000
 2356              	.LBE57:
 2357 1031 C9       		leave
 2358              		.cfi_def_cfa 7, 8
 2359 1032 C3       		ret
 2360              		.cfi_endproc
 2361              	.LFE1320:
 2363              		.set	_ZN12_GLOBAL__N_167XmlTestReporterFixtureSingleSuccessfulTestReportSummaryFormatHelperC1ERKN8
 2364              		.section	.rodata
 2365 03a5 000000   		.align 8
 2366              	.LC23:
 2367 03a8 53696E67 		.string	"SingleSuccessfulTestReportSummaryFormat"
 2367      6C655375 
 2367      63636573 
 2367      7366756C 
 2367      54657374 
 2368              		.text
 2369 1033 90       		.align 2
 2371              	_ZN12_GLOBAL__N_165TestXmlTestReporterFixtureSingleSuccessfulTestReportSummaryFormatC2Ev:
 2372              	.LFB1323:
 2373              		.loc 3 80 0
 2374              		.cfi_startproc
 2375 1034 55       		pushq	%rbp
 2376              		.cfi_def_cfa_offset 16
 2377              		.cfi_offset 6, -16
 2378 1035 4889E5   		movq	%rsp, %rbp
 2379              		.cfi_def_cfa_register 6
 2380 1038 4883EC10 		subq	$16, %rsp
 2381 103c 48897DF8 		movq	%rdi, -8(%rbp)
 2382              	.LBB58:
 2383              		.loc 3 80 0
 2384 1040 E8000000 		call	_ZN13UnitTestSuite12GetSuiteNameEv
 2384      00
 2385 1045 4889C2   		movq	%rax, %rdx
 2386 1048 488B45F8 		movq	-8(%rbp), %rax
 2387 104c 41B85000 		movl	$80, %r8d
 2387      0000
 2388 1052 B9000000 		movl	$.LC1, %ecx
 2388      00
 2389 1057 BE000000 		movl	$.LC23, %esi
 2389      00
 2390 105c 4889C7   		movq	%rax, %rdi
 2391 105f E8000000 		call	_ZN8UnitTest4TestC2EPKcS2_S2_i
 2391      00
 2392 1064 488B45F8 		movq	-8(%rbp), %rax
 2393 1068 48C70000 		movq	$_ZTVN12_GLOBAL__N_165TestXmlTestReporterFixtureSingleSuccessfulTestReportSummaryFormatE+16, 
 2393      000000
 2394              	.LBE58:
 2395 106f C9       		leave
 2396              		.cfi_def_cfa 7, 8
 2397 1070 C3       		ret
 2398              		.cfi_endproc
 2399              	.LFE1323:
 2401              		.set	_ZN12_GLOBAL__N_165TestXmlTestReporterFixtureSingleSuccessfulTestReportSummaryFormatC1Ev,_ZN1
 2402              		.local	_ZN12_GLOBAL__N_173testXmlTestReporterFixtureSingleSuccessfulTestReportSummaryFormatInstanc
 2403              		.comm	_ZN12_GLOBAL__N_173testXmlTestReporterFixtureSingleSuccessfulTestReportSummaryFormatInstance
 2404              		.local	_ZN12_GLOBAL__N_166adderXmlTestReporterFixtureSingleSuccessfulTestReportSummaryFormatE
 2405              		.comm	_ZN12_GLOBAL__N_166adderXmlTestReporterFixtureSingleSuccessfulTestReportSummaryFormatE,1,1
 2406 1071 90       		.align 2
 2408              	_ZN12_GLOBAL__N_167XmlTestReporterFixtureSingleSuccessfulTestReportSummaryFormatHelperD2Ev:
 2409              	.LFB1327:
 2410              		.loc 3 80 0
 2411              		.cfi_startproc
 2412 1072 55       		pushq	%rbp
 2413              		.cfi_def_cfa_offset 16
 2414              		.cfi_offset 6, -16
 2415 1073 4889E5   		movq	%rsp, %rbp
 2416              		.cfi_def_cfa_register 6
 2417 1076 4883EC10 		subq	$16, %rsp
 2418 107a 48897DF8 		movq	%rdi, -8(%rbp)
 2419              	.LBB59:
 2420              		.loc 3 80 0
 2421 107e 488B45F8 		movq	-8(%rbp), %rax
 2422 1082 4889C7   		movq	%rax, %rdi
 2423 1085 E8D2EFFF 		call	_ZN12_GLOBAL__N_122XmlTestReporterFixtureD2Ev
 2423      FF
 2424              	.LBE59:
 2425 108a C9       		leave
 2426              		.cfi_def_cfa 7, 8
 2427 108b C3       		ret
 2428              		.cfi_endproc
 2429              	.LFE1327:
 2431              		.set	_ZN12_GLOBAL__N_167XmlTestReporterFixtureSingleSuccessfulTestReportSummaryFormatHelperD1Ev,_Z
 2432              		.align 2
 2434              	_ZNK12_GLOBAL__N_165TestXmlTestReporterFixtureSingleSuccessfulTestReportSummaryFormat7RunImplEv:
 2435              	.LFB1325:
 2436              		.loc 3 80 0
 2437              		.cfi_startproc
 2438              		.cfi_personality 0x3,__gxx_personality_v0
 2439              		.cfi_lsda 0x3,.LLSDA1325
 2440 108c 55       		pushq	%rbp
 2441              		.cfi_def_cfa_offset 16
 2442              		.cfi_offset 6, -16
 2443 108d 4889E5   		movq	%rsp, %rbp
 2444              		.cfi_def_cfa_register 6
 2445 1090 4154     		pushq	%r12
 2446 1092 53       		pushq	%rbx
 2447 1093 4881ECC0 		subq	$448, %rsp
 2447      010000
 2448              		.cfi_offset 12, -24
 2449              		.cfi_offset 3, -32
 2450 109a 4889BD38 		movq	%rdi, -456(%rbp)
 2450      FEFFFF
 2451              	.LBB60:
 2452              		.loc 3 80 0
 2453 10a1 C6854FFE 		movb	$0, -433(%rbp)
 2453      FFFF00
 2454              	.LBB61:
 2455 10a8 488B8538 		movq	-456(%rbp), %rax
 2455      FEFFFF
 2456 10af 488D5008 		leaq	8(%rax), %rdx
 2457 10b3 488D8560 		leaq	-416(%rbp), %rax
 2457      FEFFFF
 2458 10ba 4889D6   		movq	%rdx, %rsi
 2459 10bd 4889C7   		movq	%rax, %rdi
 2460              	.LEHB74:
 2461 10c0 E841FFFF 		call	_ZN12_GLOBAL__N_167XmlTestReporterFixtureSingleSuccessfulTestReportSummaryFormatHelperC1ERKN8
 2461      FF
 2462              	.LEHE74:
 2463              		.loc 3 80 0 is_stmt 0 discriminator 1
 2464 10c5 C6854FFE 		movb	$1, -433(%rbp)
 2464      FFFF01
 2465 10cc 488B8538 		movq	-456(%rbp), %rax
 2465      FEFFFF
 2466 10d3 488D5008 		leaq	8(%rax), %rdx
 2467 10d7 488D8560 		leaq	-416(%rbp), %rax
 2467      FEFFFF
 2468 10de 4889D6   		movq	%rdx, %rsi
 2469 10e1 4889C7   		movq	%rax, %rdi
 2470              	.LEHB75:
 2471 10e4 E8052000 		call	_ZN8UnitTest11ExecuteTestIN12_GLOBAL__N_167XmlTestReporterFixtureSingleSuccessfulTestReportSu
 2471      00
 2472              	.LEHE75:
 2473 10e9 488D8560 		leaq	-416(%rbp), %rax
 2473      FEFFFF
 2474 10f0 4889C7   		movq	%rax, %rdi
 2475              	.LEHB76:
 2476 10f3 E87AFFFF 		call	_ZN12_GLOBAL__N_167XmlTestReporterFixtureSingleSuccessfulTestReportSummaryFormatHelperD1Ev
 2476      FF
 2477              	.LEHE76:
 2478              	.LBE61:
 2479              	.LBE60:
 2480              		.loc 3 80 0
 2481 10f8 E9640200 		jmp	.L150
 2481      00
 2482              	.L144:
 2483 10fd 4989C4   		movq	%rax, %r12
 2484 1100 4889D3   		movq	%rdx, %rbx
 2485              	.LBB69:
 2486              	.LBB62:
 2487 1103 488D8560 		leaq	-416(%rbp), %rax
 2487      FEFFFF
 2488 110a 4889C7   		movq	%rax, %rdi
 2489 110d E860FFFF 		call	_ZN12_GLOBAL__N_167XmlTestReporterFixtureSingleSuccessfulTestReportSummaryFormatHelperD1Ev
 2489      FF
 2490 1112 4C89E0   		movq	%r12, %rax
 2491 1115 4889DA   		movq	%rbx, %rdx
 2492 1118 EB00     		jmp	.L132
 2493              	.L143:
 2494              	.L132:
 2495 111a 4883FA01 		cmpq	$1, %rdx
 2496 111e 745C     		je	.L134
 2497 1120 4883FA02 		cmpq	$2, %rdx
 2498 1124 0F84F400 		je	.L135
 2498      0000
 2499 112a E9980100 		jmp	.L149
 2499      00
 2500              	.L145:
 2501 112f 4889C3   		movq	%rax, %rbx
 2502              	.LBE62:
 2503              	.LBB63:
 2504 1132 E8000000 		call	__cxa_end_catch
 2504      00
 2505 1137 4889D8   		movq	%rbx, %rax
 2506 113a 4889C7   		movq	%rax, %rdi
 2507              	.LEHB77:
 2508 113d E8000000 		call	_Unwind_Resume
 2508      00
 2509              	.LEHE77:
 2510              	.L146:
 2511 1142 4889C3   		movq	%rax, %rbx
 2512              	.LBE63:
 2513              	.LBB64:
 2514              	.LBB65:
 2515 1145 488D8560 		leaq	-416(%rbp), %rax
 2515      FEFFFF
 2516 114c 4889C7   		movq	%rax, %rdi
 2517 114f E8000000 		call	_ZN8UnitTest15MemoryOutStreamD1Ev
 2517      00
 2518 1154 EB03     		jmp	.L138
 2519              	.L147:
 2520 1156 4889C3   		movq	%rax, %rbx
 2521              	.L138:
 2522              	.LBE65:
 2523 1159 E8000000 		call	__cxa_end_catch
 2523      00
 2524 115e 4889D8   		movq	%rbx, %rax
 2525 1161 4889C7   		movq	%rax, %rdi
 2526              	.LEHB78:
 2527 1164 E8000000 		call	_Unwind_Resume
 2527      00
 2528              	.LEHE78:
 2529              	.L148:
 2530 1169 4889C3   		movq	%rax, %rbx
 2531              	.LBE64:
 2532 116c E8000000 		call	__cxa_end_catch
 2532      00
 2533 1171 4889D8   		movq	%rbx, %rax
 2534 1174 4889C7   		movq	%rax, %rdi
 2535              	.LEHB79:
 2536 1177 E8000000 		call	_Unwind_Resume
 2536      00
 2537              	.LEHE79:
 2538              	.L134:
 2539              	.LBB67:
 2540 117c 4889C7   		movq	%rax, %rdi
 2541 117f E8000000 		call	__cxa_begin_catch
 2541      00
 2542 1184 48898550 		movq	%rax, -432(%rbp)
 2542      FEFFFF
 2543 118b 488B8550 		movq	-432(%rbp), %rax
 2543      FEFFFF
 2544 1192 488B00   		movq	(%rax), %rax
 2545 1195 4883C010 		addq	$16, %rax
 2546 1199 488B00   		movq	(%rax), %rax
 2547 119c 488B9550 		movq	-432(%rbp), %rdx
 2547      FEFFFF
 2548 11a3 4889D7   		movq	%rdx, %rdi
 2549 11a6 FFD0     		call	*%rax
 2550 11a8 4889C3   		movq	%rax, %rbx
 2551 11ab 488B8550 		movq	-432(%rbp), %rax
 2551      FEFFFF
 2552 11b2 4889C7   		movq	%rax, %rdi
 2553              	.LEHB80:
 2554 11b5 E8000000 		call	_ZNK8UnitTest15AssertException10LineNumberEv
 2554      00
 2555 11ba 4189C4   		movl	%eax, %r12d
 2556 11bd 488B8550 		movq	-432(%rbp), %rax
 2556      FEFFFF
 2557 11c4 4889C7   		movq	%rax, %rdi
 2558 11c7 E8000000 		call	_ZNK8UnitTest15AssertException8FilenameEv
 2558      00
 2559              		.loc 3 80 0 discriminator 1
 2560 11cc 4889C1   		movq	%rax, %rcx
 2561 11cf 488B8538 		movq	-456(%rbp), %rax
 2561      FEFFFF
 2562 11d6 488B5008 		movq	8(%rax), %rdx
 2563 11da 488B8538 		movq	-456(%rbp), %rax
 2563      FEFFFF
 2564 11e1 488B7010 		movq	16(%rax), %rsi
 2565 11e5 488D8560 		leaq	-416(%rbp), %rax
 2565      FEFFFF
 2566 11ec 4589E0   		movl	%r12d, %r8d
 2567 11ef 4889C7   		movq	%rax, %rdi
 2568 11f2 E8000000 		call	_ZN8UnitTest11TestDetailsC1EPKcS2_S2_i
 2568      00
 2569              		.loc 3 80 0 discriminator 3
 2570 11f7 E8000000 		call	_ZN8UnitTest11CurrentTest7ResultsEv
 2570      00
 2571 11fc 488B00   		movq	(%rax), %rax
 2572 11ff 488D8D60 		leaq	-416(%rbp), %rcx
 2572      FEFFFF
 2573 1206 4889DA   		movq	%rbx, %rdx
 2574 1209 4889CE   		movq	%rcx, %rsi
 2575 120c 4889C7   		movq	%rax, %rdi
 2576 120f E8000000 		call	_ZN8UnitTest11TestResults13OnTestFailureERKNS_11TestDetailsEPKc
 2576      00
 2577              	.LEHE80:
 2578              		.loc 3 80 0 discriminator 1
 2579 1214 E8000000 		call	__cxa_end_catch
 2579      00
 2580              	.LBE67:
 2581              	.LBE69:
 2582 1219 E9430100 		jmp	.L150
 2582      00
 2583              	.L135:
 2584              	.LBB70:
 2585              	.LBB68:
 2586              		.loc 3 80 0
 2587 121e 4889C7   		movq	%rax, %rdi
 2588 1221 E8000000 		call	__cxa_begin_catch
 2588      00
 2589 1226 48898558 		movq	%rax, -424(%rbp)
 2589      FEFFFF
 2590              	.LBB66:
 2591 122d 488D8560 		leaq	-416(%rbp), %rax
 2591      FEFFFF
 2592 1234 4889C7   		movq	%rax, %rdi
 2593              	.LEHB81:
 2594 1237 E8000000 		call	_ZN8UnitTest15MemoryOutStreamC1Ev
 2594      00
 2595              	.LEHE81:
 2596              		.loc 3 80 0 discriminator 1
 2597 123c 488B8558 		movq	-424(%rbp), %rax
 2597      FEFFFF
 2598 1243 488B00   		movq	(%rax), %rax
 2599 1246 4883C010 		addq	$16, %rax
 2600 124a 488B00   		movq	(%rax), %rax
 2601 124d 488B9558 		movq	-424(%rbp), %rdx
 2601      FEFFFF
 2602 1254 4889D7   		movq	%rdx, %rdi
 2603 1257 FFD0     		call	*%rax
 2604 1259 4889C3   		movq	%rax, %rbx
 2605 125c 488D8560 		leaq	-416(%rbp), %rax
 2605      FEFFFF
 2606 1263 BE000000 		movl	$.LC3, %esi
 2606      00
 2607 1268 4889C7   		movq	%rax, %rdi
 2608              	.LEHB82:
 2609 126b E8000000 		call	_ZStlsISt11char_traitsIcEERSt13basic_ostreamIcT_ES5_PKc
 2609      00
 2610 1270 4889DE   		movq	%rbx, %rsi
 2611 1273 4889C7   		movq	%rax, %rdi
 2612 1276 E8000000 		call	_ZStlsISt11char_traitsIcEERSt13basic_ostreamIcT_ES5_PKc
 2612      00
 2613 127b 488D8560 		leaq	-416(%rbp), %rax
 2613      FEFFFF
 2614 1282 4889C7   		movq	%rax, %rdi
 2615 1285 E8000000 		call	_ZNK8UnitTest15MemoryOutStream7GetTextEv
 2615      00
 2616 128a 4889C3   		movq	%rax, %rbx
 2617 128d 488B8538 		movq	-456(%rbp), %rax
 2617      FEFFFF
 2618 1294 4C8D6008 		leaq	8(%rax), %r12
 2619 1298 E8000000 		call	_ZN8UnitTest11CurrentTest7ResultsEv
 2619      00
 2620 129d 488B00   		movq	(%rax), %rax
 2621 12a0 4889DA   		movq	%rbx, %rdx
 2622 12a3 4C89E6   		movq	%r12, %rsi
 2623 12a6 4889C7   		movq	%rax, %rdi
 2624 12a9 E8000000 		call	_ZN8UnitTest11TestResults13OnTestFailureERKNS_11TestDetailsEPKc
 2624      00
 2625              	.LEHE82:
 2626 12ae 488D8560 		leaq	-416(%rbp), %rax
 2626      FEFFFF
 2627 12b5 4889C7   		movq	%rax, %rdi
 2628              	.LEHB83:
 2629 12b8 E8000000 		call	_ZN8UnitTest15MemoryOutStreamD1Ev
 2629      00
 2630              	.LEHE83:
 2631              	.LBE66:
 2632              		.loc 3 80 0
 2633 12bd E8000000 		call	__cxa_end_catch
 2633      00
 2634              	.LBE68:
 2635              	.LBE70:
 2636 12c2 E99A0000 		jmp	.L150
 2636      00
 2637              	.L149:
 2638              	.LBB71:
 2639 12c7 4889C7   		movq	%rax, %rdi
 2640 12ca E8000000 		call	__cxa_begin_catch
 2640      00
 2641 12cf 80BD4FFE 		cmpb	$0, -433(%rbp)
 2641      FFFF00
 2642 12d6 7443     		je	.L141
 2643              		.loc 3 80 0 discriminator 1
 2644 12d8 488B8538 		movq	-456(%rbp), %rax
 2644      FEFFFF
 2645 12df 488D4808 		leaq	8(%rax), %rcx
 2646 12e3 488D8560 		leaq	-416(%rbp), %rax
 2646      FEFFFF
 2647 12ea BA500000 		movl	$80, %edx
 2647      00
 2648 12ef 4889CE   		movq	%rcx, %rsi
 2649 12f2 4889C7   		movq	%rax, %rdi
 2650              	.LEHB84:
 2651 12f5 E8000000 		call	_ZN8UnitTest11TestDetailsC1ERKS0_i
 2651      00
 2652 12fa E8000000 		call	_ZN8UnitTest11CurrentTest7ResultsEv
 2652      00
 2653 12ff 488B00   		movq	(%rax), %rax
 2654 1302 488D8D60 		leaq	-416(%rbp), %rcx
 2654      FEFFFF
 2655 1309 BA000000 		movl	$.LC4, %edx
 2655      00
 2656 130e 4889CE   		movq	%rcx, %rsi
 2657 1311 4889C7   		movq	%rax, %rdi
 2658 1314 E8000000 		call	_ZN8UnitTest11TestResults13OnTestFailureERKNS_11TestDetailsEPKc
 2658      00
 2659 1319 EB41     		jmp	.L142
 2660              	.L141:
 2661              		.loc 3 80 0 discriminator 2
 2662 131b 488B8538 		movq	-456(%rbp), %rax
 2662      FEFFFF
 2663 1322 488D4808 		leaq	8(%rax), %rcx
 2664 1326 488D8560 		leaq	-416(%rbp), %rax
 2664      FEFFFF
 2665 132d BA500000 		movl	$80, %edx
 2665      00
 2666 1332 4889CE   		movq	%rcx, %rsi
 2667 1335 4889C7   		movq	%rax, %rdi
 2668 1338 E8000000 		call	_ZN8UnitTest11TestDetailsC1ERKS0_i
 2668      00
 2669              		.loc 3 80 0 discriminator 1
 2670 133d E8000000 		call	_ZN8UnitTest11CurrentTest7ResultsEv
 2670      00
 2671 1342 488B00   		movq	(%rax), %rax
 2672 1345 488D8D60 		leaq	-416(%rbp), %rcx
 2672      FEFFFF
 2673 134c BA000000 		movl	$.LC5, %edx
 2673      00
 2674 1351 4889CE   		movq	%rcx, %rsi
 2675 1354 4889C7   		movq	%rax, %rdi
 2676 1357 E8000000 		call	_ZN8UnitTest11TestResults13OnTestFailureERKNS_11TestDetailsEPKc
 2676      00
 2677              	.LEHE84:
 2678              	.L142:
 2679              	.LEHB85:
 2680 135c E8000000 		call	__cxa_end_catch
 2680      00
 2681              	.LEHE85:
 2682              	.L150:
 2683              	.LBE71:
 2684              		.loc 3 80 0
 2685 1361 90       		nop
 2686 1362 4881C4C0 		addq	$448, %rsp
 2686      010000
 2687 1369 5B       		popq	%rbx
 2688 136a 415C     		popq	%r12
 2689 136c 5D       		popq	%rbp
 2690              		.cfi_def_cfa 7, 8
 2691 136d C3       		ret
 2692              		.cfi_endproc
 2693              	.LFE1325:
 2694              		.section	.gcc_except_table
 2695              		.align 4
 2696              	.LLSDA1325:
 2697 01f8 FF       		.byte	0xff
 2698 01f9 03       		.byte	0x3
 2699 01fa 59       		.uleb128 .LLSDATT1325-.LLSDATTD1325
 2700              	.LLSDATTD1325:
 2701 01fb 01       		.byte	0x1
 2702 01fc 40       		.uleb128 .LLSDACSE1325-.LLSDACSB1325
 2703              	.LLSDACSB1325:
 2704 01fd 34       		.uleb128 .LEHB74-.LFB1325
 2705 01fe 05       		.uleb128 .LEHE74-.LEHB74
 2706 01ff 8E01     		.uleb128 .L143-.LFB1325
 2707 0201 05       		.uleb128 0x5
 2708 0202 58       		.uleb128 .LEHB75-.LFB1325
 2709 0203 05       		.uleb128 .LEHE75-.LEHB75
 2710 0204 71       		.uleb128 .L144-.LFB1325
 2711 0205 07       		.uleb128 0x7
 2712 0206 67       		.uleb128 .LEHB76-.LFB1325
 2713 0207 05       		.uleb128 .LEHE76-.LEHB76
 2714 0208 8E01     		.uleb128 .L143-.LFB1325
 2715 020a 05       		.uleb128 0x5
 2716 020b B101     		.uleb128 .LEHB77-.LFB1325
 2717 020d 05       		.uleb128 .LEHE77-.LEHB77
 2718 020e 00       		.uleb128 0
 2719 020f 00       		.uleb128 0
 2720 0210 D801     		.uleb128 .LEHB78-.LFB1325
 2721 0212 05       		.uleb128 .LEHE78-.LEHB78
 2722 0213 00       		.uleb128 0
 2723 0214 00       		.uleb128 0
 2724 0215 EB01     		.uleb128 .LEHB79-.LFB1325
 2725 0217 05       		.uleb128 .LEHE79-.LEHB79
 2726 0218 00       		.uleb128 0
 2727 0219 00       		.uleb128 0
 2728 021a A902     		.uleb128 .LEHB80-.LFB1325
 2729 021c 5F       		.uleb128 .LEHE80-.LEHB80
 2730 021d A301     		.uleb128 .L145-.LFB1325
 2731 021f 00       		.uleb128 0
 2732 0220 AB03     		.uleb128 .LEHB81-.LFB1325
 2733 0222 05       		.uleb128 .LEHE81-.LEHB81
 2734 0223 CA01     		.uleb128 .L147-.LFB1325
 2735 0225 00       		.uleb128 0
 2736 0226 DF03     		.uleb128 .LEHB82-.LFB1325
 2737 0228 43       		.uleb128 .LEHE82-.LEHB82
 2738 0229 B601     		.uleb128 .L146-.LFB1325
 2739 022b 00       		.uleb128 0
 2740 022c AC04     		.uleb128 .LEHB83-.LFB1325
 2741 022e 05       		.uleb128 .LEHE83-.LEHB83
 2742 022f CA01     		.uleb128 .L147-.LFB1325
 2743 0231 00       		.uleb128 0
 2744 0232 E904     		.uleb128 .LEHB84-.LFB1325
 2745 0234 67       		.uleb128 .LEHE84-.LEHB84
 2746 0235 DD01     		.uleb128 .L148-.LFB1325
 2747 0237 00       		.uleb128 0
 2748 0238 D005     		.uleb128 .LEHB85-.LFB1325
 2749 023a 05       		.uleb128 .LEHE85-.LEHB85
 2750 023b 00       		.uleb128 0
 2751 023c 00       		.uleb128 0
 2752              	.LLSDACSE1325:
 2753 023d 03       		.byte	0x3
 2754 023e 00       		.byte	0
 2755 023f 02       		.byte	0x2
 2756 0240 7D       		.byte	0x7d
 2757 0241 01       		.byte	0x1
 2758 0242 7D       		.byte	0x7d
 2759 0243 00       		.byte	0
 2760 0244 7D       		.byte	0x7d
 2761 0245 000000   		.align 4
 2762 0248 00000000 		.long	0
 2763              	
 2764 024c 00000000 		.long	_ZTISt9exception
 2765 0250 00000000 		.long	_ZTIN8UnitTest15AssertExceptionE
 2766              	.LLSDATT1325:
 2767              		.text
 2769              		.section	.rodata
 2770              		.align 8
 2771              	.LC24:
 2772 03d0 3C3F786D 		.string	"<?xml version=\"1.0\"?><unittest-results tests=\"1\" failedtests=\"0\" failures=\"0\" tim
 2772      6C207665 
 2772      7273696F 
 2772      6E3D2231 
 2772      2E30223F 
 2773              		.text
 2774              		.align 2
 2776              	_ZN12_GLOBAL__N_167XmlTestReporterFixtureSingleSuccessfulTestReportSummaryFormatHelper7RunImplEv:
 2777              	.LFB1329:
  81:TestXmlTestReporter.cpp **** {
 2778              		.loc 3 81 0 is_stmt 1
 2779              		.cfi_startproc
 2780              		.cfi_personality 0x3,__gxx_personality_v0
 2781              		.cfi_lsda 0x3,.LLSDA1329
 2782 136e 55       		pushq	%rbp
 2783              		.cfi_def_cfa_offset 16
 2784              		.cfi_offset 6, -16
 2785 136f 4889E5   		movq	%rsp, %rbp
 2786              		.cfi_def_cfa_register 6
 2787 1372 53       		pushq	%rbx
 2788 1373 4883EC68 		subq	$104, %rsp
 2789              		.cfi_offset 3, -24
 2790 1377 48897D98 		movq	%rdi, -104(%rbp)
 2791              	.LBB72:
  82:TestXmlTestReporter.cpp ****     TestDetails const details("TestName", "DefaultSuite", "", 0);
 2792              		.loc 3 82 0
 2793 137b 488D45B0 		leaq	-80(%rbp), %rax
 2794 137f 41B80000 		movl	$0, %r8d
 2794      0000
 2795 1385 B9000000 		movl	$.LC14, %ecx
 2795      00
 2796 138a BA000000 		movl	$.LC0, %edx
 2796      00
 2797 138f BE000000 		movl	$.LC8, %esi
 2797      00
 2798 1394 4889C7   		movq	%rax, %rdi
 2799              	.LEHB86:
 2800 1397 E8000000 		call	_ZN8UnitTest11TestDetailsC1EPKcS2_S2_i
 2800      00
  83:TestXmlTestReporter.cpp **** 
  84:TestXmlTestReporter.cpp ****     reporter.ReportTestStart(details);
 2801              		.loc 3 84 0
 2802 139c 488B4598 		movq	-104(%rbp), %rax
 2803 13a0 488D9060 		leaq	352(%rax), %rdx
 2803      010000
 2804 13a7 488D45B0 		leaq	-80(%rbp), %rax
 2805 13ab 4889C6   		movq	%rax, %rsi
 2806 13ae 4889D7   		movq	%rdx, %rdi
 2807 13b1 E8000000 		call	_ZN8UnitTest20DeferredTestReporter15ReportTestStartERKNS_11TestDetailsE
 2807      00
  85:TestXmlTestReporter.cpp ****     reporter.ReportSummary(1, 0, 0, 0.1f);
 2808              		.loc 3 85 0
 2809 13b6 488B4598 		movq	-104(%rbp), %rax
 2810 13ba 48056001 		addq	$352, %rax
 2810      0000
 2811 13c0 F30F1005 		movss	.LC10(%rip), %xmm0
 2811      00000000 
 2812 13c8 B9000000 		movl	$0, %ecx
 2812      00
 2813 13cd BA000000 		movl	$0, %edx
 2813      00
 2814 13d2 BE010000 		movl	$1, %esi
 2814      00
 2815 13d7 4889C7   		movq	%rax, %rdi
 2816 13da E8000000 		call	_ZN8UnitTest15XmlTestReporter13ReportSummaryEiiif
 2816      00
 2817              	.LEHE86:
  86:TestXmlTestReporter.cpp **** 
  87:TestXmlTestReporter.cpp ****     const char *expected =
  88:TestXmlTestReporter.cpp **** "<?xml version=\"1.0\"?>"
  89:TestXmlTestReporter.cpp **** "<unittest-results tests=\"1\" failedtests=\"0\" failures=\"0\" time=\"0.1\">"
  90:TestXmlTestReporter.cpp **** "<test suite=\"DefaultSuite\" name=\"TestName\" time=\"0\"/>"
  91:TestXmlTestReporter.cpp **** "</unittest-results>";
 2818              		.loc 3 91 0
 2819 13df 48C745A8 		movq	$.LC24, -88(%rbp)
 2819      00000000 
 2820              	.LEHB87:
  92:TestXmlTestReporter.cpp **** 
  93:TestXmlTestReporter.cpp ****     CHECK_EQUAL(expected, output.str());
 2821              		.loc 3 93 0
 2822 13e7 E8000000 		call	_ZN8UnitTest11CurrentTest7DetailsEv
 2822      00
 2823 13ec 488B08   		movq	(%rax), %rcx
 2824 13ef 488D45D0 		leaq	-48(%rbp), %rax
 2825 13f3 BA5D0000 		movl	$93, %edx
 2825      00
 2826 13f8 4889CE   		movq	%rcx, %rsi
 2827 13fb 4889C7   		movq	%rax, %rdi
 2828 13fe E8000000 		call	_ZN8UnitTest11TestDetailsC1ERKS0_i
 2828      00
 2829              		.loc 3 93 0 is_stmt 0 discriminator 1
 2830 1403 488B5598 		movq	-104(%rbp), %rdx
 2831 1407 488D45A0 		leaq	-96(%rbp), %rax
 2832 140b 4889D6   		movq	%rdx, %rsi
 2833 140e 4889C7   		movq	%rax, %rdi
 2834 1411 E8000000 		call	_ZNKSt19basic_ostringstreamIcSt11char_traitsIcESaIcEE3strEv
 2834      00
 2835              	.LEHE87:
 2836              	.LEHB88:
 2837              		.loc 3 93 0 discriminator 2
 2838 1416 E8000000 		call	_ZN8UnitTest11CurrentTest7ResultsEv
 2838      00
 2839 141b 488B00   		movq	(%rax), %rax
 2840 141e 488D4DD0 		leaq	-48(%rbp), %rcx
 2841 1422 488D55A0 		leaq	-96(%rbp), %rdx
 2842 1426 488D75A8 		leaq	-88(%rbp), %rsi
 2843 142a 4889C7   		movq	%rax, %rdi
 2844 142d E8000000 		call	_ZN8UnitTest10CheckEqualIPKcSsEEvRNS_11TestResultsERKT_RKT0_RKNS_11TestDetailsE
 2844      00
 2845              	.LEHE88:
 2846              		.loc 3 93 0 discriminator 1
 2847 1432 488D45A0 		leaq	-96(%rbp), %rax
 2848 1436 4889C7   		movq	%rax, %rdi
 2849              	.LEHB89:
 2850 1439 E8000000 		call	_ZNSsD1Ev
 2850      00
 2851              	.LEHE89:
 2852              	.LBE72:
  94:TestXmlTestReporter.cpp **** }
 2853              		.loc 3 94 0 is_stmt 1
 2854 143e EB6C     		jmp	.L159
 2855              	.L157:
 2856 1440 4889C3   		movq	%rax, %rbx
 2857              	.LBB73:
  93:TestXmlTestReporter.cpp **** }
 2858              		.loc 3 93 0
 2859 1443 488D45A0 		leaq	-96(%rbp), %rax
 2860 1447 4889C7   		movq	%rax, %rdi
 2861 144a E8000000 		call	_ZNSsD1Ev
 2861      00
 2862 144f 4889D8   		movq	%rbx, %rax
 2863 1452 EB13     		jmp	.L153
 2864              	.L158:
 2865 1454 4889C3   		movq	%rax, %rbx
 2866 1457 E8000000 		call	__cxa_end_catch
 2866      00
 2867 145c 4889D8   		movq	%rbx, %rax
 2868 145f 4889C7   		movq	%rax, %rdi
 2869              	.LEHB90:
 2870 1462 E8000000 		call	_Unwind_Resume
 2870      00
 2871              	.LEHE90:
 2872              	.L156:
 2873              	.L153:
 2874 1467 4889C7   		movq	%rax, %rdi
 2875 146a E8000000 		call	__cxa_begin_catch
 2875      00
 2876              	.LEHB91:
 2877 146f E8000000 		call	_ZN8UnitTest11CurrentTest7DetailsEv
 2877      00
 2878 1474 488B08   		movq	(%rax), %rcx
 2879 1477 488D45D0 		leaq	-48(%rbp), %rax
 2880 147b BA5D0000 		movl	$93, %edx
 2880      00
 2881 1480 4889CE   		movq	%rcx, %rsi
 2882 1483 4889C7   		movq	%rax, %rdi
 2883 1486 E8000000 		call	_ZN8UnitTest11TestDetailsC1ERKS0_i
 2883      00
  93:TestXmlTestReporter.cpp **** }
 2884              		.loc 3 93 0 is_stmt 0 discriminator 1
 2885 148b E8000000 		call	_ZN8UnitTest11CurrentTest7ResultsEv
 2885      00
 2886 1490 488B00   		movq	(%rax), %rax
 2887 1493 488D4DD0 		leaq	-48(%rbp), %rcx
 2888 1497 BA000000 		movl	$.LC12, %edx
 2888      00
 2889 149c 4889CE   		movq	%rcx, %rsi
 2890 149f 4889C7   		movq	%rax, %rdi
 2891 14a2 E8000000 		call	_ZN8UnitTest11TestResults13OnTestFailureERKNS_11TestDetailsEPKc
 2891      00
 2892              	.LEHE91:
 2893              	.LEHB92:
 2894 14a7 E8000000 		call	__cxa_end_catch
 2894      00
 2895              	.LEHE92:
 2896              	.L159:
 2897              	.LBE73:
 2898              		.loc 3 94 0 is_stmt 1
 2899 14ac 90       		nop
 2900 14ad 4883C468 		addq	$104, %rsp
 2901 14b1 5B       		popq	%rbx
 2902 14b2 5D       		popq	%rbp
 2903              		.cfi_def_cfa 7, 8
 2904 14b3 C3       		ret
 2905              		.cfi_endproc
 2906              	.LFE1329:
 2907              		.section	.gcc_except_table
 2908              		.align 4
 2909              	.LLSDA1329:
 2910 0254 FF       		.byte	0xff
 2911 0255 03       		.byte	0x3
 2912 0256 31       		.uleb128 .LLSDATT1329-.LLSDATTD1329
 2913              	.LLSDATTD1329:
 2914 0257 01       		.byte	0x1
 2915 0258 25       		.uleb128 .LLSDACSE1329-.LLSDACSB1329
 2916              	.LLSDACSB1329:
 2917 0259 29       		.uleb128 .LEHB86-.LFB1329
 2918 025a 48       		.uleb128 .LEHE86-.LEHB86
 2919 025b 00       		.uleb128 0
 2920 025c 00       		.uleb128 0
 2921 025d 79       		.uleb128 .LEHB87-.LFB1329
 2922 025e 2F       		.uleb128 .LEHE87-.LEHB87
 2923 025f F901     		.uleb128 .L156-.LFB1329
 2924 0261 01       		.uleb128 0x1
 2925 0262 A801     		.uleb128 .LEHB88-.LFB1329
 2926 0264 1C       		.uleb128 .LEHE88-.LEHB88
 2927 0265 D201     		.uleb128 .L157-.LFB1329
 2928 0267 03       		.uleb128 0x3
 2929 0268 CB01     		.uleb128 .LEHB89-.LFB1329
 2930 026a 05       		.uleb128 .LEHE89-.LEHB89
 2931 026b F901     		.uleb128 .L156-.LFB1329
 2932 026d 01       		.uleb128 0x1
 2933 026e F401     		.uleb128 .LEHB90-.LFB1329
 2934 0270 05       		.uleb128 .LEHE90-.LEHB90
 2935 0271 00       		.uleb128 0
 2936 0272 00       		.uleb128 0
 2937 0273 8102     		.uleb128 .LEHB91-.LFB1329
 2938 0275 38       		.uleb128 .LEHE91-.LEHB91
 2939 0276 E601     		.uleb128 .L158-.LFB1329
 2940 0278 00       		.uleb128 0
 2941 0279 B902     		.uleb128 .LEHB92-.LFB1329
 2942 027b 05       		.uleb128 .LEHE92-.LEHB92
 2943 027c 00       		.uleb128 0
 2944 027d 00       		.uleb128 0
 2945              	.LLSDACSE1329:
 2946 027e 01       		.byte	0x1
 2947 027f 00       		.byte	0
 2948 0280 00       		.byte	0
 2949 0281 7D       		.byte	0x7d
 2950 0282 0000     		.align 4
 2951 0284 00000000 		.long	0
 2952              	
 2953              	.LLSDATT1329:
 2954              		.text
 2956              		.align 2
 2958              	_ZN12_GLOBAL__N_163XmlTestReporterFixtureSingleFailedTestReportSummaryFormatHelperC2ERKN8UnitTest11
 2959              	.LFB1331:
  95:TestXmlTestReporter.cpp **** 
  96:TestXmlTestReporter.cpp **** TEST_FIXTURE(XmlTestReporterFixture, SingleFailedTestReportSummaryFormat)
 2960              		.loc 3 96 0
 2961              		.cfi_startproc
 2962 14b4 55       		pushq	%rbp
 2963              		.cfi_def_cfa_offset 16
 2964              		.cfi_offset 6, -16
 2965 14b5 4889E5   		movq	%rsp, %rbp
 2966              		.cfi_def_cfa_register 6
 2967 14b8 4883EC10 		subq	$16, %rsp
 2968 14bc 48897DF8 		movq	%rdi, -8(%rbp)
 2969 14c0 488975F0 		movq	%rsi, -16(%rbp)
 2970              	.LBB74:
 2971              		.loc 3 96 0
 2972 14c4 488B45F8 		movq	-8(%rbp), %rax
 2973 14c8 4889C7   		movq	%rax, %rdi
 2974 14cb E830EBFF 		call	_ZN12_GLOBAL__N_122XmlTestReporterFixtureC2Ev
 2974      FF
 2975 14d0 488B45F8 		movq	-8(%rbp), %rax
 2976 14d4 488B55F0 		movq	-16(%rbp), %rdx
 2977 14d8 48899088 		movq	%rdx, 392(%rax)
 2977      010000
 2978              	.LBE74:
 2979 14df C9       		leave
 2980              		.cfi_def_cfa 7, 8
 2981 14e0 C3       		ret
 2982              		.cfi_endproc
 2983              	.LFE1331:
 2985              		.set	_ZN12_GLOBAL__N_163XmlTestReporterFixtureSingleFailedTestReportSummaryFormatHelperC1ERKN8Unit
 2986              		.section	.rodata
 2987 0472 00000000 		.align 8
 2987      0000
 2988              	.LC25:
 2989 0478 53696E67 		.string	"SingleFailedTestReportSummaryFormat"
 2989      6C654661 
 2989      696C6564 
 2989      54657374 
 2989      5265706F 
 2990              		.text
 2991 14e1 90       		.align 2
 2993              	_ZN12_GLOBAL__N_161TestXmlTestReporterFixtureSingleFailedTestReportSummaryFormatC2Ev:
 2994              	.LFB1334:
 2995              		.loc 3 96 0
 2996              		.cfi_startproc
 2997 14e2 55       		pushq	%rbp
 2998              		.cfi_def_cfa_offset 16
 2999              		.cfi_offset 6, -16
 3000 14e3 4889E5   		movq	%rsp, %rbp
 3001              		.cfi_def_cfa_register 6
 3002 14e6 4883EC10 		subq	$16, %rsp
 3003 14ea 48897DF8 		movq	%rdi, -8(%rbp)
 3004              	.LBB75:
 3005              		.loc 3 96 0
 3006 14ee E8000000 		call	_ZN13UnitTestSuite12GetSuiteNameEv
 3006      00
 3007 14f3 4889C2   		movq	%rax, %rdx
 3008 14f6 488B45F8 		movq	-8(%rbp), %rax
 3009 14fa 41B86000 		movl	$96, %r8d
 3009      0000
 3010 1500 B9000000 		movl	$.LC1, %ecx
 3010      00
 3011 1505 BE000000 		movl	$.LC25, %esi
 3011      00
 3012 150a 4889C7   		movq	%rax, %rdi
 3013 150d E8000000 		call	_ZN8UnitTest4TestC2EPKcS2_S2_i
 3013      00
 3014 1512 488B45F8 		movq	-8(%rbp), %rax
 3015 1516 48C70000 		movq	$_ZTVN12_GLOBAL__N_161TestXmlTestReporterFixtureSingleFailedTestReportSummaryFormatE+16, (%ra
 3015      000000
 3016              	.LBE75:
 3017 151d C9       		leave
 3018              		.cfi_def_cfa 7, 8
 3019 151e C3       		ret
 3020              		.cfi_endproc
 3021              	.LFE1334:
 3023              		.set	_ZN12_GLOBAL__N_161TestXmlTestReporterFixtureSingleFailedTestReportSummaryFormatC1Ev,_ZN12_GL
 3024              		.local	_ZN12_GLOBAL__N_169testXmlTestReporterFixtureSingleFailedTestReportSummaryFormatInstanceE
 3025              		.comm	_ZN12_GLOBAL__N_169testXmlTestReporterFixtureSingleFailedTestReportSummaryFormatInstanceE,56
 3026              		.local	_ZN12_GLOBAL__N_162adderXmlTestReporterFixtureSingleFailedTestReportSummaryFormatE
 3027              		.comm	_ZN12_GLOBAL__N_162adderXmlTestReporterFixtureSingleFailedTestReportSummaryFormatE,1,1
 3028 151f 90       		.align 2
 3030              	_ZN12_GLOBAL__N_163XmlTestReporterFixtureSingleFailedTestReportSummaryFormatHelperD2Ev:
 3031              	.LFB1338:
 3032              		.loc 3 96 0
 3033              		.cfi_startproc
 3034 1520 55       		pushq	%rbp
 3035              		.cfi_def_cfa_offset 16
 3036              		.cfi_offset 6, -16
 3037 1521 4889E5   		movq	%rsp, %rbp
 3038              		.cfi_def_cfa_register 6
 3039 1524 4883EC10 		subq	$16, %rsp
 3040 1528 48897DF8 		movq	%rdi, -8(%rbp)
 3041              	.LBB76:
 3042              		.loc 3 96 0
 3043 152c 488B45F8 		movq	-8(%rbp), %rax
 3044 1530 4889C7   		movq	%rax, %rdi
 3045 1533 E824EBFF 		call	_ZN12_GLOBAL__N_122XmlTestReporterFixtureD2Ev
 3045      FF
 3046              	.LBE76:
 3047 1538 C9       		leave
 3048              		.cfi_def_cfa 7, 8
 3049 1539 C3       		ret
 3050              		.cfi_endproc
 3051              	.LFE1338:
 3053              		.set	_ZN12_GLOBAL__N_163XmlTestReporterFixtureSingleFailedTestReportSummaryFormatHelperD1Ev,_ZN12_
 3054              		.align 2
 3056              	_ZNK12_GLOBAL__N_161TestXmlTestReporterFixtureSingleFailedTestReportSummaryFormat7RunImplEv:
 3057              	.LFB1336:
 3058              		.loc 3 96 0
 3059              		.cfi_startproc
 3060              		.cfi_personality 0x3,__gxx_personality_v0
 3061              		.cfi_lsda 0x3,.LLSDA1336
 3062 153a 55       		pushq	%rbp
 3063              		.cfi_def_cfa_offset 16
 3064              		.cfi_offset 6, -16
 3065 153b 4889E5   		movq	%rsp, %rbp
 3066              		.cfi_def_cfa_register 6
 3067 153e 4154     		pushq	%r12
 3068 1540 53       		pushq	%rbx
 3069 1541 4881ECC0 		subq	$448, %rsp
 3069      010000
 3070              		.cfi_offset 12, -24
 3071              		.cfi_offset 3, -32
 3072 1548 4889BD38 		movq	%rdi, -456(%rbp)
 3072      FEFFFF
 3073              	.LBB77:
 3074              		.loc 3 96 0
 3075 154f C6854FFE 		movb	$0, -433(%rbp)
 3075      FFFF00
 3076              	.LBB78:
 3077 1556 488B8538 		movq	-456(%rbp), %rax
 3077      FEFFFF
 3078 155d 488D5008 		leaq	8(%rax), %rdx
 3079 1561 488D8560 		leaq	-416(%rbp), %rax
 3079      FEFFFF
 3080 1568 4889D6   		movq	%rdx, %rsi
 3081 156b 4889C7   		movq	%rax, %rdi
 3082              	.LEHB93:
 3083 156e E841FFFF 		call	_ZN12_GLOBAL__N_163XmlTestReporterFixtureSingleFailedTestReportSummaryFormatHelperC1ERKN8Unit
 3083      FF
 3084              	.LEHE93:
 3085              		.loc 3 96 0 is_stmt 0 discriminator 1
 3086 1573 C6854FFE 		movb	$1, -433(%rbp)
 3086      FFFF01
 3087 157a 488B8538 		movq	-456(%rbp), %rax
 3087      FEFFFF
 3088 1581 488D5008 		leaq	8(%rax), %rdx
 3089 1585 488D8560 		leaq	-416(%rbp), %rax
 3089      FEFFFF
 3090 158c 4889D6   		movq	%rdx, %rsi
 3091 158f 4889C7   		movq	%rax, %rdi
 3092              	.LEHB94:
 3093 1592 E8EF1D00 		call	_ZN8UnitTest11ExecuteTestIN12_GLOBAL__N_163XmlTestReporterFixtureSingleFailedTestReportSummar
 3093      00
 3094              	.LEHE94:
 3095 1597 488D8560 		leaq	-416(%rbp), %rax
 3095      FEFFFF
 3096 159e 4889C7   		movq	%rax, %rdi
 3097              	.LEHB95:
 3098 15a1 E87AFFFF 		call	_ZN12_GLOBAL__N_163XmlTestReporterFixtureSingleFailedTestReportSummaryFormatHelperD1Ev
 3098      FF
 3099              	.LEHE95:
 3100              	.LBE78:
 3101              	.LBE77:
 3102              		.loc 3 96 0
 3103 15a6 E9640200 		jmp	.L184
 3103      00
 3104              	.L178:
 3105 15ab 4989C4   		movq	%rax, %r12
 3106 15ae 4889D3   		movq	%rdx, %rbx
 3107              	.LBB86:
 3108              	.LBB79:
 3109 15b1 488D8560 		leaq	-416(%rbp), %rax
 3109      FEFFFF
 3110 15b8 4889C7   		movq	%rax, %rdi
 3111 15bb E860FFFF 		call	_ZN12_GLOBAL__N_163XmlTestReporterFixtureSingleFailedTestReportSummaryFormatHelperD1Ev
 3111      FF
 3112 15c0 4C89E0   		movq	%r12, %rax
 3113 15c3 4889DA   		movq	%rbx, %rdx
 3114 15c6 EB00     		jmp	.L166
 3115              	.L177:
 3116              	.L166:
 3117 15c8 4883FA01 		cmpq	$1, %rdx
 3118 15cc 745C     		je	.L168
 3119 15ce 4883FA02 		cmpq	$2, %rdx
 3120 15d2 0F84F400 		je	.L169
 3120      0000
 3121 15d8 E9980100 		jmp	.L183
 3121      00
 3122              	.L179:
 3123 15dd 4889C3   		movq	%rax, %rbx
 3124              	.LBE79:
 3125              	.LBB80:
 3126 15e0 E8000000 		call	__cxa_end_catch
 3126      00
 3127 15e5 4889D8   		movq	%rbx, %rax
 3128 15e8 4889C7   		movq	%rax, %rdi
 3129              	.LEHB96:
 3130 15eb E8000000 		call	_Unwind_Resume
 3130      00
 3131              	.LEHE96:
 3132              	.L180:
 3133 15f0 4889C3   		movq	%rax, %rbx
 3134              	.LBE80:
 3135              	.LBB81:
 3136              	.LBB82:
 3137 15f3 488D8560 		leaq	-416(%rbp), %rax
 3137      FEFFFF
 3138 15fa 4889C7   		movq	%rax, %rdi
 3139 15fd E8000000 		call	_ZN8UnitTest15MemoryOutStreamD1Ev
 3139      00
 3140 1602 EB03     		jmp	.L172
 3141              	.L181:
 3142 1604 4889C3   		movq	%rax, %rbx
 3143              	.L172:
 3144              	.LBE82:
 3145 1607 E8000000 		call	__cxa_end_catch
 3145      00
 3146 160c 4889D8   		movq	%rbx, %rax
 3147 160f 4889C7   		movq	%rax, %rdi
 3148              	.LEHB97:
 3149 1612 E8000000 		call	_Unwind_Resume
 3149      00
 3150              	.LEHE97:
 3151              	.L182:
 3152 1617 4889C3   		movq	%rax, %rbx
 3153              	.LBE81:
 3154 161a E8000000 		call	__cxa_end_catch
 3154      00
 3155 161f 4889D8   		movq	%rbx, %rax
 3156 1622 4889C7   		movq	%rax, %rdi
 3157              	.LEHB98:
 3158 1625 E8000000 		call	_Unwind_Resume
 3158      00
 3159              	.LEHE98:
 3160              	.L168:
 3161              	.LBB84:
 3162 162a 4889C7   		movq	%rax, %rdi
 3163 162d E8000000 		call	__cxa_begin_catch
 3163      00
 3164 1632 48898550 		movq	%rax, -432(%rbp)
 3164      FEFFFF
 3165 1639 488B8550 		movq	-432(%rbp), %rax
 3165      FEFFFF
 3166 1640 488B00   		movq	(%rax), %rax
 3167 1643 4883C010 		addq	$16, %rax
 3168 1647 488B00   		movq	(%rax), %rax
 3169 164a 488B9550 		movq	-432(%rbp), %rdx
 3169      FEFFFF
 3170 1651 4889D7   		movq	%rdx, %rdi
 3171 1654 FFD0     		call	*%rax
 3172 1656 4889C3   		movq	%rax, %rbx
 3173 1659 488B8550 		movq	-432(%rbp), %rax
 3173      FEFFFF
 3174 1660 4889C7   		movq	%rax, %rdi
 3175              	.LEHB99:
 3176 1663 E8000000 		call	_ZNK8UnitTest15AssertException10LineNumberEv
 3176      00
 3177 1668 4189C4   		movl	%eax, %r12d
 3178 166b 488B8550 		movq	-432(%rbp), %rax
 3178      FEFFFF
 3179 1672 4889C7   		movq	%rax, %rdi
 3180 1675 E8000000 		call	_ZNK8UnitTest15AssertException8FilenameEv
 3180      00
 3181              		.loc 3 96 0 discriminator 1
 3182 167a 4889C1   		movq	%rax, %rcx
 3183 167d 488B8538 		movq	-456(%rbp), %rax
 3183      FEFFFF
 3184 1684 488B5008 		movq	8(%rax), %rdx
 3185 1688 488B8538 		movq	-456(%rbp), %rax
 3185      FEFFFF
 3186 168f 488B7010 		movq	16(%rax), %rsi
 3187 1693 488D8560 		leaq	-416(%rbp), %rax
 3187      FEFFFF
 3188 169a 4589E0   		movl	%r12d, %r8d
 3189 169d 4889C7   		movq	%rax, %rdi
 3190 16a0 E8000000 		call	_ZN8UnitTest11TestDetailsC1EPKcS2_S2_i
 3190      00
 3191              		.loc 3 96 0 discriminator 3
 3192 16a5 E8000000 		call	_ZN8UnitTest11CurrentTest7ResultsEv
 3192      00
 3193 16aa 488B00   		movq	(%rax), %rax
 3194 16ad 488D8D60 		leaq	-416(%rbp), %rcx
 3194      FEFFFF
 3195 16b4 4889DA   		movq	%rbx, %rdx
 3196 16b7 4889CE   		movq	%rcx, %rsi
 3197 16ba 4889C7   		movq	%rax, %rdi
 3198 16bd E8000000 		call	_ZN8UnitTest11TestResults13OnTestFailureERKNS_11TestDetailsEPKc
 3198      00
 3199              	.LEHE99:
 3200              		.loc 3 96 0 discriminator 1
 3201 16c2 E8000000 		call	__cxa_end_catch
 3201      00
 3202              	.LBE84:
 3203              	.LBE86:
 3204 16c7 E9430100 		jmp	.L184
 3204      00
 3205              	.L169:
 3206              	.LBB87:
 3207              	.LBB85:
 3208              		.loc 3 96 0
 3209 16cc 4889C7   		movq	%rax, %rdi
 3210 16cf E8000000 		call	__cxa_begin_catch
 3210      00
 3211 16d4 48898558 		movq	%rax, -424(%rbp)
 3211      FEFFFF
 3212              	.LBB83:
 3213 16db 488D8560 		leaq	-416(%rbp), %rax
 3213      FEFFFF
 3214 16e2 4889C7   		movq	%rax, %rdi
 3215              	.LEHB100:
 3216 16e5 E8000000 		call	_ZN8UnitTest15MemoryOutStreamC1Ev
 3216      00
 3217              	.LEHE100:
 3218              		.loc 3 96 0 discriminator 1
 3219 16ea 488B8558 		movq	-424(%rbp), %rax
 3219      FEFFFF
 3220 16f1 488B00   		movq	(%rax), %rax
 3221 16f4 4883C010 		addq	$16, %rax
 3222 16f8 488B00   		movq	(%rax), %rax
 3223 16fb 488B9558 		movq	-424(%rbp), %rdx
 3223      FEFFFF
 3224 1702 4889D7   		movq	%rdx, %rdi
 3225 1705 FFD0     		call	*%rax
 3226 1707 4889C3   		movq	%rax, %rbx
 3227 170a 488D8560 		leaq	-416(%rbp), %rax
 3227      FEFFFF
 3228 1711 BE000000 		movl	$.LC3, %esi
 3228      00
 3229 1716 4889C7   		movq	%rax, %rdi
 3230              	.LEHB101:
 3231 1719 E8000000 		call	_ZStlsISt11char_traitsIcEERSt13basic_ostreamIcT_ES5_PKc
 3231      00
 3232 171e 4889DE   		movq	%rbx, %rsi
 3233 1721 4889C7   		movq	%rax, %rdi
 3234 1724 E8000000 		call	_ZStlsISt11char_traitsIcEERSt13basic_ostreamIcT_ES5_PKc
 3234      00
 3235 1729 488D8560 		leaq	-416(%rbp), %rax
 3235      FEFFFF
 3236 1730 4889C7   		movq	%rax, %rdi
 3237 1733 E8000000 		call	_ZNK8UnitTest15MemoryOutStream7GetTextEv
 3237      00
 3238 1738 4889C3   		movq	%rax, %rbx
 3239 173b 488B8538 		movq	-456(%rbp), %rax
 3239      FEFFFF
 3240 1742 4C8D6008 		leaq	8(%rax), %r12
 3241 1746 E8000000 		call	_ZN8UnitTest11CurrentTest7ResultsEv
 3241      00
 3242 174b 488B00   		movq	(%rax), %rax
 3243 174e 4889DA   		movq	%rbx, %rdx
 3244 1751 4C89E6   		movq	%r12, %rsi
 3245 1754 4889C7   		movq	%rax, %rdi
 3246 1757 E8000000 		call	_ZN8UnitTest11TestResults13OnTestFailureERKNS_11TestDetailsEPKc
 3246      00
 3247              	.LEHE101:
 3248 175c 488D8560 		leaq	-416(%rbp), %rax
 3248      FEFFFF
 3249 1763 4889C7   		movq	%rax, %rdi
 3250              	.LEHB102:
 3251 1766 E8000000 		call	_ZN8UnitTest15MemoryOutStreamD1Ev
 3251      00
 3252              	.LEHE102:
 3253              	.LBE83:
 3254              		.loc 3 96 0
 3255 176b E8000000 		call	__cxa_end_catch
 3255      00
 3256              	.LBE85:
 3257              	.LBE87:
 3258 1770 E99A0000 		jmp	.L184
 3258      00
 3259              	.L183:
 3260              	.LBB88:
 3261 1775 4889C7   		movq	%rax, %rdi
 3262 1778 E8000000 		call	__cxa_begin_catch
 3262      00
 3263 177d 80BD4FFE 		cmpb	$0, -433(%rbp)
 3263      FFFF00
 3264 1784 7443     		je	.L175
 3265              		.loc 3 96 0 discriminator 1
 3266 1786 488B8538 		movq	-456(%rbp), %rax
 3266      FEFFFF
 3267 178d 488D4808 		leaq	8(%rax), %rcx
 3268 1791 488D8560 		leaq	-416(%rbp), %rax
 3268      FEFFFF
 3269 1798 BA600000 		movl	$96, %edx
 3269      00
 3270 179d 4889CE   		movq	%rcx, %rsi
 3271 17a0 4889C7   		movq	%rax, %rdi
 3272              	.LEHB103:
 3273 17a3 E8000000 		call	_ZN8UnitTest11TestDetailsC1ERKS0_i
 3273      00
 3274 17a8 E8000000 		call	_ZN8UnitTest11CurrentTest7ResultsEv
 3274      00
 3275 17ad 488B00   		movq	(%rax), %rax
 3276 17b0 488D8D60 		leaq	-416(%rbp), %rcx
 3276      FEFFFF
 3277 17b7 BA000000 		movl	$.LC4, %edx
 3277      00
 3278 17bc 4889CE   		movq	%rcx, %rsi
 3279 17bf 4889C7   		movq	%rax, %rdi
 3280 17c2 E8000000 		call	_ZN8UnitTest11TestResults13OnTestFailureERKNS_11TestDetailsEPKc
 3280      00
 3281 17c7 EB41     		jmp	.L176
 3282              	.L175:
 3283              		.loc 3 96 0 discriminator 2
 3284 17c9 488B8538 		movq	-456(%rbp), %rax
 3284      FEFFFF
 3285 17d0 488D4808 		leaq	8(%rax), %rcx
 3286 17d4 488D8560 		leaq	-416(%rbp), %rax
 3286      FEFFFF
 3287 17db BA600000 		movl	$96, %edx
 3287      00
 3288 17e0 4889CE   		movq	%rcx, %rsi
 3289 17e3 4889C7   		movq	%rax, %rdi
 3290 17e6 E8000000 		call	_ZN8UnitTest11TestDetailsC1ERKS0_i
 3290      00
 3291              		.loc 3 96 0 discriminator 1
 3292 17eb E8000000 		call	_ZN8UnitTest11CurrentTest7ResultsEv
 3292      00
 3293 17f0 488B00   		movq	(%rax), %rax
 3294 17f3 488D8D60 		leaq	-416(%rbp), %rcx
 3294      FEFFFF
 3295 17fa BA000000 		movl	$.LC5, %edx
 3295      00
 3296 17ff 4889CE   		movq	%rcx, %rsi
 3297 1802 4889C7   		movq	%rax, %rdi
 3298 1805 E8000000 		call	_ZN8UnitTest11TestResults13OnTestFailureERKNS_11TestDetailsEPKc
 3298      00
 3299              	.LEHE103:
 3300              	.L176:
 3301              	.LEHB104:
 3302 180a E8000000 		call	__cxa_end_catch
 3302      00
 3303              	.LEHE104:
 3304              	.L184:
 3305              	.LBE88:
 3306              		.loc 3 96 0
 3307 180f 90       		nop
 3308 1810 4881C4C0 		addq	$448, %rsp
 3308      010000
 3309 1817 5B       		popq	%rbx
 3310 1818 415C     		popq	%r12
 3311 181a 5D       		popq	%rbp
 3312              		.cfi_def_cfa 7, 8
 3313 181b C3       		ret
 3314              		.cfi_endproc
 3315              	.LFE1336:
 3316              		.section	.gcc_except_table
 3317              		.align 4
 3318              	.LLSDA1336:
 3319 0288 FF       		.byte	0xff
 3320 0289 03       		.byte	0x3
 3321 028a 59       		.uleb128 .LLSDATT1336-.LLSDATTD1336
 3322              	.LLSDATTD1336:
 3323 028b 01       		.byte	0x1
 3324 028c 40       		.uleb128 .LLSDACSE1336-.LLSDACSB1336
 3325              	.LLSDACSB1336:
 3326 028d 34       		.uleb128 .LEHB93-.LFB1336
 3327 028e 05       		.uleb128 .LEHE93-.LEHB93
 3328 028f 8E01     		.uleb128 .L177-.LFB1336
 3329 0291 05       		.uleb128 0x5
 3330 0292 58       		.uleb128 .LEHB94-.LFB1336
 3331 0293 05       		.uleb128 .LEHE94-.LEHB94
 3332 0294 71       		.uleb128 .L178-.LFB1336
 3333 0295 07       		.uleb128 0x7
 3334 0296 67       		.uleb128 .LEHB95-.LFB1336
 3335 0297 05       		.uleb128 .LEHE95-.LEHB95
 3336 0298 8E01     		.uleb128 .L177-.LFB1336
 3337 029a 05       		.uleb128 0x5
 3338 029b B101     		.uleb128 .LEHB96-.LFB1336
 3339 029d 05       		.uleb128 .LEHE96-.LEHB96
 3340 029e 00       		.uleb128 0
 3341 029f 00       		.uleb128 0
 3342 02a0 D801     		.uleb128 .LEHB97-.LFB1336
 3343 02a2 05       		.uleb128 .LEHE97-.LEHB97
 3344 02a3 00       		.uleb128 0
 3345 02a4 00       		.uleb128 0
 3346 02a5 EB01     		.uleb128 .LEHB98-.LFB1336
 3347 02a7 05       		.uleb128 .LEHE98-.LEHB98
 3348 02a8 00       		.uleb128 0
 3349 02a9 00       		.uleb128 0
 3350 02aa A902     		.uleb128 .LEHB99-.LFB1336
 3351 02ac 5F       		.uleb128 .LEHE99-.LEHB99
 3352 02ad A301     		.uleb128 .L179-.LFB1336
 3353 02af 00       		.uleb128 0
 3354 02b0 AB03     		.uleb128 .LEHB100-.LFB1336
 3355 02b2 05       		.uleb128 .LEHE100-.LEHB100
 3356 02b3 CA01     		.uleb128 .L181-.LFB1336
 3357 02b5 00       		.uleb128 0
 3358 02b6 DF03     		.uleb128 .LEHB101-.LFB1336
 3359 02b8 43       		.uleb128 .LEHE101-.LEHB101
 3360 02b9 B601     		.uleb128 .L180-.LFB1336
 3361 02bb 00       		.uleb128 0
 3362 02bc AC04     		.uleb128 .LEHB102-.LFB1336
 3363 02be 05       		.uleb128 .LEHE102-.LEHB102
 3364 02bf CA01     		.uleb128 .L181-.LFB1336
 3365 02c1 00       		.uleb128 0
 3366 02c2 E904     		.uleb128 .LEHB103-.LFB1336
 3367 02c4 67       		.uleb128 .LEHE103-.LEHB103
 3368 02c5 DD01     		.uleb128 .L182-.LFB1336
 3369 02c7 00       		.uleb128 0
 3370 02c8 D005     		.uleb128 .LEHB104-.LFB1336
 3371 02ca 05       		.uleb128 .LEHE104-.LEHB104
 3372 02cb 00       		.uleb128 0
 3373 02cc 00       		.uleb128 0
 3374              	.LLSDACSE1336:
 3375 02cd 03       		.byte	0x3
 3376 02ce 00       		.byte	0
 3377 02cf 02       		.byte	0x2
 3378 02d0 7D       		.byte	0x7d
 3379 02d1 01       		.byte	0x1
 3380 02d2 7D       		.byte	0x7d
 3381 02d3 00       		.byte	0
 3382 02d4 7D       		.byte	0x7d
 3383 02d5 000000   		.align 4
 3384 02d8 00000000 		.long	0
 3385              	
 3386 02dc 00000000 		.long	_ZTISt9exception
 3387 02e0 00000000 		.long	_ZTIN8UnitTest15AssertExceptionE
 3388              	.LLSDATT1336:
 3389              		.text
 3391              		.section	.rodata
 3392              	.LC26:
 3393 049c 41204669 		.string	"A File"
 3393      6C6500
 3394              	.LC27:
 3395 04a3 41205465 		.string	"A Test"
 3395      737400
 3396              	.LC28:
 3397 04aa 41204661 		.string	"A Failure"
 3397      696C7572 
 3397      6500
 3398 04b4 00000000 		.align 8
 3399              	.LC29:
 3400 04b8 3C3F786D 		.string	"<?xml version=\"1.0\"?><unittest-results tests=\"1\" failedtests=\"1\" failures=\"1\" tim
 3400      6C207665 
 3400      7273696F 
 3400      6E3D2231 
 3400      2E30223F 
 3401              		.text
 3402              		.align 2
 3404              	_ZN12_GLOBAL__N_163XmlTestReporterFixtureSingleFailedTestReportSummaryFormatHelper7RunImplEv:
 3405              	.LFB1340:
  97:TestXmlTestReporter.cpp **** {
 3406              		.loc 3 97 0 is_stmt 1
 3407              		.cfi_startproc
 3408              		.cfi_personality 0x3,__gxx_personality_v0
 3409              		.cfi_lsda 0x3,.LLSDA1340
 3410 181c 55       		pushq	%rbp
 3411              		.cfi_def_cfa_offset 16
 3412              		.cfi_offset 6, -16
 3413 181d 4889E5   		movq	%rsp, %rbp
 3414              		.cfi_def_cfa_register 6
 3415 1820 53       		pushq	%rbx
 3416 1821 4883EC68 		subq	$104, %rsp
 3417              		.cfi_offset 3, -24
 3418 1825 48897D98 		movq	%rdi, -104(%rbp)
 3419              	.LBB89:
  98:TestXmlTestReporter.cpp ****     TestDetails const details("A Test", "suite", "A File", 4321);
 3420              		.loc 3 98 0
 3421 1829 488D45B0 		leaq	-80(%rbp), %rax
 3422 182d 41B8E110 		movl	$4321, %r8d
 3422      0000
 3423 1833 B9000000 		movl	$.LC26, %ecx
 3423      00
 3424 1838 BA000000 		movl	$.LC7, %edx
 3424      00
 3425 183d BE000000 		movl	$.LC27, %esi
 3425      00
 3426 1842 4889C7   		movq	%rax, %rdi
 3427              	.LEHB105:
 3428 1845 E8000000 		call	_ZN8UnitTest11TestDetailsC1EPKcS2_S2_i
 3428      00
  99:TestXmlTestReporter.cpp **** 
 100:TestXmlTestReporter.cpp ****     reporter.ReportTestStart(details);
 3429              		.loc 3 100 0
 3430 184a 488B4598 		movq	-104(%rbp), %rax
 3431 184e 488D9060 		leaq	352(%rax), %rdx
 3431      010000
 3432 1855 488D45B0 		leaq	-80(%rbp), %rax
 3433 1859 4889C6   		movq	%rax, %rsi
 3434 185c 4889D7   		movq	%rdx, %rdi
 3435 185f E8000000 		call	_ZN8UnitTest20DeferredTestReporter15ReportTestStartERKNS_11TestDetailsE
 3435      00
 101:TestXmlTestReporter.cpp ****     reporter.ReportFailure(details, "A Failure");
 3436              		.loc 3 101 0
 3437 1864 488B4598 		movq	-104(%rbp), %rax
 3438 1868 488D8860 		leaq	352(%rax), %rcx
 3438      010000
 3439 186f 488D45B0 		leaq	-80(%rbp), %rax
 3440 1873 BA000000 		movl	$.LC28, %edx
 3440      00
 3441 1878 4889C6   		movq	%rax, %rsi
 3442 187b 4889CF   		movq	%rcx, %rdi
 3443 187e E8000000 		call	_ZN8UnitTest20DeferredTestReporter13ReportFailureERKNS_11TestDetailsEPKc
 3443      00
 102:TestXmlTestReporter.cpp ****     reporter.ReportSummary(1, 1, 1, 0.1f);
 3444              		.loc 3 102 0
 3445 1883 488B4598 		movq	-104(%rbp), %rax
 3446 1887 48056001 		addq	$352, %rax
 3446      0000
 3447 188d F30F1005 		movss	.LC10(%rip), %xmm0
 3447      00000000 
 3448 1895 B9010000 		movl	$1, %ecx
 3448      00
 3449 189a BA010000 		movl	$1, %edx
 3449      00
 3450 189f BE010000 		movl	$1, %esi
 3450      00
 3451 18a4 4889C7   		movq	%rax, %rdi
 3452 18a7 E8000000 		call	_ZN8UnitTest15XmlTestReporter13ReportSummaryEiiif
 3452      00
 3453              	.LEHE105:
 103:TestXmlTestReporter.cpp **** 
 104:TestXmlTestReporter.cpp ****     const char *expected =
 105:TestXmlTestReporter.cpp ****         "<?xml version=\"1.0\"?>"
 106:TestXmlTestReporter.cpp ****         "<unittest-results tests=\"1\" failedtests=\"1\" failures=\"1\" time=\"0.1\">"
 107:TestXmlTestReporter.cpp ****         "<test suite=\"suite\" name=\"A Test\" time=\"0\">"
 108:TestXmlTestReporter.cpp ****         "<failure message=\"A File(4321) : A Failure\"/>"
 109:TestXmlTestReporter.cpp ****         "</test>"
 110:TestXmlTestReporter.cpp ****         "</unittest-results>";
 3454              		.loc 3 110 0
 3455 18ac 48C745A8 		movq	$.LC29, -88(%rbp)
 3455      00000000 
 3456              	.LEHB106:
 111:TestXmlTestReporter.cpp **** 
 112:TestXmlTestReporter.cpp ****     CHECK_EQUAL(expected, output.str());
 3457              		.loc 3 112 0
 3458 18b4 E8000000 		call	_ZN8UnitTest11CurrentTest7DetailsEv
 3458      00
 3459 18b9 488B08   		movq	(%rax), %rcx
 3460 18bc 488D45D0 		leaq	-48(%rbp), %rax
 3461 18c0 BA700000 		movl	$112, %edx
 3461      00
 3462 18c5 4889CE   		movq	%rcx, %rsi
 3463 18c8 4889C7   		movq	%rax, %rdi
 3464 18cb E8000000 		call	_ZN8UnitTest11TestDetailsC1ERKS0_i
 3464      00
 3465              		.loc 3 112 0 is_stmt 0 discriminator 1
 3466 18d0 488B5598 		movq	-104(%rbp), %rdx
 3467 18d4 488D45A0 		leaq	-96(%rbp), %rax
 3468 18d8 4889D6   		movq	%rdx, %rsi
 3469 18db 4889C7   		movq	%rax, %rdi
 3470 18de E8000000 		call	_ZNKSt19basic_ostringstreamIcSt11char_traitsIcESaIcEE3strEv
 3470      00
 3471              	.LEHE106:
 3472              	.LEHB107:
 3473              		.loc 3 112 0 discriminator 2
 3474 18e3 E8000000 		call	_ZN8UnitTest11CurrentTest7ResultsEv
 3474      00
 3475 18e8 488B00   		movq	(%rax), %rax
 3476 18eb 488D4DD0 		leaq	-48(%rbp), %rcx
 3477 18ef 488D55A0 		leaq	-96(%rbp), %rdx
 3478 18f3 488D75A8 		leaq	-88(%rbp), %rsi
 3479 18f7 4889C7   		movq	%rax, %rdi
 3480 18fa E8000000 		call	_ZN8UnitTest10CheckEqualIPKcSsEEvRNS_11TestResultsERKT_RKT0_RKNS_11TestDetailsE
 3480      00
 3481              	.LEHE107:
 3482              		.loc 3 112 0 discriminator 1
 3483 18ff 488D45A0 		leaq	-96(%rbp), %rax
 3484 1903 4889C7   		movq	%rax, %rdi
 3485              	.LEHB108:
 3486 1906 E8000000 		call	_ZNSsD1Ev
 3486      00
 3487              	.LEHE108:
 3488              	.LBE89:
 113:TestXmlTestReporter.cpp **** }
 3489              		.loc 3 113 0 is_stmt 1
 3490 190b EB6C     		jmp	.L193
 3491              	.L191:
 3492 190d 4889C3   		movq	%rax, %rbx
 3493              	.LBB90:
 112:TestXmlTestReporter.cpp **** }
 3494              		.loc 3 112 0
 3495 1910 488D45A0 		leaq	-96(%rbp), %rax
 3496 1914 4889C7   		movq	%rax, %rdi
 3497 1917 E8000000 		call	_ZNSsD1Ev
 3497      00
 3498 191c 4889D8   		movq	%rbx, %rax
 3499 191f EB13     		jmp	.L187
 3500              	.L192:
 3501 1921 4889C3   		movq	%rax, %rbx
 3502 1924 E8000000 		call	__cxa_end_catch
 3502      00
 3503 1929 4889D8   		movq	%rbx, %rax
 3504 192c 4889C7   		movq	%rax, %rdi
 3505              	.LEHB109:
 3506 192f E8000000 		call	_Unwind_Resume
 3506      00
 3507              	.LEHE109:
 3508              	.L190:
 3509              	.L187:
 3510 1934 4889C7   		movq	%rax, %rdi
 3511 1937 E8000000 		call	__cxa_begin_catch
 3511      00
 3512              	.LEHB110:
 3513 193c E8000000 		call	_ZN8UnitTest11CurrentTest7DetailsEv
 3513      00
 3514 1941 488B08   		movq	(%rax), %rcx
 3515 1944 488D45D0 		leaq	-48(%rbp), %rax
 3516 1948 BA700000 		movl	$112, %edx
 3516      00
 3517 194d 4889CE   		movq	%rcx, %rsi
 3518 1950 4889C7   		movq	%rax, %rdi
 3519 1953 E8000000 		call	_ZN8UnitTest11TestDetailsC1ERKS0_i
 3519      00
 112:TestXmlTestReporter.cpp **** }
 3520              		.loc 3 112 0 is_stmt 0 discriminator 1
 3521 1958 E8000000 		call	_ZN8UnitTest11CurrentTest7ResultsEv
 3521      00
 3522 195d 488B00   		movq	(%rax), %rax
 3523 1960 488D4DD0 		leaq	-48(%rbp), %rcx
 3524 1964 BA000000 		movl	$.LC12, %edx
 3524      00
 3525 1969 4889CE   		movq	%rcx, %rsi
 3526 196c 4889C7   		movq	%rax, %rdi
 3527 196f E8000000 		call	_ZN8UnitTest11TestResults13OnTestFailureERKNS_11TestDetailsEPKc
 3527      00
 3528              	.LEHE110:
 3529              	.LEHB111:
 3530 1974 E8000000 		call	__cxa_end_catch
 3530      00
 3531              	.LEHE111:
 3532              	.L193:
 3533              	.LBE90:
 3534              		.loc 3 113 0 is_stmt 1
 3535 1979 90       		nop
 3536 197a 4883C468 		addq	$104, %rsp
 3537 197e 5B       		popq	%rbx
 3538 197f 5D       		popq	%rbp
 3539              		.cfi_def_cfa 7, 8
 3540 1980 C3       		ret
 3541              		.cfi_endproc
 3542              	.LFE1340:
 3543              		.section	.gcc_except_table
 3544              		.align 4
 3545              	.LLSDA1340:
 3546 02e4 FF       		.byte	0xff
 3547 02e5 03       		.byte	0x3
 3548 02e6 31       		.uleb128 .LLSDATT1340-.LLSDATTD1340
 3549              	.LLSDATTD1340:
 3550 02e7 01       		.byte	0x1
 3551 02e8 26       		.uleb128 .LLSDACSE1340-.LLSDACSB1340
 3552              	.LLSDACSB1340:
 3553 02e9 29       		.uleb128 .LEHB105-.LFB1340
 3554 02ea 67       		.uleb128 .LEHE105-.LEHB105
 3555 02eb 00       		.uleb128 0
 3556 02ec 00       		.uleb128 0
 3557 02ed 9801     		.uleb128 .LEHB106-.LFB1340
 3558 02ef 2F       		.uleb128 .LEHE106-.LEHB106
 3559 02f0 9802     		.uleb128 .L190-.LFB1340
 3560 02f2 01       		.uleb128 0x1
 3561 02f3 C701     		.uleb128 .LEHB107-.LFB1340
 3562 02f5 1C       		.uleb128 .LEHE107-.LEHB107
 3563 02f6 F101     		.uleb128 .L191-.LFB1340
 3564 02f8 03       		.uleb128 0x3
 3565 02f9 EA01     		.uleb128 .LEHB108-.LFB1340
 3566 02fb 05       		.uleb128 .LEHE108-.LEHB108
 3567 02fc 9802     		.uleb128 .L190-.LFB1340
 3568 02fe 01       		.uleb128 0x1
 3569 02ff 9302     		.uleb128 .LEHB109-.LFB1340
 3570 0301 05       		.uleb128 .LEHE109-.LEHB109
 3571 0302 00       		.uleb128 0
 3572 0303 00       		.uleb128 0
 3573 0304 A002     		.uleb128 .LEHB110-.LFB1340
 3574 0306 38       		.uleb128 .LEHE110-.LEHB110
 3575 0307 8502     		.uleb128 .L192-.LFB1340
 3576 0309 00       		.uleb128 0
 3577 030a D802     		.uleb128 .LEHB111-.LFB1340
 3578 030c 05       		.uleb128 .LEHE111-.LEHB111
 3579 030d 00       		.uleb128 0
 3580 030e 00       		.uleb128 0
 3581              	.LLSDACSE1340:
 3582 030f 01       		.byte	0x1
 3583 0310 00       		.byte	0
 3584 0311 00       		.byte	0
 3585 0312 7D       		.byte	0x7d
 3586 0313 00       		.align 4
 3587 0314 00000000 		.long	0
 3588              	
 3589              	.LLSDATT1340:
 3590              		.text
 3592 1981 90       		.align 2
 3594              	_ZN12_GLOBAL__N_154XmlTestReporterFixtureFailureMessageIsXMLEscapedHelperC2ERKN8UnitTest11TestDetai
 3595              	.LFB1342:
 114:TestXmlTestReporter.cpp **** 
 115:TestXmlTestReporter.cpp **** TEST_FIXTURE(XmlTestReporterFixture, FailureMessageIsXMLEscaped)
 3596              		.loc 3 115 0
 3597              		.cfi_startproc
 3598 1982 55       		pushq	%rbp
 3599              		.cfi_def_cfa_offset 16
 3600              		.cfi_offset 6, -16
 3601 1983 4889E5   		movq	%rsp, %rbp
 3602              		.cfi_def_cfa_register 6
 3603 1986 4883EC10 		subq	$16, %rsp
 3604 198a 48897DF8 		movq	%rdi, -8(%rbp)
 3605 198e 488975F0 		movq	%rsi, -16(%rbp)
 3606              	.LBB91:
 3607              		.loc 3 115 0
 3608 1992 488B45F8 		movq	-8(%rbp), %rax
 3609 1996 4889C7   		movq	%rax, %rdi
 3610 1999 E862E6FF 		call	_ZN12_GLOBAL__N_122XmlTestReporterFixtureC2Ev
 3610      FF
 3611 199e 488B45F8 		movq	-8(%rbp), %rax
 3612 19a2 488B55F0 		movq	-16(%rbp), %rdx
 3613 19a6 48899088 		movq	%rdx, 392(%rax)
 3613      010000
 3614              	.LBE91:
 3615 19ad C9       		leave
 3616              		.cfi_def_cfa 7, 8
 3617 19ae C3       		ret
 3618              		.cfi_endproc
 3619              	.LFE1342:
 3621              		.set	_ZN12_GLOBAL__N_154XmlTestReporterFixtureFailureMessageIsXMLEscapedHelperC1ERKN8UnitTest11Tes
 3622              		.section	.rodata
 3623              	.LC30:
 3624 0584 4661696C 		.string	"FailureMessageIsXMLEscaped"
 3624      7572654D 
 3624      65737361 
 3624      67654973 
 3624      584D4C45 
 3625              		.text
 3626 19af 90       		.align 2
 3628              	_ZN12_GLOBAL__N_152TestXmlTestReporterFixtureFailureMessageIsXMLEscapedC2Ev:
 3629              	.LFB1345:
 3630              		.loc 3 115 0
 3631              		.cfi_startproc
 3632 19b0 55       		pushq	%rbp
 3633              		.cfi_def_cfa_offset 16
 3634              		.cfi_offset 6, -16
 3635 19b1 4889E5   		movq	%rsp, %rbp
 3636              		.cfi_def_cfa_register 6
 3637 19b4 4883EC10 		subq	$16, %rsp
 3638 19b8 48897DF8 		movq	%rdi, -8(%rbp)
 3639              	.LBB92:
 3640              		.loc 3 115 0
 3641 19bc E8000000 		call	_ZN13UnitTestSuite12GetSuiteNameEv
 3641      00
 3642 19c1 4889C2   		movq	%rax, %rdx
 3643 19c4 488B45F8 		movq	-8(%rbp), %rax
 3644 19c8 41B87300 		movl	$115, %r8d
 3644      0000
 3645 19ce B9000000 		movl	$.LC1, %ecx
 3645      00
 3646 19d3 BE000000 		movl	$.LC30, %esi
 3646      00
 3647 19d8 4889C7   		movq	%rax, %rdi
 3648 19db E8000000 		call	_ZN8UnitTest4TestC2EPKcS2_S2_i
 3648      00
 3649 19e0 488B45F8 		movq	-8(%rbp), %rax
 3650 19e4 48C70000 		movq	$_ZTVN12_GLOBAL__N_152TestXmlTestReporterFixtureFailureMessageIsXMLEscapedE+16, (%rax)
 3650      000000
 3651              	.LBE92:
 3652 19eb C9       		leave
 3653              		.cfi_def_cfa 7, 8
 3654 19ec C3       		ret
 3655              		.cfi_endproc
 3656              	.LFE1345:
 3658              		.set	_ZN12_GLOBAL__N_152TestXmlTestReporterFixtureFailureMessageIsXMLEscapedC1Ev,_ZN12_GLOBAL__N_1
 3659              		.local	_ZN12_GLOBAL__N_160testXmlTestReporterFixtureFailureMessageIsXMLEscapedInstanceE
 3660              		.comm	_ZN12_GLOBAL__N_160testXmlTestReporterFixtureFailureMessageIsXMLEscapedInstanceE,56,32
 3661              		.local	_ZN12_GLOBAL__N_153adderXmlTestReporterFixtureFailureMessageIsXMLEscapedE
 3662              		.comm	_ZN12_GLOBAL__N_153adderXmlTestReporterFixtureFailureMessageIsXMLEscapedE,1,1
 3663 19ed 90       		.align 2
 3665              	_ZN12_GLOBAL__N_154XmlTestReporterFixtureFailureMessageIsXMLEscapedHelperD2Ev:
 3666              	.LFB1349:
 3667              		.loc 3 115 0
 3668              		.cfi_startproc
 3669 19ee 55       		pushq	%rbp
 3670              		.cfi_def_cfa_offset 16
 3671              		.cfi_offset 6, -16
 3672 19ef 4889E5   		movq	%rsp, %rbp
 3673              		.cfi_def_cfa_register 6
 3674 19f2 4883EC10 		subq	$16, %rsp
 3675 19f6 48897DF8 		movq	%rdi, -8(%rbp)
 3676              	.LBB93:
 3677              		.loc 3 115 0
 3678 19fa 488B45F8 		movq	-8(%rbp), %rax
 3679 19fe 4889C7   		movq	%rax, %rdi
 3680 1a01 E856E6FF 		call	_ZN12_GLOBAL__N_122XmlTestReporterFixtureD2Ev
 3680      FF
 3681              	.LBE93:
 3682 1a06 C9       		leave
 3683              		.cfi_def_cfa 7, 8
 3684 1a07 C3       		ret
 3685              		.cfi_endproc
 3686              	.LFE1349:
 3688              		.set	_ZN12_GLOBAL__N_154XmlTestReporterFixtureFailureMessageIsXMLEscapedHelperD1Ev,_ZN12_GLOBAL__N
 3689              		.align 2
 3691              	_ZNK12_GLOBAL__N_152TestXmlTestReporterFixtureFailureMessageIsXMLEscaped7RunImplEv:
 3692              	.LFB1347:
 3693              		.loc 3 115 0
 3694              		.cfi_startproc
 3695              		.cfi_personality 0x3,__gxx_personality_v0
 3696              		.cfi_lsda 0x3,.LLSDA1347
 3697 1a08 55       		pushq	%rbp
 3698              		.cfi_def_cfa_offset 16
 3699              		.cfi_offset 6, -16
 3700 1a09 4889E5   		movq	%rsp, %rbp
 3701              		.cfi_def_cfa_register 6
 3702 1a0c 4154     		pushq	%r12
 3703 1a0e 53       		pushq	%rbx
 3704 1a0f 4881ECC0 		subq	$448, %rsp
 3704      010000
 3705              		.cfi_offset 12, -24
 3706              		.cfi_offset 3, -32
 3707 1a16 4889BD38 		movq	%rdi, -456(%rbp)
 3707      FEFFFF
 3708              	.LBB94:
 3709              		.loc 3 115 0
 3710 1a1d C6854FFE 		movb	$0, -433(%rbp)
 3710      FFFF00
 3711              	.LBB95:
 3712 1a24 488B8538 		movq	-456(%rbp), %rax
 3712      FEFFFF
 3713 1a2b 488D5008 		leaq	8(%rax), %rdx
 3714 1a2f 488D8560 		leaq	-416(%rbp), %rax
 3714      FEFFFF
 3715 1a36 4889D6   		movq	%rdx, %rsi
 3716 1a39 4889C7   		movq	%rax, %rdi
 3717              	.LEHB112:
 3718 1a3c E841FFFF 		call	_ZN12_GLOBAL__N_154XmlTestReporterFixtureFailureMessageIsXMLEscapedHelperC1ERKN8UnitTest11Tes
 3718      FF
 3719              	.LEHE112:
 3720              		.loc 3 115 0 is_stmt 0 discriminator 1
 3721 1a41 C6854FFE 		movb	$1, -433(%rbp)
 3721      FFFF01
 3722 1a48 488B8538 		movq	-456(%rbp), %rax
 3722      FEFFFF
 3723 1a4f 488D5008 		leaq	8(%rax), %rdx
 3724 1a53 488D8560 		leaq	-416(%rbp), %rax
 3724      FEFFFF
 3725 1a5a 4889D6   		movq	%rdx, %rsi
 3726 1a5d 4889C7   		movq	%rax, %rdi
 3727              	.LEHB113:
 3728 1a60 E8B91B00 		call	_ZN8UnitTest11ExecuteTestIN12_GLOBAL__N_154XmlTestReporterFixtureFailureMessageIsXMLEscapedHe
 3728      00
 3729              	.LEHE113:
 3730 1a65 488D8560 		leaq	-416(%rbp), %rax
 3730      FEFFFF
 3731 1a6c 4889C7   		movq	%rax, %rdi
 3732              	.LEHB114:
 3733 1a6f E87AFFFF 		call	_ZN12_GLOBAL__N_154XmlTestReporterFixtureFailureMessageIsXMLEscapedHelperD1Ev
 3733      FF
 3734              	.LEHE114:
 3735              	.LBE95:
 3736              	.LBE94:
 3737              		.loc 3 115 0
 3738 1a74 E9640200 		jmp	.L218
 3738      00
 3739              	.L212:
 3740 1a79 4989C4   		movq	%rax, %r12
 3741 1a7c 4889D3   		movq	%rdx, %rbx
 3742              	.LBB103:
 3743              	.LBB96:
 3744 1a7f 488D8560 		leaq	-416(%rbp), %rax
 3744      FEFFFF
 3745 1a86 4889C7   		movq	%rax, %rdi
 3746 1a89 E860FFFF 		call	_ZN12_GLOBAL__N_154XmlTestReporterFixtureFailureMessageIsXMLEscapedHelperD1Ev
 3746      FF
 3747 1a8e 4C89E0   		movq	%r12, %rax
 3748 1a91 4889DA   		movq	%rbx, %rdx
 3749 1a94 EB00     		jmp	.L200
 3750              	.L211:
 3751              	.L200:
 3752 1a96 4883FA01 		cmpq	$1, %rdx
 3753 1a9a 745C     		je	.L202
 3754 1a9c 4883FA02 		cmpq	$2, %rdx
 3755 1aa0 0F84F400 		je	.L203
 3755      0000
 3756 1aa6 E9980100 		jmp	.L217
 3756      00
 3757              	.L213:
 3758 1aab 4889C3   		movq	%rax, %rbx
 3759              	.LBE96:
 3760              	.LBB97:
 3761 1aae E8000000 		call	__cxa_end_catch
 3761      00
 3762 1ab3 4889D8   		movq	%rbx, %rax
 3763 1ab6 4889C7   		movq	%rax, %rdi
 3764              	.LEHB115:
 3765 1ab9 E8000000 		call	_Unwind_Resume
 3765      00
 3766              	.LEHE115:
 3767              	.L214:
 3768 1abe 4889C3   		movq	%rax, %rbx
 3769              	.LBE97:
 3770              	.LBB98:
 3771              	.LBB99:
 3772 1ac1 488D8560 		leaq	-416(%rbp), %rax
 3772      FEFFFF
 3773 1ac8 4889C7   		movq	%rax, %rdi
 3774 1acb E8000000 		call	_ZN8UnitTest15MemoryOutStreamD1Ev
 3774      00
 3775 1ad0 EB03     		jmp	.L206
 3776              	.L215:
 3777 1ad2 4889C3   		movq	%rax, %rbx
 3778              	.L206:
 3779              	.LBE99:
 3780 1ad5 E8000000 		call	__cxa_end_catch
 3780      00
 3781 1ada 4889D8   		movq	%rbx, %rax
 3782 1add 4889C7   		movq	%rax, %rdi
 3783              	.LEHB116:
 3784 1ae0 E8000000 		call	_Unwind_Resume
 3784      00
 3785              	.LEHE116:
 3786              	.L216:
 3787 1ae5 4889C3   		movq	%rax, %rbx
 3788              	.LBE98:
 3789 1ae8 E8000000 		call	__cxa_end_catch
 3789      00
 3790 1aed 4889D8   		movq	%rbx, %rax
 3791 1af0 4889C7   		movq	%rax, %rdi
 3792              	.LEHB117:
 3793 1af3 E8000000 		call	_Unwind_Resume
 3793      00
 3794              	.LEHE117:
 3795              	.L202:
 3796              	.LBB101:
 3797 1af8 4889C7   		movq	%rax, %rdi
 3798 1afb E8000000 		call	__cxa_begin_catch
 3798      00
 3799 1b00 48898550 		movq	%rax, -432(%rbp)
 3799      FEFFFF
 3800 1b07 488B8550 		movq	-432(%rbp), %rax
 3800      FEFFFF
 3801 1b0e 488B00   		movq	(%rax), %rax
 3802 1b11 4883C010 		addq	$16, %rax
 3803 1b15 488B00   		movq	(%rax), %rax
 3804 1b18 488B9550 		movq	-432(%rbp), %rdx
 3804      FEFFFF
 3805 1b1f 4889D7   		movq	%rdx, %rdi
 3806 1b22 FFD0     		call	*%rax
 3807 1b24 4889C3   		movq	%rax, %rbx
 3808 1b27 488B8550 		movq	-432(%rbp), %rax
 3808      FEFFFF
 3809 1b2e 4889C7   		movq	%rax, %rdi
 3810              	.LEHB118:
 3811 1b31 E8000000 		call	_ZNK8UnitTest15AssertException10LineNumberEv
 3811      00
 3812 1b36 4189C4   		movl	%eax, %r12d
 3813 1b39 488B8550 		movq	-432(%rbp), %rax
 3813      FEFFFF
 3814 1b40 4889C7   		movq	%rax, %rdi
 3815 1b43 E8000000 		call	_ZNK8UnitTest15AssertException8FilenameEv
 3815      00
 3816              		.loc 3 115 0 discriminator 1
 3817 1b48 4889C1   		movq	%rax, %rcx
 3818 1b4b 488B8538 		movq	-456(%rbp), %rax
 3818      FEFFFF
 3819 1b52 488B5008 		movq	8(%rax), %rdx
 3820 1b56 488B8538 		movq	-456(%rbp), %rax
 3820      FEFFFF
 3821 1b5d 488B7010 		movq	16(%rax), %rsi
 3822 1b61 488D8560 		leaq	-416(%rbp), %rax
 3822      FEFFFF
 3823 1b68 4589E0   		movl	%r12d, %r8d
 3824 1b6b 4889C7   		movq	%rax, %rdi
 3825 1b6e E8000000 		call	_ZN8UnitTest11TestDetailsC1EPKcS2_S2_i
 3825      00
 3826              		.loc 3 115 0 discriminator 3
 3827 1b73 E8000000 		call	_ZN8UnitTest11CurrentTest7ResultsEv
 3827      00
 3828 1b78 488B00   		movq	(%rax), %rax
 3829 1b7b 488D8D60 		leaq	-416(%rbp), %rcx
 3829      FEFFFF
 3830 1b82 4889DA   		movq	%rbx, %rdx
 3831 1b85 4889CE   		movq	%rcx, %rsi
 3832 1b88 4889C7   		movq	%rax, %rdi
 3833 1b8b E8000000 		call	_ZN8UnitTest11TestResults13OnTestFailureERKNS_11TestDetailsEPKc
 3833      00
 3834              	.LEHE118:
 3835              		.loc 3 115 0 discriminator 1
 3836 1b90 E8000000 		call	__cxa_end_catch
 3836      00
 3837              	.LBE101:
 3838              	.LBE103:
 3839 1b95 E9430100 		jmp	.L218
 3839      00
 3840              	.L203:
 3841              	.LBB104:
 3842              	.LBB102:
 3843              		.loc 3 115 0
 3844 1b9a 4889C7   		movq	%rax, %rdi
 3845 1b9d E8000000 		call	__cxa_begin_catch
 3845      00
 3846 1ba2 48898558 		movq	%rax, -424(%rbp)
 3846      FEFFFF
 3847              	.LBB100:
 3848 1ba9 488D8560 		leaq	-416(%rbp), %rax
 3848      FEFFFF
 3849 1bb0 4889C7   		movq	%rax, %rdi
 3850              	.LEHB119:
 3851 1bb3 E8000000 		call	_ZN8UnitTest15MemoryOutStreamC1Ev
 3851      00
 3852              	.LEHE119:
 3853              		.loc 3 115 0 discriminator 1
 3854 1bb8 488B8558 		movq	-424(%rbp), %rax
 3854      FEFFFF
 3855 1bbf 488B00   		movq	(%rax), %rax
 3856 1bc2 4883C010 		addq	$16, %rax
 3857 1bc6 488B00   		movq	(%rax), %rax
 3858 1bc9 488B9558 		movq	-424(%rbp), %rdx
 3858      FEFFFF
 3859 1bd0 4889D7   		movq	%rdx, %rdi
 3860 1bd3 FFD0     		call	*%rax
 3861 1bd5 4889C3   		movq	%rax, %rbx
 3862 1bd8 488D8560 		leaq	-416(%rbp), %rax
 3862      FEFFFF
 3863 1bdf BE000000 		movl	$.LC3, %esi
 3863      00
 3864 1be4 4889C7   		movq	%rax, %rdi
 3865              	.LEHB120:
 3866 1be7 E8000000 		call	_ZStlsISt11char_traitsIcEERSt13basic_ostreamIcT_ES5_PKc
 3866      00
 3867 1bec 4889DE   		movq	%rbx, %rsi
 3868 1bef 4889C7   		movq	%rax, %rdi
 3869 1bf2 E8000000 		call	_ZStlsISt11char_traitsIcEERSt13basic_ostreamIcT_ES5_PKc
 3869      00
 3870 1bf7 488D8560 		leaq	-416(%rbp), %rax
 3870      FEFFFF
 3871 1bfe 4889C7   		movq	%rax, %rdi
 3872 1c01 E8000000 		call	_ZNK8UnitTest15MemoryOutStream7GetTextEv
 3872      00
 3873 1c06 4889C3   		movq	%rax, %rbx
 3874 1c09 488B8538 		movq	-456(%rbp), %rax
 3874      FEFFFF
 3875 1c10 4C8D6008 		leaq	8(%rax), %r12
 3876 1c14 E8000000 		call	_ZN8UnitTest11CurrentTest7ResultsEv
 3876      00
 3877 1c19 488B00   		movq	(%rax), %rax
 3878 1c1c 4889DA   		movq	%rbx, %rdx
 3879 1c1f 4C89E6   		movq	%r12, %rsi
 3880 1c22 4889C7   		movq	%rax, %rdi
 3881 1c25 E8000000 		call	_ZN8UnitTest11TestResults13OnTestFailureERKNS_11TestDetailsEPKc
 3881      00
 3882              	.LEHE120:
 3883 1c2a 488D8560 		leaq	-416(%rbp), %rax
 3883      FEFFFF
 3884 1c31 4889C7   		movq	%rax, %rdi
 3885              	.LEHB121:
 3886 1c34 E8000000 		call	_ZN8UnitTest15MemoryOutStreamD1Ev
 3886      00
 3887              	.LEHE121:
 3888              	.LBE100:
 3889              		.loc 3 115 0
 3890 1c39 E8000000 		call	__cxa_end_catch
 3890      00
 3891              	.LBE102:
 3892              	.LBE104:
 3893 1c3e E99A0000 		jmp	.L218
 3893      00
 3894              	.L217:
 3895              	.LBB105:
 3896 1c43 4889C7   		movq	%rax, %rdi
 3897 1c46 E8000000 		call	__cxa_begin_catch
 3897      00
 3898 1c4b 80BD4FFE 		cmpb	$0, -433(%rbp)
 3898      FFFF00
 3899 1c52 7443     		je	.L209
 3900              		.loc 3 115 0 discriminator 1
 3901 1c54 488B8538 		movq	-456(%rbp), %rax
 3901      FEFFFF
 3902 1c5b 488D4808 		leaq	8(%rax), %rcx
 3903 1c5f 488D8560 		leaq	-416(%rbp), %rax
 3903      FEFFFF
 3904 1c66 BA730000 		movl	$115, %edx
 3904      00
 3905 1c6b 4889CE   		movq	%rcx, %rsi
 3906 1c6e 4889C7   		movq	%rax, %rdi
 3907              	.LEHB122:
 3908 1c71 E8000000 		call	_ZN8UnitTest11TestDetailsC1ERKS0_i
 3908      00
 3909 1c76 E8000000 		call	_ZN8UnitTest11CurrentTest7ResultsEv
 3909      00
 3910 1c7b 488B00   		movq	(%rax), %rax
 3911 1c7e 488D8D60 		leaq	-416(%rbp), %rcx
 3911      FEFFFF
 3912 1c85 BA000000 		movl	$.LC4, %edx
 3912      00
 3913 1c8a 4889CE   		movq	%rcx, %rsi
 3914 1c8d 4889C7   		movq	%rax, %rdi
 3915 1c90 E8000000 		call	_ZN8UnitTest11TestResults13OnTestFailureERKNS_11TestDetailsEPKc
 3915      00
 3916 1c95 EB41     		jmp	.L210
 3917              	.L209:
 3918              		.loc 3 115 0 discriminator 2
 3919 1c97 488B8538 		movq	-456(%rbp), %rax
 3919      FEFFFF
 3920 1c9e 488D4808 		leaq	8(%rax), %rcx
 3921 1ca2 488D8560 		leaq	-416(%rbp), %rax
 3921      FEFFFF
 3922 1ca9 BA730000 		movl	$115, %edx
 3922      00
 3923 1cae 4889CE   		movq	%rcx, %rsi
 3924 1cb1 4889C7   		movq	%rax, %rdi
 3925 1cb4 E8000000 		call	_ZN8UnitTest11TestDetailsC1ERKS0_i
 3925      00
 3926              		.loc 3 115 0 discriminator 1
 3927 1cb9 E8000000 		call	_ZN8UnitTest11CurrentTest7ResultsEv
 3927      00
 3928 1cbe 488B00   		movq	(%rax), %rax
 3929 1cc1 488D8D60 		leaq	-416(%rbp), %rcx
 3929      FEFFFF
 3930 1cc8 BA000000 		movl	$.LC5, %edx
 3930      00
 3931 1ccd 4889CE   		movq	%rcx, %rsi
 3932 1cd0 4889C7   		movq	%rax, %rdi
 3933 1cd3 E8000000 		call	_ZN8UnitTest11TestResults13OnTestFailureERKNS_11TestDetailsEPKc
 3933      00
 3934              	.LEHE122:
 3935              	.L210:
 3936              	.LEHB123:
 3937 1cd8 E8000000 		call	__cxa_end_catch
 3937      00
 3938              	.LEHE123:
 3939              	.L218:
 3940              	.LBE105:
 3941              		.loc 3 115 0
 3942 1cdd 90       		nop
 3943 1cde 4881C4C0 		addq	$448, %rsp
 3943      010000
 3944 1ce5 5B       		popq	%rbx
 3945 1ce6 415C     		popq	%r12
 3946 1ce8 5D       		popq	%rbp
 3947              		.cfi_def_cfa 7, 8
 3948 1ce9 C3       		ret
 3949              		.cfi_endproc
 3950              	.LFE1347:
 3951              		.section	.gcc_except_table
 3952              		.align 4
 3953              	.LLSDA1347:
 3954 0318 FF       		.byte	0xff
 3955 0319 03       		.byte	0x3
 3956 031a 59       		.uleb128 .LLSDATT1347-.LLSDATTD1347
 3957              	.LLSDATTD1347:
 3958 031b 01       		.byte	0x1
 3959 031c 40       		.uleb128 .LLSDACSE1347-.LLSDACSB1347
 3960              	.LLSDACSB1347:
 3961 031d 34       		.uleb128 .LEHB112-.LFB1347
 3962 031e 05       		.uleb128 .LEHE112-.LEHB112
 3963 031f 8E01     		.uleb128 .L211-.LFB1347
 3964 0321 05       		.uleb128 0x5
 3965 0322 58       		.uleb128 .LEHB113-.LFB1347
 3966 0323 05       		.uleb128 .LEHE113-.LEHB113
 3967 0324 71       		.uleb128 .L212-.LFB1347
 3968 0325 07       		.uleb128 0x7
 3969 0326 67       		.uleb128 .LEHB114-.LFB1347
 3970 0327 05       		.uleb128 .LEHE114-.LEHB114
 3971 0328 8E01     		.uleb128 .L211-.LFB1347
 3972 032a 05       		.uleb128 0x5
 3973 032b B101     		.uleb128 .LEHB115-.LFB1347
 3974 032d 05       		.uleb128 .LEHE115-.LEHB115
 3975 032e 00       		.uleb128 0
 3976 032f 00       		.uleb128 0
 3977 0330 D801     		.uleb128 .LEHB116-.LFB1347
 3978 0332 05       		.uleb128 .LEHE116-.LEHB116
 3979 0333 00       		.uleb128 0
 3980 0334 00       		.uleb128 0
 3981 0335 EB01     		.uleb128 .LEHB117-.LFB1347
 3982 0337 05       		.uleb128 .LEHE117-.LEHB117
 3983 0338 00       		.uleb128 0
 3984 0339 00       		.uleb128 0
 3985 033a A902     		.uleb128 .LEHB118-.LFB1347
 3986 033c 5F       		.uleb128 .LEHE118-.LEHB118
 3987 033d A301     		.uleb128 .L213-.LFB1347
 3988 033f 00       		.uleb128 0
 3989 0340 AB03     		.uleb128 .LEHB119-.LFB1347
 3990 0342 05       		.uleb128 .LEHE119-.LEHB119
 3991 0343 CA01     		.uleb128 .L215-.LFB1347
 3992 0345 00       		.uleb128 0
 3993 0346 DF03     		.uleb128 .LEHB120-.LFB1347
 3994 0348 43       		.uleb128 .LEHE120-.LEHB120
 3995 0349 B601     		.uleb128 .L214-.LFB1347
 3996 034b 00       		.uleb128 0
 3997 034c AC04     		.uleb128 .LEHB121-.LFB1347
 3998 034e 05       		.uleb128 .LEHE121-.LEHB121
 3999 034f CA01     		.uleb128 .L215-.LFB1347
 4000 0351 00       		.uleb128 0
 4001 0352 E904     		.uleb128 .LEHB122-.LFB1347
 4002 0354 67       		.uleb128 .LEHE122-.LEHB122
 4003 0355 DD01     		.uleb128 .L216-.LFB1347
 4004 0357 00       		.uleb128 0
 4005 0358 D005     		.uleb128 .LEHB123-.LFB1347
 4006 035a 05       		.uleb128 .LEHE123-.LEHB123
 4007 035b 00       		.uleb128 0
 4008 035c 00       		.uleb128 0
 4009              	.LLSDACSE1347:
 4010 035d 03       		.byte	0x3
 4011 035e 00       		.byte	0
 4012 035f 02       		.byte	0x2
 4013 0360 7D       		.byte	0x7d
 4014 0361 01       		.byte	0x1
 4015 0362 7D       		.byte	0x7d
 4016 0363 00       		.byte	0
 4017 0364 7D       		.byte	0x7d
 4018 0365 000000   		.align 4
 4019 0368 00000000 		.long	0
 4020              	
 4021 036c 00000000 		.long	_ZTISt9exception
 4022 0370 00000000 		.long	_ZTIN8UnitTest15AssertExceptionE
 4023              	.LLSDATT1347:
 4024              		.text
 4026              		.section	.rodata
 4027              	.LC31:
 4028 059f 2227263C 		.string	"\"'&<>"
 4028      3E00
 4029 05a5 000000   		.align 8
 4030              	.LC32:
 4031 05a8 3C3F786D 		.string	"<?xml version=\"1.0\"?><unittest-results tests=\"1\" failedtests=\"1\" failures=\"1\" tim
 4031      6C207665 
 4031      7273696F 
 4031      6E3D2231 
 4031      2E30223F 
 4032              		.text
 4033              		.align 2
 4035              	_ZN12_GLOBAL__N_154XmlTestReporterFixtureFailureMessageIsXMLEscapedHelper7RunImplEv:
 4036              	.LFB1351:
 116:TestXmlTestReporter.cpp **** {
 4037              		.loc 3 116 0 is_stmt 1
 4038              		.cfi_startproc
 4039              		.cfi_personality 0x3,__gxx_personality_v0
 4040              		.cfi_lsda 0x3,.LLSDA1351
 4041 1cea 55       		pushq	%rbp
 4042              		.cfi_def_cfa_offset 16
 4043              		.cfi_offset 6, -16
 4044 1ceb 4889E5   		movq	%rsp, %rbp
 4045              		.cfi_def_cfa_register 6
 4046 1cee 53       		pushq	%rbx
 4047 1cef 4883EC68 		subq	$104, %rsp
 4048              		.cfi_offset 3, -24
 4049 1cf3 48897D98 		movq	%rdi, -104(%rbp)
 4050              	.LBB106:
 117:TestXmlTestReporter.cpp ****     TestDetails const details("TestName", "suite", "filename.h", 4321);
 4051              		.loc 3 117 0
 4052 1cf7 488D45B0 		leaq	-80(%rbp), %rax
 4053 1cfb 41B8E110 		movl	$4321, %r8d
 4053      0000
 4054 1d01 B9000000 		movl	$.LC6, %ecx
 4054      00
 4055 1d06 BA000000 		movl	$.LC7, %edx
 4055      00
 4056 1d0b BE000000 		movl	$.LC8, %esi
 4056      00
 4057 1d10 4889C7   		movq	%rax, %rdi
 4058              	.LEHB124:
 4059 1d13 E8000000 		call	_ZN8UnitTest11TestDetailsC1EPKcS2_S2_i
 4059      00
 118:TestXmlTestReporter.cpp **** 
 119:TestXmlTestReporter.cpp ****     reporter.ReportTestStart(details);
 4060              		.loc 3 119 0
 4061 1d18 488B4598 		movq	-104(%rbp), %rax
 4062 1d1c 488D9060 		leaq	352(%rax), %rdx
 4062      010000
 4063 1d23 488D45B0 		leaq	-80(%rbp), %rax
 4064 1d27 4889C6   		movq	%rax, %rsi
 4065 1d2a 4889D7   		movq	%rdx, %rdi
 4066 1d2d E8000000 		call	_ZN8UnitTest20DeferredTestReporter15ReportTestStartERKNS_11TestDetailsE
 4066      00
 120:TestXmlTestReporter.cpp ****     reporter.ReportFailure(details, "\"\'&<>");
 4067              		.loc 3 120 0
 4068 1d32 488B4598 		movq	-104(%rbp), %rax
 4069 1d36 488D8860 		leaq	352(%rax), %rcx
 4069      010000
 4070 1d3d 488D45B0 		leaq	-80(%rbp), %rax
 4071 1d41 BA000000 		movl	$.LC31, %edx
 4071      00
 4072 1d46 4889C6   		movq	%rax, %rsi
 4073 1d49 4889CF   		movq	%rcx, %rdi
 4074 1d4c E8000000 		call	_ZN8UnitTest20DeferredTestReporter13ReportFailureERKNS_11TestDetailsEPKc
 4074      00
 121:TestXmlTestReporter.cpp ****     reporter.ReportTestFinish(details, 0.1f);
 4075              		.loc 3 121 0
 4076 1d51 488B4598 		movq	-104(%rbp), %rax
 4077 1d55 488D9060 		leaq	352(%rax), %rdx
 4077      010000
 4078 1d5c 488D45B0 		leaq	-80(%rbp), %rax
 4079 1d60 F30F1005 		movss	.LC10(%rip), %xmm0
 4079      00000000 
 4080 1d68 4889C6   		movq	%rax, %rsi
 4081 1d6b 4889D7   		movq	%rdx, %rdi
 4082 1d6e E8000000 		call	_ZN8UnitTest20DeferredTestReporter16ReportTestFinishERKNS_11TestDetailsEf
 4082      00
 122:TestXmlTestReporter.cpp ****     reporter.ReportSummary(1, 1, 1, 0.1f);
 4083              		.loc 3 122 0
 4084 1d73 488B4598 		movq	-104(%rbp), %rax
 4085 1d77 48056001 		addq	$352, %rax
 4085      0000
 4086 1d7d F30F1005 		movss	.LC10(%rip), %xmm0
 4086      00000000 
 4087 1d85 B9010000 		movl	$1, %ecx
 4087      00
 4088 1d8a BA010000 		movl	$1, %edx
 4088      00
 4089 1d8f BE010000 		movl	$1, %esi
 4089      00
 4090 1d94 4889C7   		movq	%rax, %rdi
 4091 1d97 E8000000 		call	_ZN8UnitTest15XmlTestReporter13ReportSummaryEiiif
 4091      00
 4092              	.LEHE124:
 123:TestXmlTestReporter.cpp **** 
 124:TestXmlTestReporter.cpp ****     char const* expected =
 125:TestXmlTestReporter.cpp ****         "<?xml version=\"1.0\"?>"
 126:TestXmlTestReporter.cpp ****         "<unittest-results tests=\"1\" failedtests=\"1\" failures=\"1\" time=\"0.1\">"
 127:TestXmlTestReporter.cpp ****         "<test suite=\"suite\" name=\"TestName\" time=\"0.1\">"
 128:TestXmlTestReporter.cpp ****         "<failure message=\"filename.h(4321) : &quot;&apos;&amp;&lt;&gt;\"/>"
 129:TestXmlTestReporter.cpp ****         "</test>"
 130:TestXmlTestReporter.cpp ****         "</unittest-results>";
 4093              		.loc 3 130 0
 4094 1d9c 48C745A8 		movq	$.LC32, -88(%rbp)
 4094      00000000 
 4095              	.LEHB125:
 131:TestXmlTestReporter.cpp **** 
 132:TestXmlTestReporter.cpp ****     CHECK_EQUAL(expected, output.str());
 4096              		.loc 3 132 0
 4097 1da4 E8000000 		call	_ZN8UnitTest11CurrentTest7DetailsEv
 4097      00
 4098 1da9 488B08   		movq	(%rax), %rcx
 4099 1dac 488D45D0 		leaq	-48(%rbp), %rax
 4100 1db0 BA840000 		movl	$132, %edx
 4100      00
 4101 1db5 4889CE   		movq	%rcx, %rsi
 4102 1db8 4889C7   		movq	%rax, %rdi
 4103 1dbb E8000000 		call	_ZN8UnitTest11TestDetailsC1ERKS0_i
 4103      00
 4104              		.loc 3 132 0 is_stmt 0 discriminator 1
 4105 1dc0 488B5598 		movq	-104(%rbp), %rdx
 4106 1dc4 488D45A0 		leaq	-96(%rbp), %rax
 4107 1dc8 4889D6   		movq	%rdx, %rsi
 4108 1dcb 4889C7   		movq	%rax, %rdi
 4109 1dce E8000000 		call	_ZNKSt19basic_ostringstreamIcSt11char_traitsIcESaIcEE3strEv
 4109      00
 4110              	.LEHE125:
 4111              	.LEHB126:
 4112              		.loc 3 132 0 discriminator 2
 4113 1dd3 E8000000 		call	_ZN8UnitTest11CurrentTest7ResultsEv
 4113      00
 4114 1dd8 488B00   		movq	(%rax), %rax
 4115 1ddb 488D4DD0 		leaq	-48(%rbp), %rcx
 4116 1ddf 488D55A0 		leaq	-96(%rbp), %rdx
 4117 1de3 488D75A8 		leaq	-88(%rbp), %rsi
 4118 1de7 4889C7   		movq	%rax, %rdi
 4119 1dea E8000000 		call	_ZN8UnitTest10CheckEqualIPKcSsEEvRNS_11TestResultsERKT_RKT0_RKNS_11TestDetailsE
 4119      00
 4120              	.LEHE126:
 4121              		.loc 3 132 0 discriminator 1
 4122 1def 488D45A0 		leaq	-96(%rbp), %rax
 4123 1df3 4889C7   		movq	%rax, %rdi
 4124              	.LEHB127:
 4125 1df6 E8000000 		call	_ZNSsD1Ev
 4125      00
 4126              	.LEHE127:
 4127              	.LBE106:
 133:TestXmlTestReporter.cpp **** }
 4128              		.loc 3 133 0 is_stmt 1
 4129 1dfb EB6C     		jmp	.L227
 4130              	.L225:
 4131 1dfd 4889C3   		movq	%rax, %rbx
 4132              	.LBB107:
 132:TestXmlTestReporter.cpp **** }
 4133              		.loc 3 132 0
 4134 1e00 488D45A0 		leaq	-96(%rbp), %rax
 4135 1e04 4889C7   		movq	%rax, %rdi
 4136 1e07 E8000000 		call	_ZNSsD1Ev
 4136      00
 4137 1e0c 4889D8   		movq	%rbx, %rax
 4138 1e0f EB13     		jmp	.L221
 4139              	.L226:
 4140 1e11 4889C3   		movq	%rax, %rbx
 4141 1e14 E8000000 		call	__cxa_end_catch
 4141      00
 4142 1e19 4889D8   		movq	%rbx, %rax
 4143 1e1c 4889C7   		movq	%rax, %rdi
 4144              	.LEHB128:
 4145 1e1f E8000000 		call	_Unwind_Resume
 4145      00
 4146              	.LEHE128:
 4147              	.L224:
 4148              	.L221:
 4149 1e24 4889C7   		movq	%rax, %rdi
 4150 1e27 E8000000 		call	__cxa_begin_catch
 4150      00
 4151              	.LEHB129:
 4152 1e2c E8000000 		call	_ZN8UnitTest11CurrentTest7DetailsEv
 4152      00
 4153 1e31 488B08   		movq	(%rax), %rcx
 4154 1e34 488D45D0 		leaq	-48(%rbp), %rax
 4155 1e38 BA840000 		movl	$132, %edx
 4155      00
 4156 1e3d 4889CE   		movq	%rcx, %rsi
 4157 1e40 4889C7   		movq	%rax, %rdi
 4158 1e43 E8000000 		call	_ZN8UnitTest11TestDetailsC1ERKS0_i
 4158      00
 132:TestXmlTestReporter.cpp **** }
 4159              		.loc 3 132 0 is_stmt 0 discriminator 1
 4160 1e48 E8000000 		call	_ZN8UnitTest11CurrentTest7ResultsEv
 4160      00
 4161 1e4d 488B00   		movq	(%rax), %rax
 4162 1e50 488D4DD0 		leaq	-48(%rbp), %rcx
 4163 1e54 BA000000 		movl	$.LC12, %edx
 4163      00
 4164 1e59 4889CE   		movq	%rcx, %rsi
 4165 1e5c 4889C7   		movq	%rax, %rdi
 4166 1e5f E8000000 		call	_ZN8UnitTest11TestResults13OnTestFailureERKNS_11TestDetailsEPKc
 4166      00
 4167              	.LEHE129:
 4168              	.LEHB130:
 4169 1e64 E8000000 		call	__cxa_end_catch
 4169      00
 4170              	.LEHE130:
 4171              	.L227:
 4172              	.LBE107:
 4173              		.loc 3 133 0 is_stmt 1
 4174 1e69 90       		nop
 4175 1e6a 4883C468 		addq	$104, %rsp
 4176 1e6e 5B       		popq	%rbx
 4177 1e6f 5D       		popq	%rbp
 4178              		.cfi_def_cfa 7, 8
 4179 1e70 C3       		ret
 4180              		.cfi_endproc
 4181              	.LFE1351:
 4182              		.section	.gcc_except_table
 4183              		.align 4
 4184              	.LLSDA1351:
 4185 0374 FF       		.byte	0xff
 4186 0375 03       		.byte	0x3
 4187 0376 31       		.uleb128 .LLSDATT1351-.LLSDATTD1351
 4188              	.LLSDATTD1351:
 4189 0377 01       		.byte	0x1
 4190 0378 27       		.uleb128 .LLSDACSE1351-.LLSDACSB1351
 4191              	.LLSDACSB1351:
 4192 0379 29       		.uleb128 .LEHB124-.LFB1351
 4193 037a 8901     		.uleb128 .LEHE124-.LEHB124
 4194 037c 00       		.uleb128 0
 4195 037d 00       		.uleb128 0
 4196 037e BA01     		.uleb128 .LEHB125-.LFB1351
 4197 0380 2F       		.uleb128 .LEHE125-.LEHB125
 4198 0381 BA02     		.uleb128 .L224-.LFB1351
 4199 0383 01       		.uleb128 0x1
 4200 0384 E901     		.uleb128 .LEHB126-.LFB1351
 4201 0386 1C       		.uleb128 .LEHE126-.LEHB126
 4202 0387 9302     		.uleb128 .L225-.LFB1351
 4203 0389 03       		.uleb128 0x3
 4204 038a 8C02     		.uleb128 .LEHB127-.LFB1351
 4205 038c 05       		.uleb128 .LEHE127-.LEHB127
 4206 038d BA02     		.uleb128 .L224-.LFB1351
 4207 038f 01       		.uleb128 0x1
 4208 0390 B502     		.uleb128 .LEHB128-.LFB1351
 4209 0392 05       		.uleb128 .LEHE128-.LEHB128
 4210 0393 00       		.uleb128 0
 4211 0394 00       		.uleb128 0
 4212 0395 C202     		.uleb128 .LEHB129-.LFB1351
 4213 0397 38       		.uleb128 .LEHE129-.LEHB129
 4214 0398 A702     		.uleb128 .L226-.LFB1351
 4215 039a 00       		.uleb128 0
 4216 039b FA02     		.uleb128 .LEHB130-.LFB1351
 4217 039d 05       		.uleb128 .LEHE130-.LEHB130
 4218 039e 00       		.uleb128 0
 4219 039f 00       		.uleb128 0
 4220              	.LLSDACSE1351:
 4221 03a0 01       		.byte	0x1
 4222 03a1 00       		.byte	0
 4223 03a2 00       		.byte	0
 4224 03a3 7D       		.byte	0x7d
 4225              		.align 4
 4226 03a4 00000000 		.long	0
 4227              	
 4228              	.LLSDATT1351:
 4229              		.text
 4231 1e71 90       		.align 2
 4233              	_ZN12_GLOBAL__N_151XmlTestReporterFixtureOneFailureAndOneSuccessHelperC2ERKN8UnitTest11TestDetailsE
 4234              	.LFB1353:
 134:TestXmlTestReporter.cpp **** 
 135:TestXmlTestReporter.cpp **** TEST_FIXTURE(XmlTestReporterFixture, OneFailureAndOneSuccess)
 4235              		.loc 3 135 0
 4236              		.cfi_startproc
 4237 1e72 55       		pushq	%rbp
 4238              		.cfi_def_cfa_offset 16
 4239              		.cfi_offset 6, -16
 4240 1e73 4889E5   		movq	%rsp, %rbp
 4241              		.cfi_def_cfa_register 6
 4242 1e76 4883EC10 		subq	$16, %rsp
 4243 1e7a 48897DF8 		movq	%rdi, -8(%rbp)
 4244 1e7e 488975F0 		movq	%rsi, -16(%rbp)
 4245              	.LBB108:
 4246              		.loc 3 135 0
 4247 1e82 488B45F8 		movq	-8(%rbp), %rax
 4248 1e86 4889C7   		movq	%rax, %rdi
 4249 1e89 E872E1FF 		call	_ZN12_GLOBAL__N_122XmlTestReporterFixtureC2Ev
 4249      FF
 4250 1e8e 488B45F8 		movq	-8(%rbp), %rax
 4251 1e92 488B55F0 		movq	-16(%rbp), %rdx
 4252 1e96 48899088 		movq	%rdx, 392(%rax)
 4252      010000
 4253              	.LBE108:
 4254 1e9d C9       		leave
 4255              		.cfi_def_cfa 7, 8
 4256 1e9e C3       		ret
 4257              		.cfi_endproc
 4258              	.LFE1353:
 4260              		.set	_ZN12_GLOBAL__N_151XmlTestReporterFixtureOneFailureAndOneSuccessHelperC1ERKN8UnitTest11TestDe
 4261              		.section	.rodata
 4262              	.LC33:
 4263 068c 4F6E6546 		.string	"OneFailureAndOneSuccess"
 4263      61696C75 
 4263      7265416E 
 4263      644F6E65 
 4263      53756363 
 4264              		.text
 4265 1e9f 90       		.align 2
 4267              	_ZN12_GLOBAL__N_149TestXmlTestReporterFixtureOneFailureAndOneSuccessC2Ev:
 4268              	.LFB1356:
 4269              		.loc 3 135 0
 4270              		.cfi_startproc
 4271 1ea0 55       		pushq	%rbp
 4272              		.cfi_def_cfa_offset 16
 4273              		.cfi_offset 6, -16
 4274 1ea1 4889E5   		movq	%rsp, %rbp
 4275              		.cfi_def_cfa_register 6
 4276 1ea4 4883EC10 		subq	$16, %rsp
 4277 1ea8 48897DF8 		movq	%rdi, -8(%rbp)
 4278              	.LBB109:
 4279              		.loc 3 135 0
 4280 1eac E8000000 		call	_ZN13UnitTestSuite12GetSuiteNameEv
 4280      00
 4281 1eb1 4889C2   		movq	%rax, %rdx
 4282 1eb4 488B45F8 		movq	-8(%rbp), %rax
 4283 1eb8 41B88700 		movl	$135, %r8d
 4283      0000
 4284 1ebe B9000000 		movl	$.LC1, %ecx
 4284      00
 4285 1ec3 BE000000 		movl	$.LC33, %esi
 4285      00
 4286 1ec8 4889C7   		movq	%rax, %rdi
 4287 1ecb E8000000 		call	_ZN8UnitTest4TestC2EPKcS2_S2_i
 4287      00
 4288 1ed0 488B45F8 		movq	-8(%rbp), %rax
 4289 1ed4 48C70000 		movq	$_ZTVN12_GLOBAL__N_149TestXmlTestReporterFixtureOneFailureAndOneSuccessE+16, (%rax)
 4289      000000
 4290              	.LBE109:
 4291 1edb C9       		leave
 4292              		.cfi_def_cfa 7, 8
 4293 1edc C3       		ret
 4294              		.cfi_endproc
 4295              	.LFE1356:
 4297              		.set	_ZN12_GLOBAL__N_149TestXmlTestReporterFixtureOneFailureAndOneSuccessC1Ev,_ZN12_GLOBAL__N_149T
 4298              		.local	_ZN12_GLOBAL__N_157testXmlTestReporterFixtureOneFailureAndOneSuccessInstanceE
 4299              		.comm	_ZN12_GLOBAL__N_157testXmlTestReporterFixtureOneFailureAndOneSuccessInstanceE,56,32
 4300              		.local	_ZN12_GLOBAL__N_150adderXmlTestReporterFixtureOneFailureAndOneSuccessE
 4301              		.comm	_ZN12_GLOBAL__N_150adderXmlTestReporterFixtureOneFailureAndOneSuccessE,1,1
 4302 1edd 90       		.align 2
 4304              	_ZN12_GLOBAL__N_151XmlTestReporterFixtureOneFailureAndOneSuccessHelperD2Ev:
 4305              	.LFB1360:
 4306              		.loc 3 135 0
 4307              		.cfi_startproc
 4308 1ede 55       		pushq	%rbp
 4309              		.cfi_def_cfa_offset 16
 4310              		.cfi_offset 6, -16
 4311 1edf 4889E5   		movq	%rsp, %rbp
 4312              		.cfi_def_cfa_register 6
 4313 1ee2 4883EC10 		subq	$16, %rsp
 4314 1ee6 48897DF8 		movq	%rdi, -8(%rbp)
 4315              	.LBB110:
 4316              		.loc 3 135 0
 4317 1eea 488B45F8 		movq	-8(%rbp), %rax
 4318 1eee 4889C7   		movq	%rax, %rdi
 4319 1ef1 E866E1FF 		call	_ZN12_GLOBAL__N_122XmlTestReporterFixtureD2Ev
 4319      FF
 4320              	.LBE110:
 4321 1ef6 C9       		leave
 4322              		.cfi_def_cfa 7, 8
 4323 1ef7 C3       		ret
 4324              		.cfi_endproc
 4325              	.LFE1360:
 4327              		.set	_ZN12_GLOBAL__N_151XmlTestReporterFixtureOneFailureAndOneSuccessHelperD1Ev,_ZN12_GLOBAL__N_15
 4328              		.align 2
 4330              	_ZNK12_GLOBAL__N_149TestXmlTestReporterFixtureOneFailureAndOneSuccess7RunImplEv:
 4331              	.LFB1358:
 4332              		.loc 3 135 0
 4333              		.cfi_startproc
 4334              		.cfi_personality 0x3,__gxx_personality_v0
 4335              		.cfi_lsda 0x3,.LLSDA1358
 4336 1ef8 55       		pushq	%rbp
 4337              		.cfi_def_cfa_offset 16
 4338              		.cfi_offset 6, -16
 4339 1ef9 4889E5   		movq	%rsp, %rbp
 4340              		.cfi_def_cfa_register 6
 4341 1efc 4154     		pushq	%r12
 4342 1efe 53       		pushq	%rbx
 4343 1eff 4881ECC0 		subq	$448, %rsp
 4343      010000
 4344              		.cfi_offset 12, -24
 4345              		.cfi_offset 3, -32
 4346 1f06 4889BD38 		movq	%rdi, -456(%rbp)
 4346      FEFFFF
 4347              	.LBB111:
 4348              		.loc 3 135 0
 4349 1f0d C6854FFE 		movb	$0, -433(%rbp)
 4349      FFFF00
 4350              	.LBB112:
 4351 1f14 488B8538 		movq	-456(%rbp), %rax
 4351      FEFFFF
 4352 1f1b 488D5008 		leaq	8(%rax), %rdx
 4353 1f1f 488D8560 		leaq	-416(%rbp), %rax
 4353      FEFFFF
 4354 1f26 4889D6   		movq	%rdx, %rsi
 4355 1f29 4889C7   		movq	%rax, %rdi
 4356              	.LEHB131:
 4357 1f2c E841FFFF 		call	_ZN12_GLOBAL__N_151XmlTestReporterFixtureOneFailureAndOneSuccessHelperC1ERKN8UnitTest11TestDe
 4357      FF
 4358              	.LEHE131:
 4359              		.loc 3 135 0 is_stmt 0 discriminator 1
 4360 1f31 C6854FFE 		movb	$1, -433(%rbp)
 4360      FFFF01
 4361 1f38 488B8538 		movq	-456(%rbp), %rax
 4361      FEFFFF
 4362 1f3f 488D5008 		leaq	8(%rax), %rdx
 4363 1f43 488D8560 		leaq	-416(%rbp), %rax
 4363      FEFFFF
 4364 1f4a 4889D6   		movq	%rdx, %rsi
 4365 1f4d 4889C7   		movq	%rax, %rdi
 4366              	.LEHB132:
 4367 1f50 E8611900 		call	_ZN8UnitTest11ExecuteTestIN12_GLOBAL__N_151XmlTestReporterFixtureOneFailureAndOneSuccessHelpe
 4367      00
 4368              	.LEHE132:
 4369 1f55 488D8560 		leaq	-416(%rbp), %rax
 4369      FEFFFF
 4370 1f5c 4889C7   		movq	%rax, %rdi
 4371              	.LEHB133:
 4372 1f5f E87AFFFF 		call	_ZN12_GLOBAL__N_151XmlTestReporterFixtureOneFailureAndOneSuccessHelperD1Ev
 4372      FF
 4373              	.LEHE133:
 4374              	.LBE112:
 4375              	.LBE111:
 4376              		.loc 3 135 0
 4377 1f64 E9640200 		jmp	.L252
 4377      00
 4378              	.L246:
 4379 1f69 4989C4   		movq	%rax, %r12
 4380 1f6c 4889D3   		movq	%rdx, %rbx
 4381              	.LBB120:
 4382              	.LBB113:
 4383 1f6f 488D8560 		leaq	-416(%rbp), %rax
 4383      FEFFFF
 4384 1f76 4889C7   		movq	%rax, %rdi
 4385 1f79 E860FFFF 		call	_ZN12_GLOBAL__N_151XmlTestReporterFixtureOneFailureAndOneSuccessHelperD1Ev
 4385      FF
 4386 1f7e 4C89E0   		movq	%r12, %rax
 4387 1f81 4889DA   		movq	%rbx, %rdx
 4388 1f84 EB00     		jmp	.L234
 4389              	.L245:
 4390              	.L234:
 4391 1f86 4883FA01 		cmpq	$1, %rdx
 4392 1f8a 745C     		je	.L236
 4393 1f8c 4883FA02 		cmpq	$2, %rdx
 4394 1f90 0F84F400 		je	.L237
 4394      0000
 4395 1f96 E9980100 		jmp	.L251
 4395      00
 4396              	.L247:
 4397 1f9b 4889C3   		movq	%rax, %rbx
 4398              	.LBE113:
 4399              	.LBB114:
 4400 1f9e E8000000 		call	__cxa_end_catch
 4400      00
 4401 1fa3 4889D8   		movq	%rbx, %rax
 4402 1fa6 4889C7   		movq	%rax, %rdi
 4403              	.LEHB134:
 4404 1fa9 E8000000 		call	_Unwind_Resume
 4404      00
 4405              	.LEHE134:
 4406              	.L248:
 4407 1fae 4889C3   		movq	%rax, %rbx
 4408              	.LBE114:
 4409              	.LBB115:
 4410              	.LBB116:
 4411 1fb1 488D8560 		leaq	-416(%rbp), %rax
 4411      FEFFFF
 4412 1fb8 4889C7   		movq	%rax, %rdi
 4413 1fbb E8000000 		call	_ZN8UnitTest15MemoryOutStreamD1Ev
 4413      00
 4414 1fc0 EB03     		jmp	.L240
 4415              	.L249:
 4416 1fc2 4889C3   		movq	%rax, %rbx
 4417              	.L240:
 4418              	.LBE116:
 4419 1fc5 E8000000 		call	__cxa_end_catch
 4419      00
 4420 1fca 4889D8   		movq	%rbx, %rax
 4421 1fcd 4889C7   		movq	%rax, %rdi
 4422              	.LEHB135:
 4423 1fd0 E8000000 		call	_Unwind_Resume
 4423      00
 4424              	.LEHE135:
 4425              	.L250:
 4426 1fd5 4889C3   		movq	%rax, %rbx
 4427              	.LBE115:
 4428 1fd8 E8000000 		call	__cxa_end_catch
 4428      00
 4429 1fdd 4889D8   		movq	%rbx, %rax
 4430 1fe0 4889C7   		movq	%rax, %rdi
 4431              	.LEHB136:
 4432 1fe3 E8000000 		call	_Unwind_Resume
 4432      00
 4433              	.LEHE136:
 4434              	.L236:
 4435              	.LBB118:
 4436 1fe8 4889C7   		movq	%rax, %rdi
 4437 1feb E8000000 		call	__cxa_begin_catch
 4437      00
 4438 1ff0 48898550 		movq	%rax, -432(%rbp)
 4438      FEFFFF
 4439 1ff7 488B8550 		movq	-432(%rbp), %rax
 4439      FEFFFF
 4440 1ffe 488B00   		movq	(%rax), %rax
 4441 2001 4883C010 		addq	$16, %rax
 4442 2005 488B00   		movq	(%rax), %rax
 4443 2008 488B9550 		movq	-432(%rbp), %rdx
 4443      FEFFFF
 4444 200f 4889D7   		movq	%rdx, %rdi
 4445 2012 FFD0     		call	*%rax
 4446 2014 4889C3   		movq	%rax, %rbx
 4447 2017 488B8550 		movq	-432(%rbp), %rax
 4447      FEFFFF
 4448 201e 4889C7   		movq	%rax, %rdi
 4449              	.LEHB137:
 4450 2021 E8000000 		call	_ZNK8UnitTest15AssertException10LineNumberEv
 4450      00
 4451 2026 4189C4   		movl	%eax, %r12d
 4452 2029 488B8550 		movq	-432(%rbp), %rax
 4452      FEFFFF
 4453 2030 4889C7   		movq	%rax, %rdi
 4454 2033 E8000000 		call	_ZNK8UnitTest15AssertException8FilenameEv
 4454      00
 4455              		.loc 3 135 0 discriminator 1
 4456 2038 4889C1   		movq	%rax, %rcx
 4457 203b 488B8538 		movq	-456(%rbp), %rax
 4457      FEFFFF
 4458 2042 488B5008 		movq	8(%rax), %rdx
 4459 2046 488B8538 		movq	-456(%rbp), %rax
 4459      FEFFFF
 4460 204d 488B7010 		movq	16(%rax), %rsi
 4461 2051 488D8560 		leaq	-416(%rbp), %rax
 4461      FEFFFF
 4462 2058 4589E0   		movl	%r12d, %r8d
 4463 205b 4889C7   		movq	%rax, %rdi
 4464 205e E8000000 		call	_ZN8UnitTest11TestDetailsC1EPKcS2_S2_i
 4464      00
 4465              		.loc 3 135 0 discriminator 3
 4466 2063 E8000000 		call	_ZN8UnitTest11CurrentTest7ResultsEv
 4466      00
 4467 2068 488B00   		movq	(%rax), %rax
 4468 206b 488D8D60 		leaq	-416(%rbp), %rcx
 4468      FEFFFF
 4469 2072 4889DA   		movq	%rbx, %rdx
 4470 2075 4889CE   		movq	%rcx, %rsi
 4471 2078 4889C7   		movq	%rax, %rdi
 4472 207b E8000000 		call	_ZN8UnitTest11TestResults13OnTestFailureERKNS_11TestDetailsEPKc
 4472      00
 4473              	.LEHE137:
 4474              		.loc 3 135 0 discriminator 1
 4475 2080 E8000000 		call	__cxa_end_catch
 4475      00
 4476              	.LBE118:
 4477              	.LBE120:
 4478 2085 E9430100 		jmp	.L252
 4478      00
 4479              	.L237:
 4480              	.LBB121:
 4481              	.LBB119:
 4482              		.loc 3 135 0
 4483 208a 4889C7   		movq	%rax, %rdi
 4484 208d E8000000 		call	__cxa_begin_catch
 4484      00
 4485 2092 48898558 		movq	%rax, -424(%rbp)
 4485      FEFFFF
 4486              	.LBB117:
 4487 2099 488D8560 		leaq	-416(%rbp), %rax
 4487      FEFFFF
 4488 20a0 4889C7   		movq	%rax, %rdi
 4489              	.LEHB138:
 4490 20a3 E8000000 		call	_ZN8UnitTest15MemoryOutStreamC1Ev
 4490      00
 4491              	.LEHE138:
 4492              		.loc 3 135 0 discriminator 1
 4493 20a8 488B8558 		movq	-424(%rbp), %rax
 4493      FEFFFF
 4494 20af 488B00   		movq	(%rax), %rax
 4495 20b2 4883C010 		addq	$16, %rax
 4496 20b6 488B00   		movq	(%rax), %rax
 4497 20b9 488B9558 		movq	-424(%rbp), %rdx
 4497      FEFFFF
 4498 20c0 4889D7   		movq	%rdx, %rdi
 4499 20c3 FFD0     		call	*%rax
 4500 20c5 4889C3   		movq	%rax, %rbx
 4501 20c8 488D8560 		leaq	-416(%rbp), %rax
 4501      FEFFFF
 4502 20cf BE000000 		movl	$.LC3, %esi
 4502      00
 4503 20d4 4889C7   		movq	%rax, %rdi
 4504              	.LEHB139:
 4505 20d7 E8000000 		call	_ZStlsISt11char_traitsIcEERSt13basic_ostreamIcT_ES5_PKc
 4505      00
 4506 20dc 4889DE   		movq	%rbx, %rsi
 4507 20df 4889C7   		movq	%rax, %rdi
 4508 20e2 E8000000 		call	_ZStlsISt11char_traitsIcEERSt13basic_ostreamIcT_ES5_PKc
 4508      00
 4509 20e7 488D8560 		leaq	-416(%rbp), %rax
 4509      FEFFFF
 4510 20ee 4889C7   		movq	%rax, %rdi
 4511 20f1 E8000000 		call	_ZNK8UnitTest15MemoryOutStream7GetTextEv
 4511      00
 4512 20f6 4889C3   		movq	%rax, %rbx
 4513 20f9 488B8538 		movq	-456(%rbp), %rax
 4513      FEFFFF
 4514 2100 4C8D6008 		leaq	8(%rax), %r12
 4515 2104 E8000000 		call	_ZN8UnitTest11CurrentTest7ResultsEv
 4515      00
 4516 2109 488B00   		movq	(%rax), %rax
 4517 210c 4889DA   		movq	%rbx, %rdx
 4518 210f 4C89E6   		movq	%r12, %rsi
 4519 2112 4889C7   		movq	%rax, %rdi
 4520 2115 E8000000 		call	_ZN8UnitTest11TestResults13OnTestFailureERKNS_11TestDetailsEPKc
 4520      00
 4521              	.LEHE139:
 4522 211a 488D8560 		leaq	-416(%rbp), %rax
 4522      FEFFFF
 4523 2121 4889C7   		movq	%rax, %rdi
 4524              	.LEHB140:
 4525 2124 E8000000 		call	_ZN8UnitTest15MemoryOutStreamD1Ev
 4525      00
 4526              	.LEHE140:
 4527              	.LBE117:
 4528              		.loc 3 135 0
 4529 2129 E8000000 		call	__cxa_end_catch
 4529      00
 4530              	.LBE119:
 4531              	.LBE121:
 4532 212e E99A0000 		jmp	.L252
 4532      00
 4533              	.L251:
 4534              	.LBB122:
 4535 2133 4889C7   		movq	%rax, %rdi
 4536 2136 E8000000 		call	__cxa_begin_catch
 4536      00
 4537 213b 80BD4FFE 		cmpb	$0, -433(%rbp)
 4537      FFFF00
 4538 2142 7443     		je	.L243
 4539              		.loc 3 135 0 discriminator 1
 4540 2144 488B8538 		movq	-456(%rbp), %rax
 4540      FEFFFF
 4541 214b 488D4808 		leaq	8(%rax), %rcx
 4542 214f 488D8560 		leaq	-416(%rbp), %rax
 4542      FEFFFF
 4543 2156 BA870000 		movl	$135, %edx
 4543      00
 4544 215b 4889CE   		movq	%rcx, %rsi
 4545 215e 4889C7   		movq	%rax, %rdi
 4546              	.LEHB141:
 4547 2161 E8000000 		call	_ZN8UnitTest11TestDetailsC1ERKS0_i
 4547      00
 4548 2166 E8000000 		call	_ZN8UnitTest11CurrentTest7ResultsEv
 4548      00
 4549 216b 488B00   		movq	(%rax), %rax
 4550 216e 488D8D60 		leaq	-416(%rbp), %rcx
 4550      FEFFFF
 4551 2175 BA000000 		movl	$.LC4, %edx
 4551      00
 4552 217a 4889CE   		movq	%rcx, %rsi
 4553 217d 4889C7   		movq	%rax, %rdi
 4554 2180 E8000000 		call	_ZN8UnitTest11TestResults13OnTestFailureERKNS_11TestDetailsEPKc
 4554      00
 4555 2185 EB41     		jmp	.L244
 4556              	.L243:
 4557              		.loc 3 135 0 discriminator 2
 4558 2187 488B8538 		movq	-456(%rbp), %rax
 4558      FEFFFF
 4559 218e 488D4808 		leaq	8(%rax), %rcx
 4560 2192 488D8560 		leaq	-416(%rbp), %rax
 4560      FEFFFF
 4561 2199 BA870000 		movl	$135, %edx
 4561      00
 4562 219e 4889CE   		movq	%rcx, %rsi
 4563 21a1 4889C7   		movq	%rax, %rdi
 4564 21a4 E8000000 		call	_ZN8UnitTest11TestDetailsC1ERKS0_i
 4564      00
 4565              		.loc 3 135 0 discriminator 1
 4566 21a9 E8000000 		call	_ZN8UnitTest11CurrentTest7ResultsEv
 4566      00
 4567 21ae 488B00   		movq	(%rax), %rax
 4568 21b1 488D8D60 		leaq	-416(%rbp), %rcx
 4568      FEFFFF
 4569 21b8 BA000000 		movl	$.LC5, %edx
 4569      00
 4570 21bd 4889CE   		movq	%rcx, %rsi
 4571 21c0 4889C7   		movq	%rax, %rdi
 4572 21c3 E8000000 		call	_ZN8UnitTest11TestResults13OnTestFailureERKNS_11TestDetailsEPKc
 4572      00
 4573              	.LEHE141:
 4574              	.L244:
 4575              	.LEHB142:
 4576 21c8 E8000000 		call	__cxa_end_catch
 4576      00
 4577              	.LEHE142:
 4578              	.L252:
 4579              	.LBE122:
 4580              		.loc 3 135 0
 4581 21cd 90       		nop
 4582 21ce 4881C4C0 		addq	$448, %rsp
 4582      010000
 4583 21d5 5B       		popq	%rbx
 4584 21d6 415C     		popq	%r12
 4585 21d8 5D       		popq	%rbp
 4586              		.cfi_def_cfa 7, 8
 4587 21d9 C3       		ret
 4588              		.cfi_endproc
 4589              	.LFE1358:
 4590              		.section	.gcc_except_table
 4591              		.align 4
 4592              	.LLSDA1358:
 4593 03a8 FF       		.byte	0xff
 4594 03a9 03       		.byte	0x3
 4595 03aa 59       		.uleb128 .LLSDATT1358-.LLSDATTD1358
 4596              	.LLSDATTD1358:
 4597 03ab 01       		.byte	0x1
 4598 03ac 40       		.uleb128 .LLSDACSE1358-.LLSDACSB1358
 4599              	.LLSDACSB1358:
 4600 03ad 34       		.uleb128 .LEHB131-.LFB1358
 4601 03ae 05       		.uleb128 .LEHE131-.LEHB131
 4602 03af 8E01     		.uleb128 .L245-.LFB1358
 4603 03b1 05       		.uleb128 0x5
 4604 03b2 58       		.uleb128 .LEHB132-.LFB1358
 4605 03b3 05       		.uleb128 .LEHE132-.LEHB132
 4606 03b4 71       		.uleb128 .L246-.LFB1358
 4607 03b5 07       		.uleb128 0x7
 4608 03b6 67       		.uleb128 .LEHB133-.LFB1358
 4609 03b7 05       		.uleb128 .LEHE133-.LEHB133
 4610 03b8 8E01     		.uleb128 .L245-.LFB1358
 4611 03ba 05       		.uleb128 0x5
 4612 03bb B101     		.uleb128 .LEHB134-.LFB1358
 4613 03bd 05       		.uleb128 .LEHE134-.LEHB134
 4614 03be 00       		.uleb128 0
 4615 03bf 00       		.uleb128 0
 4616 03c0 D801     		.uleb128 .LEHB135-.LFB1358
 4617 03c2 05       		.uleb128 .LEHE135-.LEHB135
 4618 03c3 00       		.uleb128 0
 4619 03c4 00       		.uleb128 0
 4620 03c5 EB01     		.uleb128 .LEHB136-.LFB1358
 4621 03c7 05       		.uleb128 .LEHE136-.LEHB136
 4622 03c8 00       		.uleb128 0
 4623 03c9 00       		.uleb128 0
 4624 03ca A902     		.uleb128 .LEHB137-.LFB1358
 4625 03cc 5F       		.uleb128 .LEHE137-.LEHB137
 4626 03cd A301     		.uleb128 .L247-.LFB1358
 4627 03cf 00       		.uleb128 0
 4628 03d0 AB03     		.uleb128 .LEHB138-.LFB1358
 4629 03d2 05       		.uleb128 .LEHE138-.LEHB138
 4630 03d3 CA01     		.uleb128 .L249-.LFB1358
 4631 03d5 00       		.uleb128 0
 4632 03d6 DF03     		.uleb128 .LEHB139-.LFB1358
 4633 03d8 43       		.uleb128 .LEHE139-.LEHB139
 4634 03d9 B601     		.uleb128 .L248-.LFB1358
 4635 03db 00       		.uleb128 0
 4636 03dc AC04     		.uleb128 .LEHB140-.LFB1358
 4637 03de 05       		.uleb128 .LEHE140-.LEHB140
 4638 03df CA01     		.uleb128 .L249-.LFB1358
 4639 03e1 00       		.uleb128 0
 4640 03e2 E904     		.uleb128 .LEHB141-.LFB1358
 4641 03e4 67       		.uleb128 .LEHE141-.LEHB141
 4642 03e5 DD01     		.uleb128 .L250-.LFB1358
 4643 03e7 00       		.uleb128 0
 4644 03e8 D005     		.uleb128 .LEHB142-.LFB1358
 4645 03ea 05       		.uleb128 .LEHE142-.LEHB142
 4646 03eb 00       		.uleb128 0
 4647 03ec 00       		.uleb128 0
 4648              	.LLSDACSE1358:
 4649 03ed 03       		.byte	0x3
 4650 03ee 00       		.byte	0
 4651 03ef 02       		.byte	0x2
 4652 03f0 7D       		.byte	0x7d
 4653 03f1 01       		.byte	0x1
 4654 03f2 7D       		.byte	0x7d
 4655 03f3 00       		.byte	0
 4656 03f4 7D       		.byte	0x7d
 4657 03f5 000000   		.align 4
 4658 03f8 00000000 		.long	0
 4659              	
 4660 03fc 00000000 		.long	_ZTISt9exception
 4661 0400 00000000 		.long	_ZTIN8UnitTest15AssertExceptionE
 4662              	.LLSDATT1358:
 4663              		.text
 4665              		.section	.rodata
 4666              	.LC34:
 4667 06a4 6661696C 		.string	"fail.h"
 4667      2E6800
 4668              	.LC35:
 4669 06ab 4661696C 		.string	"FailedTest"
 4669      65645465 
 4669      737400
 4670              	.LC36:
 4671 06b6 65787065 		.string	"expected 1 but was 2"
 4671      63746564 
 4671      20312062 
 4671      75742077 
 4671      61732032 
 4672              	.LC37:
 4673 06cb 53756363 		.string	"SucceededTest"
 4673      65656465 
 4673      64546573 
 4673      7400
 4674 06d9 00000000 		.align 8
 4674      000000
 4675              	.LC39:
 4676 06e0 3C3F786D 		.ascii	"<?xml versio"
 4676      6C207665 
 4676      7273696F 
 4677 06ec 6E3D2231 		.string	"n=\"1.0\"?><unittest-results tests=\"2\" failedtests=\"1\" failures=\"1\" time=\"1.1\"><t
 4677      2E30223F 
 4677      3E3C756E 
 4677      69747465 
 4677      73742D72 
 4678              		.text
 4679              		.align 2
 4681              	_ZN12_GLOBAL__N_151XmlTestReporterFixtureOneFailureAndOneSuccessHelper7RunImplEv:
 4682              	.LFB1362:
 136:TestXmlTestReporter.cpp **** {
 4683              		.loc 3 136 0 is_stmt 1
 4684              		.cfi_startproc
 4685              		.cfi_personality 0x3,__gxx_personality_v0
 4686              		.cfi_lsda 0x3,.LLSDA1362
 4687 21da 55       		pushq	%rbp
 4688              		.cfi_def_cfa_offset 16
 4689              		.cfi_offset 6, -16
 4690 21db 4889E5   		movq	%rsp, %rbp
 4691              		.cfi_def_cfa_register 6
 4692 21de 53       		pushq	%rbx
 4693 21df 4881EC88 		subq	$136, %rsp
 4693      000000
 4694              		.cfi_offset 3, -24
 4695 21e6 4889BD78 		movq	%rdi, -136(%rbp)
 4695      FFFFFF
 4696              	.LBB123:
 137:TestXmlTestReporter.cpp ****     TestDetails const failedDetails("FailedTest", "suite", "fail.h", 1);
 4697              		.loc 3 137 0
 4698 21ed 488D4590 		leaq	-112(%rbp), %rax
 4699 21f1 41B80100 		movl	$1, %r8d
 4699      0000
 4700 21f7 B9000000 		movl	$.LC34, %ecx
 4700      00
 4701 21fc BA000000 		movl	$.LC7, %edx
 4701      00
 4702 2201 BE000000 		movl	$.LC35, %esi
 4702      00
 4703 2206 4889C7   		movq	%rax, %rdi
 4704              	.LEHB143:
 4705 2209 E8000000 		call	_ZN8UnitTest11TestDetailsC1EPKcS2_S2_i
 4705      00
 138:TestXmlTestReporter.cpp ****     reporter.ReportTestStart(failedDetails);
 4706              		.loc 3 138 0
 4707 220e 488B8578 		movq	-136(%rbp), %rax
 4707      FFFFFF
 4708 2215 488D9060 		leaq	352(%rax), %rdx
 4708      010000
 4709 221c 488D4590 		leaq	-112(%rbp), %rax
 4710 2220 4889C6   		movq	%rax, %rsi
 4711 2223 4889D7   		movq	%rdx, %rdi
 4712 2226 E8000000 		call	_ZN8UnitTest20DeferredTestReporter15ReportTestStartERKNS_11TestDetailsE
 4712      00
 139:TestXmlTestReporter.cpp ****     reporter.ReportFailure(failedDetails, "expected 1 but was 2");
 4713              		.loc 3 139 0
 4714 222b 488B8578 		movq	-136(%rbp), %rax
 4714      FFFFFF
 4715 2232 488D8860 		leaq	352(%rax), %rcx
 4715      010000
 4716 2239 488D4590 		leaq	-112(%rbp), %rax
 4717 223d BA000000 		movl	$.LC36, %edx
 4717      00
 4718 2242 4889C6   		movq	%rax, %rsi
 4719 2245 4889CF   		movq	%rcx, %rdi
 4720 2248 E8000000 		call	_ZN8UnitTest20DeferredTestReporter13ReportFailureERKNS_11TestDetailsEPKc
 4720      00
 140:TestXmlTestReporter.cpp ****     reporter.ReportTestFinish(failedDetails, 0.1f);
 4721              		.loc 3 140 0
 4722 224d 488B8578 		movq	-136(%rbp), %rax
 4722      FFFFFF
 4723 2254 488D9060 		leaq	352(%rax), %rdx
 4723      010000
 4724 225b 488D4590 		leaq	-112(%rbp), %rax
 4725 225f F30F1005 		movss	.LC10(%rip), %xmm0
 4725      00000000 
 4726 2267 4889C6   		movq	%rax, %rsi
 4727 226a 4889D7   		movq	%rdx, %rdi
 4728 226d E8000000 		call	_ZN8UnitTest20DeferredTestReporter16ReportTestFinishERKNS_11TestDetailsEf
 4728      00
 141:TestXmlTestReporter.cpp **** 
 142:TestXmlTestReporter.cpp ****     TestDetails const succeededDetails("SucceededTest", "suite", "", 0);
 4729              		.loc 3 142 0
 4730 2272 488D45B0 		leaq	-80(%rbp), %rax
 4731 2276 41B80000 		movl	$0, %r8d
 4731      0000
 4732 227c B9000000 		movl	$.LC14, %ecx
 4732      00
 4733 2281 BA000000 		movl	$.LC7, %edx
 4733      00
 4734 2286 BE000000 		movl	$.LC37, %esi
 4734      00
 4735 228b 4889C7   		movq	%rax, %rdi
 4736 228e E8000000 		call	_ZN8UnitTest11TestDetailsC1EPKcS2_S2_i
 4736      00
 143:TestXmlTestReporter.cpp ****     reporter.ReportTestStart(succeededDetails);
 4737              		.loc 3 143 0
 4738 2293 488B8578 		movq	-136(%rbp), %rax
 4738      FFFFFF
 4739 229a 488D9060 		leaq	352(%rax), %rdx
 4739      010000
 4740 22a1 488D45B0 		leaq	-80(%rbp), %rax
 4741 22a5 4889C6   		movq	%rax, %rsi
 4742 22a8 4889D7   		movq	%rdx, %rdi
 4743 22ab E8000000 		call	_ZN8UnitTest20DeferredTestReporter15ReportTestStartERKNS_11TestDetailsE
 4743      00
 144:TestXmlTestReporter.cpp ****     reporter.ReportTestFinish(succeededDetails, 1.0f);
 4744              		.loc 3 144 0
 4745 22b0 488B8578 		movq	-136(%rbp), %rax
 4745      FFFFFF
 4746 22b7 488D9060 		leaq	352(%rax), %rdx
 4746      010000
 4747 22be 488D45B0 		leaq	-80(%rbp), %rax
 4748 22c2 F30F1005 		movss	.LC16(%rip), %xmm0
 4748      00000000 
 4749 22ca 4889C6   		movq	%rax, %rsi
 4750 22cd 4889D7   		movq	%rdx, %rdi
 4751 22d0 E8000000 		call	_ZN8UnitTest20DeferredTestReporter16ReportTestFinishERKNS_11TestDetailsEf
 4751      00
 145:TestXmlTestReporter.cpp ****     reporter.ReportSummary(2, 1, 1, 1.1f);
 4752              		.loc 3 145 0
 4753 22d5 488B8578 		movq	-136(%rbp), %rax
 4753      FFFFFF
 4754 22dc 48056001 		addq	$352, %rax
 4754      0000
 4755 22e2 F30F1005 		movss	.LC38(%rip), %xmm0
 4755      00000000 
 4756 22ea B9010000 		movl	$1, %ecx
 4756      00
 4757 22ef BA010000 		movl	$1, %edx
 4757      00
 4758 22f4 BE020000 		movl	$2, %esi
 4758      00
 4759 22f9 4889C7   		movq	%rax, %rdi
 4760 22fc E8000000 		call	_ZN8UnitTest15XmlTestReporter13ReportSummaryEiiif
 4760      00
 4761              	.LEHE143:
 146:TestXmlTestReporter.cpp **** 
 147:TestXmlTestReporter.cpp ****     char const* expected =
 148:TestXmlTestReporter.cpp ****         "<?xml version=\"1.0\"?>"
 149:TestXmlTestReporter.cpp ****         "<unittest-results tests=\"2\" failedtests=\"1\" failures=\"1\" time=\"1.1\">"
 150:TestXmlTestReporter.cpp ****         "<test suite=\"suite\" name=\"FailedTest\" time=\"0.1\">"
 151:TestXmlTestReporter.cpp ****         "<failure message=\"fail.h(1) : expected 1 but was 2\"/>"
 152:TestXmlTestReporter.cpp ****         "</test>"
 153:TestXmlTestReporter.cpp ****         "<test suite=\"suite\" name=\"SucceededTest\" time=\"1\"/>"
 154:TestXmlTestReporter.cpp ****         "</unittest-results>";
 4762              		.loc 3 154 0
 4763 2301 48C74588 		movq	$.LC39, -120(%rbp)
 4763      00000000 
 4764              	.LEHB144:
 155:TestXmlTestReporter.cpp **** 
 156:TestXmlTestReporter.cpp ****     CHECK_EQUAL(expected, output.str());
 4765              		.loc 3 156 0
 4766 2309 E8000000 		call	_ZN8UnitTest11CurrentTest7DetailsEv
 4766      00
 4767 230e 488B08   		movq	(%rax), %rcx
 4768 2311 488D45D0 		leaq	-48(%rbp), %rax
 4769 2315 BA9C0000 		movl	$156, %edx
 4769      00
 4770 231a 4889CE   		movq	%rcx, %rsi
 4771 231d 4889C7   		movq	%rax, %rdi
 4772 2320 E8000000 		call	_ZN8UnitTest11TestDetailsC1ERKS0_i
 4772      00
 4773              		.loc 3 156 0 is_stmt 0 discriminator 1
 4774 2325 488B9578 		movq	-136(%rbp), %rdx
 4774      FFFFFF
 4775 232c 488D4580 		leaq	-128(%rbp), %rax
 4776 2330 4889D6   		movq	%rdx, %rsi
 4777 2333 4889C7   		movq	%rax, %rdi
 4778 2336 E8000000 		call	_ZNKSt19basic_ostringstreamIcSt11char_traitsIcESaIcEE3strEv
 4778      00
 4779              	.LEHE144:
 4780              	.LEHB145:
 4781              		.loc 3 156 0 discriminator 2
 4782 233b E8000000 		call	_ZN8UnitTest11CurrentTest7ResultsEv
 4782      00
 4783 2340 488B00   		movq	(%rax), %rax
 4784 2343 488D4DD0 		leaq	-48(%rbp), %rcx
 4785 2347 488D5580 		leaq	-128(%rbp), %rdx
 4786 234b 488D7588 		leaq	-120(%rbp), %rsi
 4787 234f 4889C7   		movq	%rax, %rdi
 4788 2352 E8000000 		call	_ZN8UnitTest10CheckEqualIPKcSsEEvRNS_11TestResultsERKT_RKT0_RKNS_11TestDetailsE
 4788      00
 4789              	.LEHE145:
 4790              		.loc 3 156 0 discriminator 1
 4791 2357 488D4580 		leaq	-128(%rbp), %rax
 4792 235b 4889C7   		movq	%rax, %rdi
 4793              	.LEHB146:
 4794 235e E8000000 		call	_ZNSsD1Ev
 4794      00
 4795              	.LEHE146:
 4796              	.LBE123:
 157:TestXmlTestReporter.cpp **** }
 4797              		.loc 3 157 0 is_stmt 1
 4798 2363 EB6C     		jmp	.L261
 4799              	.L259:
 4800 2365 4889C3   		movq	%rax, %rbx
 4801              	.LBB124:
 156:TestXmlTestReporter.cpp **** }
 4802              		.loc 3 156 0
 4803 2368 488D4580 		leaq	-128(%rbp), %rax
 4804 236c 4889C7   		movq	%rax, %rdi
 4805 236f E8000000 		call	_ZNSsD1Ev
 4805      00
 4806 2374 4889D8   		movq	%rbx, %rax
 4807 2377 EB13     		jmp	.L255
 4808              	.L260:
 4809 2379 4889C3   		movq	%rax, %rbx
 4810 237c E8000000 		call	__cxa_end_catch
 4810      00
 4811 2381 4889D8   		movq	%rbx, %rax
 4812 2384 4889C7   		movq	%rax, %rdi
 4813              	.LEHB147:
 4814 2387 E8000000 		call	_Unwind_Resume
 4814      00
 4815              	.LEHE147:
 4816              	.L258:
 4817              	.L255:
 4818 238c 4889C7   		movq	%rax, %rdi
 4819 238f E8000000 		call	__cxa_begin_catch
 4819      00
 4820              	.LEHB148:
 4821 2394 E8000000 		call	_ZN8UnitTest11CurrentTest7DetailsEv
 4821      00
 4822 2399 488B08   		movq	(%rax), %rcx
 4823 239c 488D45D0 		leaq	-48(%rbp), %rax
 4824 23a0 BA9C0000 		movl	$156, %edx
 4824      00
 4825 23a5 4889CE   		movq	%rcx, %rsi
 4826 23a8 4889C7   		movq	%rax, %rdi
 4827 23ab E8000000 		call	_ZN8UnitTest11TestDetailsC1ERKS0_i
 4827      00
 156:TestXmlTestReporter.cpp **** }
 4828              		.loc 3 156 0 is_stmt 0 discriminator 1
 4829 23b0 E8000000 		call	_ZN8UnitTest11CurrentTest7ResultsEv
 4829      00
 4830 23b5 488B00   		movq	(%rax), %rax
 4831 23b8 488D4DD0 		leaq	-48(%rbp), %rcx
 4832 23bc BA000000 		movl	$.LC12, %edx
 4832      00
 4833 23c1 4889CE   		movq	%rcx, %rsi
 4834 23c4 4889C7   		movq	%rax, %rdi
 4835 23c7 E8000000 		call	_ZN8UnitTest11TestResults13OnTestFailureERKNS_11TestDetailsEPKc
 4835      00
 4836              	.LEHE148:
 4837              	.LEHB149:
 4838 23cc E8000000 		call	__cxa_end_catch
 4838      00
 4839              	.LEHE149:
 4840              	.L261:
 4841              	.LBE124:
 4842              		.loc 3 157 0 is_stmt 1
 4843 23d1 90       		nop
 4844 23d2 4881C488 		addq	$136, %rsp
 4844      000000
 4845 23d9 5B       		popq	%rbx
 4846 23da 5D       		popq	%rbp
 4847              		.cfi_def_cfa 7, 8
 4848 23db C3       		ret
 4849              		.cfi_endproc
 4850              	.LFE1362:
 4851              		.section	.gcc_except_table
 4852              		.align 4
 4853              	.LLSDA1362:
 4854 0404 FF       		.byte	0xff
 4855 0405 03       		.byte	0x3
 4856 0406 31       		.uleb128 .LLSDATT1362-.LLSDATTD1362
 4857              	.LLSDATTD1362:
 4858 0407 01       		.byte	0x1
 4859 0408 27       		.uleb128 .LLSDACSE1362-.LLSDACSB1362
 4860              	.LLSDACSB1362:
 4861 0409 2F       		.uleb128 .LEHB143-.LFB1362
 4862 040a F801     		.uleb128 .LEHE143-.LEHB143
 4863 040c 00       		.uleb128 0
 4864 040d 00       		.uleb128 0
 4865 040e AF02     		.uleb128 .LEHB144-.LFB1362
 4866 0410 32       		.uleb128 .LEHE144-.LEHB144
 4867 0411 B203     		.uleb128 .L258-.LFB1362
 4868 0413 01       		.uleb128 0x1
 4869 0414 E102     		.uleb128 .LEHB145-.LFB1362
 4870 0416 1C       		.uleb128 .LEHE145-.LEHB145
 4871 0417 8B03     		.uleb128 .L259-.LFB1362
 4872 0419 03       		.uleb128 0x3
 4873 041a 8403     		.uleb128 .LEHB146-.LFB1362
 4874 041c 05       		.uleb128 .LEHE146-.LEHB146
 4875 041d B203     		.uleb128 .L258-.LFB1362
 4876 041f 01       		.uleb128 0x1
 4877 0420 AD03     		.uleb128 .LEHB147-.LFB1362
 4878 0422 05       		.uleb128 .LEHE147-.LEHB147
 4879 0423 00       		.uleb128 0
 4880 0424 00       		.uleb128 0
 4881 0425 BA03     		.uleb128 .LEHB148-.LFB1362
 4882 0427 38       		.uleb128 .LEHE148-.LEHB148
 4883 0428 9F03     		.uleb128 .L260-.LFB1362
 4884 042a 00       		.uleb128 0
 4885 042b F203     		.uleb128 .LEHB149-.LFB1362
 4886 042d 05       		.uleb128 .LEHE149-.LEHB149
 4887 042e 00       		.uleb128 0
 4888 042f 00       		.uleb128 0
 4889              	.LLSDACSE1362:
 4890 0430 01       		.byte	0x1
 4891 0431 00       		.byte	0
 4892 0432 00       		.byte	0
 4893 0433 7D       		.byte	0x7d
 4894              		.align 4
 4895 0434 00000000 		.long	0
 4896              	
 4897              	.LLSDATT1362:
 4898              		.text
 4900              		.align 2
 4902              	_ZN12_GLOBAL__N_144XmlTestReporterFixtureMultipleFailuresHelperC2ERKN8UnitTest11TestDetailsE:
 4903              	.LFB1364:
 158:TestXmlTestReporter.cpp **** 
 159:TestXmlTestReporter.cpp **** TEST_FIXTURE(XmlTestReporterFixture, MultipleFailures)
 4904              		.loc 3 159 0
 4905              		.cfi_startproc
 4906 23dc 55       		pushq	%rbp
 4907              		.cfi_def_cfa_offset 16
 4908              		.cfi_offset 6, -16
 4909 23dd 4889E5   		movq	%rsp, %rbp
 4910              		.cfi_def_cfa_register 6
 4911 23e0 4883EC10 		subq	$16, %rsp
 4912 23e4 48897DF8 		movq	%rdi, -8(%rbp)
 4913 23e8 488975F0 		movq	%rsi, -16(%rbp)
 4914              	.LBB125:
 4915              		.loc 3 159 0
 4916 23ec 488B45F8 		movq	-8(%rbp), %rax
 4917 23f0 4889C7   		movq	%rax, %rdi
 4918 23f3 E808DCFF 		call	_ZN12_GLOBAL__N_122XmlTestReporterFixtureC2Ev
 4918      FF
 4919 23f8 488B45F8 		movq	-8(%rbp), %rax
 4920 23fc 488B55F0 		movq	-16(%rbp), %rdx
 4921 2400 48899088 		movq	%rdx, 392(%rax)
 4921      010000
 4922              	.LBE125:
 4923 2407 C9       		leave
 4924              		.cfi_def_cfa 7, 8
 4925 2408 C3       		ret
 4926              		.cfi_endproc
 4927              	.LFE1364:
 4929              		.set	_ZN12_GLOBAL__N_144XmlTestReporterFixtureMultipleFailuresHelperC1ERKN8UnitTest11TestDetailsE,
 4930              		.section	.rodata
 4931              	.LC40:
 4932 07ed 4D756C74 		.string	"MultipleFailures"
 4932      69706C65 
 4932      4661696C 
 4932      75726573 
 4932      00
 4933              		.text
 4934 2409 90       		.align 2
 4936              	_ZN12_GLOBAL__N_142TestXmlTestReporterFixtureMultipleFailuresC2Ev:
 4937              	.LFB1367:
 4938              		.loc 3 159 0
 4939              		.cfi_startproc
 4940 240a 55       		pushq	%rbp
 4941              		.cfi_def_cfa_offset 16
 4942              		.cfi_offset 6, -16
 4943 240b 4889E5   		movq	%rsp, %rbp
 4944              		.cfi_def_cfa_register 6
 4945 240e 4883EC10 		subq	$16, %rsp
 4946 2412 48897DF8 		movq	%rdi, -8(%rbp)
 4947              	.LBB126:
 4948              		.loc 3 159 0
 4949 2416 E8000000 		call	_ZN13UnitTestSuite12GetSuiteNameEv
 4949      00
 4950 241b 4889C2   		movq	%rax, %rdx
 4951 241e 488B45F8 		movq	-8(%rbp), %rax
 4952 2422 41B89F00 		movl	$159, %r8d
 4952      0000
 4953 2428 B9000000 		movl	$.LC1, %ecx
 4953      00
 4954 242d BE000000 		movl	$.LC40, %esi
 4954      00
 4955 2432 4889C7   		movq	%rax, %rdi
 4956 2435 E8000000 		call	_ZN8UnitTest4TestC2EPKcS2_S2_i
 4956      00
 4957 243a 488B45F8 		movq	-8(%rbp), %rax
 4958 243e 48C70000 		movq	$_ZTVN12_GLOBAL__N_142TestXmlTestReporterFixtureMultipleFailuresE+16, (%rax)
 4958      000000
 4959              	.LBE126:
 4960 2445 C9       		leave
 4961              		.cfi_def_cfa 7, 8
 4962 2446 C3       		ret
 4963              		.cfi_endproc
 4964              	.LFE1367:
 4966              		.set	_ZN12_GLOBAL__N_142TestXmlTestReporterFixtureMultipleFailuresC1Ev,_ZN12_GLOBAL__N_142TestXmlT
 4967              		.local	_ZN12_GLOBAL__N_150testXmlTestReporterFixtureMultipleFailuresInstanceE
 4968              		.comm	_ZN12_GLOBAL__N_150testXmlTestReporterFixtureMultipleFailuresInstanceE,56,32
 4969              		.local	_ZN12_GLOBAL__N_143adderXmlTestReporterFixtureMultipleFailuresE
 4970              		.comm	_ZN12_GLOBAL__N_143adderXmlTestReporterFixtureMultipleFailuresE,1,1
 4971 2447 90       		.align 2
 4973              	_ZN12_GLOBAL__N_144XmlTestReporterFixtureMultipleFailuresHelperD2Ev:
 4974              	.LFB1371:
 4975              		.loc 3 159 0
 4976              		.cfi_startproc
 4977 2448 55       		pushq	%rbp
 4978              		.cfi_def_cfa_offset 16
 4979              		.cfi_offset 6, -16
 4980 2449 4889E5   		movq	%rsp, %rbp
 4981              		.cfi_def_cfa_register 6
 4982 244c 4883EC10 		subq	$16, %rsp
 4983 2450 48897DF8 		movq	%rdi, -8(%rbp)
 4984              	.LBB127:
 4985              		.loc 3 159 0
 4986 2454 488B45F8 		movq	-8(%rbp), %rax
 4987 2458 4889C7   		movq	%rax, %rdi
 4988 245b E8FCDBFF 		call	_ZN12_GLOBAL__N_122XmlTestReporterFixtureD2Ev
 4988      FF
 4989              	.LBE127:
 4990 2460 C9       		leave
 4991              		.cfi_def_cfa 7, 8
 4992 2461 C3       		ret
 4993              		.cfi_endproc
 4994              	.LFE1371:
 4996              		.set	_ZN12_GLOBAL__N_144XmlTestReporterFixtureMultipleFailuresHelperD1Ev,_ZN12_GLOBAL__N_144XmlTes
 4997              		.align 2
 4999              	_ZNK12_GLOBAL__N_142TestXmlTestReporterFixtureMultipleFailures7RunImplEv:
 5000              	.LFB1369:
 5001              		.loc 3 159 0
 5002              		.cfi_startproc
 5003              		.cfi_personality 0x3,__gxx_personality_v0
 5004              		.cfi_lsda 0x3,.LLSDA1369
 5005 2462 55       		pushq	%rbp
 5006              		.cfi_def_cfa_offset 16
 5007              		.cfi_offset 6, -16
 5008 2463 4889E5   		movq	%rsp, %rbp
 5009              		.cfi_def_cfa_register 6
 5010 2466 4154     		pushq	%r12
 5011 2468 53       		pushq	%rbx
 5012 2469 4881ECC0 		subq	$448, %rsp
 5012      010000
 5013              		.cfi_offset 12, -24
 5014              		.cfi_offset 3, -32
 5015 2470 4889BD38 		movq	%rdi, -456(%rbp)
 5015      FEFFFF
 5016              	.LBB128:
 5017              		.loc 3 159 0
 5018 2477 C6854FFE 		movb	$0, -433(%rbp)
 5018      FFFF00
 5019              	.LBB129:
 5020 247e 488B8538 		movq	-456(%rbp), %rax
 5020      FEFFFF
 5021 2485 488D5008 		leaq	8(%rax), %rdx
 5022 2489 488D8560 		leaq	-416(%rbp), %rax
 5022      FEFFFF
 5023 2490 4889D6   		movq	%rdx, %rsi
 5024 2493 4889C7   		movq	%rax, %rdi
 5025              	.LEHB150:
 5026 2496 E841FFFF 		call	_ZN12_GLOBAL__N_144XmlTestReporterFixtureMultipleFailuresHelperC1ERKN8UnitTest11TestDetailsE
 5026      FF
 5027              	.LEHE150:
 5028              		.loc 3 159 0 is_stmt 0 discriminator 1
 5029 249b C6854FFE 		movb	$1, -433(%rbp)
 5029      FFFF01
 5030 24a2 488B8538 		movq	-456(%rbp), %rax
 5030      FEFFFF
 5031 24a9 488D5008 		leaq	8(%rax), %rdx
 5032 24ad 488D8560 		leaq	-416(%rbp), %rax
 5032      FEFFFF
 5033 24b4 4889D6   		movq	%rdx, %rsi
 5034 24b7 4889C7   		movq	%rax, %rdi
 5035              	.LEHB151:
 5036 24ba E88F1600 		call	_ZN8UnitTest11ExecuteTestIN12_GLOBAL__N_144XmlTestReporterFixtureMultipleFailuresHelperEEEvRT
 5036      00
 5037              	.LEHE151:
 5038 24bf 488D8560 		leaq	-416(%rbp), %rax
 5038      FEFFFF
 5039 24c6 4889C7   		movq	%rax, %rdi
 5040              	.LEHB152:
 5041 24c9 E87AFFFF 		call	_ZN12_GLOBAL__N_144XmlTestReporterFixtureMultipleFailuresHelperD1Ev
 5041      FF
 5042              	.LEHE152:
 5043              	.LBE129:
 5044              	.LBE128:
 5045              		.loc 3 159 0
 5046 24ce E9640200 		jmp	.L286
 5046      00
 5047              	.L280:
 5048 24d3 4989C4   		movq	%rax, %r12
 5049 24d6 4889D3   		movq	%rdx, %rbx
 5050              	.LBB137:
 5051              	.LBB130:
 5052 24d9 488D8560 		leaq	-416(%rbp), %rax
 5052      FEFFFF
 5053 24e0 4889C7   		movq	%rax, %rdi
 5054 24e3 E860FFFF 		call	_ZN12_GLOBAL__N_144XmlTestReporterFixtureMultipleFailuresHelperD1Ev
 5054      FF
 5055 24e8 4C89E0   		movq	%r12, %rax
 5056 24eb 4889DA   		movq	%rbx, %rdx
 5057 24ee EB00     		jmp	.L268
 5058              	.L279:
 5059              	.L268:
 5060 24f0 4883FA01 		cmpq	$1, %rdx
 5061 24f4 745C     		je	.L270
 5062 24f6 4883FA02 		cmpq	$2, %rdx
 5063 24fa 0F84F400 		je	.L271
 5063      0000
 5064 2500 E9980100 		jmp	.L285
 5064      00
 5065              	.L281:
 5066 2505 4889C3   		movq	%rax, %rbx
 5067              	.LBE130:
 5068              	.LBB131:
 5069 2508 E8000000 		call	__cxa_end_catch
 5069      00
 5070 250d 4889D8   		movq	%rbx, %rax
 5071 2510 4889C7   		movq	%rax, %rdi
 5072              	.LEHB153:
 5073 2513 E8000000 		call	_Unwind_Resume
 5073      00
 5074              	.LEHE153:
 5075              	.L282:
 5076 2518 4889C3   		movq	%rax, %rbx
 5077              	.LBE131:
 5078              	.LBB132:
 5079              	.LBB133:
 5080 251b 488D8560 		leaq	-416(%rbp), %rax
 5080      FEFFFF
 5081 2522 4889C7   		movq	%rax, %rdi
 5082 2525 E8000000 		call	_ZN8UnitTest15MemoryOutStreamD1Ev
 5082      00
 5083 252a EB03     		jmp	.L274
 5084              	.L283:
 5085 252c 4889C3   		movq	%rax, %rbx
 5086              	.L274:
 5087              	.LBE133:
 5088 252f E8000000 		call	__cxa_end_catch
 5088      00
 5089 2534 4889D8   		movq	%rbx, %rax
 5090 2537 4889C7   		movq	%rax, %rdi
 5091              	.LEHB154:
 5092 253a E8000000 		call	_Unwind_Resume
 5092      00
 5093              	.LEHE154:
 5094              	.L284:
 5095 253f 4889C3   		movq	%rax, %rbx
 5096              	.LBE132:
 5097 2542 E8000000 		call	__cxa_end_catch
 5097      00
 5098 2547 4889D8   		movq	%rbx, %rax
 5099 254a 4889C7   		movq	%rax, %rdi
 5100              	.LEHB155:
 5101 254d E8000000 		call	_Unwind_Resume
 5101      00
 5102              	.LEHE155:
 5103              	.L270:
 5104              	.LBB135:
 5105 2552 4889C7   		movq	%rax, %rdi
 5106 2555 E8000000 		call	__cxa_begin_catch
 5106      00
 5107 255a 48898550 		movq	%rax, -432(%rbp)
 5107      FEFFFF
 5108 2561 488B8550 		movq	-432(%rbp), %rax
 5108      FEFFFF
 5109 2568 488B00   		movq	(%rax), %rax
 5110 256b 4883C010 		addq	$16, %rax
 5111 256f 488B00   		movq	(%rax), %rax
 5112 2572 488B9550 		movq	-432(%rbp), %rdx
 5112      FEFFFF
 5113 2579 4889D7   		movq	%rdx, %rdi
 5114 257c FFD0     		call	*%rax
 5115 257e 4889C3   		movq	%rax, %rbx
 5116 2581 488B8550 		movq	-432(%rbp), %rax
 5116      FEFFFF
 5117 2588 4889C7   		movq	%rax, %rdi
 5118              	.LEHB156:
 5119 258b E8000000 		call	_ZNK8UnitTest15AssertException10LineNumberEv
 5119      00
 5120 2590 4189C4   		movl	%eax, %r12d
 5121 2593 488B8550 		movq	-432(%rbp), %rax
 5121      FEFFFF
 5122 259a 4889C7   		movq	%rax, %rdi
 5123 259d E8000000 		call	_ZNK8UnitTest15AssertException8FilenameEv
 5123      00
 5124              		.loc 3 159 0 discriminator 1
 5125 25a2 4889C1   		movq	%rax, %rcx
 5126 25a5 488B8538 		movq	-456(%rbp), %rax
 5126      FEFFFF
 5127 25ac 488B5008 		movq	8(%rax), %rdx
 5128 25b0 488B8538 		movq	-456(%rbp), %rax
 5128      FEFFFF
 5129 25b7 488B7010 		movq	16(%rax), %rsi
 5130 25bb 488D8560 		leaq	-416(%rbp), %rax
 5130      FEFFFF
 5131 25c2 4589E0   		movl	%r12d, %r8d
 5132 25c5 4889C7   		movq	%rax, %rdi
 5133 25c8 E8000000 		call	_ZN8UnitTest11TestDetailsC1EPKcS2_S2_i
 5133      00
 5134              		.loc 3 159 0 discriminator 3
 5135 25cd E8000000 		call	_ZN8UnitTest11CurrentTest7ResultsEv
 5135      00
 5136 25d2 488B00   		movq	(%rax), %rax
 5137 25d5 488D8D60 		leaq	-416(%rbp), %rcx
 5137      FEFFFF
 5138 25dc 4889DA   		movq	%rbx, %rdx
 5139 25df 4889CE   		movq	%rcx, %rsi
 5140 25e2 4889C7   		movq	%rax, %rdi
 5141 25e5 E8000000 		call	_ZN8UnitTest11TestResults13OnTestFailureERKNS_11TestDetailsEPKc
 5141      00
 5142              	.LEHE156:
 5143              		.loc 3 159 0 discriminator 1
 5144 25ea E8000000 		call	__cxa_end_catch
 5144      00
 5145              	.LBE135:
 5146              	.LBE137:
 5147 25ef E9430100 		jmp	.L286
 5147      00
 5148              	.L271:
 5149              	.LBB138:
 5150              	.LBB136:
 5151              		.loc 3 159 0
 5152 25f4 4889C7   		movq	%rax, %rdi
 5153 25f7 E8000000 		call	__cxa_begin_catch
 5153      00
 5154 25fc 48898558 		movq	%rax, -424(%rbp)
 5154      FEFFFF
 5155              	.LBB134:
 5156 2603 488D8560 		leaq	-416(%rbp), %rax
 5156      FEFFFF
 5157 260a 4889C7   		movq	%rax, %rdi
 5158              	.LEHB157:
 5159 260d E8000000 		call	_ZN8UnitTest15MemoryOutStreamC1Ev
 5159      00
 5160              	.LEHE157:
 5161              		.loc 3 159 0 discriminator 1
 5162 2612 488B8558 		movq	-424(%rbp), %rax
 5162      FEFFFF
 5163 2619 488B00   		movq	(%rax), %rax
 5164 261c 4883C010 		addq	$16, %rax
 5165 2620 488B00   		movq	(%rax), %rax
 5166 2623 488B9558 		movq	-424(%rbp), %rdx
 5166      FEFFFF
 5167 262a 4889D7   		movq	%rdx, %rdi
 5168 262d FFD0     		call	*%rax
 5169 262f 4889C3   		movq	%rax, %rbx
 5170 2632 488D8560 		leaq	-416(%rbp), %rax
 5170      FEFFFF
 5171 2639 BE000000 		movl	$.LC3, %esi
 5171      00
 5172 263e 4889C7   		movq	%rax, %rdi
 5173              	.LEHB158:
 5174 2641 E8000000 		call	_ZStlsISt11char_traitsIcEERSt13basic_ostreamIcT_ES5_PKc
 5174      00
 5175 2646 4889DE   		movq	%rbx, %rsi
 5176 2649 4889C7   		movq	%rax, %rdi
 5177 264c E8000000 		call	_ZStlsISt11char_traitsIcEERSt13basic_ostreamIcT_ES5_PKc
 5177      00
 5178 2651 488D8560 		leaq	-416(%rbp), %rax
 5178      FEFFFF
 5179 2658 4889C7   		movq	%rax, %rdi
 5180 265b E8000000 		call	_ZNK8UnitTest15MemoryOutStream7GetTextEv
 5180      00
 5181 2660 4889C3   		movq	%rax, %rbx
 5182 2663 488B8538 		movq	-456(%rbp), %rax
 5182      FEFFFF
 5183 266a 4C8D6008 		leaq	8(%rax), %r12
 5184 266e E8000000 		call	_ZN8UnitTest11CurrentTest7ResultsEv
 5184      00
 5185 2673 488B00   		movq	(%rax), %rax
 5186 2676 4889DA   		movq	%rbx, %rdx
 5187 2679 4C89E6   		movq	%r12, %rsi
 5188 267c 4889C7   		movq	%rax, %rdi
 5189 267f E8000000 		call	_ZN8UnitTest11TestResults13OnTestFailureERKNS_11TestDetailsEPKc
 5189      00
 5190              	.LEHE158:
 5191 2684 488D8560 		leaq	-416(%rbp), %rax
 5191      FEFFFF
 5192 268b 4889C7   		movq	%rax, %rdi
 5193              	.LEHB159:
 5194 268e E8000000 		call	_ZN8UnitTest15MemoryOutStreamD1Ev
 5194      00
 5195              	.LEHE159:
 5196              	.LBE134:
 5197              		.loc 3 159 0
 5198 2693 E8000000 		call	__cxa_end_catch
 5198      00
 5199              	.LBE136:
 5200              	.LBE138:
 5201 2698 E99A0000 		jmp	.L286
 5201      00
 5202              	.L285:
 5203              	.LBB139:
 5204 269d 4889C7   		movq	%rax, %rdi
 5205 26a0 E8000000 		call	__cxa_begin_catch
 5205      00
 5206 26a5 80BD4FFE 		cmpb	$0, -433(%rbp)
 5206      FFFF00
 5207 26ac 7443     		je	.L277
 5208              		.loc 3 159 0 discriminator 1
 5209 26ae 488B8538 		movq	-456(%rbp), %rax
 5209      FEFFFF
 5210 26b5 488D4808 		leaq	8(%rax), %rcx
 5211 26b9 488D8560 		leaq	-416(%rbp), %rax
 5211      FEFFFF
 5212 26c0 BA9F0000 		movl	$159, %edx
 5212      00
 5213 26c5 4889CE   		movq	%rcx, %rsi
 5214 26c8 4889C7   		movq	%rax, %rdi
 5215              	.LEHB160:
 5216 26cb E8000000 		call	_ZN8UnitTest11TestDetailsC1ERKS0_i
 5216      00
 5217 26d0 E8000000 		call	_ZN8UnitTest11CurrentTest7ResultsEv
 5217      00
 5218 26d5 488B00   		movq	(%rax), %rax
 5219 26d8 488D8D60 		leaq	-416(%rbp), %rcx
 5219      FEFFFF
 5220 26df BA000000 		movl	$.LC4, %edx
 5220      00
 5221 26e4 4889CE   		movq	%rcx, %rsi
 5222 26e7 4889C7   		movq	%rax, %rdi
 5223 26ea E8000000 		call	_ZN8UnitTest11TestResults13OnTestFailureERKNS_11TestDetailsEPKc
 5223      00
 5224 26ef EB41     		jmp	.L278
 5225              	.L277:
 5226              		.loc 3 159 0 discriminator 2
 5227 26f1 488B8538 		movq	-456(%rbp), %rax
 5227      FEFFFF
 5228 26f8 488D4808 		leaq	8(%rax), %rcx
 5229 26fc 488D8560 		leaq	-416(%rbp), %rax
 5229      FEFFFF
 5230 2703 BA9F0000 		movl	$159, %edx
 5230      00
 5231 2708 4889CE   		movq	%rcx, %rsi
 5232 270b 4889C7   		movq	%rax, %rdi
 5233 270e E8000000 		call	_ZN8UnitTest11TestDetailsC1ERKS0_i
 5233      00
 5234              		.loc 3 159 0 discriminator 1
 5235 2713 E8000000 		call	_ZN8UnitTest11CurrentTest7ResultsEv
 5235      00
 5236 2718 488B00   		movq	(%rax), %rax
 5237 271b 488D8D60 		leaq	-416(%rbp), %rcx
 5237      FEFFFF
 5238 2722 BA000000 		movl	$.LC5, %edx
 5238      00
 5239 2727 4889CE   		movq	%rcx, %rsi
 5240 272a 4889C7   		movq	%rax, %rdi
 5241 272d E8000000 		call	_ZN8UnitTest11TestResults13OnTestFailureERKNS_11TestDetailsEPKc
 5241      00
 5242              	.LEHE160:
 5243              	.L278:
 5244              	.LEHB161:
 5245 2732 E8000000 		call	__cxa_end_catch
 5245      00
 5246              	.LEHE161:
 5247              	.L286:
 5248              	.LBE139:
 5249              		.loc 3 159 0
 5250 2737 90       		nop
 5251 2738 4881C4C0 		addq	$448, %rsp
 5251      010000
 5252 273f 5B       		popq	%rbx
 5253 2740 415C     		popq	%r12
 5254 2742 5D       		popq	%rbp
 5255              		.cfi_def_cfa 7, 8
 5256 2743 C3       		ret
 5257              		.cfi_endproc
 5258              	.LFE1369:
 5259              		.section	.gcc_except_table
 5260              		.align 4
 5261              	.LLSDA1369:
 5262 0438 FF       		.byte	0xff
 5263 0439 03       		.byte	0x3
 5264 043a 59       		.uleb128 .LLSDATT1369-.LLSDATTD1369
 5265              	.LLSDATTD1369:
 5266 043b 01       		.byte	0x1
 5267 043c 40       		.uleb128 .LLSDACSE1369-.LLSDACSB1369
 5268              	.LLSDACSB1369:
 5269 043d 34       		.uleb128 .LEHB150-.LFB1369
 5270 043e 05       		.uleb128 .LEHE150-.LEHB150
 5271 043f 8E01     		.uleb128 .L279-.LFB1369
 5272 0441 05       		.uleb128 0x5
 5273 0442 58       		.uleb128 .LEHB151-.LFB1369
 5274 0443 05       		.uleb128 .LEHE151-.LEHB151
 5275 0444 71       		.uleb128 .L280-.LFB1369
 5276 0445 07       		.uleb128 0x7
 5277 0446 67       		.uleb128 .LEHB152-.LFB1369
 5278 0447 05       		.uleb128 .LEHE152-.LEHB152
 5279 0448 8E01     		.uleb128 .L279-.LFB1369
 5280 044a 05       		.uleb128 0x5
 5281 044b B101     		.uleb128 .LEHB153-.LFB1369
 5282 044d 05       		.uleb128 .LEHE153-.LEHB153
 5283 044e 00       		.uleb128 0
 5284 044f 00       		.uleb128 0
 5285 0450 D801     		.uleb128 .LEHB154-.LFB1369
 5286 0452 05       		.uleb128 .LEHE154-.LEHB154
 5287 0453 00       		.uleb128 0
 5288 0454 00       		.uleb128 0
 5289 0455 EB01     		.uleb128 .LEHB155-.LFB1369
 5290 0457 05       		.uleb128 .LEHE155-.LEHB155
 5291 0458 00       		.uleb128 0
 5292 0459 00       		.uleb128 0
 5293 045a A902     		.uleb128 .LEHB156-.LFB1369
 5294 045c 5F       		.uleb128 .LEHE156-.LEHB156
 5295 045d A301     		.uleb128 .L281-.LFB1369
 5296 045f 00       		.uleb128 0
 5297 0460 AB03     		.uleb128 .LEHB157-.LFB1369
 5298 0462 05       		.uleb128 .LEHE157-.LEHB157
 5299 0463 CA01     		.uleb128 .L283-.LFB1369
 5300 0465 00       		.uleb128 0
 5301 0466 DF03     		.uleb128 .LEHB158-.LFB1369
 5302 0468 43       		.uleb128 .LEHE158-.LEHB158
 5303 0469 B601     		.uleb128 .L282-.LFB1369
 5304 046b 00       		.uleb128 0
 5305 046c AC04     		.uleb128 .LEHB159-.LFB1369
 5306 046e 05       		.uleb128 .LEHE159-.LEHB159
 5307 046f CA01     		.uleb128 .L283-.LFB1369
 5308 0471 00       		.uleb128 0
 5309 0472 E904     		.uleb128 .LEHB160-.LFB1369
 5310 0474 67       		.uleb128 .LEHE160-.LEHB160
 5311 0475 DD01     		.uleb128 .L284-.LFB1369
 5312 0477 00       		.uleb128 0
 5313 0478 D005     		.uleb128 .LEHB161-.LFB1369
 5314 047a 05       		.uleb128 .LEHE161-.LEHB161
 5315 047b 00       		.uleb128 0
 5316 047c 00       		.uleb128 0
 5317              	.LLSDACSE1369:
 5318 047d 03       		.byte	0x3
 5319 047e 00       		.byte	0
 5320 047f 02       		.byte	0x2
 5321 0480 7D       		.byte	0x7d
 5322 0481 01       		.byte	0x1
 5323 0482 7D       		.byte	0x7d
 5324 0483 00       		.byte	0
 5325 0484 7D       		.byte	0x7d
 5326 0485 000000   		.align 4
 5327 0488 00000000 		.long	0
 5328              	
 5329 048c 00000000 		.long	_ZTISt9exception
 5330 0490 00000000 		.long	_ZTIN8UnitTest15AssertExceptionE
 5331              	.LLSDATT1369:
 5332              		.text
 5334              		.section	.rodata
 5335              	.LC41:
 5336 07fe 65787065 		.string	"expected one but was two"
 5336      63746564 
 5336      206F6E65 
 5336      20627574 
 5336      20776173 
 5337 0817 00       		.align 8
 5338              	.LC42:
 5339 0818 3C3F786D 		.ascii	"<?xml version=\"1.0\""
 5339      6C207665 
 5339      7273696F 
 5339      6E3D2231 
 5339      2E3022
 5340 082b 3F3E3C75 		.string	"?><unittest-results tests=\"1\" failedtests=\"1\" failures=\"2\" time=\"1.1\"><test suite
 5340      6E697474 
 5340      6573742D 
 5340      72657375 
 5340      6C747320 
 5341              		.text
 5342              		.align 2
 5344              	_ZN12_GLOBAL__N_144XmlTestReporterFixtureMultipleFailuresHelper7RunImplEv:
 5345              	.LFB1373:
 160:TestXmlTestReporter.cpp **** {
 5346              		.loc 3 160 0 is_stmt 1
 5347              		.cfi_startproc
 5348              		.cfi_personality 0x3,__gxx_personality_v0
 5349              		.cfi_lsda 0x3,.LLSDA1373
 5350 2744 55       		pushq	%rbp
 5351              		.cfi_def_cfa_offset 16
 5352              		.cfi_offset 6, -16
 5353 2745 4889E5   		movq	%rsp, %rbp
 5354              		.cfi_def_cfa_register 6
 5355 2748 53       		pushq	%rbx
 5356 2749 4881EC88 		subq	$136, %rsp
 5356      000000
 5357              		.cfi_offset 3, -24
 5358 2750 4889BD78 		movq	%rdi, -136(%rbp)
 5358      FFFFFF
 5359              	.LBB140:
 161:TestXmlTestReporter.cpp ****     TestDetails const failedDetails1("FailedTest", "suite", "fail.h", 1);
 5360              		.loc 3 161 0
 5361 2757 488D4590 		leaq	-112(%rbp), %rax
 5362 275b 41B80100 		movl	$1, %r8d
 5362      0000
 5363 2761 B9000000 		movl	$.LC34, %ecx
 5363      00
 5364 2766 BA000000 		movl	$.LC7, %edx
 5364      00
 5365 276b BE000000 		movl	$.LC35, %esi
 5365      00
 5366 2770 4889C7   		movq	%rax, %rdi
 5367              	.LEHB162:
 5368 2773 E8000000 		call	_ZN8UnitTest11TestDetailsC1EPKcS2_S2_i
 5368      00
 162:TestXmlTestReporter.cpp ****     TestDetails const failedDetails2("FailedTest", "suite", "fail.h", 31);
 5369              		.loc 3 162 0
 5370 2778 488D45B0 		leaq	-80(%rbp), %rax
 5371 277c 41B81F00 		movl	$31, %r8d
 5371      0000
