   1              		.file	"TestUnitTest++.cpp"
   2              		.text
   3              		.align 2
   4              		.p2align 4,,15
   6              	_ZNK12_GLOBAL__N_122TestValidCheckSucceeds7RunImplEv:
   7              	.LFB1322:
   8              		.cfi_startproc
   9 0000 F3C3     		rep ret
  10              		.cfi_endproc
  11              	.LFE1322:
  13              		.align 2
  14 0002 66666666 		.p2align 4,,15
  14      662E0F1F 
  14      84000000 
  14      0000
  16              	_ZNK12_GLOBAL__N_126TestCheckWorksWithPointers7RunImplEv:
  17              	.LFB1326:
  18              		.cfi_startproc
  19 0010 F3C3     		rep ret
  20              		.cfi_endproc
  21              	.LFE1326:
  23              		.align 2
  24 0012 66666666 		.p2align 4,,15
  24      662E0F1F 
  24      84000000 
  24      0000
  26              	_ZN12_GLOBAL__N_137TestCanCallCHECKOutsideOfTestFunctionD2Ev:
  27              	.LFB1556:
  28              		.cfi_startproc
  29 0020 48C70700 		movq	$_ZTVN12_GLOBAL__N_137TestCanCallCHECKOutsideOfTestFunctionE+16, (%rdi)
  29      000000
  30 0027 E9000000 		jmp	_ZN8UnitTest4TestD2Ev
  30      00
  31              		.cfi_endproc
  32              	.LFE1556:
  34              		.set	_ZN12_GLOBAL__N_137TestCanCallCHECKOutsideOfTestFunctionD1Ev,_ZN12_GLOBAL__N_137TestCanCallCH
  35              		.align 2
  36 002c 0F1F4000 		.p2align 4,,15
  38              	_ZN12_GLOBAL__N_137TestCanCallCHECKOutsideOfTestFunctionD0Ev:
  39              	.LFB1558:
  40              		.cfi_startproc
  41 0030 53       		pushq	%rbx
  42              		.cfi_def_cfa_offset 16
  43              		.cfi_offset 3, -16
  44 0031 4889FB   		movq	%rdi, %rbx
  45 0034 48C70700 		movq	$_ZTVN12_GLOBAL__N_137TestCanCallCHECKOutsideOfTestFunctionE+16, (%rdi)
  45      000000
  46 003b E8000000 		call	_ZN8UnitTest4TestD2Ev
  46      00
  47 0040 4889DF   		movq	%rbx, %rdi
  48 0043 5B       		popq	%rbx
  49              		.cfi_def_cfa_offset 8
  50 0044 E9000000 		jmp	_ZdlPv
  50      00
  51              		.cfi_endproc
  52              	.LFE1558:
  54 0049 90       		.align 2
  55 004a 660F1F44 		.p2align 4,,15
  55      0000
  57              	_ZN12_GLOBAL__N_143TestSimpleFixtureOnlyOneFixtureAliveAtATimeD2Ev:
  58              	.LFB1560:
  59              		.cfi_startproc
  60 0050 48C70700 		movq	$_ZTVN12_GLOBAL__N_143TestSimpleFixtureOnlyOneFixtureAliveAtATimeE+16, (%rdi)
  60      000000
  61 0057 E9000000 		jmp	_ZN8UnitTest4TestD2Ev
  61      00
  62              		.cfi_endproc
  63              	.LFE1560:
  65              		.set	_ZN12_GLOBAL__N_143TestSimpleFixtureOnlyOneFixtureAliveAtATimeD1Ev,_ZN12_GLOBAL__N_143TestSim
  66              		.align 2
  67 005c 0F1F4000 		.p2align 4,,15
  69              	_ZN12_GLOBAL__N_143TestSimpleFixtureOnlyOneFixtureAliveAtATimeD0Ev:
  70              	.LFB1562:
  71              		.cfi_startproc
  72 0060 53       		pushq	%rbx
  73              		.cfi_def_cfa_offset 16
  74              		.cfi_offset 3, -16
  75 0061 4889FB   		movq	%rdi, %rbx
  76 0064 48C70700 		movq	$_ZTVN12_GLOBAL__N_143TestSimpleFixtureOnlyOneFixtureAliveAtATimeE+16, (%rdi)
  76      000000
  77 006b E8000000 		call	_ZN8UnitTest4TestD2Ev
  77      00
  78 0070 4889DF   		movq	%rbx, %rdi
  79 0073 5B       		popq	%rbx
  80              		.cfi_def_cfa_offset 8
  81 0074 E9000000 		jmp	_ZdlPv
  81      00
  82              		.cfi_endproc
  83              	.LFE1562:
  85 0079 90       		.align 2
  86 007a 660F1F44 		.p2align 4,,15
  86      0000
  88              	_ZN12_GLOBAL__N_143TestSimpleFixtureDefaultFixtureCtorIsCalledD2Ev:
  89              	.LFB1564:
  90              		.cfi_startproc
  91 0080 48C70700 		movq	$_ZTVN12_GLOBAL__N_143TestSimpleFixtureDefaultFixtureCtorIsCalledE+16, (%rdi)
  91      000000
  92 0087 E9000000 		jmp	_ZN8UnitTest4TestD2Ev
  92      00
  93              		.cfi_endproc
  94              	.LFE1564:
  96              		.set	_ZN12_GLOBAL__N_143TestSimpleFixtureDefaultFixtureCtorIsCalledD1Ev,_ZN12_GLOBAL__N_143TestSim
  97              		.align 2
  98 008c 0F1F4000 		.p2align 4,,15
 100              	_ZN12_GLOBAL__N_143TestSimpleFixtureDefaultFixtureCtorIsCalledD0Ev:
 101              	.LFB1566:
 102              		.cfi_startproc
 103 0090 53       		pushq	%rbx
 104              		.cfi_def_cfa_offset 16
 105              		.cfi_offset 3, -16
 106 0091 4889FB   		movq	%rdi, %rbx
 107 0094 48C70700 		movq	$_ZTVN12_GLOBAL__N_143TestSimpleFixtureDefaultFixtureCtorIsCalledE+16, (%rdi)
 107      000000
 108 009b E8000000 		call	_ZN8UnitTest4TestD2Ev
 108      00
 109 00a0 4889DF   		movq	%rbx, %rdi
 110 00a3 5B       		popq	%rbx
 111              		.cfi_def_cfa_offset 8
 112 00a4 E9000000 		jmp	_ZdlPv
 112      00
 113              		.cfi_endproc
 114              	.LFE1566:
 116 00a9 90       		.align 2
 117 00aa 660F1F44 		.p2align 4,,15
 117      0000
 119              	_ZN12_GLOBAL__N_140TestCheckThrowMacroFailsOnWrongExceptionD2Ev:
 120              	.LFB1568:
 121              		.cfi_startproc
 122 00b0 48C70700 		movq	$_ZTVN12_GLOBAL__N_140TestCheckThrowMacroFailsOnWrongExceptionE+16, (%rdi)
 122      000000
 123 00b7 E9000000 		jmp	_ZN8UnitTest4TestD2Ev
 123      00
 124              		.cfi_endproc
 125              	.LFE1568:
 127              		.set	_ZN12_GLOBAL__N_140TestCheckThrowMacroFailsOnWrongExceptionD1Ev,_ZN12_GLOBAL__N_140TestCheckT
 128              		.align 2
 129 00bc 0F1F4000 		.p2align 4,,15
 131              	_ZN12_GLOBAL__N_140TestCheckThrowMacroFailsOnWrongExceptionD0Ev:
 132              	.LFB1570:
 133              		.cfi_startproc
 134 00c0 53       		pushq	%rbx
 135              		.cfi_def_cfa_offset 16
 136              		.cfi_offset 3, -16
 137 00c1 4889FB   		movq	%rdi, %rbx
 138 00c4 48C70700 		movq	$_ZTVN12_GLOBAL__N_140TestCheckThrowMacroFailsOnWrongExceptionE+16, (%rdi)
 138      000000
 139 00cb E8000000 		call	_ZN8UnitTest4TestD2Ev
 139      00
 140 00d0 4889DF   		movq	%rbx, %rdi
 141 00d3 5B       		popq	%rbx
 142              		.cfi_def_cfa_offset 8
 143 00d4 E9000000 		jmp	_ZdlPv
 143      00
 144              		.cfi_endproc
 145              	.LFE1570:
 147 00d9 90       		.align 2
 148 00da 660F1F44 		.p2align 4,,15
 148      0000
 150              	_ZZNK12_GLOBAL__N_140TestCheckThrowMacroFailsOnWrongException7RunImplEvEN14WrongThrowTestD2Ev:
 151              	.LFB1572:
 152              		.cfi_startproc
 153 00e0 48C70700 		movq	$_ZTVZNK12_GLOBAL__N_140TestCheckThrowMacroFailsOnWrongException7RunImplEvE14WrongThrowTest+1
 153      000000
 154 00e7 E9000000 		jmp	_ZN8UnitTest4TestD2Ev
 154      00
 155              		.cfi_endproc
 156              	.LFE1572:
 158              		.set	_ZZNK12_GLOBAL__N_140TestCheckThrowMacroFailsOnWrongException7RunImplEvEN14WrongThrowTestD1Ev
 159              		.align 2
 160 00ec 0F1F4000 		.p2align 4,,15
 162              	_ZZNK12_GLOBAL__N_140TestCheckThrowMacroFailsOnWrongException7RunImplEvEN14WrongThrowTestD0Ev:
 163              	.LFB1574:
 164              		.cfi_startproc
 165 00f0 53       		pushq	%rbx
 166              		.cfi_def_cfa_offset 16
 167              		.cfi_offset 3, -16
 168 00f1 4889FB   		movq	%rdi, %rbx
 169 00f4 48C70700 		movq	$_ZTVZNK12_GLOBAL__N_140TestCheckThrowMacroFailsOnWrongException7RunImplEvE14WrongThrowTest+1
 169      000000
 170 00fb E8000000 		call	_ZN8UnitTest4TestD2Ev
 170      00
 171 0100 4889DF   		movq	%rbx, %rdi
 172 0103 5B       		popq	%rbx
 173              		.cfi_def_cfa_offset 8
 174 0104 E9000000 		jmp	_ZdlPv
 174      00
 175              		.cfi_endproc
 176              	.LFE1574:
 178 0109 90       		.align 2
 179 010a 660F1F44 		.p2align 4,,15
 179      0000
 181              	_ZN12_GLOBAL__N_142TestCheckThrowMacroFailsOnMissingExceptionD2Ev:
 182              	.LFB1576:
 183              		.cfi_startproc
 184 0110 48C70700 		movq	$_ZTVN12_GLOBAL__N_142TestCheckThrowMacroFailsOnMissingExceptionE+16, (%rdi)
 184      000000
 185 0117 E9000000 		jmp	_ZN8UnitTest4TestD2Ev
 185      00
 186              		.cfi_endproc
 187              	.LFE1576:
 189              		.set	_ZN12_GLOBAL__N_142TestCheckThrowMacroFailsOnMissingExceptionD1Ev,_ZN12_GLOBAL__N_142TestChec
 190              		.align 2
 191 011c 0F1F4000 		.p2align 4,,15
 193              	_ZN12_GLOBAL__N_142TestCheckThrowMacroFailsOnMissingExceptionD0Ev:
 194              	.LFB1578:
 195              		.cfi_startproc
 196 0120 53       		pushq	%rbx
 197              		.cfi_def_cfa_offset 16
 198              		.cfi_offset 3, -16
 199 0121 4889FB   		movq	%rdi, %rbx
 200 0124 48C70700 		movq	$_ZTVN12_GLOBAL__N_142TestCheckThrowMacroFailsOnMissingExceptionE+16, (%rdi)
 200      000000
 201 012b E8000000 		call	_ZN8UnitTest4TestD2Ev
 201      00
 202 0130 4889DF   		movq	%rbx, %rdi
 203 0133 5B       		popq	%rbx
 204              		.cfi_def_cfa_offset 8
 205 0134 E9000000 		jmp	_ZdlPv
 205      00
 206              		.cfi_endproc
 207              	.LFE1578:
 209 0139 90       		.align 2
 210 013a 660F1F44 		.p2align 4,,15
 210      0000
 212              	_ZZNK12_GLOBAL__N_142TestCheckThrowMacroFailsOnMissingException7RunImplEvEN11NoThrowTestD2Ev:
 213              	.LFB1580:
 214              		.cfi_startproc
 215 0140 48C70700 		movq	$_ZTVZNK12_GLOBAL__N_142TestCheckThrowMacroFailsOnMissingException7RunImplEvE11NoThrowTest+16
 215      000000
 216 0147 E9000000 		jmp	_ZN8UnitTest4TestD2Ev
 216      00
 217              		.cfi_endproc
 218              	.LFE1580:
 220              		.set	_ZZNK12_GLOBAL__N_142TestCheckThrowMacroFailsOnMissingException7RunImplEvEN11NoThrowTestD1Ev,
 221              		.align 2
 222 014c 0F1F4000 		.p2align 4,,15
 224              	_ZZNK12_GLOBAL__N_142TestCheckThrowMacroFailsOnMissingException7RunImplEvEN11NoThrowTestD0Ev:
 225              	.LFB1582:
 226              		.cfi_startproc
 227 0150 53       		pushq	%rbx
 228              		.cfi_def_cfa_offset 16
 229              		.cfi_offset 3, -16
 230 0151 4889FB   		movq	%rdi, %rbx
 231 0154 48C70700 		movq	$_ZTVZNK12_GLOBAL__N_142TestCheckThrowMacroFailsOnMissingException7RunImplEvE11NoThrowTest+16
 231      000000
 232 015b E8000000 		call	_ZN8UnitTest4TestD2Ev
 232      00
 233 0160 4889DF   		movq	%rbx, %rdi
 234 0163 5B       		popq	%rbx
 235              		.cfi_def_cfa_offset 8
 236 0164 E9000000 		jmp	_ZdlPv
 236      00
 237              		.cfi_endproc
 238              	.LFE1582:
 240 0169 90       		.align 2
 241 016a 660F1F44 		.p2align 4,,15
 241      0000
 243              	_ZN12_GLOBAL__N_123TestCheckAssertSucceedsD2Ev:
 244              	.LFB1584:
 245              		.cfi_startproc
 246 0170 48C70700 		movq	$_ZTVN12_GLOBAL__N_123TestCheckAssertSucceedsE+16, (%rdi)
 246      000000
 247 0177 E9000000 		jmp	_ZN8UnitTest4TestD2Ev
 247      00
 248              		.cfi_endproc
 249              	.LFE1584:
 251              		.set	_ZN12_GLOBAL__N_123TestCheckAssertSucceedsD1Ev,_ZN12_GLOBAL__N_123TestCheckAssertSucceedsD2Ev
 252              		.align 2
 253 017c 0F1F4000 		.p2align 4,,15
 255              	_ZN12_GLOBAL__N_123TestCheckAssertSucceedsD0Ev:
 256              	.LFB1586:
 257              		.cfi_startproc
 258 0180 53       		pushq	%rbx
 259              		.cfi_def_cfa_offset 16
 260              		.cfi_offset 3, -16
 261 0181 4889FB   		movq	%rdi, %rbx
 262 0184 48C70700 		movq	$_ZTVN12_GLOBAL__N_123TestCheckAssertSucceedsE+16, (%rdi)
 262      000000
 263 018b E8000000 		call	_ZN8UnitTest4TestD2Ev
 263      00
 264 0190 4889DF   		movq	%rbx, %rdi
 265 0193 5B       		popq	%rbx
 266              		.cfi_def_cfa_offset 8
 267 0194 E9000000 		jmp	_ZdlPv
 267      00
 268              		.cfi_endproc
 269              	.LFE1586:
 271 0199 90       		.align 2
 272 019a 660F1F44 		.p2align 4,,15
 272      0000
 274              	_ZN12_GLOBAL__N_145TestCheckThrowMacroSucceedsOnCorrectExceptionD2Ev:
 275              	.LFB1588:
 276              		.cfi_startproc
 277 01a0 48C70700 		movq	$_ZTVN12_GLOBAL__N_145TestCheckThrowMacroSucceedsOnCorrectExceptionE+16, (%rdi)
 277      000000
 278 01a7 E9000000 		jmp	_ZN8UnitTest4TestD2Ev
 278      00
 279              		.cfi_endproc
 280              	.LFE1588:
 282              		.set	_ZN12_GLOBAL__N_145TestCheckThrowMacroSucceedsOnCorrectExceptionD1Ev,_ZN12_GLOBAL__N_145TestC
 283              		.align 2
 284 01ac 0F1F4000 		.p2align 4,,15
 286              	_ZN12_GLOBAL__N_145TestCheckThrowMacroSucceedsOnCorrectExceptionD0Ev:
 287              	.LFB1590:
 288              		.cfi_startproc
 289 01b0 53       		pushq	%rbx
 290              		.cfi_def_cfa_offset 16
 291              		.cfi_offset 3, -16
 292 01b1 4889FB   		movq	%rdi, %rbx
 293 01b4 48C70700 		movq	$_ZTVN12_GLOBAL__N_145TestCheckThrowMacroSucceedsOnCorrectExceptionE+16, (%rdi)
 293      000000
 294 01bb E8000000 		call	_ZN8UnitTest4TestD2Ev
 294      00
 295 01c0 4889DF   		movq	%rbx, %rdi
 296 01c3 5B       		popq	%rbx
 297              		.cfi_def_cfa_offset 8
 298 01c4 E9000000 		jmp	_ZdlPv
 298      00
 299              		.cfi_endproc
 300              	.LFE1590:
 302 01c9 90       		.align 2
 303 01ca 660F1F44 		.p2align 4,,15
 303      0000
 305              	_ZN12_GLOBAL__N_135TestCheckArrayCloseWorksWithVectorsD2Ev:
 306              	.LFB1592:
 307              		.cfi_startproc
 308 01d0 48C70700 		movq	$_ZTVN12_GLOBAL__N_135TestCheckArrayCloseWorksWithVectorsE+16, (%rdi)
 308      000000
 309 01d7 E9000000 		jmp	_ZN8UnitTest4TestD2Ev
 309      00
 310              		.cfi_endproc
 311              	.LFE1592:
 313              		.set	_ZN12_GLOBAL__N_135TestCheckArrayCloseWorksWithVectorsD1Ev,_ZN12_GLOBAL__N_135TestCheckArrayC
 314              		.align 2
 315 01dc 0F1F4000 		.p2align 4,,15
 317              	_ZN12_GLOBAL__N_135TestCheckArrayCloseWorksWithVectorsD0Ev:
 318              	.LFB1594:
 319              		.cfi_startproc
 320 01e0 53       		pushq	%rbx
 321              		.cfi_def_cfa_offset 16
 322              		.cfi_offset 3, -16
 323 01e1 4889FB   		movq	%rdi, %rbx
 324 01e4 48C70700 		movq	$_ZTVN12_GLOBAL__N_135TestCheckArrayCloseWorksWithVectorsE+16, (%rdi)
 324      000000
 325 01eb E8000000 		call	_ZN8UnitTest4TestD2Ev
 325      00
 326 01f0 4889DF   		movq	%rbx, %rdi
 327 01f3 5B       		popq	%rbx
 328              		.cfi_def_cfa_offset 8
 329 01f4 E9000000 		jmp	_ZdlPv
 329      00
 330              		.cfi_endproc
 331              	.LFE1594:
 333 01f9 90       		.align 2
 334 01fa 660F1F44 		.p2align 4,,15
 334      0000
 336              	_ZN12_GLOBAL__N_122TestArrayCloseSucceedsD2Ev:
 337              	.LFB1596:
 338              		.cfi_startproc
 339 0200 48C70700 		movq	$_ZTVN12_GLOBAL__N_122TestArrayCloseSucceedsE+16, (%rdi)
 339      000000
 340 0207 E9000000 		jmp	_ZN8UnitTest4TestD2Ev
 340      00
 341              		.cfi_endproc
 342              	.LFE1596:
 344              		.set	_ZN12_GLOBAL__N_122TestArrayCloseSucceedsD1Ev,_ZN12_GLOBAL__N_122TestArrayCloseSucceedsD2Ev
 345              		.align 2
 346 020c 0F1F4000 		.p2align 4,,15
 348              	_ZN12_GLOBAL__N_122TestArrayCloseSucceedsD0Ev:
 349              	.LFB1598:
 350              		.cfi_startproc
 351 0210 53       		pushq	%rbx
 352              		.cfi_def_cfa_offset 16
 353              		.cfi_offset 3, -16
 354 0211 4889FB   		movq	%rdi, %rbx
 355 0214 48C70700 		movq	$_ZTVN12_GLOBAL__N_122TestArrayCloseSucceedsE+16, (%rdi)
 355      000000
 356 021b E8000000 		call	_ZN8UnitTest4TestD2Ev
 356      00
 357 0220 4889DF   		movq	%rbx, %rdi
 358 0223 5B       		popq	%rbx
 359              		.cfi_def_cfa_offset 8
 360 0224 E9000000 		jmp	_ZdlPv
 360      00
 361              		.cfi_endproc
 362              	.LFE1598:
 364 0229 90       		.align 2
 365 022a 660F1F44 		.p2align 4,,15
 365      0000
 367              	_ZN12_GLOBAL__N_127TestValidCheckCloseSucceedsD2Ev:
 368              	.LFB1600:
 369              		.cfi_startproc
 370 0230 48C70700 		movq	$_ZTVN12_GLOBAL__N_127TestValidCheckCloseSucceedsE+16, (%rdi)
 370      000000
 371 0237 E9000000 		jmp	_ZN8UnitTest4TestD2Ev
 371      00
 372              		.cfi_endproc
 373              	.LFE1600:
 375              		.set	_ZN12_GLOBAL__N_127TestValidCheckCloseSucceedsD1Ev,_ZN12_GLOBAL__N_127TestValidCheckCloseSucc
 376              		.align 2
 377 023c 0F1F4000 		.p2align 4,,15
 379              	_ZN12_GLOBAL__N_127TestValidCheckCloseSucceedsD0Ev:
 380              	.LFB1602:
 381              		.cfi_startproc
 382 0240 53       		pushq	%rbx
 383              		.cfi_def_cfa_offset 16
 384              		.cfi_offset 3, -16
 385 0241 4889FB   		movq	%rdi, %rbx
 386 0244 48C70700 		movq	$_ZTVN12_GLOBAL__N_127TestValidCheckCloseSucceedsE+16, (%rdi)
 386      000000
 387 024b E8000000 		call	_ZN8UnitTest4TestD2Ev
 387      00
 388 0250 4889DF   		movq	%rbx, %rdi
 389 0253 5B       		popq	%rbx
 390              		.cfi_def_cfa_offset 8
 391 0254 E9000000 		jmp	_ZdlPv
 391      00
 392              		.cfi_endproc
 393              	.LFE1602:
 395 0259 90       		.align 2
 396 025a 660F1F44 		.p2align 4,,15
 396      0000
 398              	_ZN12_GLOBAL__N_131TestCheckEqualWorksWithPointersD2Ev:
 399              	.LFB1604:
 400              		.cfi_startproc
 401 0260 48C70700 		movq	$_ZTVN12_GLOBAL__N_131TestCheckEqualWorksWithPointersE+16, (%rdi)
 401      000000
 402 0267 E9000000 		jmp	_ZN8UnitTest4TestD2Ev
 402      00
 403              		.cfi_endproc
 404              	.LFE1604:
 406              		.set	_ZN12_GLOBAL__N_131TestCheckEqualWorksWithPointersD1Ev,_ZN12_GLOBAL__N_131TestCheckEqualWorks
 407              		.align 2
 408 026c 0F1F4000 		.p2align 4,,15
 410              	_ZN12_GLOBAL__N_131TestCheckEqualWorksWithPointersD0Ev:
 411              	.LFB1606:
 412              		.cfi_startproc
 413 0270 53       		pushq	%rbx
 414              		.cfi_def_cfa_offset 16
 415              		.cfi_offset 3, -16
 416 0271 4889FB   		movq	%rdi, %rbx
 417 0274 48C70700 		movq	$_ZTVN12_GLOBAL__N_131TestCheckEqualWorksWithPointersE+16, (%rdi)
 417      000000
 418 027b E8000000 		call	_ZN8UnitTest4TestD2Ev
 418      00
 419 0280 4889DF   		movq	%rbx, %rdi
 420 0283 5B       		popq	%rbx
 421              		.cfi_def_cfa_offset 8
 422 0284 E9000000 		jmp	_ZdlPv
 422      00
 423              		.cfi_endproc
 424              	.LFE1606:
 426 0289 90       		.align 2
 427 028a 660F1F44 		.p2align 4,,15
 427      0000
 429              	_ZN12_GLOBAL__N_127TestValidCheckEqualSucceedsD2Ev:
 430              	.LFB1608:
 431              		.cfi_startproc
 432 0290 48C70700 		movq	$_ZTVN12_GLOBAL__N_127TestValidCheckEqualSucceedsE+16, (%rdi)
 432      000000
 433 0297 E9000000 		jmp	_ZN8UnitTest4TestD2Ev
 433      00
 434              		.cfi_endproc
 435              	.LFE1608:
 437              		.set	_ZN12_GLOBAL__N_127TestValidCheckEqualSucceedsD1Ev,_ZN12_GLOBAL__N_127TestValidCheckEqualSucc
 438              		.align 2
 439 029c 0F1F4000 		.p2align 4,,15
 441              	_ZN12_GLOBAL__N_127TestValidCheckEqualSucceedsD0Ev:
 442              	.LFB1610:
 443              		.cfi_startproc
 444 02a0 53       		pushq	%rbx
 445              		.cfi_def_cfa_offset 16
 446              		.cfi_offset 3, -16
 447 02a1 4889FB   		movq	%rdi, %rbx
 448 02a4 48C70700 		movq	$_ZTVN12_GLOBAL__N_127TestValidCheckEqualSucceedsE+16, (%rdi)
 448      000000
 449 02ab E8000000 		call	_ZN8UnitTest4TestD2Ev
 449      00
 450 02b0 4889DF   		movq	%rbx, %rdi
 451 02b3 5B       		popq	%rbx
 452              		.cfi_def_cfa_offset 8
 453 02b4 E9000000 		jmp	_ZdlPv
 453      00
 454              		.cfi_endproc
 455              	.LFE1610:
 457 02b9 90       		.align 2
 458 02ba 660F1F44 		.p2align 4,,15
 458      0000
 460              	_ZN12_GLOBAL__N_126TestCheckWorksWithPointersD2Ev:
 461              	.LFB1612:
 462              		.cfi_startproc
 463 02c0 48C70700 		movq	$_ZTVN12_GLOBAL__N_126TestCheckWorksWithPointersE+16, (%rdi)
 463      000000
 464 02c7 E9000000 		jmp	_ZN8UnitTest4TestD2Ev
 464      00
 465              		.cfi_endproc
 466              	.LFE1612:
 468              		.set	_ZN12_GLOBAL__N_126TestCheckWorksWithPointersD1Ev,_ZN12_GLOBAL__N_126TestCheckWorksWithPointe
 469              		.align 2
 470 02cc 0F1F4000 		.p2align 4,,15
 472              	_ZN12_GLOBAL__N_126TestCheckWorksWithPointersD0Ev:
 473              	.LFB1614:
 474              		.cfi_startproc
 475 02d0 53       		pushq	%rbx
 476              		.cfi_def_cfa_offset 16
 477              		.cfi_offset 3, -16
 478 02d1 4889FB   		movq	%rdi, %rbx
 479 02d4 48C70700 		movq	$_ZTVN12_GLOBAL__N_126TestCheckWorksWithPointersE+16, (%rdi)
 479      000000
 480 02db E8000000 		call	_ZN8UnitTest4TestD2Ev
 480      00
 481 02e0 4889DF   		movq	%rbx, %rdi
 482 02e3 5B       		popq	%rbx
 483              		.cfi_def_cfa_offset 8
 484 02e4 E9000000 		jmp	_ZdlPv
 484      00
 485              		.cfi_endproc
 486              	.LFE1614:
 488 02e9 90       		.align 2
 489 02ea 660F1F44 		.p2align 4,,15
 489      0000
 491              	_ZN12_GLOBAL__N_122TestValidCheckSucceedsD2Ev:
 492              	.LFB1616:
 493              		.cfi_startproc
 494 02f0 48C70700 		movq	$_ZTVN12_GLOBAL__N_122TestValidCheckSucceedsE+16, (%rdi)
 494      000000
 495 02f7 E9000000 		jmp	_ZN8UnitTest4TestD2Ev
 495      00
 496              		.cfi_endproc
 497              	.LFE1616:
 499              		.set	_ZN12_GLOBAL__N_122TestValidCheckSucceedsD1Ev,_ZN12_GLOBAL__N_122TestValidCheckSucceedsD2Ev
 500              		.align 2
 501 02fc 0F1F4000 		.p2align 4,,15
 503              	_ZN12_GLOBAL__N_122TestValidCheckSucceedsD0Ev:
 504              	.LFB1618:
 505              		.cfi_startproc
 506 0300 53       		pushq	%rbx
 507              		.cfi_def_cfa_offset 16
 508              		.cfi_offset 3, -16
 509 0301 4889FB   		movq	%rdi, %rbx
 510 0304 48C70700 		movq	$_ZTVN12_GLOBAL__N_122TestValidCheckSucceedsE+16, (%rdi)
 510      000000
 511 030b E8000000 		call	_ZN8UnitTest4TestD2Ev
 511      00
 512 0310 4889DF   		movq	%rbx, %rdi
 513 0313 5B       		popq	%rbx
 514              		.cfi_def_cfa_offset 8
 515 0314 E9000000 		jmp	_ZdlPv
 515      00
 516              		.cfi_endproc
 517              	.LFE1618:
 519              		.section	.rodata.str1.8,"aMS",@progbits,1
 520              		.align 8
 521              	.LC0:
 522 0000 45787065 		.string	"Expected exception: \"int\" not thrown"
 522      63746564 
 522      20657863 
 522      65707469 
 522      6F6E3A20 
 523              		.text
 524 0319 90       		.align 2
 525 031a 660F1F44 		.p2align 4,,15
 525      0000
 527              	_ZZNK12_GLOBAL__N_142TestCheckThrowMacroFailsOnMissingException7RunImplEvENK11NoThrowTest7RunImplEv
 528              	.LFB1363:
 529              		.cfi_startproc
 530 0320 4883EC28 		subq	$40, %rsp
 531              		.cfi_def_cfa_offset 48
 532 0324 E8000000 		call	_ZN8UnitTest11CurrentTest7DetailsEv
 532      00
 533 0329 488B30   		movq	(%rax), %rsi
 534 032c 4889E7   		movq	%rsp, %rdi
 535 032f BA520000 		movl	$82, %edx
 535      00
 536 0334 E8000000 		call	_ZN8UnitTest11TestDetailsC1ERKS0_i
 536      00
 537 0339 E8000000 		call	_ZN8UnitTest11CurrentTest7ResultsEv
 537      00
 538 033e 488B38   		movq	(%rax), %rdi
 539 0341 4889E6   		movq	%rsp, %rsi
 540 0344 BA000000 		movl	$.LC0, %edx
 540      00
 541 0349 E8000000 		call	_ZN8UnitTest11TestResults13OnTestFailureERKNS_11TestDetailsEPKc
 541      00
 542 034e 4883C428 		addq	$40, %rsp
 543              		.cfi_def_cfa_offset 8
 544 0352 C3       		ret
 545              		.cfi_endproc
 546              	.LFE1363:
 548              		.section	.rodata.str1.1,"aMS",@progbits,1
 549              	.LC1:
 550 0000 6F6F7073 		.string	"oops"
 550      00
 551              		.text
 552 0353 90       		.align 2
 553 0354 6666662E 		.p2align 4,,15
 553      0F1F8400 
 553      00000000 
 555              	_ZZNK12_GLOBAL__N_140TestCheckThrowMacroFailsOnWrongException7RunImplEvENK14WrongThrowTest7RunImplE
 556              	.LFB1371:
 557              		.cfi_startproc
 558              		.cfi_personality 0x3,__gxx_personality_v0
 559              		.cfi_lsda 0x3,.LLSDA1371
 560 0360 BF080000 		movl	$8, %edi
 560      00
 561 0365 4883EC28 		subq	$40, %rsp
 562              		.cfi_def_cfa_offset 48
 563 0369 E8000000 		call	__cxa_allocate_exception
 563      00
 564 036e 31D2     		xorl	%edx, %edx
 565 0370 48C70000 		movq	$.LC1, (%rax)
 565      000000
 566 0377 BE000000 		movl	$_ZTIPKc, %esi
 566      00
 567 037c 4889C7   		movq	%rax, %rdi
 568              	.LEHB0:
 569 037f E8000000 		call	__cxa_throw
 569      00
 570              	.LEHE0:
 571              	.L58:
 572 0384 4883EA01 		subq	$1, %rdx
 573 0388 4889C7   		movq	%rax, %rdi
 574 038b 750F     		jne	.L59
 575 038d E8000000 		call	__cxa_begin_catch
 575      00
 576 0392 E8000000 		call	__cxa_end_catch
 576      00
 577              	.L53:
 578 0397 4883C428 		addq	$40, %rsp
 579              		.cfi_remember_state
 580              		.cfi_def_cfa_offset 8
 581              		.p2align 4,,1
 582 039b C3       		ret
 583              	.L59:
 584              		.cfi_restore_state
 585 039c 0F1F4000 		.p2align 4,,5
 586 03a0 E8000000 		call	__cxa_begin_catch
 586      00
 587              		.p2align 4,,5
 588              	.LEHB1:
 589 03a5 E8000000 		call	__cxa_end_catch
 589      00
 590              		.p2align 4,,5
 591 03aa E8000000 		call	_ZN8UnitTest11CurrentTest7DetailsEv
 591      00
 592 03af 488B30   		movq	(%rax), %rsi
 593 03b2 4889E7   		movq	%rsp, %rdi
 594 03b5 BA690000 		movl	$105, %edx
 594      00
 595 03ba E8000000 		call	_ZN8UnitTest11TestDetailsC1ERKS0_i
 595      00
 596 03bf E8000000 		call	_ZN8UnitTest11CurrentTest7ResultsEv
 596      00
 597 03c4 488B38   		movq	(%rax), %rdi
 598 03c7 BA000000 		movl	$.LC0, %edx
 598      00
 599 03cc 4889E6   		movq	%rsp, %rsi
 600 03cf E8000000 		call	_ZN8UnitTest11TestResults13OnTestFailureERKNS_11TestDetailsEPKc
 600      00
 601              	.LEHE1:
 602 03d4 EBC1     		jmp	.L53
 603              		.cfi_endproc
 604              	.LFE1371:
 605              		.globl	__gxx_personality_v0
 606              		.section	.gcc_except_table,"a",@progbits
 607              		.align 4
 608              	.LLSDA1371:
 609 0000 FF       		.byte	0xff
 610 0001 03       		.byte	0x3
 611 0002 19       		.uleb128 .LLSDATT1371-.LLSDATTD1371
 612              	.LLSDATTD1371:
 613 0003 01       		.byte	0x1
 614 0004 08       		.uleb128 .LLSDACSE1371-.LLSDACSB1371
 615              	.LLSDACSB1371:
 616 0005 1F       		.uleb128 .LEHB0-.LFB1371
 617 0006 05       		.uleb128 .LEHE0-.LEHB0
 618 0007 24       		.uleb128 .L58-.LFB1371
 619 0008 03       		.uleb128 0x3
 620 0009 45       		.uleb128 .LEHB1-.LFB1371
 621 000a 2F       		.uleb128 .LEHE1-.LEHB1
 622 000b 00       		.uleb128 0
 623 000c 00       		.uleb128 0
 624              	.LLSDACSE1371:
 625 000d 02       		.byte	0x2
 626 000e 00       		.byte	0
 627 000f 01       		.byte	0x1
 628 0010 7D       		.byte	0x7d
 629 0011 000000   		.align 4
 630 0014 00000000 		.long	0
 631              	
 632 0018 00000000 		.long	_ZTIi
 633              	.LLSDATT1371:
 634              		.text
 636              		.section	.rodata.str1.8
 637 0025 000000   		.align 8
 638              	.LC2:
 639 0028 45787065 		.string	"Expected exception: \"TestException\" not thrown"
 639      63746564 
 639      20657863 
 639      65707469 
 639      6F6E3A20 
 640              		.text
 641              		.align 2
 642 03d6 662E0F1F 		.p2align 4,,15
 642      84000000 
 642      0000
 644              	_ZNK12_GLOBAL__N_145TestCheckThrowMacroSucceedsOnCorrectException7RunImplEv:
 645              	.LFB1350:
 646              		.cfi_startproc
 647              		.cfi_personality 0x3,__gxx_personality_v0
 648              		.cfi_lsda 0x3,.LLSDA1350
 649 03e0 BF010000 		movl	$1, %edi
 649      00
 650 03e5 4883EC28 		subq	$40, %rsp
 651              		.cfi_def_cfa_offset 48
 652 03e9 E8000000 		call	__cxa_allocate_exception
 652      00
 653 03ee 31D2     		xorl	%edx, %edx
 654 03f0 BE000000 		movl	$_ZTIZNK12_GLOBAL__N_145TestCheckThrowMacroSucceedsOnCorrectException7RunImplEvE13TestExcepti
 654      00
 655 03f5 4889C7   		movq	%rax, %rdi
 656              	.LEHB2:
 657 03f8 E8000000 		call	__cxa_throw
 657      00
 658              	.LEHE2:
 659              	.L67:
 660 03fd 4883EA01 		subq	$1, %rdx
 661 0401 4889C7   		movq	%rax, %rdi
 662 0404 750F     		jne	.L68
 663 0406 E8000000 		call	__cxa_begin_catch
 663      00
 664 040b E8000000 		call	__cxa_end_catch
 664      00
 665              	.L62:
 666 0410 4883C428 		addq	$40, %rsp
 667              		.cfi_remember_state
 668              		.cfi_def_cfa_offset 8
 669              		.p2align 4,,1
 670 0414 C3       		ret
 671              	.L68:
 672              		.cfi_restore_state
 673              		.p2align 4,,5
 674 0415 E8000000 		call	__cxa_begin_catch
 674      00
 675              		.p2align 4,,5
 676              	.LEHB3:
 677 041a E8000000 		call	__cxa_end_catch
 677      00
 678 041f 90       		.p2align 4,,5
 679 0420 E8000000 		call	_ZN8UnitTest11CurrentTest7DetailsEv
 679      00
 680 0425 488B30   		movq	(%rax), %rsi
 681 0428 4889E7   		movq	%rsp, %rdi
 682 042b BA3E0000 		movl	$62, %edx
 682      00
 683 0430 E8000000 		call	_ZN8UnitTest11TestDetailsC1ERKS0_i
 683      00
 684 0435 E8000000 		call	_ZN8UnitTest11CurrentTest7ResultsEv
 684      00
 685 043a 488B38   		movq	(%rax), %rdi
 686 043d BA000000 		movl	$.LC2, %edx
 686      00
 687 0442 4889E6   		movq	%rsp, %rsi
 688 0445 E8000000 		call	_ZN8UnitTest11TestResults13OnTestFailureERKNS_11TestDetailsEPKc
 688      00
 689              	.LEHE3:
 690 044a EBC4     		jmp	.L62
 691              		.cfi_endproc
 692              	.LFE1350:
 693              		.section	.gcc_except_table
 694              		.align 4
 695              	.LLSDA1350:
 696 001c FF       		.byte	0xff
 697 001d 03       		.byte	0x3
 698 001e 19       		.uleb128 .LLSDATT1350-.LLSDATTD1350
 699              	.LLSDATTD1350:
 700 001f 01       		.byte	0x1
 701 0020 08       		.uleb128 .LLSDACSE1350-.LLSDACSB1350
 702              	.LLSDACSB1350:
 703 0021 18       		.uleb128 .LEHB2-.LFB1350
 704 0022 05       		.uleb128 .LEHE2-.LEHB2
 705 0023 1D       		.uleb128 .L67-.LFB1350
 706 0024 03       		.uleb128 0x3
 707 0025 3A       		.uleb128 .LEHB3-.LFB1350
 708 0026 30       		.uleb128 .LEHE3-.LEHB3
 709 0027 00       		.uleb128 0
 710 0028 00       		.uleb128 0
 711              	.LLSDACSE1350:
 712 0029 02       		.byte	0x2
 713 002a 00       		.byte	0
 714 002b 01       		.byte	0x1
 715 002c 7D       		.byte	0x7d
 716 002d 000000   		.align 4
 717 0030 00000000 		.long	0
 718              	
 719 0034 00000000 		.long	_ZTIZNK12_GLOBAL__N_145TestCheckThrowMacroSucceedsOnCorrectException7RunImplEvE13TestExcepti
 720              	.LLSDATT1350:
 721              		.text
 723              		.section	.rodata.str1.1
 724              	.LC3:
 725 0005 66696C65 		.string	"file"
 725      00
 726              	.LC4:
 727 000a 64657363 		.string	"desc"
 727      00
 728              		.section	.rodata.str1.8
 729 0057 00       		.align 8
 730              	.LC5:
 731 0058 45787065 		.string	"Expected exception: \"UnitTest::AssertException\" not thrown"
 731      63746564 
 731      20657863 
 731      65707469 
 731      6F6E3A20 
 732              		.text
 733              		.align 2
 734 044c 0F1F4000 		.p2align 4,,15
 736              	_ZNK12_GLOBAL__N_123TestCheckAssertSucceeds7RunImplEv:
 737              	.LFB1354:
 738              		.cfi_startproc
 739              		.cfi_personality 0x3,__gxx_personality_v0
 740              		.cfi_lsda 0x3,.LLSDA1354
 741 0450 4883EC28 		subq	$40, %rsp
 742              		.cfi_def_cfa_offset 48
 743 0454 31D2     		xorl	%edx, %edx
 744 0456 BE000000 		movl	$.LC3, %esi
 744      00
 745 045b BF000000 		movl	$.LC4, %edi
 745      00
 746              	.LEHB4:
 747 0460 E8000000 		call	_ZN8UnitTest12ReportAssertEPKcS1_i
 747      00
 748              	.LEHE4:
 749              	.L71:
 750              	.LEHB5:
 751 0465 E8000000 		call	_ZN8UnitTest11CurrentTest7DetailsEv
 751      00
 752 046a 488B30   		movq	(%rax), %rsi
 753 046d BA430000 		movl	$67, %edx
 753      00
 754 0472 4889E7   		movq	%rsp, %rdi
 755 0475 E8000000 		call	_ZN8UnitTest11TestDetailsC1ERKS0_i
 755      00
 756 047a E8000000 		call	_ZN8UnitTest11CurrentTest7ResultsEv
 756      00
 757 047f 488B38   		movq	(%rax), %rdi
 758 0482 BA000000 		movl	$.LC5, %edx
 758      00
 759 0487 4889E6   		movq	%rsp, %rsi
 760 048a E8000000 		call	_ZN8UnitTest11TestResults13OnTestFailureERKNS_11TestDetailsEPKc
 760      00
 761              	.L70:
 762 048f 4883C428 		addq	$40, %rsp
 763              		.cfi_remember_state
 764              		.cfi_def_cfa_offset 8
 765 0493 C3       		ret
 766              	.L76:
 767              		.cfi_restore_state
 768 0494 4883EA01 		subq	$1, %rdx
 769 0498 4889C7   		movq	%rax, %rdi
 770 049b 750C     		jne	.L77
 771 049d E8000000 		call	__cxa_begin_catch
 771      00
 772 04a2 E8000000 		call	__cxa_end_catch
 772      00
 773              		.p2align 4,,5
 774 04a7 EBE6     		jmp	.L70
 775              	.L77:
 776 04a9 0F1F8000 		.p2align 4,,8
 776      000000
 777 04b0 E8000000 		call	__cxa_begin_catch
 777      00
 778              		.p2align 4,,8
 779 04b5 E8000000 		call	__cxa_end_catch
 779      00
 780              	.LEHE5:
 781              		.p2align 4,,5
 782 04ba EBA9     		jmp	.L71
 783              		.cfi_endproc
 784              	.LFE1354:
 785              		.section	.gcc_except_table
 786              		.align 4
 787              	.LLSDA1354:
 788 0038 FF       		.byte	0xff
 789 0039 03       		.byte	0x3
 790 003a 19       		.uleb128 .LLSDATT1354-.LLSDATTD1354
 791              	.LLSDATTD1354:
 792 003b 01       		.byte	0x1
 793 003c 08       		.uleb128 .LLSDACSE1354-.LLSDACSB1354
 794              	.LLSDACSB1354:
 795 003d 10       		.uleb128 .LEHB4-.LFB1354
 796 003e 05       		.uleb128 .LEHE4-.LEHB4
 797 003f 44       		.uleb128 .L76-.LFB1354
 798 0040 03       		.uleb128 0x3
 799 0041 15       		.uleb128 .LEHB5-.LFB1354
 800 0042 55       		.uleb128 .LEHE5-.LEHB5
 801 0043 00       		.uleb128 0
 802 0044 00       		.uleb128 0
 803              	.LLSDACSE1354:
 804 0045 02       		.byte	0x2
 805 0046 00       		.byte	0
 806 0047 01       		.byte	0x1
 807 0048 7D       		.byte	0x7d
 808 0049 000000   		.align 4
 809 004c 00000000 		.long	0
 810              	
 811 0050 00000000 		.long	_ZTIN8UnitTest15AssertExceptionE
 812              	.LLSDATT1354:
 813              		.text
 815              		.section	.text.unlikely,"ax",@progbits
 817              	_ZStlsISt11char_traitsIcEERSt13basic_ostreamIcT_ES5_PKc.part.7:
 818              	.LFB1632:
 819              		.cfi_startproc
 820 0000 50       		pushq	%rax
 821              		.cfi_def_cfa_offset 16
 822 0001 488B07   		movq	(%rdi), %rax
 823 0004 480378E8 		addq	-24(%rax), %rdi
 824 0008 8B7720   		movl	32(%rdi), %esi
 825 000b 83CE01   		orl	$1, %esi
 826 000e E8000000 		call	_ZNSt9basic_iosIcSt11char_traitsIcEE5clearESt12_Ios_Iostate
 826      00
 827 0013 5A       		popq	%rdx
 828              		.cfi_def_cfa_offset 8
 829 0014 C3       		ret
 830              		.cfi_endproc
 831              	.LFE1632:
 833              		.text
 834              		.align 2
 835 04bc 0F1F4000 		.p2align 4,,15
 837              	_ZNK12_GLOBAL__N_137TestCanCallCHECKOutsideOfTestFunction7RunImplEv:
 838              	.LFB1404:
 839              		.cfi_startproc
 840 04c0 F3C3     		rep ret
 841              		.cfi_endproc
 842              	.LFE1404:
 844              		.section	.text._ZNSt15basic_stringbufIcSt11char_traitsIcESaIcEED2Ev,"axG",@progbits,_ZNSt15basic_s
 845              		.align 2
 846              		.p2align 4,,15
 847              		.weak	_ZNSt15basic_stringbufIcSt11char_traitsIcESaIcEED2Ev
 849              	_ZNSt15basic_stringbufIcSt11char_traitsIcESaIcEED2Ev:
 850              	.LFB1414:
 851              		.cfi_startproc
 852 0000 53       		pushq	%rbx
 853              		.cfi_def_cfa_offset 16
 854              		.cfi_offset 3, -16
 855 0001 4889FB   		movq	%rdi, %rbx
 856 0004 4883EC10 		subq	$16, %rsp
 857              		.cfi_def_cfa_offset 32
 858 0008 488B4748 		movq	72(%rdi), %rax
 859 000c 48C70700 		movq	$_ZTVSt15basic_stringbufIcSt11char_traitsIcESaIcEE+16, (%rdi)
 859      000000
 860 0013 488D78E8 		leaq	-24(%rax), %rdi
 861 0017 4881FF00 		cmpq	$_ZNSs4_Rep20_S_empty_rep_storageE, %rdi
 861      000000
 862 001e 7516     		jne	.L89
 863              	.L84:
 864 0020 488D7B38 		leaq	56(%rbx), %rdi
 865 0024 48C70300 		movq	$_ZTVSt15basic_streambufIcSt11char_traitsIcEE+16, (%rbx)
 865      000000
 866 002b E8000000 		call	_ZNSt6localeD1Ev
 866      00
 867 0030 4883C410 		addq	$16, %rsp
 868              		.cfi_remember_state
 869              		.cfi_def_cfa_offset 16
 870 0034 5B       		popq	%rbx
 871              		.cfi_def_cfa_offset 8
 872 0035 C3       		ret
 873              	.L89:
 874              		.cfi_restore_state
 875 0036 B9000000 		movl	$_ZL28__gthrw___pthread_key_createPjPFvPvE, %ecx
 875      00
 876 003b 488D5710 		leaq	16(%rdi), %rdx
 877 003f 4885C9   		testq	%rcx, %rcx
 878 0042 7417     		je	.L85
 879 0044 83C8FF   		orl	$-1, %eax
 880 0047 F00FC102 		lock xaddl	%eax, (%rdx)
 881              	.L86:
 882 004b 85C0     		testl	%eax, %eax
 883 004d 7FD1     		jg	.L84
 884 004f 488D7424 		leaq	15(%rsp), %rsi
 884      0F
 885 0054 E8000000 		call	_ZNSs4_Rep10_M_destroyERKSaIcE
 885      00
 886 0059 EBC5     		jmp	.L84
 887              	.L85:
 888 005b 8B50F8   		movl	-8(%rax), %edx
 889 005e 8D4AFF   		leal	-1(%rdx), %ecx
 890 0061 8948F8   		movl	%ecx, -8(%rax)
 891 0064 89D0     		movl	%edx, %eax
 892 0066 EBE3     		jmp	.L86
 893              		.cfi_endproc
 894              	.LFE1414:
 896              		.weak	_ZNSt15basic_stringbufIcSt11char_traitsIcESaIcEED1Ev
 897              		.set	_ZNSt15basic_stringbufIcSt11char_traitsIcESaIcEED1Ev,_ZNSt15basic_stringbufIcSt11char_traitsI
 898              		.section	.text._ZNSt15basic_stringbufIcSt11char_traitsIcESaIcEED0Ev,"axG",@progbits,_ZNSt15basic_s
 899              		.align 2
 900              		.p2align 4,,15
 901              		.weak	_ZNSt15basic_stringbufIcSt11char_traitsIcESaIcEED0Ev
 903              	_ZNSt15basic_stringbufIcSt11char_traitsIcESaIcEED0Ev:
 904              	.LFB1416:
 905              		.cfi_startproc
 906 0000 53       		pushq	%rbx
 907              		.cfi_def_cfa_offset 16
 908              		.cfi_offset 3, -16
 909 0001 4889FB   		movq	%rdi, %rbx
 910 0004 4883EC10 		subq	$16, %rsp
 911              		.cfi_def_cfa_offset 32
 912 0008 488B4748 		movq	72(%rdi), %rax
 913 000c 48C70700 		movq	$_ZTVSt15basic_stringbufIcSt11char_traitsIcESaIcEE+16, (%rdi)
 913      000000
 914 0013 488D78E8 		leaq	-24(%rax), %rdi
 915 0017 4881FF00 		cmpq	$_ZNSs4_Rep20_S_empty_rep_storageE, %rdi
 915      000000
 916 001e 751E     		jne	.L97
 917              	.L92:
 918 0020 488D7B38 		leaq	56(%rbx), %rdi
 919 0024 48C70300 		movq	$_ZTVSt15basic_streambufIcSt11char_traitsIcEE+16, (%rbx)
 919      000000
 920 002b E8000000 		call	_ZNSt6localeD1Ev
 920      00
 921 0030 4889DF   		movq	%rbx, %rdi
 922 0033 E8000000 		call	_ZdlPv
 922      00
 923 0038 4883C410 		addq	$16, %rsp
 924              		.cfi_remember_state
 925              		.cfi_def_cfa_offset 16
 926 003c 5B       		popq	%rbx
 927              		.cfi_def_cfa_offset 8
 928 003d C3       		ret
 929              	.L97:
 930              		.cfi_restore_state
 931 003e B9000000 		movl	$_ZL28__gthrw___pthread_key_createPjPFvPvE, %ecx
 931      00
 932 0043 488D5710 		leaq	16(%rdi), %rdx
 933 0047 4885C9   		testq	%rcx, %rcx
 934 004a 7417     		je	.L93
 935 004c 83C8FF   		orl	$-1, %eax
 936 004f F00FC102 		lock xaddl	%eax, (%rdx)
 937              	.L94:
 938 0053 85C0     		testl	%eax, %eax
 939 0055 7FC9     		jg	.L92
 940 0057 488D7424 		leaq	15(%rsp), %rsi
 940      0F
 941 005c E8000000 		call	_ZNSs4_Rep10_M_destroyERKSaIcE
 941      00
 942 0061 EBBD     		jmp	.L92
 943              	.L93:
 944 0063 8B50F8   		movl	-8(%rax), %edx
 945 0066 8D4AFF   		leal	-1(%rdx), %ecx
 946 0069 8948F8   		movl	%ecx, -8(%rax)
 947 006c 89D0     		movl	%edx, %eax
 948 006e EBE3     		jmp	.L94
 949              		.cfi_endproc
 950              	.LFE1416:
 952              		.section	.text._ZN8UnitTest15MemoryOutStreamD1Ev,"axG",@progbits,_ZN8UnitTest15MemoryOutStreamD1Ev
 953              		.align 2
 954              		.p2align 4,,15
 955              		.weak	_ZN8UnitTest15MemoryOutStreamD1Ev
 957              	_ZN8UnitTest15MemoryOutStreamD1Ev:
 958              	.LFB1621:
 959              		.cfi_startproc
 960 0000 53       		pushq	%rbx
 961              		.cfi_def_cfa_offset 16
 962              		.cfi_offset 3, -16
 963 0001 4889FB   		movq	%rdi, %rbx
 964 0004 4883EC10 		subq	$16, %rsp
 965              		.cfi_def_cfa_offset 32
 966 0008 488B4758 		movq	88(%rdi), %rax
 967 000c 48C70700 		movq	$_ZTVN8UnitTest15MemoryOutStreamE+24, (%rdi)
 967      000000
 968 0013 48C74760 		movq	$_ZTVN8UnitTest15MemoryOutStreamE+64, 96(%rdi)
 968      00000000 
 969 001b 488D78E8 		leaq	-24(%rax), %rdi
 970 001f 4881FF00 		cmpq	$_ZNSs4_Rep20_S_empty_rep_storageE, %rdi
 970      000000
 971 0026 7557     		jne	.L110
 972              	.L100:
 973 0028 488B4350 		movq	80(%rbx), %rax
 974 002c 48C70300 		movq	$_ZTCN8UnitTest15MemoryOutStreamE0_St19basic_ostringstreamIcSt11char_traitsIcESaIcEE+24, (%rb
 974      000000
 975 0033 48C74360 		movq	$_ZTCN8UnitTest15MemoryOutStreamE0_St19basic_ostringstreamIcSt11char_traitsIcESaIcEE+64, 96(%
 975      00000000 
 976 003b 48C74308 		movq	$_ZTVSt15basic_stringbufIcSt11char_traitsIcESaIcEE+16, 8(%rbx)
 976      00000000 
 977 0043 488D78E8 		leaq	-24(%rax), %rdi
 978 0047 4881FF00 		cmpq	$_ZNSs4_Rep20_S_empty_rep_storageE, %rdi
 978      000000
 979 004e 7554     		jne	.L111
 980              	.L105:
 981 0050 488D7B40 		leaq	64(%rbx), %rdi
 982 0054 48C74308 		movq	$_ZTVSt15basic_streambufIcSt11char_traitsIcEE+16, 8(%rbx)
 982      00000000 
 983 005c E8000000 		call	_ZNSt6localeD1Ev
 983      00
 984 0061 488D7B60 		leaq	96(%rbx), %rdi
 985 0065 48C70300 		movq	$_ZTCN8UnitTest15MemoryOutStreamE0_So+24, (%rbx)
 985      000000
 986 006c 48C74360 		movq	$_ZTVSt9basic_iosIcSt11char_traitsIcEE+16, 96(%rbx)
 986      00000000 
 987 0074 E8000000 		call	_ZNSt8ios_baseD2Ev
 987      00
 988 0079 4883C410 		addq	$16, %rsp
 989              		.cfi_remember_state
 990              		.cfi_def_cfa_offset 16
 991 007d 5B       		popq	%rbx
 992              		.cfi_def_cfa_offset 8
 993 007e C3       		ret
 994              	.L110:
 995              		.cfi_restore_state
 996 007f B9000000 		movl	$_ZL28__gthrw___pthread_key_createPjPFvPvE, %ecx
 996      00
 997 0084 488D5710 		leaq	16(%rdi), %rdx
 998 0088 4885C9   		testq	%rcx, %rcx
 999 008b 743C     		je	.L101
 1000 008d 83C8FF   		orl	$-1, %eax
 1001 0090 F00FC102 		lock xaddl	%eax, (%rdx)
 1002              	.L102:
 1003 0094 85C0     		testl	%eax, %eax
 1004 0096 7F90     		jg	.L100
 1005 0098 488D7424 		leaq	15(%rsp), %rsi
 1005      0F
 1006 009d E8000000 		call	_ZNSs4_Rep10_M_destroyERKSaIcE
 1006      00
 1007 00a2 EB84     		jmp	.L100
 1008              	.L111:
 1009 00a4 B9000000 		movl	$_ZL28__gthrw___pthread_key_createPjPFvPvE, %ecx
 1009      00
 1010 00a9 488D5710 		leaq	16(%rdi), %rdx
 1011 00ad 4885C9   		testq	%rcx, %rcx
 1012 00b0 7424     		je	.L106
 1013 00b2 83C8FF   		orl	$-1, %eax
 1014 00b5 F00FC102 		lock xaddl	%eax, (%rdx)
 1015              	.L107:
 1016 00b9 85C0     		testl	%eax, %eax
 1017 00bb 7F93     		jg	.L105
 1018 00bd 488D7424 		leaq	15(%rsp), %rsi
 1018      0F
 1019 00c2 E8000000 		call	_ZNSs4_Rep10_M_destroyERKSaIcE
 1019      00
 1020 00c7 EB87     		jmp	.L105
 1021              	.L101:
 1022 00c9 8B50F8   		movl	-8(%rax), %edx
 1023 00cc 8D4AFF   		leal	-1(%rdx), %ecx
 1024 00cf 8948F8   		movl	%ecx, -8(%rax)
 1025 00d2 89D0     		movl	%edx, %eax
 1026 00d4 EBBE     		jmp	.L102
 1027              	.L106:
 1028 00d6 8B50F8   		movl	-8(%rax), %edx
 1029 00d9 8D4AFF   		leal	-1(%rdx), %ecx
 1030 00dc 8948F8   		movl	%ecx, -8(%rax)
 1031 00df 89D0     		movl	%edx, %eax
 1032 00e1 EBD6     		jmp	.L107
 1033              		.cfi_endproc
 1034              	.LFE1621:
 1036              		.set	.LTHUNK0,_ZN8UnitTest15MemoryOutStreamD1Ev
 1037 00e3 66666666 		.p2align 4,,15
 1037      2E0F1F84 
 1037      00000000 
 1037      00
 1038              		.weak	_ZTv0_n24_N8UnitTest15MemoryOutStreamD1Ev
 1040              	_ZTv0_n24_N8UnitTest15MemoryOutStreamD1Ev:
 1041              	.LFB1666:
 1042              		.cfi_startproc
 1043 00f0 4C8B17   		movq	(%rdi), %r10
 1044 00f3 49037AE8 		addq	-24(%r10), %rdi
 1045 00f7 E904FFFF 		jmp	.LTHUNK0
 1045      FF
 1046              		.cfi_endproc
 1047              	.LFE1666:
 1049              		.section	.text._ZN8UnitTest15MemoryOutStreamD0Ev,"axG",@progbits,_ZN8UnitTest15MemoryOutStreamD0Ev
 1050              		.align 2
 1051              		.p2align 4,,15
 1052              		.weak	_ZN8UnitTest15MemoryOutStreamD0Ev
 1054              	_ZN8UnitTest15MemoryOutStreamD0Ev:
 1055              	.LFB1622:
 1056              		.cfi_startproc
 1057 0000 53       		pushq	%rbx
 1058              		.cfi_def_cfa_offset 16
 1059              		.cfi_offset 3, -16
 1060 0001 4889FB   		movq	%rdi, %rbx
 1061 0004 4883EC10 		subq	$16, %rsp
 1062              		.cfi_def_cfa_offset 32
 1063 0008 488B4758 		movq	88(%rdi), %rax
 1064 000c 48C70700 		movq	$_ZTVN8UnitTest15MemoryOutStreamE+24, (%rdi)
 1064      000000
 1065 0013 48C74760 		movq	$_ZTVN8UnitTest15MemoryOutStreamE+64, 96(%rdi)
 1065      00000000 
 1066 001b 488D78E8 		leaq	-24(%rax), %rdi
 1067 001f 4881FF00 		cmpq	$_ZNSs4_Rep20_S_empty_rep_storageE, %rdi
 1067      000000
 1068 0026 755F     		jne	.L124
 1069              	.L114:
 1070 0028 488B4350 		movq	80(%rbx), %rax
 1071 002c 48C70300 		movq	$_ZTCN8UnitTest15MemoryOutStreamE0_St19basic_ostringstreamIcSt11char_traitsIcESaIcEE+24, (%rb
 1071      000000
 1072 0033 48C74360 		movq	$_ZTCN8UnitTest15MemoryOutStreamE0_St19basic_ostringstreamIcSt11char_traitsIcESaIcEE+64, 96(%
 1072      00000000 
 1073 003b 48C74308 		movq	$_ZTVSt15basic_stringbufIcSt11char_traitsIcESaIcEE+16, 8(%rbx)
 1073      00000000 
 1074 0043 488D78E8 		leaq	-24(%rax), %rdi
 1075 0047 4881FF00 		cmpq	$_ZNSs4_Rep20_S_empty_rep_storageE, %rdi
 1075      000000
 1076 004e 755F     		jne	.L125
 1077              	.L119:
 1078 0050 488D7B40 		leaq	64(%rbx), %rdi
 1079 0054 48C74308 		movq	$_ZTVSt15basic_streambufIcSt11char_traitsIcEE+16, 8(%rbx)
 1079      00000000 
 1080 005c E8000000 		call	_ZNSt6localeD1Ev
 1080      00
 1081 0061 488D7B60 		leaq	96(%rbx), %rdi
 1082 0065 48C70300 		movq	$_ZTCN8UnitTest15MemoryOutStreamE0_So+24, (%rbx)
 1082      000000
 1083 006c 48C74360 		movq	$_ZTVSt9basic_iosIcSt11char_traitsIcEE+16, 96(%rbx)
 1083      00000000 
 1084 0074 E8000000 		call	_ZNSt8ios_baseD2Ev
 1084      00
 1085 0079 4889DF   		movq	%rbx, %rdi
 1086 007c E8000000 		call	_ZdlPv
 1086      00
 1087 0081 4883C410 		addq	$16, %rsp
 1088              		.cfi_remember_state
 1089              		.cfi_def_cfa_offset 16
 1090 0085 5B       		popq	%rbx
 1091              		.cfi_def_cfa_offset 8
 1092 0086 C3       		ret
 1093              	.L124:
 1094              		.cfi_restore_state
 1095 0087 B9000000 		movl	$_ZL28__gthrw___pthread_key_createPjPFvPvE, %ecx
 1095      00
 1096 008c 488D5710 		leaq	16(%rdi), %rdx
 1097 0090 4885C9   		testq	%rcx, %rcx
 1098 0093 7442     		je	.L115
 1099 0095 83C8FF   		orl	$-1, %eax
 1100 0098 F00FC102 		lock xaddl	%eax, (%rdx)
 1101              	.L116:
 1102 009c 85C0     		testl	%eax, %eax
 1103 009e 7F88     		jg	.L114
 1104 00a0 488D7424 		leaq	15(%rsp), %rsi
 1104      0F
 1105 00a5 E8000000 		call	_ZNSs4_Rep10_M_destroyERKSaIcE
 1105      00
 1106 00aa E979FFFF 		jmp	.L114
 1106      FF
 1107              	.L125:
 1108 00af B9000000 		movl	$_ZL28__gthrw___pthread_key_createPjPFvPvE, %ecx
 1108      00
 1109 00b4 488D5710 		leaq	16(%rdi), %rdx
 1110 00b8 4885C9   		testq	%rcx, %rcx
 1111 00bb 7427     		je	.L120
 1112 00bd 83C8FF   		orl	$-1, %eax
 1113 00c0 F00FC102 		lock xaddl	%eax, (%rdx)
 1114              	.L121:
 1115 00c4 85C0     		testl	%eax, %eax
 1116 00c6 7F88     		jg	.L119
 1117 00c8 488D7424 		leaq	15(%rsp), %rsi
 1117      0F
 1118 00cd E8000000 		call	_ZNSs4_Rep10_M_destroyERKSaIcE
 1118      00
 1119 00d2 E979FFFF 		jmp	.L119
 1119      FF
 1120              	.L115:
 1121 00d7 8B50F8   		movl	-8(%rax), %edx
 1122 00da 8D4AFF   		leal	-1(%rdx), %ecx
 1123 00dd 8948F8   		movl	%ecx, -8(%rax)
 1124 00e0 89D0     		movl	%edx, %eax
 1125 00e2 EBB8     		jmp	.L116
 1126              	.L120:
 1127 00e4 8B50F8   		movl	-8(%rax), %edx
 1128 00e7 8D4AFF   		leal	-1(%rdx), %ecx
 1129 00ea 8948F8   		movl	%ecx, -8(%rax)
 1130 00ed 89D0     		movl	%edx, %eax
 1131 00ef EBD3     		jmp	.L121
 1132              		.cfi_endproc
 1133              	.LFE1622:
 1135              		.set	.LTHUNK1,_ZN8UnitTest15MemoryOutStreamD0Ev
 1136 00f1 66666666 		.p2align 4,,15
 1136      66662E0F 
 1136      1F840000 
 1136      000000
 1137              		.weak	_ZTv0_n24_N8UnitTest15MemoryOutStreamD0Ev
 1139              	_ZTv0_n24_N8UnitTest15MemoryOutStreamD0Ev:
 1140              	.LFB1667:
 1141              		.cfi_startproc
 1142 0100 4C8B17   		movq	(%rdi), %r10
 1143 0103 49037AE8 		addq	-24(%r10), %rdi
 1144 0107 E9F4FEFF 		jmp	.LTHUNK1
 1144      FF
 1145              		.cfi_endproc
 1146              	.LFE1667:
 1148              		.section	.rodata.str1.8
 1149 0093 00000000 		.align 8
 1149      00
 1150              	.LC6:
 1151 0098 556E6861 		.string	"Unhandled exception in CHECK_EQUAL((void*)0, p)"
 1151      6E646C65 
 1151      64206578 
 1151      63657074 
 1151      696F6E20 
 1152              		.text
 1153              		.align 2
 1154 04c2 66666666 		.p2align 4,,15
 1154      662E0F1F 
 1154      84000000 
 1154      0000
 1156              	_ZNK12_GLOBAL__N_131TestCheckEqualWorksWithPointers7RunImplEv:
 1157              	.LFB1334:
 1158              		.cfi_startproc
 1159              		.cfi_personality 0x3,__gxx_personality_v0
 1160              		.cfi_lsda 0x3,.LLSDA1334
 1161 04d0 53       		pushq	%rbx
 1162              		.cfi_def_cfa_offset 16
 1163              		.cfi_offset 3, -16
 1164 04d1 4883EC20 		subq	$32, %rsp
 1165              		.cfi_def_cfa_offset 48
 1166              	.LEHB6:
 1167 04d5 E8000000 		call	_ZN8UnitTest11CurrentTest7DetailsEv
 1167      00
 1168 04da 488B30   		movq	(%rax), %rsi
 1169 04dd BA220000 		movl	$34, %edx
 1169      00
 1170 04e2 4889E7   		movq	%rsp, %rdi
 1171 04e5 E8000000 		call	_ZN8UnitTest11TestDetailsC1ERKS0_i
 1171      00
 1172 04ea E8000000 		call	_ZN8UnitTest11CurrentTest7ResultsEv
 1172      00
 1173              	.LEHE6:
 1174              	.L126:
 1175 04ef 4883C420 		addq	$32, %rsp
 1176              		.cfi_remember_state
 1177              		.cfi_def_cfa_offset 16
 1178 04f3 5B       		popq	%rbx
 1179              		.cfi_def_cfa_offset 8
 1180 04f4 C3       		ret
 1181              	.L130:
 1182              		.cfi_restore_state
 1183 04f5 4889C7   		movq	%rax, %rdi
 1184 04f8 E8000000 		call	__cxa_begin_catch
 1184      00
 1185              	.LEHB7:
 1186 04fd E8000000 		call	_ZN8UnitTest11CurrentTest7DetailsEv
 1186      00
 1187 0502 488B30   		movq	(%rax), %rsi
 1188 0505 BA220000 		movl	$34, %edx
 1188      00
 1189 050a 4889E7   		movq	%rsp, %rdi
 1190 050d E8000000 		call	_ZN8UnitTest11TestDetailsC1ERKS0_i
 1190      00
 1191 0512 E8000000 		call	_ZN8UnitTest11CurrentTest7ResultsEv
 1191      00
 1192 0517 488B38   		movq	(%rax), %rdi
 1193 051a BA000000 		movl	$.LC6, %edx
 1193      00
 1194 051f 4889E6   		movq	%rsp, %rsi
 1195 0522 E8000000 		call	_ZN8UnitTest11TestResults13OnTestFailureERKNS_11TestDetailsEPKc
 1195      00
 1196              	.LEHE7:
 1197              	.LEHB8:
 1198 0527 E8000000 		call	__cxa_end_catch
 1198      00
 1199              	.LEHE8:
 1200 052c EBC1     		jmp	.L126
 1201              	.L131:
 1202 052e 4889C3   		movq	%rax, %rbx
 1203              		.p2align 4,,5
 1204 0531 E8000000 		call	__cxa_end_catch
 1204      00
 1205 0536 4889DF   		movq	%rbx, %rdi
 1206              	.LEHB9:
 1207 0539 E8000000 		call	_Unwind_Resume
 1207      00
 1208              	.LEHE9:
 1209              		.cfi_endproc
 1210              	.LFE1334:
 1211              		.section	.gcc_except_table
 1212              		.align 4
 1213              	.LLSDA1334:
 1214 0054 FF       		.byte	0xff
 1215 0055 03       		.byte	0x3
 1216 0056 19       		.uleb128 .LLSDATT1334-.LLSDATTD1334
 1217              	.LLSDATTD1334:
 1218 0057 01       		.byte	0x1
 1219 0058 10       		.uleb128 .LLSDACSE1334-.LLSDACSB1334
 1220              	.LLSDACSB1334:
 1221 0059 05       		.uleb128 .LEHB6-.LFB1334
 1222 005a 1A       		.uleb128 .LEHE6-.LEHB6
 1223 005b 25       		.uleb128 .L130-.LFB1334
 1224 005c 01       		.uleb128 0x1
 1225 005d 2D       		.uleb128 .LEHB7-.LFB1334
 1226 005e 2A       		.uleb128 .LEHE7-.LEHB7
 1227 005f 5E       		.uleb128 .L131-.LFB1334
 1228 0060 00       		.uleb128 0
 1229 0061 57       		.uleb128 .LEHB8-.LFB1334
 1230 0062 05       		.uleb128 .LEHE8-.LEHB8
 1231 0063 00       		.uleb128 0
 1232 0064 00       		.uleb128 0
 1233 0065 69       		.uleb128 .LEHB9-.LFB1334
 1234 0066 05       		.uleb128 .LEHE9-.LEHB9
 1235 0067 00       		.uleb128 0
 1236 0068 00       		.uleb128 0
 1237              	.LLSDACSE1334:
 1238 0069 01       		.byte	0x1
 1239 006a 00       		.byte	0
 1240 006b 00       		.align 4
 1241 006c 00000000 		.long	0
 1242              	
 1243              	.LLSDATT1334:
 1244              		.text
 1246              		.section	.rodata.str1.1
 1247              	.LC12:
 1248 000f 45787065 		.string	"Expected [ "
 1248      63746564 
 1248      205B2000 
 1249              	.LC13:
 1250 001b 2000     		.string	" "
 1251              	.LC14:
 1252 001d 5D202B2F 		.string	"] +/- "
 1252      2D2000
 1253              	.LC16:
 1254 0024 20627574 		.string	" but was [ "
 1254      20776173 
 1254      205B2000 
 1255              	.LC17:
 1256 0030 5D00     		.string	"]"
 1257              		.section	.rodata.str1.8
 1258              		.align 8
 1259              	.LC18:
 1260 00c8 556E6861 		.string	"Unhandled exception in CHECK_ARRAY_CLOSE(a1, a2)"
 1260      6E646C65 
 1260      64206578 
 1260      63657074 
 1260      696F6E20 
 1261              		.text
 1262              		.align 2
 1263 053e 6690     		.p2align 4,,15
 1265              	_ZNK12_GLOBAL__N_122TestArrayCloseSucceeds7RunImplEv:
 1266              	.LFB1342:
 1267              		.cfi_startproc
 1268              		.cfi_personality 0x3,__gxx_personality_v0
 1269              		.cfi_lsda 0x3,.LLSDA1342
 1270 0540 4155     		pushq	%r13
 1271              		.cfi_def_cfa_offset 16
 1272              		.cfi_offset 13, -16
 1273 0542 4154     		pushq	%r12
 1274              		.cfi_def_cfa_offset 24
 1275              		.cfi_offset 12, -24
 1276 0544 55       		pushq	%rbp
 1277              		.cfi_def_cfa_offset 32
 1278              		.cfi_offset 6, -32
 1279 0545 53       		pushq	%rbx
 1280              		.cfi_def_cfa_offset 40
 1281              		.cfi_offset 3, -40
 1282 0546 4881ECC8 		subq	$456, %rsp
 1282      010000
 1283              		.cfi_def_cfa_offset 496
 1284 054d C7442410 		movl	$0x3f800000, 16(%rsp)
 1284      0000803F 
 1285 0555 C7442414 		movl	$0x40000000, 20(%rsp)
 1285      00000040 
 1286 055d C7442418 		movl	$0x40400000, 24(%rsp)
 1286      00004040 
 1287 0565 C7442420 		movl	$0x3f800000, 32(%rsp)
 1287      0000803F 
 1288 056d C7442424 		movl	$0x4000a3d7, 36(%rsp)
 1288      D7A30040 
 1289 0575 C7442428 		movl	$0x40400000, 40(%rsp)
 1289      00004040 
 1290              	.LEHB10:
 1291 057d E8000000 		call	_ZN8UnitTest11CurrentTest7DetailsEv
 1291      00
 1292 0582 488D6C24 		leaq	48(%rsp), %rbp
 1292      30
 1293 0587 488B30   		movq	(%rax), %rsi
 1294 058a BA2F0000 		movl	$47, %edx
 1294      00
 1295 058f 4889EF   		movq	%rbp, %rdi
 1296 0592 E8000000 		call	_ZN8UnitTest11TestDetailsC1ERKS0_i
 1296      00
 1297 0597 E8000000 		call	_ZN8UnitTest11CurrentTest7ResultsEv
 1297      00
 1298              	.LEHE10:
 1299 059c F30F1054 		movss	16(%rsp), %xmm2
 1299      2410
 1300 05a2 4C8B20   		movq	(%rax), %r12
 1301 05a5 0F28DA   		movaps	%xmm2, %xmm3
 1302 05a8 31C0     		xorl	%eax, %eax
 1303 05aa F30F1005 		movss	.LC11(%rip), %xmm0
 1303      00000000 
 1304 05b2 F30F5CD8 		subss	%xmm0, %xmm3
 1305 05b6 F30F104C 		movss	32(%rsp), %xmm1
 1305      2420
 1306 05bc 0F2ECB   		ucomiss	%xmm3, %xmm1
 1307 05bf 720A     		jb	.L134
 1308 05c1 F30F58D0 		addss	%xmm0, %xmm2
 1309 05c5 0F2ED1   		ucomiss	%xmm1, %xmm2
 1310 05c8 0F93C0   		setnb	%al
 1311              	.L134:
 1312 05cb F30F1054 		movss	20(%rsp), %xmm2
 1312      2414
 1313 05d1 0F28DA   		movaps	%xmm2, %xmm3
 1314 05d4 F30F104C 		movss	36(%rsp), %xmm1
 1314      2424
 1315 05da F30F5CD8 		subss	%xmm0, %xmm3
 1316 05de 0F2ECB   		ucomiss	%xmm3, %xmm1
 1317 05e1 0F820103 		jb	.L178
 1317      0000
 1318 05e7 F30F58D0 		addss	%xmm0, %xmm2
 1319 05eb BA000000 		movl	$0, %edx
 1319      00
 1320 05f0 0F2ED1   		ucomiss	%xmm1, %xmm2
 1321 05f3 0F42C2   		cmovb	%edx, %eax
 1322              	.L136:
 1323 05f6 F30F1054 		movss	24(%rsp), %xmm2
 1323      2418
 1324 05fc 0F28DA   		movaps	%xmm2, %xmm3
 1325 05ff F30F104C 		movss	40(%rsp), %xmm1
 1325      2428
 1326 0605 F30F5CD8 		subss	%xmm0, %xmm3
 1327 0609 0F2ECB   		ucomiss	%xmm3, %xmm1
 1328 060c 0F83DE02 		jnb	.L183
 1328      0000
 1329              	.L139:
 1330 0612 488D9C24 		leaq	176(%rsp), %rbx
 1330      B0000000 
 1331 061a 4889DF   		movq	%rbx, %rdi
 1332 061d E8000000 		call	_ZNSt8ios_baseC2Ev
 1332      00
 1333 0622 31F6     		xorl	%esi, %esi
 1334 0624 4889DF   		movq	%rbx, %rdi
 1335 0627 48C78424 		movq	$0, 392(%rsp)
 1335      88010000 
 1335      00000000 
 1336 0633 C6842490 		movb	$0, 400(%rsp)
 1336      01000000 
 1337 063b C6842491 		movb	$0, 401(%rsp)
 1337      01000000 
 1338 0643 48C78424 		movq	$0, 408(%rsp)
 1338      98010000 
 1338      00000000 
 1339 064f 48C78424 		movq	$0, 416(%rsp)
 1339      A0010000 
 1339      00000000 
 1340 065b 48C78424 		movq	$0, 424(%rsp)
 1340      A8010000 
 1340      00000000 
 1341 0667 48C78424 		movq	$0, 432(%rsp)
 1341      B0010000 
 1341      00000000 
 1342 0673 48C74424 		movq	$_ZTCN8UnitTest15MemoryOutStreamE0_So+24, 80(%rsp)
 1342      50000000 
 1342      00
 1343 067c 48C78424 		movq	$_ZTCN8UnitTest15MemoryOutStreamE0_So+64, 176(%rsp)
 1343      B0000000 
 1343      00000000 
 1344              	.LEHB11:
 1345 0688 E8000000 		call	_ZNSt9basic_iosIcSt11char_traitsIcEE4initEPSt15basic_streambufIcS1_E
 1345      00
 1346              	.LEHE11:
 1347 068d 488DBC24 		leaq	144(%rsp), %rdi
 1347      90000000 
 1348 0695 48C74424 		movq	$_ZTCN8UnitTest15MemoryOutStreamE0_St19basic_ostringstreamIcSt11char_traitsIcESaIcEE+24, 80(%
 1348      50000000 
 1348      00
 1349 069e 48C78424 		movq	$_ZTCN8UnitTest15MemoryOutStreamE0_St19basic_ostringstreamIcSt11char_traitsIcESaIcEE+64, 176(
 1349      B0000000 
 1349      00000000 
 1350 06aa 48C74424 		movq	$_ZTVSt15basic_streambufIcSt11char_traitsIcEE+16, 88(%rsp)
 1350      58000000 
 1350      00
 1351 06b3 48C74424 		movq	$0, 96(%rsp)
 1351      60000000 
 1351      00
 1352 06bc 48C74424 		movq	$0, 104(%rsp)
 1352      68000000 
 1352      00
 1353 06c5 48C74424 		movq	$0, 112(%rsp)
 1353      70000000 
 1353      00
 1354 06ce 48C74424 		movq	$0, 120(%rsp)
 1354      78000000 
 1354      00
 1355 06d7 48C78424 		movq	$0, 128(%rsp)
 1355      80000000 
 1355      00000000 
 1356 06e3 48C78424 		movq	$0, 136(%rsp)
 1356      88000000 
 1356      00000000 
 1357 06ef E8000000 		call	_ZNSt6localeC1Ev
 1357      00
 1358 06f4 488B4424 		movq	80(%rsp), %rax
 1358      50
 1359 06f9 488D7C24 		leaq	80(%rsp), %rdi
 1359      50
 1360 06fe 488D7424 		leaq	88(%rsp), %rsi
 1360      58
 1361 0703 48C74424 		movq	$_ZTVSt15basic_stringbufIcSt11char_traitsIcESaIcEE+16, 88(%rsp)
 1361      58000000 
 1361      00
 1362 070c C7842498 		movl	$16, 152(%rsp)
 1362      00000010 
 1362      000000
 1363 0717 48C78424 		movq	$_ZNSs4_Rep20_S_empty_rep_storageE+24, 160(%rsp)
 1363      A0000000 
 1363      00000000 
 1364 0723 480378E8 		addq	-24(%rax), %rdi
 1365              	.LEHB12:
 1366 0727 E8000000 		call	_ZNSt9basic_iosIcSt11char_traitsIcEE4initEPSt15basic_streambufIcS1_E
 1366      00
 1367              	.LEHE12:
 1368 072c 488D7C24 		leaq	80(%rsp), %rdi
 1368      50
 1369 0731 BA0B0000 		movl	$11, %edx
 1369      00
 1370 0736 BE000000 		movl	$.LC12, %esi
 1370      00
 1371 073b 48C74424 		movq	$_ZTVN8UnitTest15MemoryOutStreamE+24, 80(%rsp)
 1371      50000000 
 1371      00
 1372 0744 48C78424 		movq	$_ZTVN8UnitTest15MemoryOutStreamE+64, 176(%rsp)
 1372      B0000000 
 1372      00000000 
 1373 0750 48C78424 		movq	$_ZNSs4_Rep20_S_empty_rep_storageE+24, 168(%rsp)
 1373      A8000000 
 1373      00000000 
 1374              	.LEHB13:
 1375 075c E8000000 		call	_ZSt16__ostream_insertIcSt11char_traitsIcEERSt13basic_ostreamIT_T0_ES6_PKS3_l
 1375      00
 1376 0761 488D5C24 		leaq	16(%rsp), %rbx
 1376      10
 1377 0766 4C8D6B0C 		leaq	12(%rbx), %r13
 1378 076a 660F1F44 		.p2align 4,,10
 1378      0000
 1379              		.p2align 3
 1380              	.L149:
 1381 0770 F30F1003 		movss	(%rbx), %xmm0
 1382 0774 488D7C24 		leaq	80(%rsp), %rdi
 1382      50
 1383 0779 0F5AC0   		cvtps2pd	%xmm0, %xmm0
 1384 077c E8000000 		call	_ZNSo9_M_insertIdEERSoT_
 1384      00
 1385 0781 BA010000 		movl	$1, %edx
 1385      00
 1386 0786 BE000000 		movl	$.LC13, %esi
 1386      00
 1387 078b 4889C7   		movq	%rax, %rdi
 1388 078e E8000000 		call	_ZSt16__ostream_insertIcSt11char_traitsIcEERSt13basic_ostreamIT_T0_ES6_PKS3_l
 1388      00
 1389 0793 4883C304 		addq	$4, %rbx
 1390 0797 4C39EB   		cmpq	%r13, %rbx
 1391 079a 75D4     		jne	.L149
 1392 079c 488D7C24 		leaq	80(%rsp), %rdi
 1392      50
 1393 07a1 BA060000 		movl	$6, %edx
 1393      00
 1394 07a6 BE000000 		movl	$.LC14, %esi
 1394      00
 1395 07ab E8000000 		call	_ZSt16__ostream_insertIcSt11char_traitsIcEERSt13basic_ostreamIT_T0_ES6_PKS3_l
 1395      00
 1396 07b0 F20F1005 		movsd	.LC15(%rip), %xmm0
 1396      00000000 
 1397 07b8 488D7C24 		leaq	80(%rsp), %rdi
 1397      50
 1398 07bd E8000000 		call	_ZNSo9_M_insertIdEERSoT_
 1398      00
 1399 07c2 BA0B0000 		movl	$11, %edx
 1399      00
 1400 07c7 BE000000 		movl	$.LC16, %esi
 1400      00
 1401 07cc 4889C7   		movq	%rax, %rdi
 1402 07cf E8000000 		call	_ZSt16__ostream_insertIcSt11char_traitsIcEERSt13basic_ostreamIT_T0_ES6_PKS3_l
 1402      00
 1403 07d4 488D5C24 		leaq	32(%rsp), %rbx
 1403      20
 1404 07d9 4C8D6B0C 		leaq	12(%rbx), %r13
 1405 07dd 0F1F00   		.p2align 4,,10
 1406              		.p2align 3
 1407              	.L151:
 1408 07e0 F30F1003 		movss	(%rbx), %xmm0
 1409 07e4 488D7C24 		leaq	80(%rsp), %rdi
 1409      50
 1410 07e9 0F5AC0   		cvtps2pd	%xmm0, %xmm0
 1411 07ec E8000000 		call	_ZNSo9_M_insertIdEERSoT_
 1411      00
 1412 07f1 BA010000 		movl	$1, %edx
 1412      00
 1413 07f6 BE000000 		movl	$.LC13, %esi
 1413      00
 1414 07fb 4889C7   		movq	%rax, %rdi
 1415 07fe E8000000 		call	_ZSt16__ostream_insertIcSt11char_traitsIcEERSt13basic_ostreamIT_T0_ES6_PKS3_l
 1415      00
 1416 0803 4883C304 		addq	$4, %rbx
 1417 0807 4C39EB   		cmpq	%r13, %rbx
 1418 080a 75D4     		jne	.L151
 1419 080c 488D7C24 		leaq	80(%rsp), %rdi
 1419      50
 1420 0811 BA010000 		movl	$1, %edx
 1420      00
 1421 0816 BE000000 		movl	$.LC17, %esi
 1421      00
 1422 081b E8000000 		call	_ZSt16__ostream_insertIcSt11char_traitsIcEERSt13basic_ostreamIT_T0_ES6_PKS3_l
 1422      00
 1423 0820 488D7C24 		leaq	80(%rsp), %rdi
 1423      50
 1424 0825 E8000000 		call	_ZNK8UnitTest15MemoryOutStream7GetTextEv
 1424      00
 1425 082a 4889C2   		movq	%rax, %rdx
 1426 082d 4889EE   		movq	%rbp, %rsi
 1427 0830 4C89E7   		movq	%r12, %rdi
 1428 0833 E8000000 		call	_ZN8UnitTest11TestResults13OnTestFailureERKNS_11TestDetailsEPKc
 1428      00
 1429              	.LEHE13:
 1430 0838 488B8424 		movq	168(%rsp), %rax
 1430      A8000000 
 1431 0840 48C74424 		movq	$_ZTVN8UnitTest15MemoryOutStreamE+24, 80(%rsp)
 1431      50000000 
 1431      00
 1432 0849 48C78424 		movq	$_ZTVN8UnitTest15MemoryOutStreamE+64, 176(%rsp)
 1432      B0000000 
 1432      00000000 
 1433 0855 488D78E8 		leaq	-24(%rax), %rdi
 1434 0859 4881FF00 		cmpq	$_ZNSs4_Rep20_S_empty_rep_storageE, %rdi
 1434      000000
 1435 0860 0F85AD00 		jne	.L184
 1435      0000
 1436              	.L153:
 1437 0866 488B8424 		movq	160(%rsp), %rax
 1437      A0000000 
 1438 086e 48C74424 		movq	$_ZTCN8UnitTest15MemoryOutStreamE0_St19basic_ostringstreamIcSt11char_traitsIcESaIcEE+24, 80(%
 1438      50000000 
 1438      00
 1439 0877 48C78424 		movq	$_ZTCN8UnitTest15MemoryOutStreamE0_St19basic_ostringstreamIcSt11char_traitsIcESaIcEE+64, 176(
 1439      B0000000 
 1439      00000000 
 1440 0883 48C74424 		movq	$_ZTVSt15basic_stringbufIcSt11char_traitsIcESaIcEE+16, 88(%rsp)
 1440      58000000 
 1440      00
 1441 088c 488D78E8 		leaq	-24(%rax), %rdi
 1442 0890 4881FF00 		cmpq	$_ZNSs4_Rep20_S_empty_rep_storageE, %rdi
 1442      000000
 1443 0897 0F85A400 		jne	.L185
 1443      0000
 1444              	.L158:
 1445 089d 488DBC24 		leaq	144(%rsp), %rdi
 1445      90000000 
 1446 08a5 48C74424 		movq	$_ZTVSt15basic_streambufIcSt11char_traitsIcEE+16, 88(%rsp)
 1446      58000000 
 1446      00
 1447 08ae E8000000 		call	_ZNSt6localeD1Ev
 1447      00
 1448 08b3 488D4424 		leaq	80(%rsp), %rax
 1448      50
 1449 08b8 48C74424 		movq	$_ZTCN8UnitTest15MemoryOutStreamE0_So+24, 80(%rsp)
 1449      50000000 
 1449      00
 1450 08c1 48C78424 		movq	$_ZTVSt9basic_iosIcSt11char_traitsIcEE+16, 176(%rsp)
 1450      B0000000 
 1450      00000000 
 1451 08cd 488D7860 		leaq	96(%rax), %rdi
 1452              	.LEHB14:
 1453 08d1 E8000000 		call	_ZNSt8ios_baseD2Ev
 1453      00
 1454              	.LEHE14:
 1455              	.L133:
 1456 08d6 4881C4C8 		addq	$456, %rsp
 1456      010000
 1457              		.cfi_remember_state
 1458              		.cfi_def_cfa_offset 40
 1459 08dd 5B       		popq	%rbx
 1460              		.cfi_def_cfa_offset 32
 1461 08de 5D       		popq	%rbp
 1462              		.cfi_def_cfa_offset 24
 1463 08df 415C     		popq	%r12
 1464              		.cfi_def_cfa_offset 16
 1465 08e1 415D     		popq	%r13
 1466              		.cfi_def_cfa_offset 8
 1467 08e3 C3       		ret
 1468              		.p2align 4,,10
 1469 08e4 0F1F4000 		.p2align 3
 1470              	.L178:
 1471              		.cfi_restore_state
 1472 08e8 31C0     		xorl	%eax, %eax
 1473 08ea E907FDFF 		jmp	.L136
 1473      FF
 1474 08ef 90       		.p2align 4,,10
 1475              		.p2align 3
 1476              	.L183:
 1477 08f0 F30F58C2 		addss	%xmm2, %xmm0
 1478 08f4 0F2EC1   		ucomiss	%xmm1, %xmm0
 1479 08f7 0F8215FD 		jb	.L139
 1479      FFFF
 1480 08fd 84C0     		testb	%al, %al
 1481 08ff 0F840DFD 		je	.L139
 1481      FFFF
 1482 0905 4881C4C8 		addq	$456, %rsp
 1482      010000
 1483              		.cfi_remember_state
 1484              		.cfi_def_cfa_offset 40
 1485 090c 5B       		popq	%rbx
 1486              		.cfi_def_cfa_offset 32
 1487 090d 5D       		popq	%rbp
 1488              		.cfi_def_cfa_offset 24
 1489 090e 415C     		popq	%r12
 1490              		.cfi_def_cfa_offset 16
 1491 0910 415D     		popq	%r13
 1492              		.cfi_def_cfa_offset 8
 1493 0912 C3       		ret
 1494              	.L184:
 1495              		.cfi_restore_state
 1496 0913 B9000000 		movl	$_ZL28__gthrw___pthread_key_createPjPFvPvE, %ecx
 1496      00
 1497 0918 488D5710 		leaq	16(%rdi), %rdx
 1498 091c 4885C9   		testq	%rcx, %rcx
 1499 091f 744E     		je	.L154
 1500 0921 B8FFFFFF 		movl	$-1, %eax
 1500      FF
 1501 0926 F00FC102 		lock xaddl	%eax, (%rdx)
 1502              	.L155:
 1503 092a 85C0     		testl	%eax, %eax
 1504 092c 0F8F34FF 		jg	.L153
 1504      FFFF
 1505 0932 488D7424 		leaq	15(%rsp), %rsi
 1505      0F
 1506 0937 E8000000 		call	_ZNSs4_Rep10_M_destroyERKSaIcE
 1506      00
 1507 093c E925FFFF 		jmp	.L153
 1507      FF
 1508              	.L185:
 1509 0941 B9000000 		movl	$_ZL28__gthrw___pthread_key_createPjPFvPvE, %ecx
 1509      00
 1510 0946 488D5710 		leaq	16(%rdi), %rdx
 1511 094a 4885C9   		testq	%rcx, %rcx
 1512 094d 742D     		je	.L159
 1513 094f B8FFFFFF 		movl	$-1, %eax
 1513      FF
 1514 0954 F00FC102 		lock xaddl	%eax, (%rdx)
 1515              	.L160:
 1516 0958 85C0     		testl	%eax, %eax
 1517 095a 0F8F3DFF 		jg	.L158
 1517      FFFF
 1518 0960 488D7424 		leaq	15(%rsp), %rsi
 1518      0F
 1519 0965 E8000000 		call	_ZNSs4_Rep10_M_destroyERKSaIcE
 1519      00
 1520 096a E92EFFFF 		jmp	.L158
 1520      FF
 1521              	.L154:
 1522 096f 8B50F8   		movl	-8(%rax), %edx
 1523 0972 8D4AFF   		leal	-1(%rdx), %ecx
 1524 0975 8948F8   		movl	%ecx, -8(%rax)
 1525 0978 89D0     		movl	%edx, %eax
 1526 097a EBAE     		jmp	.L155
 1527              	.L159:
 1528 097c 8B50F8   		movl	-8(%rax), %edx
 1529 097f 8D4AFF   		leal	-1(%rdx), %ecx
 1530 0982 8948F8   		movl	%ecx, -8(%rax)
 1531 0985 89D0     		movl	%edx, %eax
 1532 0987 EBCF     		jmp	.L160
 1533              	.L170:
 1534 0989 488D7C24 		leaq	80(%rsp), %rdi
 1534      50
 1535 098e 4889C3   		movq	%rax, %rbx
 1536 0991 E8000000 		call	_ZN8UnitTest15MemoryOutStreamD1Ev
 1536      00
 1537 0996 4889D8   		movq	%rbx, %rax
 1538              	.L147:
 1539 0999 4889C7   		movq	%rax, %rdi
 1540 099c E8000000 		call	__cxa_begin_catch
 1540      00
 1541              	.LEHB15:
 1542 09a1 E8000000 		call	_ZN8UnitTest11CurrentTest7DetailsEv
 1542      00
 1543 09a6 488D6C24 		leaq	48(%rsp), %rbp
 1543      30
 1544 09ab 488B30   		movq	(%rax), %rsi
 1545 09ae BA2F0000 		movl	$47, %edx
 1545      00
 1546 09b3 4889EF   		movq	%rbp, %rdi
 1547 09b6 E8000000 		call	_ZN8UnitTest11TestDetailsC1ERKS0_i
 1547      00
 1548 09bb E8000000 		call	_ZN8UnitTest11CurrentTest7ResultsEv
 1548      00
 1549 09c0 488B38   		movq	(%rax), %rdi
 1550 09c3 BA000000 		movl	$.LC18, %edx
 1550      00
 1551 09c8 4889EE   		movq	%rbp, %rsi
 1552 09cb E8000000 		call	_ZN8UnitTest11TestResults13OnTestFailureERKNS_11TestDetailsEPKc
 1552      00
 1553              	.LEHE15:
 1554              	.LEHB16:
 1555 09d0 E8000000 		call	__cxa_end_catch
 1555      00
 1556              	.LEHE16:
 1557 09d5 E9FCFEFF 		jmp	.L133
 1557      FF
 1558              	.L168:
 1559 09da 660F1F44 		.p2align 4,,8
 1559      0000
 1560 09e0 EBB7     		jmp	.L147
 1561              	.L169:
 1562 09e2 4889C3   		movq	%rax, %rbx
 1563              		.p2align 4,,8
 1564 09e5 E8000000 		call	__cxa_end_catch
 1564      00
 1565 09ea 4889DF   		movq	%rbx, %rdi
 1566              	.LEHB17:
 1567 09ed E8000000 		call	_Unwind_Resume
 1567      00
 1568              	.LEHE17:
 1569              	.L172:
 1570 09f2 488D7C24 		leaq	88(%rsp), %rdi
 1570      58
 1571 09f7 4889C3   		movq	%rax, %rbx
 1572 09fa E8000000 		call	_ZNSt15basic_stringbufIcSt11char_traitsIcESaIcEED1Ev
 1572      00
 1573 09ff 48C74424 		movq	$_ZTCN8UnitTest15MemoryOutStreamE0_So+24, 80(%rsp)
 1573      50000000 
 1573      00
 1574              	.L145:
 1575 0a08 488DBC24 		leaq	176(%rsp), %rdi
 1575      B0000000 
 1576 0a10 48C78424 		movq	$_ZTVSt9basic_iosIcSt11char_traitsIcEE+16, 176(%rsp)
 1576      B0000000 
 1576      00000000 
 1577 0a1c E8000000 		call	_ZNSt8ios_baseD2Ev
 1577      00
 1578 0a21 4889D8   		movq	%rbx, %rax
 1579 0a24 E970FFFF 		jmp	.L147
 1579      FF
 1580              	.L171:
 1581 0a29 4889C3   		movq	%rax, %rbx
 1582 0a2c EBDA     		jmp	.L145
 1583              		.cfi_endproc
 1584              	.LFE1342:
 1585              		.section	.gcc_except_table
 1586              		.align 4
 1587              	.LLSDA1342:
 1588 0070 FF       		.byte	0xff
 1589 0071 03       		.byte	0x3
 1590 0072 39       		.uleb128 .LLSDATT1342-.LLSDATTD1342
 1591              	.LLSDATTD1342:
 1592 0073 01       		.byte	0x1
 1593 0074 2E       		.uleb128 .LLSDACSE1342-.LLSDACSB1342
 1594              	.LLSDACSB1342:
 1595 0075 3D       		.uleb128 .LEHB10-.LFB1342
 1596 0076 1F       		.uleb128 .LEHE10-.LEHB10
 1597 0077 9A09     		.uleb128 .L168-.LFB1342
 1598 0079 01       		.uleb128 0x1
 1599 007a C802     		.uleb128 .LEHB11-.LFB1342
 1600 007c 05       		.uleb128 .LEHE11-.LEHB11
 1601 007d E909     		.uleb128 .L171-.LFB1342
 1602 007f 03       		.uleb128 0x3
 1603 0080 E703     		.uleb128 .LEHB12-.LFB1342
 1604 0082 05       		.uleb128 .LEHE12-.LEHB12
 1605 0083 B209     		.uleb128 .L172-.LFB1342
 1606 0085 03       		.uleb128 0x3
 1607 0086 9C04     		.uleb128 .LEHB13-.LFB1342
 1608 0088 DC01     		.uleb128 .LEHE13-.LEHB13
 1609 008a C908     		.uleb128 .L170-.LFB1342
 1610 008c 03       		.uleb128 0x3
 1611 008d 9107     		.uleb128 .LEHB14-.LFB1342
 1612 008f 05       		.uleb128 .LEHE14-.LEHB14
 1613 0090 9A09     		.uleb128 .L168-.LFB1342
 1614 0092 01       		.uleb128 0x1
 1615 0093 E108     		.uleb128 .LEHB15-.LFB1342
 1616 0095 2F       		.uleb128 .LEHE15-.LEHB15
 1617 0096 A209     		.uleb128 .L169-.LFB1342
 1618 0098 00       		.uleb128 0
 1619 0099 9009     		.uleb128 .LEHB16-.LFB1342
 1620 009b 05       		.uleb128 .LEHE16-.LEHB16
 1621 009c 00       		.uleb128 0
 1622 009d 00       		.uleb128 0
 1623 009e AD09     		.uleb128 .LEHB17-.LFB1342
 1624 00a0 05       		.uleb128 .LEHE17-.LEHB17
 1625 00a1 00       		.uleb128 0
 1626 00a2 00       		.uleb128 0
 1627              	.LLSDACSE1342:
 1628 00a3 01       		.byte	0x1
 1629 00a4 00       		.byte	0
 1630 00a5 00       		.byte	0
 1631 00a6 7D       		.byte	0x7d
 1632 00a7 00       		.align 4
 1633 00a8 00000000 		.long	0
 1634              	
 1635              	.LLSDATT1342:
 1636              		.text
 1638              		.section	.rodata.str1.8
 1639 00f9 00000000 		.align 8
 1639      000000
 1640              	.LC19:
 1641 0100 556E6861 		.string	"Unhandled exception in CHECK_EQUAL(x, y)"
 1641      6E646C65 
 1641      64206578 
 1641      63657074 
 1641      696F6E20 
 1642              		.text
 1643              		.align 2
 1644 0a2e 6690     		.p2align 4,,15
 1646              	_ZNK12_GLOBAL__N_127TestValidCheckEqualSucceeds7RunImplEv:
 1647              	.LFB1330:
 1648              		.cfi_startproc
 1649              		.cfi_personality 0x3,__gxx_personality_v0
 1650              		.cfi_lsda 0x3,.LLSDA1330
 1651 0a30 53       		pushq	%rbx
 1652              		.cfi_def_cfa_offset 16
 1653              		.cfi_offset 3, -16
 1654 0a31 4883EC20 		subq	$32, %rsp
 1655              		.cfi_def_cfa_offset 48
 1656              	.LEHB18:
 1657 0a35 E8000000 		call	_ZN8UnitTest11CurrentTest7DetailsEv
 1657      00
 1658 0a3a 488B30   		movq	(%rax), %rsi
 1659 0a3d BA1C0000 		movl	$28, %edx
 1659      00
 1660 0a42 4889E7   		movq	%rsp, %rdi
 1661 0a45 E8000000 		call	_ZN8UnitTest11TestDetailsC1ERKS0_i
 1661      00
 1662 0a4a E8000000 		call	_ZN8UnitTest11CurrentTest7ResultsEv
 1662      00
 1663              	.LEHE18:
 1664              	.L186:
 1665 0a4f 4883C420 		addq	$32, %rsp
 1666              		.cfi_remember_state
 1667              		.cfi_def_cfa_offset 16
 1668 0a53 5B       		popq	%rbx
 1669              		.cfi_def_cfa_offset 8
 1670 0a54 C3       		ret
 1671              	.L190:
 1672              		.cfi_restore_state
 1673 0a55 4889C7   		movq	%rax, %rdi
 1674 0a58 E8000000 		call	__cxa_begin_catch
 1674      00
 1675              	.LEHB19:
 1676 0a5d E8000000 		call	_ZN8UnitTest11CurrentTest7DetailsEv
 1676      00
 1677 0a62 488B30   		movq	(%rax), %rsi
 1678 0a65 BA1C0000 		movl	$28, %edx
 1678      00
 1679 0a6a 4889E7   		movq	%rsp, %rdi
 1680 0a6d E8000000 		call	_ZN8UnitTest11TestDetailsC1ERKS0_i
 1680      00
 1681 0a72 E8000000 		call	_ZN8UnitTest11CurrentTest7ResultsEv
 1681      00
 1682 0a77 488B38   		movq	(%rax), %rdi
 1683 0a7a BA000000 		movl	$.LC19, %edx
 1683      00
 1684 0a7f 4889E6   		movq	%rsp, %rsi
 1685 0a82 E8000000 		call	_ZN8UnitTest11TestResults13OnTestFailureERKNS_11TestDetailsEPKc
 1685      00
 1686              	.LEHE19:
 1687              	.LEHB20:
 1688 0a87 E8000000 		call	__cxa_end_catch
 1688      00
 1689              	.LEHE20:
 1690 0a8c EBC1     		jmp	.L186
 1691              	.L191:
 1692 0a8e 4889C3   		movq	%rax, %rbx
 1693              		.p2align 4,,5
 1694 0a91 E8000000 		call	__cxa_end_catch
 1694      00
 1695 0a96 4889DF   		movq	%rbx, %rdi
 1696              	.LEHB21:
 1697 0a99 E8000000 		call	_Unwind_Resume
 1697      00
 1698              	.LEHE21:
 1699              		.cfi_endproc
 1700              	.LFE1330:
 1701              		.section	.gcc_except_table
 1702              		.align 4
 1703              	.LLSDA1330:
 1704 00ac FF       		.byte	0xff
 1705 00ad 03       		.byte	0x3
 1706 00ae 19       		.uleb128 .LLSDATT1330-.LLSDATTD1330
 1707              	.LLSDATTD1330:
 1708 00af 01       		.byte	0x1
 1709 00b0 10       		.uleb128 .LLSDACSE1330-.LLSDACSB1330
 1710              	.LLSDACSB1330:
 1711 00b1 05       		.uleb128 .LEHB18-.LFB1330
 1712 00b2 1A       		.uleb128 .LEHE18-.LEHB18
 1713 00b3 25       		.uleb128 .L190-.LFB1330
 1714 00b4 01       		.uleb128 0x1
 1715 00b5 2D       		.uleb128 .LEHB19-.LFB1330
 1716 00b6 2A       		.uleb128 .LEHE19-.LEHB19
 1717 00b7 5E       		.uleb128 .L191-.LFB1330
 1718 00b8 00       		.uleb128 0
 1719 00b9 57       		.uleb128 .LEHB20-.LFB1330
 1720 00ba 05       		.uleb128 .LEHE20-.LEHB20
 1721 00bb 00       		.uleb128 0
 1722 00bc 00       		.uleb128 0
 1723 00bd 69       		.uleb128 .LEHB21-.LFB1330
 1724 00be 05       		.uleb128 .LEHE21-.LEHB21
 1725 00bf 00       		.uleb128 0
 1726 00c0 00       		.uleb128 0
 1727              	.LLSDACSE1330:
 1728 00c1 01       		.byte	0x1
 1729 00c2 00       		.byte	0
 1730 00c3 00       		.align 4
 1731 00c4 00000000 		.long	0
 1732              	
 1733              	.LLSDATT1330:
 1734              		.text
 1736              		.section	.text._ZN8UnitTest15MemoryOutStreamC1Ev,"axG",@progbits,_ZN8UnitTest15MemoryOutStreamC1Ev
 1737              		.align 2
 1738              		.p2align 4,,15
 1739              		.weak	_ZN8UnitTest15MemoryOutStreamC1Ev
 1741              	_ZN8UnitTest15MemoryOutStreamC1Ev:
 1742              	.LFB1034:
 1743              		.cfi_startproc
 1744              		.cfi_personality 0x3,__gxx_personality_v0
 1745              		.cfi_lsda 0x3,.LLSDA1034
 1746 0000 4155     		pushq	%r13
 1747              		.cfi_def_cfa_offset 16
 1748              		.cfi_offset 13, -16
 1749 0002 4154     		pushq	%r12
 1750              		.cfi_def_cfa_offset 24
 1751              		.cfi_offset 12, -24
 1752 0004 55       		pushq	%rbp
 1753              		.cfi_def_cfa_offset 32
 1754              		.cfi_offset 6, -32
 1755 0005 488D6F60 		leaq	96(%rdi), %rbp
 1756 0009 53       		pushq	%rbx
 1757              		.cfi_def_cfa_offset 40
 1758              		.cfi_offset 3, -40
 1759 000a 4889FB   		movq	%rdi, %rbx
 1760 000d 4889EF   		movq	%rbp, %rdi
 1761 0010 4883EC08 		subq	$8, %rsp
 1762              		.cfi_def_cfa_offset 48
 1763 0014 E8000000 		call	_ZNSt8ios_baseC2Ev
 1763      00
 1764 0019 48C78338 		movq	$0, 312(%rbx)
 1764      01000000 
 1764      000000
 1765 0024 C6834001 		movb	$0, 320(%rbx)
 1765      000000
 1766 002b 31F6     		xorl	%esi, %esi
 1767 002d C6834101 		movb	$0, 321(%rbx)
 1767      000000
 1768 0034 48C78348 		movq	$0, 328(%rbx)
 1768      01000000 
 1768      000000
 1769 003f 4889EF   		movq	%rbp, %rdi
 1770 0042 48C78350 		movq	$0, 336(%rbx)
 1770      01000000 
 1770      000000
 1771 004d 48C78358 		movq	$0, 344(%rbx)
 1771      01000000 
 1771      000000
 1772 0058 48C78360 		movq	$0, 352(%rbx)
 1772      01000000 
 1772      000000
 1773 0063 48C70300 		movq	$_ZTCN8UnitTest15MemoryOutStreamE0_So+24, (%rbx)
 1773      000000
 1774 006a 48C74360 		movq	$_ZTCN8UnitTest15MemoryOutStreamE0_So+64, 96(%rbx)
 1774      00000000 
 1775              	.LEHB22:
 1776 0072 E8000000 		call	_ZNSt9basic_iosIcSt11char_traitsIcEE4initEPSt15basic_streambufIcS1_E
 1776      00
 1777              	.LEHE22:
 1778 0077 488D7B40 		leaq	64(%rbx), %rdi
 1779 007b 48C70300 		movq	$_ZTCN8UnitTest15MemoryOutStreamE0_St19basic_ostringstreamIcSt11char_traitsIcESaIcEE+24, (%rb
 1779      000000
 1780 0082 48C74360 		movq	$_ZTCN8UnitTest15MemoryOutStreamE0_St19basic_ostringstreamIcSt11char_traitsIcESaIcEE+64, 96(%
 1780      00000000 
 1781 008a 48C74308 		movq	$_ZTVSt15basic_streambufIcSt11char_traitsIcEE+16, 8(%rbx)
 1781      00000000 
 1782 0092 48C74310 		movq	$0, 16(%rbx)
 1782      00000000 
 1783 009a 4C8D6308 		leaq	8(%rbx), %r12
 1784 009e 48C74318 		movq	$0, 24(%rbx)
 1784      00000000 
 1785 00a6 48C74320 		movq	$0, 32(%rbx)
 1785      00000000 
 1786 00ae 48C74328 		movq	$0, 40(%rbx)
 1786      00000000 
 1787 00b6 48C74330 		movq	$0, 48(%rbx)
 1787      00000000 
 1788 00be 48C74338 		movq	$0, 56(%rbx)
 1788      00000000 
 1789 00c6 E8000000 		call	_ZNSt6localeC1Ev
 1789      00
 1790 00cb 488B03   		movq	(%rbx), %rax
 1791 00ce 4889DF   		movq	%rbx, %rdi
 1792 00d1 48C74308 		movq	$_ZTVSt15basic_stringbufIcSt11char_traitsIcESaIcEE+16, 8(%rbx)
 1792      00000000 
 1793 00d9 C7434810 		movl	$16, 72(%rbx)
 1793      000000
 1794 00e0 48C74350 		movq	$_ZNSs4_Rep20_S_empty_rep_storageE+24, 80(%rbx)
 1794      00000000 
 1795 00e8 4C89E6   		movq	%r12, %rsi
 1796 00eb 480378E8 		addq	-24(%rax), %rdi
 1797              	.LEHB23:
 1798 00ef E8000000 		call	_ZNSt9basic_iosIcSt11char_traitsIcEE4initEPSt15basic_streambufIcS1_E
 1798      00
 1799              	.LEHE23:
 1800 00f4 48C74360 		movq	$_ZTVN8UnitTest15MemoryOutStreamE+64, 96(%rbx)
 1800      00000000 
 1801 00fc 48C74358 		movq	$_ZNSs4_Rep20_S_empty_rep_storageE+24, 88(%rbx)
 1801      00000000 
 1802 0104 48C70300 		movq	$_ZTVN8UnitTest15MemoryOutStreamE+24, (%rbx)
 1802      000000
 1803 010b 4883C408 		addq	$8, %rsp
 1804              		.cfi_remember_state
 1805              		.cfi_def_cfa_offset 40
 1806 010f 5B       		popq	%rbx
 1807              		.cfi_def_cfa_offset 32
 1808 0110 5D       		popq	%rbp
 1809              		.cfi_def_cfa_offset 24
 1810 0111 415C     		popq	%r12
 1811              		.cfi_def_cfa_offset 16
 1812 0113 415D     		popq	%r13
 1813              		.cfi_def_cfa_offset 8
 1814 0115 C3       		ret
 1815              	.L197:
 1816              		.cfi_restore_state
 1817 0116 4989C4   		movq	%rax, %r12
 1818              	.L196:
 1819 0119 4889EF   		movq	%rbp, %rdi
 1820 011c 48C74360 		movq	$_ZTVSt9basic_iosIcSt11char_traitsIcEE+16, 96(%rbx)
 1820      00000000 
 1821 0124 E8000000 		call	_ZNSt8ios_baseD2Ev
 1821      00
 1822 0129 4C89E7   		movq	%r12, %rdi
 1823              	.LEHB24:
 1824 012c E8000000 		call	_Unwind_Resume
 1824      00
 1825              	.LEHE24:
 1826              	.L198:
 1827 0131 4989C5   		movq	%rax, %r13
 1828 0134 4C89E7   		movq	%r12, %rdi
 1829 0137 E8000000 		call	_ZNSt15basic_stringbufIcSt11char_traitsIcESaIcEED1Ev
 1829      00
 1830 013c 4D89EC   		movq	%r13, %r12
 1831 013f 48C70300 		movq	$_ZTCN8UnitTest15MemoryOutStreamE0_So+24, (%rbx)
 1831      000000
 1832 0146 EBD1     		jmp	.L196
 1833              		.cfi_endproc
 1834              	.LFE1034:
 1835              		.section	.gcc_except_table
 1836              	.LLSDA1034:
 1837 00c8 FF       		.byte	0xff
 1838 00c9 FF       		.byte	0xff
 1839 00ca 01       		.byte	0x1
 1840 00cb 10       		.uleb128 .LLSDACSE1034-.LLSDACSB1034
 1841              	.LLSDACSB1034:
 1842 00cc 72       		.uleb128 .LEHB22-.LFB1034
 1843 00cd 05       		.uleb128 .LEHE22-.LEHB22
 1844 00ce 9602     		.uleb128 .L197-.LFB1034
 1845 00d0 00       		.uleb128 0
 1846 00d1 EF01     		.uleb128 .LEHB23-.LFB1034
 1847 00d3 05       		.uleb128 .LEHE23-.LEHB23
 1848 00d4 B102     		.uleb128 .L198-.LFB1034
 1849 00d6 00       		.uleb128 0
 1850 00d7 AC02     		.uleb128 .LEHB24-.LFB1034
 1851 00d9 05       		.uleb128 .LEHE24-.LEHB24
 1852 00da 00       		.uleb128 0
 1853 00db 00       		.uleb128 0
 1854              	.LLSDACSE1034:
 1855              		.section	.text._ZN8UnitTest15MemoryOutStreamC1Ev,"axG",@progbits,_ZN8UnitTest15MemoryOutStreamC1Ev
 1857              		.section	.rodata.str1.1
 1858              	.LC20:
 1859 0032 556E6861 		.string	"Unhandled system exception"
 1859      6E646C65 
 1859      64207379 
 1859      7374656D 
 1859      20657863 
 1860              		.section	.rodata.str1.8
 1861 0129 00000000 		.align 8
 1861      000000
 1862              	.LC21:
 1863 0130 53696D70 		.string	"SimpleFixture::instanceCount > 0"
 1863      6C654669 
 1863      78747572 
 1863      653A3A69 
 1863      6E737461 
 1864 0151 00000000 		.align 8
 1864      000000
 1865              	.LC22:
 1866 0158 556E6861 		.string	"Unhandled exception in CHECK(SimpleFixture::instanceCount > 0)"
 1866      6E646C65 
 1866      64206578 
 1866      63657074 
 1866      696F6E20 
 1867              		.section	.rodata.str1.1
 1868              	.LC23:
 1869 004d 556E6861 		.string	"Unhandled exception: "
 1869      6E646C65 
 1869      64206578 
 1869      63657074 
 1869      696F6E3A 
 1870              	.LC24:
 1871 0063 556E6861 		.string	"Unhandled exception: Crash!"
 1871      6E646C65 
 1871      64206578 
 1871      63657074 
 1871      696F6E3A 
 1872              		.text
 1873 0a9e 6690     		.p2align 4,,15
 1875              	_ZN8UnitTest11ExecuteTestIN12_GLOBAL__N_145SimpleFixtureDefaultFixtureCtorIsCalledHelperEEEvRT_RKNS
 1876              	.LFB1643:
 1877              		.cfi_startproc
 1878              		.cfi_personality 0x3,__gxx_personality_v0
 1879              		.cfi_lsda 0x3,.LLSDA1643
 1880 0aa0 4154     		pushq	%r12
 1881              		.cfi_def_cfa_offset 16
 1882              		.cfi_offset 12, -16
 1883 0aa2 55       		pushq	%rbp
 1884              		.cfi_def_cfa_offset 24
 1885              		.cfi_offset 6, -24
 1886 0aa3 53       		pushq	%rbx
 1887              		.cfi_def_cfa_offset 32
 1888              		.cfi_offset 3, -32
 1889 0aa4 4889FB   		movq	%rdi, %rbx
 1890 0aa7 4881EC90 		subq	$1168, %rsp
 1890      040000
 1891              		.cfi_def_cfa_offset 1200
 1892 0aae 48897C24 		movq	%rdi, 8(%rsp)
 1892      08
 1893              	.LEHB25:
 1894 0ab3 E8000000 		call	_ZN8UnitTest11CurrentTest7DetailsEv
 1894      00
 1895              	.LEHE25:
 1896 0ab8 488D7C24 		leaq	48(%rsp), %rdi
 1896      30
 1897 0abd 488918   		movq	%rbx, (%rax)
 1898              	.LEHB26:
 1899 0ac0 E8000000 		call	_ZN8UnitTest16SignalTranslatorC1Ev
 1899      00
 1900 0ac5 488B3D00 		movq	_ZN8UnitTest16SignalTranslator12s_jumpTargetE(%rip), %rdi
 1900      000000
 1901 0acc BE010000 		movl	$1, %esi
 1901      00
 1902 0ad1 E8000000 		call	__sigsetjmp
 1902      00
 1903 0ad6 85C0     		testl	%eax, %eax
 1904 0ad8 7556     		jne	.L231
 1905 0ada 8B050000 		movl	_ZN12_GLOBAL__N_113SimpleFixture13instanceCountE(%rip), %eax
 1905      0000
 1906 0ae0 85C0     		testl	%eax, %eax
 1907 0ae2 7E1C     		jle	.L232
 1908              	.L205:
 1909 0ae4 488D7C24 		leaq	48(%rsp), %rdi
 1909      30
 1910 0ae9 E8000000 		call	_ZN8UnitTest16SignalTranslatorD1Ev
 1910      00
 1911              	.LEHE26:
 1912              	.L202:
 1913 0aee 4881C490 		addq	$1168, %rsp
 1913      040000
 1914              		.cfi_remember_state
 1915              		.cfi_def_cfa_offset 32
 1916 0af5 5B       		popq	%rbx
 1917              		.cfi_def_cfa_offset 24
 1918 0af6 5D       		popq	%rbp
 1919              		.cfi_def_cfa_offset 16
 1920 0af7 415C     		popq	%r12
 1921              		.cfi_def_cfa_offset 8
 1922 0af9 C3       		ret
 1923 0afa 660F1F44 		.p2align 4,,10
 1923      0000
 1924              		.p2align 3
 1925              	.L232:
 1926              		.cfi_restore_state
 1927              	.LEHB27:
 1928 0b00 E8000000 		call	_ZN8UnitTest11CurrentTest7DetailsEv
 1928      00
 1929 0b05 488B30   		movq	(%rax), %rsi
 1930 0b08 488D7C24 		leaq	16(%rsp), %rdi
 1930      10
 1931 0b0d BA8A0000 		movl	$138, %edx
 1931      00
 1932 0b12 E8000000 		call	_ZN8UnitTest11TestDetailsC1ERKS0_i
 1932      00
 1933 0b17 E8000000 		call	_ZN8UnitTest11CurrentTest7ResultsEv
 1933      00
 1934 0b1c 488B38   		movq	(%rax), %rdi
 1935 0b1f 488D7424 		leaq	16(%rsp), %rsi
 1935      10
 1936 0b24 BA000000 		movl	$.LC21, %edx
 1936      00
 1937 0b29 E8000000 		call	_ZN8UnitTest11TestResults13OnTestFailureERKNS_11TestDetailsEPKc
 1937      00
 1938              	.LEHE27:
 1939 0b2e EBB4     		jmp	.L205
 1940              	.L231:
 1941 0b30 BF080000 		movl	$8, %edi
 1941      00
 1942 0b35 E8000000 		call	__cxa_allocate_exception
 1942      00
 1943 0b3a 31D2     		xorl	%edx, %edx
 1944 0b3c 48C70000 		movq	$.LC20, (%rax)
 1944      000000
 1945 0b43 BE000000 		movl	$_ZTIPKc, %esi
 1945      00
 1946 0b48 4889C7   		movq	%rax, %rdi
 1947              	.LEHB28:
 1948 0b4b E8000000 		call	__cxa_throw
 1948      00
 1949              	.LEHE28:
 1950              	.L224:
 1951 0b50 4889C3   		movq	%rax, %rbx
 1952 0b53 4889D5   		movq	%rdx, %rbp
 1953              	.L207:
 1954 0b56 488D7C24 		leaq	48(%rsp), %rdi
 1954      30
 1955 0b5b E8000000 		call	_ZN8UnitTest16SignalTranslatorD1Ev
 1955      00
 1956 0b60 4889DF   		movq	%rbx, %rdi
 1957 0b63 4889EA   		movq	%rbp, %rdx
 1958              	.L210:
 1959 0b66 4883FA01 		cmpq	$1, %rdx
 1960 0b6a 0F841A01 		je	.L212
 1960      0000
 1961 0b70 4883FA02 		cmpq	$2, %rdx
 1962 0b74 0F85EA00 		jne	.L233
 1962      0000
 1963 0b7a E8000000 		call	__cxa_begin_catch
 1963      00
 1964 0b7f 488D7C24 		leaq	48(%rsp), %rdi
 1964      30
 1965 0b84 4889C3   		movq	%rax, %rbx
 1966              	.LEHB29:
 1967 0b87 E8000000 		call	_ZN8UnitTest15MemoryOutStreamC1Ev
 1967      00
 1968              	.LEHE29:
 1969 0b8c 488B03   		movq	(%rbx), %rax
 1970 0b8f 4889DF   		movq	%rbx, %rdi
 1971 0b92 FF5010   		call	*16(%rax)
 1972 0b95 488D7C24 		leaq	48(%rsp), %rdi
 1972      30
 1973 0b9a BE000000 		movl	$.LC23, %esi
 1973      00
 1974 0b9f 4889C3   		movq	%rax, %rbx
 1975              	.LEHB30:
 1976 0ba2 E8000000 		call	_ZStlsISt11char_traitsIcEERSt13basic_ostreamIcT_ES5_PKc
 1976      00
 1977 0ba7 4889DE   		movq	%rbx, %rsi
 1978 0baa 4889C7   		movq	%rax, %rdi
 1979 0bad E8000000 		call	_ZStlsISt11char_traitsIcEERSt13basic_ostreamIcT_ES5_PKc
 1979      00
 1980 0bb2 488D7C24 		leaq	48(%rsp), %rdi
 1980      30
 1981 0bb7 E8000000 		call	_ZNK8UnitTest15MemoryOutStream7GetTextEv
 1981      00
 1982 0bbc 4889C3   		movq	%rax, %rbx
 1983 0bbf E8000000 		call	_ZN8UnitTest11CurrentTest7ResultsEv
 1983      00
 1984 0bc4 488B7424 		movq	8(%rsp), %rsi
 1984      08
 1985 0bc9 488B38   		movq	(%rax), %rdi
 1986 0bcc 4889DA   		movq	%rbx, %rdx
 1987 0bcf E8000000 		call	_ZN8UnitTest11TestResults13OnTestFailureERKNS_11TestDetailsEPKc
 1987      00
 1988              	.LEHE30:
 1989 0bd4 488D7C24 		leaq	48(%rsp), %rdi
 1989      30
 1990              	.LEHB31:
 1991 0bd9 E8000000 		call	_ZN8UnitTest15MemoryOutStreamD1Ev
 1991      00
 1992              	.LEHE31:
 1993              	.L229:
 1994 0bde E8000000 		call	__cxa_end_catch
 1994      00
 1995 0be3 E906FFFF 		jmp	.L202
 1995      FF
 1996              	.L225:
 1997 0be8 4889C7   		movq	%rax, %rdi
 1998 0beb 0F1F4400 		.p2align 4,,5
 1998      00
 1999 0bf0 E8000000 		call	__cxa_begin_catch
 1999      00
 2000              		.p2align 4,,5
 2001              	.LEHB32:
 2002 0bf5 E8000000 		call	_ZN8UnitTest11CurrentTest7DetailsEv
 2002      00
 2003 0bfa 488B30   		movq	(%rax), %rsi
 2004 0bfd 488D7C24 		leaq	16(%rsp), %rdi
 2004      10
 2005 0c02 BA8A0000 		movl	$138, %edx
 2005      00
 2006 0c07 E8000000 		call	_ZN8UnitTest11TestDetailsC1ERKS0_i
 2006      00
 2007 0c0c E8000000 		call	_ZN8UnitTest11CurrentTest7ResultsEv
 2007      00
 2008 0c11 488B38   		movq	(%rax), %rdi
 2009 0c14 488D7424 		leaq	16(%rsp), %rsi
 2009      10
 2010 0c19 BA000000 		movl	$.LC22, %edx
 2010      00
 2011 0c1e E8000000 		call	_ZN8UnitTest11TestResults13OnTestFailureERKNS_11TestDetailsEPKc
 2011      00
 2012              	.LEHE32:
 2013              	.LEHB33:
 2014 0c23 E8000000 		call	__cxa_end_catch
 2014      00
 2015              	.LEHE33:
 2016 0c28 E9B7FEFF 		jmp	.L205
 2016      FF
 2017              	.L223:
 2018 0c2d 4889C7   		movq	%rax, %rdi
 2019              		.p2align 4,,5
 2020 0c30 E931FFFF 		jmp	.L210
 2020      FF
 2021              	.L226:
 2022 0c35 4889C3   		movq	%rax, %rbx
 2023 0c38 4889D5   		movq	%rdx, %rbp
 2024 0c3b E8000000 		call	__cxa_end_catch
 2024      00
 2025 0c40 E911FFFF 		jmp	.L207
 2025      FF
 2026              	.L221:
 2027 0c45 488D7C24 		leaq	48(%rsp), %rdi
 2027      30
 2028 0c4a 4889C3   		movq	%rax, %rbx
 2029 0c4d E8000000 		call	_ZN8UnitTest15MemoryOutStreamD1Ev
 2029      00
 2030              	.L216:
 2031 0c52 E8000000 		call	__cxa_end_catch
 2031      00
 2032 0c57 4889DF   		movq	%rbx, %rdi
 2033              	.LEHB34:
 2034 0c5a E8000000 		call	_Unwind_Resume
 2034      00
 2035              	.LEHE34:
 2036              	.L220:
 2037              	.L230:
 2038 0c5f 4889C3   		movq	%rax, %rbx
 2039 0c62 EBEE     		jmp	.L216
 2040              	.L233:
 2041 0c64 E8000000 		call	__cxa_begin_catch
 2041      00
 2042              		.p2align 4,,5
 2043              	.LEHB35:
 2044 0c69 E8000000 		call	_ZN8UnitTest11CurrentTest7ResultsEv
 2044      00
 2045 0c6e 488B7424 		movq	8(%rsp), %rsi
 2045      08
 2046 0c73 488B38   		movq	(%rax), %rdi
 2047 0c76 BA000000 		movl	$.LC24, %edx
 2047      00
 2048 0c7b E8000000 		call	_ZN8UnitTest11TestResults13OnTestFailureERKNS_11TestDetailsEPKc
 2048      00
 2049              	.LEHE35:
 2050              	.LEHB36:
 2051 0c80 E8000000 		call	__cxa_end_catch
 2051      00
 2052              	.LEHE36:
 2053 0c85 E964FEFF 		jmp	.L202
 2053      FF
 2054              	.L212:
 2055 0c8a 660F1F44 		.p2align 4,,8
 2055      0000
 2056 0c90 E8000000 		call	__cxa_begin_catch
 2056      00
 2057 0c95 4889C3   		movq	%rax, %rbx
 2058 0c98 488B00   		movq	(%rax), %rax
 2059 0c9b 4889DF   		movq	%rbx, %rdi
 2060 0c9e FF5010   		call	*16(%rax)
 2061 0ca1 4889DF   		movq	%rbx, %rdi
 2062 0ca4 4889C5   		movq	%rax, %rbp
 2063              	.LEHB37:
 2064 0ca7 E8000000 		call	_ZNK8UnitTest15AssertException10LineNumberEv
 2064      00
 2065 0cac 4889DF   		movq	%rbx, %rdi
 2066 0caf 4189C4   		movl	%eax, %r12d
 2067 0cb2 E8000000 		call	_ZNK8UnitTest15AssertException8FilenameEv
 2067      00
 2068 0cb7 488B5424 		movq	8(%rsp), %rdx
 2068      08
 2069 0cbc 488D7C24 		leaq	48(%rsp), %rdi
 2069      30
 2070 0cc1 4589E0   		movl	%r12d, %r8d
 2071 0cc4 4889C1   		movq	%rax, %rcx
 2072 0cc7 488B7208 		movq	8(%rdx), %rsi
 2073 0ccb 488B12   		movq	(%rdx), %rdx
 2074 0cce E8000000 		call	_ZN8UnitTest11TestDetailsC1EPKcS2_S2_i
 2074      00
 2075 0cd3 E8000000 		call	_ZN8UnitTest11CurrentTest7ResultsEv
 2075      00
 2076 0cd8 488B38   		movq	(%rax), %rdi
 2077 0cdb 488D7424 		leaq	48(%rsp), %rsi
 2077      30
 2078 0ce0 4889EA   		movq	%rbp, %rdx
 2079 0ce3 E8000000 		call	_ZN8UnitTest11TestResults13OnTestFailureERKNS_11TestDetailsEPKc
 2079      00
 2080              	.LEHE37:
 2081 0ce8 E9F1FEFF 		jmp	.L229
 2081      FF
 2082              	.L219:
 2083 0ced 4889C3   		movq	%rax, %rbx
 2084 0cf0 E8000000 		call	__cxa_end_catch
 2084      00
 2085 0cf5 4889DF   		movq	%rbx, %rdi
 2086              	.LEHB38:
 2087 0cf8 E8000000 		call	_Unwind_Resume
 2087      00
 2088              	.LEHE38:
 2089              	.L222:
 2090 0cfd E95DFFFF 		jmp	.L230
 2090      FF
 2091              		.cfi_endproc
 2092              	.LFE1643:
 2093              		.section	.gcc_except_table
 2094              		.align 4
 2095              	.LLSDA1643:
 2096 00dc FF       		.byte	0xff
 2097 00dd 03       		.byte	0x3
 2098 00de 65       		.uleb128 .LLSDATT1643-.LLSDATTD1643
 2099              	.LLSDATTD1643:
 2100 00df 01       		.byte	0x1
 2101 00e0 4D       		.uleb128 .LLSDACSE1643-.LLSDACSB1643
 2102              	.LLSDACSB1643:
 2103 00e1 13       		.uleb128 .LEHB25-.LFB1643
 2104 00e2 05       		.uleb128 .LEHE25-.LEHB25
 2105 00e3 00       		.uleb128 0
 2106 00e4 00       		.uleb128 0
 2107 00e5 20       		.uleb128 .LEHB26-.LFB1643
 2108 00e6 2E       		.uleb128 .LEHE26-.LEHB26
 2109 00e7 8D03     		.uleb128 .L223-.LFB1643
 2110 00e9 05       		.uleb128 0x5
 2111 00ea 60       		.uleb128 .LEHB27-.LFB1643
 2112 00eb 2E       		.uleb128 .LEHE27-.LEHB27
 2113 00ec C802     		.uleb128 .L225-.LFB1643
 2114 00ee 01       		.uleb128 0x1
 2115 00ef AB01     		.uleb128 .LEHB28-.LFB1643
 2116 00f1 05       		.uleb128 .LEHE28-.LEHB28
 2117 00f2 B001     		.uleb128 .L224-.LFB1643
 2118 00f4 07       		.uleb128 0x7
 2119 00f5 E701     		.uleb128 .LEHB29-.LFB1643
 2120 00f7 05       		.uleb128 .LEHE29-.LEHB29
 2121 00f8 BF03     		.uleb128 .L220-.LFB1643
 2122 00fa 00       		.uleb128 0
 2123 00fb 8202     		.uleb128 .LEHB30-.LFB1643
 2124 00fd 32       		.uleb128 .LEHE30-.LEHB30
 2125 00fe A503     		.uleb128 .L221-.LFB1643
 2126 0100 00       		.uleb128 0
 2127 0101 B902     		.uleb128 .LEHB31-.LFB1643
 2128 0103 05       		.uleb128 .LEHE31-.LEHB31
 2129 0104 BF03     		.uleb128 .L220-.LFB1643
 2130 0106 00       		.uleb128 0
 2131 0107 D502     		.uleb128 .LEHB32-.LFB1643
 2132 0109 2E       		.uleb128 .LEHE32-.LEHB32
 2133 010a 9503     		.uleb128 .L226-.LFB1643
 2134 010c 07       		.uleb128 0x7
 2135 010d 8303     		.uleb128 .LEHB33-.LFB1643
 2136 010f 05       		.uleb128 .LEHE33-.LEHB33
 2137 0110 B001     		.uleb128 .L224-.LFB1643
 2138 0112 07       		.uleb128 0x7
 2139 0113 BA03     		.uleb128 .LEHB34-.LFB1643
 2140 0115 05       		.uleb128 .LEHE34-.LEHB34
 2141 0116 00       		.uleb128 0
 2142 0117 00       		.uleb128 0
 2143 0118 C903     		.uleb128 .LEHB35-.LFB1643
 2144 011a 17       		.uleb128 .LEHE35-.LEHB35
 2145 011b CD04     		.uleb128 .L219-.LFB1643
 2146 011d 00       		.uleb128 0
 2147 011e E003     		.uleb128 .LEHB36-.LFB1643
 2148 0120 05       		.uleb128 .LEHE36-.LEHB36
 2149 0121 00       		.uleb128 0
 2150 0122 00       		.uleb128 0
 2151 0123 8704     		.uleb128 .LEHB37-.LFB1643
 2152 0125 41       		.uleb128 .LEHE37-.LEHB37
 2153 0126 DD04     		.uleb128 .L222-.LFB1643
 2154 0128 00       		.uleb128 0
 2155 0129 D804     		.uleb128 .LEHB38-.LFB1643
 2156 012b 05       		.uleb128 .LEHE38-.LEHB38
 2157 012c 00       		.uleb128 0
 2158 012d 00       		.uleb128 0
 2159              	.LLSDACSE1643:
 2160 012e 03       		.byte	0x3
 2161 012f 00       		.byte	0
 2162 0130 02       		.byte	0x2
 2163 0131 7D       		.byte	0x7d
 2164 0132 01       		.byte	0x1
 2165 0133 7D       		.byte	0x7d
 2166 0134 00       		.byte	0
 2167 0135 7D       		.byte	0x7d
 2168 0136 0000     		.align 4
 2169 0138 00000000 		.long	0
 2170              	
 2171 013c 00000000 		.long	_ZTISt9exception
 2172 0140 00000000 		.long	_ZTIN8UnitTest15AssertExceptionE
 2173              	.LLSDATT1643:
 2174              		.text
 2176              		.section	.rodata.str1.8
 2177 0197 00       		.align 8
 2178              	.LC25:
 2179 0198 556E6861 		.string	"Unhandled exception while destroying fixture SimpleFixture"
 2179      6E646C65 
 2179      64206578 
 2179      63657074 
 2179      696F6E20 
 2180              		.text
 2181              		.align 2
 2182 0d02 66666666 		.p2align 4,,15
 2182      662E0F1F 
 2182      84000000 
 2182      0000
 2184              	_ZNK12_GLOBAL__N_143TestSimpleFixtureDefaultFixtureCtorIsCalled7RunImplEv:
 2185              	.LFB1384:
 2186              		.cfi_startproc
 2187              		.cfi_personality 0x3,__gxx_personality_v0
 2188              		.cfi_lsda 0x3,.LLSDA1384
 2189 0d10 4155     		pushq	%r13
 2190              		.cfi_def_cfa_offset 16
 2191              		.cfi_offset 13, -16
 2192 0d12 4154     		pushq	%r12
 2193              		.cfi_def_cfa_offset 24
 2194              		.cfi_offset 12, -24
 2195 0d14 55       		pushq	%rbp
 2196              		.cfi_def_cfa_offset 32
 2197              		.cfi_offset 6, -32
 2198 0d15 4889FD   		movq	%rdi, %rbp
 2199 0d18 53       		pushq	%rbx
 2200              		.cfi_def_cfa_offset 40
 2201              		.cfi_offset 3, -40
 2202 0d19 488D5F08 		leaq	8(%rdi), %rbx
 2203 0d1d 4881EC78 		subq	$376, %rsp
 2203      010000
 2204              		.cfi_def_cfa_offset 416
 2205 0d24 4889DF   		movq	%rbx, %rdi
 2206 0d27 83050000 		addl	$1, _ZN12_GLOBAL__N_113SimpleFixture13instanceCountE(%rip)
 2206      000001
 2207              	.LEHB39:
 2208 0d2e E86DFDFF 		call	_ZN8UnitTest11ExecuteTestIN12_GLOBAL__N_145SimpleFixtureDefaultFixtureCtorIsCalledHelperEEEvR
 2208      FF
 2209              	.LEHE39:
 2210 0d33 832D0000 		subl	$1, _ZN12_GLOBAL__N_113SimpleFixture13instanceCountE(%rip)
 2210      000001
 2211              	.L234:
 2212 0d3a 4881C478 		addq	$376, %rsp
 2212      010000
 2213              		.cfi_remember_state
 2214              		.cfi_def_cfa_offset 40
 2215 0d41 5B       		popq	%rbx
 2216              		.cfi_def_cfa_offset 32
 2217 0d42 5D       		popq	%rbp
 2218              		.cfi_def_cfa_offset 24
 2219 0d43 415C     		popq	%r12
 2220              		.cfi_def_cfa_offset 16
 2221 0d45 415D     		popq	%r13
 2222              		.cfi_def_cfa_offset 8
 2223 0d47 C3       		ret
 2224              	.L244:
 2225              		.cfi_restore_state
 2226 0d48 832D0000 		subl	$1, _ZN12_GLOBAL__N_113SimpleFixture13instanceCountE(%rip)
 2226      000001
 2227 0d4f 4883FA01 		cmpq	$1, %rdx
 2228 0d53 4889C7   		movq	%rax, %rdi
 2229 0d56 7472     		je	.L237
 2230 0d58 4883FA02 		cmpq	$2, %rdx
 2231 0d5c 0F85E000 		jne	.L253
 2231      0000
 2232 0d62 E8000000 		call	__cxa_begin_catch
 2232      00
 2233 0d67 4889E7   		movq	%rsp, %rdi
 2234 0d6a 4989C4   		movq	%rax, %r12
 2235 0d6d 4889E5   		movq	%rsp, %rbp
 2236              	.LEHB40:
 2237 0d70 E8000000 		call	_ZN8UnitTest15MemoryOutStreamC1Ev
 2237      00
 2238              	.LEHE40:
 2239 0d75 498B0424 		movq	(%r12), %rax
 2240 0d79 4C89E7   		movq	%r12, %rdi
 2241 0d7c FF5010   		call	*16(%rax)
 2242 0d7f BE000000 		movl	$.LC23, %esi
 2242      00
 2243 0d84 4889E7   		movq	%rsp, %rdi
 2244 0d87 4989C4   		movq	%rax, %r12
 2245              	.LEHB41:
 2246 0d8a E8000000 		call	_ZStlsISt11char_traitsIcEERSt13basic_ostreamIcT_ES5_PKc
 2246      00
 2247 0d8f 4C89E6   		movq	%r12, %rsi
 2248 0d92 4889C7   		movq	%rax, %rdi
 2249 0d95 E8000000 		call	_ZStlsISt11char_traitsIcEERSt13basic_ostreamIcT_ES5_PKc
 2249      00
 2250 0d9a 4889E7   		movq	%rsp, %rdi
 2251 0d9d E8000000 		call	_ZNK8UnitTest15MemoryOutStream7GetTextEv
 2251      00
 2252 0da2 4989C4   		movq	%rax, %r12
 2253 0da5 E8000000 		call	_ZN8UnitTest11CurrentTest7ResultsEv
 2253      00
 2254 0daa 488B38   		movq	(%rax), %rdi
 2255 0dad 4C89E2   		movq	%r12, %rdx
 2256 0db0 4889DE   		movq	%rbx, %rsi
 2257 0db3 E8000000 		call	_ZN8UnitTest11TestResults13OnTestFailureERKNS_11TestDetailsEPKc
 2257      00
 2258              	.LEHE41:
 2259 0db8 4889E7   		movq	%rsp, %rdi
 2260              	.LEHB42:
 2261 0dbb E8000000 		call	_ZN8UnitTest15MemoryOutStreamD1Ev
 2261      00
 2262              	.LEHE42:
 2263              	.L251:
 2264 0dc0 E8000000 		call	__cxa_end_catch
 2264      00
 2265              		.p2align 4,,2
 2266 0dc5 E970FFFF 		jmp	.L234
 2266      FF
 2267              	.L237:
 2268 0dca 660F1F44 		.p2align 4,,8
 2268      0000
 2269 0dd0 E8000000 		call	__cxa_begin_catch
 2269      00
 2270 0dd5 4889C3   		movq	%rax, %rbx
 2271 0dd8 488B00   		movq	(%rax), %rax
 2272 0ddb 4889DF   		movq	%rbx, %rdi
 2273 0dde FF5010   		call	*16(%rax)
 2274 0de1 4889DF   		movq	%rbx, %rdi
 2275 0de4 4989C4   		movq	%rax, %r12
 2276              	.LEHB43:
 2277 0de7 E8000000 		call	_ZNK8UnitTest15AssertException10LineNumberEv
 2277      00
 2278 0dec 4889DF   		movq	%rbx, %rdi
 2279 0def 4189C5   		movl	%eax, %r13d
 2280 0df2 E8000000 		call	_ZNK8UnitTest15AssertException8FilenameEv
 2280      00
 2281 0df7 488B5508 		movq	8(%rbp), %rdx
 2282 0dfb 488B7510 		movq	16(%rbp), %rsi
 2283 0dff 4589E8   		movl	%r13d, %r8d
 2284 0e02 4889C1   		movq	%rax, %rcx
 2285 0e05 4889E7   		movq	%rsp, %rdi
 2286 0e08 E8000000 		call	_ZN8UnitTest11TestDetailsC1EPKcS2_S2_i
 2286      00
 2287 0e0d E8000000 		call	_ZN8UnitTest11CurrentTest7ResultsEv
 2287      00
 2288 0e12 488B38   		movq	(%rax), %rdi
 2289 0e15 4C89E2   		movq	%r12, %rdx
 2290 0e18 4889E6   		movq	%rsp, %rsi
 2291 0e1b E8000000 		call	_ZN8UnitTest11TestResults13OnTestFailureERKNS_11TestDetailsEPKc
 2291      00
 2292              	.LEHE43:
 2293 0e20 EB9E     		jmp	.L251
 2294              	.L247:
 2295 0e22 4889EF   		movq	%rbp, %rdi
 2296 0e25 4889C3   		movq	%rax, %rbx
 2297 0e28 E8000000 		call	_ZN8UnitTest15MemoryOutStreamD1Ev
 2297      00
 2298              	.L241:
 2299 0e2d E8000000 		call	__cxa_end_catch
 2299      00
 2300 0e32 4889DF   		movq	%rbx, %rdi
 2301              	.LEHB44:
 2302 0e35 E8000000 		call	_Unwind_Resume
 2302      00
 2303              	.LEHE44:
 2304              	.L245:
 2305              	.L252:
 2306 0e3a 4889C3   		movq	%rax, %rbx
 2307 0e3d EBEE     		jmp	.L241
 2308              	.L246:
 2309 0e3f 90       		.p2align 4,,2
 2310 0e40 EBF8     		jmp	.L252
 2311              	.L253:
 2312              		.p2align 4,,8
 2313 0e42 E8000000 		call	__cxa_begin_catch
 2313      00
 2314 0e47 BA880000 		movl	$136, %edx
 2314      00
 2315 0e4c 4889DE   		movq	%rbx, %rsi
 2316 0e4f 4889E7   		movq	%rsp, %rdi
 2317              	.LEHB45:
 2318 0e52 E8000000 		call	_ZN8UnitTest11TestDetailsC1ERKS0_i
 2318      00
 2319 0e57 E8000000 		call	_ZN8UnitTest11CurrentTest7ResultsEv
 2319      00
 2320 0e5c 488B38   		movq	(%rax), %rdi
 2321 0e5f BA000000 		movl	$.LC25, %edx
 2321      00
 2322 0e64 4889E6   		movq	%rsp, %rsi
 2323 0e67 E8000000 		call	_ZN8UnitTest11TestResults13OnTestFailureERKNS_11TestDetailsEPKc
 2323      00
 2324              	.LEHE45:
 2325              	.LEHB46:
 2326 0e6c E8000000 		call	__cxa_end_catch
 2326      00
 2327              	.LEHE46:
 2328 0e71 E9C4FEFF 		jmp	.L234
 2328      FF
 2329              	.L248:
 2330 0e76 4889C3   		movq	%rax, %rbx
 2331              		.p2align 4,,5
 2332 0e79 E8000000 		call	__cxa_end_catch
 2332      00
 2333 0e7e 4889DF   		movq	%rbx, %rdi
 2334              	.LEHB47:
 2335 0e81 E8000000 		call	_Unwind_Resume
 2335      00
 2336              	.LEHE47:
 2337              		.cfi_endproc
 2338              	.LFE1384:
 2339              		.section	.gcc_except_table
 2340              		.align 4
 2341              	.LLSDA1384:
 2342 0144 FF       		.byte	0xff
 2343 0145 03       		.byte	0x3
 2344 0146 45       		.uleb128 .LLSDATT1384-.LLSDATTD1384
 2345              	.LLSDATTD1384:
 2346 0147 01       		.byte	0x1
 2347 0148 2F       		.uleb128 .LLSDACSE1384-.LLSDACSB1384
 2348              	.LLSDACSB1384:
 2349 0149 1E       		.uleb128 .LEHB39-.LFB1384
 2350 014a 05       		.uleb128 .LEHE39-.LEHB39
 2351 014b 38       		.uleb128 .L244-.LFB1384
 2352 014c 07       		.uleb128 0x7
 2353 014d 60       		.uleb128 .LEHB40-.LFB1384
 2354 014e 05       		.uleb128 .LEHE40-.LEHB40
 2355 014f AF02     		.uleb128 .L246-.LFB1384
 2356 0151 00       		.uleb128 0
 2357 0152 7A       		.uleb128 .LEHB41-.LFB1384
 2358 0153 2E       		.uleb128 .LEHE41-.LEHB41
 2359 0154 9202     		.uleb128 .L247-.LFB1384
 2360 0156 00       		.uleb128 0
 2361 0157 AB01     		.uleb128 .LEHB42-.LFB1384
 2362 0159 05       		.uleb128 .LEHE42-.LEHB42
 2363 015a AF02     		.uleb128 .L246-.LFB1384
 2364 015c 00       		.uleb128 0
 2365 015d D701     		.uleb128 .LEHB43-.LFB1384
 2366 015f 39       		.uleb128 .LEHE43-.LEHB43
 2367 0160 AA02     		.uleb128 .L245-.LFB1384
 2368 0162 00       		.uleb128 0
 2369 0163 A502     		.uleb128 .LEHB44-.LFB1384
 2370 0165 05       		.uleb128 .LEHE44-.LEHB44
 2371 0166 00       		.uleb128 0
 2372 0167 00       		.uleb128 0
 2373 0168 C202     		.uleb128 .LEHB45-.LFB1384
 2374 016a 1A       		.uleb128 .LEHE45-.LEHB45
 2375 016b E602     		.uleb128 .L248-.LFB1384
 2376 016d 00       		.uleb128 0
 2377 016e DC02     		.uleb128 .LEHB46-.LFB1384
 2378 0170 05       		.uleb128 .LEHE46-.LEHB46
 2379 0171 00       		.uleb128 0
 2380 0172 00       		.uleb128 0
 2381 0173 F102     		.uleb128 .LEHB47-.LFB1384
 2382 0175 05       		.uleb128 .LEHE47-.LEHB47
 2383 0176 00       		.uleb128 0
 2384 0177 00       		.uleb128 0
 2385              	.LLSDACSE1384:
 2386 0178 03       		.byte	0x3
 2387 0179 00       		.byte	0
 2388 017a 02       		.byte	0x2
 2389 017b 7D       		.byte	0x7d
 2390 017c 01       		.byte	0x1
 2391 017d 7D       		.byte	0x7d
 2392 017e 00       		.byte	0
 2393 017f 7D       		.byte	0x7d
 2394              		.align 4
 2395 0180 00000000 		.long	0
 2396              	
 2397 0184 00000000 		.long	_ZTISt9exception
 2398 0188 00000000 		.long	_ZTIN8UnitTest15AssertExceptionE
 2399              	.LLSDATT1384:
 2400              		.text
 2402              		.section	.text._ZN17ScopedCurrentTestD2Ev,"axG",@progbits,_ZN17ScopedCurrentTestD5Ev,comdat
 2403              		.align 2
 2404              		.p2align 4,,15
 2405              		.weak	_ZN17ScopedCurrentTestD2Ev
 2407              	_ZN17ScopedCurrentTestD2Ev:
 2408              	.LFB1056:
 2409              		.cfi_startproc
 2410 0000 53       		pushq	%rbx
 2411              		.cfi_def_cfa_offset 16
 2412              		.cfi_offset 3, -16
 2413 0001 4889FB   		movq	%rdi, %rbx
 2414 0004 E8000000 		call	_ZN8UnitTest11CurrentTest7ResultsEv
 2414      00
 2415 0009 488B13   		movq	(%rbx), %rdx
 2416 000c 488910   		movq	%rdx, (%rax)
 2417 000f E8000000 		call	_ZN8UnitTest11CurrentTest7DetailsEv
 2417      00
 2418 0014 488B5308 		movq	8(%rbx), %rdx
 2419 0018 488910   		movq	%rdx, (%rax)
 2420 001b 5B       		popq	%rbx
 2421              		.cfi_def_cfa_offset 8
 2422 001c C3       		ret
 2423              		.cfi_endproc
 2424              	.LFE1056:
 2426              		.weak	_ZN17ScopedCurrentTestD1Ev
 2427              		.set	_ZN17ScopedCurrentTestD1Ev,_ZN17ScopedCurrentTestD2Ev
 2428              		.section	.rodata.str1.1
 2429              	.LC26:
 2430 007f 45787065 		.string	"Expected "
 2430      63746564 
 2430      2000
 2431              	.LC27:
 2432 0089 20627574 		.string	" but was "
 2432      20776173 
 2432      2000
 2433              		.section	.text._ZN8UnitTest10CheckEqualIiiEEvRNS_11TestResultsERKT_RKT0_RKNS_11TestDetailsE,"axG",
 2434              		.p2align 4,,15
 2435              		.weak	_ZN8UnitTest10CheckEqualIiiEEvRNS_11TestResultsERKT_RKT0_RKNS_11TestDetailsE
 2437              	_ZN8UnitTest10CheckEqualIiiEEvRNS_11TestResultsERKT_RKT0_RKNS_11TestDetailsE:
 2438              	.LFB1435:
 2439              		.cfi_startproc
 2440              		.cfi_personality 0x3,__gxx_personality_v0
 2441              		.cfi_lsda 0x3,.LLSDA1435
 2442 0000 4156     		pushq	%r14
 2443              		.cfi_def_cfa_offset 16
 2444              		.cfi_offset 14, -16
 2445 0002 4155     		pushq	%r13
 2446              		.cfi_def_cfa_offset 24
 2447              		.cfi_offset 13, -24
 2448 0004 4154     		pushq	%r12
 2449              		.cfi_def_cfa_offset 32
 2450              		.cfi_offset 12, -32
 2451 0006 55       		pushq	%rbp
 2452              		.cfi_def_cfa_offset 40
 2453              		.cfi_offset 6, -40
 2454 0007 4889D5   		movq	%rdx, %rbp
 2455 000a 53       		pushq	%rbx
 2456              		.cfi_def_cfa_offset 48
 2457              		.cfi_offset 3, -48
 2458 000b 4889F3   		movq	%rsi, %rbx
 2459 000e 4881EC80 		subq	$384, %rsp
 2459      010000
 2460              		.cfi_def_cfa_offset 432
 2461 0015 8B02     		movl	(%rdx), %eax
 2462 0017 3906     		cmpl	%eax, (%rsi)
 2463 0019 0F84FF01 		je	.L256
 2463      0000
 2464 001f 4C8D6424 		leaq	112(%rsp), %r12
 2464      70
 2465 0024 4989FD   		movq	%rdi, %r13
 2466 0027 4989CE   		movq	%rcx, %r14
 2467 002a 4C89E7   		movq	%r12, %rdi
 2468 002d E8000000 		call	_ZNSt8ios_baseC2Ev
 2468      00
 2469 0032 31F6     		xorl	%esi, %esi
 2470 0034 4C89E7   		movq	%r12, %rdi
 2471 0037 48C78424 		movq	$0, 328(%rsp)
 2471      48010000 
 2471      00000000 
 2472 0043 C6842450 		movb	$0, 336(%rsp)
 2472      01000000 
 2473 004b C6842451 		movb	$0, 337(%rsp)
 2473      01000000 
 2474 0053 48C78424 		movq	$0, 344(%rsp)
 2474      58010000 
 2474      00000000 
 2475 005f 48C78424 		movq	$0, 352(%rsp)
 2475      60010000 
 2475      00000000 
 2476 006b 48C78424 		movq	$0, 360(%rsp)
 2476      68010000 
 2476      00000000 
 2477 0077 48C78424 		movq	$0, 368(%rsp)
 2477      70010000 
 2477      00000000 
 2478 0083 48C74424 		movq	$_ZTCN8UnitTest15MemoryOutStreamE0_So+24, 16(%rsp)
 2478      10000000 
 2478      00
 2479 008c 48C74424 		movq	$_ZTCN8UnitTest15MemoryOutStreamE0_So+64, 112(%rsp)
 2479      70000000 
 2479      00
 2480              	.LEHB48:
 2481 0095 E8000000 		call	_ZNSt9basic_iosIcSt11char_traitsIcEE4initEPSt15basic_streambufIcS1_E
 2481      00
 2482              	.LEHE48:
 2483 009a 488D7C24 		leaq	80(%rsp), %rdi
 2483      50
 2484 009f 48C74424 		movq	$_ZTCN8UnitTest15MemoryOutStreamE0_St19basic_ostringstreamIcSt11char_traitsIcESaIcEE+24, 16(%
 2484      10000000 
 2484      00
 2485 00a8 48C74424 		movq	$_ZTCN8UnitTest15MemoryOutStreamE0_St19basic_ostringstreamIcSt11char_traitsIcESaIcEE+64, 112(
 2485      70000000 
 2485      00
 2486 00b1 48C74424 		movq	$_ZTVSt15basic_streambufIcSt11char_traitsIcEE+16, 24(%rsp)
 2486      18000000 
 2486      00
 2487 00ba 48C74424 		movq	$0, 32(%rsp)
 2487      20000000 
 2487      00
 2488 00c3 48C74424 		movq	$0, 40(%rsp)
 2488      28000000 
 2488      00
 2489 00cc 48C74424 		movq	$0, 48(%rsp)
 2489      30000000 
 2489      00
 2490 00d5 48C74424 		movq	$0, 56(%rsp)
 2490      38000000 
 2490      00
 2491 00de 48C74424 		movq	$0, 64(%rsp)
 2491      40000000 
 2491      00
 2492 00e7 48C74424 		movq	$0, 72(%rsp)
 2492      48000000 
 2492      00
 2493 00f0 E8000000 		call	_ZNSt6localeC1Ev
 2493      00
 2494 00f5 488B4424 		movq	16(%rsp), %rax
 2494      10
 2495 00fa 488D7C24 		leaq	16(%rsp), %rdi
 2495      10
 2496 00ff 488D7424 		leaq	24(%rsp), %rsi
 2496      18
 2497 0104 48C74424 		movq	$_ZTVSt15basic_stringbufIcSt11char_traitsIcESaIcEE+16, 24(%rsp)
 2497      18000000 
 2497      00
 2498 010d C7442458 		movl	$16, 88(%rsp)
 2498      10000000 
 2499 0115 48C74424 		movq	$_ZNSs4_Rep20_S_empty_rep_storageE+24, 96(%rsp)
 2499      60000000 
 2499      00
 2500 011e 480378E8 		addq	-24(%rax), %rdi
 2501              	.LEHB49:
 2502 0122 E8000000 		call	_ZNSt9basic_iosIcSt11char_traitsIcEE4initEPSt15basic_streambufIcS1_E
 2502      00
 2503              	.LEHE49:
 2504 0127 488D7C24 		leaq	16(%rsp), %rdi
 2504      10
 2505 012c BA090000 		movl	$9, %edx
 2505      00
 2506 0131 BE000000 		movl	$.LC26, %esi
 2506      00
 2507 0136 48C74424 		movq	$_ZTVN8UnitTest15MemoryOutStreamE+24, 16(%rsp)
 2507      10000000 
 2507      00
 2508 013f 48C74424 		movq	$_ZTVN8UnitTest15MemoryOutStreamE+64, 112(%rsp)
 2508      70000000 
 2508      00
 2509 0148 48C74424 		movq	$_ZNSs4_Rep20_S_empty_rep_storageE+24, 104(%rsp)
 2509      68000000 
 2509      00
 2510 0151 8B6D00   		movl	0(%rbp), %ebp
 2511 0154 8B1B     		movl	(%rbx), %ebx
 2512              	.LEHB50:
 2513 0156 E8000000 		call	_ZSt16__ostream_insertIcSt11char_traitsIcEERSt13basic_ostreamIT_T0_ES6_PKS3_l
 2513      00
 2514 015b 488D7C24 		leaq	16(%rsp), %rdi
 2514      10
 2515 0160 89DE     		movl	%ebx, %esi
 2516 0162 E8000000 		call	_ZNSolsEi
 2516      00
 2517 0167 BA090000 		movl	$9, %edx
 2517      00
 2518 016c BE000000 		movl	$.LC27, %esi
 2518      00
 2519 0171 4889C7   		movq	%rax, %rdi
 2520 0174 4889C3   		movq	%rax, %rbx
 2521 0177 E8000000 		call	_ZSt16__ostream_insertIcSt11char_traitsIcEERSt13basic_ostreamIT_T0_ES6_PKS3_l
 2521      00
 2522 017c 89EE     		movl	%ebp, %esi
 2523 017e 4889DF   		movq	%rbx, %rdi
 2524 0181 E8000000 		call	_ZNSolsEi
 2524      00
 2525 0186 488D7C24 		leaq	16(%rsp), %rdi
 2525      10
 2526 018b E8000000 		call	_ZNK8UnitTest15MemoryOutStream7GetTextEv
 2526      00
 2527 0190 4889C2   		movq	%rax, %rdx
 2528 0193 4C89F6   		movq	%r14, %rsi
 2529 0196 4C89EF   		movq	%r13, %rdi
 2530 0199 E8000000 		call	_ZN8UnitTest11TestResults13OnTestFailureERKNS_11TestDetailsEPKc
 2530      00
 2531              	.LEHE50:
 2532 019e 488B4424 		movq	104(%rsp), %rax
 2532      68
 2533 01a3 48C74424 		movq	$_ZTVN8UnitTest15MemoryOutStreamE+24, 16(%rsp)
 2533      10000000 
 2533      00
 2534 01ac 48C74424 		movq	$_ZTVN8UnitTest15MemoryOutStreamE+64, 112(%rsp)
 2534      70000000 
 2534      00
 2535 01b5 488D78E8 		leaq	-24(%rax), %rdi
 2536 01b9 4881FF00 		cmpq	$_ZNSs4_Rep20_S_empty_rep_storageE, %rdi
 2536      000000
 2537 01c0 756C     		jne	.L279
 2538              	.L263:
 2539 01c2 488B4424 		movq	96(%rsp), %rax
 2539      60
 2540 01c7 48C74424 		movq	$_ZTCN8UnitTest15MemoryOutStreamE0_St19basic_ostringstreamIcSt11char_traitsIcESaIcEE+24, 16(%
 2540      10000000 
 2540      00
 2541 01d0 48C74424 		movq	$_ZTCN8UnitTest15MemoryOutStreamE0_St19basic_ostringstreamIcSt11char_traitsIcESaIcEE+64, 112(
 2541      70000000 
 2541      00
 2542 01d9 48C74424 		movq	$_ZTVSt15basic_stringbufIcSt11char_traitsIcESaIcEE+16, 24(%rsp)
 2542      18000000 
 2542      00
 2543 01e2 488D78E8 		leaq	-24(%rax), %rdi
 2544 01e6 4881FF00 		cmpq	$_ZNSs4_Rep20_S_empty_rep_storageE, %rdi
 2544      000000
 2545 01ed 756B     		jne	.L280
 2546              	.L268:
 2547 01ef 488D7C24 		leaq	80(%rsp), %rdi
 2547      50
 2548 01f4 48C74424 		movq	$_ZTVSt15basic_streambufIcSt11char_traitsIcEE+16, 24(%rsp)
 2548      18000000 
 2548      00
 2549 01fd E8000000 		call	_ZNSt6localeD1Ev
 2549      00
 2550 0202 488D7C24 		leaq	112(%rsp), %rdi
 2550      70
 2551 0207 48C74424 		movq	$_ZTCN8UnitTest15MemoryOutStreamE0_So+24, 16(%rsp)
 2551      10000000 
 2551      00
 2552 0210 48C74424 		movq	$_ZTVSt9basic_iosIcSt11char_traitsIcEE+16, 112(%rsp)
 2552      70000000 
 2552      00
 2553              	.LEHB51:
 2554 0219 E8000000 		call	_ZNSt8ios_baseD2Ev
 2554      00
 2555              	.LEHE51:
 2556              	.L256:
 2557 021e 4881C480 		addq	$384, %rsp
 2557      010000
 2558              		.cfi_remember_state
 2559              		.cfi_def_cfa_offset 48
 2560 0225 5B       		popq	%rbx
 2561              		.cfi_def_cfa_offset 40
 2562 0226 5D       		popq	%rbp
 2563              		.cfi_def_cfa_offset 32
 2564 0227 415C     		popq	%r12
 2565              		.cfi_def_cfa_offset 24
 2566 0229 415D     		popq	%r13
 2567              		.cfi_def_cfa_offset 16
 2568 022b 415E     		popq	%r14
 2569              		.cfi_def_cfa_offset 8
 2570 022d C3       		ret
 2571              	.L279:
 2572              		.cfi_restore_state
 2573 022e B9000000 		movl	$_ZL28__gthrw___pthread_key_createPjPFvPvE, %ecx
 2573      00
 2574 0233 488D5710 		leaq	16(%rdi), %rdx
 2575 0237 4885C9   		testq	%rcx, %rcx
 2576 023a 747D     		je	.L264
 2577 023c 83C8FF   		orl	$-1, %eax
 2578 023f F00FC102 		lock xaddl	%eax, (%rdx)
 2579              	.L265:
 2580 0243 85C0     		testl	%eax, %eax
 2581 0245 0F8F77FF 		jg	.L263
 2581      FFFF
 2582 024b 488D7424 		leaq	15(%rsp), %rsi
 2582      0F
 2583 0250 E8000000 		call	_ZNSs4_Rep10_M_destroyERKSaIcE
 2583      00
 2584 0255 E968FFFF 		jmp	.L263
 2584      FF
 2585              	.L280:
 2586 025a B9000000 		movl	$_ZL28__gthrw___pthread_key_createPjPFvPvE, %ecx
 2586      00
 2587 025f 488D5710 		leaq	16(%rdi), %rdx
 2588 0263 4885C9   		testq	%rcx, %rcx
 2589 0266 7479     		je	.L269
 2590 0268 83C8FF   		orl	$-1, %eax
 2591 026b F00FC102 		lock xaddl	%eax, (%rdx)
 2592              	.L270:
 2593 026f 85C0     		testl	%eax, %eax
 2594 0271 0F8F78FF 		jg	.L268
 2594      FFFF
 2595 0277 488D7424 		leaq	15(%rsp), %rsi
 2595      0F
 2596 027c E8000000 		call	_ZNSs4_Rep10_M_destroyERKSaIcE
 2596      00
 2597 0281 E969FFFF 		jmp	.L268
 2597      FF
 2598              	.L273:
 2599 0286 488D7C24 		leaq	16(%rsp), %rdi
 2599      10
 2600 028b 4889C3   		movq	%rax, %rbx
 2601 028e E8000000 		call	_ZN8UnitTest15MemoryOutStreamD1Ev
 2601      00
 2602 0293 4889DF   		movq	%rbx, %rdi
 2603              	.LEHB52:
 2604 0296 E8000000 		call	_Unwind_Resume
 2604      00
 2605              	.LEHE52:
 2606              	.L274:
 2607 029b 4889C3   		movq	%rax, %rbx
 2608              	.L260:
 2609 029e 488D7C24 		leaq	112(%rsp), %rdi
 2609      70
 2610 02a3 48C74424 		movq	$_ZTVSt9basic_iosIcSt11char_traitsIcEE+16, 112(%rsp)
 2610      70000000 
 2610      00
 2611 02ac E8000000 		call	_ZNSt8ios_baseD2Ev
 2611      00
 2612 02b1 4889DF   		movq	%rbx, %rdi
 2613              	.LEHB53:
 2614 02b4 E8000000 		call	_Unwind_Resume
 2614      00
 2615              	.LEHE53:
 2616              	.L264:
 2617 02b9 8B50F8   		movl	-8(%rax), %edx
 2618 02bc 8D4AFF   		leal	-1(%rdx), %ecx
 2619 02bf 8948F8   		movl	%ecx, -8(%rax)
 2620 02c2 89D0     		movl	%edx, %eax
 2621 02c4 E97AFFFF 		jmp	.L265
 2621      FF
 2622              	.L275:
 2623 02c9 488D7C24 		leaq	24(%rsp), %rdi
 2623      18
 2624 02ce 4889C3   		movq	%rax, %rbx
 2625 02d1 E8000000 		call	_ZNSt15basic_stringbufIcSt11char_traitsIcESaIcEED1Ev
 2625      00
 2626 02d6 48C74424 		movq	$_ZTCN8UnitTest15MemoryOutStreamE0_So+24, 16(%rsp)
 2626      10000000 
 2626      00
 2627 02df EBBD     		jmp	.L260
 2628              	.L269:
 2629 02e1 8B50F8   		movl	-8(%rax), %edx
 2630 02e4 8D4AFF   		leal	-1(%rdx), %ecx
 2631 02e7 8948F8   		movl	%ecx, -8(%rax)
 2632 02ea 89D0     		movl	%edx, %eax
 2633 02ec EB81     		jmp	.L270
 2634              		.cfi_endproc
 2635              	.LFE1435:
 2636              		.section	.gcc_except_table
 2637              	.LLSDA1435:
 2638 018c FF       		.byte	0xff
 2639 018d FF       		.byte	0xff
 2640 018e 01       		.byte	0x1
 2641 018f 21       		.uleb128 .LLSDACSE1435-.LLSDACSB1435
 2642              	.LLSDACSB1435:
 2643 0190 9501     		.uleb128 .LEHB48-.LFB1435
 2644 0192 05       		.uleb128 .LEHE48-.LEHB48
 2645 0193 9B05     		.uleb128 .L274-.LFB1435
 2646 0195 00       		.uleb128 0
 2647 0196 A202     		.uleb128 .LEHB49-.LFB1435
 2648 0198 05       		.uleb128 .LEHE49-.LEHB49
 2649 0199 C905     		.uleb128 .L275-.LFB1435
 2650 019b 00       		.uleb128 0
 2651 019c D602     		.uleb128 .LEHB50-.LFB1435
 2652 019e 48       		.uleb128 .LEHE50-.LEHB50
 2653 019f 8605     		.uleb128 .L273-.LFB1435
 2654 01a1 00       		.uleb128 0
 2655 01a2 9904     		.uleb128 .LEHB51-.LFB1435
 2656 01a4 05       		.uleb128 .LEHE51-.LEHB51
 2657 01a5 00       		.uleb128 0
 2658 01a6 00       		.uleb128 0
 2659 01a7 9605     		.uleb128 .LEHB52-.LFB1435
 2660 01a9 05       		.uleb128 .LEHE52-.LEHB52
 2661 01aa 00       		.uleb128 0
 2662 01ab 00       		.uleb128 0
 2663 01ac B405     		.uleb128 .LEHB53-.LFB1435
 2664 01ae 05       		.uleb128 .LEHE53-.LEHB53
 2665 01af 00       		.uleb128 0
 2666 01b0 00       		.uleb128 0
 2667              	.LLSDACSE1435:
 2668              		.section	.text._ZN8UnitTest10CheckEqualIiiEEvRNS_11TestResultsERKT_RKT0_RKNS_11TestDetailsE,"axG",
 2670              		.section	.rodata.str1.8
 2671 01d3 00000000 		.align 8
 2671      00
 2672              	.LC28:
 2673 01d8 556E6861 		.string	"Unhandled exception in CHECK_EQUAL(1, SimpleFixture::instanceCount)"
 2673      6E646C65 
 2673      64206578 
 2673      63657074 
 2673      696F6E20 
 2674              		.text
 2675 0e86 662E0F1F 		.p2align 4,,15
 2675      84000000 
 2675      0000
 2677              	_ZN8UnitTest11ExecuteTestIN12_GLOBAL__N_145SimpleFixtureOnlyOneFixtureAliveAtATimeHelperEEEvRT_RKNS
 2678              	.LFB1642:
 2679              		.cfi_startproc
 2680              		.cfi_personality 0x3,__gxx_personality_v0
 2681              		.cfi_lsda 0x3,.LLSDA1642
 2682 0e90 4154     		pushq	%r12
 2683              		.cfi_def_cfa_offset 16
 2684              		.cfi_offset 12, -16
 2685 0e92 55       		pushq	%rbp
 2686              		.cfi_def_cfa_offset 24
 2687              		.cfi_offset 6, -24
 2688 0e93 53       		pushq	%rbx
 2689              		.cfi_def_cfa_offset 32
 2690              		.cfi_offset 3, -32
 2691 0e94 4889FB   		movq	%rdi, %rbx
 2692 0e97 4881ECA0 		subq	$1184, %rsp
 2692      040000
 2693              		.cfi_def_cfa_offset 1216
 2694 0e9e 48897C24 		movq	%rdi, 8(%rsp)
 2694      08
 2695              	.LEHB54:
 2696 0ea3 E8000000 		call	_ZN8UnitTest11CurrentTest7DetailsEv
 2696      00
 2697              	.LEHE54:
 2698 0ea8 488D7C24 		leaq	64(%rsp), %rdi
 2698      40
 2699 0ead 488918   		movq	%rbx, (%rax)
 2700              	.LEHB55:
 2701 0eb0 E8000000 		call	_ZN8UnitTest16SignalTranslatorC1Ev
 2701      00
 2702              	.LEHE55:
 2703 0eb5 488B3D00 		movq	_ZN8UnitTest16SignalTranslator12s_jumpTargetE(%rip), %rdi
 2703      000000
 2704 0ebc BE010000 		movl	$1, %esi
 2704      00
 2705 0ec1 E8000000 		call	__sigsetjmp
 2705      00
 2706 0ec6 85C0     		testl	%eax, %eax
 2707 0ec8 7551     		jne	.L308
 2708              	.LEHB56:
 2709 0eca E8000000 		call	_ZN8UnitTest11CurrentTest7DetailsEv
 2709      00
 2710 0ecf 488B30   		movq	(%rax), %rsi
 2711 0ed2 488D7C24 		leaq	32(%rsp), %rdi
 2711      20
 2712 0ed7 BA8F0000 		movl	$143, %edx
 2712      00
 2713 0edc E8000000 		call	_ZN8UnitTest11TestDetailsC1ERKS0_i
 2713      00
 2714 0ee1 C7442410 		movl	$1, 16(%rsp)
 2714      01000000 
 2715 0ee9 E8000000 		call	_ZN8UnitTest11CurrentTest7ResultsEv
 2715      00
 2716 0eee 488B38   		movq	(%rax), %rdi
 2717 0ef1 488D4C24 		leaq	32(%rsp), %rcx
 2717      20
 2718 0ef6 488D7424 		leaq	16(%rsp), %rsi
 2718      10
 2719 0efb BA000000 		movl	$_ZN12_GLOBAL__N_113SimpleFixture13instanceCountE, %edx
 2719      00
 2720 0f00 E8000000 		call	_ZN8UnitTest10CheckEqualIiiEEvRNS_11TestResultsERKT_RKT0_RKNS_11TestDetailsE
 2720      00
 2721              	.LEHE56:
 2722              	.L283:
 2723 0f05 488D7C24 		leaq	64(%rsp), %rdi
 2723      40
 2724              	.LEHB57:
 2725 0f0a E8000000 		call	_ZN8UnitTest16SignalTranslatorD1Ev
 2725      00
 2726              	.LEHE57:
 2727              	.L281:
 2728 0f0f 4881C4A0 		addq	$1184, %rsp
 2728      040000
 2729              		.cfi_remember_state
 2730              		.cfi_def_cfa_offset 32
 2731 0f16 5B       		popq	%rbx
 2732              		.cfi_def_cfa_offset 24
 2733 0f17 5D       		popq	%rbp
 2734              		.cfi_def_cfa_offset 16
 2735 0f18 415C     		popq	%r12
 2736              		.cfi_def_cfa_offset 8
 2737 0f1a C3       		ret
 2738              	.L308:
 2739              		.cfi_restore_state
 2740 0f1b BF080000 		movl	$8, %edi
 2740      00
 2741 0f20 E8000000 		call	__cxa_allocate_exception
 2741      00
 2742 0f25 31D2     		xorl	%edx, %edx
 2743 0f27 48C70000 		movq	$.LC20, (%rax)
 2743      000000
 2744 0f2e BE000000 		movl	$_ZTIPKc, %esi
 2744      00
 2745 0f33 4889C7   		movq	%rax, %rdi
 2746              	.LEHB58:
 2747 0f36 E8000000 		call	__cxa_throw
 2747      00
 2748              	.LEHE58:
 2749              	.L301:
 2750 0f3b 4889C3   		movq	%rax, %rbx
 2751 0f3e 4889D5   		movq	%rdx, %rbp
 2752              	.L285:
 2753 0f41 488D7C24 		leaq	64(%rsp), %rdi
 2753      40
 2754 0f46 E8000000 		call	_ZN8UnitTest16SignalTranslatorD1Ev
 2754      00
 2755 0f4b 4889DF   		movq	%rbx, %rdi
 2756 0f4e 4889EA   		movq	%rbp, %rdx
 2757              	.L287:
 2758 0f51 4883FA01 		cmpq	$1, %rdx
 2759 0f55 0F840201 		je	.L289
 2759      0000
 2760 0f5b 4883FA02 		cmpq	$2, %rdx
 2761 0f5f 0F85D200 		jne	.L309
 2761      0000
 2762 0f65 E8000000 		call	__cxa_begin_catch
 2762      00
 2763 0f6a 488D7C24 		leaq	64(%rsp), %rdi
 2763      40
 2764 0f6f 4889C3   		movq	%rax, %rbx
 2765              	.LEHB59:
 2766 0f72 E8000000 		call	_ZN8UnitTest15MemoryOutStreamC1Ev
 2766      00
 2767              	.LEHE59:
 2768 0f77 488B03   		movq	(%rbx), %rax
 2769 0f7a 4889DF   		movq	%rbx, %rdi
 2770 0f7d FF5010   		call	*16(%rax)
 2771 0f80 488D7C24 		leaq	64(%rsp), %rdi
 2771      40
 2772 0f85 BE000000 		movl	$.LC23, %esi
 2772      00
 2773 0f8a 4889C3   		movq	%rax, %rbx
 2774              	.LEHB60:
 2775 0f8d E8000000 		call	_ZStlsISt11char_traitsIcEERSt13basic_ostreamIcT_ES5_PKc
 2775      00
 2776 0f92 4889DE   		movq	%rbx, %rsi
 2777 0f95 4889C7   		movq	%rax, %rdi
 2778 0f98 E8000000 		call	_ZStlsISt11char_traitsIcEERSt13basic_ostreamIcT_ES5_PKc
 2778      00
 2779 0f9d 488D7C24 		leaq	64(%rsp), %rdi
 2779      40
 2780 0fa2 E8000000 		call	_ZNK8UnitTest15MemoryOutStream7GetTextEv
 2780      00
 2781 0fa7 4889C3   		movq	%rax, %rbx
 2782 0faa E8000000 		call	_ZN8UnitTest11CurrentTest7ResultsEv
 2782      00
 2783 0faf 488B7424 		movq	8(%rsp), %rsi
 2783      08
 2784 0fb4 488B38   		movq	(%rax), %rdi
 2785 0fb7 4889DA   		movq	%rbx, %rdx
 2786 0fba E8000000 		call	_ZN8UnitTest11TestResults13OnTestFailureERKNS_11TestDetailsEPKc
 2786      00
 2787              	.LEHE60:
 2788 0fbf 488D7C24 		leaq	64(%rsp), %rdi
 2788      40
 2789              	.LEHB61:
 2790 0fc4 E8000000 		call	_ZN8UnitTest15MemoryOutStreamD1Ev
 2790      00
 2791              	.LEHE61:
 2792              	.L306:
 2793 0fc9 E8000000 		call	__cxa_end_catch
 2793      00
 2794 0fce E93CFFFF 		jmp	.L281
 2794      FF
 2795              	.L300:
 2796 0fd3 4889C7   		movq	%rax, %rdi
 2797              		.p2align 4,,5
 2798 0fd6 E976FFFF 		jmp	.L287
 2798      FF
 2799              	.L302:
 2800 0fdb 4889C7   		movq	%rax, %rdi
 2801 0fde 6690     		.p2align 4,,5
 2802 0fe0 E8000000 		call	__cxa_begin_catch
 2802      00
 2803              	.LEHB62:
 2804 0fe5 E8000000 		call	_ZN8UnitTest11CurrentTest7DetailsEv
 2804      00
 2805 0fea 488B30   		movq	(%rax), %rsi
 2806 0fed 488D7C24 		leaq	32(%rsp), %rdi
 2806      20
 2807 0ff2 BA8F0000 		movl	$143, %edx
 2807      00
 2808 0ff7 E8000000 		call	_ZN8UnitTest11TestDetailsC1ERKS0_i
 2808      00
 2809 0ffc E8000000 		call	_ZN8UnitTest11CurrentTest7ResultsEv
 2809      00
 2810 1001 488B38   		movq	(%rax), %rdi
 2811 1004 488D7424 		leaq	32(%rsp), %rsi
 2811      20
 2812 1009 BA000000 		movl	$.LC28, %edx
 2812      00
 2813 100e E8000000 		call	_ZN8UnitTest11TestResults13OnTestFailureERKNS_11TestDetailsEPKc
 2813      00
 2814              	.LEHE62:
 2815              	.LEHB63:
 2816 1013 E8000000 		call	__cxa_end_catch
 2816      00
 2817              	.LEHE63:
 2818 1018 E9E8FEFF 		jmp	.L283
 2818      FF
 2819              	.L298:
 2820 101d 488D7C24 		leaq	64(%rsp), %rdi
 2820      40
 2821 1022 4889C3   		movq	%rax, %rbx
 2822 1025 E8000000 		call	_ZN8UnitTest15MemoryOutStreamD1Ev
 2822      00
 2823              	.L293:
 2824 102a E8000000 		call	__cxa_end_catch
 2824      00
 2825 102f 4889DF   		movq	%rbx, %rdi
 2826              	.LEHB64:
 2827 1032 E8000000 		call	_Unwind_Resume
 2827      00
 2828              	.LEHE64:
 2829              	.L309:
 2830 1037 E8000000 		call	__cxa_begin_catch
 2830      00
 2831              	.LEHB65:
 2832 103c E8000000 		call	_ZN8UnitTest11CurrentTest7ResultsEv
 2832      00
 2833 1041 488B7424 		movq	8(%rsp), %rsi
 2833      08
 2834 1046 488B38   		movq	(%rax), %rdi
 2835 1049 BA000000 		movl	$.LC24, %edx
 2835      00
 2836 104e E8000000 		call	_ZN8UnitTest11TestResults13OnTestFailureERKNS_11TestDetailsEPKc
 2836      00
 2837              	.LEHE65:
 2838              	.LEHB66:
 2839 1053 E8000000 		call	__cxa_end_catch
 2839      00
 2840              	.LEHE66:
 2841 1058 E9B2FEFF 		jmp	.L281
 2841      FF
 2842              	.L289:
 2843 105d 0F1F00   		.p2align 4,,8
 2844 1060 E8000000 		call	__cxa_begin_catch
 2844      00
 2845 1065 4889C3   		movq	%rax, %rbx
 2846 1068 488B00   		movq	(%rax), %rax
 2847 106b 4889DF   		movq	%rbx, %rdi
 2848 106e FF5010   		call	*16(%rax)
 2849 1071 4889DF   		movq	%rbx, %rdi
 2850 1074 4889C5   		movq	%rax, %rbp
 2851              	.LEHB67:
 2852 1077 E8000000 		call	_ZNK8UnitTest15AssertException10LineNumberEv
 2852      00
 2853 107c 4889DF   		movq	%rbx, %rdi
 2854 107f 4189C4   		movl	%eax, %r12d
 2855 1082 E8000000 		call	_ZNK8UnitTest15AssertException8FilenameEv
 2855      00
 2856 1087 488B5424 		movq	8(%rsp), %rdx
 2856      08
 2857 108c 488D7C24 		leaq	64(%rsp), %rdi
 2857      40
 2858 1091 4589E0   		movl	%r12d, %r8d
 2859 1094 4889C1   		movq	%rax, %rcx
 2860 1097 488B7208 		movq	8(%rdx), %rsi
 2861 109b 488B12   		movq	(%rdx), %rdx
 2862 109e E8000000 		call	_ZN8UnitTest11TestDetailsC1EPKcS2_S2_i
 2862      00
 2863 10a3 E8000000 		call	_ZN8UnitTest11CurrentTest7ResultsEv
 2863      00
 2864 10a8 488B38   		movq	(%rax), %rdi
 2865 10ab 488D7424 		leaq	64(%rsp), %rsi
 2865      40
 2866 10b0 4889EA   		movq	%rbp, %rdx
 2867 10b3 E8000000 		call	_ZN8UnitTest11TestResults13OnTestFailureERKNS_11TestDetailsEPKc
 2867      00
 2868              	.LEHE67:
 2869 10b8 E90CFFFF 		jmp	.L306
 2869      FF
 2870              	.L296:
 2871 10bd 4889C3   		movq	%rax, %rbx
 2872 10c0 E8000000 		call	__cxa_end_catch
 2872      00
 2873 10c5 4889DF   		movq	%rbx, %rdi
 2874              	.LEHB68:
 2875 10c8 E8000000 		call	_Unwind_Resume
 2875      00
 2876              	.LEHE68:
 2877              	.L299:
 2878              	.L307:
 2879 10cd 4889C3   		movq	%rax, %rbx
 2880 10d0 E955FFFF 		jmp	.L293
 2880      FF
 2881              	.L297:
 2882              		.p2align 4,,2
 2883 10d5 EBF6     		jmp	.L307
 2884              	.L303:
 2885 10d7 4889C3   		movq	%rax, %rbx
 2886 10da 4889D5   		movq	%rdx, %rbp
 2887 10dd E8000000 		call	__cxa_end_catch
 2887      00
 2888              		.p2align 4,,2
 2889 10e2 E95AFEFF 		jmp	.L285
 2889      FF
 2890              		.cfi_endproc
 2891              	.LFE1642:
 2892              		.section	.gcc_except_table
 2893 01b1 000000   		.align 4
 2894              	.LLSDA1642:
 2895 01b4 FF       		.byte	0xff
 2896 01b5 03       		.byte	0x3
 2897 01b6 69       		.uleb128 .LLSDATT1642-.LLSDATTD1642
 2898              	.LLSDATTD1642:
 2899 01b7 01       		.byte	0x1
 2900 01b8 52       		.uleb128 .LLSDACSE1642-.LLSDACSB1642
 2901              	.LLSDACSB1642:
 2902 01b9 13       		.uleb128 .LEHB54-.LFB1642
 2903 01ba 05       		.uleb128 .LEHE54-.LEHB54
 2904 01bb 00       		.uleb128 0
 2905 01bc 00       		.uleb128 0
 2906 01bd 20       		.uleb128 .LEHB55-.LFB1642
 2907 01be 05       		.uleb128 .LEHE55-.LEHB55
 2908 01bf C302     		.uleb128 .L300-.LFB1642
 2909 01c1 05       		.uleb128 0x5
 2910 01c2 3A       		.uleb128 .LEHB56-.LFB1642
 2911 01c3 3B       		.uleb128 .LEHE56-.LEHB56
 2912 01c4 CB02     		.uleb128 .L302-.LFB1642
 2913 01c6 01       		.uleb128 0x1
 2914 01c7 7A       		.uleb128 .LEHB57-.LFB1642
 2915 01c8 05       		.uleb128 .LEHE57-.LEHB57
 2916 01c9 C302     		.uleb128 .L300-.LFB1642
 2917 01cb 05       		.uleb128 0x5
 2918 01cc A601     		.uleb128 .LEHB58-.LFB1642
 2919 01ce 05       		.uleb128 .LEHE58-.LEHB58
 2920 01cf AB01     		.uleb128 .L301-.LFB1642
 2921 01d1 07       		.uleb128 0x7
 2922 01d2 E201     		.uleb128 .LEHB59-.LFB1642
 2923 01d4 05       		.uleb128 .LEHE59-.LEHB59
 2924 01d5 C504     		.uleb128 .L297-.LFB1642
 2925 01d7 00       		.uleb128 0
 2926 01d8 FD01     		.uleb128 .LEHB60-.LFB1642
 2927 01da 32       		.uleb128 .LEHE60-.LEHB60
 2928 01db 8D03     		.uleb128 .L298-.LFB1642
 2929 01dd 00       		.uleb128 0
 2930 01de B402     		.uleb128 .LEHB61-.LFB1642
 2931 01e0 05       		.uleb128 .LEHE61-.LEHB61
 2932 01e1 C504     		.uleb128 .L297-.LFB1642
 2933 01e3 00       		.uleb128 0
 2934 01e4 D502     		.uleb128 .LEHB62-.LFB1642
 2935 01e6 2E       		.uleb128 .LEHE62-.LEHB62
 2936 01e7 C704     		.uleb128 .L303-.LFB1642
 2937 01e9 07       		.uleb128 0x7
 2938 01ea 8303     		.uleb128 .LEHB63-.LFB1642
 2939 01ec 05       		.uleb128 .LEHE63-.LEHB63
 2940 01ed AB01     		.uleb128 .L301-.LFB1642
 2941 01ef 07       		.uleb128 0x7
 2942 01f0 A203     		.uleb128 .LEHB64-.LFB1642
 2943 01f2 05       		.uleb128 .LEHE64-.LEHB64
 2944 01f3 00       		.uleb128 0
 2945 01f4 00       		.uleb128 0
 2946 01f5 AC03     		.uleb128 .LEHB65-.LFB1642
 2947 01f7 17       		.uleb128 .LEHE65-.LEHB65
 2948 01f8 AD04     		.uleb128 .L296-.LFB1642
 2949 01fa 00       		.uleb128 0
 2950 01fb C303     		.uleb128 .LEHB66-.LFB1642
 2951 01fd 05       		.uleb128 .LEHE66-.LEHB66
 2952 01fe 00       		.uleb128 0
 2953 01ff 00       		.uleb128 0
 2954 0200 E703     		.uleb128 .LEHB67-.LFB1642
 2955 0202 41       		.uleb128 .LEHE67-.LEHB67
 2956 0203 BD04     		.uleb128 .L299-.LFB1642
 2957 0205 00       		.uleb128 0
 2958 0206 B804     		.uleb128 .LEHB68-.LFB1642
 2959 0208 05       		.uleb128 .LEHE68-.LEHB68
 2960 0209 00       		.uleb128 0
 2961 020a 00       		.uleb128 0
 2962              	.LLSDACSE1642:
 2963 020b 03       		.byte	0x3
 2964 020c 00       		.byte	0
 2965 020d 02       		.byte	0x2
 2966 020e 7D       		.byte	0x7d
 2967 020f 01       		.byte	0x1
 2968 0210 7D       		.byte	0x7d
 2969 0211 00       		.byte	0
 2970 0212 7D       		.byte	0x7d
 2971 0213 00       		.align 4
 2972 0214 00000000 		.long	0
 2973              	
 2974 0218 00000000 		.long	_ZTISt9exception
 2975 021c 00000000 		.long	_ZTIN8UnitTest15AssertExceptionE
 2976              	.LLSDATT1642:
 2977              		.text
 2979 10e7 90       		.align 2
 2980 10e8 0F1F8400 		.p2align 4,,15
 2980      00000000 
 2982              	_ZNK12_GLOBAL__N_143TestSimpleFixtureOnlyOneFixtureAliveAtATime7RunImplEv:
 2983              	.LFB1395:
 2984              		.cfi_startproc
 2985              		.cfi_personality 0x3,__gxx_personality_v0
 2986              		.cfi_lsda 0x3,.LLSDA1395
 2987 10f0 4155     		pushq	%r13
 2988              		.cfi_def_cfa_offset 16
 2989              		.cfi_offset 13, -16
 2990 10f2 4154     		pushq	%r12
 2991              		.cfi_def_cfa_offset 24
 2992              		.cfi_offset 12, -24
 2993 10f4 55       		pushq	%rbp
 2994              		.cfi_def_cfa_offset 32
 2995              		.cfi_offset 6, -32
 2996 10f5 4889FD   		movq	%rdi, %rbp
 2997 10f8 53       		pushq	%rbx
 2998              		.cfi_def_cfa_offset 40
 2999              		.cfi_offset 3, -40
 3000 10f9 488D5F08 		leaq	8(%rdi), %rbx
 3001 10fd 4881EC78 		subq	$376, %rsp
 3001      010000
 3002              		.cfi_def_cfa_offset 416
 3003 1104 4889DF   		movq	%rbx, %rdi
 3004 1107 83050000 		addl	$1, _ZN12_GLOBAL__N_113SimpleFixture13instanceCountE(%rip)
 3004      000001
 3005              	.LEHB69:
 3006 110e E87DFDFF 		call	_ZN8UnitTest11ExecuteTestIN12_GLOBAL__N_145SimpleFixtureOnlyOneFixtureAliveAtATimeHelperEEEvR
 3006      FF
 3007              	.LEHE69:
 3008 1113 832D0000 		subl	$1, _ZN12_GLOBAL__N_113SimpleFixture13instanceCountE(%rip)
 3008      000001
 3009              	.L310:
 3010 111a 4881C478 		addq	$376, %rsp
 3010      010000
 3011              		.cfi_remember_state
 3012              		.cfi_def_cfa_offset 40
 3013 1121 5B       		popq	%rbx
 3014              		.cfi_def_cfa_offset 32
 3015 1122 5D       		popq	%rbp
 3016              		.cfi_def_cfa_offset 24
 3017 1123 415C     		popq	%r12
 3018              		.cfi_def_cfa_offset 16
 3019 1125 415D     		popq	%r13
 3020              		.cfi_def_cfa_offset 8
 3021 1127 C3       		ret
 3022              	.L320:
 3023              		.cfi_restore_state
 3024 1128 832D0000 		subl	$1, _ZN12_GLOBAL__N_113SimpleFixture13instanceCountE(%rip)
 3024      000001
 3025 112f 4883FA01 		cmpq	$1, %rdx
 3026 1133 4889C7   		movq	%rax, %rdi
 3027 1136 7472     		je	.L313
 3028 1138 4883FA02 		cmpq	$2, %rdx
 3029 113c 0F85E000 		jne	.L329
 3029      0000
 3030 1142 E8000000 		call	__cxa_begin_catch
 3030      00
 3031 1147 4889E7   		movq	%rsp, %rdi
 3032 114a 4989C4   		movq	%rax, %r12
 3033 114d 4889E5   		movq	%rsp, %rbp
 3034              	.LEHB70:
 3035 1150 E8000000 		call	_ZN8UnitTest15MemoryOutStreamC1Ev
 3035      00
 3036              	.LEHE70:
 3037 1155 498B0424 		movq	(%r12), %rax
 3038 1159 4C89E7   		movq	%r12, %rdi
 3039 115c FF5010   		call	*16(%rax)
 3040 115f BE000000 		movl	$.LC23, %esi
 3040      00
 3041 1164 4889E7   		movq	%rsp, %rdi
 3042 1167 4989C4   		movq	%rax, %r12
 3043              	.LEHB71:
 3044 116a E8000000 		call	_ZStlsISt11char_traitsIcEERSt13basic_ostreamIcT_ES5_PKc
 3044      00
 3045 116f 4C89E6   		movq	%r12, %rsi
 3046 1172 4889C7   		movq	%rax, %rdi
 3047 1175 E8000000 		call	_ZStlsISt11char_traitsIcEERSt13basic_ostreamIcT_ES5_PKc
 3047      00
 3048 117a 4889E7   		movq	%rsp, %rdi
 3049 117d E8000000 		call	_ZNK8UnitTest15MemoryOutStream7GetTextEv
 3049      00
 3050 1182 4989C4   		movq	%rax, %r12
 3051 1185 E8000000 		call	_ZN8UnitTest11CurrentTest7ResultsEv
 3051      00
 3052 118a 488B38   		movq	(%rax), %rdi
 3053 118d 4C89E2   		movq	%r12, %rdx
 3054 1190 4889DE   		movq	%rbx, %rsi
 3055 1193 E8000000 		call	_ZN8UnitTest11TestResults13OnTestFailureERKNS_11TestDetailsEPKc
 3055      00
 3056              	.LEHE71:
 3057 1198 4889E7   		movq	%rsp, %rdi
 3058              	.LEHB72:
 3059 119b E8000000 		call	_ZN8UnitTest15MemoryOutStreamD1Ev
 3059      00
 3060              	.LEHE72:
 3061              	.L327:
 3062 11a0 E8000000 		call	__cxa_end_catch
 3062      00
 3063              		.p2align 4,,2
 3064 11a5 E970FFFF 		jmp	.L310
 3064      FF
 3065              	.L313:
 3066 11aa 660F1F44 		.p2align 4,,8
 3066      0000
 3067 11b0 E8000000 		call	__cxa_begin_catch
 3067      00
 3068 11b5 4889C3   		movq	%rax, %rbx
 3069 11b8 488B00   		movq	(%rax), %rax
 3070 11bb 4889DF   		movq	%rbx, %rdi
 3071 11be FF5010   		call	*16(%rax)
 3072 11c1 4889DF   		movq	%rbx, %rdi
 3073 11c4 4989C4   		movq	%rax, %r12
 3074              	.LEHB73:
 3075 11c7 E8000000 		call	_ZNK8UnitTest15AssertException10LineNumberEv
 3075      00
 3076 11cc 4889DF   		movq	%rbx, %rdi
 3077 11cf 4189C5   		movl	%eax, %r13d
 3078 11d2 E8000000 		call	_ZNK8UnitTest15AssertException8FilenameEv
 3078      00
 3079 11d7 488B5508 		movq	8(%rbp), %rdx
 3080 11db 488B7510 		movq	16(%rbp), %rsi
 3081 11df 4589E8   		movl	%r13d, %r8d
 3082 11e2 4889C1   		movq	%rax, %rcx
 3083 11e5 4889E7   		movq	%rsp, %rdi
 3084 11e8 E8000000 		call	_ZN8UnitTest11TestDetailsC1EPKcS2_S2_i
 3084      00
 3085 11ed E8000000 		call	_ZN8UnitTest11CurrentTest7ResultsEv
 3085      00
 3086 11f2 488B38   		movq	(%rax), %rdi
 3087 11f5 4C89E2   		movq	%r12, %rdx
 3088 11f8 4889E6   		movq	%rsp, %rsi
 3089 11fb E8000000 		call	_ZN8UnitTest11TestResults13OnTestFailureERKNS_11TestDetailsEPKc
 3089      00
 3090              	.LEHE73:
 3091 1200 EB9E     		jmp	.L327
 3092              	.L323:
 3093 1202 4889EF   		movq	%rbp, %rdi
 3094 1205 4889C3   		movq	%rax, %rbx
 3095 1208 E8000000 		call	_ZN8UnitTest15MemoryOutStreamD1Ev
 3095      00
 3096              	.L317:
 3097 120d E8000000 		call	__cxa_end_catch
 3097      00
 3098 1212 4889DF   		movq	%rbx, %rdi
 3099              	.LEHB74:
 3100 1215 E8000000 		call	_Unwind_Resume
 3100      00
 3101              	.LEHE74:
 3102              	.L321:
 3103              	.L328:
 3104 121a 4889C3   		movq	%rax, %rbx
 3105 121d EBEE     		jmp	.L317
 3106              	.L322:
 3107 121f 90       		.p2align 4,,2
 3108 1220 EBF8     		jmp	.L328
 3109              	.L329:
 3110              		.p2align 4,,8
 3111 1222 E8000000 		call	__cxa_begin_catch
 3111      00
 3112 1227 BA8D0000 		movl	$141, %edx
 3112      00
 3113 122c 4889DE   		movq	%rbx, %rsi
 3114 122f 4889E7   		movq	%rsp, %rdi
 3115              	.LEHB75:
 3116 1232 E8000000 		call	_ZN8UnitTest11TestDetailsC1ERKS0_i
 3116      00
 3117 1237 E8000000 		call	_ZN8UnitTest11CurrentTest7ResultsEv
 3117      00
 3118 123c 488B38   		movq	(%rax), %rdi
 3119 123f BA000000 		movl	$.LC25, %edx
 3119      00
 3120 1244 4889E6   		movq	%rsp, %rsi
 3121 1247 E8000000 		call	_ZN8UnitTest11TestResults13OnTestFailureERKNS_11TestDetailsEPKc
 3121      00
 3122              	.LEHE75:
 3123              	.LEHB76:
 3124 124c E8000000 		call	__cxa_end_catch
 3124      00
 3125              	.LEHE76:
 3126 1251 E9C4FEFF 		jmp	.L310
 3126      FF
 3127              	.L324:
 3128 1256 4889C3   		movq	%rax, %rbx
 3129              		.p2align 4,,5
 3130 1259 E8000000 		call	__cxa_end_catch
 3130      00
 3131 125e 4889DF   		movq	%rbx, %rdi
 3132              	.LEHB77:
 3133 1261 E8000000 		call	_Unwind_Resume
 3133      00
 3134              	.LEHE77:
 3135              		.cfi_endproc
 3136              	.LFE1395:
 3137              		.section	.gcc_except_table
 3138              		.align 4
 3139              	.LLSDA1395:
 3140 0220 FF       		.byte	0xff
 3141 0221 03       		.byte	0x3
 3142 0222 45       		.uleb128 .LLSDATT1395-.LLSDATTD1395
 3143              	.LLSDATTD1395:
 3144 0223 01       		.byte	0x1
 3145 0224 2F       		.uleb128 .LLSDACSE1395-.LLSDACSB1395
 3146              	.LLSDACSB1395:
 3147 0225 1E       		.uleb128 .LEHB69-.LFB1395
 3148 0226 05       		.uleb128 .LEHE69-.LEHB69
 3149 0227 38       		.uleb128 .L320-.LFB1395
 3150 0228 07       		.uleb128 0x7
 3151 0229 60       		.uleb128 .LEHB70-.LFB1395
 3152 022a 05       		.uleb128 .LEHE70-.LEHB70
 3153 022b AF02     		.uleb128 .L322-.LFB1395
 3154 022d 00       		.uleb128 0
 3155 022e 7A       		.uleb128 .LEHB71-.LFB1395
 3156 022f 2E       		.uleb128 .LEHE71-.LEHB71
 3157 0230 9202     		.uleb128 .L323-.LFB1395
 3158 0232 00       		.uleb128 0
 3159 0233 AB01     		.uleb128 .LEHB72-.LFB1395
 3160 0235 05       		.uleb128 .LEHE72-.LEHB72
 3161 0236 AF02     		.uleb128 .L322-.LFB1395
 3162 0238 00       		.uleb128 0
 3163 0239 D701     		.uleb128 .LEHB73-.LFB1395
 3164 023b 39       		.uleb128 .LEHE73-.LEHB73
 3165 023c AA02     		.uleb128 .L321-.LFB1395
 3166 023e 00       		.uleb128 0
 3167 023f A502     		.uleb128 .LEHB74-.LFB1395
 3168 0241 05       		.uleb128 .LEHE74-.LEHB74
 3169 0242 00       		.uleb128 0
 3170 0243 00       		.uleb128 0
 3171 0244 C202     		.uleb128 .LEHB75-.LFB1395
 3172 0246 1A       		.uleb128 .LEHE75-.LEHB75
 3173 0247 E602     		.uleb128 .L324-.LFB1395
 3174 0249 00       		.uleb128 0
 3175 024a DC02     		.uleb128 .LEHB76-.LFB1395
 3176 024c 05       		.uleb128 .LEHE76-.LEHB76
 3177 024d 00       		.uleb128 0
 3178 024e 00       		.uleb128 0
 3179 024f F102     		.uleb128 .LEHB77-.LFB1395
 3180 0251 05       		.uleb128 .LEHE77-.LEHB77
 3181 0252 00       		.uleb128 0
 3182 0253 00       		.uleb128 0
 3183              	.LLSDACSE1395:
 3184 0254 03       		.byte	0x3
 3185 0255 00       		.byte	0
 3186 0256 02       		.byte	0x2
 3187 0257 7D       		.byte	0x7d
 3188 0258 01       		.byte	0x1
 3189 0259 7D       		.byte	0x7d
 3190 025a 00       		.byte	0
 3191 025b 7D       		.byte	0x7d
 3192              		.align 4
 3193 025c 00000000 		.long	0
 3194              	
 3195 0260 00000000 		.long	_ZTISt9exception
 3196 0264 00000000 		.long	_ZTIN8UnitTest15AssertExceptionE
 3197              	.LLSDATT1395:
 3198              		.text
 3200              		.section	.rodata.str1.1
 3201              	.LC29:
 3202 0093 00       		.string	""
 3203              	.LC30:
 3204 0094 44656661 		.string	"DefaultSuite"
 3204      756C7453 
 3204      75697465 
 3204      00
 3205              	.LC31:
 3206 00a1 77726F6E 		.string	"wrongthrow"
 3206      67746872 
 3206      6F7700
 3207              		.section	.rodata.str1.8
 3208 021c 00000000 		.align 8
 3209              	.LC32:
 3210 0220 556E6861 		.string	"Unhandled exception in CHECK_EQUAL(1, results.GetFailureCount())"
 3210      6E646C65 
 3210      64206578 
 3210      63657074 
 3210      696F6E20 
 3211              		.text
 3212              		.align 2
 3213 1266 662E0F1F 		.p2align 4,,15
 3213      84000000 
 3213      0000
 3215              	_ZNK12_GLOBAL__N_140TestCheckThrowMacroFailsOnWrongException7RunImplEv:
 3216              	.LFB1367:
 3217              		.cfi_startproc
 3218              		.cfi_personality 0x3,__gxx_personality_v0
 3219              		.cfi_lsda 0x3,.LLSDA1367
 3220 1270 53       		pushq	%rbx
 3221              		.cfi_def_cfa_offset 16
 3222              		.cfi_offset 3, -16
 3223 1271 31F6     		xorl	%esi, %esi
 3224 1273 4883C480 		addq	$-128, %rsp
 3225              		.cfi_def_cfa_offset 144
 3226 1277 488D5C24 		leaq	32(%rsp), %rbx
 3226      20
 3227 127c 4889DF   		movq	%rbx, %rdi
 3228              	.LEHB78:
 3229 127f E8000000 		call	_ZN8UnitTest11TestResultsC1EPNS_12TestReporterE
 3229      00
 3230 1284 E8000000 		call	_ZN8UnitTest11CurrentTest7ResultsEv
 3230      00
 3231 1289 488B00   		movq	(%rax), %rax
 3232 128c 48894424 		movq	%rax, 16(%rsp)
 3232      10
 3233 1291 E8000000 		call	_ZN8UnitTest11CurrentTest7DetailsEv
 3233      00
 3234 1296 488B00   		movq	(%rax), %rax
 3235 1299 48894424 		movq	%rax, 24(%rsp)
 3235      18
 3236 129e E8000000 		call	_ZN8UnitTest11CurrentTest7ResultsEv
 3236      00
 3237              	.LEHE78:
 3238 12a3 488D7C24 		leaq	64(%rsp), %rdi
 3238      40
 3239 12a8 488918   		movq	%rbx, (%rax)
 3240 12ab 4531C0   		xorl	%r8d, %r8d
 3241 12ae B9000000 		movl	$.LC29, %ecx
 3241      00
 3242 12b3 BA000000 		movl	$.LC30, %edx
 3242      00
 3243 12b8 BE000000 		movl	$.LC31, %esi
 3243      00
 3244              	.LEHB79:
 3245 12bd E8000000 		call	_ZN8UnitTest4TestC2EPKcS2_S2_i
 3245      00
 3246              	.LEHE79:
 3247 12c2 488D7C24 		leaq	64(%rsp), %rdi
 3247      40
 3248 12c7 48C74424 		movq	$_ZTVZNK12_GLOBAL__N_140TestCheckThrowMacroFailsOnWrongException7RunImplEvE14WrongThrowTest+1
 3248      40000000 
 3248      00
 3249              	.LEHB80:
 3250 12d0 E8000000 		call	_ZN8UnitTest4Test3RunEv
 3250      00
 3251              	.LEHE80:
 3252 12d5 488D7C24 		leaq	64(%rsp), %rdi
 3252      40
 3253 12da 48C74424 		movq	$_ZTVZNK12_GLOBAL__N_140TestCheckThrowMacroFailsOnWrongException7RunImplEvE14WrongThrowTest+1
 3253      40000000 
 3253      00
 3254              	.LEHB81:
 3255 12e3 E8000000 		call	_ZN8UnitTest4TestD2Ev
 3255      00
 3256              	.LEHE81:
 3257              	.LEHB82:
 3258 12e8 E8000000 		call	_ZN8UnitTest11CurrentTest7ResultsEv
 3258      00
 3259 12ed 488B5424 		movq	16(%rsp), %rdx
 3259      10
 3260 12f2 488910   		movq	%rdx, (%rax)
 3261 12f5 E8000000 		call	_ZN8UnitTest11CurrentTest7DetailsEv
 3261      00
 3262              	.LEHE82:
 3263 12fa 488B5424 		movq	24(%rsp), %rdx
 3263      18
 3264 12ff 488910   		movq	%rdx, (%rax)
 3265              	.LEHB83:
 3266 1302 E8000000 		call	_ZN8UnitTest11CurrentTest7DetailsEv
 3266      00
 3267 1307 488B30   		movq	(%rax), %rsi
 3268 130a 488D7C24 		leaq	64(%rsp), %rdi
 3268      40
 3269 130f BA750000 		movl	$117, %edx
 3269      00
 3270 1314 E8000000 		call	_ZN8UnitTest11TestDetailsC1ERKS0_i
 3270      00
 3271 1319 4889DF   		movq	%rbx, %rdi
 3272 131c E8000000 		call	_ZNK8UnitTest11TestResults15GetFailureCountEv
 3272      00
 3273 1321 89442410 		movl	%eax, 16(%rsp)
 3274 1325 C7042401 		movl	$1, (%rsp)
 3274      000000
 3275 132c E8000000 		call	_ZN8UnitTest11CurrentTest7ResultsEv
 3275      00
 3276 1331 488B38   		movq	(%rax), %rdi
 3277 1334 488D4C24 		leaq	64(%rsp), %rcx
 3277      40
 3278 1339 488D5424 		leaq	16(%rsp), %rdx
 3278      10
 3279 133e 4889E6   		movq	%rsp, %rsi
 3280 1341 E8000000 		call	_ZN8UnitTest10CheckEqualIiiEEvRNS_11TestResultsERKT_RKT0_RKNS_11TestDetailsE
 3280      00
 3281              	.LEHE83:
 3282              	.L330:
 3283 1346 4883EC80 		subq	$-128, %rsp
 3284              		.cfi_remember_state
 3285              		.cfi_def_cfa_offset 16
 3286 134a 5B       		popq	%rbx
 3287              		.cfi_def_cfa_offset 8
 3288 134b C3       		ret
 3289              	.L336:
 3290              		.cfi_restore_state
 3291 134c 4889C3   		movq	%rax, %rbx
 3292              	.L332:
 3293 134f 488D7C24 		leaq	16(%rsp), %rdi
 3293      10
 3294 1354 E8000000 		call	_ZN17ScopedCurrentTestD1Ev
 3294      00
 3295 1359 4889DF   		movq	%rbx, %rdi
 3296              	.LEHB84:
 3297 135c E8000000 		call	_Unwind_Resume
 3297      00
 3298              	.LEHE84:
 3299              	.L338:
 3300 1361 4889C7   		movq	%rax, %rdi
 3301 1364 E8000000 		call	__cxa_begin_catch
 3301      00
 3302              	.LEHB85:
 3303 1369 E8000000 		call	_ZN8UnitTest11CurrentTest7DetailsEv
 3303      00
 3304 136e 488B30   		movq	(%rax), %rsi
 3305 1371 488D7C24 		leaq	64(%rsp), %rdi
 3305      40
 3306 1376 BA750000 		movl	$117, %edx
 3306      00
 3307 137b E8000000 		call	_ZN8UnitTest11TestDetailsC1ERKS0_i
 3307      00
 3308 1380 E8000000 		call	_ZN8UnitTest11CurrentTest7ResultsEv
 3308      00
 3309 1385 488B38   		movq	(%rax), %rdi
 3310 1388 488D7424 		leaq	64(%rsp), %rsi
 3310      40
 3311 138d BA000000 		movl	$.LC32, %edx
 3311      00
 3312 1392 E8000000 		call	_ZN8UnitTest11TestResults13OnTestFailureERKNS_11TestDetailsEPKc
 3312      00
 3313              	.LEHE85:
 3314              	.LEHB86:
 3315 1397 E8000000 		call	__cxa_end_catch
 3315      00
 3316              	.LEHE86:
 3317 139c EBA8     		jmp	.L330
 3318              	.L337:
 3319 139e 488D7C24 		leaq	64(%rsp), %rdi
 3319      40
 3320 13a3 4889C3   		movq	%rax, %rbx
 3321 13a6 48C74424 		movq	$_ZTVZNK12_GLOBAL__N_140TestCheckThrowMacroFailsOnWrongException7RunImplEvE14WrongThrowTest+1
 3321      40000000 
 3321      00
 3322 13af E8000000 		call	_ZN8UnitTest4TestD2Ev
 3322      00
 3323 13b4 EB99     		jmp	.L332
 3324              	.L339:
 3325 13b6 4889C3   		movq	%rax, %rbx
 3326 13b9 E8000000 		call	__cxa_end_catch
 3326      00
 3327 13be 4889DF   		movq	%rbx, %rdi
 3328              	.LEHB87:
 3329 13c1 E8000000 		call	_Unwind_Resume
 3329      00
 3330              	.LEHE87:
 3331              		.cfi_endproc
 3332              	.LFE1367:
 3333              		.section	.gcc_except_table
 3334              		.align 4
 3335              	.LLSDA1367:
 3336 0268 FF       		.byte	0xff
 3337 0269 03       		.byte	0x3
 3338 026a 3D       		.uleb128 .LLSDATT1367-.LLSDATTD1367
 3339              	.LLSDATTD1367:
 3340 026b 01       		.byte	0x1
 3341 026c 32       		.uleb128 .LLSDACSE1367-.LLSDACSB1367
 3342              	.LLSDACSB1367:
 3343 026d 0F       		.uleb128 .LEHB78-.LFB1367
 3344 026e 24       		.uleb128 .LEHE78-.LEHB78
 3345 026f 00       		.uleb128 0
 3346 0270 00       		.uleb128 0
 3347 0271 4D       		.uleb128 .LEHB79-.LFB1367
 3348 0272 05       		.uleb128 .LEHE79-.LEHB79
 3349 0273 DC01     		.uleb128 .L336-.LFB1367
 3350 0275 00       		.uleb128 0
 3351 0276 60       		.uleb128 .LEHB80-.LFB1367
 3352 0277 05       		.uleb128 .LEHE80-.LEHB80
 3353 0278 AE02     		.uleb128 .L337-.LFB1367
 3354 027a 00       		.uleb128 0
 3355 027b 73       		.uleb128 .LEHB81-.LFB1367
 3356 027c 05       		.uleb128 .LEHE81-.LEHB81
 3357 027d DC01     		.uleb128 .L336-.LFB1367
 3358 027f 00       		.uleb128 0
 3359 0280 78       		.uleb128 .LEHB82-.LFB1367
 3360 0281 12       		.uleb128 .LEHE82-.LEHB82
 3361 0282 00       		.uleb128 0
 3362 0283 00       		.uleb128 0
 3363 0284 9201     		.uleb128 .LEHB83-.LFB1367
 3364 0286 44       		.uleb128 .LEHE83-.LEHB83
 3365 0287 F101     		.uleb128 .L338-.LFB1367
 3366 0289 01       		.uleb128 0x1
 3367 028a EC01     		.uleb128 .LEHB84-.LFB1367
 3368 028c 05       		.uleb128 .LEHE84-.LEHB84
 3369 028d 00       		.uleb128 0
 3370 028e 00       		.uleb128 0
 3371 028f F901     		.uleb128 .LEHB85-.LFB1367
 3372 0291 2E       		.uleb128 .LEHE85-.LEHB85
 3373 0292 C602     		.uleb128 .L339-.LFB1367
 3374 0294 00       		.uleb128 0
 3375 0295 A702     		.uleb128 .LEHB86-.LFB1367
 3376 0297 05       		.uleb128 .LEHE86-.LEHB86
 3377 0298 00       		.uleb128 0
 3378 0299 00       		.uleb128 0
 3379 029a D102     		.uleb128 .LEHB87-.LFB1367
 3380 029c 05       		.uleb128 .LEHE87-.LEHB87
 3381 029d 00       		.uleb128 0
 3382 029e 00       		.uleb128 0
 3383              	.LLSDACSE1367:
 3384 029f 01       		.byte	0x1
 3385 02a0 00       		.byte	0
 3386 02a1 000000   		.align 4
 3387 02a4 00000000 		.long	0
 3388              	
 3389              	.LLSDATT1367:
 3390              		.text
 3392              		.section	.rodata.str1.1
 3393              	.LC33:
 3394 00ac 6E6F7468 		.string	"nothrow"
 3394      726F7700 
 3395              		.text
 3396              		.align 2
 3397 13c6 662E0F1F 		.p2align 4,,15
 3397      84000000 
 3397      0000
 3399              	_ZNK12_GLOBAL__N_142TestCheckThrowMacroFailsOnMissingException7RunImplEv:
 3400              	.LFB1358:
 3401              		.cfi_startproc
 3402              		.cfi_personality 0x3,__gxx_personality_v0
 3403              		.cfi_lsda 0x3,.LLSDA1358
 3404 13d0 53       		pushq	%rbx
 3405              		.cfi_def_cfa_offset 16
 3406              		.cfi_offset 3, -16
 3407 13d1 31F6     		xorl	%esi, %esi
 3408 13d3 4883C480 		addq	$-128, %rsp
 3409              		.cfi_def_cfa_offset 144
 3410 13d7 488D5C24 		leaq	32(%rsp), %rbx
 3410      20
 3411 13dc 4889DF   		movq	%rbx, %rdi
 3412              	.LEHB88:
 3413 13df E8000000 		call	_ZN8UnitTest11TestResultsC1EPNS_12TestReporterE
 3413      00
 3414 13e4 E8000000 		call	_ZN8UnitTest11CurrentTest7ResultsEv
 3414      00
 3415 13e9 488B00   		movq	(%rax), %rax
 3416 13ec 48894424 		movq	%rax, 16(%rsp)
 3416      10
 3417 13f1 E8000000 		call	_ZN8UnitTest11CurrentTest7DetailsEv
 3417      00
 3418 13f6 488B00   		movq	(%rax), %rax
 3419 13f9 48894424 		movq	%rax, 24(%rsp)
 3419      18
 3420 13fe E8000000 		call	_ZN8UnitTest11CurrentTest7ResultsEv
 3420      00
 3421              	.LEHE88:
 3422 1403 488D7C24 		leaq	64(%rsp), %rdi
 3422      40
 3423 1408 488918   		movq	%rbx, (%rax)
 3424 140b 4531C0   		xorl	%r8d, %r8d
 3425 140e B9000000 		movl	$.LC29, %ecx
 3425      00
 3426 1413 BA000000 		movl	$.LC30, %edx
 3426      00
 3427 1418 BE000000 		movl	$.LC33, %esi
 3427      00
 3428              	.LEHB89:
 3429 141d E8000000 		call	_ZN8UnitTest4TestC2EPKcS2_S2_i
 3429      00
 3430              	.LEHE89:
 3431 1422 488D7C24 		leaq	64(%rsp), %rdi
 3431      40
 3432 1427 48C74424 		movq	$_ZTVZNK12_GLOBAL__N_142TestCheckThrowMacroFailsOnMissingException7RunImplEvE11NoThrowTest+16
 3432      40000000 
 3432      00
 3433              	.LEHB90:
 3434 1430 E8000000 		call	_ZN8UnitTest4Test3RunEv
 3434      00
 3435              	.LEHE90:
 3436 1435 488D7C24 		leaq	64(%rsp), %rdi
 3436      40
 3437 143a 48C74424 		movq	$_ZTVZNK12_GLOBAL__N_142TestCheckThrowMacroFailsOnMissingException7RunImplEvE11NoThrowTest+16
 3437      40000000 
 3437      00
 3438              	.LEHB91:
 3439 1443 E8000000 		call	_ZN8UnitTest4TestD2Ev
 3439      00
 3440              	.LEHE91:
 3441              	.LEHB92:
 3442 1448 E8000000 		call	_ZN8UnitTest11CurrentTest7ResultsEv
 3442      00
 3443 144d 488B5424 		movq	16(%rsp), %rdx
 3443      10
 3444 1452 488910   		movq	%rdx, (%rax)
 3445 1455 E8000000 		call	_ZN8UnitTest11CurrentTest7DetailsEv
 3445      00
 3446              	.LEHE92:
 3447 145a 488B5424 		movq	24(%rsp), %rdx
 3447      18
 3448 145f 488910   		movq	%rdx, (%rax)
 3449              	.LEHB93:
 3450 1462 E8000000 		call	_ZN8UnitTest11CurrentTest7DetailsEv
 3450      00
 3451 1467 488B30   		movq	(%rax), %rsi
 3452 146a 488D7C24 		leaq	64(%rsp), %rdi
 3452      40
 3453 146f BA5E0000 		movl	$94, %edx
 3453      00
 3454 1474 E8000000 		call	_ZN8UnitTest11TestDetailsC1ERKS0_i
 3454      00
 3455 1479 4889DF   		movq	%rbx, %rdi
 3456 147c E8000000 		call	_ZNK8UnitTest11TestResults15GetFailureCountEv
 3456      00
 3457 1481 89442410 		movl	%eax, 16(%rsp)
 3458 1485 C7042401 		movl	$1, (%rsp)
 3458      000000
 3459 148c E8000000 		call	_ZN8UnitTest11CurrentTest7ResultsEv
 3459      00
 3460 1491 488B38   		movq	(%rax), %rdi
 3461 1494 488D4C24 		leaq	64(%rsp), %rcx
 3461      40
 3462 1499 488D5424 		leaq	16(%rsp), %rdx
 3462      10
 3463 149e 4889E6   		movq	%rsp, %rsi
 3464 14a1 E8000000 		call	_ZN8UnitTest10CheckEqualIiiEEvRNS_11TestResultsERKT_RKT0_RKNS_11TestDetailsE
 3464      00
 3465              	.LEHE93:
 3466              	.L341:
 3467 14a6 4883EC80 		subq	$-128, %rsp
 3468              		.cfi_remember_state
 3469              		.cfi_def_cfa_offset 16
 3470 14aa 5B       		popq	%rbx
 3471              		.cfi_def_cfa_offset 8
 3472 14ab C3       		ret
 3473              	.L347:
 3474              		.cfi_restore_state
 3475 14ac 4889C3   		movq	%rax, %rbx
 3476              	.L343:
 3477 14af 488D7C24 		leaq	16(%rsp), %rdi
 3477      10
 3478 14b4 E8000000 		call	_ZN17ScopedCurrentTestD1Ev
 3478      00
 3479 14b9 4889DF   		movq	%rbx, %rdi
 3480              	.LEHB94:
 3481 14bc E8000000 		call	_Unwind_Resume
 3481      00
 3482              	.LEHE94:
 3483              	.L349:
 3484 14c1 4889C7   		movq	%rax, %rdi
 3485 14c4 E8000000 		call	__cxa_begin_catch
 3485      00
 3486              	.LEHB95:
 3487 14c9 E8000000 		call	_ZN8UnitTest11CurrentTest7DetailsEv
 3487      00
 3488 14ce 488B30   		movq	(%rax), %rsi
 3489 14d1 488D7C24 		leaq	64(%rsp), %rdi
 3489      40
 3490 14d6 BA5E0000 		movl	$94, %edx
 3490      00
 3491 14db E8000000 		call	_ZN8UnitTest11TestDetailsC1ERKS0_i
 3491      00
 3492 14e0 E8000000 		call	_ZN8UnitTest11CurrentTest7ResultsEv
 3492      00
 3493 14e5 488B38   		movq	(%rax), %rdi
 3494 14e8 488D7424 		leaq	64(%rsp), %rsi
 3494      40
 3495 14ed BA000000 		movl	$.LC32, %edx
 3495      00
 3496 14f2 E8000000 		call	_ZN8UnitTest11TestResults13OnTestFailureERKNS_11TestDetailsEPKc
 3496      00
 3497              	.LEHE95:
 3498              	.LEHB96:
 3499 14f7 E8000000 		call	__cxa_end_catch
 3499      00
 3500              	.LEHE96:
 3501 14fc EBA8     		jmp	.L341
 3502              	.L348:
 3503 14fe 488D7C24 		leaq	64(%rsp), %rdi
 3503      40
 3504 1503 4889C3   		movq	%rax, %rbx
 3505 1506 48C74424 		movq	$_ZTVZNK12_GLOBAL__N_142TestCheckThrowMacroFailsOnMissingException7RunImplEvE11NoThrowTest+16
 3505      40000000 
 3505      00
 3506 150f E8000000 		call	_ZN8UnitTest4TestD2Ev
 3506      00
 3507 1514 EB99     		jmp	.L343
 3508              	.L350:
 3509 1516 4889C3   		movq	%rax, %rbx
 3510 1519 E8000000 		call	__cxa_end_catch
 3510      00
 3511 151e 4889DF   		movq	%rbx, %rdi
 3512              	.LEHB97:
 3513 1521 E8000000 		call	_Unwind_Resume
 3513      00
 3514              	.LEHE97:
 3515              		.cfi_endproc
 3516              	.LFE1358:
 3517              		.section	.gcc_except_table
 3518              		.align 4
 3519              	.LLSDA1358:
 3520 02a8 FF       		.byte	0xff
 3521 02a9 03       		.byte	0x3
 3522 02aa 3D       		.uleb128 .LLSDATT1358-.LLSDATTD1358
 3523              	.LLSDATTD1358:
 3524 02ab 01       		.byte	0x1
 3525 02ac 32       		.uleb128 .LLSDACSE1358-.LLSDACSB1358
 3526              	.LLSDACSB1358:
 3527 02ad 0F       		.uleb128 .LEHB88-.LFB1358
 3528 02ae 24       		.uleb128 .LEHE88-.LEHB88
 3529 02af 00       		.uleb128 0
 3530 02b0 00       		.uleb128 0
 3531 02b1 4D       		.uleb128 .LEHB89-.LFB1358
 3532 02b2 05       		.uleb128 .LEHE89-.LEHB89
 3533 02b3 DC01     		.uleb128 .L347-.LFB1358
 3534 02b5 00       		.uleb128 0
 3535 02b6 60       		.uleb128 .LEHB90-.LFB1358
 3536 02b7 05       		.uleb128 .LEHE90-.LEHB90
 3537 02b8 AE02     		.uleb128 .L348-.LFB1358
 3538 02ba 00       		.uleb128 0
 3539 02bb 73       		.uleb128 .LEHB91-.LFB1358
 3540 02bc 05       		.uleb128 .LEHE91-.LEHB91
 3541 02bd DC01     		.uleb128 .L347-.LFB1358
 3542 02bf 00       		.uleb128 0
 3543 02c0 78       		.uleb128 .LEHB92-.LFB1358
 3544 02c1 12       		.uleb128 .LEHE92-.LEHB92
 3545 02c2 00       		.uleb128 0
 3546 02c3 00       		.uleb128 0
 3547 02c4 9201     		.uleb128 .LEHB93-.LFB1358
 3548 02c6 44       		.uleb128 .LEHE93-.LEHB93
 3549 02c7 F101     		.uleb128 .L349-.LFB1358
 3550 02c9 01       		.uleb128 0x1
 3551 02ca EC01     		.uleb128 .LEHB94-.LFB1358
 3552 02cc 05       		.uleb128 .LEHE94-.LEHB94
 3553 02cd 00       		.uleb128 0
 3554 02ce 00       		.uleb128 0
 3555 02cf F901     		.uleb128 .LEHB95-.LFB1358
 3556 02d1 2E       		.uleb128 .LEHE95-.LEHB95
 3557 02d2 C602     		.uleb128 .L350-.LFB1358
 3558 02d4 00       		.uleb128 0
 3559 02d5 A702     		.uleb128 .LEHB96-.LFB1358
 3560 02d7 05       		.uleb128 .LEHE96-.LEHB96
 3561 02d8 00       		.uleb128 0
 3562 02d9 00       		.uleb128 0
 3563 02da D102     		.uleb128 .LEHB97-.LFB1358
 3564 02dc 05       		.uleb128 .LEHE97-.LEHB97
 3565 02dd 00       		.uleb128 0
 3566 02de 00       		.uleb128 0
 3567              	.LLSDACSE1358:
 3568 02df 01       		.byte	0x1
 3569 02e0 00       		.byte	0
 3570 02e1 000000   		.align 4
 3571 02e4 00000000 		.long	0
 3572              	
 3573              	.LLSDATT1358:
 3574              		.text
 3576              		.section	.rodata.str1.1
 3577              	.LC34:
 3578 00b4 202B2F2D 		.string	" +/- "
 3578      2000
 3579              		.section	.text._ZN8UnitTest10CheckCloseIfffEEvRNS_11TestResultsERKT_RKT0_RKT1_RKNS_11TestDetailsE,
 3580              		.p2align 4,,15
 3581              		.weak	_ZN8UnitTest10CheckCloseIfffEEvRNS_11TestResultsERKT_RKT0_RKT1_RKNS_11TestDetailsE
 3583              	_ZN8UnitTest10CheckCloseIfffEEvRNS_11TestResultsERKT_RKT0_RKT1_RKNS_11TestDetailsE:
 3584              	.LFB1437:
 3585              		.cfi_startproc
 3586              		.cfi_personality 0x3,__gxx_personality_v0
 3587              		.cfi_lsda 0x3,.LLSDA1437
 3588 0000 4157     		pushq	%r15
 3589              		.cfi_def_cfa_offset 16
 3590              		.cfi_offset 15, -16
 3591 0002 4D89C7   		movq	%r8, %r15
 3592 0005 4156     		pushq	%r14
 3593              		.cfi_def_cfa_offset 24
 3594              		.cfi_offset 14, -24
 3595 0007 4989FE   		movq	%rdi, %r14
 3596 000a 4155     		pushq	%r13
 3597              		.cfi_def_cfa_offset 32
 3598              		.cfi_offset 13, -32
 3599 000c 4154     		pushq	%r12
 3600              		.cfi_def_cfa_offset 40
 3601              		.cfi_offset 12, -40
 3602 000e 4989CC   		movq	%rcx, %r12
 3603 0011 55       		pushq	%rbp
 3604              		.cfi_def_cfa_offset 48
 3605              		.cfi_offset 6, -48
 3606 0012 4889D5   		movq	%rdx, %rbp
 3607 0015 53       		pushq	%rbx
 3608              		.cfi_def_cfa_offset 56
 3609              		.cfi_offset 3, -56
 3610 0016 4889F3   		movq	%rsi, %rbx
 3611 0019 4881EC98 		subq	$408, %rsp
 3611      010000
 3612              		.cfi_def_cfa_offset 464
 3613 0020 F30F1016 		movss	(%rsi), %xmm2
 3614 0024 0F28DA   		movaps	%xmm2, %xmm3
 3615 0027 F30F1009 		movss	(%rcx), %xmm1
 3616 002b F30F1002 		movss	(%rdx), %xmm0
 3617 002f F30F5CD9 		subss	%xmm1, %xmm3
 3618 0033 0F2EC3   		ucomiss	%xmm3, %xmm0
 3619 0036 720D     		jb	.L353
 3620 0038 F30F58CA 		addss	%xmm2, %xmm1
 3621 003c 0F2EC8   		ucomiss	%xmm0, %xmm1
 3622 003f 0F836102 		jnb	.L352
 3622      0000
 3623              	.L353:
 3624 0045 4C8DAC24 		leaq	128(%rsp), %r13
 3624      80000000 
 3625 004d 4C89EF   		movq	%r13, %rdi
 3626 0050 E8000000 		call	_ZNSt8ios_baseC2Ev
 3626      00
 3627 0055 31F6     		xorl	%esi, %esi
 3628 0057 4C89EF   		movq	%r13, %rdi
 3629 005a 48C78424 		movq	$0, 344(%rsp)
 3629      58010000 
 3629      00000000 
 3630 0066 C6842460 		movb	$0, 352(%rsp)
 3630      01000000 
 3631 006e C6842461 		movb	$0, 353(%rsp)
 3631      01000000 
 3632 0076 48C78424 		movq	$0, 360(%rsp)
 3632      68010000 
 3632      00000000 
 3633 0082 48C78424 		movq	$0, 368(%rsp)
 3633      70010000 
 3633      00000000 
 3634 008e 48C78424 		movq	$0, 376(%rsp)
 3634      78010000 
 3634      00000000 
 3635 009a 48C78424 		movq	$0, 384(%rsp)
 3635      80010000 
 3635      00000000 
 3636 00a6 48C74424 		movq	$_ZTCN8UnitTest15MemoryOutStreamE0_So+24, 32(%rsp)
 3636      20000000 
 3636      00
 3637 00af 48C78424 		movq	$_ZTCN8UnitTest15MemoryOutStreamE0_So+64, 128(%rsp)
 3637      80000000 
 3637      00000000 
 3638              	.LEHB98:
 3639 00bb E8000000 		call	_ZNSt9basic_iosIcSt11char_traitsIcEE4initEPSt15basic_streambufIcS1_E
 3639      00
 3640              	.LEHE98:
 3641 00c0 488D7C24 		leaq	96(%rsp), %rdi
 3641      60
 3642 00c5 48C74424 		movq	$_ZTCN8UnitTest15MemoryOutStreamE0_St19basic_ostringstreamIcSt11char_traitsIcESaIcEE+24, 32(%
 3642      20000000 
 3642      00
 3643 00ce 48C78424 		movq	$_ZTCN8UnitTest15MemoryOutStreamE0_St19basic_ostringstreamIcSt11char_traitsIcESaIcEE+64, 128(
 3643      80000000 
 3643      00000000 
 3644 00da 48C74424 		movq	$_ZTVSt15basic_streambufIcSt11char_traitsIcEE+16, 40(%rsp)
 3644      28000000 
 3644      00
 3645 00e3 48C74424 		movq	$0, 48(%rsp)
 3645      30000000 
 3645      00
 3646 00ec 48C74424 		movq	$0, 56(%rsp)
 3646      38000000 
 3646      00
 3647 00f5 48C74424 		movq	$0, 64(%rsp)
 3647      40000000 
 3647      00
 3648 00fe 48C74424 		movq	$0, 72(%rsp)
 3648      48000000 
 3648      00
 3649 0107 48C74424 		movq	$0, 80(%rsp)
 3649      50000000 
 3649      00
 3650 0110 48C74424 		movq	$0, 88(%rsp)
 3650      58000000 
 3650      00
 3651 0119 E8000000 		call	_ZNSt6localeC1Ev
 3651      00
 3652 011e 488B4424 		movq	32(%rsp), %rax
 3652      20
 3653 0123 488D7C24 		leaq	32(%rsp), %rdi
 3653      20
 3654 0128 488D7424 		leaq	40(%rsp), %rsi
 3654      28
 3655 012d 48C74424 		movq	$_ZTVSt15basic_stringbufIcSt11char_traitsIcESaIcEE+16, 40(%rsp)
 3655      28000000 
 3655      00
 3656 0136 C7442468 		movl	$16, 104(%rsp)
 3656      10000000 
 3657 013e 48C74424 		movq	$_ZNSs4_Rep20_S_empty_rep_storageE+24, 112(%rsp)
 3657      70000000 
 3657      00
 3658 0147 480378E8 		addq	-24(%rax), %rdi
 3659              	.LEHB99:
 3660 014b E8000000 		call	_ZNSt9basic_iosIcSt11char_traitsIcEE4initEPSt15basic_streambufIcS1_E
 3660      00
 3661              	.LEHE99:
 3662 0150 488D7C24 		leaq	32(%rsp), %rdi
 3662      20
 3663 0155 F30F1065 		movss	0(%rbp), %xmm4
 3663      00
 3664 015a F3410F10 		movss	(%r12), %xmm5
 3664      2C24
 3665 0160 BA090000 		movl	$9, %edx
 3665      00
 3666 0165 F30F1033 		movss	(%rbx), %xmm6
 3667 0169 BE000000 		movl	$.LC26, %esi
 3667      00
 3668 016e 48C74424 		movq	$_ZTVN8UnitTest15MemoryOutStreamE+24, 32(%rsp)
 3668      20000000 
 3668      00
 3669 0177 48C78424 		movq	$_ZTVN8UnitTest15MemoryOutStreamE+64, 128(%rsp)
 3669      80000000 
 3669      00000000 
 3670 0183 F30F1164 		movss	%xmm4, 4(%rsp)
 3670      2404
 3671 0189 48C74424 		movq	$_ZNSs4_Rep20_S_empty_rep_storageE+24, 120(%rsp)
 3671      78000000 
 3671      00
 3672 0192 F30F116C 		movss	%xmm5, 8(%rsp)
 3672      2408
 3673 0198 F30F1174 		movss	%xmm6, 12(%rsp)
 3673      240C
 3674              	.LEHB100:
 3675 019e E8000000 		call	_ZSt16__ostream_insertIcSt11char_traitsIcEERSt13basic_ostreamIT_T0_ES6_PKS3_l
 3675      00
 3676 01a3 F30F1044 		movss	12(%rsp), %xmm0
 3676      240C
 3677 01a9 488D7C24 		leaq	32(%rsp), %rdi
 3677      20
 3678 01ae 0F5AC0   		cvtps2pd	%xmm0, %xmm0
 3679 01b1 E8000000 		call	_ZNSo9_M_insertIdEERSoT_
 3679      00
 3680 01b6 BA050000 		movl	$5, %edx
 3680      00
 3681 01bb BE000000 		movl	$.LC34, %esi
 3681      00
 3682 01c0 4889C7   		movq	%rax, %rdi
 3683 01c3 4889C3   		movq	%rax, %rbx
 3684 01c6 E8000000 		call	_ZSt16__ostream_insertIcSt11char_traitsIcEERSt13basic_ostreamIT_T0_ES6_PKS3_l
 3684      00
 3685 01cb F30F1044 		movss	8(%rsp), %xmm0
 3685      2408
 3686 01d1 4889DF   		movq	%rbx, %rdi
 3687 01d4 0F5AC0   		cvtps2pd	%xmm0, %xmm0
 3688 01d7 E8000000 		call	_ZNSo9_M_insertIdEERSoT_
 3688      00
 3689 01dc BA090000 		movl	$9, %edx
 3689      00
 3690 01e1 BE000000 		movl	$.LC27, %esi
 3690      00
 3691 01e6 4889C7   		movq	%rax, %rdi
 3692 01e9 4889C3   		movq	%rax, %rbx
 3693 01ec E8000000 		call	_ZSt16__ostream_insertIcSt11char_traitsIcEERSt13basic_ostreamIT_T0_ES6_PKS3_l
 3693      00
 3694 01f1 F30F1044 		movss	4(%rsp), %xmm0
 3694      2404
 3695 01f7 4889DF   		movq	%rbx, %rdi
 3696 01fa 0F5AC0   		cvtps2pd	%xmm0, %xmm0
 3697 01fd E8000000 		call	_ZNSo9_M_insertIdEERSoT_
 3697      00
 3698 0202 488D7C24 		leaq	32(%rsp), %rdi
 3698      20
 3699 0207 E8000000 		call	_ZNK8UnitTest15MemoryOutStream7GetTextEv
 3699      00
 3700 020c 4889C2   		movq	%rax, %rdx
 3701 020f 4C89FE   		movq	%r15, %rsi
 3702 0212 4C89F7   		movq	%r14, %rdi
 3703 0215 E8000000 		call	_ZN8UnitTest11TestResults13OnTestFailureERKNS_11TestDetailsEPKc
 3703      00
 3704              	.LEHE100:
 3705 021a 488B4424 		movq	120(%rsp), %rax
 3705      78
 3706 021f 48C74424 		movq	$_ZTVN8UnitTest15MemoryOutStreamE+24, 32(%rsp)
 3706      20000000 
 3706      00
 3707 0228 48C78424 		movq	$_ZTVN8UnitTest15MemoryOutStreamE+64, 128(%rsp)
 3707      80000000 
 3707      00000000 
 3708 0234 488D78E8 		leaq	-24(%rax), %rdi
 3709 0238 4881FF00 		cmpq	$_ZNSs4_Rep20_S_empty_rep_storageE, %rdi
 3709      000000
 3710 023f 7577     		jne	.L380
 3711              	.L361:
 3712 0241 488B4424 		movq	112(%rsp), %rax
 3712      70
 3713 0246 48C74424 		movq	$_ZTCN8UnitTest15MemoryOutStreamE0_St19basic_ostringstreamIcSt11char_traitsIcESaIcEE+24, 32(%
 3713      20000000 
 3713      00
 3714 024f 48C78424 		movq	$_ZTCN8UnitTest15MemoryOutStreamE0_St19basic_ostringstreamIcSt11char_traitsIcESaIcEE+64, 128(
 3714      80000000 
 3714      00000000 
 3715 025b 48C74424 		movq	$_ZTVSt15basic_stringbufIcSt11char_traitsIcESaIcEE+16, 40(%rsp)
 3715      28000000 
 3715      00
 3716 0264 488D78E8 		leaq	-24(%rax), %rdi
 3717 0268 4881FF00 		cmpq	$_ZNSs4_Rep20_S_empty_rep_storageE, %rdi
 3717      000000
 3718 026f 7577     		jne	.L381
 3719              	.L366:
 3720 0271 488D7C24 		leaq	96(%rsp), %rdi
 3720      60
 3721 0276 48C74424 		movq	$_ZTVSt15basic_streambufIcSt11char_traitsIcEE+16, 40(%rsp)
 3721      28000000 
 3721      00
 3722 027f E8000000 		call	_ZNSt6localeD1Ev
 3722      00
 3723 0284 488DBC24 		leaq	128(%rsp), %rdi
 3723      80000000 
 3724 028c 48C74424 		movq	$_ZTCN8UnitTest15MemoryOutStreamE0_So+24, 32(%rsp)
 3724      20000000 
 3724      00
 3725 0295 48C78424 		movq	$_ZTVSt9basic_iosIcSt11char_traitsIcEE+16, 128(%rsp)
 3725      80000000 
 3725      00000000 
 3726              	.LEHB101:
 3727 02a1 E8000000 		call	_ZNSt8ios_baseD2Ev
 3727      00
 3728              	.LEHE101:
 3729              	.L352:
 3730 02a6 4881C498 		addq	$408, %rsp
 3730      010000
 3731              		.cfi_remember_state
 3732              		.cfi_def_cfa_offset 56
 3733 02ad 5B       		popq	%rbx
 3734              		.cfi_def_cfa_offset 48
 3735 02ae 5D       		popq	%rbp
 3736              		.cfi_def_cfa_offset 40
 3737 02af 415C     		popq	%r12
 3738              		.cfi_def_cfa_offset 32
 3739 02b1 415D     		popq	%r13
 3740              		.cfi_def_cfa_offset 24
 3741 02b3 415E     		popq	%r14
 3742              		.cfi_def_cfa_offset 16
 3743 02b5 415F     		popq	%r15
 3744              		.cfi_def_cfa_offset 8
 3745 02b7 C3       		ret
 3746              	.L380:
 3747              		.cfi_restore_state
 3748 02b8 B9000000 		movl	$_ZL28__gthrw___pthread_key_createPjPFvPvE, %ecx
 3748      00
 3749 02bd 488D5710 		leaq	16(%rdi), %rdx
 3750 02c1 4885C9   		testq	%rcx, %rcx
 3751 02c4 0F848300 		je	.L362
 3751      0000
 3752 02ca 83C8FF   		orl	$-1, %eax
 3753 02cd F00FC102 		lock xaddl	%eax, (%rdx)
 3754              	.L363:
 3755 02d1 85C0     		testl	%eax, %eax
 3756 02d3 0F8F68FF 		jg	.L361
 3756      FFFF
 3757 02d9 488D7424 		leaq	31(%rsp), %rsi
 3757      1F
 3758 02de E8000000 		call	_ZNSs4_Rep10_M_destroyERKSaIcE
 3758      00
 3759 02e3 E959FFFF 		jmp	.L361
 3759      FF
 3760              	.L381:
 3761 02e8 B9000000 		movl	$_ZL28__gthrw___pthread_key_createPjPFvPvE, %ecx
 3761      00
 3762 02ed 488D5710 		leaq	16(%rdi), %rdx
 3763 02f1 4885C9   		testq	%rcx, %rcx
 3764 02f4 747F     		je	.L367
 3765 02f6 83C8FF   		orl	$-1, %eax
 3766 02f9 F00FC102 		lock xaddl	%eax, (%rdx)
 3767              	.L368:
 3768 02fd 85C0     		testl	%eax, %eax
 3769 02ff 0F8F6CFF 		jg	.L366
 3769      FFFF
 3770 0305 488D7424 		leaq	31(%rsp), %rsi
 3770      1F
 3771 030a E8000000 		call	_ZNSs4_Rep10_M_destroyERKSaIcE
 3771      00
 3772 030f E95DFFFF 		jmp	.L366
 3772      FF
 3773              	.L372:
 3774 0314 488D7C24 		leaq	32(%rsp), %rdi
 3774      20
 3775 0319 4889C3   		movq	%rax, %rbx
 3776 031c E8000000 		call	_ZN8UnitTest15MemoryOutStreamD1Ev
 3776      00
 3777 0321 4889DF   		movq	%rbx, %rdi
 3778              	.LEHB102:
 3779 0324 E8000000 		call	_Unwind_Resume
 3779      00
 3780              	.LEHE102:
 3781              	.L373:
 3782 0329 4889C3   		movq	%rax, %rbx
 3783              	.L358:
 3784 032c 488DBC24 		leaq	128(%rsp), %rdi
 3784      80000000 
 3785 0334 48C78424 		movq	$_ZTVSt9basic_iosIcSt11char_traitsIcEE+16, 128(%rsp)
 3785      80000000 
 3785      00000000 
 3786 0340 E8000000 		call	_ZNSt8ios_baseD2Ev
 3786      00
 3787 0345 4889DF   		movq	%rbx, %rdi
 3788              	.LEHB103:
 3789 0348 E8000000 		call	_Unwind_Resume
 3789      00
 3790              	.LEHE103:
 3791              	.L362:
 3792 034d 8B50F8   		movl	-8(%rax), %edx
 3793 0350 8D4AFF   		leal	-1(%rdx), %ecx
 3794 0353 8948F8   		movl	%ecx, -8(%rax)
 3795 0356 89D0     		movl	%edx, %eax
 3796 0358 E974FFFF 		jmp	.L363
 3796      FF
 3797              	.L374:
 3798 035d 488D7C24 		leaq	40(%rsp), %rdi
 3798      28
 3799 0362 4889C3   		movq	%rax, %rbx
 3800 0365 E8000000 		call	_ZNSt15basic_stringbufIcSt11char_traitsIcESaIcEED1Ev
 3800      00
 3801 036a 48C74424 		movq	$_ZTCN8UnitTest15MemoryOutStreamE0_So+24, 32(%rsp)
 3801      20000000 
 3801      00
 3802 0373 EBB7     		jmp	.L358
 3803              	.L367:
 3804 0375 8B50F8   		movl	-8(%rax), %edx
 3805 0378 8D4AFF   		leal	-1(%rdx), %ecx
 3806 037b 8948F8   		movl	%ecx, -8(%rax)
 3807 037e 89D0     		movl	%edx, %eax
 3808 0380 E978FFFF 		jmp	.L368
 3808      FF
 3809              		.cfi_endproc
 3810              	.LFE1437:
 3811              		.section	.gcc_except_table
 3812              	.LLSDA1437:
 3813 02e8 FF       		.byte	0xff
 3814 02e9 FF       		.byte	0xff
 3815 02ea 01       		.byte	0x1
 3816 02eb 21       		.uleb128 .LLSDACSE1437-.LLSDACSB1437
 3817              	.LLSDACSB1437:
 3818 02ec BB01     		.uleb128 .LEHB98-.LFB1437
 3819 02ee 05       		.uleb128 .LEHE98-.LEHB98
 3820 02ef A906     		.uleb128 .L373-.LFB1437
 3821 02f1 00       		.uleb128 0
 3822 02f2 CB02     		.uleb128 .LEHB99-.LFB1437
 3823 02f4 05       		.uleb128 .LEHE99-.LEHB99
 3824 02f5 DD06     		.uleb128 .L374-.LFB1437
 3825 02f7 00       		.uleb128 0
 3826 02f8 9E03     		.uleb128 .LEHB100-.LFB1437
 3827 02fa 7C       		.uleb128 .LEHE100-.LEHB100
 3828 02fb 9406     		.uleb128 .L372-.LFB1437
 3829 02fd 00       		.uleb128 0
 3830 02fe A105     		.uleb128 .LEHB101-.LFB1437
 3831 0300 05       		.uleb128 .LEHE101-.LEHB101
 3832 0301 00       		.uleb128 0
 3833 0302 00       		.uleb128 0
 3834 0303 A406     		.uleb128 .LEHB102-.LFB1437
 3835 0305 05       		.uleb128 .LEHE102-.LEHB102
 3836 0306 00       		.uleb128 0
 3837 0307 00       		.uleb128 0
 3838 0308 C806     		.uleb128 .LEHB103-.LFB1437
 3839 030a 05       		.uleb128 .LEHE103-.LEHB103
 3840 030b 00       		.uleb128 0
 3841 030c 00       		.uleb128 0
 3842              	.LLSDACSE1437:
 3843              		.section	.text._ZN8UnitTest10CheckCloseIfffEEvRNS_11TestResultsERKT_RKT0_RKT1_RKNS_11TestDetailsE,
 3845              		.section	.rodata.str1.8
 3846 0261 00000000 		.align 8
 3846      000000
 3847              	.LC37:
 3848 0268 556E6861 		.string	"Unhandled exception in CHECK_CLOSE(2.0f, 2.001f)"
 3848      6E646C65 
 3848      64206578 
 3848      63657074 
 3848      696F6E20 
 3849 0299 00000000 		.align 8
 3849      000000
 3850              	.LC38:
 3851 02a0 556E6861 		.string	"Unhandled exception in CHECK_CLOSE(2.001f, 2.0f)"
 3851      6E646C65 
 3851      64206578 
 3851      63657074 
 3851      696F6E20 
 3852              		.text
 3853              		.align 2
 3854 1526 662E0F1F 		.p2align 4,,15
 3854      84000000 
 3854      0000
 3856              	_ZNK12_GLOBAL__N_127TestValidCheckCloseSucceeds7RunImplEv:
 3857              	.LFB1338:
 3858              		.cfi_startproc
 3859              		.cfi_personality 0x3,__gxx_personality_v0
 3860              		.cfi_lsda 0x3,.LLSDA1338
 3861 1530 53       		pushq	%rbx
 3862              		.cfi_def_cfa_offset 16
 3863              		.cfi_offset 3, -16
 3864 1531 4883EC50 		subq	$80, %rsp
 3865              		.cfi_def_cfa_offset 96
 3866              	.LEHB104:
 3867 1535 E8000000 		call	_ZN8UnitTest11CurrentTest7DetailsEv
 3867      00
 3868 153a 488D5C24 		leaq	48(%rsp), %rbx
 3868      30
 3869 153f 488B30   		movq	(%rax), %rsi
 3870 1542 BA270000 		movl	$39, %edx
 3870      00
 3871 1547 4889DF   		movq	%rbx, %rdi
 3872 154a E8000000 		call	_ZN8UnitTest11TestDetailsC1ERKS0_i
 3872      00
 3873 154f E8000000 		call	_ZN8UnitTest11CurrentTest7ResultsEv
 3873      00
 3874              	.LEHE104:
 3875              	.L385:
 3876              	.LEHB105:
 3877 1554 E8000000 		call	_ZN8UnitTest11CurrentTest7DetailsEv
 3877      00
 3878 1559 488B30   		movq	(%rax), %rsi
 3879 155c BA280000 		movl	$40, %edx
 3879      00
 3880 1561 4889DF   		movq	%rbx, %rdi
 3881 1564 E8000000 		call	_ZN8UnitTest11TestDetailsC1ERKS0_i
 3881      00
 3882 1569 C7442420 		movl	$0x3c23d70a, 32(%rsp)
 3882      0AD7233C 
 3883 1571 C7442410 		movl	$0x40000000, 16(%rsp)
 3883      00000040 
 3884 1579 C7042462 		movl	$0x40001062, (%rsp)
 3884      100040
 3885 1580 E8000000 		call	_ZN8UnitTest11CurrentTest7ResultsEv
 3885      00
 3886 1585 488B38   		movq	(%rax), %rdi
 3887 1588 488D4C24 		leaq	32(%rsp), %rcx
 3887      20
 3888 158d 488D5424 		leaq	16(%rsp), %rdx
 3888      10
 3889 1592 4989D8   		movq	%rbx, %r8
 3890 1595 4889E6   		movq	%rsp, %rsi
 3891 1598 E8000000 		call	_ZN8UnitTest10CheckCloseIfffEEvRNS_11TestResultsERKT_RKT0_RKT1_RKNS_11TestDetailsE
 3891      00
 3892              	.LEHE105:
 3893              	.L382:
 3894 159d 4883C450 		addq	$80, %rsp
 3895              		.cfi_remember_state
 3896              		.cfi_def_cfa_offset 16
 3897 15a1 5B       		popq	%rbx
 3898              		.cfi_def_cfa_offset 8
 3899 15a2 C3       		ret
 3900              	.L389:
 3901              		.cfi_restore_state
 3902 15a3 4889C7   		movq	%rax, %rdi
 3903 15a6 E8000000 		call	__cxa_begin_catch
 3903      00
 3904              	.LEHB106:
 3905 15ab E8000000 		call	_ZN8UnitTest11CurrentTest7DetailsEv
 3905      00
 3906 15b0 488D5C24 		leaq	48(%rsp), %rbx
 3906      30
 3907 15b5 488B30   		movq	(%rax), %rsi
 3908 15b8 BA270000 		movl	$39, %edx
 3908      00
 3909 15bd 4889DF   		movq	%rbx, %rdi
 3910 15c0 E8000000 		call	_ZN8UnitTest11TestDetailsC1ERKS0_i
 3910      00
 3911 15c5 E8000000 		call	_ZN8UnitTest11CurrentTest7ResultsEv
 3911      00
 3912 15ca 488B38   		movq	(%rax), %rdi
 3913 15cd BA000000 		movl	$.LC37, %edx
 3913      00
 3914 15d2 4889DE   		movq	%rbx, %rsi
 3915 15d5 E8000000 		call	_ZN8UnitTest11TestResults13OnTestFailureERKNS_11TestDetailsEPKc
 3915      00
 3916              	.LEHE106:
 3917              	.LEHB107:
 3918 15da E8000000 		call	__cxa_end_catch
 3918      00
 3919              	.LEHE107:
 3920 15df E970FFFF 		jmp	.L385
 3920      FF
 3921              	.L391:
 3922 15e4 4889C7   		movq	%rax, %rdi
 3923              		.p2align 4,,5
 3924 15e7 E8000000 		call	__cxa_begin_catch
 3924      00
 3925 15ec 0F1F4000 		.p2align 4,,5
 3926              	.LEHB108:
 3927 15f0 E8000000 		call	_ZN8UnitTest11CurrentTest7DetailsEv
 3927      00
 3928 15f5 488B30   		movq	(%rax), %rsi
 3929 15f8 BA280000 		movl	$40, %edx
 3929      00
 3930 15fd 4889DF   		movq	%rbx, %rdi
 3931 1600 E8000000 		call	_ZN8UnitTest11TestDetailsC1ERKS0_i
 3931      00
 3932 1605 E8000000 		call	_ZN8UnitTest11CurrentTest7ResultsEv
 3932      00
 3933 160a 488B38   		movq	(%rax), %rdi
 3934 160d BA000000 		movl	$.LC38, %edx
 3934      00
 3935 1612 4889DE   		movq	%rbx, %rsi
 3936 1615 E8000000 		call	_ZN8UnitTest11TestResults13OnTestFailureERKNS_11TestDetailsEPKc
 3936      00
 3937              	.LEHE108:
 3938              	.LEHB109:
 3939 161a E8000000 		call	__cxa_end_catch
 3939      00
 3940              	.LEHE109:
 3941 161f E979FFFF 		jmp	.L382
 3941      FF
 3942              	.L390:
 3943 1624 4889C3   		movq	%rax, %rbx
 3944              		.p2align 4,,5
 3945 1627 E8000000 		call	__cxa_end_catch
 3945      00
 3946 162c 4889DF   		movq	%rbx, %rdi
 3947              	.LEHB110:
 3948 162f E8000000 		call	_Unwind_Resume
 3948      00
 3949              	.LEHE110:
 3950              	.L392:
 3951 1634 4889C3   		movq	%rax, %rbx
 3952 1637 E8000000 		call	__cxa_end_catch
 3952      00
 3953 163c 4889DF   		movq	%rbx, %rdi
 3954              	.LEHB111:
 3955 163f E8000000 		call	_Unwind_Resume
 3955      00
 3956              	.LEHE111:
 3957              		.cfi_endproc
 3958              	.LFE1338:
 3959              		.section	.gcc_except_table
 3960 030d 000000   		.align 4
 3961              	.LLSDA1338:
 3962 0310 FF       		.byte	0xff
 3963 0311 03       		.byte	0x3
 3964 0312 31       		.uleb128 .LLSDATT1338-.LLSDATTD1338
 3965              	.LLSDATTD1338:
 3966 0313 01       		.byte	0x1
 3967 0314 28       		.uleb128 .LLSDACSE1338-.LLSDACSB1338
 3968              	.LLSDACSB1338:
 3969 0315 05       		.uleb128 .LEHB104-.LFB1338
 3970 0316 1F       		.uleb128 .LEHE104-.LEHB104
 3971 0317 73       		.uleb128 .L389-.LFB1338
 3972 0318 01       		.uleb128 0x1
 3973 0319 24       		.uleb128 .LEHB105-.LFB1338
 3974 031a 49       		.uleb128 .LEHE105-.LEHB105
 3975 031b B401     		.uleb128 .L391-.LFB1338
 3976 031d 01       		.uleb128 0x1
 3977 031e 7B       		.uleb128 .LEHB106-.LFB1338
 3978 031f 2F       		.uleb128 .LEHE106-.LEHB106
 3979 0320 F401     		.uleb128 .L390-.LFB1338
 3980 0322 00       		.uleb128 0
 3981 0323 AA01     		.uleb128 .LEHB107-.LFB1338
 3982 0325 05       		.uleb128 .LEHE107-.LEHB107
 3983 0326 00       		.uleb128 0
 3984 0327 00       		.uleb128 0
 3985 0328 C001     		.uleb128 .LEHB108-.LFB1338
 3986 032a 2A       		.uleb128 .LEHE108-.LEHB108
 3987 032b 8402     		.uleb128 .L392-.LFB1338
 3988 032d 00       		.uleb128 0
 3989 032e EA01     		.uleb128 .LEHB109-.LFB1338
 3990 0330 05       		.uleb128 .LEHE109-.LEHB109
 3991 0331 00       		.uleb128 0
 3992 0332 00       		.uleb128 0
 3993 0333 FF01     		.uleb128 .LEHB110-.LFB1338
 3994 0335 05       		.uleb128 .LEHE110-.LEHB110
 3995 0336 00       		.uleb128 0
 3996 0337 00       		.uleb128 0
 3997 0338 8F02     		.uleb128 .LEHB111-.LFB1338
 3998 033a 05       		.uleb128 .LEHE111-.LEHB111
 3999 033b 00       		.uleb128 0
 4000 033c 00       		.uleb128 0
 4001              	.LLSDACSE1338:
 4002 033d 01       		.byte	0x1
 4003 033e 00       		.byte	0
 4004 033f 00       		.align 4
 4005 0340 00000000 		.long	0
 4006              	
 4007              	.LLSDATT1338:
 4008              		.text
 4010              		.section	.text._ZN8UnitTest15CheckArrayCloseISt6vectorIfSaIfEES3_fEEvRNS_11TestResultsERKT_RKT0_iR
 4011              		.p2align 4,,15
 4012              		.weak	_ZN8UnitTest15CheckArrayCloseISt6vectorIfSaIfEES3_fEEvRNS_11TestResultsERKT_RKT0_iRKT1_RKNS_
 4014              	_ZN8UnitTest15CheckArrayCloseISt6vectorIfSaIfEES3_fEEvRNS_11TestResultsERKT_RKT0_iRKT1_RKNS_11TestD
 4015              	.LFB1453:
 4016              		.cfi_startproc
 4017              		.cfi_personality 0x3,__gxx_personality_v0
 4018              		.cfi_lsda 0x3,.LLSDA1453
 4019 0000 4157     		pushq	%r15
 4020              		.cfi_def_cfa_offset 16
 4021              		.cfi_offset 15, -16
 4022 0002 4156     		pushq	%r14
 4023              		.cfi_def_cfa_offset 24
 4024              		.cfi_offset 14, -24
 4025 0004 4155     		pushq	%r13
 4026              		.cfi_def_cfa_offset 32
 4027              		.cfi_offset 13, -32
 4028 0006 4154     		pushq	%r12
 4029              		.cfi_def_cfa_offset 40
 4030              		.cfi_offset 12, -40
 4031 0008 55       		pushq	%rbp
 4032              		.cfi_def_cfa_offset 48
 4033              		.cfi_offset 6, -48
 4034 0009 53       		pushq	%rbx
 4035              		.cfi_def_cfa_offset 56
 4036              		.cfi_offset 3, -56
 4037 000a 89CB     		movl	%ecx, %ebx
 4038 000c 4881EC98 		subq	$408, %rsp
 4038      010000
 4039              		.cfi_def_cfa_offset 464
 4040 0013 85C9     		testl	%ecx, %ecx
 4041 0015 48893C24 		movq	%rdi, (%rsp)
 4042 0019 7E60     		jle	.L394
 4043 001b 4989F5   		movq	%rsi, %r13
 4044 001e 4989D4   		movq	%rdx, %r12
 4045 0021 488B32   		movq	(%rdx), %rsi
 4046 0024 4D89C6   		movq	%r8, %r14
 4047 0027 4D89CF   		movq	%r9, %r15
 4048 002a 498B4D00 		movq	0(%r13), %rcx
 4049 002e F3410F10 		movss	(%r8), %xmm3
 4049      18
 4050 0033 31C0     		xorl	%eax, %eax
 4051 0035 BA010000 		movl	$1, %edx
 4051      00
 4052 003a EB1B     		jmp	.L400
 4053 003c 0F1F4000 		.p2align 4,,10
 4054              		.p2align 3
 4055              	.L437:
 4056 0040 F30F58CB 		addss	%xmm3, %xmm1
 4057 0044 BF000000 		movl	$0, %edi
 4057      00
 4058 0049 0F2EC8   		ucomiss	%xmm0, %xmm1
 4059 004c 0F42D7   		cmovb	%edi, %edx
 4060 004f 4883C001 		addq	$1, %rax
 4061 0053 39C3     		cmpl	%eax, %ebx
 4062 0055 7E20     		jle	.L436
 4063              	.L400:
 4064 0057 F30F100C 		movss	(%rcx,%rax,4), %xmm1
 4064      81
 4065 005c 0F28D1   		movaps	%xmm1, %xmm2
 4066 005f F30F1004 		movss	(%rsi,%rax,4), %xmm0
 4066      86
 4067 0064 F30F5CD3 		subss	%xmm3, %xmm2
 4068 0068 0F2EC2   		ucomiss	%xmm2, %xmm0
 4069 006b 73D3     		jnb	.L437
 4070 006d 4883C001 		addq	$1, %rax
 4071 0071 31D2     		xorl	%edx, %edx
 4072 0073 39C3     		cmpl	%eax, %ebx
 4073 0075 7FE0     		jg	.L400
 4074              	.L436:
 4075 0077 84D2     		testb	%dl, %dl
 4076 0079 7415     		je	.L438
 4077              	.L394:
 4078 007b 4881C498 		addq	$408, %rsp
 4078      010000
 4079              		.cfi_remember_state
 4080              		.cfi_def_cfa_offset 56
 4081 0082 5B       		popq	%rbx
 4082              		.cfi_def_cfa_offset 48
 4083 0083 5D       		popq	%rbp
 4084              		.cfi_def_cfa_offset 40
 4085 0084 415C     		popq	%r12
 4086              		.cfi_def_cfa_offset 32
 4087 0086 415D     		popq	%r13
 4088              		.cfi_def_cfa_offset 24
 4089 0088 415E     		popq	%r14
 4090              		.cfi_def_cfa_offset 16
 4091 008a 415F     		popq	%r15
 4092              		.cfi_def_cfa_offset 8
 4093 008c C3       		ret
 4094 008d 0F1F00   		.p2align 4,,10
 4095              		.p2align 3
 4096              	.L438:
 4097              		.cfi_restore_state
 4098 0090 488DAC24 		leaq	128(%rsp), %rbp
 4098      80000000 
 4099 0098 4889EF   		movq	%rbp, %rdi
 4100 009b E8000000 		call	_ZNSt8ios_baseC2Ev
 4100      00
 4101 00a0 31F6     		xorl	%esi, %esi
 4102 00a2 4889EF   		movq	%rbp, %rdi
 4103 00a5 48C78424 		movq	$0, 344(%rsp)
 4103      58010000 
 4103      00000000 
 4104 00b1 C6842460 		movb	$0, 352(%rsp)
 4104      01000000 
 4105 00b9 C6842461 		movb	$0, 353(%rsp)
 4105      01000000 
 4106 00c1 48C78424 		movq	$0, 360(%rsp)
 4106      68010000 
 4106      00000000 
 4107 00cd 48C78424 		movq	$0, 368(%rsp)
 4107      70010000 
 4107      00000000 
 4108 00d9 48C78424 		movq	$0, 376(%rsp)
 4108      78010000 
 4108      00000000 
 4109 00e5 48C78424 		movq	$0, 384(%rsp)
 4109      80010000 
 4109      00000000 
 4110 00f1 48C74424 		movq	$_ZTCN8UnitTest15MemoryOutStreamE0_So+24, 32(%rsp)
 4110      20000000 
 4110      00
 4111 00fa 48C78424 		movq	$_ZTCN8UnitTest15MemoryOutStreamE0_So+64, 128(%rsp)
 4111      80000000 
 4111      00000000 
 4112              	.LEHB112:
 4113 0106 E8000000 		call	_ZNSt9basic_iosIcSt11char_traitsIcEE4initEPSt15basic_streambufIcS1_E
 4113      00
 4114              	.LEHE112:
 4115 010b 488D7C24 		leaq	96(%rsp), %rdi
 4115      60
 4116 0110 48C74424 		movq	$_ZTCN8UnitTest15MemoryOutStreamE0_St19basic_ostringstreamIcSt11char_traitsIcESaIcEE+24, 32(%
 4116      20000000 
 4116      00
 4117 0119 48C78424 		movq	$_ZTCN8UnitTest15MemoryOutStreamE0_St19basic_ostringstreamIcSt11char_traitsIcESaIcEE+64, 128(
 4117      80000000 
 4117      00000000 
 4118 0125 48C74424 		movq	$_ZTVSt15basic_streambufIcSt11char_traitsIcEE+16, 40(%rsp)
 4118      28000000 
 4118      00
 4119 012e 48C74424 		movq	$0, 48(%rsp)
 4119      30000000 
 4119      00
 4120 0137 48C74424 		movq	$0, 56(%rsp)
 4120      38000000 
 4120      00
 4121 0140 48C74424 		movq	$0, 64(%rsp)
 4121      40000000 
 4121      00
 4122 0149 48C74424 		movq	$0, 72(%rsp)
 4122      48000000 
 4122      00
 4123 0152 48C74424 		movq	$0, 80(%rsp)
 4123      50000000 
 4123      00
 4124 015b 48C74424 		movq	$0, 88(%rsp)
 4124      58000000 
 4124      00
 4125 0164 E8000000 		call	_ZNSt6localeC1Ev
 4125      00
 4126 0169 488B4424 		movq	32(%rsp), %rax
 4126      20
 4127 016e 488D7C24 		leaq	32(%rsp), %rdi
 4127      20
 4128 0173 488D7424 		leaq	40(%rsp), %rsi
 4128      28
 4129 0178 48C74424 		movq	$_ZTVSt15basic_stringbufIcSt11char_traitsIcESaIcEE+16, 40(%rsp)
 4129      28000000 
 4129      00
 4130 0181 C7442468 		movl	$16, 104(%rsp)
 4130      10000000 
 4131 0189 48C74424 		movq	$_ZNSs4_Rep20_S_empty_rep_storageE+24, 112(%rsp)
 4131      70000000 
 4131      00
 4132 0192 480378E8 		addq	-24(%rax), %rdi
 4133              	.LEHB113:
 4134 0196 E8000000 		call	_ZNSt9basic_iosIcSt11char_traitsIcEE4initEPSt15basic_streambufIcS1_E
 4134      00
 4135              	.LEHE113:
 4136 019b 488D7C24 		leaq	32(%rsp), %rdi
 4136      20
 4137 01a0 BA0B0000 		movl	$11, %edx
 4137      00
 4138 01a5 BE000000 		movl	$.LC12, %esi
 4138      00
 4139 01aa 48C74424 		movq	$_ZTVN8UnitTest15MemoryOutStreamE+24, 32(%rsp)
 4139      20000000 
 4139      00
 4140 01b3 48C78424 		movq	$_ZTVN8UnitTest15MemoryOutStreamE+64, 128(%rsp)
 4140      80000000 
 4140      00000000 
 4141 01bf 48C74424 		movq	$_ZNSs4_Rep20_S_empty_rep_storageE+24, 120(%rsp)
 4141      78000000 
 4141      00
 4142              	.LEHB114:
 4143 01c8 E8000000 		call	_ZSt16__ostream_insertIcSt11char_traitsIcEERSt13basic_ostreamIT_T0_ES6_PKS3_l
 4143      00
 4144 01cd 8D43FF   		leal	-1(%rbx), %eax
 4145 01d0 31DB     		xorl	%ebx, %ebx
 4146 01d2 488D2C85 		leaq	4(,%rax,4), %rbp
 4146      04000000 
 4147 01da 660F1F44 		.p2align 4,,10
 4147      0000
 4148              		.p2align 3
 4149              	.L407:
 4150 01e0 498B4500 		movq	0(%r13), %rax
 4151 01e4 488D7C24 		leaq	32(%rsp), %rdi
 4151      20
 4152 01e9 F30F1004 		movss	(%rax,%rbx), %xmm0
 4152      18
 4153 01ee 0F5AC0   		cvtps2pd	%xmm0, %xmm0
 4154 01f1 E8000000 		call	_ZNSo9_M_insertIdEERSoT_
 4154      00
 4155 01f6 BA010000 		movl	$1, %edx
 4155      00
 4156 01fb BE000000 		movl	$.LC13, %esi
 4156      00
 4157 0200 4889C7   		movq	%rax, %rdi
 4158 0203 E8000000 		call	_ZSt16__ostream_insertIcSt11char_traitsIcEERSt13basic_ostreamIT_T0_ES6_PKS3_l
 4158      00
 4159 0208 4883C304 		addq	$4, %rbx
 4160 020c 4839EB   		cmpq	%rbp, %rbx
 4161 020f 75CF     		jne	.L407
 4162 0211 488D7C24 		leaq	32(%rsp), %rdi
 4162      20
 4163 0216 F3410F10 		movss	(%r14), %xmm4
 4163      26
 4164 021b BA060000 		movl	$6, %edx
 4164      00
 4165 0220 BE000000 		movl	$.LC14, %esi
 4165      00
 4166 0225 F30F1164 		movss	%xmm4, 12(%rsp)
 4166      240C
 4167 022b E8000000 		call	_ZSt16__ostream_insertIcSt11char_traitsIcEERSt13basic_ostreamIT_T0_ES6_PKS3_l
 4167      00
 4168 0230 F30F1044 		movss	12(%rsp), %xmm0
 4168      240C
 4169 0236 488D7C24 		leaq	32(%rsp), %rdi
 4169      20
 4170 023b 0F5AC0   		cvtps2pd	%xmm0, %xmm0
 4171 023e E8000000 		call	_ZNSo9_M_insertIdEERSoT_
 4171      00
 4172 0243 BA0B0000 		movl	$11, %edx
 4172      00
 4173 0248 BE000000 		movl	$.LC16, %esi
 4173      00
 4174 024d 4889C7   		movq	%rax, %rdi
 4175 0250 E8000000 		call	_ZSt16__ostream_insertIcSt11char_traitsIcEERSt13basic_ostreamIT_T0_ES6_PKS3_l
 4175      00
 4176 0255 31DB     		xorl	%ebx, %ebx
 4177 0257 660F1F84 		.p2align 4,,10
 4177      00000000 
 4177      00
 4178              		.p2align 3
 4179              	.L411:
 4180 0260 498B0424 		movq	(%r12), %rax
 4181 0264 488D7C24 		leaq	32(%rsp), %rdi
 4181      20
 4182 0269 F30F1004 		movss	(%rax,%rbx), %xmm0
 4182      18
 4183 026e 0F5AC0   		cvtps2pd	%xmm0, %xmm0
 4184 0271 E8000000 		call	_ZNSo9_M_insertIdEERSoT_
 4184      00
 4185 0276 BA010000 		movl	$1, %edx
 4185      00
 4186 027b BE000000 		movl	$.LC13, %esi
 4186      00
 4187 0280 4889C7   		movq	%rax, %rdi
 4188 0283 E8000000 		call	_ZSt16__ostream_insertIcSt11char_traitsIcEERSt13basic_ostreamIT_T0_ES6_PKS3_l
 4188      00
 4189 0288 4883C304 		addq	$4, %rbx
 4190 028c 4839EB   		cmpq	%rbp, %rbx
 4191 028f 75CF     		jne	.L411
 4192 0291 488D7C24 		leaq	32(%rsp), %rdi
 4192      20
 4193 0296 BA010000 		movl	$1, %edx
 4193      00
 4194 029b BE000000 		movl	$.LC17, %esi
 4194      00
 4195 02a0 E8000000 		call	_ZSt16__ostream_insertIcSt11char_traitsIcEERSt13basic_ostreamIT_T0_ES6_PKS3_l
 4195      00
 4196 02a5 488D7C24 		leaq	32(%rsp), %rdi
 4196      20
 4197 02aa E8000000 		call	_ZNK8UnitTest15MemoryOutStream7GetTextEv
 4197      00
 4198 02af 488B3C24 		movq	(%rsp), %rdi
 4199 02b3 4889C2   		movq	%rax, %rdx
 4200 02b6 4C89FE   		movq	%r15, %rsi
 4201 02b9 E8000000 		call	_ZN8UnitTest11TestResults13OnTestFailureERKNS_11TestDetailsEPKc
 4201      00
 4202              	.LEHE114:
 4203 02be 488B4424 		movq	120(%rsp), %rax
 4203      78
 4204 02c3 48C74424 		movq	$_ZTVN8UnitTest15MemoryOutStreamE+24, 32(%rsp)
 4204      20000000 
 4204      00
 4205 02cc 48C78424 		movq	$_ZTVN8UnitTest15MemoryOutStreamE+64, 128(%rsp)
 4205      80000000 
 4205      00000000 
 4206 02d8 488D78E8 		leaq	-24(%rax), %rdi
 4207 02dc 4881FF00 		cmpq	$_ZNSs4_Rep20_S_empty_rep_storageE, %rdi
 4207      000000
 4208 02e3 0F85BF00 		jne	.L439
 4208      0000
 4209              	.L413:
 4210 02e9 488B4424 		movq	112(%rsp), %rax
 4210      70
 4211 02ee 48C74424 		movq	$_ZTCN8UnitTest15MemoryOutStreamE0_St19basic_ostringstreamIcSt11char_traitsIcESaIcEE+24, 32(%
 4211      20000000 
 4211      00
 4212 02f7 48C78424 		movq	$_ZTCN8UnitTest15MemoryOutStreamE0_St19basic_ostringstreamIcSt11char_traitsIcESaIcEE+64, 128(
 4212      80000000 
 4212      00000000 
 4213 0303 48C74424 		movq	$_ZTVSt15basic_stringbufIcSt11char_traitsIcESaIcEE+16, 40(%rsp)
 4213      28000000 
 4213      00
 4214 030c 488D78E8 		leaq	-24(%rax), %rdi
 4215 0310 4881FF00 		cmpq	$_ZNSs4_Rep20_S_empty_rep_storageE, %rdi
 4215      000000
 4216 0317 0F85B900 		jne	.L440
 4216      0000
 4217              	.L418:
 4218 031d 488D7C24 		leaq	96(%rsp), %rdi
 4218      60
 4219 0322 48C74424 		movq	$_ZTVSt15basic_streambufIcSt11char_traitsIcEE+16, 40(%rsp)
 4219      28000000 
 4219      00
 4220 032b E8000000 		call	_ZNSt6localeD1Ev
 4220      00
 4221 0330 488DBC24 		leaq	128(%rsp), %rdi
 4221      80000000 
 4222 0338 48C74424 		movq	$_ZTCN8UnitTest15MemoryOutStreamE0_So+24, 32(%rsp)
 4222      20000000 
 4222      00
 4223 0341 48C78424 		movq	$_ZTVSt9basic_iosIcSt11char_traitsIcEE+16, 128(%rsp)
 4223      80000000 
 4223      00000000 
 4224              	.LEHB115:
 4225 034d E8000000 		call	_ZNSt8ios_baseD2Ev
 4225      00
 4226              	.LEHE115:
 4227 0352 E924FDFF 		jmp	.L394
 4227      FF
 4228              	.L426:
 4229 0357 4889C3   		movq	%rax, %rbx
 4230              	.L403:
 4231 035a 488DBC24 		leaq	128(%rsp), %rdi
 4231      80000000 
 4232 0362 48C78424 		movq	$_ZTVSt9basic_iosIcSt11char_traitsIcEE+16, 128(%rsp)
 4232      80000000 
 4232      00000000 
 4233 036e E8000000 		call	_ZNSt8ios_baseD2Ev
 4233      00
 4234 0373 4889DF   		movq	%rbx, %rdi
 4235              	.LEHB116:
 4236 0376 E8000000 		call	_Unwind_Resume
 4236      00
 4237              	.LEHE116:
 4238              	.L427:
 4239 037b 488D7C24 		leaq	40(%rsp), %rdi
 4239      28
 4240 0380 4889C3   		movq	%rax, %rbx
 4241 0383 E8000000 		call	_ZNSt15basic_stringbufIcSt11char_traitsIcESaIcEED1Ev
 4241      00
 4242 0388 48C74424 		movq	$_ZTCN8UnitTest15MemoryOutStreamE0_So+24, 32(%rsp)
 4242      20000000 
 4242      00
 4243 0391 EBC7     		jmp	.L403
 4244              	.L425:
 4245 0393 488D7C24 		leaq	32(%rsp), %rdi
 4245      20
 4246 0398 4889C3   		movq	%rax, %rbx
 4247 039b E8000000 		call	_ZN8UnitTest15MemoryOutStreamD1Ev
 4247      00
 4248 03a0 4889DF   		movq	%rbx, %rdi
 4249              	.LEHB117:
 4250 03a3 E8000000 		call	_Unwind_Resume
 4250      00
 4251              	.LEHE117:
 4252              	.L439:
 4253 03a8 B9000000 		movl	$_ZL28__gthrw___pthread_key_createPjPFvPvE, %ecx
 4253      00
 4254 03ad 488D5710 		leaq	16(%rdi), %rdx
 4255 03b1 4885C9   		testq	%rcx, %rcx
 4256 03b4 744E     		je	.L414
 4257 03b6 B8FFFFFF 		movl	$-1, %eax
 4257      FF
 4258 03bb F00FC102 		lock xaddl	%eax, (%rdx)
 4259              	.L415:
 4260 03bf 85C0     		testl	%eax, %eax
 4261 03c1 0F8F22FF 		jg	.L413
 4261      FFFF
 4262 03c7 488D7424 		leaq	31(%rsp), %rsi
 4262      1F
 4263 03cc E8000000 		call	_ZNSs4_Rep10_M_destroyERKSaIcE
 4263      00
 4264 03d1 E913FFFF 		jmp	.L413
 4264      FF
 4265              	.L440:
 4266 03d6 B9000000 		movl	$_ZL28__gthrw___pthread_key_createPjPFvPvE, %ecx
 4266      00
 4267 03db 488D5710 		leaq	16(%rdi), %rdx
 4268 03df 4885C9   		testq	%rcx, %rcx
 4269 03e2 742D     		je	.L419
 4270 03e4 B8FFFFFF 		movl	$-1, %eax
 4270      FF
 4271 03e9 F00FC102 		lock xaddl	%eax, (%rdx)
 4272              	.L420:
 4273 03ed 85C0     		testl	%eax, %eax
 4274 03ef 0F8F28FF 		jg	.L418
 4274      FFFF
 4275 03f5 488D7424 		leaq	31(%rsp), %rsi
 4275      1F
 4276 03fa E8000000 		call	_ZNSs4_Rep10_M_destroyERKSaIcE
 4276      00
 4277 03ff E919FFFF 		jmp	.L418
 4277      FF
 4278              	.L414:
 4279 0404 8B50F8   		movl	-8(%rax), %edx
 4280 0407 8D4AFF   		leal	-1(%rdx), %ecx
 4281 040a 8948F8   		movl	%ecx, -8(%rax)
 4282 040d 89D0     		movl	%edx, %eax
 4283 040f EBAE     		jmp	.L415
 4284              	.L419:
 4285 0411 8B50F8   		movl	-8(%rax), %edx
 4286 0414 8D4AFF   		leal	-1(%rdx), %ecx
 4287 0417 8948F8   		movl	%ecx, -8(%rax)
 4288 041a 89D0     		movl	%edx, %eax
 4289 041c EBCF     		jmp	.L420
 4290              		.cfi_endproc
 4291              	.LFE1453:
 4292              		.section	.gcc_except_table
 4293              	.LLSDA1453:
 4294 0344 FF       		.byte	0xff
 4295 0345 FF       		.byte	0xff
 4296 0346 01       		.byte	0x1
 4297 0347 22       		.uleb128 .LLSDACSE1453-.LLSDACSB1453
 4298              	.LLSDACSB1453:
 4299 0348 8602     		.uleb128 .LEHB112-.LFB1453
 4300 034a 05       		.uleb128 .LEHE112-.LEHB112
 4301 034b D706     		.uleb128 .L426-.LFB1453
 4302 034d 00       		.uleb128 0
 4303 034e 9603     		.uleb128 .LEHB113-.LFB1453
 4304 0350 05       		.uleb128 .LEHE113-.LEHB113
 4305 0351 FB06     		.uleb128 .L427-.LFB1453
 4306 0353 00       		.uleb128 0
 4307 0354 C803     		.uleb128 .LEHB114-.LFB1453
 4308 0356 F601     		.uleb128 .LEHE114-.LEHB114
 4309 0358 9307     		.uleb128 .L425-.LFB1453
 4310 035a 00       		.uleb128 0
 4311 035b CD06     		.uleb128 .LEHB115-.LFB1453
 4312 035d 05       		.uleb128 .LEHE115-.LEHB115
 4313 035e 00       		.uleb128 0
 4314 035f 00       		.uleb128 0
 4315 0360 F606     		.uleb128 .LEHB116-.LFB1453
 4316 0362 05       		.uleb128 .LEHE116-.LEHB116
 4317 0363 00       		.uleb128 0
 4318 0364 00       		.uleb128 0
 4319 0365 A307     		.uleb128 .LEHB117-.LFB1453
 4320 0367 05       		.uleb128 .LEHE117-.LEHB117
 4321 0368 00       		.uleb128 0
 4322 0369 00       		.uleb128 0
 4323              	.LLSDACSE1453:
 4324              		.section	.text._ZN8UnitTest15CheckArrayCloseISt6vectorIfSaIfEES3_fEEvRNS_11TestResultsERKT_RKT0_iR
 4326              		.section	.rodata.str1.8
 4327 02d1 00000000 		.align 8
 4327      000000
 4328              	.LC41:
 4329 02d8 556E6861 		.string	"Unhandled exception in CHECK_ARRAY_CLOSE(a, a)"
 4329      6E646C65 
 4329      64206578 
 4329      63657074 
 4329      696F6E20 
 4330              		.text
 4331              		.align 2
 4332 1644 6666662E 		.p2align 4,,15
 4332      0F1F8400 
 4332      00000000 
 4334              	_ZNK12_GLOBAL__N_135TestCheckArrayCloseWorksWithVectors7RunImplEv:
 4335              	.LFB1346:
 4336              		.cfi_startproc
 4337              		.cfi_personality 0x3,__gxx_personality_v0
 4338              		.cfi_lsda 0x3,.LLSDA1346
 4339 1650 55       		pushq	%rbp
 4340              		.cfi_def_cfa_offset 16
 4341              		.cfi_offset 6, -16
 4342 1651 BF100000 		movl	$16, %edi
 4342      00
 4343 1656 53       		pushq	%rbx
 4344              		.cfi_def_cfa_offset 24
 4345              		.cfi_offset 3, -24
 4346 1657 4883EC58 		subq	$88, %rsp
 4347              		.cfi_def_cfa_offset 112
 4348 165b 48C74424 		movq	$0, 16(%rsp)
 4348      10000000 
 4348      00
 4349 1664 48C74424 		movq	$0, 24(%rsp)
 4349      18000000 
 4349      00
 4350 166d 48C74424 		movq	$0, 32(%rsp)
 4350      20000000 
 4350      00
 4351              	.LEHB118:
 4352 1676 E8000000 		call	_Znwm
 4352      00
 4353              	.LEHE118:
 4354 167b 488D5010 		leaq	16(%rax), %rdx
 4355 167f 48894424 		movq	%rax, 16(%rsp)
 4355      10
 4356 1684 48895424 		movq	%rdx, 32(%rsp)
 4356      20
 4357 1689 48895424 		movq	%rdx, 24(%rsp)
 4357      18
 4358 168e C7000000 		movl	$0x00000000, (%rax)
 4358      0000
 4359 1694 C7400400 		movl	$0x3f800000, 4(%rax)
 4359      00803F
 4360 169b C7400800 		movl	$0x40000000, 8(%rax)
 4360      000040
 4361 16a2 C7400C00 		movl	$0x40400000, 12(%rax)
 4361      004040
 4362              	.LEHB119:
 4363 16a9 E8000000 		call	_ZN8UnitTest11CurrentTest7DetailsEv
 4363      00
 4364 16ae 488D6C24 		leaq	48(%rsp), %rbp
 4364      30
 4365 16b3 488B30   		movq	(%rax), %rsi
 4366 16b6 BA380000 		movl	$56, %edx
 4366      00
 4367 16bb 4889EF   		movq	%rbp, %rdi
 4368 16be E8000000 		call	_ZN8UnitTest11TestDetailsC1ERKS0_i
 4368      00
 4369 16c3 488B5C24 		movq	24(%rsp), %rbx
 4369      18
 4370 16c8 482B5C24 		subq	16(%rsp), %rbx
 4370      10
 4371 16cd C7042417 		movl	$0x38d1b717, (%rsp)
 4371      B7D138
 4372 16d4 48C1FB02 		sarq	$2, %rbx
 4373 16d8 E8000000 		call	_ZN8UnitTest11CurrentTest7ResultsEv
 4373      00
 4374 16dd 488D5424 		leaq	16(%rsp), %rdx
 4374      10
 4375 16e2 488B38   		movq	(%rax), %rdi
 4376 16e5 4989E9   		movq	%rbp, %r9
 4377 16e8 4989E0   		movq	%rsp, %r8
 4378 16eb 89D9     		movl	%ebx, %ecx
 4379 16ed 4889D6   		movq	%rdx, %rsi
 4380 16f0 E8000000 		call	_ZN8UnitTest15CheckArrayCloseISt6vectorIfSaIfEES3_fEEvRNS_11TestResultsERKT_RKT0_iRKT1_RKNS_1
 4380      00
 4381              	.LEHE119:
 4382              	.L446:
 4383 16f5 488B7C24 		movq	16(%rsp), %rdi
 4383      10
 4384 16fa 4885FF   		testq	%rdi, %rdi
 4385 16fd 7405     		je	.L441
 4386 16ff E8000000 		call	_ZdlPv
 4386      00
 4387              	.L441:
 4388 1704 4883C458 		addq	$88, %rsp
 4389              		.cfi_remember_state
 4390              		.cfi_def_cfa_offset 24
 4391 1708 5B       		popq	%rbx
 4392              		.cfi_def_cfa_offset 16
 4393 1709 5D       		popq	%rbp
 4394              		.cfi_def_cfa_offset 8
 4395 170a C3       		ret
 4396              	.L448:
 4397              		.cfi_restore_state
 4398 170b 4889C7   		movq	%rax, %rdi
 4399 170e E8000000 		call	__cxa_begin_catch
 4399      00
 4400              	.LEHB120:
 4401 1713 E8000000 		call	_ZN8UnitTest11CurrentTest7DetailsEv
 4401      00
 4402 1718 488D6C24 		leaq	48(%rsp), %rbp
 4402      30
 4403 171d 488B30   		movq	(%rax), %rsi
 4404 1720 BA380000 		movl	$56, %edx
 4404      00
 4405 1725 4889EF   		movq	%rbp, %rdi
 4406 1728 E8000000 		call	_ZN8UnitTest11TestDetailsC1ERKS0_i
 4406      00
 4407 172d E8000000 		call	_ZN8UnitTest11CurrentTest7ResultsEv
 4407      00
 4408 1732 488B38   		movq	(%rax), %rdi
 4409 1735 BA000000 		movl	$.LC41, %edx
 4409      00
 4410 173a 4889EE   		movq	%rbp, %rsi
 4411 173d E8000000 		call	_ZN8UnitTest11TestResults13OnTestFailureERKNS_11TestDetailsEPKc
 4411      00
 4412              	.LEHE120:
 4413              	.LEHB121:
 4414 1742 E8000000 		call	__cxa_end_catch
 4414      00
 4415              	.LEHE121:
 4416 1747 EBAC     		jmp	.L446
 4417              	.L450:
 4418 1749 4889C3   		movq	%rax, %rbx
 4419 174c 0F1F4000 		.p2align 4,,5
 4420 1750 E8000000 		call	__cxa_end_catch
 4420      00
 4421              	.L444:
 4422 1755 488B7C24 		movq	16(%rsp), %rdi
 4422      10
 4423 175a 4885FF   		testq	%rdi, %rdi
 4424 175d 7405     		je	.L447
 4425 175f E8000000 		call	_ZdlPv
 4425      00
 4426              	.L447:
 4427 1764 4889DF   		movq	%rbx, %rdi
 4428              	.LEHB122:
 4429 1767 E8000000 		call	_Unwind_Resume
 4429      00
 4430              	.LEHE122:
 4431              	.L449:
 4432 176c 4889C3   		movq	%rax, %rbx
 4433 176f EBE4     		jmp	.L444
 4434              		.cfi_endproc
 4435              	.LFE1346:
 4436              		.section	.gcc_except_table
 4437 036a 0000     		.align 4
 4438              	.LLSDA1346:
 4439 036c FF       		.byte	0xff
 4440 036d 03       		.byte	0x3
 4441 036e 25       		.uleb128 .LLSDATT1346-.LLSDATTD1346
 4442              	.LLSDATTD1346:
 4443 036f 01       		.byte	0x1
 4444 0370 1A       		.uleb128 .LLSDACSE1346-.LLSDACSB1346
 4445              	.LLSDACSB1346:
 4446 0371 26       		.uleb128 .LEHB118-.LFB1346
 4447 0372 05       		.uleb128 .LEHE118-.LEHB118
 4448 0373 00       		.uleb128 0
 4449 0374 00       		.uleb128 0
 4450 0375 59       		.uleb128 .LEHB119-.LFB1346
 4451 0376 4C       		.uleb128 .LEHE119-.LEHB119
 4452 0377 BB01     		.uleb128 .L448-.LFB1346
 4453 0379 01       		.uleb128 0x1
 4454 037a C301     		.uleb128 .LEHB120-.LFB1346
 4455 037c 2F       		.uleb128 .LEHE120-.LEHB120
 4456 037d F901     		.uleb128 .L450-.LFB1346
 4457 037f 00       		.uleb128 0
 4458 0380 F201     		.uleb128 .LEHB121-.LFB1346
 4459 0382 05       		.uleb128 .LEHE121-.LEHB121
 4460 0383 9C02     		.uleb128 .L449-.LFB1346
 4461 0385 00       		.uleb128 0
 4462 0386 9702     		.uleb128 .LEHB122-.LFB1346
 4463 0388 05       		.uleb128 .LEHE122-.LEHB122
 4464 0389 00       		.uleb128 0
 4465 038a 00       		.uleb128 0
 4466              	.LLSDACSE1346:
 4467 038b 01       		.byte	0x1
 4468 038c 00       		.byte	0
 4469 038d 000000   		.align 4
 4470 0390 00000000 		.long	0
 4471              	
 4472              	.LLSDATT1346:
 4473              		.text
 4475              		.section	.rodata.str1.1
 4476              	.LC42:
 4477 00ba 54657374 		.string	"TestUnitTest++.cpp"
 4477      556E6974 
 4477      54657374 
 4477      2B2B2E63 
 4477      707000
 4478              	.LC43:
 4479 00cd 56616C69 		.string	"ValidCheckSucceeds"
 4479      64436865 
 4479      636B5375 
 4479      63636565 
 4479      647300
 4480              	.LC44:
 4481 00e0 43686563 		.string	"CheckWorksWithPointers"
 4481      6B576F72 
 4481      6B735769 
 4481      7468506F 
 4481      696E7465 
 4482              	.LC45:
 4483 00f7 56616C69 		.string	"ValidCheckEqualSucceeds"
 4483      64436865 
 4483      636B4571 
 4483      75616C53 
 4483      75636365 
 4484              	.LC46:
 4485 010f 43686563 		.string	"CheckEqualWorksWithPointers"
 4485      6B457175 
 4485      616C576F 
 4485      726B7357 
 4485      69746850 
 4486              	.LC47:
 4487 012b 56616C69 		.string	"ValidCheckCloseSucceeds"
 4487      64436865 
 4487      636B436C 
 4487      6F736553 
 4487      75636365 
 4488              	.LC48:
 4489 0143 41727261 		.string	"ArrayCloseSucceeds"
 4489      79436C6F 
 4489      73655375 
 4489      63636565 
 4489      647300
 4490              		.section	.rodata.str1.8
 4491 0307 00       		.align 8
 4492              	.LC49:
 4493 0308 43686563 		.string	"CheckArrayCloseWorksWithVectors"
 4493      6B417272 
 4493      6179436C 
 4493      6F736557 
 4493      6F726B73 
 4494              		.align 8
 4495              	.LC50:
 4496 0328 43686563 		.string	"CheckThrowMacroSucceedsOnCorrectException"
 4496      6B546872 
 4496      6F774D61 
 4496      63726F53 
 4496      75636365 
 4497              		.section	.rodata.str1.1
 4498              	.LC51:
 4499 0156 43686563 		.string	"CheckAssertSucceeds"
 4499      6B417373 
 4499      65727453 
 4499      75636365 
 4499      65647300 
 4500              		.section	.rodata.str1.8
 4501 0352 00000000 		.align 8
 4501      0000
 4502              	.LC52:
 4503 0358 43686563 		.string	"CheckThrowMacroFailsOnMissingException"
 4503      6B546872 
 4503      6F774D61 
 4503      63726F46 
 4503      61696C73 
 4504 037f 00       		.align 8
 4505              	.LC53:
 4506 0380 43686563 		.string	"CheckThrowMacroFailsOnWrongException"
 4506      6B546872 
 4506      6F774D61 
 4506      63726F46 
 4506      61696C73 
 4507              		.section	.rodata.str1.1
 4508              	.LC54:
 4509 016a 44656661 		.string	"DefaultFixtureCtorIsCalled"
 4509      756C7446 
 4509      69787475 
 4509      72654374 
 4509      6F724973 
 4510              	.LC55:
 4511 0185 4F6E6C79 		.string	"OnlyOneFixtureAliveAtATime"
 4511      4F6E6546 
 4511      69787475 
 4511      7265416C 
 4511      69766541 
 4512              		.section	.rodata.str1.8
 4513 03a5 000000   		.align 8
 4514              	.LC56:
 4515 03a8 43616E43 		.string	"CanCallCHECKOutsideOfTestFunction"
 4515      616C6C43 
 4515      4845434B 
 4515      4F757473 
 4515      6964654F 
 4516              		.section	.text.startup,"ax",@progbits
 4517              		.p2align 4,,15
 4519              	_GLOBAL__sub_I_TestUnitTest__.cpp:
 4520              	.LFB1624:
 4521              		.cfi_startproc
 4522 0000 4883EC08 		subq	$8, %rsp
 4523              		.cfi_def_cfa_offset 16
 4524 0004 41B80B00 		movl	$11, %r8d
 4524      0000
 4525 000a B9000000 		movl	$.LC42, %ecx
 4525      00
 4526 000f BA000000 		movl	$.LC30, %edx
 4526      00
 4527 0014 BE000000 		movl	$.LC43, %esi
 4527      00
 4528 0019 BF000000 		movl	$_ZN12_GLOBAL__N_130testValidCheckSucceedsInstanceE, %edi
 4528      00
 4529 001e E8000000 		call	_ZN8UnitTest4TestC2EPKcS2_S2_i
 4529      00
 4530 0023 BA000000 		movl	$__dso_handle, %edx
 4530      00
 4531 0028 BE000000 		movl	$_ZN12_GLOBAL__N_130testValidCheckSucceedsInstanceE, %esi
 4531      00
 4532 002d BF000000 		movl	$_ZN12_GLOBAL__N_122TestValidCheckSucceedsD1Ev, %edi
 4532      00
 4533 0032 48C70500 		movq	$_ZTVN12_GLOBAL__N_122TestValidCheckSucceedsE+16, _ZN12_GLOBAL__N_130testValidCheckSucceedsIn
 4533      00000000 
 4533      000000
 4534 003d E8000000 		call	__cxa_atexit
 4534      00
 4535 0042 E8000000 		call	_ZN8UnitTest4Test11GetTestListEv
 4535      00
 4536 0047 BA000000 		movl	$_ZN12_GLOBAL__N_130testValidCheckSucceedsInstanceE, %edx
 4536      00
 4537 004c 4889C6   		movq	%rax, %rsi
 4538 004f BF000000 		movl	$_ZN12_GLOBAL__N_123adderValidCheckSucceedsE, %edi
 4538      00
 4539 0054 E8000000 		call	_ZN8UnitTest9ListAdderC1ERNS_8TestListEPNS_4TestE
 4539      00
 4540 0059 41B81100 		movl	$17, %r8d
 4540      0000
 4541 005f B9000000 		movl	$.LC42, %ecx
 4541      00
 4542 0064 BA000000 		movl	$.LC30, %edx
 4542      00
 4543 0069 BE000000 		movl	$.LC44, %esi
 4543      00
 4544 006e BF000000 		movl	$_ZN12_GLOBAL__N_134testCheckWorksWithPointersInstanceE, %edi
 4544      00
 4545 0073 E8000000 		call	_ZN8UnitTest4TestC2EPKcS2_S2_i
 4545      00
 4546 0078 BA000000 		movl	$__dso_handle, %edx
 4546      00
 4547 007d BE000000 		movl	$_ZN12_GLOBAL__N_134testCheckWorksWithPointersInstanceE, %esi
 4547      00
 4548 0082 BF000000 		movl	$_ZN12_GLOBAL__N_126TestCheckWorksWithPointersD1Ev, %edi
 4548      00
 4549 0087 48C70500 		movq	$_ZTVN12_GLOBAL__N_126TestCheckWorksWithPointersE+16, _ZN12_GLOBAL__N_134testCheckWorksWithPo
 4549      00000000 
 4549      000000
 4550 0092 E8000000 		call	__cxa_atexit
 4550      00
 4551 0097 E8000000 		call	_ZN8UnitTest4Test11GetTestListEv
 4551      00
 4552 009c BA000000 		movl	$_ZN12_GLOBAL__N_134testCheckWorksWithPointersInstanceE, %edx
 4552      00
 4553 00a1 4889C6   		movq	%rax, %rsi
 4554 00a4 BF000000 		movl	$_ZN12_GLOBAL__N_127adderCheckWorksWithPointersE, %edi
 4554      00
 4555 00a9 E8000000 		call	_ZN8UnitTest9ListAdderC1ERNS_8TestListEPNS_4TestE
 4555      00
 4556 00ae 41B81800 		movl	$24, %r8d
 4556      0000
 4557 00b4 B9000000 		movl	$.LC42, %ecx
 4557      00
 4558 00b9 BA000000 		movl	$.LC30, %edx
 4558      00
 4559 00be BE000000 		movl	$.LC45, %esi
 4559      00
 4560 00c3 BF000000 		movl	$_ZN12_GLOBAL__N_135testValidCheckEqualSucceedsInstanceE, %edi
 4560      00
 4561 00c8 E8000000 		call	_ZN8UnitTest4TestC2EPKcS2_S2_i
 4561      00
 4562 00cd BA000000 		movl	$__dso_handle, %edx
 4562      00
 4563 00d2 BE000000 		movl	$_ZN12_GLOBAL__N_135testValidCheckEqualSucceedsInstanceE, %esi
 4563      00
 4564 00d7 BF000000 		movl	$_ZN12_GLOBAL__N_127TestValidCheckEqualSucceedsD1Ev, %edi
 4564      00
 4565 00dc 48C70500 		movq	$_ZTVN12_GLOBAL__N_127TestValidCheckEqualSucceedsE+16, _ZN12_GLOBAL__N_135testValidCheckEqual
 4565      00000000 
 4565      000000
 4566 00e7 E8000000 		call	__cxa_atexit
 4566      00
 4567 00ec E8000000 		call	_ZN8UnitTest4Test11GetTestListEv
 4567      00
 4568 00f1 BA000000 		movl	$_ZN12_GLOBAL__N_135testValidCheckEqualSucceedsInstanceE, %edx
 4568      00
 4569 00f6 4889C6   		movq	%rax, %rsi
 4570 00f9 BF000000 		movl	$_ZN12_GLOBAL__N_128adderValidCheckEqualSucceedsE, %edi
 4570      00
 4571 00fe E8000000 		call	_ZN8UnitTest9ListAdderC1ERNS_8TestListEPNS_4TestE
 4571      00
 4572 0103 41B81F00 		movl	$31, %r8d
 4572      0000
 4573 0109 B9000000 		movl	$.LC42, %ecx
 4573      00
 4574 010e BA000000 		movl	$.LC30, %edx
 4574      00
 4575 0113 BE000000 		movl	$.LC46, %esi
 4575      00
 4576 0118 BF000000 		movl	$_ZN12_GLOBAL__N_139testCheckEqualWorksWithPointersInstanceE, %edi
 4576      00
 4577 011d E8000000 		call	_ZN8UnitTest4TestC2EPKcS2_S2_i
 4577      00
 4578 0122 BA000000 		movl	$__dso_handle, %edx
 4578      00
 4579 0127 BE000000 		movl	$_ZN12_GLOBAL__N_139testCheckEqualWorksWithPointersInstanceE, %esi
 4579      00
 4580 012c BF000000 		movl	$_ZN12_GLOBAL__N_131TestCheckEqualWorksWithPointersD1Ev, %edi
 4580      00
 4581 0131 48C70500 		movq	$_ZTVN12_GLOBAL__N_131TestCheckEqualWorksWithPointersE+16, _ZN12_GLOBAL__N_139testCheckEqualW
 4581      00000000 
 4581      000000
 4582 013c E8000000 		call	__cxa_atexit
 4582      00
 4583 0141 E8000000 		call	_ZN8UnitTest4Test11GetTestListEv
 4583      00
 4584 0146 BA000000 		movl	$_ZN12_GLOBAL__N_139testCheckEqualWorksWithPointersInstanceE, %edx
 4584      00
 4585 014b 4889C6   		movq	%rax, %rsi
 4586 014e BF000000 		movl	$_ZN12_GLOBAL__N_132adderCheckEqualWorksWithPointersE, %edi
 4586      00
 4587 0153 E8000000 		call	_ZN8UnitTest9ListAdderC1ERNS_8TestListEPNS_4TestE
 4587      00
 4588 0158 41B82500 		movl	$37, %r8d
 4588      0000
 4589 015e B9000000 		movl	$.LC42, %ecx
 4589      00
 4590 0163 BA000000 		movl	$.LC30, %edx
 4590      00
 4591 0168 BE000000 		movl	$.LC47, %esi
 4591      00
 4592 016d BF000000 		movl	$_ZN12_GLOBAL__N_135testValidCheckCloseSucceedsInstanceE, %edi
 4592      00
 4593 0172 E8000000 		call	_ZN8UnitTest4TestC2EPKcS2_S2_i
 4593      00
 4594 0177 BA000000 		movl	$__dso_handle, %edx
 4594      00
 4595 017c BE000000 		movl	$_ZN12_GLOBAL__N_135testValidCheckCloseSucceedsInstanceE, %esi
 4595      00
 4596 0181 BF000000 		movl	$_ZN12_GLOBAL__N_127TestValidCheckCloseSucceedsD1Ev, %edi
 4596      00
 4597 0186 48C70500 		movq	$_ZTVN12_GLOBAL__N_127TestValidCheckCloseSucceedsE+16, _ZN12_GLOBAL__N_135testValidCheckClose
 4597      00000000 
 4597      000000
 4598 0191 E8000000 		call	__cxa_atexit
 4598      00
 4599 0196 E8000000 		call	_ZN8UnitTest4Test11GetTestListEv
 4599      00
 4600 019b BA000000 		movl	$_ZN12_GLOBAL__N_135testValidCheckCloseSucceedsInstanceE, %edx
 4600      00
 4601 01a0 4889C6   		movq	%rax, %rsi
 4602 01a3 BF000000 		movl	$_ZN12_GLOBAL__N_128adderValidCheckCloseSucceedsE, %edi
 4602      00
 4603 01a8 E8000000 		call	_ZN8UnitTest9ListAdderC1ERNS_8TestListEPNS_4TestE
 4603      00
 4604 01ad 41B82B00 		movl	$43, %r8d
 4604      0000
 4605 01b3 B9000000 		movl	$.LC42, %ecx
 4605      00
 4606 01b8 BA000000 		movl	$.LC30, %edx
 4606      00
 4607 01bd BE000000 		movl	$.LC48, %esi
 4607      00
 4608 01c2 BF000000 		movl	$_ZN12_GLOBAL__N_130testArrayCloseSucceedsInstanceE, %edi
 4608      00
 4609 01c7 E8000000 		call	_ZN8UnitTest4TestC2EPKcS2_S2_i
 4609      00
 4610 01cc BA000000 		movl	$__dso_handle, %edx
 4610      00
 4611 01d1 BE000000 		movl	$_ZN12_GLOBAL__N_130testArrayCloseSucceedsInstanceE, %esi
 4611      00
 4612 01d6 BF000000 		movl	$_ZN12_GLOBAL__N_122TestArrayCloseSucceedsD1Ev, %edi
 4612      00
 4613 01db 48C70500 		movq	$_ZTVN12_GLOBAL__N_122TestArrayCloseSucceedsE+16, _ZN12_GLOBAL__N_130testArrayCloseSucceedsIn
 4613      00000000 
 4613      000000
 4614 01e6 E8000000 		call	__cxa_atexit
 4614      00
 4615 01eb E8000000 		call	_ZN8UnitTest4Test11GetTestListEv
 4615      00
 4616 01f0 BA000000 		movl	$_ZN12_GLOBAL__N_130testArrayCloseSucceedsInstanceE, %edx
 4616      00
 4617 01f5 4889C6   		movq	%rax, %rsi
 4618 01f8 BF000000 		movl	$_ZN12_GLOBAL__N_123adderArrayCloseSucceedsE, %edi
 4618      00
 4619 01fd E8000000 		call	_ZN8UnitTest9ListAdderC1ERNS_8TestListEPNS_4TestE
 4619      00
 4620 0202 41B83200 		movl	$50, %r8d
 4620      0000
 4621 0208 B9000000 		movl	$.LC42, %ecx
 4621      00
 4622 020d BA000000 		movl	$.LC30, %edx
 4622      00
 4623 0212 BE000000 		movl	$.LC49, %esi
 4623      00
 4624 0217 BF000000 		movl	$_ZN12_GLOBAL__N_143testCheckArrayCloseWorksWithVectorsInstanceE, %edi
 4624      00
 4625 021c E8000000 		call	_ZN8UnitTest4TestC2EPKcS2_S2_i
 4625      00
 4626 0221 BA000000 		movl	$__dso_handle, %edx
 4626      00
 4627 0226 BE000000 		movl	$_ZN12_GLOBAL__N_143testCheckArrayCloseWorksWithVectorsInstanceE, %esi
 4627      00
 4628 022b BF000000 		movl	$_ZN12_GLOBAL__N_135TestCheckArrayCloseWorksWithVectorsD1Ev, %edi
 4628      00
 4629 0230 48C70500 		movq	$_ZTVN12_GLOBAL__N_135TestCheckArrayCloseWorksWithVectorsE+16, _ZN12_GLOBAL__N_143testCheckAr
 4629      00000000 
 4629      000000
 4630 023b E8000000 		call	__cxa_atexit
 4630      00
 4631 0240 E8000000 		call	_ZN8UnitTest4Test11GetTestListEv
 4631      00
 4632 0245 BA000000 		movl	$_ZN12_GLOBAL__N_143testCheckArrayCloseWorksWithVectorsInstanceE, %edx
 4632      00
 4633 024a 4889C6   		movq	%rax, %rsi
 4634 024d BF000000 		movl	$_ZN12_GLOBAL__N_136adderCheckArrayCloseWorksWithVectorsE, %edi
 4634      00
 4635 0252 E8000000 		call	_ZN8UnitTest9ListAdderC1ERNS_8TestListEPNS_4TestE
 4635      00
 4636 0257 41B83B00 		movl	$59, %r8d
 4636      0000
 4637 025d B9000000 		movl	$.LC42, %ecx
 4637      00
 4638 0262 BA000000 		movl	$.LC30, %edx
 4638      00
 4639 0267 BE000000 		movl	$.LC50, %esi
 4639      00
 4640 026c BF000000 		movl	$_ZN12_GLOBAL__N_153testCheckThrowMacroSucceedsOnCorrectExceptionInstanceE, %edi
 4640      00
 4641 0271 E8000000 		call	_ZN8UnitTest4TestC2EPKcS2_S2_i
 4641      00
 4642 0276 BA000000 		movl	$__dso_handle, %edx
 4642      00
 4643 027b BE000000 		movl	$_ZN12_GLOBAL__N_153testCheckThrowMacroSucceedsOnCorrectExceptionInstanceE, %esi
 4643      00
 4644 0280 BF000000 		movl	$_ZN12_GLOBAL__N_145TestCheckThrowMacroSucceedsOnCorrectExceptionD1Ev, %edi
 4644      00
 4645 0285 48C70500 		movq	$_ZTVN12_GLOBAL__N_145TestCheckThrowMacroSucceedsOnCorrectExceptionE+16, _ZN12_GLOBAL__N_153t
 4645      00000000 
 4645      000000
 4646 0290 E8000000 		call	__cxa_atexit
 4646      00
 4647 0295 E8000000 		call	_ZN8UnitTest4Test11GetTestListEv
 4647      00
 4648 029a BA000000 		movl	$_ZN12_GLOBAL__N_153testCheckThrowMacroSucceedsOnCorrectExceptionInstanceE, %edx
 4648      00
 4649 029f 4889C6   		movq	%rax, %rsi
 4650 02a2 BF000000 		movl	$_ZN12_GLOBAL__N_146adderCheckThrowMacroSucceedsOnCorrectExceptionE, %edi
 4650      00
 4651 02a7 E8000000 		call	_ZN8UnitTest9ListAdderC1ERNS_8TestListEPNS_4TestE
 4651      00
 4652 02ac 41B84100 		movl	$65, %r8d
 4652      0000
 4653 02b2 B9000000 		movl	$.LC42, %ecx
 4653      00
 4654 02b7 BA000000 		movl	$.LC30, %edx
 4654      00
 4655 02bc BE000000 		movl	$.LC51, %esi
 4655      00
 4656 02c1 BF000000 		movl	$_ZN12_GLOBAL__N_131testCheckAssertSucceedsInstanceE, %edi
 4656      00
 4657 02c6 E8000000 		call	_ZN8UnitTest4TestC2EPKcS2_S2_i
 4657      00
 4658 02cb BA000000 		movl	$__dso_handle, %edx
 4658      00
 4659 02d0 BE000000 		movl	$_ZN12_GLOBAL__N_131testCheckAssertSucceedsInstanceE, %esi
 4659      00
 4660 02d5 BF000000 		movl	$_ZN12_GLOBAL__N_123TestCheckAssertSucceedsD1Ev, %edi
 4660      00
 4661 02da 48C70500 		movq	$_ZTVN12_GLOBAL__N_123TestCheckAssertSucceedsE+16, _ZN12_GLOBAL__N_131testCheckAssertSucceeds
 4661      00000000 
 4661      000000
 4662 02e5 E8000000 		call	__cxa_atexit
 4662      00
 4663 02ea E8000000 		call	_ZN8UnitTest4Test11GetTestListEv
 4663      00
 4664 02ef BA000000 		movl	$_ZN12_GLOBAL__N_131testCheckAssertSucceedsInstanceE, %edx
 4664      00
 4665 02f4 4889C6   		movq	%rax, %rsi
 4666 02f7 BF000000 		movl	$_ZN12_GLOBAL__N_124adderCheckAssertSucceedsE, %edi
 4666      00
 4667 02fc E8000000 		call	_ZN8UnitTest9ListAdderC1ERNS_8TestListEPNS_4TestE
 4667      00
 4668 0301 41B84600 		movl	$70, %r8d
 4668      0000
 4669 0307 B9000000 		movl	$.LC42, %ecx
 4669      00
 4670 030c BA000000 		movl	$.LC30, %edx
 4670      00
 4671 0311 BE000000 		movl	$.LC52, %esi
 4671      00
 4672 0316 BF000000 		movl	$_ZN12_GLOBAL__N_150testCheckThrowMacroFailsOnMissingExceptionInstanceE, %edi
 4672      00
 4673 031b E8000000 		call	_ZN8UnitTest4TestC2EPKcS2_S2_i
 4673      00
 4674 0320 BA000000 		movl	$__dso_handle, %edx
 4674      00
 4675 0325 BE000000 		movl	$_ZN12_GLOBAL__N_150testCheckThrowMacroFailsOnMissingExceptionInstanceE, %esi
 4675      00
 4676 032a BF000000 		movl	$_ZN12_GLOBAL__N_142TestCheckThrowMacroFailsOnMissingExceptionD1Ev, %edi
 4676      00
 4677 032f 48C70500 		movq	$_ZTVN12_GLOBAL__N_142TestCheckThrowMacroFailsOnMissingExceptionE+16, _ZN12_GLOBAL__N_150test
 4677      00000000 
 4677      000000
 4678 033a E8000000 		call	__cxa_atexit
 4678      00
 4679 033f E8000000 		call	_ZN8UnitTest4Test11GetTestListEv
 4679      00
 4680 0344 BA000000 		movl	$_ZN12_GLOBAL__N_150testCheckThrowMacroFailsOnMissingExceptionInstanceE, %edx
 4680      00
 4681 0349 4889C6   		movq	%rax, %rsi
 4682 034c BF000000 		movl	$_ZN12_GLOBAL__N_143adderCheckThrowMacroFailsOnMissingExceptionE, %edi
 4682      00
 4683 0351 E8000000 		call	_ZN8UnitTest9ListAdderC1ERNS_8TestListEPNS_4TestE
 4683      00
 4684 0356 41B86100 		movl	$97, %r8d
 4684      0000
 4685 035c B9000000 		movl	$.LC42, %ecx
 4685      00
 4686 0361 BA000000 		movl	$.LC30, %edx
 4686      00
 4687 0366 BE000000 		movl	$.LC53, %esi
 4687      00
 4688 036b BF000000 		movl	$_ZN12_GLOBAL__N_148testCheckThrowMacroFailsOnWrongExceptionInstanceE, %edi
 4688      00
 4689 0370 E8000000 		call	_ZN8UnitTest4TestC2EPKcS2_S2_i
 4689      00
 4690 0375 BA000000 		movl	$__dso_handle, %edx
 4690      00
 4691 037a BE000000 		movl	$_ZN12_GLOBAL__N_148testCheckThrowMacroFailsOnWrongExceptionInstanceE, %esi
 4691      00
 4692 037f BF000000 		movl	$_ZN12_GLOBAL__N_140TestCheckThrowMacroFailsOnWrongExceptionD1Ev, %edi
 4692      00
 4693 0384 48C70500 		movq	$_ZTVN12_GLOBAL__N_140TestCheckThrowMacroFailsOnWrongExceptionE+16, _ZN12_GLOBAL__N_148testCh
 4693      00000000 
 4693      000000
 4694 038f E8000000 		call	__cxa_atexit
 4694      00
 4695 0394 E8000000 		call	_ZN8UnitTest4Test11GetTestListEv
 4695      00
 4696 0399 BA000000 		movl	$_ZN12_GLOBAL__N_148testCheckThrowMacroFailsOnWrongExceptionInstanceE, %edx
 4696      00
 4697 039e 4889C6   		movq	%rax, %rsi
 4698 03a1 BF000000 		movl	$_ZN12_GLOBAL__N_141adderCheckThrowMacroFailsOnWrongExceptionE, %edi
 4698      00
 4699 03a6 E8000000 		call	_ZN8UnitTest9ListAdderC1ERNS_8TestListEPNS_4TestE
 4699      00
 4700 03ab 41B88800 		movl	$136, %r8d
 4700      0000
 4701 03b1 B9000000 		movl	$.LC42, %ecx
 4701      00
 4702 03b6 BA000000 		movl	$.LC30, %edx
 4702      00
 4703 03bb BE000000 		movl	$.LC54, %esi
 4703      00
 4704 03c0 BF000000 		movl	$_ZN12_GLOBAL__N_151testSimpleFixtureDefaultFixtureCtorIsCalledInstanceE, %edi
 4704      00
 4705 03c5 E8000000 		call	_ZN8UnitTest4TestC2EPKcS2_S2_i
 4705      00
 4706 03ca BA000000 		movl	$__dso_handle, %edx
 4706      00
 4707 03cf BE000000 		movl	$_ZN12_GLOBAL__N_151testSimpleFixtureDefaultFixtureCtorIsCalledInstanceE, %esi
 4707      00
 4708 03d4 BF000000 		movl	$_ZN12_GLOBAL__N_143TestSimpleFixtureDefaultFixtureCtorIsCalledD1Ev, %edi
 4708      00
 4709 03d9 48C70500 		movq	$_ZTVN12_GLOBAL__N_143TestSimpleFixtureDefaultFixtureCtorIsCalledE+16, _ZN12_GLOBAL__N_151tes
 4709      00000000 
 4709      000000
 4710 03e4 E8000000 		call	__cxa_atexit
 4710      00
 4711 03e9 E8000000 		call	_ZN8UnitTest4Test11GetTestListEv
 4711      00
 4712 03ee BA000000 		movl	$_ZN12_GLOBAL__N_151testSimpleFixtureDefaultFixtureCtorIsCalledInstanceE, %edx
 4712      00
 4713 03f3 4889C6   		movq	%rax, %rsi
 4714 03f6 BF000000 		movl	$_ZN12_GLOBAL__N_144adderSimpleFixtureDefaultFixtureCtorIsCalledE, %edi
 4714      00
 4715 03fb E8000000 		call	_ZN8UnitTest9ListAdderC1ERNS_8TestListEPNS_4TestE
 4715      00
 4716 0400 41B88D00 		movl	$141, %r8d
 4716      0000
 4717 0406 B9000000 		movl	$.LC42, %ecx
 4717      00
 4718 040b BA000000 		movl	$.LC30, %edx
 4718      00
 4719 0410 BE000000 		movl	$.LC55, %esi
 4719      00
 4720 0415 BF000000 		movl	$_ZN12_GLOBAL__N_151testSimpleFixtureOnlyOneFixtureAliveAtATimeInstanceE, %edi
 4720      00
 4721 041a E8000000 		call	_ZN8UnitTest4TestC2EPKcS2_S2_i
 4721      00
 4722 041f BA000000 		movl	$__dso_handle, %edx
 4722      00
 4723 0424 BE000000 		movl	$_ZN12_GLOBAL__N_151testSimpleFixtureOnlyOneFixtureAliveAtATimeInstanceE, %esi
 4723      00
 4724 0429 BF000000 		movl	$_ZN12_GLOBAL__N_143TestSimpleFixtureOnlyOneFixtureAliveAtATimeD1Ev, %edi
 4724      00
 4725 042e 48C70500 		movq	$_ZTVN12_GLOBAL__N_143TestSimpleFixtureOnlyOneFixtureAliveAtATimeE+16, _ZN12_GLOBAL__N_151tes
 4725      00000000 
 4725      000000
 4726 0439 E8000000 		call	__cxa_atexit
 4726      00
 4727 043e E8000000 		call	_ZN8UnitTest4Test11GetTestListEv
 4727      00
 4728 0443 BA000000 		movl	$_ZN12_GLOBAL__N_151testSimpleFixtureOnlyOneFixtureAliveAtATimeInstanceE, %edx
 4728      00
 4729 0448 4889C6   		movq	%rax, %rsi
 4730 044b BF000000 		movl	$_ZN12_GLOBAL__N_144adderSimpleFixtureOnlyOneFixtureAliveAtATimeE, %edi
 4730      00
 4731 0450 E8000000 		call	_ZN8UnitTest9ListAdderC1ERNS_8TestListEPNS_4TestE
 4731      00
 4732 0455 41B89700 		movl	$151, %r8d
 4732      0000
 4733 045b B9000000 		movl	$.LC42, %ecx
 4733      00
 4734 0460 BA000000 		movl	$.LC30, %edx
 4734      00
 4735 0465 BE000000 		movl	$.LC56, %esi
 4735      00
 4736 046a BF000000 		movl	$_ZN12_GLOBAL__N_145testCanCallCHECKOutsideOfTestFunctionInstanceE, %edi
 4736      00
 4737 046f E8000000 		call	_ZN8UnitTest4TestC2EPKcS2_S2_i
 4737      00
 4738 0474 BA000000 		movl	$__dso_handle, %edx
 4738      00
 4739 0479 BE000000 		movl	$_ZN12_GLOBAL__N_145testCanCallCHECKOutsideOfTestFunctionInstanceE, %esi
 4739      00
 4740 047e BF000000 		movl	$_ZN12_GLOBAL__N_137TestCanCallCHECKOutsideOfTestFunctionD1Ev, %edi
 4740      00
 4741 0483 48C70500 		movq	$_ZTVN12_GLOBAL__N_137TestCanCallCHECKOutsideOfTestFunctionE+16, _ZN12_GLOBAL__N_145testCanCa
 4741      00000000 
 4741      000000
 4742 048e E8000000 		call	__cxa_atexit
 4742      00
 4743 0493 E8000000 		call	_ZN8UnitTest4Test11GetTestListEv
 4743      00
 4744 0498 BA000000 		movl	$_ZN12_GLOBAL__N_145testCanCallCHECKOutsideOfTestFunctionInstanceE, %edx
 4744      00
 4745 049d 4889C6   		movq	%rax, %rsi
 4746 04a0 BF000000 		movl	$_ZN12_GLOBAL__N_138adderCanCallCHECKOutsideOfTestFunctionE, %edi
 4746      00
 4747 04a5 4883C408 		addq	$8, %rsp
 4748              		.cfi_def_cfa_offset 8
 4749 04a9 E9000000 		jmp	_ZN8UnitTest9ListAdderC1ERNS_8TestListEPNS_4TestE
 4749      00
 4750              		.cfi_endproc
 4751              	.LFE1624:
 4753              		.section	.init_array,"aw"
 4754              		.align 8
 4755 0000 00000000 		.quad	_GLOBAL__sub_I_TestUnitTest__.cpp
 4755      00000000 
 4756              		.section	.rodata
 4757              		.align 32
 4760              	_ZTSN12_GLOBAL__N_122TestValidCheckSucceedsE:
 4761 0000 2A4E3132 		.string	"*N12_GLOBAL__N_122TestValidCheckSucceedsE"
 4761      5F474C4F 
 4761      42414C5F 
 4761      5F4E5F31 
 4761      32325465 
 4762 002a 00000000 		.align 32
 4762      00000000 
 4762      00000000 
 4762      00000000 
 4762      00000000 
 4765              	_ZTSN12_GLOBAL__N_126TestCheckWorksWithPointersE:
 4766 0040 2A4E3132 		.string	"*N12_GLOBAL__N_126TestCheckWorksWithPointersE"
 4766      5F474C4F 
 4766      42414C5F 
 4766      5F4E5F31 
 4766      32365465 
 4767 006e 00000000 		.align 32
 4767      00000000 
 4767      00000000 
 4767      00000000 
 4767      0000
 4770              	_ZTSN12_GLOBAL__N_127TestValidCheckEqualSucceedsE:
 4771 0080 2A4E3132 		.string	"*N12_GLOBAL__N_127TestValidCheckEqualSucceedsE"
 4771      5F474C4F 
 4771      42414C5F 
 4771      5F4E5F31 
 4771      32375465 
 4772 00af 00000000 		.align 32
 4772      00000000 
 4772      00000000 
 4772      00000000 
 4772      00
 4775              	_ZTSN12_GLOBAL__N_131TestCheckEqualWorksWithPointersE:
 4776 00c0 2A4E3132 		.string	"*N12_GLOBAL__N_131TestCheckEqualWorksWithPointersE"
 4776      5F474C4F 
 4776      42414C5F 
 4776      5F4E5F31 
 4776      33315465 
 4777 00f3 00000000 		.align 32
 4777      00000000 
 4777      00000000 
 4777      00
 4780              	_ZTSN12_GLOBAL__N_127TestValidCheckCloseSucceedsE:
 4781 0100 2A4E3132 		.string	"*N12_GLOBAL__N_127TestValidCheckCloseSucceedsE"
 4781      5F474C4F 
 4781      42414C5F 
 4781      5F4E5F31 
 4781      32375465 
 4782 012f 00000000 		.align 32
 4782      00000000 
 4782      00000000 
 4782      00000000 
 4782      00
 4785              	_ZTSN12_GLOBAL__N_122TestArrayCloseSucceedsE:
 4786 0140 2A4E3132 		.string	"*N12_GLOBAL__N_122TestArrayCloseSucceedsE"
 4786      5F474C4F 
 4786      42414C5F 
 4786      5F4E5F31 
 4786      32325465 
 4787 016a 00000000 		.align 32
 4787      00000000 
 4787      00000000 
 4787      00000000 
 4787      00000000 
 4790              	_ZTSN12_GLOBAL__N_135TestCheckArrayCloseWorksWithVectorsE:
 4791 0180 2A4E3132 		.string	"*N12_GLOBAL__N_135TestCheckArrayCloseWorksWithVectorsE"
 4791      5F474C4F 
 4791      42414C5F 
 4791      5F4E5F31 
 4791      33355465 
 4792 01b7 00000000 		.align 32
 4792      00000000 
 4792      00
 4795              	_ZTSN12_GLOBAL__N_145TestCheckThrowMacroSucceedsOnCorrectExceptionE:
 4796 01c0 2A4E3132 		.string	"*N12_GLOBAL__N_145TestCheckThrowMacroSucceedsOnCorrectExceptionE"
 4796      5F474C4F 
 4796      42414C5F 
 4796      5F4E5F31 
 4796      34355465 
 4797 0201 00000000 		.align 32
 4797      00000000 
 4797      00000000 
 4797      00000000 
 4797      00000000 
 4800              	_ZTSZNK12_GLOBAL__N_145TestCheckThrowMacroSucceedsOnCorrectException7RunImplEvE13TestException:
 4801 0220 2A5A4E4B 		.string	"*ZNK12_GLOBAL__N_145TestCheckThrowMacroSucceedsOnCorrectException7RunImplEvE13TestExcepti
 4801      31325F47 
 4801      4C4F4241 
 4801      4C5F5F4E 
 4801      5F313435 
 4802 027c 00000000 		.align 32
 4805              	_ZTSN12_GLOBAL__N_123TestCheckAssertSucceedsE:
 4806 0280 2A4E3132 		.string	"*N12_GLOBAL__N_123TestCheckAssertSucceedsE"
 4806      5F474C4F 
 4806      42414C5F 
 4806      5F4E5F31 
 4806      32335465 
 4807 02ab 00000000 		.align 32
 4807      00000000 
 4807      00000000 
 4807      00000000 
 4807      00000000 
 4810              	_ZTSN12_GLOBAL__N_142TestCheckThrowMacroFailsOnMissingExceptionE:
 4811 02c0 2A4E3132 		.string	"*N12_GLOBAL__N_142TestCheckThrowMacroFailsOnMissingExceptionE"
 4811      5F474C4F 
 4811      42414C5F 
 4811      5F4E5F31 
 4811      34325465 
 4812 02fe 0000     		.align 32
 4815              	_ZTSZNK12_GLOBAL__N_142TestCheckThrowMacroFailsOnMissingException7RunImplEvE11NoThrowTest:
 4816 0300 2A5A4E4B 		.string	"*ZNK12_GLOBAL__N_142TestCheckThrowMacroFailsOnMissingException7RunImplEvE11NoThrowTest"
 4816      31325F47 
 4816      4C4F4241 
 4816      4C5F5F4E 
 4816      5F313432 
 4817 0357 00000000 		.align 32
 4817      00000000 
 4817      00
 4820              	_ZTSN12_GLOBAL__N_140TestCheckThrowMacroFailsOnWrongExceptionE:
 4821 0360 2A4E3132 		.string	"*N12_GLOBAL__N_140TestCheckThrowMacroFailsOnWrongExceptionE"
 4821      5F474C4F 
 4821      42414C5F 
 4821      5F4E5F31 
 4821      34305465 
 4822 039c 00000000 		.align 32
 4825              	_ZTSZNK12_GLOBAL__N_140TestCheckThrowMacroFailsOnWrongException7RunImplEvE14WrongThrowTest:
 4826 03a0 2A5A4E4B 		.string	"*ZNK12_GLOBAL__N_140TestCheckThrowMacroFailsOnWrongException7RunImplEvE14WrongThrowTest"
 4826      31325F47 
 4826      4C4F4241 
 4826      4C5F5F4E 
 4826      5F313430 
 4827 03f8 00000000 		.align 32
 4827      00000000 
 4830              	_ZTSN12_GLOBAL__N_143TestSimpleFixtureDefaultFixtureCtorIsCalledE:
 4831 0400 2A4E3132 		.string	"*N12_GLOBAL__N_143TestSimpleFixtureDefaultFixtureCtorIsCalledE"
 4831      5F474C4F 
 4831      42414C5F 
 4831      5F4E5F31 
 4831      34335465 
 4832 043f 00       		.align 32
 4835              	_ZTSN12_GLOBAL__N_143TestSimpleFixtureOnlyOneFixtureAliveAtATimeE:
 4836 0440 2A4E3132 		.string	"*N12_GLOBAL__N_143TestSimpleFixtureOnlyOneFixtureAliveAtATimeE"
 4836      5F474C4F 
 4836      42414C5F 
 4836      5F4E5F31 
 4836      34335465 
 4837 047f 00       		.align 32
 4840              	_ZTSN12_GLOBAL__N_137TestCanCallCHECKOutsideOfTestFunctionE:
 4841 0480 2A4E3132 		.string	"*N12_GLOBAL__N_137TestCanCallCHECKOutsideOfTestFunctionE"
 4841      5F474C4F 
 4841      42414C5F 
 4841      5F4E5F31 
 4841      33375465 
 4842 04b9 00000000 		.align 16
 4842      000000
 4845              	_ZTIN12_GLOBAL__N_137TestCanCallCHECKOutsideOfTestFunctionE:
 4846 04c0 00000000 		.quad	_ZTVN10__cxxabiv120__si_class_type_infoE+16
 4846      00000000 
 4847 04c8 00000000 		.quad	_ZTSN12_GLOBAL__N_137TestCanCallCHECKOutsideOfTestFunctionE
 4847      00000000 
 4848 04d0 00000000 		.quad	_ZTIN8UnitTest4TestE
 4848      00000000 
 4849 04d8 00000000 		.align 16
 4849      00000000 
 4852              	_ZTIN12_GLOBAL__N_143TestSimpleFixtureOnlyOneFixtureAliveAtATimeE:
 4853 04e0 00000000 		.quad	_ZTVN10__cxxabiv120__si_class_type_infoE+16
 4853      00000000 
 4854 04e8 00000000 		.quad	_ZTSN12_GLOBAL__N_143TestSimpleFixtureOnlyOneFixtureAliveAtATimeE
 4854      00000000 
 4855 04f0 00000000 		.quad	_ZTIN8UnitTest4TestE
 4855      00000000 
 4856 04f8 00000000 		.align 16
 4856      00000000 
 4859              	_ZTIN12_GLOBAL__N_143TestSimpleFixtureDefaultFixtureCtorIsCalledE:
 4860 0500 00000000 		.quad	_ZTVN10__cxxabiv120__si_class_type_infoE+16
 4860      00000000 
 4861 0508 00000000 		.quad	_ZTSN12_GLOBAL__N_143TestSimpleFixtureDefaultFixtureCtorIsCalledE
 4861      00000000 
 4862 0510 00000000 		.quad	_ZTIN8UnitTest4TestE
 4862      00000000 
 4863 0518 00000000 		.align 16
 4863      00000000 
 4866              	_ZTIZNK12_GLOBAL__N_140TestCheckThrowMacroFailsOnWrongException7RunImplEvE14WrongThrowTest:
 4867 0520 00000000 		.quad	_ZTVN10__cxxabiv120__si_class_type_infoE+16
 4867      00000000 
 4868 0528 00000000 		.quad	_ZTSZNK12_GLOBAL__N_140TestCheckThrowMacroFailsOnWrongException7RunImplEvE14WrongThrowTest
 4868      00000000 
 4869 0530 00000000 		.quad	_ZTIN8UnitTest4TestE
 4869      00000000 
 4870 0538 00000000 		.align 16
 4870      00000000 
 4873              	_ZTIN12_GLOBAL__N_140TestCheckThrowMacroFailsOnWrongExceptionE:
 4874 0540 00000000 		.quad	_ZTVN10__cxxabiv120__si_class_type_infoE+16
 4874      00000000 
 4875 0548 00000000 		.quad	_ZTSN12_GLOBAL__N_140TestCheckThrowMacroFailsOnWrongExceptionE
 4875      00000000 
 4876 0550 00000000 		.quad	_ZTIN8UnitTest4TestE
 4876      00000000 
 4877 0558 00000000 		.align 16
 4877      00000000 
 4880              	_ZTIZNK12_GLOBAL__N_142TestCheckThrowMacroFailsOnMissingException7RunImplEvE11NoThrowTest:
 4881 0560 00000000 		.quad	_ZTVN10__cxxabiv120__si_class_type_infoE+16
 4881      00000000 
 4882 0568 00000000 		.quad	_ZTSZNK12_GLOBAL__N_142TestCheckThrowMacroFailsOnMissingException7RunImplEvE11NoThrowTest
 4882      00000000 
 4883 0570 00000000 		.quad	_ZTIN8UnitTest4TestE
 4883      00000000 
 4884 0578 00000000 		.align 16
 4884      00000000 
 4887              	_ZTIN12_GLOBAL__N_142TestCheckThrowMacroFailsOnMissingExceptionE:
 4888 0580 00000000 		.quad	_ZTVN10__cxxabiv120__si_class_type_infoE+16
 4888      00000000 
 4889 0588 00000000 		.quad	_ZTSN12_GLOBAL__N_142TestCheckThrowMacroFailsOnMissingExceptionE
 4889      00000000 
 4890 0590 00000000 		.quad	_ZTIN8UnitTest4TestE
 4890      00000000 
 4891 0598 00000000 		.align 16
 4891      00000000 
 4894              	_ZTIN12_GLOBAL__N_123TestCheckAssertSucceedsE:
 4895 05a0 00000000 		.quad	_ZTVN10__cxxabiv120__si_class_type_infoE+16
 4895      00000000 
 4896 05a8 00000000 		.quad	_ZTSN12_GLOBAL__N_123TestCheckAssertSucceedsE
 4896      00000000 
 4897 05b0 00000000 		.quad	_ZTIN8UnitTest4TestE
 4897      00000000 
 4898 05b8 00000000 		.align 16
 4898      00000000 
 4901              	_ZTIZNK12_GLOBAL__N_145TestCheckThrowMacroSucceedsOnCorrectException7RunImplEvE13TestException:
 4902 05c0 00000000 		.quad	_ZTVN10__cxxabiv117__class_type_infoE+16
 4902      00000000 
 4903 05c8 00000000 		.quad	_ZTSZNK12_GLOBAL__N_145TestCheckThrowMacroSucceedsOnCorrectException7RunImplEvE13TestExcepti
 4903      00000000 
 4904              		.align 16
 4907              	_ZTIN12_GLOBAL__N_145TestCheckThrowMacroSucceedsOnCorrectExceptionE:
 4908 05d0 00000000 		.quad	_ZTVN10__cxxabiv120__si_class_type_infoE+16
 4908      00000000 
 4909 05d8 00000000 		.quad	_ZTSN12_GLOBAL__N_145TestCheckThrowMacroSucceedsOnCorrectExceptionE
 4909      00000000 
 4910 05e0 00000000 		.quad	_ZTIN8UnitTest4TestE
 4910      00000000 
 4911 05e8 00000000 		.align 16
 4911      00000000 
 4914              	_ZTIN12_GLOBAL__N_135TestCheckArrayCloseWorksWithVectorsE:
 4915 05f0 00000000 		.quad	_ZTVN10__cxxabiv120__si_class_type_infoE+16
 4915      00000000 
 4916 05f8 00000000 		.quad	_ZTSN12_GLOBAL__N_135TestCheckArrayCloseWorksWithVectorsE
 4916      00000000 
 4917 0600 00000000 		.quad	_ZTIN8UnitTest4TestE
 4917      00000000 
 4918 0608 00000000 		.align 16
 4918      00000000 
 4921              	_ZTIN12_GLOBAL__N_122TestArrayCloseSucceedsE:
 4922 0610 00000000 		.quad	_ZTVN10__cxxabiv120__si_class_type_infoE+16
 4922      00000000 
 4923 0618 00000000 		.quad	_ZTSN12_GLOBAL__N_122TestArrayCloseSucceedsE
 4923      00000000 
 4924 0620 00000000 		.quad	_ZTIN8UnitTest4TestE
 4924      00000000 
 4925 0628 00000000 		.align 16
 4925      00000000 
 4928              	_ZTIN12_GLOBAL__N_127TestValidCheckCloseSucceedsE:
 4929 0630 00000000 		.quad	_ZTVN10__cxxabiv120__si_class_type_infoE+16
 4929      00000000 
 4930 0638 00000000 		.quad	_ZTSN12_GLOBAL__N_127TestValidCheckCloseSucceedsE
 4930      00000000 
 4931 0640 00000000 		.quad	_ZTIN8UnitTest4TestE
 4931      00000000 
 4932 0648 00000000 		.align 16
 4932      00000000 
 4935              	_ZTIN12_GLOBAL__N_131TestCheckEqualWorksWithPointersE:
 4936 0650 00000000 		.quad	_ZTVN10__cxxabiv120__si_class_type_infoE+16
 4936      00000000 
 4937 0658 00000000 		.quad	_ZTSN12_GLOBAL__N_131TestCheckEqualWorksWithPointersE
 4937      00000000 
 4938 0660 00000000 		.quad	_ZTIN8UnitTest4TestE
 4938      00000000 
 4939 0668 00000000 		.align 16
 4939      00000000 
 4942              	_ZTIN12_GLOBAL__N_127TestValidCheckEqualSucceedsE:
 4943 0670 00000000 		.quad	_ZTVN10__cxxabiv120__si_class_type_infoE+16
 4943      00000000 
 4944 0678 00000000 		.quad	_ZTSN12_GLOBAL__N_127TestValidCheckEqualSucceedsE
 4944      00000000 
 4945 0680 00000000 		.quad	_ZTIN8UnitTest4TestE
 4945      00000000 
 4946 0688 00000000 		.align 16
 4946      00000000 
 4949              	_ZTIN12_GLOBAL__N_126TestCheckWorksWithPointersE:
 4950 0690 00000000 		.quad	_ZTVN10__cxxabiv120__si_class_type_infoE+16
 4950      00000000 
 4951 0698 00000000 		.quad	_ZTSN12_GLOBAL__N_126TestCheckWorksWithPointersE
 4951      00000000 
 4952 06a0 00000000 		.quad	_ZTIN8UnitTest4TestE
 4952      00000000 
 4953 06a8 00000000 		.align 16
 4953      00000000 
 4956              	_ZTIN12_GLOBAL__N_122TestValidCheckSucceedsE:
 4957 06b0 00000000 		.quad	_ZTVN10__cxxabiv120__si_class_type_infoE+16
 4957      00000000 
 4958 06b8 00000000 		.quad	_ZTSN12_GLOBAL__N_122TestValidCheckSucceedsE
 4958      00000000 
 4959 06c0 00000000 		.quad	_ZTIN8UnitTest4TestE
 4959      00000000 
 4960              		.weak	_ZTIN8UnitTest15MemoryOutStreamE
 4961              		.section	.rodata._ZTIN8UnitTest15MemoryOutStreamE,"aG",@progbits,_ZTIN8UnitTest15MemoryOutStreamE,
 4962              		.align 16
 4965              	_ZTIN8UnitTest15MemoryOutStreamE:
 4966 0000 00000000 		.quad	_ZTVN10__cxxabiv120__si_class_type_infoE+16
 4966      00000000 
 4967 0008 00000000 		.quad	_ZTSN8UnitTest15MemoryOutStreamE
 4967      00000000 
 4968 0010 00000000 		.quad	_ZTISt19basic_ostringstreamIcSt11char_traitsIcESaIcEE
 4968      00000000 
 4969              		.weak	_ZTSN8UnitTest15MemoryOutStreamE
 4970              		.section	.rodata._ZTSN8UnitTest15MemoryOutStreamE,"aG",@progbits,_ZTSN8UnitTest15MemoryOutStreamE,
 4971              		.align 16
 4974              	_ZTSN8UnitTest15MemoryOutStreamE:
 4975 0000 4E38556E 		.string	"N8UnitTest15MemoryOutStreamE"
 4975      69745465 
 4975      73743135 
 4975      4D656D6F 
 4975      72794F75 
 4976              		.hidden	_ZTCN8UnitTest15MemoryOutStreamE0_So
 4977              		.weak	_ZTCN8UnitTest15MemoryOutStreamE0_So
 4978              		.section	.rodata._ZTCN8UnitTest15MemoryOutStreamE0_So,"aG",@progbits,_ZTVN8UnitTest15MemoryOutStre
 4979              		.align 32
 4982              	_ZTCN8UnitTest15MemoryOutStreamE0_So:
 4983 0000 60000000 		.quad	96
 4983      00000000 
 4984 0008 00000000 		.quad	0
 4984      00000000 
 4985 0010 00000000 		.quad	_ZTISo
 4985      00000000 
 4986 0018 00000000 		.quad	_ZNSoD1Ev
 4986      00000000 
 4987 0020 00000000 		.quad	_ZNSoD0Ev
 4987      00000000 
 4988 0028 A0FFFFFF 		.quad	-96
 4988      FFFFFFFF 
 4989 0030 A0FFFFFF 		.quad	-96
 4989      FFFFFFFF 
 4990 0038 00000000 		.quad	_ZTISo
 4990      00000000 
 4991 0040 00000000 		.quad	_ZTv0_n24_NSoD1Ev
 4991      00000000 
 4992 0048 00000000 		.quad	_ZTv0_n24_NSoD0Ev
 4992      00000000 
 4993              		.hidden	_ZTCN8UnitTest15MemoryOutStreamE0_St19basic_ostringstreamIcSt11char_traitsIcESaIcEE
 4994              		.weak	_ZTCN8UnitTest15MemoryOutStreamE0_St19basic_ostringstreamIcSt11char_traitsIcESaIcEE
 4995              		.section	.rodata._ZTCN8UnitTest15MemoryOutStreamE0_St19basic_ostringstreamIcSt11char_traitsIcESaIc
 4996              		.align 32
 4999              	_ZTCN8UnitTest15MemoryOutStreamE0_St19basic_ostringstreamIcSt11char_traitsIcESaIcEE:
 5000 0000 60000000 		.quad	96
 5000      00000000 
 5001 0008 00000000 		.quad	0
 5001      00000000 
 5002 0010 00000000 		.quad	_ZTISt19basic_ostringstreamIcSt11char_traitsIcESaIcEE
 5002      00000000 
 5003 0018 00000000 		.quad	_ZNSt19basic_ostringstreamIcSt11char_traitsIcESaIcEED1Ev
 5003      00000000 
 5004 0020 00000000 		.quad	_ZNSt19basic_ostringstreamIcSt11char_traitsIcESaIcEED0Ev
 5004      00000000 
 5005 0028 A0FFFFFF 		.quad	-96
 5005      FFFFFFFF 
 5006 0030 A0FFFFFF 		.quad	-96
 5006      FFFFFFFF 
 5007 0038 00000000 		.quad	_ZTISt19basic_ostringstreamIcSt11char_traitsIcESaIcEE
 5007      00000000 
 5008 0040 00000000 		.quad	_ZTv0_n24_NSt19basic_ostringstreamIcSt11char_traitsIcESaIcEED1Ev
 5008      00000000 
 5009 0048 00000000 		.quad	_ZTv0_n24_NSt19basic_ostringstreamIcSt11char_traitsIcESaIcEED0Ev
 5009      00000000 
 5010              		.weak	_ZTTN8UnitTest15MemoryOutStreamE
 5011              		.section	.rodata._ZTTN8UnitTest15MemoryOutStreamE,"aG",@progbits,_ZTVN8UnitTest15MemoryOutStreamE,
 5012              		.align 32
 5015              	_ZTTN8UnitTest15MemoryOutStreamE:
 5016 0000 00000000 		.quad	_ZTVN8UnitTest15MemoryOutStreamE+24
 5016      00000000 
 5017 0008 00000000 		.quad	_ZTCN8UnitTest15MemoryOutStreamE0_St19basic_ostringstreamIcSt11char_traitsIcESaIcEE+24
 5017      00000000 
 5018 0010 00000000 		.quad	_ZTCN8UnitTest15MemoryOutStreamE0_So+24
 5018      00000000 
 5019 0018 00000000 		.quad	_ZTCN8UnitTest15MemoryOutStreamE0_So+64
 5019      00000000 
 5020 0020 00000000 		.quad	_ZTCN8UnitTest15MemoryOutStreamE0_St19basic_ostringstreamIcSt11char_traitsIcESaIcEE+64
 5020      00000000 
 5021 0028 00000000 		.quad	_ZTVN8UnitTest15MemoryOutStreamE+64
 5021      00000000 
 5022              		.weak	_ZTVN8UnitTest15MemoryOutStreamE
 5023              		.section	.rodata._ZTVN8UnitTest15MemoryOutStreamE,"aG",@progbits,_ZTVN8UnitTest15MemoryOutStreamE,
 5024              		.align 32
 5027              	_ZTVN8UnitTest15MemoryOutStreamE:
 5028 0000 60000000 		.quad	96
 5028      00000000 
 5029 0008 00000000 		.quad	0
 5029      00000000 
 5030 0010 00000000 		.quad	_ZTIN8UnitTest15MemoryOutStreamE
 5030      00000000 
 5031 0018 00000000 		.quad	_ZN8UnitTest15MemoryOutStreamD1Ev
 5031      00000000 
 5032 0020 00000000 		.quad	_ZN8UnitTest15MemoryOutStreamD0Ev
 5032      00000000 
 5033 0028 A0FFFFFF 		.quad	-96
 5033      FFFFFFFF 
 5034 0030 A0FFFFFF 		.quad	-96
 5034      FFFFFFFF 
 5035 0038 00000000 		.quad	_ZTIN8UnitTest15MemoryOutStreamE
 5035      00000000 
 5036 0040 00000000 		.quad	_ZTv0_n24_N8UnitTest15MemoryOutStreamD1Ev
 5036      00000000 
 5037 0048 00000000 		.quad	_ZTv0_n24_N8UnitTest15MemoryOutStreamD0Ev
 5037      00000000 
 5038              		.section	.rodata
 5039 06c8 00000000 		.align 32
 5039      00000000 
 5039      00000000 
 5039      00000000 
 5039      00000000 
 5042              	_ZTVN12_GLOBAL__N_122TestValidCheckSucceedsE:
 5043 06e0 00000000 		.quad	0
 5043      00000000 
 5044 06e8 00000000 		.quad	_ZTIN12_GLOBAL__N_122TestValidCheckSucceedsE
 5044      00000000 
 5045 06f0 00000000 		.quad	_ZN12_GLOBAL__N_122TestValidCheckSucceedsD1Ev
 5045      00000000 
 5046 06f8 00000000 		.quad	_ZN12_GLOBAL__N_122TestValidCheckSucceedsD0Ev
 5046      00000000 
 5047 0700 00000000 		.quad	_ZNK12_GLOBAL__N_122TestValidCheckSucceeds7RunImplEv
 5047      00000000 
 5048 0708 00000000 		.align 32
 5048      00000000 
 5048      00000000 
 5048      00000000 
 5048      00000000 
 5051              	_ZTVN12_GLOBAL__N_126TestCheckWorksWithPointersE:
 5052 0720 00000000 		.quad	0
 5052      00000000 
