   1              		.file	"TestTestList.cpp"
   2              		.text
   3              		.align 2
   4              		.p2align 4,,15
   6              	_ZN12_GLOBAL__N_127TestListAdderAddsTestToListD2Ev:
   7              	.LFB1139:
   8              		.cfi_startproc
   9 0000 48C70700 		movq	$_ZTVN12_GLOBAL__N_127TestListAdderAddsTestToListE+16, (%rdi)
   9      000000
  10 0007 E9000000 		jmp	_ZN8UnitTest4TestD2Ev
  10      00
  11              		.cfi_endproc
  12              	.LFE1139:
  14              		.set	_ZN12_GLOBAL__N_127TestListAdderAddsTestToListD1Ev,_ZN12_GLOBAL__N_127TestListAdderAddsTestTo
  15              		.align 2
  16 000c 0F1F4000 		.p2align 4,,15
  18              	_ZN12_GLOBAL__N_127TestListAdderAddsTestToListD0Ev:
  19              	.LFB1141:
  20              		.cfi_startproc
  21 0010 53       		pushq	%rbx
  22              		.cfi_def_cfa_offset 16
  23              		.cfi_offset 3, -16
  24 0011 4889FB   		movq	%rdi, %rbx
  25 0014 48C70700 		movq	$_ZTVN12_GLOBAL__N_127TestListAdderAddsTestToListE+16, (%rdi)
  25      000000
  26 001b E8000000 		call	_ZN8UnitTest4TestD2Ev
  26      00
  27 0020 4889DF   		movq	%rbx, %rdi
  28 0023 5B       		popq	%rbx
  29              		.cfi_def_cfa_offset 8
  30 0024 E9000000 		jmp	_ZdlPv
  30      00
  31              		.cfi_endproc
  32              	.LFE1141:
  34 0029 90       		.align 2
  35 002a 660F1F44 		.p2align 4,,15
  35      0000
  37              	_ZN12_GLOBAL__N_137TestAddingSecondTestAddsItToEndOfListD2Ev:
  38              	.LFB1143:
  39              		.cfi_startproc
  40 0030 48C70700 		movq	$_ZTVN12_GLOBAL__N_137TestAddingSecondTestAddsItToEndOfListE+16, (%rdi)
  40      000000
  41 0037 E9000000 		jmp	_ZN8UnitTest4TestD2Ev
  41      00
  42              		.cfi_endproc
  43              	.LFE1143:
  45              		.set	_ZN12_GLOBAL__N_137TestAddingSecondTestAddsItToEndOfListD1Ev,_ZN12_GLOBAL__N_137TestAddingSec
  46              		.align 2
  47 003c 0F1F4000 		.p2align 4,,15
  49              	_ZN12_GLOBAL__N_137TestAddingSecondTestAddsItToEndOfListD0Ev:
  50              	.LFB1145:
  51              		.cfi_startproc
  52 0040 53       		pushq	%rbx
  53              		.cfi_def_cfa_offset 16
  54              		.cfi_offset 3, -16
  55 0041 4889FB   		movq	%rdi, %rbx
  56 0044 48C70700 		movq	$_ZTVN12_GLOBAL__N_137TestAddingSecondTestAddsItToEndOfListE+16, (%rdi)
  56      000000
  57 004b E8000000 		call	_ZN8UnitTest4TestD2Ev
  57      00
  58 0050 4889DF   		movq	%rbx, %rdi
  59 0053 5B       		popq	%rbx
  60              		.cfi_def_cfa_offset 8
  61 0054 E9000000 		jmp	_ZdlPv
  61      00
  62              		.cfi_endproc
  63              	.LFE1145:
  65 0059 90       		.align 2
  66 005a 660F1F44 		.p2align 4,,15
  66      0000
  68              	_ZN12_GLOBAL__N_128TestAddingTestSetsHeadToTestD2Ev:
  69              	.LFB1147:
  70              		.cfi_startproc
  71 0060 48C70700 		movq	$_ZTVN12_GLOBAL__N_128TestAddingTestSetsHeadToTestE+16, (%rdi)
  71      000000
  72 0067 E9000000 		jmp	_ZN8UnitTest4TestD2Ev
  72      00
  73              		.cfi_endproc
  74              	.LFE1147:
  76              		.set	_ZN12_GLOBAL__N_128TestAddingTestSetsHeadToTestD1Ev,_ZN12_GLOBAL__N_128TestAddingTestSetsHead
  77              		.align 2
  78 006c 0F1F4000 		.p2align 4,,15
  80              	_ZN12_GLOBAL__N_128TestAddingTestSetsHeadToTestD0Ev:
  81              	.LFB1149:
  82              		.cfi_startproc
  83 0070 53       		pushq	%rbx
  84              		.cfi_def_cfa_offset 16
  85              		.cfi_offset 3, -16
  86 0071 4889FB   		movq	%rdi, %rbx
  87 0074 48C70700 		movq	$_ZTVN12_GLOBAL__N_128TestAddingTestSetsHeadToTestE+16, (%rdi)
  87      000000
  88 007b E8000000 		call	_ZN8UnitTest4TestD2Ev
  88      00
  89 0080 4889DF   		movq	%rbx, %rdi
  90 0083 5B       		popq	%rbx
  91              		.cfi_def_cfa_offset 8
  92 0084 E9000000 		jmp	_ZdlPv
  92      00
  93              		.cfi_endproc
  94              	.LFE1149:
  96 0089 90       		.align 2
  97 008a 660F1F44 		.p2align 4,,15
  97      0000
  99              	_ZN12_GLOBAL__N_128TestTestListIsEmptyByDefaultD2Ev:
 100              	.LFB1151:
 101              		.cfi_startproc
 102 0090 48C70700 		movq	$_ZTVN12_GLOBAL__N_128TestTestListIsEmptyByDefaultE+16, (%rdi)
 102      000000
 103 0097 E9000000 		jmp	_ZN8UnitTest4TestD2Ev
 103      00
 104              		.cfi_endproc
 105              	.LFE1151:
 107              		.set	_ZN12_GLOBAL__N_128TestTestListIsEmptyByDefaultD1Ev,_ZN12_GLOBAL__N_128TestTestListIsEmptyByD
 108              		.align 2
 109 009c 0F1F4000 		.p2align 4,,15
 111              	_ZN12_GLOBAL__N_128TestTestListIsEmptyByDefaultD0Ev:
 112              	.LFB1153:
 113              		.cfi_startproc
 114 00a0 53       		pushq	%rbx
 115              		.cfi_def_cfa_offset 16
 116              		.cfi_offset 3, -16
 117 00a1 4889FB   		movq	%rdi, %rbx
 118 00a4 48C70700 		movq	$_ZTVN12_GLOBAL__N_128TestTestListIsEmptyByDefaultE+16, (%rdi)
 118      000000
 119 00ab E8000000 		call	_ZN8UnitTest4TestD2Ev
 119      00
 120 00b0 4889DF   		movq	%rbx, %rdi
 121 00b3 5B       		popq	%rbx
 122              		.cfi_def_cfa_offset 8
 123 00b4 E9000000 		jmp	_ZdlPv
 123      00
 124              		.cfi_endproc
 125              	.LFE1153:
 127              		.section	.rodata.str1.1,"aMS",@progbits,1
 128              	.LC0:
 129 0000 6C697374 		.string	"list.GetHead() == 0"
 129      2E476574 
 129      48656164 
 129      2829203D 
 129      3D203000 
 130              		.section	.rodata.str1.8,"aMS",@progbits,1
 131              		.align 8
 132              	.LC1:
 133 0000 556E6861 		.string	"Unhandled exception in CHECK(list.GetHead() == 0)"
 133      6E646C65 
 133      64206578 
 133      63657074 
 133      696F6E20 
 134              		.text
 135 00b9 90       		.align 2
 136 00ba 660F1F44 		.p2align 4,,15
 136      0000
 138              	_ZNK12_GLOBAL__N_128TestTestListIsEmptyByDefault7RunImplEv:
 139              	.LFB1052:
 140              		.cfi_startproc
 141              		.cfi_personality 0x3,__gxx_personality_v0
 142              		.cfi_lsda 0x3,.LLSDA1052
 143 00c0 53       		pushq	%rbx
 144              		.cfi_def_cfa_offset 16
 145              		.cfi_offset 3, -16
 146 00c1 4883EC30 		subq	$48, %rsp
 147              		.cfi_def_cfa_offset 64
 148 00c5 4889E7   		movq	%rsp, %rdi
 149              	.LEHB0:
 150 00c8 E8000000 		call	_ZN8UnitTest8TestListC1Ev
 150      00
 151              	.LEHE0:
 152 00cd 4889E7   		movq	%rsp, %rdi
 153              	.LEHB1:
 154 00d0 E8000000 		call	_ZNK8UnitTest8TestList7GetHeadEv
 154      00
 155 00d5 4885C0   		testq	%rax, %rax
 156 00d8 742F     		je	.L13
 157 00da E8000000 		call	_ZN8UnitTest11CurrentTest7DetailsEv
 157      00
 158 00df 488D5C24 		leaq	16(%rsp), %rbx
 158      10
 159 00e4 488B30   		movq	(%rax), %rsi
 160 00e7 BA0C0000 		movl	$12, %edx
 160      00
 161 00ec 4889DF   		movq	%rbx, %rdi
 162 00ef E8000000 		call	_ZN8UnitTest11TestDetailsC1ERKS0_i
 162      00
 163 00f4 E8000000 		call	_ZN8UnitTest11CurrentTest7ResultsEv
 163      00
 164 00f9 488B38   		movq	(%rax), %rdi
 165 00fc BA000000 		movl	$.LC0, %edx
 165      00
 166 0101 4889DE   		movq	%rbx, %rsi
 167 0104 E8000000 		call	_ZN8UnitTest11TestResults13OnTestFailureERKNS_11TestDetailsEPKc
 167      00
 168              	.LEHE1:
 169              	.L13:
 170 0109 4883C430 		addq	$48, %rsp
 171              		.cfi_remember_state
 172              		.cfi_def_cfa_offset 16
 173 010d 5B       		popq	%rbx
 174              		.cfi_def_cfa_offset 8
 175 010e C3       		ret
 176              	.L17:
 177              		.cfi_restore_state
 178 010f 4889C7   		movq	%rax, %rdi
 179 0112 E8000000 		call	__cxa_begin_catch
 179      00
 180              	.LEHB2:
 181 0117 E8000000 		call	_ZN8UnitTest11CurrentTest7DetailsEv
 181      00
 182 011c 488D5C24 		leaq	16(%rsp), %rbx
 182      10
 183 0121 488B30   		movq	(%rax), %rsi
 184 0124 BA0C0000 		movl	$12, %edx
 184      00
 185 0129 4889DF   		movq	%rbx, %rdi
 186 012c E8000000 		call	_ZN8UnitTest11TestDetailsC1ERKS0_i
 186      00
 187 0131 E8000000 		call	_ZN8UnitTest11CurrentTest7ResultsEv
 187      00
 188 0136 488B38   		movq	(%rax), %rdi
 189 0139 BA000000 		movl	$.LC1, %edx
 189      00
 190 013e 4889DE   		movq	%rbx, %rsi
 191 0141 E8000000 		call	_ZN8UnitTest11TestResults13OnTestFailureERKNS_11TestDetailsEPKc
 191      00
 192              	.LEHE2:
 193              	.LEHB3:
 194 0146 E8000000 		call	__cxa_end_catch
 194      00
 195              	.LEHE3:
 196 014b EBBC     		jmp	.L13
 197              	.L18:
 198 014d 4889C3   		movq	%rax, %rbx
 199              		.p2align 4,,5
 200 0150 E8000000 		call	__cxa_end_catch
 200      00
 201 0155 4889DF   		movq	%rbx, %rdi
 202              	.LEHB4:
 203 0158 E8000000 		call	_Unwind_Resume
 203      00
 204              	.LEHE4:
 205              		.cfi_endproc
 206              	.LFE1052:
 207              		.globl	__gxx_personality_v0
 208              		.section	.gcc_except_table,"a",@progbits
 209              		.align 4
 210              	.LLSDA1052:
 211 0000 FF       		.byte	0xff
 212 0001 03       		.byte	0x3
 213 0002 21       		.uleb128 .LLSDATT1052-.LLSDATTD1052
 214              	.LLSDATTD1052:
 215 0003 01       		.byte	0x1
 216 0004 17       		.uleb128 .LLSDACSE1052-.LLSDACSB1052
 217              	.LLSDACSB1052:
 218 0005 08       		.uleb128 .LEHB0-.LFB1052
 219 0006 05       		.uleb128 .LEHE0-.LEHB0
 220 0007 00       		.uleb128 0
 221 0008 00       		.uleb128 0
 222 0009 10       		.uleb128 .LEHB1-.LFB1052
 223 000a 39       		.uleb128 .LEHE1-.LEHB1
 224 000b 4F       		.uleb128 .L17-.LFB1052
 225 000c 01       		.uleb128 0x1
 226 000d 57       		.uleb128 .LEHB2-.LFB1052
 227 000e 2F       		.uleb128 .LEHE2-.LEHB2
 228 000f 8D01     		.uleb128 .L18-.LFB1052
 229 0011 00       		.uleb128 0
 230 0012 8601     		.uleb128 .LEHB3-.LFB1052
 231 0014 05       		.uleb128 .LEHE3-.LEHB3
 232 0015 00       		.uleb128 0
 233 0016 00       		.uleb128 0
 234 0017 9801     		.uleb128 .LEHB4-.LFB1052
 235 0019 05       		.uleb128 .LEHE4-.LEHB4
 236 001a 00       		.uleb128 0
 237 001b 00       		.uleb128 0
 238              	.LLSDACSE1052:
 239 001c 01       		.byte	0x1
 240 001d 00       		.byte	0
 241 001e 0000     		.align 4
 242 0020 00000000 		.long	0
 243              	
 244              	.LLSDATT1052:
 245              		.text
 247              		.section	.rodata.str1.1
 248              	.LC2:
 249 0014 54657374 		.string	"TestTestList.cpp"
 249      54657374 
 249      4C697374 
 249      2E637070 
 249      00
 250              	.LC3:
 251 0025 44656661 		.string	"DefaultSuite"
 251      756C7453 
 251      75697465 
 251      00
 252              	.LC4:
 253 0032 54657374 		.string	"TestListIsEmptyByDefault"
 253      4C697374 
 253      4973456D 
 253      70747942 
 253      79446566 
 254              	.LC5:
 255 004b 41646469 		.string	"AddingTestSetsHeadToTest"
 255      6E675465 
 255      73745365 
 255      74734865 
 255      6164546F 
 256              		.section	.rodata.str1.8
 257 0032 00000000 		.align 8
 257      0000
 258              	.LC6:
 259 0038 41646469 		.string	"AddingSecondTestAddsItToEndOfList"
 259      6E675365 
 259      636F6E64 
 259      54657374 
 259      41646473 
 260              		.section	.rodata.str1.1
 261              	.LC7:
 262 0064 4C697374 		.string	"ListAdderAddsTestToList"
 262      41646465 
 262      72416464 
 262      73546573 
 262      74546F4C 
 263              		.section	.text.startup,"ax",@progbits
 264              		.p2align 4,,15
 266              	_GLOBAL__sub_I_TestTestList.cpp:
 267              	.LFB1159:
 268              		.cfi_startproc
 269 0000 4883EC08 		subq	$8, %rsp
 270              		.cfi_def_cfa_offset 16
 271 0004 41B80900 		movl	$9, %r8d
 271      0000
 272 000a B9000000 		movl	$.LC2, %ecx
 272      00
 273 000f BA000000 		movl	$.LC3, %edx
 273      00
 274 0014 BE000000 		movl	$.LC4, %esi
 274      00
 275 0019 BF000000 		movl	$_ZN12_GLOBAL__N_136testTestListIsEmptyByDefaultInstanceE, %edi
 275      00
 276 001e E8000000 		call	_ZN8UnitTest4TestC2EPKcS2_S2_i
 276      00
 277 0023 BA000000 		movl	$__dso_handle, %edx
 277      00
 278 0028 BE000000 		movl	$_ZN12_GLOBAL__N_136testTestListIsEmptyByDefaultInstanceE, %esi
 278      00
 279 002d BF000000 		movl	$_ZN12_GLOBAL__N_128TestTestListIsEmptyByDefaultD1Ev, %edi
 279      00
 280 0032 48C70500 		movq	$_ZTVN12_GLOBAL__N_128TestTestListIsEmptyByDefaultE+16, _ZN12_GLOBAL__N_136testTestListIsEmpt
 280      00000000 
 280      000000
 281 003d E8000000 		call	__cxa_atexit
 281      00
 282 0042 E8000000 		call	_ZN8UnitTest4Test11GetTestListEv
 282      00
 283 0047 BA000000 		movl	$_ZN12_GLOBAL__N_136testTestListIsEmptyByDefaultInstanceE, %edx
 283      00
 284 004c 4889C6   		movq	%rax, %rsi
 285 004f BF000000 		movl	$_ZN12_GLOBAL__N_129adderTestListIsEmptyByDefaultE, %edi
 285      00
 286 0054 E8000000 		call	_ZN8UnitTest9ListAdderC1ERNS_8TestListEPNS_4TestE
 286      00
 287 0059 41B80F00 		movl	$15, %r8d
 287      0000
 288 005f B9000000 		movl	$.LC2, %ecx
 288      00
 289 0064 BA000000 		movl	$.LC3, %edx
 289      00
 290 0069 BE000000 		movl	$.LC5, %esi
 290      00
 291 006e BF000000 		movl	$_ZN12_GLOBAL__N_136testAddingTestSetsHeadToTestInstanceE, %edi
 291      00
 292 0073 E8000000 		call	_ZN8UnitTest4TestC2EPKcS2_S2_i
 292      00
 293 0078 BA000000 		movl	$__dso_handle, %edx
 293      00
 294 007d BE000000 		movl	$_ZN12_GLOBAL__N_136testAddingTestSetsHeadToTestInstanceE, %esi
 294      00
 295 0082 BF000000 		movl	$_ZN12_GLOBAL__N_128TestAddingTestSetsHeadToTestD1Ev, %edi
 295      00
 296 0087 48C70500 		movq	$_ZTVN12_GLOBAL__N_128TestAddingTestSetsHeadToTestE+16, _ZN12_GLOBAL__N_136testAddingTestSets
 296      00000000 
 296      000000
 297 0092 E8000000 		call	__cxa_atexit
 297      00
 298 0097 E8000000 		call	_ZN8UnitTest4Test11GetTestListEv
 298      00
 299 009c BA000000 		movl	$_ZN12_GLOBAL__N_136testAddingTestSetsHeadToTestInstanceE, %edx
 299      00
 300 00a1 4889C6   		movq	%rax, %rsi
 301 00a4 BF000000 		movl	$_ZN12_GLOBAL__N_129adderAddingTestSetsHeadToTestE, %edi
 301      00
 302 00a9 E8000000 		call	_ZN8UnitTest9ListAdderC1ERNS_8TestListEPNS_4TestE
 302      00
 303 00ae 41B81900 		movl	$25, %r8d
 303      0000
 304 00b4 B9000000 		movl	$.LC2, %ecx
 304      00
 305 00b9 BA000000 		movl	$.LC3, %edx
 305      00
 306 00be BE000000 		movl	$.LC6, %esi
 306      00
 307 00c3 BF000000 		movl	$_ZN12_GLOBAL__N_145testAddingSecondTestAddsItToEndOfListInstanceE, %edi
 307      00
 308 00c8 E8000000 		call	_ZN8UnitTest4TestC2EPKcS2_S2_i
 308      00
 309 00cd BA000000 		movl	$__dso_handle, %edx
 309      00
 310 00d2 BE000000 		movl	$_ZN12_GLOBAL__N_145testAddingSecondTestAddsItToEndOfListInstanceE, %esi
 310      00
 311 00d7 BF000000 		movl	$_ZN12_GLOBAL__N_137TestAddingSecondTestAddsItToEndOfListD1Ev, %edi
 311      00
 312 00dc 48C70500 		movq	$_ZTVN12_GLOBAL__N_137TestAddingSecondTestAddsItToEndOfListE+16, _ZN12_GLOBAL__N_145testAddin
 312      00000000 
 312      000000
 313 00e7 E8000000 		call	__cxa_atexit
 313      00
 314 00ec E8000000 		call	_ZN8UnitTest4Test11GetTestListEv
 314      00
 315 00f1 BA000000 		movl	$_ZN12_GLOBAL__N_145testAddingSecondTestAddsItToEndOfListInstanceE, %edx
 315      00
 316 00f6 4889C6   		movq	%rax, %rsi
 317 00f9 BF000000 		movl	$_ZN12_GLOBAL__N_138adderAddingSecondTestAddsItToEndOfListE, %edi
 317      00
 318 00fe E8000000 		call	_ZN8UnitTest9ListAdderC1ERNS_8TestListEPNS_4TestE
 318      00
 319 0103 41B82700 		movl	$39, %r8d
 319      0000
 320 0109 B9000000 		movl	$.LC2, %ecx
 320      00
 321 010e BA000000 		movl	$.LC3, %edx
 321      00
 322 0113 BE000000 		movl	$.LC7, %esi
 322      00
 323 0118 BF000000 		movl	$_ZN12_GLOBAL__N_135testListAdderAddsTestToListInstanceE, %edi
 323      00
 324 011d E8000000 		call	_ZN8UnitTest4TestC2EPKcS2_S2_i
 324      00
 325 0122 BA000000 		movl	$__dso_handle, %edx
 325      00
 326 0127 BE000000 		movl	$_ZN12_GLOBAL__N_135testListAdderAddsTestToListInstanceE, %esi
 326      00
 327 012c BF000000 		movl	$_ZN12_GLOBAL__N_127TestListAdderAddsTestToListD1Ev, %edi
 327      00
 328 0131 48C70500 		movq	$_ZTVN12_GLOBAL__N_127TestListAdderAddsTestToListE+16, _ZN12_GLOBAL__N_135testListAdderAddsTe
 328      00000000 
 328      000000
 329 013c E8000000 		call	__cxa_atexit
 329      00
 330 0141 E8000000 		call	_ZN8UnitTest4Test11GetTestListEv
 330      00
 331 0146 BA000000 		movl	$_ZN12_GLOBAL__N_135testListAdderAddsTestToListInstanceE, %edx
 331      00
 332 014b 4889C6   		movq	%rax, %rsi
 333 014e BF000000 		movl	$_ZN12_GLOBAL__N_128adderListAdderAddsTestToListE, %edi
 333      00
 334 0153 4883C408 		addq	$8, %rsp
 335              		.cfi_def_cfa_offset 8
 336 0157 E9000000 		jmp	_ZN8UnitTest9ListAdderC1ERNS_8TestListEPNS_4TestE
 336      00
 337              		.cfi_endproc
 338              	.LFE1159:
 340              		.section	.init_array,"aw"
 341              		.align 8
 342 0000 00000000 		.quad	_GLOBAL__sub_I_TestTestList.cpp
 342      00000000 
 343              		.section	.rodata.str1.1
 344              	.LC8:
 345 007c 00       		.string	""
 346              	.LC9:
 347 007d 6C697374 		.string	"list.GetHead() == &test"
 347      2E476574 
 347      48656164 
 347      2829203D 
 347      3D202674 
 348              	.LC10:
 349 0095 74657374 		.string	"test.next == 0"
 349      2E6E6578 
 349      74203D3D 
 349      203000
 350              		.section	.rodata.str1.8
 351 005a 00000000 		.align 8
 351      0000
 352              	.LC11:
 353 0060 556E6861 		.string	"Unhandled exception in CHECK(list.GetHead() == &test)"
 353      6E646C65 
 353      64206578 
 353      63657074 
 353      696F6E20 
 354 0096 0000     		.align 8
 355              	.LC12:
 356 0098 556E6861 		.string	"Unhandled exception in CHECK(test.next == 0)"
 356      6E646C65 
 356      64206578 
 356      63657074 
 356      696F6E20 
 357              		.text
 358 015d 90       		.align 2
 359 015e 6690     		.p2align 4,,15
 361              	_ZNK12_GLOBAL__N_127TestListAdderAddsTestToList7RunImplEv:
 362              	.LFB1064:
 363              		.cfi_startproc
 364              		.cfi_personality 0x3,__gxx_personality_v0
 365              		.cfi_lsda 0x3,.LLSDA1064
 366 0160 55       		pushq	%rbp
 367              		.cfi_def_cfa_offset 16
 368              		.cfi_offset 6, -16
 369 0161 53       		pushq	%rbx
 370              		.cfi_def_cfa_offset 24
 371              		.cfi_offset 3, -24
 372 0162 4881EC88 		subq	$136, %rsp
 372      000000
 373              		.cfi_def_cfa_offset 160
 374 0169 488D7C24 		leaq	16(%rsp), %rdi
 374      10
 375 016e 488D5C24 		leaq	64(%rsp), %rbx
 375      40
 376              	.LEHB5:
 377 0173 E8000000 		call	_ZN8UnitTest8TestListC1Ev
 377      00
 378 0178 B9000000 		movl	$.LC8, %ecx
 378      00
 379 017d BA000000 		movl	$.LC3, %edx
 379      00
 380 0182 4889DF   		movq	%rbx, %rdi
 381 0185 4889CE   		movq	%rcx, %rsi
 382 0188 4531C0   		xorl	%r8d, %r8d
 383 018b E8000000 		call	_ZN8UnitTest4TestC1EPKcS2_S2_i
 383      00
 384              	.LEHE5:
 385 0190 488D7424 		leaq	16(%rsp), %rsi
 385      10
 386 0195 488D7C24 		leaq	15(%rsp), %rdi
 386      0F
 387 019a 4889DA   		movq	%rbx, %rdx
 388              	.LEHB6:
 389 019d E8000000 		call	_ZN8UnitTest9ListAdderC1ERNS_8TestListEPNS_4TestE
 389      00
 390              	.LEHE6:
 391 01a2 488D7C24 		leaq	16(%rsp), %rdi
 391      10
 392              	.LEHB7:
 393 01a7 E8000000 		call	_ZNK8UnitTest8TestList7GetHeadEv
 393      00
 394 01ac 4839D8   		cmpq	%rbx, %rax
 395 01af 742F     		je	.L28
 396 01b1 E8000000 		call	_ZN8UnitTest11CurrentTest7DetailsEv
 396      00
 397 01b6 488D6C24 		leaq	32(%rsp), %rbp
 397      20
 398 01bb 488B30   		movq	(%rax), %rsi
 399 01be BA2E0000 		movl	$46, %edx
 399      00
 400 01c3 4889EF   		movq	%rbp, %rdi
 401 01c6 E8000000 		call	_ZN8UnitTest11TestDetailsC1ERKS0_i
 401      00
 402 01cb E8000000 		call	_ZN8UnitTest11CurrentTest7ResultsEv
 402      00
 403 01d0 488B38   		movq	(%rax), %rdi
 404 01d3 BA000000 		movl	$.LC9, %edx
 404      00
 405 01d8 4889EE   		movq	%rbp, %rsi
 406 01db E8000000 		call	_ZN8UnitTest11TestResults13OnTestFailureERKNS_11TestDetailsEPKc
 406      00
 407              	.LEHE7:
 408              	.L28:
 409 01e0 48837C24 		cmpq	$0, 104(%rsp)
 409      6800
 410 01e6 742F     		je	.L30
 411              	.LEHB8:
 412 01e8 E8000000 		call	_ZN8UnitTest11CurrentTest7DetailsEv
 412      00
 413 01ed 488D6C24 		leaq	32(%rsp), %rbp
 413      20
 414 01f2 488B30   		movq	(%rax), %rsi
 415 01f5 BA2F0000 		movl	$47, %edx
 415      00
 416 01fa 4889EF   		movq	%rbp, %rdi
 417 01fd E8000000 		call	_ZN8UnitTest11TestDetailsC1ERKS0_i
 417      00
 418 0202 E8000000 		call	_ZN8UnitTest11CurrentTest7ResultsEv
 418      00
 419 0207 488B38   		movq	(%rax), %rdi
 420 020a BA000000 		movl	$.LC10, %edx
 420      00
 421 020f 4889EE   		movq	%rbp, %rsi
 422 0212 E8000000 		call	_ZN8UnitTest11TestResults13OnTestFailureERKNS_11TestDetailsEPKc
 422      00
 423              	.LEHE8:
 424              	.L30:
 425 0217 4889DF   		movq	%rbx, %rdi
 426              	.LEHB9:
 427 021a E8000000 		call	_ZN8UnitTest4TestD1Ev
 427      00
 428              	.LEHE9:
 429 021f 4881C488 		addq	$136, %rsp
 429      000000
 430              		.cfi_remember_state
 431              		.cfi_def_cfa_offset 24
 432 0226 5B       		popq	%rbx
 433              		.cfi_def_cfa_offset 16
 434 0227 5D       		popq	%rbp
 435              		.cfi_def_cfa_offset 8
 436 0228 C3       		ret
 437              	.L38:
 438              		.cfi_restore_state
 439 0229 4889C5   		movq	%rax, %rbp
 440              	.L32:
 441 022c 4889DF   		movq	%rbx, %rdi
 442 022f E8000000 		call	_ZN8UnitTest4TestD1Ev
 442      00
 443 0234 4889EF   		movq	%rbp, %rdi
 444              	.LEHB10:
 445 0237 E8000000 		call	_Unwind_Resume
 445      00
 446              	.LEHE10:
 447              	.L41:
 448 023c 4889C7   		movq	%rax, %rdi
 449 023f E8000000 		call	__cxa_begin_catch
 449      00
 450              	.LEHB11:
 451 0244 E8000000 		call	_ZN8UnitTest11CurrentTest7DetailsEv
 451      00
 452 0249 488D6C24 		leaq	32(%rsp), %rbp
 452      20
 453 024e 488B30   		movq	(%rax), %rsi
 454 0251 BA2F0000 		movl	$47, %edx
 454      00
 455 0256 4889EF   		movq	%rbp, %rdi
 456 0259 E8000000 		call	_ZN8UnitTest11TestDetailsC1ERKS0_i
 456      00
 457 025e E8000000 		call	_ZN8UnitTest11CurrentTest7ResultsEv
 457      00
 458 0263 488B38   		movq	(%rax), %rdi
 459 0266 BA000000 		movl	$.LC12, %edx
 459      00
 460 026b 4889EE   		movq	%rbp, %rsi
 461 026e E8000000 		call	_ZN8UnitTest11TestResults13OnTestFailureERKNS_11TestDetailsEPKc
 461      00
 462              	.LEHE11:
 463              	.LEHB12:
 464 0273 E8000000 		call	__cxa_end_catch
 464      00
 465              	.LEHE12:
 466 0278 EB9D     		jmp	.L30
 467              	.L39:
 468 027a 4889C7   		movq	%rax, %rdi
 469 027d 0F1F00   		.p2align 4,,5
 470 0280 E8000000 		call	__cxa_begin_catch
 470      00
 471              		.p2align 4,,5
 472              	.LEHB13:
 473 0285 E8000000 		call	_ZN8UnitTest11CurrentTest7DetailsEv
 473      00
 474 028a 488D6C24 		leaq	32(%rsp), %rbp
 474      20
 475 028f 488B30   		movq	(%rax), %rsi
 476 0292 BA2E0000 		movl	$46, %edx
 476      00
 477 0297 4889EF   		movq	%rbp, %rdi
 478 029a E8000000 		call	_ZN8UnitTest11TestDetailsC1ERKS0_i
 478      00
 479 029f E8000000 		call	_ZN8UnitTest11CurrentTest7ResultsEv
 479      00
 480 02a4 488B38   		movq	(%rax), %rdi
 481 02a7 BA000000 		movl	$.LC11, %edx
 481      00
 482 02ac 4889EE   		movq	%rbp, %rsi
 483 02af E8000000 		call	_ZN8UnitTest11TestResults13OnTestFailureERKNS_11TestDetailsEPKc
 483      00
 484              	.LEHE13:
 485              	.LEHB14:
 486 02b4 E8000000 		call	__cxa_end_catch
 486      00
 487              	.LEHE14:
 488 02b9 E922FFFF 		jmp	.L28
 488      FF
 489              	.L42:
 490 02be 4889C5   		movq	%rax, %rbp
 491              		.p2align 4,,5
 492 02c1 E8000000 		call	__cxa_end_catch
 492      00
 493              		.p2align 4,,5
 494 02c6 E961FFFF 		jmp	.L32
 494      FF
 495              	.L40:
 496 02cb 4889C5   		movq	%rax, %rbp
 497 02ce E8000000 		call	__cxa_end_catch
 497      00
 498              		.p2align 4,,5
 499 02d3 E954FFFF 		jmp	.L32
 499      FF
 500              		.cfi_endproc
 501              	.LFE1064:
 502              		.section	.gcc_except_table
 503              		.align 4
 504              	.LLSDA1064:
 505 0024 FF       		.byte	0xff
 506 0025 03       		.byte	0x3
 507 0026 41       		.uleb128 .LLSDATT1064-.LLSDATTD1064
 508              	.LLSDATTD1064:
 509 0027 01       		.byte	0x1
 510 0028 36       		.uleb128 .LLSDACSE1064-.LLSDACSB1064
 511              	.LLSDACSB1064:
 512 0029 13       		.uleb128 .LEHB5-.LFB1064
 513 002a 1D       		.uleb128 .LEHE5-.LEHB5
 514 002b 00       		.uleb128 0
 515 002c 00       		.uleb128 0
 516 002d 3D       		.uleb128 .LEHB6-.LFB1064
 517 002e 05       		.uleb128 .LEHE6-.LEHB6
 518 002f C901     		.uleb128 .L38-.LFB1064
 519 0031 00       		.uleb128 0
 520 0032 47       		.uleb128 .LEHB7-.LFB1064
 521 0033 39       		.uleb128 .LEHE7-.LEHB7
 522 0034 9A02     		.uleb128 .L39-.LFB1064
 523 0036 01       		.uleb128 0x1
 524 0037 8801     		.uleb128 .LEHB8-.LFB1064
 525 0039 2F       		.uleb128 .LEHE8-.LEHB8
 526 003a DC01     		.uleb128 .L41-.LFB1064
 527 003c 01       		.uleb128 0x1
 528 003d BA01     		.uleb128 .LEHB9-.LFB1064
 529 003f 05       		.uleb128 .LEHE9-.LEHB9
 530 0040 00       		.uleb128 0
 531 0041 00       		.uleb128 0
 532 0042 D701     		.uleb128 .LEHB10-.LFB1064
 533 0044 05       		.uleb128 .LEHE10-.LEHB10
 534 0045 00       		.uleb128 0
 535 0046 00       		.uleb128 0
 536 0047 E401     		.uleb128 .LEHB11-.LFB1064
 537 0049 2F       		.uleb128 .LEHE11-.LEHB11
 538 004a DE02     		.uleb128 .L42-.LFB1064
 539 004c 00       		.uleb128 0
 540 004d 9302     		.uleb128 .LEHB12-.LFB1064
 541 004f 05       		.uleb128 .LEHE12-.LEHB12
 542 0050 C901     		.uleb128 .L38-.LFB1064
 543 0052 00       		.uleb128 0
 544 0053 A502     		.uleb128 .LEHB13-.LFB1064
 545 0055 2F       		.uleb128 .LEHE13-.LEHB13
 546 0056 EB02     		.uleb128 .L40-.LFB1064
 547 0058 00       		.uleb128 0
 548 0059 D402     		.uleb128 .LEHB14-.LFB1064
 549 005b 05       		.uleb128 .LEHE14-.LEHB14
 550 005c C901     		.uleb128 .L38-.LFB1064
 551 005e 00       		.uleb128 0
 552              	.LLSDACSE1064:
 553 005f 01       		.byte	0x1
 554 0060 00       		.byte	0
 555 0061 000000   		.align 4
 556 0064 00000000 		.long	0
 557              	
 558              	.LLSDATT1064:
 559              		.text
 561              		.section	.rodata.str1.1
 562              	.LC13:
 563 00a4 74657374 		.string	"test1"
 563      3100
 564              	.LC14:
 565 00aa 74657374 		.string	"test2"
 565      3200
 566              	.LC15:
 567 00b0 6C697374 		.string	"list.GetHead() == &test1"
 567      2E476574 
 567      48656164 
 567      2829203D 
 567      3D202674 
 568              	.LC16:
 569 00c9 74657374 		.string	"test1.next == &test2"
 569      312E6E65 
 569      7874203D 
 569      3D202674 
 569      65737432 
 570              	.LC17:
 571 00de 74657374 		.string	"test2.next == 0"
 571      322E6E65 
 571      7874203D 
 571      3D203000 
 572              		.section	.rodata.str1.8
 573 00c5 000000   		.align 8
 574              	.LC18:
 575 00c8 556E6861 		.string	"Unhandled exception in CHECK(list.GetHead() == &test1)"
 575      6E646C65 
 575      64206578 
 575      63657074 
 575      696F6E20 
 576 00ff 00       		.align 8
 577              	.LC19:
 578 0100 556E6861 		.string	"Unhandled exception in CHECK(test1.next == &test2)"
 578      6E646C65 
 578      64206578 
 578      63657074 
 578      696F6E20 
 579 0133 00000000 		.align 8
 579      00
 580              	.LC20:
 581 0138 556E6861 		.string	"Unhandled exception in CHECK(test2.next == 0)"
 581      6E646C65 
 581      64206578 
 581      63657074 
 581      696F6E20 
 582              		.text
 583              		.align 2
 584 02d8 0F1F8400 		.p2align 4,,15
 584      00000000 
 586              	_ZNK12_GLOBAL__N_137TestAddingSecondTestAddsItToEndOfList7RunImplEv:
 587              	.LFB1060:
 588              		.cfi_startproc
 589              		.cfi_personality 0x3,__gxx_personality_v0
 590              		.cfi_lsda 0x3,.LLSDA1060
 591 02e0 4154     		pushq	%r12
 592              		.cfi_def_cfa_offset 16
 593              		.cfi_offset 12, -16
 594 02e2 4531C0   		xorl	%r8d, %r8d
 595 02e5 B9000000 		movl	$.LC8, %ecx
 595      00
 596 02ea BA000000 		movl	$.LC3, %edx
 596      00
 597 02ef BE000000 		movl	$.LC13, %esi
 597      00
 598 02f4 55       		pushq	%rbp
 599              		.cfi_def_cfa_offset 24
 600              		.cfi_offset 6, -24
 601 02f5 53       		pushq	%rbx
 602              		.cfi_def_cfa_offset 32
 603              		.cfi_offset 3, -32
 604 02f6 4881ECB0 		subq	$176, %rsp
 604      000000
 605              		.cfi_def_cfa_offset 208
 606 02fd 488D6C24 		leaq	48(%rsp), %rbp
 606      30
 607 0302 4C8D6424 		leaq	112(%rsp), %r12
 607      70
 608 0307 4889EF   		movq	%rbp, %rdi
 609              	.LEHB15:
 610 030a E8000000 		call	_ZN8UnitTest4TestC1EPKcS2_S2_i
 610      00
 611              	.LEHE15:
 612 030f 4531C0   		xorl	%r8d, %r8d
 613 0312 B9000000 		movl	$.LC8, %ecx
 613      00
 614 0317 BA000000 		movl	$.LC3, %edx
 614      00
 615 031c BE000000 		movl	$.LC14, %esi
 615      00
 616 0321 4C89E7   		movq	%r12, %rdi
 617              	.LEHB16:
 618 0324 E8000000 		call	_ZN8UnitTest4TestC1EPKcS2_S2_i
 618      00
 619              	.LEHE16:
 620 0329 4889E7   		movq	%rsp, %rdi
 621              	.LEHB17:
 622 032c E8000000 		call	_ZN8UnitTest8TestListC1Ev
 622      00
 623 0331 4889EE   		movq	%rbp, %rsi
 624 0334 4889E7   		movq	%rsp, %rdi
 625 0337 E8000000 		call	_ZN8UnitTest8TestList3AddEPNS_4TestE
 625      00
 626 033c 4C89E6   		movq	%r12, %rsi
 627 033f 4889E7   		movq	%rsp, %rdi
 628 0342 E8000000 		call	_ZN8UnitTest8TestList3AddEPNS_4TestE
 628      00
 629              	.LEHE17:
 630 0347 4889E7   		movq	%rsp, %rdi
 631              	.LEHB18:
 632 034a E8000000 		call	_ZNK8UnitTest8TestList7GetHeadEv
 632      00
 633 034f 4839E8   		cmpq	%rbp, %rax
 634 0352 742F     		je	.L47
 635 0354 E8000000 		call	_ZN8UnitTest11CurrentTest7DetailsEv
 635      00
 636 0359 488D5C24 		leaq	16(%rsp), %rbx
 636      10
 637 035e 488B30   		movq	(%rax), %rsi
 638 0361 BA220000 		movl	$34, %edx
 638      00
 639 0366 4889DF   		movq	%rbx, %rdi
 640 0369 E8000000 		call	_ZN8UnitTest11TestDetailsC1ERKS0_i
 640      00
 641 036e E8000000 		call	_ZN8UnitTest11CurrentTest7ResultsEv
 641      00
 642 0373 488B38   		movq	(%rax), %rdi
 643 0376 BA000000 		movl	$.LC15, %edx
 643      00
 644 037b 4889DE   		movq	%rbx, %rsi
 645 037e E8000000 		call	_ZN8UnitTest11TestResults13OnTestFailureERKNS_11TestDetailsEPKc
 645      00
 646              	.LEHE18:
 647              	.L47:
 648 0383 4C396424 		cmpq	%r12, 88(%rsp)
 648      58
 649 0388 742F     		je	.L49
 650              	.LEHB19:
 651 038a E8000000 		call	_ZN8UnitTest11CurrentTest7DetailsEv
 651      00
 652 038f 488D5C24 		leaq	16(%rsp), %rbx
 652      10
 653 0394 488B30   		movq	(%rax), %rsi
 654 0397 BA230000 		movl	$35, %edx
 654      00
 655 039c 4889DF   		movq	%rbx, %rdi
 656 039f E8000000 		call	_ZN8UnitTest11TestDetailsC1ERKS0_i
 656      00
 657 03a4 E8000000 		call	_ZN8UnitTest11CurrentTest7ResultsEv
 657      00
 658 03a9 488B38   		movq	(%rax), %rdi
 659 03ac BA000000 		movl	$.LC16, %edx
 659      00
 660 03b1 4889DE   		movq	%rbx, %rsi
 661 03b4 E8000000 		call	_ZN8UnitTest11TestResults13OnTestFailureERKNS_11TestDetailsEPKc
 661      00
 662              	.LEHE19:
 663              	.L49:
 664 03b9 4883BC24 		cmpq	$0, 152(%rsp)
 664      98000000 
 664      00
 665 03c2 742F     		je	.L51
 666              	.LEHB20:
 667 03c4 E8000000 		call	_ZN8UnitTest11CurrentTest7DetailsEv
 667      00
 668 03c9 488D5C24 		leaq	16(%rsp), %rbx
 668      10
 669 03ce 488B30   		movq	(%rax), %rsi
 670 03d1 BA240000 		movl	$36, %edx
 670      00
 671 03d6 4889DF   		movq	%rbx, %rdi
 672 03d9 E8000000 		call	_ZN8UnitTest11TestDetailsC1ERKS0_i
 672      00
 673 03de E8000000 		call	_ZN8UnitTest11CurrentTest7ResultsEv
 673      00
 674 03e3 488B38   		movq	(%rax), %rdi
 675 03e6 BA000000 		movl	$.LC17, %edx
 675      00
 676 03eb 4889DE   		movq	%rbx, %rsi
 677 03ee E8000000 		call	_ZN8UnitTest11TestResults13OnTestFailureERKNS_11TestDetailsEPKc
 677      00
 678              	.LEHE20:
 679              	.L51:
 680 03f3 4C89E7   		movq	%r12, %rdi
 681              	.LEHB21:
 682 03f6 E8000000 		call	_ZN8UnitTest4TestD1Ev
 682      00
 683              	.LEHE21:
 684 03fb 4889EF   		movq	%rbp, %rdi
 685              	.LEHB22:
 686 03fe E8000000 		call	_ZN8UnitTest4TestD1Ev
 686      00
 687              	.LEHE22:
 688 0403 4881C4B0 		addq	$176, %rsp
 688      000000
 689              		.cfi_remember_state
 690              		.cfi_def_cfa_offset 32
 691 040a 5B       		popq	%rbx
 692              		.cfi_def_cfa_offset 24
 693 040b 5D       		popq	%rbp
 694              		.cfi_def_cfa_offset 16
 695 040c 415C     		popq	%r12
 696              		.cfi_def_cfa_offset 8
 697 040e C3       		ret
 698              	.L63:
 699              		.cfi_restore_state
 700 040f 4889C3   		movq	%rax, %rbx
 701              	.L62:
 702 0412 4889EF   		movq	%rbp, %rdi
 703 0415 E8000000 		call	_ZN8UnitTest4TestD1Ev
 703      00
 704 041a 4889DF   		movq	%rbx, %rdi
 705              	.LEHB23:
 706 041d E8000000 		call	_Unwind_Resume
 706      00
 707              	.LEHE23:
 708              	.L69:
 709 0422 4889C7   		movq	%rax, %rdi
 710 0425 E8000000 		call	__cxa_begin_catch
 710      00
 711              	.LEHB24:
 712 042a E8000000 		call	_ZN8UnitTest11CurrentTest7DetailsEv
 712      00
 713 042f 488D5C24 		leaq	16(%rsp), %rbx
 713      10
 714 0434 488B30   		movq	(%rax), %rsi
 715 0437 BA240000 		movl	$36, %edx
 715      00
 716 043c 4889DF   		movq	%rbx, %rdi
 717 043f E8000000 		call	_ZN8UnitTest11TestDetailsC1ERKS0_i
 717      00
 718 0444 E8000000 		call	_ZN8UnitTest11CurrentTest7ResultsEv
 718      00
 719 0449 488B38   		movq	(%rax), %rdi
 720 044c BA000000 		movl	$.LC20, %edx
 720      00
 721 0451 4889DE   		movq	%rbx, %rsi
 722 0454 E8000000 		call	_ZN8UnitTest11TestResults13OnTestFailureERKNS_11TestDetailsEPKc
 722      00
 723              	.LEHE24:
 724              	.LEHB25:
 725 0459 E8000000 		call	__cxa_end_catch
 725      00
 726              	.LEHE25:
 727 045e EB93     		jmp	.L51
 728              	.L67:
 729 0460 4889C7   		movq	%rax, %rdi
 730              		.p2align 4,,5
 731 0463 E8000000 		call	__cxa_begin_catch
 731      00
 732              		.p2align 4,,5
 733              	.LEHB26:
 734 0468 E8000000 		call	_ZN8UnitTest11CurrentTest7DetailsEv
 734      00
 735 046d 488D5C24 		leaq	16(%rsp), %rbx
 735      10
 736 0472 488B30   		movq	(%rax), %rsi
 737 0475 BA230000 		movl	$35, %edx
 737      00
 738 047a 4889DF   		movq	%rbx, %rdi
 739 047d E8000000 		call	_ZN8UnitTest11TestDetailsC1ERKS0_i
 739      00
 740 0482 E8000000 		call	_ZN8UnitTest11CurrentTest7ResultsEv
 740      00
 741 0487 488B38   		movq	(%rax), %rdi
 742 048a BA000000 		movl	$.LC19, %edx
 742      00
 743 048f 4889DE   		movq	%rbx, %rsi
 744 0492 E8000000 		call	_ZN8UnitTest11TestResults13OnTestFailureERKNS_11TestDetailsEPKc
 744      00
 745              	.LEHE26:
 746              	.LEHB27:
 747 0497 E8000000 		call	__cxa_end_catch
 747      00
 748              	.LEHE27:
 749 049c E918FFFF 		jmp	.L49
 749      FF
 750              	.L70:
 751 04a1 4889C3   		movq	%rax, %rbx
 752              		.p2align 4,,5
 753 04a4 E8000000 		call	__cxa_end_catch
 753      00
 754              	.L53:
 755 04a9 4C89E7   		movq	%r12, %rdi
 756 04ac E8000000 		call	_ZN8UnitTest4TestD1Ev
 756      00
 757 04b1 E95CFFFF 		jmp	.L62
 757      FF
 758              	.L68:
 759 04b6 4889C3   		movq	%rax, %rbx
 760 04b9 E8000000 		call	__cxa_end_catch
 760      00
 761 04be 6690     		.p2align 4,,5
 762 04c0 EBE7     		jmp	.L53
 763              	.L65:
 764 04c2 4889C7   		movq	%rax, %rdi
 765 04c5 E8000000 		call	__cxa_begin_catch
 765      00
 766              		.p2align 4,,5
 767              	.LEHB28:
 768 04ca E8000000 		call	_ZN8UnitTest11CurrentTest7DetailsEv
 768      00
 769 04cf 488D5C24 		leaq	16(%rsp), %rbx
 769      10
 770 04d4 488B30   		movq	(%rax), %rsi
 771 04d7 BA220000 		movl	$34, %edx
 771      00
 772 04dc 4889DF   		movq	%rbx, %rdi
 773 04df E8000000 		call	_ZN8UnitTest11TestDetailsC1ERKS0_i
 773      00
 774 04e4 E8000000 		call	_ZN8UnitTest11CurrentTest7ResultsEv
 774      00
 775 04e9 488B38   		movq	(%rax), %rdi
 776 04ec BA000000 		movl	$.LC18, %edx
 776      00
 777 04f1 4889DE   		movq	%rbx, %rsi
 778 04f4 E8000000 		call	_ZN8UnitTest11TestResults13OnTestFailureERKNS_11TestDetailsEPKc
 778      00
 779              	.LEHE28:
 780              	.LEHB29:
 781 04f9 E8000000 		call	__cxa_end_catch
 781      00
 782              	.LEHE29:
 783 04fe E980FEFF 		jmp	.L47
 783      FF
 784              	.L64:
 785 0503 4889C3   		movq	%rax, %rbx
 786              		.p2align 4,,5
 787 0506 EBA1     		jmp	.L53
 788              	.L66:
 789 0508 4889C3   		movq	%rax, %rbx
 790 050b 0F1F4400 		.p2align 4,,5
 790      00
 791 0510 E8000000 		call	__cxa_end_catch
 791      00
 792              		.p2align 4,,2
 793 0515 EB92     		jmp	.L53
 794              		.cfi_endproc
 795              	.LFE1060:
 796              		.section	.gcc_except_table
 797              		.align 4
 798              	.LLSDA1060:
 799 0068 FF       		.byte	0xff
 800 0069 03       		.byte	0x3
 801 006a 5D       		.uleb128 .LLSDATT1060-.LLSDATTD1060
 802              	.LLSDATTD1060:
 803 006b 01       		.byte	0x1
 804 006c 53       		.uleb128 .LLSDACSE1060-.LLSDACSB1060
 805              	.LLSDACSB1060:
 806 006d 2A       		.uleb128 .LEHB15-.LFB1060
 807 006e 05       		.uleb128 .LEHE15-.LEHB15
 808 006f 00       		.uleb128 0
 809 0070 00       		.uleb128 0
 810 0071 44       		.uleb128 .LEHB16-.LFB1060
 811 0072 05       		.uleb128 .LEHE16-.LEHB16
 812 0073 AF02     		.uleb128 .L63-.LFB1060
 813 0075 00       		.uleb128 0
 814 0076 4C       		.uleb128 .LEHB17-.LFB1060
 815 0077 1B       		.uleb128 .LEHE17-.LEHB17
 816 0078 A304     		.uleb128 .L64-.LFB1060
 817 007a 00       		.uleb128 0
 818 007b 6A       		.uleb128 .LEHB18-.LFB1060
 819 007c 39       		.uleb128 .LEHE18-.LEHB18
 820 007d E203     		.uleb128 .L65-.LFB1060
 821 007f 01       		.uleb128 0x1
 822 0080 AA01     		.uleb128 .LEHB19-.LFB1060
 823 0082 2F       		.uleb128 .LEHE19-.LEHB19
 824 0083 8003     		.uleb128 .L67-.LFB1060
 825 0085 01       		.uleb128 0x1
 826 0086 E401     		.uleb128 .LEHB20-.LFB1060
 827 0088 2F       		.uleb128 .LEHE20-.LEHB20
 828 0089 C202     		.uleb128 .L69-.LFB1060
 829 008b 01       		.uleb128 0x1
 830 008c 9602     		.uleb128 .LEHB21-.LFB1060
 831 008e 05       		.uleb128 .LEHE21-.LEHB21
 832 008f AF02     		.uleb128 .L63-.LFB1060
 833 0091 00       		.uleb128 0
 834 0092 9E02     		.uleb128 .LEHB22-.LFB1060
 835 0094 05       		.uleb128 .LEHE22-.LEHB22
 836 0095 00       		.uleb128 0
 837 0096 00       		.uleb128 0
 838 0097 BD02     		.uleb128 .LEHB23-.LFB1060
 839 0099 05       		.uleb128 .LEHE23-.LEHB23
 840 009a 00       		.uleb128 0
 841 009b 00       		.uleb128 0
 842 009c CA02     		.uleb128 .LEHB24-.LFB1060
 843 009e 2F       		.uleb128 .LEHE24-.LEHB24
 844 009f C103     		.uleb128 .L70-.LFB1060
 845 00a1 00       		.uleb128 0
 846 00a2 F902     		.uleb128 .LEHB25-.LFB1060
 847 00a4 05       		.uleb128 .LEHE25-.LEHB25
 848 00a5 A304     		.uleb128 .L64-.LFB1060
 849 00a7 00       		.uleb128 0
 850 00a8 8803     		.uleb128 .LEHB26-.LFB1060
 851 00aa 2F       		.uleb128 .LEHE26-.LEHB26
 852 00ab D603     		.uleb128 .L68-.LFB1060
 853 00ad 00       		.uleb128 0
 854 00ae B703     		.uleb128 .LEHB27-.LFB1060
 855 00b0 05       		.uleb128 .LEHE27-.LEHB27
 856 00b1 A304     		.uleb128 .L64-.LFB1060
 857 00b3 00       		.uleb128 0
 858 00b4 EA03     		.uleb128 .LEHB28-.LFB1060
 859 00b6 2F       		.uleb128 .LEHE28-.LEHB28
 860 00b7 A804     		.uleb128 .L66-.LFB1060
 861 00b9 00       		.uleb128 0
 862 00ba 9904     		.uleb128 .LEHB29-.LFB1060
 863 00bc 05       		.uleb128 .LEHE29-.LEHB29
 864 00bd A304     		.uleb128 .L64-.LFB1060
 865 00bf 00       		.uleb128 0
 866              	.LLSDACSE1060:
 867 00c0 01       		.byte	0x1
 868 00c1 00       		.byte	0
 869 00c2 0000     		.align 4
 870 00c4 00000000 		.long	0
 871              	
 872              	.LLSDATT1060:
 873              		.text
 875              		.section	.rodata.str1.1
 876              	.LC21:
 877 00ee 74657374 		.string	"test"
 877      00
 878              		.text
 879 0517 90       		.align 2
 880 0518 0F1F8400 		.p2align 4,,15
 880      00000000 
 882              	_ZNK12_GLOBAL__N_128TestAddingTestSetsHeadToTest7RunImplEv:
 883              	.LFB1056:
 884              		.cfi_startproc
 885              		.cfi_personality 0x3,__gxx_personality_v0
 886              		.cfi_lsda 0x3,.LLSDA1056
 887 0520 55       		pushq	%rbp
 888              		.cfi_def_cfa_offset 16
 889              		.cfi_offset 6, -16
 890 0521 4531C0   		xorl	%r8d, %r8d
 891 0524 B9000000 		movl	$.LC8, %ecx
 891      00
 892 0529 BA000000 		movl	$.LC3, %edx
 892      00
 893 052e BE000000 		movl	$.LC21, %esi
 893      00
 894 0533 53       		pushq	%rbx
 895              		.cfi_def_cfa_offset 24
 896              		.cfi_offset 3, -24
 897 0534 4883EC78 		subq	$120, %rsp
 898              		.cfi_def_cfa_offset 144
 899 0538 488D5C24 		leaq	48(%rsp), %rbx
 899      30
 900 053d 4889DF   		movq	%rbx, %rdi
 901              	.LEHB30:
 902 0540 E8000000 		call	_ZN8UnitTest4TestC1EPKcS2_S2_i
 902      00
 903              	.LEHE30:
 904 0545 4889E7   		movq	%rsp, %rdi
 905              	.LEHB31:
 906 0548 E8000000 		call	_ZN8UnitTest8TestListC1Ev
 906      00
 907 054d 4889DE   		movq	%rbx, %rsi
 908 0550 4889E7   		movq	%rsp, %rdi
 909 0553 E8000000 		call	_ZN8UnitTest8TestList3AddEPNS_4TestE
 909      00
 910              	.LEHE31:
 911 0558 4889E7   		movq	%rsp, %rdi
 912              	.LEHB32:
 913 055b E8000000 		call	_ZNK8UnitTest8TestList7GetHeadEv
 913      00
 914 0560 4839D8   		cmpq	%rbx, %rax
 915 0563 742F     		je	.L75
 916 0565 E8000000 		call	_ZN8UnitTest11CurrentTest7DetailsEv
 916      00
 917 056a 488D6C24 		leaq	16(%rsp), %rbp
 917      10
 918 056f 488B30   		movq	(%rax), %rsi
 919 0572 BA150000 		movl	$21, %edx
 919      00
 920 0577 4889EF   		movq	%rbp, %rdi
 921 057a E8000000 		call	_ZN8UnitTest11TestDetailsC1ERKS0_i
 921      00
 922 057f E8000000 		call	_ZN8UnitTest11CurrentTest7ResultsEv
 922      00
 923 0584 488B38   		movq	(%rax), %rdi
 924 0587 BA000000 		movl	$.LC9, %edx
 924      00
 925 058c 4889EE   		movq	%rbp, %rsi
 926 058f E8000000 		call	_ZN8UnitTest11TestResults13OnTestFailureERKNS_11TestDetailsEPKc
 926      00
 927              	.LEHE32:
 928              	.L75:
 929 0594 48837C24 		cmpq	$0, 88(%rsp)
 929      5800
 930 059a 742F     		je	.L77
 931              	.LEHB33:
 932 059c E8000000 		call	_ZN8UnitTest11CurrentTest7DetailsEv
 932      00
 933 05a1 488D6C24 		leaq	16(%rsp), %rbp
 933      10
 934 05a6 488B30   		movq	(%rax), %rsi
 935 05a9 BA160000 		movl	$22, %edx
 935      00
 936 05ae 4889EF   		movq	%rbp, %rdi
 937 05b1 E8000000 		call	_ZN8UnitTest11TestDetailsC1ERKS0_i
 937      00
 938 05b6 E8000000 		call	_ZN8UnitTest11CurrentTest7ResultsEv
 938      00
 939 05bb 488B38   		movq	(%rax), %rdi
 940 05be BA000000 		movl	$.LC10, %edx
 940      00
 941 05c3 4889EE   		movq	%rbp, %rsi
 942 05c6 E8000000 		call	_ZN8UnitTest11TestResults13OnTestFailureERKNS_11TestDetailsEPKc
 942      00
 943              	.LEHE33:
 944              	.L77:
 945 05cb 4889DF   		movq	%rbx, %rdi
 946              	.LEHB34:
 947 05ce E8000000 		call	_ZN8UnitTest4TestD1Ev
 947      00
 948              	.LEHE34:
 949 05d3 4883C478 		addq	$120, %rsp
 950              		.cfi_remember_state
 951              		.cfi_def_cfa_offset 24
 952 05d7 5B       		popq	%rbx
 953              		.cfi_def_cfa_offset 16
 954 05d8 5D       		popq	%rbp
 955              		.cfi_def_cfa_offset 8
 956 05d9 C3       		ret
 957              	.L85:
 958              		.cfi_restore_state
 959 05da 4889C5   		movq	%rax, %rbp
 960              	.L79:
 961 05dd 4889DF   		movq	%rbx, %rdi
 962 05e0 E8000000 		call	_ZN8UnitTest4TestD1Ev
 962      00
 963 05e5 4889EF   		movq	%rbp, %rdi
 964              	.LEHB35:
 965 05e8 E8000000 		call	_Unwind_Resume
 965      00
 966              	.LEHE35:
 967              	.L88:
 968 05ed 4889C7   		movq	%rax, %rdi
 969 05f0 E8000000 		call	__cxa_begin_catch
 969      00
 970              	.LEHB36:
 971 05f5 E8000000 		call	_ZN8UnitTest11CurrentTest7DetailsEv
 971      00
 972 05fa 488D6C24 		leaq	16(%rsp), %rbp
 972      10
 973 05ff 488B30   		movq	(%rax), %rsi
 974 0602 BA160000 		movl	$22, %edx
 974      00
 975 0607 4889EF   		movq	%rbp, %rdi
 976 060a E8000000 		call	_ZN8UnitTest11TestDetailsC1ERKS0_i
 976      00
 977 060f E8000000 		call	_ZN8UnitTest11CurrentTest7ResultsEv
 977      00
 978 0614 488B38   		movq	(%rax), %rdi
 979 0617 BA000000 		movl	$.LC12, %edx
 979      00
 980 061c 4889EE   		movq	%rbp, %rsi
 981 061f E8000000 		call	_ZN8UnitTest11TestResults13OnTestFailureERKNS_11TestDetailsEPKc
 981      00
 982              	.LEHE36:
 983              	.LEHB37:
 984 0624 E8000000 		call	__cxa_end_catch
 984      00
 985              	.LEHE37:
 986 0629 EBA0     		jmp	.L77
 987              	.L86:
 988 062b 4889C7   		movq	%rax, %rdi
 989 062e 6690     		.p2align 4,,5
 990 0630 E8000000 		call	__cxa_begin_catch
 990      00
 991              		.p2align 4,,5
 992              	.LEHB38:
 993 0635 E8000000 		call	_ZN8UnitTest11CurrentTest7DetailsEv
 993      00
 994 063a 488D6C24 		leaq	16(%rsp), %rbp
 994      10
 995 063f 488B30   		movq	(%rax), %rsi
 996 0642 BA150000 		movl	$21, %edx
 996      00
 997 0647 4889EF   		movq	%rbp, %rdi
 998 064a E8000000 		call	_ZN8UnitTest11TestDetailsC1ERKS0_i
 998      00
 999 064f E8000000 		call	_ZN8UnitTest11CurrentTest7ResultsEv
 999      00
 1000 0654 488B38   		movq	(%rax), %rdi
 1001 0657 BA000000 		movl	$.LC11, %edx
 1001      00
 1002 065c 4889EE   		movq	%rbp, %rsi
 1003 065f E8000000 		call	_ZN8UnitTest11TestResults13OnTestFailureERKNS_11TestDetailsEPKc
 1003      00
 1004              	.LEHE38:
 1005              	.LEHB39:
 1006 0664 E8000000 		call	__cxa_end_catch
 1006      00
 1007              	.LEHE39:
 1008 0669 E926FFFF 		jmp	.L75
 1008      FF
 1009              	.L89:
 1010 066e 4889C5   		movq	%rax, %rbp
 1011              		.p2align 4,,5
 1012 0671 E8000000 		call	__cxa_end_catch
 1012      00
 1013              		.p2align 4,,5
 1014 0676 E962FFFF 		jmp	.L79
 1014      FF
 1015              	.L87:
 1016 067b 4889C5   		movq	%rax, %rbp
 1017 067e E8000000 		call	__cxa_end_catch
 1017      00
 1018              		.p2align 4,,5
 1019 0683 E955FFFF 		jmp	.L79
 1019      FF
 1020              		.cfi_endproc
 1021              	.LFE1056:
 1022              		.section	.gcc_except_table
 1023              		.align 4
 1024              	.LLSDA1056:
 1025 00c8 FF       		.byte	0xff
 1026 00c9 03       		.byte	0x3
 1027 00ca 3D       		.uleb128 .LLSDATT1056-.LLSDATTD1056
 1028              	.LLSDATTD1056:
 1029 00cb 01       		.byte	0x1
 1030 00cc 35       		.uleb128 .LLSDACSE1056-.LLSDACSB1056
 1031              	.LLSDACSB1056:
 1032 00cd 20       		.uleb128 .LEHB30-.LFB1056
 1033 00ce 05       		.uleb128 .LEHE30-.LEHB30
 1034 00cf 00       		.uleb128 0
 1035 00d0 00       		.uleb128 0
 1036 00d1 28       		.uleb128 .LEHB31-.LFB1056
 1037 00d2 10       		.uleb128 .LEHE31-.LEHB31
 1038 00d3 BA01     		.uleb128 .L85-.LFB1056
 1039 00d5 00       		.uleb128 0
 1040 00d6 3B       		.uleb128 .LEHB32-.LFB1056
 1041 00d7 39       		.uleb128 .LEHE32-.LEHB32
 1042 00d8 8B02     		.uleb128 .L86-.LFB1056
 1043 00da 01       		.uleb128 0x1
 1044 00db 7C       		.uleb128 .LEHB33-.LFB1056
 1045 00dc 2F       		.uleb128 .LEHE33-.LEHB33
 1046 00dd CD01     		.uleb128 .L88-.LFB1056
 1047 00df 01       		.uleb128 0x1
 1048 00e0 AE01     		.uleb128 .LEHB34-.LFB1056
 1049 00e2 05       		.uleb128 .LEHE34-.LEHB34
 1050 00e3 00       		.uleb128 0
 1051 00e4 00       		.uleb128 0
 1052 00e5 C801     		.uleb128 .LEHB35-.LFB1056
 1053 00e7 05       		.uleb128 .LEHE35-.LEHB35
 1054 00e8 00       		.uleb128 0
 1055 00e9 00       		.uleb128 0
 1056 00ea D501     		.uleb128 .LEHB36-.LFB1056
 1057 00ec 2F       		.uleb128 .LEHE36-.LEHB36
 1058 00ed CE02     		.uleb128 .L89-.LFB1056
 1059 00ef 00       		.uleb128 0
 1060 00f0 8402     		.uleb128 .LEHB37-.LFB1056
 1061 00f2 05       		.uleb128 .LEHE37-.LEHB37
 1062 00f3 BA01     		.uleb128 .L85-.LFB1056
 1063 00f5 00       		.uleb128 0
 1064 00f6 9502     		.uleb128 .LEHB38-.LFB1056
 1065 00f8 2F       		.uleb128 .LEHE38-.LEHB38
 1066 00f9 DB02     		.uleb128 .L87-.LFB1056
 1067 00fb 00       		.uleb128 0
 1068 00fc C402     		.uleb128 .LEHB39-.LFB1056
 1069 00fe 05       		.uleb128 .LEHE39-.LEHB39
 1070 00ff BA01     		.uleb128 .L85-.LFB1056
 1071 0101 00       		.uleb128 0
 1072              	.LLSDACSE1056:
 1073 0102 01       		.byte	0x1
 1074 0103 00       		.byte	0
 1075              		.align 4
 1076 0104 00000000 		.long	0
 1077              	
 1078              	.LLSDATT1056:
 1079              		.text
 1081              		.section	.rodata
 1082              		.align 32
 1085              	_ZTSN12_GLOBAL__N_128TestTestListIsEmptyByDefaultE:
 1086 0000 2A4E3132 		.string	"*N12_GLOBAL__N_128TestTestListIsEmptyByDefaultE"
 1086      5F474C4F 
 1086      42414C5F 
 1086      5F4E5F31 
 1086      32385465 
 1087 0030 00000000 		.align 32
 1087      00000000 
 1087      00000000 
 1087      00000000 
 1090              	_ZTSN12_GLOBAL__N_128TestAddingTestSetsHeadToTestE:
 1091 0040 2A4E3132 		.string	"*N12_GLOBAL__N_128TestAddingTestSetsHeadToTestE"
 1091      5F474C4F 
 1091      42414C5F 
 1091      5F4E5F31 
 1091      32385465 
 1092 0070 00000000 		.align 32
 1092      00000000 
 1092      00000000 
 1092      00000000 
 1095              	_ZTSN12_GLOBAL__N_137TestAddingSecondTestAddsItToEndOfListE:
 1096 0080 2A4E3132 		.string	"*N12_GLOBAL__N_137TestAddingSecondTestAddsItToEndOfListE"
 1096      5F474C4F 
 1096      42414C5F 
 1096      5F4E5F31 
 1096      33375465 
 1097 00b9 00000000 		.align 32
 1097      000000
 1100              	_ZTSN12_GLOBAL__N_127TestListAdderAddsTestToListE:
 1101 00c0 2A4E3132 		.string	"*N12_GLOBAL__N_127TestListAdderAddsTestToListE"
 1101      5F474C4F 
 1101      42414C5F 
 1101      5F4E5F31 
 1101      32375465 
 1102 00ef 00       		.align 16
 1105              	_ZTIN12_GLOBAL__N_127TestListAdderAddsTestToListE:
 1106 00f0 00000000 		.quad	_ZTVN10__cxxabiv120__si_class_type_infoE+16
 1106      00000000 
 1107 00f8 00000000 		.quad	_ZTSN12_GLOBAL__N_127TestListAdderAddsTestToListE
 1107      00000000 
 1108 0100 00000000 		.quad	_ZTIN8UnitTest4TestE
 1108      00000000 
 1109 0108 00000000 		.align 16
 1109      00000000 
 1112              	_ZTIN12_GLOBAL__N_137TestAddingSecondTestAddsItToEndOfListE:
 1113 0110 00000000 		.quad	_ZTVN10__cxxabiv120__si_class_type_infoE+16
 1113      00000000 
 1114 0118 00000000 		.quad	_ZTSN12_GLOBAL__N_137TestAddingSecondTestAddsItToEndOfListE
 1114      00000000 
 1115 0120 00000000 		.quad	_ZTIN8UnitTest4TestE
 1115      00000000 
 1116 0128 00000000 		.align 16
 1116      00000000 
 1119              	_ZTIN12_GLOBAL__N_128TestAddingTestSetsHeadToTestE:
 1120 0130 00000000 		.quad	_ZTVN10__cxxabiv120__si_class_type_infoE+16
 1120      00000000 
 1121 0138 00000000 		.quad	_ZTSN12_GLOBAL__N_128TestAddingTestSetsHeadToTestE
 1121      00000000 
 1122 0140 00000000 		.quad	_ZTIN8UnitTest4TestE
 1122      00000000 
 1123 0148 00000000 		.align 16
 1123      00000000 
 1126              	_ZTIN12_GLOBAL__N_128TestTestListIsEmptyByDefaultE:
 1127 0150 00000000 		.quad	_ZTVN10__cxxabiv120__si_class_type_infoE+16
 1127      00000000 
 1128 0158 00000000 		.quad	_ZTSN12_GLOBAL__N_128TestTestListIsEmptyByDefaultE
 1128      00000000 
 1129 0160 00000000 		.quad	_ZTIN8UnitTest4TestE
 1129      00000000 
 1130 0168 00000000 		.align 32
 1130      00000000 
 1130      00000000 
 1130      00000000 
 1130      00000000 
 1133              	_ZTVN12_GLOBAL__N_128TestTestListIsEmptyByDefaultE:
 1134 0180 00000000 		.quad	0
 1134      00000000 
 1135 0188 00000000 		.quad	_ZTIN12_GLOBAL__N_128TestTestListIsEmptyByDefaultE
 1135      00000000 
 1136 0190 00000000 		.quad	_ZN12_GLOBAL__N_128TestTestListIsEmptyByDefaultD1Ev
 1136      00000000 
 1137 0198 00000000 		.quad	_ZN12_GLOBAL__N_128TestTestListIsEmptyByDefaultD0Ev
 1137      00000000 
 1138 01a0 00000000 		.quad	_ZNK12_GLOBAL__N_128TestTestListIsEmptyByDefault7RunImplEv
 1138      00000000 
 1139 01a8 00000000 		.align 32
 1139      00000000 
 1139      00000000 
 1139      00000000 
 1139      00000000 
 1142              	_ZTVN12_GLOBAL__N_128TestAddingTestSetsHeadToTestE:
 1143 01c0 00000000 		.quad	0
 1143      00000000 
 1144 01c8 00000000 		.quad	_ZTIN12_GLOBAL__N_128TestAddingTestSetsHeadToTestE
 1144      00000000 
 1145 01d0 00000000 		.quad	_ZN12_GLOBAL__N_128TestAddingTestSetsHeadToTestD1Ev
 1145      00000000 
 1146 01d8 00000000 		.quad	_ZN12_GLOBAL__N_128TestAddingTestSetsHeadToTestD0Ev
 1146      00000000 
 1147 01e0 00000000 		.quad	_ZNK12_GLOBAL__N_128TestAddingTestSetsHeadToTest7RunImplEv
 1147      00000000 
 1148 01e8 00000000 		.align 32
 1148      00000000 
 1148      00000000 
 1148      00000000 
 1148      00000000 
 1151              	_ZTVN12_GLOBAL__N_137TestAddingSecondTestAddsItToEndOfListE:
 1152 0200 00000000 		.quad	0
 1152      00000000 
 1153 0208 00000000 		.quad	_ZTIN12_GLOBAL__N_137TestAddingSecondTestAddsItToEndOfListE
 1153      00000000 
 1154 0210 00000000 		.quad	_ZN12_GLOBAL__N_137TestAddingSecondTestAddsItToEndOfListD1Ev
 1154      00000000 
 1155 0218 00000000 		.quad	_ZN12_GLOBAL__N_137TestAddingSecondTestAddsItToEndOfListD0Ev
 1155      00000000 
 1156 0220 00000000 		.quad	_ZNK12_GLOBAL__N_137TestAddingSecondTestAddsItToEndOfList7RunImplEv
 1156      00000000 
 1157 0228 00000000 		.align 32
 1157      00000000 
 1157      00000000 
 1157      00000000 
 1157      00000000 
 1160              	_ZTVN12_GLOBAL__N_127TestListAdderAddsTestToListE:
 1161 0240 00000000 		.quad	0
 1161      00000000 
 1162 0248 00000000 		.quad	_ZTIN12_GLOBAL__N_127TestListAdderAddsTestToListE
 1162      00000000 
 1163 0250 00000000 		.quad	_ZN12_GLOBAL__N_127TestListAdderAddsTestToListD1Ev
 1163      00000000 
 1164 0258 00000000 		.quad	_ZN12_GLOBAL__N_127TestListAdderAddsTestToListD0Ev
 1164      00000000 
 1165 0260 00000000 		.quad	_ZNK12_GLOBAL__N_127TestListAdderAddsTestToList7RunImplEv
 1165      00000000 
 1166              		.local	_ZN12_GLOBAL__N_128adderListAdderAddsTestToListE
 1167              		.comm	_ZN12_GLOBAL__N_128adderListAdderAddsTestToListE,1,1
 1168              		.local	_ZN12_GLOBAL__N_135testListAdderAddsTestToListInstanceE
 1169              		.comm	_ZN12_GLOBAL__N_135testListAdderAddsTestToListInstanceE,56,32
 1170              		.local	_ZN12_GLOBAL__N_138adderAddingSecondTestAddsItToEndOfListE
 1171              		.comm	_ZN12_GLOBAL__N_138adderAddingSecondTestAddsItToEndOfListE,1,1
 1172              		.local	_ZN12_GLOBAL__N_145testAddingSecondTestAddsItToEndOfListInstanceE
 1173              		.comm	_ZN12_GLOBAL__N_145testAddingSecondTestAddsItToEndOfListInstanceE,56,32
 1174              		.local	_ZN12_GLOBAL__N_129adderAddingTestSetsHeadToTestE
 1175              		.comm	_ZN12_GLOBAL__N_129adderAddingTestSetsHeadToTestE,1,1
 1176              		.local	_ZN12_GLOBAL__N_136testAddingTestSetsHeadToTestInstanceE
 1177              		.comm	_ZN12_GLOBAL__N_136testAddingTestSetsHeadToTestInstanceE,56,32
 1178              		.local	_ZN12_GLOBAL__N_129adderTestListIsEmptyByDefaultE
 1179              		.comm	_ZN12_GLOBAL__N_129adderTestListIsEmptyByDefaultE,1,1
 1180              		.local	_ZN12_GLOBAL__N_136testTestListIsEmptyByDefaultInstanceE
 1181              		.comm	_ZN12_GLOBAL__N_136testTestListIsEmptyByDefaultInstanceE,56,32
 1182              		.hidden	__dso_handle
 1183              		.ident	"GCC: (Ubuntu 4.8.4-2ubuntu1~14.04.3) 4.8.4"
 1184              		.section	.note.GNU-stack,"",@progbits