   1              		.file	"TestTimeConstraint.cpp"
   2              		.section	.text._ZN17RecordingReporter13ReportSummaryEiiif,"axG",@progbits,_ZN17RecordingReporter13
   3              		.align 2
   4              		.p2align 4,,15
   5              		.weak	_ZN17RecordingReporter13ReportSummaryEiiif
   7              	_ZN17RecordingReporter13ReportSummaryEiiif:
   8              	.LFB1084:
   9              		.cfi_startproc
  10 0000 89B71C08 		movl	%esi, 2076(%rdi)
  10      0000
  11 0006 89972008 		movl	%edx, 2080(%rdi)
  11      0000
  12 000c F30F1187 		movss	%xmm0, 2088(%rdi)
  12      28080000 
  13 0014 898F2408 		movl	%ecx, 2084(%rdi)
  13      0000
  14 001a C3       		ret
  15              		.cfi_endproc
  16              	.LFE1084:
  18              		.section	.text._ZN17RecordingReporter15ReportTestStartERKN8UnitTest11TestDetailsE,"axG",@progbits,
  19              		.align 2
  20              		.p2align 4,,15
  21              		.weak	_ZN17RecordingReporter15ReportTestStartERKN8UnitTest11TestDetailsE
  23              	_ZN17RecordingReporter15ReportTestStartERKN8UnitTest11TestDetailsE:
  24              	.LFB1081:
  25              		.cfi_startproc
  26 0000 55       		pushq	%rbp
  27              		.cfi_def_cfa_offset 16
  28              		.cfi_offset 6, -16
  29 0001 4889F5   		movq	%rsi, %rbp
  30 0004 BA000100 		movl	$256, %edx
  30      00
  31 0009 53       		pushq	%rbx
  32              		.cfi_def_cfa_offset 24
  33              		.cfi_offset 3, -24
  34 000a 4889FB   		movq	%rdi, %rbx
  35 000d 4883EC08 		subq	$8, %rsp
  36              		.cfi_def_cfa_offset 32
  37 0011 83470801 		addl	$1, 8(%rdi)
  38 0015 488B36   		movq	(%rsi), %rsi
  39 0018 488D7F0C 		leaq	12(%rdi), %rdi
  40 001c E8000000 		call	__strcpy_chk
  40      00
  41 0021 488B7508 		movq	8(%rbp), %rsi
  42 0025 4883C408 		addq	$8, %rsp
  43              		.cfi_def_cfa_offset 24
  44 0029 488DBB0C 		leaq	268(%rbx), %rdi
  44      010000
  45 0030 5B       		popq	%rbx
  46              		.cfi_def_cfa_offset 16
  47 0031 5D       		popq	%rbp
  48              		.cfi_def_cfa_offset 8
  49 0032 BA000100 		movl	$256, %edx
  49      00
  50 0037 E9000000 		jmp	__strcpy_chk
  50      00
  51              		.cfi_endproc
  52              	.LFE1081:
  54              		.section	.text._ZN17RecordingReporter13ReportFailureERKN8UnitTest11TestDetailsEPKc,"axG",@progbits
  55              		.align 2
  56              		.p2align 4,,15
  57              		.weak	_ZN17RecordingReporter13ReportFailureERKN8UnitTest11TestDetailsEPKc
  59              	_ZN17RecordingReporter13ReportFailureERKN8UnitTest11TestDetailsEPKc:
  60              	.LFB1082:
  61              		.cfi_startproc
  62 0000 4154     		pushq	%r12
  63              		.cfi_def_cfa_offset 16
  64              		.cfi_offset 12, -16
  65 0002 4989D4   		movq	%rdx, %r12
  66 0005 BA000100 		movl	$256, %edx
  66      00
  67 000a 55       		pushq	%rbp
  68              		.cfi_def_cfa_offset 24
  69              		.cfi_offset 6, -24
  70 000b 4889F5   		movq	%rsi, %rbp
  71 000e 53       		pushq	%rbx
  72              		.cfi_def_cfa_offset 32
  73              		.cfi_offset 3, -32
  74 000f 83870C02 		addl	$1, 524(%rdi)
  74      000001
  75 0016 4889FB   		movq	%rdi, %rbx
  76 0019 488B7610 		movq	16(%rsi), %rsi
  77 001d 488DBF10 		leaq	528(%rdi), %rdi
  77      020000
  78 0024 E8000000 		call	__strcpy_chk
  78      00
  79 0029 8B4518   		movl	24(%rbp), %eax
  80 002c 488B7500 		movq	0(%rbp), %rsi
  81 0030 488DBB14 		leaq	788(%rbx), %rdi
  81      030000
  82 0037 BA000100 		movl	$256, %edx
  82      00
  83 003c 89831003 		movl	%eax, 784(%rbx)
  83      0000
  84 0042 E8000000 		call	__strcpy_chk
  84      00
  85 0047 488B7508 		movq	8(%rbp), %rsi
  86 004b 488DBB14 		leaq	1044(%rbx), %rdi
  86      040000
  87 0052 BA000100 		movl	$256, %edx
  87      00
  88 0057 E8000000 		call	__strcpy_chk
  88      00
  89 005c 488DBB14 		leaq	1300(%rbx), %rdi
  89      050000
  90 0063 4C89E6   		movq	%r12, %rsi
  91 0066 BA000100 		movl	$256, %edx
  91      00
  92 006b 5B       		popq	%rbx
  93              		.cfi_def_cfa_offset 24
  94 006c 5D       		popq	%rbp
  95              		.cfi_def_cfa_offset 16
  96 006d 415C     		popq	%r12
  97              		.cfi_def_cfa_offset 8
  98 006f E9000000 		jmp	__strcpy_chk
  98      00
  99              		.cfi_endproc
 100              	.LFE1082:
 102              		.section	.text._ZN17RecordingReporter16ReportTestFinishERKN8UnitTest11TestDetailsEf,"axG",@progbit
 103              		.align 2
 104              		.p2align 4,,15
 105              		.weak	_ZN17RecordingReporter16ReportTestFinishERKN8UnitTest11TestDetailsEf
 107              	_ZN17RecordingReporter16ReportTestFinishERKN8UnitTest11TestDetailsEf:
 108              	.LFB1083:
 109              		.cfi_startproc
 110 0000 55       		pushq	%rbp
 111              		.cfi_def_cfa_offset 16
 112              		.cfi_offset 6, -16
 113 0001 4889F5   		movq	%rsi, %rbp
 114 0004 BA000100 		movl	$256, %edx
 114      00
 115 0009 53       		pushq	%rbx
 116              		.cfi_def_cfa_offset 24
 117              		.cfi_offset 3, -24
 118 000a 4889FB   		movq	%rdi, %rbx
 119 000d 4883EC18 		subq	$24, %rsp
 120              		.cfi_def_cfa_offset 48
 121 0011 83871406 		addl	$1, 1556(%rdi)
 121      000001
 122 0018 488B36   		movq	(%rsi), %rsi
 123 001b 488DBF18 		leaq	1560(%rdi), %rdi
 123      060000
 124 0022 F30F1144 		movss	%xmm0, 12(%rsp)
 124      240C
 125 0028 E8000000 		call	__strcpy_chk
 125      00
 126 002d 488B7508 		movq	8(%rbp), %rsi
 127 0031 488DBB18 		leaq	1816(%rbx), %rdi
 127      070000
 128 0038 BA000100 		movl	$256, %edx
 128      00
 129 003d E8000000 		call	__strcpy_chk
 129      00
 130 0042 F30F1044 		movss	12(%rsp), %xmm0
 130      240C
 131 0048 F30F1183 		movss	%xmm0, 2072(%rbx)
 131      18080000 
 132 0050 4883C418 		addq	$24, %rsp
 133              		.cfi_def_cfa_offset 24
 134 0054 5B       		popq	%rbx
 135              		.cfi_def_cfa_offset 16
 136 0055 5D       		popq	%rbp
 137              		.cfi_def_cfa_offset 8
 138 0056 C3       		ret
 139              		.cfi_endproc
 140              	.LFE1083:
 142              		.section	.text._ZN17RecordingReporterD2Ev,"axG",@progbits,_ZN17RecordingReporterD5Ev,comdat
 143              		.align 2
 144              		.p2align 4,,15
 145              		.weak	_ZN17RecordingReporterD2Ev
 147              	_ZN17RecordingReporterD2Ev:
 148              	.LFB1208:
 149              		.cfi_startproc
 150 0000 48C70700 		movq	$_ZTV17RecordingReporter+16, (%rdi)
 150      000000
 151 0007 E9000000 		jmp	_ZN8UnitTest12TestReporterD2Ev
 151      00
 152              		.cfi_endproc
 153              	.LFE1208:
 155              		.weak	_ZN17RecordingReporterD1Ev
 156              		.set	_ZN17RecordingReporterD1Ev,_ZN17RecordingReporterD2Ev
 157              		.section	.text._ZN17RecordingReporterD0Ev,"axG",@progbits,_ZN17RecordingReporterD0Ev,comdat
 158              		.align 2
 159              		.p2align 4,,15
 160              		.weak	_ZN17RecordingReporterD0Ev
 162              	_ZN17RecordingReporterD0Ev:
 163              	.LFB1210:
 164              		.cfi_startproc
 165 0000 53       		pushq	%rbx
 166              		.cfi_def_cfa_offset 16
 167              		.cfi_offset 3, -16
 168 0001 4889FB   		movq	%rdi, %rbx
 169 0004 48C70700 		movq	$_ZTV17RecordingReporter+16, (%rdi)
 169      000000
 170 000b E8000000 		call	_ZN8UnitTest12TestReporterD2Ev
 170      00
 171 0010 4889DF   		movq	%rbx, %rdi
 172 0013 5B       		popq	%rbx
 173              		.cfi_def_cfa_offset 8
 174 0014 E9000000 		jmp	_ZdlPv
 174      00
 175              		.cfi_endproc
 176              	.LFE1210:
 178              		.text
 179              		.align 2
 180              		.p2align 4,,15
 182              	_ZN12_GLOBAL__N_151TestTimeConstraintFailureIncludesTimeoutInformationD2Ev:
 183              	.LFB1192:
 184              		.cfi_startproc
 185 0000 48C70700 		movq	$_ZTVN12_GLOBAL__N_151TestTimeConstraintFailureIncludesTimeoutInformationE+16, (%rdi)
 185      000000
 186 0007 E9000000 		jmp	_ZN8UnitTest4TestD2Ev
 186      00
 187              		.cfi_endproc
 188              	.LFE1192:
 190              		.set	_ZN12_GLOBAL__N_151TestTimeConstraintFailureIncludesTimeoutInformationD1Ev,_ZN12_GLOBAL__N_15
 191              		.align 2
 192 000c 0F1F4000 		.p2align 4,,15
 194              	_ZN12_GLOBAL__N_151TestTimeConstraintFailureIncludesTimeoutInformationD0Ev:
 195              	.LFB1194:
 196              		.cfi_startproc
 197 0010 53       		pushq	%rbx
 198              		.cfi_def_cfa_offset 16
 199              		.cfi_offset 3, -16
 200 0011 4889FB   		movq	%rdi, %rbx
 201 0014 48C70700 		movq	$_ZTVN12_GLOBAL__N_151TestTimeConstraintFailureIncludesTimeoutInformationE+16, (%rdi)
 201      000000
 202 001b E8000000 		call	_ZN8UnitTest4TestD2Ev
 202      00
 203 0020 4889DF   		movq	%rbx, %rdi
 204 0023 5B       		popq	%rbx
 205              		.cfi_def_cfa_offset 8
 206 0024 E9000000 		jmp	_ZdlPv
 206      00
 207              		.cfi_endproc
 208              	.LFE1194:
 210 0029 90       		.align 2
 211 002a 660F1F44 		.p2align 4,,15
 211      0000
 213              	_ZN12_GLOBAL__N_144TestTimeConstraintFailureIncludesCorrectDataD2Ev:
 214              	.LFB1196:
 215              		.cfi_startproc
 216 0030 48C70700 		movq	$_ZTVN12_GLOBAL__N_144TestTimeConstraintFailureIncludesCorrectDataE+16, (%rdi)
 216      000000
 217 0037 E9000000 		jmp	_ZN8UnitTest4TestD2Ev
 217      00
 218              		.cfi_endproc
 219              	.LFE1196:
 221              		.set	_ZN12_GLOBAL__N_144TestTimeConstraintFailureIncludesCorrectDataD1Ev,_ZN12_GLOBAL__N_144TestTi
 222              		.align 2
 223 003c 0F1F4000 		.p2align 4,,15
 225              	_ZN12_GLOBAL__N_144TestTimeConstraintFailureIncludesCorrectDataD0Ev:
 226              	.LFB1198:
 227              		.cfi_startproc
 228 0040 53       		pushq	%rbx
 229              		.cfi_def_cfa_offset 16
 230              		.cfi_offset 3, -16
 231 0041 4889FB   		movq	%rdi, %rbx
 232 0044 48C70700 		movq	$_ZTVN12_GLOBAL__N_144TestTimeConstraintFailureIncludesCorrectDataE+16, (%rdi)
 232      000000
 233 004b E8000000 		call	_ZN8UnitTest4TestD2Ev
 233      00
 234 0050 4889DF   		movq	%rbx, %rdi
 235 0053 5B       		popq	%rbx
 236              		.cfi_def_cfa_offset 8
 237 0054 E9000000 		jmp	_ZdlPv
 237      00
 238              		.cfi_endproc
 239              	.LFE1198:
 241 0059 90       		.align 2
 242 005a 660F1F44 		.p2align 4,,15
 242      0000
 244              	_ZN12_GLOBAL__N_135TestTimeConstraintFailsWithSlowTestD2Ev:
 245              	.LFB1200:
 246              		.cfi_startproc
 247 0060 48C70700 		movq	$_ZTVN12_GLOBAL__N_135TestTimeConstraintFailsWithSlowTestE+16, (%rdi)
 247      000000
 248 0067 E9000000 		jmp	_ZN8UnitTest4TestD2Ev
 248      00
 249              		.cfi_endproc
 250              	.LFE1200:
 252              		.set	_ZN12_GLOBAL__N_135TestTimeConstraintFailsWithSlowTestD1Ev,_ZN12_GLOBAL__N_135TestTimeConstra
 253              		.align 2
 254 006c 0F1F4000 		.p2align 4,,15
 256              	_ZN12_GLOBAL__N_135TestTimeConstraintFailsWithSlowTestD0Ev:
 257              	.LFB1202:
 258              		.cfi_startproc
 259 0070 53       		pushq	%rbx
 260              		.cfi_def_cfa_offset 16
 261              		.cfi_offset 3, -16
 262 0071 4889FB   		movq	%rdi, %rbx
 263 0074 48C70700 		movq	$_ZTVN12_GLOBAL__N_135TestTimeConstraintFailsWithSlowTestE+16, (%rdi)
 263      000000
 264 007b E8000000 		call	_ZN8UnitTest4TestD2Ev
 264      00
 265 0080 4889DF   		movq	%rbx, %rdi
 266 0083 5B       		popq	%rbx
 267              		.cfi_def_cfa_offset 8
 268 0084 E9000000 		jmp	_ZdlPv
 268      00
 269              		.cfi_endproc
 270              	.LFE1202:
 272 0089 90       		.align 2
 273 008a 660F1F44 		.p2align 4,,15
 273      0000
 275              	_ZN12_GLOBAL__N_138TestTimeConstraintSucceedsWithFastTestD2Ev:
 276              	.LFB1204:
 277              		.cfi_startproc
 278 0090 48C70700 		movq	$_ZTVN12_GLOBAL__N_138TestTimeConstraintSucceedsWithFastTestE+16, (%rdi)
 278      000000
 279 0097 E9000000 		jmp	_ZN8UnitTest4TestD2Ev
 279      00
 280              		.cfi_endproc
 281              	.LFE1204:
 283              		.set	_ZN12_GLOBAL__N_138TestTimeConstraintSucceedsWithFastTestD1Ev,_ZN12_GLOBAL__N_138TestTimeCons
 284              		.align 2
 285 009c 0F1F4000 		.p2align 4,,15
 287              	_ZN12_GLOBAL__N_138TestTimeConstraintSucceedsWithFastTestD0Ev:
 288              	.LFB1206:
 289              		.cfi_startproc
 290 00a0 53       		pushq	%rbx
 291              		.cfi_def_cfa_offset 16
 292              		.cfi_offset 3, -16
 293 00a1 4889FB   		movq	%rdi, %rbx
 294 00a4 48C70700 		movq	$_ZTVN12_GLOBAL__N_138TestTimeConstraintSucceedsWithFastTestE+16, (%rdi)
 294      000000
 295 00ab E8000000 		call	_ZN8UnitTest4TestD2Ev
 295      00
 296 00b0 4889DF   		movq	%rbx, %rdi
 297 00b3 5B       		popq	%rbx
 298              		.cfi_def_cfa_offset 8
 299 00b4 E9000000 		jmp	_ZdlPv
 299      00
 300              		.cfi_endproc
 301              	.LFE1206:
 303              		.section	.text.unlikely,"ax",@progbits
 305              	_ZStlsISt11char_traitsIcEERSt13basic_ostreamIcT_ES5_PKc.part.1:
 306              	.LFB1214:
 307              		.cfi_startproc
 308 0000 50       		pushq	%rax
 309              		.cfi_def_cfa_offset 16
 310 0001 488B07   		movq	(%rdi), %rax
 311 0004 480378E8 		addq	-24(%rax), %rdi
 312 0008 8B7720   		movl	32(%rdi), %esi
 313 000b 83CE01   		orl	$1, %esi
 314 000e E8000000 		call	_ZNSt9basic_iosIcSt11char_traitsIcEE5clearESt12_Ios_Iostate
 314      00
 315 0013 5A       		popq	%rdx
 316              		.cfi_def_cfa_offset 8
 317 0014 C3       		ret
 318              		.cfi_endproc
 319              	.LFE1214:
 321              		.section	.text._ZNSt15basic_stringbufIcSt11char_traitsIcESaIcEED2Ev,"axG",@progbits,_ZNSt15basic_s
 322              		.align 2
 323              		.p2align 4,,15
 324              		.weak	_ZNSt15basic_stringbufIcSt11char_traitsIcESaIcEED2Ev
 326              	_ZNSt15basic_stringbufIcSt11char_traitsIcESaIcEED2Ev:
 327              	.LFB1119:
 328              		.cfi_startproc
 329 0000 53       		pushq	%rbx
 330              		.cfi_def_cfa_offset 16
 331              		.cfi_offset 3, -16
 332 0001 4889FB   		movq	%rdi, %rbx
 333 0004 4883EC10 		subq	$16, %rsp
 334              		.cfi_def_cfa_offset 32
 335 0008 488B4748 		movq	72(%rdi), %rax
 336 000c 48C70700 		movq	$_ZTVSt15basic_stringbufIcSt11char_traitsIcESaIcEE+16, (%rdi)
 336      000000
 337 0013 488D78E8 		leaq	-24(%rax), %rdi
 338 0017 4881FF00 		cmpq	$_ZNSs4_Rep20_S_empty_rep_storageE, %rdi
 338      000000
 339 001e 7516     		jne	.L33
 340              	.L27:
 341 0020 488D7B38 		leaq	56(%rbx), %rdi
 342 0024 48C70300 		movq	$_ZTVSt15basic_streambufIcSt11char_traitsIcEE+16, (%rbx)
 342      000000
 343 002b E8000000 		call	_ZNSt6localeD1Ev
 343      00
 344 0030 4883C410 		addq	$16, %rsp
 345              		.cfi_remember_state
 346              		.cfi_def_cfa_offset 16
 347 0034 5B       		popq	%rbx
 348              		.cfi_def_cfa_offset 8
 349 0035 C3       		ret
 350              	.L33:
 351              		.cfi_restore_state
 352 0036 B9000000 		movl	$_ZL28__gthrw___pthread_key_createPjPFvPvE, %ecx
 352      00
 353 003b 488D5710 		leaq	16(%rdi), %rdx
 354 003f 4885C9   		testq	%rcx, %rcx
 355 0042 7417     		je	.L28
 356 0044 83C8FF   		orl	$-1, %eax
 357 0047 F00FC102 		lock xaddl	%eax, (%rdx)
 358              	.L29:
 359 004b 85C0     		testl	%eax, %eax
 360 004d 7FD1     		jg	.L27
 361 004f 488D7424 		leaq	15(%rsp), %rsi
 361      0F
 362 0054 E8000000 		call	_ZNSs4_Rep10_M_destroyERKSaIcE
 362      00
 363 0059 EBC5     		jmp	.L27
 364              	.L28:
 365 005b 8B50F8   		movl	-8(%rax), %edx
 366 005e 8D4AFF   		leal	-1(%rdx), %ecx
 367 0061 8948F8   		movl	%ecx, -8(%rax)
 368 0064 89D0     		movl	%edx, %eax
 369 0066 EBE3     		jmp	.L29
 370              		.cfi_endproc
 371              	.LFE1119:
 373              		.weak	_ZNSt15basic_stringbufIcSt11char_traitsIcESaIcEED1Ev
 374              		.set	_ZNSt15basic_stringbufIcSt11char_traitsIcESaIcEED1Ev,_ZNSt15basic_stringbufIcSt11char_traitsI
 375              		.section	.text._ZNSt15basic_stringbufIcSt11char_traitsIcESaIcEED0Ev,"axG",@progbits,_ZNSt15basic_s
 376              		.align 2
 377              		.p2align 4,,15
 378              		.weak	_ZNSt15basic_stringbufIcSt11char_traitsIcESaIcEED0Ev
 380              	_ZNSt15basic_stringbufIcSt11char_traitsIcESaIcEED0Ev:
 381              	.LFB1121:
 382              		.cfi_startproc
 383 0000 53       		pushq	%rbx
 384              		.cfi_def_cfa_offset 16
 385              		.cfi_offset 3, -16
 386 0001 4889FB   		movq	%rdi, %rbx
 387 0004 4883EC10 		subq	$16, %rsp
 388              		.cfi_def_cfa_offset 32
 389 0008 488B4748 		movq	72(%rdi), %rax
 390 000c 48C70700 		movq	$_ZTVSt15basic_stringbufIcSt11char_traitsIcESaIcEE+16, (%rdi)
 390      000000
 391 0013 488D78E8 		leaq	-24(%rax), %rdi
 392 0017 4881FF00 		cmpq	$_ZNSs4_Rep20_S_empty_rep_storageE, %rdi
 392      000000
 393 001e 751E     		jne	.L41
 394              	.L36:
 395 0020 488D7B38 		leaq	56(%rbx), %rdi
 396 0024 48C70300 		movq	$_ZTVSt15basic_streambufIcSt11char_traitsIcEE+16, (%rbx)
 396      000000
 397 002b E8000000 		call	_ZNSt6localeD1Ev
 397      00
 398 0030 4889DF   		movq	%rbx, %rdi
 399 0033 E8000000 		call	_ZdlPv
 399      00
 400 0038 4883C410 		addq	$16, %rsp
 401              		.cfi_remember_state
 402              		.cfi_def_cfa_offset 16
 403 003c 5B       		popq	%rbx
 404              		.cfi_def_cfa_offset 8
 405 003d C3       		ret
 406              	.L41:
 407              		.cfi_restore_state
 408 003e B9000000 		movl	$_ZL28__gthrw___pthread_key_createPjPFvPvE, %ecx
 408      00
 409 0043 488D5710 		leaq	16(%rdi), %rdx
 410 0047 4885C9   		testq	%rcx, %rcx
 411 004a 7417     		je	.L37
 412 004c 83C8FF   		orl	$-1, %eax
 413 004f F00FC102 		lock xaddl	%eax, (%rdx)
 414              	.L38:
 415 0053 85C0     		testl	%eax, %eax
 416 0055 7FC9     		jg	.L36
 417 0057 488D7424 		leaq	15(%rsp), %rsi
 417      0F
 418 005c E8000000 		call	_ZNSs4_Rep10_M_destroyERKSaIcE
 418      00
 419 0061 EBBD     		jmp	.L36
 420              	.L37:
 421 0063 8B50F8   		movl	-8(%rax), %edx
 422 0066 8D4AFF   		leal	-1(%rdx), %ecx
 423 0069 8948F8   		movl	%ecx, -8(%rax)
 424 006c 89D0     		movl	%edx, %eax
 425 006e EBE3     		jmp	.L38
 426              		.cfi_endproc
 427              	.LFE1121:
 429              		.section	.text._ZN8UnitTest15MemoryOutStreamD1Ev,"axG",@progbits,_ZN8UnitTest15MemoryOutStreamD1Ev
 430              		.align 2
 431              		.p2align 4,,15
 432              		.weak	_ZN8UnitTest15MemoryOutStreamD1Ev
 434              	_ZN8UnitTest15MemoryOutStreamD1Ev:
 435              	.LFB1140:
 436              		.cfi_startproc
 437 0000 53       		pushq	%rbx
 438              		.cfi_def_cfa_offset 16
 439              		.cfi_offset 3, -16
 440 0001 4889FB   		movq	%rdi, %rbx
 441 0004 4883EC10 		subq	$16, %rsp
 442              		.cfi_def_cfa_offset 32
 443 0008 488B4758 		movq	88(%rdi), %rax
 444 000c 48C70700 		movq	$_ZTVN8UnitTest15MemoryOutStreamE+24, (%rdi)
 444      000000
 445 0013 48C74760 		movq	$_ZTVN8UnitTest15MemoryOutStreamE+64, 96(%rdi)
 445      00000000 
 446 001b 488D78E8 		leaq	-24(%rax), %rdi
 447 001f 4881FF00 		cmpq	$_ZNSs4_Rep20_S_empty_rep_storageE, %rdi
 447      000000
 448 0026 7557     		jne	.L54
 449              	.L44:
 450 0028 488B4350 		movq	80(%rbx), %rax
 451 002c 48C70300 		movq	$_ZTCN8UnitTest15MemoryOutStreamE0_St19basic_ostringstreamIcSt11char_traitsIcESaIcEE+24, (%rb
 451      000000
 452 0033 48C74360 		movq	$_ZTCN8UnitTest15MemoryOutStreamE0_St19basic_ostringstreamIcSt11char_traitsIcESaIcEE+64, 96(%
 452      00000000 
 453 003b 48C74308 		movq	$_ZTVSt15basic_stringbufIcSt11char_traitsIcESaIcEE+16, 8(%rbx)
 453      00000000 
 454 0043 488D78E8 		leaq	-24(%rax), %rdi
 455 0047 4881FF00 		cmpq	$_ZNSs4_Rep20_S_empty_rep_storageE, %rdi
 455      000000
 456 004e 7554     		jne	.L55
 457              	.L49:
 458 0050 488D7B40 		leaq	64(%rbx), %rdi
 459 0054 48C74308 		movq	$_ZTVSt15basic_streambufIcSt11char_traitsIcEE+16, 8(%rbx)
 459      00000000 
 460 005c E8000000 		call	_ZNSt6localeD1Ev
 460      00
 461 0061 488D7B60 		leaq	96(%rbx), %rdi
 462 0065 48C70300 		movq	$_ZTCN8UnitTest15MemoryOutStreamE0_So+24, (%rbx)
 462      000000
 463 006c 48C74360 		movq	$_ZTVSt9basic_iosIcSt11char_traitsIcEE+16, 96(%rbx)
 463      00000000 
 464 0074 E8000000 		call	_ZNSt8ios_baseD2Ev
 464      00
 465 0079 4883C410 		addq	$16, %rsp
 466              		.cfi_remember_state
 467              		.cfi_def_cfa_offset 16
 468 007d 5B       		popq	%rbx
 469              		.cfi_def_cfa_offset 8
 470 007e C3       		ret
 471              	.L54:
 472              		.cfi_restore_state
 473 007f B9000000 		movl	$_ZL28__gthrw___pthread_key_createPjPFvPvE, %ecx
 473      00
 474 0084 488D5710 		leaq	16(%rdi), %rdx
 475 0088 4885C9   		testq	%rcx, %rcx
 476 008b 743C     		je	.L45
 477 008d 83C8FF   		orl	$-1, %eax
 478 0090 F00FC102 		lock xaddl	%eax, (%rdx)
 479              	.L46:
 480 0094 85C0     		testl	%eax, %eax
 481 0096 7F90     		jg	.L44
 482 0098 488D7424 		leaq	15(%rsp), %rsi
 482      0F
 483 009d E8000000 		call	_ZNSs4_Rep10_M_destroyERKSaIcE
 483      00
 484 00a2 EB84     		jmp	.L44
 485              	.L55:
 486 00a4 B9000000 		movl	$_ZL28__gthrw___pthread_key_createPjPFvPvE, %ecx
 486      00
 487 00a9 488D5710 		leaq	16(%rdi), %rdx
 488 00ad 4885C9   		testq	%rcx, %rcx
 489 00b0 7424     		je	.L50
 490 00b2 83C8FF   		orl	$-1, %eax
 491 00b5 F00FC102 		lock xaddl	%eax, (%rdx)
 492              	.L51:
 493 00b9 85C0     		testl	%eax, %eax
 494 00bb 7F93     		jg	.L49
 495 00bd 488D7424 		leaq	15(%rsp), %rsi
 495      0F
 496 00c2 E8000000 		call	_ZNSs4_Rep10_M_destroyERKSaIcE
 496      00
 497 00c7 EB87     		jmp	.L49
 498              	.L45:
 499 00c9 8B50F8   		movl	-8(%rax), %edx
 500 00cc 8D4AFF   		leal	-1(%rdx), %ecx
 501 00cf 8948F8   		movl	%ecx, -8(%rax)
 502 00d2 89D0     		movl	%edx, %eax
 503 00d4 EBBE     		jmp	.L46
 504              	.L50:
 505 00d6 8B50F8   		movl	-8(%rax), %edx
 506 00d9 8D4AFF   		leal	-1(%rdx), %ecx
 507 00dc 8948F8   		movl	%ecx, -8(%rax)
 508 00df 89D0     		movl	%edx, %eax
 509 00e1 EBD6     		jmp	.L51
 510              		.cfi_endproc
 511              	.LFE1140:
 513              		.set	.LTHUNK0,_ZN8UnitTest15MemoryOutStreamD1Ev
 514 00e3 66666666 		.p2align 4,,15
 514      2E0F1F84 
 514      00000000 
 514      00
 515              		.weak	_ZTv0_n24_N8UnitTest15MemoryOutStreamD1Ev
 517              	_ZTv0_n24_N8UnitTest15MemoryOutStreamD1Ev:
 518              	.LFB1222:
 519              		.cfi_startproc
 520 00f0 4C8B17   		movq	(%rdi), %r10
 521 00f3 49037AE8 		addq	-24(%r10), %rdi
 522 00f7 E904FFFF 		jmp	.LTHUNK0
 522      FF
 523              		.cfi_endproc
 524              	.LFE1222:
 526              		.section	.text._ZN8UnitTest15MemoryOutStreamD0Ev,"axG",@progbits,_ZN8UnitTest15MemoryOutStreamD0Ev
 527              		.align 2
 528              		.p2align 4,,15
 529              		.weak	_ZN8UnitTest15MemoryOutStreamD0Ev
 531              	_ZN8UnitTest15MemoryOutStreamD0Ev:
 532              	.LFB1141:
 533              		.cfi_startproc
 534 0000 53       		pushq	%rbx
 535              		.cfi_def_cfa_offset 16
 536              		.cfi_offset 3, -16
 537 0001 4889FB   		movq	%rdi, %rbx
 538 0004 4883EC10 		subq	$16, %rsp
 539              		.cfi_def_cfa_offset 32
 540 0008 488B4758 		movq	88(%rdi), %rax
 541 000c 48C70700 		movq	$_ZTVN8UnitTest15MemoryOutStreamE+24, (%rdi)
 541      000000
 542 0013 48C74760 		movq	$_ZTVN8UnitTest15MemoryOutStreamE+64, 96(%rdi)
 542      00000000 
 543 001b 488D78E8 		leaq	-24(%rax), %rdi
 544 001f 4881FF00 		cmpq	$_ZNSs4_Rep20_S_empty_rep_storageE, %rdi
 544      000000
 545 0026 755F     		jne	.L68
 546              	.L58:
 547 0028 488B4350 		movq	80(%rbx), %rax
 548 002c 48C70300 		movq	$_ZTCN8UnitTest15MemoryOutStreamE0_St19basic_ostringstreamIcSt11char_traitsIcESaIcEE+24, (%rb
 548      000000
 549 0033 48C74360 		movq	$_ZTCN8UnitTest15MemoryOutStreamE0_St19basic_ostringstreamIcSt11char_traitsIcESaIcEE+64, 96(%
 549      00000000 
 550 003b 48C74308 		movq	$_ZTVSt15basic_stringbufIcSt11char_traitsIcESaIcEE+16, 8(%rbx)
 550      00000000 
 551 0043 488D78E8 		leaq	-24(%rax), %rdi
 552 0047 4881FF00 		cmpq	$_ZNSs4_Rep20_S_empty_rep_storageE, %rdi
 552      000000
 553 004e 755F     		jne	.L69
 554              	.L63:
 555 0050 488D7B40 		leaq	64(%rbx), %rdi
 556 0054 48C74308 		movq	$_ZTVSt15basic_streambufIcSt11char_traitsIcEE+16, 8(%rbx)
 556      00000000 
 557 005c E8000000 		call	_ZNSt6localeD1Ev
 557      00
 558 0061 488D7B60 		leaq	96(%rbx), %rdi
 559 0065 48C70300 		movq	$_ZTCN8UnitTest15MemoryOutStreamE0_So+24, (%rbx)
 559      000000
 560 006c 48C74360 		movq	$_ZTVSt9basic_iosIcSt11char_traitsIcEE+16, 96(%rbx)
 560      00000000 
 561 0074 E8000000 		call	_ZNSt8ios_baseD2Ev
 561      00
 562 0079 4889DF   		movq	%rbx, %rdi
 563 007c E8000000 		call	_ZdlPv
 563      00
 564 0081 4883C410 		addq	$16, %rsp
 565              		.cfi_remember_state
 566              		.cfi_def_cfa_offset 16
 567 0085 5B       		popq	%rbx
 568              		.cfi_def_cfa_offset 8
 569 0086 C3       		ret
 570              	.L68:
 571              		.cfi_restore_state
 572 0087 B9000000 		movl	$_ZL28__gthrw___pthread_key_createPjPFvPvE, %ecx
 572      00
 573 008c 488D5710 		leaq	16(%rdi), %rdx
 574 0090 4885C9   		testq	%rcx, %rcx
 575 0093 7442     		je	.L59
 576 0095 83C8FF   		orl	$-1, %eax
 577 0098 F00FC102 		lock xaddl	%eax, (%rdx)
 578              	.L60:
 579 009c 85C0     		testl	%eax, %eax
 580 009e 7F88     		jg	.L58
 581 00a0 488D7424 		leaq	15(%rsp), %rsi
 581      0F
 582 00a5 E8000000 		call	_ZNSs4_Rep10_M_destroyERKSaIcE
 582      00
 583 00aa E979FFFF 		jmp	.L58
 583      FF
 584              	.L69:
 585 00af B9000000 		movl	$_ZL28__gthrw___pthread_key_createPjPFvPvE, %ecx
 585      00
 586 00b4 488D5710 		leaq	16(%rdi), %rdx
 587 00b8 4885C9   		testq	%rcx, %rcx
 588 00bb 7427     		je	.L64
 589 00bd 83C8FF   		orl	$-1, %eax
 590 00c0 F00FC102 		lock xaddl	%eax, (%rdx)
 591              	.L65:
 592 00c4 85C0     		testl	%eax, %eax
 593 00c6 7F88     		jg	.L63
 594 00c8 488D7424 		leaq	15(%rsp), %rsi
 594      0F
 595 00cd E8000000 		call	_ZNSs4_Rep10_M_destroyERKSaIcE
 595      00
 596 00d2 E979FFFF 		jmp	.L63
 596      FF
 597              	.L59:
 598 00d7 8B50F8   		movl	-8(%rax), %edx
 599 00da 8D4AFF   		leal	-1(%rdx), %ecx
 600 00dd 8948F8   		movl	%ecx, -8(%rax)
 601 00e0 89D0     		movl	%edx, %eax
 602 00e2 EBB8     		jmp	.L60
 603              	.L64:
 604 00e4 8B50F8   		movl	-8(%rax), %edx
 605 00e7 8D4AFF   		leal	-1(%rdx), %ecx
 606 00ea 8948F8   		movl	%ecx, -8(%rax)
 607 00ed 89D0     		movl	%edx, %eax
 608 00ef EBD3     		jmp	.L65
 609              		.cfi_endproc
 610              	.LFE1141:
 612              		.set	.LTHUNK1,_ZN8UnitTest15MemoryOutStreamD0Ev
 613 00f1 66666666 		.p2align 4,,15
 613      66662E0F 
 613      1F840000 
 613      000000
 614              		.weak	_ZTv0_n24_N8UnitTest15MemoryOutStreamD0Ev
 616              	_ZTv0_n24_N8UnitTest15MemoryOutStreamD0Ev:
 617              	.LFB1223:
 618              		.cfi_startproc
 619 0100 4C8B17   		movq	(%rdi), %r10
 620 0103 49037AE8 		addq	-24(%r10), %rdi
 621 0107 E9F4FEFF 		jmp	.LTHUNK1
 621      FF
 622              		.cfi_endproc
 623              	.LFE1223:
 625              		.section	.text._ZN17ScopedCurrentTestD2Ev,"axG",@progbits,_ZN17ScopedCurrentTestD5Ev,comdat
 626              		.align 2
 627              		.p2align 4,,15
 628              		.weak	_ZN17ScopedCurrentTestD2Ev
 630              	_ZN17ScopedCurrentTestD2Ev:
 631              	.LFB1092:
 632              		.cfi_startproc
 633 0000 53       		pushq	%rbx
 634              		.cfi_def_cfa_offset 16
 635              		.cfi_offset 3, -16
 636 0001 4889FB   		movq	%rdi, %rbx
 637 0004 E8000000 		call	_ZN8UnitTest11CurrentTest7ResultsEv
 637      00
 638 0009 488B13   		movq	(%rbx), %rdx
 639 000c 488910   		movq	%rdx, (%rax)
 640 000f E8000000 		call	_ZN8UnitTest11CurrentTest7DetailsEv
 640      00
 641 0014 488B5308 		movq	8(%rbx), %rdx
 642 0018 488910   		movq	%rdx, (%rax)
 643 001b 5B       		popq	%rbx
 644              		.cfi_def_cfa_offset 8
 645 001c C3       		ret
 646              		.cfi_endproc
 647              	.LFE1092:
 649              		.weak	_ZN17ScopedCurrentTestD1Ev
 650              		.set	_ZN17ScopedCurrentTestD1Ev,_ZN17ScopedCurrentTestD2Ev
 651              		.section	.rodata.str1.1,"aMS",@progbits,1
 652              	.LC1:
 653 0000 00       		.string	""
 654              	.LC2:
 655 0001 696D6520 		.string	"ime constraint"
 655      636F6E73 
 655      74726169 
 655      6E7400
 656              		.section	.rodata.str1.8,"aMS",@progbits,1
 657              		.align 8
 658              	.LC3:
 659 0000 73747273 		.string	"strstr(reporter.lastFailedMessage, \"ime constraint\")"
 659      74722872 
 659      65706F72 
 659      7465722E 
 659      6C617374 
 660              		.section	.rodata.str1.1
 661              	.LC4:
 662 0010 756E6465 		.string	"under 10ms"
 662      72203130 
 662      6D7300
 663              		.section	.rodata.str1.8
 664 0035 000000   		.align 8
 665              	.LC5:
 666 0038 73747273 		.string	"strstr(reporter.lastFailedMessage, \"under 10ms\")"
 666      74722872 
 666      65706F72 
 666      7465722E 
 666      6C617374 
 667 0069 00000000 		.align 8
 667      000000
 668              	.LC6:
 669 0070 556E6861 		.string	"Unhandled exception in CHECK(strstr(reporter.lastFailedMessage, \"ime constraint\"))"
 669      6E646C65 
 669      64206578 
 669      63657074 
 669      696F6E20 
 670 00c3 00000000 		.align 8
 670      00
 671              	.LC7:
 672 00c8 556E6861 		.string	"Unhandled exception in CHECK(strstr(reporter.lastFailedMessage, \"under 10ms\"))"
 672      6E646C65 
 672      64206578 
 672      63657074 
 672      696F6E20 
 673              		.text
 674 00b9 90       		.align 2
 675 00ba 660F1F44 		.p2align 4,,15
 675      0000
 677              	_ZNK12_GLOBAL__N_151TestTimeConstraintFailureIncludesTimeoutInformation7RunImplEv:
 678              	.LFB1109:
 679              		.cfi_startproc
 680              		.cfi_personality 0x3,__gxx_personality_v0
 681              		.cfi_lsda 0x3,.LLSDA1109
 682 00c0 53       		pushq	%rbx
 683              		.cfi_def_cfa_offset 16
 684              		.cfi_offset 3, -16
 685 00c1 4881ECB0 		subq	$2224, %rsp
 685      080000
 686              		.cfi_def_cfa_offset 2240
 687 00c8 488D5C24 		leaq	16(%rsp), %rbx
 687      10
 688 00cd 488D7424 		leaq	112(%rsp), %rsi
 688      70
 689 00d2 48C74424 		movq	$_ZTV17RecordingReporter+16, 112(%rsp)
 689      70000000 
 689      00
 690 00db 64488B04 		movq	%fs:40, %rax
 690      25280000 
 690      00
 691 00e4 48898424 		movq	%rax, 2216(%rsp)
 691      A8080000 
 692 00ec 31C0     		xorl	%eax, %eax
 693 00ee 4889DF   		movq	%rbx, %rdi
 694 00f1 C7442478 		movl	$0, 120(%rsp)
 694      00000000 
 695 00f9 C784247C 		movl	$0, 636(%rsp)
 695      02000000 
 695      000000
 696 0104 C7842480 		movl	$0, 896(%rsp)
 696      03000000 
 696      000000
 697 010f C7842484 		movl	$0, 1668(%rsp)
 697      06000000 
 697      000000
 698 011a C7842488 		movl	$0x00000000, 2184(%rsp)
 698      08000000 
 698      000000
 699 0125 C784248C 		movl	$0, 2188(%rsp)
 699      08000000 
 699      000000
 700 0130 C7842490 		movl	$0, 2192(%rsp)
 700      08000000 
 700      000000
 701 013b C7842494 		movl	$0, 2196(%rsp)
 701      08000000 
 701      000000
 702 0146 C7842498 		movl	$0x00000000, 2200(%rsp)
 702      08000000 
 702      000000
 703 0151 C644247C 		movb	$0, 124(%rsp)
 703      00
 704 0156 C684247C 		movb	$0, 380(%rsp)
 704      01000000 
 705 015e C6842480 		movb	$0, 640(%rsp)
 705      02000000 
 706 0166 C6842484 		movb	$0, 900(%rsp)
 706      03000000 
 707 016e C6842484 		movb	$0, 1156(%rsp)
 707      04000000 
 708 0176 C6842484 		movb	$0, 1412(%rsp)
 708      05000000 
 709 017e C6842488 		movb	$0, 1672(%rsp)
 709      06000000 
 710 0186 C6842488 		movb	$0, 1928(%rsp)
 710      07000000 
 711              	.LEHB0:
 712 018e E8000000 		call	_ZN8UnitTest11TestResultsC1EPNS_12TestReporterE
 712      00
 713 0193 E8000000 		call	_ZN8UnitTest11CurrentTest7ResultsEv
 713      00
 714 0198 488B00   		movq	(%rax), %rax
 715 019b 48890424 		movq	%rax, (%rsp)
 716 019f E8000000 		call	_ZN8UnitTest11CurrentTest7DetailsEv
 716      00
 717 01a4 488B00   		movq	(%rax), %rax
 718 01a7 48894424 		movq	%rax, 8(%rsp)
 718      08
 719 01ac E8000000 		call	_ZN8UnitTest11CurrentTest7ResultsEv
 719      00
 720              	.LEHE0:
 721 01b1 B9000000 		movl	$.LC1, %ecx
 721      00
 722 01b6 488D7C24 		leaq	80(%rsp), %rdi
 722      50
 723 01bb 488918   		movq	%rbx, (%rax)
 724 01be 4531C0   		xorl	%r8d, %r8d
 725 01c1 4889CA   		movq	%rcx, %rdx
 726 01c4 4889CE   		movq	%rcx, %rsi
 727              	.LEHB1:
 728 01c7 E8000000 		call	_ZN8UnitTest11TestDetailsC1EPKcS2_S2_i
 728      00
 729 01cc 488D5424 		leaq	80(%rsp), %rdx
 729      50
 730 01d1 488D7C24 		leaq	48(%rsp), %rdi
 730      30
 731 01d6 BE0A0000 		movl	$10, %esi
 731      00
 732 01db E8000000 		call	_ZN8UnitTest14TimeConstraintC1EiRKNS_11TestDetailsE
 732      00
 733              	.LEHE1:
 734 01e0 BF140000 		movl	$20, %edi
 734      00
 735              	.LEHB2:
 736 01e5 E8000000 		call	_ZN8UnitTest11TimeHelpers7SleepMsEi
 736      00
 737              	.LEHE2:
 738 01ea 488D7C24 		leaq	48(%rsp), %rdi
 738      30
 739              	.LEHB3:
 740 01ef E8000000 		call	_ZN8UnitTest14TimeConstraintD1Ev
 740      00
 741              	.LEHE3:
 742              	.LEHB4:
 743 01f4 E8000000 		call	_ZN8UnitTest11CurrentTest7ResultsEv
 743      00
 744 01f9 488B1424 		movq	(%rsp), %rdx
 745 01fd 488910   		movq	%rdx, (%rax)
 746 0200 E8000000 		call	_ZN8UnitTest11CurrentTest7DetailsEv
 746      00
 747              	.LEHE4:
 748 0205 488B5424 		movq	8(%rsp), %rdx
 748      08
 749 020a 488DBC24 		leaq	1412(%rsp), %rdi
 749      84050000 
 750 0212 BE000000 		movl	$.LC2, %esi
 750      00
 751 0217 488910   		movq	%rdx, (%rax)
 752 021a E8000000 		call	strstr
 752      00
 753 021f 4885C0   		testq	%rax, %rax
 754 0222 747C     		je	.L96
 755              	.L74:
 756 0224 488DBC24 		leaq	1412(%rsp), %rdi
 756      84050000 
 757 022c BE000000 		movl	$.LC4, %esi
 757      00
 758 0231 E8000000 		call	strstr
 758      00
 759 0236 4885C0   		testq	%rax, %rax
 760 0239 7435     		je	.L97
 761              	.L76:
 762 023b 488D7C24 		leaq	112(%rsp), %rdi
 762      70
 763 0240 48C74424 		movq	$_ZTV17RecordingReporter+16, 112(%rsp)
 763      70000000 
 763      00
 764              	.LEHB5:
 765 0249 E8000000 		call	_ZN8UnitTest12TestReporterD2Ev
 765      00
 766              	.LEHE5:
 767 024e 488B8424 		movq	2216(%rsp), %rax
 767      A8080000 
 768 0256 64483304 		xorq	%fs:40, %rax
 768      25280000 
 768      00
 769 025f 7572     		jne	.L98
 770 0261 4881C4B0 		addq	$2224, %rsp
 770      080000
 771              		.cfi_remember_state
 772              		.cfi_def_cfa_offset 16
 773 0268 5B       		popq	%rbx
 774              		.cfi_def_cfa_offset 8
 775 0269 C3       		ret
 776 026a 660F1F44 		.p2align 4,,10
 776      0000
 777              		.p2align 3
 778              	.L97:
 779              		.cfi_restore_state
 780              	.LEHB6:
 781 0270 E8000000 		call	_ZN8UnitTest11CurrentTest7DetailsEv
 781      00
 782 0275 488B30   		movq	(%rax), %rsi
 783 0278 488D7C24 		leaq	80(%rsp), %rdi
 783      50
 784 027d BA420000 		movl	$66, %edx
 784      00
 785 0282 E8000000 		call	_ZN8UnitTest11TestDetailsC1ERKS0_i
 785      00
 786 0287 E8000000 		call	_ZN8UnitTest11CurrentTest7ResultsEv
 786      00
 787 028c 488B38   		movq	(%rax), %rdi
 788 028f 488D7424 		leaq	80(%rsp), %rsi
 788      50
 789 0294 BA000000 		movl	$.LC5, %edx
 789      00
 790 0299 E8000000 		call	_ZN8UnitTest11TestResults13OnTestFailureERKNS_11TestDetailsEPKc
 790      00
 791              	.LEHE6:
 792 029e EB9B     		jmp	.L76
 793              		.p2align 4,,10
 794              		.p2align 3
 795              	.L96:
 796              	.LEHB7:
 797 02a0 E8000000 		call	_ZN8UnitTest11CurrentTest7DetailsEv
 797      00
 798 02a5 488B30   		movq	(%rax), %rsi
 799 02a8 488D7C24 		leaq	80(%rsp), %rdi
 799      50
 800 02ad BA410000 		movl	$65, %edx
 800      00
 801 02b2 E8000000 		call	_ZN8UnitTest11TestDetailsC1ERKS0_i
 801      00
 802 02b7 E8000000 		call	_ZN8UnitTest11CurrentTest7ResultsEv
 802      00
 803 02bc 488B38   		movq	(%rax), %rdi
 804 02bf 488D7424 		leaq	80(%rsp), %rsi
 804      50
 805 02c4 BA000000 		movl	$.LC3, %edx
 805      00
 806 02c9 E8000000 		call	_ZN8UnitTest11TestResults13OnTestFailureERKNS_11TestDetailsEPKc
 806      00
 807              	.LEHE7:
 808 02ce E951FFFF 		jmp	.L74
 808      FF
 809              	.L98:
 810 02d3 E8000000 		call	__stack_chk_fail
 810      00
 811              	.L90:
 812 02d8 4889C7   		movq	%rax, %rdi
 813 02db 0F1F4400 		.p2align 4,,5
 813      00
 814 02e0 E8000000 		call	__cxa_begin_catch
 814      00
 815              	.LEHB8:
 816 02e5 E8000000 		call	_ZN8UnitTest11CurrentTest7DetailsEv
 816      00
 817 02ea 488B30   		movq	(%rax), %rsi
 818 02ed 488D7C24 		leaq	80(%rsp), %rdi
 818      50
 819 02f2 BA410000 		movl	$65, %edx
 819      00
 820 02f7 E8000000 		call	_ZN8UnitTest11TestDetailsC1ERKS0_i
 820      00
 821 02fc E8000000 		call	_ZN8UnitTest11CurrentTest7ResultsEv
 821      00
 822 0301 488B38   		movq	(%rax), %rdi
 823 0304 488D7424 		leaq	80(%rsp), %rsi
 823      50
 824 0309 BA000000 		movl	$.LC6, %edx
 824      00
 825 030e E8000000 		call	_ZN8UnitTest11TestResults13OnTestFailureERKNS_11TestDetailsEPKc
 825      00
 826              	.LEHE8:
 827              	.LEHB9:
 828 0313 E8000000 		call	__cxa_end_catch
 828      00
 829              	.LEHE9:
 830 0318 E907FFFF 		jmp	.L74
 830      FF
 831              	.L89:
 832 031d 488D7C24 		leaq	48(%rsp), %rdi
 832      30
 833 0322 4889C3   		movq	%rax, %rbx
 834 0325 E8000000 		call	_ZN8UnitTest14TimeConstraintD1Ev
 834      00
 835              	.L78:
 836 032a 4889E7   		movq	%rsp, %rdi
 837 032d E8000000 		call	_ZN17ScopedCurrentTestD1Ev
 837      00
 838              	.L79:
 839 0332 488D7C24 		leaq	112(%rsp), %rdi
 839      70
 840 0337 48C74424 		movq	$_ZTV17RecordingReporter+16, 112(%rsp)
 840      70000000 
 840      00
 841 0340 E8000000 		call	_ZN8UnitTest12TestReporterD2Ev
 841      00
 842 0345 4889DF   		movq	%rbx, %rdi
 843              	.LEHB10:
 844 0348 E8000000 		call	_Unwind_Resume
 844      00
 845              	.LEHE10:
 846              	.L87:
 847 034d 4889C3   		movq	%rax, %rbx
 848 0350 EBE0     		jmp	.L79
 849              	.L92:
 850 0352 4889C7   		movq	%rax, %rdi
 851 0355 E8000000 		call	__cxa_begin_catch
 851      00
 852              	.LEHB11:
 853 035a E8000000 		call	_ZN8UnitTest11CurrentTest7DetailsEv
 853      00
 854 035f 488B30   		movq	(%rax), %rsi
 855 0362 488D7C24 		leaq	80(%rsp), %rdi
 855      50
 856 0367 BA420000 		movl	$66, %edx
 856      00
 857 036c E8000000 		call	_ZN8UnitTest11TestDetailsC1ERKS0_i
 857      00
 858 0371 E8000000 		call	_ZN8UnitTest11CurrentTest7ResultsEv
 858      00
 859 0376 488B38   		movq	(%rax), %rdi
 860 0379 488D7424 		leaq	80(%rsp), %rsi
 860      50
 861 037e BA000000 		movl	$.LC7, %edx
 861      00
 862 0383 E8000000 		call	_ZN8UnitTest11TestResults13OnTestFailureERKNS_11TestDetailsEPKc
 862      00
 863              	.LEHE11:
 864              	.LEHB12:
 865 0388 E8000000 		call	__cxa_end_catch
 865      00
 866              	.LEHE12:
 867 038d E9A9FEFF 		jmp	.L76
 867      FF
 868              	.L88:
 869 0392 4889C3   		movq	%rax, %rbx
 870              		.p2align 4,,5
 871 0395 EB93     		jmp	.L78
 872              	.L91:
 873 0397 4889C3   		movq	%rax, %rbx
 874              		.p2align 4,,5
 875 039a E8000000 		call	__cxa_end_catch
 875      00
 876 039f 90       		.p2align 4,,2
 877 03a0 EB90     		jmp	.L79
 878              	.L93:
 879 03a2 4889C3   		movq	%rax, %rbx
 880 03a5 E8000000 		call	__cxa_end_catch
 880      00
 881              		.p2align 4,,5
 882 03aa EB86     		jmp	.L79
 883              		.cfi_endproc
 884              	.LFE1109:
 885              		.globl	__gxx_personality_v0
 886              		.section	.gcc_except_table,"a",@progbits
 887              		.align 4
 888              	.LLSDA1109:
 889 0000 FF       		.byte	0xff
 890 0001 03       		.byte	0x3
 891 0002 55       		.uleb128 .LLSDATT1109-.LLSDATTD1109
 892              	.LLSDATTD1109:
 893 0003 01       		.byte	0x1
 894 0004 4C       		.uleb128 .LLSDACSE1109-.LLSDACSB1109
 895              	.LLSDACSB1109:
 896 0005 CE01     		.uleb128 .LEHB0-.LFB1109
 897 0007 23       		.uleb128 .LEHE0-.LEHB0
 898 0008 8D05     		.uleb128 .L87-.LFB1109
 899 000a 00       		.uleb128 0
 900 000b 8702     		.uleb128 .LEHB1-.LFB1109
 901 000d 19       		.uleb128 .LEHE1-.LEHB1
 902 000e D205     		.uleb128 .L88-.LFB1109
 903 0010 00       		.uleb128 0
 904 0011 A502     		.uleb128 .LEHB2-.LFB1109
 905 0013 05       		.uleb128 .LEHE2-.LEHB2
 906 0014 DD04     		.uleb128 .L89-.LFB1109
 907 0016 00       		.uleb128 0
 908 0017 AF02     		.uleb128 .LEHB3-.LFB1109
 909 0019 05       		.uleb128 .LEHE3-.LEHB3
 910 001a D205     		.uleb128 .L88-.LFB1109
 911 001c 00       		.uleb128 0
 912 001d B402     		.uleb128 .LEHB4-.LFB1109
 913 001f 11       		.uleb128 .LEHE4-.LEHB4
 914 0020 8D05     		.uleb128 .L87-.LFB1109
 915 0022 00       		.uleb128 0
 916 0023 8903     		.uleb128 .LEHB5-.LFB1109
 917 0025 05       		.uleb128 .LEHE5-.LEHB5
 918 0026 00       		.uleb128 0
 919 0027 00       		.uleb128 0
 920 0028 B003     		.uleb128 .LEHB6-.LFB1109
 921 002a 2E       		.uleb128 .LEHE6-.LEHB6
 922 002b 9205     		.uleb128 .L92-.LFB1109
 923 002d 01       		.uleb128 0x1
 924 002e E003     		.uleb128 .LEHB7-.LFB1109
 925 0030 2E       		.uleb128 .LEHE7-.LEHB7
 926 0031 9804     		.uleb128 .L90-.LFB1109
 927 0033 01       		.uleb128 0x1
 928 0034 A504     		.uleb128 .LEHB8-.LFB1109
 929 0036 2E       		.uleb128 .LEHE8-.LEHB8
 930 0037 D705     		.uleb128 .L91-.LFB1109
 931 0039 00       		.uleb128 0
 932 003a D304     		.uleb128 .LEHB9-.LFB1109
 933 003c 05       		.uleb128 .LEHE9-.LEHB9
 934 003d 8D05     		.uleb128 .L87-.LFB1109
 935 003f 00       		.uleb128 0
 936 0040 8805     		.uleb128 .LEHB10-.LFB1109
 937 0042 05       		.uleb128 .LEHE10-.LEHB10
 938 0043 00       		.uleb128 0
 939 0044 00       		.uleb128 0
 940 0045 9A05     		.uleb128 .LEHB11-.LFB1109
 941 0047 2E       		.uleb128 .LEHE11-.LEHB11
 942 0048 E205     		.uleb128 .L93-.LFB1109
 943 004a 00       		.uleb128 0
 944 004b C805     		.uleb128 .LEHB12-.LFB1109
 945 004d 05       		.uleb128 .LEHE12-.LEHB12
 946 004e 8D05     		.uleb128 .L87-.LFB1109
 947 0050 00       		.uleb128 0
 948              	.LLSDACSE1109:
 949 0051 01       		.byte	0x1
 950 0052 00       		.byte	0
 951 0053 00       		.align 4
 952 0054 00000000 		.long	0
 953              	
 954              	.LLSDATT1109:
 955              		.text
 957              		.section	.rodata.str1.1
 958              	.LC8:
 959 001b 45787065 		.string	"Expected "
 959      63746564 
 959      2000
 960              	.LC9:
 961 0025 20627574 		.string	" but was "
 961      20776173 
 961      2000
 962              		.section	.text._ZN8UnitTest10CheckEqualIiiEEvRNS_11TestResultsERKT_RKT0_RKNS_11TestDetailsE,"axG",
 963              		.p2align 4,,15
 964              		.weak	_ZN8UnitTest10CheckEqualIiiEEvRNS_11TestResultsERKT_RKT0_RKNS_11TestDetailsE
 966              	_ZN8UnitTest10CheckEqualIiiEEvRNS_11TestResultsERKT_RKT0_RKNS_11TestDetailsE:
 967              	.LFB1137:
 968              		.cfi_startproc
 969              		.cfi_personality 0x3,__gxx_personality_v0
 970              		.cfi_lsda 0x3,.LLSDA1137
 971 0000 4156     		pushq	%r14
 972              		.cfi_def_cfa_offset 16
 973              		.cfi_offset 14, -16
 974 0002 4155     		pushq	%r13
 975              		.cfi_def_cfa_offset 24
 976              		.cfi_offset 13, -24
 977 0004 4154     		pushq	%r12
 978              		.cfi_def_cfa_offset 32
 979              		.cfi_offset 12, -32
 980 0006 55       		pushq	%rbp
 981              		.cfi_def_cfa_offset 40
 982              		.cfi_offset 6, -40
 983 0007 4889D5   		movq	%rdx, %rbp
 984 000a 53       		pushq	%rbx
 985              		.cfi_def_cfa_offset 48
 986              		.cfi_offset 3, -48
 987 000b 4889F3   		movq	%rsi, %rbx
 988 000e 4881EC80 		subq	$384, %rsp
 988      010000
 989              		.cfi_def_cfa_offset 432
 990 0015 8B02     		movl	(%rdx), %eax
 991 0017 3906     		cmpl	%eax, (%rsi)
 992 0019 0F84FF01 		je	.L99
 992      0000
 993 001f 4C8D6424 		leaq	112(%rsp), %r12
 993      70
 994 0024 4989FD   		movq	%rdi, %r13
 995 0027 4989CE   		movq	%rcx, %r14
 996 002a 4C89E7   		movq	%r12, %rdi
 997 002d E8000000 		call	_ZNSt8ios_baseC2Ev
 997      00
 998 0032 31F6     		xorl	%esi, %esi
 999 0034 4C89E7   		movq	%r12, %rdi
 1000 0037 48C78424 		movq	$0, 328(%rsp)
 1000      48010000 
 1000      00000000 
 1001 0043 C6842450 		movb	$0, 336(%rsp)
 1001      01000000 
 1002 004b C6842451 		movb	$0, 337(%rsp)
 1002      01000000 
 1003 0053 48C78424 		movq	$0, 344(%rsp)
 1003      58010000 
 1003      00000000 
 1004 005f 48C78424 		movq	$0, 352(%rsp)
 1004      60010000 
 1004      00000000 
 1005 006b 48C78424 		movq	$0, 360(%rsp)
 1005      68010000 
 1005      00000000 
 1006 0077 48C78424 		movq	$0, 368(%rsp)
 1006      70010000 
 1006      00000000 
 1007 0083 48C74424 		movq	$_ZTCN8UnitTest15MemoryOutStreamE0_So+24, 16(%rsp)
 1007      10000000 
 1007      00
 1008 008c 48C74424 		movq	$_ZTCN8UnitTest15MemoryOutStreamE0_So+64, 112(%rsp)
 1008      70000000 
 1008      00
 1009              	.LEHB13:
 1010 0095 E8000000 		call	_ZNSt9basic_iosIcSt11char_traitsIcEE4initEPSt15basic_streambufIcS1_E
 1010      00
 1011              	.LEHE13:
 1012 009a 488D7C24 		leaq	80(%rsp), %rdi
 1012      50
 1013 009f 48C74424 		movq	$_ZTCN8UnitTest15MemoryOutStreamE0_St19basic_ostringstreamIcSt11char_traitsIcESaIcEE+24, 16(%
 1013      10000000 
 1013      00
 1014 00a8 48C74424 		movq	$_ZTCN8UnitTest15MemoryOutStreamE0_St19basic_ostringstreamIcSt11char_traitsIcESaIcEE+64, 112(
 1014      70000000 
 1014      00
 1015 00b1 48C74424 		movq	$_ZTVSt15basic_streambufIcSt11char_traitsIcEE+16, 24(%rsp)
 1015      18000000 
 1015      00
 1016 00ba 48C74424 		movq	$0, 32(%rsp)
 1016      20000000 
 1016      00
 1017 00c3 48C74424 		movq	$0, 40(%rsp)
 1017      28000000 
 1017      00
 1018 00cc 48C74424 		movq	$0, 48(%rsp)
 1018      30000000 
 1018      00
 1019 00d5 48C74424 		movq	$0, 56(%rsp)
 1019      38000000 
 1019      00
 1020 00de 48C74424 		movq	$0, 64(%rsp)
 1020      40000000 
 1020      00
 1021 00e7 48C74424 		movq	$0, 72(%rsp)
 1021      48000000 
 1021      00
 1022 00f0 E8000000 		call	_ZNSt6localeC1Ev
 1022      00
 1023 00f5 488B4424 		movq	16(%rsp), %rax
 1023      10
 1024 00fa 488D7C24 		leaq	16(%rsp), %rdi
 1024      10
 1025 00ff 488D7424 		leaq	24(%rsp), %rsi
 1025      18
 1026 0104 48C74424 		movq	$_ZTVSt15basic_stringbufIcSt11char_traitsIcESaIcEE+16, 24(%rsp)
 1026      18000000 
 1026      00
 1027 010d C7442458 		movl	$16, 88(%rsp)
 1027      10000000 
 1028 0115 48C74424 		movq	$_ZNSs4_Rep20_S_empty_rep_storageE+24, 96(%rsp)
 1028      60000000 
 1028      00
 1029 011e 480378E8 		addq	-24(%rax), %rdi
 1030              	.LEHB14:
 1031 0122 E8000000 		call	_ZNSt9basic_iosIcSt11char_traitsIcEE4initEPSt15basic_streambufIcS1_E
 1031      00
 1032              	.LEHE14:
 1033 0127 488D7C24 		leaq	16(%rsp), %rdi
 1033      10
 1034 012c BA090000 		movl	$9, %edx
 1034      00
 1035 0131 BE000000 		movl	$.LC8, %esi
 1035      00
 1036 0136 48C74424 		movq	$_ZTVN8UnitTest15MemoryOutStreamE+24, 16(%rsp)
 1036      10000000 
 1036      00
 1037 013f 48C74424 		movq	$_ZTVN8UnitTest15MemoryOutStreamE+64, 112(%rsp)
 1037      70000000 
 1037      00
 1038 0148 48C74424 		movq	$_ZNSs4_Rep20_S_empty_rep_storageE+24, 104(%rsp)
 1038      68000000 
 1038      00
 1039 0151 8B6D00   		movl	0(%rbp), %ebp
 1040 0154 8B1B     		movl	(%rbx), %ebx
 1041              	.LEHB15:
 1042 0156 E8000000 		call	_ZSt16__ostream_insertIcSt11char_traitsIcEERSt13basic_ostreamIT_T0_ES6_PKS3_l
 1042      00
 1043 015b 488D7C24 		leaq	16(%rsp), %rdi
 1043      10
 1044 0160 89DE     		movl	%ebx, %esi
 1045 0162 E8000000 		call	_ZNSolsEi
 1045      00
 1046 0167 BA090000 		movl	$9, %edx
 1046      00
 1047 016c BE000000 		movl	$.LC9, %esi
 1047      00
 1048 0171 4889C7   		movq	%rax, %rdi
 1049 0174 4889C3   		movq	%rax, %rbx
 1050 0177 E8000000 		call	_ZSt16__ostream_insertIcSt11char_traitsIcEERSt13basic_ostreamIT_T0_ES6_PKS3_l
 1050      00
 1051 017c 89EE     		movl	%ebp, %esi
 1052 017e 4889DF   		movq	%rbx, %rdi
 1053 0181 E8000000 		call	_ZNSolsEi
 1053      00
 1054 0186 488D7C24 		leaq	16(%rsp), %rdi
 1054      10
 1055 018b E8000000 		call	_ZNK8UnitTest15MemoryOutStream7GetTextEv
 1055      00
 1056 0190 4889C2   		movq	%rax, %rdx
 1057 0193 4C89F6   		movq	%r14, %rsi
 1058 0196 4C89EF   		movq	%r13, %rdi
 1059 0199 E8000000 		call	_ZN8UnitTest11TestResults13OnTestFailureERKNS_11TestDetailsEPKc
 1059      00
 1060              	.LEHE15:
 1061 019e 488B4424 		movq	104(%rsp), %rax
 1061      68
 1062 01a3 48C74424 		movq	$_ZTVN8UnitTest15MemoryOutStreamE+24, 16(%rsp)
 1062      10000000 
 1062      00
 1063 01ac 48C74424 		movq	$_ZTVN8UnitTest15MemoryOutStreamE+64, 112(%rsp)
 1063      70000000 
 1063      00
 1064 01b5 488D78E8 		leaq	-24(%rax), %rdi
 1065 01b9 4881FF00 		cmpq	$_ZNSs4_Rep20_S_empty_rep_storageE, %rdi
 1065      000000
 1066 01c0 756C     		jne	.L122
 1067              	.L106:
 1068 01c2 488B4424 		movq	96(%rsp), %rax
 1068      60
 1069 01c7 48C74424 		movq	$_ZTCN8UnitTest15MemoryOutStreamE0_St19basic_ostringstreamIcSt11char_traitsIcESaIcEE+24, 16(%
 1069      10000000 
 1069      00
 1070 01d0 48C74424 		movq	$_ZTCN8UnitTest15MemoryOutStreamE0_St19basic_ostringstreamIcSt11char_traitsIcESaIcEE+64, 112(
 1070      70000000 
 1070      00
 1071 01d9 48C74424 		movq	$_ZTVSt15basic_stringbufIcSt11char_traitsIcESaIcEE+16, 24(%rsp)
 1071      18000000 
 1071      00
 1072 01e2 488D78E8 		leaq	-24(%rax), %rdi
 1073 01e6 4881FF00 		cmpq	$_ZNSs4_Rep20_S_empty_rep_storageE, %rdi
 1073      000000
 1074 01ed 756B     		jne	.L123
 1075              	.L111:
 1076 01ef 488D7C24 		leaq	80(%rsp), %rdi
 1076      50
 1077 01f4 48C74424 		movq	$_ZTVSt15basic_streambufIcSt11char_traitsIcEE+16, 24(%rsp)
 1077      18000000 
 1077      00
 1078 01fd E8000000 		call	_ZNSt6localeD1Ev
 1078      00
 1079 0202 488D7C24 		leaq	112(%rsp), %rdi
 1079      70
 1080 0207 48C74424 		movq	$_ZTCN8UnitTest15MemoryOutStreamE0_So+24, 16(%rsp)
 1080      10000000 
 1080      00
 1081 0210 48C74424 		movq	$_ZTVSt9basic_iosIcSt11char_traitsIcEE+16, 112(%rsp)
 1081      70000000 
 1081      00
 1082              	.LEHB16:
 1083 0219 E8000000 		call	_ZNSt8ios_baseD2Ev
 1083      00
 1084              	.LEHE16:
 1085              	.L99:
 1086 021e 4881C480 		addq	$384, %rsp
 1086      010000
 1087              		.cfi_remember_state
 1088              		.cfi_def_cfa_offset 48
 1089 0225 5B       		popq	%rbx
 1090              		.cfi_def_cfa_offset 40
 1091 0226 5D       		popq	%rbp
 1092              		.cfi_def_cfa_offset 32
 1093 0227 415C     		popq	%r12
 1094              		.cfi_def_cfa_offset 24
 1095 0229 415D     		popq	%r13
 1096              		.cfi_def_cfa_offset 16
 1097 022b 415E     		popq	%r14
 1098              		.cfi_def_cfa_offset 8
 1099 022d C3       		ret
 1100              	.L122:
 1101              		.cfi_restore_state
 1102 022e B9000000 		movl	$_ZL28__gthrw___pthread_key_createPjPFvPvE, %ecx
 1102      00
 1103 0233 488D5710 		leaq	16(%rdi), %rdx
 1104 0237 4885C9   		testq	%rcx, %rcx
 1105 023a 747D     		je	.L107
 1106 023c 83C8FF   		orl	$-1, %eax
 1107 023f F00FC102 		lock xaddl	%eax, (%rdx)
 1108              	.L108:
 1109 0243 85C0     		testl	%eax, %eax
 1110 0245 0F8F77FF 		jg	.L106
 1110      FFFF
 1111 024b 488D7424 		leaq	15(%rsp), %rsi
 1111      0F
 1112 0250 E8000000 		call	_ZNSs4_Rep10_M_destroyERKSaIcE
 1112      00
 1113 0255 E968FFFF 		jmp	.L106
 1113      FF
 1114              	.L123:
 1115 025a B9000000 		movl	$_ZL28__gthrw___pthread_key_createPjPFvPvE, %ecx
 1115      00
 1116 025f 488D5710 		leaq	16(%rdi), %rdx
 1117 0263 4885C9   		testq	%rcx, %rcx
 1118 0266 7479     		je	.L112
 1119 0268 83C8FF   		orl	$-1, %eax
 1120 026b F00FC102 		lock xaddl	%eax, (%rdx)
 1121              	.L113:
 1122 026f 85C0     		testl	%eax, %eax
 1123 0271 0F8F78FF 		jg	.L111
 1123      FFFF
 1124 0277 488D7424 		leaq	15(%rsp), %rsi
 1124      0F
 1125 027c E8000000 		call	_ZNSs4_Rep10_M_destroyERKSaIcE
 1125      00
 1126 0281 E969FFFF 		jmp	.L111
 1126      FF
 1127              	.L116:
 1128 0286 488D7C24 		leaq	16(%rsp), %rdi
 1128      10
 1129 028b 4889C3   		movq	%rax, %rbx
 1130 028e E8000000 		call	_ZN8UnitTest15MemoryOutStreamD1Ev
 1130      00
 1131 0293 4889DF   		movq	%rbx, %rdi
 1132              	.LEHB17:
 1133 0296 E8000000 		call	_Unwind_Resume
 1133      00
 1134              	.LEHE17:
 1135              	.L117:
 1136 029b 4889C3   		movq	%rax, %rbx
 1137              	.L103:
 1138 029e 488D7C24 		leaq	112(%rsp), %rdi
 1138      70
 1139 02a3 48C74424 		movq	$_ZTVSt9basic_iosIcSt11char_traitsIcEE+16, 112(%rsp)
 1139      70000000 
 1139      00
 1140 02ac E8000000 		call	_ZNSt8ios_baseD2Ev
 1140      00
 1141 02b1 4889DF   		movq	%rbx, %rdi
 1142              	.LEHB18:
 1143 02b4 E8000000 		call	_Unwind_Resume
 1143      00
 1144              	.LEHE18:
 1145              	.L107:
 1146 02b9 8B50F8   		movl	-8(%rax), %edx
 1147 02bc 8D4AFF   		leal	-1(%rdx), %ecx
 1148 02bf 8948F8   		movl	%ecx, -8(%rax)
 1149 02c2 89D0     		movl	%edx, %eax
 1150 02c4 E97AFFFF 		jmp	.L108
 1150      FF
 1151              	.L118:
 1152 02c9 488D7C24 		leaq	24(%rsp), %rdi
 1152      18
 1153 02ce 4889C3   		movq	%rax, %rbx
 1154 02d1 E8000000 		call	_ZNSt15basic_stringbufIcSt11char_traitsIcESaIcEED1Ev
 1154      00
 1155 02d6 48C74424 		movq	$_ZTCN8UnitTest15MemoryOutStreamE0_So+24, 16(%rsp)
 1155      10000000 
 1155      00
 1156 02df EBBD     		jmp	.L103
 1157              	.L112:
 1158 02e1 8B50F8   		movl	-8(%rax), %edx
 1159 02e4 8D4AFF   		leal	-1(%rdx), %ecx
 1160 02e7 8948F8   		movl	%ecx, -8(%rax)
 1161 02ea 89D0     		movl	%edx, %eax
 1162 02ec EB81     		jmp	.L113
 1163              		.cfi_endproc
 1164              	.LFE1137:
 1165              		.section	.gcc_except_table
 1166              	.LLSDA1137:
 1167 0058 FF       		.byte	0xff
 1168 0059 FF       		.byte	0xff
 1169 005a 01       		.byte	0x1
 1170 005b 21       		.uleb128 .LLSDACSE1137-.LLSDACSB1137
 1171              	.LLSDACSB1137:
 1172 005c 9501     		.uleb128 .LEHB13-.LFB1137
 1173 005e 05       		.uleb128 .LEHE13-.LEHB13
 1174 005f 9B05     		.uleb128 .L117-.LFB1137
 1175 0061 00       		.uleb128 0
 1176 0062 A202     		.uleb128 .LEHB14-.LFB1137
 1177 0064 05       		.uleb128 .LEHE14-.LEHB14
 1178 0065 C905     		.uleb128 .L118-.LFB1137
 1179 0067 00       		.uleb128 0
 1180 0068 D602     		.uleb128 .LEHB15-.LFB1137
 1181 006a 48       		.uleb128 .LEHE15-.LEHB15
 1182 006b 8605     		.uleb128 .L116-.LFB1137
 1183 006d 00       		.uleb128 0
 1184 006e 9904     		.uleb128 .LEHB16-.LFB1137
 1185 0070 05       		.uleb128 .LEHE16-.LEHB16
 1186 0071 00       		.uleb128 0
 1187 0072 00       		.uleb128 0
 1188 0073 9605     		.uleb128 .LEHB17-.LFB1137
 1189 0075 05       		.uleb128 .LEHE17-.LEHB17
 1190 0076 00       		.uleb128 0
 1191 0077 00       		.uleb128 0
 1192 0078 B405     		.uleb128 .LEHB18-.LFB1137
 1193 007a 05       		.uleb128 .LEHE18-.LEHB18
 1194 007b 00       		.uleb128 0
 1195 007c 00       		.uleb128 0
 1196              	.LLSDACSE1137:
 1197              		.section	.text._ZN8UnitTest10CheckEqualIiiEEvRNS_11TestResultsERKT_RKT0_RKNS_11TestDetailsE,"axG",
 1199              		.section	.rodata.str1.1
 1200              	.LC10:
 1201 002f 66696C65 		.string	"filename"
 1201      6E616D65 
 1201      00
 1202              	.LC11:
 1203 0038 73756974 		.string	"suitename"
 1203      656E616D 
 1203      6500
 1204              	.LC12:
 1205 0042 74657374 		.string	"testname"
 1205      6E616D65 
 1205      00
 1206              		.section	.rodata.str1.8
 1207 0117 00       		.align 8
 1208              	.LC13:
 1209 0118 73747273 		.string	"strstr(reporter.lastFailedFile, \"filename\")"
 1209      74722872 
 1209      65706F72 
 1209      7465722E 
 1209      6C617374 
 1210 0144 00000000 		.align 8
 1211              	.LC14:
 1212 0148 73747273 		.string	"strstr(reporter.lastFailedTest, \"testname\")"
 1212      74722872 
 1212      65706F72 
 1212      7465722E 
 1212      6C617374 
 1213 0174 00000000 		.align 8
 1214              	.LC15:
 1215 0178 556E6861 		.string	"Unhandled exception in CHECK(strstr(reporter.lastFailedFile, \"filename\"))"
 1215      6E646C65 
 1215      64206578 
 1215      63657074 
 1215      696F6E20 
 1216 01c2 00000000 		.align 8
 1216      0000
 1217              	.LC16:
 1218 01c8 556E6861 		.string	"Unhandled exception in CHECK_EQUAL(10, reporter.lastFailedLine)"
 1218      6E646C65 
 1218      64206578 
 1218      63657074 
 1218      696F6E20 
 1219              		.align 8
 1220              	.LC17:
 1221 0208 556E6861 		.string	"Unhandled exception in CHECK(strstr(reporter.lastFailedTest, \"testname\"))"
 1221      6E646C65 
 1221      64206578 
 1221      63657074 
 1221      696F6E20 
 1222              		.text
 1223              		.align 2
 1224 03ac 0F1F4000 		.p2align 4,,15
 1226              	_ZNK12_GLOBAL__N_144TestTimeConstraintFailureIncludesCorrectData7RunImplEv:
 1227              	.LFB1105:
 1228              		.cfi_startproc
 1229              		.cfi_personality 0x3,__gxx_personality_v0
 1230              		.cfi_lsda 0x3,.LLSDA1105
 1231 03b0 53       		pushq	%rbx
 1232              		.cfi_def_cfa_offset 16
 1233              		.cfi_offset 3, -16
 1234 03b1 4881ECB0 		subq	$2224, %rsp
 1234      080000
 1235              		.cfi_def_cfa_offset 2240
 1236 03b8 488D5C24 		leaq	16(%rsp), %rbx
 1236      10
 1237 03bd 488D7424 		leaq	112(%rsp), %rsi
 1237      70
 1238 03c2 48C74424 		movq	$_ZTV17RecordingReporter+16, 112(%rsp)
 1238      70000000 
 1238      00
 1239 03cb 64488B04 		movq	%fs:40, %rax
 1239      25280000 
 1239      00
 1240 03d4 48898424 		movq	%rax, 2216(%rsp)
 1240      A8080000 
 1241 03dc 31C0     		xorl	%eax, %eax
 1242 03de 4889DF   		movq	%rbx, %rdi
 1243 03e1 C7442478 		movl	$0, 120(%rsp)
 1243      00000000 
 1244 03e9 C784247C 		movl	$0, 636(%rsp)
 1244      02000000 
 1244      000000
 1245 03f4 C7842480 		movl	$0, 896(%rsp)
 1245      03000000 
 1245      000000
 1246 03ff C7842484 		movl	$0, 1668(%rsp)
 1246      06000000 
 1246      000000
 1247 040a C7842488 		movl	$0x00000000, 2184(%rsp)
 1247      08000000 
 1247      000000
 1248 0415 C784248C 		movl	$0, 2188(%rsp)
 1248      08000000 
 1248      000000
 1249 0420 C7842490 		movl	$0, 2192(%rsp)
 1249      08000000 
 1249      000000
 1250 042b C7842494 		movl	$0, 2196(%rsp)
 1250      08000000 
 1250      000000
 1251 0436 C7842498 		movl	$0x00000000, 2200(%rsp)
 1251      08000000 
 1251      000000
 1252 0441 C644247C 		movb	$0, 124(%rsp)
 1252      00
 1253 0446 C684247C 		movb	$0, 380(%rsp)
 1253      01000000 
 1254 044e C6842480 		movb	$0, 640(%rsp)
 1254      02000000 
 1255 0456 C6842484 		movb	$0, 900(%rsp)
 1255      03000000 
 1256 045e C6842484 		movb	$0, 1156(%rsp)
 1256      04000000 
 1257 0466 C6842484 		movb	$0, 1412(%rsp)
 1257      05000000 
 1258 046e C6842488 		movb	$0, 1672(%rsp)
 1258      06000000 
 1259 0476 C6842488 		movb	$0, 1928(%rsp)
 1259      07000000 
 1260              	.LEHB19:
 1261 047e E8000000 		call	_ZN8UnitTest11TestResultsC1EPNS_12TestReporterE
 1261      00
 1262 0483 E8000000 		call	_ZN8UnitTest11CurrentTest7ResultsEv
 1262      00
 1263 0488 488B00   		movq	(%rax), %rax
 1264 048b 48890424 		movq	%rax, (%rsp)
 1265 048f E8000000 		call	_ZN8UnitTest11CurrentTest7DetailsEv
 1265      00
 1266 0494 488B00   		movq	(%rax), %rax
 1267 0497 48894424 		movq	%rax, 8(%rsp)
 1267      08
 1268 049c E8000000 		call	_ZN8UnitTest11CurrentTest7ResultsEv
 1268      00
 1269              	.LEHE19:
 1270 04a1 488D7C24 		leaq	48(%rsp), %rdi
 1270      30
 1271 04a6 488918   		movq	%rbx, (%rax)
 1272 04a9 41B80A00 		movl	$10, %r8d
 1272      0000
 1273 04af B9000000 		movl	$.LC10, %ecx
 1273      00
 1274 04b4 BA000000 		movl	$.LC11, %edx
 1274      00
 1275 04b9 BE000000 		movl	$.LC12, %esi
 1275      00
 1276              	.LEHB20:
 1277 04be E8000000 		call	_ZN8UnitTest11TestDetailsC1EPKcS2_S2_i
 1277      00
 1278 04c3 488D5424 		leaq	48(%rsp), %rdx
 1278      30
 1279 04c8 488D7C24 		leaq	80(%rsp), %rdi
 1279      50
 1280 04cd BE0A0000 		movl	$10, %esi
 1280      00
 1281 04d2 E8000000 		call	_ZN8UnitTest14TimeConstraintC1EiRKNS_11TestDetailsE
 1281      00
 1282              	.LEHE20:
 1283 04d7 BF140000 		movl	$20, %edi
 1283      00
 1284              	.LEHB21:
 1285 04dc E8000000 		call	_ZN8UnitTest11TimeHelpers7SleepMsEi
 1285      00
 1286              	.LEHE21:
 1287 04e1 488D7C24 		leaq	80(%rsp), %rdi
 1287      50
 1288              	.LEHB22:
 1289 04e6 E8000000 		call	_ZN8UnitTest14TimeConstraintD1Ev
 1289      00
 1290              	.LEHE22:
 1291              	.LEHB23:
 1292 04eb E8000000 		call	_ZN8UnitTest11CurrentTest7ResultsEv
 1292      00
 1293 04f0 488B1424 		movq	(%rsp), %rdx
 1294 04f4 488910   		movq	%rdx, (%rax)
 1295 04f7 E8000000 		call	_ZN8UnitTest11CurrentTest7DetailsEv
 1295      00
 1296              	.LEHE23:
 1297 04fc 488B5424 		movq	8(%rsp), %rdx
 1297      08
 1298 0501 488DBC24 		leaq	640(%rsp), %rdi
 1298      80020000 
 1299 0509 BE000000 		movl	$.LC10, %esi
 1299      00
 1300 050e 488910   		movq	%rdx, (%rax)
 1301 0511 E8000000 		call	strstr
 1301      00
 1302 0516 4885C0   		testq	%rax, %rax
 1303 0519 0F84C100 		je	.L153
 1303      0000
 1304              	.L126:
 1305              	.LEHB24:
 1306 051f E8000000 		call	_ZN8UnitTest11CurrentTest7DetailsEv
 1306      00
 1307 0524 488B30   		movq	(%rax), %rsi
 1308 0527 488D7C24 		leaq	80(%rsp), %rdi
 1308      50
 1309 052c BA310000 		movl	$49, %edx
 1309      00
 1310 0531 E8000000 		call	_ZN8UnitTest11TestDetailsC1ERKS0_i
 1310      00
 1311 0536 C7442430 		movl	$10, 48(%rsp)
 1311      0A000000 
 1312 053e E8000000 		call	_ZN8UnitTest11CurrentTest7ResultsEv
 1312      00
 1313 0543 488B38   		movq	(%rax), %rdi
 1314 0546 488D9424 		leaq	896(%rsp), %rdx
 1314      80030000 
 1315 054e 488D4C24 		leaq	80(%rsp), %rcx
 1315      50
 1316 0553 488D7424 		leaq	48(%rsp), %rsi
 1316      30
 1317 0558 E8000000 		call	_ZN8UnitTest10CheckEqualIiiEEvRNS_11TestResultsERKT_RKT0_RKNS_11TestDetailsE
 1317      00
 1318              	.LEHE24:
 1319              	.L137:
 1320 055d 488DBC24 		leaq	1156(%rsp), %rdi
 1320      84040000 
 1321 0565 BE000000 		movl	$.LC12, %esi
 1321      00
 1322 056a E8000000 		call	strstr
 1322      00
 1323 056f 4885C0   		testq	%rax, %rax
 1324 0572 7434     		je	.L154
 1325              	.L128:
 1326 0574 488D7C24 		leaq	112(%rsp), %rdi
 1326      70
 1327 0579 48C74424 		movq	$_ZTV17RecordingReporter+16, 112(%rsp)
 1327      70000000 
 1327      00
 1328              	.LEHB25:
 1329 0582 E8000000 		call	_ZN8UnitTest12TestReporterD2Ev
 1329      00
 1330              	.LEHE25:
 1331 0587 488B8424 		movq	2216(%rsp), %rax
 1331      A8080000 
 1332 058f 64483304 		xorq	%fs:40, %rax
 1332      25280000 
 1332      00
 1333 0598 7579     		jne	.L155
 1334 059a 4881C4B0 		addq	$2224, %rsp
 1334      080000
 1335              		.cfi_remember_state
 1336              		.cfi_def_cfa_offset 16
 1337 05a1 5B       		popq	%rbx
 1338              		.cfi_def_cfa_offset 8
 1339 05a2 C3       		ret
 1340              		.p2align 4,,10
 1341 05a3 0F1F4400 		.p2align 3
 1341      00
 1342              	.L154:
 1343              		.cfi_restore_state
 1344              	.LEHB26:
 1345 05a8 E8000000 		call	_ZN8UnitTest11CurrentTest7DetailsEv
 1345      00
 1346 05ad 488B30   		movq	(%rax), %rsi
 1347 05b0 488D7C24 		leaq	80(%rsp), %rdi
 1347      50
 1348 05b5 BA320000 		movl	$50, %edx
 1348      00
 1349 05ba E8000000 		call	_ZN8UnitTest11TestDetailsC1ERKS0_i
 1349      00
 1350 05bf E8000000 		call	_ZN8UnitTest11CurrentTest7ResultsEv
 1350      00
 1351 05c4 488B38   		movq	(%rax), %rdi
 1352 05c7 488D7424 		leaq	80(%rsp), %rsi
 1352      50
 1353 05cc BA000000 		movl	$.LC14, %edx
 1353      00
 1354 05d1 E8000000 		call	_ZN8UnitTest11TestResults13OnTestFailureERKNS_11TestDetailsEPKc
 1354      00
 1355              	.LEHE26:
 1356 05d6 EB9C     		jmp	.L128
 1357 05d8 0F1F8400 		.p2align 4,,10
 1357      00000000 
 1358              		.p2align 3
 1359              	.L153:
 1360              	.LEHB27:
 1361 05e0 E8000000 		call	_ZN8UnitTest11CurrentTest7DetailsEv
 1361      00
 1362 05e5 488B30   		movq	(%rax), %rsi
 1363 05e8 488D7C24 		leaq	80(%rsp), %rdi
 1363      50
 1364 05ed BA300000 		movl	$48, %edx
 1364      00
 1365 05f2 E8000000 		call	_ZN8UnitTest11TestDetailsC1ERKS0_i
 1365      00
 1366 05f7 E8000000 		call	_ZN8UnitTest11CurrentTest7ResultsEv
 1366      00
 1367 05fc 488B38   		movq	(%rax), %rdi
 1368 05ff 488D7424 		leaq	80(%rsp), %rsi
 1368      50
 1369 0604 BA000000 		movl	$.LC13, %edx
 1369      00
 1370 0609 E8000000 		call	_ZN8UnitTest11TestResults13OnTestFailureERKNS_11TestDetailsEPKc
 1370      00
 1371              	.LEHE27:
 1372 060e E90CFFFF 		jmp	.L126
 1372      FF
 1373              	.L155:
 1374 0613 E8000000 		call	__stack_chk_fail
 1374      00
 1375              	.L145:
 1376 0618 4889C7   		movq	%rax, %rdi
 1377 061b 0F1F4400 		.p2align 4,,5
 1377      00
 1378 0620 E8000000 		call	__cxa_begin_catch
 1378      00
 1379              	.LEHB28:
 1380 0625 E8000000 		call	_ZN8UnitTest11CurrentTest7DetailsEv
 1380      00
 1381 062a 488B30   		movq	(%rax), %rsi
 1382 062d 488D7C24 		leaq	80(%rsp), %rdi
 1382      50
 1383 0632 BA300000 		movl	$48, %edx
 1383      00
 1384 0637 E8000000 		call	_ZN8UnitTest11TestDetailsC1ERKS0_i
 1384      00
 1385 063c E8000000 		call	_ZN8UnitTest11CurrentTest7ResultsEv
 1385      00
 1386 0641 488B38   		movq	(%rax), %rdi
 1387 0644 488D7424 		leaq	80(%rsp), %rsi
 1387      50
 1388 0649 BA000000 		movl	$.LC15, %edx
 1388      00
 1389 064e E8000000 		call	_ZN8UnitTest11TestResults13OnTestFailureERKNS_11TestDetailsEPKc
 1389      00
 1390              	.LEHE28:
 1391              	.LEHB29:
 1392 0653 E8000000 		call	__cxa_end_catch
 1392      00
 1393              	.LEHE29:
 1394 0658 E9C2FEFF 		jmp	.L126
 1394      FF
 1395              	.L142:
 1396 065d 4889C3   		movq	%rax, %rbx
 1397              	.L131:
 1398 0660 488D7C24 		leaq	112(%rsp), %rdi
 1398      70
 1399 0665 48C74424 		movq	$_ZTV17RecordingReporter+16, 112(%rsp)
 1399      70000000 
 1399      00
 1400 066e E8000000 		call	_ZN8UnitTest12TestReporterD2Ev
 1400      00
 1401 0673 4889DF   		movq	%rbx, %rdi
 1402              	.LEHB30:
 1403 0676 E8000000 		call	_Unwind_Resume
 1403      00
 1404              	.LEHE30:
 1405              	.L146:
 1406 067b 4889C3   		movq	%rax, %rbx
 1407 067e E8000000 		call	__cxa_end_catch
 1407      00
 1408 0683 EBDB     		jmp	.L131
 1409              	.L144:
 1410 0685 488D7C24 		leaq	80(%rsp), %rdi
 1410      50
 1411 068a 4889C3   		movq	%rax, %rbx
 1412 068d E8000000 		call	_ZN8UnitTest14TimeConstraintD1Ev
 1412      00
 1413              	.L130:
 1414 0692 4889E7   		movq	%rsp, %rdi
 1415 0695 E8000000 		call	_ZN17ScopedCurrentTestD1Ev
 1415      00
 1416 069a EBC4     		jmp	.L131
 1417              	.L143:
 1418 069c 4889C3   		movq	%rax, %rbx
 1419 069f 90       		.p2align 4,,2
 1420 06a0 EBF0     		jmp	.L130
 1421              	.L149:
 1422 06a2 4889C7   		movq	%rax, %rdi
 1423              		.p2align 4,,5
 1424 06a5 E8000000 		call	__cxa_begin_catch
 1424      00
 1425              	.LEHB31:
 1426 06aa E8000000 		call	_ZN8UnitTest11CurrentTest7DetailsEv
 1426      00
 1427 06af 488B30   		movq	(%rax), %rsi
 1428 06b2 488D7C24 		leaq	80(%rsp), %rdi
 1428      50
 1429 06b7 BA320000 		movl	$50, %edx
 1429      00
 1430 06bc E8000000 		call	_ZN8UnitTest11TestDetailsC1ERKS0_i
 1430      00
 1431 06c1 E8000000 		call	_ZN8UnitTest11CurrentTest7ResultsEv
 1431      00
 1432 06c6 488B38   		movq	(%rax), %rdi
 1433 06c9 488D7424 		leaq	80(%rsp), %rsi
 1433      50
 1434 06ce BA000000 		movl	$.LC17, %edx
 1434      00
 1435 06d3 E8000000 		call	_ZN8UnitTest11TestResults13OnTestFailureERKNS_11TestDetailsEPKc
 1435      00
 1436              	.LEHE31:
 1437              	.LEHB32:
 1438 06d8 E8000000 		call	__cxa_end_catch
 1438      00
 1439              	.LEHE32:
 1440 06dd E992FEFF 		jmp	.L128
 1440      FF
 1441              	.L147:
 1442 06e2 4889C7   		movq	%rax, %rdi
 1443              		.p2align 4,,5
 1444 06e5 E8000000 		call	__cxa_begin_catch
 1444      00
 1445              		.p2align 4,,5
 1446              	.LEHB33:
 1447 06ea E8000000 		call	_ZN8UnitTest11CurrentTest7DetailsEv
 1447      00
 1448 06ef 488B30   		movq	(%rax), %rsi
 1449 06f2 488D7C24 		leaq	80(%rsp), %rdi
 1449      50
 1450 06f7 BA310000 		movl	$49, %edx
 1450      00
 1451 06fc E8000000 		call	_ZN8UnitTest11TestDetailsC1ERKS0_i
 1451      00
 1452 0701 E8000000 		call	_ZN8UnitTest11CurrentTest7ResultsEv
 1452      00
 1453 0706 488B38   		movq	(%rax), %rdi
 1454 0709 488D7424 		leaq	80(%rsp), %rsi
 1454      50
 1455 070e BA000000 		movl	$.LC16, %edx
 1455      00
 1456 0713 E8000000 		call	_ZN8UnitTest11TestResults13OnTestFailureERKNS_11TestDetailsEPKc
 1456      00
 1457              	.LEHE33:
 1458              	.LEHB34:
 1459 0718 E8000000 		call	__cxa_end_catch
 1459      00
 1460              	.LEHE34:
 1461 071d E93BFEFF 		jmp	.L137
 1461      FF
 1462              	.L150:
 1463 0722 4889C3   		movq	%rax, %rbx
 1464              		.p2align 4,,5
 1465 0725 E8000000 		call	__cxa_end_catch
 1465      00
 1466              		.p2align 4,,5
 1467 072a E931FFFF 		jmp	.L131
 1467      FF
 1468              	.L148:
 1469 072f 4889C3   		movq	%rax, %rbx
 1470 0732 E8000000 		call	__cxa_end_catch
 1470      00
 1471              		.p2align 4,,5
 1472 0737 E924FFFF 		jmp	.L131
 1472      FF
 1473              		.cfi_endproc
 1474              	.LFE1105:
 1475              		.section	.gcc_except_table
 1476 007d 000000   		.align 4
 1477              	.LLSDA1105:
 1478 0080 FF       		.byte	0xff
 1479 0081 03       		.byte	0x3
 1480 0082 69       		.uleb128 .LLSDATT1105-.LLSDATTD1105
 1481              	.LLSDATTD1105:
 1482 0083 01       		.byte	0x1
 1483 0084 5E       		.uleb128 .LLSDACSE1105-.LLSDACSB1105
 1484              	.LLSDACSB1105:
 1485 0085 CE01     		.uleb128 .LEHB19-.LFB1105
 1486 0087 23       		.uleb128 .LEHE19-.LEHB19
 1487 0088 AD05     		.uleb128 .L142-.LFB1105
 1488 008a 00       		.uleb128 0
 1489 008b 8E02     		.uleb128 .LEHB20-.LFB1105
 1490 008d 19       		.uleb128 .LEHE20-.LEHB20
 1491 008e EC05     		.uleb128 .L143-.LFB1105
 1492 0090 00       		.uleb128 0
 1493 0091 AC02     		.uleb128 .LEHB21-.LFB1105
 1494 0093 05       		.uleb128 .LEHE21-.LEHB21
 1495 0094 D505     		.uleb128 .L144-.LFB1105
 1496 0096 00       		.uleb128 0
 1497 0097 B602     		.uleb128 .LEHB22-.LFB1105
 1498 0099 05       		.uleb128 .LEHE22-.LEHB22
 1499 009a EC05     		.uleb128 .L143-.LFB1105
 1500 009c 00       		.uleb128 0
 1501 009d BB02     		.uleb128 .LEHB23-.LFB1105
 1502 009f 11       		.uleb128 .LEHE23-.LEHB23
 1503 00a0 AD05     		.uleb128 .L142-.LFB1105
 1504 00a2 00       		.uleb128 0
 1505 00a3 EF02     		.uleb128 .LEHB24-.LFB1105
 1506 00a5 3E       		.uleb128 .LEHE24-.LEHB24
 1507 00a6 B206     		.uleb128 .L147-.LFB1105
 1508 00a8 01       		.uleb128 0x1
 1509 00a9 D203     		.uleb128 .LEHB25-.LFB1105
 1510 00ab 05       		.uleb128 .LEHE25-.LEHB25
 1511 00ac 00       		.uleb128 0
 1512 00ad 00       		.uleb128 0
 1513 00ae F803     		.uleb128 .LEHB26-.LFB1105
 1514 00b0 2E       		.uleb128 .LEHE26-.LEHB26
 1515 00b1 F205     		.uleb128 .L149-.LFB1105
 1516 00b3 01       		.uleb128 0x1
 1517 00b4 B004     		.uleb128 .LEHB27-.LFB1105
 1518 00b6 2E       		.uleb128 .LEHE27-.LEHB27
 1519 00b7 E804     		.uleb128 .L145-.LFB1105
 1520 00b9 01       		.uleb128 0x1
 1521 00ba F504     		.uleb128 .LEHB28-.LFB1105
 1522 00bc 2E       		.uleb128 .LEHE28-.LEHB28
 1523 00bd CB05     		.uleb128 .L146-.LFB1105
 1524 00bf 00       		.uleb128 0
 1525 00c0 A305     		.uleb128 .LEHB29-.LFB1105
 1526 00c2 05       		.uleb128 .LEHE29-.LEHB29
 1527 00c3 AD05     		.uleb128 .L142-.LFB1105
 1528 00c5 00       		.uleb128 0
 1529 00c6 C605     		.uleb128 .LEHB30-.LFB1105
 1530 00c8 05       		.uleb128 .LEHE30-.LEHB30
 1531 00c9 00       		.uleb128 0
 1532 00ca 00       		.uleb128 0
 1533 00cb FA05     		.uleb128 .LEHB31-.LFB1105
 1534 00cd 2E       		.uleb128 .LEHE31-.LEHB31
 1535 00ce F206     		.uleb128 .L150-.LFB1105
 1536 00d0 00       		.uleb128 0
 1537 00d1 A806     		.uleb128 .LEHB32-.LFB1105
 1538 00d3 05       		.uleb128 .LEHE32-.LEHB32
 1539 00d4 AD05     		.uleb128 .L142-.LFB1105
 1540 00d6 00       		.uleb128 0
 1541 00d7 BA06     		.uleb128 .LEHB33-.LFB1105
 1542 00d9 2E       		.uleb128 .LEHE33-.LEHB33
 1543 00da FF06     		.uleb128 .L148-.LFB1105
 1544 00dc 00       		.uleb128 0
 1545 00dd E806     		.uleb128 .LEHB34-.LFB1105
 1546 00df 05       		.uleb128 .LEHE34-.LEHB34
 1547 00e0 AD05     		.uleb128 .L142-.LFB1105
 1548 00e2 00       		.uleb128 0
 1549              	.LLSDACSE1105:
 1550 00e3 01       		.byte	0x1
 1551 00e4 00       		.byte	0
 1552 00e5 000000   		.align 4
 1553 00e8 00000000 		.long	0
 1554              	
 1555              	.LLSDATT1105:
 1556              		.text
 1558              		.section	.rodata.str1.8
 1559 0252 00000000 		.align 8
 1559      0000
 1560              	.LC18:
 1561 0258 556E6861 		.string	"Unhandled exception in CHECK_EQUAL(1, result.GetFailureCount())"
 1561      6E646C65 
 1561      64206578 
 1561      63657074 
 1561      696F6E20 
 1562              		.text
 1563              		.align 2
 1564 073c 0F1F4000 		.p2align 4,,15
 1566              	_ZNK12_GLOBAL__N_135TestTimeConstraintFailsWithSlowTest7RunImplEv:
 1567              	.LFB1101:
 1568              		.cfi_startproc
 1569              		.cfi_personality 0x3,__gxx_personality_v0
 1570              		.cfi_lsda 0x3,.LLSDA1101
 1571 0740 53       		pushq	%rbx
 1572              		.cfi_def_cfa_offset 16
 1573              		.cfi_offset 3, -16
 1574 0741 31F6     		xorl	%esi, %esi
 1575 0743 4883EC70 		subq	$112, %rsp
 1576              		.cfi_def_cfa_offset 128
 1577 0747 488D5C24 		leaq	16(%rsp), %rbx
 1577      10
 1578 074c 4889DF   		movq	%rbx, %rdi
 1579              	.LEHB35:
 1580 074f E8000000 		call	_ZN8UnitTest11TestResultsC1EPNS_12TestReporterE
 1580      00
 1581 0754 E8000000 		call	_ZN8UnitTest11CurrentTest7ResultsEv
 1581      00
 1582 0759 488B00   		movq	(%rax), %rax
 1583 075c 48890424 		movq	%rax, (%rsp)
 1584 0760 E8000000 		call	_ZN8UnitTest11CurrentTest7DetailsEv
 1584      00
 1585 0765 488B00   		movq	(%rax), %rax
 1586 0768 48894424 		movq	%rax, 8(%rsp)
 1586      08
 1587 076d E8000000 		call	_ZN8UnitTest11CurrentTest7ResultsEv
 1587      00
 1588              	.LEHE35:
 1589 0772 B9000000 		movl	$.LC1, %ecx
 1589      00
 1590 0777 488D7C24 		leaq	80(%rsp), %rdi
 1590      50
 1591 077c 488918   		movq	%rbx, (%rax)
 1592 077f 4531C0   		xorl	%r8d, %r8d
 1593 0782 4889CA   		movq	%rcx, %rdx
 1594 0785 4889CE   		movq	%rcx, %rsi
 1595              	.LEHB36:
 1596 0788 E8000000 		call	_ZN8UnitTest11TestDetailsC1EPKcS2_S2_i
 1596      00
 1597 078d 488D5424 		leaq	80(%rsp), %rdx
 1597      50
 1598 0792 488D7C24 		leaq	48(%rsp), %rdi
 1598      30
 1599 0797 BE0A0000 		movl	$10, %esi
 1599      00
 1600 079c E8000000 		call	_ZN8UnitTest14TimeConstraintC1EiRKNS_11TestDetailsE
 1600      00
 1601              	.LEHE36:
 1602 07a1 BF140000 		movl	$20, %edi
 1602      00
 1603              	.LEHB37:
 1604 07a6 E8000000 		call	_ZN8UnitTest11TimeHelpers7SleepMsEi
 1604      00
 1605              	.LEHE37:
 1606 07ab 488D7C24 		leaq	48(%rsp), %rdi
 1606      30
 1607              	.LEHB38:
 1608 07b0 E8000000 		call	_ZN8UnitTest14TimeConstraintD1Ev
 1608      00
 1609              	.LEHE38:
 1610              	.LEHB39:
 1611 07b5 E8000000 		call	_ZN8UnitTest11CurrentTest7ResultsEv
 1611      00
 1612 07ba 488B1424 		movq	(%rsp), %rdx
 1613 07be 488910   		movq	%rdx, (%rax)
 1614 07c1 E8000000 		call	_ZN8UnitTest11CurrentTest7DetailsEv
 1614      00
 1615              	.LEHE39:
 1616 07c6 488B5424 		movq	8(%rsp), %rdx
 1616      08
 1617 07cb 488910   		movq	%rdx, (%rax)
 1618              	.LEHB40:
 1619 07ce E8000000 		call	_ZN8UnitTest11CurrentTest7DetailsEv
 1619      00
 1620 07d3 488B30   		movq	(%rax), %rsi
 1621 07d6 488D7C24 		leaq	80(%rsp), %rdi
 1621      50
 1622 07db BA1F0000 		movl	$31, %edx
 1622      00
 1623 07e0 E8000000 		call	_ZN8UnitTest11TestDetailsC1ERKS0_i
 1623      00
 1624 07e5 4889DF   		movq	%rbx, %rdi
 1625 07e8 E8000000 		call	_ZNK8UnitTest11TestResults15GetFailureCountEv
 1625      00
 1626 07ed 89442430 		movl	%eax, 48(%rsp)
 1627 07f1 C7042401 		movl	$1, (%rsp)
 1627      000000
 1628 07f8 E8000000 		call	_ZN8UnitTest11CurrentTest7ResultsEv
 1628      00
 1629 07fd 488B38   		movq	(%rax), %rdi
 1630 0800 488D4C24 		leaq	80(%rsp), %rcx
 1630      50
 1631 0805 488D5424 		leaq	48(%rsp), %rdx
 1631      30
 1632 080a 4889E6   		movq	%rsp, %rsi
 1633 080d E8000000 		call	_ZN8UnitTest10CheckEqualIiiEEvRNS_11TestResultsERKT_RKT0_RKNS_11TestDetailsE
 1633      00
 1634              	.LEHE40:
 1635              	.L156:
 1636 0812 4883C470 		addq	$112, %rsp
 1637              		.cfi_remember_state
 1638              		.cfi_def_cfa_offset 16
 1639 0816 5B       		popq	%rbx
 1640              		.cfi_def_cfa_offset 8
 1641 0817 C3       		ret
 1642              	.L162:
 1643              		.cfi_restore_state
 1644 0818 4889C3   		movq	%rax, %rbx
 1645              	.L158:
 1646 081b 4889E7   		movq	%rsp, %rdi
 1647 081e E8000000 		call	_ZN17ScopedCurrentTestD1Ev
 1647      00
 1648 0823 4889DF   		movq	%rbx, %rdi
 1649              	.LEHB41:
 1650 0826 E8000000 		call	_Unwind_Resume
 1650      00
 1651              	.LEHE41:
 1652              	.L164:
 1653 082b 4889C7   		movq	%rax, %rdi
 1654 082e E8000000 		call	__cxa_begin_catch
 1654      00
 1655              	.LEHB42:
 1656 0833 E8000000 		call	_ZN8UnitTest11CurrentTest7DetailsEv
 1656      00
 1657 0838 488B30   		movq	(%rax), %rsi
 1658 083b 488D7C24 		leaq	80(%rsp), %rdi
 1658      50
 1659 0840 BA1F0000 		movl	$31, %edx
 1659      00
 1660 0845 E8000000 		call	_ZN8UnitTest11TestDetailsC1ERKS0_i
 1660      00
 1661 084a E8000000 		call	_ZN8UnitTest11CurrentTest7ResultsEv
 1661      00
 1662 084f 488B38   		movq	(%rax), %rdi
 1663 0852 488D7424 		leaq	80(%rsp), %rsi
 1663      50
 1664 0857 BA000000 		movl	$.LC18, %edx
 1664      00
 1665 085c E8000000 		call	_ZN8UnitTest11TestResults13OnTestFailureERKNS_11TestDetailsEPKc
 1665      00
 1666              	.LEHE42:
 1667              	.LEHB43:
 1668 0861 E8000000 		call	__cxa_end_catch
 1668      00
 1669              	.LEHE43:
 1670 0866 EBAA     		jmp	.L156
 1671              	.L163:
 1672 0868 488D7C24 		leaq	48(%rsp), %rdi
 1672      30
 1673 086d 4889C3   		movq	%rax, %rbx
 1674 0870 E8000000 		call	_ZN8UnitTest14TimeConstraintD1Ev
 1674      00
 1675 0875 EBA4     		jmp	.L158
 1676              	.L165:
 1677 0877 4889C3   		movq	%rax, %rbx
 1678 087a E8000000 		call	__cxa_end_catch
 1678      00
 1679 087f 4889DF   		movq	%rbx, %rdi
 1680              	.LEHB44:
 1681 0882 E8000000 		call	_Unwind_Resume
 1681      00
 1682              	.LEHE44:
 1683              		.cfi_endproc
 1684              	.LFE1101:
 1685              		.section	.gcc_except_table
 1686              		.align 4
 1687              	.LLSDA1101:
 1688 00ec FF       		.byte	0xff
 1689 00ed 03       		.byte	0x3
 1690 00ee 3D       		.uleb128 .LLSDATT1101-.LLSDATTD1101
 1691              	.LLSDATTD1101:
 1692 00ef 01       		.byte	0x1
 1693 00f0 32       		.uleb128 .LLSDACSE1101-.LLSDACSB1101
 1694              	.LLSDACSB1101:
 1695 00f1 0F       		.uleb128 .LEHB35-.LFB1101
 1696 00f2 23       		.uleb128 .LEHE35-.LEHB35
 1697 00f3 00       		.uleb128 0
 1698 00f4 00       		.uleb128 0
 1699 00f5 48       		.uleb128 .LEHB36-.LFB1101
 1700 00f6 19       		.uleb128 .LEHE36-.LEHB36
 1701 00f7 D801     		.uleb128 .L162-.LFB1101
 1702 00f9 00       		.uleb128 0
 1703 00fa 66       		.uleb128 .LEHB37-.LFB1101
 1704 00fb 05       		.uleb128 .LEHE37-.LEHB37
 1705 00fc A802     		.uleb128 .L163-.LFB1101
 1706 00fe 00       		.uleb128 0
 1707 00ff 70       		.uleb128 .LEHB38-.LFB1101
 1708 0100 05       		.uleb128 .LEHE38-.LEHB38
 1709 0101 D801     		.uleb128 .L162-.LFB1101
 1710 0103 00       		.uleb128 0
 1711 0104 75       		.uleb128 .LEHB39-.LFB1101
 1712 0105 11       		.uleb128 .LEHE39-.LEHB39
 1713 0106 00       		.uleb128 0
 1714 0107 00       		.uleb128 0
 1715 0108 8E01     		.uleb128 .LEHB40-.LFB1101
 1716 010a 44       		.uleb128 .LEHE40-.LEHB40
 1717 010b EB01     		.uleb128 .L164-.LFB1101
 1718 010d 01       		.uleb128 0x1
 1719 010e E601     		.uleb128 .LEHB41-.LFB1101
 1720 0110 05       		.uleb128 .LEHE41-.LEHB41
 1721 0111 00       		.uleb128 0
 1722 0112 00       		.uleb128 0
 1723 0113 F301     		.uleb128 .LEHB42-.LFB1101
 1724 0115 2E       		.uleb128 .LEHE42-.LEHB42
 1725 0116 B702     		.uleb128 .L165-.LFB1101
 1726 0118 00       		.uleb128 0
 1727 0119 A102     		.uleb128 .LEHB43-.LFB1101
 1728 011b 05       		.uleb128 .LEHE43-.LEHB43
 1729 011c 00       		.uleb128 0
 1730 011d 00       		.uleb128 0
 1731 011e C202     		.uleb128 .LEHB44-.LFB1101
 1732 0120 05       		.uleb128 .LEHE44-.LEHB44
 1733 0121 00       		.uleb128 0
 1734 0122 00       		.uleb128 0
 1735              	.LLSDACSE1101:
 1736 0123 01       		.byte	0x1
 1737 0124 00       		.byte	0
 1738 0125 000000   		.align 4
 1739 0128 00000000 		.long	0
 1740              	
 1741              	.LLSDATT1101:
 1742              		.text
 1744              		.section	.rodata.str1.8
 1745              		.align 8
 1746              	.LC19:
 1747 0298 556E6861 		.string	"Unhandled exception in CHECK_EQUAL(0, result.GetFailureCount())"
 1747      6E646C65 
 1747      64206578 
 1747      63657074 
 1747      696F6E20 
 1748              		.text
 1749 0887 90       		.align 2
 1750 0888 0F1F8400 		.p2align 4,,15
 1750      00000000 
 1752              	_ZNK12_GLOBAL__N_138TestTimeConstraintSucceedsWithFastTest7RunImplEv:
 1753              	.LFB1097:
 1754              		.cfi_startproc
 1755              		.cfi_personality 0x3,__gxx_personality_v0
 1756              		.cfi_lsda 0x3,.LLSDA1097
 1757 0890 53       		pushq	%rbx
 1758              		.cfi_def_cfa_offset 16
 1759              		.cfi_offset 3, -16
 1760 0891 31F6     		xorl	%esi, %esi
 1761 0893 4883EC70 		subq	$112, %rsp
 1762              		.cfi_def_cfa_offset 128
 1763 0897 488D5C24 		leaq	16(%rsp), %rbx
 1763      10
 1764 089c 4889DF   		movq	%rbx, %rdi
 1765              	.LEHB45:
 1766 089f E8000000 		call	_ZN8UnitTest11TestResultsC1EPNS_12TestReporterE
 1766      00
 1767 08a4 E8000000 		call	_ZN8UnitTest11CurrentTest7ResultsEv
 1767      00
 1768 08a9 488B00   		movq	(%rax), %rax
 1769 08ac 48890424 		movq	%rax, (%rsp)
 1770 08b0 E8000000 		call	_ZN8UnitTest11CurrentTest7DetailsEv
 1770      00
 1771 08b5 488B00   		movq	(%rax), %rax
 1772 08b8 48894424 		movq	%rax, 8(%rsp)
 1772      08
 1773 08bd E8000000 		call	_ZN8UnitTest11CurrentTest7ResultsEv
 1773      00
 1774              	.LEHE45:
 1775 08c2 B9000000 		movl	$.LC1, %ecx
 1775      00
 1776 08c7 488D7C24 		leaq	80(%rsp), %rdi
 1776      50
 1777 08cc 488918   		movq	%rbx, (%rax)
 1778 08cf 4531C0   		xorl	%r8d, %r8d
 1779 08d2 4889CA   		movq	%rcx, %rdx
 1780 08d5 4889CE   		movq	%rcx, %rsi
 1781              	.LEHB46:
 1782 08d8 E8000000 		call	_ZN8UnitTest11TestDetailsC1EPKcS2_S2_i
 1782      00
 1783 08dd 488D5424 		leaq	80(%rsp), %rdx
 1783      50
 1784 08e2 488D7C24 		leaq	48(%rsp), %rdi
 1784      30
 1785 08e7 BEC80000 		movl	$200, %esi
 1785      00
 1786 08ec E8000000 		call	_ZN8UnitTest14TimeConstraintC1EiRKNS_11TestDetailsE
 1786      00
 1787              	.LEHE46:
 1788 08f1 BF050000 		movl	$5, %edi
 1788      00
 1789              	.LEHB47:
 1790 08f6 E8000000 		call	_ZN8UnitTest11TimeHelpers7SleepMsEi
 1790      00
 1791              	.LEHE47:
 1792 08fb 488D7C24 		leaq	48(%rsp), %rdi
 1792      30
 1793              	.LEHB48:
 1794 0900 E8000000 		call	_ZN8UnitTest14TimeConstraintD1Ev
 1794      00
 1795              	.LEHE48:
 1796              	.LEHB49:
 1797 0905 E8000000 		call	_ZN8UnitTest11CurrentTest7ResultsEv
 1797      00
 1798 090a 488B1424 		movq	(%rsp), %rdx
 1799 090e 488910   		movq	%rdx, (%rax)
 1800 0911 E8000000 		call	_ZN8UnitTest11CurrentTest7DetailsEv
 1800      00
 1801              	.LEHE49:
 1802 0916 488B5424 		movq	8(%rsp), %rdx
 1802      08
 1803 091b 488910   		movq	%rdx, (%rax)
 1804              	.LEHB50:
 1805 091e E8000000 		call	_ZN8UnitTest11CurrentTest7DetailsEv
 1805      00
 1806 0923 488B30   		movq	(%rax), %rsi
 1807 0926 488D7C24 		leaq	80(%rsp), %rdi
 1807      50
 1808 092b BA140000 		movl	$20, %edx
 1808      00
 1809 0930 E8000000 		call	_ZN8UnitTest11TestDetailsC1ERKS0_i
 1809      00
 1810 0935 4889DF   		movq	%rbx, %rdi
 1811 0938 E8000000 		call	_ZNK8UnitTest11TestResults15GetFailureCountEv
 1811      00
 1812 093d 89442430 		movl	%eax, 48(%rsp)
 1813 0941 C7042400 		movl	$0, (%rsp)
 1813      000000
 1814 0948 E8000000 		call	_ZN8UnitTest11CurrentTest7ResultsEv
 1814      00
 1815 094d 488B38   		movq	(%rax), %rdi
 1816 0950 488D4C24 		leaq	80(%rsp), %rcx
 1816      50
 1817 0955 488D5424 		leaq	48(%rsp), %rdx
 1817      30
 1818 095a 4889E6   		movq	%rsp, %rsi
 1819 095d E8000000 		call	_ZN8UnitTest10CheckEqualIiiEEvRNS_11TestResultsERKT_RKT0_RKNS_11TestDetailsE
 1819      00
 1820              	.LEHE50:
 1821              	.L167:
 1822 0962 4883C470 		addq	$112, %rsp
 1823              		.cfi_remember_state
 1824              		.cfi_def_cfa_offset 16
 1825 0966 5B       		popq	%rbx
 1826              		.cfi_def_cfa_offset 8
 1827 0967 C3       		ret
 1828              	.L173:
 1829              		.cfi_restore_state
 1830 0968 4889C3   		movq	%rax, %rbx
 1831              	.L169:
 1832 096b 4889E7   		movq	%rsp, %rdi
 1833 096e E8000000 		call	_ZN17ScopedCurrentTestD1Ev
 1833      00
 1834 0973 4889DF   		movq	%rbx, %rdi
 1835              	.LEHB51:
 1836 0976 E8000000 		call	_Unwind_Resume
 1836      00
 1837              	.LEHE51:
 1838              	.L175:
 1839 097b 4889C7   		movq	%rax, %rdi
 1840 097e E8000000 		call	__cxa_begin_catch
 1840      00
 1841              	.LEHB52:
 1842 0983 E8000000 		call	_ZN8UnitTest11CurrentTest7DetailsEv
 1842      00
 1843 0988 488B30   		movq	(%rax), %rsi
 1844 098b 488D7C24 		leaq	80(%rsp), %rdi
 1844      50
 1845 0990 BA140000 		movl	$20, %edx
 1845      00
 1846 0995 E8000000 		call	_ZN8UnitTest11TestDetailsC1ERKS0_i
 1846      00
 1847 099a E8000000 		call	_ZN8UnitTest11CurrentTest7ResultsEv
 1847      00
 1848 099f 488B38   		movq	(%rax), %rdi
 1849 09a2 488D7424 		leaq	80(%rsp), %rsi
 1849      50
 1850 09a7 BA000000 		movl	$.LC19, %edx
 1850      00
 1851 09ac E8000000 		call	_ZN8UnitTest11TestResults13OnTestFailureERKNS_11TestDetailsEPKc
 1851      00
 1852              	.LEHE52:
 1853              	.LEHB53:
 1854 09b1 E8000000 		call	__cxa_end_catch
 1854      00
 1855              	.LEHE53:
 1856 09b6 EBAA     		jmp	.L167
 1857              	.L174:
 1858 09b8 488D7C24 		leaq	48(%rsp), %rdi
 1858      30
 1859 09bd 4889C3   		movq	%rax, %rbx
 1860 09c0 E8000000 		call	_ZN8UnitTest14TimeConstraintD1Ev
 1860      00
 1861 09c5 EBA4     		jmp	.L169
 1862              	.L176:
 1863 09c7 4889C3   		movq	%rax, %rbx
 1864 09ca E8000000 		call	__cxa_end_catch
 1864      00
 1865 09cf 4889DF   		movq	%rbx, %rdi
 1866              	.LEHB54:
 1867 09d2 E8000000 		call	_Unwind_Resume
 1867      00
 1868              	.LEHE54:
 1869              		.cfi_endproc
 1870              	.LFE1097:
 1871              		.section	.gcc_except_table
 1872              		.align 4
 1873              	.LLSDA1097:
 1874 012c FF       		.byte	0xff
 1875 012d 03       		.byte	0x3
 1876 012e 3D       		.uleb128 .LLSDATT1097-.LLSDATTD1097
 1877              	.LLSDATTD1097:
 1878 012f 01       		.byte	0x1
 1879 0130 32       		.uleb128 .LLSDACSE1097-.LLSDACSB1097
 1880              	.LLSDACSB1097:
 1881 0131 0F       		.uleb128 .LEHB45-.LFB1097
 1882 0132 23       		.uleb128 .LEHE45-.LEHB45
 1883 0133 00       		.uleb128 0
 1884 0134 00       		.uleb128 0
 1885 0135 48       		.uleb128 .LEHB46-.LFB1097
 1886 0136 19       		.uleb128 .LEHE46-.LEHB46
 1887 0137 D801     		.uleb128 .L173-.LFB1097
 1888 0139 00       		.uleb128 0
 1889 013a 66       		.uleb128 .LEHB47-.LFB1097
 1890 013b 05       		.uleb128 .LEHE47-.LEHB47
 1891 013c A802     		.uleb128 .L174-.LFB1097
 1892 013e 00       		.uleb128 0
 1893 013f 70       		.uleb128 .LEHB48-.LFB1097
 1894 0140 05       		.uleb128 .LEHE48-.LEHB48
 1895 0141 D801     		.uleb128 .L173-.LFB1097
 1896 0143 00       		.uleb128 0
 1897 0144 75       		.uleb128 .LEHB49-.LFB1097
 1898 0145 11       		.uleb128 .LEHE49-.LEHB49
 1899 0146 00       		.uleb128 0
 1900 0147 00       		.uleb128 0
 1901 0148 8E01     		.uleb128 .LEHB50-.LFB1097
 1902 014a 44       		.uleb128 .LEHE50-.LEHB50
 1903 014b EB01     		.uleb128 .L175-.LFB1097
 1904 014d 01       		.uleb128 0x1
 1905 014e E601     		.uleb128 .LEHB51-.LFB1097
 1906 0150 05       		.uleb128 .LEHE51-.LEHB51
 1907 0151 00       		.uleb128 0
 1908 0152 00       		.uleb128 0
 1909 0153 F301     		.uleb128 .LEHB52-.LFB1097
 1910 0155 2E       		.uleb128 .LEHE52-.LEHB52
 1911 0156 B702     		.uleb128 .L176-.LFB1097
 1912 0158 00       		.uleb128 0
 1913 0159 A102     		.uleb128 .LEHB53-.LFB1097
 1914 015b 05       		.uleb128 .LEHE53-.LEHB53
 1915 015c 00       		.uleb128 0
 1916 015d 00       		.uleb128 0
 1917 015e C202     		.uleb128 .LEHB54-.LFB1097
 1918 0160 05       		.uleb128 .LEHE54-.LEHB54
 1919 0161 00       		.uleb128 0
 1920 0162 00       		.uleb128 0
 1921              	.LLSDACSE1097:
 1922 0163 01       		.byte	0x1
 1923 0164 00       		.byte	0
 1924 0165 000000   		.align 4
 1925 0168 00000000 		.long	0
 1926              	
 1927              	.LLSDATT1097:
 1928              		.text
 1930              		.section	.rodata.str1.1
 1931              	.LC20:
 1932 004b 54657374 		.string	"TestTimeConstraint.cpp"
 1932      54696D65 
 1932      436F6E73 
 1932      74726169 
 1932      6E742E63 
 1933              	.LC21:
 1934 0062 44656661 		.string	"DefaultSuite"
 1934      756C7453 
 1934      75697465 
 1934      00
 1935              		.section	.rodata.str1.8
 1936              		.align 8
 1937              	.LC22:
 1938 02d8 54696D65 		.string	"TimeConstraintSucceedsWithFastTest"
 1938      436F6E73 
 1938      74726169 
 1938      6E745375 
 1938      63636565 
 1939 02fb 00000000 		.align 8
 1939      00
 1940              	.LC23:
 1941 0300 54696D65 		.string	"TimeConstraintFailsWithSlowTest"
 1941      436F6E73 
 1941      74726169 
 1941      6E744661 
 1941      696C7357 
 1942              		.align 8
 1943              	.LC24:
 1944 0320 54696D65 		.string	"TimeConstraintFailureIncludesCorrectData"
 1944      436F6E73 
 1944      74726169 
 1944      6E744661 
 1944      696C7572 
 1945 0349 00000000 		.align 8
 1945      000000
 1946              	.LC25:
 1947 0350 54696D65 		.string	"TimeConstraintFailureIncludesTimeoutInformation"
 1947      436F6E73 
 1947      74726169 
 1947      6E744661 
 1947      696C7572 
 1948              		.section	.text.startup,"ax",@progbits
 1949              		.p2align 4,,15
 1951              	_GLOBAL__sub_I_TestTimeConstraint.cpp:
 1952              	.LFB1212:
 1953              		.cfi_startproc
 1954 0000 4883EC08 		subq	$8, %rsp
 1955              		.cfi_def_cfa_offset 16
 1956 0004 41B80C00 		movl	$12, %r8d
 1956      0000
 1957 000a B9000000 		movl	$.LC20, %ecx
 1957      00
 1958 000f BA000000 		movl	$.LC21, %edx
 1958      00
 1959 0014 BE000000 		movl	$.LC22, %esi
 1959      00
 1960 0019 BF000000 		movl	$_ZN12_GLOBAL__N_146testTimeConstraintSucceedsWithFastTestInstanceE, %edi
 1960      00
 1961 001e E8000000 		call	_ZN8UnitTest4TestC2EPKcS2_S2_i
 1961      00
 1962 0023 BA000000 		movl	$__dso_handle, %edx
 1962      00
 1963 0028 BE000000 		movl	$_ZN12_GLOBAL__N_146testTimeConstraintSucceedsWithFastTestInstanceE, %esi
 1963      00
 1964 002d BF000000 		movl	$_ZN12_GLOBAL__N_138TestTimeConstraintSucceedsWithFastTestD1Ev, %edi
 1964      00
 1965 0032 48C70500 		movq	$_ZTVN12_GLOBAL__N_138TestTimeConstraintSucceedsWithFastTestE+16, _ZN12_GLOBAL__N_146testTime
 1965      00000000 
 1965      000000
 1966 003d E8000000 		call	__cxa_atexit
 1966      00
 1967 0042 E8000000 		call	_ZN8UnitTest4Test11GetTestListEv
 1967      00
 1968 0047 BA000000 		movl	$_ZN12_GLOBAL__N_146testTimeConstraintSucceedsWithFastTestInstanceE, %edx
 1968      00
 1969 004c 4889C6   		movq	%rax, %rsi
 1970 004f BF000000 		movl	$_ZN12_GLOBAL__N_139adderTimeConstraintSucceedsWithFastTestE, %edi
 1970      00
 1971 0054 E8000000 		call	_ZN8UnitTest9ListAdderC1ERNS_8TestListEPNS_4TestE
 1971      00
 1972 0059 41B81700 		movl	$23, %r8d
 1972      0000
 1973 005f B9000000 		movl	$.LC20, %ecx
 1973      00
 1974 0064 BA000000 		movl	$.LC21, %edx
 1974      00
 1975 0069 BE000000 		movl	$.LC23, %esi
 1975      00
 1976 006e BF000000 		movl	$_ZN12_GLOBAL__N_143testTimeConstraintFailsWithSlowTestInstanceE, %edi
 1976      00
 1977 0073 E8000000 		call	_ZN8UnitTest4TestC2EPKcS2_S2_i
 1977      00
 1978 0078 BA000000 		movl	$__dso_handle, %edx
 1978      00
 1979 007d BE000000 		movl	$_ZN12_GLOBAL__N_143testTimeConstraintFailsWithSlowTestInstanceE, %esi
 1979      00
 1980 0082 BF000000 		movl	$_ZN12_GLOBAL__N_135TestTimeConstraintFailsWithSlowTestD1Ev, %edi
 1980      00
 1981 0087 48C70500 		movq	$_ZTVN12_GLOBAL__N_135TestTimeConstraintFailsWithSlowTestE+16, _ZN12_GLOBAL__N_143testTimeCon
 1981      00000000 
 1981      000000
 1982 0092 E8000000 		call	__cxa_atexit
 1982      00
 1983 0097 E8000000 		call	_ZN8UnitTest4Test11GetTestListEv
 1983      00
 1984 009c BA000000 		movl	$_ZN12_GLOBAL__N_143testTimeConstraintFailsWithSlowTestInstanceE, %edx
 1984      00
 1985 00a1 4889C6   		movq	%rax, %rsi
 1986 00a4 BF000000 		movl	$_ZN12_GLOBAL__N_136adderTimeConstraintFailsWithSlowTestE, %edi
 1986      00
 1987 00a9 E8000000 		call	_ZN8UnitTest9ListAdderC1ERNS_8TestListEPNS_4TestE
 1987      00
 1988 00ae 41B82200 		movl	$34, %r8d
 1988      0000
 1989 00b4 B9000000 		movl	$.LC20, %ecx
 1989      00
 1990 00b9 BA000000 		movl	$.LC21, %edx
 1990      00
 1991 00be BE000000 		movl	$.LC24, %esi
 1991      00
 1992 00c3 BF000000 		movl	$_ZN12_GLOBAL__N_152testTimeConstraintFailureIncludesCorrectDataInstanceE, %edi
 1992      00
 1993 00c8 E8000000 		call	_ZN8UnitTest4TestC2EPKcS2_S2_i
 1993      00
 1994 00cd BA000000 		movl	$__dso_handle, %edx
 1994      00
 1995 00d2 BE000000 		movl	$_ZN12_GLOBAL__N_152testTimeConstraintFailureIncludesCorrectDataInstanceE, %esi
 1995      00
 1996 00d7 BF000000 		movl	$_ZN12_GLOBAL__N_144TestTimeConstraintFailureIncludesCorrectDataD1Ev, %edi
 1996      00
 1997 00dc 48C70500 		movq	$_ZTVN12_GLOBAL__N_144TestTimeConstraintFailureIncludesCorrectDataE+16, _ZN12_GLOBAL__N_152te
 1997      00000000 
 1997      000000
 1998 00e7 E8000000 		call	__cxa_atexit
 1998      00
 1999 00ec E8000000 		call	_ZN8UnitTest4Test11GetTestListEv
 1999      00
 2000 00f1 BA000000 		movl	$_ZN12_GLOBAL__N_152testTimeConstraintFailureIncludesCorrectDataInstanceE, %edx
 2000      00
 2001 00f6 4889C6   		movq	%rax, %rsi
 2002 00f9 BF000000 		movl	$_ZN12_GLOBAL__N_145adderTimeConstraintFailureIncludesCorrectDataE, %edi
 2002      00
 2003 00fe E8000000 		call	_ZN8UnitTest9ListAdderC1ERNS_8TestListEPNS_4TestE
 2003      00
 2004 0103 41B83500 		movl	$53, %r8d
 2004      0000
 2005 0109 B9000000 		movl	$.LC20, %ecx
 2005      00
 2006 010e BA000000 		movl	$.LC21, %edx
 2006      00
 2007 0113 BE000000 		movl	$.LC25, %esi
 2007      00
 2008 0118 BF000000 		movl	$_ZN12_GLOBAL__N_159testTimeConstraintFailureIncludesTimeoutInformationInstanceE, %edi
 2008      00
 2009 011d E8000000 		call	_ZN8UnitTest4TestC2EPKcS2_S2_i
 2009      00
 2010 0122 BA000000 		movl	$__dso_handle, %edx
 2010      00
 2011 0127 BE000000 		movl	$_ZN12_GLOBAL__N_159testTimeConstraintFailureIncludesTimeoutInformationInstanceE, %esi
 2011      00
 2012 012c BF000000 		movl	$_ZN12_GLOBAL__N_151TestTimeConstraintFailureIncludesTimeoutInformationD1Ev, %edi
 2012      00
 2013 0131 48C70500 		movq	$_ZTVN12_GLOBAL__N_151TestTimeConstraintFailureIncludesTimeoutInformationE+16, _ZN12_GLOBAL__
 2013      00000000 
 2013      000000
 2014 013c E8000000 		call	__cxa_atexit
 2014      00
 2015 0141 E8000000 		call	_ZN8UnitTest4Test11GetTestListEv
 2015      00
 2016 0146 BA000000 		movl	$_ZN12_GLOBAL__N_159testTimeConstraintFailureIncludesTimeoutInformationInstanceE, %edx
 2016      00
 2017 014b 4889C6   		movq	%rax, %rsi
 2018 014e BF000000 		movl	$_ZN12_GLOBAL__N_152adderTimeConstraintFailureIncludesTimeoutInformationE, %edi
 2018      00
 2019 0153 4883C408 		addq	$8, %rsp
 2020              		.cfi_def_cfa_offset 8
 2021 0157 E9000000 		jmp	_ZN8UnitTest9ListAdderC1ERNS_8TestListEPNS_4TestE
 2021      00
 2022              		.cfi_endproc
 2023              	.LFE1212:
 2025              		.section	.init_array,"aw"
 2026              		.align 8
 2027 0000 00000000 		.quad	_GLOBAL__sub_I_TestTimeConstraint.cpp
 2027      00000000 
 2028              		.section	.rodata
 2029              		.align 32
 2032              	_ZTSN12_GLOBAL__N_138TestTimeConstraintSucceedsWithFastTestE:
 2033 0000 2A4E3132 		.string	"*N12_GLOBAL__N_138TestTimeConstraintSucceedsWithFastTestE"
 2033      5F474C4F 
 2033      42414C5F 
 2033      5F4E5F31 
 2033      33385465 
 2034 003a 00000000 		.align 32
 2034      0000
 2037              	_ZTSN12_GLOBAL__N_135TestTimeConstraintFailsWithSlowTestE:
 2038 0040 2A4E3132 		.string	"*N12_GLOBAL__N_135TestTimeConstraintFailsWithSlowTestE"
 2038      5F474C4F 
 2038      42414C5F 
 2038      5F4E5F31 
 2038      33355465 
 2039 0077 00000000 		.align 32
 2039      00000000 
 2039      00
 2042              	_ZTSN12_GLOBAL__N_144TestTimeConstraintFailureIncludesCorrectDataE:
 2043 0080 2A4E3132 		.string	"*N12_GLOBAL__N_144TestTimeConstraintFailureIncludesCorrectDataE"
 2043      5F474C4F 
 2043      42414C5F 
 2043      5F4E5F31 
 2043      34345465 
 2044              		.align 32
 2047              	_ZTSN12_GLOBAL__N_151TestTimeConstraintFailureIncludesTimeoutInformationE:
 2048 00c0 2A4E3132 		.string	"*N12_GLOBAL__N_151TestTimeConstraintFailureIncludesTimeoutInformationE"
 2048      5F474C4F 
 2048      42414C5F 
 2048      5F4E5F31 
 2048      35315465 
 2049 0107 00000000 		.align 16
 2049      00000000 
 2049      00
 2052              	_ZTIN12_GLOBAL__N_151TestTimeConstraintFailureIncludesTimeoutInformationE:
 2053 0110 00000000 		.quad	_ZTVN10__cxxabiv120__si_class_type_infoE+16
 2053      00000000 
 2054 0118 00000000 		.quad	_ZTSN12_GLOBAL__N_151TestTimeConstraintFailureIncludesTimeoutInformationE
 2054      00000000 
 2055 0120 00000000 		.quad	_ZTIN8UnitTest4TestE
 2055      00000000 
 2056 0128 00000000 		.align 16
 2056      00000000 
 2059              	_ZTIN12_GLOBAL__N_144TestTimeConstraintFailureIncludesCorrectDataE:
 2060 0130 00000000 		.quad	_ZTVN10__cxxabiv120__si_class_type_infoE+16
 2060      00000000 
 2061 0138 00000000 		.quad	_ZTSN12_GLOBAL__N_144TestTimeConstraintFailureIncludesCorrectDataE
 2061      00000000 
 2062 0140 00000000 		.quad	_ZTIN8UnitTest4TestE
 2062      00000000 
 2063 0148 00000000 		.align 16
 2063      00000000 
 2066              	_ZTIN12_GLOBAL__N_135TestTimeConstraintFailsWithSlowTestE:
 2067 0150 00000000 		.quad	_ZTVN10__cxxabiv120__si_class_type_infoE+16
 2067      00000000 
 2068 0158 00000000 		.quad	_ZTSN12_GLOBAL__N_135TestTimeConstraintFailsWithSlowTestE
 2068      00000000 
 2069 0160 00000000 		.quad	_ZTIN8UnitTest4TestE
 2069      00000000 
 2070 0168 00000000 		.align 16
 2070      00000000 
 2073              	_ZTIN12_GLOBAL__N_138TestTimeConstraintSucceedsWithFastTestE:
 2074 0170 00000000 		.quad	_ZTVN10__cxxabiv120__si_class_type_infoE+16
 2074      00000000 
 2075 0178 00000000 		.quad	_ZTSN12_GLOBAL__N_138TestTimeConstraintSucceedsWithFastTestE
 2075      00000000 
 2076 0180 00000000 		.quad	_ZTIN8UnitTest4TestE
 2076      00000000 
 2077              		.weak	_ZTIN8UnitTest15MemoryOutStreamE
 2078              		.section	.rodata._ZTIN8UnitTest15MemoryOutStreamE,"aG",@progbits,_ZTIN8UnitTest15MemoryOutStreamE,
 2079              		.align 16
 2082              	_ZTIN8UnitTest15MemoryOutStreamE:
 2083 0000 00000000 		.quad	_ZTVN10__cxxabiv120__si_class_type_infoE+16
 2083      00000000 
 2084 0008 00000000 		.quad	_ZTSN8UnitTest15MemoryOutStreamE
 2084      00000000 
 2085 0010 00000000 		.quad	_ZTISt19basic_ostringstreamIcSt11char_traitsIcESaIcEE
 2085      00000000 
 2086              		.weak	_ZTSN8UnitTest15MemoryOutStreamE
 2087              		.section	.rodata._ZTSN8UnitTest15MemoryOutStreamE,"aG",@progbits,_ZTSN8UnitTest15MemoryOutStreamE,
 2088              		.align 16
 2091              	_ZTSN8UnitTest15MemoryOutStreamE:
 2092 0000 4E38556E 		.string	"N8UnitTest15MemoryOutStreamE"
 2092      69745465 
 2092      73743135 
 2092      4D656D6F 
 2092      72794F75 
 2093              		.weak	_ZTI17RecordingReporter
 2094              		.section	.rodata._ZTI17RecordingReporter,"aG",@progbits,_ZTI17RecordingReporter,comdat
 2095              		.align 16
 2098              	_ZTI17RecordingReporter:
 2099 0000 00000000 		.quad	_ZTVN10__cxxabiv120__si_class_type_infoE+16
 2099      00000000 
 2100 0008 00000000 		.quad	_ZTS17RecordingReporter
 2100      00000000 
 2101 0010 00000000 		.quad	_ZTIN8UnitTest12TestReporterE
 2101      00000000 
 2102              		.weak	_ZTS17RecordingReporter
 2103              		.section	.rodata._ZTS17RecordingReporter,"aG",@progbits,_ZTS17RecordingReporter,comdat
 2104              		.align 16
 2107              	_ZTS17RecordingReporter:
 2108 0000 31375265 		.string	"17RecordingReporter"
 2108      636F7264 
 2108      696E6752 
 2108      65706F72 
 2108      74657200 
 2109              		.hidden	_ZTCN8UnitTest15MemoryOutStreamE0_So
 2110              		.weak	_ZTCN8UnitTest15MemoryOutStreamE0_So
 2111              		.section	.rodata._ZTCN8UnitTest15MemoryOutStreamE0_So,"aG",@progbits,_ZTVN8UnitTest15MemoryOutStre
 2112              		.align 32
 2115              	_ZTCN8UnitTest15MemoryOutStreamE0_So:
 2116 0000 60000000 		.quad	96
 2116      00000000 
 2117 0008 00000000 		.quad	0
 2117      00000000 
 2118 0010 00000000 		.quad	_ZTISo
 2118      00000000 
 2119 0018 00000000 		.quad	_ZNSoD1Ev
 2119      00000000 
 2120 0020 00000000 		.quad	_ZNSoD0Ev
 2120      00000000 
 2121 0028 A0FFFFFF 		.quad	-96
 2121      FFFFFFFF 
 2122 0030 A0FFFFFF 		.quad	-96
 2122      FFFFFFFF 
 2123 0038 00000000 		.quad	_ZTISo
 2123      00000000 
 2124 0040 00000000 		.quad	_ZTv0_n24_NSoD1Ev
 2124      00000000 
 2125 0048 00000000 		.quad	_ZTv0_n24_NSoD0Ev
 2125      00000000 
 2126              		.hidden	_ZTCN8UnitTest15MemoryOutStreamE0_St19basic_ostringstreamIcSt11char_traitsIcESaIcEE
 2127              		.weak	_ZTCN8UnitTest15MemoryOutStreamE0_St19basic_ostringstreamIcSt11char_traitsIcESaIcEE
 2128              		.section	.rodata._ZTCN8UnitTest15MemoryOutStreamE0_St19basic_ostringstreamIcSt11char_traitsIcESaIc
 2129              		.align 32
 2132              	_ZTCN8UnitTest15MemoryOutStreamE0_St19basic_ostringstreamIcSt11char_traitsIcESaIcEE:
 2133 0000 60000000 		.quad	96
 2133      00000000 
 2134 0008 00000000 		.quad	0
 2134      00000000 
 2135 0010 00000000 		.quad	_ZTISt19basic_ostringstreamIcSt11char_traitsIcESaIcEE
 2135      00000000 
 2136 0018 00000000 		.quad	_ZNSt19basic_ostringstreamIcSt11char_traitsIcESaIcEED1Ev
 2136      00000000 
 2137 0020 00000000 		.quad	_ZNSt19basic_ostringstreamIcSt11char_traitsIcESaIcEED0Ev
 2137      00000000 
 2138 0028 A0FFFFFF 		.quad	-96
 2138      FFFFFFFF 
 2139 0030 A0FFFFFF 		.quad	-96
 2139      FFFFFFFF 
 2140 0038 00000000 		.quad	_ZTISt19basic_ostringstreamIcSt11char_traitsIcESaIcEE
 2140      00000000 
 2141 0040 00000000 		.quad	_ZTv0_n24_NSt19basic_ostringstreamIcSt11char_traitsIcESaIcEED1Ev
 2141      00000000 
 2142 0048 00000000 		.quad	_ZTv0_n24_NSt19basic_ostringstreamIcSt11char_traitsIcESaIcEED0Ev
 2142      00000000 
 2143              		.weak	_ZTTN8UnitTest15MemoryOutStreamE
 2144              		.section	.rodata._ZTTN8UnitTest15MemoryOutStreamE,"aG",@progbits,_ZTVN8UnitTest15MemoryOutStreamE,
 2145              		.align 32
 2148              	_ZTTN8UnitTest15MemoryOutStreamE:
 2149 0000 00000000 		.quad	_ZTVN8UnitTest15MemoryOutStreamE+24
 2149      00000000 
 2150 0008 00000000 		.quad	_ZTCN8UnitTest15MemoryOutStreamE0_St19basic_ostringstreamIcSt11char_traitsIcESaIcEE+24
 2150      00000000 
 2151 0010 00000000 		.quad	_ZTCN8UnitTest15MemoryOutStreamE0_So+24
 2151      00000000 
 2152 0018 00000000 		.quad	_ZTCN8UnitTest15MemoryOutStreamE0_So+64
 2152      00000000 
 2153 0020 00000000 		.quad	_ZTCN8UnitTest15MemoryOutStreamE0_St19basic_ostringstreamIcSt11char_traitsIcESaIcEE+64
 2153      00000000 
 2154 0028 00000000 		.quad	_ZTVN8UnitTest15MemoryOutStreamE+64
 2154      00000000 
 2155              		.weak	_ZTVN8UnitTest15MemoryOutStreamE
 2156              		.section	.rodata._ZTVN8UnitTest15MemoryOutStreamE,"aG",@progbits,_ZTVN8UnitTest15MemoryOutStreamE,
 2157              		.align 32
 2160              	_ZTVN8UnitTest15MemoryOutStreamE:
 2161 0000 60000000 		.quad	96
 2161      00000000 
 2162 0008 00000000 		.quad	0
 2162      00000000 
 2163 0010 00000000 		.quad	_ZTIN8UnitTest15MemoryOutStreamE
 2163      00000000 
 2164 0018 00000000 		.quad	_ZN8UnitTest15MemoryOutStreamD1Ev
 2164      00000000 
 2165 0020 00000000 		.quad	_ZN8UnitTest15MemoryOutStreamD0Ev
 2165      00000000 
 2166 0028 A0FFFFFF 		.quad	-96
 2166      FFFFFFFF 
 2167 0030 A0FFFFFF 		.quad	-96
 2167      FFFFFFFF 
 2168 0038 00000000 		.quad	_ZTIN8UnitTest15MemoryOutStreamE
 2168      00000000 
 2169 0040 00000000 		.quad	_ZTv0_n24_N8UnitTest15MemoryOutStreamD1Ev
 2169      00000000 
 2170 0048 00000000 		.quad	_ZTv0_n24_N8UnitTest15MemoryOutStreamD0Ev
 2170      00000000 
 2171              		.weak	_ZTV17RecordingReporter
 2172              		.section	.rodata._ZTV17RecordingReporter,"aG",@progbits,_ZTV17RecordingReporter,comdat
 2173              		.align 32
 2176              	_ZTV17RecordingReporter:
 2177 0000 00000000 		.quad	0
 2177      00000000 
 2178 0008 00000000 		.quad	_ZTI17RecordingReporter
 2178      00000000 
 2179 0010 00000000 		.quad	_ZN17RecordingReporterD1Ev
 2179      00000000 
 2180 0018 00000000 		.quad	_ZN17RecordingReporterD0Ev
 2180      00000000 
 2181 0020 00000000 		.quad	_ZN17RecordingReporter15ReportTestStartERKN8UnitTest11TestDetailsE
 2181      00000000 
 2182 0028 00000000 		.quad	_ZN17RecordingReporter13ReportFailureERKN8UnitTest11TestDetailsEPKc
 2182      00000000 
 2183 0030 00000000 		.quad	_ZN17RecordingReporter16ReportTestFinishERKN8UnitTest11TestDetailsEf
 2183      00000000 
 2184 0038 00000000 		.quad	_ZN17RecordingReporter13ReportSummaryEiiif
 2184      00000000 
 2185              		.section	.rodata
 2186 0188 00000000 		.align 32
 2186      00000000 
 2186      00000000 
 2186      00000000 
 2186      00000000 
 2189              	_ZTVN12_GLOBAL__N_138TestTimeConstraintSucceedsWithFastTestE:
 2190 01a0 00000000 		.quad	0
 2190      00000000 
 2191 01a8 00000000 		.quad	_ZTIN12_GLOBAL__N_138TestTimeConstraintSucceedsWithFastTestE
 2191      00000000 
 2192 01b0 00000000 		.quad	_ZN12_GLOBAL__N_138TestTimeConstraintSucceedsWithFastTestD1Ev
 2192      00000000 
 2193 01b8 00000000 		.quad	_ZN12_GLOBAL__N_138TestTimeConstraintSucceedsWithFastTestD0Ev
 2193      00000000 
 2194 01c0 00000000 		.quad	_ZNK12_GLOBAL__N_138TestTimeConstraintSucceedsWithFastTest7RunImplEv
 2194      00000000 
 2195 01c8 00000000 		.align 32
 2195      00000000 
 2195      00000000 
 2195      00000000 
 2195      00000000 
 2198              	_ZTVN12_GLOBAL__N_135TestTimeConstraintFailsWithSlowTestE:
 2199 01e0 00000000 		.quad	0
 2199      00000000 
 2200 01e8 00000000 		.quad	_ZTIN12_GLOBAL__N_135TestTimeConstraintFailsWithSlowTestE
 2200      00000000 
 2201 01f0 00000000 		.quad	_ZN12_GLOBAL__N_135TestTimeConstraintFailsWithSlowTestD1Ev
 2201      00000000 
 2202 01f8 00000000 		.quad	_ZN12_GLOBAL__N_135TestTimeConstraintFailsWithSlowTestD0Ev
 2202      00000000 
 2203 0200 00000000 		.quad	_ZNK12_GLOBAL__N_135TestTimeConstraintFailsWithSlowTest7RunImplEv
 2203      00000000 
 2204 0208 00000000 		.align 32
 2204      00000000 
 2204      00000000 
 2204      00000000 
 2204      00000000 
 2207              	_ZTVN12_GLOBAL__N_144TestTimeConstraintFailureIncludesCorrectDataE:
 2208 0220 00000000 		.quad	0
 2208      00000000 
 2209 0228 00000000 		.quad	_ZTIN12_GLOBAL__N_144TestTimeConstraintFailureIncludesCorrectDataE
 2209      00000000 
 2210 0230 00000000 		.quad	_ZN12_GLOBAL__N_144TestTimeConstraintFailureIncludesCorrectDataD1Ev
 2210      00000000 
 2211 0238 00000000 		.quad	_ZN12_GLOBAL__N_144TestTimeConstraintFailureIncludesCorrectDataD0Ev
 2211      00000000 
 2212 0240 00000000 		.quad	_ZNK12_GLOBAL__N_144TestTimeConstraintFailureIncludesCorrectData7RunImplEv
 2212      00000000 
 2213 0248 00000000 		.align 32
 2213      00000000 
 2213      00000000 
 2213      00000000 
 2213      00000000 
 2216              	_ZTVN12_GLOBAL__N_151TestTimeConstraintFailureIncludesTimeoutInformationE:
 2217 0260 00000000 		.quad	0
 2217      00000000 
 2218 0268 00000000 		.quad	_ZTIN12_GLOBAL__N_151TestTimeConstraintFailureIncludesTimeoutInformationE
 2218      00000000 
 2219 0270 00000000 		.quad	_ZN12_GLOBAL__N_151TestTimeConstraintFailureIncludesTimeoutInformationD1Ev
 2219      00000000 
 2220 0278 00000000 		.quad	_ZN12_GLOBAL__N_151TestTimeConstraintFailureIncludesTimeoutInformationD0Ev
 2220      00000000 
 2221 0280 00000000 		.quad	_ZNK12_GLOBAL__N_151TestTimeConstraintFailureIncludesTimeoutInformation7RunImplEv
 2221      00000000 
 2222              		.local	_ZN12_GLOBAL__N_152adderTimeConstraintFailureIncludesTimeoutInformationE
 2223              		.comm	_ZN12_GLOBAL__N_152adderTimeConstraintFailureIncludesTimeoutInformationE,1,1
 2224              		.local	_ZN12_GLOBAL__N_159testTimeConstraintFailureIncludesTimeoutInformationInstanceE
 2225              		.comm	_ZN12_GLOBAL__N_159testTimeConstraintFailureIncludesTimeoutInformationInstanceE,56,32
 2226              		.local	_ZN12_GLOBAL__N_145adderTimeConstraintFailureIncludesCorrectDataE
 2227              		.comm	_ZN12_GLOBAL__N_145adderTimeConstraintFailureIncludesCorrectDataE,1,1
 2228              		.local	_ZN12_GLOBAL__N_152testTimeConstraintFailureIncludesCorrectDataInstanceE
 2229              		.comm	_ZN12_GLOBAL__N_152testTimeConstraintFailureIncludesCorrectDataInstanceE,56,32
 2230              		.local	_ZN12_GLOBAL__N_136adderTimeConstraintFailsWithSlowTestE
 2231              		.comm	_ZN12_GLOBAL__N_136adderTimeConstraintFailsWithSlowTestE,1,1
 2232              		.local	_ZN12_GLOBAL__N_143testTimeConstraintFailsWithSlowTestInstanceE
 2233              		.comm	_ZN12_GLOBAL__N_143testTimeConstraintFailsWithSlowTestInstanceE,56,32
 2234              		.local	_ZN12_GLOBAL__N_139adderTimeConstraintSucceedsWithFastTestE
 2235              		.comm	_ZN12_GLOBAL__N_139adderTimeConstraintSucceedsWithFastTestE,1,1
 2236              		.local	_ZN12_GLOBAL__N_146testTimeConstraintSucceedsWithFastTestInstanceE
 2237              		.comm	_ZN12_GLOBAL__N_146testTimeConstraintSucceedsWithFastTestInstanceE,56,32
 2238              		.weakref	_ZL28__gthrw___pthread_key_createPjPFvPvE,__pthread_key_create
 2239              		.hidden	__dso_handle
 2240              		.ident	"GCC: (Ubuntu 4.8.4-2ubuntu1~14.04.3) 4.8.4"
 2241              		.section	.note.GNU-stack,"",@progbits