   1              		.file	"TestCheckMacros.cpp"
   2              		.section	.text._ZN17RecordingReporter13ReportSummaryEiiif,"axG",@progbits,_ZN17RecordingReporter13
   3              		.align 2
   4              		.p2align 4,,15
   5              		.weak	_ZN17RecordingReporter13ReportSummaryEiiif
   7              	_ZN17RecordingReporter13ReportSummaryEiiif:
   8              	.LFB1084:
   9              		.cfi_startproc
  10 0000 89B71C08 		movl	%esi, 2076(%rdi)
  10      0000
  11 0006 89972008 		movl	%edx, 2080(%rdi)
  11      0000
  12 000c F30F1187 		movss	%xmm0, 2088(%rdi)
  12      28080000 
  13 0014 898F2408 		movl	%ecx, 2084(%rdi)
  13      0000
  14 001a C3       		ret
  15              		.cfi_endproc
  16              	.LFE1084:
  18              		.section	.text._ZN17RecordingReporter15ReportTestStartERKN8UnitTest11TestDetailsE,"axG",@progbits,
  19              		.align 2
  20              		.p2align 4,,15
  21              		.weak	_ZN17RecordingReporter15ReportTestStartERKN8UnitTest11TestDetailsE
  23              	_ZN17RecordingReporter15ReportTestStartERKN8UnitTest11TestDetailsE:
  24              	.LFB1081:
  25              		.cfi_startproc
  26 0000 55       		pushq	%rbp
  27              		.cfi_def_cfa_offset 16
  28              		.cfi_offset 6, -16
  29 0001 4889F5   		movq	%rsi, %rbp
  30 0004 BA000100 		movl	$256, %edx
  30      00
  31 0009 53       		pushq	%rbx
  32              		.cfi_def_cfa_offset 24
  33              		.cfi_offset 3, -24
  34 000a 4889FB   		movq	%rdi, %rbx
  35 000d 4883EC08 		subq	$8, %rsp
  36              		.cfi_def_cfa_offset 32
  37 0011 83470801 		addl	$1, 8(%rdi)
  38 0015 488B36   		movq	(%rsi), %rsi
  39 0018 488D7F0C 		leaq	12(%rdi), %rdi
  40 001c E8000000 		call	__strcpy_chk
  40      00
  41 0021 488B7508 		movq	8(%rbp), %rsi
  42 0025 4883C408 		addq	$8, %rsp
  43              		.cfi_def_cfa_offset 24
  44 0029 488DBB0C 		leaq	268(%rbx), %rdi
  44      010000
  45 0030 5B       		popq	%rbx
  46              		.cfi_def_cfa_offset 16
  47 0031 5D       		popq	%rbp
  48              		.cfi_def_cfa_offset 8
  49 0032 BA000100 		movl	$256, %edx
  49      00
  50 0037 E9000000 		jmp	__strcpy_chk
  50      00
  51              		.cfi_endproc
  52              	.LFE1081:
  54              		.section	.text._ZN17RecordingReporter13ReportFailureERKN8UnitTest11TestDetailsEPKc,"axG",@progbits
  55              		.align 2
  56              		.p2align 4,,15
  57              		.weak	_ZN17RecordingReporter13ReportFailureERKN8UnitTest11TestDetailsEPKc
  59              	_ZN17RecordingReporter13ReportFailureERKN8UnitTest11TestDetailsEPKc:
  60              	.LFB1082:
  61              		.cfi_startproc
  62 0000 4154     		pushq	%r12
  63              		.cfi_def_cfa_offset 16
  64              		.cfi_offset 12, -16
  65 0002 4989D4   		movq	%rdx, %r12
  66 0005 BA000100 		movl	$256, %edx
  66      00
  67 000a 55       		pushq	%rbp
  68              		.cfi_def_cfa_offset 24
  69              		.cfi_offset 6, -24
  70 000b 4889F5   		movq	%rsi, %rbp
  71 000e 53       		pushq	%rbx
  72              		.cfi_def_cfa_offset 32
  73              		.cfi_offset 3, -32
  74 000f 83870C02 		addl	$1, 524(%rdi)
  74      000001
  75 0016 4889FB   		movq	%rdi, %rbx
  76 0019 488B7610 		movq	16(%rsi), %rsi
  77 001d 488DBF10 		leaq	528(%rdi), %rdi
  77      020000
  78 0024 E8000000 		call	__strcpy_chk
  78      00
  79 0029 8B4518   		movl	24(%rbp), %eax
  80 002c 488B7500 		movq	0(%rbp), %rsi
  81 0030 488DBB14 		leaq	788(%rbx), %rdi
  81      030000
  82 0037 BA000100 		movl	$256, %edx
  82      00
  83 003c 89831003 		movl	%eax, 784(%rbx)
  83      0000
  84 0042 E8000000 		call	__strcpy_chk
  84      00
  85 0047 488B7508 		movq	8(%rbp), %rsi
  86 004b 488DBB14 		leaq	1044(%rbx), %rdi
  86      040000
  87 0052 BA000100 		movl	$256, %edx
  87      00
  88 0057 E8000000 		call	__strcpy_chk
  88      00
  89 005c 488DBB14 		leaq	1300(%rbx), %rdi
  89      050000
  90 0063 4C89E6   		movq	%r12, %rsi
  91 0066 BA000100 		movl	$256, %edx
  91      00
  92 006b 5B       		popq	%rbx
  93              		.cfi_def_cfa_offset 24
  94 006c 5D       		popq	%rbp
  95              		.cfi_def_cfa_offset 16
  96 006d 415C     		popq	%r12
  97              		.cfi_def_cfa_offset 8
  98 006f E9000000 		jmp	__strcpy_chk
  98      00
  99              		.cfi_endproc
 100              	.LFE1082:
 102              		.section	.text._ZN17RecordingReporter16ReportTestFinishERKN8UnitTest11TestDetailsEf,"axG",@progbit
 103              		.align 2
 104              		.p2align 4,,15
 105              		.weak	_ZN17RecordingReporter16ReportTestFinishERKN8UnitTest11TestDetailsEf
 107              	_ZN17RecordingReporter16ReportTestFinishERKN8UnitTest11TestDetailsEf:
 108              	.LFB1083:
 109              		.cfi_startproc
 110 0000 55       		pushq	%rbp
 111              		.cfi_def_cfa_offset 16
 112              		.cfi_offset 6, -16
 113 0001 4889F5   		movq	%rsi, %rbp
 114 0004 BA000100 		movl	$256, %edx
 114      00
 115 0009 53       		pushq	%rbx
 116              		.cfi_def_cfa_offset 24
 117              		.cfi_offset 3, -24
 118 000a 4889FB   		movq	%rdi, %rbx
 119 000d 4883EC18 		subq	$24, %rsp
 120              		.cfi_def_cfa_offset 48
 121 0011 83871406 		addl	$1, 1556(%rdi)
 121      000001
 122 0018 488B36   		movq	(%rsi), %rsi
 123 001b 488DBF18 		leaq	1560(%rdi), %rdi
 123      060000
 124 0022 F30F1144 		movss	%xmm0, 12(%rsp)
 124      240C
 125 0028 E8000000 		call	__strcpy_chk
 125      00
 126 002d 488B7508 		movq	8(%rbp), %rsi
 127 0031 488DBB18 		leaq	1816(%rbx), %rdi
 127      070000
 128 0038 BA000100 		movl	$256, %edx
 128      00
 129 003d E8000000 		call	__strcpy_chk
 129      00
 130 0042 F30F1044 		movss	12(%rsp), %xmm0
 130      240C
 131 0048 F30F1183 		movss	%xmm0, 2072(%rbx)
 131      18080000 
 132 0050 4883C418 		addq	$24, %rsp
 133              		.cfi_def_cfa_offset 24
 134 0054 5B       		popq	%rbx
 135              		.cfi_def_cfa_offset 16
 136 0055 5D       		popq	%rbp
 137              		.cfi_def_cfa_offset 8
 138 0056 C3       		ret
 139              		.cfi_endproc
 140              	.LFE1083:
 142              		.section	.text._ZN17RecordingReporterD2Ev,"axG",@progbits,_ZN17RecordingReporterD5Ev,comdat
 143              		.align 2
 144              		.p2align 4,,15
 145              		.weak	_ZN17RecordingReporterD2Ev
 147              	_ZN17RecordingReporterD2Ev:
 148              	.LFB1594:
 149              		.cfi_startproc
 150 0000 48C70700 		movq	$_ZTV17RecordingReporter+16, (%rdi)
 150      000000
 151 0007 E9000000 		jmp	_ZN8UnitTest12TestReporterD2Ev
 151      00
 152              		.cfi_endproc
 153              	.LFE1594:
 155              		.weak	_ZN17RecordingReporterD1Ev
 156              		.set	_ZN17RecordingReporterD1Ev,_ZN17RecordingReporterD2Ev
 157              		.section	.text._ZN17RecordingReporterD0Ev,"axG",@progbits,_ZN17RecordingReporterD0Ev,comdat
 158              		.align 2
 159              		.p2align 4,,15
 160              		.weak	_ZN17RecordingReporterD0Ev
 162              	_ZN17RecordingReporterD0Ev:
 163              	.LFB1596:
 164              		.cfi_startproc
 165 0000 53       		pushq	%rbx
 166              		.cfi_def_cfa_offset 16
 167              		.cfi_offset 3, -16
 168 0001 4889FB   		movq	%rdi, %rbx
 169 0004 48C70700 		movq	$_ZTV17RecordingReporter+16, (%rdi)
 169      000000
 170 000b E8000000 		call	_ZN8UnitTest12TestReporterD2Ev
 170      00
 171 0010 4889DF   		movq	%rbx, %rdi
 172 0013 5B       		popq	%rbx
 173              		.cfi_def_cfa_offset 8
 174 0014 E9000000 		jmp	_ZdlPv
 174      00
 175              		.cfi_endproc
 176              	.LFE1596:
 178              		.text
 179              		.align 2
 180              		.p2align 4,,15
 182              	_ZN12_GLOBAL__N_154TestCheckArray2DCloseDoesNotHaveSideEffectsWhenFailingD2Ev:
 183              	.LFB1402:
 184              		.cfi_startproc
 185 0000 48C70700 		movq	$_ZTVN12_GLOBAL__N_154TestCheckArray2DCloseDoesNotHaveSideEffectsWhenFailingE+16, (%rdi)
 185      000000
 186 0007 E9000000 		jmp	_ZN8UnitTest4TestD2Ev
 186      00
 187              		.cfi_endproc
 188              	.LFE1402:
 190              		.set	_ZN12_GLOBAL__N_154TestCheckArray2DCloseDoesNotHaveSideEffectsWhenFailingD1Ev,_ZN12_GLOBAL__N
 191              		.align 2
 192 000c 0F1F4000 		.p2align 4,,15
 194              	_ZN12_GLOBAL__N_154TestCheckArray2DCloseDoesNotHaveSideEffectsWhenFailingD0Ev:
 195              	.LFB1404:
 196              		.cfi_startproc
 197 0010 53       		pushq	%rbx
 198              		.cfi_def_cfa_offset 16
 199              		.cfi_offset 3, -16
 200 0011 4889FB   		movq	%rdi, %rbx
 201 0014 48C70700 		movq	$_ZTVN12_GLOBAL__N_154TestCheckArray2DCloseDoesNotHaveSideEffectsWhenFailingE+16, (%rdi)
 201      000000
 202 001b E8000000 		call	_ZN8UnitTest4TestD2Ev
 202      00
 203 0020 4889DF   		movq	%rbx, %rdi
 204 0023 5B       		popq	%rbx
 205              		.cfi_def_cfa_offset 8
 206 0024 E9000000 		jmp	_ZdlPv
 206      00
 207              		.cfi_endproc
 208              	.LFE1404:
 210 0029 90       		.align 2
 211 002a 660F1F44 		.p2align 4,,15
 211      0000
 213              	_ZN12_GLOBAL__N_154TestCheckArray2DCloseDoesNotHaveSideEffectsWhenPassingD2Ev:
 214              	.LFB1406:
 215              		.cfi_startproc
 216 0030 48C70700 		movq	$_ZTVN12_GLOBAL__N_154TestCheckArray2DCloseDoesNotHaveSideEffectsWhenPassingE+16, (%rdi)
 216      000000
 217 0037 E9000000 		jmp	_ZN8UnitTest4TestD2Ev
 217      00
 218              		.cfi_endproc
 219              	.LFE1406:
 221              		.set	_ZN12_GLOBAL__N_154TestCheckArray2DCloseDoesNotHaveSideEffectsWhenPassingD1Ev,_ZN12_GLOBAL__N
 222              		.align 2
 223 003c 0F1F4000 		.p2align 4,,15
 225              	_ZN12_GLOBAL__N_154TestCheckArray2DCloseDoesNotHaveSideEffectsWhenPassingD0Ev:
 226              	.LFB1408:
 227              		.cfi_startproc
 228 0040 53       		pushq	%rbx
 229              		.cfi_def_cfa_offset 16
 230              		.cfi_offset 3, -16
 231 0041 4889FB   		movq	%rdi, %rbx
 232 0044 48C70700 		movq	$_ZTVN12_GLOBAL__N_154TestCheckArray2DCloseDoesNotHaveSideEffectsWhenPassingE+16, (%rdi)
 232      000000
 233 004b E8000000 		call	_ZN8UnitTest4TestD2Ev
 233      00
 234 0050 4889DF   		movq	%rbx, %rdi
 235 0053 5B       		popq	%rbx
 236              		.cfi_def_cfa_offset 8
 237 0054 E9000000 		jmp	_ZdlPv
 237      00
 238              		.cfi_endproc
 239              	.LFE1408:
 241 0059 90       		.align 2
 242 005a 660F1F44 		.p2align 4,,15
 242      0000
 244              	_ZN12_GLOBAL__N_160TestCheckArray2DCloseFailureOnExceptionIncludesCheckContentsD2Ev:
 245              	.LFB1410:
 246              		.cfi_startproc
 247 0060 48C70700 		movq	$_ZTVN12_GLOBAL__N_160TestCheckArray2DCloseFailureOnExceptionIncludesCheckContentsE+16, (%rdi
 247      000000
 248 0067 E9000000 		jmp	_ZN8UnitTest4TestD2Ev
 248      00
 249              		.cfi_endproc
 250              	.LFE1410:
 252              		.set	_ZN12_GLOBAL__N_160TestCheckArray2DCloseFailureOnExceptionIncludesCheckContentsD1Ev,_ZN12_GLO
 253              		.align 2
 254 006c 0F1F4000 		.p2align 4,,15
 256              	_ZN12_GLOBAL__N_160TestCheckArray2DCloseFailureOnExceptionIncludesCheckContentsD0Ev:
 257              	.LFB1412:
 258              		.cfi_startproc
 259 0070 53       		pushq	%rbx
 260              		.cfi_def_cfa_offset 16
 261              		.cfi_offset 3, -16
 262 0071 4889FB   		movq	%rdi, %rbx
 263 0074 48C70700 		movq	$_ZTVN12_GLOBAL__N_160TestCheckArray2DCloseFailureOnExceptionIncludesCheckContentsE+16, (%rdi
 263      000000
 264 007b E8000000 		call	_ZN8UnitTest4TestD2Ev
 264      00
 265 0080 4889DF   		movq	%rbx, %rdi
 266 0083 5B       		popq	%rbx
 267              		.cfi_def_cfa_offset 8
 268 0084 E9000000 		jmp	_ZdlPv
 268      00
 269              		.cfi_endproc
 270              	.LFE1412:
 272 0089 90       		.align 2
 273 008a 660F1F44 		.p2align 4,,15
 273      0000
 275              	_ZN12_GLOBAL__N_137TestCheckArray2DCloseFailsOnExceptionD2Ev:
 276              	.LFB1414:
 277              		.cfi_startproc
 278 0090 48C70700 		movq	$_ZTVN12_GLOBAL__N_137TestCheckArray2DCloseFailsOnExceptionE+16, (%rdi)
 278      000000
 279 0097 E9000000 		jmp	_ZN8UnitTest4TestD2Ev
 279      00
 280              		.cfi_endproc
 281              	.LFE1414:
 283              		.set	_ZN12_GLOBAL__N_137TestCheckArray2DCloseFailsOnExceptionD1Ev,_ZN12_GLOBAL__N_137TestCheckArra
 284              		.align 2
 285 009c 0F1F4000 		.p2align 4,,15
 287              	_ZN12_GLOBAL__N_137TestCheckArray2DCloseFailsOnExceptionD0Ev:
 288              	.LFB1416:
 289              		.cfi_startproc
 290 00a0 53       		pushq	%rbx
 291              		.cfi_def_cfa_offset 16
 292              		.cfi_offset 3, -16
 293 00a1 4889FB   		movq	%rdi, %rbx
 294 00a4 48C70700 		movq	$_ZTVN12_GLOBAL__N_137TestCheckArray2DCloseFailsOnExceptionE+16, (%rdi)
 294      000000
 295 00ab E8000000 		call	_ZN8UnitTest4TestD2Ev
 295      00
 296 00b0 4889DF   		movq	%rbx, %rdi
 297 00b3 5B       		popq	%rbx
 298              		.cfi_def_cfa_offset 8
 299 00b4 E9000000 		jmp	_ZdlPv
 299      00
 300              		.cfi_endproc
 301              	.LFE1416:
 303 00b9 90       		.align 2
 304 00ba 660F1F44 		.p2align 4,,15
 304      0000
 306              	_ZN12_GLOBAL__N_145TestCheckArray2DCloseFailureIncludesToleranceD2Ev:
 307              	.LFB1418:
 308              		.cfi_startproc
 309 00c0 48C70700 		movq	$_ZTVN12_GLOBAL__N_145TestCheckArray2DCloseFailureIncludesToleranceE+16, (%rdi)
 309      000000
 310 00c7 E9000000 		jmp	_ZN8UnitTest4TestD2Ev
 310      00
 311              		.cfi_endproc
 312              	.LFE1418:
 314              		.set	_ZN12_GLOBAL__N_145TestCheckArray2DCloseFailureIncludesToleranceD1Ev,_ZN12_GLOBAL__N_145TestC
 315              		.align 2
 316 00cc 0F1F4000 		.p2align 4,,15
 318              	_ZN12_GLOBAL__N_145TestCheckArray2DCloseFailureIncludesToleranceD0Ev:
 319              	.LFB1420:
 320              		.cfi_startproc
 321 00d0 53       		pushq	%rbx
 322              		.cfi_def_cfa_offset 16
 323              		.cfi_offset 3, -16
 324 00d1 4889FB   		movq	%rdi, %rbx
 325 00d4 48C70700 		movq	$_ZTVN12_GLOBAL__N_145TestCheckArray2DCloseFailureIncludesToleranceE+16, (%rdi)
 325      000000
 326 00db E8000000 		call	_ZN8UnitTest4TestD2Ev
 326      00
 327 00e0 4889DF   		movq	%rbx, %rdi
 328 00e3 5B       		popq	%rbx
 329              		.cfi_def_cfa_offset 8
 330 00e4 E9000000 		jmp	_ZdlPv
 330      00
 331              		.cfi_endproc
 332              	.LFE1420:
 334 00e9 90       		.align 2
 335 00ea 660F1F44 		.p2align 4,,15
 335      0000
 337              	_ZN12_GLOBAL__N_168TestCheckArray2DCloseFailureBecauseOfExceptionContainsCorrectDetailsD2Ev:
 338              	.LFB1422:
 339              		.cfi_startproc
 340 00f0 48C70700 		movq	$_ZTVN12_GLOBAL__N_168TestCheckArray2DCloseFailureBecauseOfExceptionContainsCorrectDetailsE+1
 340      000000
 341 00f7 E9000000 		jmp	_ZN8UnitTest4TestD2Ev
 341      00
 342              		.cfi_endproc
 343              	.LFE1422:
 345              		.set	_ZN12_GLOBAL__N_168TestCheckArray2DCloseFailureBecauseOfExceptionContainsCorrectDetailsD1Ev,_
 346              		.align 2
 347 00fc 0F1F4000 		.p2align 4,,15
 349              	_ZN12_GLOBAL__N_168TestCheckArray2DCloseFailureBecauseOfExceptionContainsCorrectDetailsD0Ev:
 350              	.LFB1424:
 351              		.cfi_startproc
 352 0100 53       		pushq	%rbx
 353              		.cfi_def_cfa_offset 16
 354              		.cfi_offset 3, -16
 355 0101 4889FB   		movq	%rdi, %rbx
 356 0104 48C70700 		movq	$_ZTVN12_GLOBAL__N_168TestCheckArray2DCloseFailureBecauseOfExceptionContainsCorrectDetailsE+1
 356      000000
 357 010b E8000000 		call	_ZN8UnitTest4TestD2Ev
 357      00
 358 0110 4889DF   		movq	%rbx, %rdi
 359 0113 5B       		popq	%rbx
 360              		.cfi_def_cfa_offset 8
 361 0114 E9000000 		jmp	_ZdlPv
 361      00
 362              		.cfi_endproc
 363              	.LFE1424:
 365 0119 90       		.align 2
 366 011a 660F1F44 		.p2align 4,,15
 366      0000
 368              	_ZN12_GLOBAL__N_150TestCheckArray2DCloseFailureContainsCorrectDetailsD2Ev:
 369              	.LFB1426:
 370              		.cfi_startproc
 371 0120 48C70700 		movq	$_ZTVN12_GLOBAL__N_150TestCheckArray2DCloseFailureContainsCorrectDetailsE+16, (%rdi)
 371      000000
 372 0127 E9000000 		jmp	_ZN8UnitTest4TestD2Ev
 372      00
 373              		.cfi_endproc
 374              	.LFE1426:
 376              		.set	_ZN12_GLOBAL__N_150TestCheckArray2DCloseFailureContainsCorrectDetailsD1Ev,_ZN12_GLOBAL__N_150
 377              		.align 2
 378 012c 0F1F4000 		.p2align 4,,15
 380              	_ZN12_GLOBAL__N_150TestCheckArray2DCloseFailureContainsCorrectDetailsD0Ev:
 381              	.LFB1428:
 382              		.cfi_startproc
 383 0130 53       		pushq	%rbx
 384              		.cfi_def_cfa_offset 16
 385              		.cfi_offset 3, -16
 386 0131 4889FB   		movq	%rdi, %rbx
 387 0134 48C70700 		movq	$_ZTVN12_GLOBAL__N_150TestCheckArray2DCloseFailureContainsCorrectDetailsE+16, (%rdi)
 387      000000
 388 013b E8000000 		call	_ZN8UnitTest4TestD2Ev
 388      00
 389 0140 4889DF   		movq	%rbx, %rdi
 390 0143 5B       		popq	%rbx
 391              		.cfi_def_cfa_offset 8
 392 0144 E9000000 		jmp	_ZdlPv
 392      00
 393              		.cfi_endproc
 394              	.LFE1428:
 396 0149 90       		.align 2
 397 014a 660F1F44 		.p2align 4,,15
 397      0000
 399              	_ZN12_GLOBAL__N_158TestCheckArray2DCloseFailureIncludesCheckExpectedAndActualD2Ev:
 400              	.LFB1430:
 401              		.cfi_startproc
 402 0150 48C70700 		movq	$_ZTVN12_GLOBAL__N_158TestCheckArray2DCloseFailureIncludesCheckExpectedAndActualE+16, (%rdi)
 402      000000
 403 0157 E9000000 		jmp	_ZN8UnitTest4TestD2Ev
 403      00
 404              		.cfi_endproc
 405              	.LFE1430:
 407              		.set	_ZN12_GLOBAL__N_158TestCheckArray2DCloseFailureIncludesCheckExpectedAndActualD1Ev,_ZN12_GLOBA
 408              		.align 2
 409 015c 0F1F4000 		.p2align 4,,15
 411              	_ZN12_GLOBAL__N_158TestCheckArray2DCloseFailureIncludesCheckExpectedAndActualD0Ev:
 412              	.LFB1432:
 413              		.cfi_startproc
 414 0160 53       		pushq	%rbx
 415              		.cfi_def_cfa_offset 16
 416              		.cfi_offset 3, -16
 417 0161 4889FB   		movq	%rdi, %rbx
 418 0164 48C70700 		movq	$_ZTVN12_GLOBAL__N_158TestCheckArray2DCloseFailureIncludesCheckExpectedAndActualE+16, (%rdi)
 418      000000
 419 016b E8000000 		call	_ZN8UnitTest4TestD2Ev
 419      00
 420 0170 4889DF   		movq	%rbx, %rdi
 421 0173 5B       		popq	%rbx
 422              		.cfi_def_cfa_offset 8
 423 0174 E9000000 		jmp	_ZdlPv
 423      00
 424              		.cfi_endproc
 425              	.LFE1432:
 427 0179 90       		.align 2
 428 017a 660F1F44 		.p2align 4,,15
 428      0000
 430              	_ZN12_GLOBAL__N_136TestCheckArray2DCloseFailsOnNotEqualD2Ev:
 431              	.LFB1434:
 432              		.cfi_startproc
 433 0180 48C70700 		movq	$_ZTVN12_GLOBAL__N_136TestCheckArray2DCloseFailsOnNotEqualE+16, (%rdi)
 433      000000
 434 0187 E9000000 		jmp	_ZN8UnitTest4TestD2Ev
 434      00
 435              		.cfi_endproc
 436              	.LFE1434:
 438              		.set	_ZN12_GLOBAL__N_136TestCheckArray2DCloseFailsOnNotEqualD1Ev,_ZN12_GLOBAL__N_136TestCheckArray
 439              		.align 2
 440 018c 0F1F4000 		.p2align 4,,15
 442              	_ZN12_GLOBAL__N_136TestCheckArray2DCloseFailsOnNotEqualD0Ev:
 443              	.LFB1436:
 444              		.cfi_startproc
 445 0190 53       		pushq	%rbx
 446              		.cfi_def_cfa_offset 16
 447              		.cfi_offset 3, -16
 448 0191 4889FB   		movq	%rdi, %rbx
 449 0194 48C70700 		movq	$_ZTVN12_GLOBAL__N_136TestCheckArray2DCloseFailsOnNotEqualE+16, (%rdi)
 449      000000
 450 019b E8000000 		call	_ZN8UnitTest4TestD2Ev
 450      00
 451 01a0 4889DF   		movq	%rbx, %rdi
 452 01a3 5B       		popq	%rbx
 453              		.cfi_def_cfa_offset 8
 454 01a4 E9000000 		jmp	_ZdlPv
 454      00
 455              		.cfi_endproc
 456              	.LFE1436:
 458 01a9 90       		.align 2
 459 01aa 660F1F44 		.p2align 4,,15
 459      0000
 461              	_ZN12_GLOBAL__N_136TestCheckArray2DCloseSucceedsOnEqualD2Ev:
 462              	.LFB1438:
 463              		.cfi_startproc
 464 01b0 48C70700 		movq	$_ZTVN12_GLOBAL__N_136TestCheckArray2DCloseSucceedsOnEqualE+16, (%rdi)
 464      000000
 465 01b7 E9000000 		jmp	_ZN8UnitTest4TestD2Ev
 465      00
 466              		.cfi_endproc
 467              	.LFE1438:
 469              		.set	_ZN12_GLOBAL__N_136TestCheckArray2DCloseSucceedsOnEqualD1Ev,_ZN12_GLOBAL__N_136TestCheckArray
 470              		.align 2
 471 01bc 0F1F4000 		.p2align 4,,15
 473              	_ZN12_GLOBAL__N_136TestCheckArray2DCloseSucceedsOnEqualD0Ev:
 474              	.LFB1440:
 475              		.cfi_startproc
 476 01c0 53       		pushq	%rbx
 477              		.cfi_def_cfa_offset 16
 478              		.cfi_offset 3, -16
 479 01c1 4889FB   		movq	%rdi, %rbx
 480 01c4 48C70700 		movq	$_ZTVN12_GLOBAL__N_136TestCheckArray2DCloseSucceedsOnEqualE+16, (%rdi)
 480      000000
 481 01cb E8000000 		call	_ZN8UnitTest4TestD2Ev
 481      00
 482 01d0 4889DF   		movq	%rbx, %rdi
 483 01d3 5B       		popq	%rbx
 484              		.cfi_def_cfa_offset 8
 485 01d4 E9000000 		jmp	_ZdlPv
 485      00
 486              		.cfi_endproc
 487              	.LFE1440:
 489 01d9 90       		.align 2
 490 01da 660F1F44 		.p2align 4,,15
 490      0000
 492              	_ZN12_GLOBAL__N_152TestCheckArrayCloseDoesNotHaveSideEffectsWhenFailingD2Ev:
 493              	.LFB1442:
 494              		.cfi_startproc
 495 01e0 48C70700 		movq	$_ZTVN12_GLOBAL__N_152TestCheckArrayCloseDoesNotHaveSideEffectsWhenFailingE+16, (%rdi)
 495      000000
 496 01e7 E9000000 		jmp	_ZN8UnitTest4TestD2Ev
 496      00
 497              		.cfi_endproc
 498              	.LFE1442:
 500              		.set	_ZN12_GLOBAL__N_152TestCheckArrayCloseDoesNotHaveSideEffectsWhenFailingD1Ev,_ZN12_GLOBAL__N_1
 501              		.align 2
 502 01ec 0F1F4000 		.p2align 4,,15
 504              	_ZN12_GLOBAL__N_152TestCheckArrayCloseDoesNotHaveSideEffectsWhenFailingD0Ev:
 505              	.LFB1444:
 506              		.cfi_startproc
 507 01f0 53       		pushq	%rbx
 508              		.cfi_def_cfa_offset 16
 509              		.cfi_offset 3, -16
 510 01f1 4889FB   		movq	%rdi, %rbx
 511 01f4 48C70700 		movq	$_ZTVN12_GLOBAL__N_152TestCheckArrayCloseDoesNotHaveSideEffectsWhenFailingE+16, (%rdi)
 511      000000
 512 01fb E8000000 		call	_ZN8UnitTest4TestD2Ev
 512      00
 513 0200 4889DF   		movq	%rbx, %rdi
 514 0203 5B       		popq	%rbx
 515              		.cfi_def_cfa_offset 8
 516 0204 E9000000 		jmp	_ZdlPv
 516      00
 517              		.cfi_endproc
 518              	.LFE1444:
 520 0209 90       		.align 2
 521 020a 660F1F44 		.p2align 4,,15
 521      0000
 523              	_ZN12_GLOBAL__N_152TestCheckArrayCloseDoesNotHaveSideEffectsWhenPassingD2Ev:
 524              	.LFB1446:
 525              		.cfi_startproc
 526 0210 48C70700 		movq	$_ZTVN12_GLOBAL__N_152TestCheckArrayCloseDoesNotHaveSideEffectsWhenPassingE+16, (%rdi)
 526      000000
 527 0217 E9000000 		jmp	_ZN8UnitTest4TestD2Ev
 527      00
 528              		.cfi_endproc
 529              	.LFE1446:
 531              		.set	_ZN12_GLOBAL__N_152TestCheckArrayCloseDoesNotHaveSideEffectsWhenPassingD1Ev,_ZN12_GLOBAL__N_1
 532              		.align 2
 533 021c 0F1F4000 		.p2align 4,,15
 535              	_ZN12_GLOBAL__N_152TestCheckArrayCloseDoesNotHaveSideEffectsWhenPassingD0Ev:
 536              	.LFB1448:
 537              		.cfi_startproc
 538 0220 53       		pushq	%rbx
 539              		.cfi_def_cfa_offset 16
 540              		.cfi_offset 3, -16
 541 0221 4889FB   		movq	%rdi, %rbx
 542 0224 48C70700 		movq	$_ZTVN12_GLOBAL__N_152TestCheckArrayCloseDoesNotHaveSideEffectsWhenPassingE+16, (%rdi)
 542      000000
 543 022b E8000000 		call	_ZN8UnitTest4TestD2Ev
 543      00
 544 0230 4889DF   		movq	%rbx, %rdi
 545 0233 5B       		popq	%rbx
 546              		.cfi_def_cfa_offset 8
 547 0234 E9000000 		jmp	_ZdlPv
 547      00
 548              		.cfi_endproc
 549              	.LFE1448:
 551 0239 90       		.align 2
 552 023a 660F1F44 		.p2align 4,,15
 552      0000
 554              	_ZN12_GLOBAL__N_158TestCheckArrayEqualFailureOnExceptionIncludesCheckContentsD2Ev:
 555              	.LFB1450:
 556              		.cfi_startproc
 557 0240 48C70700 		movq	$_ZTVN12_GLOBAL__N_158TestCheckArrayEqualFailureOnExceptionIncludesCheckContentsE+16, (%rdi)
 557      000000
 558 0247 E9000000 		jmp	_ZN8UnitTest4TestD2Ev
 558      00
 559              		.cfi_endproc
 560              	.LFE1450:
 562              		.set	_ZN12_GLOBAL__N_158TestCheckArrayEqualFailureOnExceptionIncludesCheckContentsD1Ev,_ZN12_GLOBA
 563              		.align 2
 564 024c 0F1F4000 		.p2align 4,,15
 566              	_ZN12_GLOBAL__N_158TestCheckArrayEqualFailureOnExceptionIncludesCheckContentsD0Ev:
 567              	.LFB1452:
 568              		.cfi_startproc
 569 0250 53       		pushq	%rbx
 570              		.cfi_def_cfa_offset 16
 571              		.cfi_offset 3, -16
 572 0251 4889FB   		movq	%rdi, %rbx
 573 0254 48C70700 		movq	$_ZTVN12_GLOBAL__N_158TestCheckArrayEqualFailureOnExceptionIncludesCheckContentsE+16, (%rdi)
 573      000000
 574 025b E8000000 		call	_ZN8UnitTest4TestD2Ev
 574      00
 575 0260 4889DF   		movq	%rbx, %rdi
 576 0263 5B       		popq	%rbx
 577              		.cfi_def_cfa_offset 8
 578 0264 E9000000 		jmp	_ZdlPv
 578      00
 579              		.cfi_endproc
 580              	.LFE1452:
 582 0269 90       		.align 2
 583 026a 660F1F44 		.p2align 4,,15
 583      0000
 585              	_ZN12_GLOBAL__N_135TestCheckArrayEqualFailsOnExceptionD2Ev:
 586              	.LFB1454:
 587              		.cfi_startproc
 588 0270 48C70700 		movq	$_ZTVN12_GLOBAL__N_135TestCheckArrayEqualFailsOnExceptionE+16, (%rdi)
 588      000000
 589 0277 E9000000 		jmp	_ZN8UnitTest4TestD2Ev
 589      00
 590              		.cfi_endproc
 591              	.LFE1454:
 593              		.set	_ZN12_GLOBAL__N_135TestCheckArrayEqualFailsOnExceptionD1Ev,_ZN12_GLOBAL__N_135TestCheckArrayE
 594              		.align 2
 595 027c 0F1F4000 		.p2align 4,,15
 597              	_ZN12_GLOBAL__N_135TestCheckArrayEqualFailsOnExceptionD0Ev:
 598              	.LFB1456:
 599              		.cfi_startproc
 600 0280 53       		pushq	%rbx
 601              		.cfi_def_cfa_offset 16
 602              		.cfi_offset 3, -16
 603 0281 4889FB   		movq	%rdi, %rbx
 604 0284 48C70700 		movq	$_ZTVN12_GLOBAL__N_135TestCheckArrayEqualFailsOnExceptionE+16, (%rdi)
 604      000000
 605 028b E8000000 		call	_ZN8UnitTest4TestD2Ev
 605      00
 606 0290 4889DF   		movq	%rbx, %rdi
 607 0293 5B       		popq	%rbx
 608              		.cfi_def_cfa_offset 8
 609 0294 E9000000 		jmp	_ZdlPv
 609      00
 610              		.cfi_endproc
 611              	.LFE1456:
 613 0299 90       		.align 2
 614 029a 660F1F44 		.p2align 4,,15
 614      0000
 616              	_ZN12_GLOBAL__N_145TestCheckArrayEqualFailureContainsCorrectInfoD2Ev:
 617              	.LFB1458:
 618              		.cfi_startproc
 619 02a0 48C70700 		movq	$_ZTVN12_GLOBAL__N_145TestCheckArrayEqualFailureContainsCorrectInfoE+16, (%rdi)
 619      000000
 620 02a7 E9000000 		jmp	_ZN8UnitTest4TestD2Ev
 620      00
 621              		.cfi_endproc
 622              	.LFE1458:
 624              		.set	_ZN12_GLOBAL__N_145TestCheckArrayEqualFailureContainsCorrectInfoD1Ev,_ZN12_GLOBAL__N_145TestC
 625              		.align 2
 626 02ac 0F1F4000 		.p2align 4,,15
 628              	_ZN12_GLOBAL__N_145TestCheckArrayEqualFailureContainsCorrectInfoD0Ev:
 629              	.LFB1460:
 630              		.cfi_startproc
 631 02b0 53       		pushq	%rbx
 632              		.cfi_def_cfa_offset 16
 633              		.cfi_offset 3, -16
 634 02b1 4889FB   		movq	%rdi, %rbx
 635 02b4 48C70700 		movq	$_ZTVN12_GLOBAL__N_145TestCheckArrayEqualFailureContainsCorrectInfoE+16, (%rdi)
 635      000000
 636 02bb E8000000 		call	_ZN8UnitTest4TestD2Ev
 636      00
 637 02c0 4889DF   		movq	%rbx, %rdi
 638 02c3 5B       		popq	%rbx
 639              		.cfi_def_cfa_offset 8
 640 02c4 E9000000 		jmp	_ZdlPv
 640      00
 641              		.cfi_endproc
 642              	.LFE1460:
 644 02c9 90       		.align 2
 645 02ca 660F1F44 		.p2align 4,,15
 645      0000
 647              	_ZN12_GLOBAL__N_156TestCheckArrayEqualFailureIncludesCheckExpectedAndActualD2Ev:
 648              	.LFB1462:
 649              		.cfi_startproc
 650 02d0 48C70700 		movq	$_ZTVN12_GLOBAL__N_156TestCheckArrayEqualFailureIncludesCheckExpectedAndActualE+16, (%rdi)
 650      000000
 651 02d7 E9000000 		jmp	_ZN8UnitTest4TestD2Ev
 651      00
 652              		.cfi_endproc
 653              	.LFE1462:
 655              		.set	_ZN12_GLOBAL__N_156TestCheckArrayEqualFailureIncludesCheckExpectedAndActualD1Ev,_ZN12_GLOBAL_
 656              		.align 2
 657 02dc 0F1F4000 		.p2align 4,,15
 659              	_ZN12_GLOBAL__N_156TestCheckArrayEqualFailureIncludesCheckExpectedAndActualD0Ev:
 660              	.LFB1464:
 661              		.cfi_startproc
 662 02e0 53       		pushq	%rbx
 663              		.cfi_def_cfa_offset 16
 664              		.cfi_offset 3, -16
 665 02e1 4889FB   		movq	%rdi, %rbx
 666 02e4 48C70700 		movq	$_ZTVN12_GLOBAL__N_156TestCheckArrayEqualFailureIncludesCheckExpectedAndActualE+16, (%rdi)
 666      000000
 667 02eb E8000000 		call	_ZN8UnitTest4TestD2Ev
 667      00
 668 02f0 4889DF   		movq	%rbx, %rdi
 669 02f3 5B       		popq	%rbx
 670              		.cfi_def_cfa_offset 8
 671 02f4 E9000000 		jmp	_ZdlPv
 671      00
 672              		.cfi_endproc
 673              	.LFE1464:
 675 02f9 90       		.align 2
 676 02fa 660F1F44 		.p2align 4,,15
 676      0000
 678              	_ZN12_GLOBAL__N_134TestCheckArrayEqualFailsOnNotEqualD2Ev:
 679              	.LFB1466:
 680              		.cfi_startproc
 681 0300 48C70700 		movq	$_ZTVN12_GLOBAL__N_134TestCheckArrayEqualFailsOnNotEqualE+16, (%rdi)
 681      000000
 682 0307 E9000000 		jmp	_ZN8UnitTest4TestD2Ev
 682      00
 683              		.cfi_endproc
 684              	.LFE1466:
 686              		.set	_ZN12_GLOBAL__N_134TestCheckArrayEqualFailsOnNotEqualD1Ev,_ZN12_GLOBAL__N_134TestCheckArrayEq
 687              		.align 2
 688 030c 0F1F4000 		.p2align 4,,15
 690              	_ZN12_GLOBAL__N_134TestCheckArrayEqualFailsOnNotEqualD0Ev:
 691              	.LFB1468:
 692              		.cfi_startproc
 693 0310 53       		pushq	%rbx
 694              		.cfi_def_cfa_offset 16
 695              		.cfi_offset 3, -16
 696 0311 4889FB   		movq	%rdi, %rbx
 697 0314 48C70700 		movq	$_ZTVN12_GLOBAL__N_134TestCheckArrayEqualFailsOnNotEqualE+16, (%rdi)
 697      000000
 698 031b E8000000 		call	_ZN8UnitTest4TestD2Ev
 698      00
 699 0320 4889DF   		movq	%rbx, %rdi
 700 0323 5B       		popq	%rbx
 701              		.cfi_def_cfa_offset 8
 702 0324 E9000000 		jmp	_ZdlPv
 702      00
 703              		.cfi_endproc
 704              	.LFE1468:
 706 0329 90       		.align 2
 707 032a 660F1F44 		.p2align 4,,15
 707      0000
 709              	_ZN12_GLOBAL__N_133TestCheckArrayEqualSuceedsOnEqualD2Ev:
 710              	.LFB1470:
 711              		.cfi_startproc
 712 0330 48C70700 		movq	$_ZTVN12_GLOBAL__N_133TestCheckArrayEqualSuceedsOnEqualE+16, (%rdi)
 712      000000
 713 0337 E9000000 		jmp	_ZN8UnitTest4TestD2Ev
 713      00
 714              		.cfi_endproc
 715              	.LFE1470:
 717              		.set	_ZN12_GLOBAL__N_133TestCheckArrayEqualSuceedsOnEqualD1Ev,_ZN12_GLOBAL__N_133TestCheckArrayEqu
 718              		.align 2
 719 033c 0F1F4000 		.p2align 4,,15
 721              	_ZN12_GLOBAL__N_133TestCheckArrayEqualSuceedsOnEqualD0Ev:
 722              	.LFB1472:
 723              		.cfi_startproc
 724 0340 53       		pushq	%rbx
 725              		.cfi_def_cfa_offset 16
 726              		.cfi_offset 3, -16
 727 0341 4889FB   		movq	%rdi, %rbx
 728 0344 48C70700 		movq	$_ZTVN12_GLOBAL__N_133TestCheckArrayEqualSuceedsOnEqualE+16, (%rdi)
 728      000000
 729 034b E8000000 		call	_ZN8UnitTest4TestD2Ev
 729      00
 730 0350 4889DF   		movq	%rbx, %rdi
 731 0353 5B       		popq	%rbx
 732              		.cfi_def_cfa_offset 8
 733 0354 E9000000 		jmp	_ZdlPv
 733      00
 734              		.cfi_endproc
 735              	.LFE1472:
 737 0359 90       		.align 2
 738 035a 660F1F44 		.p2align 4,,15
 738      0000
 740              	_ZN12_GLOBAL__N_158TestCheckArrayCloseFailureOnExceptionIncludesCheckContentsD2Ev:
 741              	.LFB1474:
 742              		.cfi_startproc
 743 0360 48C70700 		movq	$_ZTVN12_GLOBAL__N_158TestCheckArrayCloseFailureOnExceptionIncludesCheckContentsE+16, (%rdi)
 743      000000
 744 0367 E9000000 		jmp	_ZN8UnitTest4TestD2Ev
 744      00
 745              		.cfi_endproc
 746              	.LFE1474:
 748              		.set	_ZN12_GLOBAL__N_158TestCheckArrayCloseFailureOnExceptionIncludesCheckContentsD1Ev,_ZN12_GLOBA
 749              		.align 2
 750 036c 0F1F4000 		.p2align 4,,15
 752              	_ZN12_GLOBAL__N_158TestCheckArrayCloseFailureOnExceptionIncludesCheckContentsD0Ev:
 753              	.LFB1476:
 754              		.cfi_startproc
 755 0370 53       		pushq	%rbx
 756              		.cfi_def_cfa_offset 16
 757              		.cfi_offset 3, -16
 758 0371 4889FB   		movq	%rdi, %rbx
 759 0374 48C70700 		movq	$_ZTVN12_GLOBAL__N_158TestCheckArrayCloseFailureOnExceptionIncludesCheckContentsE+16, (%rdi)
 759      000000
 760 037b E8000000 		call	_ZN8UnitTest4TestD2Ev
 760      00
 761 0380 4889DF   		movq	%rbx, %rdi
 762 0383 5B       		popq	%rbx
 763              		.cfi_def_cfa_offset 8
 764 0384 E9000000 		jmp	_ZdlPv
 764      00
 765              		.cfi_endproc
 766              	.LFE1476:
 768 0389 90       		.align 2
 769 038a 660F1F44 		.p2align 4,,15
 769      0000
 771              	_ZN12_GLOBAL__N_135TestCheckArrayCloseFailsOnExceptionD2Ev:
 772              	.LFB1478:
 773              		.cfi_startproc
 774 0390 48C70700 		movq	$_ZTVN12_GLOBAL__N_135TestCheckArrayCloseFailsOnExceptionE+16, (%rdi)
 774      000000
 775 0397 E9000000 		jmp	_ZN8UnitTest4TestD2Ev
 775      00
 776              		.cfi_endproc
 777              	.LFE1478:
 779              		.set	_ZN12_GLOBAL__N_135TestCheckArrayCloseFailsOnExceptionD1Ev,_ZN12_GLOBAL__N_135TestCheckArrayC
 780              		.align 2
 781 039c 0F1F4000 		.p2align 4,,15
 783              	_ZN12_GLOBAL__N_135TestCheckArrayCloseFailsOnExceptionD0Ev:
 784              	.LFB1480:
 785              		.cfi_startproc
 786 03a0 53       		pushq	%rbx
 787              		.cfi_def_cfa_offset 16
 788              		.cfi_offset 3, -16
 789 03a1 4889FB   		movq	%rdi, %rbx
 790 03a4 48C70700 		movq	$_ZTVN12_GLOBAL__N_135TestCheckArrayCloseFailsOnExceptionE+16, (%rdi)
 790      000000
 791 03ab E8000000 		call	_ZN8UnitTest4TestD2Ev
 791      00
 792 03b0 4889DF   		movq	%rbx, %rdi
 793 03b3 5B       		popq	%rbx
 794              		.cfi_def_cfa_offset 8
 795 03b4 E9000000 		jmp	_ZdlPv
 795      00
 796              		.cfi_endproc
 797              	.LFE1480:
 799 03b9 90       		.align 2
 800 03ba 660F1F44 		.p2align 4,,15
 800      0000
 802              	_ZN12_GLOBAL__N_143TestCheckArrayCloseFailureIncludesToleranceD2Ev:
 803              	.LFB1482:
 804              		.cfi_startproc
 805 03c0 48C70700 		movq	$_ZTVN12_GLOBAL__N_143TestCheckArrayCloseFailureIncludesToleranceE+16, (%rdi)
 805      000000
 806 03c7 E9000000 		jmp	_ZN8UnitTest4TestD2Ev
 806      00
 807              		.cfi_endproc
 808              	.LFE1482:
 810              		.set	_ZN12_GLOBAL__N_143TestCheckArrayCloseFailureIncludesToleranceD1Ev,_ZN12_GLOBAL__N_143TestChe
 811              		.align 2
 812 03cc 0F1F4000 		.p2align 4,,15
 814              	_ZN12_GLOBAL__N_143TestCheckArrayCloseFailureIncludesToleranceD0Ev:
 815              	.LFB1484:
 816              		.cfi_startproc
 817 03d0 53       		pushq	%rbx
 818              		.cfi_def_cfa_offset 16
 819              		.cfi_offset 3, -16
 820 03d1 4889FB   		movq	%rdi, %rbx
 821 03d4 48C70700 		movq	$_ZTVN12_GLOBAL__N_143TestCheckArrayCloseFailureIncludesToleranceE+16, (%rdi)
 821      000000
 822 03db E8000000 		call	_ZN8UnitTest4TestD2Ev
 822      00
 823 03e0 4889DF   		movq	%rbx, %rdi
 824 03e3 5B       		popq	%rbx
 825              		.cfi_def_cfa_offset 8
 826 03e4 E9000000 		jmp	_ZdlPv
 826      00
 827              		.cfi_endproc
 828              	.LFE1484:
 830 03e9 90       		.align 2
 831 03ea 660F1F44 		.p2align 4,,15
 831      0000
 833              	_ZN12_GLOBAL__N_166TestCheckArrayCloseFailureBecauseOfExceptionContainsCorrectDetailsD2Ev:
 834              	.LFB1486:
 835              		.cfi_startproc
 836 03f0 48C70700 		movq	$_ZTVN12_GLOBAL__N_166TestCheckArrayCloseFailureBecauseOfExceptionContainsCorrectDetailsE+16,
 836      000000
 837 03f7 E9000000 		jmp	_ZN8UnitTest4TestD2Ev
 837      00
 838              		.cfi_endproc
 839              	.LFE1486:
 841              		.set	_ZN12_GLOBAL__N_166TestCheckArrayCloseFailureBecauseOfExceptionContainsCorrectDetailsD1Ev,_ZN
 842              		.align 2
 843 03fc 0F1F4000 		.p2align 4,,15
 845              	_ZN12_GLOBAL__N_166TestCheckArrayCloseFailureBecauseOfExceptionContainsCorrectDetailsD0Ev:
 846              	.LFB1488:
 847              		.cfi_startproc
 848 0400 53       		pushq	%rbx
 849              		.cfi_def_cfa_offset 16
 850              		.cfi_offset 3, -16
 851 0401 4889FB   		movq	%rdi, %rbx
 852 0404 48C70700 		movq	$_ZTVN12_GLOBAL__N_166TestCheckArrayCloseFailureBecauseOfExceptionContainsCorrectDetailsE+16,
 852      000000
 853 040b E8000000 		call	_ZN8UnitTest4TestD2Ev
 853      00
 854 0410 4889DF   		movq	%rbx, %rdi
 855 0413 5B       		popq	%rbx
 856              		.cfi_def_cfa_offset 8
 857 0414 E9000000 		jmp	_ZdlPv
 857      00
 858              		.cfi_endproc
 859              	.LFE1488:
 861 0419 90       		.align 2
 862 041a 660F1F44 		.p2align 4,,15
 862      0000
 864              	_ZN12_GLOBAL__N_148TestCheckArrayCloseFailureContainsCorrectDetailsD2Ev:
 865              	.LFB1490:
 866              		.cfi_startproc
 867 0420 48C70700 		movq	$_ZTVN12_GLOBAL__N_148TestCheckArrayCloseFailureContainsCorrectDetailsE+16, (%rdi)
 867      000000
 868 0427 E9000000 		jmp	_ZN8UnitTest4TestD2Ev
 868      00
 869              		.cfi_endproc
 870              	.LFE1490:
 872              		.set	_ZN12_GLOBAL__N_148TestCheckArrayCloseFailureContainsCorrectDetailsD1Ev,_ZN12_GLOBAL__N_148Te
 873              		.align 2
 874 042c 0F1F4000 		.p2align 4,,15
 876              	_ZN12_GLOBAL__N_148TestCheckArrayCloseFailureContainsCorrectDetailsD0Ev:
 877              	.LFB1492:
 878              		.cfi_startproc
 879 0430 53       		pushq	%rbx
 880              		.cfi_def_cfa_offset 16
 881              		.cfi_offset 3, -16
 882 0431 4889FB   		movq	%rdi, %rbx
 883 0434 48C70700 		movq	$_ZTVN12_GLOBAL__N_148TestCheckArrayCloseFailureContainsCorrectDetailsE+16, (%rdi)
 883      000000
 884 043b E8000000 		call	_ZN8UnitTest4TestD2Ev
 884      00
 885 0440 4889DF   		movq	%rbx, %rdi
 886 0443 5B       		popq	%rbx
 887              		.cfi_def_cfa_offset 8
 888 0444 E9000000 		jmp	_ZdlPv
 888      00
 889              		.cfi_endproc
 890              	.LFE1492:
 892 0449 90       		.align 2
 893 044a 660F1F44 		.p2align 4,,15
 893      0000
 895              	_ZN12_GLOBAL__N_156TestCheckArrayCloseFailureIncludesCheckExpectedAndActualD2Ev:
 896              	.LFB1494:
 897              		.cfi_startproc
 898 0450 48C70700 		movq	$_ZTVN12_GLOBAL__N_156TestCheckArrayCloseFailureIncludesCheckExpectedAndActualE+16, (%rdi)
 898      000000
 899 0457 E9000000 		jmp	_ZN8UnitTest4TestD2Ev
 899      00
 900              		.cfi_endproc
 901              	.LFE1494:
 903              		.set	_ZN12_GLOBAL__N_156TestCheckArrayCloseFailureIncludesCheckExpectedAndActualD1Ev,_ZN12_GLOBAL_
 904              		.align 2
 905 045c 0F1F4000 		.p2align 4,,15
 907              	_ZN12_GLOBAL__N_156TestCheckArrayCloseFailureIncludesCheckExpectedAndActualD0Ev:
 908              	.LFB1496:
 909              		.cfi_startproc
 910 0460 53       		pushq	%rbx
 911              		.cfi_def_cfa_offset 16
 912              		.cfi_offset 3, -16
 913 0461 4889FB   		movq	%rdi, %rbx
 914 0464 48C70700 		movq	$_ZTVN12_GLOBAL__N_156TestCheckArrayCloseFailureIncludesCheckExpectedAndActualE+16, (%rdi)
 914      000000
 915 046b E8000000 		call	_ZN8UnitTest4TestD2Ev
 915      00
 916 0470 4889DF   		movq	%rbx, %rdi
 917 0473 5B       		popq	%rbx
 918              		.cfi_def_cfa_offset 8
 919 0474 E9000000 		jmp	_ZdlPv
 919      00
 920              		.cfi_endproc
 921              	.LFE1496:
 923 0479 90       		.align 2
 924 047a 660F1F44 		.p2align 4,,15
 924      0000
 926              	_ZN12_GLOBAL__N_134TestCheckArrayCloseFailsOnNotEqualD2Ev:
 927              	.LFB1498:
 928              		.cfi_startproc
 929 0480 48C70700 		movq	$_ZTVN12_GLOBAL__N_134TestCheckArrayCloseFailsOnNotEqualE+16, (%rdi)
 929      000000
 930 0487 E9000000 		jmp	_ZN8UnitTest4TestD2Ev
 930      00
 931              		.cfi_endproc
 932              	.LFE1498:
 934              		.set	_ZN12_GLOBAL__N_134TestCheckArrayCloseFailsOnNotEqualD1Ev,_ZN12_GLOBAL__N_134TestCheckArrayCl
 935              		.align 2
 936 048c 0F1F4000 		.p2align 4,,15
 938              	_ZN12_GLOBAL__N_134TestCheckArrayCloseFailsOnNotEqualD0Ev:
 939              	.LFB1500:
 940              		.cfi_startproc
 941 0490 53       		pushq	%rbx
 942              		.cfi_def_cfa_offset 16
 943              		.cfi_offset 3, -16
 944 0491 4889FB   		movq	%rdi, %rbx
 945 0494 48C70700 		movq	$_ZTVN12_GLOBAL__N_134TestCheckArrayCloseFailsOnNotEqualE+16, (%rdi)
 945      000000
 946 049b E8000000 		call	_ZN8UnitTest4TestD2Ev
 946      00
 947 04a0 4889DF   		movq	%rbx, %rdi
 948 04a3 5B       		popq	%rbx
 949              		.cfi_def_cfa_offset 8
 950 04a4 E9000000 		jmp	_ZdlPv
 950      00
 951              		.cfi_endproc
 952              	.LFE1500:
 954 04a9 90       		.align 2
 955 04aa 660F1F44 		.p2align 4,,15
 955      0000
 957              	_ZN12_GLOBAL__N_134TestCheckArrayCloseSucceedsOnEqualD2Ev:
 958              	.LFB1502:
 959              		.cfi_startproc
 960 04b0 48C70700 		movq	$_ZTVN12_GLOBAL__N_134TestCheckArrayCloseSucceedsOnEqualE+16, (%rdi)
 960      000000
 961 04b7 E9000000 		jmp	_ZN8UnitTest4TestD2Ev
 961      00
 962              		.cfi_endproc
 963              	.LFE1502:
 965              		.set	_ZN12_GLOBAL__N_134TestCheckArrayCloseSucceedsOnEqualD1Ev,_ZN12_GLOBAL__N_134TestCheckArrayCl
 966              		.align 2
 967 04bc 0F1F4000 		.p2align 4,,15
 969              	_ZN12_GLOBAL__N_134TestCheckArrayCloseSucceedsOnEqualD0Ev:
 970              	.LFB1504:
 971              		.cfi_startproc
 972 04c0 53       		pushq	%rbx
 973              		.cfi_def_cfa_offset 16
 974              		.cfi_offset 3, -16
 975 04c1 4889FB   		movq	%rdi, %rbx
 976 04c4 48C70700 		movq	$_ZTVN12_GLOBAL__N_134TestCheckArrayCloseSucceedsOnEqualE+16, (%rdi)
 976      000000
 977 04cb E8000000 		call	_ZN8UnitTest4TestD2Ev
 977      00
 978 04d0 4889DF   		movq	%rbx, %rdi
 979 04d3 5B       		popq	%rbx
 980              		.cfi_def_cfa_offset 8
 981 04d4 E9000000 		jmp	_ZdlPv
 981      00
 982              		.cfi_endproc
 983              	.LFE1504:
 985 04d9 90       		.align 2
 986 04da 660F1F44 		.p2align 4,,15
 986      0000
 988              	_ZN12_GLOBAL__N_147TestCheckCloseDoesNotHaveSideEffectsWhenFailingD2Ev:
 989              	.LFB1506:
 990              		.cfi_startproc
 991 04e0 48C70700 		movq	$_ZTVN12_GLOBAL__N_147TestCheckCloseDoesNotHaveSideEffectsWhenFailingE+16, (%rdi)
 991      000000
 992 04e7 E9000000 		jmp	_ZN8UnitTest4TestD2Ev
 992      00
 993              		.cfi_endproc
 994              	.LFE1506:
 996              		.set	_ZN12_GLOBAL__N_147TestCheckCloseDoesNotHaveSideEffectsWhenFailingD1Ev,_ZN12_GLOBAL__N_147Tes
 997              		.align 2
 998 04ec 0F1F4000 		.p2align 4,,15
 1000              	_ZN12_GLOBAL__N_147TestCheckCloseDoesNotHaveSideEffectsWhenFailingD0Ev:
 1001              	.LFB1508:
 1002              		.cfi_startproc
 1003 04f0 53       		pushq	%rbx
 1004              		.cfi_def_cfa_offset 16
 1005              		.cfi_offset 3, -16
 1006 04f1 4889FB   		movq	%rdi, %rbx
 1007 04f4 48C70700 		movq	$_ZTVN12_GLOBAL__N_147TestCheckCloseDoesNotHaveSideEffectsWhenFailingE+16, (%rdi)
 1007      000000
 1008 04fb E8000000 		call	_ZN8UnitTest4TestD2Ev
 1008      00
 1009 0500 4889DF   		movq	%rbx, %rdi
 1010 0503 5B       		popq	%rbx
 1011              		.cfi_def_cfa_offset 8
 1012 0504 E9000000 		jmp	_ZdlPv
 1012      00
 1013              		.cfi_endproc
 1014              	.LFE1508:
 1016 0509 90       		.align 2
 1017 050a 660F1F44 		.p2align 4,,15
 1017      0000
 1019              	_ZN12_GLOBAL__N_147TestCheckCloseDoesNotHaveSideEffectsWhenPassingD2Ev:
 1020              	.LFB1510:
 1021              		.cfi_startproc
 1022 0510 48C70700 		movq	$_ZTVN12_GLOBAL__N_147TestCheckCloseDoesNotHaveSideEffectsWhenPassingE+16, (%rdi)
 1022      000000
 1023 0517 E9000000 		jmp	_ZN8UnitTest4TestD2Ev
 1023      00
 1024              		.cfi_endproc
 1025              	.LFE1510:
 1027              		.set	_ZN12_GLOBAL__N_147TestCheckCloseDoesNotHaveSideEffectsWhenPassingD1Ev,_ZN12_GLOBAL__N_147Tes
 1028              		.align 2
 1029 051c 0F1F4000 		.p2align 4,,15
 1031              	_ZN12_GLOBAL__N_147TestCheckCloseDoesNotHaveSideEffectsWhenPassingD0Ev:
 1032              	.LFB1512:
 1033              		.cfi_startproc
 1034 0520 53       		pushq	%rbx
 1035              		.cfi_def_cfa_offset 16
 1036              		.cfi_offset 3, -16
 1037 0521 4889FB   		movq	%rdi, %rbx
 1038 0524 48C70700 		movq	$_ZTVN12_GLOBAL__N_147TestCheckCloseDoesNotHaveSideEffectsWhenPassingE+16, (%rdi)
 1038      000000
 1039 052b E8000000 		call	_ZN8UnitTest4TestD2Ev
 1039      00
 1040 0530 4889DF   		movq	%rbx, %rdi
 1041 0533 5B       		popq	%rbx
 1042              		.cfi_def_cfa_offset 8
 1043 0534 E9000000 		jmp	_ZdlPv
 1043      00
 1044              		.cfi_endproc
 1045              	.LFE1512:
 1047 0539 90       		.align 2
 1048 053a 660F1F44 		.p2align 4,,15
 1048      0000
 1050              	_ZN12_GLOBAL__N_160TestCheckCloseFailureBecauseOfExceptionIncludesCheckContentsD2Ev:
 1051              	.LFB1514:
 1052              		.cfi_startproc
 1053 0540 48C70700 		movq	$_ZTVN12_GLOBAL__N_160TestCheckCloseFailureBecauseOfExceptionIncludesCheckContentsE+16, (%rdi
 1053      000000
 1054 0547 E9000000 		jmp	_ZN8UnitTest4TestD2Ev
 1054      00
 1055              		.cfi_endproc
 1056              	.LFE1514:
 1058              		.set	_ZN12_GLOBAL__N_160TestCheckCloseFailureBecauseOfExceptionIncludesCheckContentsD1Ev,_ZN12_GLO
 1059              		.align 2
 1060 054c 0F1F4000 		.p2align 4,,15
 1062              	_ZN12_GLOBAL__N_160TestCheckCloseFailureBecauseOfExceptionIncludesCheckContentsD0Ev:
 1063              	.LFB1516:
 1064              		.cfi_startproc
 1065 0550 53       		pushq	%rbx
 1066              		.cfi_def_cfa_offset 16
 1067              		.cfi_offset 3, -16
 1068 0551 4889FB   		movq	%rdi, %rbx
 1069 0554 48C70700 		movq	$_ZTVN12_GLOBAL__N_160TestCheckCloseFailureBecauseOfExceptionIncludesCheckContentsE+16, (%rdi
 1069      000000
 1070 055b E8000000 		call	_ZN8UnitTest4TestD2Ev
 1070      00
 1071 0560 4889DF   		movq	%rbx, %rdi
 1072 0563 5B       		popq	%rbx
 1073              		.cfi_def_cfa_offset 8
 1074 0564 E9000000 		jmp	_ZdlPv
 1074      00
 1075              		.cfi_endproc
 1076              	.LFE1516:
 1078 0569 90       		.align 2
 1079 056a 660F1F44 		.p2align 4,,15
 1079      0000
 1081              	_ZN12_GLOBAL__N_161TestCheckCloseFailureBecauseOfExceptionContainsCorrectDetailsD2Ev:
 1082              	.LFB1518:
 1083              		.cfi_startproc
 1084 0570 48C70700 		movq	$_ZTVN12_GLOBAL__N_161TestCheckCloseFailureBecauseOfExceptionContainsCorrectDetailsE+16, (%rd
 1084      000000
 1085 0577 E9000000 		jmp	_ZN8UnitTest4TestD2Ev
 1085      00
 1086              		.cfi_endproc
 1087              	.LFE1518:
 1089              		.set	_ZN12_GLOBAL__N_161TestCheckCloseFailureBecauseOfExceptionContainsCorrectDetailsD1Ev,_ZN12_GL
 1090              		.align 2
 1091 057c 0F1F4000 		.p2align 4,,15
 1093              	_ZN12_GLOBAL__N_161TestCheckCloseFailureBecauseOfExceptionContainsCorrectDetailsD0Ev:
 1094              	.LFB1520:
 1095              		.cfi_startproc
 1096 0580 53       		pushq	%rbx
 1097              		.cfi_def_cfa_offset 16
 1098              		.cfi_offset 3, -16
 1099 0581 4889FB   		movq	%rdi, %rbx
 1100 0584 48C70700 		movq	$_ZTVN12_GLOBAL__N_161TestCheckCloseFailureBecauseOfExceptionContainsCorrectDetailsE+16, (%rd
 1100      000000
 1101 058b E8000000 		call	_ZN8UnitTest4TestD2Ev
 1101      00
 1102 0590 4889DF   		movq	%rbx, %rdi
 1103 0593 5B       		popq	%rbx
 1104              		.cfi_def_cfa_offset 8
 1105 0594 E9000000 		jmp	_ZdlPv
 1105      00
 1106              		.cfi_endproc
 1107              	.LFE1520:
 1109 0599 90       		.align 2
 1110 059a 660F1F44 		.p2align 4,,15
 1110      0000
 1112              	_ZN12_GLOBAL__N_143TestCheckCloseFailureContainsCorrectDetailsD2Ev:
 1113              	.LFB1522:
 1114              		.cfi_startproc
 1115 05a0 48C70700 		movq	$_ZTVN12_GLOBAL__N_143TestCheckCloseFailureContainsCorrectDetailsE+16, (%rdi)
 1115      000000
 1116 05a7 E9000000 		jmp	_ZN8UnitTest4TestD2Ev
 1116      00
 1117              		.cfi_endproc
 1118              	.LFE1522:
 1120              		.set	_ZN12_GLOBAL__N_143TestCheckCloseFailureContainsCorrectDetailsD1Ev,_ZN12_GLOBAL__N_143TestChe
 1121              		.align 2
 1122 05ac 0F1F4000 		.p2align 4,,15
 1124              	_ZN12_GLOBAL__N_143TestCheckCloseFailureContainsCorrectDetailsD0Ev:
 1125              	.LFB1524:
 1126              		.cfi_startproc
 1127 05b0 53       		pushq	%rbx
 1128              		.cfi_def_cfa_offset 16
 1129              		.cfi_offset 3, -16
 1130 05b1 4889FB   		movq	%rdi, %rbx
 1131 05b4 48C70700 		movq	$_ZTVN12_GLOBAL__N_143TestCheckCloseFailureContainsCorrectDetailsE+16, (%rdi)
 1131      000000
 1132 05bb E8000000 		call	_ZN8UnitTest4TestD2Ev
 1132      00
 1133 05c0 4889DF   		movq	%rbx, %rdi
 1134 05c3 5B       		popq	%rbx
 1135              		.cfi_def_cfa_offset 8
 1136 05c4 E9000000 		jmp	_ZdlPv
 1136      00
 1137              		.cfi_endproc
 1138              	.LFE1524:
 1140 05c9 90       		.align 2
 1141 05ca 660F1F44 		.p2align 4,,15
 1141      0000
 1143              	_ZN12_GLOBAL__N_130TestCheckCloseFailsOnExceptionD2Ev:
 1144              	.LFB1526:
 1145              		.cfi_startproc
 1146 05d0 48C70700 		movq	$_ZTVN12_GLOBAL__N_130TestCheckCloseFailsOnExceptionE+16, (%rdi)
 1146      000000
 1147 05d7 E9000000 		jmp	_ZN8UnitTest4TestD2Ev
 1147      00
 1148              		.cfi_endproc
 1149              	.LFE1526:
 1151              		.set	_ZN12_GLOBAL__N_130TestCheckCloseFailsOnExceptionD1Ev,_ZN12_GLOBAL__N_130TestCheckCloseFailsO
 1152              		.align 2
 1153 05dc 0F1F4000 		.p2align 4,,15
 1155              	_ZN12_GLOBAL__N_130TestCheckCloseFailsOnExceptionD0Ev:
 1156              	.LFB1528:
 1157              		.cfi_startproc
 1158 05e0 53       		pushq	%rbx
 1159              		.cfi_def_cfa_offset 16
 1160              		.cfi_offset 3, -16
 1161 05e1 4889FB   		movq	%rdi, %rbx
 1162 05e4 48C70700 		movq	$_ZTVN12_GLOBAL__N_130TestCheckCloseFailsOnExceptionE+16, (%rdi)
 1162      000000
 1163 05eb E8000000 		call	_ZN8UnitTest4TestD2Ev
 1163      00
 1164 05f0 4889DF   		movq	%rbx, %rdi
 1165 05f3 5B       		popq	%rbx
 1166              		.cfi_def_cfa_offset 8
 1167 05f4 E9000000 		jmp	_ZdlPv
 1167      00
 1168              		.cfi_endproc
 1169              	.LFE1528:
 1171 05f9 90       		.align 2
 1172 05fa 660F1F44 		.p2align 4,,15
 1172      0000
 1174              	_ZN12_GLOBAL__N_129TestCheckCloseFailsOnNotEqualD2Ev:
 1175              	.LFB1530:
 1176              		.cfi_startproc
 1177 0600 48C70700 		movq	$_ZTVN12_GLOBAL__N_129TestCheckCloseFailsOnNotEqualE+16, (%rdi)
 1177      000000
 1178 0607 E9000000 		jmp	_ZN8UnitTest4TestD2Ev
 1178      00
 1179              		.cfi_endproc
 1180              	.LFE1530:
 1182              		.set	_ZN12_GLOBAL__N_129TestCheckCloseFailsOnNotEqualD1Ev,_ZN12_GLOBAL__N_129TestCheckCloseFailsOn
 1183              		.align 2
 1184 060c 0F1F4000 		.p2align 4,,15
 1186              	_ZN12_GLOBAL__N_129TestCheckCloseFailsOnNotEqualD0Ev:
 1187              	.LFB1532:
 1188              		.cfi_startproc
 1189 0610 53       		pushq	%rbx
 1190              		.cfi_def_cfa_offset 16
 1191              		.cfi_offset 3, -16
 1192 0611 4889FB   		movq	%rdi, %rbx
 1193 0614 48C70700 		movq	$_ZTVN12_GLOBAL__N_129TestCheckCloseFailsOnNotEqualE+16, (%rdi)
 1193      000000
 1194 061b E8000000 		call	_ZN8UnitTest4TestD2Ev
 1194      00
 1195 0620 4889DF   		movq	%rbx, %rdi
 1196 0623 5B       		popq	%rbx
 1197              		.cfi_def_cfa_offset 8
 1198 0624 E9000000 		jmp	_ZdlPv
 1198      00
 1199              		.cfi_endproc
 1200              	.LFE1532:
 1202 0629 90       		.align 2
 1203 062a 660F1F44 		.p2align 4,,15
 1203      0000
 1205              	_ZN12_GLOBAL__N_129TestCheckCloseSucceedsOnEqualD2Ev:
 1206              	.LFB1534:
 1207              		.cfi_startproc
 1208 0630 48C70700 		movq	$_ZTVN12_GLOBAL__N_129TestCheckCloseSucceedsOnEqualE+16, (%rdi)
 1208      000000
 1209 0637 E9000000 		jmp	_ZN8UnitTest4TestD2Ev
 1209      00
 1210              		.cfi_endproc
 1211              	.LFE1534:
 1213              		.set	_ZN12_GLOBAL__N_129TestCheckCloseSucceedsOnEqualD1Ev,_ZN12_GLOBAL__N_129TestCheckCloseSucceed
 1214              		.align 2
 1215 063c 0F1F4000 		.p2align 4,,15
 1217              	_ZN12_GLOBAL__N_129TestCheckCloseSucceedsOnEqualD0Ev:
 1218              	.LFB1536:
 1219              		.cfi_startproc
 1220 0640 53       		pushq	%rbx
 1221              		.cfi_def_cfa_offset 16
 1222              		.cfi_offset 3, -16
 1223 0641 4889FB   		movq	%rdi, %rbx
 1224 0644 48C70700 		movq	$_ZTVN12_GLOBAL__N_129TestCheckCloseSucceedsOnEqualE+16, (%rdi)
 1224      000000
 1225 064b E8000000 		call	_ZN8UnitTest4TestD2Ev
 1225      00
 1226 0650 4889DF   		movq	%rbx, %rdi
 1227 0653 5B       		popq	%rbx
 1228              		.cfi_def_cfa_offset 8
 1229 0654 E9000000 		jmp	_ZdlPv
 1229      00
 1230              		.cfi_endproc
 1231              	.LFE1536:
 1233 0659 90       		.align 2
 1234 065a 660F1F44 		.p2align 4,,15
 1234      0000
 1236              	_ZN12_GLOBAL__N_147TestCheckEqualDoesNotHaveSideEffectsWhenFailingD2Ev:
 1237              	.LFB1538:
 1238              		.cfi_startproc
 1239 0660 48C70700 		movq	$_ZTVN12_GLOBAL__N_147TestCheckEqualDoesNotHaveSideEffectsWhenFailingE+16, (%rdi)
 1239      000000
 1240 0667 E9000000 		jmp	_ZN8UnitTest4TestD2Ev
 1240      00
 1241              		.cfi_endproc
 1242              	.LFE1538:
 1244              		.set	_ZN12_GLOBAL__N_147TestCheckEqualDoesNotHaveSideEffectsWhenFailingD1Ev,_ZN12_GLOBAL__N_147Tes
 1245              		.align 2
 1246 066c 0F1F4000 		.p2align 4,,15
 1248              	_ZN12_GLOBAL__N_147TestCheckEqualDoesNotHaveSideEffectsWhenFailingD0Ev:
 1249              	.LFB1540:
 1250              		.cfi_startproc
 1251 0670 53       		pushq	%rbx
 1252              		.cfi_def_cfa_offset 16
 1253              		.cfi_offset 3, -16
 1254 0671 4889FB   		movq	%rdi, %rbx
 1255 0674 48C70700 		movq	$_ZTVN12_GLOBAL__N_147TestCheckEqualDoesNotHaveSideEffectsWhenFailingE+16, (%rdi)
 1255      000000
 1256 067b E8000000 		call	_ZN8UnitTest4TestD2Ev
 1256      00
 1257 0680 4889DF   		movq	%rbx, %rdi
 1258 0683 5B       		popq	%rbx
 1259              		.cfi_def_cfa_offset 8
 1260 0684 E9000000 		jmp	_ZdlPv
 1260      00
 1261              		.cfi_endproc
 1262              	.LFE1540:
 1264 0689 90       		.align 2
 1265 068a 660F1F44 		.p2align 4,,15
 1265      0000
 1267              	_ZN12_GLOBAL__N_147TestCheckEqualDoesNotHaveSideEffectsWhenPassingD2Ev:
 1268              	.LFB1542:
 1269              		.cfi_startproc
 1270 0690 48C70700 		movq	$_ZTVN12_GLOBAL__N_147TestCheckEqualDoesNotHaveSideEffectsWhenPassingE+16, (%rdi)
 1270      000000
 1271 0697 E9000000 		jmp	_ZN8UnitTest4TestD2Ev
 1271      00
 1272              		.cfi_endproc
 1273              	.LFE1542:
 1275              		.set	_ZN12_GLOBAL__N_147TestCheckEqualDoesNotHaveSideEffectsWhenPassingD1Ev,_ZN12_GLOBAL__N_147Tes
 1276              		.align 2
 1277 069c 0F1F4000 		.p2align 4,,15
 1279              	_ZN12_GLOBAL__N_147TestCheckEqualDoesNotHaveSideEffectsWhenPassingD0Ev:
 1280              	.LFB1544:
 1281              		.cfi_startproc
 1282 06a0 53       		pushq	%rbx
 1283              		.cfi_def_cfa_offset 16
 1284              		.cfi_offset 3, -16
 1285 06a1 4889FB   		movq	%rdi, %rbx
 1286 06a4 48C70700 		movq	$_ZTVN12_GLOBAL__N_147TestCheckEqualDoesNotHaveSideEffectsWhenPassingE+16, (%rdi)
 1286      000000
 1287 06ab E8000000 		call	_ZN8UnitTest4TestD2Ev
 1287      00
 1288 06b0 4889DF   		movq	%rbx, %rdi
 1289 06b3 5B       		popq	%rbx
 1290              		.cfi_def_cfa_offset 8
 1291 06b4 E9000000 		jmp	_ZdlPv
 1291      00
 1292              		.cfi_endproc
 1293              	.LFE1544:
 1295 06b9 90       		.align 2
 1296 06ba 660F1F44 		.p2align 4,,15
 1296      0000
 1298              	_ZN12_GLOBAL__N_160TestCheckEqualFailureBecauseOfExceptionIncludesCheckContentsD2Ev:
 1299              	.LFB1546:
 1300              		.cfi_startproc
 1301 06c0 48C70700 		movq	$_ZTVN12_GLOBAL__N_160TestCheckEqualFailureBecauseOfExceptionIncludesCheckContentsE+16, (%rdi
 1301      000000
 1302 06c7 E9000000 		jmp	_ZN8UnitTest4TestD2Ev
 1302      00
 1303              		.cfi_endproc
 1304              	.LFE1546:
 1306              		.set	_ZN12_GLOBAL__N_160TestCheckEqualFailureBecauseOfExceptionIncludesCheckContentsD1Ev,_ZN12_GLO
 1307              		.align 2
 1308 06cc 0F1F4000 		.p2align 4,,15
 1310              	_ZN12_GLOBAL__N_160TestCheckEqualFailureBecauseOfExceptionIncludesCheckContentsD0Ev:
 1311              	.LFB1548:
 1312              		.cfi_startproc
 1313 06d0 53       		pushq	%rbx
 1314              		.cfi_def_cfa_offset 16
 1315              		.cfi_offset 3, -16
 1316 06d1 4889FB   		movq	%rdi, %rbx
 1317 06d4 48C70700 		movq	$_ZTVN12_GLOBAL__N_160TestCheckEqualFailureBecauseOfExceptionIncludesCheckContentsE+16, (%rdi
 1317      000000
 1318 06db E8000000 		call	_ZN8UnitTest4TestD2Ev
 1318      00
 1319 06e0 4889DF   		movq	%rbx, %rdi
 1320 06e3 5B       		popq	%rbx
 1321              		.cfi_def_cfa_offset 8
 1322 06e4 E9000000 		jmp	_ZdlPv
 1322      00
 1323              		.cfi_endproc
 1324              	.LFE1548:
 1326 06e9 90       		.align 2
 1327 06ea 660F1F44 		.p2align 4,,15
 1327      0000
 1329              	_ZN12_GLOBAL__N_161TestCheckEqualFailureBecauseOfExceptionContainsCorrectDetailsD2Ev:
 1330              	.LFB1550:
 1331              		.cfi_startproc
 1332 06f0 48C70700 		movq	$_ZTVN12_GLOBAL__N_161TestCheckEqualFailureBecauseOfExceptionContainsCorrectDetailsE+16, (%rd
 1332      000000
 1333 06f7 E9000000 		jmp	_ZN8UnitTest4TestD2Ev
 1333      00
 1334              		.cfi_endproc
 1335              	.LFE1550:
 1337              		.set	_ZN12_GLOBAL__N_161TestCheckEqualFailureBecauseOfExceptionContainsCorrectDetailsD1Ev,_ZN12_GL
 1338              		.align 2
 1339 06fc 0F1F4000 		.p2align 4,,15
 1341              	_ZN12_GLOBAL__N_161TestCheckEqualFailureBecauseOfExceptionContainsCorrectDetailsD0Ev:
 1342              	.LFB1552:
 1343              		.cfi_startproc
 1344 0700 53       		pushq	%rbx
 1345              		.cfi_def_cfa_offset 16
 1346              		.cfi_offset 3, -16
 1347 0701 4889FB   		movq	%rdi, %rbx
 1348 0704 48C70700 		movq	$_ZTVN12_GLOBAL__N_161TestCheckEqualFailureBecauseOfExceptionContainsCorrectDetailsE+16, (%rd
 1348      000000
 1349 070b E8000000 		call	_ZN8UnitTest4TestD2Ev
 1349      00
 1350 0710 4889DF   		movq	%rbx, %rdi
 1351 0713 5B       		popq	%rbx
 1352              		.cfi_def_cfa_offset 8
 1353 0714 E9000000 		jmp	_ZdlPv
 1353      00
 1354              		.cfi_endproc
 1355              	.LFE1552:
 1357 0719 90       		.align 2
 1358 071a 660F1F44 		.p2align 4,,15
 1358      0000
 1360              	_ZN12_GLOBAL__N_143TestCheckEqualFailureContainsCorrectDetailsD2Ev:
 1361              	.LFB1554:
 1362              		.cfi_startproc
 1363 0720 48C70700 		movq	$_ZTVN12_GLOBAL__N_143TestCheckEqualFailureContainsCorrectDetailsE+16, (%rdi)
 1363      000000
 1364 0727 E9000000 		jmp	_ZN8UnitTest4TestD2Ev
 1364      00
 1365              		.cfi_endproc
 1366              	.LFE1554:
 1368              		.set	_ZN12_GLOBAL__N_143TestCheckEqualFailureContainsCorrectDetailsD1Ev,_ZN12_GLOBAL__N_143TestChe
 1369              		.align 2
 1370 072c 0F1F4000 		.p2align 4,,15
 1372              	_ZN12_GLOBAL__N_143TestCheckEqualFailureContainsCorrectDetailsD0Ev:
 1373              	.LFB1556:
 1374              		.cfi_startproc
 1375 0730 53       		pushq	%rbx
 1376              		.cfi_def_cfa_offset 16
 1377              		.cfi_offset 3, -16
 1378 0731 4889FB   		movq	%rdi, %rbx
 1379 0734 48C70700 		movq	$_ZTVN12_GLOBAL__N_143TestCheckEqualFailureContainsCorrectDetailsE+16, (%rdi)
 1379      000000
 1380 073b E8000000 		call	_ZN8UnitTest4TestD2Ev
 1380      00
 1381 0740 4889DF   		movq	%rbx, %rdi
 1382 0743 5B       		popq	%rbx
 1383              		.cfi_def_cfa_offset 8
 1384 0744 E9000000 		jmp	_ZdlPv
 1384      00
 1385              		.cfi_endproc
 1386              	.LFE1556:
 1388 0749 90       		.align 2
 1389 074a 660F1F44 		.p2align 4,,15
 1389      0000
 1391              	_ZN12_GLOBAL__N_130TestCheckEqualFailsOnExceptionD2Ev:
 1392              	.LFB1558:
 1393              		.cfi_startproc
 1394 0750 48C70700 		movq	$_ZTVN12_GLOBAL__N_130TestCheckEqualFailsOnExceptionE+16, (%rdi)
 1394      000000
 1395 0757 E9000000 		jmp	_ZN8UnitTest4TestD2Ev
 1395      00
 1396              		.cfi_endproc
 1397              	.LFE1558:
 1399              		.set	_ZN12_GLOBAL__N_130TestCheckEqualFailsOnExceptionD1Ev,_ZN12_GLOBAL__N_130TestCheckEqualFailsO
 1400              		.align 2
 1401 075c 0F1F4000 		.p2align 4,,15
 1403              	_ZN12_GLOBAL__N_130TestCheckEqualFailsOnExceptionD0Ev:
 1404              	.LFB1560:
 1405              		.cfi_startproc
 1406 0760 53       		pushq	%rbx
 1407              		.cfi_def_cfa_offset 16
 1408              		.cfi_offset 3, -16
 1409 0761 4889FB   		movq	%rdi, %rbx
 1410 0764 48C70700 		movq	$_ZTVN12_GLOBAL__N_130TestCheckEqualFailsOnExceptionE+16, (%rdi)
 1410      000000
 1411 076b E8000000 		call	_ZN8UnitTest4TestD2Ev
 1411      00
 1412 0770 4889DF   		movq	%rbx, %rdi
 1413 0773 5B       		popq	%rbx
 1414              		.cfi_def_cfa_offset 8
 1415 0774 E9000000 		jmp	_ZdlPv
 1415      00
 1416              		.cfi_endproc
 1417              	.LFE1560:
 1419 0779 90       		.align 2
 1420 077a 660F1F44 		.p2align 4,,15
 1420      0000
 1422              	_ZN12_GLOBAL__N_129TestCheckEqualFailsOnNotEqualD2Ev:
 1423              	.LFB1562:
 1424              		.cfi_startproc
 1425 0780 48C70700 		movq	$_ZTVN12_GLOBAL__N_129TestCheckEqualFailsOnNotEqualE+16, (%rdi)
 1425      000000
 1426 0787 E9000000 		jmp	_ZN8UnitTest4TestD2Ev
 1426      00
 1427              		.cfi_endproc
 1428              	.LFE1562:
 1430              		.set	_ZN12_GLOBAL__N_129TestCheckEqualFailsOnNotEqualD1Ev,_ZN12_GLOBAL__N_129TestCheckEqualFailsOn
 1431              		.align 2
 1432 078c 0F1F4000 		.p2align 4,,15
 1434              	_ZN12_GLOBAL__N_129TestCheckEqualFailsOnNotEqualD0Ev:
 1435              	.LFB1564:
 1436              		.cfi_startproc
 1437 0790 53       		pushq	%rbx
 1438              		.cfi_def_cfa_offset 16
 1439              		.cfi_offset 3, -16
 1440 0791 4889FB   		movq	%rdi, %rbx
 1441 0794 48C70700 		movq	$_ZTVN12_GLOBAL__N_129TestCheckEqualFailsOnNotEqualE+16, (%rdi)
 1441      000000
 1442 079b E8000000 		call	_ZN8UnitTest4TestD2Ev
 1442      00
 1443 07a0 4889DF   		movq	%rbx, %rdi
 1444 07a3 5B       		popq	%rbx
 1445              		.cfi_def_cfa_offset 8
 1446 07a4 E9000000 		jmp	_ZdlPv
 1446      00
 1447              		.cfi_endproc
 1448              	.LFE1564:
 1450 07a9 90       		.align 2
 1451 07aa 660F1F44 		.p2align 4,,15
 1451      0000
 1453              	_ZN12_GLOBAL__N_129TestCheckEqualSucceedsOnEqualD2Ev:
 1454              	.LFB1566:
 1455              		.cfi_startproc
 1456 07b0 48C70700 		movq	$_ZTVN12_GLOBAL__N_129TestCheckEqualSucceedsOnEqualE+16, (%rdi)
 1456      000000
 1457 07b7 E9000000 		jmp	_ZN8UnitTest4TestD2Ev
 1457      00
 1458              		.cfi_endproc
 1459              	.LFE1566:
 1461              		.set	_ZN12_GLOBAL__N_129TestCheckEqualSucceedsOnEqualD1Ev,_ZN12_GLOBAL__N_129TestCheckEqualSucceed
 1462              		.align 2
 1463 07bc 0F1F4000 		.p2align 4,,15
 1465              	_ZN12_GLOBAL__N_129TestCheckEqualSucceedsOnEqualD0Ev:
 1466              	.LFB1568:
 1467              		.cfi_startproc
 1468 07c0 53       		pushq	%rbx
 1469              		.cfi_def_cfa_offset 16
 1470              		.cfi_offset 3, -16
 1471 07c1 4889FB   		movq	%rdi, %rbx
 1472 07c4 48C70700 		movq	$_ZTVN12_GLOBAL__N_129TestCheckEqualSucceedsOnEqualE+16, (%rdi)
 1472      000000
 1473 07cb E8000000 		call	_ZN8UnitTest4TestD2Ev
 1473      00
 1474 07d0 4889DF   		movq	%rbx, %rdi
 1475 07d3 5B       		popq	%rbx
 1476              		.cfi_def_cfa_offset 8
 1477 07d4 E9000000 		jmp	_ZdlPv
 1477      00
 1478              		.cfi_endproc
 1479              	.LFE1568:
 1481 07d9 90       		.align 2
 1482 07da 660F1F44 		.p2align 4,,15
 1482      0000
 1484              	_ZN12_GLOBAL__N_155TestCheckFailureBecauseOfExceptionIncludesCheckContentsD2Ev:
 1485              	.LFB1570:
 1486              		.cfi_startproc
 1487 07e0 48C70700 		movq	$_ZTVN12_GLOBAL__N_155TestCheckFailureBecauseOfExceptionIncludesCheckContentsE+16, (%rdi)
 1487      000000
 1488 07e7 E9000000 		jmp	_ZN8UnitTest4TestD2Ev
 1488      00
 1489              		.cfi_endproc
 1490              	.LFE1570:
 1492              		.set	_ZN12_GLOBAL__N_155TestCheckFailureBecauseOfExceptionIncludesCheckContentsD1Ev,_ZN12_GLOBAL__
 1493              		.align 2
 1494 07ec 0F1F4000 		.p2align 4,,15
 1496              	_ZN12_GLOBAL__N_155TestCheckFailureBecauseOfExceptionIncludesCheckContentsD0Ev:
 1497              	.LFB1572:
 1498              		.cfi_startproc
 1499 07f0 53       		pushq	%rbx
 1500              		.cfi_def_cfa_offset 16
 1501              		.cfi_offset 3, -16
 1502 07f1 4889FB   		movq	%rdi, %rbx
 1503 07f4 48C70700 		movq	$_ZTVN12_GLOBAL__N_155TestCheckFailureBecauseOfExceptionIncludesCheckContentsE+16, (%rdi)
 1503      000000
 1504 07fb E8000000 		call	_ZN8UnitTest4TestD2Ev
 1504      00
 1505 0800 4889DF   		movq	%rbx, %rdi
 1506 0803 5B       		popq	%rbx
 1507              		.cfi_def_cfa_offset 8
 1508 0804 E9000000 		jmp	_ZdlPv
 1508      00
 1509              		.cfi_endproc
 1510              	.LFE1572:
 1512 0809 90       		.align 2
 1513 080a 660F1F44 		.p2align 4,,15
 1513      0000
 1515              	_ZN12_GLOBAL__N_125TestCheckFailsOnExceptionD2Ev:
 1516              	.LFB1574:
 1517              		.cfi_startproc
 1518 0810 48C70700 		movq	$_ZTVN12_GLOBAL__N_125TestCheckFailsOnExceptionE+16, (%rdi)
 1518      000000
 1519 0817 E9000000 		jmp	_ZN8UnitTest4TestD2Ev
 1519      00
 1520              		.cfi_endproc
 1521              	.LFE1574:
 1523              		.set	_ZN12_GLOBAL__N_125TestCheckFailsOnExceptionD1Ev,_ZN12_GLOBAL__N_125TestCheckFailsOnException
 1524              		.align 2
 1525 081c 0F1F4000 		.p2align 4,,15
 1527              	_ZN12_GLOBAL__N_125TestCheckFailsOnExceptionD0Ev:
 1528              	.LFB1576:
 1529              		.cfi_startproc
 1530 0820 53       		pushq	%rbx
 1531              		.cfi_def_cfa_offset 16
 1532              		.cfi_offset 3, -16
 1533 0821 4889FB   		movq	%rdi, %rbx
 1534 0824 48C70700 		movq	$_ZTVN12_GLOBAL__N_125TestCheckFailsOnExceptionE+16, (%rdi)
 1534      000000
 1535 082b E8000000 		call	_ZN8UnitTest4TestD2Ev
 1535      00
 1536 0830 4889DF   		movq	%rbx, %rdi
 1537 0833 5B       		popq	%rbx
 1538              		.cfi_def_cfa_offset 8
 1539 0834 E9000000 		jmp	_ZdlPv
 1539      00
 1540              		.cfi_endproc
 1541              	.LFE1576:
 1543 0839 90       		.align 2
 1544 083a 660F1F44 		.p2align 4,,15
 1544      0000
 1546              	_ZN12_GLOBAL__N_137TestCheckFailureIncludesCheckContentsD2Ev:
 1547              	.LFB1578:
 1548              		.cfi_startproc
 1549 0840 48C70700 		movq	$_ZTVN12_GLOBAL__N_137TestCheckFailureIncludesCheckContentsE+16, (%rdi)
 1549      000000
 1550 0847 E9000000 		jmp	_ZN8UnitTest4TestD2Ev
 1550      00
 1551              		.cfi_endproc
 1552              	.LFE1578:
 1554              		.set	_ZN12_GLOBAL__N_137TestCheckFailureIncludesCheckContentsD1Ev,_ZN12_GLOBAL__N_137TestCheckFail
 1555              		.align 2
 1556 084c 0F1F4000 		.p2align 4,,15
 1558              	_ZN12_GLOBAL__N_137TestCheckFailureIncludesCheckContentsD0Ev:
 1559              	.LFB1580:
 1560              		.cfi_startproc
 1561 0850 53       		pushq	%rbx
 1562              		.cfi_def_cfa_offset 16
 1563              		.cfi_offset 3, -16
 1564 0851 4889FB   		movq	%rdi, %rbx
 1565 0854 48C70700 		movq	$_ZTVN12_GLOBAL__N_137TestCheckFailureIncludesCheckContentsE+16, (%rdi)
 1565      000000
 1566 085b E8000000 		call	_ZN8UnitTest4TestD2Ev
 1566      00
 1567 0860 4889DF   		movq	%rbx, %rdi
 1568 0863 5B       		popq	%rbx
 1569              		.cfi_def_cfa_offset 8
 1570 0864 E9000000 		jmp	_ZdlPv
 1570      00
 1571              		.cfi_endproc
 1572              	.LFE1580:
 1574 0869 90       		.align 2
 1575 086a 660F1F44 		.p2align 4,,15
 1575      0000
 1577              	_ZN12_GLOBAL__N_133TestFailureReportsCorrectTestNameD2Ev:
 1578              	.LFB1582:
 1579              		.cfi_startproc
 1580 0870 48C70700 		movq	$_ZTVN12_GLOBAL__N_133TestFailureReportsCorrectTestNameE+16, (%rdi)
 1580      000000
 1581 0877 E9000000 		jmp	_ZN8UnitTest4TestD2Ev
 1581      00
 1582              		.cfi_endproc
 1583              	.LFE1582:
 1585              		.set	_ZN12_GLOBAL__N_133TestFailureReportsCorrectTestNameD1Ev,_ZN12_GLOBAL__N_133TestFailureReport
 1586              		.align 2
 1587 087c 0F1F4000 		.p2align 4,,15
 1589              	_ZN12_GLOBAL__N_133TestFailureReportsCorrectTestNameD0Ev:
 1590              	.LFB1584:
 1591              		.cfi_startproc
 1592 0880 53       		pushq	%rbx
 1593              		.cfi_def_cfa_offset 16
 1594              		.cfi_offset 3, -16
 1595 0881 4889FB   		movq	%rdi, %rbx
 1596 0884 48C70700 		movq	$_ZTVN12_GLOBAL__N_133TestFailureReportsCorrectTestNameE+16, (%rdi)
 1596      000000
 1597 088b E8000000 		call	_ZN8UnitTest4TestD2Ev
 1597      00
 1598 0890 4889DF   		movq	%rbx, %rdi
 1599 0893 5B       		popq	%rbx
 1600              		.cfi_def_cfa_offset 8
 1601 0894 E9000000 		jmp	_ZdlPv
 1601      00
 1602              		.cfi_endproc
 1603              	.LFE1584:
 1605 0899 90       		.align 2
 1606 089a 660F1F44 		.p2align 4,,15
 1606      0000
 1608              	_ZN12_GLOBAL__N_121TestCheckFailsOnFalseD2Ev:
 1609              	.LFB1586:
 1610              		.cfi_startproc
 1611 08a0 48C70700 		movq	$_ZTVN12_GLOBAL__N_121TestCheckFailsOnFalseE+16, (%rdi)
 1611      000000
 1612 08a7 E9000000 		jmp	_ZN8UnitTest4TestD2Ev
 1612      00
 1613              		.cfi_endproc
 1614              	.LFE1586:
 1616              		.set	_ZN12_GLOBAL__N_121TestCheckFailsOnFalseD1Ev,_ZN12_GLOBAL__N_121TestCheckFailsOnFalseD2Ev
 1617              		.align 2
 1618 08ac 0F1F4000 		.p2align 4,,15
 1620              	_ZN12_GLOBAL__N_121TestCheckFailsOnFalseD0Ev:
 1621              	.LFB1588:
 1622              		.cfi_startproc
 1623 08b0 53       		pushq	%rbx
 1624              		.cfi_def_cfa_offset 16
 1625              		.cfi_offset 3, -16
 1626 08b1 4889FB   		movq	%rdi, %rbx
 1627 08b4 48C70700 		movq	$_ZTVN12_GLOBAL__N_121TestCheckFailsOnFalseE+16, (%rdi)
 1627      000000
 1628 08bb E8000000 		call	_ZN8UnitTest4TestD2Ev
 1628      00
 1629 08c0 4889DF   		movq	%rbx, %rdi
 1630 08c3 5B       		popq	%rbx
 1631              		.cfi_def_cfa_offset 8
 1632 08c4 E9000000 		jmp	_ZdlPv
 1632      00
 1633              		.cfi_endproc
 1634              	.LFE1588:
 1636 08c9 90       		.align 2
 1637 08ca 660F1F44 		.p2align 4,,15
 1637      0000
 1639              	_ZN12_GLOBAL__N_123TestCheckSucceedsOnTrueD2Ev:
 1640              	.LFB1590:
 1641              		.cfi_startproc
 1642 08d0 48C70700 		movq	$_ZTVN12_GLOBAL__N_123TestCheckSucceedsOnTrueE+16, (%rdi)
 1642      000000
 1643 08d7 E9000000 		jmp	_ZN8UnitTest4TestD2Ev
 1643      00
 1644              		.cfi_endproc
 1645              	.LFE1590:
 1647              		.set	_ZN12_GLOBAL__N_123TestCheckSucceedsOnTrueD1Ev,_ZN12_GLOBAL__N_123TestCheckSucceedsOnTrueD2Ev
 1648              		.align 2
 1649 08dc 0F1F4000 		.p2align 4,,15
 1651              	_ZN12_GLOBAL__N_123TestCheckSucceedsOnTrueD0Ev:
 1652              	.LFB1592:
 1653              		.cfi_startproc
 1654 08e0 53       		pushq	%rbx
 1655              		.cfi_def_cfa_offset 16
 1656              		.cfi_offset 3, -16
 1657 08e1 4889FB   		movq	%rdi, %rbx
 1658 08e4 48C70700 		movq	$_ZTVN12_GLOBAL__N_123TestCheckSucceedsOnTrueE+16, (%rdi)
 1658      000000
 1659 08eb E8000000 		call	_ZN8UnitTest4TestD2Ev
 1659      00
 1660 08f0 4889DF   		movq	%rbx, %rdi
 1661 08f3 5B       		popq	%rbx
 1662              		.cfi_def_cfa_offset 8
 1663 08f4 E9000000 		jmp	_ZdlPv
 1663      00
 1664              		.cfi_endproc
 1665              	.LFE1592:
 1667              		.section	.rodata.str1.1,"aMS",@progbits,1
 1668              	.LC0:
 1669 0000 446F6800 		.string	"Doh"
 1670              		.text
 1671 08f9 0F1F8000 		.p2align 4,,15
 1671      000000
 1673              	_ZN12_GLOBAL__N_116ThrowingFunctionEv:
 1674              	.LFB1110:
 1675              		.cfi_startproc
 1676 0900 BF080000 		movl	$8, %edi
 1676      00
 1677 0905 4883EC08 		subq	$8, %rsp
 1678              		.cfi_def_cfa_offset 16
 1679 0909 E8000000 		call	__cxa_allocate_exception
 1679      00
 1680 090e 31D2     		xorl	%edx, %edx
 1681 0910 48C70000 		movq	$.LC0, (%rax)
 1681      000000
 1682 0917 BE000000 		movl	$_ZTIPKc, %esi
 1682      00
 1683 091c 4889C7   		movq	%rax, %rdi
 1684 091f E8000000 		call	__cxa_throw
 1684      00
 1685              		.cfi_endproc
 1686              	.LFE1110:
 1688              		.section	.rodata.str1.1
 1689              	.LC1:
 1690 0004 54657374 		.string	"Test throw"
 1690      20746872 
 1690      6F7700
 1691              		.text
 1692              		.align 2
 1693 0924 6666662E 		.p2align 4,,15
 1693      0F1F8400 
 1693      00000000 
 1695              	_ZNK12_GLOBAL__N_116ThrowingObject2DixEi.isra.1:
 1696              	.LFB1600:
 1697              		.cfi_startproc
 1698 0930 BF080000 		movl	$8, %edi
 1698      00
 1699 0935 4883EC08 		subq	$8, %rsp
 1700              		.cfi_def_cfa_offset 16
 1701 0939 E8000000 		call	__cxa_allocate_exception
 1701      00
 1702 093e 31D2     		xorl	%edx, %edx
 1703 0940 48C70000 		movq	$.LC1, (%rax)
 1703      000000
 1704 0947 BE000000 		movl	$_ZTIPKc, %esi
 1704      00
 1705 094c 4889C7   		movq	%rax, %rdi
 1706 094f E8000000 		call	__cxa_throw
 1706      00
 1707              		.cfi_endproc
 1708              	.LFE1600:
 1710              		.align 2
 1711 0954 6666662E 		.p2align 4,,15
 1711      0F1F8400 
 1711      00000000 
 1713              	_ZNK12_GLOBAL__N_114ThrowingObjectixEi.isra.2:
 1714              	.LFB1601:
 1715              		.cfi_startproc
 1716 0960 BF080000 		movl	$8, %edi
 1716      00
 1717 0965 4883EC08 		subq	$8, %rsp
 1718              		.cfi_def_cfa_offset 16
 1719 0969 E8000000 		call	__cxa_allocate_exception
 1719      00
 1720 096e 31D2     		xorl	%edx, %edx
 1721 0970 48C70000 		movq	$.LC1, (%rax)
 1721      000000
 1722 0977 BE000000 		movl	$_ZTIPKc, %esi
 1722      00
 1723 097c 4889C7   		movq	%rax, %rdi
 1724 097f E8000000 		call	__cxa_throw
 1724      00
 1725              		.cfi_endproc
 1726              	.LFE1601:
 1728              		.section	.text.unlikely,"ax",@progbits
 1730              	_ZStlsISt11char_traitsIcEERSt13basic_ostreamIcT_ES5_PKc.part.3:
 1731              	.LFB1602:
 1732              		.cfi_startproc
 1733 0000 50       		pushq	%rax
 1734              		.cfi_def_cfa_offset 16
 1735 0001 488B07   		movq	(%rdi), %rax
 1736 0004 480378E8 		addq	-24(%rax), %rdi
 1737 0008 8B7720   		movl	32(%rdi), %esi
 1738 000b 83CE01   		orl	$1, %esi
 1739 000e E8000000 		call	_ZNSt9basic_iosIcSt11char_traitsIcEE5clearESt12_Ios_Iostate
 1739      00
 1740 0013 5A       		popq	%rdx
 1741              		.cfi_def_cfa_offset 8
 1742 0014 C3       		ret
 1743              		.cfi_endproc
 1744              	.LFE1602:
 1746              		.section	.text._ZNSt15basic_stringbufIcSt11char_traitsIcESaIcEED2Ev,"axG",@progbits,_ZNSt15basic_s
 1747              		.align 2
 1748              		.p2align 4,,15
 1749              		.weak	_ZNSt15basic_stringbufIcSt11char_traitsIcESaIcEED2Ev
 1751              	_ZNSt15basic_stringbufIcSt11char_traitsIcESaIcEED2Ev:
 1752              	.LFB1301:
 1753              		.cfi_startproc
 1754 0000 53       		pushq	%rbx
 1755              		.cfi_def_cfa_offset 16
 1756              		.cfi_offset 3, -16
 1757 0001 4889FB   		movq	%rdi, %rbx
 1758 0004 4883EC10 		subq	$16, %rsp
 1759              		.cfi_def_cfa_offset 32
 1760 0008 488B4748 		movq	72(%rdi), %rax
 1761 000c 48C70700 		movq	$_ZTVSt15basic_stringbufIcSt11char_traitsIcESaIcEE+16, (%rdi)
 1761      000000
 1762 0013 488D78E8 		leaq	-24(%rax), %rdi
 1763 0017 4881FF00 		cmpq	$_ZNSs4_Rep20_S_empty_rep_storageE, %rdi
 1763      000000
 1764 001e 7516     		jne	.L171
 1765              	.L165:
 1766 0020 488D7B38 		leaq	56(%rbx), %rdi
 1767 0024 48C70300 		movq	$_ZTVSt15basic_streambufIcSt11char_traitsIcEE+16, (%rbx)
 1767      000000
 1768 002b E8000000 		call	_ZNSt6localeD1Ev
 1768      00
 1769 0030 4883C410 		addq	$16, %rsp
 1770              		.cfi_remember_state
 1771              		.cfi_def_cfa_offset 16
 1772 0034 5B       		popq	%rbx
 1773              		.cfi_def_cfa_offset 8
 1774 0035 C3       		ret
 1775              	.L171:
 1776              		.cfi_restore_state
 1777 0036 B9000000 		movl	$_ZL28__gthrw___pthread_key_createPjPFvPvE, %ecx
 1777      00
 1778 003b 488D5710 		leaq	16(%rdi), %rdx
 1779 003f 4885C9   		testq	%rcx, %rcx
 1780 0042 7417     		je	.L166
 1781 0044 83C8FF   		orl	$-1, %eax
 1782 0047 F00FC102 		lock xaddl	%eax, (%rdx)
 1783              	.L167:
 1784 004b 85C0     		testl	%eax, %eax
 1785 004d 7FD1     		jg	.L165
 1786 004f 488D7424 		leaq	15(%rsp), %rsi
 1786      0F
 1787 0054 E8000000 		call	_ZNSs4_Rep10_M_destroyERKSaIcE
 1787      00
 1788 0059 EBC5     		jmp	.L165
 1789              	.L166:
 1790 005b 8B50F8   		movl	-8(%rax), %edx
 1791 005e 8D4AFF   		leal	-1(%rdx), %ecx
 1792 0061 8948F8   		movl	%ecx, -8(%rax)
 1793 0064 89D0     		movl	%edx, %eax
 1794 0066 EBE3     		jmp	.L167
 1795              		.cfi_endproc
 1796              	.LFE1301:
 1798              		.weak	_ZNSt15basic_stringbufIcSt11char_traitsIcESaIcEED1Ev
 1799              		.set	_ZNSt15basic_stringbufIcSt11char_traitsIcESaIcEED1Ev,_ZNSt15basic_stringbufIcSt11char_traitsI
 1800              		.section	.text._ZNSt15basic_stringbufIcSt11char_traitsIcESaIcEED0Ev,"axG",@progbits,_ZNSt15basic_s
 1801              		.align 2
 1802              		.p2align 4,,15
 1803              		.weak	_ZNSt15basic_stringbufIcSt11char_traitsIcESaIcEED0Ev
 1805              	_ZNSt15basic_stringbufIcSt11char_traitsIcESaIcEED0Ev:
 1806              	.LFB1303:
 1807              		.cfi_startproc
 1808 0000 53       		pushq	%rbx
 1809              		.cfi_def_cfa_offset 16
 1810              		.cfi_offset 3, -16
 1811 0001 4889FB   		movq	%rdi, %rbx
 1812 0004 4883EC10 		subq	$16, %rsp
 1813              		.cfi_def_cfa_offset 32
 1814 0008 488B4748 		movq	72(%rdi), %rax
 1815 000c 48C70700 		movq	$_ZTVSt15basic_stringbufIcSt11char_traitsIcESaIcEE+16, (%rdi)
 1815      000000
 1816 0013 488D78E8 		leaq	-24(%rax), %rdi
 1817 0017 4881FF00 		cmpq	$_ZNSs4_Rep20_S_empty_rep_storageE, %rdi
 1817      000000
 1818 001e 751E     		jne	.L179
 1819              	.L174:
 1820 0020 488D7B38 		leaq	56(%rbx), %rdi
 1821 0024 48C70300 		movq	$_ZTVSt15basic_streambufIcSt11char_traitsIcEE+16, (%rbx)
 1821      000000
 1822 002b E8000000 		call	_ZNSt6localeD1Ev
 1822      00
 1823 0030 4889DF   		movq	%rbx, %rdi
 1824 0033 E8000000 		call	_ZdlPv
 1824      00
 1825 0038 4883C410 		addq	$16, %rsp
 1826              		.cfi_remember_state
 1827              		.cfi_def_cfa_offset 16
 1828 003c 5B       		popq	%rbx
 1829              		.cfi_def_cfa_offset 8
 1830 003d C3       		ret
 1831              	.L179:
 1832              		.cfi_restore_state
 1833 003e B9000000 		movl	$_ZL28__gthrw___pthread_key_createPjPFvPvE, %ecx
 1833      00
 1834 0043 488D5710 		leaq	16(%rdi), %rdx
 1835 0047 4885C9   		testq	%rcx, %rcx
 1836 004a 7417     		je	.L175
 1837 004c 83C8FF   		orl	$-1, %eax
 1838 004f F00FC102 		lock xaddl	%eax, (%rdx)
 1839              	.L176:
 1840 0053 85C0     		testl	%eax, %eax
 1841 0055 7FC9     		jg	.L174
 1842 0057 488D7424 		leaq	15(%rsp), %rsi
 1842      0F
 1843 005c E8000000 		call	_ZNSs4_Rep10_M_destroyERKSaIcE
 1843      00
 1844 0061 EBBD     		jmp	.L174
 1845              	.L175:
 1846 0063 8B50F8   		movl	-8(%rax), %edx
 1847 0066 8D4AFF   		leal	-1(%rdx), %ecx
 1848 0069 8948F8   		movl	%ecx, -8(%rax)
 1849 006c 89D0     		movl	%edx, %eax
 1850 006e EBE3     		jmp	.L176
 1851              		.cfi_endproc
 1852              	.LFE1303:
 1854              		.section	.text._ZN8UnitTest15MemoryOutStreamD1Ev,"axG",@progbits,_ZN8UnitTest15MemoryOutStreamD1Ev
 1855              		.align 2
 1856              		.p2align 4,,15
 1857              		.weak	_ZN8UnitTest15MemoryOutStreamD1Ev
 1859              	_ZN8UnitTest15MemoryOutStreamD1Ev:
 1860              	.LFB1324:
 1861              		.cfi_startproc
 1862 0000 53       		pushq	%rbx
 1863              		.cfi_def_cfa_offset 16
 1864              		.cfi_offset 3, -16
 1865 0001 4889FB   		movq	%rdi, %rbx
 1866 0004 4883EC10 		subq	$16, %rsp
 1867              		.cfi_def_cfa_offset 32
 1868 0008 488B4758 		movq	88(%rdi), %rax
 1869 000c 48C70700 		movq	$_ZTVN8UnitTest15MemoryOutStreamE+24, (%rdi)
 1869      000000
 1870 0013 48C74760 		movq	$_ZTVN8UnitTest15MemoryOutStreamE+64, 96(%rdi)
 1870      00000000 
 1871 001b 488D78E8 		leaq	-24(%rax), %rdi
 1872 001f 4881FF00 		cmpq	$_ZNSs4_Rep20_S_empty_rep_storageE, %rdi
 1872      000000
 1873 0026 7557     		jne	.L192
 1874              	.L182:
 1875 0028 488B4350 		movq	80(%rbx), %rax
 1876 002c 48C70300 		movq	$_ZTCN8UnitTest15MemoryOutStreamE0_St19basic_ostringstreamIcSt11char_traitsIcESaIcEE+24, (%rb
 1876      000000
 1877 0033 48C74360 		movq	$_ZTCN8UnitTest15MemoryOutStreamE0_St19basic_ostringstreamIcSt11char_traitsIcESaIcEE+64, 96(%
 1877      00000000 
 1878 003b 48C74308 		movq	$_ZTVSt15basic_stringbufIcSt11char_traitsIcESaIcEE+16, 8(%rbx)
 1878      00000000 
 1879 0043 488D78E8 		leaq	-24(%rax), %rdi
 1880 0047 4881FF00 		cmpq	$_ZNSs4_Rep20_S_empty_rep_storageE, %rdi
 1880      000000
 1881 004e 7554     		jne	.L193
 1882              	.L187:
 1883 0050 488D7B40 		leaq	64(%rbx), %rdi
 1884 0054 48C74308 		movq	$_ZTVSt15basic_streambufIcSt11char_traitsIcEE+16, 8(%rbx)
 1884      00000000 
 1885 005c E8000000 		call	_ZNSt6localeD1Ev
 1885      00
 1886 0061 488D7B60 		leaq	96(%rbx), %rdi
 1887 0065 48C70300 		movq	$_ZTCN8UnitTest15MemoryOutStreamE0_So+24, (%rbx)
 1887      000000
 1888 006c 48C74360 		movq	$_ZTVSt9basic_iosIcSt11char_traitsIcEE+16, 96(%rbx)
 1888      00000000 
 1889 0074 E8000000 		call	_ZNSt8ios_baseD2Ev
 1889      00
 1890 0079 4883C410 		addq	$16, %rsp
 1891              		.cfi_remember_state
 1892              		.cfi_def_cfa_offset 16
 1893 007d 5B       		popq	%rbx
 1894              		.cfi_def_cfa_offset 8
 1895 007e C3       		ret
 1896              	.L192:
 1897              		.cfi_restore_state
 1898 007f B9000000 		movl	$_ZL28__gthrw___pthread_key_createPjPFvPvE, %ecx
 1898      00
 1899 0084 488D5710 		leaq	16(%rdi), %rdx
 1900 0088 4885C9   		testq	%rcx, %rcx
 1901 008b 743C     		je	.L183
 1902 008d 83C8FF   		orl	$-1, %eax
 1903 0090 F00FC102 		lock xaddl	%eax, (%rdx)
 1904              	.L184:
 1905 0094 85C0     		testl	%eax, %eax
 1906 0096 7F90     		jg	.L182
 1907 0098 488D7424 		leaq	15(%rsp), %rsi
 1907      0F
 1908 009d E8000000 		call	_ZNSs4_Rep10_M_destroyERKSaIcE
 1908      00
 1909 00a2 EB84     		jmp	.L182
 1910              	.L193:
 1911 00a4 B9000000 		movl	$_ZL28__gthrw___pthread_key_createPjPFvPvE, %ecx
 1911      00
 1912 00a9 488D5710 		leaq	16(%rdi), %rdx
 1913 00ad 4885C9   		testq	%rcx, %rcx
 1914 00b0 7424     		je	.L188
 1915 00b2 83C8FF   		orl	$-1, %eax
 1916 00b5 F00FC102 		lock xaddl	%eax, (%rdx)
 1917              	.L189:
 1918 00b9 85C0     		testl	%eax, %eax
 1919 00bb 7F93     		jg	.L187
 1920 00bd 488D7424 		leaq	15(%rsp), %rsi
 1920      0F
 1921 00c2 E8000000 		call	_ZNSs4_Rep10_M_destroyERKSaIcE
 1921      00
 1922 00c7 EB87     		jmp	.L187
 1923              	.L183:
 1924 00c9 8B50F8   		movl	-8(%rax), %edx
 1925 00cc 8D4AFF   		leal	-1(%rdx), %ecx
 1926 00cf 8948F8   		movl	%ecx, -8(%rax)
 1927 00d2 89D0     		movl	%edx, %eax
 1928 00d4 EBBE     		jmp	.L184
 1929              	.L188:
 1930 00d6 8B50F8   		movl	-8(%rax), %edx
 1931 00d9 8D4AFF   		leal	-1(%rdx), %ecx
 1932 00dc 8948F8   		movl	%ecx, -8(%rax)
 1933 00df 89D0     		movl	%edx, %eax
 1934 00e1 EBD6     		jmp	.L189
 1935              		.cfi_endproc
 1936              	.LFE1324:
 1938              		.set	.LTHUNK0,_ZN8UnitTest15MemoryOutStreamD1Ev
 1939 00e3 66666666 		.p2align 4,,15
 1939      2E0F1F84 
 1939      00000000 
 1939      00
 1940              		.weak	_ZTv0_n24_N8UnitTest15MemoryOutStreamD1Ev
 1942              	_ZTv0_n24_N8UnitTest15MemoryOutStreamD1Ev:
 1943              	.LFB1627:
 1944              		.cfi_startproc
 1945 00f0 4C8B17   		movq	(%rdi), %r10
 1946 00f3 49037AE8 		addq	-24(%r10), %rdi
 1947 00f7 E904FFFF 		jmp	.LTHUNK0
 1947      FF
 1948              		.cfi_endproc
 1949              	.LFE1627:
 1951              		.section	.text._ZN8UnitTest15MemoryOutStreamD0Ev,"axG",@progbits,_ZN8UnitTest15MemoryOutStreamD0Ev
 1952              		.align 2
 1953              		.p2align 4,,15
 1954              		.weak	_ZN8UnitTest15MemoryOutStreamD0Ev
 1956              	_ZN8UnitTest15MemoryOutStreamD0Ev:
 1957              	.LFB1325:
 1958              		.cfi_startproc
 1959 0000 53       		pushq	%rbx
 1960              		.cfi_def_cfa_offset 16
 1961              		.cfi_offset 3, -16
 1962 0001 4889FB   		movq	%rdi, %rbx
 1963 0004 4883EC10 		subq	$16, %rsp
 1964              		.cfi_def_cfa_offset 32
 1965 0008 488B4758 		movq	88(%rdi), %rax
 1966 000c 48C70700 		movq	$_ZTVN8UnitTest15MemoryOutStreamE+24, (%rdi)
 1966      000000
 1967 0013 48C74760 		movq	$_ZTVN8UnitTest15MemoryOutStreamE+64, 96(%rdi)
 1967      00000000 
 1968 001b 488D78E8 		leaq	-24(%rax), %rdi
 1969 001f 4881FF00 		cmpq	$_ZNSs4_Rep20_S_empty_rep_storageE, %rdi
 1969      000000
 1970 0026 755F     		jne	.L206
 1971              	.L196:
 1972 0028 488B4350 		movq	80(%rbx), %rax
 1973 002c 48C70300 		movq	$_ZTCN8UnitTest15MemoryOutStreamE0_St19basic_ostringstreamIcSt11char_traitsIcESaIcEE+24, (%rb
 1973      000000
 1974 0033 48C74360 		movq	$_ZTCN8UnitTest15MemoryOutStreamE0_St19basic_ostringstreamIcSt11char_traitsIcESaIcEE+64, 96(%
 1974      00000000 
 1975 003b 48C74308 		movq	$_ZTVSt15basic_stringbufIcSt11char_traitsIcESaIcEE+16, 8(%rbx)
 1975      00000000 
 1976 0043 488D78E8 		leaq	-24(%rax), %rdi
 1977 0047 4881FF00 		cmpq	$_ZNSs4_Rep20_S_empty_rep_storageE, %rdi
 1977      000000
 1978 004e 755F     		jne	.L207
 1979              	.L201:
 1980 0050 488D7B40 		leaq	64(%rbx), %rdi
 1981 0054 48C74308 		movq	$_ZTVSt15basic_streambufIcSt11char_traitsIcEE+16, 8(%rbx)
 1981      00000000 
 1982 005c E8000000 		call	_ZNSt6localeD1Ev
 1982      00
 1983 0061 488D7B60 		leaq	96(%rbx), %rdi
 1984 0065 48C70300 		movq	$_ZTCN8UnitTest15MemoryOutStreamE0_So+24, (%rbx)
 1984      000000
 1985 006c 48C74360 		movq	$_ZTVSt9basic_iosIcSt11char_traitsIcEE+16, 96(%rbx)
 1985      00000000 
 1986 0074 E8000000 		call	_ZNSt8ios_baseD2Ev
 1986      00
 1987 0079 4889DF   		movq	%rbx, %rdi
 1988 007c E8000000 		call	_ZdlPv
 1988      00
 1989 0081 4883C410 		addq	$16, %rsp
 1990              		.cfi_remember_state
 1991              		.cfi_def_cfa_offset 16
 1992 0085 5B       		popq	%rbx
 1993              		.cfi_def_cfa_offset 8
 1994 0086 C3       		ret
 1995              	.L206:
 1996              		.cfi_restore_state
 1997 0087 B9000000 		movl	$_ZL28__gthrw___pthread_key_createPjPFvPvE, %ecx
 1997      00
 1998 008c 488D5710 		leaq	16(%rdi), %rdx
 1999 0090 4885C9   		testq	%rcx, %rcx
 2000 0093 7442     		je	.L197
 2001 0095 83C8FF   		orl	$-1, %eax
 2002 0098 F00FC102 		lock xaddl	%eax, (%rdx)
 2003              	.L198:
 2004 009c 85C0     		testl	%eax, %eax
 2005 009e 7F88     		jg	.L196
 2006 00a0 488D7424 		leaq	15(%rsp), %rsi
 2006      0F
 2007 00a5 E8000000 		call	_ZNSs4_Rep10_M_destroyERKSaIcE
 2007      00
 2008 00aa E979FFFF 		jmp	.L196
 2008      FF
 2009              	.L207:
 2010 00af B9000000 		movl	$_ZL28__gthrw___pthread_key_createPjPFvPvE, %ecx
 2010      00
 2011 00b4 488D5710 		leaq	16(%rdi), %rdx
 2012 00b8 4885C9   		testq	%rcx, %rcx
 2013 00bb 7427     		je	.L202
 2014 00bd 83C8FF   		orl	$-1, %eax
 2015 00c0 F00FC102 		lock xaddl	%eax, (%rdx)
 2016              	.L203:
 2017 00c4 85C0     		testl	%eax, %eax
 2018 00c6 7F88     		jg	.L201
 2019 00c8 488D7424 		leaq	15(%rsp), %rsi
 2019      0F
 2020 00cd E8000000 		call	_ZNSs4_Rep10_M_destroyERKSaIcE
 2020      00
 2021 00d2 E979FFFF 		jmp	.L201
 2021      FF
 2022              	.L197:
 2023 00d7 8B50F8   		movl	-8(%rax), %edx
 2024 00da 8D4AFF   		leal	-1(%rdx), %ecx
 2025 00dd 8948F8   		movl	%ecx, -8(%rax)
 2026 00e0 89D0     		movl	%edx, %eax
 2027 00e2 EBB8     		jmp	.L198
 2028              	.L202:
 2029 00e4 8B50F8   		movl	-8(%rax), %edx
 2030 00e7 8D4AFF   		leal	-1(%rdx), %ecx
 2031 00ea 8948F8   		movl	%ecx, -8(%rax)
 2032 00ed 89D0     		movl	%edx, %eax
 2033 00ef EBD3     		jmp	.L203
 2034              		.cfi_endproc
 2035              	.LFE1325:
 2037              		.set	.LTHUNK1,_ZN8UnitTest15MemoryOutStreamD0Ev
 2038 00f1 66666666 		.p2align 4,,15
 2038      66662E0F 
 2038      1F840000 
 2038      000000
 2039              		.weak	_ZTv0_n24_N8UnitTest15MemoryOutStreamD0Ev
 2041              	_ZTv0_n24_N8UnitTest15MemoryOutStreamD0Ev:
 2042              	.LFB1628:
 2043              		.cfi_startproc
 2044 0100 4C8B17   		movq	(%rdi), %r10
 2045 0103 49037AE8 		addq	-24(%r10), %rdi
 2046 0107 E9F4FEFF 		jmp	.LTHUNK1
 2046      FF
 2047              		.cfi_endproc
 2048              	.LFE1628:
 2050              		.section	.rodata.str1.1
 2051              	.LC2:
 2052 000f 45787065 		.string	"Expected [ "
 2052      63746564 
 2052      205B2000 
 2053              	.LC3:
 2054 001b 2000     		.string	" "
 2055              	.LC4:
 2056 001d 5D206275 		.string	"] but was [ "
 2056      74207761 
 2056      73205B20 
 2056      00
 2057              	.LC5:
 2058 002a 5D00     		.string	"]"
 2059              		.text
 2060 0984 6666662E 		.p2align 4,,15
 2060      0F1F8400 
 2060      00000000 
 2062              	_ZN8UnitTest15CheckArrayEqualIA4_iS1_EEvRNS_11TestResultsERKT_RKT0_iRKNS_11TestDetailsE.constprop.2
 2063              	.LFB1619:
 2064              		.cfi_startproc
 2065              		.cfi_personality 0x3,__gxx_personality_v0
 2066              		.cfi_lsda 0x3,.LLSDA1619
 2067 0990 4156     		pushq	%r14
 2068              		.cfi_def_cfa_offset 16
 2069              		.cfi_offset 14, -16
 2070 0992 4989F6   		movq	%rsi, %r14
 2071 0995 4155     		pushq	%r13
 2072              		.cfi_def_cfa_offset 24
 2073              		.cfi_offset 13, -24
 2074 0997 4989CD   		movq	%rcx, %r13
 2075 099a 4154     		pushq	%r12
 2076              		.cfi_def_cfa_offset 32
 2077              		.cfi_offset 12, -32
 2078 099c 4989FC   		movq	%rdi, %r12
 2079 099f 55       		pushq	%rbp
 2080              		.cfi_def_cfa_offset 40
 2081              		.cfi_offset 6, -40
 2082 09a0 4889D5   		movq	%rdx, %rbp
 2083 09a3 53       		pushq	%rbx
 2084              		.cfi_def_cfa_offset 48
 2085              		.cfi_offset 3, -48
 2086 09a4 4881EC80 		subq	$384, %rsp
 2086      010000
 2087              		.cfi_def_cfa_offset 432
 2088 09ab 8B02     		movl	(%rdx), %eax
 2089 09ad 3906     		cmpl	%eax, (%rsi)
 2090 09af 8B4A04   		movl	4(%rdx), %ecx
 2091 09b2 0F94C0   		sete	%al
 2092 09b5 394E04   		cmpl	%ecx, 4(%rsi)
 2093 09b8 8B4D08   		movl	8(%rbp), %ecx
 2094 09bb 0F94C2   		sete	%dl
 2095 09be 21D0     		andl	%edx, %eax
 2096 09c0 394E08   		cmpl	%ecx, 8(%rsi)
 2097 09c3 0F94C2   		sete	%dl
 2098 09c6 84D0     		testb	%dl, %al
 2099 09c8 741E     		je	.L233
 2100 09ca 8B450C   		movl	12(%rbp), %eax
 2101 09cd 39460C   		cmpl	%eax, 12(%rsi)
 2102 09d0 7516     		jne	.L233
 2103 09d2 4881C480 		addq	$384, %rsp
 2103      010000
 2104              		.cfi_remember_state
 2105              		.cfi_def_cfa_offset 48
 2106 09d9 5B       		popq	%rbx
 2107              		.cfi_def_cfa_offset 40
 2108 09da 5D       		popq	%rbp
 2109              		.cfi_def_cfa_offset 32
 2110 09db 415C     		popq	%r12
 2111              		.cfi_def_cfa_offset 24
 2112 09dd 415D     		popq	%r13
 2113              		.cfi_def_cfa_offset 16
 2114 09df 415E     		popq	%r14
 2115              		.cfi_def_cfa_offset 8
 2116 09e1 C3       		ret
 2117              		.p2align 4,,10
 2118 09e2 660F1F44 		.p2align 3
 2118      0000
 2119              	.L233:
 2120              		.cfi_restore_state
 2121 09e8 488D5C24 		leaq	112(%rsp), %rbx
 2121      70
 2122 09ed 4889DF   		movq	%rbx, %rdi
 2123 09f0 E8000000 		call	_ZNSt8ios_baseC2Ev
 2123      00
 2124 09f5 31F6     		xorl	%esi, %esi
 2125 09f7 4889DF   		movq	%rbx, %rdi
 2126 09fa 48C78424 		movq	$0, 328(%rsp)
 2126      48010000 
 2126      00000000 
 2127 0a06 C6842450 		movb	$0, 336(%rsp)
 2127      01000000 
 2128 0a0e C6842451 		movb	$0, 337(%rsp)
 2128      01000000 
 2129 0a16 48C78424 		movq	$0, 344(%rsp)
 2129      58010000 
 2129      00000000 
 2130 0a22 48C78424 		movq	$0, 352(%rsp)
 2130      60010000 
 2130      00000000 
 2131 0a2e 48C78424 		movq	$0, 360(%rsp)
 2131      68010000 
 2131      00000000 
 2132 0a3a 48C78424 		movq	$0, 368(%rsp)
 2132      70010000 
 2132      00000000 
 2133 0a46 48C74424 		movq	$_ZTCN8UnitTest15MemoryOutStreamE0_So+24, 16(%rsp)
 2133      10000000 
 2133      00
 2134 0a4f 48C74424 		movq	$_ZTCN8UnitTest15MemoryOutStreamE0_So+64, 112(%rsp)
 2134      70000000 
 2134      00
 2135              	.LEHB0:
 2136 0a58 E8000000 		call	_ZNSt9basic_iosIcSt11char_traitsIcEE4initEPSt15basic_streambufIcS1_E
 2136      00
 2137              	.LEHE0:
 2138 0a5d 488D7C24 		leaq	80(%rsp), %rdi
 2138      50
 2139 0a62 48C74424 		movq	$_ZTCN8UnitTest15MemoryOutStreamE0_St19basic_ostringstreamIcSt11char_traitsIcESaIcEE+24, 16(%
 2139      10000000 
 2139      00
 2140 0a6b 48C74424 		movq	$_ZTCN8UnitTest15MemoryOutStreamE0_St19basic_ostringstreamIcSt11char_traitsIcESaIcEE+64, 112(
 2140      70000000 
 2140      00
 2141 0a74 48C74424 		movq	$_ZTVSt15basic_streambufIcSt11char_traitsIcEE+16, 24(%rsp)
 2141      18000000 
 2141      00
 2142 0a7d 48C74424 		movq	$0, 32(%rsp)
 2142      20000000 
 2142      00
 2143 0a86 48C74424 		movq	$0, 40(%rsp)
 2143      28000000 
 2143      00
 2144 0a8f 48C74424 		movq	$0, 48(%rsp)
 2144      30000000 
 2144      00
 2145 0a98 48C74424 		movq	$0, 56(%rsp)
 2145      38000000 
 2145      00
 2146 0aa1 48C74424 		movq	$0, 64(%rsp)
 2146      40000000 
 2146      00
 2147 0aaa 48C74424 		movq	$0, 72(%rsp)
 2147      48000000 
 2147      00
 2148 0ab3 E8000000 		call	_ZNSt6localeC1Ev
 2148      00
 2149 0ab8 488B4424 		movq	16(%rsp), %rax
 2149      10
 2150 0abd 488D7C24 		leaq	16(%rsp), %rdi
 2150      10
 2151 0ac2 488D7424 		leaq	24(%rsp), %rsi
 2151      18
 2152 0ac7 48C74424 		movq	$_ZTVSt15basic_stringbufIcSt11char_traitsIcESaIcEE+16, 24(%rsp)
 2152      18000000 
 2152      00
 2153 0ad0 C7442458 		movl	$16, 88(%rsp)
 2153      10000000 
 2154 0ad8 48C74424 		movq	$_ZNSs4_Rep20_S_empty_rep_storageE+24, 96(%rsp)
 2154      60000000 
 2154      00
 2155 0ae1 480378E8 		addq	-24(%rax), %rdi
 2156              	.LEHB1:
 2157 0ae5 E8000000 		call	_ZNSt9basic_iosIcSt11char_traitsIcEE4initEPSt15basic_streambufIcS1_E
 2157      00
 2158              	.LEHE1:
 2159 0aea 488D7C24 		leaq	16(%rsp), %rdi
 2159      10
 2160 0aef BA0B0000 		movl	$11, %edx
 2160      00
 2161 0af4 BE000000 		movl	$.LC2, %esi
 2161      00
 2162 0af9 48C74424 		movq	$_ZTVN8UnitTest15MemoryOutStreamE+24, 16(%rsp)
 2162      10000000 
 2162      00
 2163 0b02 48C74424 		movq	$_ZTVN8UnitTest15MemoryOutStreamE+64, 112(%rsp)
 2163      70000000 
 2163      00
 2164 0b0b 48C74424 		movq	$_ZNSs4_Rep20_S_empty_rep_storageE+24, 104(%rsp)
 2164      68000000 
 2164      00
 2165              	.LEHB2:
 2166 0b14 E8000000 		call	_ZSt16__ostream_insertIcSt11char_traitsIcEERSt13basic_ostreamIT_T0_ES6_PKS3_l
 2166      00
 2167 0b19 31DB     		xorl	%ebx, %ebx
 2168 0b1b 0F1F4400 		.p2align 4,,10
 2168      00
 2169              		.p2align 3
 2170              	.L216:
 2171 0b20 418B341E 		movl	(%r14,%rbx), %esi
 2172 0b24 488D7C24 		leaq	16(%rsp), %rdi
 2172      10
 2173 0b29 E8000000 		call	_ZNSolsEi
 2173      00
 2174 0b2e BA010000 		movl	$1, %edx
 2174      00
 2175 0b33 BE000000 		movl	$.LC3, %esi
 2175      00
 2176 0b38 4889C7   		movq	%rax, %rdi
 2177 0b3b E8000000 		call	_ZSt16__ostream_insertIcSt11char_traitsIcEERSt13basic_ostreamIT_T0_ES6_PKS3_l
 2177      00
 2178 0b40 4883C304 		addq	$4, %rbx
 2179 0b44 4883FB10 		cmpq	$16, %rbx
 2180 0b48 75D6     		jne	.L216
 2181 0b4a 488D7C24 		leaq	16(%rsp), %rdi
 2181      10
 2182 0b4f BA0C0000 		movl	$12, %edx
 2182      00
 2183 0b54 BE000000 		movl	$.LC4, %esi
 2183      00
 2184 0b59 E8000000 		call	_ZSt16__ostream_insertIcSt11char_traitsIcEERSt13basic_ostreamIT_T0_ES6_PKS3_l
 2184      00
 2185 0b5e 30DB     		xorb	%bl, %bl
 2186              		.p2align 4,,10
 2187              		.p2align 3
 2188              	.L218:
 2189 0b60 8B741D00 		movl	0(%rbp,%rbx), %esi
 2190 0b64 488D7C24 		leaq	16(%rsp), %rdi
 2190      10
 2191 0b69 E8000000 		call	_ZNSolsEi
 2191      00
 2192 0b6e BA010000 		movl	$1, %edx
 2192      00
 2193 0b73 BE000000 		movl	$.LC3, %esi
 2193      00
 2194 0b78 4889C7   		movq	%rax, %rdi
 2195 0b7b E8000000 		call	_ZSt16__ostream_insertIcSt11char_traitsIcEERSt13basic_ostreamIT_T0_ES6_PKS3_l
 2195      00
 2196 0b80 4883C304 		addq	$4, %rbx
 2197 0b84 4883FB10 		cmpq	$16, %rbx
 2198 0b88 75D6     		jne	.L218
 2199 0b8a 488D7C24 		leaq	16(%rsp), %rdi
 2199      10
 2200 0b8f BA010000 		movl	$1, %edx
 2200      00
 2201 0b94 BE000000 		movl	$.LC5, %esi
 2201      00
 2202 0b99 E8000000 		call	_ZSt16__ostream_insertIcSt11char_traitsIcEERSt13basic_ostreamIT_T0_ES6_PKS3_l
 2202      00
 2203 0b9e 488D7C24 		leaq	16(%rsp), %rdi
 2203      10
 2204 0ba3 E8000000 		call	_ZNK8UnitTest15MemoryOutStream7GetTextEv
 2204      00
 2205 0ba8 4889C2   		movq	%rax, %rdx
 2206 0bab 4C89EE   		movq	%r13, %rsi
 2207 0bae 4C89E7   		movq	%r12, %rdi
 2208 0bb1 E8000000 		call	_ZN8UnitTest11TestResults13OnTestFailureERKNS_11TestDetailsEPKc
 2208      00
 2209              	.LEHE2:
 2210 0bb6 488B4424 		movq	104(%rsp), %rax
 2210      68
 2211 0bbb 48C74424 		movq	$_ZTVN8UnitTest15MemoryOutStreamE+24, 16(%rsp)
 2211      10000000 
 2211      00
 2212 0bc4 48C74424 		movq	$_ZTVN8UnitTest15MemoryOutStreamE+64, 112(%rsp)
 2212      70000000 
 2212      00
 2213 0bcd 488D78E8 		leaq	-24(%rax), %rdi
 2214 0bd1 4881FF00 		cmpq	$_ZNSs4_Rep20_S_empty_rep_storageE, %rdi
 2214      000000
 2215 0bd8 0F85BB00 		jne	.L240
 2215      0000
 2216              	.L220:
 2217 0bde 488B4424 		movq	96(%rsp), %rax
 2217      60
 2218 0be3 48C74424 		movq	$_ZTCN8UnitTest15MemoryOutStreamE0_St19basic_ostringstreamIcSt11char_traitsIcESaIcEE+24, 16(%
 2218      10000000 
 2218      00
 2219 0bec 48C74424 		movq	$_ZTCN8UnitTest15MemoryOutStreamE0_St19basic_ostringstreamIcSt11char_traitsIcESaIcEE+64, 112(
 2219      70000000 
 2219      00
 2220 0bf5 48C74424 		movq	$_ZTVSt15basic_stringbufIcSt11char_traitsIcESaIcEE+16, 24(%rsp)
 2220      18000000 
 2220      00
 2221 0bfe 488D78E8 		leaq	-24(%rax), %rdi
 2222 0c02 4881FF00 		cmpq	$_ZNSs4_Rep20_S_empty_rep_storageE, %rdi
 2222      000000
 2223 0c09 0F85B800 		jne	.L241
 2223      0000
 2224              	.L225:
 2225 0c0f 488D7C24 		leaq	80(%rsp), %rdi
 2225      50
 2226 0c14 48C74424 		movq	$_ZTVSt15basic_streambufIcSt11char_traitsIcEE+16, 24(%rsp)
 2226      18000000 
 2226      00
 2227 0c1d E8000000 		call	_ZNSt6localeD1Ev
 2227      00
 2228 0c22 488D7C24 		leaq	112(%rsp), %rdi
 2228      70
 2229 0c27 48C74424 		movq	$_ZTCN8UnitTest15MemoryOutStreamE0_So+24, 16(%rsp)
 2229      10000000 
 2229      00
 2230 0c30 48C74424 		movq	$_ZTVSt9basic_iosIcSt11char_traitsIcEE+16, 112(%rsp)
 2230      70000000 
 2230      00
 2231              	.LEHB3:
 2232 0c39 E8000000 		call	_ZNSt8ios_baseD2Ev
 2232      00
 2233              	.LEHE3:
 2234 0c3e 4881C480 		addq	$384, %rsp
 2234      010000
 2235              		.cfi_remember_state
 2236              		.cfi_def_cfa_offset 48
 2237 0c45 5B       		popq	%rbx
 2238              		.cfi_def_cfa_offset 40
 2239 0c46 5D       		popq	%rbp
 2240              		.cfi_def_cfa_offset 32
 2241 0c47 415C     		popq	%r12
 2242              		.cfi_def_cfa_offset 24
 2243 0c49 415D     		popq	%r13
 2244              		.cfi_def_cfa_offset 16
 2245 0c4b 415E     		popq	%r14
 2246              		.cfi_def_cfa_offset 8
 2247 0c4d C3       		ret
 2248              	.L231:
 2249              		.cfi_restore_state
 2250 0c4e 4889C3   		movq	%rax, %rbx
 2251              	.L213:
 2252 0c51 488D7C24 		leaq	112(%rsp), %rdi
 2252      70
 2253 0c56 48C74424 		movq	$_ZTVSt9basic_iosIcSt11char_traitsIcEE+16, 112(%rsp)
 2253      70000000 
 2253      00
 2254 0c5f E8000000 		call	_ZNSt8ios_baseD2Ev
 2254      00
 2255 0c64 4889DF   		movq	%rbx, %rdi
 2256              	.LEHB4:
 2257 0c67 E8000000 		call	_Unwind_Resume
 2257      00
 2258              	.LEHE4:
 2259              	.L232:
 2260 0c6c 488D7C24 		leaq	24(%rsp), %rdi
 2260      18
 2261 0c71 4889C3   		movq	%rax, %rbx
 2262 0c74 E8000000 		call	_ZNSt15basic_stringbufIcSt11char_traitsIcESaIcEED1Ev
 2262      00
 2263 0c79 48C74424 		movq	$_ZTCN8UnitTest15MemoryOutStreamE0_So+24, 16(%rsp)
 2263      10000000 
 2263      00
 2264 0c82 EBCD     		jmp	.L213
 2265              	.L230:
 2266 0c84 488D7C24 		leaq	16(%rsp), %rdi
 2266      10
 2267 0c89 4889C3   		movq	%rax, %rbx
 2268 0c8c E8000000 		call	_ZN8UnitTest15MemoryOutStreamD1Ev
 2268      00
 2269 0c91 4889DF   		movq	%rbx, %rdi
 2270              	.LEHB5:
 2271 0c94 E8000000 		call	_Unwind_Resume
 2271      00
 2272              	.LEHE5:
 2273              	.L240:
 2274 0c99 B9000000 		movl	$_ZL28__gthrw___pthread_key_createPjPFvPvE, %ecx
 2274      00
 2275 0c9e 488D5710 		leaq	16(%rdi), %rdx
 2276 0ca2 4885C9   		testq	%rcx, %rcx
 2277 0ca5 744E     		je	.L221
 2278 0ca7 B8FFFFFF 		movl	$-1, %eax
 2278      FF
 2279 0cac F00FC102 		lock xaddl	%eax, (%rdx)
 2280              	.L222:
 2281 0cb0 85C0     		testl	%eax, %eax
 2282 0cb2 0F8F26FF 		jg	.L220
 2282      FFFF
 2283 0cb8 488D7424 		leaq	15(%rsp), %rsi
 2283      0F
 2284 0cbd E8000000 		call	_ZNSs4_Rep10_M_destroyERKSaIcE
 2284      00
 2285 0cc2 E917FFFF 		jmp	.L220
 2285      FF
 2286              	.L241:
 2287 0cc7 B9000000 		movl	$_ZL28__gthrw___pthread_key_createPjPFvPvE, %ecx
 2287      00
 2288 0ccc 488D5710 		leaq	16(%rdi), %rdx
 2289 0cd0 4885C9   		testq	%rcx, %rcx
 2290 0cd3 742D     		je	.L226
 2291 0cd5 B8FFFFFF 		movl	$-1, %eax
 2291      FF
 2292 0cda F00FC102 		lock xaddl	%eax, (%rdx)
 2293              	.L227:
 2294 0cde 85C0     		testl	%eax, %eax
 2295 0ce0 0F8F29FF 		jg	.L225
 2295      FFFF
 2296 0ce6 488D7424 		leaq	15(%rsp), %rsi
 2296      0F
 2297 0ceb E8000000 		call	_ZNSs4_Rep10_M_destroyERKSaIcE
 2297      00
 2298 0cf0 E91AFFFF 		jmp	.L225
 2298      FF
 2299              	.L221:
 2300 0cf5 8B50F8   		movl	-8(%rax), %edx
 2301 0cf8 8D4AFF   		leal	-1(%rdx), %ecx
 2302 0cfb 8948F8   		movl	%ecx, -8(%rax)
 2303 0cfe 89D0     		movl	%edx, %eax
 2304 0d00 EBAE     		jmp	.L222
 2305              	.L226:
 2306 0d02 8B50F8   		movl	-8(%rax), %edx
 2307 0d05 8D4AFF   		leal	-1(%rdx), %ecx
 2308 0d08 8948F8   		movl	%ecx, -8(%rax)
 2309 0d0b 89D0     		movl	%edx, %eax
 2310 0d0d EBCF     		jmp	.L227
 2311              		.cfi_endproc
 2312              	.LFE1619:
 2313              		.globl	__gxx_personality_v0
 2314              		.section	.gcc_except_table,"a",@progbits
 2315              	.LLSDA1619:
 2316 0000 FF       		.byte	0xff
 2317 0001 FF       		.byte	0xff
 2318 0002 01       		.byte	0x1
 2319 0003 22       		.uleb128 .LLSDACSE1619-.LLSDACSB1619
 2320              	.LLSDACSB1619:
 2321 0004 C801     		.uleb128 .LEHB0-.LFB1619
 2322 0006 05       		.uleb128 .LEHE0-.LEHB0
 2323 0007 BE05     		.uleb128 .L231-.LFB1619
 2324 0009 00       		.uleb128 0
 2325 000a D502     		.uleb128 .LEHB1-.LFB1619
 2326 000c 05       		.uleb128 .LEHE1-.LEHB1
 2327 000d DC05     		.uleb128 .L232-.LFB1619
 2328 000f 00       		.uleb128 0
 2329 0010 8403     		.uleb128 .LEHB2-.LFB1619
 2330 0012 A201     		.uleb128 .LEHE2-.LEHB2
 2331 0014 F405     		.uleb128 .L230-.LFB1619
 2332 0016 00       		.uleb128 0
 2333 0017 A905     		.uleb128 .LEHB3-.LFB1619
 2334 0019 05       		.uleb128 .LEHE3-.LEHB3
 2335 001a 00       		.uleb128 0
 2336 001b 00       		.uleb128 0
 2337 001c D705     		.uleb128 .LEHB4-.LFB1619
 2338 001e 05       		.uleb128 .LEHE4-.LEHB4
 2339 001f 00       		.uleb128 0
 2340 0020 00       		.uleb128 0
 2341 0021 8406     		.uleb128 .LEHB5-.LFB1619
 2342 0023 05       		.uleb128 .LEHE5-.LEHB5
 2343 0024 00       		.uleb128 0
 2344 0025 00       		.uleb128 0
 2345              	.LLSDACSE1619:
 2346              		.text
 2348              		.section	.rodata.str1.1
 2349              	.LC6:
 2350 002c 5D202B2F 		.string	"] +/- "
 2350      2D2000
 2351              	.LC7:
 2352 0033 20627574 		.string	" but was [ "
 2352      20776173 
 2352      205B2000 
 2353              		.text
 2354 0d0f 90       		.p2align 4,,15
 2356              	_ZN8UnitTest15CheckArrayCloseIA4_fS1_fEEvRNS_11TestResultsERKT_RKT0_iRKT1_RKNS_11TestDetailsE.const
 2357              	.LFB1616:
 2358              		.cfi_startproc
 2359              		.cfi_personality 0x3,__gxx_personality_v0
 2360              		.cfi_lsda 0x3,.LLSDA1616
 2361 0d10 4157     		pushq	%r15
 2362              		.cfi_def_cfa_offset 16
 2363              		.cfi_offset 15, -16
 2364 0d12 31C0     		xorl	%eax, %eax
 2365 0d14 4989CF   		movq	%rcx, %r15
 2366 0d17 4156     		pushq	%r14
 2367              		.cfi_def_cfa_offset 24
 2368              		.cfi_offset 14, -24
 2369 0d19 4989F6   		movq	%rsi, %r14
 2370 0d1c 4155     		pushq	%r13
 2371              		.cfi_def_cfa_offset 32
 2372              		.cfi_offset 13, -32
 2373 0d1e 4D89C5   		movq	%r8, %r13
 2374 0d21 4154     		pushq	%r12
 2375              		.cfi_def_cfa_offset 40
 2376              		.cfi_offset 12, -40
 2377 0d23 4989FC   		movq	%rdi, %r12
 2378 0d26 55       		pushq	%rbp
 2379              		.cfi_def_cfa_offset 48
 2380              		.cfi_offset 6, -48
 2381 0d27 4889D5   		movq	%rdx, %rbp
 2382 0d2a 53       		pushq	%rbx
 2383              		.cfi_def_cfa_offset 56
 2384              		.cfi_offset 3, -56
 2385 0d2b 4881EC98 		subq	$408, %rsp
 2385      010000
 2386              		.cfi_def_cfa_offset 464
 2387 0d32 F30F1016 		movss	(%rsi), %xmm2
 2388 0d36 0F28DA   		movaps	%xmm2, %xmm3
 2389 0d39 F30F1001 		movss	(%rcx), %xmm0
 2390 0d3d F30F100A 		movss	(%rdx), %xmm1
 2391 0d41 F30F5CD8 		subss	%xmm0, %xmm3
 2392 0d45 0F2ECB   		ucomiss	%xmm3, %xmm1
 2393 0d48 720A     		jb	.L243
 2394 0d4a F30F58D0 		addss	%xmm0, %xmm2
 2395 0d4e 0F2ED1   		ucomiss	%xmm1, %xmm2
 2396 0d51 0F93C0   		setnb	%al
 2397              	.L243:
 2398 0d54 F3410F10 		movss	4(%r14), %xmm2
 2398      5604
 2399 0d5a 0F28DA   		movaps	%xmm2, %xmm3
 2400 0d5d F30F104D 		movss	4(%rbp), %xmm1
 2400      04
 2401 0d62 F30F5CD8 		subss	%xmm0, %xmm3
 2402 0d66 0F2ECB   		ucomiss	%xmm3, %xmm1
 2403 0d69 0F824103 		jb	.L288
 2403      0000
 2404 0d6f F30F58D0 		addss	%xmm0, %xmm2
 2405 0d73 BA000000 		movl	$0, %edx
 2405      00
 2406 0d78 0F2ED1   		ucomiss	%xmm1, %xmm2
 2407 0d7b 0F42C2   		cmovb	%edx, %eax
 2408              	.L245:
 2409 0d7e F3410F10 		movss	8(%r14), %xmm2
 2409      5608
 2410 0d84 0F28DA   		movaps	%xmm2, %xmm3
 2411 0d87 F30F104D 		movss	8(%rbp), %xmm1
 2411      08
 2412 0d8c F30F5CD8 		subss	%xmm0, %xmm3
 2413 0d90 0F2ECB   		ucomiss	%xmm3, %xmm1
 2414 0d93 0F820703 		jb	.L289
 2414      0000
 2415 0d99 F30F58D0 		addss	%xmm0, %xmm2
 2416 0d9d BA000000 		movl	$0, %edx
 2416      00
 2417 0da2 0F2ED1   		ucomiss	%xmm1, %xmm2
 2418 0da5 0F42C2   		cmovb	%edx, %eax
 2419              	.L248:
 2420 0da8 F3410F10 		movss	12(%r14), %xmm2
 2420      560C
 2421 0dae 0F28DA   		movaps	%xmm2, %xmm3
 2422 0db1 F30F104D 		movss	12(%rbp), %xmm1
 2422      0C
 2423 0db6 F30F5CD8 		subss	%xmm0, %xmm3
 2424 0dba 0F2ECB   		ucomiss	%xmm3, %xmm1
 2425 0dbd 0F83C502 		jnb	.L293
 2425      0000
 2426              	.L251:
 2427 0dc3 488D9C24 		leaq	128(%rsp), %rbx
 2427      80000000 
 2428 0dcb 4889DF   		movq	%rbx, %rdi
 2429 0dce E8000000 		call	_ZNSt8ios_baseC2Ev
 2429      00
 2430 0dd3 31F6     		xorl	%esi, %esi
 2431 0dd5 4889DF   		movq	%rbx, %rdi
 2432 0dd8 48C78424 		movq	$0, 344(%rsp)
 2432      58010000 
 2432      00000000 
 2433 0de4 C6842460 		movb	$0, 352(%rsp)
 2433      01000000 
 2434 0dec C6842461 		movb	$0, 353(%rsp)
 2434      01000000 
 2435 0df4 48C78424 		movq	$0, 360(%rsp)
 2435      68010000 
 2435      00000000 
 2436 0e00 48C78424 		movq	$0, 368(%rsp)
 2436      70010000 
 2436      00000000 
 2437 0e0c 48C78424 		movq	$0, 376(%rsp)
 2437      78010000 
 2437      00000000 
 2438 0e18 48C78424 		movq	$0, 384(%rsp)
 2438      80010000 
 2438      00000000 
 2439 0e24 48C74424 		movq	$_ZTCN8UnitTest15MemoryOutStreamE0_So+24, 32(%rsp)
 2439      20000000 
 2439      00
 2440 0e2d 48C78424 		movq	$_ZTCN8UnitTest15MemoryOutStreamE0_So+64, 128(%rsp)
 2440      80000000 
 2440      00000000 
 2441              	.LEHB6:
 2442 0e39 E8000000 		call	_ZNSt9basic_iosIcSt11char_traitsIcEE4initEPSt15basic_streambufIcS1_E
 2442      00
 2443              	.LEHE6:
 2444 0e3e 488D7C24 		leaq	96(%rsp), %rdi
 2444      60
 2445 0e43 48C74424 		movq	$_ZTCN8UnitTest15MemoryOutStreamE0_St19basic_ostringstreamIcSt11char_traitsIcESaIcEE+24, 32(%
 2445      20000000 
 2445      00
 2446 0e4c 48C78424 		movq	$_ZTCN8UnitTest15MemoryOutStreamE0_St19basic_ostringstreamIcSt11char_traitsIcESaIcEE+64, 128(
 2446      80000000 
 2446      00000000 
 2447 0e58 48C74424 		movq	$_ZTVSt15basic_streambufIcSt11char_traitsIcEE+16, 40(%rsp)
 2447      28000000 
 2447      00
 2448 0e61 48C74424 		movq	$0, 48(%rsp)
 2448      30000000 
 2448      00
 2449 0e6a 48C74424 		movq	$0, 56(%rsp)
 2449      38000000 
 2449      00
 2450 0e73 48C74424 		movq	$0, 64(%rsp)
 2450      40000000 
 2450      00
 2451 0e7c 48C74424 		movq	$0, 72(%rsp)
 2451      48000000 
 2451      00
 2452 0e85 48C74424 		movq	$0, 80(%rsp)
 2452      50000000 
 2452      00
 2453 0e8e 48C74424 		movq	$0, 88(%rsp)
 2453      58000000 
 2453      00
 2454 0e97 E8000000 		call	_ZNSt6localeC1Ev
 2454      00
 2455 0e9c 488B4424 		movq	32(%rsp), %rax
 2455      20
 2456 0ea1 488D7C24 		leaq	32(%rsp), %rdi
 2456      20
 2457 0ea6 488D7424 		leaq	40(%rsp), %rsi
 2457      28
 2458 0eab 48C74424 		movq	$_ZTVSt15basic_stringbufIcSt11char_traitsIcESaIcEE+16, 40(%rsp)
 2458      28000000 
 2458      00
 2459 0eb4 C7442468 		movl	$16, 104(%rsp)
 2459      10000000 
 2460 0ebc 48C74424 		movq	$_ZNSs4_Rep20_S_empty_rep_storageE+24, 112(%rsp)
 2460      70000000 
 2460      00
 2461 0ec5 480378E8 		addq	-24(%rax), %rdi
 2462              	.LEHB7:
 2463 0ec9 E8000000 		call	_ZNSt9basic_iosIcSt11char_traitsIcEE4initEPSt15basic_streambufIcS1_E
 2463      00
 2464              	.LEHE7:
 2465 0ece 488D7C24 		leaq	32(%rsp), %rdi
 2465      20
 2466 0ed3 BA0B0000 		movl	$11, %edx
 2466      00
 2467 0ed8 BE000000 		movl	$.LC2, %esi
 2467      00
 2468 0edd 48C74424 		movq	$_ZTVN8UnitTest15MemoryOutStreamE+24, 32(%rsp)
 2468      20000000 
 2468      00
 2469 0ee6 48C78424 		movq	$_ZTVN8UnitTest15MemoryOutStreamE+64, 128(%rsp)
 2469      80000000 
 2469      00000000 
 2470 0ef2 48C74424 		movq	$_ZNSs4_Rep20_S_empty_rep_storageE+24, 120(%rsp)
 2470      78000000 
 2470      00
 2471              	.LEHB8:
 2472 0efb E8000000 		call	_ZSt16__ostream_insertIcSt11char_traitsIcEERSt13basic_ostreamIT_T0_ES6_PKS3_l
 2472      00
 2473 0f00 31DB     		xorl	%ebx, %ebx
 2474              		.p2align 4,,10
 2475 0f02 660F1F44 		.p2align 3
 2475      0000
 2476              	.L260:
 2477 0f08 F3410F10 		movss	(%r14,%rbx), %xmm0
 2477      041E
 2478 0f0e 488D7C24 		leaq	32(%rsp), %rdi
 2478      20
 2479 0f13 0F5AC0   		cvtps2pd	%xmm0, %xmm0
 2480 0f16 E8000000 		call	_ZNSo9_M_insertIdEERSoT_
 2480      00
 2481 0f1b BA010000 		movl	$1, %edx
 2481      00
 2482 0f20 BE000000 		movl	$.LC3, %esi
 2482      00
 2483 0f25 4889C7   		movq	%rax, %rdi
 2484 0f28 E8000000 		call	_ZSt16__ostream_insertIcSt11char_traitsIcEERSt13basic_ostreamIT_T0_ES6_PKS3_l
 2484      00
 2485 0f2d 4883C304 		addq	$4, %rbx
 2486 0f31 4883FB10 		cmpq	$16, %rbx
 2487 0f35 75D1     		jne	.L260
 2488 0f37 488D7C24 		leaq	32(%rsp), %rdi
 2488      20
 2489 0f3c F3410F10 		movss	(%r15), %xmm4
 2489      27
 2490 0f41 BA060000 		movl	$6, %edx
 2490      00
 2491 0f46 BE000000 		movl	$.LC6, %esi
 2491      00
 2492 0f4b F30F1164 		movss	%xmm4, 12(%rsp)
 2492      240C
 2493 0f51 E8000000 		call	_ZSt16__ostream_insertIcSt11char_traitsIcEERSt13basic_ostreamIT_T0_ES6_PKS3_l
 2493      00
 2494 0f56 F30F1044 		movss	12(%rsp), %xmm0
 2494      240C
 2495 0f5c 488D7C24 		leaq	32(%rsp), %rdi
 2495      20
 2496 0f61 0F5AC0   		cvtps2pd	%xmm0, %xmm0
 2497 0f64 E8000000 		call	_ZNSo9_M_insertIdEERSoT_
 2497      00
 2498 0f69 BA0B0000 		movl	$11, %edx
 2498      00
 2499 0f6e BE000000 		movl	$.LC7, %esi
 2499      00
 2500 0f73 4889C7   		movq	%rax, %rdi
 2501 0f76 E8000000 		call	_ZSt16__ostream_insertIcSt11char_traitsIcEERSt13basic_ostreamIT_T0_ES6_PKS3_l
 2501      00
 2502 0f7b 30DB     		xorb	%bl, %bl
 2503 0f7d 0F1F00   		.p2align 4,,10
 2504              		.p2align 3
 2505              	.L262:
 2506 0f80 F30F1044 		movss	0(%rbp,%rbx), %xmm0
 2506      1D00
 2507 0f86 488D7C24 		leaq	32(%rsp), %rdi
 2507      20
 2508 0f8b 0F5AC0   		cvtps2pd	%xmm0, %xmm0
 2509 0f8e E8000000 		call	_ZNSo9_M_insertIdEERSoT_
 2509      00
 2510 0f93 BA010000 		movl	$1, %edx
 2510      00
 2511 0f98 BE000000 		movl	$.LC3, %esi
 2511      00
 2512 0f9d 4889C7   		movq	%rax, %rdi
 2513 0fa0 E8000000 		call	_ZSt16__ostream_insertIcSt11char_traitsIcEERSt13basic_ostreamIT_T0_ES6_PKS3_l
 2513      00
 2514 0fa5 4883C304 		addq	$4, %rbx
 2515 0fa9 4883FB10 		cmpq	$16, %rbx
 2516 0fad 75D1     		jne	.L262
 2517 0faf 488D7C24 		leaq	32(%rsp), %rdi
 2517      20
 2518 0fb4 BA010000 		movl	$1, %edx
 2518      00
 2519 0fb9 BE000000 		movl	$.LC5, %esi
 2519      00
 2520 0fbe E8000000 		call	_ZSt16__ostream_insertIcSt11char_traitsIcEERSt13basic_ostreamIT_T0_ES6_PKS3_l
 2520      00
 2521 0fc3 488D7C24 		leaq	32(%rsp), %rdi
 2521      20
 2522 0fc8 E8000000 		call	_ZNK8UnitTest15MemoryOutStream7GetTextEv
 2522      00
 2523 0fcd 4889C2   		movq	%rax, %rdx
 2524 0fd0 4C89EE   		movq	%r13, %rsi
 2525 0fd3 4C89E7   		movq	%r12, %rdi
 2526 0fd6 E8000000 		call	_ZN8UnitTest11TestResults13OnTestFailureERKNS_11TestDetailsEPKc
 2526      00
 2527              	.LEHE8:
 2528 0fdb 488B4424 		movq	120(%rsp), %rax
 2528      78
 2529 0fe0 48C74424 		movq	$_ZTVN8UnitTest15MemoryOutStreamE+24, 32(%rsp)
 2529      20000000 
 2529      00
 2530 0fe9 48C78424 		movq	$_ZTVN8UnitTest15MemoryOutStreamE+64, 128(%rsp)
 2530      80000000 
 2530      00000000 
 2531 0ff5 488D78E8 		leaq	-24(%rax), %rdi
 2532 0ff9 4881FF00 		cmpq	$_ZNSs4_Rep20_S_empty_rep_storageE, %rdi
 2532      000000
 2533 1000 0F85B100 		jne	.L294
 2533      0000
 2534              	.L264:
 2535 1006 488B4424 		movq	112(%rsp), %rax
 2535      70
 2536 100b 48C74424 		movq	$_ZTCN8UnitTest15MemoryOutStreamE0_St19basic_ostringstreamIcSt11char_traitsIcESaIcEE+24, 32(%
 2536      20000000 
 2536      00
 2537 1014 48C78424 		movq	$_ZTCN8UnitTest15MemoryOutStreamE0_St19basic_ostringstreamIcSt11char_traitsIcESaIcEE+64, 128(
 2537      80000000 
 2537      00000000 
 2538 1020 48C74424 		movq	$_ZTVSt15basic_stringbufIcSt11char_traitsIcESaIcEE+16, 40(%rsp)
 2538      28000000 
 2538      00
 2539 1029 488D78E8 		leaq	-24(%rax), %rdi
 2540 102d 4881FF00 		cmpq	$_ZNSs4_Rep20_S_empty_rep_storageE, %rdi
 2540      000000
 2541 1034 0F85AF00 		jne	.L295
 2541      0000
 2542              	.L269:
 2543 103a 488D7C24 		leaq	96(%rsp), %rdi
 2543      60
 2544 103f 48C74424 		movq	$_ZTVSt15basic_streambufIcSt11char_traitsIcEE+16, 40(%rsp)
 2544      28000000 
 2544      00
 2545 1048 E8000000 		call	_ZNSt6localeD1Ev
 2545      00
 2546 104d 488DBC24 		leaq	128(%rsp), %rdi
 2546      80000000 
 2547 1055 48C74424 		movq	$_ZTCN8UnitTest15MemoryOutStreamE0_So+24, 32(%rsp)
 2547      20000000 
 2547      00
 2548 105e 48C78424 		movq	$_ZTVSt9basic_iosIcSt11char_traitsIcEE+16, 128(%rsp)
 2548      80000000 
 2548      00000000 
 2549              	.LEHB9:
 2550 106a E8000000 		call	_ZNSt8ios_baseD2Ev
 2550      00
 2551              	.LEHE9:
 2552              	.L242:
 2553 106f 4881C498 		addq	$408, %rsp
 2553      010000
 2554              		.cfi_remember_state
 2555              		.cfi_def_cfa_offset 56
 2556 1076 5B       		popq	%rbx
 2557              		.cfi_def_cfa_offset 48
 2558 1077 5D       		popq	%rbp
 2559              		.cfi_def_cfa_offset 40
 2560 1078 415C     		popq	%r12
 2561              		.cfi_def_cfa_offset 32
 2562 107a 415D     		popq	%r13
 2563              		.cfi_def_cfa_offset 24
 2564 107c 415E     		popq	%r14
 2565              		.cfi_def_cfa_offset 16
 2566 107e 415F     		popq	%r15
 2567              		.cfi_def_cfa_offset 8
 2568 1080 C3       		ret
 2569              		.p2align 4,,10
 2570 1081 0F1F8000 		.p2align 3
 2570      000000
 2571              	.L293:
 2572              		.cfi_restore_state
 2573 1088 F30F58C2 		addss	%xmm2, %xmm0
 2574 108c 0F2EC1   		ucomiss	%xmm1, %xmm0
 2575 108f 0F822EFD 		jb	.L251
 2575      FFFF
 2576 1095 84C0     		testb	%al, %al
 2577 1097 75D6     		jne	.L242
 2578              		.p2align 4,,2
 2579 1099 E925FDFF 		jmp	.L251
 2579      FF
 2580 109e 6690     		.p2align 4,,10
 2581              		.p2align 3
 2582              	.L289:
 2583 10a0 31C0     		xorl	%eax, %eax
 2584 10a2 E901FDFF 		jmp	.L248
 2584      FF
 2585 10a7 660F1F84 		.p2align 4,,10
 2585      00000000 
 2585      00
 2586              		.p2align 3
 2587              	.L288:
 2588 10b0 31C0     		xorl	%eax, %eax
 2589 10b2 E9C7FCFF 		jmp	.L245
 2589      FF
 2590              	.L294:
 2591 10b7 B9000000 		movl	$_ZL28__gthrw___pthread_key_createPjPFvPvE, %ecx
 2591      00
 2592 10bc 488D5710 		leaq	16(%rdi), %rdx
 2593 10c0 4885C9   		testq	%rcx, %rcx
 2594 10c3 0F848B00 		je	.L265
 2594      0000
 2595 10c9 B8FFFFFF 		movl	$-1, %eax
 2595      FF
 2596 10ce F00FC102 		lock xaddl	%eax, (%rdx)
 2597              	.L266:
 2598 10d2 85C0     		testl	%eax, %eax
 2599 10d4 0F8F2CFF 		jg	.L264
 2599      FFFF
 2600 10da 488D7424 		leaq	31(%rsp), %rsi
 2600      1F
 2601 10df E8000000 		call	_ZNSs4_Rep10_M_destroyERKSaIcE
 2601      00
 2602 10e4 E91DFFFF 		jmp	.L264
 2602      FF
 2603              	.L295:
 2604 10e9 B9000000 		movl	$_ZL28__gthrw___pthread_key_createPjPFvPvE, %ecx
 2604      00
 2605 10ee 488D5710 		leaq	16(%rdi), %rdx
 2606 10f2 4885C9   		testq	%rcx, %rcx
 2607 10f5 0F848100 		je	.L270
 2607      0000
 2608 10fb B8FFFFFF 		movl	$-1, %eax
 2608      FF
 2609 1100 F00FC102 		lock xaddl	%eax, (%rdx)
 2610              	.L271:
 2611 1104 85C0     		testl	%eax, %eax
 2612 1106 0F8F2EFF 		jg	.L269
 2612      FFFF
 2613 110c 488D7424 		leaq	31(%rsp), %rsi
 2613      1F
 2614 1111 E8000000 		call	_ZNSs4_Rep10_M_destroyERKSaIcE
 2614      00
 2615 1116 E91FFFFF 		jmp	.L269
 2615      FF
 2616              	.L279:
 2617 111b 488D7C24 		leaq	32(%rsp), %rdi
 2617      20
 2618 1120 4889C3   		movq	%rax, %rbx
 2619 1123 E8000000 		call	_ZN8UnitTest15MemoryOutStreamD1Ev
 2619      00
 2620 1128 4889DF   		movq	%rbx, %rdi
 2621              	.LEHB10:
 2622 112b E8000000 		call	_Unwind_Resume
 2622      00
 2623              	.LEHE10:
 2624              	.L280:
 2625 1130 4889C3   		movq	%rax, %rbx
 2626              	.L257:
 2627 1133 488DBC24 		leaq	128(%rsp), %rdi
 2627      80000000 
 2628 113b 48C78424 		movq	$_ZTVSt9basic_iosIcSt11char_traitsIcEE+16, 128(%rsp)
 2628      80000000 
 2628      00000000 
 2629 1147 E8000000 		call	_ZNSt8ios_baseD2Ev
 2629      00
 2630 114c 4889DF   		movq	%rbx, %rdi
 2631              	.LEHB11:
 2632 114f E8000000 		call	_Unwind_Resume
 2632      00
 2633              	.LEHE11:
 2634              	.L265:
 2635 1154 8B50F8   		movl	-8(%rax), %edx
 2636 1157 8D4AFF   		leal	-1(%rdx), %ecx
 2637 115a 8948F8   		movl	%ecx, -8(%rax)
 2638 115d 89D0     		movl	%edx, %eax
 2639 115f E96EFFFF 		jmp	.L266
 2639      FF
 2640              	.L281:
 2641 1164 488D7C24 		leaq	40(%rsp), %rdi
 2641      28
 2642 1169 4889C3   		movq	%rax, %rbx
 2643 116c E8000000 		call	_ZNSt15basic_stringbufIcSt11char_traitsIcESaIcEED1Ev
 2643      00
 2644 1171 48C74424 		movq	$_ZTCN8UnitTest15MemoryOutStreamE0_So+24, 32(%rsp)
 2644      20000000 
 2644      00
 2645 117a EBB7     		jmp	.L257
 2646              	.L270:
 2647 117c 8B50F8   		movl	-8(%rax), %edx
 2648 117f 8D4AFF   		leal	-1(%rdx), %ecx
 2649 1182 8948F8   		movl	%ecx, -8(%rax)
 2650 1185 89D0     		movl	%edx, %eax
 2651 1187 E978FFFF 		jmp	.L271
 2651      FF
 2652              		.cfi_endproc
 2653              	.LFE1616:
 2654              		.section	.gcc_except_table
 2655              	.LLSDA1616:
 2656 0026 FF       		.byte	0xff
 2657 0027 FF       		.byte	0xff
 2658 0028 01       		.byte	0x1
 2659 0029 22       		.uleb128 .LLSDACSE1616-.LLSDACSB1616
 2660              	.LLSDACSB1616:
 2661 002a A902     		.uleb128 .LEHB6-.LFB1616
 2662 002c 05       		.uleb128 .LEHE6-.LEHB6
 2663 002d A008     		.uleb128 .L280-.LFB1616
 2664 002f 00       		.uleb128 0
 2665 0030 B903     		.uleb128 .LEHB7-.LFB1616
 2666 0032 05       		.uleb128 .LEHE7-.LEHB7
 2667 0033 D408     		.uleb128 .L281-.LFB1616
 2668 0035 00       		.uleb128 0
 2669 0036 EB03     		.uleb128 .LEHB8-.LFB1616
 2670 0038 E001     		.uleb128 .LEHE8-.LEHB8
 2671 003a 8B08     		.uleb128 .L279-.LFB1616
 2672 003c 00       		.uleb128 0
 2673 003d DA06     		.uleb128 .LEHB9-.LFB1616
 2674 003f 05       		.uleb128 .LEHE9-.LEHB9
 2675 0040 00       		.uleb128 0
 2676 0041 00       		.uleb128 0
 2677 0042 9B08     		.uleb128 .LEHB10-.LFB1616
 2678 0044 05       		.uleb128 .LEHE10-.LEHB10
 2679 0045 00       		.uleb128 0
 2680 0046 00       		.uleb128 0
 2681 0047 BF08     		.uleb128 .LEHB11-.LFB1616
 2682 0049 05       		.uleb128 .LEHE11-.LEHB11
 2683 004a 00       		.uleb128 0
 2684 004b 00       		.uleb128 0
 2685              	.LLSDACSE1616:
 2686              		.text
 2688 118c 0F1F4000 		.p2align 4,,15
 2690              	_ZN8UnitTest15CheckArrayCloseIA4_iS1_fEEvRNS_11TestResultsERKT_RKT0_iRKT1_RKNS_11TestDetailsE.const
 2691              	.LFB1617:
 2692              		.cfi_startproc
 2693              		.cfi_personality 0x3,__gxx_personality_v0
 2694              		.cfi_lsda 0x3,.LLSDA1617
 2695 1190 4157     		pushq	%r15
 2696              		.cfi_def_cfa_offset 16
 2697              		.cfi_offset 15, -16
 2698 1192 31C0     		xorl	%eax, %eax
 2699 1194 4989CF   		movq	%rcx, %r15
 2700 1197 4156     		pushq	%r14
 2701              		.cfi_def_cfa_offset 24
 2702              		.cfi_offset 14, -24
 2703 1199 4989F6   		movq	%rsi, %r14
 2704 119c 4155     		pushq	%r13
 2705              		.cfi_def_cfa_offset 32
 2706              		.cfi_offset 13, -32
 2707 119e 4D89C5   		movq	%r8, %r13
 2708 11a1 4154     		pushq	%r12
 2709              		.cfi_def_cfa_offset 40
 2710              		.cfi_offset 12, -40
 2711 11a3 4989FC   		movq	%rdi, %r12
 2712 11a6 55       		pushq	%rbp
 2713              		.cfi_def_cfa_offset 48
 2714              		.cfi_offset 6, -48
 2715 11a7 4889D5   		movq	%rdx, %rbp
 2716 11aa 53       		pushq	%rbx
 2717              		.cfi_def_cfa_offset 56
 2718              		.cfi_offset 3, -56
 2719 11ab 4881EC98 		subq	$408, %rsp
 2719      010000
 2720              		.cfi_def_cfa_offset 464
 2721 11b2 F30F2A16 		cvtsi2ss	(%rsi), %xmm2
 2722 11b6 0F28DA   		movaps	%xmm2, %xmm3
 2723 11b9 F30F1001 		movss	(%rcx), %xmm0
 2724 11bd F30F2A0A 		cvtsi2ss	(%rdx), %xmm1
 2725 11c1 F30F5CD8 		subss	%xmm0, %xmm3
 2726 11c5 0F2ECB   		ucomiss	%xmm3, %xmm1
 2727 11c8 720A     		jb	.L297
 2728 11ca F30F58D0 		addss	%xmm0, %xmm2
 2729 11ce 0F2ED1   		ucomiss	%xmm1, %xmm2
 2730 11d1 0F93C0   		setnb	%al
 2731              	.L297:
 2732 11d4 F3410F2A 		cvtsi2ss	4(%r14), %xmm2
 2732      5604
 2733 11da 0F28DA   		movaps	%xmm2, %xmm3
 2734 11dd F30F2A4D 		cvtsi2ss	4(%rbp), %xmm1
 2734      04
 2735 11e2 F30F5CD8 		subss	%xmm0, %xmm3
 2736 11e6 0F2ECB   		ucomiss	%xmm3, %xmm1
 2737 11e9 0F824103 		jb	.L342
 2737      0000
 2738 11ef F30F58D0 		addss	%xmm0, %xmm2
 2739 11f3 BA000000 		movl	$0, %edx
 2739      00
 2740 11f8 0F2ED1   		ucomiss	%xmm1, %xmm2
 2741 11fb 0F42C2   		cmovb	%edx, %eax
 2742              	.L299:
 2743 11fe F3410F2A 		cvtsi2ss	8(%r14), %xmm2
 2743      5608
 2744 1204 0F28DA   		movaps	%xmm2, %xmm3
 2745 1207 F30F2A4D 		cvtsi2ss	8(%rbp), %xmm1
 2745      08
 2746 120c F30F5CD8 		subss	%xmm0, %xmm3
 2747 1210 0F2ECB   		ucomiss	%xmm3, %xmm1
 2748 1213 0F820703 		jb	.L343
 2748      0000
 2749 1219 F30F58D0 		addss	%xmm0, %xmm2
 2750 121d BA000000 		movl	$0, %edx
 2750      00
 2751 1222 0F2ED1   		ucomiss	%xmm1, %xmm2
 2752 1225 0F42C2   		cmovb	%edx, %eax
 2753              	.L302:
 2754 1228 F3410F2A 		cvtsi2ss	12(%r14), %xmm2
 2754      560C
 2755 122e 0F28DA   		movaps	%xmm2, %xmm3
 2756 1231 F30F2A4D 		cvtsi2ss	12(%rbp), %xmm1
 2756      0C
 2757 1236 F30F5CD8 		subss	%xmm0, %xmm3
 2758 123a 0F2ECB   		ucomiss	%xmm3, %xmm1
 2759 123d 0F83BD02 		jnb	.L347
 2759      0000
 2760              	.L305:
 2761 1243 488D9C24 		leaq	128(%rsp), %rbx
 2761      80000000 
 2762 124b 4889DF   		movq	%rbx, %rdi
 2763 124e E8000000 		call	_ZNSt8ios_baseC2Ev
 2763      00
 2764 1253 31F6     		xorl	%esi, %esi
 2765 1255 4889DF   		movq	%rbx, %rdi
 2766 1258 48C78424 		movq	$0, 344(%rsp)
 2766      58010000 
 2766      00000000 
 2767 1264 C6842460 		movb	$0, 352(%rsp)
 2767      01000000 
 2768 126c C6842461 		movb	$0, 353(%rsp)
 2768      01000000 
 2769 1274 48C78424 		movq	$0, 360(%rsp)
 2769      68010000 
 2769      00000000 
 2770 1280 48C78424 		movq	$0, 368(%rsp)
 2770      70010000 
 2770      00000000 
 2771 128c 48C78424 		movq	$0, 376(%rsp)
 2771      78010000 
 2771      00000000 
 2772 1298 48C78424 		movq	$0, 384(%rsp)
 2772      80010000 
 2772      00000000 
 2773 12a4 48C74424 		movq	$_ZTCN8UnitTest15MemoryOutStreamE0_So+24, 32(%rsp)
 2773      20000000 
 2773      00
 2774 12ad 48C78424 		movq	$_ZTCN8UnitTest15MemoryOutStreamE0_So+64, 128(%rsp)
 2774      80000000 
 2774      00000000 
 2775              	.LEHB12:
 2776 12b9 E8000000 		call	_ZNSt9basic_iosIcSt11char_traitsIcEE4initEPSt15basic_streambufIcS1_E
 2776      00
 2777              	.LEHE12:
 2778 12be 488D7C24 		leaq	96(%rsp), %rdi
 2778      60
 2779 12c3 48C74424 		movq	$_ZTCN8UnitTest15MemoryOutStreamE0_St19basic_ostringstreamIcSt11char_traitsIcESaIcEE+24, 32(%
 2779      20000000 
 2779      00
 2780 12cc 48C78424 		movq	$_ZTCN8UnitTest15MemoryOutStreamE0_St19basic_ostringstreamIcSt11char_traitsIcESaIcEE+64, 128(
 2780      80000000 
 2780      00000000 
 2781 12d8 48C74424 		movq	$_ZTVSt15basic_streambufIcSt11char_traitsIcEE+16, 40(%rsp)
 2781      28000000 
 2781      00
 2782 12e1 48C74424 		movq	$0, 48(%rsp)
 2782      30000000 
 2782      00
 2783 12ea 48C74424 		movq	$0, 56(%rsp)
 2783      38000000 
 2783      00
 2784 12f3 48C74424 		movq	$0, 64(%rsp)
 2784      40000000 
 2784      00
 2785 12fc 48C74424 		movq	$0, 72(%rsp)
 2785      48000000 
 2785      00
 2786 1305 48C74424 		movq	$0, 80(%rsp)
 2786      50000000 
 2786      00
 2787 130e 48C74424 		movq	$0, 88(%rsp)
 2787      58000000 
 2787      00
 2788 1317 E8000000 		call	_ZNSt6localeC1Ev
 2788      00
 2789 131c 488B4424 		movq	32(%rsp), %rax
 2789      20
 2790 1321 488D7C24 		leaq	32(%rsp), %rdi
 2790      20
 2791 1326 488D7424 		leaq	40(%rsp), %rsi
 2791      28
 2792 132b 48C74424 		movq	$_ZTVSt15basic_stringbufIcSt11char_traitsIcESaIcEE+16, 40(%rsp)
 2792      28000000 
 2792      00
 2793 1334 C7442468 		movl	$16, 104(%rsp)
 2793      10000000 
 2794 133c 48C74424 		movq	$_ZNSs4_Rep20_S_empty_rep_storageE+24, 112(%rsp)
 2794      70000000 
 2794      00
 2795 1345 480378E8 		addq	-24(%rax), %rdi
 2796              	.LEHB13:
 2797 1349 E8000000 		call	_ZNSt9basic_iosIcSt11char_traitsIcEE4initEPSt15basic_streambufIcS1_E
 2797      00
 2798              	.LEHE13:
 2799 134e 488D7C24 		leaq	32(%rsp), %rdi
 2799      20
 2800 1353 BA0B0000 		movl	$11, %edx
 2800      00
 2801 1358 BE000000 		movl	$.LC2, %esi
 2801      00
 2802 135d 48C74424 		movq	$_ZTVN8UnitTest15MemoryOutStreamE+24, 32(%rsp)
 2802      20000000 
 2802      00
 2803 1366 48C78424 		movq	$_ZTVN8UnitTest15MemoryOutStreamE+64, 128(%rsp)
 2803      80000000 
 2803      00000000 
 2804 1372 48C74424 		movq	$_ZNSs4_Rep20_S_empty_rep_storageE+24, 120(%rsp)
 2804      78000000 
 2804      00
 2805              	.LEHB14:
 2806 137b E8000000 		call	_ZSt16__ostream_insertIcSt11char_traitsIcEERSt13basic_ostreamIT_T0_ES6_PKS3_l
 2806      00
 2807 1380 31DB     		xorl	%ebx, %ebx
 2808              		.p2align 4,,10
 2809 1382 660F1F44 		.p2align 3
 2809      0000
 2810              	.L314:
 2811 1388 418B341E 		movl	(%r14,%rbx), %esi
 2812 138c 488D7C24 		leaq	32(%rsp), %rdi
 2812      20
 2813 1391 E8000000 		call	_ZNSolsEi
 2813      00
 2814 1396 BA010000 		movl	$1, %edx
 2814      00
 2815 139b BE000000 		movl	$.LC3, %esi
 2815      00
 2816 13a0 4889C7   		movq	%rax, %rdi
 2817 13a3 E8000000 		call	_ZSt16__ostream_insertIcSt11char_traitsIcEERSt13basic_ostreamIT_T0_ES6_PKS3_l
 2817      00
 2818 13a8 4883C304 		addq	$4, %rbx
 2819 13ac 4883FB10 		cmpq	$16, %rbx
 2820 13b0 75D6     		jne	.L314
 2821 13b2 488D7C24 		leaq	32(%rsp), %rdi
 2821      20
 2822 13b7 F3410F10 		movss	(%r15), %xmm4
 2822      27
 2823 13bc BA060000 		movl	$6, %edx
 2823      00
 2824 13c1 BE000000 		movl	$.LC6, %esi
 2824      00
 2825 13c6 F30F1164 		movss	%xmm4, 12(%rsp)
 2825      240C
 2826 13cc E8000000 		call	_ZSt16__ostream_insertIcSt11char_traitsIcEERSt13basic_ostreamIT_T0_ES6_PKS3_l
 2826      00
 2827 13d1 F30F1044 		movss	12(%rsp), %xmm0
 2827      240C
 2828 13d7 488D7C24 		leaq	32(%rsp), %rdi
 2828      20
 2829 13dc 0F5AC0   		cvtps2pd	%xmm0, %xmm0
 2830 13df E8000000 		call	_ZNSo9_M_insertIdEERSoT_
 2830      00
 2831 13e4 BA0B0000 		movl	$11, %edx
 2831      00
 2832 13e9 BE000000 		movl	$.LC7, %esi
 2832      00
 2833 13ee 4889C7   		movq	%rax, %rdi
 2834 13f1 E8000000 		call	_ZSt16__ostream_insertIcSt11char_traitsIcEERSt13basic_ostreamIT_T0_ES6_PKS3_l
 2834      00
 2835 13f6 30DB     		xorb	%bl, %bl
 2836 13f8 0F1F8400 		.p2align 4,,10
 2836      00000000 
 2837              		.p2align 3
 2838              	.L316:
 2839 1400 8B741D00 		movl	0(%rbp,%rbx), %esi
 2840 1404 488D7C24 		leaq	32(%rsp), %rdi
 2840      20
 2841 1409 E8000000 		call	_ZNSolsEi
 2841      00
 2842 140e BA010000 		movl	$1, %edx
 2842      00
 2843 1413 BE000000 		movl	$.LC3, %esi
 2843      00
 2844 1418 4889C7   		movq	%rax, %rdi
 2845 141b E8000000 		call	_ZSt16__ostream_insertIcSt11char_traitsIcEERSt13basic_ostreamIT_T0_ES6_PKS3_l
 2845      00
 2846 1420 4883C304 		addq	$4, %rbx
 2847 1424 4883FB10 		cmpq	$16, %rbx
 2848 1428 75D6     		jne	.L316
 2849 142a 488D7C24 		leaq	32(%rsp), %rdi
 2849      20
 2850 142f BA010000 		movl	$1, %edx
 2850      00
 2851 1434 BE000000 		movl	$.LC5, %esi
 2851      00
 2852 1439 E8000000 		call	_ZSt16__ostream_insertIcSt11char_traitsIcEERSt13basic_ostreamIT_T0_ES6_PKS3_l
 2852      00
 2853 143e 488D7C24 		leaq	32(%rsp), %rdi
 2853      20
 2854 1443 E8000000 		call	_ZNK8UnitTest15MemoryOutStream7GetTextEv
 2854      00
 2855 1448 4889C2   		movq	%rax, %rdx
 2856 144b 4C89EE   		movq	%r13, %rsi
 2857 144e 4C89E7   		movq	%r12, %rdi
 2858 1451 E8000000 		call	_ZN8UnitTest11TestResults13OnTestFailureERKNS_11TestDetailsEPKc
 2858      00
 2859              	.LEHE14:
 2860 1456 488B4424 		movq	120(%rsp), %rax
 2860      78
 2861 145b 48C74424 		movq	$_ZTVN8UnitTest15MemoryOutStreamE+24, 32(%rsp)
 2861      20000000 
 2861      00
 2862 1464 48C78424 		movq	$_ZTVN8UnitTest15MemoryOutStreamE+64, 128(%rsp)
 2862      80000000 
 2862      00000000 
 2863 1470 488D78E8 		leaq	-24(%rax), %rdi
 2864 1474 4881FF00 		cmpq	$_ZNSs4_Rep20_S_empty_rep_storageE, %rdi
 2864      000000
 2865 147b 0F85B600 		jne	.L348
 2865      0000
 2866              	.L318:
 2867 1481 488B4424 		movq	112(%rsp), %rax
 2867      70
 2868 1486 48C74424 		movq	$_ZTCN8UnitTest15MemoryOutStreamE0_St19basic_ostringstreamIcSt11char_traitsIcESaIcEE+24, 32(%
 2868      20000000 
 2868      00
 2869 148f 48C78424 		movq	$_ZTCN8UnitTest15MemoryOutStreamE0_St19basic_ostringstreamIcSt11char_traitsIcESaIcEE+64, 128(
 2869      80000000 
 2869      00000000 
 2870 149b 48C74424 		movq	$_ZTVSt15basic_stringbufIcSt11char_traitsIcESaIcEE+16, 40(%rsp)
 2870      28000000 
 2870      00
 2871 14a4 488D78E8 		leaq	-24(%rax), %rdi
 2872 14a8 4881FF00 		cmpq	$_ZNSs4_Rep20_S_empty_rep_storageE, %rdi
 2872      000000
 2873 14af 0F85B400 		jne	.L349
 2873      0000
 2874              	.L323:
 2875 14b5 488D7C24 		leaq	96(%rsp), %rdi
 2875      60
 2876 14ba 48C74424 		movq	$_ZTVSt15basic_streambufIcSt11char_traitsIcEE+16, 40(%rsp)
 2876      28000000 
 2876      00
 2877 14c3 E8000000 		call	_ZNSt6localeD1Ev
 2877      00
 2878 14c8 488DBC24 		leaq	128(%rsp), %rdi
 2878      80000000 
 2879 14d0 48C74424 		movq	$_ZTCN8UnitTest15MemoryOutStreamE0_So+24, 32(%rsp)
 2879      20000000 
 2879      00
 2880 14d9 48C78424 		movq	$_ZTVSt9basic_iosIcSt11char_traitsIcEE+16, 128(%rsp)
 2880      80000000 
 2880      00000000 
 2881              	.LEHB15:
 2882 14e5 E8000000 		call	_ZNSt8ios_baseD2Ev
 2882      00
 2883              	.LEHE15:
 2884              	.L296:
 2885 14ea 4881C498 		addq	$408, %rsp
 2885      010000
 2886              		.cfi_remember_state
 2887              		.cfi_def_cfa_offset 56
 2888 14f1 5B       		popq	%rbx
 2889              		.cfi_def_cfa_offset 48
 2890 14f2 5D       		popq	%rbp
 2891              		.cfi_def_cfa_offset 40
 2892 14f3 415C     		popq	%r12
 2893              		.cfi_def_cfa_offset 32
 2894 14f5 415D     		popq	%r13
 2895              		.cfi_def_cfa_offset 24
 2896 14f7 415E     		popq	%r14
 2897              		.cfi_def_cfa_offset 16
 2898 14f9 415F     		popq	%r15
 2899              		.cfi_def_cfa_offset 8
 2900 14fb C3       		ret
 2901 14fc 0F1F4000 		.p2align 4,,10
 2902              		.p2align 3
 2903              	.L347:
 2904              		.cfi_restore_state
 2905 1500 F30F58C2 		addss	%xmm2, %xmm0
 2906 1504 0F2EC1   		ucomiss	%xmm1, %xmm0
 2907 1507 0F8236FD 		jb	.L305
 2907      FFFF
 2908 150d 84C0     		testb	%al, %al
 2909 150f 75D9     		jne	.L296
 2910              		.p2align 4,,2
 2911 1511 E92DFDFF 		jmp	.L305
 2911      FF
 2912 1516 662E0F1F 		.p2align 4,,10
 2912      84000000 
 2912      0000
 2913              		.p2align 3
 2914              	.L343:
 2915 1520 31C0     		xorl	%eax, %eax
 2916 1522 E901FDFF 		jmp	.L302
 2916      FF
 2917 1527 660F1F84 		.p2align 4,,10
 2917      00000000 
 2917      00
 2918              		.p2align 3
 2919              	.L342:
 2920 1530 31C0     		xorl	%eax, %eax
 2921 1532 E9C7FCFF 		jmp	.L299
 2921      FF
 2922              	.L348:
 2923 1537 B9000000 		movl	$_ZL28__gthrw___pthread_key_createPjPFvPvE, %ecx
 2923      00
 2924 153c 488D5710 		leaq	16(%rdi), %rdx
 2925 1540 4885C9   		testq	%rcx, %rcx
 2926 1543 0F848B00 		je	.L319
 2926      0000
 2927 1549 B8FFFFFF 		movl	$-1, %eax
 2927      FF
 2928 154e F00FC102 		lock xaddl	%eax, (%rdx)
 2929              	.L320:
 2930 1552 85C0     		testl	%eax, %eax
 2931 1554 0F8F27FF 		jg	.L318
 2931      FFFF
 2932 155a 488D7424 		leaq	31(%rsp), %rsi
 2932      1F
 2933 155f E8000000 		call	_ZNSs4_Rep10_M_destroyERKSaIcE
 2933      00
 2934 1564 E918FFFF 		jmp	.L318
 2934      FF
 2935              	.L349:
 2936 1569 B9000000 		movl	$_ZL28__gthrw___pthread_key_createPjPFvPvE, %ecx
 2936      00
 2937 156e 488D5710 		leaq	16(%rdi), %rdx
 2938 1572 4885C9   		testq	%rcx, %rcx
 2939 1575 0F848100 		je	.L324
 2939      0000
 2940 157b B8FFFFFF 		movl	$-1, %eax
 2940      FF
 2941 1580 F00FC102 		lock xaddl	%eax, (%rdx)
 2942              	.L325:
 2943 1584 85C0     		testl	%eax, %eax
 2944 1586 0F8F29FF 		jg	.L323
 2944      FFFF
 2945 158c 488D7424 		leaq	31(%rsp), %rsi
 2945      1F
 2946 1591 E8000000 		call	_ZNSs4_Rep10_M_destroyERKSaIcE
 2946      00
 2947 1596 E91AFFFF 		jmp	.L323
 2947      FF
 2948              	.L333:
 2949 159b 488D7C24 		leaq	32(%rsp), %rdi
 2949      20
 2950 15a0 4889C3   		movq	%rax, %rbx
 2951 15a3 E8000000 		call	_ZN8UnitTest15MemoryOutStreamD1Ev
 2951      00
 2952 15a8 4889DF   		movq	%rbx, %rdi
 2953              	.LEHB16:
 2954 15ab E8000000 		call	_Unwind_Resume
 2954      00
 2955              	.LEHE16:
 2956              	.L334:
 2957 15b0 4889C3   		movq	%rax, %rbx
 2958              	.L311:
 2959 15b3 488DBC24 		leaq	128(%rsp), %rdi
 2959      80000000 
 2960 15bb 48C78424 		movq	$_ZTVSt9basic_iosIcSt11char_traitsIcEE+16, 128(%rsp)
 2960      80000000 
 2960      00000000 
 2961 15c7 E8000000 		call	_ZNSt8ios_baseD2Ev
 2961      00
 2962 15cc 4889DF   		movq	%rbx, %rdi
 2963              	.LEHB17:
 2964 15cf E8000000 		call	_Unwind_Resume
 2964      00
 2965              	.LEHE17:
 2966              	.L319:
 2967 15d4 8B50F8   		movl	-8(%rax), %edx
 2968 15d7 8D4AFF   		leal	-1(%rdx), %ecx
 2969 15da 8948F8   		movl	%ecx, -8(%rax)
 2970 15dd 89D0     		movl	%edx, %eax
 2971 15df E96EFFFF 		jmp	.L320
 2971      FF
 2972              	.L335:
 2973 15e4 488D7C24 		leaq	40(%rsp), %rdi
 2973      28
 2974 15e9 4889C3   		movq	%rax, %rbx
 2975 15ec E8000000 		call	_ZNSt15basic_stringbufIcSt11char_traitsIcESaIcEED1Ev
 2975      00
 2976 15f1 48C74424 		movq	$_ZTCN8UnitTest15MemoryOutStreamE0_So+24, 32(%rsp)
 2976      20000000 
 2976      00
 2977 15fa EBB7     		jmp	.L311
 2978              	.L324:
 2979 15fc 8B50F8   		movl	-8(%rax), %edx
 2980 15ff 8D4AFF   		leal	-1(%rdx), %ecx
 2981 1602 8948F8   		movl	%ecx, -8(%rax)
 2982 1605 89D0     		movl	%edx, %eax
 2983 1607 E978FFFF 		jmp	.L325
 2983      FF
 2984              		.cfi_endproc
 2985              	.LFE1617:
 2986              		.section	.gcc_except_table
 2987              	.LLSDA1617:
 2988 004c FF       		.byte	0xff
 2989 004d FF       		.byte	0xff
 2990 004e 01       		.byte	0x1
 2991 004f 22       		.uleb128 .LLSDACSE1617-.LLSDACSB1617
 2992              	.LLSDACSB1617:
 2993 0050 A902     		.uleb128 .LEHB12-.LFB1617
 2994 0052 05       		.uleb128 .LEHE12-.LEHB12
 2995 0053 A008     		.uleb128 .L334-.LFB1617
 2996 0055 00       		.uleb128 0
 2997 0056 B903     		.uleb128 .LEHB13-.LFB1617
 2998 0058 05       		.uleb128 .LEHE13-.LEHB13
 2999 0059 D408     		.uleb128 .L335-.LFB1617
 3000 005b 00       		.uleb128 0
 3001 005c EB03     		.uleb128 .LEHB14-.LFB1617
 3002 005e DB01     		.uleb128 .LEHE14-.LEHB14
 3003 0060 8B08     		.uleb128 .L333-.LFB1617
 3004 0062 00       		.uleb128 0
 3005 0063 D506     		.uleb128 .LEHB15-.LFB1617
 3006 0065 05       		.uleb128 .LEHE15-.LEHB15
 3007 0066 00       		.uleb128 0
 3008 0067 00       		.uleb128 0
 3009 0068 9B08     		.uleb128 .LEHB16-.LFB1617
 3010 006a 05       		.uleb128 .LEHE16-.LEHB16
 3011 006b 00       		.uleb128 0
 3012 006c 00       		.uleb128 0
 3013 006d BF08     		.uleb128 .LEHB17-.LFB1617
 3014 006f 05       		.uleb128 .LEHE17-.LEHB17
 3015 0070 00       		.uleb128 0
 3016 0071 00       		.uleb128 0
 3017              	.LLSDACSE1617:
 3018              		.text
 3020 160c 0F1F4000 		.p2align 4,,15
 3022              	_ZN8UnitTest15CheckArrayCloseIA4_fPKffEEvRNS_11TestResultsERKT_RKT0_iRKT1_RKNS_11TestDetailsE.const
 3023              	.LFB1620:
 3024              		.cfi_startproc
 3025              		.cfi_personality 0x3,__gxx_personality_v0
 3026              		.cfi_lsda 0x3,.LLSDA1620
 3027 1610 4157     		pushq	%r15
 3028              		.cfi_def_cfa_offset 16
 3029              		.cfi_offset 15, -16
 3030 1612 4989CF   		movq	%rcx, %r15
 3031 1615 4156     		pushq	%r14
 3032              		.cfi_def_cfa_offset 24
 3033              		.cfi_offset 14, -24
 3034 1617 4989F6   		movq	%rsi, %r14
 3035 161a 4155     		pushq	%r13
 3036              		.cfi_def_cfa_offset 32
 3037              		.cfi_offset 13, -32
 3038 161c 4D89C5   		movq	%r8, %r13
 3039 161f 4154     		pushq	%r12
 3040              		.cfi_def_cfa_offset 40
 3041              		.cfi_offset 12, -40
 3042 1621 4989FC   		movq	%rdi, %r12
 3043 1624 55       		pushq	%rbp
 3044              		.cfi_def_cfa_offset 48
 3045              		.cfi_offset 6, -48
 3046 1625 4889D5   		movq	%rdx, %rbp
 3047 1628 53       		pushq	%rbx
 3048              		.cfi_def_cfa_offset 56
 3049              		.cfi_offset 3, -56
 3050 1629 4881EC98 		subq	$408, %rsp
 3050      010000
 3051              		.cfi_def_cfa_offset 464
 3052 1630 488B02   		movq	(%rdx), %rax
 3053 1633 31D2     		xorl	%edx, %edx
 3054 1635 F30F1016 		movss	(%rsi), %xmm2
 3055 1639 0F28DA   		movaps	%xmm2, %xmm3
 3056 163c F30F1001 		movss	(%rcx), %xmm0
 3057 1640 F30F1008 		movss	(%rax), %xmm1
 3058 1644 F30F5CD8 		subss	%xmm0, %xmm3
 3059 1648 0F2ECB   		ucomiss	%xmm3, %xmm1
 3060 164b 720A     		jb	.L351
 3061 164d F30F58D0 		addss	%xmm0, %xmm2
 3062 1651 0F2ED1   		ucomiss	%xmm1, %xmm2
 3063 1654 0F93C2   		setnb	%dl
 3064              	.L351:
 3065 1657 F3410F10 		movss	4(%r14), %xmm2
 3065      5604
 3066 165d 0F28DA   		movaps	%xmm2, %xmm3
 3067 1660 F30F1048 		movss	4(%rax), %xmm1
 3067      04
 3068 1665 F30F5CD8 		subss	%xmm0, %xmm3
 3069 1669 0F2ECB   		ucomiss	%xmm3, %xmm1
 3070 166c 0F823E03 		jb	.L396
 3070      0000
 3071 1672 F30F58D0 		addss	%xmm0, %xmm2
 3072 1676 B9000000 		movl	$0, %ecx
 3072      00
 3073 167b 0F2ED1   		ucomiss	%xmm1, %xmm2
 3074 167e 0F42D1   		cmovb	%ecx, %edx
 3075              	.L353:
 3076 1681 F3410F10 		movss	8(%r14), %xmm2
 3076      5608
 3077 1687 0F28DA   		movaps	%xmm2, %xmm3
 3078 168a F30F1048 		movss	8(%rax), %xmm1
 3078      08
 3079 168f F30F5CD8 		subss	%xmm0, %xmm3
 3080 1693 0F2ECB   		ucomiss	%xmm3, %xmm1
 3081 1696 0F820403 		jb	.L397
 3081      0000
 3082 169c F30F58D0 		addss	%xmm0, %xmm2
 3083 16a0 B9000000 		movl	$0, %ecx
 3083      00
 3084 16a5 0F2ED1   		ucomiss	%xmm1, %xmm2
 3085 16a8 0F42D1   		cmovb	%ecx, %edx
 3086              	.L356:
 3087 16ab F3410F10 		movss	12(%r14), %xmm2
 3087      560C
 3088 16b1 0F28DA   		movaps	%xmm2, %xmm3
 3089 16b4 F30F1048 		movss	12(%rax), %xmm1
 3089      0C
 3090 16b9 F30F5CD8 		subss	%xmm0, %xmm3
 3091 16bd 0F2ECB   		ucomiss	%xmm3, %xmm1
 3092 16c0 0F83C202 		jnb	.L401
 3092      0000
 3093              	.L359:
 3094 16c6 488D9C24 		leaq	128(%rsp), %rbx
 3094      80000000 
 3095 16ce 4889DF   		movq	%rbx, %rdi
 3096 16d1 E8000000 		call	_ZNSt8ios_baseC2Ev
 3096      00
 3097 16d6 31F6     		xorl	%esi, %esi
 3098 16d8 4889DF   		movq	%rbx, %rdi
 3099 16db 48C78424 		movq	$0, 344(%rsp)
 3099      58010000 
 3099      00000000 
 3100 16e7 C6842460 		movb	$0, 352(%rsp)
 3100      01000000 
 3101 16ef C6842461 		movb	$0, 353(%rsp)
 3101      01000000 
 3102 16f7 48C78424 		movq	$0, 360(%rsp)
 3102      68010000 
 3102      00000000 
 3103 1703 48C78424 		movq	$0, 368(%rsp)
 3103      70010000 
 3103      00000000 
 3104 170f 48C78424 		movq	$0, 376(%rsp)
 3104      78010000 
 3104      00000000 
 3105 171b 48C78424 		movq	$0, 384(%rsp)
 3105      80010000 
 3105      00000000 
 3106 1727 48C74424 		movq	$_ZTCN8UnitTest15MemoryOutStreamE0_So+24, 32(%rsp)
 3106      20000000 
 3106      00
 3107 1730 48C78424 		movq	$_ZTCN8UnitTest15MemoryOutStreamE0_So+64, 128(%rsp)
 3107      80000000 
 3107      00000000 
 3108              	.LEHB18:
 3109 173c E8000000 		call	_ZNSt9basic_iosIcSt11char_traitsIcEE4initEPSt15basic_streambufIcS1_E
 3109      00
 3110              	.LEHE18:
 3111 1741 488D7C24 		leaq	96(%rsp), %rdi
 3111      60
 3112 1746 48C74424 		movq	$_ZTCN8UnitTest15MemoryOutStreamE0_St19basic_ostringstreamIcSt11char_traitsIcESaIcEE+24, 32(%
 3112      20000000 
 3112      00
 3113 174f 48C78424 		movq	$_ZTCN8UnitTest15MemoryOutStreamE0_St19basic_ostringstreamIcSt11char_traitsIcESaIcEE+64, 128(
 3113      80000000 
 3113      00000000 
 3114 175b 48C74424 		movq	$_ZTVSt15basic_streambufIcSt11char_traitsIcEE+16, 40(%rsp)
 3114      28000000 
 3114      00
 3115 1764 48C74424 		movq	$0, 48(%rsp)
 3115      30000000 
 3115      00
 3116 176d 48C74424 		movq	$0, 56(%rsp)
 3116      38000000 
 3116      00
 3117 1776 48C74424 		movq	$0, 64(%rsp)
 3117      40000000 
 3117      00
 3118 177f 48C74424 		movq	$0, 72(%rsp)
 3118      48000000 
 3118      00
 3119 1788 48C74424 		movq	$0, 80(%rsp)
 3119      50000000 
 3119      00
 3120 1791 48C74424 		movq	$0, 88(%rsp)
 3120      58000000 
 3120      00
 3121 179a E8000000 		call	_ZNSt6localeC1Ev
 3121      00
 3122 179f 488B4424 		movq	32(%rsp), %rax
 3122      20
 3123 17a4 488D7C24 		leaq	32(%rsp), %rdi
 3123      20
 3124 17a9 488D7424 		leaq	40(%rsp), %rsi
 3124      28
 3125 17ae 48C74424 		movq	$_ZTVSt15basic_stringbufIcSt11char_traitsIcESaIcEE+16, 40(%rsp)
 3125      28000000 
 3125      00
 3126 17b7 C7442468 		movl	$16, 104(%rsp)
 3126      10000000 
 3127 17bf 48C74424 		movq	$_ZNSs4_Rep20_S_empty_rep_storageE+24, 112(%rsp)
 3127      70000000 
 3127      00
 3128 17c8 480378E8 		addq	-24(%rax), %rdi
 3129              	.LEHB19:
 3130 17cc E8000000 		call	_ZNSt9basic_iosIcSt11char_traitsIcEE4initEPSt15basic_streambufIcS1_E
 3130      00
 3131              	.LEHE19:
 3132 17d1 488D7C24 		leaq	32(%rsp), %rdi
 3132      20
 3133 17d6 BA0B0000 		movl	$11, %edx
 3133      00
 3134 17db BE000000 		movl	$.LC2, %esi
 3134      00
 3135 17e0 48C74424 		movq	$_ZTVN8UnitTest15MemoryOutStreamE+24, 32(%rsp)
 3135      20000000 
 3135      00
 3136 17e9 48C78424 		movq	$_ZTVN8UnitTest15MemoryOutStreamE+64, 128(%rsp)
 3136      80000000 
 3136      00000000 
 3137 17f5 48C74424 		movq	$_ZNSs4_Rep20_S_empty_rep_storageE+24, 120(%rsp)
 3137      78000000 
 3137      00
 3138              	.LEHB20:
 3139 17fe E8000000 		call	_ZSt16__ostream_insertIcSt11char_traitsIcEERSt13basic_ostreamIT_T0_ES6_PKS3_l
 3139      00
 3140 1803 31DB     		xorl	%ebx, %ebx
 3141              		.p2align 4,,10
 3142 1805 0F1F00   		.p2align 3
 3143              	.L368:
 3144 1808 F3410F10 		movss	(%r14,%rbx), %xmm0
 3144      041E
 3145 180e 488D7C24 		leaq	32(%rsp), %rdi
 3145      20
 3146 1813 0F5AC0   		cvtps2pd	%xmm0, %xmm0
 3147 1816 E8000000 		call	_ZNSo9_M_insertIdEERSoT_
 3147      00
 3148 181b BA010000 		movl	$1, %edx
 3148      00
 3149 1820 BE000000 		movl	$.LC3, %esi
 3149      00
 3150 1825 4889C7   		movq	%rax, %rdi
 3151 1828 E8000000 		call	_ZSt16__ostream_insertIcSt11char_traitsIcEERSt13basic_ostreamIT_T0_ES6_PKS3_l
 3151      00
 3152 182d 4883C304 		addq	$4, %rbx
 3153 1831 4883FB10 		cmpq	$16, %rbx
 3154 1835 75D1     		jne	.L368
 3155 1837 488D7C24 		leaq	32(%rsp), %rdi
 3155      20
 3156 183c F3410F10 		movss	(%r15), %xmm4
 3156      27
 3157 1841 BA060000 		movl	$6, %edx
 3157      00
 3158 1846 BE000000 		movl	$.LC6, %esi
 3158      00
 3159 184b F30F1164 		movss	%xmm4, 12(%rsp)
 3159      240C
 3160 1851 E8000000 		call	_ZSt16__ostream_insertIcSt11char_traitsIcEERSt13basic_ostreamIT_T0_ES6_PKS3_l
 3160      00
 3161 1856 F30F1044 		movss	12(%rsp), %xmm0
 3161      240C
 3162 185c 488D7C24 		leaq	32(%rsp), %rdi
 3162      20
 3163 1861 0F5AC0   		cvtps2pd	%xmm0, %xmm0
 3164 1864 E8000000 		call	_ZNSo9_M_insertIdEERSoT_
 3164      00
 3165 1869 BA0B0000 		movl	$11, %edx
 3165      00
 3166 186e BE000000 		movl	$.LC7, %esi
 3166      00
 3167 1873 4889C7   		movq	%rax, %rdi
 3168 1876 E8000000 		call	_ZSt16__ostream_insertIcSt11char_traitsIcEERSt13basic_ostreamIT_T0_ES6_PKS3_l
 3168      00
 3169 187b 30DB     		xorb	%bl, %bl
 3170 187d 0F1F00   		.p2align 4,,10
 3171              		.p2align 3
 3172              	.L370:
 3173 1880 488B4500 		movq	0(%rbp), %rax
 3174 1884 488D7C24 		leaq	32(%rsp), %rdi
 3174      20
 3175 1889 F30F1004 		movss	(%rax,%rbx), %xmm0
 3175      18
 3176 188e 0F5AC0   		cvtps2pd	%xmm0, %xmm0
 3177 1891 E8000000 		call	_ZNSo9_M_insertIdEERSoT_
 3177      00
 3178 1896 BA010000 		movl	$1, %edx
 3178      00
 3179 189b BE000000 		movl	$.LC3, %esi
 3179      00
 3180 18a0 4889C7   		movq	%rax, %rdi
 3181 18a3 E8000000 		call	_ZSt16__ostream_insertIcSt11char_traitsIcEERSt13basic_ostreamIT_T0_ES6_PKS3_l
 3181      00
 3182 18a8 4883C304 		addq	$4, %rbx
 3183 18ac 4883FB10 		cmpq	$16, %rbx
 3184 18b0 75CE     		jne	.L370
 3185 18b2 488D7C24 		leaq	32(%rsp), %rdi
 3185      20
 3186 18b7 BA010000 		movl	$1, %edx
 3186      00
 3187 18bc BE000000 		movl	$.LC5, %esi
 3187      00
 3188 18c1 E8000000 		call	_ZSt16__ostream_insertIcSt11char_traitsIcEERSt13basic_ostreamIT_T0_ES6_PKS3_l
 3188      00
 3189 18c6 488D7C24 		leaq	32(%rsp), %rdi
 3189      20
 3190 18cb E8000000 		call	_ZNK8UnitTest15MemoryOutStream7GetTextEv
 3190      00
 3191 18d0 4889C2   		movq	%rax, %rdx
 3192 18d3 4C89EE   		movq	%r13, %rsi
 3193 18d6 4C89E7   		movq	%r12, %rdi
 3194 18d9 E8000000 		call	_ZN8UnitTest11TestResults13OnTestFailureERKNS_11TestDetailsEPKc
 3194      00
 3195              	.LEHE20:
 3196 18de 488B4424 		movq	120(%rsp), %rax
 3196      78
 3197 18e3 48C74424 		movq	$_ZTVN8UnitTest15MemoryOutStreamE+24, 32(%rsp)
 3197      20000000 
 3197      00
 3198 18ec 48C78424 		movq	$_ZTVN8UnitTest15MemoryOutStreamE+64, 128(%rsp)
 3198      80000000 
 3198      00000000 
 3199 18f8 488D78E8 		leaq	-24(%rax), %rdi
 3200 18fc 4881FF00 		cmpq	$_ZNSs4_Rep20_S_empty_rep_storageE, %rdi
 3200      000000
 3201 1903 0F85AE00 		jne	.L402
 3201      0000
 3202              	.L372:
 3203 1909 488B4424 		movq	112(%rsp), %rax
 3203      70
 3204 190e 48C74424 		movq	$_ZTCN8UnitTest15MemoryOutStreamE0_St19basic_ostringstreamIcSt11char_traitsIcESaIcEE+24, 32(%
 3204      20000000 
 3204      00
 3205 1917 48C78424 		movq	$_ZTCN8UnitTest15MemoryOutStreamE0_St19basic_ostringstreamIcSt11char_traitsIcESaIcEE+64, 128(
 3205      80000000 
 3205      00000000 
 3206 1923 48C74424 		movq	$_ZTVSt15basic_stringbufIcSt11char_traitsIcESaIcEE+16, 40(%rsp)
 3206      28000000 
 3206      00
 3207 192c 488D78E8 		leaq	-24(%rax), %rdi
 3208 1930 4881FF00 		cmpq	$_ZNSs4_Rep20_S_empty_rep_storageE, %rdi
 3208      000000
 3209 1937 0F85AC00 		jne	.L403
 3209      0000
 3210              	.L377:
 3211 193d 488D7C24 		leaq	96(%rsp), %rdi
 3211      60
 3212 1942 48C74424 		movq	$_ZTVSt15basic_streambufIcSt11char_traitsIcEE+16, 40(%rsp)
 3212      28000000 
 3212      00
 3213 194b E8000000 		call	_ZNSt6localeD1Ev
 3213      00
 3214 1950 488DBC24 		leaq	128(%rsp), %rdi
 3214      80000000 
 3215 1958 48C74424 		movq	$_ZTCN8UnitTest15MemoryOutStreamE0_So+24, 32(%rsp)
 3215      20000000 
 3215      00
 3216 1961 48C78424 		movq	$_ZTVSt9basic_iosIcSt11char_traitsIcEE+16, 128(%rsp)
 3216      80000000 
 3216      00000000 
 3217              	.LEHB21:
 3218 196d E8000000 		call	_ZNSt8ios_baseD2Ev
 3218      00
 3219              	.LEHE21:
 3220              	.L350:
 3221 1972 4881C498 		addq	$408, %rsp
 3221      010000
 3222              		.cfi_remember_state
 3223              		.cfi_def_cfa_offset 56
 3224 1979 5B       		popq	%rbx
 3225              		.cfi_def_cfa_offset 48
 3226 197a 5D       		popq	%rbp
 3227              		.cfi_def_cfa_offset 40
 3228 197b 415C     		popq	%r12
 3229              		.cfi_def_cfa_offset 32
 3230 197d 415D     		popq	%r13
 3231              		.cfi_def_cfa_offset 24
 3232 197f 415E     		popq	%r14
 3233              		.cfi_def_cfa_offset 16
 3234 1981 415F     		popq	%r15
 3235              		.cfi_def_cfa_offset 8
 3236 1983 C3       		ret
 3237              		.p2align 4,,10
 3238 1984 0F1F4000 		.p2align 3
 3239              	.L401:
 3240              		.cfi_restore_state
 3241 1988 F30F58C2 		addss	%xmm2, %xmm0
 3242 198c 0F2EC1   		ucomiss	%xmm1, %xmm0
 3243 198f 0F8231FD 		jb	.L359
 3243      FFFF
 3244 1995 84D2     		testb	%dl, %dl
 3245 1997 75D9     		jne	.L350
 3246              		.p2align 4,,2
 3247 1999 E928FDFF 		jmp	.L359
 3247      FF
 3248 199e 6690     		.p2align 4,,10
 3249              		.p2align 3
 3250              	.L397:
 3251 19a0 31D2     		xorl	%edx, %edx
 3252 19a2 E904FDFF 		jmp	.L356
 3252      FF
 3253 19a7 660F1F84 		.p2align 4,,10
 3253      00000000 
 3253      00
 3254              		.p2align 3
 3255              	.L396:
 3256 19b0 31D2     		xorl	%edx, %edx
 3257 19b2 E9CAFCFF 		jmp	.L353
 3257      FF
 3258              	.L402:
 3259 19b7 B9000000 		movl	$_ZL28__gthrw___pthread_key_createPjPFvPvE, %ecx
 3259      00
 3260 19bc 488D5710 		leaq	16(%rdi), %rdx
 3261 19c0 4885C9   		testq	%rcx, %rcx
 3262 19c3 0F848B00 		je	.L373
 3262      0000
 3263 19c9 B8FFFFFF 		movl	$-1, %eax
 3263      FF
 3264 19ce F00FC102 		lock xaddl	%eax, (%rdx)
 3265              	.L374:
 3266 19d2 85C0     		testl	%eax, %eax
 3267 19d4 0F8F2FFF 		jg	.L372
 3267      FFFF
 3268 19da 488D7424 		leaq	31(%rsp), %rsi
 3268      1F
 3269 19df E8000000 		call	_ZNSs4_Rep10_M_destroyERKSaIcE
 3269      00
 3270 19e4 E920FFFF 		jmp	.L372
 3270      FF
 3271              	.L403:
 3272 19e9 B9000000 		movl	$_ZL28__gthrw___pthread_key_createPjPFvPvE, %ecx
 3272      00
 3273 19ee 488D5710 		leaq	16(%rdi), %rdx
 3274 19f2 4885C9   		testq	%rcx, %rcx
 3275 19f5 0F848100 		je	.L378
 3275      0000
 3276 19fb B8FFFFFF 		movl	$-1, %eax
 3276      FF
 3277 1a00 F00FC102 		lock xaddl	%eax, (%rdx)
 3278              	.L379:
 3279 1a04 85C0     		testl	%eax, %eax
 3280 1a06 0F8F31FF 		jg	.L377
 3280      FFFF
 3281 1a0c 488D7424 		leaq	31(%rsp), %rsi
 3281      1F
 3282 1a11 E8000000 		call	_ZNSs4_Rep10_M_destroyERKSaIcE
 3282      00
 3283 1a16 E922FFFF 		jmp	.L377
 3283      FF
 3284              	.L387:
 3285 1a1b 488D7C24 		leaq	32(%rsp), %rdi
 3285      20
 3286 1a20 4889C3   		movq	%rax, %rbx
 3287 1a23 E8000000 		call	_ZN8UnitTest15MemoryOutStreamD1Ev
 3287      00
 3288 1a28 4889DF   		movq	%rbx, %rdi
 3289              	.LEHB22:
 3290 1a2b E8000000 		call	_Unwind_Resume
 3290      00
 3291              	.LEHE22:
 3292              	.L388:
 3293 1a30 4889C3   		movq	%rax, %rbx
 3294              	.L365:
 3295 1a33 488DBC24 		leaq	128(%rsp), %rdi
 3295      80000000 
 3296 1a3b 48C78424 		movq	$_ZTVSt9basic_iosIcSt11char_traitsIcEE+16, 128(%rsp)
 3296      80000000 
 3296      00000000 
 3297 1a47 E8000000 		call	_ZNSt8ios_baseD2Ev
 3297      00
 3298 1a4c 4889DF   		movq	%rbx, %rdi
 3299              	.LEHB23:
 3300 1a4f E8000000 		call	_Unwind_Resume
 3300      00
 3301              	.LEHE23:
 3302              	.L373:
 3303 1a54 8B50F8   		movl	-8(%rax), %edx
 3304 1a57 8D4AFF   		leal	-1(%rdx), %ecx
 3305 1a5a 8948F8   		movl	%ecx, -8(%rax)
 3306 1a5d 89D0     		movl	%edx, %eax
 3307 1a5f E96EFFFF 		jmp	.L374
 3307      FF
 3308              	.L389:
 3309 1a64 488D7C24 		leaq	40(%rsp), %rdi
 3309      28
 3310 1a69 4889C3   		movq	%rax, %rbx
 3311 1a6c E8000000 		call	_ZNSt15basic_stringbufIcSt11char_traitsIcESaIcEED1Ev
 3311      00
 3312 1a71 48C74424 		movq	$_ZTCN8UnitTest15MemoryOutStreamE0_So+24, 32(%rsp)
 3312      20000000 
 3312      00
 3313 1a7a EBB7     		jmp	.L365
 3314              	.L378:
 3315 1a7c 8B50F8   		movl	-8(%rax), %edx
 3316 1a7f 8D4AFF   		leal	-1(%rdx), %ecx
 3317 1a82 8948F8   		movl	%ecx, -8(%rax)
 3318 1a85 89D0     		movl	%edx, %eax
 3319 1a87 E978FFFF 		jmp	.L379
 3319      FF
 3320              		.cfi_endproc
 3321              	.LFE1620:
 3322              		.section	.gcc_except_table
 3323              	.LLSDA1620:
 3324 0072 FF       		.byte	0xff
 3325 0073 FF       		.byte	0xff
 3326 0074 01       		.byte	0x1
 3327 0075 22       		.uleb128 .LLSDACSE1620-.LLSDACSB1620
 3328              	.LLSDACSB1620:
 3329 0076 AC02     		.uleb128 .LEHB18-.LFB1620
 3330 0078 05       		.uleb128 .LEHE18-.LEHB18
 3331 0079 A008     		.uleb128 .L388-.LFB1620
 3332 007b 00       		.uleb128 0
 3333 007c BC03     		.uleb128 .LEHB19-.LFB1620
 3334 007e 05       		.uleb128 .LEHE19-.LEHB19
 3335 007f D408     		.uleb128 .L389-.LFB1620
 3336 0081 00       		.uleb128 0
 3337 0082 EE03     		.uleb128 .LEHB20-.LFB1620
 3338 0084 E001     		.uleb128 .LEHE20-.LEHB20
 3339 0086 8B08     		.uleb128 .L387-.LFB1620
 3340 0088 00       		.uleb128 0
 3341 0089 DD06     		.uleb128 .LEHB21-.LFB1620
 3342 008b 05       		.uleb128 .LEHE21-.LEHB21
 3343 008c 00       		.uleb128 0
 3344 008d 00       		.uleb128 0
 3345 008e 9B08     		.uleb128 .LEHB22-.LFB1620
 3346 0090 05       		.uleb128 .LEHE22-.LEHB22
 3347 0091 00       		.uleb128 0
 3348 0092 00       		.uleb128 0
 3349 0093 BF08     		.uleb128 .LEHB23-.LFB1620
 3350 0095 05       		.uleb128 .LEHE23-.LEHB23
 3351 0096 00       		.uleb128 0
 3352 0097 00       		.uleb128 0
 3353              	.LLSDACSE1620:
 3354              		.text
 3356              		.section	.rodata.str1.1
 3357              	.LC8:
 3358 003f 5B2000   		.string	"[ "
 3359              	.LC9:
 3360 0042 5D2000   		.string	"] "
 3361              		.text
 3362 1a8c 0F1F4000 		.p2align 4,,15
 3364              	_ZN8UnitTest17CheckArray2DCloseIA2_A2_iS2_fEEvRNS_11TestResultsERKT_RKT0_iiRKT1_RKNS_11TestDetailsE
 3365              	.LFB1622:
 3366              		.cfi_startproc
 3367              		.cfi_personality 0x3,__gxx_personality_v0
 3368              		.cfi_lsda 0x3,.LLSDA1622
 3369 1a90 4157     		pushq	%r15
 3370              		.cfi_def_cfa_offset 16
 3371              		.cfi_offset 15, -16
 3372 1a92 4989CF   		movq	%rcx, %r15
 3373 1a95 4156     		pushq	%r14
 3374              		.cfi_def_cfa_offset 24
 3375              		.cfi_offset 14, -24
 3376 1a97 4D89C6   		movq	%r8, %r14
 3377 1a9a 4155     		pushq	%r13
 3378              		.cfi_def_cfa_offset 32
 3379              		.cfi_offset 13, -32
 3380 1a9c 4989FD   		movq	%rdi, %r13
 3381 1a9f 4154     		pushq	%r12
 3382              		.cfi_def_cfa_offset 40
 3383              		.cfi_offset 12, -40
 3384 1aa1 4989F4   		movq	%rsi, %r12
 3385 1aa4 55       		pushq	%rbp
 3386              		.cfi_def_cfa_offset 48
 3387              		.cfi_offset 6, -48
 3388 1aa5 4889D5   		movq	%rdx, %rbp
 3389 1aa8 53       		pushq	%rbx
 3390              		.cfi_def_cfa_offset 56
 3391              		.cfi_offset 3, -56
 3392 1aa9 4881EC98 		subq	$408, %rsp
 3392      010000
 3393              		.cfi_def_cfa_offset 464
 3394 1ab0 F30F2A16 		cvtsi2ss	(%rsi), %xmm2
 3395 1ab4 0F28DA   		movaps	%xmm2, %xmm3
 3396 1ab7 F30F1001 		movss	(%rcx), %xmm0
 3397 1abb F30F2A0A 		cvtsi2ss	(%rdx), %xmm1
 3398 1abf 31D2     		xorl	%edx, %edx
 3399 1ac1 F30F5CD8 		subss	%xmm0, %xmm3
 3400 1ac5 0F2ECB   		ucomiss	%xmm3, %xmm1
 3401 1ac8 720A     		jb	.L405
 3402 1aca F30F58D0 		addss	%xmm0, %xmm2
 3403 1ace 0F2ED1   		ucomiss	%xmm1, %xmm2
 3404 1ad1 0F93C2   		setnb	%dl
 3405              	.L405:
 3406 1ad4 F3410F2A 		cvtsi2ss	4(%r12), %xmm2
 3406      542404
 3407 1adb 0F28DA   		movaps	%xmm2, %xmm3
 3408 1ade F30F2A4D 		cvtsi2ss	4(%rbp), %xmm1
 3408      04
 3409 1ae3 31C0     		xorl	%eax, %eax
 3410 1ae5 F30F5CD8 		subss	%xmm0, %xmm3
 3411 1ae9 0F2ECB   		ucomiss	%xmm3, %xmm1
 3412 1aec 720C     		jb	.L407
 3413 1aee F30F58D0 		addss	%xmm0, %xmm2
 3414 1af2 31C0     		xorl	%eax, %eax
 3415 1af4 0F2ED1   		ucomiss	%xmm1, %xmm2
 3416 1af7 0F43C2   		cmovnb	%edx, %eax
 3417              	.L407:
 3418 1afa F3410F2A 		cvtsi2ss	8(%r12), %xmm2
 3418      542408
 3419 1b01 0F28DA   		movaps	%xmm2, %xmm3
 3420 1b04 F30F2A4D 		cvtsi2ss	8(%rbp), %xmm1
 3420      08
 3421 1b09 31D2     		xorl	%edx, %edx
 3422 1b0b F30F5CD8 		subss	%xmm0, %xmm3
 3423 1b0f 0F2ECB   		ucomiss	%xmm3, %xmm1
 3424 1b12 720A     		jb	.L410
 3425 1b14 F30F58D0 		addss	%xmm0, %xmm2
 3426 1b18 0F2ED1   		ucomiss	%xmm1, %xmm2
 3427 1b1b 0F93C2   		setnb	%dl
 3428              	.L410:
 3429 1b1e F3410F2A 		cvtsi2ss	12(%r12), %xmm2
 3429      54240C
 3430 1b25 0F28DA   		movaps	%xmm2, %xmm3
 3431 1b28 F30F2A4D 		cvtsi2ss	12(%rbp), %xmm1
 3431      0C
 3432 1b2d F30F5CD8 		subss	%xmm0, %xmm3
 3433 1b31 0F2ECB   		ucomiss	%xmm3, %xmm1
 3434 1b34 0F834E03 		jnb	.L458
 3434      0000
 3435              	.L412:
 3436 1b3a 488D9C24 		leaq	128(%rsp), %rbx
 3436      80000000 
 3437 1b42 4889DF   		movq	%rbx, %rdi
 3438 1b45 E8000000 		call	_ZNSt8ios_baseC2Ev
 3438      00
 3439 1b4a 31F6     		xorl	%esi, %esi
 3440 1b4c 4889DF   		movq	%rbx, %rdi
 3441 1b4f 48C78424 		movq	$0, 344(%rsp)
 3441      58010000 
 3441      00000000 
 3442 1b5b C6842460 		movb	$0, 352(%rsp)
 3442      01000000 
 3443 1b63 C6842461 		movb	$0, 353(%rsp)
 3443      01000000 
 3444 1b6b 48C78424 		movq	$0, 360(%rsp)
 3444      68010000 
 3444      00000000 
 3445 1b77 48C78424 		movq	$0, 368(%rsp)
 3445      70010000 
 3445      00000000 
 3446 1b83 48C78424 		movq	$0, 376(%rsp)
 3446      78010000 
 3446      00000000 
 3447 1b8f 48C78424 		movq	$0, 384(%rsp)
 3447      80010000 
 3447      00000000 
 3448 1b9b 48C74424 		movq	$_ZTCN8UnitTest15MemoryOutStreamE0_So+24, 32(%rsp)
 3448      20000000 
 3448      00
 3449 1ba4 48C78424 		movq	$_ZTCN8UnitTest15MemoryOutStreamE0_So+64, 128(%rsp)
 3449      80000000 
 3449      00000000 
 3450              	.LEHB24:
 3451 1bb0 E8000000 		call	_ZNSt9basic_iosIcSt11char_traitsIcEE4initEPSt15basic_streambufIcS1_E
 3451      00
 3452              	.LEHE24:
 3453 1bb5 488D7C24 		leaq	96(%rsp), %rdi
 3453      60
 3454 1bba 48C74424 		movq	$_ZTCN8UnitTest15MemoryOutStreamE0_St19basic_ostringstreamIcSt11char_traitsIcESaIcEE+24, 32(%
 3454      20000000 
 3454      00
 3455 1bc3 48C78424 		movq	$_ZTCN8UnitTest15MemoryOutStreamE0_St19basic_ostringstreamIcSt11char_traitsIcESaIcEE+64, 128(
 3455      80000000 
 3455      00000000 
 3456 1bcf 48C74424 		movq	$_ZTVSt15basic_streambufIcSt11char_traitsIcEE+16, 40(%rsp)
 3456      28000000 
 3456      00
 3457 1bd8 48C74424 		movq	$0, 48(%rsp)
 3457      30000000 
 3457      00
 3458 1be1 48C74424 		movq	$0, 56(%rsp)
 3458      38000000 
 3458      00
 3459 1bea 48C74424 		movq	$0, 64(%rsp)
 3459      40000000 
 3459      00
 3460 1bf3 48C74424 		movq	$0, 72(%rsp)
 3460      48000000 
 3460      00
 3461 1bfc 48C74424 		movq	$0, 80(%rsp)
 3461      50000000 
 3461      00
 3462 1c05 48C74424 		movq	$0, 88(%rsp)
 3462      58000000 
 3462      00
 3463 1c0e E8000000 		call	_ZNSt6localeC1Ev
 3463      00
 3464 1c13 488B4424 		movq	32(%rsp), %rax
 3464      20
 3465 1c18 488D7C24 		leaq	32(%rsp), %rdi
 3465      20
 3466 1c1d 488D7424 		leaq	40(%rsp), %rsi
 3466      28
 3467 1c22 48C74424 		movq	$_ZTVSt15basic_stringbufIcSt11char_traitsIcESaIcEE+16, 40(%rsp)
 3467      28000000 
 3467      00
 3468 1c2b C7442468 		movl	$16, 104(%rsp)
 3468      10000000 
 3469 1c33 48C74424 		movq	$_ZNSs4_Rep20_S_empty_rep_storageE+24, 112(%rsp)
 3469      70000000 
 3469      00
 3470 1c3c 480378E8 		addq	-24(%rax), %rdi
 3471              	.LEHB25:
 3472 1c40 E8000000 		call	_ZNSt9basic_iosIcSt11char_traitsIcEE4initEPSt15basic_streambufIcS1_E
 3472      00
 3473              	.LEHE25:
 3474 1c45 488D7C24 		leaq	32(%rsp), %rdi
 3474      20
 3475 1c4a BA0B0000 		movl	$11, %edx
 3475      00
 3476 1c4f BE000000 		movl	$.LC2, %esi
 3476      00
 3477 1c54 48C74424 		movq	$_ZTVN8UnitTest15MemoryOutStreamE+24, 32(%rsp)
 3477      20000000 
 3477      00
 3478 1c5d 48C78424 		movq	$_ZTVN8UnitTest15MemoryOutStreamE+64, 128(%rsp)
 3478      80000000 
 3478      00000000 
 3479 1c69 48C74424 		movq	$_ZNSs4_Rep20_S_empty_rep_storageE+24, 120(%rsp)
 3479      78000000 
 3479      00
 3480              	.LEHB26:
 3481 1c72 E8000000 		call	_ZSt16__ostream_insertIcSt11char_traitsIcEERSt13basic_ostreamIT_T0_ES6_PKS3_l
 3481      00
 3482 1c77 31DB     		xorl	%ebx, %ebx
 3483 1c79 0F1F8000 		.p2align 4,,10
 3483      000000
 3484              		.p2align 3
 3485              	.L422:
 3486 1c80 488D7C24 		leaq	32(%rsp), %rdi
 3486      20
 3487 1c85 BA020000 		movl	$2, %edx
 3487      00
 3488 1c8a BE000000 		movl	$.LC8, %esi
 3488      00
 3489 1c8f E8000000 		call	_ZSt16__ostream_insertIcSt11char_traitsIcEERSt13basic_ostreamIT_T0_ES6_PKS3_l
 3489      00
 3490 1c94 418B341C 		movl	(%r12,%rbx), %esi
 3491 1c98 488D7C24 		leaq	32(%rsp), %rdi
 3491      20
 3492 1c9d E8000000 		call	_ZNSolsEi
 3492      00
 3493 1ca2 BA010000 		movl	$1, %edx
 3493      00
 3494 1ca7 BE000000 		movl	$.LC3, %esi
 3494      00
 3495 1cac 4889C7   		movq	%rax, %rdi
 3496 1caf E8000000 		call	_ZSt16__ostream_insertIcSt11char_traitsIcEERSt13basic_ostreamIT_T0_ES6_PKS3_l
 3496      00
 3497 1cb4 418B741C 		movl	4(%r12,%rbx), %esi
 3497      04
 3498 1cb9 488D7C24 		leaq	32(%rsp), %rdi
 3498      20
 3499 1cbe E8000000 		call	_ZNSolsEi
 3499      00
 3500 1cc3 BA010000 		movl	$1, %edx
 3500      00
 3501 1cc8 BE000000 		movl	$.LC3, %esi
 3501      00
 3502 1ccd 4889C7   		movq	%rax, %rdi
 3503 1cd0 E8000000 		call	_ZSt16__ostream_insertIcSt11char_traitsIcEERSt13basic_ostreamIT_T0_ES6_PKS3_l
 3503      00
 3504 1cd5 488D7C24 		leaq	32(%rsp), %rdi
 3504      20
 3505 1cda BA020000 		movl	$2, %edx
 3505      00
 3506 1cdf BE000000 		movl	$.LC9, %esi
 3506      00
 3507 1ce4 E8000000 		call	_ZSt16__ostream_insertIcSt11char_traitsIcEERSt13basic_ostreamIT_T0_ES6_PKS3_l
 3507      00
 3508 1ce9 4883C308 		addq	$8, %rbx
 3509 1ced 4883FB10 		cmpq	$16, %rbx
 3510 1cf1 758D     		jne	.L422
 3511 1cf3 488D7C24 		leaq	32(%rsp), %rdi
 3511      20
 3512 1cf8 F3410F10 		movss	(%r15), %xmm4
 3512      27
 3513 1cfd BA060000 		movl	$6, %edx
 3513      00
 3514 1d02 BE000000 		movl	$.LC6, %esi
 3514      00
 3515 1d07 F30F1164 		movss	%xmm4, 12(%rsp)
 3515      240C
 3516 1d0d E8000000 		call	_ZSt16__ostream_insertIcSt11char_traitsIcEERSt13basic_ostreamIT_T0_ES6_PKS3_l
 3516      00
 3517 1d12 F30F1044 		movss	12(%rsp), %xmm0
 3517      240C
 3518 1d18 488D7C24 		leaq	32(%rsp), %rdi
 3518      20
 3519 1d1d 0F5AC0   		cvtps2pd	%xmm0, %xmm0
 3520 1d20 E8000000 		call	_ZNSo9_M_insertIdEERSoT_
 3520      00
 3521 1d25 BA0B0000 		movl	$11, %edx
 3521      00
 3522 1d2a BE000000 		movl	$.LC7, %esi
 3522      00
 3523 1d2f 4889C7   		movq	%rax, %rdi
 3524 1d32 E8000000 		call	_ZSt16__ostream_insertIcSt11char_traitsIcEERSt13basic_ostreamIT_T0_ES6_PKS3_l
 3524      00
 3525 1d37 30DB     		xorb	%bl, %bl
 3526 1d39 0F1F8000 		.p2align 4,,10
 3526      000000
 3527              		.p2align 3
 3528              	.L424:
 3529 1d40 488D7C24 		leaq	32(%rsp), %rdi
 3529      20
 3530 1d45 BA020000 		movl	$2, %edx
 3530      00
 3531 1d4a BE000000 		movl	$.LC8, %esi
 3531      00
 3532 1d4f E8000000 		call	_ZSt16__ostream_insertIcSt11char_traitsIcEERSt13basic_ostreamIT_T0_ES6_PKS3_l
 3532      00
 3533 1d54 8B741D00 		movl	0(%rbp,%rbx), %esi
 3534 1d58 488D7C24 		leaq	32(%rsp), %rdi
 3534      20
 3535 1d5d E8000000 		call	_ZNSolsEi
 3535      00
 3536 1d62 BA010000 		movl	$1, %edx
 3536      00
 3537 1d67 BE000000 		movl	$.LC3, %esi
 3537      00
 3538 1d6c 4889C7   		movq	%rax, %rdi
 3539 1d6f E8000000 		call	_ZSt16__ostream_insertIcSt11char_traitsIcEERSt13basic_ostreamIT_T0_ES6_PKS3_l
 3539      00
 3540 1d74 8B741D04 		movl	4(%rbp,%rbx), %esi
 3541 1d78 488D7C24 		leaq	32(%rsp), %rdi
 3541      20
 3542 1d7d E8000000 		call	_ZNSolsEi
 3542      00
 3543 1d82 BA010000 		movl	$1, %edx
 3543      00
 3544 1d87 BE000000 		movl	$.LC3, %esi
 3544      00
 3545 1d8c 4889C7   		movq	%rax, %rdi
 3546 1d8f E8000000 		call	_ZSt16__ostream_insertIcSt11char_traitsIcEERSt13basic_ostreamIT_T0_ES6_PKS3_l
 3546      00
 3547 1d94 488D7C24 		leaq	32(%rsp), %rdi
 3547      20
 3548 1d99 BA020000 		movl	$2, %edx
 3548      00
 3549 1d9e BE000000 		movl	$.LC9, %esi
 3549      00
 3550 1da3 E8000000 		call	_ZSt16__ostream_insertIcSt11char_traitsIcEERSt13basic_ostreamIT_T0_ES6_PKS3_l
 3550      00
 3551 1da8 4883C308 		addq	$8, %rbx
 3552 1dac 4883FB10 		cmpq	$16, %rbx
 3553 1db0 758E     		jne	.L424
 3554 1db2 488D7C24 		leaq	32(%rsp), %rdi
 3554      20
 3555 1db7 BA010000 		movl	$1, %edx
 3555      00
 3556 1dbc BE000000 		movl	$.LC5, %esi
 3556      00
 3557 1dc1 E8000000 		call	_ZSt16__ostream_insertIcSt11char_traitsIcEERSt13basic_ostreamIT_T0_ES6_PKS3_l
 3557      00
 3558 1dc6 488D7C24 		leaq	32(%rsp), %rdi
 3558      20
 3559 1dcb E8000000 		call	_ZNK8UnitTest15MemoryOutStream7GetTextEv
 3559      00
 3560 1dd0 4889C2   		movq	%rax, %rdx
 3561 1dd3 4C89F6   		movq	%r14, %rsi
 3562 1dd6 4C89EF   		movq	%r13, %rdi
 3563 1dd9 E8000000 		call	_ZN8UnitTest11TestResults13OnTestFailureERKNS_11TestDetailsEPKc
 3563      00
 3564              	.LEHE26:
 3565 1dde 488B4424 		movq	120(%rsp), %rax
 3565      78
 3566 1de3 48C74424 		movq	$_ZTVN8UnitTest15MemoryOutStreamE+24, 32(%rsp)
 3566      20000000 
 3566      00
 3567 1dec 48C78424 		movq	$_ZTVN8UnitTest15MemoryOutStreamE+64, 128(%rsp)
 3567      80000000 
 3567      00000000 
 3568 1df8 488D78E8 		leaq	-24(%rax), %rdi
 3569 1dfc 4881FF00 		cmpq	$_ZNSs4_Rep20_S_empty_rep_storageE, %rdi
 3569      000000
 3570 1e03 0F859D00 		jne	.L459
 3570      0000
 3571              	.L426:
 3572 1e09 488B4424 		movq	112(%rsp), %rax
 3572      70
 3573 1e0e 48C74424 		movq	$_ZTCN8UnitTest15MemoryOutStreamE0_St19basic_ostringstreamIcSt11char_traitsIcESaIcEE+24, 32(%
 3573      20000000 
 3573      00
 3574 1e17 48C78424 		movq	$_ZTCN8UnitTest15MemoryOutStreamE0_St19basic_ostringstreamIcSt11char_traitsIcESaIcEE+64, 128(
 3574      80000000 
 3574      00000000 
 3575 1e23 48C74424 		movq	$_ZTVSt15basic_stringbufIcSt11char_traitsIcESaIcEE+16, 40(%rsp)
 3575      28000000 
 3575      00
 3576 1e2c 488D78E8 		leaq	-24(%rax), %rdi
 3577 1e30 4881FF00 		cmpq	$_ZNSs4_Rep20_S_empty_rep_storageE, %rdi
 3577      000000
 3578 1e37 0F85D700 		jne	.L460
 3578      0000
 3579              	.L431:
 3580 1e3d 488D7C24 		leaq	96(%rsp), %rdi
 3580      60
 3581 1e42 48C74424 		movq	$_ZTVSt15basic_streambufIcSt11char_traitsIcEE+16, 40(%rsp)
 3581      28000000 
 3581      00
 3582 1e4b E8000000 		call	_ZNSt6localeD1Ev
 3582      00
 3583 1e50 488DBC24 		leaq	128(%rsp), %rdi
 3583      80000000 
 3584 1e58 48C74424 		movq	$_ZTCN8UnitTest15MemoryOutStreamE0_So+24, 32(%rsp)
 3584      20000000 
 3584      00
 3585 1e61 48C78424 		movq	$_ZTVSt9basic_iosIcSt11char_traitsIcEE+16, 128(%rsp)
 3585      80000000 
 3585      00000000 
 3586              	.LEHB27:
 3587 1e6d E8000000 		call	_ZNSt8ios_baseD2Ev
 3587      00
 3588              	.LEHE27:
 3589              	.L404:
 3590 1e72 4881C498 		addq	$408, %rsp
 3590      010000
 3591              		.cfi_remember_state
 3592              		.cfi_def_cfa_offset 56
 3593 1e79 5B       		popq	%rbx
 3594              		.cfi_def_cfa_offset 48
 3595 1e7a 5D       		popq	%rbp
 3596              		.cfi_def_cfa_offset 40
 3597 1e7b 415C     		popq	%r12
 3598              		.cfi_def_cfa_offset 32
 3599 1e7d 415D     		popq	%r13
 3600              		.cfi_def_cfa_offset 24
 3601 1e7f 415E     		popq	%r14
 3602              		.cfi_def_cfa_offset 16
 3603 1e81 415F     		popq	%r15
 3604              		.cfi_def_cfa_offset 8
 3605 1e83 C3       		ret
 3606              		.p2align 4,,10
 3607 1e84 0F1F4000 		.p2align 3
 3608              	.L458:
 3609              		.cfi_restore_state
 3610 1e88 F30F58C2 		addss	%xmm2, %xmm0
 3611 1e8c 0F2EC1   		ucomiss	%xmm1, %xmm0
 3612 1e8f 0F82A5FC 		jb	.L412
 3612      FFFF
 3613 1e95 84D2     		testb	%dl, %dl
 3614 1e97 0F849DFC 		je	.L412
 3614      FFFF
 3615 1e9d 84C0     		testb	%al, %al
 3616 1e9f 75D1     		jne	.L404
 3617              		.p2align 4,,7
 3618 1ea1 E994FCFF 		jmp	.L412
 3618      FF
 3619              	.L459:
 3620 1ea6 B9000000 		movl	$_ZL28__gthrw___pthread_key_createPjPFvPvE, %ecx
 3620      00
 3621 1eab 488D5710 		leaq	16(%rdi), %rdx
 3622 1eaf 4885C9   		testq	%rcx, %rcx
 3623 1eb2 0F849F00 		je	.L427
 3623      0000
 3624 1eb8 B8FFFFFF 		movl	$-1, %eax
 3624      FF
 3625 1ebd F00FC102 		lock xaddl	%eax, (%rdx)
 3626              	.L428:
 3627 1ec1 85C0     		testl	%eax, %eax
 3628 1ec3 0F8F40FF 		jg	.L426
 3628      FFFF
 3629 1ec9 488D7424 		leaq	31(%rsp), %rsi
 3629      1F
 3630 1ece E8000000 		call	_ZNSs4_Rep10_M_destroyERKSaIcE
 3630      00
 3631 1ed3 E931FFFF 		jmp	.L426
 3631      FF
 3632              	.L442:
 3633 1ed8 488D7C24 		leaq	40(%rsp), %rdi
 3633      28
 3634 1edd 4889C3   		movq	%rax, %rbx
 3635 1ee0 E8000000 		call	_ZNSt15basic_stringbufIcSt11char_traitsIcESaIcEED1Ev
 3635      00
 3636 1ee5 48C74424 		movq	$_ZTCN8UnitTest15MemoryOutStreamE0_So+24, 32(%rsp)
 3636      20000000 
 3636      00
 3637              	.L419:
 3638 1eee 488DBC24 		leaq	128(%rsp), %rdi
 3638      80000000 
 3639 1ef6 48C78424 		movq	$_ZTVSt9basic_iosIcSt11char_traitsIcEE+16, 128(%rsp)
 3639      80000000 
 3639      00000000 
 3640 1f02 E8000000 		call	_ZNSt8ios_baseD2Ev
 3640      00
 3641 1f07 4889DF   		movq	%rbx, %rdi
 3642              	.LEHB28:
 3643 1f0a E8000000 		call	_Unwind_Resume
 3643      00
 3644              	.LEHE28:
 3645              	.L441:
 3646 1f0f 4889C3   		movq	%rax, %rbx
 3647 1f12 EBDA     		jmp	.L419
 3648              	.L460:
 3649 1f14 B9000000 		movl	$_ZL28__gthrw___pthread_key_createPjPFvPvE, %ecx
 3649      00
 3650 1f19 488D5710 		leaq	16(%rdi), %rdx
 3651 1f1d 4885C9   		testq	%rcx, %rcx
 3652 1f20 7445     		je	.L432
 3653 1f22 B8FFFFFF 		movl	$-1, %eax
 3653      FF
 3654 1f27 F00FC102 		lock xaddl	%eax, (%rdx)
 3655              	.L433:
 3656 1f2b 85C0     		testl	%eax, %eax
 3657 1f2d 0F8F0AFF 		jg	.L431
 3657      FFFF
 3658 1f33 488D7424 		leaq	31(%rsp), %rsi
 3658      1F
 3659 1f38 E8000000 		call	_ZNSs4_Rep10_M_destroyERKSaIcE
 3659      00
 3660 1f3d E9FBFEFF 		jmp	.L431
 3660      FF
 3661              	.L440:
 3662 1f42 488D7C24 		leaq	32(%rsp), %rdi
 3662      20
 3663 1f47 4889C3   		movq	%rax, %rbx
 3664 1f4a E8000000 		call	_ZN8UnitTest15MemoryOutStreamD1Ev
 3664      00
 3665 1f4f 4889DF   		movq	%rbx, %rdi
 3666              	.LEHB29:
 3667 1f52 E8000000 		call	_Unwind_Resume
 3667      00
 3668              	.LEHE29:
 3669              	.L427:
 3670 1f57 8B50F8   		movl	-8(%rax), %edx
 3671 1f5a 8D4AFF   		leal	-1(%rdx), %ecx
 3672 1f5d 8948F8   		movl	%ecx, -8(%rax)
 3673 1f60 89D0     		movl	%edx, %eax
 3674 1f62 E95AFFFF 		jmp	.L428
 3674      FF
 3675              	.L432:
 3676 1f67 8B50F8   		movl	-8(%rax), %edx
 3677 1f6a 8D4AFF   		leal	-1(%rdx), %ecx
 3678 1f6d 8948F8   		movl	%ecx, -8(%rax)
 3679 1f70 89D0     		movl	%edx, %eax
 3680 1f72 EBB7     		jmp	.L433
 3681              		.cfi_endproc
 3682              	.LFE1622:
 3683              		.section	.gcc_except_table
 3684              	.LLSDA1622:
 3685 0098 FF       		.byte	0xff
 3686 0099 FF       		.byte	0xff
 3687 009a 01       		.byte	0x1
 3688 009b 22       		.uleb128 .LLSDACSE1622-.LLSDACSB1622
 3689              	.LLSDACSB1622:
 3690 009c A002     		.uleb128 .LEHB24-.LFB1622
 3691 009e 05       		.uleb128 .LEHE24-.LEHB24
 3692 009f FF08     		.uleb128 .L441-.LFB1622
 3693 00a1 00       		.uleb128 0
 3694 00a2 B003     		.uleb128 .LEHB25-.LFB1622
 3695 00a4 05       		.uleb128 .LEHE25-.LEHB25
 3696 00a5 C808     		.uleb128 .L442-.LFB1622
 3697 00a7 00       		.uleb128 0
 3698 00a8 E203     		.uleb128 .LEHB26-.LFB1622
 3699 00aa EC02     		.uleb128 .LEHE26-.LEHB26
 3700 00ac B209     		.uleb128 .L440-.LFB1622
 3701 00ae 00       		.uleb128 0
 3702 00af DD07     		.uleb128 .LEHB27-.LFB1622
 3703 00b1 05       		.uleb128 .LEHE27-.LEHB27
 3704 00b2 00       		.uleb128 0
 3705 00b3 00       		.uleb128 0
 3706 00b4 FA08     		.uleb128 .LEHB28-.LFB1622
 3707 00b6 05       		.uleb128 .LEHE28-.LEHB28
 3708 00b7 00       		.uleb128 0
 3709 00b8 00       		.uleb128 0
 3710 00b9 C209     		.uleb128 .LEHB29-.LFB1622
 3711 00bb 05       		.uleb128 .LEHE29-.LEHB29
 3712 00bc 00       		.uleb128 0
 3713 00bd 00       		.uleb128 0
 3714              	.LLSDACSE1622:
 3715              		.text
 3717 1f74 6666662E 		.p2align 4,,15
 3717      0F1F8400 
 3717      00000000 
 3719              	_ZN8UnitTest17CheckArray2DCloseIA2_A2_fS2_fEEvRNS_11TestResultsERKT_RKT0_iiRKT1_RKNS_11TestDetailsE
 3720              	.LFB1621:
 3721              		.cfi_startproc
 3722              		.cfi_personality 0x3,__gxx_personality_v0
 3723              		.cfi_lsda 0x3,.LLSDA1621
 3724 1f80 4157     		pushq	%r15
 3725              		.cfi_def_cfa_offset 16
 3726              		.cfi_offset 15, -16
 3727 1f82 4989CF   		movq	%rcx, %r15
 3728 1f85 4156     		pushq	%r14
 3729              		.cfi_def_cfa_offset 24
 3730              		.cfi_offset 14, -24
 3731 1f87 4D89C6   		movq	%r8, %r14
 3732 1f8a 4155     		pushq	%r13
 3733              		.cfi_def_cfa_offset 32
 3734              		.cfi_offset 13, -32
 3735 1f8c 4989FD   		movq	%rdi, %r13
 3736 1f8f 4154     		pushq	%r12
 3737              		.cfi_def_cfa_offset 40
 3738              		.cfi_offset 12, -40
 3739 1f91 4989F4   		movq	%rsi, %r12
 3740 1f94 55       		pushq	%rbp
 3741              		.cfi_def_cfa_offset 48
 3742              		.cfi_offset 6, -48
 3743 1f95 4889D5   		movq	%rdx, %rbp
 3744 1f98 53       		pushq	%rbx
 3745              		.cfi_def_cfa_offset 56
 3746              		.cfi_offset 3, -56
 3747 1f99 4881EC98 		subq	$408, %rsp
 3747      010000
 3748              		.cfi_def_cfa_offset 464
 3749 1fa0 F30F1016 		movss	(%rsi), %xmm2
 3750 1fa4 0F28DA   		movaps	%xmm2, %xmm3
 3751 1fa7 F30F1001 		movss	(%rcx), %xmm0
 3752 1fab F30F100A 		movss	(%rdx), %xmm1
 3753 1faf 31D2     		xorl	%edx, %edx
 3754 1fb1 F30F5CD8 		subss	%xmm0, %xmm3
 3755 1fb5 0F2ECB   		ucomiss	%xmm3, %xmm1
 3756 1fb8 720A     		jb	.L462
 3757 1fba F30F58D0 		addss	%xmm0, %xmm2
 3758 1fbe 0F2ED1   		ucomiss	%xmm1, %xmm2
 3759 1fc1 0F93C2   		setnb	%dl
 3760              	.L462:
 3761 1fc4 F3410F10 		movss	4(%r12), %xmm2
 3761      542404
 3762 1fcb 31C0     		xorl	%eax, %eax
 3763 1fcd 0F28DA   		movaps	%xmm2, %xmm3
 3764 1fd0 F30F104D 		movss	4(%rbp), %xmm1
 3764      04
 3765 1fd5 F30F5CD8 		subss	%xmm0, %xmm3
 3766 1fd9 0F2ECB   		ucomiss	%xmm3, %xmm1
 3767 1fdc 720C     		jb	.L464
 3768 1fde F30F58D0 		addss	%xmm0, %xmm2
 3769 1fe2 31C0     		xorl	%eax, %eax
 3770 1fe4 0F2ED1   		ucomiss	%xmm1, %xmm2
 3771 1fe7 0F43C2   		cmovnb	%edx, %eax
 3772              	.L464:
 3773 1fea F3410F10 		movss	8(%r12), %xmm2
 3773      542408
 3774 1ff1 31D2     		xorl	%edx, %edx
 3775 1ff3 0F28DA   		movaps	%xmm2, %xmm3
 3776 1ff6 F30F104D 		movss	8(%rbp), %xmm1
 3776      08
 3777 1ffb F30F5CD8 		subss	%xmm0, %xmm3
 3778 1fff 0F2ECB   		ucomiss	%xmm3, %xmm1
 3779 2002 720A     		jb	.L467
 3780 2004 F30F58D0 		addss	%xmm0, %xmm2
 3781 2008 0F2ED1   		ucomiss	%xmm1, %xmm2
 3782 200b 0F93C2   		setnb	%dl
 3783              	.L467:
 3784 200e F3410F10 		movss	12(%r12), %xmm2
 3784      54240C
 3785 2015 0F28DA   		movaps	%xmm2, %xmm3
 3786 2018 F30F104D 		movss	12(%rbp), %xmm1
 3786      0C
 3787 201d F30F5CD8 		subss	%xmm0, %xmm3
 3788 2021 0F2ECB   		ucomiss	%xmm3, %xmm1
 3789 2024 0F836603 		jnb	.L515
 3789      0000
 3790              	.L469:
 3791 202a 488D9C24 		leaq	128(%rsp), %rbx
 3791      80000000 
 3792 2032 4889DF   		movq	%rbx, %rdi
 3793 2035 E8000000 		call	_ZNSt8ios_baseC2Ev
 3793      00
 3794 203a 31F6     		xorl	%esi, %esi
 3795 203c 4889DF   		movq	%rbx, %rdi
 3796 203f 48C78424 		movq	$0, 344(%rsp)
 3796      58010000 
 3796      00000000 
 3797 204b C6842460 		movb	$0, 352(%rsp)
 3797      01000000 
 3798 2053 C6842461 		movb	$0, 353(%rsp)
 3798      01000000 
 3799 205b 48C78424 		movq	$0, 360(%rsp)
 3799      68010000 
 3799      00000000 
 3800 2067 48C78424 		movq	$0, 368(%rsp)
 3800      70010000 
 3800      00000000 
 3801 2073 48C78424 		movq	$0, 376(%rsp)
 3801      78010000 
 3801      00000000 
 3802 207f 48C78424 		movq	$0, 384(%rsp)
 3802      80010000 
 3802      00000000 
 3803 208b 48C74424 		movq	$_ZTCN8UnitTest15MemoryOutStreamE0_So+24, 32(%rsp)
 3803      20000000 
 3803      00
 3804 2094 48C78424 		movq	$_ZTCN8UnitTest15MemoryOutStreamE0_So+64, 128(%rsp)
 3804      80000000 
 3804      00000000 
 3805              	.LEHB30:
 3806 20a0 E8000000 		call	_ZNSt9basic_iosIcSt11char_traitsIcEE4initEPSt15basic_streambufIcS1_E
 3806      00
 3807              	.LEHE30:
 3808 20a5 488D7C24 		leaq	96(%rsp), %rdi
 3808      60
 3809 20aa 48C74424 		movq	$_ZTCN8UnitTest15MemoryOutStreamE0_St19basic_ostringstreamIcSt11char_traitsIcESaIcEE+24, 32(%
 3809      20000000 
 3809      00
 3810 20b3 48C78424 		movq	$_ZTCN8UnitTest15MemoryOutStreamE0_St19basic_ostringstreamIcSt11char_traitsIcESaIcEE+64, 128(
 3810      80000000 
 3810      00000000 
 3811 20bf 48C74424 		movq	$_ZTVSt15basic_streambufIcSt11char_traitsIcEE+16, 40(%rsp)
 3811      28000000 
 3811      00
 3812 20c8 48C74424 		movq	$0, 48(%rsp)
 3812      30000000 
 3812      00
 3813 20d1 48C74424 		movq	$0, 56(%rsp)
 3813      38000000 
 3813      00
 3814 20da 48C74424 		movq	$0, 64(%rsp)
 3814      40000000 
 3814      00
 3815 20e3 48C74424 		movq	$0, 72(%rsp)
 3815      48000000 
 3815      00
 3816 20ec 48C74424 		movq	$0, 80(%rsp)
 3816      50000000 
 3816      00
 3817 20f5 48C74424 		movq	$0, 88(%rsp)
 3817      58000000 
 3817      00
 3818 20fe E8000000 		call	_ZNSt6localeC1Ev
 3818      00
 3819 2103 488B4424 		movq	32(%rsp), %rax
 3819      20
 3820 2108 488D7C24 		leaq	32(%rsp), %rdi
 3820      20
 3821 210d 488D7424 		leaq	40(%rsp), %rsi
 3821      28
 3822 2112 48C74424 		movq	$_ZTVSt15basic_stringbufIcSt11char_traitsIcESaIcEE+16, 40(%rsp)
 3822      28000000 
 3822      00
 3823 211b C7442468 		movl	$16, 104(%rsp)
 3823      10000000 
 3824 2123 48C74424 		movq	$_ZNSs4_Rep20_S_empty_rep_storageE+24, 112(%rsp)
 3824      70000000 
 3824      00
 3825 212c 480378E8 		addq	-24(%rax), %rdi
 3826              	.LEHB31:
 3827 2130 E8000000 		call	_ZNSt9basic_iosIcSt11char_traitsIcEE4initEPSt15basic_streambufIcS1_E
 3827      00
 3828              	.LEHE31:
 3829 2135 488D7C24 		leaq	32(%rsp), %rdi
 3829      20
 3830 213a BA0B0000 		movl	$11, %edx
 3830      00
 3831 213f BE000000 		movl	$.LC2, %esi
 3831      00
 3832 2144 48C74424 		movq	$_ZTVN8UnitTest15MemoryOutStreamE+24, 32(%rsp)
 3832      20000000 
 3832      00
 3833 214d 48C78424 		movq	$_ZTVN8UnitTest15MemoryOutStreamE+64, 128(%rsp)
 3833      80000000 
 3833      00000000 
 3834 2159 48C74424 		movq	$_ZNSs4_Rep20_S_empty_rep_storageE+24, 120(%rsp)
 3834      78000000 
 3834      00
 3835              	.LEHB32:
 3836 2162 E8000000 		call	_ZSt16__ostream_insertIcSt11char_traitsIcEERSt13basic_ostreamIT_T0_ES6_PKS3_l
 3836      00
 3837 2167 31DB     		xorl	%ebx, %ebx
 3838 2169 0F1F8000 		.p2align 4,,10
 3838      000000
 3839              		.p2align 3
 3840              	.L479:
 3841 2170 488D7C24 		leaq	32(%rsp), %rdi
 3841      20
 3842 2175 BA020000 		movl	$2, %edx
 3842      00
 3843 217a BE000000 		movl	$.LC8, %esi
 3843      00
 3844 217f E8000000 		call	_ZSt16__ostream_insertIcSt11char_traitsIcEERSt13basic_ostreamIT_T0_ES6_PKS3_l
 3844      00
 3845 2184 F3410F10 		movss	(%r12,%rbx), %xmm0
 3845      041C
 3846 218a 488D7C24 		leaq	32(%rsp), %rdi
 3846      20
 3847 218f 0F5AC0   		cvtps2pd	%xmm0, %xmm0
 3848 2192 E8000000 		call	_ZNSo9_M_insertIdEERSoT_
 3848      00
 3849 2197 BA010000 		movl	$1, %edx
 3849      00
 3850 219c BE000000 		movl	$.LC3, %esi
 3850      00
 3851 21a1 4889C7   		movq	%rax, %rdi
 3852 21a4 E8000000 		call	_ZSt16__ostream_insertIcSt11char_traitsIcEERSt13basic_ostreamIT_T0_ES6_PKS3_l
 3852      00
 3853 21a9 F3410F10 		movss	4(%r12,%rbx), %xmm0
 3853      441C04
 3854 21b0 488D7C24 		leaq	32(%rsp), %rdi
 3854      20
 3855 21b5 0F5AC0   		cvtps2pd	%xmm0, %xmm0
 3856 21b8 E8000000 		call	_ZNSo9_M_insertIdEERSoT_
 3856      00
 3857 21bd BA010000 		movl	$1, %edx
 3857      00
 3858 21c2 BE000000 		movl	$.LC3, %esi
 3858      00
 3859 21c7 4889C7   		movq	%rax, %rdi
 3860 21ca E8000000 		call	_ZSt16__ostream_insertIcSt11char_traitsIcEERSt13basic_ostreamIT_T0_ES6_PKS3_l
 3860      00
 3861 21cf 488D7C24 		leaq	32(%rsp), %rdi
 3861      20
 3862 21d4 BA020000 		movl	$2, %edx
 3862      00
 3863 21d9 BE000000 		movl	$.LC9, %esi
 3863      00
 3864 21de E8000000 		call	_ZSt16__ostream_insertIcSt11char_traitsIcEERSt13basic_ostreamIT_T0_ES6_PKS3_l
 3864      00
 3865 21e3 4883C308 		addq	$8, %rbx
 3866 21e7 4883FB10 		cmpq	$16, %rbx
 3867 21eb 7583     		jne	.L479
 3868 21ed 488D7C24 		leaq	32(%rsp), %rdi
 3868      20
 3869 21f2 F3410F10 		movss	(%r15), %xmm4
 3869      27
 3870 21f7 BA060000 		movl	$6, %edx
 3870      00
 3871 21fc BE000000 		movl	$.LC6, %esi
 3871      00
 3872 2201 F30F1164 		movss	%xmm4, 12(%rsp)
 3872      240C
 3873 2207 E8000000 		call	_ZSt16__ostream_insertIcSt11char_traitsIcEERSt13basic_ostreamIT_T0_ES6_PKS3_l
 3873      00
 3874 220c F30F1044 		movss	12(%rsp), %xmm0
 3874      240C
 3875 2212 488D7C24 		leaq	32(%rsp), %rdi
 3875      20
 3876 2217 0F5AC0   		cvtps2pd	%xmm0, %xmm0
 3877 221a E8000000 		call	_ZNSo9_M_insertIdEERSoT_
 3877      00
 3878 221f BA0B0000 		movl	$11, %edx
 3878      00
 3879 2224 BE000000 		movl	$.LC7, %esi
 3879      00
 3880 2229 4889C7   		movq	%rax, %rdi
 3881 222c E8000000 		call	_ZSt16__ostream_insertIcSt11char_traitsIcEERSt13basic_ostreamIT_T0_ES6_PKS3_l
 3881      00
 3882 2231 30DB     		xorb	%bl, %bl
 3883              		.p2align 4,,10
 3884 2233 0F1F4400 		.p2align 3
 3884      00
 3885              	.L481:
 3886 2238 488D7C24 		leaq	32(%rsp), %rdi
 3886      20
 3887 223d BA020000 		movl	$2, %edx
 3887      00
 3888 2242 BE000000 		movl	$.LC8, %esi
 3888      00
 3889 2247 E8000000 		call	_ZSt16__ostream_insertIcSt11char_traitsIcEERSt13basic_ostreamIT_T0_ES6_PKS3_l
 3889      00
 3890 224c F30F1044 		movss	0(%rbp,%rbx), %xmm0
 3890      1D00
 3891 2252 488D7C24 		leaq	32(%rsp), %rdi
 3891      20
 3892 2257 0F5AC0   		cvtps2pd	%xmm0, %xmm0
 3893 225a E8000000 		call	_ZNSo9_M_insertIdEERSoT_
 3893      00
 3894 225f BA010000 		movl	$1, %edx
 3894      00
 3895 2264 BE000000 		movl	$.LC3, %esi
 3895      00
 3896 2269 4889C7   		movq	%rax, %rdi
 3897 226c E8000000 		call	_ZSt16__ostream_insertIcSt11char_traitsIcEERSt13basic_ostreamIT_T0_ES6_PKS3_l
 3897      00
 3898 2271 F30F1044 		movss	4(%rbp,%rbx), %xmm0
 3898      1D04
 3899 2277 488D7C24 		leaq	32(%rsp), %rdi
 3899      20
 3900 227c 0F5AC0   		cvtps2pd	%xmm0, %xmm0
 3901 227f E8000000 		call	_ZNSo9_M_insertIdEERSoT_
 3901      00
 3902 2284 BA010000 		movl	$1, %edx
 3902      00
 3903 2289 BE000000 		movl	$.LC3, %esi
 3903      00
 3904 228e 4889C7   		movq	%rax, %rdi
 3905 2291 E8000000 		call	_ZSt16__ostream_insertIcSt11char_traitsIcEERSt13basic_ostreamIT_T0_ES6_PKS3_l
 3905      00
 3906 2296 488D7C24 		leaq	32(%rsp), %rdi
 3906      20
 3907 229b BA020000 		movl	$2, %edx
 3907      00
 3908 22a0 BE000000 		movl	$.LC9, %esi
 3908      00
 3909 22a5 E8000000 		call	_ZSt16__ostream_insertIcSt11char_traitsIcEERSt13basic_ostreamIT_T0_ES6_PKS3_l
 3909      00
 3910 22aa 4883C308 		addq	$8, %rbx
 3911 22ae 4883FB10 		cmpq	$16, %rbx
 3912 22b2 7584     		jne	.L481
 3913 22b4 488D7C24 		leaq	32(%rsp), %rdi
 3913      20
 3914 22b9 BA010000 		movl	$1, %edx
 3914      00
 3915 22be BE000000 		movl	$.LC5, %esi
 3915      00
 3916 22c3 E8000000 		call	_ZSt16__ostream_insertIcSt11char_traitsIcEERSt13basic_ostreamIT_T0_ES6_PKS3_l
 3916      00
 3917 22c8 488D7C24 		leaq	32(%rsp), %rdi
 3917      20
 3918 22cd E8000000 		call	_ZNK8UnitTest15MemoryOutStream7GetTextEv
 3918      00
 3919 22d2 4889C2   		movq	%rax, %rdx
 3920 22d5 4C89F6   		movq	%r14, %rsi
 3921 22d8 4C89EF   		movq	%r13, %rdi
 3922 22db E8000000 		call	_ZN8UnitTest11TestResults13OnTestFailureERKNS_11TestDetailsEPKc
 3922      00
 3923              	.LEHE32:
 3924 22e0 488B4424 		movq	120(%rsp), %rax
 3924      78
 3925 22e5 48C74424 		movq	$_ZTVN8UnitTest15MemoryOutStreamE+24, 32(%rsp)
 3925      20000000 
 3925      00
 3926 22ee 48C78424 		movq	$_ZTVN8UnitTest15MemoryOutStreamE+64, 128(%rsp)
 3926      80000000 
 3926      00000000 
 3927 22fa 488D78E8 		leaq	-24(%rax), %rdi
 3928 22fe 4881FF00 		cmpq	$_ZNSs4_Rep20_S_empty_rep_storageE, %rdi
 3928      000000
 3929 2305 0F85AA00 		jne	.L516
 3929      0000
 3930              	.L483:
 3931 230b 488B4424 		movq	112(%rsp), %rax
 3931      70
 3932 2310 48C74424 		movq	$_ZTCN8UnitTest15MemoryOutStreamE0_St19basic_ostringstreamIcSt11char_traitsIcESaIcEE+24, 32(%
 3932      20000000 
 3932      00
 3933 2319 48C78424 		movq	$_ZTCN8UnitTest15MemoryOutStreamE0_St19basic_ostringstreamIcSt11char_traitsIcESaIcEE+64, 128(
 3933      80000000 
 3933      00000000 
 3934 2325 48C74424 		movq	$_ZTVSt15basic_stringbufIcSt11char_traitsIcESaIcEE+16, 40(%rsp)
 3934      28000000 
 3934      00
 3935 232e 488D78E8 		leaq	-24(%rax), %rdi
 3936 2332 4881FF00 		cmpq	$_ZNSs4_Rep20_S_empty_rep_storageE, %rdi
 3936      000000
 3937 2339 0F85E400 		jne	.L517
 3937      0000
 3938              	.L488:
 3939 233f 488D7C24 		leaq	96(%rsp), %rdi
 3939      60
 3940 2344 48C74424 		movq	$_ZTVSt15basic_streambufIcSt11char_traitsIcEE+16, 40(%rsp)
 3940      28000000 
 3940      00
 3941 234d E8000000 		call	_ZNSt6localeD1Ev
 3941      00
 3942 2352 488DBC24 		leaq	128(%rsp), %rdi
 3942      80000000 
 3943 235a 48C74424 		movq	$_ZTCN8UnitTest15MemoryOutStreamE0_So+24, 32(%rsp)
 3943      20000000 
 3943      00
 3944 2363 48C78424 		movq	$_ZTVSt9basic_iosIcSt11char_traitsIcEE+16, 128(%rsp)
 3944      80000000 
 3944      00000000 
 3945              	.LEHB33:
 3946 236f E8000000 		call	_ZNSt8ios_baseD2Ev
 3946      00
 3947              	.LEHE33:
 3948              	.L461:
 3949 2374 4881C498 		addq	$408, %rsp
 3949      010000
 3950              		.cfi_remember_state
 3951              		.cfi_def_cfa_offset 56
 3952 237b 5B       		popq	%rbx
 3953              		.cfi_def_cfa_offset 48
 3954 237c 5D       		popq	%rbp
 3955              		.cfi_def_cfa_offset 40
 3956 237d 415C     		popq	%r12
 3957              		.cfi_def_cfa_offset 32
 3958 237f 415D     		popq	%r13
 3959              		.cfi_def_cfa_offset 24
 3960 2381 415E     		popq	%r14
 3961              		.cfi_def_cfa_offset 16
 3962 2383 415F     		popq	%r15
 3963              		.cfi_def_cfa_offset 8
 3964 2385 C3       		ret
 3965 2386 662E0F1F 		.p2align 4,,10
 3965      84000000 
 3965      0000
 3966              		.p2align 3
 3967              	.L515:
 3968              		.cfi_restore_state
 3969 2390 F30F58C2 		addss	%xmm2, %xmm0
 3970 2394 0F2EC1   		ucomiss	%xmm1, %xmm0
 3971 2397 0F828DFC 		jb	.L469
 3971      FFFF
 3972 239d 84D2     		testb	%dl, %dl
 3973 239f 0F8485FC 		je	.L469
 3973      FFFF
 3974 23a5 84C0     		testb	%al, %al
 3975 23a7 75CB     		jne	.L461
 3976 23a9 0F1F8000 		.p2align 4,,7
 3976      000000
 3977 23b0 E975FCFF 		jmp	.L469
 3977      FF
 3978              	.L516:
 3979 23b5 B9000000 		movl	$_ZL28__gthrw___pthread_key_createPjPFvPvE, %ecx
 3979      00
 3980 23ba 488D5710 		leaq	16(%rdi), %rdx
 3981 23be 4885C9   		testq	%rcx, %rcx
 3982 23c1 0F849F00 		je	.L484
 3982      0000
 3983 23c7 B8FFFFFF 		movl	$-1, %eax
 3983      FF
 3984 23cc F00FC102 		lock xaddl	%eax, (%rdx)
 3985              	.L485:
 3986 23d0 85C0     		testl	%eax, %eax
 3987 23d2 0F8F33FF 		jg	.L483
 3987      FFFF
 3988 23d8 488D7424 		leaq	31(%rsp), %rsi
 3988      1F
 3989 23dd E8000000 		call	_ZNSs4_Rep10_M_destroyERKSaIcE
 3989      00
 3990 23e2 E924FFFF 		jmp	.L483
 3990      FF
 3991              	.L499:
 3992 23e7 488D7C24 		leaq	40(%rsp), %rdi
 3992      28
 3993 23ec 4889C3   		movq	%rax, %rbx
 3994 23ef E8000000 		call	_ZNSt15basic_stringbufIcSt11char_traitsIcESaIcEED1Ev
 3994      00
 3995 23f4 48C74424 		movq	$_ZTCN8UnitTest15MemoryOutStreamE0_So+24, 32(%rsp)
 3995      20000000 
 3995      00
 3996              	.L476:
 3997 23fd 488DBC24 		leaq	128(%rsp), %rdi
 3997      80000000 
 3998 2405 48C78424 		movq	$_ZTVSt9basic_iosIcSt11char_traitsIcEE+16, 128(%rsp)
 3998      80000000 
 3998      00000000 
 3999 2411 E8000000 		call	_ZNSt8ios_baseD2Ev
 3999      00
 4000 2416 4889DF   		movq	%rbx, %rdi
 4001              	.LEHB34:
 4002 2419 E8000000 		call	_Unwind_Resume
 4002      00
 4003              	.LEHE34:
 4004              	.L498:
 4005 241e 4889C3   		movq	%rax, %rbx
 4006 2421 EBDA     		jmp	.L476
 4007              	.L517:
 4008 2423 B9000000 		movl	$_ZL28__gthrw___pthread_key_createPjPFvPvE, %ecx
 4008      00
 4009 2428 488D5710 		leaq	16(%rdi), %rdx
 4010 242c 4885C9   		testq	%rcx, %rcx
 4011 242f 7445     		je	.L489
 4012 2431 B8FFFFFF 		movl	$-1, %eax
 4012      FF
 4013 2436 F00FC102 		lock xaddl	%eax, (%rdx)
 4014              	.L490:
 4015 243a 85C0     		testl	%eax, %eax
 4016 243c 0F8FFDFE 		jg	.L488
 4016      FFFF
 4017 2442 488D7424 		leaq	31(%rsp), %rsi
 4017      1F
 4018 2447 E8000000 		call	_ZNSs4_Rep10_M_destroyERKSaIcE
 4018      00
 4019 244c E9EEFEFF 		jmp	.L488
 4019      FF
 4020              	.L497:
 4021 2451 488D7C24 		leaq	32(%rsp), %rdi
 4021      20
 4022 2456 4889C3   		movq	%rax, %rbx
 4023 2459 E8000000 		call	_ZN8UnitTest15MemoryOutStreamD1Ev
 4023      00
 4024 245e 4889DF   		movq	%rbx, %rdi
 4025              	.LEHB35:
 4026 2461 E8000000 		call	_Unwind_Resume
 4026      00
 4027              	.LEHE35:
 4028              	.L484:
 4029 2466 8B50F8   		movl	-8(%rax), %edx
 4030 2469 8D4AFF   		leal	-1(%rdx), %ecx
 4031 246c 8948F8   		movl	%ecx, -8(%rax)
 4032 246f 89D0     		movl	%edx, %eax
 4033 2471 E95AFFFF 		jmp	.L485
 4033      FF
 4034              	.L489:
 4035 2476 8B50F8   		movl	-8(%rax), %edx
 4036 2479 8D4AFF   		leal	-1(%rdx), %ecx
 4037 247c 8948F8   		movl	%ecx, -8(%rax)
 4038 247f 89D0     		movl	%edx, %eax
 4039 2481 EBB7     		jmp	.L490
 4040              		.cfi_endproc
 4041              	.LFE1621:
 4042              		.section	.gcc_except_table
 4043              	.LLSDA1621:
 4044 00be FF       		.byte	0xff
 4045 00bf FF       		.byte	0xff
 4046 00c0 01       		.byte	0x1
 4047 00c1 22       		.uleb128 .LLSDACSE1621-.LLSDACSB1621
 4048              	.LLSDACSB1621:
 4049 00c2 A002     		.uleb128 .LEHB30-.LFB1621
 4050 00c4 05       		.uleb128 .LEHE30-.LEHB30
 4051 00c5 9E09     		.uleb128 .L498-.LFB1621
 4052 00c7 00       		.uleb128 0
 4053 00c8 B003     		.uleb128 .LEHB31-.LFB1621
 4054 00ca 05       		.uleb128 .LEHE31-.LEHB31
 4055 00cb E708     		.uleb128 .L499-.LFB1621
 4056 00cd 00       		.uleb128 0
 4057 00ce E203     		.uleb128 .LEHB32-.LFB1621
 4058 00d0 FE02     		.uleb128 .LEHE32-.LEHB32
 4059 00d2 D109     		.uleb128 .L497-.LFB1621
 4060 00d4 00       		.uleb128 0
 4061 00d5 EF07     		.uleb128 .LEHB33-.LFB1621
 4062 00d7 05       		.uleb128 .LEHE33-.LEHB33
 4063 00d8 00       		.uleb128 0
 4064 00d9 00       		.uleb128 0
 4065 00da 9909     		.uleb128 .LEHB34-.LFB1621
 4066 00dc 05       		.uleb128 .LEHE34-.LEHB34
 4067 00dd 00       		.uleb128 0
 4068 00de 00       		.uleb128 0
 4069 00df E109     		.uleb128 .LEHB35-.LFB1621
 4070 00e1 05       		.uleb128 .LEHE35-.LEHB35
 4071 00e2 00       		.uleb128 0
 4072 00e3 00       		.uleb128 0
 4073              	.LLSDACSE1621:
 4074              		.text
 4076 2483 66666666 		.p2align 4,,15
 4076      2E0F1F84 
 4076      00000000 
 4076      00
 4078              	_ZN8UnitTest17CheckArray2DCloseIA2_A2_fPKPKffEEvRNS_11TestResultsERKT_RKT0_iiRKT1_RKNS_11TestDetail
 4079              	.LFB1623:
 4080              		.cfi_startproc
 4081              		.cfi_personality 0x3,__gxx_personality_v0
 4082              		.cfi_lsda 0x3,.LLSDA1623
 4083 2490 4157     		pushq	%r15
 4084              		.cfi_def_cfa_offset 16
 4085              		.cfi_offset 15, -16
 4086 2492 4989CF   		movq	%rcx, %r15
 4087 2495 4156     		pushq	%r14
 4088              		.cfi_def_cfa_offset 24
 4089              		.cfi_offset 14, -24
 4090 2497 4D89C6   		movq	%r8, %r14
 4091 249a 4155     		pushq	%r13
 4092              		.cfi_def_cfa_offset 32
 4093              		.cfi_offset 13, -32
 4094 249c 4989FD   		movq	%rdi, %r13
 4095 249f 4154     		pushq	%r12
 4096              		.cfi_def_cfa_offset 40
 4097              		.cfi_offset 12, -40
 4098 24a1 4989D4   		movq	%rdx, %r12
 4099 24a4 55       		pushq	%rbp
 4100              		.cfi_def_cfa_offset 48
 4101              		.cfi_offset 6, -48
 4102 24a5 4889F5   		movq	%rsi, %rbp
 4103 24a8 53       		pushq	%rbx
 4104              		.cfi_def_cfa_offset 56
 4105              		.cfi_offset 3, -56
 4106 24a9 4881EC98 		subq	$408, %rsp
 4106      010000
 4107              		.cfi_def_cfa_offset 464
 4108 24b0 488B12   		movq	(%rdx), %rdx
 4109 24b3 F30F1016 		movss	(%rsi), %xmm2
 4110 24b7 0F28DA   		movaps	%xmm2, %xmm3
 4111 24ba F30F1001 		movss	(%rcx), %xmm0
 4112 24be 488B02   		movq	(%rdx), %rax
 4113 24c1 31C9     		xorl	%ecx, %ecx
 4114 24c3 F30F5CD8 		subss	%xmm0, %xmm3
 4115 24c7 F30F1008 		movss	(%rax), %xmm1
 4116 24cb 0F2ECB   		ucomiss	%xmm3, %xmm1
 4117 24ce 720A     		jb	.L519
 4118 24d0 F30F58D0 		addss	%xmm0, %xmm2
 4119 24d4 0F2ED1   		ucomiss	%xmm1, %xmm2
 4120 24d7 0F93C1   		setnb	%cl
 4121              	.L519:
 4122 24da F30F1055 		movss	4(%rbp), %xmm2
 4122      04
 4123 24df 0F28DA   		movaps	%xmm2, %xmm3
 4124 24e2 F30F1048 		movss	4(%rax), %xmm1
 4124      04
 4125 24e7 31C0     		xorl	%eax, %eax
 4126 24e9 F30F5CD8 		subss	%xmm0, %xmm3
 4127 24ed 0F2ECB   		ucomiss	%xmm3, %xmm1
 4128 24f0 720C     		jb	.L521
 4129 24f2 F30F58D0 		addss	%xmm0, %xmm2
 4130 24f6 31C0     		xorl	%eax, %eax
 4131 24f8 0F2ED1   		ucomiss	%xmm1, %xmm2
 4132 24fb 0F43C1   		cmovnb	%ecx, %eax
 4133              	.L521:
 4134 24fe F30F1055 		movss	8(%rbp), %xmm2
 4134      08
 4135 2503 488B4A08 		movq	8(%rdx), %rcx
 4136 2507 31D2     		xorl	%edx, %edx
 4137 2509 0F28DA   		movaps	%xmm2, %xmm3
 4138 250c F30F5CD8 		subss	%xmm0, %xmm3
 4139 2510 F30F1009 		movss	(%rcx), %xmm1
 4140 2514 0F2ECB   		ucomiss	%xmm3, %xmm1
 4141 2517 720A     		jb	.L524
 4142 2519 F30F58D0 		addss	%xmm0, %xmm2
 4143 251d 0F2ED1   		ucomiss	%xmm1, %xmm2
 4144 2520 0F93C2   		setnb	%dl
 4145              	.L524:
 4146 2523 F30F1055 		movss	12(%rbp), %xmm2
 4146      0C
 4147 2528 0F28DA   		movaps	%xmm2, %xmm3
 4148 252b F30F1049 		movss	4(%rcx), %xmm1
 4148      04
 4149 2530 F30F5CD8 		subss	%xmm0, %xmm3
 4150 2534 0F2ECB   		ucomiss	%xmm3, %xmm1
 4151 2537 0F837303 		jnb	.L572
 4151      0000
 4152              	.L526:
 4153 253d 488D9C24 		leaq	128(%rsp), %rbx
 4153      80000000 
 4154 2545 4889DF   		movq	%rbx, %rdi
 4155 2548 E8000000 		call	_ZNSt8ios_baseC2Ev
 4155      00
 4156 254d 31F6     		xorl	%esi, %esi
 4157 254f 4889DF   		movq	%rbx, %rdi
 4158 2552 48C78424 		movq	$0, 344(%rsp)
 4158      58010000 
 4158      00000000 
 4159 255e C6842460 		movb	$0, 352(%rsp)
 4159      01000000 
 4160 2566 C6842461 		movb	$0, 353(%rsp)
 4160      01000000 
 4161 256e 48C78424 		movq	$0, 360(%rsp)
 4161      68010000 
 4161      00000000 
 4162 257a 48C78424 		movq	$0, 368(%rsp)
 4162      70010000 
 4162      00000000 
 4163 2586 48C78424 		movq	$0, 376(%rsp)
 4163      78010000 
 4163      00000000 
 4164 2592 48C78424 		movq	$0, 384(%rsp)
 4164      80010000 
 4164      00000000 
 4165 259e 48C74424 		movq	$_ZTCN8UnitTest15MemoryOutStreamE0_So+24, 32(%rsp)
 4165      20000000 
 4165      00
 4166 25a7 48C78424 		movq	$_ZTCN8UnitTest15MemoryOutStreamE0_So+64, 128(%rsp)
 4166      80000000 
 4166      00000000 
 4167              	.LEHB36:
 4168 25b3 E8000000 		call	_ZNSt9basic_iosIcSt11char_traitsIcEE4initEPSt15basic_streambufIcS1_E
 4168      00
 4169              	.LEHE36:
 4170 25b8 488D7C24 		leaq	96(%rsp), %rdi
 4170      60
 4171 25bd 48C74424 		movq	$_ZTCN8UnitTest15MemoryOutStreamE0_St19basic_ostringstreamIcSt11char_traitsIcESaIcEE+24, 32(%
 4171      20000000 
 4171      00
 4172 25c6 48C78424 		movq	$_ZTCN8UnitTest15MemoryOutStreamE0_St19basic_ostringstreamIcSt11char_traitsIcESaIcEE+64, 128(
 4172      80000000 
 4172      00000000 
 4173 25d2 48C74424 		movq	$_ZTVSt15basic_streambufIcSt11char_traitsIcEE+16, 40(%rsp)
 4173      28000000 
 4173      00
 4174 25db 48C74424 		movq	$0, 48(%rsp)
 4174      30000000 
 4174      00
 4175 25e4 48C74424 		movq	$0, 56(%rsp)
 4175      38000000 
 4175      00
 4176 25ed 48C74424 		movq	$0, 64(%rsp)
 4176      40000000 
 4176      00
 4177 25f6 48C74424 		movq	$0, 72(%rsp)
 4177      48000000 
 4177      00
 4178 25ff 48C74424 		movq	$0, 80(%rsp)
 4178      50000000 
 4178      00
 4179 2608 48C74424 		movq	$0, 88(%rsp)
 4179      58000000 
 4179      00
 4180 2611 E8000000 		call	_ZNSt6localeC1Ev
 4180      00
 4181 2616 488B4424 		movq	32(%rsp), %rax
 4181      20
 4182 261b 488D7C24 		leaq	32(%rsp), %rdi
 4182      20
 4183 2620 488D7424 		leaq	40(%rsp), %rsi
 4183      28
 4184 2625 48C74424 		movq	$_ZTVSt15basic_stringbufIcSt11char_traitsIcESaIcEE+16, 40(%rsp)
 4184      28000000 
 4184      00
 4185 262e C7442468 		movl	$16, 104(%rsp)
 4185      10000000 
 4186 2636 48C74424 		movq	$_ZNSs4_Rep20_S_empty_rep_storageE+24, 112(%rsp)
 4186      70000000 
 4186      00
 4187 263f 480378E8 		addq	-24(%rax), %rdi
 4188              	.LEHB37:
 4189 2643 E8000000 		call	_ZNSt9basic_iosIcSt11char_traitsIcEE4initEPSt15basic_streambufIcS1_E
 4189      00
 4190              	.LEHE37:
 4191 2648 488D7C24 		leaq	32(%rsp), %rdi
 4191      20
 4192 264d BA0B0000 		movl	$11, %edx
 4192      00
 4193 2652 BE000000 		movl	$.LC2, %esi
 4193      00
 4194 2657 48C74424 		movq	$_ZTVN8UnitTest15MemoryOutStreamE+24, 32(%rsp)
 4194      20000000 
 4194      00
 4195 2660 48C78424 		movq	$_ZTVN8UnitTest15MemoryOutStreamE+64, 128(%rsp)
 4195      80000000 
 4195      00000000 
 4196 266c 48C74424 		movq	$_ZNSs4_Rep20_S_empty_rep_storageE+24, 120(%rsp)
 4196      78000000 
 4196      00
 4197              	.LEHB38:
 4198 2675 E8000000 		call	_ZSt16__ostream_insertIcSt11char_traitsIcEERSt13basic_ostreamIT_T0_ES6_PKS3_l
 4198      00
 4199 267a 31DB     		xorl	%ebx, %ebx
 4200 267c 0F1F4000 		.p2align 4,,10
 4201              		.p2align 3
 4202              	.L536:
 4203 2680 488D7C24 		leaq	32(%rsp), %rdi
 4203      20
 4204 2685 BA020000 		movl	$2, %edx
 4204      00
 4205 268a BE000000 		movl	$.LC8, %esi
 4205      00
 4206 268f E8000000 		call	_ZSt16__ostream_insertIcSt11char_traitsIcEERSt13basic_ostreamIT_T0_ES6_PKS3_l
 4206      00
 4207 2694 F30F1044 		movss	0(%rbp,%rbx), %xmm0
 4207      1D00
 4208 269a 488D7C24 		leaq	32(%rsp), %rdi
 4208      20
 4209 269f 0F5AC0   		cvtps2pd	%xmm0, %xmm0
 4210 26a2 E8000000 		call	_ZNSo9_M_insertIdEERSoT_
 4210      00
 4211 26a7 BA010000 		movl	$1, %edx
 4211      00
 4212 26ac BE000000 		movl	$.LC3, %esi
 4212      00
 4213 26b1 4889C7   		movq	%rax, %rdi
 4214 26b4 E8000000 		call	_ZSt16__ostream_insertIcSt11char_traitsIcEERSt13basic_ostreamIT_T0_ES6_PKS3_l
 4214      00
 4215 26b9 F30F1044 		movss	4(%rbp,%rbx), %xmm0
 4215      1D04
 4216 26bf 488D7C24 		leaq	32(%rsp), %rdi
 4216      20
 4217 26c4 0F5AC0   		cvtps2pd	%xmm0, %xmm0
 4218 26c7 E8000000 		call	_ZNSo9_M_insertIdEERSoT_
 4218      00
 4219 26cc BA010000 		movl	$1, %edx
 4219      00
 4220 26d1 BE000000 		movl	$.LC3, %esi
 4220      00
 4221 26d6 4889C7   		movq	%rax, %rdi
 4222 26d9 E8000000 		call	_ZSt16__ostream_insertIcSt11char_traitsIcEERSt13basic_ostreamIT_T0_ES6_PKS3_l
 4222      00
 4223 26de 488D7C24 		leaq	32(%rsp), %rdi
 4223      20
 4224 26e3 BA020000 		movl	$2, %edx
 4224      00
 4225 26e8 BE000000 		movl	$.LC9, %esi
 4225      00
 4226 26ed E8000000 		call	_ZSt16__ostream_insertIcSt11char_traitsIcEERSt13basic_ostreamIT_T0_ES6_PKS3_l
 4226      00
 4227 26f2 4883C308 		addq	$8, %rbx
 4228 26f6 4883FB10 		cmpq	$16, %rbx
 4229 26fa 7584     		jne	.L536
 4230 26fc 488D7C24 		leaq	32(%rsp), %rdi
 4230      20
 4231 2701 F3410F10 		movss	(%r15), %xmm4
 4231      27
 4232 2706 BA060000 		movl	$6, %edx
 4232      00
 4233 270b BE000000 		movl	$.LC6, %esi
 4233      00
 4234 2710 F30F1164 		movss	%xmm4, 12(%rsp)
 4234      240C
 4235 2716 E8000000 		call	_ZSt16__ostream_insertIcSt11char_traitsIcEERSt13basic_ostreamIT_T0_ES6_PKS3_l
 4235      00
 4236 271b F30F1044 		movss	12(%rsp), %xmm0
 4236      240C
 4237 2721 488D7C24 		leaq	32(%rsp), %rdi
 4237      20
 4238 2726 0F5AC0   		cvtps2pd	%xmm0, %xmm0
 4239 2729 E8000000 		call	_ZNSo9_M_insertIdEERSoT_
 4239      00
 4240 272e BA0B0000 		movl	$11, %edx
 4240      00
 4241 2733 BE000000 		movl	$.LC7, %esi
 4241      00
 4242 2738 4889C7   		movq	%rax, %rdi
 4243 273b E8000000 		call	_ZSt16__ostream_insertIcSt11char_traitsIcEERSt13basic_ostreamIT_T0_ES6_PKS3_l
 4243      00
 4244 2740 30DB     		xorb	%bl, %bl
 4245              		.p2align 4,,10
 4246 2742 660F1F44 		.p2align 3
 4246      0000
 4247              	.L538:
 4248 2748 488D7C24 		leaq	32(%rsp), %rdi
 4248      20
 4249 274d BA020000 		movl	$2, %edx
 4249      00
 4250 2752 BE000000 		movl	$.LC8, %esi
 4250      00
 4251 2757 E8000000 		call	_ZSt16__ostream_insertIcSt11char_traitsIcEERSt13basic_ostreamIT_T0_ES6_PKS3_l
 4251      00
 4252 275c 498B0424 		movq	(%r12), %rax
 4253 2760 488D7C24 		leaq	32(%rsp), %rdi
 4253      20
 4254 2765 488B0418 		movq	(%rax,%rbx), %rax
 4255 2769 F30F1000 		movss	(%rax), %xmm0
 4256 276d 0F5AC0   		cvtps2pd	%xmm0, %xmm0
 4257 2770 E8000000 		call	_ZNSo9_M_insertIdEERSoT_
 4257      00
 4258 2775 BA010000 		movl	$1, %edx
 4258      00
 4259 277a BE000000 		movl	$.LC3, %esi
 4259      00
 4260 277f 4889C7   		movq	%rax, %rdi
 4261 2782 E8000000 		call	_ZSt16__ostream_insertIcSt11char_traitsIcEERSt13basic_ostreamIT_T0_ES6_PKS3_l
 4261      00
 4262 2787 498B0424 		movq	(%r12), %rax
 4263 278b 488D7C24 		leaq	32(%rsp), %rdi
 4263      20
 4264 2790 488B0418 		movq	(%rax,%rbx), %rax
 4265 2794 F30F1040 		movss	4(%rax), %xmm0
 4265      04
 4266 2799 0F5AC0   		cvtps2pd	%xmm0, %xmm0
 4267 279c E8000000 		call	_ZNSo9_M_insertIdEERSoT_
 4267      00
 4268 27a1 BA010000 		movl	$1, %edx
 4268      00
 4269 27a6 BE000000 		movl	$.LC3, %esi
 4269      00
 4270 27ab 4889C7   		movq	%rax, %rdi
 4271 27ae E8000000 		call	_ZSt16__ostream_insertIcSt11char_traitsIcEERSt13basic_ostreamIT_T0_ES6_PKS3_l
 4271      00
 4272 27b3 488D7C24 		leaq	32(%rsp), %rdi
 4272      20
 4273 27b8 BA020000 		movl	$2, %edx
 4273      00
 4274 27bd BE000000 		movl	$.LC9, %esi
 4274      00
 4275 27c2 E8000000 		call	_ZSt16__ostream_insertIcSt11char_traitsIcEERSt13basic_ostreamIT_T0_ES6_PKS3_l
 4275      00
 4276 27c7 4883C308 		addq	$8, %rbx
 4277 27cb 4883FB10 		cmpq	$16, %rbx
 4278 27cf 0F8573FF 		jne	.L538
 4278      FFFF
 4279 27d5 488D7C24 		leaq	32(%rsp), %rdi
 4279      20
 4280 27da BA010000 		movl	$1, %edx
 4280      00
 4281 27df BE000000 		movl	$.LC5, %esi
 4281      00
 4282 27e4 E8000000 		call	_ZSt16__ostream_insertIcSt11char_traitsIcEERSt13basic_ostreamIT_T0_ES6_PKS3_l
 4282      00
 4283 27e9 488D7C24 		leaq	32(%rsp), %rdi
 4283      20
 4284 27ee E8000000 		call	_ZNK8UnitTest15MemoryOutStream7GetTextEv
 4284      00
 4285 27f3 4889C2   		movq	%rax, %rdx
 4286 27f6 4C89F6   		movq	%r14, %rsi
 4287 27f9 4C89EF   		movq	%r13, %rdi
 4288 27fc E8000000 		call	_ZN8UnitTest11TestResults13OnTestFailureERKNS_11TestDetailsEPKc
 4288      00
 4289              	.LEHE38:
 4290 2801 488B4424 		movq	120(%rsp), %rax
 4290      78
 4291 2806 48C74424 		movq	$_ZTVN8UnitTest15MemoryOutStreamE+24, 32(%rsp)
 4291      20000000 
 4291      00
 4292 280f 48C78424 		movq	$_ZTVN8UnitTest15MemoryOutStreamE+64, 128(%rsp)
 4292      80000000 
 4292      00000000 
 4293 281b 488D78E8 		leaq	-24(%rax), %rdi
 4294 281f 4881FF00 		cmpq	$_ZNSs4_Rep20_S_empty_rep_storageE, %rdi
 4294      000000
 4295 2826 0F85A900 		jne	.L573
 4295      0000
 4296              	.L540:
 4297 282c 488B4424 		movq	112(%rsp), %rax
 4297      70
 4298 2831 48C74424 		movq	$_ZTCN8UnitTest15MemoryOutStreamE0_St19basic_ostringstreamIcSt11char_traitsIcESaIcEE+24, 32(%
 4298      20000000 
 4298      00
 4299 283a 48C78424 		movq	$_ZTCN8UnitTest15MemoryOutStreamE0_St19basic_ostringstreamIcSt11char_traitsIcESaIcEE+64, 128(
 4299      80000000 
 4299      00000000 
 4300 2846 48C74424 		movq	$_ZTVSt15basic_stringbufIcSt11char_traitsIcESaIcEE+16, 40(%rsp)
 4300      28000000 
 4300      00
 4301 284f 488D78E8 		leaq	-24(%rax), %rdi
 4302 2853 4881FF00 		cmpq	$_ZNSs4_Rep20_S_empty_rep_storageE, %rdi
 4302      000000
 4303 285a 0F85E300 		jne	.L574
 4303      0000
 4304              	.L545:
 4305 2860 488D7C24 		leaq	96(%rsp), %rdi
 4305      60
 4306 2865 48C74424 		movq	$_ZTVSt15basic_streambufIcSt11char_traitsIcEE+16, 40(%rsp)
 4306      28000000 
 4306      00
 4307 286e E8000000 		call	_ZNSt6localeD1Ev
 4307      00
 4308 2873 488DBC24 		leaq	128(%rsp), %rdi
 4308      80000000 
 4309 287b 48C74424 		movq	$_ZTCN8UnitTest15MemoryOutStreamE0_So+24, 32(%rsp)
 4309      20000000 
 4309      00
 4310 2884 48C78424 		movq	$_ZTVSt9basic_iosIcSt11char_traitsIcEE+16, 128(%rsp)
 4310      80000000 
 4310      00000000 
 4311              	.LEHB39:
 4312 2890 E8000000 		call	_ZNSt8ios_baseD2Ev
 4312      00
 4313              	.LEHE39:
 4314              	.L518:
 4315 2895 4881C498 		addq	$408, %rsp
 4315      010000
 4316              		.cfi_remember_state
 4317              		.cfi_def_cfa_offset 56
 4318 289c 5B       		popq	%rbx
 4319              		.cfi_def_cfa_offset 48
 4320 289d 5D       		popq	%rbp
 4321              		.cfi_def_cfa_offset 40
 4322 289e 415C     		popq	%r12
 4323              		.cfi_def_cfa_offset 32
 4324 28a0 415D     		popq	%r13
 4325              		.cfi_def_cfa_offset 24
 4326 28a2 415E     		popq	%r14
 4327              		.cfi_def_cfa_offset 16
 4328 28a4 415F     		popq	%r15
 4329              		.cfi_def_cfa_offset 8
 4330 28a6 C3       		ret
 4331 28a7 660F1F84 		.p2align 4,,10
 4331      00000000 
 4331      00
 4332              		.p2align 3
 4333              	.L572:
 4334              		.cfi_restore_state
 4335 28b0 F30F58C2 		addss	%xmm2, %xmm0
 4336 28b4 0F2EC1   		ucomiss	%xmm1, %xmm0
 4337 28b7 0F8280FC 		jb	.L526
 4337      FFFF
 4338 28bd 84D2     		testb	%dl, %dl
 4339 28bf 0F8478FC 		je	.L526
 4339      FFFF
 4340 28c5 84C0     		testb	%al, %al
 4341 28c7 75CC     		jne	.L518
 4342 28c9 0F1F8000 		.p2align 4,,7
 4342      000000
 4343 28d0 E968FCFF 		jmp	.L526
 4343      FF
 4344              	.L573:
 4345 28d5 B9000000 		movl	$_ZL28__gthrw___pthread_key_createPjPFvPvE, %ecx
 4345      00
 4346 28da 488D5710 		leaq	16(%rdi), %rdx
 4347 28de 4885C9   		testq	%rcx, %rcx
 4348 28e1 0F849F00 		je	.L541
 4348      0000
 4349 28e7 B8FFFFFF 		movl	$-1, %eax
 4349      FF
 4350 28ec F00FC102 		lock xaddl	%eax, (%rdx)
 4351              	.L542:
 4352 28f0 85C0     		testl	%eax, %eax
 4353 28f2 0F8F34FF 		jg	.L540
 4353      FFFF
 4354 28f8 488D7424 		leaq	31(%rsp), %rsi
 4354      1F
 4355 28fd E8000000 		call	_ZNSs4_Rep10_M_destroyERKSaIcE
 4355      00
 4356 2902 E925FFFF 		jmp	.L540
 4356      FF
 4357              	.L556:
 4358 2907 488D7C24 		leaq	40(%rsp), %rdi
 4358      28
 4359 290c 4889C3   		movq	%rax, %rbx
 4360 290f E8000000 		call	_ZNSt15basic_stringbufIcSt11char_traitsIcESaIcEED1Ev
 4360      00
 4361 2914 48C74424 		movq	$_ZTCN8UnitTest15MemoryOutStreamE0_So+24, 32(%rsp)
 4361      20000000 
 4361      00
 4362              	.L533:
 4363 291d 488DBC24 		leaq	128(%rsp), %rdi
 4363      80000000 
 4364 2925 48C78424 		movq	$_ZTVSt9basic_iosIcSt11char_traitsIcEE+16, 128(%rsp)
 4364      80000000 
 4364      00000000 
 4365 2931 E8000000 		call	_ZNSt8ios_baseD2Ev
 4365      00
 4366 2936 4889DF   		movq	%rbx, %rdi
 4367              	.LEHB40:
 4368 2939 E8000000 		call	_Unwind_Resume
 4368      00
 4369              	.LEHE40:
 4370              	.L555:
 4371 293e 4889C3   		movq	%rax, %rbx
 4372 2941 EBDA     		jmp	.L533
 4373              	.L574:
 4374 2943 B9000000 		movl	$_ZL28__gthrw___pthread_key_createPjPFvPvE, %ecx
 4374      00
 4375 2948 488D5710 		leaq	16(%rdi), %rdx
 4376 294c 4885C9   		testq	%rcx, %rcx
 4377 294f 7445     		je	.L546
 4378 2951 B8FFFFFF 		movl	$-1, %eax
 4378      FF
 4379 2956 F00FC102 		lock xaddl	%eax, (%rdx)
 4380              	.L547:
 4381 295a 85C0     		testl	%eax, %eax
 4382 295c 0F8FFEFE 		jg	.L545
 4382      FFFF
 4383 2962 488D7424 		leaq	31(%rsp), %rsi
 4383      1F
 4384 2967 E8000000 		call	_ZNSs4_Rep10_M_destroyERKSaIcE
 4384      00
 4385 296c E9EFFEFF 		jmp	.L545
 4385      FF
 4386              	.L554:
 4387 2971 488D7C24 		leaq	32(%rsp), %rdi
 4387      20
 4388 2976 4889C3   		movq	%rax, %rbx
 4389 2979 E8000000 		call	_ZN8UnitTest15MemoryOutStreamD1Ev
 4389      00
 4390 297e 4889DF   		movq	%rbx, %rdi
 4391              	.LEHB41:
 4392 2981 E8000000 		call	_Unwind_Resume
 4392      00
 4393              	.LEHE41:
 4394              	.L541:
 4395 2986 8B50F8   		movl	-8(%rax), %edx
 4396 2989 8D4AFF   		leal	-1(%rdx), %ecx
 4397 298c 8948F8   		movl	%ecx, -8(%rax)
 4398 298f 89D0     		movl	%edx, %eax
 4399 2991 E95AFFFF 		jmp	.L542
 4399      FF
 4400              	.L546:
 4401 2996 8B50F8   		movl	-8(%rax), %edx
 4402 2999 8D4AFF   		leal	-1(%rdx), %ecx
 4403 299c 8948F8   		movl	%ecx, -8(%rax)
 4404 299f 89D0     		movl	%edx, %eax
 4405 29a1 EBB7     		jmp	.L547
 4406              		.cfi_endproc
 4407              	.LFE1623:
 4408              		.section	.gcc_except_table
 4409              	.LLSDA1623:
 4410 00e4 FF       		.byte	0xff
 4411 00e5 FF       		.byte	0xff
 4412 00e6 01       		.byte	0x1
 4413 00e7 22       		.uleb128 .LLSDACSE1623-.LLSDACSB1623
 4414              	.LLSDACSB1623:
 4415 00e8 A302     		.uleb128 .LEHB36-.LFB1623
 4416 00ea 05       		.uleb128 .LEHE36-.LEHB36
 4417 00eb AE09     		.uleb128 .L555-.LFB1623
 4418 00ed 00       		.uleb128 0
 4419 00ee B303     		.uleb128 .LEHB37-.LFB1623
 4420 00f0 05       		.uleb128 .LEHE37-.LEHB37
 4421 00f1 F708     		.uleb128 .L556-.LFB1623
 4422 00f3 00       		.uleb128 0
 4423 00f4 E503     		.uleb128 .LEHB38-.LFB1623
 4424 00f6 8C03     		.uleb128 .LEHE38-.LEHB38
 4425 00f8 E109     		.uleb128 .L554-.LFB1623
 4426 00fa 00       		.uleb128 0
 4427 00fb 8008     		.uleb128 .LEHB39-.LFB1623
 4428 00fd 05       		.uleb128 .LEHE39-.LEHB39
 4429 00fe 00       		.uleb128 0
 4430 00ff 00       		.uleb128 0
 4431 0100 A909     		.uleb128 .LEHB40-.LFB1623
 4432 0102 05       		.uleb128 .LEHE40-.LEHB40
 4433 0103 00       		.uleb128 0
 4434 0104 00       		.uleb128 0
 4435 0105 F109     		.uleb128 .LEHB41-.LFB1623
 4436 0107 05       		.uleb128 .LEHE41-.LEHB41
 4437 0108 00       		.uleb128 0
 4438 0109 00       		.uleb128 0
 4439              	.LLSDACSE1623:
 4440              		.text
 4442              		.section	.text._ZN17ScopedCurrentTestD2Ev,"axG",@progbits,_ZN17ScopedCurrentTestD5Ev,comdat
 4443              		.align 2
 4444              		.p2align 4,,15
 4445              		.weak	_ZN17ScopedCurrentTestD2Ev
 4447              	_ZN17ScopedCurrentTestD2Ev:
 4448              	.LFB1092:
 4449              		.cfi_startproc
 4450 0000 53       		pushq	%rbx
 4451              		.cfi_def_cfa_offset 16
 4452              		.cfi_offset 3, -16
 4453 0001 4889FB   		movq	%rdi, %rbx
 4454 0004 E8000000 		call	_ZN8UnitTest11CurrentTest7ResultsEv
 4454      00
 4455 0009 488B13   		movq	(%rbx), %rdx
 4456 000c 488910   		movq	%rdx, (%rax)
 4457 000f E8000000 		call	_ZN8UnitTest11CurrentTest7DetailsEv
 4457      00
 4458 0014 488B5308 		movq	8(%rbx), %rdx
 4459 0018 488910   		movq	%rdx, (%rax)
 4460 001b 5B       		popq	%rbx
 4461              		.cfi_def_cfa_offset 8
 4462 001c C3       		ret
 4463              		.cfi_endproc
 4464              	.LFE1092:
 4466              		.weak	_ZN17ScopedCurrentTestD1Ev
 4467              		.set	_ZN17ScopedCurrentTestD1Ev,_ZN17ScopedCurrentTestD2Ev
 4468              		.section	.rodata.str1.1
 4469              	.LC11:
 4470 0045 6661696C 		.string	"failure"
 4470      75726500 
 4471              		.section	.rodata.str1.8,"aMS",@progbits,1
 4472              		.align 8
 4473              	.LC12:
 4474 0000 556E6861 		.string	"Unhandled exception in CHECK(ThrowingFunction() == 1)"
 4474      6E646C65 
 4474      64206578 
 4474      63657074 
 4474      696F6E20 
 4475 0036 0000     		.align 8
 4476              	.LC13:
 4477 0038 556E6861 		.string	"Unhandled exception in CHECK(failure)"
 4477      6E646C65 
 4477      64206578 
 4477      63657074 
 4477      696F6E20 
 4478              		.text
 4479 29a3 90       		.align 2
 4480 29a4 6666662E 		.p2align 4,,15
 4480      0F1F8400 
 4480      00000000 
 4482              	_ZNK12_GLOBAL__N_125TestCheckFailsOnException7RunImplEv:
 4483              	.LFB1114:
 4484              		.cfi_startproc
 4485              		.cfi_personality 0x3,__gxx_personality_v0
 4486              		.cfi_lsda 0x3,.LLSDA1114
 4487 29b0 53       		pushq	%rbx
 4488              		.cfi_def_cfa_offset 16
 4489              		.cfi_offset 3, -16
 4490 29b1 4881EC90 		subq	$2192, %rsp
 4490      080000
 4491              		.cfi_def_cfa_offset 2208
 4492 29b8 488D5C24 		leaq	16(%rsp), %rbx
 4492      10
 4493 29bd 488D7424 		leaq	80(%rsp), %rsi
 4493      50
 4494 29c2 48C74424 		movq	$_ZTV17RecordingReporter+16, 80(%rsp)
 4494      50000000 
 4494      00
 4495 29cb 64488B04 		movq	%fs:40, %rax
 4495      25280000 
 4495      00
 4496 29d4 48898424 		movq	%rax, 2184(%rsp)
 4496      88080000 
 4497 29dc 31C0     		xorl	%eax, %eax
 4498 29de 4889DF   		movq	%rbx, %rdi
 4499 29e1 C7442458 		movl	$0, 88(%rsp)
 4499      00000000 
 4500 29e9 C784245C 		movl	$0, 604(%rsp)
 4500      02000000 
 4500      000000
 4501 29f4 C7842460 		movl	$0, 864(%rsp)
 4501      03000000 
 4501      000000
 4502 29ff C7842464 		movl	$0, 1636(%rsp)
 4502      06000000 
 4502      000000
 4503 2a0a C7842468 		movl	$0x00000000, 2152(%rsp)
 4503      08000000 
 4503      000000
 4504 2a15 C784246C 		movl	$0, 2156(%rsp)
 4504      08000000 
 4504      000000
 4505 2a20 C7842470 		movl	$0, 2160(%rsp)
 4505      08000000 
 4505      000000
 4506 2a2b C7842474 		movl	$0, 2164(%rsp)
 4506      08000000 
 4506      000000
 4507 2a36 C7842478 		movl	$0x00000000, 2168(%rsp)
 4507      08000000 
 4507      000000
 4508 2a41 C644245C 		movb	$0, 92(%rsp)
 4508      00
 4509 2a46 C684245C 		movb	$0, 348(%rsp)
 4509      01000000 
 4510 2a4e C6842460 		movb	$0, 608(%rsp)
 4510      02000000 
 4511 2a56 C6842464 		movb	$0, 868(%rsp)
 4511      03000000 
 4512 2a5e C6842464 		movb	$0, 1124(%rsp)
 4512      04000000 
 4513 2a66 C6842464 		movb	$0, 1380(%rsp)
 4513      05000000 
 4514 2a6e C6842468 		movb	$0, 1640(%rsp)
 4514      06000000 
 4515 2a76 C6842468 		movb	$0, 1896(%rsp)
 4515      07000000 
 4516              	.LEHB42:
 4517 2a7e E8000000 		call	_ZN8UnitTest11TestResultsC1EPNS_12TestReporterE
 4517      00
 4518 2a83 E8000000 		call	_ZN8UnitTest11CurrentTest7ResultsEv
 4518      00
 4519 2a88 488B00   		movq	(%rax), %rax
 4520 2a8b 48890424 		movq	%rax, (%rsp)
 4521 2a8f E8000000 		call	_ZN8UnitTest11CurrentTest7DetailsEv
 4521      00
 4522 2a94 488B00   		movq	(%rax), %rax
 4523 2a97 48894424 		movq	%rax, 8(%rsp)
 4523      08
 4524 2a9c E8000000 		call	_ZN8UnitTest11CurrentTest7ResultsEv
 4524      00
 4525              	.LEHE42:
 4526 2aa1 488918   		movq	%rbx, (%rax)
 4527              	.LEHB43:
 4528 2aa4 E857DEFF 		call	_ZN12_GLOBAL__N_116ThrowingFunctionEv
 4528      FF
 4529              	.LEHE43:
 4530              	.L588:
 4531 2aa9 4889C7   		movq	%rax, %rdi
 4532 2aac E8000000 		call	__cxa_begin_catch
 4532      00
 4533              	.LEHB44:
 4534 2ab1 E8000000 		call	_ZN8UnitTest11CurrentTest7DetailsEv
 4534      00
 4535 2ab6 488B30   		movq	(%rax), %rsi
 4536 2ab9 488D7C24 		leaq	48(%rsp), %rdi
 4536      30
 4537 2abe BA4D0000 		movl	$77, %edx
 4537      00
 4538 2ac3 E8000000 		call	_ZN8UnitTest11TestDetailsC1ERKS0_i
 4538      00
 4539 2ac8 E8000000 		call	_ZN8UnitTest11CurrentTest7ResultsEv
 4539      00
 4540 2acd 488B38   		movq	(%rax), %rdi
 4541 2ad0 488D7424 		leaq	48(%rsp), %rsi
 4541      30
 4542 2ad5 BA000000 		movl	$.LC12, %edx
 4542      00
 4543 2ada E8000000 		call	_ZN8UnitTest11TestResults13OnTestFailureERKNS_11TestDetailsEPKc
 4543      00
 4544              	.LEHE44:
 4545              	.LEHB45:
 4546 2adf E8000000 		call	__cxa_end_catch
 4546      00
 4547 2ae4 4889DF   		movq	%rbx, %rdi
 4548 2ae7 E8000000 		call	_ZNK8UnitTest11TestResults15GetFailureCountEv
 4548      00
 4549              	.LEHE45:
 4550 2aec 4889E7   		movq	%rsp, %rdi
 4551 2aef 89C3     		movl	%eax, %ebx
 4552              	.LEHB46:
 4553 2af1 E8000000 		call	_ZN17ScopedCurrentTestD1Ev
 4553      00
 4554              	.LEHE46:
 4555 2af6 488D7C24 		leaq	80(%rsp), %rdi
 4555      50
 4556 2afb 48C74424 		movq	$_ZTV17RecordingReporter+16, 80(%rsp)
 4556      50000000 
 4556      00
 4557              	.LEHB47:
 4558 2b04 E8000000 		call	_ZN8UnitTest12TestReporterD2Ev
 4558      00
 4559              	.LEHE47:
 4560 2b09 85DB     		testl	%ebx, %ebx
 4561 2b0b 7E3F     		jle	.L595
 4562              	.L577:
 4563 2b0d 488B8424 		movq	2184(%rsp), %rax
 4563      88080000 
 4564 2b15 64483304 		xorq	%fs:40, %rax
 4564      25280000 
 4564      00
 4565 2b1e 7527     		jne	.L596
 4566 2b20 4881C490 		addq	$2192, %rsp
 4566      080000
 4567              		.cfi_remember_state
 4568              		.cfi_def_cfa_offset 16
 4569 2b27 5B       		popq	%rbx
 4570              		.cfi_def_cfa_offset 8
 4571 2b28 C3       		ret
 4572              	.L587:
 4573              		.cfi_restore_state
 4574 2b29 4889C3   		movq	%rax, %rbx
 4575              	.L583:
 4576 2b2c 488D7C24 		leaq	80(%rsp), %rdi
 4576      50
 4577 2b31 48C74424 		movq	$_ZTV17RecordingReporter+16, 80(%rsp)
 4577      50000000 
 4577      00
 4578 2b3a E8000000 		call	_ZN8UnitTest12TestReporterD2Ev
 4578      00
 4579 2b3f 4889DF   		movq	%rbx, %rdi
 4580              	.LEHB48:
 4581 2b42 E8000000 		call	_Unwind_Resume
 4581      00
 4582              	.LEHE48:
 4583              	.L596:
 4584 2b47 E8000000 		call	__stack_chk_fail
 4584      00
 4585              	.L595:
 4586              	.LEHB49:
 4587 2b4c E8000000 		call	_ZN8UnitTest11CurrentTest7DetailsEv
 4587      00
 4588 2b51 488B30   		movq	(%rax), %rsi
 4589 2b54 488D7C24 		leaq	48(%rsp), %rdi
 4589      30
 4590 2b59 BA510000 		movl	$81, %edx
 4590      00
 4591 2b5e E8000000 		call	_ZN8UnitTest11TestDetailsC1ERKS0_i
 4591      00
 4592 2b63 E8000000 		call	_ZN8UnitTest11CurrentTest7ResultsEv
 4592      00
 4593 2b68 488B38   		movq	(%rax), %rdi
 4594 2b6b 488D7424 		leaq	48(%rsp), %rsi
 4594      30
 4595 2b70 BA000000 		movl	$.LC11, %edx
 4595      00
 4596 2b75 E8000000 		call	_ZN8UnitTest11TestResults13OnTestFailureERKNS_11TestDetailsEPKc
 4596      00
 4597              	.LEHE49:
 4598 2b7a EB91     		jmp	.L577
 4599              	.L589:
 4600 2b7c 4889C3   		movq	%rax, %rbx
 4601              	.L580:
 4602 2b7f 4889E7   		movq	%rsp, %rdi
 4603 2b82 E8000000 		call	_ZN17ScopedCurrentTestD1Ev
 4603      00
 4604              		.p2align 4,,2
 4605 2b87 EBA3     		jmp	.L583
 4606              	.L590:
 4607 2b89 4889C3   		movq	%rax, %rbx
 4608 2b8c E8000000 		call	__cxa_end_catch
 4608      00
 4609              		.p2align 4,,5
 4610 2b91 EBEC     		jmp	.L580
 4611              	.L591:
 4612 2b93 4889C7   		movq	%rax, %rdi
 4613 2b96 E8000000 		call	__cxa_begin_catch
 4613      00
 4614 2b9b 0F1F4400 		.p2align 4,,5
 4614      00
 4615              	.LEHB50:
 4616 2ba0 E8000000 		call	_ZN8UnitTest11CurrentTest7DetailsEv
 4616      00
 4617 2ba5 488B30   		movq	(%rax), %rsi
 4618 2ba8 488D7C24 		leaq	48(%rsp), %rdi
 4618      30
 4619 2bad BA510000 		movl	$81, %edx
 4619      00
 4620 2bb2 E8000000 		call	_ZN8UnitTest11TestDetailsC1ERKS0_i
 4620      00
 4621 2bb7 E8000000 		call	_ZN8UnitTest11CurrentTest7ResultsEv
 4621      00
 4622 2bbc 488B38   		movq	(%rax), %rdi
 4623 2bbf 488D7424 		leaq	48(%rsp), %rsi
 4623      30
 4624 2bc4 BA000000 		movl	$.LC13, %edx
 4624      00
 4625 2bc9 E8000000 		call	_ZN8UnitTest11TestResults13OnTestFailureERKNS_11TestDetailsEPKc
 4625      00
 4626              	.LEHE50:
 4627              	.LEHB51:
 4628 2bce E8000000 		call	__cxa_end_catch
 4628      00
 4629              	.LEHE51:
 4630 2bd3 E935FFFF 		jmp	.L577
 4630      FF
 4631              	.L592:
 4632 2bd8 4889C3   		movq	%rax, %rbx
 4633 2bdb 0F1F4400 		.p2align 4,,5
 4633      00
 4634 2be0 E8000000 		call	__cxa_end_catch
 4634      00
 4635 2be5 4889DF   		movq	%rbx, %rdi
 4636              	.LEHB52:
 4637 2be8 E8000000 		call	_Unwind_Resume
 4637      00
 4638              	.LEHE52:
 4639              		.cfi_endproc
 4640              	.LFE1114:
 4641              		.section	.gcc_except_table
 4642 010a 0000     		.align 4
 4643              	.LLSDA1114:
 4644 010c FF       		.byte	0xff
 4645 010d 03       		.byte	0x3
 4646 010e 49       		.uleb128 .LLSDATT1114-.LLSDATTD1114
 4647              	.LLSDATTD1114:
 4648 010f 01       		.byte	0x1
 4649 0110 3E       		.uleb128 .LLSDACSE1114-.LLSDACSB1114
 4650              	.LLSDACSB1114:
 4651 0111 CE01     		.uleb128 .LEHB42-.LFB1114
 4652 0113 23       		.uleb128 .LEHE42-.LEHB42
 4653 0114 F902     		.uleb128 .L587-.LFB1114
 4654 0116 00       		.uleb128 0
 4655 0117 F401     		.uleb128 .LEHB43-.LFB1114
 4656 0119 05       		.uleb128 .LEHE43-.LEHB43
 4657 011a F901     		.uleb128 .L588-.LFB1114
 4658 011c 01       		.uleb128 0x1
 4659 011d 8102     		.uleb128 .LEHB44-.LFB1114
 4660 011f 2E       		.uleb128 .LEHE44-.LEHB44
 4661 0120 D903     		.uleb128 .L590-.LFB1114
 4662 0122 00       		.uleb128 0
 4663 0123 AF02     		.uleb128 .LEHB45-.LFB1114
 4664 0125 0D       		.uleb128 .LEHE45-.LEHB45
 4665 0126 CC03     		.uleb128 .L589-.LFB1114
 4666 0128 00       		.uleb128 0
 4667 0129 C102     		.uleb128 .LEHB46-.LFB1114
 4668 012b 05       		.uleb128 .LEHE46-.LEHB46
 4669 012c F902     		.uleb128 .L587-.LFB1114
 4670 012e 00       		.uleb128 0
 4671 012f D402     		.uleb128 .LEHB47-.LFB1114
 4672 0131 05       		.uleb128 .LEHE47-.LEHB47
 4673 0132 00       		.uleb128 0
 4674 0133 00       		.uleb128 0
 4675 0134 9203     		.uleb128 .LEHB48-.LFB1114
 4676 0136 05       		.uleb128 .LEHE48-.LEHB48
 4677 0137 00       		.uleb128 0
 4678 0138 00       		.uleb128 0
 4679 0139 9C03     		.uleb128 .LEHB49-.LFB1114
 4680 013b 2E       		.uleb128 .LEHE49-.LEHB49
 4681 013c E303     		.uleb128 .L591-.LFB1114
 4682 013e 01       		.uleb128 0x1
 4683 013f F003     		.uleb128 .LEHB50-.LFB1114
 4684 0141 2E       		.uleb128 .LEHE50-.LEHB50
 4685 0142 A804     		.uleb128 .L592-.LFB1114
 4686 0144 00       		.uleb128 0
 4687 0145 9E04     		.uleb128 .LEHB51-.LFB1114
 4688 0147 05       		.uleb128 .LEHE51-.LEHB51
 4689 0148 00       		.uleb128 0
 4690 0149 00       		.uleb128 0
 4691 014a B804     		.uleb128 .LEHB52-.LFB1114
 4692 014c 05       		.uleb128 .LEHE52-.LEHB52
 4693 014d 00       		.uleb128 0
 4694 014e 00       		.uleb128 0
 4695              	.LLSDACSE1114:
 4696 014f 01       		.byte	0x1
 4697 0150 00       		.byte	0
 4698 0151 000000   		.align 4
 4699 0154 00000000 		.long	0
 4700              	
 4701              	.LLSDATT1114:
 4702              		.text
 4704              		.section	.rodata.str1.1
 4705              	.LC14:
 4706 004d 66616C73 		.string	"false"
 4706      6500
 4707              		.section	.rodata.str1.8
 4708 005e 0000     		.align 8
 4709              	.LC15:
 4710 0060 556E6861 		.string	"Unhandled exception in CHECK(false)"
 4710      6E646C65 
 4710      64206578 
 4710      63657074 
 4710      696F6E20 
 4711 0084 00000000 		.align 8
 4712              	.LC16:
 4713 0088 556E6861 		.string	"Unhandled exception in CHECK_EQUAL(m_details.testName, reporter.lastFailedTest)"
 4713      6E646C65 
 4713      64206578 
 4713      63657074 
 4713      696F6E20 
 4714              		.text
 4715 2bed 90       		.align 2
 4716 2bee 6690     		.p2align 4,,15
 4718              	_ZNK12_GLOBAL__N_133TestFailureReportsCorrectTestName7RunImplEv:
 4719              	.LFB1105:
 4720              		.cfi_startproc
 4721              		.cfi_personality 0x3,__gxx_personality_v0
 4722              		.cfi_lsda 0x3,.LLSDA1105
 4723 2bf0 55       		pushq	%rbp
 4724              		.cfi_def_cfa_offset 16
 4725              		.cfi_offset 6, -16
 4726 2bf1 4889FD   		movq	%rdi, %rbp
 4727 2bf4 53       		pushq	%rbx
 4728              		.cfi_def_cfa_offset 24
 4729              		.cfi_offset 3, -24
 4730 2bf5 4881EC98 		subq	$2200, %rsp
 4730      080000
 4731              		.cfi_def_cfa_offset 2224
 4732 2bfc 488D5C24 		leaq	16(%rsp), %rbx
 4732      10
 4733 2c01 488D7424 		leaq	80(%rsp), %rsi
 4733      50
 4734 2c06 48C74424 		movq	$_ZTV17RecordingReporter+16, 80(%rsp)
 4734      50000000 
 4734      00
 4735 2c0f 64488B04 		movq	%fs:40, %rax
 4735      25280000 
 4735      00
 4736 2c18 48898424 		movq	%rax, 2184(%rsp)
 4736      88080000 
 4737 2c20 31C0     		xorl	%eax, %eax
 4738 2c22 4889DF   		movq	%rbx, %rdi
 4739 2c25 C7442458 		movl	$0, 88(%rsp)
 4739      00000000 
 4740 2c2d C784245C 		movl	$0, 604(%rsp)
 4740      02000000 
 4740      000000
 4741 2c38 C7842460 		movl	$0, 864(%rsp)
 4741      03000000 
 4741      000000
 4742 2c43 C7842464 		movl	$0, 1636(%rsp)
 4742      06000000 
 4742      000000
 4743 2c4e C7842468 		movl	$0x00000000, 2152(%rsp)
 4743      08000000 
 4743      000000
 4744 2c59 C784246C 		movl	$0, 2156(%rsp)
 4744      08000000 
 4744      000000
 4745 2c64 C7842470 		movl	$0, 2160(%rsp)
 4745      08000000 
 4745      000000
 4746 2c6f C7842474 		movl	$0, 2164(%rsp)
 4746      08000000 
 4746      000000
 4747 2c7a C7842478 		movl	$0x00000000, 2168(%rsp)
 4747      08000000 
 4747      000000
 4748 2c85 C644245C 		movb	$0, 92(%rsp)
 4748      00
 4749 2c8a C684245C 		movb	$0, 348(%rsp)
 4749      01000000 
 4750 2c92 C6842460 		movb	$0, 608(%rsp)
 4750      02000000 
 4751 2c9a C6842464 		movb	$0, 868(%rsp)
 4751      03000000 
 4752 2ca2 C6842464 		movb	$0, 1124(%rsp)
 4752      04000000 
 4753 2caa C6842464 		movb	$0, 1380(%rsp)
 4753      05000000 
 4754 2cb2 C6842468 		movb	$0, 1640(%rsp)
 4754      06000000 
 4755 2cba C6842468 		movb	$0, 1896(%rsp)
 4755      07000000 
 4756              	.LEHB53:
 4757 2cc2 E8000000 		call	_ZN8UnitTest11TestResultsC1EPNS_12TestReporterE
 4757      00
 4758 2cc7 E8000000 		call	_ZN8UnitTest11CurrentTest7ResultsEv
 4758      00
 4759 2ccc 488B00   		movq	(%rax), %rax
 4760 2ccf 48890424 		movq	%rax, (%rsp)
 4761 2cd3 E8000000 		call	_ZN8UnitTest11CurrentTest7DetailsEv
 4761      00
 4762 2cd8 488B00   		movq	(%rax), %rax
 4763 2cdb 48894424 		movq	%rax, 8(%rsp)
 4763      08
 4764 2ce0 E8000000 		call	_ZN8UnitTest11CurrentTest7ResultsEv
 4764      00
 4765              	.LEHE53:
 4766 2ce5 488918   		movq	%rbx, (%rax)
 4767              	.LEHB54:
 4768 2ce8 E8000000 		call	_ZN8UnitTest11CurrentTest7DetailsEv
 4768      00
 4769 2ced 488D5C24 		leaq	48(%rsp), %rbx
 4769      30
 4770 2cf2 488B30   		movq	(%rax), %rsi
 4771 2cf5 BA2E0000 		movl	$46, %edx
 4771      00
 4772 2cfa 4889DF   		movq	%rbx, %rdi
 4773 2cfd E8000000 		call	_ZN8UnitTest11TestDetailsC1ERKS0_i
 4773      00
 4774 2d02 E8000000 		call	_ZN8UnitTest11CurrentTest7ResultsEv
 4774      00
 4775 2d07 488B38   		movq	(%rax), %rdi
 4776 2d0a BA000000 		movl	$.LC14, %edx
 4776      00
 4777 2d0f 4889DE   		movq	%rbx, %rsi
 4778 2d12 E8000000 		call	_ZN8UnitTest11TestResults13OnTestFailureERKNS_11TestDetailsEPKc
 4778      00
 4779              	.LEHE54:
 4780              	.L601:
 4781              	.LEHB55:
 4782 2d17 E8000000 		call	_ZN8UnitTest11CurrentTest7ResultsEv
 4782      00
 4783 2d1c 488B1424 		movq	(%rsp), %rdx
 4784 2d20 488910   		movq	%rdx, (%rax)
 4785 2d23 E8000000 		call	_ZN8UnitTest11CurrentTest7DetailsEv
 4785      00
 4786              	.LEHE55:
 4787 2d28 488B5424 		movq	8(%rsp), %rdx
 4787      08
 4788 2d2d 488910   		movq	%rdx, (%rax)
 4789              	.LEHB56:
 4790 2d30 E8000000 		call	_ZN8UnitTest11CurrentTest7DetailsEv
 4790      00
 4791 2d35 488B30   		movq	(%rax), %rsi
 4792 2d38 BA310000 		movl	$49, %edx
 4792      00
 4793 2d3d 4889DF   		movq	%rbx, %rdi
 4794 2d40 E8000000 		call	_ZN8UnitTest11TestDetailsC1ERKS0_i
 4794      00
 4795 2d45 488B6D10 		movq	16(%rbp), %rbp
 4796 2d49 E8000000 		call	_ZN8UnitTest11CurrentTest7ResultsEv
 4796      00
 4797 2d4e 488B38   		movq	(%rax), %rdi
 4798 2d51 488D9424 		leaq	1124(%rsp), %rdx
 4798      64040000 
 4799 2d59 4889D9   		movq	%rbx, %rcx
 4800 2d5c 4889EE   		movq	%rbp, %rsi
 4801 2d5f E8000000 		call	_ZN8UnitTest10CheckEqualERNS_11TestResultsEPKcPcRKNS_11TestDetailsE
 4801      00
 4802              	.LEHE56:
 4803              	.L605:
 4804 2d64 488D7C24 		leaq	80(%rsp), %rdi
 4804      50
 4805 2d69 48C74424 		movq	$_ZTV17RecordingReporter+16, 80(%rsp)
 4805      50000000 
 4805      00
 4806              	.LEHB57:
 4807 2d72 E8000000 		call	_ZN8UnitTest12TestReporterD2Ev
 4807      00
 4808              	.LEHE57:
 4809 2d77 488B8424 		movq	2184(%rsp), %rax
 4809      88080000 
 4810 2d7f 64483304 		xorq	%fs:40, %rax
 4810      25280000 
 4810      00
 4811 2d88 750A     		jne	.L615
 4812 2d8a 4881C498 		addq	$2200, %rsp
 4812      080000
 4813              		.cfi_remember_state
 4814              		.cfi_def_cfa_offset 24
 4815 2d91 5B       		popq	%rbx
 4816              		.cfi_def_cfa_offset 16
 4817 2d92 5D       		popq	%rbp
 4818              		.cfi_def_cfa_offset 8
 4819 2d93 C3       		ret
 4820              	.L615:
 4821              		.cfi_restore_state
 4822 2d94 E8000000 		call	__stack_chk_fail
 4822      00
 4823              	.L611:
 4824 2d99 4889C7   		movq	%rax, %rdi
 4825 2d9c E8000000 		call	__cxa_begin_catch
 4825      00
 4826              	.LEHB58:
 4827 2da1 E8000000 		call	_ZN8UnitTest11CurrentTest7DetailsEv
 4827      00
 4828 2da6 488B30   		movq	(%rax), %rsi
 4829 2da9 BA310000 		movl	$49, %edx
 4829      00
 4830 2dae 4889DF   		movq	%rbx, %rdi
 4831 2db1 E8000000 		call	_ZN8UnitTest11TestDetailsC1ERKS0_i
 4831      00
 4832 2db6 E8000000 		call	_ZN8UnitTest11CurrentTest7ResultsEv
 4832      00
 4833 2dbb 488B38   		movq	(%rax), %rdi
 4834 2dbe BA000000 		movl	$.LC16, %edx
 4834      00
 4835 2dc3 4889DE   		movq	%rbx, %rsi
 4836 2dc6 E8000000 		call	_ZN8UnitTest11TestResults13OnTestFailureERKNS_11TestDetailsEPKc
 4836      00
 4837              	.LEHE58:
 4838              	.LEHB59:
 4839 2dcb E8000000 		call	__cxa_end_catch
 4839      00
 4840              	.LEHE59:
 4841 2dd0 EB92     		jmp	.L605
 4842              	.L607:
 4843 2dd2 4889C7   		movq	%rax, %rdi
 4844              		.p2align 4,,5
 4845 2dd5 E8000000 		call	__cxa_begin_catch
 4845      00
 4846              		.p2align 4,,5
 4847              	.LEHB60:
 4848 2dda E8000000 		call	_ZN8UnitTest11CurrentTest7DetailsEv
 4848      00
 4849 2ddf 488D5C24 		leaq	48(%rsp), %rbx
 4849      30
 4850 2de4 488B30   		movq	(%rax), %rsi
 4851 2de7 BA2E0000 		movl	$46, %edx
 4851      00
 4852 2dec 4889DF   		movq	%rbx, %rdi
 4853 2def E8000000 		call	_ZN8UnitTest11TestDetailsC1ERKS0_i
 4853      00
 4854 2df4 E8000000 		call	_ZN8UnitTest11CurrentTest7ResultsEv
 4854      00
 4855 2df9 488B38   		movq	(%rax), %rdi
 4856 2dfc BA000000 		movl	$.LC15, %edx
 4856      00
 4857 2e01 4889DE   		movq	%rbx, %rsi
 4858 2e04 E8000000 		call	_ZN8UnitTest11TestResults13OnTestFailureERKNS_11TestDetailsEPKc
 4858      00
 4859              	.LEHE60:
 4860              	.LEHB61:
 4861 2e09 E8000000 		call	__cxa_end_catch
 4861      00
 4862              	.LEHE61:
 4863 2e0e E904FFFF 		jmp	.L601
 4863      FF
 4864              	.L610:
 4865 2e13 4889C3   		movq	%rax, %rbx
 4866              	.L602:
 4867 2e16 488D7C24 		leaq	80(%rsp), %rdi
 4867      50
 4868 2e1b 48C74424 		movq	$_ZTV17RecordingReporter+16, 80(%rsp)
 4868      50000000 
 4868      00
 4869 2e24 E8000000 		call	_ZN8UnitTest12TestReporterD2Ev
 4869      00
 4870 2e29 4889DF   		movq	%rbx, %rdi
 4871              	.LEHB62:
 4872 2e2c E8000000 		call	_Unwind_Resume
 4872      00
 4873              	.LEHE62:
 4874              	.L612:
 4875 2e31 4889C3   		movq	%rax, %rbx
 4876 2e34 E8000000 		call	__cxa_end_catch
 4876      00
 4877 2e39 EBDB     		jmp	.L602
 4878              	.L608:
 4879 2e3b 4889C3   		movq	%rax, %rbx
 4880              	.L599:
 4881 2e3e 4889E7   		movq	%rsp, %rdi
 4882 2e41 E8000000 		call	_ZN17ScopedCurrentTestD1Ev
 4882      00
 4883              		.p2align 4,,2
 4884 2e46 EBCE     		jmp	.L602
 4885              	.L609:
 4886 2e48 4889C3   		movq	%rax, %rbx
 4887 2e4b E8000000 		call	__cxa_end_catch
 4887      00
 4888              		.p2align 4,,5
 4889 2e50 EBEC     		jmp	.L599
 4890              		.cfi_endproc
 4891              	.LFE1105:
 4892              		.section	.gcc_except_table
 4893              		.align 4
 4894              	.LLSDA1105:
 4895 0158 FF       		.byte	0xff
 4896 0159 03       		.byte	0x3
 4897 015a 45       		.uleb128 .LLSDATT1105-.LLSDATTD1105
 4898              	.LLSDATTD1105:
 4899 015b 01       		.byte	0x1
 4900 015c 3A       		.uleb128 .LLSDACSE1105-.LLSDACSB1105
 4901              	.LLSDACSB1105:
 4902 015d D201     		.uleb128 .LEHB53-.LFB1105
 4903 015f 23       		.uleb128 .LEHE53-.LEHB53
 4904 0160 A304     		.uleb128 .L610-.LFB1105
 4905 0162 00       		.uleb128 0
 4906 0163 F801     		.uleb128 .LEHB54-.LFB1105
 4907 0165 2F       		.uleb128 .LEHE54-.LEHB54
 4908 0166 E203     		.uleb128 .L607-.LFB1105
 4909 0168 01       		.uleb128 0x1
 4910 0169 A702     		.uleb128 .LEHB55-.LFB1105
 4911 016b 11       		.uleb128 .LEHE55-.LEHB55
 4912 016c A304     		.uleb128 .L610-.LFB1105
 4913 016e 00       		.uleb128 0
 4914 016f C002     		.uleb128 .LEHB56-.LFB1105
 4915 0171 34       		.uleb128 .LEHE56-.LEHB56
 4916 0172 A903     		.uleb128 .L611-.LFB1105
 4917 0174 01       		.uleb128 0x1
 4918 0175 8203     		.uleb128 .LEHB57-.LFB1105
 4919 0177 05       		.uleb128 .LEHE57-.LEHB57
 4920 0178 00       		.uleb128 0
 4921 0179 00       		.uleb128 0
 4922 017a B103     		.uleb128 .LEHB58-.LFB1105
 4923 017c 2A       		.uleb128 .LEHE58-.LEHB58
 4924 017d C104     		.uleb128 .L612-.LFB1105
 4925 017f 00       		.uleb128 0
 4926 0180 DB03     		.uleb128 .LEHB59-.LFB1105
 4927 0182 05       		.uleb128 .LEHE59-.LEHB59
 4928 0183 A304     		.uleb128 .L610-.LFB1105
 4929 0185 00       		.uleb128 0
 4930 0186 EA03     		.uleb128 .LEHB60-.LFB1105
 4931 0188 2F       		.uleb128 .LEHE60-.LEHB60
 4932 0189 D804     		.uleb128 .L609-.LFB1105
 4933 018b 00       		.uleb128 0
 4934 018c 9904     		.uleb128 .LEHB61-.LFB1105
 4935 018e 05       		.uleb128 .LEHE61-.LEHB61
 4936 018f CB04     		.uleb128 .L608-.LFB1105
 4937 0191 00       		.uleb128 0
 4938 0192 BC04     		.uleb128 .LEHB62-.LFB1105
 4939 0194 05       		.uleb128 .LEHE62-.LEHB62
 4940 0195 00       		.uleb128 0
 4941 0196 00       		.uleb128 0
 4942              	.LLSDACSE1105:
 4943 0197 01       		.byte	0x1
 4944 0198 00       		.byte	0
 4945 0199 000000   		.align 4
 4946 019c 00000000 		.long	0
 4947              	
 4948              	.LLSDATT1105:
 4949              		.text
 4951              		.align 2
 4952 2e52 66666666 		.p2align 4,,15
 4952      662E0F1F 
 4952      84000000 
 4952      0000
 4954              	_ZNK12_GLOBAL__N_121TestCheckFailsOnFalse7RunImplEv:
 4955              	.LFB1101:
 4956              		.cfi_startproc
 4957              		.cfi_personality 0x3,__gxx_personality_v0
 4958              		.cfi_lsda 0x3,.LLSDA1101
 4959 2e60 55       		pushq	%rbp
 4960              		.cfi_def_cfa_offset 16
 4961              		.cfi_offset 6, -16
 4962 2e61 53       		pushq	%rbx
 4963              		.cfi_def_cfa_offset 24
 4964              		.cfi_offset 3, -24
 4965 2e62 4881EC98 		subq	$2200, %rsp
 4965      080000
 4966              		.cfi_def_cfa_offset 2224
 4967 2e69 488D5C24 		leaq	16(%rsp), %rbx
 4967      10
 4968 2e6e 488D7424 		leaq	80(%rsp), %rsi
 4968      50
 4969 2e73 48C74424 		movq	$_ZTV17RecordingReporter+16, 80(%rsp)
 4969      50000000 
 4969      00
 4970 2e7c 64488B04 		movq	%fs:40, %rax
 4970      25280000 
 4970      00
 4971 2e85 48898424 		movq	%rax, 2184(%rsp)
 4971      88080000 
 4972 2e8d 31C0     		xorl	%eax, %eax
 4973 2e8f 4889DF   		movq	%rbx, %rdi
 4974 2e92 C7442458 		movl	$0, 88(%rsp)
 4974      00000000 
 4975 2e9a C784245C 		movl	$0, 604(%rsp)
 4975      02000000 
 4975      000000
 4976 2ea5 C7842460 		movl	$0, 864(%rsp)
 4976      03000000 
 4976      000000
 4977 2eb0 C7842464 		movl	$0, 1636(%rsp)
 4977      06000000 
 4977      000000
 4978 2ebb C7842468 		movl	$0x00000000, 2152(%rsp)
 4978      08000000 
 4978      000000
 4979 2ec6 C784246C 		movl	$0, 2156(%rsp)
 4979      08000000 
 4979      000000
 4980 2ed1 C7842470 		movl	$0, 2160(%rsp)
 4980      08000000 
 4980      000000
 4981 2edc C7842474 		movl	$0, 2164(%rsp)
 4981      08000000 
 4981      000000
 4982 2ee7 C7842478 		movl	$0x00000000, 2168(%rsp)
 4982      08000000 
 4982      000000
 4983 2ef2 C644245C 		movb	$0, 92(%rsp)
 4983      00
 4984 2ef7 C684245C 		movb	$0, 348(%rsp)
 4984      01000000 
 4985 2eff C6842460 		movb	$0, 608(%rsp)
 4985      02000000 
 4986 2f07 C6842464 		movb	$0, 868(%rsp)
 4986      03000000 
 4987 2f0f C6842464 		movb	$0, 1124(%rsp)
 4987      04000000 
 4988 2f17 C6842464 		movb	$0, 1380(%rsp)
 4988      05000000 
 4989 2f1f C6842468 		movb	$0, 1640(%rsp)
 4989      06000000 
 4990 2f27 C6842468 		movb	$0, 1896(%rsp)
 4990      07000000 
 4991              	.LEHB63:
 4992 2f2f E8000000 		call	_ZN8UnitTest11TestResultsC1EPNS_12TestReporterE
 4992      00
 4993 2f34 E8000000 		call	_ZN8UnitTest11CurrentTest7ResultsEv
 4993      00
 4994 2f39 488B00   		movq	(%rax), %rax
 4995 2f3c 48890424 		movq	%rax, (%rsp)
 4996 2f40 E8000000 		call	_ZN8UnitTest11CurrentTest7DetailsEv
 4996      00
 4997 2f45 488B00   		movq	(%rax), %rax
 4998 2f48 48894424 		movq	%rax, 8(%rsp)
 4998      08
 4999 2f4d E8000000 		call	_ZN8UnitTest11CurrentTest7ResultsEv
 4999      00
 5000              	.LEHE63:
 5001 2f52 488918   		movq	%rbx, (%rax)
 5002              	.LEHB64:
 5003 2f55 E8000000 		call	_ZN8UnitTest11CurrentTest7DetailsEv
 5003      00
 5004 2f5a 488D6C24 		leaq	48(%rsp), %rbp
 5004      30
 5005 2f5f 488B30   		movq	(%rax), %rsi
 5006 2f62 BA210000 		movl	$33, %edx
 5006      00
 5007 2f67 4889EF   		movq	%rbp, %rdi
 5008 2f6a E8000000 		call	_ZN8UnitTest11TestDetailsC1ERKS0_i
 5008      00
 5009 2f6f E8000000 		call	_ZN8UnitTest11CurrentTest7ResultsEv
 5009      00
 5010 2f74 488B38   		movq	(%rax), %rdi
 5011 2f77 BA000000 		movl	$.LC14, %edx
 5011      00
 5012 2f7c 4889EE   		movq	%rbp, %rsi
 5013 2f7f E8000000 		call	_ZN8UnitTest11TestResults13OnTestFailureERKNS_11TestDetailsEPKc
 5013      00
 5014              	.LEHE64:
 5015              	.L621:
 5016 2f84 4889DF   		movq	%rbx, %rdi
 5017              	.LEHB65:
 5018 2f87 E8000000 		call	_ZNK8UnitTest11TestResults15GetFailureCountEv
 5018      00
 5019              	.LEHE65:
 5020 2f8c 89C3     		movl	%eax, %ebx
 5021              	.LEHB66:
 5022 2f8e E8000000 		call	_ZN8UnitTest11CurrentTest7ResultsEv
 5022      00
 5023 2f93 488B1424 		movq	(%rsp), %rdx
 5024 2f97 488910   		movq	%rdx, (%rax)
 5025 2f9a E8000000 		call	_ZN8UnitTest11CurrentTest7DetailsEv
 5025      00
 5026              	.LEHE66:
 5027 2f9f 488B5424 		movq	8(%rsp), %rdx
 5027      08
 5028 2fa4 488D7C24 		leaq	80(%rsp), %rdi
 5028      50
 5029 2fa9 488910   		movq	%rdx, (%rax)
 5030 2fac 48C74424 		movq	$_ZTV17RecordingReporter+16, 80(%rsp)
 5030      50000000 
 5030      00
 5031              	.LEHB67:
 5032 2fb5 E8000000 		call	_ZN8UnitTest12TestReporterD2Ev
 5032      00
 5033              	.LEHE67:
 5034 2fba 85DB     		testl	%ebx, %ebx
 5035 2fbc 7E22     		jle	.L633
 5036              	.L616:
 5037 2fbe 488B8424 		movq	2184(%rsp), %rax
 5037      88080000 
 5038 2fc6 64483304 		xorq	%fs:40, %rax
 5038      25280000 
 5038      00
 5039 2fcf 753B     		jne	.L634
 5040 2fd1 4881C498 		addq	$2200, %rsp
 5040      080000
 5041              		.cfi_remember_state
 5042              		.cfi_def_cfa_offset 24
 5043 2fd8 5B       		popq	%rbx
 5044              		.cfi_def_cfa_offset 16
 5045 2fd9 5D       		popq	%rbp
 5046              		.cfi_def_cfa_offset 8
 5047 2fda C3       		ret
 5048 2fdb 0F1F4400 		.p2align 4,,10
 5048      00
 5049              		.p2align 3
 5050              	.L633:
 5051              		.cfi_restore_state
 5052              	.LEHB68:
 5053 2fe0 E8000000 		call	_ZN8UnitTest11CurrentTest7DetailsEv
 5053      00
 5054 2fe5 488B30   		movq	(%rax), %rsi
 5055 2fe8 BA250000 		movl	$37, %edx
 5055      00
 5056 2fed 4889EF   		movq	%rbp, %rdi
 5057 2ff0 E8000000 		call	_ZN8UnitTest11TestDetailsC1ERKS0_i
 5057      00
 5058 2ff5 E8000000 		call	_ZN8UnitTest11CurrentTest7ResultsEv
 5058      00
 5059 2ffa 488B38   		movq	(%rax), %rdi
 5060 2ffd BA000000 		movl	$.LC11, %edx
 5060      00
 5061 3002 4889EE   		movq	%rbp, %rsi
 5062 3005 E8000000 		call	_ZN8UnitTest11TestResults13OnTestFailureERKNS_11TestDetailsEPKc
 5062      00
 5063              	.LEHE68:
 5064 300a EBB2     		jmp	.L616
 5065              	.L634:
 5066 300c E8000000 		call	__stack_chk_fail
 5066      00
 5067              	.L630:
 5068 3011 4889C7   		movq	%rax, %rdi
 5069              		.p2align 4,,5
 5070 3014 E8000000 		call	__cxa_begin_catch
 5070      00
 5071              	.LEHB69:
 5072 3019 E8000000 		call	_ZN8UnitTest11CurrentTest7DetailsEv
 5072      00
 5073 301e 488B30   		movq	(%rax), %rsi
 5074 3021 BA250000 		movl	$37, %edx
 5074      00
 5075 3026 4889EF   		movq	%rbp, %rdi
 5076 3029 E8000000 		call	_ZN8UnitTest11TestDetailsC1ERKS0_i
 5076      00
 5077 302e E8000000 		call	_ZN8UnitTest11CurrentTest7ResultsEv
 5077      00
 5078 3033 488B38   		movq	(%rax), %rdi
 5079 3036 BA000000 		movl	$.LC13, %edx
 5079      00
 5080 303b 4889EE   		movq	%rbp, %rsi
 5081 303e E8000000 		call	_ZN8UnitTest11TestResults13OnTestFailureERKNS_11TestDetailsEPKc
 5081      00
 5082              	.LEHE69:
 5083              	.LEHB70:
 5084 3043 E8000000 		call	__cxa_end_catch
 5084      00
 5085              	.LEHE70:
 5086 3048 E971FFFF 		jmp	.L616
 5086      FF
 5087              	.L628:
 5088 304d 4889C3   		movq	%rax, %rbx
 5089              	.L619:
 5090 3050 4889E7   		movq	%rsp, %rdi
 5091 3053 E8000000 		call	_ZN17ScopedCurrentTestD1Ev
 5091      00
 5092              	.L622:
 5093 3058 488D7C24 		leaq	80(%rsp), %rdi
 5093      50
 5094 305d 48C74424 		movq	$_ZTV17RecordingReporter+16, 80(%rsp)
 5094      50000000 
 5094      00
 5095 3066 E8000000 		call	_ZN8UnitTest12TestReporterD2Ev
 5095      00
 5096 306b 4889DF   		movq	%rbx, %rdi
 5097              	.LEHB71:
 5098 306e E8000000 		call	_Unwind_Resume
 5098      00
 5099              	.LEHE71:
 5100              	.L631:
 5101 3073 4889C3   		movq	%rax, %rbx
 5102 3076 E8000000 		call	__cxa_end_catch
 5102      00
 5103 307b 4889DF   		movq	%rbx, %rdi
 5104              	.LEHB72:
 5105 307e E8000000 		call	_Unwind_Resume
 5105      00
 5106              	.LEHE72:
 5107              	.L627:
 5108 3083 4889C7   		movq	%rax, %rdi
 5109 3086 E8000000 		call	__cxa_begin_catch
 5109      00
 5110              	.LEHB73:
 5111 308b E8000000 		call	_ZN8UnitTest11CurrentTest7DetailsEv
 5111      00
 5112 3090 488D6C24 		leaq	48(%rsp), %rbp
 5112      30
 5113 3095 488B30   		movq	(%rax), %rsi
 5114 3098 BA210000 		movl	$33, %edx
 5114      00
 5115 309d 4889EF   		movq	%rbp, %rdi
 5116 30a0 E8000000 		call	_ZN8UnitTest11TestDetailsC1ERKS0_i
 5116      00
 5117 30a5 E8000000 		call	_ZN8UnitTest11CurrentTest7ResultsEv
 5117      00
 5118 30aa 488B38   		movq	(%rax), %rdi
 5119 30ad BA000000 		movl	$.LC15, %edx
 5119      00
 5120 30b2 4889EE   		movq	%rbp, %rsi
 5121 30b5 E8000000 		call	_ZN8UnitTest11TestResults13OnTestFailureERKNS_11TestDetailsEPKc
 5121      00
 5122              	.LEHE73:
 5123              	.LEHB74:
 5124 30ba E8000000 		call	__cxa_end_catch
 5124      00
 5125              	.LEHE74:
 5126 30bf E9C0FEFF 		jmp	.L621
 5126      FF
 5127              	.L626:
 5128 30c4 4889C3   		movq	%rax, %rbx
 5129              		.p2align 4,,5
 5130 30c7 EB8F     		jmp	.L622
 5131              	.L629:
 5132 30c9 4889C3   		movq	%rax, %rbx
 5133 30cc 0F1F4000 		.p2align 4,,5
 5134 30d0 E8000000 		call	__cxa_end_catch
 5134      00
 5135              		.p2align 4,,2
 5136 30d5 E976FFFF 		jmp	.L619
 5136      FF
 5137              		.cfi_endproc
 5138              	.LFE1101:
 5139              		.section	.gcc_except_table
 5140              		.align 4
 5141              	.LLSDA1101:
 5142 01a0 FF       		.byte	0xff
 5143 01a1 03       		.byte	0x3
