   1              		.file	"testError.cpp"
   2              		.text
   3              	.Ltext0:
   4              		.section	.rodata
   5              	.LC0:
   6 0000 44656661 		.string	"DefaultSuite"
   6      756C7453 
   6      75697465 
   6      00
   7              		.section	.text._ZN13UnitTestSuite12GetSuiteNameEv,"axG",@progbits,_ZN13UnitTestSuite12GetSuiteName
   8              		.weak	_ZN13UnitTestSuite12GetSuiteNameEv
  10              	_ZN13UnitTestSuite12GetSuiteNameEv:
  11              	.LFB0:
  12              		.file 1 "/home/pandu/Desktop/DigitalLogicDesign/Lab/03-finishingup/backend/libs/libutpp/TestSuite.
   1:/home/pandu/Desktop/DigitalLogicDesign/Lab/03-finishingup/backend/libs/libutpp/TestSuite.h **** #ifndef UNITTEST_TESTSUITE_H
   2:/home/pandu/Desktop/DigitalLogicDesign/Lab/03-finishingup/backend/libs/libutpp/TestSuite.h **** #define UNITTEST_TESTSUITE_H
   3:/home/pandu/Desktop/DigitalLogicDesign/Lab/03-finishingup/backend/libs/libutpp/TestSuite.h **** 
   4:/home/pandu/Desktop/DigitalLogicDesign/Lab/03-finishingup/backend/libs/libutpp/TestSuite.h **** namespace UnitTestSuite {
   5:/home/pandu/Desktop/DigitalLogicDesign/Lab/03-finishingup/backend/libs/libutpp/TestSuite.h **** 
   6:/home/pandu/Desktop/DigitalLogicDesign/Lab/03-finishingup/backend/libs/libutpp/TestSuite.h ****     inline char const* GetSuiteName ()
   7:/home/pandu/Desktop/DigitalLogicDesign/Lab/03-finishingup/backend/libs/libutpp/TestSuite.h ****     {
  13              		.loc 1 7 0
  14              		.cfi_startproc
  15 0000 55       		pushq	%rbp
  16              		.cfi_def_cfa_offset 16
  17              		.cfi_offset 6, -16
  18 0001 4889E5   		movq	%rsp, %rbp
  19              		.cfi_def_cfa_register 6
   8:/home/pandu/Desktop/DigitalLogicDesign/Lab/03-finishingup/backend/libs/libutpp/TestSuite.h ****         return "DefaultSuite";
  20              		.loc 1 8 0
  21 0004 B8000000 		movl	$.LC0, %eax
  21      00
   9:/home/pandu/Desktop/DigitalLogicDesign/Lab/03-finishingup/backend/libs/libutpp/TestSuite.h ****     }
  22              		.loc 1 9 0
  23 0009 5D       		popq	%rbp
  24              		.cfi_def_cfa 7, 8
  25 000a C3       		ret
  26              		.cfi_endproc
  27              	.LFE0:
  29              		.globl	buf
  30              		.bss
  31              		.align 32
  34              	buf:
  35 0000 00000000 		.zero	1024
  35      00000000 
  35      00000000 
  35      00000000 
  35      00000000 
  36              		.text
  37              		.globl	_Z7fillBufic
  39              	_Z7fillBufic:
  40              	.LFB1023:
  41              		.file 2 "testError.cpp"
   1:testError.cpp **** /*
   2:testError.cpp ****  * Copyright (C) 2009-2012 Chris McClelland
   3:testError.cpp ****  *
   4:testError.cpp ****  * This program is free software: you can redistribute it and/or modify
   5:testError.cpp ****  * it under the terms of the GNU Lesser General Public License as published by
   6:testError.cpp ****  * the Free Software Foundation, either version 3 of the License, or
   7:testError.cpp ****  * (at your option) any later version.
   8:testError.cpp ****  *
   9:testError.cpp ****  * This program is distributed in the hope that it will be useful,
  10:testError.cpp ****  * but WITHOUT ANY WARRANTY; without even the implied warranty of
  11:testError.cpp ****  * MERCHANTABILITY or FITNESS FOR A PARTICULAR PURPOSE.  See the
  12:testError.cpp ****  * GNU Lesser General Public License for more details.
  13:testError.cpp ****  *
  14:testError.cpp ****  * You should have received a copy of the GNU Lesser General Public License
  15:testError.cpp ****  * along with this program.  If not, see <http://www.gnu.org/licenses/>.
  16:testError.cpp ****  */
  17:testError.cpp **** #include <UnitTest++.h>
  18:testError.cpp **** #include <stdio.h>
  19:testError.cpp **** #include <stdlib.h>
  20:testError.cpp **** #include <string.h>
  21:testError.cpp **** #include <errno.h>
  22:testError.cpp **** #include "../liberror.h"
  23:testError.cpp **** 
  24:testError.cpp **** char buf[1024];
  25:testError.cpp **** 
  26:testError.cpp **** void fillBuf(int count, char value) {
  42              		.loc 2 26 0
  43              		.cfi_startproc
  44 0000 55       		pushq	%rbp
  45              		.cfi_def_cfa_offset 16
  46              		.cfi_offset 6, -16
  47 0001 4889E5   		movq	%rsp, %rbp
  48              		.cfi_def_cfa_register 6
  49 0004 897DEC   		movl	%edi, -20(%rbp)
  50 0007 89F0     		movl	%esi, %eax
  51 0009 8845E8   		movb	%al, -24(%rbp)
  52              	.LBB2:
  27:testError.cpp **** 	int i = 0;
  53              		.loc 2 27 0
  54 000c C745FC00 		movl	$0, -4(%rbp)
  54      000000
  28:testError.cpp **** 	while ( i < count ) {
  55              		.loc 2 28 0
  56 0013 EB15     		jmp	.L4
  57              	.L5:
  29:testError.cpp **** 		buf[i++] = value;
  58              		.loc 2 29 0
  59 0015 8B45FC   		movl	-4(%rbp), %eax
  60 0018 8D5001   		leal	1(%rax), %edx
  61 001b 8955FC   		movl	%edx, -4(%rbp)
  62 001e 4898     		cltq
  63 0020 0FB655E8 		movzbl	-24(%rbp), %edx
  64 0024 88900000 		movb	%dl, buf(%rax)
  64      0000
  65              	.L4:
  28:testError.cpp **** 	while ( i < count ) {
  66              		.loc 2 28 0 discriminator 1
  67 002a 8B45FC   		movl	-4(%rbp), %eax
  68 002d 3B45EC   		cmpl	-20(%rbp), %eax
  69 0030 7CE3     		jl	.L5
  30:testError.cpp **** 	}
  31:testError.cpp **** 	buf[i++] = '\0';
  70              		.loc 2 31 0
  71 0032 8B45FC   		movl	-4(%rbp), %eax
  72 0035 8D5001   		leal	1(%rax), %edx
  73 0038 8955FC   		movl	%edx, -4(%rbp)
  74 003b 4898     		cltq
  75 003d C6800000 		movb	$0, buf(%rax)
  75      000000
  32:testError.cpp **** 	while ( i < 1024 ) {
  76              		.loc 2 32 0
  77 0044 EB12     		jmp	.L6
  78              	.L7:
  33:testError.cpp **** 		buf[i++] = '.';
  79              		.loc 2 33 0
  80 0046 8B45FC   		movl	-4(%rbp), %eax
  81 0049 8D5001   		leal	1(%rax), %edx
  82 004c 8955FC   		movl	%edx, -4(%rbp)
  83 004f 4898     		cltq
  84 0051 C6800000 		movb	$46, buf(%rax)
  84      00002E
  85              	.L6:
  32:testError.cpp **** 	while ( i < 1024 ) {
  86              		.loc 2 32 0 discriminator 1
  87 0058 817DFCFF 		cmpl	$1023, -4(%rbp)
  87      030000
  88 005f 7EE5     		jle	.L7
  89              	.LBE2:
  34:testError.cpp **** 	}
  35:testError.cpp **** }
  90              		.loc 2 35 0
  91 0061 5D       		popq	%rbp
  92              		.cfi_def_cfa 7, 8
  93 0062 C3       		ret
  94              		.cfi_endproc
  95              	.LFE1023:
  97              		.section	.rodata
  98              	.LC1:
  99 000d 74657374 		.string	"testError.cpp"
  99      4572726F 
  99      722E6370 
  99      7000
 100              	.LC2:
 101 001b 4572726F 		.string	"Error_testNullRender"
 101      725F7465 
 101      73744E75 
 101      6C6C5265 
 101      6E646572 
 102              		.section	.text._ZN24TestError_testNullRenderC2Ev,"axG",@progbits,_ZN24TestError_testNullRenderC5Ev
 103              		.align 2
 104              		.weak	_ZN24TestError_testNullRenderC2Ev
 106              	_ZN24TestError_testNullRenderC2Ev:
 107              	.LFB1025:
  36:testError.cpp **** 
  37:testError.cpp **** TEST(Error_testNullRender) {
 108              		.loc 2 37 0
 109              		.cfi_startproc
 110 0000 55       		pushq	%rbp
 111              		.cfi_def_cfa_offset 16
 112              		.cfi_offset 6, -16
 113 0001 4889E5   		movq	%rsp, %rbp
 114              		.cfi_def_cfa_register 6
 115 0004 4883EC10 		subq	$16, %rsp
 116 0008 48897DF8 		movq	%rdi, -8(%rbp)
 117              	.LBB3:
 118              		.loc 2 37 0
 119 000c E8000000 		call	_ZN13UnitTestSuite12GetSuiteNameEv
 119      00
 120 0011 4889C2   		movq	%rax, %rdx
 121 0014 488B45F8 		movq	-8(%rbp), %rax
 122 0018 41B82500 		movl	$37, %r8d
 122      0000
 123 001e B9000000 		movl	$.LC1, %ecx
 123      00
 124 0023 BE000000 		movl	$.LC2, %esi
 124      00
 125 0028 4889C7   		movq	%rax, %rdi
 126 002b E8000000 		call	_ZN8UnitTest4TestC2EPKcS2_S2_i
 126      00
 127 0030 488B45F8 		movq	-8(%rbp), %rax
 128 0034 48C70000 		movq	$_ZTV24TestError_testNullRender+16, (%rax)
 128      000000
 129              	.LBE3:
 130 003b C9       		leave
 131              		.cfi_def_cfa 7, 8
 132 003c C3       		ret
 133              		.cfi_endproc
 134              	.LFE1025:
 136              		.weak	_ZN24TestError_testNullRenderC1Ev
 137              		.set	_ZN24TestError_testNullRenderC1Ev,_ZN24TestError_testNullRenderC2Ev
 138              		.globl	testError_testNullRenderInstance
 139              		.bss
 140              		.align 32
 143              	testError_testNullRenderInstance:
 144 0400 00000000 		.zero	56
 144      00000000 
 144      00000000 
 144      00000000 
 144      00000000 
 145              		.globl	adderError_testNullRender
 148              	adderError_testNullRender:
 149 0438 00       		.zero	1
 150              		.text
 151 0063 90       		.align 2
 152              		.globl	_ZNK24TestError_testNullRender7RunImplEv
 154              	_ZNK24TestError_testNullRender7RunImplEv:
 155              	.LFB1027:
 156              		.loc 2 37 0
 157              		.cfi_startproc
 158 0064 55       		pushq	%rbp
 159              		.cfi_def_cfa_offset 16
 160              		.cfi_offset 6, -16
 161 0065 4889E5   		movq	%rsp, %rbp
 162              		.cfi_def_cfa_register 6
 163 0068 4883EC10 		subq	$16, %rsp
 164 006c 48897DF8 		movq	%rdi, -8(%rbp)
  38:testError.cpp **** 	fillBuf(16, 'A');
 165              		.loc 2 38 0
 166 0070 BE410000 		movl	$65, %esi
 166      00
 167 0075 BF100000 		movl	$16, %edi
 167      00
 168 007a E8000000 		call	_Z7fillBufic
 168      00
  39:testError.cpp **** 	errRender(NULL, buf);
 169              		.loc 2 39 0
 170 007f BE000000 		movl	$buf, %esi
 170      00
 171 0084 BF000000 		movl	$0, %edi
 171      00
 172 0089 B8000000 		movl	$0, %eax
 172      00
 173 008e E8000000 		call	errRender
 173      00
  40:testError.cpp **** }
 174              		.loc 2 40 0
 175 0093 C9       		leave
 176              		.cfi_def_cfa 7, 8
 177 0094 C3       		ret
 178              		.cfi_endproc
 179              	.LFE1027:
 181              		.section	.rodata
 182              	.LC3:
 183 0030 4572726F 		.string	"Error_testRender"
 183      725F7465 
 183      73745265 
 183      6E646572 
 183      00
 184              		.section	.text._ZN20TestError_testRenderC2Ev,"axG",@progbits,_ZN20TestError_testRenderC5Ev,comdat
 185              		.align 2
 186              		.weak	_ZN20TestError_testRenderC2Ev
 188              	_ZN20TestError_testRenderC2Ev:
 189              	.LFB1029:
  41:testError.cpp **** 
  42:testError.cpp **** TEST(Error_testRender) {
 190              		.loc 2 42 0
 191              		.cfi_startproc
 192 0000 55       		pushq	%rbp
 193              		.cfi_def_cfa_offset 16
 194              		.cfi_offset 6, -16
 195 0001 4889E5   		movq	%rsp, %rbp
 196              		.cfi_def_cfa_register 6
 197 0004 4883EC10 		subq	$16, %rsp
 198 0008 48897DF8 		movq	%rdi, -8(%rbp)
 199              	.LBB4:
 200              		.loc 2 42 0
 201 000c E8000000 		call	_ZN13UnitTestSuite12GetSuiteNameEv
 201      00
 202 0011 4889C2   		movq	%rax, %rdx
 203 0014 488B45F8 		movq	-8(%rbp), %rax
 204 0018 41B82A00 		movl	$42, %r8d
 204      0000
 205 001e B9000000 		movl	$.LC1, %ecx
 205      00
 206 0023 BE000000 		movl	$.LC3, %esi
 206      00
 207 0028 4889C7   		movq	%rax, %rdi
 208 002b E8000000 		call	_ZN8UnitTest4TestC2EPKcS2_S2_i
 208      00
 209 0030 488B45F8 		movq	-8(%rbp), %rax
 210 0034 48C70000 		movq	$_ZTV20TestError_testRender+16, (%rax)
 210      000000
 211              	.LBE4:
 212 003b C9       		leave
 213              		.cfi_def_cfa 7, 8
 214 003c C3       		ret
 215              		.cfi_endproc
 216              	.LFE1029:
 218              		.weak	_ZN20TestError_testRenderC1Ev
 219              		.set	_ZN20TestError_testRenderC1Ev,_ZN20TestError_testRenderC2Ev
 220              		.globl	testError_testRenderInstance
 221              		.bss
 222 0439 00000000 		.align 32
 222      000000
 225              	testError_testRenderInstance:
 226 0440 00000000 		.zero	56
 226      00000000 
 226      00000000 
 226      00000000 
 226      00000000 
 227              		.globl	adderError_testRender
 230              	adderError_testRender:
 231 0478 00       		.zero	1
 232              		.section	.rodata
 233 0041 00000000 		.align 8
 233      000000
 234              	.LC4:
 235 0048 556E6861 		.string	"Unhandled exception in CHECK_EQUAL(buf, error)"
 235      6E646C65 
 235      64206578 
 235      63657074 
 235      696F6E20 
 236              		.text
 237 0095 90       		.align 2
 238              		.globl	_ZNK20TestError_testRender7RunImplEv
 240              	_ZNK20TestError_testRender7RunImplEv:
 241              	.LFB1031:
 242              		.loc 2 42 0
 243              		.cfi_startproc
 244              		.cfi_personality 0x3,__gxx_personality_v0
 245              		.cfi_lsda 0x3,.LLSDA1031
 246 0096 55       		pushq	%rbp
 247              		.cfi_def_cfa_offset 16
 248              		.cfi_offset 6, -16
 249 0097 4889E5   		movq	%rsp, %rbp
 250              		.cfi_def_cfa_register 6
 251 009a 53       		pushq	%rbx
 252 009b 4883EC48 		subq	$72, %rsp
 253              		.cfi_offset 3, -24
 254 009f 48897DB8 		movq	%rdi, -72(%rbp)
 255              	.LBB5:
  43:testError.cpp **** 	int i;
  44:testError.cpp **** 	const char *error;
  45:testError.cpp **** 	for ( i = 500; i < 516; i++ ) {
 256              		.loc 2 45 0
 257 00a3 C745C4F4 		movl	$500, -60(%rbp)
 257      010000
 258 00aa EB7C     		jmp	.L12
 259              	.L13:
  46:testError.cpp **** 		error = NULL;
 260              		.loc 2 46 0
 261 00ac 48C745C8 		movq	$0, -56(%rbp)
 261      00000000 
  47:testError.cpp **** 		fillBuf(i, 'A');
 262              		.loc 2 47 0
 263 00b4 8B45C4   		movl	-60(%rbp), %eax
 264 00b7 BE410000 		movl	$65, %esi
 264      00
 265 00bc 89C7     		movl	%eax, %edi
 266 00be E8000000 		call	_Z7fillBufic
 266      00
  48:testError.cpp **** 		errRender(&error, buf);
 267              		.loc 2 48 0
 268 00c3 488D45C8 		leaq	-56(%rbp), %rax
 269 00c7 BE000000 		movl	$buf, %esi
 269      00
 270 00cc 4889C7   		movq	%rax, %rdi
 271 00cf B8000000 		movl	$0, %eax
 271      00
 272              	.LEHB0:
 273 00d4 E8000000 		call	errRender
 273      00
 274              	.LEHE0:
 275              	.LEHB1:
  49:testError.cpp **** 		CHECK_EQUAL(buf, error);
 276              		.loc 2 49 0
 277 00d9 E8000000 		call	_ZN8UnitTest11CurrentTest7DetailsEv
 277      00
 278 00de 488B08   		movq	(%rax), %rcx
 279 00e1 488D45D0 		leaq	-48(%rbp), %rax
 280 00e5 BA310000 		movl	$49, %edx
 280      00
 281 00ea 4889CE   		movq	%rcx, %rsi
 282 00ed 4889C7   		movq	%rax, %rdi
 283 00f0 E8000000 		call	_ZN8UnitTest11TestDetailsC1ERKS0_i
 283      00
 284              		.loc 2 49 0 is_stmt 0 discriminator 1
 285 00f5 488B5DC8 		movq	-56(%rbp), %rbx
 286 00f9 E8000000 		call	_ZN8UnitTest11CurrentTest7ResultsEv
 286      00
 287 00fe 488B00   		movq	(%rax), %rax
 288 0101 488D55D0 		leaq	-48(%rbp), %rdx
 289 0105 4889D1   		movq	%rdx, %rcx
 290 0108 4889DA   		movq	%rbx, %rdx
 291 010b BE000000 		movl	$buf, %esi
 291      00
 292 0110 4889C7   		movq	%rax, %rdi
 293 0113 E8000000 		call	_ZN8UnitTest10CheckEqualERNS_11TestResultsEPcPKcRKNS_11TestDetailsE
 293      00
 294              	.LEHE1:
 295              	.L16:
  50:testError.cpp **** 		errFree(error);
 296              		.loc 2 50 0 is_stmt 1
 297 0118 488B45C8 		movq	-56(%rbp), %rax
 298 011c 4889C7   		movq	%rax, %rdi
 299              	.LEHB2:
 300 011f E8000000 		call	errFree
 300      00
 301              	.LEHE2:
  45:testError.cpp **** 		error = NULL;
 302              		.loc 2 45 0
 303 0124 8345C401 		addl	$1, -60(%rbp)
 304              	.L12:
  45:testError.cpp **** 		error = NULL;
 305              		.loc 2 45 0 is_stmt 0 discriminator 1
 306 0128 817DC403 		cmpl	$515, -60(%rbp)
 306      020000
 307 012f 0F8E77FF 		jle	.L13
 307      FFFF
 308 0135 EB5A     		jmp	.L19
 309              	.L18:
 310 0137 4889C3   		movq	%rax, %rbx
  49:testError.cpp **** 		CHECK_EQUAL(buf, error);
 311              		.loc 2 49 0 is_stmt 1
 312 013a E8000000 		call	__cxa_end_catch
 312      00
 313 013f 4889D8   		movq	%rbx, %rax
 314 0142 4889C7   		movq	%rax, %rdi
 315              	.LEHB3:
 316 0145 E8000000 		call	_Unwind_Resume
 316      00
 317              	.LEHE3:
 318              	.L17:
 319 014a 4889C7   		movq	%rax, %rdi
 320 014d E8000000 		call	__cxa_begin_catch
 320      00
 321              	.LEHB4:
 322 0152 E8000000 		call	_ZN8UnitTest11CurrentTest7DetailsEv
 322      00
 323 0157 488B08   		movq	(%rax), %rcx
 324 015a 488D45D0 		leaq	-48(%rbp), %rax
 325 015e BA310000 		movl	$49, %edx
 325      00
 326 0163 4889CE   		movq	%rcx, %rsi
 327 0166 4889C7   		movq	%rax, %rdi
 328 0169 E8000000 		call	_ZN8UnitTest11TestDetailsC1ERKS0_i
 328      00
  49:testError.cpp **** 		CHECK_EQUAL(buf, error);
 329              		.loc 2 49 0 is_stmt 0 discriminator 1
 330 016e E8000000 		call	_ZN8UnitTest11CurrentTest7ResultsEv
 330      00
 331 0173 488B00   		movq	(%rax), %rax
 332 0176 488D4DD0 		leaq	-48(%rbp), %rcx
 333 017a BA000000 		movl	$.LC4, %edx
 333      00
 334 017f 4889CE   		movq	%rcx, %rsi
 335 0182 4889C7   		movq	%rax, %rdi
 336 0185 E8000000 		call	_ZN8UnitTest11TestResults13OnTestFailureERKNS_11TestDetailsEPKc
 336      00
 337              	.LEHE4:
 338              	.LEHB5:
 339 018a E8000000 		call	__cxa_end_catch
 339      00
 340              	.LEHE5:
 341 018f EB87     		jmp	.L16
 342              	.L19:
 343              	.LBE5:
  51:testError.cpp **** 	}
  52:testError.cpp **** }
 344              		.loc 2 52 0 is_stmt 1
 345 0191 4883C448 		addq	$72, %rsp
 346 0195 5B       		popq	%rbx
 347 0196 5D       		popq	%rbp
 348              		.cfi_def_cfa 7, 8
 349 0197 C3       		ret
 350              		.cfi_endproc
 351              	.LFE1031:
 352              		.globl	__gxx_personality_v0
 353              		.section	.gcc_except_table,"a",@progbits
 354              		.align 4
 355              	.LLSDA1031:
 356 0000 FF       		.byte	0xff
 357 0001 03       		.byte	0x3
 358 0002 29       		.uleb128 .LLSDATT1031-.LLSDATTD1031
 359              	.LLSDATTD1031:
 360 0003 01       		.byte	0x1
 361 0004 1E       		.uleb128 .LLSDACSE1031-.LLSDACSB1031
 362              	.LLSDACSB1031:
 363 0005 3E       		.uleb128 .LEHB0-.LFB1031
 364 0006 05       		.uleb128 .LEHE0-.LEHB0
 365 0007 00       		.uleb128 0
 366 0008 00       		.uleb128 0
 367 0009 43       		.uleb128 .LEHB1-.LFB1031
 368 000a 3F       		.uleb128 .LEHE1-.LEHB1
 369 000b B401     		.uleb128 .L17-.LFB1031
 370 000d 01       		.uleb128 0x1
 371 000e 8901     		.uleb128 .LEHB2-.LFB1031
 372 0010 05       		.uleb128 .LEHE2-.LEHB2
 373 0011 00       		.uleb128 0
 374 0012 00       		.uleb128 0
 375 0013 AF01     		.uleb128 .LEHB3-.LFB1031
 376 0015 05       		.uleb128 .LEHE3-.LEHB3
 377 0016 00       		.uleb128 0
 378 0017 00       		.uleb128 0
 379 0018 BC01     		.uleb128 .LEHB4-.LFB1031
 380 001a 38       		.uleb128 .LEHE4-.LEHB4
 381 001b A101     		.uleb128 .L18-.LFB1031
 382 001d 00       		.uleb128 0
 383 001e F401     		.uleb128 .LEHB5-.LFB1031
 384 0020 05       		.uleb128 .LEHE5-.LEHB5
 385 0021 00       		.uleb128 0
 386 0022 00       		.uleb128 0
 387              	.LLSDACSE1031:
 388 0023 01       		.byte	0x1
 389 0024 00       		.byte	0
 390 0025 000000   		.align 4
 391 0028 00000000 		.long	0
 392              	
 393              	.LLSDATT1031:
 394              		.text
 396              		.section	.rodata
 397              	.LC5:
 398 0077 4572726F 		.string	"Error_testNullStdRender"
 398      725F7465 
 398      73744E75 
 398      6C6C5374 
 398      6452656E 
 399              		.section	.text._ZN27TestError_testNullStdRenderC2Ev,"axG",@progbits,_ZN27TestError_testNullStdRend
 400              		.align 2
 401              		.weak	_ZN27TestError_testNullStdRenderC2Ev
 403              	_ZN27TestError_testNullStdRenderC2Ev:
 404              	.LFB1033:
  53:testError.cpp **** 
  54:testError.cpp **** TEST(Error_testNullStdRender) {
 405              		.loc 2 54 0
 406              		.cfi_startproc
 407 0000 55       		pushq	%rbp
 408              		.cfi_def_cfa_offset 16
 409              		.cfi_offset 6, -16
 410 0001 4889E5   		movq	%rsp, %rbp
 411              		.cfi_def_cfa_register 6
 412 0004 4883EC10 		subq	$16, %rsp
 413 0008 48897DF8 		movq	%rdi, -8(%rbp)
 414              	.LBB6:
 415              		.loc 2 54 0
 416 000c E8000000 		call	_ZN13UnitTestSuite12GetSuiteNameEv
 416      00
 417 0011 4889C2   		movq	%rax, %rdx
 418 0014 488B45F8 		movq	-8(%rbp), %rax
 419 0018 41B83600 		movl	$54, %r8d
 419      0000
 420 001e B9000000 		movl	$.LC1, %ecx
 420      00
 421 0023 BE000000 		movl	$.LC5, %esi
 421      00
 422 0028 4889C7   		movq	%rax, %rdi
 423 002b E8000000 		call	_ZN8UnitTest4TestC2EPKcS2_S2_i
 423      00
 424 0030 488B45F8 		movq	-8(%rbp), %rax
 425 0034 48C70000 		movq	$_ZTV27TestError_testNullStdRender+16, (%rax)
 425      000000
 426              	.LBE6:
 427 003b C9       		leave
 428              		.cfi_def_cfa 7, 8
 429 003c C3       		ret
 430              		.cfi_endproc
 431              	.LFE1033:
 433              		.weak	_ZN27TestError_testNullStdRenderC1Ev
 434              		.set	_ZN27TestError_testNullStdRenderC1Ev,_ZN27TestError_testNullStdRenderC2Ev
 435              		.globl	testError_testNullStdRenderInstance
 436              		.bss
 437 0479 00000000 		.align 32
 437      000000
 440              	testError_testNullStdRenderInstance:
 441 0480 00000000 		.zero	56
 441      00000000 
 441      00000000 
 441      00000000 
 441      00000000 
 442              		.globl	adderError_testNullStdRender
 445              	adderError_testNullStdRender:
 446 04b8 00       		.zero	1
 447              		.text
 448              		.align 2
 449              		.globl	_ZNK27TestError_testNullStdRender7RunImplEv
 451              	_ZNK27TestError_testNullStdRender7RunImplEv:
 452              	.LFB1035:
 453              		.loc 2 54 0
 454              		.cfi_startproc
 455 0198 55       		pushq	%rbp
 456              		.cfi_def_cfa_offset 16
 457              		.cfi_offset 6, -16
 458 0199 4889E5   		movq	%rsp, %rbp
 459              		.cfi_def_cfa_register 6
 460 019c 4883EC10 		subq	$16, %rsp
 461 01a0 48897DF8 		movq	%rdi, -8(%rbp)
  55:testError.cpp **** 	fillBuf(16, 'A');
 462              		.loc 2 55 0
 463 01a4 BE410000 		movl	$65, %esi
 463      00
 464 01a9 BF100000 		movl	$16, %edi
 464      00
 465 01ae E8000000 		call	_Z7fillBufic
 465      00
  56:testError.cpp **** 	errRenderStd(NULL);
 466              		.loc 2 56 0
 467 01b3 BF000000 		movl	$0, %edi
 467      00
 468 01b8 E8000000 		call	errRenderStd
 468      00
  57:testError.cpp **** }
 469              		.loc 2 57 0
 470 01bd C9       		leave
 471              		.cfi_def_cfa 7, 8
 472 01be C3       		ret
 473              		.cfi_endproc
 474              	.LFE1035:
 476              		.section	.rodata
 477              	.LC6:
 478 008f 4572726F 		.string	"Error_testStdRender"
 478      725F7465 
 478      73745374 
 478      6452656E 
 478      64657200 
 479              		.section	.text._ZN23TestError_testStdRenderC2Ev,"axG",@progbits,_ZN23TestError_testStdRenderC5Ev,c
 480              		.align 2
 481              		.weak	_ZN23TestError_testStdRenderC2Ev
 483              	_ZN23TestError_testStdRenderC2Ev:
 484              	.LFB1037:
  58:testError.cpp **** 
  59:testError.cpp **** TEST(Error_testStdRender) {
 485              		.loc 2 59 0
 486              		.cfi_startproc
 487 0000 55       		pushq	%rbp
 488              		.cfi_def_cfa_offset 16
 489              		.cfi_offset 6, -16
 490 0001 4889E5   		movq	%rsp, %rbp
 491              		.cfi_def_cfa_register 6
 492 0004 4883EC10 		subq	$16, %rsp
 493 0008 48897DF8 		movq	%rdi, -8(%rbp)
 494              	.LBB7:
 495              		.loc 2 59 0
 496 000c E8000000 		call	_ZN13UnitTestSuite12GetSuiteNameEv
 496      00
 497 0011 4889C2   		movq	%rax, %rdx
 498 0014 488B45F8 		movq	-8(%rbp), %rax
 499 0018 41B83B00 		movl	$59, %r8d
 499      0000
 500 001e B9000000 		movl	$.LC1, %ecx
 500      00
 501 0023 BE000000 		movl	$.LC6, %esi
 501      00
 502 0028 4889C7   		movq	%rax, %rdi
 503 002b E8000000 		call	_ZN8UnitTest4TestC2EPKcS2_S2_i
 503      00
 504 0030 488B45F8 		movq	-8(%rbp), %rax
 505 0034 48C70000 		movq	$_ZTV23TestError_testStdRender+16, (%rax)
 505      000000
 506              	.LBE7:
 507 003b C9       		leave
 508              		.cfi_def_cfa 7, 8
 509 003c C3       		ret
 510              		.cfi_endproc
 511              	.LFE1037:
 513              		.weak	_ZN23TestError_testStdRenderC1Ev
 514              		.set	_ZN23TestError_testStdRenderC1Ev,_ZN23TestError_testStdRenderC2Ev
 515              		.globl	testError_testStdRenderInstance
 516              		.bss
 517 04b9 00000000 		.align 32
 517      000000
 520              	testError_testStdRenderInstance:
 521 04c0 00000000 		.zero	56
 521      00000000 
 521      00000000 
 521      00000000 
 521      00000000 
 522              		.globl	adderError_testStdRender
 525              	adderError_testStdRender:
 526 04f8 00       		.zero	1
 527              		.section	.rodata
 528              	.LC7:
 529 00a3 7200     		.string	"r"
 530              	.LC8:
 531 00a5 6E6F6E45 		.string	"nonExistentFile.txt"
 531      78697374 
 531      656E7446 
 531      696C652E 
 531      74787400 
 532              	.LC9:
 533 00b9 216600   		.string	"!f"
 534 00bc 00000000 		.align 8
 535              	.LC10:
 536 00c0 556E6861 		.string	"Unhandled exception in CHECK(!f)"
 536      6E646C65 
 536      64206578 
 536      63657074 
 536      696F6E20 
 537 00e1 00000000 		.align 8
 537      000000
 538              	.LC11:
 539 00e8 556E6861 		.string	"Unhandled exception in CHECK_EQUAL(expected, error)"
 539      6E646C65 
 539      64206578 
 539      63657074 
 539      696F6E20 
 540              		.text
 541 01bf 90       		.align 2
 542              		.globl	_ZNK23TestError_testStdRender7RunImplEv
 544              	_ZNK23TestError_testStdRender7RunImplEv:
 545              	.LFB1039:
 546              		.loc 2 59 0
 547              		.cfi_startproc
 548              		.cfi_personality 0x3,__gxx_personality_v0
 549              		.cfi_lsda 0x3,.LLSDA1039
 550 01c0 55       		pushq	%rbp
 551              		.cfi_def_cfa_offset 16
 552              		.cfi_offset 6, -16
 553 01c1 4889E5   		movq	%rsp, %rbp
 554              		.cfi_def_cfa_register 6
 555 01c4 53       		pushq	%rbx
 556 01c5 4883EC58 		subq	$88, %rsp
 557              		.cfi_offset 3, -24
 558 01c9 48897DA8 		movq	%rdi, -88(%rbp)
 559              	.LBB8:
  60:testError.cpp **** 	const char *error = NULL, *expected;
 560              		.loc 2 60 0
 561 01cd 48C745B8 		movq	$0, -72(%rbp)
 561      00000000 
  61:testError.cpp **** 	FILE *f;
  62:testError.cpp **** 	f = fopen("nonExistentFile.txt", "r");
 562              		.loc 2 62 0
 563 01d5 BE000000 		movl	$.LC7, %esi
 563      00
 564 01da BF000000 		movl	$.LC8, %edi
 564      00
 565              	.LEHB6:
 566 01df E8000000 		call	fopen
 566      00
 567              	.LEHE6:
 568 01e4 488945C0 		movq	%rax, -64(%rbp)
  63:testError.cpp **** 	CHECK(!f);
 569              		.loc 2 63 0
 570 01e8 48837DC0 		cmpq	$0, -64(%rbp)
 570      00
 571 01ed 0F94C0   		sete	%al
 572 01f0 0FB6C0   		movzbl	%al, %eax
 573 01f3 89C7     		movl	%eax, %edi
 574 01f5 E8000000 		call	_ZN8UnitTest5CheckIbEEbT_
 574      00
 575 01fa 83F001   		xorl	$1, %eax
 576 01fd 84C0     		testb	%al, %al
 577 01ff 7438     		je	.L24
 578              	.LEHB7:
 579              		.loc 2 63 0 is_stmt 0 discriminator 1
 580 0201 E8000000 		call	_ZN8UnitTest11CurrentTest7DetailsEv
 580      00
 581 0206 488B08   		movq	(%rax), %rcx
 582 0209 488D45D0 		leaq	-48(%rbp), %rax
 583 020d BA3F0000 		movl	$63, %edx
 583      00
 584 0212 4889CE   		movq	%rcx, %rsi
 585 0215 4889C7   		movq	%rax, %rdi
 586 0218 E8000000 		call	_ZN8UnitTest11TestDetailsC1ERKS0_i
 586      00
 587 021d E8000000 		call	_ZN8UnitTest11CurrentTest7ResultsEv
 587      00
 588 0222 488B00   		movq	(%rax), %rax
 589 0225 488D4DD0 		leaq	-48(%rbp), %rcx
 590 0229 BA000000 		movl	$.LC9, %edx
 590      00
 591 022e 4889CE   		movq	%rcx, %rsi
 592 0231 4889C7   		movq	%rax, %rdi
 593 0234 E8000000 		call	_ZN8UnitTest11TestResults13OnTestFailureERKNS_11TestDetailsEPKc
 593      00
 594              	.LEHE7:
 595              	.L24:
  64:testError.cpp **** 	errRenderStd(&error);
 596              		.loc 2 64 0 is_stmt 1
 597 0239 488D45B8 		leaq	-72(%rbp), %rax
 598 023d 4889C7   		movq	%rax, %rdi
 599              	.LEHB8:
 600 0240 E8000000 		call	errRenderStd
 600      00
  65:testError.cpp **** 	f = fopen("nonExistentFile.txt", "r");
 601              		.loc 2 65 0
 602 0245 BE000000 		movl	$.LC7, %esi
 602      00
 603 024a BF000000 		movl	$.LC8, %edi
 603      00
 604 024f E8000000 		call	fopen
 604      00
 605              	.LEHE8:
 606 0254 488945C0 		movq	%rax, -64(%rbp)
  66:testError.cpp **** 	CHECK(!f);
 607              		.loc 2 66 0
 608 0258 48837DC0 		cmpq	$0, -64(%rbp)
 608      00
 609 025d 0F94C0   		sete	%al
 610 0260 0FB6C0   		movzbl	%al, %eax
 611 0263 89C7     		movl	%eax, %edi
 612 0265 E8000000 		call	_ZN8UnitTest5CheckIbEEbT_
 612      00
 613 026a 83F001   		xorl	$1, %eax
 614 026d 84C0     		testb	%al, %al
 615 026f 7438     		je	.L25
 616              	.LEHB9:
 617              		.loc 2 66 0 is_stmt 0 discriminator 1
 618 0271 E8000000 		call	_ZN8UnitTest11CurrentTest7DetailsEv
 618      00
 619 0276 488B08   		movq	(%rax), %rcx
 620 0279 488D45D0 		leaq	-48(%rbp), %rax
 621 027d BA420000 		movl	$66, %edx
 621      00
 622 0282 4889CE   		movq	%rcx, %rsi
 623 0285 4889C7   		movq	%rax, %rdi
 624 0288 E8000000 		call	_ZN8UnitTest11TestDetailsC1ERKS0_i
 624      00
 625 028d E8000000 		call	_ZN8UnitTest11CurrentTest7ResultsEv
 625      00
 626 0292 488B00   		movq	(%rax), %rax
 627 0295 488D4DD0 		leaq	-48(%rbp), %rcx
 628 0299 BA000000 		movl	$.LC9, %edx
 628      00
 629 029e 4889CE   		movq	%rcx, %rsi
 630 02a1 4889C7   		movq	%rax, %rdi
 631 02a4 E8000000 		call	_ZN8UnitTest11TestResults13OnTestFailureERKNS_11TestDetailsEPKc
 631      00
 632              	.LEHE9:
 633              	.L25:
  67:testError.cpp **** 	expected = strerror(errno);
 634              		.loc 2 67 0 is_stmt 1
 635 02a9 E8000000 		call	__errno_location
 635      00
 636 02ae 8B00     		movl	(%rax), %eax
 637 02b0 89C7     		movl	%eax, %edi
 638 02b2 E8000000 		call	strerror
 638      00
 639 02b7 488945C8 		movq	%rax, -56(%rbp)
 640              	.LEHB10:
  68:testError.cpp **** 	CHECK_EQUAL(expected, error);
 641              		.loc 2 68 0
 642 02bb E8000000 		call	_ZN8UnitTest11CurrentTest7DetailsEv
 642      00
 643 02c0 488B08   		movq	(%rax), %rcx
 644 02c3 488D45D0 		leaq	-48(%rbp), %rax
 645 02c7 BA440000 		movl	$68, %edx
 645      00
 646 02cc 4889CE   		movq	%rcx, %rsi
 647 02cf 4889C7   		movq	%rax, %rdi
 648 02d2 E8000000 		call	_ZN8UnitTest11TestDetailsC1ERKS0_i
 648      00
 649              		.loc 2 68 0 is_stmt 0 discriminator 1
 650 02d7 488B5DB8 		movq	-72(%rbp), %rbx
 651 02db E8000000 		call	_ZN8UnitTest11CurrentTest7ResultsEv
 651      00
 652 02e0 488B00   		movq	(%rax), %rax
 653 02e3 488D55D0 		leaq	-48(%rbp), %rdx
 654 02e7 488B75C8 		movq	-56(%rbp), %rsi
 655 02eb 4889D1   		movq	%rdx, %rcx
 656 02ee 4889DA   		movq	%rbx, %rdx
 657 02f1 4889C7   		movq	%rax, %rdi
 658 02f4 E8000000 		call	_ZN8UnitTest10CheckEqualERNS_11TestResultsEPKcS3_RKNS_11TestDetailsE
 658      00
 659              	.LEHE10:
 660              	.L32:
  69:testError.cpp **** 	errFree(error);
 661              		.loc 2 69 0 is_stmt 1
 662 02f9 488B45B8 		movq	-72(%rbp), %rax
 663 02fd 4889C7   		movq	%rax, %rdi
 664              	.LEHB11:
 665 0300 E8000000 		call	errFree
 665      00
 666              	.LEHE11:
 667 0305 E9170100 		jmp	.L39
 667      00
 668              	.L34:
 669 030a 4889C3   		movq	%rax, %rbx
  63:testError.cpp **** 	errRenderStd(&error);
 670              		.loc 2 63 0
 671 030d E8000000 		call	__cxa_end_catch
 671      00
 672 0312 4889D8   		movq	%rbx, %rax
 673 0315 4889C7   		movq	%rax, %rdi
 674              	.LEHB12:
 675 0318 E8000000 		call	_Unwind_Resume
 675      00
 676              	.LEHE12:
 677              	.L33:
 678 031d 4889C7   		movq	%rax, %rdi
 679 0320 E8000000 		call	__cxa_begin_catch
 679      00
 680              	.LEHB13:
 681 0325 E8000000 		call	_ZN8UnitTest11CurrentTest7DetailsEv
 681      00
 682 032a 488B08   		movq	(%rax), %rcx
 683 032d 488D45D0 		leaq	-48(%rbp), %rax
 684 0331 BA3F0000 		movl	$63, %edx
 684      00
 685 0336 4889CE   		movq	%rcx, %rsi
 686 0339 4889C7   		movq	%rax, %rdi
 687 033c E8000000 		call	_ZN8UnitTest11TestDetailsC1ERKS0_i
 687      00
  63:testError.cpp **** 	errRenderStd(&error);
 688              		.loc 2 63 0 is_stmt 0 discriminator 1
 689 0341 E8000000 		call	_ZN8UnitTest11CurrentTest7ResultsEv
 689      00
 690 0346 488B00   		movq	(%rax), %rax
 691 0349 488D4DD0 		leaq	-48(%rbp), %rcx
 692 034d BA000000 		movl	$.LC10, %edx
 692      00
 693 0352 4889CE   		movq	%rcx, %rsi
 694 0355 4889C7   		movq	%rax, %rdi
 695 0358 E8000000 		call	_ZN8UnitTest11TestResults13OnTestFailureERKNS_11TestDetailsEPKc
 695      00
 696              	.LEHE13:
 697              	.LEHB14:
 698 035d E8000000 		call	__cxa_end_catch
 698      00
 699              	.LEHE14:
 700 0362 E9D2FEFF 		jmp	.L24
 700      FF
 701              	.L36:
 702 0367 4889C3   		movq	%rax, %rbx
  66:testError.cpp **** 	expected = strerror(errno);
 703              		.loc 2 66 0 is_stmt 1
 704 036a E8000000 		call	__cxa_end_catch
 704      00
 705 036f 4889D8   		movq	%rbx, %rax
 706 0372 4889C7   		movq	%rax, %rdi
 707              	.LEHB15:
 708 0375 E8000000 		call	_Unwind_Resume
 708      00
 709              	.LEHE15:
 710              	.L35:
 711 037a 4889C7   		movq	%rax, %rdi
 712 037d E8000000 		call	__cxa_begin_catch
 712      00
 713              	.LEHB16:
 714 0382 E8000000 		call	_ZN8UnitTest11CurrentTest7DetailsEv
 714      00
 715 0387 488B08   		movq	(%rax), %rcx
 716 038a 488D45D0 		leaq	-48(%rbp), %rax
 717 038e BA420000 		movl	$66, %edx
 717      00
 718 0393 4889CE   		movq	%rcx, %rsi
 719 0396 4889C7   		movq	%rax, %rdi
 720 0399 E8000000 		call	_ZN8UnitTest11TestDetailsC1ERKS0_i
 720      00
  66:testError.cpp **** 	expected = strerror(errno);
 721              		.loc 2 66 0 is_stmt 0 discriminator 1
 722 039e E8000000 		call	_ZN8UnitTest11CurrentTest7ResultsEv
 722      00
 723 03a3 488B00   		movq	(%rax), %rax
 724 03a6 488D4DD0 		leaq	-48(%rbp), %rcx
 725 03aa BA000000 		movl	$.LC10, %edx
 725      00
 726 03af 4889CE   		movq	%rcx, %rsi
 727 03b2 4889C7   		movq	%rax, %rdi
 728 03b5 E8000000 		call	_ZN8UnitTest11TestResults13OnTestFailureERKNS_11TestDetailsEPKc
 728      00
 729              	.LEHE16:
 730              	.LEHB17:
 731 03ba E8000000 		call	__cxa_end_catch
 731      00
 732              	.LEHE17:
 733 03bf E9E5FEFF 		jmp	.L25
 733      FF
 734              	.L38:
 735 03c4 4889C3   		movq	%rax, %rbx
  68:testError.cpp **** 	errFree(error);
 736              		.loc 2 68 0 is_stmt 1
 737 03c7 E8000000 		call	__cxa_end_catch
 737      00
 738 03cc 4889D8   		movq	%rbx, %rax
 739 03cf 4889C7   		movq	%rax, %rdi
 740              	.LEHB18:
 741 03d2 E8000000 		call	_Unwind_Resume
 741      00
 742              	.LEHE18:
 743              	.L37:
 744 03d7 4889C7   		movq	%rax, %rdi
 745 03da E8000000 		call	__cxa_begin_catch
 745      00
 746              	.LEHB19:
 747 03df E8000000 		call	_ZN8UnitTest11CurrentTest7DetailsEv
 747      00
 748 03e4 488B08   		movq	(%rax), %rcx
 749 03e7 488D45D0 		leaq	-48(%rbp), %rax
 750 03eb BA440000 		movl	$68, %edx
 750      00
 751 03f0 4889CE   		movq	%rcx, %rsi
 752 03f3 4889C7   		movq	%rax, %rdi
 753 03f6 E8000000 		call	_ZN8UnitTest11TestDetailsC1ERKS0_i
 753      00
  68:testError.cpp **** 	errFree(error);
 754              		.loc 2 68 0 is_stmt 0 discriminator 1
 755 03fb E8000000 		call	_ZN8UnitTest11CurrentTest7ResultsEv
 755      00
 756 0400 488B00   		movq	(%rax), %rax
 757 0403 488D4DD0 		leaq	-48(%rbp), %rcx
 758 0407 BA000000 		movl	$.LC11, %edx
 758      00
 759 040c 4889CE   		movq	%rcx, %rsi
 760 040f 4889C7   		movq	%rax, %rdi
 761 0412 E8000000 		call	_ZN8UnitTest11TestResults13OnTestFailureERKNS_11TestDetailsEPKc
 761      00
 762              	.LEHE19:
 763              	.LEHB20:
 764 0417 E8000000 		call	__cxa_end_catch
 764      00
 765              	.LEHE20:
 766 041c E9D8FEFF 		jmp	.L32
 766      FF
 767              	.L39:
 768              	.LBE8:
  70:testError.cpp **** }
 769              		.loc 2 70 0 is_stmt 1
 770 0421 4883C458 		addq	$88, %rsp
 771 0425 5B       		popq	%rbx
 772 0426 5D       		popq	%rbp
 773              		.cfi_def_cfa 7, 8
 774 0427 C3       		ret
 775              		.cfi_endproc
 776              	.LFE1039:
 777              		.section	.gcc_except_table
 778              		.align 4
 779              	.LLSDA1039:
 780 002c FF       		.byte	0xff
 781 002d 03       		.byte	0x3
 782 002e 59       		.uleb128 .LLSDATT1039-.LLSDATTD1039
 783              	.LLSDATTD1039:
 784 002f 01       		.byte	0x1
 785 0030 4F       		.uleb128 .LLSDACSE1039-.LLSDACSB1039
 786              	.LLSDACSB1039:
 787 0031 1F       		.uleb128 .LEHB6-.LFB1039
 788 0032 05       		.uleb128 .LEHE6-.LEHB6
 789 0033 00       		.uleb128 0
 790 0034 00       		.uleb128 0
 791 0035 41       		.uleb128 .LEHB7-.LFB1039
 792 0036 38       		.uleb128 .LEHE7-.LEHB7
 793 0037 DD02     		.uleb128 .L33-.LFB1039
 794 0039 01       		.uleb128 0x1
 795 003a 8001     		.uleb128 .LEHB8-.LFB1039
 796 003c 14       		.uleb128 .LEHE8-.LEHB8
 797 003d 00       		.uleb128 0
 798 003e 00       		.uleb128 0
 799 003f B101     		.uleb128 .LEHB9-.LFB1039
 800 0041 38       		.uleb128 .LEHE9-.LEHB9
 801 0042 BA03     		.uleb128 .L35-.LFB1039
 802 0044 01       		.uleb128 0x1
 803 0045 FB01     		.uleb128 .LEHB10-.LFB1039
 804 0047 3E       		.uleb128 .LEHE10-.LEHB10
 805 0048 9704     		.uleb128 .L37-.LFB1039
 806 004a 01       		.uleb128 0x1
 807 004b C002     		.uleb128 .LEHB11-.LFB1039
 808 004d 05       		.uleb128 .LEHE11-.LEHB11
 809 004e 00       		.uleb128 0
 810 004f 00       		.uleb128 0
 811 0050 D802     		.uleb128 .LEHB12-.LFB1039
 812 0052 05       		.uleb128 .LEHE12-.LEHB12
 813 0053 00       		.uleb128 0
 814 0054 00       		.uleb128 0
 815 0055 E502     		.uleb128 .LEHB13-.LFB1039
 816 0057 38       		.uleb128 .LEHE13-.LEHB13
 817 0058 CA02     		.uleb128 .L34-.LFB1039
 818 005a 00       		.uleb128 0
 819 005b 9D03     		.uleb128 .LEHB14-.LFB1039
 820 005d 05       		.uleb128 .LEHE14-.LEHB14
 821 005e 00       		.uleb128 0
 822 005f 00       		.uleb128 0
 823 0060 B503     		.uleb128 .LEHB15-.LFB1039
 824 0062 05       		.uleb128 .LEHE15-.LEHB15
 825 0063 00       		.uleb128 0
 826 0064 00       		.uleb128 0
 827 0065 C203     		.uleb128 .LEHB16-.LFB1039
 828 0067 38       		.uleb128 .LEHE16-.LEHB16
 829 0068 A703     		.uleb128 .L36-.LFB1039
 830 006a 00       		.uleb128 0
 831 006b FA03     		.uleb128 .LEHB17-.LFB1039
 832 006d 05       		.uleb128 .LEHE17-.LEHB17
 833 006e 00       		.uleb128 0
 834 006f 00       		.uleb128 0
 835 0070 9204     		.uleb128 .LEHB18-.LFB1039
 836 0072 05       		.uleb128 .LEHE18-.LEHB18
 837 0073 00       		.uleb128 0
 838 0074 00       		.uleb128 0
 839 0075 9F04     		.uleb128 .LEHB19-.LFB1039
 840 0077 38       		.uleb128 .LEHE19-.LEHB19
 841 0078 8404     		.uleb128 .L38-.LFB1039
 842 007a 00       		.uleb128 0
 843 007b D704     		.uleb128 .LEHB20-.LFB1039
 844 007d 05       		.uleb128 .LEHE20-.LEHB20
 845 007e 00       		.uleb128 0
 846 007f 00       		.uleb128 0
 847              	.LLSDACSE1039:
 848 0080 01       		.byte	0x1
 849 0081 00       		.byte	0
 850 0082 0000     		.align 4
 851 0084 00000000 		.long	0
 852              	
 853              	.LLSDATT1039:
 854              		.text
 856              		.section	.rodata
 857              	.LC12:
 858 011c 4572726F 		.string	"Error_testPrefixSomething"
 858      725F7465 
 858      73745072 
 858      65666978 
 858      536F6D65 
 859              		.section	.text._ZN29TestError_testPrefixSomethingC2Ev,"axG",@progbits,_ZN29TestError_testPrefixSom
 860              		.align 2
 861              		.weak	_ZN29TestError_testPrefixSomethingC2Ev
 863              	_ZN29TestError_testPrefixSomethingC2Ev:
 864              	.LFB1041:
  71:testError.cpp **** 
  72:testError.cpp **** TEST(Error_testPrefixSomething) {
 865              		.loc 2 72 0
 866              		.cfi_startproc
 867 0000 55       		pushq	%rbp
 868              		.cfi_def_cfa_offset 16
 869              		.cfi_offset 6, -16
 870 0001 4889E5   		movq	%rsp, %rbp
 871              		.cfi_def_cfa_register 6
 872 0004 4883EC10 		subq	$16, %rsp
 873 0008 48897DF8 		movq	%rdi, -8(%rbp)
 874              	.LBB9:
 875              		.loc 2 72 0
 876 000c E8000000 		call	_ZN13UnitTestSuite12GetSuiteNameEv
 876      00
 877 0011 4889C2   		movq	%rax, %rdx
 878 0014 488B45F8 		movq	-8(%rbp), %rax
 879 0018 41B84800 		movl	$72, %r8d
 879      0000
 880 001e B9000000 		movl	$.LC1, %ecx
 880      00
 881 0023 BE000000 		movl	$.LC12, %esi
 881      00
 882 0028 4889C7   		movq	%rax, %rdi
 883 002b E8000000 		call	_ZN8UnitTest4TestC2EPKcS2_S2_i
 883      00
 884 0030 488B45F8 		movq	-8(%rbp), %rax
 885 0034 48C70000 		movq	$_ZTV29TestError_testPrefixSomething+16, (%rax)
 885      000000
 886              	.LBE9:
 887 003b C9       		leave
 888              		.cfi_def_cfa 7, 8
 889 003c C3       		ret
 890              		.cfi_endproc
 891              	.LFE1041:
 893              		.weak	_ZN29TestError_testPrefixSomethingC1Ev
 894              		.set	_ZN29TestError_testPrefixSomethingC1Ev,_ZN29TestError_testPrefixSomethingC2Ev
 895              		.globl	testError_testPrefixSomethingInstance
 896              		.bss
 897 04f9 00000000 		.align 32
 897      000000
 900              	testError_testPrefixSomethingInstance:
 901 0500 00000000 		.zero	56
 901      00000000 
 901      00000000 
 901      00000000 
 901      00000000 
 902              		.globl	adderError_testPrefixSomething
 905              	adderError_testPrefixSomething:
 906 0538 00       		.zero	1
 907              		.section	.rodata
 908              	.LC13:
 909 0136 6D795072 		.string	"myPrefix(): Foo Bar"
 909      65666978 
 909      28293A20 
 909      466F6F20 
 909      42617200 
 910              	.LC14:
 911 014a 466F6F20 		.string	"Foo Bar"
 911      42617200 
 912              	.LC15:
 913 0152 6D795072 		.string	"myPrefix()"
 913      65666978 
 913      282900
 914 015d 000000   		.align 8
 915              	.LC16:
 916 0160 556E6861 		.string	"Unhandled exception in CHECK_EQUAL(MSG, error)"
 916      6E646C65 
 916      64206578 
 916      63657074 
 916      696F6E20 
 917              		.text
 918              		.align 2
 919              		.globl	_ZNK29TestError_testPrefixSomething7RunImplEv
 921              	_ZNK29TestError_testPrefixSomething7RunImplEv:
 922              	.LFB1043:
 923              		.loc 2 72 0
 924              		.cfi_startproc
 925              		.cfi_personality 0x3,__gxx_personality_v0
 926              		.cfi_lsda 0x3,.LLSDA1043
 927 0428 55       		pushq	%rbp
 928              		.cfi_def_cfa_offset 16
 929              		.cfi_offset 6, -16
 930 0429 4889E5   		movq	%rsp, %rbp
 931              		.cfi_def_cfa_register 6
 932 042c 53       		pushq	%rbx
 933 042d 4883EC48 		subq	$72, %rsp
 934              		.cfi_offset 3, -24
 935 0431 48897DB8 		movq	%rdi, -72(%rbp)
 936              	.LBB10:
  73:testError.cpp **** 	#define MSG "Foo Bar"
  74:testError.cpp **** 	#define PFX "myPrefix()"
  75:testError.cpp **** 	const char *error = NULL;
 937              		.loc 2 75 0
 938 0435 48C745C0 		movq	$0, -64(%rbp)
 938      00000000 
  76:testError.cpp **** 	const char *const expected = PFX": "MSG;
 939              		.loc 2 76 0
 940 043d 48C745C8 		movq	$.LC13, -56(%rbp)
 940      00000000 
  77:testError.cpp **** 	errRender(&error, MSG);
 941              		.loc 2 77 0
 942 0445 488D45C0 		leaq	-64(%rbp), %rax
 943 0449 BE000000 		movl	$.LC14, %esi
 943      00
 944 044e 4889C7   		movq	%rax, %rdi
 945 0451 B8000000 		movl	$0, %eax
 945      00
 946              	.LEHB21:
 947 0456 E8000000 		call	errRender
 947      00
 948              	.LEHE21:
 949              	.LEHB22:
  78:testError.cpp **** 	CHECK_EQUAL(MSG, error);
 950              		.loc 2 78 0
 951 045b E8000000 		call	_ZN8UnitTest11CurrentTest7DetailsEv
 951      00
 952 0460 488B08   		movq	(%rax), %rcx
 953 0463 488D45D0 		leaq	-48(%rbp), %rax
 954 0467 BA4E0000 		movl	$78, %edx
 954      00
 955 046c 4889CE   		movq	%rcx, %rsi
 956 046f 4889C7   		movq	%rax, %rdi
 957 0472 E8000000 		call	_ZN8UnitTest11TestDetailsC1ERKS0_i
 957      00
 958              		.loc 2 78 0 is_stmt 0 discriminator 1
 959 0477 488B5DC0 		movq	-64(%rbp), %rbx
 960 047b E8000000 		call	_ZN8UnitTest11CurrentTest7ResultsEv
 960      00
 961 0480 488B00   		movq	(%rax), %rax
 962 0483 488D55D0 		leaq	-48(%rbp), %rdx
 963 0487 4889D1   		movq	%rdx, %rcx
 964 048a 4889DA   		movq	%rbx, %rdx
 965 048d BE000000 		movl	$.LC14, %esi
 965      00
 966 0492 4889C7   		movq	%rax, %rdi
 967 0495 E8000000 		call	_ZN8UnitTest10CheckEqualERNS_11TestResultsEPKcS3_RKNS_11TestDetailsE
 967      00
 968              	.LEHE22:
 969              	.L44:
  79:testError.cpp **** 	errPrefix(&error, PFX);
 970              		.loc 2 79 0 is_stmt 1
 971 049a 488D45C0 		leaq	-64(%rbp), %rax
 972 049e BE000000 		movl	$.LC15, %esi
 972      00
 973 04a3 4889C7   		movq	%rax, %rdi
 974              	.LEHB23:
 975 04a6 E8000000 		call	errPrefix
 975      00
 976              	.LEHE23:
 977              	.LEHB24:
  80:testError.cpp **** 	CHECK_EQUAL(expected, error);
 978              		.loc 2 80 0
 979 04ab E8000000 		call	_ZN8UnitTest11CurrentTest7DetailsEv
 979      00
 980 04b0 488B08   		movq	(%rax), %rcx
 981 04b3 488D45D0 		leaq	-48(%rbp), %rax
 982 04b7 BA500000 		movl	$80, %edx
 982      00
 983 04bc 4889CE   		movq	%rcx, %rsi
 984 04bf 4889C7   		movq	%rax, %rdi
 985 04c2 E8000000 		call	_ZN8UnitTest11TestDetailsC1ERKS0_i
 985      00
 986              		.loc 2 80 0 is_stmt 0 discriminator 1
 987 04c7 488B5DC0 		movq	-64(%rbp), %rbx
 988 04cb E8000000 		call	_ZN8UnitTest11CurrentTest7ResultsEv
 988      00
 989 04d0 488B00   		movq	(%rax), %rax
 990 04d3 488D55D0 		leaq	-48(%rbp), %rdx
 991 04d7 4889D1   		movq	%rdx, %rcx
 992 04da 4889DA   		movq	%rbx, %rdx
 993 04dd BE000000 		movl	$.LC13, %esi
 993      00
 994 04e2 4889C7   		movq	%rax, %rdi
 995 04e5 E8000000 		call	_ZN8UnitTest10CheckEqualERNS_11TestResultsEPKcS3_RKNS_11TestDetailsE
 995      00
 996              	.LEHE24:
 997              	.L47:
  81:testError.cpp **** 	errFree(error);
 998              		.loc 2 81 0 is_stmt 1
 999 04ea 488B45C0 		movq	-64(%rbp), %rax
 1000 04ee 4889C7   		movq	%rax, %rdi
 1001              	.LEHB25:
 1002 04f1 E8000000 		call	errFree
 1002      00
 1003              	.LEHE25:
 1004 04f6 E9BA0000 		jmp	.L52
 1004      00
 1005              	.L49:
 1006 04fb 4889C3   		movq	%rax, %rbx
  78:testError.cpp **** 	errPrefix(&error, PFX);
 1007              		.loc 2 78 0
 1008 04fe E8000000 		call	__cxa_end_catch
 1008      00
 1009 0503 4889D8   		movq	%rbx, %rax
 1010 0506 4889C7   		movq	%rax, %rdi
 1011              	.LEHB26:
 1012 0509 E8000000 		call	_Unwind_Resume
 1012      00
 1013              	.LEHE26:
 1014              	.L48:
 1015 050e 4889C7   		movq	%rax, %rdi
 1016 0511 E8000000 		call	__cxa_begin_catch
 1016      00
 1017              	.LEHB27:
 1018 0516 E8000000 		call	_ZN8UnitTest11CurrentTest7DetailsEv
 1018      00
 1019 051b 488B08   		movq	(%rax), %rcx
 1020 051e 488D45D0 		leaq	-48(%rbp), %rax
 1021 0522 BA4E0000 		movl	$78, %edx
 1021      00
 1022 0527 4889CE   		movq	%rcx, %rsi
 1023 052a 4889C7   		movq	%rax, %rdi
 1024 052d E8000000 		call	_ZN8UnitTest11TestDetailsC1ERKS0_i
 1024      00
  78:testError.cpp **** 	errPrefix(&error, PFX);
 1025              		.loc 2 78 0 is_stmt 0 discriminator 1
 1026 0532 E8000000 		call	_ZN8UnitTest11CurrentTest7ResultsEv
 1026      00
 1027 0537 488B00   		movq	(%rax), %rax
 1028 053a 488D4DD0 		leaq	-48(%rbp), %rcx
 1029 053e BA000000 		movl	$.LC16, %edx
 1029      00
 1030 0543 4889CE   		movq	%rcx, %rsi
 1031 0546 4889C7   		movq	%rax, %rdi
 1032 0549 E8000000 		call	_ZN8UnitTest11TestResults13OnTestFailureERKNS_11TestDetailsEPKc
 1032      00
 1033              	.LEHE27:
 1034              	.LEHB28:
 1035 054e E8000000 		call	__cxa_end_catch
 1035      00
 1036              	.LEHE28:
 1037 0553 E942FFFF 		jmp	.L44
 1037      FF
 1038              	.L51:
 1039 0558 4889C3   		movq	%rax, %rbx
  80:testError.cpp **** 	CHECK_EQUAL(expected, error);
 1040              		.loc 2 80 0 is_stmt 1
 1041 055b E8000000 		call	__cxa_end_catch
 1041      00
 1042 0560 4889D8   		movq	%rbx, %rax
 1043 0563 4889C7   		movq	%rax, %rdi
 1044              	.LEHB29:
 1045 0566 E8000000 		call	_Unwind_Resume
 1045      00
 1046              	.LEHE29:
 1047              	.L50:
 1048 056b 4889C7   		movq	%rax, %rdi
 1049 056e E8000000 		call	__cxa_begin_catch
 1049      00
 1050              	.LEHB30:
 1051 0573 E8000000 		call	_ZN8UnitTest11CurrentTest7DetailsEv
 1051      00
 1052 0578 488B08   		movq	(%rax), %rcx
 1053 057b 488D45D0 		leaq	-48(%rbp), %rax
 1054 057f BA500000 		movl	$80, %edx
 1054      00
 1055 0584 4889CE   		movq	%rcx, %rsi
 1056 0587 4889C7   		movq	%rax, %rdi
 1057 058a E8000000 		call	_ZN8UnitTest11TestDetailsC1ERKS0_i
 1057      00
  80:testError.cpp **** 	CHECK_EQUAL(expected, error);
 1058              		.loc 2 80 0 is_stmt 0 discriminator 1
 1059 058f E8000000 		call	_ZN8UnitTest11CurrentTest7ResultsEv
 1059      00
 1060 0594 488B00   		movq	(%rax), %rax
 1061 0597 488D4DD0 		leaq	-48(%rbp), %rcx
 1062 059b BA000000 		movl	$.LC11, %edx
 1062      00
 1063 05a0 4889CE   		movq	%rcx, %rsi
 1064 05a3 4889C7   		movq	%rax, %rdi
 1065 05a6 E8000000 		call	_ZN8UnitTest11TestResults13OnTestFailureERKNS_11TestDetailsEPKc
 1065      00
 1066              	.LEHE30:
 1067              	.LEHB31:
 1068 05ab E8000000 		call	__cxa_end_catch
 1068      00
 1069              	.LEHE31:
 1070 05b0 E935FFFF 		jmp	.L47
 1070      FF
 1071              	.L52:
 1072              	.LBE10:
  82:testError.cpp **** }
 1073              		.loc 2 82 0 is_stmt 1
 1074 05b5 4883C448 		addq	$72, %rsp
 1075 05b9 5B       		popq	%rbx
 1076 05ba 5D       		popq	%rbp
 1077              		.cfi_def_cfa 7, 8
 1078 05bb C3       		ret
 1079              		.cfi_endproc
 1080              	.LFE1043:
 1081              		.section	.gcc_except_table
 1082              		.align 4
 1083              	.LLSDA1043:
 1084 0088 FF       		.byte	0xff
 1085 0089 03       		.byte	0x3
 1086 008a 41       		.uleb128 .LLSDATT1043-.LLSDATTD1043
 1087              	.LLSDATTD1043:
 1088 008b 01       		.byte	0x1
 1089 008c 38       		.uleb128 .LLSDACSE1043-.LLSDACSB1043
 1090              	.LLSDACSB1043:
 1091 008d 2E       		.uleb128 .LEHB21-.LFB1043
 1092 008e 05       		.uleb128 .LEHE21-.LEHB21
 1093 008f 00       		.uleb128 0
 1094 0090 00       		.uleb128 0
 1095 0091 33       		.uleb128 .LEHB22-.LFB1043
 1096 0092 3F       		.uleb128 .LEHE22-.LEHB22
 1097 0093 E601     		.uleb128 .L48-.LFB1043
 1098 0095 01       		.uleb128 0x1
 1099 0096 7E       		.uleb128 .LEHB23-.LFB1043
 1100 0097 05       		.uleb128 .LEHE23-.LEHB23
 1101 0098 00       		.uleb128 0
 1102 0099 00       		.uleb128 0
 1103 009a 8301     		.uleb128 .LEHB24-.LFB1043
 1104 009c 3F       		.uleb128 .LEHE24-.LEHB24
 1105 009d C302     		.uleb128 .L50-.LFB1043
 1106 009f 01       		.uleb128 0x1
 1107 00a0 C901     		.uleb128 .LEHB25-.LFB1043
 1108 00a2 05       		.uleb128 .LEHE25-.LEHB25
 1109 00a3 00       		.uleb128 0
 1110 00a4 00       		.uleb128 0
 1111 00a5 E101     		.uleb128 .LEHB26-.LFB1043
 1112 00a7 05       		.uleb128 .LEHE26-.LEHB26
 1113 00a8 00       		.uleb128 0
 1114 00a9 00       		.uleb128 0
 1115 00aa EE01     		.uleb128 .LEHB27-.LFB1043
 1116 00ac 38       		.uleb128 .LEHE27-.LEHB27
 1117 00ad D301     		.uleb128 .L49-.LFB1043
 1118 00af 00       		.uleb128 0
 1119 00b0 A602     		.uleb128 .LEHB28-.LFB1043
 1120 00b2 05       		.uleb128 .LEHE28-.LEHB28
 1121 00b3 00       		.uleb128 0
 1122 00b4 00       		.uleb128 0
 1123 00b5 BE02     		.uleb128 .LEHB29-.LFB1043
 1124 00b7 05       		.uleb128 .LEHE29-.LEHB29
 1125 00b8 00       		.uleb128 0
 1126 00b9 00       		.uleb128 0
 1127 00ba CB02     		.uleb128 .LEHB30-.LFB1043
 1128 00bc 38       		.uleb128 .LEHE30-.LEHB30
 1129 00bd B002     		.uleb128 .L51-.LFB1043
 1130 00bf 00       		.uleb128 0
 1131 00c0 8303     		.uleb128 .LEHB31-.LFB1043
 1132 00c2 05       		.uleb128 .LEHE31-.LEHB31
 1133 00c3 00       		.uleb128 0
 1134 00c4 00       		.uleb128 0
 1135              	.LLSDACSE1043:
 1136 00c5 01       		.byte	0x1
 1137 00c6 00       		.byte	0
 1138 00c7 00       		.align 4
 1139 00c8 00000000 		.long	0
 1140              	
 1141              	.LLSDATT1043:
 1142              		.text
 1144              		.section	.rodata
 1145              	.LC17:
 1146 018f 4572726F 		.string	"Error_testPrefixNothing"
 1146      725F7465 
 1146      73745072 
 1146      65666978 
 1146      4E6F7468 
 1147              		.section	.text._ZN27TestError_testPrefixNothingC2Ev,"axG",@progbits,_ZN27TestError_testPrefixNothi
 1148              		.align 2
 1149              		.weak	_ZN27TestError_testPrefixNothingC2Ev
 1151              	_ZN27TestError_testPrefixNothingC2Ev:
 1152              	.LFB1045:
  83:testError.cpp **** 
  84:testError.cpp **** TEST(Error_testPrefixNothing) {
 1153              		.loc 2 84 0
 1154              		.cfi_startproc
 1155 0000 55       		pushq	%rbp
 1156              		.cfi_def_cfa_offset 16
 1157              		.cfi_offset 6, -16
 1158 0001 4889E5   		movq	%rsp, %rbp
 1159              		.cfi_def_cfa_register 6
 1160 0004 4883EC10 		subq	$16, %rsp
 1161 0008 48897DF8 		movq	%rdi, -8(%rbp)
 1162              	.LBB11:
 1163              		.loc 2 84 0
 1164 000c E8000000 		call	_ZN13UnitTestSuite12GetSuiteNameEv
 1164      00
 1165 0011 4889C2   		movq	%rax, %rdx
 1166 0014 488B45F8 		movq	-8(%rbp), %rax
 1167 0018 41B85400 		movl	$84, %r8d
 1167      0000
 1168 001e B9000000 		movl	$.LC1, %ecx
 1168      00
 1169 0023 BE000000 		movl	$.LC17, %esi
 1169      00
 1170 0028 4889C7   		movq	%rax, %rdi
 1171 002b E8000000 		call	_ZN8UnitTest4TestC2EPKcS2_S2_i
 1171      00
 1172 0030 488B45F8 		movq	-8(%rbp), %rax
 1173 0034 48C70000 		movq	$_ZTV27TestError_testPrefixNothing+16, (%rax)
 1173      000000
 1174              	.LBE11:
 1175 003b C9       		leave
 1176              		.cfi_def_cfa 7, 8
 1177 003c C3       		ret
 1178              		.cfi_endproc
 1179              	.LFE1045:
 1181              		.weak	_ZN27TestError_testPrefixNothingC1Ev
 1182              		.set	_ZN27TestError_testPrefixNothingC1Ev,_ZN27TestError_testPrefixNothingC2Ev
 1183              		.globl	testError_testPrefixNothingInstance
 1184              		.bss
 1185 0539 00000000 		.align 32
 1185      000000
 1188              	testError_testPrefixNothingInstance:
 1189 0540 00000000 		.zero	56
 1189      00000000 
 1189      00000000 
 1189      00000000 
 1189      00000000 
 1190              		.globl	adderError_testPrefixNothing
 1193              	adderError_testPrefixNothing:
 1194 0578 00       		.zero	1
 1195              		.text
 1196              		.align 2
 1197              		.globl	_ZNK27TestError_testPrefixNothing7RunImplEv
 1199              	_ZNK27TestError_testPrefixNothing7RunImplEv:
 1200              	.LFB1047:
 1201              		.loc 2 84 0
 1202              		.cfi_startproc
 1203              		.cfi_personality 0x3,__gxx_personality_v0
 1204              		.cfi_lsda 0x3,.LLSDA1047
 1205 05bc 55       		pushq	%rbp
 1206              		.cfi_def_cfa_offset 16
 1207              		.cfi_offset 6, -16
 1208 05bd 4889E5   		movq	%rsp, %rbp
 1209              		.cfi_def_cfa_register 6
 1210 05c0 53       		pushq	%rbx
 1211 05c1 4883EC48 		subq	$72, %rsp
 1212              		.cfi_offset 3, -24
 1213 05c5 48897DB8 		movq	%rdi, -72(%rbp)
 1214              	.LBB12:
  85:testError.cpp **** 	const char *error = NULL;
 1215              		.loc 2 85 0
 1216 05c9 48C745C0 		movq	$0, -64(%rbp)
 1216      00000000 
  86:testError.cpp **** 	const char *const expected = "myPrefix(): Foo Bar";
 1217              		.loc 2 86 0
 1218 05d1 48C745C8 		movq	$.LC13, -56(%rbp)
 1218      00000000 
  87:testError.cpp **** 	errPrefix(&error, expected);
 1219              		.loc 2 87 0
 1220 05d9 488D45C0 		leaq	-64(%rbp), %rax
 1221 05dd BE000000 		movl	$.LC13, %esi
 1221      00
 1222 05e2 4889C7   		movq	%rax, %rdi
 1223              	.LEHB32:
 1224 05e5 E8000000 		call	errPrefix
 1224      00
 1225              	.LEHE32:
 1226              	.LEHB33:
  88:testError.cpp **** 	CHECK_EQUAL(expected, error);
 1227              		.loc 2 88 0
 1228 05ea E8000000 		call	_ZN8UnitTest11CurrentTest7DetailsEv
 1228      00
 1229 05ef 488B08   		movq	(%rax), %rcx
 1230 05f2 488D45D0 		leaq	-48(%rbp), %rax
 1231 05f6 BA580000 		movl	$88, %edx
 1231      00
 1232 05fb 4889CE   		movq	%rcx, %rsi
 1233 05fe 4889C7   		movq	%rax, %rdi
 1234 0601 E8000000 		call	_ZN8UnitTest11TestDetailsC1ERKS0_i
 1234      00
 1235              		.loc 2 88 0 is_stmt 0 discriminator 1
 1236 0606 488B5DC0 		movq	-64(%rbp), %rbx
 1237 060a E8000000 		call	_ZN8UnitTest11CurrentTest7ResultsEv
 1237      00
 1238 060f 488B00   		movq	(%rax), %rax
 1239 0612 488D55D0 		leaq	-48(%rbp), %rdx
 1240 0616 4889D1   		movq	%rdx, %rcx
 1241 0619 4889DA   		movq	%rbx, %rdx
 1242 061c BE000000 		movl	$.LC13, %esi
 1242      00
 1243 0621 4889C7   		movq	%rax, %rdi
 1244 0624 E8000000 		call	_ZN8UnitTest10CheckEqualERNS_11TestResultsEPKcS3_RKNS_11TestDetailsE
 1244      00
 1245              	.LEHE33:
 1246              	.L57:
  89:testError.cpp **** 	errFree(error);
 1247              		.loc 2 89 0 is_stmt 1
 1248 0629 488B45C0 		movq	-64(%rbp), %rax
 1249 062d 4889C7   		movq	%rax, %rdi
 1250              	.LEHB34:
 1251 0630 E8000000 		call	errFree
 1251      00
 1252              	.LEHE34:
 1253 0635 EB5A     		jmp	.L60
 1254              	.L59:
 1255 0637 4889C3   		movq	%rax, %rbx
  88:testError.cpp **** 	CHECK_EQUAL(expected, error);
 1256              		.loc 2 88 0
 1257 063a E8000000 		call	__cxa_end_catch
 1257      00
 1258 063f 4889D8   		movq	%rbx, %rax
 1259 0642 4889C7   		movq	%rax, %rdi
 1260              	.LEHB35:
 1261 0645 E8000000 		call	_Unwind_Resume
 1261      00
 1262              	.LEHE35:
 1263              	.L58:
 1264 064a 4889C7   		movq	%rax, %rdi
 1265 064d E8000000 		call	__cxa_begin_catch
 1265      00
 1266              	.LEHB36:
 1267 0652 E8000000 		call	_ZN8UnitTest11CurrentTest7DetailsEv
 1267      00
 1268 0657 488B08   		movq	(%rax), %rcx
 1269 065a 488D45D0 		leaq	-48(%rbp), %rax
 1270 065e BA580000 		movl	$88, %edx
 1270      00
 1271 0663 4889CE   		movq	%rcx, %rsi
 1272 0666 4889C7   		movq	%rax, %rdi
 1273 0669 E8000000 		call	_ZN8UnitTest11TestDetailsC1ERKS0_i
 1273      00
  88:testError.cpp **** 	CHECK_EQUAL(expected, error);
 1274              		.loc 2 88 0 is_stmt 0 discriminator 1
 1275 066e E8000000 		call	_ZN8UnitTest11CurrentTest7ResultsEv
 1275      00
 1276 0673 488B00   		movq	(%rax), %rax
 1277 0676 488D4DD0 		leaq	-48(%rbp), %rcx
 1278 067a BA000000 		movl	$.LC11, %edx
 1278      00
 1279 067f 4889CE   		movq	%rcx, %rsi
 1280 0682 4889C7   		movq	%rax, %rdi
 1281 0685 E8000000 		call	_ZN8UnitTest11TestResults13OnTestFailureERKNS_11TestDetailsEPKc
 1281      00
 1282              	.LEHE36:
 1283              	.LEHB37:
 1284 068a E8000000 		call	__cxa_end_catch
 1284      00
 1285              	.LEHE37:
 1286 068f EB98     		jmp	.L57
 1287              	.L60:
 1288              	.LBE12:
  90:testError.cpp **** }
 1289              		.loc 2 90 0 is_stmt 1
 1290 0691 4883C448 		addq	$72, %rsp
 1291 0695 5B       		popq	%rbx
 1292 0696 5D       		popq	%rbp
 1293              		.cfi_def_cfa 7, 8
 1294 0697 C3       		ret
 1295              		.cfi_endproc
 1296              	.LFE1047:
 1297              		.section	.gcc_except_table
 1298              		.align 4
 1299              	.LLSDA1047:
 1300 00cc FF       		.byte	0xff
 1301 00cd 03       		.byte	0x3
 1302 00ce 25       		.uleb128 .LLSDATT1047-.LLSDATTD1047
 1303              	.LLSDATTD1047:
 1304 00cf 01       		.byte	0x1
 1305 00d0 1C       		.uleb128 .LLSDACSE1047-.LLSDACSB1047
 1306              	.LLSDACSB1047:
 1307 00d1 29       		.uleb128 .LEHB32-.LFB1047
 1308 00d2 05       		.uleb128 .LEHE32-.LEHB32
 1309 00d3 00       		.uleb128 0
 1310 00d4 00       		.uleb128 0
 1311 00d5 2E       		.uleb128 .LEHB33-.LFB1047
 1312 00d6 3F       		.uleb128 .LEHE33-.LEHB33
 1313 00d7 8E01     		.uleb128 .L58-.LFB1047
 1314 00d9 01       		.uleb128 0x1
 1315 00da 74       		.uleb128 .LEHB34-.LFB1047
 1316 00db 05       		.uleb128 .LEHE34-.LEHB34
 1317 00dc 00       		.uleb128 0
 1318 00dd 00       		.uleb128 0
 1319 00de 8901     		.uleb128 .LEHB35-.LFB1047
 1320 00e0 05       		.uleb128 .LEHE35-.LEHB35
 1321 00e1 00       		.uleb128 0
 1322 00e2 00       		.uleb128 0
 1323 00e3 9601     		.uleb128 .LEHB36-.LFB1047
 1324 00e5 38       		.uleb128 .LEHE36-.LEHB36
 1325 00e6 7B       		.uleb128 .L59-.LFB1047
 1326 00e7 00       		.uleb128 0
 1327 00e8 CE01     		.uleb128 .LEHB37-.LFB1047
 1328 00ea 05       		.uleb128 .LEHE37-.LEHB37
 1329 00eb 00       		.uleb128 0
 1330 00ec 00       		.uleb128 0
 1331              	.LLSDACSE1047:
 1332 00ed 01       		.byte	0x1
 1333 00ee 00       		.byte	0
 1334 00ef 00       		.align 4
 1335 00f0 00000000 		.long	0
 1336              	
 1337              	.LLSDATT1047:
 1338              		.text
 1340              		.section	.rodata
 1341              	.LC18:
 1342 01a7 4572726F 		.string	"Error_testPrefixNull"
 1342      725F7465 
 1342      73745072 
 1342      65666978 
 1342      4E756C6C 
 1343              		.section	.text._ZN24TestError_testPrefixNullC2Ev,"axG",@progbits,_ZN24TestError_testPrefixNullC5Ev
 1344              		.align 2
 1345              		.weak	_ZN24TestError_testPrefixNullC2Ev
 1347              	_ZN24TestError_testPrefixNullC2Ev:
 1348              	.LFB1049:
  91:testError.cpp **** 
  92:testError.cpp **** TEST(Error_testPrefixNull) {
 1349              		.loc 2 92 0
 1350              		.cfi_startproc
 1351 0000 55       		pushq	%rbp
 1352              		.cfi_def_cfa_offset 16
 1353              		.cfi_offset 6, -16
 1354 0001 4889E5   		movq	%rsp, %rbp
 1355              		.cfi_def_cfa_register 6
 1356 0004 4883EC10 		subq	$16, %rsp
 1357 0008 48897DF8 		movq	%rdi, -8(%rbp)
 1358              	.LBB13:
 1359              		.loc 2 92 0
 1360 000c E8000000 		call	_ZN13UnitTestSuite12GetSuiteNameEv
 1360      00
 1361 0011 4889C2   		movq	%rax, %rdx
 1362 0014 488B45F8 		movq	-8(%rbp), %rax
 1363 0018 41B85C00 		movl	$92, %r8d
 1363      0000
 1364 001e B9000000 		movl	$.LC1, %ecx
 1364      00
 1365 0023 BE000000 		movl	$.LC18, %esi
 1365      00
 1366 0028 4889C7   		movq	%rax, %rdi
 1367 002b E8000000 		call	_ZN8UnitTest4TestC2EPKcS2_S2_i
 1367      00
 1368 0030 488B45F8 		movq	-8(%rbp), %rax
 1369 0034 48C70000 		movq	$_ZTV24TestError_testPrefixNull+16, (%rax)
 1369      000000
 1370              	.LBE13:
 1371 003b C9       		leave
 1372              		.cfi_def_cfa 7, 8
 1373 003c C3       		ret
 1374              		.cfi_endproc
 1375              	.LFE1049:
 1377              		.weak	_ZN24TestError_testPrefixNullC1Ev
 1378              		.set	_ZN24TestError_testPrefixNullC1Ev,_ZN24TestError_testPrefixNullC2Ev
 1379              		.globl	testError_testPrefixNullInstance
 1380              		.bss
 1381 0579 00000000 		.align 32
 1381      000000
 1384              	testError_testPrefixNullInstance:
 1385 0580 00000000 		.zero	56
 1385      00000000 
 1385      00000000 
 1385      00000000 
 1385      00000000 
 1386              		.globl	adderError_testPrefixNull
 1389              	adderError_testPrefixNull:
 1390 05b8 00       		.zero	1
 1391              		.section	.rodata
 1392              	.LC19:
 1393 01bc 466F6F00 		.string	"Foo"
 1394              	.LC20:
 1395 01c0 21657272 		.string	"!error"
 1395      6F7200
 1396 01c7 00       		.align 8
 1397              	.LC21:
 1398 01c8 556E6861 		.string	"Unhandled exception in CHECK(!error)"
 1398      6E646C65 
 1398      64206578 
 1398      63657074 
 1398      696F6E20 
 1399              		.text
 1400              		.align 2
 1401              		.globl	_ZNK24TestError_testPrefixNull7RunImplEv
 1403              	_ZNK24TestError_testPrefixNull7RunImplEv:
 1404              	.LFB1051:
 1405              		.loc 2 92 0
 1406              		.cfi_startproc
 1407              		.cfi_personality 0x3,__gxx_personality_v0
 1408              		.cfi_lsda 0x3,.LLSDA1051
 1409 0698 55       		pushq	%rbp
 1410              		.cfi_def_cfa_offset 16
 1411              		.cfi_offset 6, -16
 1412 0699 4889E5   		movq	%rsp, %rbp
 1413              		.cfi_def_cfa_register 6
 1414 069c 53       		pushq	%rbx
 1415 069d 4883EC48 		subq	$72, %rsp
 1416              		.cfi_offset 3, -24
 1417 06a1 48897DB8 		movq	%rdi, -72(%rbp)
 1418              	.LBB14:
  93:testError.cpp **** 	const char *error = NULL;
 1419              		.loc 2 93 0
 1420 06a5 48C745C8 		movq	$0, -56(%rbp)
 1420      00000000 
  94:testError.cpp **** 	errPrefix(NULL, "Foo");
 1421              		.loc 2 94 0
 1422 06ad BE000000 		movl	$.LC19, %esi
 1422      00
 1423 06b2 BF000000 		movl	$0, %edi
 1423      00
 1424              	.LEHB38:
 1425 06b7 E8000000 		call	errPrefix
 1425      00
  95:testError.cpp **** 	errPrefix(&error, NULL);
 1426              		.loc 2 95 0
 1427 06bc 488D45C8 		leaq	-56(%rbp), %rax
 1428 06c0 BE000000 		movl	$0, %esi
 1428      00
 1429 06c5 4889C7   		movq	%rax, %rdi
 1430 06c8 E8000000 		call	errPrefix
 1430      00
 1431              	.LEHE38:
  96:testError.cpp **** 	CHECK(!error);
 1432              		.loc 2 96 0
 1433 06cd 488B45C8 		movq	-56(%rbp), %rax
 1434 06d1 4885C0   		testq	%rax, %rax
 1435 06d4 0F94C0   		sete	%al
 1436 06d7 0FB6C0   		movzbl	%al, %eax
 1437 06da 89C7     		movl	%eax, %edi
 1438 06dc E8000000 		call	_ZN8UnitTest5CheckIbEEbT_
 1438      00
 1439 06e1 83F001   		xorl	$1, %eax
 1440 06e4 84C0     		testb	%al, %al
 1441 06e6 0F849300 		je	.L62
 1441      0000
 1442              	.LEHB39:
 1443              		.loc 2 96 0 is_stmt 0 discriminator 1
 1444 06ec E8000000 		call	_ZN8UnitTest11CurrentTest7DetailsEv
 1444      00
 1445 06f1 488B08   		movq	(%rax), %rcx
 1446 06f4 488D45D0 		leaq	-48(%rbp), %rax
 1447 06f8 BA600000 		movl	$96, %edx
 1447      00
 1448 06fd 4889CE   		movq	%rcx, %rsi
 1449 0700 4889C7   		movq	%rax, %rdi
 1450 0703 E8000000 		call	_ZN8UnitTest11TestDetailsC1ERKS0_i
 1450      00
 1451 0708 E8000000 		call	_ZN8UnitTest11CurrentTest7ResultsEv
 1451      00
 1452 070d 488B00   		movq	(%rax), %rax
 1453 0710 488D4DD0 		leaq	-48(%rbp), %rcx
 1454 0714 BA000000 		movl	$.LC20, %edx
 1454      00
 1455 0719 4889CE   		movq	%rcx, %rsi
 1456 071c 4889C7   		movq	%rax, %rdi
 1457 071f E8000000 		call	_ZN8UnitTest11TestResults13OnTestFailureERKNS_11TestDetailsEPKc
 1457      00
 1458              	.LEHE39:
 1459 0724 EB59     		jmp	.L62
 1460              	.L67:
 1461 0726 4889C3   		movq	%rax, %rbx
 1462              		.loc 2 96 0
 1463 0729 E8000000 		call	__cxa_end_catch
 1463      00
 1464 072e 4889D8   		movq	%rbx, %rax
 1465 0731 4889C7   		movq	%rax, %rdi
 1466              	.LEHB40:
 1467 0734 E8000000 		call	_Unwind_Resume
 1467      00
 1468              	.LEHE40:
 1469              	.L66:
 1470 0739 4889C7   		movq	%rax, %rdi
 1471 073c E8000000 		call	__cxa_begin_catch
 1471      00
 1472              	.LEHB41:
 1473 0741 E8000000 		call	_ZN8UnitTest11CurrentTest7DetailsEv
 1473      00
 1474 0746 488B08   		movq	(%rax), %rcx
 1475 0749 488D45D0 		leaq	-48(%rbp), %rax
 1476 074d BA600000 		movl	$96, %edx
 1476      00
 1477 0752 4889CE   		movq	%rcx, %rsi
 1478 0755 4889C7   		movq	%rax, %rdi
 1479 0758 E8000000 		call	_ZN8UnitTest11TestDetailsC1ERKS0_i
 1479      00
 1480              		.loc 2 96 0 discriminator 1
 1481 075d E8000000 		call	_ZN8UnitTest11CurrentTest7ResultsEv
 1481      00
 1482 0762 488B00   		movq	(%rax), %rax
 1483 0765 488D4DD0 		leaq	-48(%rbp), %rcx
 1484 0769 BA000000 		movl	$.LC21, %edx
 1484      00
 1485 076e 4889CE   		movq	%rcx, %rsi
 1486 0771 4889C7   		movq	%rax, %rdi
 1487 0774 E8000000 		call	_ZN8UnitTest11TestResults13OnTestFailureERKNS_11TestDetailsEPKc
 1487      00
 1488              	.LEHE41:
 1489              	.LEHB42:
 1490 0779 E8000000 		call	__cxa_end_catch
 1490      00
 1491              	.LEHE42:
 1492              	.LBE14:
  97:testError.cpp **** }
 1493              		.loc 2 97 0 is_stmt 1 discriminator 1
 1494 077e 90       		nop
 1495              	.L62:
 1496              		.loc 2 97 0 is_stmt 0
 1497 077f 4883C448 		addq	$72, %rsp
 1498 0783 5B       		popq	%rbx
 1499 0784 5D       		popq	%rbp
 1500              		.cfi_def_cfa 7, 8
 1501 0785 C3       		ret
 1502              		.cfi_endproc
 1503              	.LFE1051:
 1504              		.section	.gcc_except_table
 1505              		.align 4
 1506              	.LLSDA1051:
 1507 00f4 FF       		.byte	0xff
 1508 00f5 03       		.byte	0x3
 1509 00f6 21       		.uleb128 .LLSDATT1051-.LLSDATTD1051
 1510              	.LLSDATTD1051:
 1511 00f7 01       		.byte	0x1
 1512 00f8 19       		.uleb128 .LLSDACSE1051-.LLSDACSB1051
 1513              	.LLSDACSB1051:
 1514 00f9 1F       		.uleb128 .LEHB38-.LFB1051
 1515 00fa 16       		.uleb128 .LEHE38-.LEHB38
 1516 00fb 00       		.uleb128 0
 1517 00fc 00       		.uleb128 0
 1518 00fd 54       		.uleb128 .LEHB39-.LFB1051
 1519 00fe 38       		.uleb128 .LEHE39-.LEHB39
 1520 00ff A101     		.uleb128 .L66-.LFB1051
 1521 0101 01       		.uleb128 0x1
 1522 0102 9C01     		.uleb128 .LEHB40-.LFB1051
 1523 0104 05       		.uleb128 .LEHE40-.LEHB40
 1524 0105 00       		.uleb128 0
 1525 0106 00       		.uleb128 0
 1526 0107 A901     		.uleb128 .LEHB41-.LFB1051
 1527 0109 38       		.uleb128 .LEHE41-.LEHB41
 1528 010a 8E01     		.uleb128 .L67-.LFB1051
 1529 010c 00       		.uleb128 0
 1530 010d E101     		.uleb128 .LEHB42-.LFB1051
 1531 010f 05       		.uleb128 .LEHE42-.LEHB42
 1532 0110 00       		.uleb128 0
 1533 0111 00       		.uleb128 0
 1534              	.LLSDACSE1051:
 1535 0112 01       		.byte	0x1
 1536 0113 00       		.byte	0
 1537              		.align 4
 1538 0114 00000000 		.long	0
 1539              	
 1540              	.LLSDATT1051:
 1541              		.text
 1543              		.section	.text._ZN8UnitTest5CheckIbEEbT_,"axG",@progbits,_ZN8UnitTest5CheckIbEEbT_,comdat
 1544              		.weak	_ZN8UnitTest5CheckIbEEbT_
 1546              	_ZN8UnitTest5CheckIbEEbT_:
 1547              	.LFB1079:
 1548              		.file 3 "/home/pandu/Desktop/DigitalLogicDesign/Lab/03-finishingup/backend/libs/libutpp/Checks.h"
   1:/home/pandu/Desktop/DigitalLogicDesign/Lab/03-finishingup/backend/libs/libutpp/Checks.h **** #ifndef UNITTEST_CHECKS_H
   2:/home/pandu/Desktop/DigitalLogicDesign/Lab/03-finishingup/backend/libs/libutpp/Checks.h **** #define UNITTEST_CHECKS_H
   3:/home/pandu/Desktop/DigitalLogicDesign/Lab/03-finishingup/backend/libs/libutpp/Checks.h **** 
   4:/home/pandu/Desktop/DigitalLogicDesign/Lab/03-finishingup/backend/libs/libutpp/Checks.h **** #include "Config.h"
   5:/home/pandu/Desktop/DigitalLogicDesign/Lab/03-finishingup/backend/libs/libutpp/Checks.h **** #include "TestResults.h"
   6:/home/pandu/Desktop/DigitalLogicDesign/Lab/03-finishingup/backend/libs/libutpp/Checks.h **** #include "MemoryOutStream.h"
   7:/home/pandu/Desktop/DigitalLogicDesign/Lab/03-finishingup/backend/libs/libutpp/Checks.h **** 
   8:/home/pandu/Desktop/DigitalLogicDesign/Lab/03-finishingup/backend/libs/libutpp/Checks.h **** namespace UnitTest {
   9:/home/pandu/Desktop/DigitalLogicDesign/Lab/03-finishingup/backend/libs/libutpp/Checks.h **** 
  10:/home/pandu/Desktop/DigitalLogicDesign/Lab/03-finishingup/backend/libs/libutpp/Checks.h **** 
  11:/home/pandu/Desktop/DigitalLogicDesign/Lab/03-finishingup/backend/libs/libutpp/Checks.h **** template< typename Value >
  12:/home/pandu/Desktop/DigitalLogicDesign/Lab/03-finishingup/backend/libs/libutpp/Checks.h **** bool Check(Value const value)
 1549              		.loc 3 12 0 is_stmt 1
 1550              		.cfi_startproc
 1551 0000 55       		pushq	%rbp
 1552              		.cfi_def_cfa_offset 16
 1553              		.cfi_offset 6, -16
 1554 0001 4889E5   		movq	%rsp, %rbp
 1555              		.cfi_def_cfa_register 6
 1556 0004 89F8     		movl	%edi, %eax
 1557 0006 8845FC   		movb	%al, -4(%rbp)
  13:/home/pandu/Desktop/DigitalLogicDesign/Lab/03-finishingup/backend/libs/libutpp/Checks.h **** {
  14:/home/pandu/Desktop/DigitalLogicDesign/Lab/03-finishingup/backend/libs/libutpp/Checks.h ****     return !!value; // doing double negative to avoid silly VS warnings
 1558              		.loc 3 14 0
 1559 0009 0FB645FC 		movzbl	-4(%rbp), %eax
  15:/home/pandu/Desktop/DigitalLogicDesign/Lab/03-finishingup/backend/libs/libutpp/Checks.h **** }
 1560              		.loc 3 15 0
 1561 000d 5D       		popq	%rbp
 1562              		.cfi_def_cfa 7, 8
 1563 000e C3       		ret
 1564              		.cfi_endproc
 1565              	.LFE1079:
 1567              		.weak	_ZTV24TestError_testPrefixNull
 1568              		.section	.rodata._ZTV24TestError_testPrefixNull,"aG",@progbits,_ZTV24TestError_testPrefixNull,comd
 1569              		.align 32
 1572              	_ZTV24TestError_testPrefixNull:
 1573 0000 00000000 		.quad	0
 1573      00000000 
 1574 0008 00000000 		.quad	_ZTI24TestError_testPrefixNull
 1574      00000000 
 1575 0010 00000000 		.quad	_ZN24TestError_testPrefixNullD1Ev
 1575      00000000 
 1576 0018 00000000 		.quad	_ZN24TestError_testPrefixNullD0Ev
 1576      00000000 
 1577 0020 00000000 		.quad	_ZNK24TestError_testPrefixNull7RunImplEv
 1577      00000000 
 1578              		.section	.text._ZN24TestError_testPrefixNullD2Ev,"axG",@progbits,_ZN24TestError_testPrefixNullD5Ev
 1579              		.align 2
 1580              		.weak	_ZN24TestError_testPrefixNullD2Ev
 1582              	_ZN24TestError_testPrefixNullD2Ev:
 1583              	.LFB1126:
  92:testError.cpp **** 	const char *error = NULL;
 1584              		.loc 2 92 0
 1585              		.cfi_startproc
 1586 0000 55       		pushq	%rbp
 1587              		.cfi_def_cfa_offset 16
 1588              		.cfi_offset 6, -16
 1589 0001 4889E5   		movq	%rsp, %rbp
 1590              		.cfi_def_cfa_register 6
 1591 0004 4883EC10 		subq	$16, %rsp
 1592 0008 48897DF8 		movq	%rdi, -8(%rbp)
 1593              	.LBB15:
  92:testError.cpp **** 	const char *error = NULL;
 1594              		.loc 2 92 0
 1595 000c 488B45F8 		movq	-8(%rbp), %rax
 1596 0010 48C70000 		movq	$_ZTV24TestError_testPrefixNull+16, (%rax)
 1596      000000
 1597 0017 488B45F8 		movq	-8(%rbp), %rax
 1598 001b 4889C7   		movq	%rax, %rdi
 1599 001e E8000000 		call	_ZN8UnitTest4TestD2Ev
 1599      00
 1600              	.LBE15:
 1601 0023 B8000000 		movl	$0, %eax
 1601      00
 1602 0028 85C0     		testl	%eax, %eax
 1603 002a 740C     		je	.L70
  92:testError.cpp **** 	const char *error = NULL;
 1604              		.loc 2 92 0 is_stmt 0 discriminator 1
 1605 002c 488B45F8 		movq	-8(%rbp), %rax
 1606 0030 4889C7   		movq	%rax, %rdi
 1607 0033 E8000000 		call	_ZdlPv
 1607      00
 1608              	.L70:
  92:testError.cpp **** 	const char *error = NULL;
 1609              		.loc 2 92 0
 1610 0038 C9       		leave
 1611              		.cfi_def_cfa 7, 8
 1612 0039 C3       		ret
 1613              		.cfi_endproc
 1614              	.LFE1126:
 1616              		.weak	_ZN24TestError_testPrefixNullD1Ev
 1617              		.set	_ZN24TestError_testPrefixNullD1Ev,_ZN24TestError_testPrefixNullD2Ev
 1618              		.section	.text._ZN24TestError_testPrefixNullD0Ev,"axG",@progbits,_ZN24TestError_testPrefixNullD0Ev
 1619              		.align 2
 1620              		.weak	_ZN24TestError_testPrefixNullD0Ev
 1622              	_ZN24TestError_testPrefixNullD0Ev:
 1623              	.LFB1128:
  92:testError.cpp **** 	const char *error = NULL;
 1624              		.loc 2 92 0 is_stmt 1
 1625              		.cfi_startproc
 1626 0000 55       		pushq	%rbp
 1627              		.cfi_def_cfa_offset 16
 1628              		.cfi_offset 6, -16
 1629 0001 4889E5   		movq	%rsp, %rbp
 1630              		.cfi_def_cfa_register 6
 1631 0004 4883EC10 		subq	$16, %rsp
 1632 0008 48897DF8 		movq	%rdi, -8(%rbp)
  92:testError.cpp **** 	const char *error = NULL;
 1633              		.loc 2 92 0
 1634 000c 488B45F8 		movq	-8(%rbp), %rax
 1635 0010 4889C7   		movq	%rax, %rdi
 1636 0013 E8000000 		call	_ZN24TestError_testPrefixNullD1Ev
 1636      00
 1637 0018 488B45F8 		movq	-8(%rbp), %rax
 1638 001c 4889C7   		movq	%rax, %rdi
 1639 001f E8000000 		call	_ZdlPv
 1639      00
 1640 0024 C9       		leave
 1641              		.cfi_def_cfa 7, 8
 1642 0025 C3       		ret
 1643              		.cfi_endproc
 1644              	.LFE1128:
 1646              		.weak	_ZTV27TestError_testPrefixNothing
 1647              		.section	.rodata._ZTV27TestError_testPrefixNothing,"aG",@progbits,_ZTV27TestError_testPrefixNothin
 1648              		.align 32
 1651              	_ZTV27TestError_testPrefixNothing:
 1652 0000 00000000 		.quad	0
 1652      00000000 
 1653 0008 00000000 		.quad	_ZTI27TestError_testPrefixNothing
 1653      00000000 
 1654 0010 00000000 		.quad	_ZN27TestError_testPrefixNothingD1Ev
 1654      00000000 
 1655 0018 00000000 		.quad	_ZN27TestError_testPrefixNothingD0Ev
 1655      00000000 
 1656 0020 00000000 		.quad	_ZNK27TestError_testPrefixNothing7RunImplEv
 1656      00000000 
 1657              		.section	.text._ZN27TestError_testPrefixNothingD2Ev,"axG",@progbits,_ZN27TestError_testPrefixNothi
 1658              		.align 2
 1659              		.weak	_ZN27TestError_testPrefixNothingD2Ev
 1661              	_ZN27TestError_testPrefixNothingD2Ev:
 1662              	.LFB1130:
  84:testError.cpp **** 	const char *error = NULL;
 1663              		.loc 2 84 0
 1664              		.cfi_startproc
 1665 0000 55       		pushq	%rbp
 1666              		.cfi_def_cfa_offset 16
 1667              		.cfi_offset 6, -16
 1668 0001 4889E5   		movq	%rsp, %rbp
 1669              		.cfi_def_cfa_register 6
 1670 0004 4883EC10 		subq	$16, %rsp
 1671 0008 48897DF8 		movq	%rdi, -8(%rbp)
 1672              	.LBB16:
  84:testError.cpp **** 	const char *error = NULL;
 1673              		.loc 2 84 0
 1674 000c 488B45F8 		movq	-8(%rbp), %rax
 1675 0010 48C70000 		movq	$_ZTV27TestError_testPrefixNothing+16, (%rax)
 1675      000000
 1676 0017 488B45F8 		movq	-8(%rbp), %rax
 1677 001b 4889C7   		movq	%rax, %rdi
 1678 001e E8000000 		call	_ZN8UnitTest4TestD2Ev
 1678      00
 1679              	.LBE16:
 1680 0023 B8000000 		movl	$0, %eax
 1680      00
 1681 0028 85C0     		testl	%eax, %eax
 1682 002a 740C     		je	.L75
  84:testError.cpp **** 	const char *error = NULL;
 1683              		.loc 2 84 0 is_stmt 0 discriminator 1
 1684 002c 488B45F8 		movq	-8(%rbp), %rax
 1685 0030 4889C7   		movq	%rax, %rdi
 1686 0033 E8000000 		call	_ZdlPv
 1686      00
 1687              	.L75:
  84:testError.cpp **** 	const char *error = NULL;
 1688              		.loc 2 84 0
 1689 0038 C9       		leave
 1690              		.cfi_def_cfa 7, 8
 1691 0039 C3       		ret
 1692              		.cfi_endproc
 1693              	.LFE1130:
 1695              		.weak	_ZN27TestError_testPrefixNothingD1Ev
 1696              		.set	_ZN27TestError_testPrefixNothingD1Ev,_ZN27TestError_testPrefixNothingD2Ev
 1697              		.section	.text._ZN27TestError_testPrefixNothingD0Ev,"axG",@progbits,_ZN27TestError_testPrefixNothi
 1698              		.align 2
 1699              		.weak	_ZN27TestError_testPrefixNothingD0Ev
 1701              	_ZN27TestError_testPrefixNothingD0Ev:
 1702              	.LFB1132:
  84:testError.cpp **** 	const char *error = NULL;
 1703              		.loc 2 84 0 is_stmt 1
 1704              		.cfi_startproc
 1705 0000 55       		pushq	%rbp
 1706              		.cfi_def_cfa_offset 16
 1707              		.cfi_offset 6, -16
 1708 0001 4889E5   		movq	%rsp, %rbp
 1709              		.cfi_def_cfa_register 6
 1710 0004 4883EC10 		subq	$16, %rsp
 1711 0008 48897DF8 		movq	%rdi, -8(%rbp)
  84:testError.cpp **** 	const char *error = NULL;
 1712              		.loc 2 84 0
 1713 000c 488B45F8 		movq	-8(%rbp), %rax
 1714 0010 4889C7   		movq	%rax, %rdi
 1715 0013 E8000000 		call	_ZN27TestError_testPrefixNothingD1Ev
 1715      00
 1716 0018 488B45F8 		movq	-8(%rbp), %rax
 1717 001c 4889C7   		movq	%rax, %rdi
 1718 001f E8000000 		call	_ZdlPv
 1718      00
 1719 0024 C9       		leave
 1720              		.cfi_def_cfa 7, 8
 1721 0025 C3       		ret
 1722              		.cfi_endproc
 1723              	.LFE1132:
 1725              		.weak	_ZTV29TestError_testPrefixSomething
 1726              		.section	.rodata._ZTV29TestError_testPrefixSomething,"aG",@progbits,_ZTV29TestError_testPrefixSome
 1727              		.align 32
 1730              	_ZTV29TestError_testPrefixSomething:
 1731 0000 00000000 		.quad	0
 1731      00000000 
 1732 0008 00000000 		.quad	_ZTI29TestError_testPrefixSomething
 1732      00000000 
 1733 0010 00000000 		.quad	_ZN29TestError_testPrefixSomethingD1Ev
 1733      00000000 
 1734 0018 00000000 		.quad	_ZN29TestError_testPrefixSomethingD0Ev
 1734      00000000 
 1735 0020 00000000 		.quad	_ZNK29TestError_testPrefixSomething7RunImplEv
 1735      00000000 
 1736              		.section	.text._ZN29TestError_testPrefixSomethingD2Ev,"axG",@progbits,_ZN29TestError_testPrefixSom
 1737              		.align 2
 1738              		.weak	_ZN29TestError_testPrefixSomethingD2Ev
 1740              	_ZN29TestError_testPrefixSomethingD2Ev:
 1741              	.LFB1134:
  72:testError.cpp **** 	#define MSG "Foo Bar"
 1742              		.loc 2 72 0
 1743              		.cfi_startproc
 1744 0000 55       		pushq	%rbp
 1745              		.cfi_def_cfa_offset 16
 1746              		.cfi_offset 6, -16
 1747 0001 4889E5   		movq	%rsp, %rbp
 1748              		.cfi_def_cfa_register 6
 1749 0004 4883EC10 		subq	$16, %rsp
 1750 0008 48897DF8 		movq	%rdi, -8(%rbp)
 1751              	.LBB17:
  72:testError.cpp **** 	#define MSG "Foo Bar"
 1752              		.loc 2 72 0
 1753 000c 488B45F8 		movq	-8(%rbp), %rax
 1754 0010 48C70000 		movq	$_ZTV29TestError_testPrefixSomething+16, (%rax)
 1754      000000
 1755 0017 488B45F8 		movq	-8(%rbp), %rax
 1756 001b 4889C7   		movq	%rax, %rdi
 1757 001e E8000000 		call	_ZN8UnitTest4TestD2Ev
 1757      00
 1758              	.LBE17:
 1759 0023 B8000000 		movl	$0, %eax
 1759      00
 1760 0028 85C0     		testl	%eax, %eax
 1761 002a 740C     		je	.L80
  72:testError.cpp **** 	#define MSG "Foo Bar"
 1762              		.loc 2 72 0 is_stmt 0 discriminator 1
 1763 002c 488B45F8 		movq	-8(%rbp), %rax
 1764 0030 4889C7   		movq	%rax, %rdi
 1765 0033 E8000000 		call	_ZdlPv
 1765      00
 1766              	.L80:
  72:testError.cpp **** 	#define MSG "Foo Bar"
 1767              		.loc 2 72 0
 1768 0038 C9       		leave
 1769              		.cfi_def_cfa 7, 8
 1770 0039 C3       		ret
 1771              		.cfi_endproc
 1772              	.LFE1134:
 1774              		.weak	_ZN29TestError_testPrefixSomethingD1Ev
 1775              		.set	_ZN29TestError_testPrefixSomethingD1Ev,_ZN29TestError_testPrefixSomethingD2Ev
 1776              		.section	.text._ZN29TestError_testPrefixSomethingD0Ev,"axG",@progbits,_ZN29TestError_testPrefixSom
 1777              		.align 2
 1778              		.weak	_ZN29TestError_testPrefixSomethingD0Ev
 1780              	_ZN29TestError_testPrefixSomethingD0Ev:
 1781              	.LFB1136:
  72:testError.cpp **** 	#define MSG "Foo Bar"
 1782              		.loc 2 72 0 is_stmt 1
 1783              		.cfi_startproc
 1784 0000 55       		pushq	%rbp
 1785              		.cfi_def_cfa_offset 16
 1786              		.cfi_offset 6, -16
 1787 0001 4889E5   		movq	%rsp, %rbp
 1788              		.cfi_def_cfa_register 6
 1789 0004 4883EC10 		subq	$16, %rsp
 1790 0008 48897DF8 		movq	%rdi, -8(%rbp)
  72:testError.cpp **** 	#define MSG "Foo Bar"
 1791              		.loc 2 72 0
 1792 000c 488B45F8 		movq	-8(%rbp), %rax
 1793 0010 4889C7   		movq	%rax, %rdi
 1794 0013 E8000000 		call	_ZN29TestError_testPrefixSomethingD1Ev
 1794      00
 1795 0018 488B45F8 		movq	-8(%rbp), %rax
 1796 001c 4889C7   		movq	%rax, %rdi
 1797 001f E8000000 		call	_ZdlPv
 1797      00
 1798 0024 C9       		leave
 1799              		.cfi_def_cfa 7, 8
 1800 0025 C3       		ret
 1801              		.cfi_endproc
 1802              	.LFE1136:
 1804              		.weak	_ZTV23TestError_testStdRender
 1805              		.section	.rodata._ZTV23TestError_testStdRender,"aG",@progbits,_ZTV23TestError_testStdRender,comdat
 1806              		.align 32
 1809              	_ZTV23TestError_testStdRender:
 1810 0000 00000000 		.quad	0
 1810      00000000 
 1811 0008 00000000 		.quad	_ZTI23TestError_testStdRender
 1811      00000000 
 1812 0010 00000000 		.quad	_ZN23TestError_testStdRenderD1Ev
 1812      00000000 
 1813 0018 00000000 		.quad	_ZN23TestError_testStdRenderD0Ev
 1813      00000000 
 1814 0020 00000000 		.quad	_ZNK23TestError_testStdRender7RunImplEv
 1814      00000000 
 1815              		.section	.text._ZN23TestError_testStdRenderD2Ev,"axG",@progbits,_ZN23TestError_testStdRenderD5Ev,c
 1816              		.align 2
 1817              		.weak	_ZN23TestError_testStdRenderD2Ev
 1819              	_ZN23TestError_testStdRenderD2Ev:
 1820              	.LFB1138:
  59:testError.cpp **** 	const char *error = NULL, *expected;
 1821              		.loc 2 59 0
 1822              		.cfi_startproc
 1823 0000 55       		pushq	%rbp
 1824              		.cfi_def_cfa_offset 16
 1825              		.cfi_offset 6, -16
 1826 0001 4889E5   		movq	%rsp, %rbp
 1827              		.cfi_def_cfa_register 6
 1828 0004 4883EC10 		subq	$16, %rsp
 1829 0008 48897DF8 		movq	%rdi, -8(%rbp)
 1830              	.LBB18:
  59:testError.cpp **** 	const char *error = NULL, *expected;
 1831              		.loc 2 59 0
 1832 000c 488B45F8 		movq	-8(%rbp), %rax
 1833 0010 48C70000 		movq	$_ZTV23TestError_testStdRender+16, (%rax)
 1833      000000
 1834 0017 488B45F8 		movq	-8(%rbp), %rax
 1835 001b 4889C7   		movq	%rax, %rdi
 1836 001e E8000000 		call	_ZN8UnitTest4TestD2Ev
 1836      00
 1837              	.LBE18:
 1838 0023 B8000000 		movl	$0, %eax
 1838      00
 1839 0028 85C0     		testl	%eax, %eax
 1840 002a 740C     		je	.L85
  59:testError.cpp **** 	const char *error = NULL, *expected;
 1841              		.loc 2 59 0 is_stmt 0 discriminator 1
 1842 002c 488B45F8 		movq	-8(%rbp), %rax
 1843 0030 4889C7   		movq	%rax, %rdi
 1844 0033 E8000000 		call	_ZdlPv
 1844      00
 1845              	.L85:
  59:testError.cpp **** 	const char *error = NULL, *expected;
 1846              		.loc 2 59 0
 1847 0038 C9       		leave
 1848              		.cfi_def_cfa 7, 8
 1849 0039 C3       		ret
 1850              		.cfi_endproc
 1851              	.LFE1138:
 1853              		.weak	_ZN23TestError_testStdRenderD1Ev
 1854              		.set	_ZN23TestError_testStdRenderD1Ev,_ZN23TestError_testStdRenderD2Ev
 1855              		.section	.text._ZN23TestError_testStdRenderD0Ev,"axG",@progbits,_ZN23TestError_testStdRenderD0Ev,c
 1856              		.align 2
 1857              		.weak	_ZN23TestError_testStdRenderD0Ev
 1859              	_ZN23TestError_testStdRenderD0Ev:
 1860              	.LFB1140:
  59:testError.cpp **** 	const char *error = NULL, *expected;
 1861              		.loc 2 59 0 is_stmt 1
 1862              		.cfi_startproc
 1863 0000 55       		pushq	%rbp
 1864              		.cfi_def_cfa_offset 16
 1865              		.cfi_offset 6, -16
 1866 0001 4889E5   		movq	%rsp, %rbp
 1867              		.cfi_def_cfa_register 6
 1868 0004 4883EC10 		subq	$16, %rsp
 1869 0008 48897DF8 		movq	%rdi, -8(%rbp)
  59:testError.cpp **** 	const char *error = NULL, *expected;
 1870              		.loc 2 59 0
 1871 000c 488B45F8 		movq	-8(%rbp), %rax
 1872 0010 4889C7   		movq	%rax, %rdi
 1873 0013 E8000000 		call	_ZN23TestError_testStdRenderD1Ev
 1873      00
 1874 0018 488B45F8 		movq	-8(%rbp), %rax
 1875 001c 4889C7   		movq	%rax, %rdi
 1876 001f E8000000 		call	_ZdlPv
 1876      00
 1877 0024 C9       		leave
 1878              		.cfi_def_cfa 7, 8
 1879 0025 C3       		ret
 1880              		.cfi_endproc
 1881              	.LFE1140:
 1883              		.weak	_ZTV27TestError_testNullStdRender
 1884              		.section	.rodata._ZTV27TestError_testNullStdRender,"aG",@progbits,_ZTV27TestError_testNullStdRende
 1885              		.align 32
 1888              	_ZTV27TestError_testNullStdRender:
 1889 0000 00000000 		.quad	0
 1889      00000000 
 1890 0008 00000000 		.quad	_ZTI27TestError_testNullStdRender
 1890      00000000 
 1891 0010 00000000 		.quad	_ZN27TestError_testNullStdRenderD1Ev
 1891      00000000 
 1892 0018 00000000 		.quad	_ZN27TestError_testNullStdRenderD0Ev
 1892      00000000 
 1893 0020 00000000 		.quad	_ZNK27TestError_testNullStdRender7RunImplEv
 1893      00000000 
 1894              		.section	.text._ZN27TestError_testNullStdRenderD2Ev,"axG",@progbits,_ZN27TestError_testNullStdRend
 1895              		.align 2
 1896              		.weak	_ZN27TestError_testNullStdRenderD2Ev
 1898              	_ZN27TestError_testNullStdRenderD2Ev:
 1899              	.LFB1142:
  54:testError.cpp **** 	fillBuf(16, 'A');
 1900              		.loc 2 54 0
 1901              		.cfi_startproc
 1902 0000 55       		pushq	%rbp
 1903              		.cfi_def_cfa_offset 16
 1904              		.cfi_offset 6, -16
 1905 0001 4889E5   		movq	%rsp, %rbp
 1906              		.cfi_def_cfa_register 6
 1907 0004 4883EC10 		subq	$16, %rsp
 1908 0008 48897DF8 		movq	%rdi, -8(%rbp)
 1909              	.LBB19:
  54:testError.cpp **** 	fillBuf(16, 'A');
 1910              		.loc 2 54 0
 1911 000c 488B45F8 		movq	-8(%rbp), %rax
 1912 0010 48C70000 		movq	$_ZTV27TestError_testNullStdRender+16, (%rax)
 1912      000000
 1913 0017 488B45F8 		movq	-8(%rbp), %rax
 1914 001b 4889C7   		movq	%rax, %rdi
 1915 001e E8000000 		call	_ZN8UnitTest4TestD2Ev
 1915      00
 1916              	.LBE19:
 1917 0023 B8000000 		movl	$0, %eax
 1917      00
 1918 0028 85C0     		testl	%eax, %eax
 1919 002a 740C     		je	.L90
  54:testError.cpp **** 	fillBuf(16, 'A');
 1920              		.loc 2 54 0 is_stmt 0 discriminator 1
 1921 002c 488B45F8 		movq	-8(%rbp), %rax
 1922 0030 4889C7   		movq	%rax, %rdi
 1923 0033 E8000000 		call	_ZdlPv
 1923      00
 1924              	.L90:
  54:testError.cpp **** 	fillBuf(16, 'A');
 1925              		.loc 2 54 0
 1926 0038 C9       		leave
 1927              		.cfi_def_cfa 7, 8
 1928 0039 C3       		ret
 1929              		.cfi_endproc
 1930              	.LFE1142:
 1932              		.weak	_ZN27TestError_testNullStdRenderD1Ev
 1933              		.set	_ZN27TestError_testNullStdRenderD1Ev,_ZN27TestError_testNullStdRenderD2Ev
 1934              		.section	.text._ZN27TestError_testNullStdRenderD0Ev,"axG",@progbits,_ZN27TestError_testNullStdRend
 1935              		.align 2
 1936              		.weak	_ZN27TestError_testNullStdRenderD0Ev
 1938              	_ZN27TestError_testNullStdRenderD0Ev:
 1939              	.LFB1144:
  54:testError.cpp **** 	fillBuf(16, 'A');
 1940              		.loc 2 54 0 is_stmt 1
 1941              		.cfi_startproc
 1942 0000 55       		pushq	%rbp
 1943              		.cfi_def_cfa_offset 16
 1944              		.cfi_offset 6, -16
 1945 0001 4889E5   		movq	%rsp, %rbp
 1946              		.cfi_def_cfa_register 6
 1947 0004 4883EC10 		subq	$16, %rsp
 1948 0008 48897DF8 		movq	%rdi, -8(%rbp)
  54:testError.cpp **** 	fillBuf(16, 'A');
 1949              		.loc 2 54 0
 1950 000c 488B45F8 		movq	-8(%rbp), %rax
 1951 0010 4889C7   		movq	%rax, %rdi
 1952 0013 E8000000 		call	_ZN27TestError_testNullStdRenderD1Ev
 1952      00
 1953 0018 488B45F8 		movq	-8(%rbp), %rax
 1954 001c 4889C7   		movq	%rax, %rdi
 1955 001f E8000000 		call	_ZdlPv
 1955      00
 1956 0024 C9       		leave
 1957              		.cfi_def_cfa 7, 8
 1958 0025 C3       		ret
 1959              		.cfi_endproc
 1960              	.LFE1144:
 1962              		.weak	_ZTV20TestError_testRender
 1963              		.section	.rodata._ZTV20TestError_testRender,"aG",@progbits,_ZTV20TestError_testRender,comdat
 1964              		.align 32
 1967              	_ZTV20TestError_testRender:
 1968 0000 00000000 		.quad	0
 1968      00000000 
 1969 0008 00000000 		.quad	_ZTI20TestError_testRender
 1969      00000000 
 1970 0010 00000000 		.quad	_ZN20TestError_testRenderD1Ev
 1970      00000000 
 1971 0018 00000000 		.quad	_ZN20TestError_testRenderD0Ev
 1971      00000000 
 1972 0020 00000000 		.quad	_ZNK20TestError_testRender7RunImplEv
 1972      00000000 
 1973              		.section	.text._ZN20TestError_testRenderD2Ev,"axG",@progbits,_ZN20TestError_testRenderD5Ev,comdat
 1974              		.align 2
 1975              		.weak	_ZN20TestError_testRenderD2Ev
 1977              	_ZN20TestError_testRenderD2Ev:
 1978              	.LFB1146:
  42:testError.cpp **** 	int i;
 1979              		.loc 2 42 0
 1980              		.cfi_startproc
 1981 0000 55       		pushq	%rbp
 1982              		.cfi_def_cfa_offset 16
 1983              		.cfi_offset 6, -16
 1984 0001 4889E5   		movq	%rsp, %rbp
 1985              		.cfi_def_cfa_register 6
 1986 0004 4883EC10 		subq	$16, %rsp
 1987 0008 48897DF8 		movq	%rdi, -8(%rbp)
 1988              	.LBB20:
  42:testError.cpp **** 	int i;
 1989              		.loc 2 42 0
 1990 000c 488B45F8 		movq	-8(%rbp), %rax
 1991 0010 48C70000 		movq	$_ZTV20TestError_testRender+16, (%rax)
 1991      000000
 1992 0017 488B45F8 		movq	-8(%rbp), %rax
 1993 001b 4889C7   		movq	%rax, %rdi
 1994 001e E8000000 		call	_ZN8UnitTest4TestD2Ev
 1994      00
 1995              	.LBE20:
 1996 0023 B8000000 		movl	$0, %eax
 1996      00
 1997 0028 85C0     		testl	%eax, %eax
 1998 002a 740C     		je	.L95
  42:testError.cpp **** 	int i;
 1999              		.loc 2 42 0 is_stmt 0 discriminator 1
 2000 002c 488B45F8 		movq	-8(%rbp), %rax
 2001 0030 4889C7   		movq	%rax, %rdi
 2002 0033 E8000000 		call	_ZdlPv
 2002      00
 2003              	.L95:
  42:testError.cpp **** 	int i;
 2004              		.loc 2 42 0
 2005 0038 C9       		leave
 2006              		.cfi_def_cfa 7, 8
 2007 0039 C3       		ret
 2008              		.cfi_endproc
 2009              	.LFE1146:
 2011              		.weak	_ZN20TestError_testRenderD1Ev
 2012              		.set	_ZN20TestError_testRenderD1Ev,_ZN20TestError_testRenderD2Ev
 2013              		.section	.text._ZN20TestError_testRenderD0Ev,"axG",@progbits,_ZN20TestError_testRenderD0Ev,comdat
 2014              		.align 2
 2015              		.weak	_ZN20TestError_testRenderD0Ev
 2017              	_ZN20TestError_testRenderD0Ev:
 2018              	.LFB1148:
  42:testError.cpp **** 	int i;
 2019              		.loc 2 42 0 is_stmt 1
 2020              		.cfi_startproc
 2021 0000 55       		pushq	%rbp
 2022              		.cfi_def_cfa_offset 16
 2023              		.cfi_offset 6, -16
 2024 0001 4889E5   		movq	%rsp, %rbp
 2025              		.cfi_def_cfa_register 6
 2026 0004 4883EC10 		subq	$16, %rsp
 2027 0008 48897DF8 		movq	%rdi, -8(%rbp)
  42:testError.cpp **** 	int i;
 2028              		.loc 2 42 0
 2029 000c 488B45F8 		movq	-8(%rbp), %rax
 2030 0010 4889C7   		movq	%rax, %rdi
 2031 0013 E8000000 		call	_ZN20TestError_testRenderD1Ev
 2031      00
 2032 0018 488B45F8 		movq	-8(%rbp), %rax
 2033 001c 4889C7   		movq	%rax, %rdi
 2034 001f E8000000 		call	_ZdlPv
 2034      00
 2035 0024 C9       		leave
 2036              		.cfi_def_cfa 7, 8
 2037 0025 C3       		ret
 2038              		.cfi_endproc
 2039              	.LFE1148:
 2041              		.weak	_ZTV24TestError_testNullRender
 2042              		.section	.rodata._ZTV24TestError_testNullRender,"aG",@progbits,_ZTV24TestError_testNullRender,comd
 2043              		.align 32
 2046              	_ZTV24TestError_testNullRender:
 2047 0000 00000000 		.quad	0
 2047      00000000 
 2048 0008 00000000 		.quad	_ZTI24TestError_testNullRender
 2048      00000000 
 2049 0010 00000000 		.quad	_ZN24TestError_testNullRenderD1Ev
 2049      00000000 
 2050 0018 00000000 		.quad	_ZN24TestError_testNullRenderD0Ev
 2050      00000000 
 2051 0020 00000000 		.quad	_ZNK24TestError_testNullRender7RunImplEv
 2051      00000000 
 2052              		.section	.text._ZN24TestError_testNullRenderD2Ev,"axG",@progbits,_ZN24TestError_testNullRenderD5Ev
 2053              		.align 2
 2054              		.weak	_ZN24TestError_testNullRenderD2Ev
 2056              	_ZN24TestError_testNullRenderD2Ev:
 2057              	.LFB1150:
  37:testError.cpp **** 	fillBuf(16, 'A');
 2058              		.loc 2 37 0
 2059              		.cfi_startproc
 2060 0000 55       		pushq	%rbp
 2061              		.cfi_def_cfa_offset 16
 2062              		.cfi_offset 6, -16
 2063 0001 4889E5   		movq	%rsp, %rbp
 2064              		.cfi_def_cfa_register 6
 2065 0004 4883EC10 		subq	$16, %rsp
 2066 0008 48897DF8 		movq	%rdi, -8(%rbp)
 2067              	.LBB21:
  37:testError.cpp **** 	fillBuf(16, 'A');
 2068              		.loc 2 37 0
 2069 000c 488B45F8 		movq	-8(%rbp), %rax
 2070 0010 48C70000 		movq	$_ZTV24TestError_testNullRender+16, (%rax)
 2070      000000
 2071 0017 488B45F8 		movq	-8(%rbp), %rax
 2072 001b 4889C7   		movq	%rax, %rdi
 2073 001e E8000000 		call	_ZN8UnitTest4TestD2Ev
 2073      00
 2074              	.LBE21:
 2075 0023 B8000000 		movl	$0, %eax
 2075      00
 2076 0028 85C0     		testl	%eax, %eax
 2077 002a 740C     		je	.L100
  37:testError.cpp **** 	fillBuf(16, 'A');
 2078              		.loc 2 37 0 is_stmt 0 discriminator 1
 2079 002c 488B45F8 		movq	-8(%rbp), %rax
 2080 0030 4889C7   		movq	%rax, %rdi
 2081 0033 E8000000 		call	_ZdlPv
 2081      00
 2082              	.L100:
  37:testError.cpp **** 	fillBuf(16, 'A');
 2083              		.loc 2 37 0
 2084 0038 C9       		leave
 2085              		.cfi_def_cfa 7, 8
 2086 0039 C3       		ret
 2087              		.cfi_endproc
 2088              	.LFE1150:
 2090              		.weak	_ZN24TestError_testNullRenderD1Ev
 2091              		.set	_ZN24TestError_testNullRenderD1Ev,_ZN24TestError_testNullRenderD2Ev
 2092              		.section	.text._ZN24TestError_testNullRenderD0Ev,"axG",@progbits,_ZN24TestError_testNullRenderD0Ev
 2093              		.align 2
 2094              		.weak	_ZN24TestError_testNullRenderD0Ev
 2096              	_ZN24TestError_testNullRenderD0Ev:
 2097              	.LFB1152:
  37:testError.cpp **** 	fillBuf(16, 'A');
 2098              		.loc 2 37 0 is_stmt 1
 2099              		.cfi_startproc
 2100 0000 55       		pushq	%rbp
 2101              		.cfi_def_cfa_offset 16
 2102              		.cfi_offset 6, -16
 2103 0001 4889E5   		movq	%rsp, %rbp
 2104              		.cfi_def_cfa_register 6
 2105 0004 4883EC10 		subq	$16, %rsp
 2106 0008 48897DF8 		movq	%rdi, -8(%rbp)
  37:testError.cpp **** 	fillBuf(16, 'A');
 2107              		.loc 2 37 0
 2108 000c 488B45F8 		movq	-8(%rbp), %rax
 2109 0010 4889C7   		movq	%rax, %rdi
 2110 0013 E8000000 		call	_ZN24TestError_testNullRenderD1Ev
 2110      00
 2111 0018 488B45F8 		movq	-8(%rbp), %rax
 2112 001c 4889C7   		movq	%rax, %rdi
 2113 001f E8000000 		call	_ZdlPv
 2113      00
 2114 0024 C9       		leave
 2115              		.cfi_def_cfa 7, 8
 2116 0025 C3       		ret
 2117              		.cfi_endproc
 2118              	.LFE1152:
 2120              		.weak	_ZTI24TestError_testPrefixNull
 2121              		.section	.rodata._ZTI24TestError_testPrefixNull,"aG",@progbits,_ZTI24TestError_testPrefixNull,comd
 2122              		.align 16
 2125              	_ZTI24TestError_testPrefixNull:
 2126 0000 00000000 		.quad	_ZTVN10__cxxabiv120__si_class_type_infoE+16
 2126      00000000 
 2127 0008 00000000 		.quad	_ZTS24TestError_testPrefixNull
 2127      00000000 
 2128 0010 00000000 		.quad	_ZTIN8UnitTest4TestE
 2128      00000000 
 2129              		.weak	_ZTS24TestError_testPrefixNull
 2130              		.section	.rodata._ZTS24TestError_testPrefixNull,"aG",@progbits,_ZTS24TestError_testPrefixNull,comd
 2131              		.align 16
 2134              	_ZTS24TestError_testPrefixNull:
 2135 0000 32345465 		.string	"24TestError_testPrefixNull"
 2135      73744572 
 2135      726F725F 
 2135      74657374 
 2135      50726566 
 2136              		.weak	_ZTI27TestError_testPrefixNothing
 2137              		.section	.rodata._ZTI27TestError_testPrefixNothing,"aG",@progbits,_ZTI27TestError_testPrefixNothin
 2138              		.align 16
 2141              	_ZTI27TestError_testPrefixNothing:
 2142 0000 00000000 		.quad	_ZTVN10__cxxabiv120__si_class_type_infoE+16
 2142      00000000 
 2143 0008 00000000 		.quad	_ZTS27TestError_testPrefixNothing
 2143      00000000 
 2144 0010 00000000 		.quad	_ZTIN8UnitTest4TestE
 2144      00000000 
 2145              		.weak	_ZTS27TestError_testPrefixNothing
 2146              		.section	.rodata._ZTS27TestError_testPrefixNothing,"aG",@progbits,_ZTS27TestError_testPrefixNothin
 2147              		.align 16
 2150              	_ZTS27TestError_testPrefixNothing:
 2151 0000 32375465 		.string	"27TestError_testPrefixNothing"
 2151      73744572 
 2151      726F725F 
 2151      74657374 
 2151      50726566 
 2152              		.weak	_ZTI29TestError_testPrefixSomething
 2153              		.section	.rodata._ZTI29TestError_testPrefixSomething,"aG",@progbits,_ZTI29TestError_testPrefixSome
 2154              		.align 16
 2157              	_ZTI29TestError_testPrefixSomething:
 2158 0000 00000000 		.quad	_ZTVN10__cxxabiv120__si_class_type_infoE+16
 2158      00000000 
 2159 0008 00000000 		.quad	_ZTS29TestError_testPrefixSomething
 2159      00000000 
 2160 0010 00000000 		.quad	_ZTIN8UnitTest4TestE
 2160      00000000 
 2161              		.weak	_ZTS29TestError_testPrefixSomething
 2162              		.section	.rodata._ZTS29TestError_testPrefixSomething,"aG",@progbits,_ZTS29TestError_testPrefixSome
 2163              		.align 32
 2166              	_ZTS29TestError_testPrefixSomething:
 2167 0000 32395465 		.string	"29TestError_testPrefixSomething"
 2167      73744572 
 2167      726F725F 
 2167      74657374 
 2167      50726566 
 2168              		.weak	_ZTI23TestError_testStdRender
 2169              		.section	.rodata._ZTI23TestError_testStdRender,"aG",@progbits,_ZTI23TestError_testStdRender,comdat
 2170              		.align 16
 2173              	_ZTI23TestError_testStdRender:
 2174 0000 00000000 		.quad	_ZTVN10__cxxabiv120__si_class_type_infoE+16
 2174      00000000 
 2175 0008 00000000 		.quad	_ZTS23TestError_testStdRender
 2175      00000000 
 2176 0010 00000000 		.quad	_ZTIN8UnitTest4TestE
 2176      00000000 
 2177              		.weak	_ZTS23TestError_testStdRender
 2178              		.section	.rodata._ZTS23TestError_testStdRender,"aG",@progbits,_ZTS23TestError_testStdRender,comdat
 2179              		.align 16
 2182              	_ZTS23TestError_testStdRender:
 2183 0000 32335465 		.string	"23TestError_testStdRender"
 2183      73744572 
 2183      726F725F 
 2183      74657374 
 2183      53746452 
 2184              		.weak	_ZTI27TestError_testNullStdRender
 2185              		.section	.rodata._ZTI27TestError_testNullStdRender,"aG",@progbits,_ZTI27TestError_testNullStdRende
 2186              		.align 16
 2189              	_ZTI27TestError_testNullStdRender:
 2190 0000 00000000 		.quad	_ZTVN10__cxxabiv120__si_class_type_infoE+16
 2190      00000000 
 2191 0008 00000000 		.quad	_ZTS27TestError_testNullStdRender
 2191      00000000 
 2192 0010 00000000 		.quad	_ZTIN8UnitTest4TestE
 2192      00000000 
 2193              		.weak	_ZTS27TestError_testNullStdRender
 2194              		.section	.rodata._ZTS27TestError_testNullStdRender,"aG",@progbits,_ZTS27TestError_testNullStdRende
 2195              		.align 16
 2198              	_ZTS27TestError_testNullStdRender:
 2199 0000 32375465 		.string	"27TestError_testNullStdRender"
 2199      73744572 
 2199      726F725F 
 2199      74657374 
 2199      4E756C6C 
 2200              		.weak	_ZTI20TestError_testRender
 2201              		.section	.rodata._ZTI20TestError_testRender,"aG",@progbits,_ZTI20TestError_testRender,comdat
 2202              		.align 16
 2205              	_ZTI20TestError_testRender:
 2206 0000 00000000 		.quad	_ZTVN10__cxxabiv120__si_class_type_infoE+16
 2206      00000000 
 2207 0008 00000000 		.quad	_ZTS20TestError_testRender
 2207      00000000 
 2208 0010 00000000 		.quad	_ZTIN8UnitTest4TestE
 2208      00000000 
 2209              		.weak	_ZTS20TestError_testRender
 2210              		.section	.rodata._ZTS20TestError_testRender,"aG",@progbits,_ZTS20TestError_testRender,comdat
 2211              		.align 16
 2214              	_ZTS20TestError_testRender:
 2215 0000 32305465 		.string	"20TestError_testRender"
 2215      73744572 
 2215      726F725F 
 2215      74657374 
 2215      52656E64 
 2216              		.weak	_ZTI24TestError_testNullRender
 2217              		.section	.rodata._ZTI24TestError_testNullRender,"aG",@progbits,_ZTI24TestError_testNullRender,comd
 2218              		.align 16
 2221              	_ZTI24TestError_testNullRender:
 2222 0000 00000000 		.quad	_ZTVN10__cxxabiv120__si_class_type_infoE+16
 2222      00000000 
 2223 0008 00000000 		.quad	_ZTS24TestError_testNullRender
 2223      00000000 
 2224 0010 00000000 		.quad	_ZTIN8UnitTest4TestE
 2224      00000000 
 2225              		.weak	_ZTS24TestError_testNullRender
 2226              		.section	.rodata._ZTS24TestError_testNullRender,"aG",@progbits,_ZTS24TestError_testNullRender,comd
 2227              		.align 16
 2230              	_ZTS24TestError_testNullRender:
 2231 0000 32345465 		.string	"24TestError_testNullRender"
 2231      73744572 
 2231      726F725F 
 2231      74657374 
 2231      4E756C6C 
 2232              		.text
 2234              	_Z41__static_initialization_and_destruction_0ii:
 2235              	.LFB1157:
 2236              		.loc 2 97 0
 2237              		.cfi_startproc
 2238 0786 55       		pushq	%rbp
 2239              		.cfi_def_cfa_offset 16
 2240              		.cfi_offset 6, -16
 2241 0787 4889E5   		movq	%rsp, %rbp
 2242              		.cfi_def_cfa_register 6
 2243 078a 4883EC10 		subq	$16, %rsp
 2244 078e 897DFC   		movl	%edi, -4(%rbp)
 2245 0791 8975F8   		movl	%esi, -8(%rbp)
 2246              		.loc 2 97 0
 2247 0794 837DFC01 		cmpl	$1, -4(%rbp)
 2248 0798 0F858001 		jne	.L105
 2248      0000
 2249              		.loc 2 97 0 is_stmt 0 discriminator 1
 2250 079e 817DF8FF 		cmpl	$65535, -8(%rbp)
 2250      FF0000
 2251 07a5 0F857301 		jne	.L105
 2251      0000
  37:testError.cpp **** 	fillBuf(16, 'A');
 2252              		.loc 2 37 0 is_stmt 1
 2253 07ab BF000000 		movl	$testError_testNullRenderInstance, %edi
 2253      00
 2254 07b0 E8000000 		call	_ZN24TestError_testNullRenderC1Ev
 2254      00
 2255 07b5 BA000000 		movl	$__dso_handle, %edx
 2255      00
 2256 07ba BE000000 		movl	$testError_testNullRenderInstance, %esi
 2256      00
 2257 07bf BF000000 		movl	$_ZN24TestError_testNullRenderD1Ev, %edi
 2257      00
 2258 07c4 E8000000 		call	__cxa_atexit
 2258      00
 2259 07c9 E8000000 		call	_ZN8UnitTest4Test11GetTestListEv
 2259      00
 2260 07ce BA000000 		movl	$testError_testNullRenderInstance, %edx
 2260      00
 2261 07d3 4889C6   		movq	%rax, %rsi
 2262 07d6 BF000000 		movl	$adderError_testNullRender, %edi
 2262      00
 2263 07db E8000000 		call	_ZN8UnitTest9ListAdderC1ERNS_8TestListEPNS_4TestE
 2263      00
  42:testError.cpp **** 	int i;
 2264              		.loc 2 42 0
 2265 07e0 BF000000 		movl	$testError_testRenderInstance, %edi
 2265      00
 2266 07e5 E8000000 		call	_ZN20TestError_testRenderC1Ev
 2266      00
 2267 07ea BA000000 		movl	$__dso_handle, %edx
 2267      00
 2268 07ef BE000000 		movl	$testError_testRenderInstance, %esi
 2268      00
 2269 07f4 BF000000 		movl	$_ZN20TestError_testRenderD1Ev, %edi
 2269      00
 2270 07f9 E8000000 		call	__cxa_atexit
 2270      00
 2271 07fe E8000000 		call	_ZN8UnitTest4Test11GetTestListEv
 2271      00
 2272 0803 BA000000 		movl	$testError_testRenderInstance, %edx
 2272      00
 2273 0808 4889C6   		movq	%rax, %rsi
 2274 080b BF000000 		movl	$adderError_testRender, %edi
 2274      00
 2275 0810 E8000000 		call	_ZN8UnitTest9ListAdderC1ERNS_8TestListEPNS_4TestE
 2275      00
  54:testError.cpp **** 	fillBuf(16, 'A');
 2276              		.loc 2 54 0
 2277 0815 BF000000 		movl	$testError_testNullStdRenderInstance, %edi
 2277      00
 2278 081a E8000000 		call	_ZN27TestError_testNullStdRenderC1Ev
 2278      00
 2279 081f BA000000 		movl	$__dso_handle, %edx
 2279      00
 2280 0824 BE000000 		movl	$testError_testNullStdRenderInstance, %esi
 2280      00
 2281 0829 BF000000 		movl	$_ZN27TestError_testNullStdRenderD1Ev, %edi
 2281      00
 2282 082e E8000000 		call	__cxa_atexit
 2282      00
 2283 0833 E8000000 		call	_ZN8UnitTest4Test11GetTestListEv
 2283      00
 2284 0838 BA000000 		movl	$testError_testNullStdRenderInstance, %edx
 2284      00
 2285 083d 4889C6   		movq	%rax, %rsi
 2286 0840 BF000000 		movl	$adderError_testNullStdRender, %edi
 2286      00
 2287 0845 E8000000 		call	_ZN8UnitTest9ListAdderC1ERNS_8TestListEPNS_4TestE
 2287      00
  59:testError.cpp **** 	const char *error = NULL, *expected;
 2288              		.loc 2 59 0
 2289 084a BF000000 		movl	$testError_testStdRenderInstance, %edi
 2289      00
 2290 084f E8000000 		call	_ZN23TestError_testStdRenderC1Ev
 2290      00
 2291 0854 BA000000 		movl	$__dso_handle, %edx
 2291      00
 2292 0859 BE000000 		movl	$testError_testStdRenderInstance, %esi
 2292      00
 2293 085e BF000000 		movl	$_ZN23TestError_testStdRenderD1Ev, %edi
 2293      00
 2294 0863 E8000000 		call	__cxa_atexit
 2294      00
 2295 0868 E8000000 		call	_ZN8UnitTest4Test11GetTestListEv
 2295      00
 2296 086d BA000000 		movl	$testError_testStdRenderInstance, %edx
 2296      00
 2297 0872 4889C6   		movq	%rax, %rsi
 2298 0875 BF000000 		movl	$adderError_testStdRender, %edi
 2298      00
 2299 087a E8000000 		call	_ZN8UnitTest9ListAdderC1ERNS_8TestListEPNS_4TestE
 2299      00
  72:testError.cpp **** 	#define MSG "Foo Bar"
 2300              		.loc 2 72 0
 2301 087f BF000000 		movl	$testError_testPrefixSomethingInstance, %edi
 2301      00
 2302 0884 E8000000 		call	_ZN29TestError_testPrefixSomethingC1Ev
 2302      00
 2303 0889 BA000000 		movl	$__dso_handle, %edx
 2303      00
 2304 088e BE000000 		movl	$testError_testPrefixSomethingInstance, %esi
 2304      00
 2305 0893 BF000000 		movl	$_ZN29TestError_testPrefixSomethingD1Ev, %edi
 2305      00
 2306 0898 E8000000 		call	__cxa_atexit
 2306      00
 2307 089d E8000000 		call	_ZN8UnitTest4Test11GetTestListEv
 2307      00
 2308 08a2 BA000000 		movl	$testError_testPrefixSomethingInstance, %edx
 2308      00
 2309 08a7 4889C6   		movq	%rax, %rsi
 2310 08aa BF000000 		movl	$adderError_testPrefixSomething, %edi
 2310      00
 2311 08af E8000000 		call	_ZN8UnitTest9ListAdderC1ERNS_8TestListEPNS_4TestE
 2311      00
  84:testError.cpp **** 	const char *error = NULL;
 2312              		.loc 2 84 0
 2313 08b4 BF000000 		movl	$testError_testPrefixNothingInstance, %edi
 2313      00
 2314 08b9 E8000000 		call	_ZN27TestError_testPrefixNothingC1Ev
 2314      00
 2315 08be BA000000 		movl	$__dso_handle, %edx
 2315      00
 2316 08c3 BE000000 		movl	$testError_testPrefixNothingInstance, %esi
 2316      00
 2317 08c8 BF000000 		movl	$_ZN27TestError_testPrefixNothingD1Ev, %edi
 2317      00
 2318 08cd E8000000 		call	__cxa_atexit
 2318      00
 2319 08d2 E8000000 		call	_ZN8UnitTest4Test11GetTestListEv
 2319      00
 2320 08d7 BA000000 		movl	$testError_testPrefixNothingInstance, %edx
 2320      00
 2321 08dc 4889C6   		movq	%rax, %rsi
 2322 08df BF000000 		movl	$adderError_testPrefixNothing, %edi
 2322      00
 2323 08e4 E8000000 		call	_ZN8UnitTest9ListAdderC1ERNS_8TestListEPNS_4TestE
 2323      00
  92:testError.cpp **** 	const char *error = NULL;
 2324              		.loc 2 92 0
 2325 08e9 BF000000 		movl	$testError_testPrefixNullInstance, %edi
 2325      00
 2326 08ee E8000000 		call	_ZN24TestError_testPrefixNullC1Ev
 2326      00
 2327 08f3 BA000000 		movl	$__dso_handle, %edx
 2327      00
 2328 08f8 BE000000 		movl	$testError_testPrefixNullInstance, %esi
 2328      00
 2329 08fd BF000000 		movl	$_ZN24TestError_testPrefixNullD1Ev, %edi
 2329      00
 2330 0902 E8000000 		call	__cxa_atexit
 2330      00
 2331 0907 E8000000 		call	_ZN8UnitTest4Test11GetTestListEv
 2331      00
 2332 090c BA000000 		movl	$testError_testPrefixNullInstance, %edx
 2332      00
 2333 0911 4889C6   		movq	%rax, %rsi
 2334 0914 BF000000 		movl	$adderError_testPrefixNull, %edi
 2334      00
 2335 0919 E8000000 		call	_ZN8UnitTest9ListAdderC1ERNS_8TestListEPNS_4TestE
 2335      00
 2336              	.L105:
 2337              		.loc 2 97 0
 2338 091e C9       		leave
 2339              		.cfi_def_cfa 7, 8
 2340 091f C3       		ret
 2341              		.cfi_endproc
 2342              	.LFE1157:
 2345              	_GLOBAL__sub_I_buf:
 2346              	.LFB1158:
 2347              		.loc 2 97 0
 2348              		.cfi_startproc
 2349 0920 55       		pushq	%rbp
 2350              		.cfi_def_cfa_offset 16
 2351              		.cfi_offset 6, -16
 2352 0921 4889E5   		movq	%rsp, %rbp
 2353              		.cfi_def_cfa_register 6
 2354              		.loc 2 97 0
 2355 0924 BEFFFF00 		movl	$65535, %esi
 2355      00
 2356 0929 BF010000 		movl	$1, %edi
 2356      00
 2357 092e E853FEFF 		call	_Z41__static_initialization_and_destruction_0ii
 2357      FF
 2358 0933 5D       		popq	%rbp
 2359              		.cfi_def_cfa 7, 8
 2360 0934 C3       		ret
 2361              		.cfi_endproc
 2362              	.LFE1158:
 2364              		.section	.init_array,"aw"
 2365              		.align 8
 2366 0000 00000000 		.quad	_GLOBAL__sub_I_buf
 2366      00000000 
 2367              		.text
 2368              	.Letext0:
 2369              		.file 4 "/home/pandu/Desktop/DigitalLogicDesign/Lab/03-finishingup/backend/libs/libutpp/TestList.h
 2370              		.file 5 "/usr/include/libio.h"
 2371              		.file 6 "/usr/include/stdio.h"
 2372              		.file 7 "<built-in>"
 2373              		.file 8 "/usr/lib/gcc/x86_64-linux-gnu/4.8/include/stddef.h"
 2374              		.file 9 "/usr/include/wchar.h"
 2375              		.file 10 "/usr/include/c++/4.8/cwchar"
 2376              		.file 11 "/usr/include/x86_64-linux-gnu/c++/4.8/bits/c++config.h"
 2377              		.file 12 "/usr/include/c++/4.8/clocale"
 2378              		.file 13 "/usr/include/c++/4.8/cwctype"
 2379              		.file 14 "/usr/include/time.h"
 2380              		.file 15 "/home/pandu/Desktop/DigitalLogicDesign/Lab/03-finishingup/backend/libs/libutpp/TestDetai
 2381              		.file 16 "/usr/include/c++/4.8/ext/new_allocator.h"
 2382              		.file 17 "/usr/include/c++/4.8/ext/numeric_traits.h"
 2383              		.file 18 "/usr/include/c++/4.8/debug/debug.h"
 2384              		.file 19 "/usr/include/locale.h"
 2385              		.file 20 "/usr/include/x86_64-linux-gnu/bits/types.h"
 2386              		.file 21 "/usr/include/wctype.h"
DEFINED SYMBOLS
                            *ABS*:0000000000000000 testError.cpp
     /tmp/ccVPSq5l.s:10     .text._ZN13UnitTestSuite12GetSuiteNameEv:0000000000000000 _ZN13UnitTestSuite12GetSuiteNameEv
     /tmp/ccVPSq5l.s:34     .bss:0000000000000000 buf
     /tmp/ccVPSq5l.s:39     .text:0000000000000000 _Z7fillBufic
     /tmp/ccVPSq5l.s:106    .text._ZN24TestError_testNullRenderC2Ev:0000000000000000 _ZN24TestError_testNullRenderC2Ev
     /tmp/ccVPSq5l.s:2046   .rodata._ZTV24TestError_testNullRender:0000000000000000 _ZTV24TestError_testNullRender
     /tmp/ccVPSq5l.s:106    .text._ZN24TestError_testNullRenderC2Ev:0000000000000000 _ZN24TestError_testNullRenderC1Ev
     /tmp/ccVPSq5l.s:143    .bss:0000000000000400 testError_testNullRenderInstance
     /tmp/ccVPSq5l.s:148    .bss:0000000000000438 adderError_testNullRender
     /tmp/ccVPSq5l.s:154    .text:0000000000000064 _ZNK24TestError_testNullRender7RunImplEv
     /tmp/ccVPSq5l.s:188    .text._ZN20TestError_testRenderC2Ev:0000000000000000 _ZN20TestError_testRenderC2Ev
     /tmp/ccVPSq5l.s:1967   .rodata._ZTV20TestError_testRender:0000000000000000 _ZTV20TestError_testRender
     /tmp/ccVPSq5l.s:188    .text._ZN20TestError_testRenderC2Ev:0000000000000000 _ZN20TestError_testRenderC1Ev
     /tmp/ccVPSq5l.s:225    .bss:0000000000000440 testError_testRenderInstance
     /tmp/ccVPSq5l.s:230    .bss:0000000000000478 adderError_testRender
     /tmp/ccVPSq5l.s:240    .text:0000000000000096 _ZNK20TestError_testRender7RunImplEv
     /tmp/ccVPSq5l.s:403    .text._ZN27TestError_testNullStdRenderC2Ev:0000000000000000 _ZN27TestError_testNullStdRenderC2Ev
     /tmp/ccVPSq5l.s:1888   .rodata._ZTV27TestError_testNullStdRender:0000000000000000 _ZTV27TestError_testNullStdRender
     /tmp/ccVPSq5l.s:403    .text._ZN27TestError_testNullStdRenderC2Ev:0000000000000000 _ZN27TestError_testNullStdRenderC1Ev
     /tmp/ccVPSq5l.s:440    .bss:0000000000000480 testError_testNullStdRenderInstance
     /tmp/ccVPSq5l.s:445    .bss:00000000000004b8 adderError_testNullStdRender
     /tmp/ccVPSq5l.s:451    .text:0000000000000198 _ZNK27TestError_testNullStdRender7RunImplEv
     /tmp/ccVPSq5l.s:483    .text._ZN23TestError_testStdRenderC2Ev:0000000000000000 _ZN23TestError_testStdRenderC2Ev
     /tmp/ccVPSq5l.s:1809   .rodata._ZTV23TestError_testStdRender:0000000000000000 _ZTV23TestError_testStdRender
     /tmp/ccVPSq5l.s:483    .text._ZN23TestError_testStdRenderC2Ev:0000000000000000 _ZN23TestError_testStdRenderC1Ev
     /tmp/ccVPSq5l.s:520    .bss:00000000000004c0 testError_testStdRenderInstance
     /tmp/ccVPSq5l.s:525    .bss:00000000000004f8 adderError_testStdRender
     /tmp/ccVPSq5l.s:544    .text:00000000000001c0 _ZNK23TestError_testStdRender7RunImplEv
     /tmp/ccVPSq5l.s:1546   .text._ZN8UnitTest5CheckIbEEbT_:0000000000000000 _ZN8UnitTest5CheckIbEEbT_
     /tmp/ccVPSq5l.s:863    .text._ZN29TestError_testPrefixSomethingC2Ev:0000000000000000 _ZN29TestError_testPrefixSomethingC2Ev
     /tmp/ccVPSq5l.s:1730   .rodata._ZTV29TestError_testPrefixSomething:0000000000000000 _ZTV29TestError_testPrefixSomething
     /tmp/ccVPSq5l.s:863    .text._ZN29TestError_testPrefixSomethingC2Ev:0000000000000000 _ZN29TestError_testPrefixSomethingC1Ev
     /tmp/ccVPSq5l.s:900    .bss:0000000000000500 testError_testPrefixSomethingInstance
     /tmp/ccVPSq5l.s:905    .bss:0000000000000538 adderError_testPrefixSomething
     /tmp/ccVPSq5l.s:921    .text:0000000000000428 _ZNK29TestError_testPrefixSomething7RunImplEv
     /tmp/ccVPSq5l.s:1151   .text._ZN27TestError_testPrefixNothingC2Ev:0000000000000000 _ZN27TestError_testPrefixNothingC2Ev
     /tmp/ccVPSq5l.s:1651   .rodata._ZTV27TestError_testPrefixNothing:0000000000000000 _ZTV27TestError_testPrefixNothing
     /tmp/ccVPSq5l.s:1151   .text._ZN27TestError_testPrefixNothingC2Ev:0000000000000000 _ZN27TestError_testPrefixNothingC1Ev
     /tmp/ccVPSq5l.s:1188   .bss:0000000000000540 testError_testPrefixNothingInstance
     /tmp/ccVPSq5l.s:1193   .bss:0000000000000578 adderError_testPrefixNothing
     /tmp/ccVPSq5l.s:1199   .text:00000000000005bc _ZNK27TestError_testPrefixNothing7RunImplEv
     /tmp/ccVPSq5l.s:1347   .text._ZN24TestError_testPrefixNullC2Ev:0000000000000000 _ZN24TestError_testPrefixNullC2Ev
     /tmp/ccVPSq5l.s:1572   .rodata._ZTV24TestError_testPrefixNull:0000000000000000 _ZTV24TestError_testPrefixNull
     /tmp/ccVPSq5l.s:1347   .text._ZN24TestError_testPrefixNullC2Ev:0000000000000000 _ZN24TestError_testPrefixNullC1Ev
     /tmp/ccVPSq5l.s:1384   .bss:0000000000000580 testError_testPrefixNullInstance
     /tmp/ccVPSq5l.s:1389   .bss:00000000000005b8 adderError_testPrefixNull
     /tmp/ccVPSq5l.s:1403   .text:0000000000000698 _ZNK24TestError_testPrefixNull7RunImplEv
     /tmp/ccVPSq5l.s:2125   .rodata._ZTI24TestError_testPrefixNull:0000000000000000 _ZTI24TestError_testPrefixNull
     /tmp/ccVPSq5l.s:1582   .text._ZN24TestError_testPrefixNullD2Ev:0000000000000000 _ZN24TestError_testPrefixNullD1Ev
     /tmp/ccVPSq5l.s:1622   .text._ZN24TestError_testPrefixNullD0Ev:0000000000000000 _ZN24TestError_testPrefixNullD0Ev
     /tmp/ccVPSq5l.s:1582   .text._ZN24TestError_testPrefixNullD2Ev:0000000000000000 _ZN24TestError_testPrefixNullD2Ev
     /tmp/ccVPSq5l.s:2141   .rodata._ZTI27TestError_testPrefixNothing:0000000000000000 _ZTI27TestError_testPrefixNothing
     /tmp/ccVPSq5l.s:1661   .text._ZN27TestError_testPrefixNothingD2Ev:0000000000000000 _ZN27TestError_testPrefixNothingD1Ev
     /tmp/ccVPSq5l.s:1701   .text._ZN27TestError_testPrefixNothingD0Ev:0000000000000000 _ZN27TestError_testPrefixNothingD0Ev
     /tmp/ccVPSq5l.s:1661   .text._ZN27TestError_testPrefixNothingD2Ev:0000000000000000 _ZN27TestError_testPrefixNothingD2Ev
     /tmp/ccVPSq5l.s:2157   .rodata._ZTI29TestError_testPrefixSomething:0000000000000000 _ZTI29TestError_testPrefixSomething
     /tmp/ccVPSq5l.s:1740   .text._ZN29TestError_testPrefixSomethingD2Ev:0000000000000000 _ZN29TestError_testPrefixSomethingD1Ev
     /tmp/ccVPSq5l.s:1780   .text._ZN29TestError_testPrefixSomethingD0Ev:0000000000000000 _ZN29TestError_testPrefixSomethingD0Ev
     /tmp/ccVPSq5l.s:1740   .text._ZN29TestError_testPrefixSomethingD2Ev:0000000000000000 _ZN29TestError_testPrefixSomethingD2Ev
     /tmp/ccVPSq5l.s:2173   .rodata._ZTI23TestError_testStdRender:0000000000000000 _ZTI23TestError_testStdRender
     /tmp/ccVPSq5l.s:1819   .text._ZN23TestError_testStdRenderD2Ev:0000000000000000 _ZN23TestError_testStdRenderD1Ev
     /tmp/ccVPSq5l.s:1859   .text._ZN23TestError_testStdRenderD0Ev:0000000000000000 _ZN23TestError_testStdRenderD0Ev
     /tmp/ccVPSq5l.s:1819   .text._ZN23TestError_testStdRenderD2Ev:0000000000000000 _ZN23TestError_testStdRenderD2Ev
     /tmp/ccVPSq5l.s:2189   .rodata._ZTI27TestError_testNullStdRender:0000000000000000 _ZTI27TestError_testNullStdRender
     /tmp/ccVPSq5l.s:1898   .text._ZN27TestError_testNullStdRenderD2Ev:0000000000000000 _ZN27TestError_testNullStdRenderD1Ev
     /tmp/ccVPSq5l.s:1938   .text._ZN27TestError_testNullStdRenderD0Ev:0000000000000000 _ZN27TestError_testNullStdRenderD0Ev
     /tmp/ccVPSq5l.s:1898   .text._ZN27TestError_testNullStdRenderD2Ev:0000000000000000 _ZN27TestError_testNullStdRenderD2Ev
     /tmp/ccVPSq5l.s:2205   .rodata._ZTI20TestError_testRender:0000000000000000 _ZTI20TestError_testRender
     /tmp/ccVPSq5l.s:1977   .text._ZN20TestError_testRenderD2Ev:0000000000000000 _ZN20TestError_testRenderD1Ev
     /tmp/ccVPSq5l.s:2017   .text._ZN20TestError_testRenderD0Ev:0000000000000000 _ZN20TestError_testRenderD0Ev
     /tmp/ccVPSq5l.s:1977   .text._ZN20TestError_testRenderD2Ev:0000000000000000 _ZN20TestError_testRenderD2Ev
     /tmp/ccVPSq5l.s:2221   .rodata._ZTI24TestError_testNullRender:0000000000000000 _ZTI24TestError_testNullRender
     /tmp/ccVPSq5l.s:2056   .text._ZN24TestError_testNullRenderD2Ev:0000000000000000 _ZN24TestError_testNullRenderD1Ev
     /tmp/ccVPSq5l.s:2096   .text._ZN24TestError_testNullRenderD0Ev:0000000000000000 _ZN24TestError_testNullRenderD0Ev
     /tmp/ccVPSq5l.s:2056   .text._ZN24TestError_testNullRenderD2Ev:0000000000000000 _ZN24TestError_testNullRenderD2Ev
     /tmp/ccVPSq5l.s:2134   .rodata._ZTS24TestError_testPrefixNull:0000000000000000 _ZTS24TestError_testPrefixNull
     /tmp/ccVPSq5l.s:2150   .rodata._ZTS27TestError_testPrefixNothing:0000000000000000 _ZTS27TestError_testPrefixNothing
     /tmp/ccVPSq5l.s:2166   .rodata._ZTS29TestError_testPrefixSomething:0000000000000000 _ZTS29TestError_testPrefixSomething
     /tmp/ccVPSq5l.s:2182   .rodata._ZTS23TestError_testStdRender:0000000000000000 _ZTS23TestError_testStdRender
     /tmp/ccVPSq5l.s:2198   .rodata._ZTS27TestError_testNullStdRender:0000000000000000 _ZTS27TestError_testNullStdRender
     /tmp/ccVPSq5l.s:2214   .rodata._ZTS20TestError_testRender:0000000000000000 _ZTS20TestError_testRender
     /tmp/ccVPSq5l.s:2230   .rodata._ZTS24TestError_testNullRender:0000000000000000 _ZTS24TestError_testNullRender
     /tmp/ccVPSq5l.s:2234   .text:0000000000000786 _Z41__static_initialization_and_destruction_0ii
     /tmp/ccVPSq5l.s:2345   .text:0000000000000920 _GLOBAL__sub_I_buf
                           .group:0000000000000000 _ZN24TestError_testNullRenderC5Ev
                           .group:0000000000000000 _ZN20TestError_testRenderC5Ev
                           .group:0000000000000000 _ZN27TestError_testNullStdRenderC5Ev
                           .group:0000000000000000 _ZN23TestError_testStdRenderC5Ev
                           .group:0000000000000000 _ZN29TestError_testPrefixSomethingC5Ev
                           .group:0000000000000000 _ZN27TestError_testPrefixNothingC5Ev
                           .group:0000000000000000 _ZN24TestError_testPrefixNullC5Ev
                           .group:0000000000000000 _ZN24TestError_testPrefixNullD5Ev
                           .group:0000000000000000 _ZN27TestError_testPrefixNothingD5Ev
                           .group:0000000000000000 _ZN29TestError_testPrefixSomethingD5Ev
                           .group:0000000000000000 _ZN23TestError_testStdRenderD5Ev
                           .group:0000000000000000 _ZN27TestError_testNullStdRenderD5Ev
                           .group:0000000000000000 _ZN20TestError_testRenderD5Ev
                           .group:0000000000000000 _ZN24TestError_testNullRenderD5Ev

UNDEFINED SYMBOLS
_ZN8UnitTest4TestC2EPKcS2_S2_i
errRender
__gxx_personality_v0
_ZN8UnitTest11CurrentTest7DetailsEv
_ZN8UnitTest11TestDetailsC1ERKS0_i
_ZN8UnitTest11CurrentTest7ResultsEv
_ZN8UnitTest10CheckEqualERNS_11TestResultsEPcPKcRKNS_11TestDetailsE
errFree
__cxa_end_catch
_Unwind_Resume
__cxa_begin_catch
_ZN8UnitTest11TestResults13OnTestFailureERKNS_11TestDetailsEPKc
errRenderStd
fopen
__errno_location
strerror
_ZN8UnitTest10CheckEqualERNS_11TestResultsEPKcS3_RKNS_11TestDetailsE
errPrefix
_ZN8UnitTest4TestD2Ev
_ZdlPv
_ZTVN10__cxxabiv120__si_class_type_infoE
_ZTIN8UnitTest4TestE
__dso_handle
__cxa_atexit
_ZN8UnitTest4Test11GetTestListEv
_ZN8UnitTest9ListAdderC1ERNS_8TestListEPNS_4TestE
