   1              		.file	"testI2C.cpp"
   2              		.text
   3              	.Ltext0:
   4              		.section	.rodata
   5              	.LC0:
   6 0000 44656661 		.string	"DefaultSuite"
   6      756C7453 
   6      75697465 
   6      00
   7              		.section	.text._ZN13UnitTestSuite12GetSuiteNameEv,"axG",@progbits,_ZN13UnitTestSuite12GetSuiteName
   8              		.weak	_ZN13UnitTestSuite12GetSuiteNameEv
  10              	_ZN13UnitTestSuite12GetSuiteNameEv:
  11              	.LFB0:
  12              		.file 1 "/home/pandu/Desktop/DigitalLogicDesign/Lab/03-/makestuff/libs/libutpp/TestSuite.h"
   1:/home/pandu/Desktop/DigitalLogicDesign/Lab/03-/makestuff/libs/libutpp/TestSuite.h **** #ifndef UNITTEST_TESTSUITE_H
   2:/home/pandu/Desktop/DigitalLogicDesign/Lab/03-/makestuff/libs/libutpp/TestSuite.h **** #define UNITTEST_TESTSUITE_H
   3:/home/pandu/Desktop/DigitalLogicDesign/Lab/03-/makestuff/libs/libutpp/TestSuite.h **** 
   4:/home/pandu/Desktop/DigitalLogicDesign/Lab/03-/makestuff/libs/libutpp/TestSuite.h **** namespace UnitTestSuite {
   5:/home/pandu/Desktop/DigitalLogicDesign/Lab/03-/makestuff/libs/libutpp/TestSuite.h **** 
   6:/home/pandu/Desktop/DigitalLogicDesign/Lab/03-/makestuff/libs/libutpp/TestSuite.h ****     inline char const* GetSuiteName ()
   7:/home/pandu/Desktop/DigitalLogicDesign/Lab/03-/makestuff/libs/libutpp/TestSuite.h ****     {
  13              		.loc 1 7 0
  14              		.cfi_startproc
  15 0000 55       		pushq	%rbp
  16              		.cfi_def_cfa_offset 16
  17              		.cfi_offset 6, -16
  18 0001 4889E5   		movq	%rsp, %rbp
  19              		.cfi_def_cfa_register 6
   8:/home/pandu/Desktop/DigitalLogicDesign/Lab/03-/makestuff/libs/libutpp/TestSuite.h ****         return "DefaultSuite";
  20              		.loc 1 8 0
  21 0004 B8000000 		movl	$.LC0, %eax
  21      00
   9:/home/pandu/Desktop/DigitalLogicDesign/Lab/03-/makestuff/libs/libutpp/TestSuite.h ****     }
  22              		.loc 1 9 0
  23 0009 5D       		popq	%rbp
  24              		.cfi_def_cfa 7, 8
  25 000a C3       		ret
  26              		.cfi_endproc
  27              	.LFE0:
  29              		.section	.text._ZN8UnitTest15MemoryOutStreamC1Ev,"axG",@progbits,_ZN8UnitTest15MemoryOutStreamC1Ev
  30              		.align 2
  31              		.weak	_ZN8UnitTest15MemoryOutStreamC1Ev
  33              	_ZN8UnitTest15MemoryOutStreamC1Ev:
  34              	.LFB1007:
  35              		.file 2 "/home/pandu/Desktop/DigitalLogicDesign/Lab/03-/makestuff/libs/libutpp/MemoryOutStream.h"
   1:/home/pandu/Desktop/DigitalLogicDesign/Lab/03-/makestuff/libs/libutpp/MemoryOutStream.h **** #ifndef UNITTEST_MEMORYOUTSTREAM_H
   2:/home/pandu/Desktop/DigitalLogicDesign/Lab/03-/makestuff/libs/libutpp/MemoryOutStream.h **** #define UNITTEST_MEMORYOUTSTREAM_H
   3:/home/pandu/Desktop/DigitalLogicDesign/Lab/03-/makestuff/libs/libutpp/MemoryOutStream.h **** 
   4:/home/pandu/Desktop/DigitalLogicDesign/Lab/03-/makestuff/libs/libutpp/MemoryOutStream.h **** #include "Config.h"
   5:/home/pandu/Desktop/DigitalLogicDesign/Lab/03-/makestuff/libs/libutpp/MemoryOutStream.h **** 
   6:/home/pandu/Desktop/DigitalLogicDesign/Lab/03-/makestuff/libs/libutpp/MemoryOutStream.h **** #ifndef UNITTEST_USE_CUSTOM_STREAMS
   7:/home/pandu/Desktop/DigitalLogicDesign/Lab/03-/makestuff/libs/libutpp/MemoryOutStream.h **** 
   8:/home/pandu/Desktop/DigitalLogicDesign/Lab/03-/makestuff/libs/libutpp/MemoryOutStream.h **** #include <sstream>
   9:/home/pandu/Desktop/DigitalLogicDesign/Lab/03-/makestuff/libs/libutpp/MemoryOutStream.h **** 
  10:/home/pandu/Desktop/DigitalLogicDesign/Lab/03-/makestuff/libs/libutpp/MemoryOutStream.h **** namespace UnitTest
  11:/home/pandu/Desktop/DigitalLogicDesign/Lab/03-/makestuff/libs/libutpp/MemoryOutStream.h **** {
  12:/home/pandu/Desktop/DigitalLogicDesign/Lab/03-/makestuff/libs/libutpp/MemoryOutStream.h **** 
  13:/home/pandu/Desktop/DigitalLogicDesign/Lab/03-/makestuff/libs/libutpp/MemoryOutStream.h **** class MemoryOutStream : public std::ostringstream
  14:/home/pandu/Desktop/DigitalLogicDesign/Lab/03-/makestuff/libs/libutpp/MemoryOutStream.h **** {
  15:/home/pandu/Desktop/DigitalLogicDesign/Lab/03-/makestuff/libs/libutpp/MemoryOutStream.h **** public:
  16:/home/pandu/Desktop/DigitalLogicDesign/Lab/03-/makestuff/libs/libutpp/MemoryOutStream.h ****     MemoryOutStream() {}
  36              		.loc 2 16 0
  37              		.cfi_startproc
  38              		.cfi_personality 0x3,__gxx_personality_v0
  39              		.cfi_lsda 0x3,.LLSDA1007
  40 0000 55       		pushq	%rbp
  41              		.cfi_def_cfa_offset 16
  42              		.cfi_offset 6, -16
  43 0001 4889E5   		movq	%rsp, %rbp
  44              		.cfi_def_cfa_register 6
  45 0004 53       		pushq	%rbx
  46 0005 4883EC18 		subq	$24, %rsp
  47              		.cfi_offset 3, -24
  48 0009 48897DE8 		movq	%rdi, -24(%rbp)
  49              	.LBB2:
  50              		.loc 2 16 0
  51 000d 488B45E8 		movq	-24(%rbp), %rax
  52 0011 4883C060 		addq	$96, %rax
  53 0015 4889C7   		movq	%rax, %rdi
  54              	.LEHB0:
  55 0018 E8000000 		call	_ZNSt9basic_iosIcSt11char_traitsIcEEC2Ev
  55      00
  56              	.LEHE0:
  57 001d B9000000 		movl	$_ZTTN8UnitTest15MemoryOutStreamE+8, %ecx
  57      00
  58 0022 488B45E8 		movq	-24(%rbp), %rax
  59 0026 BA100000 		movl	$16, %edx
  59      00
  60 002b 4889CE   		movq	%rcx, %rsi
  61 002e 4889C7   		movq	%rax, %rdi
  62              	.LEHB1:
  63 0031 E8000000 		call	_ZNSt19basic_ostringstreamIcSt11char_traitsIcESaIcEEC2ESt13_Ios_Openmode
  63      00
  64              	.LEHE1:
  65              		.loc 2 16 0 is_stmt 0 discriminator 6
  66 0036 BA000000 		movl	$_ZTVN8UnitTest15MemoryOutStreamE+24, %edx
  66      00
  67 003b 488B45E8 		movq	-24(%rbp), %rax
  68 003f 488910   		movq	%rdx, (%rax)
  69 0042 BA600000 		movl	$96, %edx
  69      00
  70 0047 488B45E8 		movq	-24(%rbp), %rax
  71 004b 4801C2   		addq	%rax, %rdx
  72 004e B8000000 		movl	$_ZTVN8UnitTest15MemoryOutStreamE+64, %eax
  72      00
  73 0053 488902   		movq	%rax, (%rdx)
  74 0056 488B45E8 		movq	-24(%rbp), %rax
  75 005a 4883C058 		addq	$88, %rax
  76 005e 4889C7   		movq	%rax, %rdi
  77              	.LEHB2:
  78 0061 E8000000 		call	_ZNSsC1Ev
  78      00
  79              	.LEHE2:
  80              	.LBE2:
  81              		.loc 2 16 0
  82 0066 EB37     		jmp	.L8
  83              	.L6:
  84 0068 4889C3   		movq	%rax, %rbx
  85              	.LBB3:
  86 006b BA000000 		movl	$_ZTTN8UnitTest15MemoryOutStreamE+8, %edx
  86      00
  87 0070 488B45E8 		movq	-24(%rbp), %rax
  88 0074 4889D6   		movq	%rdx, %rsi
  89 0077 4889C7   		movq	%rax, %rdi
  90 007a E8000000 		call	_ZNSt19basic_ostringstreamIcSt11char_traitsIcESaIcEED2Ev
  90      00
  91 007f EB03     		jmp	.L5
  92              	.L7:
  93 0081 4889C3   		movq	%rax, %rbx
  94              	.L5:
  95              		.loc 2 16 0 discriminator 19
  96 0084 488B45E8 		movq	-24(%rbp), %rax
  97 0088 4883C060 		addq	$96, %rax
  98 008c 4889C7   		movq	%rax, %rdi
  99 008f E8000000 		call	_ZNSt9basic_iosIcSt11char_traitsIcEED2Ev
  99      00
 100 0094 4889D8   		movq	%rbx, %rax
 101 0097 4889C7   		movq	%rax, %rdi
 102              	.LEHB3:
 103 009a E8000000 		call	_Unwind_Resume
 103      00
 104              	.LEHE3:
 105              	.L8:
 106              	.LBE3:
 107              		.loc 2 16 0
 108 009f 4883C418 		addq	$24, %rsp
 109 00a3 5B       		popq	%rbx
 110 00a4 5D       		popq	%rbp
 111              		.cfi_def_cfa 7, 8
 112 00a5 C3       		ret
 113              		.cfi_endproc
 114              	.LFE1007:
 115              		.globl	__gxx_personality_v0
 116              		.section	.gcc_except_table._ZN8UnitTest15MemoryOutStreamC1Ev,"aG",@progbits,_ZN8UnitTest15MemoryOu
 117              	.LLSDA1007:
 118 0000 FF       		.byte	0xff
 119 0001 FF       		.byte	0xff
 120 0002 01       		.byte	0x1
 121 0003 12       		.uleb128 .LLSDACSE1007-.LLSDACSB1007
 122              	.LLSDACSB1007:
 123 0004 18       		.uleb128 .LEHB0-.LFB1007
 124 0005 05       		.uleb128 .LEHE0-.LEHB0
 125 0006 00       		.uleb128 0
 126 0007 00       		.uleb128 0
 127 0008 31       		.uleb128 .LEHB1-.LFB1007
 128 0009 05       		.uleb128 .LEHE1-.LEHB1
 129 000a 8101     		.uleb128 .L7-.LFB1007
 130 000c 00       		.uleb128 0
 131 000d 61       		.uleb128 .LEHB2-.LFB1007
 132 000e 05       		.uleb128 .LEHE2-.LEHB2
 133 000f 68       		.uleb128 .L6-.LFB1007
 134 0010 00       		.uleb128 0
 135 0011 9A01     		.uleb128 .LEHB3-.LFB1007
 136 0013 05       		.uleb128 .LEHE3-.LEHB3
 137 0014 00       		.uleb128 0
 138 0015 00       		.uleb128 0
 139              	.LLSDACSE1007:
 140              		.section	.text._ZN8UnitTest15MemoryOutStreamC1Ev,"axG",@progbits,_ZN8UnitTest15MemoryOutStreamC1Ev
 142              		.section	.rodata
 143              	.LC1:
 144 000d 74657374 		.string	"testI2C.cpp"
 144      4932432E 
 144      63707000 
 145              	.LC2:
 146 0019 4932435F 		.string	"I2C_testInitialise"
 146      74657374 
 146      496E6974 
 146      69616C69 
 146      736500
 147              		.section	.text._ZN22TestI2C_testInitialiseC2Ev,"axG",@progbits,_ZN22TestI2C_testInitialiseC5Ev,com
 148              		.align 2
 149              		.weak	_ZN22TestI2C_testInitialiseC2Ev
 151              	_ZN22TestI2C_testInitialiseC2Ev:
 152              	.LFB1024:
 153              		.file 3 "testI2C.cpp"
   1:testI2C.cpp   **** /*
   2:testI2C.cpp   ****  * Copyright (C) 2009-2012 Chris McClelland
   3:testI2C.cpp   ****  *
   4:testI2C.cpp   ****  * This program is free software: you can redistribute it and/or modify
   5:testI2C.cpp   ****  * it under the terms of the GNU Lesser General Public License as published by
   6:testI2C.cpp   ****  * the Free Software Foundation, either version 3 of the License, or
   7:testI2C.cpp   ****  * (at your option) any later version.
   8:testI2C.cpp   ****  *
   9:testI2C.cpp   ****  * This program is distributed in the hope that it will be useful,
  10:testI2C.cpp   ****  * but WITHOUT ANY WARRANTY; without even the implied warranty of
  11:testI2C.cpp   ****  * MERCHANTABILITY or FITNESS FOR A PARTICULAR PURPOSE.  See the
  12:testI2C.cpp   ****  * GNU Lesser General Public License for more details.
  13:testI2C.cpp   ****  *
  14:testI2C.cpp   ****  * You should have received a copy of the GNU Lesser General Public License
  15:testI2C.cpp   ****  * along with this program.  If not, see <http://www.gnu.org/licenses/>.
  16:testI2C.cpp   ****  */
  17:testI2C.cpp   **** #include <string.h>
  18:testI2C.cpp   **** #include <UnitTest++.h>
  19:testI2C.cpp   **** #include <makestuff.h>
  20:testI2C.cpp   **** #include <libbuffer.h>
  21:testI2C.cpp   **** #include "../libfx2loader.h"
  22:testI2C.cpp   **** #include "../libfx2loader.h"
  23:testI2C.cpp   **** 
  24:testI2C.cpp   **** #define VID 0x04b4
  25:testI2C.cpp   **** #define PID 0x8613
  26:testI2C.cpp   **** #define DID 0x0000
  27:testI2C.cpp   **** 
  28:testI2C.cpp   **** #define LSB(x) (x & 0xFF)
  29:testI2C.cpp   **** #define MSB(x) (x >> 8)
  30:testI2C.cpp   **** 
  31:testI2C.cpp   **** TEST(I2C_testInitialise) {
 154              		.loc 3 31 0 is_stmt 1
 155              		.cfi_startproc
 156 0000 55       		pushq	%rbp
 157              		.cfi_def_cfa_offset 16
 158              		.cfi_offset 6, -16
 159 0001 4889E5   		movq	%rsp, %rbp
 160              		.cfi_def_cfa_register 6
 161 0004 4883EC10 		subq	$16, %rsp
 162 0008 48897DF8 		movq	%rdi, -8(%rbp)
 163              	.LBB4:
 164              		.loc 3 31 0
 165 000c E8000000 		call	_ZN13UnitTestSuite12GetSuiteNameEv
 165      00
 166 0011 4889C2   		movq	%rax, %rdx
 167 0014 488B45F8 		movq	-8(%rbp), %rax
 168 0018 41B81F00 		movl	$31, %r8d
 168      0000
 169 001e B9000000 		movl	$.LC1, %ecx
 169      00
 170 0023 BE000000 		movl	$.LC2, %esi
 170      00
 171 0028 4889C7   		movq	%rax, %rdi
 172 002b E8000000 		call	_ZN8UnitTest4TestC2EPKcS2_S2_i
 172      00
 173 0030 488B45F8 		movq	-8(%rbp), %rax
 174 0034 48C70000 		movq	$_ZTV22TestI2C_testInitialise+16, (%rax)
 174      000000
 175              	.LBE4:
 176 003b C9       		leave
 177              		.cfi_def_cfa 7, 8
 178 003c C3       		ret
 179              		.cfi_endproc
 180              	.LFE1024:
 182              		.weak	_ZN22TestI2C_testInitialiseC1Ev
 183              		.set	_ZN22TestI2C_testInitialiseC1Ev,_ZN22TestI2C_testInitialiseC2Ev
 184              		.globl	testI2C_testInitialiseInstance
 185              		.bss
 186              		.align 32
 189              	testI2C_testInitialiseInstance:
 190 0000 00000000 		.zero	56
 190      00000000 
 190      00000000 
 190      00000000 
 190      00000000 
 191              		.globl	adderI2C_testInitialise
 194              	adderI2C_testInitialise:
 195 0038 00       		.zero	1
 196              		.section	.rodata
 197 002c 00000000 		.align 8
 198              	.LC3:
 199 0030 556E6861 		.string	"Unhandled exception in CHECK_EQUAL(BUF_SUCCESS, bStatus)"
 199      6E646C65 
 199      64206578 
 199      63657074 
 199      696F6E20 
 200 0069 00000000 		.align 8
 200      000000
 201              	.LC4:
 202 0070 556E6861 		.string	"Unhandled exception in CHECK_EQUAL(I2C_SUCCESS, iStatus)"
 202      6E646C65 
 202      64206578 
 202      63657074 
 202      696F6E20 
 203 00a9 00000000 		.align 8
 203      000000
 204              	.LC5:
 205 00b0 556E6861 		.string	"Unhandled exception in CHECK_EQUAL(8UL+5UL, i2cBuffer.length)"
 205      6E646C65 
 205      64206578 
 205      63657074 
 205      696F6E20 
 206 00ee 0000     		.align 8
 207              	.LC6:
 208 00f0 556E6861 		.string	"Unhandled exception in CHECK_EQUAL(1024UL, i2cBuffer.capacity)"
 208      6E646C65 
 208      64206578 
 208      63657074 
 208      696F6E20 
 209 012f 00       		.align 8
 210              	.LC7:
 211 0130 556E6861 		.string	"Unhandled exception in CHECK_ARRAY_EQUAL(expected, i2cBuffer.data)"
 211      6E646C65 
 211      64206578 
 211      63657074 
 211      696F6E20 
 212              		.text
 213              		.align 2
 214              		.globl	_ZNK22TestI2C_testInitialise7RunImplEv
 216              	_ZNK22TestI2C_testInitialise7RunImplEv:
 217              	.LFB1026:
 218              		.loc 3 31 0
 219              		.cfi_startproc
 220              		.cfi_personality 0x3,__gxx_personality_v0
 221              		.cfi_lsda 0x3,.LLSDA1026
 222 0000 55       		pushq	%rbp
 223              		.cfi_def_cfa_offset 16
 224              		.cfi_offset 6, -16
 225 0001 4889E5   		movq	%rsp, %rbp
 226              		.cfi_def_cfa_register 6
 227 0004 53       		pushq	%rbx
 228 0005 4881EC88 		subq	$136, %rsp
 228      000000
 229              		.cfi_offset 3, -24
 230 000c 4889BD78 		movq	%rdi, -136(%rbp)
 230      FFFFFF
 231              		.loc 3 31 0
 232 0013 64488B04 		movq	%fs:40, %rax
 232      25280000 
 232      00
 233 001c 488945E8 		movq	%rax, -24(%rbp)
 234 0020 31C0     		xorl	%eax, %eax
 235              	.LBB5:
  32:testI2C.cpp   **** 	Buffer i2cBuffer;
  33:testI2C.cpp   **** 	I2CStatus iStatus;
  34:testI2C.cpp   **** 	BufferStatus bStatus;
  35:testI2C.cpp   **** 	const uint8 expected[] = {0xC2, LSB(VID), MSB(VID), LSB(PID), MSB(PID), LSB(DID), MSB(DID), CONFIG
 236              		.loc 3 35 0
 237 0022 C645D0C2 		movb	$-62, -48(%rbp)
 238 0026 C645D1B4 		movb	$-76, -47(%rbp)
 239 002a C645D204 		movb	$4, -46(%rbp)
 240 002e C645D313 		movb	$19, -45(%rbp)
 241 0032 C645D486 		movb	$-122, -44(%rbp)
 242 0036 C645D500 		movb	$0, -43(%rbp)
 243 003a C645D600 		movb	$0, -42(%rbp)
 244 003e C645D701 		movb	$1, -41(%rbp)
 245 0042 C645D880 		movb	$-128, -40(%rbp)
 246 0046 C645D901 		movb	$1, -39(%rbp)
 247 004a C645DAE6 		movb	$-26, -38(%rbp)
 248 004e C645DB00 		movb	$0, -37(%rbp)
 249 0052 C645DC00 		movb	$0, -36(%rbp)
  36:testI2C.cpp   **** 	bStatus = bufInitialise(&i2cBuffer, 1024, 0x00, NULL);
 250              		.loc 3 36 0
 251 0056 488D4590 		leaq	-112(%rbp), %rax
 252 005a B9000000 		movl	$0, %ecx
 252      00
 253 005f BA000000 		movl	$0, %edx
 253      00
 254 0064 BE000400 		movl	$1024, %esi
 254      00
 255 0069 4889C7   		movq	%rax, %rdi
 256              	.LEHB4:
 257 006c E8000000 		call	bufInitialise
 257      00
 258              	.LEHE4:
 259 0071 894584   		movl	%eax, -124(%rbp)
 260              	.LEHB5:
  37:testI2C.cpp   **** 	CHECK_EQUAL(BUF_SUCCESS, bStatus);
 261              		.loc 3 37 0
 262 0074 E8000000 		call	_ZN8UnitTest11CurrentTest7DetailsEv
 262      00
 263 0079 488B08   		movq	(%rax), %rcx
 264 007c 488D45B0 		leaq	-80(%rbp), %rax
 265 0080 BA250000 		movl	$37, %edx
 265      00
 266 0085 4889CE   		movq	%rcx, %rsi
 267 0088 4889C7   		movq	%rax, %rdi
 268 008b E8000000 		call	_ZN8UnitTest11TestDetailsC1ERKS0_i
 268      00
 269              		.loc 3 37 0 is_stmt 0 discriminator 1
 270 0090 C7458800 		movl	$0, -120(%rbp)
 270      000000
 271 0097 E8000000 		call	_ZN8UnitTest11CurrentTest7ResultsEv
 271      00
 272 009c 488B00   		movq	(%rax), %rax
 273 009f 488D4DB0 		leaq	-80(%rbp), %rcx
 274 00a3 488D5584 		leaq	-124(%rbp), %rdx
 275 00a7 488D7588 		leaq	-120(%rbp), %rsi
 276 00ab 4889C7   		movq	%rax, %rdi
 277 00ae E8000000 		call	_ZN8UnitTest10CheckEqualI12BufferStatusS1_EEvRNS_11TestResultsERKT_RKT0_RKNS_11TestDetailsE
 277      00
 278              	.LEHE5:
 279              	.L13:
  38:testI2C.cpp   **** 	i2cInitialise(&i2cBuffer, VID, PID, DID, CONFIG_BYTE_400KHZ);
 280              		.loc 3 38 0 is_stmt 1
 281 00b3 488D4590 		leaq	-112(%rbp), %rax
 282 00b7 41B80100 		movl	$1, %r8d
 282      0000
 283 00bd B9000000 		movl	$0, %ecx
 283      00
 284 00c2 BA138600 		movl	$34323, %edx
 284      00
 285 00c7 BEB40400 		movl	$1204, %esi
 285      00
 286 00cc 4889C7   		movq	%rax, %rdi
 287              	.LEHB6:
 288 00cf E8000000 		call	i2cInitialise
 288      00
  39:testI2C.cpp   **** 	iStatus = i2cFinalise(&i2cBuffer, NULL);
 289              		.loc 3 39 0
 290 00d4 488D4590 		leaq	-112(%rbp), %rax
 291 00d8 BE000000 		movl	$0, %esi
 291      00
 292 00dd 4889C7   		movq	%rax, %rdi
 293 00e0 E8000000 		call	i2cFinalise
 293      00
 294              	.LEHE6:
 295 00e5 894580   		movl	%eax, -128(%rbp)
 296              	.LEHB7:
  40:testI2C.cpp   **** 	CHECK_EQUAL(I2C_SUCCESS, iStatus);
 297              		.loc 3 40 0
 298 00e8 E8000000 		call	_ZN8UnitTest11CurrentTest7DetailsEv
 298      00
 299 00ed 488B08   		movq	(%rax), %rcx
 300 00f0 488D45B0 		leaq	-80(%rbp), %rax
 301 00f4 BA280000 		movl	$40, %edx
 301      00
 302 00f9 4889CE   		movq	%rcx, %rsi
 303 00fc 4889C7   		movq	%rax, %rdi
 304 00ff E8000000 		call	_ZN8UnitTest11TestDetailsC1ERKS0_i
 304      00
 305              		.loc 3 40 0 is_stmt 0 discriminator 1
 306 0104 C7458800 		movl	$0, -120(%rbp)
 306      000000
 307 010b E8000000 		call	_ZN8UnitTest11CurrentTest7ResultsEv
 307      00
 308 0110 488B00   		movq	(%rax), %rax
 309 0113 488D4DB0 		leaq	-80(%rbp), %rcx
 310 0117 488D5580 		leaq	-128(%rbp), %rdx
 311 011b 488D7588 		leaq	-120(%rbp), %rsi
 312 011f 4889C7   		movq	%rax, %rdi
 313 0122 E8000000 		call	_ZN8UnitTest10CheckEqualI9I2CStatusS1_EEvRNS_11TestResultsERKT_RKT0_RKNS_11TestDetailsE
 313      00
 314              	.LEHE7:
 315              	.L16:
 316              	.LEHB8:
  41:testI2C.cpp   **** 	CHECK_EQUAL(8UL+5UL, i2cBuffer.length);
 317              		.loc 3 41 0 is_stmt 1
 318 0127 E8000000 		call	_ZN8UnitTest11CurrentTest7DetailsEv
 318      00
 319 012c 488B08   		movq	(%rax), %rcx
 320 012f 488D45B0 		leaq	-80(%rbp), %rax
 321 0133 BA290000 		movl	$41, %edx
 321      00
 322 0138 4889CE   		movq	%rcx, %rsi
 323 013b 4889C7   		movq	%rax, %rdi
 324 013e E8000000 		call	_ZN8UnitTest11TestDetailsC1ERKS0_i
 324      00
 325              		.loc 3 41 0 is_stmt 0 discriminator 1
 326 0143 48C74588 		movq	$13, -120(%rbp)
 326      0D000000 
 327 014b E8000000 		call	_ZN8UnitTest11CurrentTest7ResultsEv
 327      00
 328 0150 488B00   		movq	(%rax), %rax
 329 0153 488D55B0 		leaq	-80(%rbp), %rdx
 330 0157 488D4D90 		leaq	-112(%rbp), %rcx
 331 015b 488D7908 		leaq	8(%rcx), %rdi
 332 015f 488D7588 		leaq	-120(%rbp), %rsi
 333 0163 4889D1   		movq	%rdx, %rcx
 334 0166 4889FA   		movq	%rdi, %rdx
 335 0169 4889C7   		movq	%rax, %rdi
 336 016c E8000000 		call	_ZN8UnitTest10CheckEqualImmEEvRNS_11TestResultsERKT_RKT0_RKNS_11TestDetailsE
 336      00
 337              	.LEHE8:
 338              	.L19:
 339              	.LEHB9:
  42:testI2C.cpp   **** 	CHECK_EQUAL(1024UL, i2cBuffer.capacity);
 340              		.loc 3 42 0 is_stmt 1
 341 0171 E8000000 		call	_ZN8UnitTest11CurrentTest7DetailsEv
 341      00
 342 0176 488B08   		movq	(%rax), %rcx
 343 0179 488D45B0 		leaq	-80(%rbp), %rax
 344 017d BA2A0000 		movl	$42, %edx
 344      00
 345 0182 4889CE   		movq	%rcx, %rsi
 346 0185 4889C7   		movq	%rax, %rdi
 347 0188 E8000000 		call	_ZN8UnitTest11TestDetailsC1ERKS0_i
 347      00
 348              		.loc 3 42 0 is_stmt 0 discriminator 1
 349 018d 48C74588 		movq	$1024, -120(%rbp)
 349      00040000 
 350 0195 E8000000 		call	_ZN8UnitTest11CurrentTest7ResultsEv
 350      00
 351 019a 488B00   		movq	(%rax), %rax
 352 019d 488D55B0 		leaq	-80(%rbp), %rdx
 353 01a1 488D4D90 		leaq	-112(%rbp), %rcx
 354 01a5 488D7910 		leaq	16(%rcx), %rdi
 355 01a9 488D7588 		leaq	-120(%rbp), %rsi
 356 01ad 4889D1   		movq	%rdx, %rcx
 357 01b0 4889FA   		movq	%rdi, %rdx
 358 01b3 4889C7   		movq	%rax, %rdi
 359 01b6 E8000000 		call	_ZN8UnitTest10CheckEqualImmEEvRNS_11TestResultsERKT_RKT0_RKNS_11TestDetailsE
 359      00
 360              	.LEHE9:
 361              	.L22:
 362              	.LEHB10:
  43:testI2C.cpp   **** 	CHECK_ARRAY_EQUAL(expected, i2cBuffer.data, 8+5);
 363              		.loc 3 43 0 is_stmt 1
 364 01bb E8000000 		call	_ZN8UnitTest11CurrentTest7DetailsEv
 364      00
 365 01c0 488B08   		movq	(%rax), %rcx
 366 01c3 488D45B0 		leaq	-80(%rbp), %rax
 367 01c7 BA2B0000 		movl	$43, %edx
 367      00
 368 01cc 4889CE   		movq	%rcx, %rsi
 369 01cf 4889C7   		movq	%rax, %rdi
 370 01d2 E8000000 		call	_ZN8UnitTest11TestDetailsC1ERKS0_i
 370      00
 371              		.loc 3 43 0 is_stmt 0 discriminator 1
 372 01d7 E8000000 		call	_ZN8UnitTest11CurrentTest7ResultsEv
 372      00
 373 01dc 488B00   		movq	(%rax), %rax
 374 01df 488D4DB0 		leaq	-80(%rbp), %rcx
 375 01e3 488D5590 		leaq	-112(%rbp), %rdx
 376 01e7 488D75D0 		leaq	-48(%rbp), %rsi
 377 01eb 4989C8   		movq	%rcx, %r8
 378 01ee B90D0000 		movl	$13, %ecx
 378      00
 379 01f3 4889C7   		movq	%rax, %rdi
 380 01f6 E8000000 		call	_ZN8UnitTest15CheckArrayEqualIA13_hPhEEvRNS_11TestResultsERKT_RKT0_iRKNS_11TestDetailsE
 380      00
 381              	.LEHE10:
 382              	.L25:
  44:testI2C.cpp   **** 	bufDestroy(&i2cBuffer);
 383              		.loc 3 44 0 is_stmt 1
 384 01fb 488D4590 		leaq	-112(%rbp), %rax
 385 01ff 4889C7   		movq	%rax, %rdi
 386              	.LEHB11:
 387 0202 E8000000 		call	bufDestroy
 387      00
 388              	.LEHE11:
 389              	.LBE5:
  45:testI2C.cpp   **** }
 390              		.loc 3 45 0
 391 0207 488B45E8 		movq	-24(%rbp), %rax
 392 020b 64483304 		xorq	%fs:40, %rax
 392      25280000 
 392      00
 393 0214 0F84DB01 		je	.L26
 393      0000
 394 021a E9D10100 		jmp	.L37
 394      00
 395              	.L28:
 396 021f 4889C3   		movq	%rax, %rbx
 397              	.LBB6:
  37:testI2C.cpp   **** 	i2cInitialise(&i2cBuffer, VID, PID, DID, CONFIG_BYTE_400KHZ);
 398              		.loc 3 37 0
 399 0222 E8000000 		call	__cxa_end_catch
 399      00
 400 0227 4889D8   		movq	%rbx, %rax
 401 022a 4889C7   		movq	%rax, %rdi
 402              	.LEHB12:
 403 022d E8000000 		call	_Unwind_Resume
 403      00
 404              	.LEHE12:
 405              	.L27:
 406 0232 4889C7   		movq	%rax, %rdi
 407 0235 E8000000 		call	__cxa_begin_catch
 407      00
 408              	.LEHB13:
 409 023a E8000000 		call	_ZN8UnitTest11CurrentTest7DetailsEv
 409      00
 410 023f 488B08   		movq	(%rax), %rcx
 411 0242 488D45B0 		leaq	-80(%rbp), %rax
 412 0246 BA250000 		movl	$37, %edx
 412      00
 413 024b 4889CE   		movq	%rcx, %rsi
 414 024e 4889C7   		movq	%rax, %rdi
 415 0251 E8000000 		call	_ZN8UnitTest11TestDetailsC1ERKS0_i
 415      00
  37:testI2C.cpp   **** 	i2cInitialise(&i2cBuffer, VID, PID, DID, CONFIG_BYTE_400KHZ);
 416              		.loc 3 37 0 is_stmt 0 discriminator 1
 417 0256 E8000000 		call	_ZN8UnitTest11CurrentTest7ResultsEv
 417      00
 418 025b 488B00   		movq	(%rax), %rax
 419 025e 488D4DB0 		leaq	-80(%rbp), %rcx
 420 0262 BA000000 		movl	$.LC3, %edx
 420      00
 421 0267 4889CE   		movq	%rcx, %rsi
 422 026a 4889C7   		movq	%rax, %rdi
 423 026d E8000000 		call	_ZN8UnitTest11TestResults13OnTestFailureERKNS_11TestDetailsEPKc
 423      00
 424              	.LEHE13:
 425              	.LEHB14:
 426 0272 E8000000 		call	__cxa_end_catch
 426      00
 427              	.LEHE14:
 428 0277 E937FEFF 		jmp	.L13
 428      FF
 429              	.L30:
 430 027c 4889C3   		movq	%rax, %rbx
  40:testI2C.cpp   **** 	CHECK_EQUAL(8UL+5UL, i2cBuffer.length);
 431              		.loc 3 40 0 is_stmt 1
 432 027f E8000000 		call	__cxa_end_catch
 432      00
 433 0284 4889D8   		movq	%rbx, %rax
 434 0287 4889C7   		movq	%rax, %rdi
 435              	.LEHB15:
 436 028a E8000000 		call	_Unwind_Resume
 436      00
 437              	.LEHE15:
 438              	.L29:
 439 028f 4889C7   		movq	%rax, %rdi
 440 0292 E8000000 		call	__cxa_begin_catch
 440      00
 441              	.LEHB16:
 442 0297 E8000000 		call	_ZN8UnitTest11CurrentTest7DetailsEv
 442      00
 443 029c 488B08   		movq	(%rax), %rcx
 444 029f 488D45B0 		leaq	-80(%rbp), %rax
 445 02a3 BA280000 		movl	$40, %edx
 445      00
 446 02a8 4889CE   		movq	%rcx, %rsi
 447 02ab 4889C7   		movq	%rax, %rdi
 448 02ae E8000000 		call	_ZN8UnitTest11TestDetailsC1ERKS0_i
 448      00
  40:testI2C.cpp   **** 	CHECK_EQUAL(8UL+5UL, i2cBuffer.length);
 449              		.loc 3 40 0 is_stmt 0 discriminator 1
 450 02b3 E8000000 		call	_ZN8UnitTest11CurrentTest7ResultsEv
 450      00
 451 02b8 488B00   		movq	(%rax), %rax
 452 02bb 488D4DB0 		leaq	-80(%rbp), %rcx
 453 02bf BA000000 		movl	$.LC4, %edx
 453      00
 454 02c4 4889CE   		movq	%rcx, %rsi
 455 02c7 4889C7   		movq	%rax, %rdi
 456 02ca E8000000 		call	_ZN8UnitTest11TestResults13OnTestFailureERKNS_11TestDetailsEPKc
 456      00
 457              	.LEHE16:
 458              	.LEHB17:
 459 02cf E8000000 		call	__cxa_end_catch
 459      00
 460              	.LEHE17:
 461 02d4 E94EFEFF 		jmp	.L16
 461      FF
 462              	.L32:
 463 02d9 4889C3   		movq	%rax, %rbx
  41:testI2C.cpp   **** 	CHECK_EQUAL(1024UL, i2cBuffer.capacity);
 464              		.loc 3 41 0 is_stmt 1
 465 02dc E8000000 		call	__cxa_end_catch
 465      00
 466 02e1 4889D8   		movq	%rbx, %rax
 467 02e4 4889C7   		movq	%rax, %rdi
 468              	.LEHB18:
 469 02e7 E8000000 		call	_Unwind_Resume
 469      00
 470              	.LEHE18:
 471              	.L31:
 472 02ec 4889C7   		movq	%rax, %rdi
 473 02ef E8000000 		call	__cxa_begin_catch
 473      00
 474              	.LEHB19:
 475 02f4 E8000000 		call	_ZN8UnitTest11CurrentTest7DetailsEv
 475      00
 476 02f9 488B08   		movq	(%rax), %rcx
 477 02fc 488D45B0 		leaq	-80(%rbp), %rax
 478 0300 BA290000 		movl	$41, %edx
 478      00
 479 0305 4889CE   		movq	%rcx, %rsi
 480 0308 4889C7   		movq	%rax, %rdi
 481 030b E8000000 		call	_ZN8UnitTest11TestDetailsC1ERKS0_i
 481      00
  41:testI2C.cpp   **** 	CHECK_EQUAL(1024UL, i2cBuffer.capacity);
 482              		.loc 3 41 0 is_stmt 0 discriminator 1
 483 0310 E8000000 		call	_ZN8UnitTest11CurrentTest7ResultsEv
 483      00
 484 0315 488B00   		movq	(%rax), %rax
 485 0318 488D4DB0 		leaq	-80(%rbp), %rcx
 486 031c BA000000 		movl	$.LC5, %edx
 486      00
 487 0321 4889CE   		movq	%rcx, %rsi
 488 0324 4889C7   		movq	%rax, %rdi
 489 0327 E8000000 		call	_ZN8UnitTest11TestResults13OnTestFailureERKNS_11TestDetailsEPKc
 489      00
 490              	.LEHE19:
 491              	.LEHB20:
 492 032c E8000000 		call	__cxa_end_catch
 492      00
 493              	.LEHE20:
 494 0331 E93BFEFF 		jmp	.L19
 494      FF
 495              	.L34:
 496 0336 4889C3   		movq	%rax, %rbx
  42:testI2C.cpp   **** 	CHECK_ARRAY_EQUAL(expected, i2cBuffer.data, 8+5);
 497              		.loc 3 42 0 is_stmt 1
 498 0339 E8000000 		call	__cxa_end_catch
 498      00
 499 033e 4889D8   		movq	%rbx, %rax
 500 0341 4889C7   		movq	%rax, %rdi
 501              	.LEHB21:
 502 0344 E8000000 		call	_Unwind_Resume
 502      00
 503              	.LEHE21:
 504              	.L33:
 505 0349 4889C7   		movq	%rax, %rdi
 506 034c E8000000 		call	__cxa_begin_catch
 506      00
 507              	.LEHB22:
 508 0351 E8000000 		call	_ZN8UnitTest11CurrentTest7DetailsEv
 508      00
 509 0356 488B08   		movq	(%rax), %rcx
 510 0359 488D45B0 		leaq	-80(%rbp), %rax
 511 035d BA2A0000 		movl	$42, %edx
 511      00
 512 0362 4889CE   		movq	%rcx, %rsi
 513 0365 4889C7   		movq	%rax, %rdi
 514 0368 E8000000 		call	_ZN8UnitTest11TestDetailsC1ERKS0_i
 514      00
  42:testI2C.cpp   **** 	CHECK_ARRAY_EQUAL(expected, i2cBuffer.data, 8+5);
 515              		.loc 3 42 0 is_stmt 0 discriminator 1
 516 036d E8000000 		call	_ZN8UnitTest11CurrentTest7ResultsEv
 516      00
 517 0372 488B00   		movq	(%rax), %rax
 518 0375 488D4DB0 		leaq	-80(%rbp), %rcx
 519 0379 BA000000 		movl	$.LC6, %edx
 519      00
 520 037e 4889CE   		movq	%rcx, %rsi
 521 0381 4889C7   		movq	%rax, %rdi
 522 0384 E8000000 		call	_ZN8UnitTest11TestResults13OnTestFailureERKNS_11TestDetailsEPKc
 522      00
 523              	.LEHE22:
 524              	.LEHB23:
 525 0389 E8000000 		call	__cxa_end_catch
 525      00
 526              	.LEHE23:
 527 038e E928FEFF 		jmp	.L22
 527      FF
 528              	.L36:
 529 0393 4889C3   		movq	%rax, %rbx
  43:testI2C.cpp   **** 	bufDestroy(&i2cBuffer);
 530              		.loc 3 43 0 is_stmt 1
 531 0396 E8000000 		call	__cxa_end_catch
 531      00
 532 039b 4889D8   		movq	%rbx, %rax
 533 039e 4889C7   		movq	%rax, %rdi
 534              	.LEHB24:
 535 03a1 E8000000 		call	_Unwind_Resume
 535      00
 536              	.LEHE24:
 537              	.L35:
 538 03a6 4889C7   		movq	%rax, %rdi
 539 03a9 E8000000 		call	__cxa_begin_catch
 539      00
 540              	.LEHB25:
 541 03ae E8000000 		call	_ZN8UnitTest11CurrentTest7DetailsEv
 541      00
 542 03b3 488B08   		movq	(%rax), %rcx
 543 03b6 488D45B0 		leaq	-80(%rbp), %rax
 544 03ba BA2B0000 		movl	$43, %edx
 544      00
 545 03bf 4889CE   		movq	%rcx, %rsi
 546 03c2 4889C7   		movq	%rax, %rdi
 547 03c5 E8000000 		call	_ZN8UnitTest11TestDetailsC1ERKS0_i
 547      00
  43:testI2C.cpp   **** 	bufDestroy(&i2cBuffer);
 548              		.loc 3 43 0 is_stmt 0 discriminator 1
 549 03ca E8000000 		call	_ZN8UnitTest11CurrentTest7ResultsEv
 549      00
 550 03cf 488B00   		movq	(%rax), %rax
 551 03d2 488D4DB0 		leaq	-80(%rbp), %rcx
 552 03d6 BA000000 		movl	$.LC7, %edx
 552      00
 553 03db 4889CE   		movq	%rcx, %rsi
 554 03de 4889C7   		movq	%rax, %rdi
 555 03e1 E8000000 		call	_ZN8UnitTest11TestResults13OnTestFailureERKNS_11TestDetailsEPKc
 555      00
 556              	.LEHE25:
 557              	.LEHB26:
 558 03e6 E8000000 		call	__cxa_end_catch
 558      00
 559              	.LEHE26:
 560 03eb E90BFEFF 		jmp	.L25
 560      FF
 561              	.L37:
 562              	.LBE6:
 563              		.loc 3 45 0 is_stmt 1
 564 03f0 E8000000 		call	__stack_chk_fail
 564      00
 565              	.L26:
 566 03f5 4881C488 		addq	$136, %rsp
 566      000000
 567 03fc 5B       		popq	%rbx
 568 03fd 5D       		popq	%rbp
 569              		.cfi_def_cfa 7, 8
 570 03fe C3       		ret
 571              		.cfi_endproc
 572              	.LFE1026:
 573              		.section	.gcc_except_table,"a",@progbits
 574              		.align 4
 575              	.LLSDA1026:
 576 0000 FF       		.byte	0xff
 577 0001 03       		.byte	0x3
 578 0002 8401     		.uleb128 .LLSDATT1026-.LLSDATTD1026
 579              	.LLSDATTD1026:
 580 0004 01       		.byte	0x1
 581 0005 7B       		.uleb128 .LLSDACSE1026-.LLSDACSB1026
 582              	.LLSDACSB1026:
 583 0006 6C       		.uleb128 .LEHB4-.LFB1026
 584 0007 05       		.uleb128 .LEHE4-.LEHB4
 585 0008 00       		.uleb128 0
 586 0009 00       		.uleb128 0
 587 000a 74       		.uleb128 .LEHB5-.LFB1026
 588 000b 3F       		.uleb128 .LEHE5-.LEHB5
 589 000c B204     		.uleb128 .L27-.LFB1026
 590 000e 01       		.uleb128 0x1
 591 000f CF01     		.uleb128 .LEHB6-.LFB1026
 592 0011 16       		.uleb128 .LEHE6-.LEHB6
 593 0012 00       		.uleb128 0
 594 0013 00       		.uleb128 0
 595 0014 E801     		.uleb128 .LEHB7-.LFB1026
 596 0016 3F       		.uleb128 .LEHE7-.LEHB7
 597 0017 8F05     		.uleb128 .L29-.LFB1026
 598 0019 01       		.uleb128 0x1
 599 001a A702     		.uleb128 .LEHB8-.LFB1026
 600 001c 4A       		.uleb128 .LEHE8-.LEHB8
 601 001d EC05     		.uleb128 .L31-.LFB1026
 602 001f 01       		.uleb128 0x1
 603 0020 F102     		.uleb128 .LEHB9-.LFB1026
 604 0022 4A       		.uleb128 .LEHE9-.LEHB9
 605 0023 C906     		.uleb128 .L33-.LFB1026
 606 0025 01       		.uleb128 0x1
 607 0026 BB03     		.uleb128 .LEHB10-.LFB1026
 608 0028 40       		.uleb128 .LEHE10-.LEHB10
 609 0029 A607     		.uleb128 .L35-.LFB1026
 610 002b 01       		.uleb128 0x1
 611 002c 8204     		.uleb128 .LEHB11-.LFB1026
 612 002e 05       		.uleb128 .LEHE11-.LEHB11
 613 002f 00       		.uleb128 0
 614 0030 00       		.uleb128 0
 615 0031 AD04     		.uleb128 .LEHB12-.LFB1026
 616 0033 05       		.uleb128 .LEHE12-.LEHB12
 617 0034 00       		.uleb128 0
 618 0035 00       		.uleb128 0
 619 0036 BA04     		.uleb128 .LEHB13-.LFB1026
 620 0038 38       		.uleb128 .LEHE13-.LEHB13
 621 0039 9F04     		.uleb128 .L28-.LFB1026
 622 003b 00       		.uleb128 0
 623 003c F204     		.uleb128 .LEHB14-.LFB1026
 624 003e 05       		.uleb128 .LEHE14-.LEHB14
 625 003f 00       		.uleb128 0
 626 0040 00       		.uleb128 0
 627 0041 8A05     		.uleb128 .LEHB15-.LFB1026
 628 0043 05       		.uleb128 .LEHE15-.LEHB15
 629 0044 00       		.uleb128 0
 630 0045 00       		.uleb128 0
 631 0046 9705     		.uleb128 .LEHB16-.LFB1026
 632 0048 38       		.uleb128 .LEHE16-.LEHB16
 633 0049 FC04     		.uleb128 .L30-.LFB1026
 634 004b 00       		.uleb128 0
 635 004c CF05     		.uleb128 .LEHB17-.LFB1026
 636 004e 05       		.uleb128 .LEHE17-.LEHB17
 637 004f 00       		.uleb128 0
 638 0050 00       		.uleb128 0
 639 0051 E705     		.uleb128 .LEHB18-.LFB1026
 640 0053 05       		.uleb128 .LEHE18-.LEHB18
 641 0054 00       		.uleb128 0
 642 0055 00       		.uleb128 0
 643 0056 F405     		.uleb128 .LEHB19-.LFB1026
 644 0058 38       		.uleb128 .LEHE19-.LEHB19
 645 0059 D905     		.uleb128 .L32-.LFB1026
 646 005b 00       		.uleb128 0
 647 005c AC06     		.uleb128 .LEHB20-.LFB1026
 648 005e 05       		.uleb128 .LEHE20-.LEHB20
 649 005f 00       		.uleb128 0
 650 0060 00       		.uleb128 0
 651 0061 C406     		.uleb128 .LEHB21-.LFB1026
 652 0063 05       		.uleb128 .LEHE21-.LEHB21
 653 0064 00       		.uleb128 0
 654 0065 00       		.uleb128 0
 655 0066 D106     		.uleb128 .LEHB22-.LFB1026
 656 0068 38       		.uleb128 .LEHE22-.LEHB22
 657 0069 B606     		.uleb128 .L34-.LFB1026
 658 006b 00       		.uleb128 0
 659 006c 8907     		.uleb128 .LEHB23-.LFB1026
 660 006e 05       		.uleb128 .LEHE23-.LEHB23
 661 006f 00       		.uleb128 0
 662 0070 00       		.uleb128 0
 663 0071 A107     		.uleb128 .LEHB24-.LFB1026
 664 0073 05       		.uleb128 .LEHE24-.LEHB24
 665 0074 00       		.uleb128 0
 666 0075 00       		.uleb128 0
 667 0076 AE07     		.uleb128 .LEHB25-.LFB1026
 668 0078 38       		.uleb128 .LEHE25-.LEHB25
 669 0079 9307     		.uleb128 .L36-.LFB1026
 670 007b 00       		.uleb128 0
 671 007c E607     		.uleb128 .LEHB26-.LFB1026
 672 007e 05       		.uleb128 .LEHE26-.LEHB26
 673 007f 00       		.uleb128 0
 674 0080 00       		.uleb128 0
 675              	.LLSDACSE1026:
 676 0081 01       		.byte	0x1
 677 0082 00       		.byte	0
 678 0083 00       		.align 4
 679 0084 00000000 		.long	0
 680              	
 681              	.LLSDATT1026:
 682              		.text
 684              		.section	.rodata
 685              	.LC8:
 686 0173 4932435F 		.string	"I2C_testRoundTrip"
 686      74657374 
 686      526F756E 
 686      64547269 
 686      7000
 687              		.section	.text._ZN21TestI2C_testRoundTripC2Ev,"axG",@progbits,_ZN21TestI2C_testRoundTripC5Ev,comda
 688              		.align 2
 689              		.weak	_ZN21TestI2C_testRoundTripC2Ev
 691              	_ZN21TestI2C_testRoundTripC2Ev:
 692              	.LFB1028:
  46:testI2C.cpp   **** 
  47:testI2C.cpp   **** TEST(I2C_testRoundTrip) {
 693              		.loc 3 47 0
 694              		.cfi_startproc
 695 0000 55       		pushq	%rbp
 696              		.cfi_def_cfa_offset 16
 697              		.cfi_offset 6, -16
 698 0001 4889E5   		movq	%rsp, %rbp
 699              		.cfi_def_cfa_register 6
 700 0004 4883EC10 		subq	$16, %rsp
 701 0008 48897DF8 		movq	%rdi, -8(%rbp)
 702              	.LBB7:
 703              		.loc 3 47 0
 704 000c E8000000 		call	_ZN13UnitTestSuite12GetSuiteNameEv
 704      00
 705 0011 4889C2   		movq	%rax, %rdx
 706 0014 488B45F8 		movq	-8(%rbp), %rax
 707 0018 41B82F00 		movl	$47, %r8d
 707      0000
 708 001e B9000000 		movl	$.LC1, %ecx
 708      00
 709 0023 BE000000 		movl	$.LC8, %esi
 709      00
 710 0028 4889C7   		movq	%rax, %rdi
 711 002b E8000000 		call	_ZN8UnitTest4TestC2EPKcS2_S2_i
 711      00
 712 0030 488B45F8 		movq	-8(%rbp), %rax
 713 0034 48C70000 		movq	$_ZTV21TestI2C_testRoundTrip+16, (%rax)
 713      000000
 714              	.LBE7:
 715 003b C9       		leave
 716              		.cfi_def_cfa 7, 8
 717 003c C3       		ret
 718              		.cfi_endproc
 719              	.LFE1028:
 721              		.weak	_ZN21TestI2C_testRoundTripC1Ev
 722              		.set	_ZN21TestI2C_testRoundTripC1Ev,_ZN21TestI2C_testRoundTripC2Ev
 723              		.globl	testI2C_testRoundTripInstance
 724              		.bss
 725 0039 00000000 		.align 32
 725      000000
 728              	testI2C_testRoundTripInstance:
 729 0040 00000000 		.zero	56
 729      00000000 
 729      00000000 
 729      00000000 
 729      00000000 
 730              		.globl	adderI2C_testRoundTrip
 733              	adderI2C_testRoundTrip:
 734 0078 00       		.zero	1
 735              		.section	.rodata
 736 0185 000000   		.align 8
 737              	.LC9:
 738 0188 556E6861 		.string	"Unhandled exception in CHECK_ARRAY_EQUAL(expected, dstData.data)"
 738      6E646C65 
 738      64206578 
 738      63657074 
 738      696F6E20 
 739              		.text
 740 03ff 90       		.align 2
 741              		.globl	_ZNK21TestI2C_testRoundTrip7RunImplEv
 743              	_ZNK21TestI2C_testRoundTrip7RunImplEv:
 744              	.LFB1030:
 745              		.loc 3 47 0
 746              		.cfi_startproc
 747              		.cfi_personality 0x3,__gxx_personality_v0
 748              		.cfi_lsda 0x3,.LLSDA1030
 749 0400 55       		pushq	%rbp
 750              		.cfi_def_cfa_offset 16
 751              		.cfi_offset 6, -16
 752 0401 4889E5   		movq	%rsp, %rbp
 753              		.cfi_def_cfa_register 6
 754 0404 53       		pushq	%rbx
 755 0405 4881EC38 		subq	$312, %rsp
 755      010000
 756              		.cfi_offset 3, -24
 757 040c 4889BDC8 		movq	%rdi, -312(%rbp)
 757      FEFFFF
 758              		.loc 3 47 0
 759 0413 64488B04 		movq	%fs:40, %rax
 759      25280000 
 759      00
 760 041c 488945E8 		movq	%rax, -24(%rbp)
 761 0420 31C0     		xorl	%eax, %eax
 762              	.LBB8:
  48:testI2C.cpp   **** 	uint32 i, j;
  49:testI2C.cpp   **** 	Buffer i2cBuffer, srcData, srcMask, dstData, dstMask;
  50:testI2C.cpp   **** 	BufferStatus bStatus;
  51:testI2C.cpp   **** 	I2CStatus iStatus;
  52:testI2C.cpp   **** 	const uint8 data[] = {0xE1, 0xE2, 0xE3, 0xE4, 0xE5, 0xE6, 0xE7, 0xE8, 0xE9, 0xEA, 0xEB, 0xEC, 0xED
 763              		.loc 3 52 0
 764 0422 C645B0E1 		movb	$-31, -80(%rbp)
 765 0426 C645B1E2 		movb	$-30, -79(%rbp)
 766 042a C645B2E3 		movb	$-29, -78(%rbp)
 767 042e C645B3E4 		movb	$-28, -77(%rbp)
 768 0432 C645B4E5 		movb	$-27, -76(%rbp)
 769 0436 C645B5E6 		movb	$-26, -75(%rbp)
 770 043a C645B6E7 		movb	$-25, -74(%rbp)
 771 043e C645B7E8 		movb	$-24, -73(%rbp)
 772 0442 C645B8E9 		movb	$-23, -72(%rbp)
 773 0446 C645B9EA 		movb	$-22, -71(%rbp)
 774 044a C645BAEB 		movb	$-21, -70(%rbp)
 775 044e C645BBEC 		movb	$-20, -69(%rbp)
 776 0452 C645BCED 		movb	$-19, -68(%rbp)
 777 0456 C645BDEE 		movb	$-18, -67(%rbp)
 778 045a C645BEEF 		movb	$-17, -66(%rbp)
 779 045e C645BFF0 		movb	$-16, -65(%rbp)
  53:testI2C.cpp   **** 	uint8 mask[16];
  54:testI2C.cpp   **** 	uint8 expected[16];
  55:testI2C.cpp   **** 	for ( i = 0; i < 65536; i++ ) {   // all possible 16-bit mask patterns
 780              		.loc 3 55 0
 781 0462 C785E8FE 		movl	$0, -280(%rbp)
 781      FFFF0000 
 781      0000
 782 046c E9680500 		jmp	.L40
 782      00
 783              	.L45:
  56:testI2C.cpp   **** 		for ( j = 0; j < 16; j++ ) {
 784              		.loc 3 56 0
 785 0471 C785ECFE 		movl	$0, -276(%rbp)
 785      FFFF0000 
 785      0000
 786 047b EB5A     		jmp	.L41
 787              	.L44:
  57:testI2C.cpp   **** 			if ( i & (1<<j) ) {
 788              		.loc 3 57 0
 789 047d 8B85ECFE 		movl	-276(%rbp), %eax
 789      FFFF
 790 0483 BA010000 		movl	$1, %edx
 790      00
 791 0488 89C1     		movl	%eax, %ecx
 792 048a D3E2     		sall	%cl, %edx
 793 048c 89D0     		movl	%edx, %eax
 794 048e 2385E8FE 		andl	-280(%rbp), %eax
 794      FFFF
 795 0494 85C0     		testl	%eax, %eax
 796 0496 7422     		je	.L42
  58:testI2C.cpp   **** 				mask[j] = 0x01;
 797              		.loc 3 58 0
 798 0498 8B85ECFE 		movl	-276(%rbp), %eax
 798      FFFF
 799 049e C64405C0 		movb	$1, -64(%rbp,%rax)
 799      01
  59:testI2C.cpp   **** 				expected[j] = data[j];
 800              		.loc 3 59 0
 801 04a3 8B85ECFE 		movl	-276(%rbp), %eax
 801      FFFF
 802 04a9 0FB65405 		movzbl	-80(%rbp,%rax), %edx
 802      B0
 803 04ae 8B85ECFE 		movl	-276(%rbp), %eax
 803      FFFF
 804 04b4 885405D0 		movb	%dl, -48(%rbp,%rax)
 805 04b8 EB16     		jmp	.L43
 806              	.L42:
  60:testI2C.cpp   **** 			} else {
  61:testI2C.cpp   **** 				mask[j] = 0x00;
 807              		.loc 3 61 0
 808 04ba 8B85ECFE 		movl	-276(%rbp), %eax
 808      FFFF
 809 04c0 C64405C0 		movb	$0, -64(%rbp,%rax)
 809      00
  62:testI2C.cpp   **** 				expected[j] = 0x00;
 810              		.loc 3 62 0
 811 04c5 8B85ECFE 		movl	-276(%rbp), %eax
 811      FFFF
 812 04cb C64405D0 		movb	$0, -48(%rbp,%rax)
 812      00
 813              	.L43:
  56:testI2C.cpp   **** 			if ( i & (1<<j) ) {
 814              		.loc 3 56 0
 815 04d0 8385ECFE 		addl	$1, -276(%rbp)
 815      FFFF01
 816              	.L41:
  56:testI2C.cpp   **** 			if ( i & (1<<j) ) {
 817              		.loc 3 56 0 is_stmt 0 discriminator 1
 818 04d7 83BDECFE 		cmpl	$15, -276(%rbp)
 818      FFFF0F
 819 04de 769D     		jbe	.L44
  63:testI2C.cpp   **** 			}
  64:testI2C.cpp   **** 		}
  65:testI2C.cpp   **** 		bStatus = bufInitialise(&i2cBuffer, 1024, 0x00, NULL);
 820              		.loc 3 65 0 is_stmt 1
 821 04e0 488D85F0 		leaq	-272(%rbp), %rax
 821      FEFFFF
 822 04e7 B9000000 		movl	$0, %ecx
 822      00
 823 04ec BA000000 		movl	$0, %edx
 823      00
 824 04f1 BE000400 		movl	$1024, %esi
 824      00
 825 04f6 4889C7   		movq	%rax, %rdi
 826              	.LEHB27:
 827 04f9 E8000000 		call	bufInitialise
 827      00
 828              	.LEHE27:
 829 04fe 8985DCFE 		movl	%eax, -292(%rbp)
 829      FFFF
 830              	.LEHB28:
  66:testI2C.cpp   **** 		CHECK_EQUAL(BUF_SUCCESS, bStatus);
 831              		.loc 3 66 0
 832 0504 E8000000 		call	_ZN8UnitTest11CurrentTest7DetailsEv
 832      00
 833 0509 488B08   		movq	(%rax), %rcx
 834 050c 488D4590 		leaq	-112(%rbp), %rax
 835 0510 BA420000 		movl	$66, %edx
 835      00
 836 0515 4889CE   		movq	%rcx, %rsi
 837 0518 4889C7   		movq	%rax, %rdi
 838 051b E8000000 		call	_ZN8UnitTest11TestDetailsC1ERKS0_i
 838      00
 839              		.loc 3 66 0 is_stmt 0 discriminator 1
 840 0520 C785E4FE 		movl	$0, -284(%rbp)
 840      FFFF0000 
 840      0000
 841 052a E8000000 		call	_ZN8UnitTest11CurrentTest7ResultsEv
 841      00
 842 052f 488B00   		movq	(%rax), %rax
 843 0532 488D4D90 		leaq	-112(%rbp), %rcx
 844 0536 488D95DC 		leaq	-292(%rbp), %rdx
 844      FEFFFF
 845 053d 488DB5E4 		leaq	-284(%rbp), %rsi
 845      FEFFFF
 846 0544 4889C7   		movq	%rax, %rdi
 847 0547 E8000000 		call	_ZN8UnitTest10CheckEqualI12BufferStatusS1_EEvRNS_11TestResultsERKT_RKT0_RKNS_11TestDetailsE
 847      00
 848              	.LEHE28:
 849              	.L48:
  67:testI2C.cpp   **** 		i2cInitialise(&i2cBuffer, VID, PID, DID, CONFIG_BYTE_400KHZ);
 850              		.loc 3 67 0 is_stmt 1
 851 054c 488D85F0 		leaq	-272(%rbp), %rax
 851      FEFFFF
 852 0553 41B80100 		movl	$1, %r8d
 852      0000
 853 0559 B9000000 		movl	$0, %ecx
 853      00
 854 055e BA138600 		movl	$34323, %edx
 854      00
 855 0563 BEB40400 		movl	$1204, %esi
 855      00
 856 0568 4889C7   		movq	%rax, %rdi
 857              	.LEHB29:
 858 056b E8000000 		call	i2cInitialise
 858      00
  68:testI2C.cpp   **** 		bStatus = bufInitialise(&srcData, 16, 0x00, NULL);
 859              		.loc 3 68 0
 860 0570 488D8510 		leaq	-240(%rbp), %rax
 860      FFFFFF
 861 0577 B9000000 		movl	$0, %ecx
 861      00
 862 057c BA000000 		movl	$0, %edx
 862      00
 863 0581 BE100000 		movl	$16, %esi
 863      00
 864 0586 4889C7   		movq	%rax, %rdi
 865 0589 E8000000 		call	bufInitialise
 865      00
 866              	.LEHE29:
 867 058e 8985DCFE 		movl	%eax, -292(%rbp)
 867      FFFF
 868              	.LEHB30:
  69:testI2C.cpp   **** 		CHECK_EQUAL(BUF_SUCCESS, bStatus);
 869              		.loc 3 69 0
 870 0594 E8000000 		call	_ZN8UnitTest11CurrentTest7DetailsEv
 870      00
 871 0599 488B08   		movq	(%rax), %rcx
 872 059c 488D4590 		leaq	-112(%rbp), %rax
 873 05a0 BA450000 		movl	$69, %edx
 873      00
 874 05a5 4889CE   		movq	%rcx, %rsi
 875 05a8 4889C7   		movq	%rax, %rdi
 876 05ab E8000000 		call	_ZN8UnitTest11TestDetailsC1ERKS0_i
 876      00
 877              		.loc 3 69 0 is_stmt 0 discriminator 1
 878 05b0 C785E4FE 		movl	$0, -284(%rbp)
 878      FFFF0000 
 878      0000
 879 05ba E8000000 		call	_ZN8UnitTest11CurrentTest7ResultsEv
 879      00
 880 05bf 488B00   		movq	(%rax), %rax
 881 05c2 488D4D90 		leaq	-112(%rbp), %rcx
 882 05c6 488D95DC 		leaq	-292(%rbp), %rdx
 882      FEFFFF
 883 05cd 488DB5E4 		leaq	-284(%rbp), %rsi
 883      FEFFFF
 884 05d4 4889C7   		movq	%rax, %rdi
 885 05d7 E8000000 		call	_ZN8UnitTest10CheckEqualI12BufferStatusS1_EEvRNS_11TestResultsERKT_RKT0_RKNS_11TestDetailsE
 885      00
 886              	.LEHE30:
 887              	.L51:
  70:testI2C.cpp   **** 		bStatus = bufInitialise(&dstData, 16, 0x00, NULL);
 888              		.loc 3 70 0 is_stmt 1
 889 05dc 488D8550 		leaq	-176(%rbp), %rax
 889      FFFFFF
 890 05e3 B9000000 		movl	$0, %ecx
 890      00
 891 05e8 BA000000 		movl	$0, %edx
 891      00
 892 05ed BE100000 		movl	$16, %esi
 892      00
 893 05f2 4889C7   		movq	%rax, %rdi
 894              	.LEHB31:
 895 05f5 E8000000 		call	bufInitialise
 895      00
 896              	.LEHE31:
 897 05fa 8985DCFE 		movl	%eax, -292(%rbp)
 897      FFFF
 898              	.LEHB32:
  71:testI2C.cpp   **** 		CHECK_EQUAL(BUF_SUCCESS, bStatus);
 899              		.loc 3 71 0
 900 0600 E8000000 		call	_ZN8UnitTest11CurrentTest7DetailsEv
 900      00
 901 0605 488B08   		movq	(%rax), %rcx
 902 0608 488D4590 		leaq	-112(%rbp), %rax
 903 060c BA470000 		movl	$71, %edx
 903      00
 904 0611 4889CE   		movq	%rcx, %rsi
 905 0614 4889C7   		movq	%rax, %rdi
 906 0617 E8000000 		call	_ZN8UnitTest11TestDetailsC1ERKS0_i
 906      00
 907              		.loc 3 71 0 is_stmt 0 discriminator 1
 908 061c C785E4FE 		movl	$0, -284(%rbp)
 908      FFFF0000 
 908      0000
 909 0626 E8000000 		call	_ZN8UnitTest11CurrentTest7ResultsEv
 909      00
 910 062b 488B00   		movq	(%rax), %rax
 911 062e 488D4D90 		leaq	-112(%rbp), %rcx
 912 0632 488D95DC 		leaq	-292(%rbp), %rdx
 912      FEFFFF
 913 0639 488DB5E4 		leaq	-284(%rbp), %rsi
 913      FEFFFF
 914 0640 4889C7   		movq	%rax, %rdi
 915 0643 E8000000 		call	_ZN8UnitTest10CheckEqualI12BufferStatusS1_EEvRNS_11TestResultsERKT_RKT0_RKNS_11TestDetailsE
 915      00
 916              	.LEHE32:
 917              	.L54:
  72:testI2C.cpp   **** 		bStatus = bufInitialise(&srcMask, 16, 0x00, NULL);
 918              		.loc 3 72 0 is_stmt 1
 919 0648 488D8530 		leaq	-208(%rbp), %rax
 919      FFFFFF
 920 064f B9000000 		movl	$0, %ecx
 920      00
 921 0654 BA000000 		movl	$0, %edx
 921      00
 922 0659 BE100000 		movl	$16, %esi
 922      00
 923 065e 4889C7   		movq	%rax, %rdi
 924              	.LEHB33:
 925 0661 E8000000 		call	bufInitialise
 925      00
 926              	.LEHE33:
 927 0666 8985DCFE 		movl	%eax, -292(%rbp)
 927      FFFF
 928              	.LEHB34:
  73:testI2C.cpp   **** 		CHECK_EQUAL(BUF_SUCCESS, bStatus);
 929              		.loc 3 73 0
 930 066c E8000000 		call	_ZN8UnitTest11CurrentTest7DetailsEv
 930      00
 931 0671 488B08   		movq	(%rax), %rcx
 932 0674 488D4590 		leaq	-112(%rbp), %rax
 933 0678 BA490000 		movl	$73, %edx
 933      00
 934 067d 4889CE   		movq	%rcx, %rsi
 935 0680 4889C7   		movq	%rax, %rdi
 936 0683 E8000000 		call	_ZN8UnitTest11TestDetailsC1ERKS0_i
 936      00
 937              		.loc 3 73 0 is_stmt 0 discriminator 1
 938 0688 C785E4FE 		movl	$0, -284(%rbp)
 938      FFFF0000 
 938      0000
 939 0692 E8000000 		call	_ZN8UnitTest11CurrentTest7ResultsEv
 939      00
 940 0697 488B00   		movq	(%rax), %rax
 941 069a 488D4D90 		leaq	-112(%rbp), %rcx
 942 069e 488D95DC 		leaq	-292(%rbp), %rdx
 942      FEFFFF
 943 06a5 488DB5E4 		leaq	-284(%rbp), %rsi
 943      FEFFFF
 944 06ac 4889C7   		movq	%rax, %rdi
 945 06af E8000000 		call	_ZN8UnitTest10CheckEqualI12BufferStatusS1_EEvRNS_11TestResultsERKT_RKT0_RKNS_11TestDetailsE
 945      00
 946              	.LEHE34:
 947              	.L57:
  74:testI2C.cpp   **** 		bStatus = bufInitialise(&dstMask, 16, 0x00, NULL);
 948              		.loc 3 74 0 is_stmt 1
 949 06b4 488D8570 		leaq	-144(%rbp), %rax
 949      FFFFFF
 950 06bb B9000000 		movl	$0, %ecx
 950      00
 951 06c0 BA000000 		movl	$0, %edx
 951      00
 952 06c5 BE100000 		movl	$16, %esi
 952      00
 953 06ca 4889C7   		movq	%rax, %rdi
 954              	.LEHB35:
 955 06cd E8000000 		call	bufInitialise
 955      00
 956              	.LEHE35:
 957 06d2 8985DCFE 		movl	%eax, -292(%rbp)
 957      FFFF
 958              	.LEHB36:
  75:testI2C.cpp   **** 		CHECK_EQUAL(BUF_SUCCESS, bStatus);
 959              		.loc 3 75 0
 960 06d8 E8000000 		call	_ZN8UnitTest11CurrentTest7DetailsEv
 960      00
 961 06dd 488B08   		movq	(%rax), %rcx
 962 06e0 488D4590 		leaq	-112(%rbp), %rax
 963 06e4 BA4B0000 		movl	$75, %edx
 963      00
 964 06e9 4889CE   		movq	%rcx, %rsi
 965 06ec 4889C7   		movq	%rax, %rdi
 966 06ef E8000000 		call	_ZN8UnitTest11TestDetailsC1ERKS0_i
 966      00
 967              		.loc 3 75 0 is_stmt 0 discriminator 1
 968 06f4 C785E4FE 		movl	$0, -284(%rbp)
 968      FFFF0000 
 968      0000
 969 06fe E8000000 		call	_ZN8UnitTest11CurrentTest7ResultsEv
 969      00
 970 0703 488B00   		movq	(%rax), %rax
 971 0706 488D4D90 		leaq	-112(%rbp), %rcx
 972 070a 488D95DC 		leaq	-292(%rbp), %rdx
 972      FEFFFF
 973 0711 488DB5E4 		leaq	-284(%rbp), %rsi
 973      FEFFFF
 974 0718 4889C7   		movq	%rax, %rdi
 975 071b E8000000 		call	_ZN8UnitTest10CheckEqualI12BufferStatusS1_EEvRNS_11TestResultsERKT_RKT0_RKNS_11TestDetailsE
 975      00
 976              	.LEHE36:
 977              	.L60:
  76:testI2C.cpp   **** 		bStatus = bufWriteBlock(&srcData, 0x00000000, expected, 16, NULL);
 978              		.loc 3 76 0 is_stmt 1
 979 0720 488D55D0 		leaq	-48(%rbp), %rdx
 980 0724 488D8510 		leaq	-240(%rbp), %rax
 980      FFFFFF
 981 072b 41B80000 		movl	$0, %r8d
 981      0000
 982 0731 B9100000 		movl	$16, %ecx
 982      00
 983 0736 BE000000 		movl	$0, %esi
 983      00
 984 073b 4889C7   		movq	%rax, %rdi
 985              	.LEHB37:
 986 073e E8000000 		call	bufWriteBlock
 986      00
 987              	.LEHE37:
 988 0743 8985DCFE 		movl	%eax, -292(%rbp)
 988      FFFF
 989              	.LEHB38:
  77:testI2C.cpp   **** 		CHECK_EQUAL(BUF_SUCCESS, bStatus);
 990              		.loc 3 77 0
 991 0749 E8000000 		call	_ZN8UnitTest11CurrentTest7DetailsEv
 991      00
 992 074e 488B08   		movq	(%rax), %rcx
 993 0751 488D4590 		leaq	-112(%rbp), %rax
 994 0755 BA4D0000 		movl	$77, %edx
 994      00
 995 075a 4889CE   		movq	%rcx, %rsi
 996 075d 4889C7   		movq	%rax, %rdi
 997 0760 E8000000 		call	_ZN8UnitTest11TestDetailsC1ERKS0_i
 997      00
 998              		.loc 3 77 0 is_stmt 0 discriminator 1
 999 0765 C785E4FE 		movl	$0, -284(%rbp)
 999      FFFF0000 
 999      0000
 1000 076f E8000000 		call	_ZN8UnitTest11CurrentTest7ResultsEv
 1000      00
 1001 0774 488B00   		movq	(%rax), %rax
 1002 0777 488D4D90 		leaq	-112(%rbp), %rcx
 1003 077b 488D95DC 		leaq	-292(%rbp), %rdx
 1003      FEFFFF
 1004 0782 488DB5E4 		leaq	-284(%rbp), %rsi
 1004      FEFFFF
 1005 0789 4889C7   		movq	%rax, %rdi
 1006 078c E8000000 		call	_ZN8UnitTest10CheckEqualI12BufferStatusS1_EEvRNS_11TestResultsERKT_RKT0_RKNS_11TestDetailsE
 1006      00
 1007              	.LEHE38:
 1008              	.L63:
  78:testI2C.cpp   **** 		bStatus = bufWriteBlock(&srcMask, 0x00000000, mask, 16, NULL);
 1009              		.loc 3 78 0 is_stmt 1
 1010 0791 488D55C0 		leaq	-64(%rbp), %rdx
 1011 0795 488D8530 		leaq	-208(%rbp), %rax
 1011      FFFFFF
 1012 079c 41B80000 		movl	$0, %r8d
 1012      0000
 1013 07a2 B9100000 		movl	$16, %ecx
 1013      00
 1014 07a7 BE000000 		movl	$0, %esi
 1014      00
 1015 07ac 4889C7   		movq	%rax, %rdi
 1016              	.LEHB39:
 1017 07af E8000000 		call	bufWriteBlock
 1017      00
 1018              	.LEHE39:
 1019 07b4 8985DCFE 		movl	%eax, -292(%rbp)
 1019      FFFF
 1020              	.LEHB40:
  79:testI2C.cpp   **** 		CHECK_EQUAL(BUF_SUCCESS, bStatus);
 1021              		.loc 3 79 0
 1022 07ba E8000000 		call	_ZN8UnitTest11CurrentTest7DetailsEv
 1022      00
 1023 07bf 488B08   		movq	(%rax), %rcx
 1024 07c2 488D4590 		leaq	-112(%rbp), %rax
 1025 07c6 BA4F0000 		movl	$79, %edx
 1025      00
 1026 07cb 4889CE   		movq	%rcx, %rsi
 1027 07ce 4889C7   		movq	%rax, %rdi
 1028 07d1 E8000000 		call	_ZN8UnitTest11TestDetailsC1ERKS0_i
 1028      00
 1029              		.loc 3 79 0 is_stmt 0 discriminator 1
 1030 07d6 C785E4FE 		movl	$0, -284(%rbp)
 1030      FFFF0000 
 1030      0000
 1031 07e0 E8000000 		call	_ZN8UnitTest11CurrentTest7ResultsEv
 1031      00
 1032 07e5 488B00   		movq	(%rax), %rax
 1033 07e8 488D4D90 		leaq	-112(%rbp), %rcx
 1034 07ec 488D95DC 		leaq	-292(%rbp), %rdx
 1034      FEFFFF
 1035 07f3 488DB5E4 		leaq	-284(%rbp), %rsi
 1035      FEFFFF
 1036 07fa 4889C7   		movq	%rax, %rdi
 1037 07fd E8000000 		call	_ZN8UnitTest10CheckEqualI12BufferStatusS1_EEvRNS_11TestResultsERKT_RKT0_RKNS_11TestDetailsE
 1037      00
 1038              	.LEHE40:
 1039              	.L66:
  80:testI2C.cpp   **** 		iStatus = i2cWritePromRecords(&i2cBuffer, &srcData, &srcMask, NULL);
 1040              		.loc 3 80 0 is_stmt 1
 1041 0802 488D9530 		leaq	-208(%rbp), %rdx
 1041      FFFFFF
 1042 0809 488DB510 		leaq	-240(%rbp), %rsi
 1042      FFFFFF
 1043 0810 488D85F0 		leaq	-272(%rbp), %rax
 1043      FEFFFF
 1044 0817 B9000000 		movl	$0, %ecx
 1044      00
 1045 081c 4889C7   		movq	%rax, %rdi
 1046              	.LEHB41:
 1047 081f E8000000 		call	i2cWritePromRecords
 1047      00
 1048              	.LEHE41:
 1049 0824 8985E0FE 		movl	%eax, -288(%rbp)
 1049      FFFF
 1050              	.LEHB42:
  81:testI2C.cpp   **** 		CHECK_EQUAL(I2C_SUCCESS, iStatus);
 1051              		.loc 3 81 0
 1052 082a E8000000 		call	_ZN8UnitTest11CurrentTest7DetailsEv
 1052      00
 1053 082f 488B08   		movq	(%rax), %rcx
 1054 0832 488D4590 		leaq	-112(%rbp), %rax
 1055 0836 BA510000 		movl	$81, %edx
 1055      00
 1056 083b 4889CE   		movq	%rcx, %rsi
 1057 083e 4889C7   		movq	%rax, %rdi
 1058 0841 E8000000 		call	_ZN8UnitTest11TestDetailsC1ERKS0_i
 1058      00
 1059              		.loc 3 81 0 is_stmt 0 discriminator 1
 1060 0846 C785E4FE 		movl	$0, -284(%rbp)
 1060      FFFF0000 
 1060      0000
 1061 0850 E8000000 		call	_ZN8UnitTest11CurrentTest7ResultsEv
 1061      00
 1062 0855 488B00   		movq	(%rax), %rax
 1063 0858 488D4D90 		leaq	-112(%rbp), %rcx
 1064 085c 488D95E0 		leaq	-288(%rbp), %rdx
 1064      FEFFFF
 1065 0863 488DB5E4 		leaq	-284(%rbp), %rsi
 1065      FEFFFF
 1066 086a 4889C7   		movq	%rax, %rdi
 1067 086d E8000000 		call	_ZN8UnitTest10CheckEqualI9I2CStatusS1_EEvRNS_11TestResultsERKT_RKT0_RKNS_11TestDetailsE
 1067      00
 1068              	.LEHE42:
 1069              	.L69:
  82:testI2C.cpp   **** 		iStatus = i2cFinalise(&i2cBuffer, NULL);
 1070              		.loc 3 82 0 is_stmt 1
 1071 0872 488D85F0 		leaq	-272(%rbp), %rax
 1071      FEFFFF
 1072 0879 BE000000 		movl	$0, %esi
 1072      00
 1073 087e 4889C7   		movq	%rax, %rdi
 1074              	.LEHB43:
 1075 0881 E8000000 		call	i2cFinalise
 1075      00
 1076              	.LEHE43:
 1077 0886 8985E0FE 		movl	%eax, -288(%rbp)
 1077      FFFF
 1078              	.LEHB44:
  83:testI2C.cpp   **** 		CHECK_EQUAL(I2C_SUCCESS, iStatus);
 1079              		.loc 3 83 0
 1080 088c E8000000 		call	_ZN8UnitTest11CurrentTest7DetailsEv
 1080      00
 1081 0891 488B08   		movq	(%rax), %rcx
 1082 0894 488D4590 		leaq	-112(%rbp), %rax
 1083 0898 BA530000 		movl	$83, %edx
 1083      00
 1084 089d 4889CE   		movq	%rcx, %rsi
 1085 08a0 4889C7   		movq	%rax, %rdi
 1086 08a3 E8000000 		call	_ZN8UnitTest11TestDetailsC1ERKS0_i
 1086      00
 1087              		.loc 3 83 0 is_stmt 0 discriminator 1
 1088 08a8 C785E4FE 		movl	$0, -284(%rbp)
 1088      FFFF0000 
 1088      0000
 1089 08b2 E8000000 		call	_ZN8UnitTest11CurrentTest7ResultsEv
 1089      00
 1090 08b7 488B00   		movq	(%rax), %rax
 1091 08ba 488D4D90 		leaq	-112(%rbp), %rcx
 1092 08be 488D95E0 		leaq	-288(%rbp), %rdx
 1092      FEFFFF
 1093 08c5 488DB5E4 		leaq	-284(%rbp), %rsi
 1093      FEFFFF
 1094 08cc 4889C7   		movq	%rax, %rdi
 1095 08cf E8000000 		call	_ZN8UnitTest10CheckEqualI9I2CStatusS1_EEvRNS_11TestResultsERKT_RKT0_RKNS_11TestDetailsE
 1095      00
 1096              	.LEHE44:
 1097              	.L72:
  84:testI2C.cpp   **** 		iStatus = i2cReadPromRecords(&dstData, &dstMask, &i2cBuffer, NULL);
 1098              		.loc 3 84 0 is_stmt 1
 1099 08d4 488D95F0 		leaq	-272(%rbp), %rdx
 1099      FEFFFF
 1100 08db 488DB570 		leaq	-144(%rbp), %rsi
 1100      FFFFFF
 1101 08e2 488D8550 		leaq	-176(%rbp), %rax
 1101      FFFFFF
 1102 08e9 B9000000 		movl	$0, %ecx
 1102      00
 1103 08ee 4889C7   		movq	%rax, %rdi
 1104              	.LEHB45:
 1105 08f1 E8000000 		call	i2cReadPromRecords
 1105      00
 1106              	.LEHE45:
 1107 08f6 8985E0FE 		movl	%eax, -288(%rbp)
 1107      FFFF
 1108              	.LEHB46:
  85:testI2C.cpp   **** 		CHECK_EQUAL(I2C_SUCCESS, iStatus);
 1109              		.loc 3 85 0
 1110 08fc E8000000 		call	_ZN8UnitTest11CurrentTest7DetailsEv
 1110      00
 1111 0901 488B08   		movq	(%rax), %rcx
 1112 0904 488D4590 		leaq	-112(%rbp), %rax
 1113 0908 BA550000 		movl	$85, %edx
 1113      00
 1114 090d 4889CE   		movq	%rcx, %rsi
 1115 0910 4889C7   		movq	%rax, %rdi
 1116 0913 E8000000 		call	_ZN8UnitTest11TestDetailsC1ERKS0_i
 1116      00
 1117              		.loc 3 85 0 is_stmt 0 discriminator 1
 1118 0918 C785E4FE 		movl	$0, -284(%rbp)
 1118      FFFF0000 
 1118      0000
 1119 0922 E8000000 		call	_ZN8UnitTest11CurrentTest7ResultsEv
 1119      00
 1120 0927 488B00   		movq	(%rax), %rax
 1121 092a 488D4D90 		leaq	-112(%rbp), %rcx
 1122 092e 488D95E0 		leaq	-288(%rbp), %rdx
 1122      FEFFFF
 1123 0935 488DB5E4 		leaq	-284(%rbp), %rsi
 1123      FEFFFF
 1124 093c 4889C7   		movq	%rax, %rdi
 1125 093f E8000000 		call	_ZN8UnitTest10CheckEqualI9I2CStatusS1_EEvRNS_11TestResultsERKT_RKT0_RKNS_11TestDetailsE
 1125      00
 1126              	.LEHE46:
 1127              	.L75:
 1128              	.LEHB47:
  86:testI2C.cpp   **** 		CHECK_ARRAY_EQUAL(expected, dstData.data, 16);
 1129              		.loc 3 86 0 is_stmt 1
 1130 0944 E8000000 		call	_ZN8UnitTest11CurrentTest7DetailsEv
 1130      00
 1131 0949 488B08   		movq	(%rax), %rcx
 1132 094c 488D4590 		leaq	-112(%rbp), %rax
 1133 0950 BA560000 		movl	$86, %edx
 1133      00
 1134 0955 4889CE   		movq	%rcx, %rsi
 1135 0958 4889C7   		movq	%rax, %rdi
 1136 095b E8000000 		call	_ZN8UnitTest11TestDetailsC1ERKS0_i
 1136      00
 1137              		.loc 3 86 0 is_stmt 0 discriminator 1
 1138 0960 E8000000 		call	_ZN8UnitTest11CurrentTest7ResultsEv
 1138      00
 1139 0965 488B00   		movq	(%rax), %rax
 1140 0968 488D4D90 		leaq	-112(%rbp), %rcx
 1141 096c 488D9550 		leaq	-176(%rbp), %rdx
 1141      FFFFFF
 1142 0973 488D75D0 		leaq	-48(%rbp), %rsi
 1143 0977 4989C8   		movq	%rcx, %r8
 1144 097a B9100000 		movl	$16, %ecx
 1144      00
 1145 097f 4889C7   		movq	%rax, %rdi
 1146 0982 E8000000 		call	_ZN8UnitTest15CheckArrayEqualIA16_hPhEEvRNS_11TestResultsERKT_RKT0_iRKNS_11TestDetailsE
 1146      00
 1147              	.LEHE47:
 1148              	.L78:
  87:testI2C.cpp   **** 		bufDestroy(&dstMask);
 1149              		.loc 3 87 0 is_stmt 1
 1150 0987 488D8570 		leaq	-144(%rbp), %rax
 1150      FFFFFF
 1151 098e 4889C7   		movq	%rax, %rdi
 1152              	.LEHB48:
 1153 0991 E8000000 		call	bufDestroy
 1153      00
  88:testI2C.cpp   **** 		bufDestroy(&srcMask);
 1154              		.loc 3 88 0
 1155 0996 488D8530 		leaq	-208(%rbp), %rax
 1155      FFFFFF
 1156 099d 4889C7   		movq	%rax, %rdi
 1157 09a0 E8000000 		call	bufDestroy
 1157      00
  89:testI2C.cpp   **** 		bufDestroy(&dstData);
 1158              		.loc 3 89 0
 1159 09a5 488D8550 		leaq	-176(%rbp), %rax
 1159      FFFFFF
 1160 09ac 4889C7   		movq	%rax, %rdi
 1161 09af E8000000 		call	bufDestroy
 1161      00
  90:testI2C.cpp   **** 		bufDestroy(&srcData);
 1162              		.loc 3 90 0
 1163 09b4 488D8510 		leaq	-240(%rbp), %rax
 1163      FFFFFF
 1164 09bb 4889C7   		movq	%rax, %rdi
 1165 09be E8000000 		call	bufDestroy
 1165      00
  91:testI2C.cpp   **** 		bufDestroy(&i2cBuffer);
 1166              		.loc 3 91 0
 1167 09c3 488D85F0 		leaq	-272(%rbp), %rax
 1167      FEFFFF
 1168 09ca 4889C7   		movq	%rax, %rdi
 1169 09cd E8000000 		call	bufDestroy
 1169      00
 1170              	.LEHE48:
  55:testI2C.cpp   **** 		for ( j = 0; j < 16; j++ ) {
 1171              		.loc 3 55 0
 1172 09d2 8385E8FE 		addl	$1, -280(%rbp)
 1172      FFFF01
 1173              	.L40:
  55:testI2C.cpp   **** 		for ( j = 0; j < 16; j++ ) {
 1174              		.loc 3 55 0 is_stmt 0 discriminator 1
 1175 09d9 81BDE8FE 		cmpl	$65535, -280(%rbp)
 1175      FFFFFFFF 
 1175      0000
 1176 09e3 0F8688FA 		jbe	.L45
 1176      FFFF
 1177              	.LBE8:
  92:testI2C.cpp   **** 	}
  93:testI2C.cpp   **** }
 1178              		.loc 3 93 0 is_stmt 1
 1179 09e9 488B45E8 		movq	-24(%rbp), %rax
 1180 09ed 64483304 		xorq	%fs:40, %rax
 1180      25280000 
 1180      00
 1181 09f6 0F840904 		je	.L79
 1181      0000
 1182 09fc E9FF0300 		jmp	.L102
 1182      00
 1183              	.L81:
 1184 0a01 4889C3   		movq	%rax, %rbx
 1185              	.LBB9:
  66:testI2C.cpp   **** 		i2cInitialise(&i2cBuffer, VID, PID, DID, CONFIG_BYTE_400KHZ);
 1186              		.loc 3 66 0
 1187 0a04 E8000000 		call	__cxa_end_catch
 1187      00
 1188 0a09 4889D8   		movq	%rbx, %rax
 1189 0a0c 4889C7   		movq	%rax, %rdi
 1190              	.LEHB49:
 1191 0a0f E8000000 		call	_Unwind_Resume
 1191      00
 1192              	.LEHE49:
 1193              	.L80:
 1194 0a14 4889C7   		movq	%rax, %rdi
 1195 0a17 E8000000 		call	__cxa_begin_catch
 1195      00
 1196              	.LEHB50:
 1197 0a1c E8000000 		call	_ZN8UnitTest11CurrentTest7DetailsEv
 1197      00
 1198 0a21 488B08   		movq	(%rax), %rcx
 1199 0a24 488D4590 		leaq	-112(%rbp), %rax
 1200 0a28 BA420000 		movl	$66, %edx
 1200      00
 1201 0a2d 4889CE   		movq	%rcx, %rsi
 1202 0a30 4889C7   		movq	%rax, %rdi
 1203 0a33 E8000000 		call	_ZN8UnitTest11TestDetailsC1ERKS0_i
 1203      00
  66:testI2C.cpp   **** 		i2cInitialise(&i2cBuffer, VID, PID, DID, CONFIG_BYTE_400KHZ);
 1204              		.loc 3 66 0 is_stmt 0 discriminator 1
 1205 0a38 E8000000 		call	_ZN8UnitTest11CurrentTest7ResultsEv
 1205      00
 1206 0a3d 488B00   		movq	(%rax), %rax
 1207 0a40 488D4D90 		leaq	-112(%rbp), %rcx
 1208 0a44 BA000000 		movl	$.LC3, %edx
 1208      00
 1209 0a49 4889CE   		movq	%rcx, %rsi
 1210 0a4c 4889C7   		movq	%rax, %rdi
 1211 0a4f E8000000 		call	_ZN8UnitTest11TestResults13OnTestFailureERKNS_11TestDetailsEPKc
 1211      00
 1212              	.LEHE50:
 1213              	.LEHB51:
 1214 0a54 E8000000 		call	__cxa_end_catch
 1214      00
 1215              	.LEHE51:
 1216 0a59 E9EEFAFF 		jmp	.L48
 1216      FF
 1217              	.L83:
 1218 0a5e 4889C3   		movq	%rax, %rbx
  69:testI2C.cpp   **** 		bStatus = bufInitialise(&dstData, 16, 0x00, NULL);
 1219              		.loc 3 69 0 is_stmt 1
 1220 0a61 E8000000 		call	__cxa_end_catch
 1220      00
 1221 0a66 4889D8   		movq	%rbx, %rax
 1222 0a69 4889C7   		movq	%rax, %rdi
 1223              	.LEHB52:
 1224 0a6c E8000000 		call	_Unwind_Resume
 1224      00
 1225              	.LEHE52:
 1226              	.L82:
 1227 0a71 4889C7   		movq	%rax, %rdi
 1228 0a74 E8000000 		call	__cxa_begin_catch
 1228      00
 1229              	.LEHB53:
 1230 0a79 E8000000 		call	_ZN8UnitTest11CurrentTest7DetailsEv
 1230      00
 1231 0a7e 488B08   		movq	(%rax), %rcx
 1232 0a81 488D4590 		leaq	-112(%rbp), %rax
 1233 0a85 BA450000 		movl	$69, %edx
 1233      00
 1234 0a8a 4889CE   		movq	%rcx, %rsi
 1235 0a8d 4889C7   		movq	%rax, %rdi
 1236 0a90 E8000000 		call	_ZN8UnitTest11TestDetailsC1ERKS0_i
 1236      00
  69:testI2C.cpp   **** 		bStatus = bufInitialise(&dstData, 16, 0x00, NULL);
 1237              		.loc 3 69 0 is_stmt 0 discriminator 1
 1238 0a95 E8000000 		call	_ZN8UnitTest11CurrentTest7ResultsEv
 1238      00
 1239 0a9a 488B00   		movq	(%rax), %rax
 1240 0a9d 488D4D90 		leaq	-112(%rbp), %rcx
 1241 0aa1 BA000000 		movl	$.LC3, %edx
 1241      00
 1242 0aa6 4889CE   		movq	%rcx, %rsi
 1243 0aa9 4889C7   		movq	%rax, %rdi
 1244 0aac E8000000 		call	_ZN8UnitTest11TestResults13OnTestFailureERKNS_11TestDetailsEPKc
 1244      00
 1245              	.LEHE53:
 1246              	.LEHB54:
 1247 0ab1 E8000000 		call	__cxa_end_catch
 1247      00
 1248              	.LEHE54:
 1249 0ab6 E921FBFF 		jmp	.L51
 1249      FF
 1250              	.L85:
 1251 0abb 4889C3   		movq	%rax, %rbx
  71:testI2C.cpp   **** 		bStatus = bufInitialise(&srcMask, 16, 0x00, NULL);
 1252              		.loc 3 71 0 is_stmt 1
 1253 0abe E8000000 		call	__cxa_end_catch
 1253      00
 1254 0ac3 4889D8   		movq	%rbx, %rax
 1255 0ac6 4889C7   		movq	%rax, %rdi
 1256              	.LEHB55:
 1257 0ac9 E8000000 		call	_Unwind_Resume
 1257      00
 1258              	.LEHE55:
 1259              	.L84:
 1260 0ace 4889C7   		movq	%rax, %rdi
 1261 0ad1 E8000000 		call	__cxa_begin_catch
 1261      00
 1262              	.LEHB56:
 1263 0ad6 E8000000 		call	_ZN8UnitTest11CurrentTest7DetailsEv
 1263      00
 1264 0adb 488B08   		movq	(%rax), %rcx
 1265 0ade 488D4590 		leaq	-112(%rbp), %rax
 1266 0ae2 BA470000 		movl	$71, %edx
 1266      00
 1267 0ae7 4889CE   		movq	%rcx, %rsi
 1268 0aea 4889C7   		movq	%rax, %rdi
 1269 0aed E8000000 		call	_ZN8UnitTest11TestDetailsC1ERKS0_i
 1269      00
  71:testI2C.cpp   **** 		bStatus = bufInitialise(&srcMask, 16, 0x00, NULL);
 1270              		.loc 3 71 0 is_stmt 0 discriminator 1
 1271 0af2 E8000000 		call	_ZN8UnitTest11CurrentTest7ResultsEv
 1271      00
 1272 0af7 488B00   		movq	(%rax), %rax
 1273 0afa 488D4D90 		leaq	-112(%rbp), %rcx
 1274 0afe BA000000 		movl	$.LC3, %edx
 1274      00
 1275 0b03 4889CE   		movq	%rcx, %rsi
 1276 0b06 4889C7   		movq	%rax, %rdi
 1277 0b09 E8000000 		call	_ZN8UnitTest11TestResults13OnTestFailureERKNS_11TestDetailsEPKc
 1277      00
 1278              	.LEHE56:
 1279              	.LEHB57:
 1280 0b0e E8000000 		call	__cxa_end_catch
 1280      00
 1281              	.LEHE57:
 1282 0b13 E930FBFF 		jmp	.L54
 1282      FF
 1283              	.L87:
 1284 0b18 4889C3   		movq	%rax, %rbx
  73:testI2C.cpp   **** 		bStatus = bufInitialise(&dstMask, 16, 0x00, NULL);
 1285              		.loc 3 73 0 is_stmt 1
 1286 0b1b E8000000 		call	__cxa_end_catch
 1286      00
 1287 0b20 4889D8   		movq	%rbx, %rax
 1288 0b23 4889C7   		movq	%rax, %rdi
 1289              	.LEHB58:
 1290 0b26 E8000000 		call	_Unwind_Resume
 1290      00
 1291              	.LEHE58:
 1292              	.L86:
 1293 0b2b 4889C7   		movq	%rax, %rdi
 1294 0b2e E8000000 		call	__cxa_begin_catch
 1294      00
 1295              	.LEHB59:
 1296 0b33 E8000000 		call	_ZN8UnitTest11CurrentTest7DetailsEv
 1296      00
 1297 0b38 488B08   		movq	(%rax), %rcx
 1298 0b3b 488D4590 		leaq	-112(%rbp), %rax
 1299 0b3f BA490000 		movl	$73, %edx
 1299      00
 1300 0b44 4889CE   		movq	%rcx, %rsi
 1301 0b47 4889C7   		movq	%rax, %rdi
 1302 0b4a E8000000 		call	_ZN8UnitTest11TestDetailsC1ERKS0_i
 1302      00
  73:testI2C.cpp   **** 		bStatus = bufInitialise(&dstMask, 16, 0x00, NULL);
 1303              		.loc 3 73 0 is_stmt 0 discriminator 1
 1304 0b4f E8000000 		call	_ZN8UnitTest11CurrentTest7ResultsEv
 1304      00
 1305 0b54 488B00   		movq	(%rax), %rax
 1306 0b57 488D4D90 		leaq	-112(%rbp), %rcx
 1307 0b5b BA000000 		movl	$.LC3, %edx
 1307      00
 1308 0b60 4889CE   		movq	%rcx, %rsi
 1309 0b63 4889C7   		movq	%rax, %rdi
 1310 0b66 E8000000 		call	_ZN8UnitTest11TestResults13OnTestFailureERKNS_11TestDetailsEPKc
 1310      00
 1311              	.LEHE59:
 1312              	.LEHB60:
 1313 0b6b E8000000 		call	__cxa_end_catch
 1313      00
 1314              	.LEHE60:
 1315 0b70 E93FFBFF 		jmp	.L57
 1315      FF
 1316              	.L89:
 1317 0b75 4889C3   		movq	%rax, %rbx
  75:testI2C.cpp   **** 		bStatus = bufWriteBlock(&srcData, 0x00000000, expected, 16, NULL);
 1318              		.loc 3 75 0 is_stmt 1
 1319 0b78 E8000000 		call	__cxa_end_catch
 1319      00
 1320 0b7d 4889D8   		movq	%rbx, %rax
 1321 0b80 4889C7   		movq	%rax, %rdi
 1322              	.LEHB61:
 1323 0b83 E8000000 		call	_Unwind_Resume
 1323      00
 1324              	.LEHE61:
 1325              	.L88:
 1326 0b88 4889C7   		movq	%rax, %rdi
 1327 0b8b E8000000 		call	__cxa_begin_catch
 1327      00
 1328              	.LEHB62:
 1329 0b90 E8000000 		call	_ZN8UnitTest11CurrentTest7DetailsEv
 1329      00
 1330 0b95 488B08   		movq	(%rax), %rcx
 1331 0b98 488D4590 		leaq	-112(%rbp), %rax
 1332 0b9c BA4B0000 		movl	$75, %edx
 1332      00
 1333 0ba1 4889CE   		movq	%rcx, %rsi
 1334 0ba4 4889C7   		movq	%rax, %rdi
 1335 0ba7 E8000000 		call	_ZN8UnitTest11TestDetailsC1ERKS0_i
 1335      00
  75:testI2C.cpp   **** 		bStatus = bufWriteBlock(&srcData, 0x00000000, expected, 16, NULL);
 1336              		.loc 3 75 0 is_stmt 0 discriminator 1
 1337 0bac E8000000 		call	_ZN8UnitTest11CurrentTest7ResultsEv
 1337      00
 1338 0bb1 488B00   		movq	(%rax), %rax
 1339 0bb4 488D4D90 		leaq	-112(%rbp), %rcx
 1340 0bb8 BA000000 		movl	$.LC3, %edx
 1340      00
 1341 0bbd 4889CE   		movq	%rcx, %rsi
 1342 0bc0 4889C7   		movq	%rax, %rdi
 1343 0bc3 E8000000 		call	_ZN8UnitTest11TestResults13OnTestFailureERKNS_11TestDetailsEPKc
 1343      00
 1344              	.LEHE62:
 1345              	.LEHB63:
 1346 0bc8 E8000000 		call	__cxa_end_catch
 1346      00
 1347              	.LEHE63:
 1348 0bcd E94EFBFF 		jmp	.L60
 1348      FF
 1349              	.L91:
 1350 0bd2 4889C3   		movq	%rax, %rbx
  77:testI2C.cpp   **** 		bStatus = bufWriteBlock(&srcMask, 0x00000000, mask, 16, NULL);
 1351              		.loc 3 77 0 is_stmt 1
 1352 0bd5 E8000000 		call	__cxa_end_catch
 1352      00
 1353 0bda 4889D8   		movq	%rbx, %rax
 1354 0bdd 4889C7   		movq	%rax, %rdi
 1355              	.LEHB64:
 1356 0be0 E8000000 		call	_Unwind_Resume
 1356      00
 1357              	.LEHE64:
 1358              	.L90:
 1359 0be5 4889C7   		movq	%rax, %rdi
 1360 0be8 E8000000 		call	__cxa_begin_catch
 1360      00
 1361              	.LEHB65:
 1362 0bed E8000000 		call	_ZN8UnitTest11CurrentTest7DetailsEv
 1362      00
 1363 0bf2 488B08   		movq	(%rax), %rcx
 1364 0bf5 488D4590 		leaq	-112(%rbp), %rax
 1365 0bf9 BA4D0000 		movl	$77, %edx
 1365      00
 1366 0bfe 4889CE   		movq	%rcx, %rsi
 1367 0c01 4889C7   		movq	%rax, %rdi
 1368 0c04 E8000000 		call	_ZN8UnitTest11TestDetailsC1ERKS0_i
 1368      00
  77:testI2C.cpp   **** 		bStatus = bufWriteBlock(&srcMask, 0x00000000, mask, 16, NULL);
 1369              		.loc 3 77 0 is_stmt 0 discriminator 1
 1370 0c09 E8000000 		call	_ZN8UnitTest11CurrentTest7ResultsEv
 1370      00
 1371 0c0e 488B00   		movq	(%rax), %rax
 1372 0c11 488D4D90 		leaq	-112(%rbp), %rcx
 1373 0c15 BA000000 		movl	$.LC3, %edx
 1373      00
 1374 0c1a 4889CE   		movq	%rcx, %rsi
 1375 0c1d 4889C7   		movq	%rax, %rdi
 1376 0c20 E8000000 		call	_ZN8UnitTest11TestResults13OnTestFailureERKNS_11TestDetailsEPKc
 1376      00
 1377              	.LEHE65:
 1378              	.LEHB66:
 1379 0c25 E8000000 		call	__cxa_end_catch
 1379      00
 1380              	.LEHE66:
 1381 0c2a E962FBFF 		jmp	.L63
 1381      FF
 1382              	.L93:
 1383 0c2f 4889C3   		movq	%rax, %rbx
  79:testI2C.cpp   **** 		iStatus = i2cWritePromRecords(&i2cBuffer, &srcData, &srcMask, NULL);
 1384              		.loc 3 79 0 is_stmt 1
 1385 0c32 E8000000 		call	__cxa_end_catch
 1385      00
 1386 0c37 4889D8   		movq	%rbx, %rax
 1387 0c3a 4889C7   		movq	%rax, %rdi
 1388              	.LEHB67:
 1389 0c3d E8000000 		call	_Unwind_Resume
 1389      00
 1390              	.LEHE67:
 1391              	.L92:
 1392 0c42 4889C7   		movq	%rax, %rdi
 1393 0c45 E8000000 		call	__cxa_begin_catch
 1393      00
 1394              	.LEHB68:
 1395 0c4a E8000000 		call	_ZN8UnitTest11CurrentTest7DetailsEv
 1395      00
 1396 0c4f 488B08   		movq	(%rax), %rcx
 1397 0c52 488D4590 		leaq	-112(%rbp), %rax
 1398 0c56 BA4F0000 		movl	$79, %edx
 1398      00
 1399 0c5b 4889CE   		movq	%rcx, %rsi
 1400 0c5e 4889C7   		movq	%rax, %rdi
 1401 0c61 E8000000 		call	_ZN8UnitTest11TestDetailsC1ERKS0_i
 1401      00
  79:testI2C.cpp   **** 		iStatus = i2cWritePromRecords(&i2cBuffer, &srcData, &srcMask, NULL);
 1402              		.loc 3 79 0 is_stmt 0 discriminator 1
 1403 0c66 E8000000 		call	_ZN8UnitTest11CurrentTest7ResultsEv
 1403      00
 1404 0c6b 488B00   		movq	(%rax), %rax
 1405 0c6e 488D4D90 		leaq	-112(%rbp), %rcx
 1406 0c72 BA000000 		movl	$.LC3, %edx
 1406      00
 1407 0c77 4889CE   		movq	%rcx, %rsi
 1408 0c7a 4889C7   		movq	%rax, %rdi
 1409 0c7d E8000000 		call	_ZN8UnitTest11TestResults13OnTestFailureERKNS_11TestDetailsEPKc
 1409      00
 1410              	.LEHE68:
 1411              	.LEHB69:
 1412 0c82 E8000000 		call	__cxa_end_catch
 1412      00
 1413              	.LEHE69:
 1414 0c87 E976FBFF 		jmp	.L66
 1414      FF
 1415              	.L95:
 1416 0c8c 4889C3   		movq	%rax, %rbx
  81:testI2C.cpp   **** 		iStatus = i2cFinalise(&i2cBuffer, NULL);
 1417              		.loc 3 81 0 is_stmt 1
 1418 0c8f E8000000 		call	__cxa_end_catch
 1418      00
 1419 0c94 4889D8   		movq	%rbx, %rax
 1420 0c97 4889C7   		movq	%rax, %rdi
 1421              	.LEHB70:
 1422 0c9a E8000000 		call	_Unwind_Resume
 1422      00
 1423              	.LEHE70:
 1424              	.L94:
 1425 0c9f 4889C7   		movq	%rax, %rdi
 1426 0ca2 E8000000 		call	__cxa_begin_catch
 1426      00
 1427              	.LEHB71:
 1428 0ca7 E8000000 		call	_ZN8UnitTest11CurrentTest7DetailsEv
 1428      00
 1429 0cac 488B08   		movq	(%rax), %rcx
 1430 0caf 488D4590 		leaq	-112(%rbp), %rax
 1431 0cb3 BA510000 		movl	$81, %edx
 1431      00
 1432 0cb8 4889CE   		movq	%rcx, %rsi
 1433 0cbb 4889C7   		movq	%rax, %rdi
 1434 0cbe E8000000 		call	_ZN8UnitTest11TestDetailsC1ERKS0_i
 1434      00
  81:testI2C.cpp   **** 		iStatus = i2cFinalise(&i2cBuffer, NULL);
 1435              		.loc 3 81 0 is_stmt 0 discriminator 1
 1436 0cc3 E8000000 		call	_ZN8UnitTest11CurrentTest7ResultsEv
 1436      00
 1437 0cc8 488B00   		movq	(%rax), %rax
 1438 0ccb 488D4D90 		leaq	-112(%rbp), %rcx
 1439 0ccf BA000000 		movl	$.LC4, %edx
 1439      00
 1440 0cd4 4889CE   		movq	%rcx, %rsi
 1441 0cd7 4889C7   		movq	%rax, %rdi
 1442 0cda E8000000 		call	_ZN8UnitTest11TestResults13OnTestFailureERKNS_11TestDetailsEPKc
 1442      00
 1443              	.LEHE71:
 1444              	.LEHB72:
 1445 0cdf E8000000 		call	__cxa_end_catch
 1445      00
 1446              	.LEHE72:
 1447 0ce4 E989FBFF 		jmp	.L69
 1447      FF
 1448              	.L97:
 1449 0ce9 4889C3   		movq	%rax, %rbx
  83:testI2C.cpp   **** 		iStatus = i2cReadPromRecords(&dstData, &dstMask, &i2cBuffer, NULL);
 1450              		.loc 3 83 0 is_stmt 1
 1451 0cec E8000000 		call	__cxa_end_catch
 1451      00
 1452 0cf1 4889D8   		movq	%rbx, %rax
 1453 0cf4 4889C7   		movq	%rax, %rdi
 1454              	.LEHB73:
 1455 0cf7 E8000000 		call	_Unwind_Resume
 1455      00
 1456              	.LEHE73:
 1457              	.L96:
 1458 0cfc 4889C7   		movq	%rax, %rdi
 1459 0cff E8000000 		call	__cxa_begin_catch
 1459      00
 1460              	.LEHB74:
 1461 0d04 E8000000 		call	_ZN8UnitTest11CurrentTest7DetailsEv
 1461      00
 1462 0d09 488B08   		movq	(%rax), %rcx
 1463 0d0c 488D4590 		leaq	-112(%rbp), %rax
 1464 0d10 BA530000 		movl	$83, %edx
 1464      00
 1465 0d15 4889CE   		movq	%rcx, %rsi
 1466 0d18 4889C7   		movq	%rax, %rdi
 1467 0d1b E8000000 		call	_ZN8UnitTest11TestDetailsC1ERKS0_i
 1467      00
  83:testI2C.cpp   **** 		iStatus = i2cReadPromRecords(&dstData, &dstMask, &i2cBuffer, NULL);
 1468              		.loc 3 83 0 is_stmt 0 discriminator 1
 1469 0d20 E8000000 		call	_ZN8UnitTest11CurrentTest7ResultsEv
 1469      00
 1470 0d25 488B00   		movq	(%rax), %rax
 1471 0d28 488D4D90 		leaq	-112(%rbp), %rcx
 1472 0d2c BA000000 		movl	$.LC4, %edx
 1472      00
 1473 0d31 4889CE   		movq	%rcx, %rsi
 1474 0d34 4889C7   		movq	%rax, %rdi
 1475 0d37 E8000000 		call	_ZN8UnitTest11TestResults13OnTestFailureERKNS_11TestDetailsEPKc
 1475      00
 1476              	.LEHE74:
 1477              	.LEHB75:
 1478 0d3c E8000000 		call	__cxa_end_catch
 1478      00
 1479              	.LEHE75:
 1480 0d41 E98EFBFF 		jmp	.L72
 1480      FF
 1481              	.L99:
 1482 0d46 4889C3   		movq	%rax, %rbx
  85:testI2C.cpp   **** 		CHECK_ARRAY_EQUAL(expected, dstData.data, 16);
 1483              		.loc 3 85 0 is_stmt 1
 1484 0d49 E8000000 		call	__cxa_end_catch
 1484      00
 1485 0d4e 4889D8   		movq	%rbx, %rax
 1486 0d51 4889C7   		movq	%rax, %rdi
 1487              	.LEHB76:
 1488 0d54 E8000000 		call	_Unwind_Resume
 1488      00
 1489              	.LEHE76:
 1490              	.L98:
 1491 0d59 4889C7   		movq	%rax, %rdi
 1492 0d5c E8000000 		call	__cxa_begin_catch
 1492      00
 1493              	.LEHB77:
 1494 0d61 E8000000 		call	_ZN8UnitTest11CurrentTest7DetailsEv
 1494      00
 1495 0d66 488B08   		movq	(%rax), %rcx
 1496 0d69 488D4590 		leaq	-112(%rbp), %rax
 1497 0d6d BA550000 		movl	$85, %edx
 1497      00
 1498 0d72 4889CE   		movq	%rcx, %rsi
 1499 0d75 4889C7   		movq	%rax, %rdi
 1500 0d78 E8000000 		call	_ZN8UnitTest11TestDetailsC1ERKS0_i
 1500      00
  85:testI2C.cpp   **** 		CHECK_ARRAY_EQUAL(expected, dstData.data, 16);
 1501              		.loc 3 85 0 is_stmt 0 discriminator 1
 1502 0d7d E8000000 		call	_ZN8UnitTest11CurrentTest7ResultsEv
 1502      00
 1503 0d82 488B00   		movq	(%rax), %rax
 1504 0d85 488D4D90 		leaq	-112(%rbp), %rcx
 1505 0d89 BA000000 		movl	$.LC4, %edx
 1505      00
 1506 0d8e 4889CE   		movq	%rcx, %rsi
 1507 0d91 4889C7   		movq	%rax, %rdi
 1508 0d94 E8000000 		call	_ZN8UnitTest11TestResults13OnTestFailureERKNS_11TestDetailsEPKc
 1508      00
 1509              	.LEHE77:
 1510              	.LEHB78:
 1511 0d99 E8000000 		call	__cxa_end_catch
 1511      00
 1512              	.LEHE78:
 1513 0d9e E9A1FBFF 		jmp	.L75
 1513      FF
 1514              	.L101:
 1515 0da3 4889C3   		movq	%rax, %rbx
  86:testI2C.cpp   **** 		bufDestroy(&dstMask);
 1516              		.loc 3 86 0 is_stmt 1
 1517 0da6 E8000000 		call	__cxa_end_catch
 1517      00
 1518 0dab 4889D8   		movq	%rbx, %rax
 1519 0dae 4889C7   		movq	%rax, %rdi
 1520              	.LEHB79:
 1521 0db1 E8000000 		call	_Unwind_Resume
 1521      00
 1522              	.LEHE79:
 1523              	.L100:
 1524 0db6 4889C7   		movq	%rax, %rdi
 1525 0db9 E8000000 		call	__cxa_begin_catch
 1525      00
 1526              	.LEHB80:
 1527 0dbe E8000000 		call	_ZN8UnitTest11CurrentTest7DetailsEv
 1527      00
 1528 0dc3 488B08   		movq	(%rax), %rcx
 1529 0dc6 488D4590 		leaq	-112(%rbp), %rax
 1530 0dca BA560000 		movl	$86, %edx
 1530      00
 1531 0dcf 4889CE   		movq	%rcx, %rsi
 1532 0dd2 4889C7   		movq	%rax, %rdi
 1533 0dd5 E8000000 		call	_ZN8UnitTest11TestDetailsC1ERKS0_i
 1533      00
  86:testI2C.cpp   **** 		bufDestroy(&dstMask);
 1534              		.loc 3 86 0 is_stmt 0 discriminator 1
 1535 0dda E8000000 		call	_ZN8UnitTest11CurrentTest7ResultsEv
 1535      00
 1536 0ddf 488B00   		movq	(%rax), %rax
 1537 0de2 488D4D90 		leaq	-112(%rbp), %rcx
 1538 0de6 BA000000 		movl	$.LC9, %edx
 1538      00
 1539 0deb 4889CE   		movq	%rcx, %rsi
 1540 0dee 4889C7   		movq	%rax, %rdi
 1541 0df1 E8000000 		call	_ZN8UnitTest11TestResults13OnTestFailureERKNS_11TestDetailsEPKc
 1541      00
 1542              	.LEHE80:
 1543              	.LEHB81:
 1544 0df6 E8000000 		call	__cxa_end_catch
 1544      00
 1545              	.LEHE81:
 1546 0dfb E987FBFF 		jmp	.L78
 1546      FF
 1547              	.L102:
 1548              	.LBE9:
 1549              		.loc 3 93 0 is_stmt 1
 1550 0e00 E8000000 		call	__stack_chk_fail
 1550      00
 1551              	.L79:
 1552 0e05 4881C438 		addq	$312, %rsp
 1552      010000
 1553 0e0c 5B       		popq	%rbx
 1554 0e0d 5D       		popq	%rbp
 1555              		.cfi_def_cfa 7, 8
 1556 0e0e C3       		ret
 1557              		.cfi_endproc
 1558              	.LFE1030:
 1559              		.section	.gcc_except_table
 1560              		.align 4
 1561              	.LLSDA1030:
 1562 0088 FF       		.byte	0xff
 1563 0089 03       		.byte	0x3
 1564 008a B402     		.uleb128 .LLSDATT1030-.LLSDATTD1030
 1565              	.LLSDATTD1030:
 1566 008c 01       		.byte	0x1
 1567 008d A902     		.uleb128 .LLSDACSE1030-.LLSDACSB1030
 1568              	.LLSDACSB1030:
 1569 008f F901     		.uleb128 .LEHB27-.LFB1030
 1570 0091 05       		.uleb128 .LEHE27-.LEHB27
 1571 0092 00       		.uleb128 0
 1572 0093 00       		.uleb128 0
 1573 0094 8402     		.uleb128 .LEHB28-.LFB1030
 1574 0096 48       		.uleb128 .LEHE28-.LEHB28
 1575 0097 940C     		.uleb128 .L80-.LFB1030
 1576 0099 01       		.uleb128 0x1
 1577 009a EB02     		.uleb128 .LEHB29-.LFB1030
 1578 009c 23       		.uleb128 .LEHE29-.LEHB29
 1579 009d 00       		.uleb128 0
 1580 009e 00       		.uleb128 0
 1581 009f 9403     		.uleb128 .LEHB30-.LFB1030
 1582 00a1 48       		.uleb128 .LEHE30-.LEHB30
 1583 00a2 F10C     		.uleb128 .L82-.LFB1030
 1584 00a4 01       		.uleb128 0x1
 1585 00a5 F503     		.uleb128 .LEHB31-.LFB1030
 1586 00a7 05       		.uleb128 .LEHE31-.LEHB31
 1587 00a8 00       		.uleb128 0
 1588 00a9 00       		.uleb128 0
 1589 00aa 8004     		.uleb128 .LEHB32-.LFB1030
 1590 00ac 48       		.uleb128 .LEHE32-.LEHB32
 1591 00ad CE0D     		.uleb128 .L84-.LFB1030
 1592 00af 01       		.uleb128 0x1
 1593 00b0 E104     		.uleb128 .LEHB33-.LFB1030
 1594 00b2 05       		.uleb128 .LEHE33-.LEHB33
 1595 00b3 00       		.uleb128 0
 1596 00b4 00       		.uleb128 0
 1597 00b5 EC04     		.uleb128 .LEHB34-.LFB1030
 1598 00b7 48       		.uleb128 .LEHE34-.LEHB34
 1599 00b8 AB0E     		.uleb128 .L86-.LFB1030
 1600 00ba 01       		.uleb128 0x1
 1601 00bb CD05     		.uleb128 .LEHB35-.LFB1030
 1602 00bd 05       		.uleb128 .LEHE35-.LEHB35
 1603 00be 00       		.uleb128 0
 1604 00bf 00       		.uleb128 0
 1605 00c0 D805     		.uleb128 .LEHB36-.LFB1030
 1606 00c2 48       		.uleb128 .LEHE36-.LEHB36
 1607 00c3 880F     		.uleb128 .L88-.LFB1030
 1608 00c5 01       		.uleb128 0x1
 1609 00c6 BE06     		.uleb128 .LEHB37-.LFB1030
 1610 00c8 05       		.uleb128 .LEHE37-.LEHB37
 1611 00c9 00       		.uleb128 0
 1612 00ca 00       		.uleb128 0
 1613 00cb C906     		.uleb128 .LEHB38-.LFB1030
 1614 00cd 48       		.uleb128 .LEHE38-.LEHB38
 1615 00ce E50F     		.uleb128 .L90-.LFB1030
 1616 00d0 01       		.uleb128 0x1
 1617 00d1 AF07     		.uleb128 .LEHB39-.LFB1030
 1618 00d3 05       		.uleb128 .LEHE39-.LEHB39
 1619 00d4 00       		.uleb128 0
 1620 00d5 00       		.uleb128 0
 1621 00d6 BA07     		.uleb128 .LEHB40-.LFB1030
 1622 00d8 48       		.uleb128 .LEHE40-.LEHB40
 1623 00d9 C210     		.uleb128 .L92-.LFB1030
 1624 00db 01       		.uleb128 0x1
 1625 00dc 9F08     		.uleb128 .LEHB41-.LFB1030
 1626 00de 05       		.uleb128 .LEHE41-.LEHB41
 1627 00df 00       		.uleb128 0
 1628 00e0 00       		.uleb128 0
 1629 00e1 AA08     		.uleb128 .LEHB42-.LFB1030
 1630 00e3 48       		.uleb128 .LEHE42-.LEHB42
 1631 00e4 9F11     		.uleb128 .L94-.LFB1030
 1632 00e6 01       		.uleb128 0x1
 1633 00e7 8109     		.uleb128 .LEHB43-.LFB1030
 1634 00e9 05       		.uleb128 .LEHE43-.LEHB43
 1635 00ea 00       		.uleb128 0
 1636 00eb 00       		.uleb128 0
 1637 00ec 8C09     		.uleb128 .LEHB44-.LFB1030
 1638 00ee 48       		.uleb128 .LEHE44-.LEHB44
 1639 00ef FC11     		.uleb128 .L96-.LFB1030
 1640 00f1 01       		.uleb128 0x1
 1641 00f2 F109     		.uleb128 .LEHB45-.LFB1030
 1642 00f4 05       		.uleb128 .LEHE45-.LEHB45
 1643 00f5 00       		.uleb128 0
 1644 00f6 00       		.uleb128 0
 1645 00f7 FC09     		.uleb128 .LEHB46-.LFB1030
 1646 00f9 48       		.uleb128 .LEHE46-.LEHB46
 1647 00fa D912     		.uleb128 .L98-.LFB1030
 1648 00fc 01       		.uleb128 0x1
 1649 00fd C40A     		.uleb128 .LEHB47-.LFB1030
 1650 00ff 43       		.uleb128 .LEHE47-.LEHB47
 1651 0100 B613     		.uleb128 .L100-.LFB1030
 1652 0102 01       		.uleb128 0x1
 1653 0103 910B     		.uleb128 .LEHB48-.LFB1030
 1654 0105 41       		.uleb128 .LEHE48-.LEHB48
 1655 0106 00       		.uleb128 0
 1656 0107 00       		.uleb128 0
 1657 0108 8F0C     		.uleb128 .LEHB49-.LFB1030
 1658 010a 05       		.uleb128 .LEHE49-.LEHB49
 1659 010b 00       		.uleb128 0
 1660 010c 00       		.uleb128 0
 1661 010d 9C0C     		.uleb128 .LEHB50-.LFB1030
 1662 010f 38       		.uleb128 .LEHE50-.LEHB50
 1663 0110 810C     		.uleb128 .L81-.LFB1030
 1664 0112 00       		.uleb128 0
 1665 0113 D40C     		.uleb128 .LEHB51-.LFB1030
 1666 0115 05       		.uleb128 .LEHE51-.LEHB51
 1667 0116 00       		.uleb128 0
 1668 0117 00       		.uleb128 0
 1669 0118 EC0C     		.uleb128 .LEHB52-.LFB1030
 1670 011a 05       		.uleb128 .LEHE52-.LEHB52
 1671 011b 00       		.uleb128 0
 1672 011c 00       		.uleb128 0
 1673 011d F90C     		.uleb128 .LEHB53-.LFB1030
 1674 011f 38       		.uleb128 .LEHE53-.LEHB53
 1675 0120 DE0C     		.uleb128 .L83-.LFB1030
 1676 0122 00       		.uleb128 0
 1677 0123 B10D     		.uleb128 .LEHB54-.LFB1030
 1678 0125 05       		.uleb128 .LEHE54-.LEHB54
 1679 0126 00       		.uleb128 0
 1680 0127 00       		.uleb128 0
 1681 0128 C90D     		.uleb128 .LEHB55-.LFB1030
 1682 012a 05       		.uleb128 .LEHE55-.LEHB55
 1683 012b 00       		.uleb128 0
 1684 012c 00       		.uleb128 0
 1685 012d D60D     		.uleb128 .LEHB56-.LFB1030
 1686 012f 38       		.uleb128 .LEHE56-.LEHB56
 1687 0130 BB0D     		.uleb128 .L85-.LFB1030
 1688 0132 00       		.uleb128 0
 1689 0133 8E0E     		.uleb128 .LEHB57-.LFB1030
 1690 0135 05       		.uleb128 .LEHE57-.LEHB57
 1691 0136 00       		.uleb128 0
 1692 0137 00       		.uleb128 0
 1693 0138 A60E     		.uleb128 .LEHB58-.LFB1030
 1694 013a 05       		.uleb128 .LEHE58-.LEHB58
 1695 013b 00       		.uleb128 0
 1696 013c 00       		.uleb128 0
 1697 013d B30E     		.uleb128 .LEHB59-.LFB1030
 1698 013f 38       		.uleb128 .LEHE59-.LEHB59
 1699 0140 980E     		.uleb128 .L87-.LFB1030
 1700 0142 00       		.uleb128 0
 1701 0143 EB0E     		.uleb128 .LEHB60-.LFB1030
 1702 0145 05       		.uleb128 .LEHE60-.LEHB60
 1703 0146 00       		.uleb128 0
 1704 0147 00       		.uleb128 0
 1705 0148 830F     		.uleb128 .LEHB61-.LFB1030
 1706 014a 05       		.uleb128 .LEHE61-.LEHB61
 1707 014b 00       		.uleb128 0
 1708 014c 00       		.uleb128 0
 1709 014d 900F     		.uleb128 .LEHB62-.LFB1030
 1710 014f 38       		.uleb128 .LEHE62-.LEHB62
 1711 0150 F50E     		.uleb128 .L89-.LFB1030
 1712 0152 00       		.uleb128 0
 1713 0153 C80F     		.uleb128 .LEHB63-.LFB1030
 1714 0155 05       		.uleb128 .LEHE63-.LEHB63
 1715 0156 00       		.uleb128 0
 1716 0157 00       		.uleb128 0
 1717 0158 E00F     		.uleb128 .LEHB64-.LFB1030
 1718 015a 05       		.uleb128 .LEHE64-.LEHB64
 1719 015b 00       		.uleb128 0
 1720 015c 00       		.uleb128 0
 1721 015d ED0F     		.uleb128 .LEHB65-.LFB1030
 1722 015f 38       		.uleb128 .LEHE65-.LEHB65
 1723 0160 D20F     		.uleb128 .L91-.LFB1030
 1724 0162 00       		.uleb128 0
 1725 0163 A510     		.uleb128 .LEHB66-.LFB1030
 1726 0165 05       		.uleb128 .LEHE66-.LEHB66
 1727 0166 00       		.uleb128 0
 1728 0167 00       		.uleb128 0
 1729 0168 BD10     		.uleb128 .LEHB67-.LFB1030
 1730 016a 05       		.uleb128 .LEHE67-.LEHB67
 1731 016b 00       		.uleb128 0
 1732 016c 00       		.uleb128 0
 1733 016d CA10     		.uleb128 .LEHB68-.LFB1030
 1734 016f 38       		.uleb128 .LEHE68-.LEHB68
 1735 0170 AF10     		.uleb128 .L93-.LFB1030
 1736 0172 00       		.uleb128 0
 1737 0173 8211     		.uleb128 .LEHB69-.LFB1030
 1738 0175 05       		.uleb128 .LEHE69-.LEHB69
 1739 0176 00       		.uleb128 0
 1740 0177 00       		.uleb128 0
 1741 0178 9A11     		.uleb128 .LEHB70-.LFB1030
 1742 017a 05       		.uleb128 .LEHE70-.LEHB70
 1743 017b 00       		.uleb128 0
 1744 017c 00       		.uleb128 0
 1745 017d A711     		.uleb128 .LEHB71-.LFB1030
 1746 017f 38       		.uleb128 .LEHE71-.LEHB71
 1747 0180 8C11     		.uleb128 .L95-.LFB1030
 1748 0182 00       		.uleb128 0
 1749 0183 DF11     		.uleb128 .LEHB72-.LFB1030
 1750 0185 05       		.uleb128 .LEHE72-.LEHB72
 1751 0186 00       		.uleb128 0
 1752 0187 00       		.uleb128 0
 1753 0188 F711     		.uleb128 .LEHB73-.LFB1030
 1754 018a 05       		.uleb128 .LEHE73-.LEHB73
 1755 018b 00       		.uleb128 0
 1756 018c 00       		.uleb128 0
 1757 018d 8412     		.uleb128 .LEHB74-.LFB1030
 1758 018f 38       		.uleb128 .LEHE74-.LEHB74
 1759 0190 E911     		.uleb128 .L97-.LFB1030
 1760 0192 00       		.uleb128 0
 1761 0193 BC12     		.uleb128 .LEHB75-.LFB1030
 1762 0195 05       		.uleb128 .LEHE75-.LEHB75
 1763 0196 00       		.uleb128 0
 1764 0197 00       		.uleb128 0
 1765 0198 D412     		.uleb128 .LEHB76-.LFB1030
 1766 019a 05       		.uleb128 .LEHE76-.LEHB76
 1767 019b 00       		.uleb128 0
 1768 019c 00       		.uleb128 0
 1769 019d E112     		.uleb128 .LEHB77-.LFB1030
 1770 019f 38       		.uleb128 .LEHE77-.LEHB77
 1771 01a0 C612     		.uleb128 .L99-.LFB1030
 1772 01a2 00       		.uleb128 0
 1773 01a3 9913     		.uleb128 .LEHB78-.LFB1030
 1774 01a5 05       		.uleb128 .LEHE78-.LEHB78
 1775 01a6 00       		.uleb128 0
 1776 01a7 00       		.uleb128 0
 1777 01a8 B113     		.uleb128 .LEHB79-.LFB1030
 1778 01aa 05       		.uleb128 .LEHE79-.LEHB79
 1779 01ab 00       		.uleb128 0
 1780 01ac 00       		.uleb128 0
 1781 01ad BE13     		.uleb128 .LEHB80-.LFB1030
 1782 01af 38       		.uleb128 .LEHE80-.LEHB80
 1783 01b0 A313     		.uleb128 .L101-.LFB1030
 1784 01b2 00       		.uleb128 0
 1785 01b3 F613     		.uleb128 .LEHB81-.LFB1030
 1786 01b5 05       		.uleb128 .LEHE81-.LEHB81
 1787 01b6 00       		.uleb128 0
 1788 01b7 00       		.uleb128 0
 1789              	.LLSDACSE1030:
 1790 01b8 01       		.byte	0x1
 1791 01b9 00       		.byte	0
 1792 01ba 0000     		.align 4
 1793 01bc 00000000 		.long	0
 1794              	
 1795              	.LLSDATT1030:
 1796              		.text
 1798              		.section	.rodata
 1799              	.LC10:
 1800 01c9 4932435F 		.string	"I2C_testWPRNoInit"
 1800      74657374 
 1800      5750524E 
 1800      6F496E69 
 1800      7400
 1801              		.section	.text._ZN21TestI2C_testWPRNoInitC2Ev,"axG",@progbits,_ZN21TestI2C_testWPRNoInitC5Ev,comda
 1802              		.align 2
 1803              		.weak	_ZN21TestI2C_testWPRNoInitC2Ev
 1805              	_ZN21TestI2C_testWPRNoInitC2Ev:
 1806              	.LFB1032:
  94:testI2C.cpp   **** 
  95:testI2C.cpp   **** TEST(I2C_testWPRNoInit) {
 1807              		.loc 3 95 0
 1808              		.cfi_startproc
 1809 0000 55       		pushq	%rbp
 1810              		.cfi_def_cfa_offset 16
 1811              		.cfi_offset 6, -16
 1812 0001 4889E5   		movq	%rsp, %rbp
 1813              		.cfi_def_cfa_register 6
 1814 0004 4883EC10 		subq	$16, %rsp
 1815 0008 48897DF8 		movq	%rdi, -8(%rbp)
 1816              	.LBB10:
 1817              		.loc 3 95 0
 1818 000c E8000000 		call	_ZN13UnitTestSuite12GetSuiteNameEv
 1818      00
 1819 0011 4889C2   		movq	%rax, %rdx
 1820 0014 488B45F8 		movq	-8(%rbp), %rax
 1821 0018 41B85F00 		movl	$95, %r8d
 1821      0000
 1822 001e B9000000 		movl	$.LC1, %ecx
 1822      00
 1823 0023 BE000000 		movl	$.LC10, %esi
 1823      00
 1824 0028 4889C7   		movq	%rax, %rdi
 1825 002b E8000000 		call	_ZN8UnitTest4TestC2EPKcS2_S2_i
 1825      00
 1826 0030 488B45F8 		movq	-8(%rbp), %rax
 1827 0034 48C70000 		movq	$_ZTV21TestI2C_testWPRNoInit+16, (%rax)
 1827      000000
 1828              	.LBE10:
 1829 003b C9       		leave
 1830              		.cfi_def_cfa 7, 8
 1831 003c C3       		ret
 1832              		.cfi_endproc
 1833              	.LFE1032:
 1835              		.weak	_ZN21TestI2C_testWPRNoInitC1Ev
 1836              		.set	_ZN21TestI2C_testWPRNoInitC1Ev,_ZN21TestI2C_testWPRNoInitC2Ev
 1837              		.globl	testI2C_testWPRNoInitInstance
 1838              		.bss
 1839 0079 00000000 		.align 32
 1839      000000
 1842              	testI2C_testWPRNoInitInstance:
 1843 0080 00000000 		.zero	56
 1843      00000000 
 1843      00000000 
 1843      00000000 
 1843      00000000 
 1844              		.globl	adderI2C_testWPRNoInit
 1847              	adderI2C_testWPRNoInit:
 1848 00b8 00       		.zero	1
 1849              		.section	.rodata
 1850 01db 00000000 		.align 8
 1850      00
 1851              	.LC11:
 1852 01e0 556E6861 		.string	"Unhandled exception in CHECK_EQUAL(I2C_NOT_INITIALISED, iStatus)"
 1852      6E646C65 
 1852      64206578 
 1852      63657074 
 1852      696F6E20 
 1853              		.text
 1854 0e0f 90       		.align 2
 1855              		.globl	_ZNK21TestI2C_testWPRNoInit7RunImplEv
 1857              	_ZNK21TestI2C_testWPRNoInit7RunImplEv:
 1858              	.LFB1034:
 1859              		.loc 3 95 0
 1860              		.cfi_startproc
 1861              		.cfi_personality 0x3,__gxx_personality_v0
 1862              		.cfi_lsda 0x3,.LLSDA1034
 1863 0e10 55       		pushq	%rbp
 1864              		.cfi_def_cfa_offset 16
 1865              		.cfi_offset 6, -16
 1866 0e11 4889E5   		movq	%rsp, %rbp
 1867              		.cfi_def_cfa_register 6
 1868 0e14 53       		pushq	%rbx
 1869 0e15 4883EC68 		subq	$104, %rsp
 1870              		.cfi_offset 3, -24
 1871 0e19 48897D98 		movq	%rdi, -104(%rbp)
 1872              	.LBB11:
  96:testI2C.cpp   **** 	Buffer i2cBuffer;
  97:testI2C.cpp   **** 	I2CStatus iStatus;
  98:testI2C.cpp   **** 	BufferStatus bStatus;
  99:testI2C.cpp   **** 	bStatus = bufInitialise(&i2cBuffer, 8, 0x00, NULL);
 1873              		.loc 3 99 0
 1874 0e1d 488D45B0 		leaq	-80(%rbp), %rax
 1875 0e21 B9000000 		movl	$0, %ecx
 1875      00
 1876 0e26 BA000000 		movl	$0, %edx
 1876      00
 1877 0e2b BE080000 		movl	$8, %esi
 1877      00
 1878 0e30 4889C7   		movq	%rax, %rdi
 1879              	.LEHB82:
 1880 0e33 E8000000 		call	bufInitialise
 1880      00
 1881              	.LEHE82:
 1882 0e38 8945A8   		movl	%eax, -88(%rbp)
 1883              	.LEHB83:
 100:testI2C.cpp   **** 	CHECK_EQUAL(BUF_SUCCESS, bStatus);
 1884              		.loc 3 100 0
 1885 0e3b E8000000 		call	_ZN8UnitTest11CurrentTest7DetailsEv
 1885      00
 1886 0e40 488B08   		movq	(%rax), %rcx
 1887 0e43 488D45D0 		leaq	-48(%rbp), %rax
 1888 0e47 BA640000 		movl	$100, %edx
 1888      00
 1889 0e4c 4889CE   		movq	%rcx, %rsi
 1890 0e4f 4889C7   		movq	%rax, %rdi
 1891 0e52 E8000000 		call	_ZN8UnitTest11TestDetailsC1ERKS0_i
 1891      00
 1892              		.loc 3 100 0 is_stmt 0 discriminator 1
 1893 0e57 C745AC00 		movl	$0, -84(%rbp)
 1893      000000
 1894 0e5e E8000000 		call	_ZN8UnitTest11CurrentTest7ResultsEv
 1894      00
 1895 0e63 488B00   		movq	(%rax), %rax
 1896 0e66 488D4DD0 		leaq	-48(%rbp), %rcx
 1897 0e6a 488D55A8 		leaq	-88(%rbp), %rdx
 1898 0e6e 488D75AC 		leaq	-84(%rbp), %rsi
 1899 0e72 4889C7   		movq	%rax, %rdi
 1900 0e75 E8000000 		call	_ZN8UnitTest10CheckEqualI12BufferStatusS1_EEvRNS_11TestResultsERKT_RKT0_RKNS_11TestDetailsE
 1900      00
 1901              	.LEHE83:
 1902              	.L107:
 101:testI2C.cpp   **** 	iStatus = i2cWritePromRecords(&i2cBuffer, NULL, NULL, NULL);
 1903              		.loc 3 101 0 is_stmt 1
 1904 0e7a 488D45B0 		leaq	-80(%rbp), %rax
 1905 0e7e B9000000 		movl	$0, %ecx
 1905      00
 1906 0e83 BA000000 		movl	$0, %edx
 1906      00
 1907 0e88 BE000000 		movl	$0, %esi
 1907      00
 1908 0e8d 4889C7   		movq	%rax, %rdi
 1909              	.LEHB84:
 1910 0e90 E8000000 		call	i2cWritePromRecords
 1910      00
 1911              	.LEHE84:
 1912 0e95 8945A4   		movl	%eax, -92(%rbp)
 1913              	.LEHB85:
 102:testI2C.cpp   **** 	CHECK_EQUAL(I2C_NOT_INITIALISED, iStatus);
 1914              		.loc 3 102 0
 1915 0e98 E8000000 		call	_ZN8UnitTest11CurrentTest7DetailsEv
 1915      00
 1916 0e9d 488B08   		movq	(%rax), %rcx
 1917 0ea0 488D45D0 		leaq	-48(%rbp), %rax
 1918 0ea4 BA660000 		movl	$102, %edx
 1918      00
 1919 0ea9 4889CE   		movq	%rcx, %rsi
 1920 0eac 4889C7   		movq	%rax, %rdi
 1921 0eaf E8000000 		call	_ZN8UnitTest11TestDetailsC1ERKS0_i
 1921      00
 1922              		.loc 3 102 0 is_stmt 0 discriminator 1
 1923 0eb4 C745AC02 		movl	$2, -84(%rbp)
 1923      000000
 1924 0ebb E8000000 		call	_ZN8UnitTest11CurrentTest7ResultsEv
 1924      00
 1925 0ec0 488B00   		movq	(%rax), %rax
 1926 0ec3 488D4DD0 		leaq	-48(%rbp), %rcx
 1927 0ec7 488D55A4 		leaq	-92(%rbp), %rdx
 1928 0ecb 488D75AC 		leaq	-84(%rbp), %rsi
 1929 0ecf 4889C7   		movq	%rax, %rdi
 1930 0ed2 E8000000 		call	_ZN8UnitTest10CheckEqualI9I2CStatusS1_EEvRNS_11TestResultsERKT_RKT0_RKNS_11TestDetailsE
 1930      00
 1931              	.LEHE85:
 1932              	.L110:
 103:testI2C.cpp   **** 	bufDestroy(&i2cBuffer);
 1933              		.loc 3 103 0 is_stmt 1
 1934 0ed7 488D45B0 		leaq	-80(%rbp), %rax
 1935 0edb 4889C7   		movq	%rax, %rdi
 1936              	.LEHB86:
 1937 0ede E8000000 		call	bufDestroy
 1937      00
 1938              	.LEHE86:
 1939 0ee3 E9BA0000 		jmp	.L115
 1939      00
 1940              	.L112:
 1941 0ee8 4889C3   		movq	%rax, %rbx
 100:testI2C.cpp   **** 	iStatus = i2cWritePromRecords(&i2cBuffer, NULL, NULL, NULL);
 1942              		.loc 3 100 0
 1943 0eeb E8000000 		call	__cxa_end_catch
 1943      00
 1944 0ef0 4889D8   		movq	%rbx, %rax
 1945 0ef3 4889C7   		movq	%rax, %rdi
 1946              	.LEHB87:
 1947 0ef6 E8000000 		call	_Unwind_Resume
 1947      00
 1948              	.LEHE87:
 1949              	.L111:
 1950 0efb 4889C7   		movq	%rax, %rdi
 1951 0efe E8000000 		call	__cxa_begin_catch
 1951      00
 1952              	.LEHB88:
 1953 0f03 E8000000 		call	_ZN8UnitTest11CurrentTest7DetailsEv
 1953      00
 1954 0f08 488B08   		movq	(%rax), %rcx
 1955 0f0b 488D45D0 		leaq	-48(%rbp), %rax
 1956 0f0f BA640000 		movl	$100, %edx
 1956      00
 1957 0f14 4889CE   		movq	%rcx, %rsi
 1958 0f17 4889C7   		movq	%rax, %rdi
 1959 0f1a E8000000 		call	_ZN8UnitTest11TestDetailsC1ERKS0_i
 1959      00
 100:testI2C.cpp   **** 	iStatus = i2cWritePromRecords(&i2cBuffer, NULL, NULL, NULL);
 1960              		.loc 3 100 0 is_stmt 0 discriminator 1
 1961 0f1f E8000000 		call	_ZN8UnitTest11CurrentTest7ResultsEv
 1961      00
 1962 0f24 488B00   		movq	(%rax), %rax
 1963 0f27 488D4DD0 		leaq	-48(%rbp), %rcx
 1964 0f2b BA000000 		movl	$.LC3, %edx
 1964      00
 1965 0f30 4889CE   		movq	%rcx, %rsi
 1966 0f33 4889C7   		movq	%rax, %rdi
 1967 0f36 E8000000 		call	_ZN8UnitTest11TestResults13OnTestFailureERKNS_11TestDetailsEPKc
 1967      00
 1968              	.LEHE88:
 1969              	.LEHB89:
 1970 0f3b E8000000 		call	__cxa_end_catch
 1970      00
 1971              	.LEHE89:
 1972 0f40 E935FFFF 		jmp	.L107
 1972      FF
 1973              	.L114:
 1974 0f45 4889C3   		movq	%rax, %rbx
 102:testI2C.cpp   **** 	CHECK_EQUAL(I2C_NOT_INITIALISED, iStatus);
 1975              		.loc 3 102 0 is_stmt 1
 1976 0f48 E8000000 		call	__cxa_end_catch
 1976      00
 1977 0f4d 4889D8   		movq	%rbx, %rax
 1978 0f50 4889C7   		movq	%rax, %rdi
 1979              	.LEHB90:
 1980 0f53 E8000000 		call	_Unwind_Resume
 1980      00
 1981              	.LEHE90:
 1982              	.L113:
 1983 0f58 4889C7   		movq	%rax, %rdi
 1984 0f5b E8000000 		call	__cxa_begin_catch
 1984      00
 1985              	.LEHB91:
 1986 0f60 E8000000 		call	_ZN8UnitTest11CurrentTest7DetailsEv
 1986      00
 1987 0f65 488B08   		movq	(%rax), %rcx
 1988 0f68 488D45D0 		leaq	-48(%rbp), %rax
 1989 0f6c BA660000 		movl	$102, %edx
 1989      00
 1990 0f71 4889CE   		movq	%rcx, %rsi
 1991 0f74 4889C7   		movq	%rax, %rdi
 1992 0f77 E8000000 		call	_ZN8UnitTest11TestDetailsC1ERKS0_i
 1992      00
 102:testI2C.cpp   **** 	CHECK_EQUAL(I2C_NOT_INITIALISED, iStatus);
 1993              		.loc 3 102 0 is_stmt 0 discriminator 1
 1994 0f7c E8000000 		call	_ZN8UnitTest11CurrentTest7ResultsEv
 1994      00
 1995 0f81 488B00   		movq	(%rax), %rax
 1996 0f84 488D4DD0 		leaq	-48(%rbp), %rcx
 1997 0f88 BA000000 		movl	$.LC11, %edx
 1997      00
 1998 0f8d 4889CE   		movq	%rcx, %rsi
 1999 0f90 4889C7   		movq	%rax, %rdi
 2000 0f93 E8000000 		call	_ZN8UnitTest11TestResults13OnTestFailureERKNS_11TestDetailsEPKc
 2000      00
 2001              	.LEHE91:
 2002              	.LEHB92:
 2003 0f98 E8000000 		call	__cxa_end_catch
 2003      00
 2004              	.LEHE92:
 2005 0f9d E935FFFF 		jmp	.L110
 2005      FF
 2006              	.L115:
 2007              	.LBE11:
 104:testI2C.cpp   **** }
 2008              		.loc 3 104 0 is_stmt 1
 2009 0fa2 4883C468 		addq	$104, %rsp
 2010 0fa6 5B       		popq	%rbx
 2011 0fa7 5D       		popq	%rbp
 2012              		.cfi_def_cfa 7, 8
 2013 0fa8 C3       		ret
 2014              		.cfi_endproc
 2015              	.LFE1034:
 2016              		.section	.gcc_except_table
 2017              		.align 4
 2018              	.LLSDA1034:
 2019 01c0 FF       		.byte	0xff
 2020 01c1 03       		.byte	0x3
 2021 01c2 41       		.uleb128 .LLSDATT1034-.LLSDATTD1034
 2022              	.LLSDATTD1034:
 2023 01c3 01       		.byte	0x1
 2024 01c4 39       		.uleb128 .LLSDACSE1034-.LLSDACSB1034
 2025              	.LLSDACSB1034:
 2026 01c5 23       		.uleb128 .LEHB82-.LFB1034
 2027 01c6 05       		.uleb128 .LEHE82-.LEHB82
 2028 01c7 00       		.uleb128 0
 2029 01c8 00       		.uleb128 0
 2030 01c9 2B       		.uleb128 .LEHB83-.LFB1034
 2031 01ca 3F       		.uleb128 .LEHE83-.LEHB83
 2032 01cb EB01     		.uleb128 .L111-.LFB1034
 2033 01cd 01       		.uleb128 0x1
 2034 01ce 8001     		.uleb128 .LEHB84-.LFB1034
 2035 01d0 05       		.uleb128 .LEHE84-.LEHB84
 2036 01d1 00       		.uleb128 0
 2037 01d2 00       		.uleb128 0
 2038 01d3 8801     		.uleb128 .LEHB85-.LFB1034
 2039 01d5 3F       		.uleb128 .LEHE85-.LEHB85
 2040 01d6 C802     		.uleb128 .L113-.LFB1034
 2041 01d8 01       		.uleb128 0x1
 2042 01d9 CE01     		.uleb128 .LEHB86-.LFB1034
 2043 01db 05       		.uleb128 .LEHE86-.LEHB86
 2044 01dc 00       		.uleb128 0
 2045 01dd 00       		.uleb128 0
 2046 01de E601     		.uleb128 .LEHB87-.LFB1034
 2047 01e0 05       		.uleb128 .LEHE87-.LEHB87
 2048 01e1 00       		.uleb128 0
 2049 01e2 00       		.uleb128 0
 2050 01e3 F301     		.uleb128 .LEHB88-.LFB1034
 2051 01e5 38       		.uleb128 .LEHE88-.LEHB88
 2052 01e6 D801     		.uleb128 .L112-.LFB1034
 2053 01e8 00       		.uleb128 0
 2054 01e9 AB02     		.uleb128 .LEHB89-.LFB1034
 2055 01eb 05       		.uleb128 .LEHE89-.LEHB89
 2056 01ec 00       		.uleb128 0
 2057 01ed 00       		.uleb128 0
 2058 01ee C302     		.uleb128 .LEHB90-.LFB1034
 2059 01f0 05       		.uleb128 .LEHE90-.LEHB90
 2060 01f1 00       		.uleb128 0
 2061 01f2 00       		.uleb128 0
 2062 01f3 D002     		.uleb128 .LEHB91-.LFB1034
 2063 01f5 38       		.uleb128 .LEHE91-.LEHB91
 2064 01f6 B502     		.uleb128 .L114-.LFB1034
 2065 01f8 00       		.uleb128 0
 2066 01f9 8803     		.uleb128 .LEHB92-.LFB1034
 2067 01fb 05       		.uleb128 .LEHE92-.LEHB92
 2068 01fc 00       		.uleb128 0
 2069 01fd 00       		.uleb128 0
 2070              	.LLSDACSE1034:
 2071 01fe 01       		.byte	0x1
 2072 01ff 00       		.byte	0
 2073              		.align 4
 2074 0200 00000000 		.long	0
 2075              	
 2076              	.LLSDATT1034:
 2077              		.text
 2079              		.section	.rodata
 2080              	.LC12:
 2081 0221 4932435F 		.string	"I2C_testFinaliseNoInit"
 2081      74657374 
 2081      46696E61 
 2081      6C697365 
 2081      4E6F496E 
 2082              		.section	.text._ZN26TestI2C_testFinaliseNoInitC2Ev,"axG",@progbits,_ZN26TestI2C_testFinaliseNoInit
 2083              		.align 2
 2084              		.weak	_ZN26TestI2C_testFinaliseNoInitC2Ev
 2086              	_ZN26TestI2C_testFinaliseNoInitC2Ev:
 2087              	.LFB1036:
 105:testI2C.cpp   **** 
 106:testI2C.cpp   **** TEST(I2C_testFinaliseNoInit) {
 2088              		.loc 3 106 0
 2089              		.cfi_startproc
 2090 0000 55       		pushq	%rbp
 2091              		.cfi_def_cfa_offset 16
 2092              		.cfi_offset 6, -16
 2093 0001 4889E5   		movq	%rsp, %rbp
 2094              		.cfi_def_cfa_register 6
 2095 0004 4883EC10 		subq	$16, %rsp
 2096 0008 48897DF8 		movq	%rdi, -8(%rbp)
 2097              	.LBB12:
 2098              		.loc 3 106 0
 2099 000c E8000000 		call	_ZN13UnitTestSuite12GetSuiteNameEv
 2099      00
 2100 0011 4889C2   		movq	%rax, %rdx
 2101 0014 488B45F8 		movq	-8(%rbp), %rax
 2102 0018 41B86A00 		movl	$106, %r8d
 2102      0000
 2103 001e B9000000 		movl	$.LC1, %ecx
 2103      00
 2104 0023 BE000000 		movl	$.LC12, %esi
 2104      00
 2105 0028 4889C7   		movq	%rax, %rdi
 2106 002b E8000000 		call	_ZN8UnitTest4TestC2EPKcS2_S2_i
 2106      00
 2107 0030 488B45F8 		movq	-8(%rbp), %rax
 2108 0034 48C70000 		movq	$_ZTV26TestI2C_testFinaliseNoInit+16, (%rax)
 2108      000000
 2109              	.LBE12:
 2110 003b C9       		leave
 2111              		.cfi_def_cfa 7, 8
 2112 003c C3       		ret
 2113              		.cfi_endproc
 2114              	.LFE1036:
 2116              		.weak	_ZN26TestI2C_testFinaliseNoInitC1Ev
 2117              		.set	_ZN26TestI2C_testFinaliseNoInitC1Ev,_ZN26TestI2C_testFinaliseNoInitC2Ev
 2118              		.globl	testI2C_testFinaliseNoInitInstance
 2119              		.bss
 2120 00b9 00000000 		.align 32
 2120      000000
 2123              	testI2C_testFinaliseNoInitInstance:
 2124 00c0 00000000 		.zero	56
 2124      00000000 
 2124      00000000 
 2124      00000000 
 2124      00000000 
 2125              		.globl	adderI2C_testFinaliseNoInit
 2128              	adderI2C_testFinaliseNoInit:
 2129 00f8 00       		.zero	1
 2130              		.text
 2131 0fa9 90       		.align 2
 2132              		.globl	_ZNK26TestI2C_testFinaliseNoInit7RunImplEv
 2134              	_ZNK26TestI2C_testFinaliseNoInit7RunImplEv:
 2135              	.LFB1038:
 2136              		.loc 3 106 0
 2137              		.cfi_startproc
 2138              		.cfi_personality 0x3,__gxx_personality_v0
 2139              		.cfi_lsda 0x3,.LLSDA1038
 2140 0faa 55       		pushq	%rbp
 2141              		.cfi_def_cfa_offset 16
 2142              		.cfi_offset 6, -16
 2143 0fab 4889E5   		movq	%rsp, %rbp
 2144              		.cfi_def_cfa_register 6
 2145 0fae 53       		pushq	%rbx
 2146 0faf 4883EC68 		subq	$104, %rsp
 2147              		.cfi_offset 3, -24
 2148 0fb3 48897D98 		movq	%rdi, -104(%rbp)
 2149              	.LBB13:
 107:testI2C.cpp   **** 	Buffer buf;
 108:testI2C.cpp   **** 	I2CStatus iStatus;
 109:testI2C.cpp   **** 	BufferStatus bStatus;
 110:testI2C.cpp   **** 	bStatus = bufInitialise(&buf, 8, 0x00, NULL);
 2150              		.loc 3 110 0
 2151 0fb7 488D45B0 		leaq	-80(%rbp), %rax
 2152 0fbb B9000000 		movl	$0, %ecx
 2152      00
 2153 0fc0 BA000000 		movl	$0, %edx
 2153      00
 2154 0fc5 BE080000 		movl	$8, %esi
 2154      00
 2155 0fca 4889C7   		movq	%rax, %rdi
 2156              	.LEHB93:
 2157 0fcd E8000000 		call	bufInitialise
 2157      00
 2158              	.LEHE93:
 2159 0fd2 8945A8   		movl	%eax, -88(%rbp)
 2160              	.LEHB94:
 111:testI2C.cpp   **** 	CHECK_EQUAL(BUF_SUCCESS, bStatus);
 2161              		.loc 3 111 0
 2162 0fd5 E8000000 		call	_ZN8UnitTest11CurrentTest7DetailsEv
 2162      00
 2163 0fda 488B08   		movq	(%rax), %rcx
 2164 0fdd 488D45D0 		leaq	-48(%rbp), %rax
 2165 0fe1 BA6F0000 		movl	$111, %edx
 2165      00
 2166 0fe6 4889CE   		movq	%rcx, %rsi
 2167 0fe9 4889C7   		movq	%rax, %rdi
 2168 0fec E8000000 		call	_ZN8UnitTest11TestDetailsC1ERKS0_i
 2168      00
 2169              		.loc 3 111 0 is_stmt 0 discriminator 1
 2170 0ff1 C745AC00 		movl	$0, -84(%rbp)
 2170      000000
 2171 0ff8 E8000000 		call	_ZN8UnitTest11CurrentTest7ResultsEv
 2171      00
 2172 0ffd 488B00   		movq	(%rax), %rax
 2173 1000 488D4DD0 		leaq	-48(%rbp), %rcx
 2174 1004 488D55A8 		leaq	-88(%rbp), %rdx
 2175 1008 488D75AC 		leaq	-84(%rbp), %rsi
 2176 100c 4889C7   		movq	%rax, %rdi
 2177 100f E8000000 		call	_ZN8UnitTest10CheckEqualI12BufferStatusS1_EEvRNS_11TestResultsERKT_RKT0_RKNS_11TestDetailsE
 2177      00
 2178              	.LEHE94:
 2179              	.L120:
 112:testI2C.cpp   **** 	iStatus = i2cFinalise(&buf, NULL);
 2180              		.loc 3 112 0 is_stmt 1
 2181 1014 488D45B0 		leaq	-80(%rbp), %rax
 2182 1018 BE000000 		movl	$0, %esi
 2182      00
 2183 101d 4889C7   		movq	%rax, %rdi
 2184              	.LEHB95:
 2185 1020 E8000000 		call	i2cFinalise
 2185      00
 2186              	.LEHE95:
 2187 1025 8945A4   		movl	%eax, -92(%rbp)
 2188              	.LEHB96:
 113:testI2C.cpp   **** 	CHECK_EQUAL(I2C_NOT_INITIALISED, iStatus);
 2189              		.loc 3 113 0
 2190 1028 E8000000 		call	_ZN8UnitTest11CurrentTest7DetailsEv
 2190      00
 2191 102d 488B08   		movq	(%rax), %rcx
 2192 1030 488D45D0 		leaq	-48(%rbp), %rax
 2193 1034 BA710000 		movl	$113, %edx
 2193      00
 2194 1039 4889CE   		movq	%rcx, %rsi
 2195 103c 4889C7   		movq	%rax, %rdi
 2196 103f E8000000 		call	_ZN8UnitTest11TestDetailsC1ERKS0_i
 2196      00
 2197              		.loc 3 113 0 is_stmt 0 discriminator 1
 2198 1044 C745AC02 		movl	$2, -84(%rbp)
 2198      000000
 2199 104b E8000000 		call	_ZN8UnitTest11CurrentTest7ResultsEv
 2199      00
 2200 1050 488B00   		movq	(%rax), %rax
 2201 1053 488D4DD0 		leaq	-48(%rbp), %rcx
 2202 1057 488D55A4 		leaq	-92(%rbp), %rdx
 2203 105b 488D75AC 		leaq	-84(%rbp), %rsi
 2204 105f 4889C7   		movq	%rax, %rdi
 2205 1062 E8000000 		call	_ZN8UnitTest10CheckEqualI9I2CStatusS1_EEvRNS_11TestResultsERKT_RKT0_RKNS_11TestDetailsE
 2205      00
 2206              	.LEHE96:
 2207              	.L123:
 114:testI2C.cpp   **** 	bufDestroy(&buf);
 2208              		.loc 3 114 0 is_stmt 1
 2209 1067 488D45B0 		leaq	-80(%rbp), %rax
 2210 106b 4889C7   		movq	%rax, %rdi
 2211              	.LEHB97:
 2212 106e E8000000 		call	bufDestroy
 2212      00
 2213              	.LEHE97:
 2214 1073 E9BA0000 		jmp	.L128
 2214      00
 2215              	.L125:
 2216 1078 4889C3   		movq	%rax, %rbx
 111:testI2C.cpp   **** 	iStatus = i2cFinalise(&buf, NULL);
 2217              		.loc 3 111 0
 2218 107b E8000000 		call	__cxa_end_catch
 2218      00
 2219 1080 4889D8   		movq	%rbx, %rax
 2220 1083 4889C7   		movq	%rax, %rdi
 2221              	.LEHB98:
 2222 1086 E8000000 		call	_Unwind_Resume
 2222      00
 2223              	.LEHE98:
 2224              	.L124:
 2225 108b 4889C7   		movq	%rax, %rdi
 2226 108e E8000000 		call	__cxa_begin_catch
 2226      00
 2227              	.LEHB99:
 2228 1093 E8000000 		call	_ZN8UnitTest11CurrentTest7DetailsEv
 2228      00
 2229 1098 488B08   		movq	(%rax), %rcx
 2230 109b 488D45D0 		leaq	-48(%rbp), %rax
 2231 109f BA6F0000 		movl	$111, %edx
 2231      00
 2232 10a4 4889CE   		movq	%rcx, %rsi
 2233 10a7 4889C7   		movq	%rax, %rdi
 2234 10aa E8000000 		call	_ZN8UnitTest11TestDetailsC1ERKS0_i
 2234      00
 111:testI2C.cpp   **** 	iStatus = i2cFinalise(&buf, NULL);
 2235              		.loc 3 111 0 is_stmt 0 discriminator 1
 2236 10af E8000000 		call	_ZN8UnitTest11CurrentTest7ResultsEv
 2236      00
 2237 10b4 488B00   		movq	(%rax), %rax
 2238 10b7 488D4DD0 		leaq	-48(%rbp), %rcx
 2239 10bb BA000000 		movl	$.LC3, %edx
 2239      00
 2240 10c0 4889CE   		movq	%rcx, %rsi
 2241 10c3 4889C7   		movq	%rax, %rdi
 2242 10c6 E8000000 		call	_ZN8UnitTest11TestResults13OnTestFailureERKNS_11TestDetailsEPKc
 2242      00
 2243              	.LEHE99:
 2244              	.LEHB100:
 2245 10cb E8000000 		call	__cxa_end_catch
 2245      00
 2246              	.LEHE100:
 2247 10d0 E93FFFFF 		jmp	.L120
 2247      FF
 2248              	.L127:
 2249 10d5 4889C3   		movq	%rax, %rbx
 113:testI2C.cpp   **** 	CHECK_EQUAL(I2C_NOT_INITIALISED, iStatus);
 2250              		.loc 3 113 0 is_stmt 1
 2251 10d8 E8000000 		call	__cxa_end_catch
 2251      00
 2252 10dd 4889D8   		movq	%rbx, %rax
 2253 10e0 4889C7   		movq	%rax, %rdi
 2254              	.LEHB101:
 2255 10e3 E8000000 		call	_Unwind_Resume
 2255      00
 2256              	.LEHE101:
 2257              	.L126:
 2258 10e8 4889C7   		movq	%rax, %rdi
 2259 10eb E8000000 		call	__cxa_begin_catch
 2259      00
 2260              	.LEHB102:
 2261 10f0 E8000000 		call	_ZN8UnitTest11CurrentTest7DetailsEv
 2261      00
 2262 10f5 488B08   		movq	(%rax), %rcx
 2263 10f8 488D45D0 		leaq	-48(%rbp), %rax
 2264 10fc BA710000 		movl	$113, %edx
 2264      00
 2265 1101 4889CE   		movq	%rcx, %rsi
 2266 1104 4889C7   		movq	%rax, %rdi
 2267 1107 E8000000 		call	_ZN8UnitTest11TestDetailsC1ERKS0_i
 2267      00
 113:testI2C.cpp   **** 	CHECK_EQUAL(I2C_NOT_INITIALISED, iStatus);
 2268              		.loc 3 113 0 is_stmt 0 discriminator 1
 2269 110c E8000000 		call	_ZN8UnitTest11CurrentTest7ResultsEv
 2269      00
 2270 1111 488B00   		movq	(%rax), %rax
 2271 1114 488D4DD0 		leaq	-48(%rbp), %rcx
 2272 1118 BA000000 		movl	$.LC11, %edx
 2272      00
 2273 111d 4889CE   		movq	%rcx, %rsi
 2274 1120 4889C7   		movq	%rax, %rdi
 2275 1123 E8000000 		call	_ZN8UnitTest11TestResults13OnTestFailureERKNS_11TestDetailsEPKc
 2275      00
 2276              	.LEHE102:
 2277              	.LEHB103:
 2278 1128 E8000000 		call	__cxa_end_catch
 2278      00
 2279              	.LEHE103:
 2280 112d E935FFFF 		jmp	.L123
 2280      FF
 2281              	.L128:
 2282              	.LBE13:
 115:testI2C.cpp   **** }
 2283              		.loc 3 115 0 is_stmt 1
 2284 1132 4883C468 		addq	$104, %rsp
 2285 1136 5B       		popq	%rbx
 2286 1137 5D       		popq	%rbp
 2287              		.cfi_def_cfa 7, 8
 2288 1138 C3       		ret
 2289              		.cfi_endproc
 2290              	.LFE1038:
 2291              		.section	.gcc_except_table
 2292              		.align 4
 2293              	.LLSDA1038:
 2294 0204 FF       		.byte	0xff
 2295 0205 03       		.byte	0x3
 2296 0206 41       		.uleb128 .LLSDATT1038-.LLSDATTD1038
 2297              	.LLSDATTD1038:
 2298 0207 01       		.byte	0x1
 2299 0208 37       		.uleb128 .LLSDACSE1038-.LLSDACSB1038
 2300              	.LLSDACSB1038:
 2301 0209 23       		.uleb128 .LEHB93-.LFB1038
 2302 020a 05       		.uleb128 .LEHE93-.LEHB93
 2303 020b 00       		.uleb128 0
 2304 020c 00       		.uleb128 0
 2305 020d 2B       		.uleb128 .LEHB94-.LFB1038
 2306 020e 3F       		.uleb128 .LEHE94-.LEHB94
 2307 020f E101     		.uleb128 .L124-.LFB1038
 2308 0211 01       		.uleb128 0x1
 2309 0212 76       		.uleb128 .LEHB95-.LFB1038
 2310 0213 05       		.uleb128 .LEHE95-.LEHB95
 2311 0214 00       		.uleb128 0
 2312 0215 00       		.uleb128 0
 2313 0216 7E       		.uleb128 .LEHB96-.LFB1038
 2314 0217 3F       		.uleb128 .LEHE96-.LEHB96
 2315 0218 BE02     		.uleb128 .L126-.LFB1038
 2316 021a 01       		.uleb128 0x1
 2317 021b C401     		.uleb128 .LEHB97-.LFB1038
 2318 021d 05       		.uleb128 .LEHE97-.LEHB97
 2319 021e 00       		.uleb128 0
 2320 021f 00       		.uleb128 0
 2321 0220 DC01     		.uleb128 .LEHB98-.LFB1038
 2322 0222 05       		.uleb128 .LEHE98-.LEHB98
 2323 0223 00       		.uleb128 0
 2324 0224 00       		.uleb128 0
 2325 0225 E901     		.uleb128 .LEHB99-.LFB1038
 2326 0227 38       		.uleb128 .LEHE99-.LEHB99
 2327 0228 CE01     		.uleb128 .L125-.LFB1038
 2328 022a 00       		.uleb128 0
 2329 022b A102     		.uleb128 .LEHB100-.LFB1038
 2330 022d 05       		.uleb128 .LEHE100-.LEHB100
 2331 022e 00       		.uleb128 0
 2332 022f 00       		.uleb128 0
 2333 0230 B902     		.uleb128 .LEHB101-.LFB1038
 2334 0232 05       		.uleb128 .LEHE101-.LEHB101
 2335 0233 00       		.uleb128 0
 2336 0234 00       		.uleb128 0
 2337 0235 C602     		.uleb128 .LEHB102-.LFB1038
 2338 0237 38       		.uleb128 .LEHE102-.LEHB102
 2339 0238 AB02     		.uleb128 .L127-.LFB1038
 2340 023a 00       		.uleb128 0
 2341 023b FE02     		.uleb128 .LEHB103-.LFB1038
 2342 023d 05       		.uleb128 .LEHE103-.LEHB103
 2343 023e 00       		.uleb128 0
 2344 023f 00       		.uleb128 0
 2345              	.LLSDACSE1038:
 2346 0240 01       		.byte	0x1
 2347 0241 00       		.byte	0
 2348 0242 0000     		.align 4
 2349 0244 00000000 		.long	0
 2350              	
 2351              	.LLSDATT1038:
 2352              		.text
 2354              		.section	.text._ZN8UnitTest15MemoryOutStreamD1Ev,"axG",@progbits,_ZN8UnitTest15MemoryOutStreamD1Ev
 2355              		.align 2
 2356              		.weak	_ZN8UnitTest15MemoryOutStreamD1Ev
 2358              	_ZN8UnitTest15MemoryOutStreamD1Ev:
 2359              	.LFB1069:
  13:/home/pandu/Desktop/DigitalLogicDesign/Lab/03-/makestuff/libs/libutpp/MemoryOutStream.h **** {
 2360              		.loc 2 13 0
 2361              		.cfi_startproc
 2362              		.cfi_personality 0x3,__gxx_personality_v0
 2363              		.cfi_lsda 0x3,.LLSDA1069
 2364 0000 55       		pushq	%rbp
 2365              		.cfi_def_cfa_offset 16
 2366              		.cfi_offset 6, -16
 2367 0001 4889E5   		movq	%rsp, %rbp
 2368              		.cfi_def_cfa_register 6
 2369 0004 53       		pushq	%rbx
 2370 0005 4883EC18 		subq	$24, %rsp
 2371              		.cfi_offset 3, -24
 2372 0009 48897DE8 		movq	%rdi, -24(%rbp)
 2373              	.LBB14:
  13:/home/pandu/Desktop/DigitalLogicDesign/Lab/03-/makestuff/libs/libutpp/MemoryOutStream.h **** {
 2374              		.loc 2 13 0
 2375 000d BA000000 		movl	$_ZTVN8UnitTest15MemoryOutStreamE+24, %edx
 2375      00
 2376 0012 488B45E8 		movq	-24(%rbp), %rax
 2377 0016 488910   		movq	%rdx, (%rax)
 2378 0019 BA600000 		movl	$96, %edx
 2378      00
 2379 001e 488B45E8 		movq	-24(%rbp), %rax
 2380 0022 4801C2   		addq	%rax, %rdx
 2381 0025 B8000000 		movl	$_ZTVN8UnitTest15MemoryOutStreamE+64, %eax
 2381      00
 2382 002a 488902   		movq	%rax, (%rdx)
 2383 002d 488B45E8 		movq	-24(%rbp), %rax
 2384 0031 4883C058 		addq	$88, %rax
 2385 0035 4889C7   		movq	%rax, %rdi
 2386              	.LEHB104:
 2387 0038 E8000000 		call	_ZNSsD1Ev
 2387      00
 2388              	.LEHE104:
  13:/home/pandu/Desktop/DigitalLogicDesign/Lab/03-/makestuff/libs/libutpp/MemoryOutStream.h **** {
 2389              		.loc 2 13 0 is_stmt 0 discriminator 10
 2390 003d BA000000 		movl	$_ZTTN8UnitTest15MemoryOutStreamE+8, %edx
 2390      00
 2391 0042 488B45E8 		movq	-24(%rbp), %rax
 2392 0046 4889D6   		movq	%rdx, %rsi
 2393 0049 4889C7   		movq	%rax, %rdi
 2394              	.LEHB105:
 2395 004c E8000000 		call	_ZNSt19basic_ostringstreamIcSt11char_traitsIcESaIcEED2Ev
 2395      00
 2396              	.LEHE105:
  13:/home/pandu/Desktop/DigitalLogicDesign/Lab/03-/makestuff/libs/libutpp/MemoryOutStream.h **** {
 2397              		.loc 2 13 0 discriminator 14
 2398 0051 B8020000 		movl	$2, %eax
 2398      00
 2399 0056 85C0     		testl	%eax, %eax
 2400 0058 7410     		je	.L130
  13:/home/pandu/Desktop/DigitalLogicDesign/Lab/03-/makestuff/libs/libutpp/MemoryOutStream.h **** {
 2401              		.loc 2 13 0 discriminator 15
 2402 005a 488B45E8 		movq	-24(%rbp), %rax
 2403 005e 4883C060 		addq	$96, %rax
 2404 0062 4889C7   		movq	%rax, %rdi
 2405              	.LEHB106:
 2406 0065 E8000000 		call	_ZNSt9basic_iosIcSt11char_traitsIcEED2Ev
 2406      00
 2407              	.LEHE106:
 2408              	.L130:
 2409              	.LBE14:
  13:/home/pandu/Desktop/DigitalLogicDesign/Lab/03-/makestuff/libs/libutpp/MemoryOutStream.h **** {
 2410              		.loc 2 13 0 discriminator 16
 2411 006a B8000000 		movl	$0, %eax
 2411      00
 2412 006f 85C0     		testl	%eax, %eax
 2413 0071 744E     		je	.L137
  13:/home/pandu/Desktop/DigitalLogicDesign/Lab/03-/makestuff/libs/libutpp/MemoryOutStream.h **** {
 2414              		.loc 2 13 0 discriminator 1
 2415 0073 488B45E8 		movq	-24(%rbp), %rax
 2416 0077 4889C7   		movq	%rax, %rdi
 2417 007a E8000000 		call	_ZdlPv
 2417      00
 2418 007f EB40     		jmp	.L137
 2419              	.L135:
 2420 0081 4889C3   		movq	%rax, %rbx
 2421              	.LBB15:
  13:/home/pandu/Desktop/DigitalLogicDesign/Lab/03-/makestuff/libs/libutpp/MemoryOutStream.h **** {
 2422              		.loc 2 13 0
 2423 0084 BA000000 		movl	$_ZTTN8UnitTest15MemoryOutStreamE+8, %edx
 2423      00
 2424 0089 488B45E8 		movq	-24(%rbp), %rax
 2425 008d 4889D6   		movq	%rdx, %rsi
 2426 0090 4889C7   		movq	%rax, %rdi
 2427 0093 E8000000 		call	_ZNSt19basic_ostringstreamIcSt11char_traitsIcESaIcEED2Ev
 2427      00
 2428 0098 EB03     		jmp	.L133
 2429              	.L136:
 2430 009a 4889C3   		movq	%rax, %rbx
 2431              	.L133:
 2432 009d B8020000 		movl	$2, %eax
 2432      00
 2433 00a2 85C0     		testl	%eax, %eax
 2434 00a4 7410     		je	.L134
  13:/home/pandu/Desktop/DigitalLogicDesign/Lab/03-/makestuff/libs/libutpp/MemoryOutStream.h **** {
 2435              		.loc 2 13 0 discriminator 20
 2436 00a6 488B45E8 		movq	-24(%rbp), %rax
 2437 00aa 4883C060 		addq	$96, %rax
 2438 00ae 4889C7   		movq	%rax, %rdi
 2439 00b1 E8000000 		call	_ZNSt9basic_iosIcSt11char_traitsIcEED2Ev
 2439      00
 2440              	.L134:
 2441 00b6 4889D8   		movq	%rbx, %rax
 2442 00b9 4889C7   		movq	%rax, %rdi
 2443              	.LEHB107:
 2444 00bc E8000000 		call	_Unwind_Resume
 2444      00
 2445              	.LEHE107:
 2446              	.L137:
 2447              	.LBE15:
  13:/home/pandu/Desktop/DigitalLogicDesign/Lab/03-/makestuff/libs/libutpp/MemoryOutStream.h **** {
 2448              		.loc 2 13 0
 2449 00c1 4883C418 		addq	$24, %rsp
 2450 00c5 5B       		popq	%rbx
 2451 00c6 5D       		popq	%rbp
 2452              		.cfi_def_cfa 7, 8
 2453 00c7 C3       		ret
 2454              		.cfi_endproc
 2455              	.LFE1069:
 2456              		.section	.gcc_except_table
 2457              	.LLSDA1069:
 2458 0248 FF       		.byte	0xff
 2459 0249 FF       		.byte	0xff
 2460 024a 01       		.byte	0x1
 2461 024b 13       		.uleb128 .LLSDACSE1069-.LLSDACSB1069
 2462              	.LLSDACSB1069:
 2463 024c 38       		.uleb128 .LEHB104-.LFB1069
 2464 024d 05       		.uleb128 .LEHE104-.LEHB104
 2465 024e 8101     		.uleb128 .L135-.LFB1069
 2466 0250 00       		.uleb128 0
 2467 0251 4C       		.uleb128 .LEHB105-.LFB1069
 2468 0252 05       		.uleb128 .LEHE105-.LEHB105
 2469 0253 9A01     		.uleb128 .L136-.LFB1069
 2470 0255 00       		.uleb128 0
 2471 0256 65       		.uleb128 .LEHB106-.LFB1069
 2472 0257 05       		.uleb128 .LEHE106-.LEHB106
 2473 0258 00       		.uleb128 0
 2474 0259 00       		.uleb128 0
 2475 025a BC01     		.uleb128 .LEHB107-.LFB1069
 2476 025c 05       		.uleb128 .LEHE107-.LEHB107
 2477 025d 00       		.uleb128 0
 2478 025e 00       		.uleb128 0
 2479              	.LLSDACSE1069:
 2480              		.section	.text._ZN8UnitTest15MemoryOutStreamD1Ev,"axG",@progbits,_ZN8UnitTest15MemoryOutStreamD1Ev
 2482              		.set	.LTHUNK0,_ZN8UnitTest15MemoryOutStreamD1Ev
 2483              		.weak	_ZTv0_n24_N8UnitTest15MemoryOutStreamD1Ev
 2485              	_ZTv0_n24_N8UnitTest15MemoryOutStreamD1Ev:
 2486              	.LFB1144:
  13:/home/pandu/Desktop/DigitalLogicDesign/Lab/03-/makestuff/libs/libutpp/MemoryOutStream.h **** {
 2487              		.loc 2 13 0 is_stmt 1
 2488              		.cfi_startproc
 2489 00c8 4C8B17   		movq	(%rdi), %r10
 2490 00cb 49037AE8 		addq	-24(%r10), %rdi
 2491 00cf E92CFFFF 		jmp	.LTHUNK0
 2491      FF
 2492              		.cfi_endproc
 2493              	.LFE1144:
 2495              		.section	.text._ZN8UnitTest15MemoryOutStreamD0Ev,"axG",@progbits,_ZN8UnitTest15MemoryOutStreamD0Ev
 2496              		.align 2
 2497              		.weak	_ZN8UnitTest15MemoryOutStreamD0Ev
 2499              	_ZN8UnitTest15MemoryOutStreamD0Ev:
 2500              	.LFB1070:
  13:/home/pandu/Desktop/DigitalLogicDesign/Lab/03-/makestuff/libs/libutpp/MemoryOutStream.h **** {
 2501              		.loc 2 13 0
 2502              		.cfi_startproc
 2503 0000 55       		pushq	%rbp
 2504              		.cfi_def_cfa_offset 16
 2505              		.cfi_offset 6, -16
 2506 0001 4889E5   		movq	%rsp, %rbp
 2507              		.cfi_def_cfa_register 6
 2508 0004 4883EC10 		subq	$16, %rsp
 2509 0008 48897DF8 		movq	%rdi, -8(%rbp)
  13:/home/pandu/Desktop/DigitalLogicDesign/Lab/03-/makestuff/libs/libutpp/MemoryOutStream.h **** {
 2510              		.loc 2 13 0
 2511 000c 488B45F8 		movq	-8(%rbp), %rax
 2512 0010 4889C7   		movq	%rax, %rdi
 2513 0013 E8000000 		call	_ZN8UnitTest15MemoryOutStreamD1Ev
 2513      00
 2514 0018 488B45F8 		movq	-8(%rbp), %rax
 2515 001c 4889C7   		movq	%rax, %rdi
 2516 001f E8000000 		call	_ZdlPv
 2516      00
 2517 0024 C9       		leave
 2518              		.cfi_def_cfa 7, 8
 2519 0025 C3       		ret
 2520              		.cfi_endproc
 2521              	.LFE1070:
 2523              		.set	.LTHUNK1,_ZN8UnitTest15MemoryOutStreamD0Ev
 2524              		.weak	_ZTv0_n24_N8UnitTest15MemoryOutStreamD0Ev
 2526              	_ZTv0_n24_N8UnitTest15MemoryOutStreamD0Ev:
 2527              	.LFB1145:
  13:/home/pandu/Desktop/DigitalLogicDesign/Lab/03-/makestuff/libs/libutpp/MemoryOutStream.h **** {
 2528              		.loc 2 13 0
 2529              		.cfi_startproc
 2530 0026 4C8B17   		movq	(%rdi), %r10
 2531 0029 49037AE8 		addq	-24(%r10), %rdi
 2532 002d EBD1     		jmp	.LTHUNK1
 2533              		.cfi_endproc
 2534              	.LFE1145:
 2536              		.section	.rodata
 2537              	.LC13:
 2538 0238 45787065 		.string	"Expected "
 2538      63746564 
 2538      2000
 2539              	.LC14:
 2540 0242 20627574 		.string	" but was "
 2540      20776173 
 2540      2000
 2541              		.section	.text._ZN8UnitTest10CheckEqualI12BufferStatusS1_EEvRNS_11TestResultsERKT_RKT0_RKNS_11Test
 2542              		.weak	_ZN8UnitTest10CheckEqualI12BufferStatusS1_EEvRNS_11TestResultsERKT_RKT0_RKNS_11TestDetailsE
 2544              	_ZN8UnitTest10CheckEqualI12BufferStatusS1_EEvRNS_11TestResultsERKT_RKT0_RKNS_11TestDetailsE:
 2545              	.LFB1066:
 2546              		.file 4 "/home/pandu/Desktop/DigitalLogicDesign/Lab/03-/makestuff/libs/libutpp/Checks.h"
   1:/home/pandu/Desktop/DigitalLogicDesign/Lab/03-/makestuff/libs/libutpp/Checks.h **** #ifndef UNITTEST_CHECKS_H
   2:/home/pandu/Desktop/DigitalLogicDesign/Lab/03-/makestuff/libs/libutpp/Checks.h **** #define UNITTEST_CHECKS_H
   3:/home/pandu/Desktop/DigitalLogicDesign/Lab/03-/makestuff/libs/libutpp/Checks.h **** 
   4:/home/pandu/Desktop/DigitalLogicDesign/Lab/03-/makestuff/libs/libutpp/Checks.h **** #include "Config.h"
   5:/home/pandu/Desktop/DigitalLogicDesign/Lab/03-/makestuff/libs/libutpp/Checks.h **** #include "TestResults.h"
   6:/home/pandu/Desktop/DigitalLogicDesign/Lab/03-/makestuff/libs/libutpp/Checks.h **** #include "MemoryOutStream.h"
   7:/home/pandu/Desktop/DigitalLogicDesign/Lab/03-/makestuff/libs/libutpp/Checks.h **** 
   8:/home/pandu/Desktop/DigitalLogicDesign/Lab/03-/makestuff/libs/libutpp/Checks.h **** namespace UnitTest {
   9:/home/pandu/Desktop/DigitalLogicDesign/Lab/03-/makestuff/libs/libutpp/Checks.h **** 
  10:/home/pandu/Desktop/DigitalLogicDesign/Lab/03-/makestuff/libs/libutpp/Checks.h **** 
  11:/home/pandu/Desktop/DigitalLogicDesign/Lab/03-/makestuff/libs/libutpp/Checks.h **** template< typename Value >
  12:/home/pandu/Desktop/DigitalLogicDesign/Lab/03-/makestuff/libs/libutpp/Checks.h **** bool Check(Value const value)
  13:/home/pandu/Desktop/DigitalLogicDesign/Lab/03-/makestuff/libs/libutpp/Checks.h **** {
  14:/home/pandu/Desktop/DigitalLogicDesign/Lab/03-/makestuff/libs/libutpp/Checks.h ****     return !!value; // doing double negative to avoid silly VS warnings
  15:/home/pandu/Desktop/DigitalLogicDesign/Lab/03-/makestuff/libs/libutpp/Checks.h **** }
  16:/home/pandu/Desktop/DigitalLogicDesign/Lab/03-/makestuff/libs/libutpp/Checks.h **** 
  17:/home/pandu/Desktop/DigitalLogicDesign/Lab/03-/makestuff/libs/libutpp/Checks.h **** 
  18:/home/pandu/Desktop/DigitalLogicDesign/Lab/03-/makestuff/libs/libutpp/Checks.h **** template< typename Expected, typename Actual >
  19:/home/pandu/Desktop/DigitalLogicDesign/Lab/03-/makestuff/libs/libutpp/Checks.h **** void CheckEqual(TestResults& results, Expected const& expected, Actual const& actual, TestDetails c
 2547              		.loc 4 19 0
 2548              		.cfi_startproc
 2549              		.cfi_personality 0x3,__gxx_personality_v0
 2550              		.cfi_lsda 0x3,.LLSDA1066
 2551 0000 55       		pushq	%rbp
 2552              		.cfi_def_cfa_offset 16
 2553              		.cfi_offset 6, -16
 2554 0001 4889E5   		movq	%rsp, %rbp
 2555              		.cfi_def_cfa_register 6
 2556 0004 4154     		pushq	%r12
 2557 0006 53       		pushq	%rbx
 2558 0007 4881EC90 		subq	$400, %rsp
 2558      010000
 2559              		.cfi_offset 12, -24
 2560              		.cfi_offset 3, -32
 2561 000e 4889BD78 		movq	%rdi, -392(%rbp)
 2561      FEFFFF
 2562 0015 4889B570 		movq	%rsi, -400(%rbp)
 2562      FEFFFF
 2563 001c 48899568 		movq	%rdx, -408(%rbp)
 2563      FEFFFF
 2564 0023 48898D60 		movq	%rcx, -416(%rbp)
 2564      FEFFFF
 2565              	.LBB16:
 2566              	.LBB17:
  20:/home/pandu/Desktop/DigitalLogicDesign/Lab/03-/makestuff/libs/libutpp/Checks.h **** {
  21:/home/pandu/Desktop/DigitalLogicDesign/Lab/03-/makestuff/libs/libutpp/Checks.h ****     if (!(expected == actual))
 2567              		.loc 4 21 0
 2568 002a 488B8570 		movq	-400(%rbp), %rax
 2568      FEFFFF
 2569 0031 8B10     		movl	(%rax), %edx
 2570 0033 488B8568 		movq	-408(%rbp), %rax
 2570      FEFFFF
 2571 003a 8B00     		movl	(%rax), %eax
 2572 003c 39C2     		cmpl	%eax, %edx
 2573 003e 0F84B500 		je	.L144
 2573      0000
 2574              	.LBB18:
  22:/home/pandu/Desktop/DigitalLogicDesign/Lab/03-/makestuff/libs/libutpp/Checks.h ****     {
  23:/home/pandu/Desktop/DigitalLogicDesign/Lab/03-/makestuff/libs/libutpp/Checks.h ****         UnitTest::MemoryOutStream stream;
 2575              		.loc 4 23 0
 2576 0044 488D8580 		leaq	-384(%rbp), %rax
 2576      FEFFFF
 2577 004b 4889C7   		movq	%rax, %rdi
 2578              	.LEHB108:
 2579 004e E8000000 		call	_ZN8UnitTest15MemoryOutStreamC1Ev
 2579      00
 2580              	.LEHE108:
  24:/home/pandu/Desktop/DigitalLogicDesign/Lab/03-/makestuff/libs/libutpp/Checks.h ****         stream << "Expected " << expected << " but was " << actual;
 2581              		.loc 4 24 0
 2582 0053 488B8568 		movq	-408(%rbp), %rax
 2582      FEFFFF
 2583 005a 8B00     		movl	(%rax), %eax
 2584 005c 89C3     		movl	%eax, %ebx
 2585 005e 488B8570 		movq	-400(%rbp), %rax
 2585      FEFFFF
 2586 0065 8B00     		movl	(%rax), %eax
 2587 0067 4189C4   		movl	%eax, %r12d
 2588 006a 488D8580 		leaq	-384(%rbp), %rax
 2588      FEFFFF
 2589 0071 BE000000 		movl	$.LC13, %esi
 2589      00
 2590 0076 4889C7   		movq	%rax, %rdi
 2591              	.LEHB109:
 2592 0079 E8000000 		call	_ZStlsISt11char_traitsIcEERSt13basic_ostreamIcT_ES5_PKc
 2592      00
 2593 007e 4489E6   		movl	%r12d, %esi
 2594 0081 4889C7   		movq	%rax, %rdi
 2595 0084 E8000000 		call	_ZNSolsEi
 2595      00
 2596              		.loc 4 24 0 is_stmt 0 discriminator 1
 2597 0089 BE000000 		movl	$.LC14, %esi
 2597      00
 2598 008e 4889C7   		movq	%rax, %rdi
 2599 0091 E8000000 		call	_ZStlsISt11char_traitsIcEERSt13basic_ostreamIcT_ES5_PKc
 2599      00
 2600 0096 89DE     		movl	%ebx, %esi
 2601 0098 4889C7   		movq	%rax, %rdi
 2602 009b E8000000 		call	_ZNSolsEi
 2602      00
  25:/home/pandu/Desktop/DigitalLogicDesign/Lab/03-/makestuff/libs/libutpp/Checks.h **** 
  26:/home/pandu/Desktop/DigitalLogicDesign/Lab/03-/makestuff/libs/libutpp/Checks.h ****         results.OnTestFailure(details, stream.GetText());
 2603              		.loc 4 26 0 is_stmt 1
 2604 00a0 488D8580 		leaq	-384(%rbp), %rax
 2604      FEFFFF
 2605 00a7 4889C7   		movq	%rax, %rdi
 2606 00aa E8000000 		call	_ZNK8UnitTest15MemoryOutStream7GetTextEv
 2606      00
 2607 00af 4889C2   		movq	%rax, %rdx
 2608 00b2 488B8D60 		movq	-416(%rbp), %rcx
 2608      FEFFFF
 2609 00b9 488B8578 		movq	-392(%rbp), %rax
 2609      FEFFFF
 2610 00c0 4889CE   		movq	%rcx, %rsi
 2611 00c3 4889C7   		movq	%rax, %rdi
 2612 00c6 E8000000 		call	_ZN8UnitTest11TestResults13OnTestFailureERKNS_11TestDetailsEPKc
 2612      00
 2613              	.LEHE109:
 2614              		.loc 4 26 0 is_stmt 0 discriminator 1
 2615 00cb 488D8580 		leaq	-384(%rbp), %rax
 2615      FEFFFF
 2616 00d2 4889C7   		movq	%rax, %rdi
 2617              	.LEHB110:
 2618 00d5 E8000000 		call	_ZN8UnitTest15MemoryOutStreamD1Ev
 2618      00
 2619              	.LEHE110:
 2620              	.LBE18:
 2621 00da EB1D     		jmp	.L144
 2622              	.L143:
 2623 00dc 4889C3   		movq	%rax, %rbx
 2624              	.LBB19:
 2625              		.loc 4 26 0
 2626 00df 488D8580 		leaq	-384(%rbp), %rax
 2626      FEFFFF
 2627 00e6 4889C7   		movq	%rax, %rdi
 2628 00e9 E8000000 		call	_ZN8UnitTest15MemoryOutStreamD1Ev
 2628      00
 2629 00ee 4889D8   		movq	%rbx, %rax
 2630 00f1 4889C7   		movq	%rax, %rdi
 2631              	.LEHB111:
 2632 00f4 E8000000 		call	_Unwind_Resume
 2632      00
 2633              	.LEHE111:
 2634              	.L144:
 2635              	.LBE19:
 2636              	.LBE17:
 2637              	.LBE16:
  27:/home/pandu/Desktop/DigitalLogicDesign/Lab/03-/makestuff/libs/libutpp/Checks.h ****     }
  28:/home/pandu/Desktop/DigitalLogicDesign/Lab/03-/makestuff/libs/libutpp/Checks.h **** }
 2638              		.loc 4 28 0 is_stmt 1
 2639 00f9 4881C490 		addq	$400, %rsp
 2639      010000
 2640 0100 5B       		popq	%rbx
 2641 0101 415C     		popq	%r12
 2642 0103 5D       		popq	%rbp
 2643              		.cfi_def_cfa 7, 8
 2644 0104 C3       		ret
 2645              		.cfi_endproc
 2646              	.LFE1066:
 2647              		.section	.gcc_except_table
 2648              	.LLSDA1066:
 2649 025f FF       		.byte	0xff
 2650 0260 FF       		.byte	0xff
 2651 0261 01       		.byte	0x1
 2652 0262 13       		.uleb128 .LLSDACSE1066-.LLSDACSB1066
 2653              	.LLSDACSB1066:
 2654 0263 4E       		.uleb128 .LEHB108-.LFB1066
 2655 0264 05       		.uleb128 .LEHE108-.LEHB108
 2656 0265 00       		.uleb128 0
 2657 0266 00       		.uleb128 0
 2658 0267 79       		.uleb128 .LEHB109-.LFB1066
 2659 0268 52       		.uleb128 .LEHE109-.LEHB109
 2660 0269 DC01     		.uleb128 .L143-.LFB1066
 2661 026b 00       		.uleb128 0
 2662 026c D501     		.uleb128 .LEHB110-.LFB1066
 2663 026e 05       		.uleb128 .LEHE110-.LEHB110
 2664 026f 00       		.uleb128 0
 2665 0270 00       		.uleb128 0
 2666 0271 F401     		.uleb128 .LEHB111-.LFB1066
 2667 0273 05       		.uleb128 .LEHE111-.LEHB111
 2668 0274 00       		.uleb128 0
 2669 0275 00       		.uleb128 0
 2670              	.LLSDACSE1066:
 2671              		.section	.text._ZN8UnitTest10CheckEqualI12BufferStatusS1_EEvRNS_11TestResultsERKT_RKT0_RKNS_11Test
 2673              		.section	.text._ZN8UnitTest10CheckEqualI9I2CStatusS1_EEvRNS_11TestResultsERKT_RKT0_RKNS_11TestDeta
 2674              		.weak	_ZN8UnitTest10CheckEqualI9I2CStatusS1_EEvRNS_11TestResultsERKT_RKT0_RKNS_11TestDetailsE
 2676              	_ZN8UnitTest10CheckEqualI9I2CStatusS1_EEvRNS_11TestResultsERKT_RKT0_RKNS_11TestDetailsE:
 2677              	.LFB1071:
  19:/home/pandu/Desktop/DigitalLogicDesign/Lab/03-/makestuff/libs/libutpp/Checks.h **** {
 2678              		.loc 4 19 0
 2679              		.cfi_startproc
 2680              		.cfi_personality 0x3,__gxx_personality_v0
 2681              		.cfi_lsda 0x3,.LLSDA1071
 2682 0000 55       		pushq	%rbp
 2683              		.cfi_def_cfa_offset 16
 2684              		.cfi_offset 6, -16
 2685 0001 4889E5   		movq	%rsp, %rbp
 2686              		.cfi_def_cfa_register 6
 2687 0004 4154     		pushq	%r12
 2688 0006 53       		pushq	%rbx
 2689 0007 4881EC90 		subq	$400, %rsp
 2689      010000
 2690              		.cfi_offset 12, -24
 2691              		.cfi_offset 3, -32
 2692 000e 4889BD78 		movq	%rdi, -392(%rbp)
 2692      FEFFFF
 2693 0015 4889B570 		movq	%rsi, -400(%rbp)
 2693      FEFFFF
 2694 001c 48899568 		movq	%rdx, -408(%rbp)
 2694      FEFFFF
 2695 0023 48898D60 		movq	%rcx, -416(%rbp)
 2695      FEFFFF
 2696              	.LBB20:
 2697              	.LBB21:
  21:/home/pandu/Desktop/DigitalLogicDesign/Lab/03-/makestuff/libs/libutpp/Checks.h ****     {
 2698              		.loc 4 21 0
 2699 002a 488B8570 		movq	-400(%rbp), %rax
 2699      FEFFFF
 2700 0031 8B10     		movl	(%rax), %edx
 2701 0033 488B8568 		movq	-408(%rbp), %rax
 2701      FEFFFF
 2702 003a 8B00     		movl	(%rax), %eax
 2703 003c 39C2     		cmpl	%eax, %edx
 2704 003e 0F84B500 		je	.L149
 2704      0000
 2705              	.LBB22:
  23:/home/pandu/Desktop/DigitalLogicDesign/Lab/03-/makestuff/libs/libutpp/Checks.h ****         stream << "Expected " << expected << " but was " << actual;
 2706              		.loc 4 23 0
 2707 0044 488D8580 		leaq	-384(%rbp), %rax
 2707      FEFFFF
 2708 004b 4889C7   		movq	%rax, %rdi
 2709              	.LEHB112:
 2710 004e E8000000 		call	_ZN8UnitTest15MemoryOutStreamC1Ev
 2710      00
 2711              	.LEHE112:
  24:/home/pandu/Desktop/DigitalLogicDesign/Lab/03-/makestuff/libs/libutpp/Checks.h **** 
 2712              		.loc 4 24 0
 2713 0053 488B8568 		movq	-408(%rbp), %rax
 2713      FEFFFF
 2714 005a 8B00     		movl	(%rax), %eax
 2715 005c 89C3     		movl	%eax, %ebx
 2716 005e 488B8570 		movq	-400(%rbp), %rax
 2716      FEFFFF
 2717 0065 8B00     		movl	(%rax), %eax
 2718 0067 4189C4   		movl	%eax, %r12d
 2719 006a 488D8580 		leaq	-384(%rbp), %rax
 2719      FEFFFF
 2720 0071 BE000000 		movl	$.LC13, %esi
 2720      00
 2721 0076 4889C7   		movq	%rax, %rdi
 2722              	.LEHB113:
 2723 0079 E8000000 		call	_ZStlsISt11char_traitsIcEERSt13basic_ostreamIcT_ES5_PKc
 2723      00
 2724 007e 4489E6   		movl	%r12d, %esi
 2725 0081 4889C7   		movq	%rax, %rdi
 2726 0084 E8000000 		call	_ZNSolsEi
 2726      00
  24:/home/pandu/Desktop/DigitalLogicDesign/Lab/03-/makestuff/libs/libutpp/Checks.h **** 
 2727              		.loc 4 24 0 is_stmt 0 discriminator 1
 2728 0089 BE000000 		movl	$.LC14, %esi
 2728      00
 2729 008e 4889C7   		movq	%rax, %rdi
 2730 0091 E8000000 		call	_ZStlsISt11char_traitsIcEERSt13basic_ostreamIcT_ES5_PKc
 2730      00
 2731 0096 89DE     		movl	%ebx, %esi
 2732 0098 4889C7   		movq	%rax, %rdi
 2733 009b E8000000 		call	_ZNSolsEi
 2733      00
  26:/home/pandu/Desktop/DigitalLogicDesign/Lab/03-/makestuff/libs/libutpp/Checks.h ****     }
 2734              		.loc 4 26 0 is_stmt 1
 2735 00a0 488D8580 		leaq	-384(%rbp), %rax
 2735      FEFFFF
 2736 00a7 4889C7   		movq	%rax, %rdi
 2737 00aa E8000000 		call	_ZNK8UnitTest15MemoryOutStream7GetTextEv
 2737      00
 2738 00af 4889C2   		movq	%rax, %rdx
 2739 00b2 488B8D60 		movq	-416(%rbp), %rcx
 2739      FEFFFF
 2740 00b9 488B8578 		movq	-392(%rbp), %rax
 2740      FEFFFF
 2741 00c0 4889CE   		movq	%rcx, %rsi
 2742 00c3 4889C7   		movq	%rax, %rdi
 2743 00c6 E8000000 		call	_ZN8UnitTest11TestResults13OnTestFailureERKNS_11TestDetailsEPKc
 2743      00
 2744              	.LEHE113:
  26:/home/pandu/Desktop/DigitalLogicDesign/Lab/03-/makestuff/libs/libutpp/Checks.h ****     }
 2745              		.loc 4 26 0 is_stmt 0 discriminator 1
 2746 00cb 488D8580 		leaq	-384(%rbp), %rax
 2746      FEFFFF
 2747 00d2 4889C7   		movq	%rax, %rdi
 2748              	.LEHB114:
 2749 00d5 E8000000 		call	_ZN8UnitTest15MemoryOutStreamD1Ev
 2749      00
 2750              	.LEHE114:
 2751              	.LBE22:
 2752 00da EB1D     		jmp	.L149
 2753              	.L148:
 2754 00dc 4889C3   		movq	%rax, %rbx
 2755              	.LBB23:
  26:/home/pandu/Desktop/DigitalLogicDesign/Lab/03-/makestuff/libs/libutpp/Checks.h ****     }
 2756              		.loc 4 26 0
 2757 00df 488D8580 		leaq	-384(%rbp), %rax
 2757      FEFFFF
 2758 00e6 4889C7   		movq	%rax, %rdi
 2759 00e9 E8000000 		call	_ZN8UnitTest15MemoryOutStreamD1Ev
 2759      00
 2760 00ee 4889D8   		movq	%rbx, %rax
 2761 00f1 4889C7   		movq	%rax, %rdi
 2762              	.LEHB115:
 2763 00f4 E8000000 		call	_Unwind_Resume
 2763      00
 2764              	.LEHE115:
 2765              	.L149:
 2766              	.LBE23:
 2767              	.LBE21:
 2768              	.LBE20:
 2769              		.loc 4 28 0 is_stmt 1
 2770 00f9 4881C490 		addq	$400, %rsp
 2770      010000
 2771 0100 5B       		popq	%rbx
 2772 0101 415C     		popq	%r12
 2773 0103 5D       		popq	%rbp
 2774              		.cfi_def_cfa 7, 8
 2775 0104 C3       		ret
 2776              		.cfi_endproc
 2777              	.LFE1071:
 2778              		.section	.gcc_except_table
 2779              	.LLSDA1071:
 2780 0276 FF       		.byte	0xff
 2781 0277 FF       		.byte	0xff
 2782 0278 01       		.byte	0x1
 2783 0279 13       		.uleb128 .LLSDACSE1071-.LLSDACSB1071
 2784              	.LLSDACSB1071:
 2785 027a 4E       		.uleb128 .LEHB112-.LFB1071
 2786 027b 05       		.uleb128 .LEHE112-.LEHB112
 2787 027c 00       		.uleb128 0
 2788 027d 00       		.uleb128 0
 2789 027e 79       		.uleb128 .LEHB113-.LFB1071
 2790 027f 52       		.uleb128 .LEHE113-.LEHB113
 2791 0280 DC01     		.uleb128 .L148-.LFB1071
 2792 0282 00       		.uleb128 0
 2793 0283 D501     		.uleb128 .LEHB114-.LFB1071
 2794 0285 05       		.uleb128 .LEHE114-.LEHB114
 2795 0286 00       		.uleb128 0
 2796 0287 00       		.uleb128 0
 2797 0288 F401     		.uleb128 .LEHB115-.LFB1071
 2798 028a 05       		.uleb128 .LEHE115-.LEHB115
 2799 028b 00       		.uleb128 0
 2800 028c 00       		.uleb128 0
 2801              	.LLSDACSE1071:
 2802              		.section	.text._ZN8UnitTest10CheckEqualI9I2CStatusS1_EEvRNS_11TestResultsERKT_RKT0_RKNS_11TestDeta
 2804              		.section	.text._ZN8UnitTest10CheckEqualImmEEvRNS_11TestResultsERKT_RKT0_RKNS_11TestDetailsE,"axG",
 2805              		.weak	_ZN8UnitTest10CheckEqualImmEEvRNS_11TestResultsERKT_RKT0_RKNS_11TestDetailsE
 2807              	_ZN8UnitTest10CheckEqualImmEEvRNS_11TestResultsERKT_RKT0_RKNS_11TestDetailsE:
 2808              	.LFB1072:
  19:/home/pandu/Desktop/DigitalLogicDesign/Lab/03-/makestuff/libs/libutpp/Checks.h **** {
 2809              		.loc 4 19 0
 2810              		.cfi_startproc
 2811              		.cfi_personality 0x3,__gxx_personality_v0
 2812              		.cfi_lsda 0x3,.LLSDA1072
 2813 0000 55       		pushq	%rbp
 2814              		.cfi_def_cfa_offset 16
 2815              		.cfi_offset 6, -16
 2816 0001 4889E5   		movq	%rsp, %rbp
 2817              		.cfi_def_cfa_register 6
 2818 0004 4154     		pushq	%r12
 2819 0006 53       		pushq	%rbx
 2820 0007 4881EC90 		subq	$400, %rsp
 2820      010000
 2821              		.cfi_offset 12, -24
 2822              		.cfi_offset 3, -32
 2823 000e 4889BD78 		movq	%rdi, -392(%rbp)
 2823      FEFFFF
 2824 0015 4889B570 		movq	%rsi, -400(%rbp)
 2824      FEFFFF
 2825 001c 48899568 		movq	%rdx, -408(%rbp)
 2825      FEFFFF
 2826 0023 48898D60 		movq	%rcx, -416(%rbp)
 2826      FEFFFF
 2827              	.LBB24:
 2828              	.LBB25:
  21:/home/pandu/Desktop/DigitalLogicDesign/Lab/03-/makestuff/libs/libutpp/Checks.h ****     {
 2829              		.loc 4 21 0
 2830 002a 488B8570 		movq	-400(%rbp), %rax
 2830      FEFFFF
 2831 0031 488B10   		movq	(%rax), %rdx
 2832 0034 488B8568 		movq	-408(%rbp), %rax
 2832      FEFFFF
 2833 003b 488B00   		movq	(%rax), %rax
 2834 003e 4839C2   		cmpq	%rax, %rdx
 2835 0041 0F84B300 		je	.L154
 2835      0000
 2836              	.LBB26:
  23:/home/pandu/Desktop/DigitalLogicDesign/Lab/03-/makestuff/libs/libutpp/Checks.h ****         stream << "Expected " << expected << " but was " << actual;
 2837              		.loc 4 23 0
 2838 0047 488D8580 		leaq	-384(%rbp), %rax
 2838      FEFFFF
 2839 004e 4889C7   		movq	%rax, %rdi
 2840              	.LEHB116:
 2841 0051 E8000000 		call	_ZN8UnitTest15MemoryOutStreamC1Ev
 2841      00
 2842              	.LEHE116:
  24:/home/pandu/Desktop/DigitalLogicDesign/Lab/03-/makestuff/libs/libutpp/Checks.h **** 
 2843              		.loc 4 24 0
 2844 0056 488B8568 		movq	-408(%rbp), %rax
 2844      FEFFFF
 2845 005d 488B18   		movq	(%rax), %rbx
 2846 0060 488B8570 		movq	-400(%rbp), %rax
 2846      FEFFFF
 2847 0067 4C8B20   		movq	(%rax), %r12
 2848 006a 488D8580 		leaq	-384(%rbp), %rax
 2848      FEFFFF
 2849 0071 BE000000 		movl	$.LC13, %esi
 2849      00
 2850 0076 4889C7   		movq	%rax, %rdi
 2851              	.LEHB117:
 2852 0079 E8000000 		call	_ZStlsISt11char_traitsIcEERSt13basic_ostreamIcT_ES5_PKc
 2852      00
 2853 007e 4C89E6   		movq	%r12, %rsi
 2854 0081 4889C7   		movq	%rax, %rdi
 2855 0084 E8000000 		call	_ZNSolsEm
 2855      00
  24:/home/pandu/Desktop/DigitalLogicDesign/Lab/03-/makestuff/libs/libutpp/Checks.h **** 
 2856              		.loc 4 24 0 is_stmt 0 discriminator 1
 2857 0089 BE000000 		movl	$.LC14, %esi
 2857      00
 2858 008e 4889C7   		movq	%rax, %rdi
 2859 0091 E8000000 		call	_ZStlsISt11char_traitsIcEERSt13basic_ostreamIcT_ES5_PKc
 2859      00
 2860 0096 4889DE   		movq	%rbx, %rsi
 2861 0099 4889C7   		movq	%rax, %rdi
 2862 009c E8000000 		call	_ZNSolsEm
 2862      00
  26:/home/pandu/Desktop/DigitalLogicDesign/Lab/03-/makestuff/libs/libutpp/Checks.h ****     }
 2863              		.loc 4 26 0 is_stmt 1
 2864 00a1 488D8580 		leaq	-384(%rbp), %rax
 2864      FEFFFF
 2865 00a8 4889C7   		movq	%rax, %rdi
 2866 00ab E8000000 		call	_ZNK8UnitTest15MemoryOutStream7GetTextEv
 2866      00
 2867 00b0 4889C2   		movq	%rax, %rdx
 2868 00b3 488B8D60 		movq	-416(%rbp), %rcx
 2868      FEFFFF
 2869 00ba 488B8578 		movq	-392(%rbp), %rax
 2869      FEFFFF
 2870 00c1 4889CE   		movq	%rcx, %rsi
 2871 00c4 4889C7   		movq	%rax, %rdi
 2872 00c7 E8000000 		call	_ZN8UnitTest11TestResults13OnTestFailureERKNS_11TestDetailsEPKc
 2872      00
 2873              	.LEHE117:
  26:/home/pandu/Desktop/DigitalLogicDesign/Lab/03-/makestuff/libs/libutpp/Checks.h ****     }
 2874              		.loc 4 26 0 is_stmt 0 discriminator 1
 2875 00cc 488D8580 		leaq	-384(%rbp), %rax
 2875      FEFFFF
 2876 00d3 4889C7   		movq	%rax, %rdi
 2877              	.LEHB118:
 2878 00d6 E8000000 		call	_ZN8UnitTest15MemoryOutStreamD1Ev
 2878      00
 2879              	.LEHE118:
 2880              	.LBE26:
 2881 00db EB1D     		jmp	.L154
 2882              	.L153:
 2883 00dd 4889C3   		movq	%rax, %rbx
 2884              	.LBB27:
  26:/home/pandu/Desktop/DigitalLogicDesign/Lab/03-/makestuff/libs/libutpp/Checks.h ****     }
 2885              		.loc 4 26 0
 2886 00e0 488D8580 		leaq	-384(%rbp), %rax
 2886      FEFFFF
 2887 00e7 4889C7   		movq	%rax, %rdi
 2888 00ea E8000000 		call	_ZN8UnitTest15MemoryOutStreamD1Ev
 2888      00
 2889 00ef 4889D8   		movq	%rbx, %rax
 2890 00f2 4889C7   		movq	%rax, %rdi
 2891              	.LEHB119:
 2892 00f5 E8000000 		call	_Unwind_Resume
 2892      00
 2893              	.LEHE119:
 2894              	.L154:
 2895              	.LBE27:
 2896              	.LBE25:
 2897              	.LBE24:
 2898              		.loc 4 28 0 is_stmt 1
 2899 00fa 4881C490 		addq	$400, %rsp
 2899      010000
 2900 0101 5B       		popq	%rbx
 2901 0102 415C     		popq	%r12
 2902 0104 5D       		popq	%rbp
 2903              		.cfi_def_cfa 7, 8
 2904 0105 C3       		ret
 2905              		.cfi_endproc
 2906              	.LFE1072:
 2907              		.section	.gcc_except_table
 2908              	.LLSDA1072:
 2909 028d FF       		.byte	0xff
 2910 028e FF       		.byte	0xff
 2911 028f 01       		.byte	0x1
 2912 0290 13       		.uleb128 .LLSDACSE1072-.LLSDACSB1072
 2913              	.LLSDACSB1072:
 2914 0291 51       		.uleb128 .LEHB116-.LFB1072
 2915 0292 05       		.uleb128 .LEHE116-.LEHB116
 2916 0293 00       		.uleb128 0
 2917 0294 00       		.uleb128 0
 2918 0295 79       		.uleb128 .LEHB117-.LFB1072
 2919 0296 53       		.uleb128 .LEHE117-.LEHB117
 2920 0297 DD01     		.uleb128 .L153-.LFB1072
 2921 0299 00       		.uleb128 0
 2922 029a D601     		.uleb128 .LEHB118-.LFB1072
 2923 029c 05       		.uleb128 .LEHE118-.LEHB118
 2924 029d 00       		.uleb128 0
 2925 029e 00       		.uleb128 0
 2926 029f F501     		.uleb128 .LEHB119-.LFB1072
 2927 02a1 05       		.uleb128 .LEHE119-.LEHB119
 2928 02a2 00       		.uleb128 0
 2929 02a3 00       		.uleb128 0
 2930              	.LLSDACSE1072:
 2931              		.section	.text._ZN8UnitTest10CheckEqualImmEEvRNS_11TestResultsERKT_RKT0_RKNS_11TestDetailsE,"axG",
 2933              		.section	.rodata
 2934              	.LC15:
 2935 024c 45787065 		.string	"Expected [ "
 2935      63746564 
 2935      205B2000 
 2936              	.LC16:
 2937 0258 2000     		.string	" "
 2938              	.LC17:
 2939 025a 5D206275 		.string	"] but was [ "
 2939      74207761 
 2939      73205B20 
 2939      00
 2940              	.LC18:
 2941 0267 5D00     		.string	"]"
 2942              		.section	.text._ZN8UnitTest15CheckArrayEqualIA13_hPhEEvRNS_11TestResultsERKT_RKT0_iRKNS_11TestDeta
 2943              		.weak	_ZN8UnitTest15CheckArrayEqualIA13_hPhEEvRNS_11TestResultsERKT_RKT0_iRKNS_11TestDetailsE
 2945              	_ZN8UnitTest15CheckArrayEqualIA13_hPhEEvRNS_11TestResultsERKT_RKT0_iRKNS_11TestDetailsE:
 2946              	.LFB1073:
  29:/home/pandu/Desktop/DigitalLogicDesign/Lab/03-/makestuff/libs/libutpp/Checks.h **** 
  30:/home/pandu/Desktop/DigitalLogicDesign/Lab/03-/makestuff/libs/libutpp/Checks.h **** void CheckEqual(TestResults& results, char const* expected, char const* actual, TestDetails const& 
  31:/home/pandu/Desktop/DigitalLogicDesign/Lab/03-/makestuff/libs/libutpp/Checks.h **** 
  32:/home/pandu/Desktop/DigitalLogicDesign/Lab/03-/makestuff/libs/libutpp/Checks.h **** void CheckEqual(TestResults& results, char* expected, char* actual, TestDetails const& details);
  33:/home/pandu/Desktop/DigitalLogicDesign/Lab/03-/makestuff/libs/libutpp/Checks.h **** 
  34:/home/pandu/Desktop/DigitalLogicDesign/Lab/03-/makestuff/libs/libutpp/Checks.h **** void CheckEqual(TestResults& results, char* expected, char const* actual, TestDetails const& detail
  35:/home/pandu/Desktop/DigitalLogicDesign/Lab/03-/makestuff/libs/libutpp/Checks.h **** 
  36:/home/pandu/Desktop/DigitalLogicDesign/Lab/03-/makestuff/libs/libutpp/Checks.h **** void CheckEqual(TestResults& results, char const* expected, char* actual, TestDetails const& detail
  37:/home/pandu/Desktop/DigitalLogicDesign/Lab/03-/makestuff/libs/libutpp/Checks.h **** 
  38:/home/pandu/Desktop/DigitalLogicDesign/Lab/03-/makestuff/libs/libutpp/Checks.h **** template< typename Expected, typename Actual, typename Tolerance >
  39:/home/pandu/Desktop/DigitalLogicDesign/Lab/03-/makestuff/libs/libutpp/Checks.h **** bool AreClose(Expected const& expected, Actual const& actual, Tolerance const& tolerance)
  40:/home/pandu/Desktop/DigitalLogicDesign/Lab/03-/makestuff/libs/libutpp/Checks.h **** {
  41:/home/pandu/Desktop/DigitalLogicDesign/Lab/03-/makestuff/libs/libutpp/Checks.h ****     return (actual >= (expected - tolerance)) && (actual <= (expected + tolerance));
  42:/home/pandu/Desktop/DigitalLogicDesign/Lab/03-/makestuff/libs/libutpp/Checks.h **** }
  43:/home/pandu/Desktop/DigitalLogicDesign/Lab/03-/makestuff/libs/libutpp/Checks.h **** 
  44:/home/pandu/Desktop/DigitalLogicDesign/Lab/03-/makestuff/libs/libutpp/Checks.h **** template< typename Expected, typename Actual, typename Tolerance >
  45:/home/pandu/Desktop/DigitalLogicDesign/Lab/03-/makestuff/libs/libutpp/Checks.h **** void CheckClose(TestResults& results, Expected const& expected, Actual const& actual, Tolerance con
  46:/home/pandu/Desktop/DigitalLogicDesign/Lab/03-/makestuff/libs/libutpp/Checks.h ****                 TestDetails const& details)
  47:/home/pandu/Desktop/DigitalLogicDesign/Lab/03-/makestuff/libs/libutpp/Checks.h **** {
  48:/home/pandu/Desktop/DigitalLogicDesign/Lab/03-/makestuff/libs/libutpp/Checks.h ****     if (!AreClose(expected, actual, tolerance))
  49:/home/pandu/Desktop/DigitalLogicDesign/Lab/03-/makestuff/libs/libutpp/Checks.h ****     { 
  50:/home/pandu/Desktop/DigitalLogicDesign/Lab/03-/makestuff/libs/libutpp/Checks.h ****         UnitTest::MemoryOutStream stream;
  51:/home/pandu/Desktop/DigitalLogicDesign/Lab/03-/makestuff/libs/libutpp/Checks.h ****         stream << "Expected " << expected << " +/- " << tolerance << " but was " << actual;
  52:/home/pandu/Desktop/DigitalLogicDesign/Lab/03-/makestuff/libs/libutpp/Checks.h **** 
  53:/home/pandu/Desktop/DigitalLogicDesign/Lab/03-/makestuff/libs/libutpp/Checks.h ****         results.OnTestFailure(details, stream.GetText());
  54:/home/pandu/Desktop/DigitalLogicDesign/Lab/03-/makestuff/libs/libutpp/Checks.h ****     }
  55:/home/pandu/Desktop/DigitalLogicDesign/Lab/03-/makestuff/libs/libutpp/Checks.h **** }
  56:/home/pandu/Desktop/DigitalLogicDesign/Lab/03-/makestuff/libs/libutpp/Checks.h **** 
  57:/home/pandu/Desktop/DigitalLogicDesign/Lab/03-/makestuff/libs/libutpp/Checks.h **** 
  58:/home/pandu/Desktop/DigitalLogicDesign/Lab/03-/makestuff/libs/libutpp/Checks.h **** template< typename Expected, typename Actual >
  59:/home/pandu/Desktop/DigitalLogicDesign/Lab/03-/makestuff/libs/libutpp/Checks.h **** void CheckArrayEqual(TestResults& results, Expected const& expected, Actual const& actual,
 2947              		.loc 4 59 0
 2948              		.cfi_startproc
 2949              		.cfi_personality 0x3,__gxx_personality_v0
 2950              		.cfi_lsda 0x3,.LLSDA1073
 2951 0000 55       		pushq	%rbp
 2952              		.cfi_def_cfa_offset 16
 2953              		.cfi_offset 6, -16
 2954 0001 4889E5   		movq	%rsp, %rbp
 2955              		.cfi_def_cfa_register 6
 2956 0004 53       		pushq	%rbx
 2957 0005 4881ECB8 		subq	$440, %rsp
 2957      010000
 2958              		.cfi_offset 3, -24
 2959 000c 4889BD68 		movq	%rdi, -408(%rbp)
 2959      FEFFFF
 2960 0013 4889B560 		movq	%rsi, -416(%rbp)
 2960      FEFFFF
 2961 001a 48899558 		movq	%rdx, -424(%rbp)
 2961      FEFFFF
 2962 0021 898D54FE 		movl	%ecx, -428(%rbp)
 2962      FFFF
 2963 0027 4C898548 		movq	%r8, -440(%rbp)
 2963      FEFFFF
 2964              	.LBB28:
  60:/home/pandu/Desktop/DigitalLogicDesign/Lab/03-/makestuff/libs/libutpp/Checks.h ****                 int const count, TestDetails const& details)
  61:/home/pandu/Desktop/DigitalLogicDesign/Lab/03-/makestuff/libs/libutpp/Checks.h **** {
  62:/home/pandu/Desktop/DigitalLogicDesign/Lab/03-/makestuff/libs/libutpp/Checks.h ****     bool equal = true;
 2965              		.loc 4 62 0
 2966 002e C68573FE 		movb	$1, -397(%rbp)
 2966      FFFF01
 2967              	.LBB29:
  63:/home/pandu/Desktop/DigitalLogicDesign/Lab/03-/makestuff/libs/libutpp/Checks.h ****     for (int i = 0; i < count; ++i)
 2968              		.loc 4 63 0
 2969 0035 C78574FE 		movl	$0, -396(%rbp)
 2969      FFFF0000 
 2969      0000
 2970 003f EB4E     		jmp	.L156
 2971              	.L157:
  64:/home/pandu/Desktop/DigitalLogicDesign/Lab/03-/makestuff/libs/libutpp/Checks.h ****         equal &= (expected[i] == actual[i]);
 2972              		.loc 4 64 0 discriminator 2
 2973 0041 0FB68D73 		movzbl	-397(%rbp), %ecx
 2973      FEFFFF
 2974 0048 488B9560 		movq	-416(%rbp), %rdx
 2974      FEFFFF
 2975 004f 8B8574FE 		movl	-396(%rbp), %eax
 2975      FFFF
 2976 0055 4898     		cltq
 2977 0057 0FB61402 		movzbl	(%rdx,%rax), %edx
 2978 005b 488B8558 		movq	-424(%rbp), %rax
 2978      FEFFFF
 2979 0062 488B30   		movq	(%rax), %rsi
 2980 0065 8B8574FE 		movl	-396(%rbp), %eax
 2980      FFFF
 2981 006b 4898     		cltq
 2982 006d 4801F0   		addq	%rsi, %rax
 2983 0070 0FB600   		movzbl	(%rax), %eax
 2984 0073 38C2     		cmpb	%al, %dl
 2985 0075 0F94C0   		sete	%al
 2986 0078 0FB6C0   		movzbl	%al, %eax
 2987 007b 21C8     		andl	%ecx, %eax
 2988 007d 85C0     		testl	%eax, %eax
 2989 007f 0F95C0   		setne	%al
 2990 0082 888573FE 		movb	%al, -397(%rbp)
 2990      FFFF
  63:/home/pandu/Desktop/DigitalLogicDesign/Lab/03-/makestuff/libs/libutpp/Checks.h ****     for (int i = 0; i < count; ++i)
 2991              		.loc 4 63 0 discriminator 2
 2992 0088 838574FE 		addl	$1, -396(%rbp)
 2992      FFFF01
 2993              	.L156:
  63:/home/pandu/Desktop/DigitalLogicDesign/Lab/03-/makestuff/libs/libutpp/Checks.h ****     for (int i = 0; i < count; ++i)
 2994              		.loc 4 63 0 is_stmt 0 discriminator 1
 2995 008f 8B8574FE 		movl	-396(%rbp), %eax
 2995      FFFF
 2996 0095 3B8554FE 		cmpl	-428(%rbp), %eax
 2996      FFFF
 2997 009b 7CA4     		jl	.L157
 2998              	.LBE29:
 2999              	.LBB30:
  65:/home/pandu/Desktop/DigitalLogicDesign/Lab/03-/makestuff/libs/libutpp/Checks.h **** 
  66:/home/pandu/Desktop/DigitalLogicDesign/Lab/03-/makestuff/libs/libutpp/Checks.h ****     if (!equal)
 3000              		.loc 4 66 0 is_stmt 1
 3001 009d 0FB68573 		movzbl	-397(%rbp), %eax
 3001      FEFFFF
 3002 00a4 83F001   		xorl	$1, %eax
 3003 00a7 84C0     		testb	%al, %al
 3004 00a9 0F845301 		je	.L165
 3004      0000
 3005              	.LBB31:
  67:/home/pandu/Desktop/DigitalLogicDesign/Lab/03-/makestuff/libs/libutpp/Checks.h ****     {
  68:/home/pandu/Desktop/DigitalLogicDesign/Lab/03-/makestuff/libs/libutpp/Checks.h ****         UnitTest::MemoryOutStream stream;
 3006              		.loc 4 68 0
 3007 00af 488D8580 		leaq	-384(%rbp), %rax
 3007      FEFFFF
 3008 00b6 4889C7   		movq	%rax, %rdi
 3009              	.LEHB120:
 3010 00b9 E8000000 		call	_ZN8UnitTest15MemoryOutStreamC1Ev
 3010      00
 3011              	.LEHE120:
  69:/home/pandu/Desktop/DigitalLogicDesign/Lab/03-/makestuff/libs/libutpp/Checks.h **** 
  70:/home/pandu/Desktop/DigitalLogicDesign/Lab/03-/makestuff/libs/libutpp/Checks.h **** 		stream << "Expected [ ";
 3012              		.loc 4 70 0
 3013 00be 488D8580 		leaq	-384(%rbp), %rax
 3013      FEFFFF
 3014 00c5 BE000000 		movl	$.LC15, %esi
 3014      00
 3015 00ca 4889C7   		movq	%rax, %rdi
 3016              	.LEHB121:
 3017 00cd E8000000 		call	_ZStlsISt11char_traitsIcEERSt13basic_ostreamIcT_ES5_PKc
 3017      00
 3018              	.LBB32:
  71:/home/pandu/Desktop/DigitalLogicDesign/Lab/03-/makestuff/libs/libutpp/Checks.h **** 
  72:/home/pandu/Desktop/DigitalLogicDesign/Lab/03-/makestuff/libs/libutpp/Checks.h **** 		for (int expectedIndex = 0; expectedIndex < count; ++expectedIndex)
 3019              		.loc 4 72 0
 3020 00d2 C78578FE 		movl	$0, -392(%rbp)
 3020      FFFF0000 
 3020      0000
 3021 00dc EB3B     		jmp	.L159
 3022              	.L160:
  73:/home/pandu/Desktop/DigitalLogicDesign/Lab/03-/makestuff/libs/libutpp/Checks.h ****             stream << expected[expectedIndex] << " ";
 3023              		.loc 4 73 0
 3024 00de 488B9560 		movq	-416(%rbp), %rdx
 3024      FEFFFF
 3025 00e5 8B8578FE 		movl	-392(%rbp), %eax
 3025      FFFF
 3026 00eb 4898     		cltq
 3027 00ed 0FB60402 		movzbl	(%rdx,%rax), %eax
 3028 00f1 0FB6D0   		movzbl	%al, %edx
 3029 00f4 488D8580 		leaq	-384(%rbp), %rax
 3029      FEFFFF
 3030 00fb 89D6     		movl	%edx, %esi
 3031 00fd 4889C7   		movq	%rax, %rdi
 3032 0100 E8000000 		call	_ZStlsISt11char_traitsIcEERSt13basic_ostreamIcT_ES5_h
 3032      00
 3033 0105 BE000000 		movl	$.LC16, %esi
 3033      00
 3034 010a 4889C7   		movq	%rax, %rdi
 3035 010d E8000000 		call	_ZStlsISt11char_traitsIcEERSt13basic_ostreamIcT_ES5_PKc
 3035      00
  72:/home/pandu/Desktop/DigitalLogicDesign/Lab/03-/makestuff/libs/libutpp/Checks.h ****             stream << expected[expectedIndex] << " ";
 3036              		.loc 4 72 0
 3037 0112 838578FE 		addl	$1, -392(%rbp)
 3037      FFFF01
 3038              	.L159:
  72:/home/pandu/Desktop/DigitalLogicDesign/Lab/03-/makestuff/libs/libutpp/Checks.h ****             stream << expected[expectedIndex] << " ";
 3039              		.loc 4 72 0 is_stmt 0 discriminator 1
 3040 0119 8B8578FE 		movl	-392(%rbp), %eax
 3040      FFFF
 3041 011f 3B8554FE 		cmpl	-428(%rbp), %eax
 3041      FFFF
 3042 0125 7CB7     		jl	.L160
 3043              	.LBE32:
  74:/home/pandu/Desktop/DigitalLogicDesign/Lab/03-/makestuff/libs/libutpp/Checks.h **** 
  75:/home/pandu/Desktop/DigitalLogicDesign/Lab/03-/makestuff/libs/libutpp/Checks.h **** 		stream << "] but was [ ";
 3044              		.loc 4 75 0 is_stmt 1
 3045 0127 488D8580 		leaq	-384(%rbp), %rax
 3045      FEFFFF
 3046 012e BE000000 		movl	$.LC17, %esi
 3046      00
 3047 0133 4889C7   		movq	%rax, %rdi
 3048 0136 E8000000 		call	_ZStlsISt11char_traitsIcEERSt13basic_ostreamIcT_ES5_PKc
 3048      00
 3049              	.LBB33:
  76:/home/pandu/Desktop/DigitalLogicDesign/Lab/03-/makestuff/libs/libutpp/Checks.h **** 
  77:/home/pandu/Desktop/DigitalLogicDesign/Lab/03-/makestuff/libs/libutpp/Checks.h **** 		for (int actualIndex = 0; actualIndex < count; ++actualIndex)
 3050              		.loc 4 77 0
 3051 013b C7857CFE 		movl	$0, -388(%rbp)
 3051      FFFF0000 
 3051      0000
 3052 0145 EB40     		jmp	.L161
 3053              	.L162:
  78:/home/pandu/Desktop/DigitalLogicDesign/Lab/03-/makestuff/libs/libutpp/Checks.h ****             stream << actual[actualIndex] << " ";
 3054              		.loc 4 78 0
 3055 0147 488B8558 		movq	-424(%rbp), %rax
 3055      FEFFFF
 3056 014e 488B10   		movq	(%rax), %rdx
 3057 0151 8B857CFE 		movl	-388(%rbp), %eax
 3057      FFFF
 3058 0157 4898     		cltq
 3059 0159 4801D0   		addq	%rdx, %rax
 3060 015c 0FB600   		movzbl	(%rax), %eax
 3061 015f 0FB6D0   		movzbl	%al, %edx
 3062 0162 488D8580 		leaq	-384(%rbp), %rax
 3062      FEFFFF
 3063 0169 89D6     		movl	%edx, %esi
 3064 016b 4889C7   		movq	%rax, %rdi
 3065 016e E8000000 		call	_ZStlsISt11char_traitsIcEERSt13basic_ostreamIcT_ES5_h
 3065      00
 3066 0173 BE000000 		movl	$.LC16, %esi
 3066      00
 3067 0178 4889C7   		movq	%rax, %rdi
 3068 017b E8000000 		call	_ZStlsISt11char_traitsIcEERSt13basic_ostreamIcT_ES5_PKc
 3068      00
  77:/home/pandu/Desktop/DigitalLogicDesign/Lab/03-/makestuff/libs/libutpp/Checks.h ****             stream << actual[actualIndex] << " ";
 3069              		.loc 4 77 0
 3070 0180 83857CFE 		addl	$1, -388(%rbp)
 3070      FFFF01
 3071              	.L161:
  77:/home/pandu/Desktop/DigitalLogicDesign/Lab/03-/makestuff/libs/libutpp/Checks.h ****             stream << actual[actualIndex] << " ";
 3072              		.loc 4 77 0 is_stmt 0 discriminator 1
 3073 0187 8B857CFE 		movl	-388(%rbp), %eax
 3073      FFFF
 3074 018d 3B8554FE 		cmpl	-428(%rbp), %eax
 3074      FFFF
 3075 0193 7CB2     		jl	.L162
 3076              	.LBE33:
  79:/home/pandu/Desktop/DigitalLogicDesign/Lab/03-/makestuff/libs/libutpp/Checks.h **** 
  80:/home/pandu/Desktop/DigitalLogicDesign/Lab/03-/makestuff/libs/libutpp/Checks.h **** 		stream << "]";
 3077              		.loc 4 80 0 is_stmt 1
 3078 0195 488D8580 		leaq	-384(%rbp), %rax
 3078      FEFFFF
 3079 019c BE000000 		movl	$.LC18, %esi
 3079      00
 3080 01a1 4889C7   		movq	%rax, %rdi
 3081 01a4 E8000000 		call	_ZStlsISt11char_traitsIcEERSt13basic_ostreamIcT_ES5_PKc
 3081      00
  81:/home/pandu/Desktop/DigitalLogicDesign/Lab/03-/makestuff/libs/libutpp/Checks.h **** 
  82:/home/pandu/Desktop/DigitalLogicDesign/Lab/03-/makestuff/libs/libutpp/Checks.h ****         results.OnTestFailure(details, stream.GetText());
 3082              		.loc 4 82 0
 3083 01a9 488D8580 		leaq	-384(%rbp), %rax
 3083      FEFFFF
 3084 01b0 4889C7   		movq	%rax, %rdi
 3085 01b3 E8000000 		call	_ZNK8UnitTest15MemoryOutStream7GetTextEv
 3085      00
 3086 01b8 4889C2   		movq	%rax, %rdx
 3087 01bb 488B8D48 		movq	-440(%rbp), %rcx
 3087      FEFFFF
 3088 01c2 488B8568 		movq	-408(%rbp), %rax
 3088      FEFFFF
 3089 01c9 4889CE   		movq	%rcx, %rsi
 3090 01cc 4889C7   		movq	%rax, %rdi
 3091 01cf E8000000 		call	_ZN8UnitTest11TestResults13OnTestFailureERKNS_11TestDetailsEPKc
 3091      00
 3092              	.LEHE121:
 3093              		.loc 4 82 0 is_stmt 0 discriminator 1
 3094 01d4 488D8580 		leaq	-384(%rbp), %rax
 3094      FEFFFF
 3095 01db 4889C7   		movq	%rax, %rdi
 3096              	.LEHB122:
 3097 01de E8000000 		call	_ZN8UnitTest15MemoryOutStreamD1Ev
 3097      00
 3098              	.LEHE122:
 3099              	.LBE31:
 3100 01e3 EB1D     		jmp	.L165
 3101              	.L164:
 3102 01e5 4889C3   		movq	%rax, %rbx
 3103              	.LBB34:
 3104              		.loc 4 82 0
 3105 01e8 488D8580 		leaq	-384(%rbp), %rax
 3105      FEFFFF
 3106 01ef 4889C7   		movq	%rax, %rdi
 3107 01f2 E8000000 		call	_ZN8UnitTest15MemoryOutStreamD1Ev
 3107      00
 3108 01f7 4889D8   		movq	%rbx, %rax
 3109 01fa 4889C7   		movq	%rax, %rdi
 3110              	.LEHB123:
 3111 01fd E8000000 		call	_Unwind_Resume
 3111      00
 3112              	.LEHE123:
 3113              	.L165:
 3114              	.LBE34:
 3115              	.LBE30:
 3116              	.LBE28:
  83:/home/pandu/Desktop/DigitalLogicDesign/Lab/03-/makestuff/libs/libutpp/Checks.h ****     }
  84:/home/pandu/Desktop/DigitalLogicDesign/Lab/03-/makestuff/libs/libutpp/Checks.h **** }
 3117              		.loc 4 84 0 is_stmt 1
 3118 0202 4881C4B8 		addq	$440, %rsp
 3118      010000
 3119 0209 5B       		popq	%rbx
 3120 020a 5D       		popq	%rbp
 3121              		.cfi_def_cfa 7, 8
 3122 020b C3       		ret
 3123              		.cfi_endproc
 3124              	.LFE1073:
 3125              		.section	.gcc_except_table
 3126              	.LLSDA1073:
 3127 02a4 FF       		.byte	0xff
 3128 02a5 FF       		.byte	0xff
 3129 02a6 01       		.byte	0x1
 3130 02a7 16       		.uleb128 .LLSDACSE1073-.LLSDACSB1073
 3131              	.LLSDACSB1073:
 3132 02a8 B901     		.uleb128 .LEHB120-.LFB1073
 3133 02aa 05       		.uleb128 .LEHE120-.LEHB120
 3134 02ab 00       		.uleb128 0
 3135 02ac 00       		.uleb128 0
 3136 02ad CD01     		.uleb128 .LEHB121-.LFB1073
 3137 02af 8702     		.uleb128 .LEHE121-.LEHB121
 3138 02b1 E503     		.uleb128 .L164-.LFB1073
 3139 02b3 00       		.uleb128 0
 3140 02b4 DE03     		.uleb128 .LEHB122-.LFB1073
 3141 02b6 05       		.uleb128 .LEHE122-.LEHB122
 3142 02b7 00       		.uleb128 0
 3143 02b8 00       		.uleb128 0
 3144 02b9 FD03     		.uleb128 .LEHB123-.LFB1073
 3145 02bb 05       		.uleb128 .LEHE123-.LEHB123
 3146 02bc 00       		.uleb128 0
 3147 02bd 00       		.uleb128 0
 3148              	.LLSDACSE1073:
 3149              		.section	.text._ZN8UnitTest15CheckArrayEqualIA13_hPhEEvRNS_11TestResultsERKT_RKT0_iRKNS_11TestDeta
 3151              		.section	.text._ZN8UnitTest15CheckArrayEqualIA16_hPhEEvRNS_11TestResultsERKT_RKT0_iRKNS_11TestDeta
 3152              		.weak	_ZN8UnitTest15CheckArrayEqualIA16_hPhEEvRNS_11TestResultsERKT_RKT0_iRKNS_11TestDetailsE
 3154              	_ZN8UnitTest15CheckArrayEqualIA16_hPhEEvRNS_11TestResultsERKT_RKT0_iRKNS_11TestDetailsE:
 3155              	.LFB1074:
  59:/home/pandu/Desktop/DigitalLogicDesign/Lab/03-/makestuff/libs/libutpp/Checks.h ****                 int const count, TestDetails const& details)
 3156              		.loc 4 59 0
 3157              		.cfi_startproc
 3158              		.cfi_personality 0x3,__gxx_personality_v0
 3159              		.cfi_lsda 0x3,.LLSDA1074
 3160 0000 55       		pushq	%rbp
 3161              		.cfi_def_cfa_offset 16
 3162              		.cfi_offset 6, -16
 3163 0001 4889E5   		movq	%rsp, %rbp
 3164              		.cfi_def_cfa_register 6
 3165 0004 53       		pushq	%rbx
 3166 0005 4881ECB8 		subq	$440, %rsp
 3166      010000
 3167              		.cfi_offset 3, -24
 3168 000c 4889BD68 		movq	%rdi, -408(%rbp)
 3168      FEFFFF
 3169 0013 4889B560 		movq	%rsi, -416(%rbp)
 3169      FEFFFF
 3170 001a 48899558 		movq	%rdx, -424(%rbp)
 3170      FEFFFF
 3171 0021 898D54FE 		movl	%ecx, -428(%rbp)
 3171      FFFF
 3172 0027 4C898548 		movq	%r8, -440(%rbp)
 3172      FEFFFF
 3173              	.LBB35:
  62:/home/pandu/Desktop/DigitalLogicDesign/Lab/03-/makestuff/libs/libutpp/Checks.h ****     for (int i = 0; i < count; ++i)
 3174              		.loc 4 62 0
 3175 002e C68573FE 		movb	$1, -397(%rbp)
 3175      FFFF01
 3176              	.LBB36:
  63:/home/pandu/Desktop/DigitalLogicDesign/Lab/03-/makestuff/libs/libutpp/Checks.h ****         equal &= (expected[i] == actual[i]);
 3177              		.loc 4 63 0
 3178 0035 C78574FE 		movl	$0, -396(%rbp)
 3178      FFFF0000 
 3178      0000
 3179 003f EB4E     		jmp	.L167
 3180              	.L168:
  64:/home/pandu/Desktop/DigitalLogicDesign/Lab/03-/makestuff/libs/libutpp/Checks.h **** 
 3181              		.loc 4 64 0 discriminator 2
 3182 0041 0FB68D73 		movzbl	-397(%rbp), %ecx
 3182      FEFFFF
 3183 0048 488B9560 		movq	-416(%rbp), %rdx
 3183      FEFFFF
 3184 004f 8B8574FE 		movl	-396(%rbp), %eax
 3184      FFFF
 3185 0055 4898     		cltq
 3186 0057 0FB61402 		movzbl	(%rdx,%rax), %edx
 3187 005b 488B8558 		movq	-424(%rbp), %rax
 3187      FEFFFF
 3188 0062 488B30   		movq	(%rax), %rsi
 3189 0065 8B8574FE 		movl	-396(%rbp), %eax
 3189      FFFF
 3190 006b 4898     		cltq
 3191 006d 4801F0   		addq	%rsi, %rax
 3192 0070 0FB600   		movzbl	(%rax), %eax
 3193 0073 38C2     		cmpb	%al, %dl
 3194 0075 0F94C0   		sete	%al
 3195 0078 0FB6C0   		movzbl	%al, %eax
 3196 007b 21C8     		andl	%ecx, %eax
 3197 007d 85C0     		testl	%eax, %eax
 3198 007f 0F95C0   		setne	%al
 3199 0082 888573FE 		movb	%al, -397(%rbp)
 3199      FFFF
  63:/home/pandu/Desktop/DigitalLogicDesign/Lab/03-/makestuff/libs/libutpp/Checks.h ****         equal &= (expected[i] == actual[i]);
 3200              		.loc 4 63 0 discriminator 2
 3201 0088 838574FE 		addl	$1, -396(%rbp)
 3201      FFFF01
 3202              	.L167:
  63:/home/pandu/Desktop/DigitalLogicDesign/Lab/03-/makestuff/libs/libutpp/Checks.h ****         equal &= (expected[i] == actual[i]);
 3203              		.loc 4 63 0 is_stmt 0 discriminator 1
 3204 008f 8B8574FE 		movl	-396(%rbp), %eax
 3204      FFFF
 3205 0095 3B8554FE 		cmpl	-428(%rbp), %eax
 3205      FFFF
 3206 009b 7CA4     		jl	.L168
 3207              	.LBE36:
 3208              	.LBB37:
  66:/home/pandu/Desktop/DigitalLogicDesign/Lab/03-/makestuff/libs/libutpp/Checks.h ****     {
 3209              		.loc 4 66 0 is_stmt 1
 3210 009d 0FB68573 		movzbl	-397(%rbp), %eax
 3210      FEFFFF
 3211 00a4 83F001   		xorl	$1, %eax
 3212 00a7 84C0     		testb	%al, %al
 3213 00a9 0F845301 		je	.L176
 3213      0000
 3214              	.LBB38:
  68:/home/pandu/Desktop/DigitalLogicDesign/Lab/03-/makestuff/libs/libutpp/Checks.h **** 
 3215              		.loc 4 68 0
 3216 00af 488D8580 		leaq	-384(%rbp), %rax
 3216      FEFFFF
 3217 00b6 4889C7   		movq	%rax, %rdi
 3218              	.LEHB124:
 3219 00b9 E8000000 		call	_ZN8UnitTest15MemoryOutStreamC1Ev
 3219      00
 3220              	.LEHE124:
  70:/home/pandu/Desktop/DigitalLogicDesign/Lab/03-/makestuff/libs/libutpp/Checks.h **** 
 3221              		.loc 4 70 0
 3222 00be 488D8580 		leaq	-384(%rbp), %rax
 3222      FEFFFF
 3223 00c5 BE000000 		movl	$.LC15, %esi
 3223      00
 3224 00ca 4889C7   		movq	%rax, %rdi
 3225              	.LEHB125:
 3226 00cd E8000000 		call	_ZStlsISt11char_traitsIcEERSt13basic_ostreamIcT_ES5_PKc
 3226      00
 3227              	.LBB39:
  72:/home/pandu/Desktop/DigitalLogicDesign/Lab/03-/makestuff/libs/libutpp/Checks.h ****             stream << expected[expectedIndex] << " ";
 3228              		.loc 4 72 0
 3229 00d2 C78578FE 		movl	$0, -392(%rbp)
 3229      FFFF0000 
 3229      0000
 3230 00dc EB3B     		jmp	.L170
 3231              	.L171:
  73:/home/pandu/Desktop/DigitalLogicDesign/Lab/03-/makestuff/libs/libutpp/Checks.h **** 
 3232              		.loc 4 73 0
 3233 00de 488B9560 		movq	-416(%rbp), %rdx
 3233      FEFFFF
 3234 00e5 8B8578FE 		movl	-392(%rbp), %eax
 3234      FFFF
 3235 00eb 4898     		cltq
 3236 00ed 0FB60402 		movzbl	(%rdx,%rax), %eax
 3237 00f1 0FB6D0   		movzbl	%al, %edx
 3238 00f4 488D8580 		leaq	-384(%rbp), %rax
 3238      FEFFFF
 3239 00fb 89D6     		movl	%edx, %esi
 3240 00fd 4889C7   		movq	%rax, %rdi
 3241 0100 E8000000 		call	_ZStlsISt11char_traitsIcEERSt13basic_ostreamIcT_ES5_h
 3241      00
 3242 0105 BE000000 		movl	$.LC16, %esi
 3242      00
 3243 010a 4889C7   		movq	%rax, %rdi
 3244 010d E8000000 		call	_ZStlsISt11char_traitsIcEERSt13basic_ostreamIcT_ES5_PKc
 3244      00
  72:/home/pandu/Desktop/DigitalLogicDesign/Lab/03-/makestuff/libs/libutpp/Checks.h ****             stream << expected[expectedIndex] << " ";
 3245              		.loc 4 72 0
 3246 0112 838578FE 		addl	$1, -392(%rbp)
 3246      FFFF01
 3247              	.L170:
  72:/home/pandu/Desktop/DigitalLogicDesign/Lab/03-/makestuff/libs/libutpp/Checks.h ****             stream << expected[expectedIndex] << " ";
 3248              		.loc 4 72 0 is_stmt 0 discriminator 1
 3249 0119 8B8578FE 		movl	-392(%rbp), %eax
 3249      FFFF
 3250 011f 3B8554FE 		cmpl	-428(%rbp), %eax
 3250      FFFF
 3251 0125 7CB7     		jl	.L171
 3252              	.LBE39:
  75:/home/pandu/Desktop/DigitalLogicDesign/Lab/03-/makestuff/libs/libutpp/Checks.h **** 
 3253              		.loc 4 75 0 is_stmt 1
 3254 0127 488D8580 		leaq	-384(%rbp), %rax
 3254      FEFFFF
 3255 012e BE000000 		movl	$.LC17, %esi
 3255      00
 3256 0133 4889C7   		movq	%rax, %rdi
 3257 0136 E8000000 		call	_ZStlsISt11char_traitsIcEERSt13basic_ostreamIcT_ES5_PKc
 3257      00
 3258              	.LBB40:
  77:/home/pandu/Desktop/DigitalLogicDesign/Lab/03-/makestuff/libs/libutpp/Checks.h ****             stream << actual[actualIndex] << " ";
 3259              		.loc 4 77 0
 3260 013b C7857CFE 		movl	$0, -388(%rbp)
 3260      FFFF0000 
 3260      0000
 3261 0145 EB40     		jmp	.L172
 3262              	.L173:
  78:/home/pandu/Desktop/DigitalLogicDesign/Lab/03-/makestuff/libs/libutpp/Checks.h **** 
 3263              		.loc 4 78 0
 3264 0147 488B8558 		movq	-424(%rbp), %rax
 3264      FEFFFF
 3265 014e 488B10   		movq	(%rax), %rdx
 3266 0151 8B857CFE 		movl	-388(%rbp), %eax
 3266      FFFF
 3267 0157 4898     		cltq
 3268 0159 4801D0   		addq	%rdx, %rax
 3269 015c 0FB600   		movzbl	(%rax), %eax
 3270 015f 0FB6D0   		movzbl	%al, %edx
 3271 0162 488D8580 		leaq	-384(%rbp), %rax
 3271      FEFFFF
 3272 0169 89D6     		movl	%edx, %esi
 3273 016b 4889C7   		movq	%rax, %rdi
 3274 016e E8000000 		call	_ZStlsISt11char_traitsIcEERSt13basic_ostreamIcT_ES5_h
 3274      00
 3275 0173 BE000000 		movl	$.LC16, %esi
 3275      00
 3276 0178 4889C7   		movq	%rax, %rdi
 3277 017b E8000000 		call	_ZStlsISt11char_traitsIcEERSt13basic_ostreamIcT_ES5_PKc
 3277      00
  77:/home/pandu/Desktop/DigitalLogicDesign/Lab/03-/makestuff/libs/libutpp/Checks.h ****             stream << actual[actualIndex] << " ";
 3278              		.loc 4 77 0
 3279 0180 83857CFE 		addl	$1, -388(%rbp)
 3279      FFFF01
 3280              	.L172:
  77:/home/pandu/Desktop/DigitalLogicDesign/Lab/03-/makestuff/libs/libutpp/Checks.h ****             stream << actual[actualIndex] << " ";
 3281              		.loc 4 77 0 is_stmt 0 discriminator 1
 3282 0187 8B857CFE 		movl	-388(%rbp), %eax
 3282      FFFF
 3283 018d 3B8554FE 		cmpl	-428(%rbp), %eax
 3283      FFFF
 3284 0193 7CB2     		jl	.L173
 3285              	.LBE40:
  80:/home/pandu/Desktop/DigitalLogicDesign/Lab/03-/makestuff/libs/libutpp/Checks.h **** 
 3286              		.loc 4 80 0 is_stmt 1
 3287 0195 488D8580 		leaq	-384(%rbp), %rax
 3287      FEFFFF
 3288 019c BE000000 		movl	$.LC18, %esi
 3288      00
 3289 01a1 4889C7   		movq	%rax, %rdi
 3290 01a4 E8000000 		call	_ZStlsISt11char_traitsIcEERSt13basic_ostreamIcT_ES5_PKc
 3290      00
  82:/home/pandu/Desktop/DigitalLogicDesign/Lab/03-/makestuff/libs/libutpp/Checks.h ****     }
 3291              		.loc 4 82 0
 3292 01a9 488D8580 		leaq	-384(%rbp), %rax
 3292      FEFFFF
 3293 01b0 4889C7   		movq	%rax, %rdi
 3294 01b3 E8000000 		call	_ZNK8UnitTest15MemoryOutStream7GetTextEv
 3294      00
 3295 01b8 4889C2   		movq	%rax, %rdx
 3296 01bb 488B8D48 		movq	-440(%rbp), %rcx
 3296      FEFFFF
 3297 01c2 488B8568 		movq	-408(%rbp), %rax
 3297      FEFFFF
 3298 01c9 4889CE   		movq	%rcx, %rsi
 3299 01cc 4889C7   		movq	%rax, %rdi
 3300 01cf E8000000 		call	_ZN8UnitTest11TestResults13OnTestFailureERKNS_11TestDetailsEPKc
 3300      00
 3301              	.LEHE125:
  82:/home/pandu/Desktop/DigitalLogicDesign/Lab/03-/makestuff/libs/libutpp/Checks.h ****     }
 3302              		.loc 4 82 0 is_stmt 0 discriminator 1
 3303 01d4 488D8580 		leaq	-384(%rbp), %rax
 3303      FEFFFF
 3304 01db 4889C7   		movq	%rax, %rdi
 3305              	.LEHB126:
 3306 01de E8000000 		call	_ZN8UnitTest15MemoryOutStreamD1Ev
 3306      00
 3307              	.LEHE126:
 3308              	.LBE38:
 3309 01e3 EB1D     		jmp	.L176
 3310              	.L175:
 3311 01e5 4889C3   		movq	%rax, %rbx
 3312              	.LBB41:
  82:/home/pandu/Desktop/DigitalLogicDesign/Lab/03-/makestuff/libs/libutpp/Checks.h ****     }
 3313              		.loc 4 82 0
 3314 01e8 488D8580 		leaq	-384(%rbp), %rax
 3314      FEFFFF
 3315 01ef 4889C7   		movq	%rax, %rdi
 3316 01f2 E8000000 		call	_ZN8UnitTest15MemoryOutStreamD1Ev
 3316      00
 3317 01f7 4889D8   		movq	%rbx, %rax
 3318 01fa 4889C7   		movq	%rax, %rdi
 3319              	.LEHB127:
 3320 01fd E8000000 		call	_Unwind_Resume
 3320      00
 3321              	.LEHE127:
 3322              	.L176:
 3323              	.LBE41:
 3324              	.LBE37:
 3325              	.LBE35:
 3326              		.loc 4 84 0 is_stmt 1
 3327 0202 4881C4B8 		addq	$440, %rsp
 3327      010000
 3328 0209 5B       		popq	%rbx
 3329 020a 5D       		popq	%rbp
 3330              		.cfi_def_cfa 7, 8
 3331 020b C3       		ret
 3332              		.cfi_endproc
 3333              	.LFE1074:
 3334              		.section	.gcc_except_table
 3335              	.LLSDA1074:
 3336 02be FF       		.byte	0xff
 3337 02bf FF       		.byte	0xff
 3338 02c0 01       		.byte	0x1
 3339 02c1 16       		.uleb128 .LLSDACSE1074-.LLSDACSB1074
 3340              	.LLSDACSB1074:
 3341 02c2 B901     		.uleb128 .LEHB124-.LFB1074
 3342 02c4 05       		.uleb128 .LEHE124-.LEHB124
 3343 02c5 00       		.uleb128 0
 3344 02c6 00       		.uleb128 0
 3345 02c7 CD01     		.uleb128 .LEHB125-.LFB1074
 3346 02c9 8702     		.uleb128 .LEHE125-.LEHB125
 3347 02cb E503     		.uleb128 .L175-.LFB1074
 3348 02cd 00       		.uleb128 0
 3349 02ce DE03     		.uleb128 .LEHB126-.LFB1074
 3350 02d0 05       		.uleb128 .LEHE126-.LEHB126
 3351 02d1 00       		.uleb128 0
 3352 02d2 00       		.uleb128 0
 3353 02d3 FD03     		.uleb128 .LEHB127-.LFB1074
 3354 02d5 05       		.uleb128 .LEHE127-.LEHB127
 3355 02d6 00       		.uleb128 0
 3356 02d7 00       		.uleb128 0
 3357              	.LLSDACSE1074:
 3358              		.section	.text._ZN8UnitTest15CheckArrayEqualIA16_hPhEEvRNS_11TestResultsERKT_RKT0_iRKNS_11TestDeta
 3360              		.weak	_ZTV26TestI2C_testFinaliseNoInit
 3361              		.section	.rodata._ZTV26TestI2C_testFinaliseNoInit,"aG",@progbits,_ZTV26TestI2C_testFinaliseNoInit,
 3362              		.align 32
 3365              	_ZTV26TestI2C_testFinaliseNoInit:
 3366 0000 00000000 		.quad	0
 3366      00000000 
 3367 0008 00000000 		.quad	_ZTI26TestI2C_testFinaliseNoInit
 3367      00000000 
 3368 0010 00000000 		.quad	_ZN26TestI2C_testFinaliseNoInitD1Ev
 3368      00000000 
 3369 0018 00000000 		.quad	_ZN26TestI2C_testFinaliseNoInitD0Ev
 3369      00000000 
 3370 0020 00000000 		.quad	_ZNK26TestI2C_testFinaliseNoInit7RunImplEv
 3370      00000000 
 3371              		.section	.text._ZN26TestI2C_testFinaliseNoInitD2Ev,"axG",@progbits,_ZN26TestI2C_testFinaliseNoInit
 3372              		.align 2
 3373              		.weak	_ZN26TestI2C_testFinaliseNoInitD2Ev
 3375              	_ZN26TestI2C_testFinaliseNoInitD2Ev:
 3376              	.LFB1127:
 106:testI2C.cpp   **** 	Buffer buf;
 3377              		.loc 3 106 0
 3378              		.cfi_startproc
 3379 0000 55       		pushq	%rbp
 3380              		.cfi_def_cfa_offset 16
 3381              		.cfi_offset 6, -16
 3382 0001 4889E5   		movq	%rsp, %rbp
 3383              		.cfi_def_cfa_register 6
 3384 0004 4883EC10 		subq	$16, %rsp
 3385 0008 48897DF8 		movq	%rdi, -8(%rbp)
 3386              	.LBB42:
 106:testI2C.cpp   **** 	Buffer buf;
 3387              		.loc 3 106 0
 3388 000c 488B45F8 		movq	-8(%rbp), %rax
 3389 0010 48C70000 		movq	$_ZTV26TestI2C_testFinaliseNoInit+16, (%rax)
 3389      000000
 3390 0017 488B45F8 		movq	-8(%rbp), %rax
 3391 001b 4889C7   		movq	%rax, %rdi
 3392 001e E8000000 		call	_ZN8UnitTest4TestD2Ev
 3392      00
 3393              	.LBE42:
 3394 0023 B8000000 		movl	$0, %eax
 3394      00
 3395 0028 85C0     		testl	%eax, %eax
 3396 002a 740C     		je	.L177
 106:testI2C.cpp   **** 	Buffer buf;
 3397              		.loc 3 106 0 is_stmt 0 discriminator 1
 3398 002c 488B45F8 		movq	-8(%rbp), %rax
 3399 0030 4889C7   		movq	%rax, %rdi
 3400 0033 E8000000 		call	_ZdlPv
 3400      00
 3401              	.L177:
 106:testI2C.cpp   **** 	Buffer buf;
 3402              		.loc 3 106 0
 3403 0038 C9       		leave
 3404              		.cfi_def_cfa 7, 8
 3405 0039 C3       		ret
 3406              		.cfi_endproc
 3407              	.LFE1127:
 3409              		.weak	_ZN26TestI2C_testFinaliseNoInitD1Ev
 3410              		.set	_ZN26TestI2C_testFinaliseNoInitD1Ev,_ZN26TestI2C_testFinaliseNoInitD2Ev
 3411              		.section	.text._ZN26TestI2C_testFinaliseNoInitD0Ev,"axG",@progbits,_ZN26TestI2C_testFinaliseNoInit
 3412              		.align 2
 3413              		.weak	_ZN26TestI2C_testFinaliseNoInitD0Ev
 3415              	_ZN26TestI2C_testFinaliseNoInitD0Ev:
 3416              	.LFB1129:
 106:testI2C.cpp   **** 	Buffer buf;
 3417              		.loc 3 106 0 is_stmt 1
 3418              		.cfi_startproc
 3419 0000 55       		pushq	%rbp
 3420              		.cfi_def_cfa_offset 16
 3421              		.cfi_offset 6, -16
 3422 0001 4889E5   		movq	%rsp, %rbp
 3423              		.cfi_def_cfa_register 6
 3424 0004 4883EC10 		subq	$16, %rsp
 3425 0008 48897DF8 		movq	%rdi, -8(%rbp)
 106:testI2C.cpp   **** 	Buffer buf;
 3426              		.loc 3 106 0
 3427 000c 488B45F8 		movq	-8(%rbp), %rax
 3428 0010 4889C7   		movq	%rax, %rdi
 3429 0013 E8000000 		call	_ZN26TestI2C_testFinaliseNoInitD1Ev
 3429      00
 3430 0018 488B45F8 		movq	-8(%rbp), %rax
 3431 001c 4889C7   		movq	%rax, %rdi
 3432 001f E8000000 		call	_ZdlPv
 3432      00
 3433 0024 C9       		leave
 3434              		.cfi_def_cfa 7, 8
 3435 0025 C3       		ret
 3436              		.cfi_endproc
 3437              	.LFE1129:
 3439              		.weak	_ZTV21TestI2C_testWPRNoInit
 3440              		.section	.rodata._ZTV21TestI2C_testWPRNoInit,"aG",@progbits,_ZTV21TestI2C_testWPRNoInit,comdat
 3441              		.align 32
 3444              	_ZTV21TestI2C_testWPRNoInit:
 3445 0000 00000000 		.quad	0
 3445      00000000 
 3446 0008 00000000 		.quad	_ZTI21TestI2C_testWPRNoInit
 3446      00000000 
 3447 0010 00000000 		.quad	_ZN21TestI2C_testWPRNoInitD1Ev
 3447      00000000 
 3448 0018 00000000 		.quad	_ZN21TestI2C_testWPRNoInitD0Ev
 3448      00000000 
 3449 0020 00000000 		.quad	_ZNK21TestI2C_testWPRNoInit7RunImplEv
 3449      00000000 
 3450              		.section	.text._ZN21TestI2C_testWPRNoInitD2Ev,"axG",@progbits,_ZN21TestI2C_testWPRNoInitD5Ev,comda
 3451              		.align 2
 3452              		.weak	_ZN21TestI2C_testWPRNoInitD2Ev
 3454              	_ZN21TestI2C_testWPRNoInitD2Ev:
 3455              	.LFB1131:
  95:testI2C.cpp   **** 	Buffer i2cBuffer;
 3456              		.loc 3 95 0
 3457              		.cfi_startproc
 3458 0000 55       		pushq	%rbp
 3459              		.cfi_def_cfa_offset 16
 3460              		.cfi_offset 6, -16
 3461 0001 4889E5   		movq	%rsp, %rbp
 3462              		.cfi_def_cfa_register 6
 3463 0004 4883EC10 		subq	$16, %rsp
 3464 0008 48897DF8 		movq	%rdi, -8(%rbp)
 3465              	.LBB43:
  95:testI2C.cpp   **** 	Buffer i2cBuffer;
 3466              		.loc 3 95 0
 3467 000c 488B45F8 		movq	-8(%rbp), %rax
 3468 0010 48C70000 		movq	$_ZTV21TestI2C_testWPRNoInit+16, (%rax)
 3468      000000
 3469 0017 488B45F8 		movq	-8(%rbp), %rax
 3470 001b 4889C7   		movq	%rax, %rdi
 3471 001e E8000000 		call	_ZN8UnitTest4TestD2Ev
 3471      00
 3472              	.LBE43:
 3473 0023 B8000000 		movl	$0, %eax
 3473      00
 3474 0028 85C0     		testl	%eax, %eax
 3475 002a 740C     		je	.L182
  95:testI2C.cpp   **** 	Buffer i2cBuffer;
 3476              		.loc 3 95 0 is_stmt 0 discriminator 1
 3477 002c 488B45F8 		movq	-8(%rbp), %rax
 3478 0030 4889C7   		movq	%rax, %rdi
 3479 0033 E8000000 		call	_ZdlPv
 3479      00
 3480              	.L182:
  95:testI2C.cpp   **** 	Buffer i2cBuffer;
 3481              		.loc 3 95 0
 3482 0038 C9       		leave
 3483              		.cfi_def_cfa 7, 8
 3484 0039 C3       		ret
 3485              		.cfi_endproc
 3486              	.LFE1131:
 3488              		.weak	_ZN21TestI2C_testWPRNoInitD1Ev
 3489              		.set	_ZN21TestI2C_testWPRNoInitD1Ev,_ZN21TestI2C_testWPRNoInitD2Ev
 3490              		.section	.text._ZN21TestI2C_testWPRNoInitD0Ev,"axG",@progbits,_ZN21TestI2C_testWPRNoInitD0Ev,comda
 3491              		.align 2
 3492              		.weak	_ZN21TestI2C_testWPRNoInitD0Ev
 3494              	_ZN21TestI2C_testWPRNoInitD0Ev:
 3495              	.LFB1133:
  95:testI2C.cpp   **** 	Buffer i2cBuffer;
 3496              		.loc 3 95 0 is_stmt 1
 3497              		.cfi_startproc
 3498 0000 55       		pushq	%rbp
 3499              		.cfi_def_cfa_offset 16
 3500              		.cfi_offset 6, -16
 3501 0001 4889E5   		movq	%rsp, %rbp
 3502              		.cfi_def_cfa_register 6
 3503 0004 4883EC10 		subq	$16, %rsp
 3504 0008 48897DF8 		movq	%rdi, -8(%rbp)
  95:testI2C.cpp   **** 	Buffer i2cBuffer;
 3505              		.loc 3 95 0
 3506 000c 488B45F8 		movq	-8(%rbp), %rax
 3507 0010 4889C7   		movq	%rax, %rdi
 3508 0013 E8000000 		call	_ZN21TestI2C_testWPRNoInitD1Ev
 3508      00
 3509 0018 488B45F8 		movq	-8(%rbp), %rax
 3510 001c 4889C7   		movq	%rax, %rdi
 3511 001f E8000000 		call	_ZdlPv
 3511      00
 3512 0024 C9       		leave
 3513              		.cfi_def_cfa 7, 8
 3514 0025 C3       		ret
 3515              		.cfi_endproc
 3516              	.LFE1133:
 3518              		.weak	_ZTV21TestI2C_testRoundTrip
 3519              		.section	.rodata._ZTV21TestI2C_testRoundTrip,"aG",@progbits,_ZTV21TestI2C_testRoundTrip,comdat
 3520              		.align 32
 3523              	_ZTV21TestI2C_testRoundTrip:
 3524 0000 00000000 		.quad	0
 3524      00000000 
 3525 0008 00000000 		.quad	_ZTI21TestI2C_testRoundTrip
 3525      00000000 
 3526 0010 00000000 		.quad	_ZN21TestI2C_testRoundTripD1Ev
 3526      00000000 
 3527 0018 00000000 		.quad	_ZN21TestI2C_testRoundTripD0Ev
 3527      00000000 
 3528 0020 00000000 		.quad	_ZNK21TestI2C_testRoundTrip7RunImplEv
 3528      00000000 
 3529              		.section	.text._ZN21TestI2C_testRoundTripD2Ev,"axG",@progbits,_ZN21TestI2C_testRoundTripD5Ev,comda
 3530              		.align 2
 3531              		.weak	_ZN21TestI2C_testRoundTripD2Ev
 3533              	_ZN21TestI2C_testRoundTripD2Ev:
 3534              	.LFB1135:
  47:testI2C.cpp   **** 	uint32 i, j;
 3535              		.loc 3 47 0
 3536              		.cfi_startproc
 3537 0000 55       		pushq	%rbp
 3538              		.cfi_def_cfa_offset 16
 3539              		.cfi_offset 6, -16
 3540 0001 4889E5   		movq	%rsp, %rbp
 3541              		.cfi_def_cfa_register 6
 3542 0004 4883EC10 		subq	$16, %rsp
 3543 0008 48897DF8 		movq	%rdi, -8(%rbp)
 3544              	.LBB44:
  47:testI2C.cpp   **** 	uint32 i, j;
 3545              		.loc 3 47 0
 3546 000c 488B45F8 		movq	-8(%rbp), %rax
 3547 0010 48C70000 		movq	$_ZTV21TestI2C_testRoundTrip+16, (%rax)
 3547      000000
 3548 0017 488B45F8 		movq	-8(%rbp), %rax
 3549 001b 4889C7   		movq	%rax, %rdi
 3550 001e E8000000 		call	_ZN8UnitTest4TestD2Ev
 3550      00
 3551              	.LBE44:
 3552 0023 B8000000 		movl	$0, %eax
 3552      00
 3553 0028 85C0     		testl	%eax, %eax
 3554 002a 740C     		je	.L187
  47:testI2C.cpp   **** 	uint32 i, j;
 3555              		.loc 3 47 0 is_stmt 0 discriminator 1
 3556 002c 488B45F8 		movq	-8(%rbp), %rax
 3557 0030 4889C7   		movq	%rax, %rdi
 3558 0033 E8000000 		call	_ZdlPv
 3558      00
 3559              	.L187:
  47:testI2C.cpp   **** 	uint32 i, j;
 3560              		.loc 3 47 0
 3561 0038 C9       		leave
 3562              		.cfi_def_cfa 7, 8
 3563 0039 C3       		ret
 3564              		.cfi_endproc
 3565              	.LFE1135:
 3567              		.weak	_ZN21TestI2C_testRoundTripD1Ev
 3568              		.set	_ZN21TestI2C_testRoundTripD1Ev,_ZN21TestI2C_testRoundTripD2Ev
 3569              		.section	.text._ZN21TestI2C_testRoundTripD0Ev,"axG",@progbits,_ZN21TestI2C_testRoundTripD0Ev,comda
 3570              		.align 2
 3571              		.weak	_ZN21TestI2C_testRoundTripD0Ev
 3573              	_ZN21TestI2C_testRoundTripD0Ev:
 3574              	.LFB1137:
  47:testI2C.cpp   **** 	uint32 i, j;
 3575              		.loc 3 47 0 is_stmt 1
 3576              		.cfi_startproc
 3577 0000 55       		pushq	%rbp
 3578              		.cfi_def_cfa_offset 16
 3579              		.cfi_offset 6, -16
 3580 0001 4889E5   		movq	%rsp, %rbp
 3581              		.cfi_def_cfa_register 6
 3582 0004 4883EC10 		subq	$16, %rsp
 3583 0008 48897DF8 		movq	%rdi, -8(%rbp)
  47:testI2C.cpp   **** 	uint32 i, j;
 3584              		.loc 3 47 0
 3585 000c 488B45F8 		movq	-8(%rbp), %rax
 3586 0010 4889C7   		movq	%rax, %rdi
 3587 0013 E8000000 		call	_ZN21TestI2C_testRoundTripD1Ev
 3587      00
 3588 0018 488B45F8 		movq	-8(%rbp), %rax
 3589 001c 4889C7   		movq	%rax, %rdi
 3590 001f E8000000 		call	_ZdlPv
 3590      00
 3591 0024 C9       		leave
 3592              		.cfi_def_cfa 7, 8
 3593 0025 C3       		ret
 3594              		.cfi_endproc
 3595              	.LFE1137:
 3597              		.weak	_ZTV22TestI2C_testInitialise
 3598              		.section	.rodata._ZTV22TestI2C_testInitialise,"aG",@progbits,_ZTV22TestI2C_testInitialise,comdat
 3599              		.align 32
 3602              	_ZTV22TestI2C_testInitialise:
 3603 0000 00000000 		.quad	0
 3603      00000000 
 3604 0008 00000000 		.quad	_ZTI22TestI2C_testInitialise
 3604      00000000 
 3605 0010 00000000 		.quad	_ZN22TestI2C_testInitialiseD1Ev
 3605      00000000 
 3606 0018 00000000 		.quad	_ZN22TestI2C_testInitialiseD0Ev
 3606      00000000 
 3607 0020 00000000 		.quad	_ZNK22TestI2C_testInitialise7RunImplEv
 3607      00000000 
 3608              		.section	.text._ZN22TestI2C_testInitialiseD2Ev,"axG",@progbits,_ZN22TestI2C_testInitialiseD5Ev,com
 3609              		.align 2
 3610              		.weak	_ZN22TestI2C_testInitialiseD2Ev
 3612              	_ZN22TestI2C_testInitialiseD2Ev:
 3613              	.LFB1139:
  31:testI2C.cpp   **** 	Buffer i2cBuffer;
 3614              		.loc 3 31 0
 3615              		.cfi_startproc
 3616 0000 55       		pushq	%rbp
 3617              		.cfi_def_cfa_offset 16
 3618              		.cfi_offset 6, -16
 3619 0001 4889E5   		movq	%rsp, %rbp
 3620              		.cfi_def_cfa_register 6
 3621 0004 4883EC10 		subq	$16, %rsp
 3622 0008 48897DF8 		movq	%rdi, -8(%rbp)
 3623              	.LBB45:
  31:testI2C.cpp   **** 	Buffer i2cBuffer;
 3624              		.loc 3 31 0
 3625 000c 488B45F8 		movq	-8(%rbp), %rax
 3626 0010 48C70000 		movq	$_ZTV22TestI2C_testInitialise+16, (%rax)
 3626      000000
 3627 0017 488B45F8 		movq	-8(%rbp), %rax
 3628 001b 4889C7   		movq	%rax, %rdi
 3629 001e E8000000 		call	_ZN8UnitTest4TestD2Ev
 3629      00
 3630              	.LBE45:
 3631 0023 B8000000 		movl	$0, %eax
 3631      00
 3632 0028 85C0     		testl	%eax, %eax
 3633 002a 740C     		je	.L192
  31:testI2C.cpp   **** 	Buffer i2cBuffer;
 3634              		.loc 3 31 0 is_stmt 0 discriminator 1
 3635 002c 488B45F8 		movq	-8(%rbp), %rax
 3636 0030 4889C7   		movq	%rax, %rdi
 3637 0033 E8000000 		call	_ZdlPv
 3637      00
 3638              	.L192:
  31:testI2C.cpp   **** 	Buffer i2cBuffer;
 3639              		.loc 3 31 0
 3640 0038 C9       		leave
 3641              		.cfi_def_cfa 7, 8
 3642 0039 C3       		ret
 3643              		.cfi_endproc
 3644              	.LFE1139:
 3646              		.weak	_ZN22TestI2C_testInitialiseD1Ev
 3647              		.set	_ZN22TestI2C_testInitialiseD1Ev,_ZN22TestI2C_testInitialiseD2Ev
 3648              		.section	.text._ZN22TestI2C_testInitialiseD0Ev,"axG",@progbits,_ZN22TestI2C_testInitialiseD0Ev,com
 3649              		.align 2
 3650              		.weak	_ZN22TestI2C_testInitialiseD0Ev
 3652              	_ZN22TestI2C_testInitialiseD0Ev:
 3653              	.LFB1141:
  31:testI2C.cpp   **** 	Buffer i2cBuffer;
 3654              		.loc 3 31 0 is_stmt 1
 3655              		.cfi_startproc
 3656 0000 55       		pushq	%rbp
 3657              		.cfi_def_cfa_offset 16
 3658              		.cfi_offset 6, -16
 3659 0001 4889E5   		movq	%rsp, %rbp
 3660              		.cfi_def_cfa_register 6
 3661 0004 4883EC10 		subq	$16, %rsp
 3662 0008 48897DF8 		movq	%rdi, -8(%rbp)
  31:testI2C.cpp   **** 	Buffer i2cBuffer;
 3663              		.loc 3 31 0
 3664 000c 488B45F8 		movq	-8(%rbp), %rax
 3665 0010 4889C7   		movq	%rax, %rdi
 3666 0013 E8000000 		call	_ZN22TestI2C_testInitialiseD1Ev
 3666      00
 3667 0018 488B45F8 		movq	-8(%rbp), %rax
 3668 001c 4889C7   		movq	%rax, %rdi
 3669 001f E8000000 		call	_ZdlPv
 3669      00
 3670 0024 C9       		leave
 3671              		.cfi_def_cfa 7, 8
 3672 0025 C3       		ret
 3673              		.cfi_endproc
 3674              	.LFE1141:
 3676              		.weak	_ZTVN8UnitTest15MemoryOutStreamE
 3677              		.section	.rodata._ZTVN8UnitTest15MemoryOutStreamE,"aG",@progbits,_ZTVN8UnitTest15MemoryOutStreamE,
 3678              		.align 32
 3681              	_ZTVN8UnitTest15MemoryOutStreamE:
 3682 0000 60000000 		.quad	96
 3682      00000000 
 3683 0008 00000000 		.quad	0
 3683      00000000 
 3684 0010 00000000 		.quad	_ZTIN8UnitTest15MemoryOutStreamE
 3684      00000000 
 3685 0018 00000000 		.quad	_ZN8UnitTest15MemoryOutStreamD1Ev
 3685      00000000 
 3686 0020 00000000 		.quad	_ZN8UnitTest15MemoryOutStreamD0Ev
 3686      00000000 
 3687 0028 A0FFFFFF 		.quad	-96
 3687      FFFFFFFF 
 3688 0030 A0FFFFFF 		.quad	-96
 3688      FFFFFFFF 
 3689 0038 00000000 		.quad	_ZTIN8UnitTest15MemoryOutStreamE
 3689      00000000 
 3690 0040 00000000 		.quad	_ZTv0_n24_N8UnitTest15MemoryOutStreamD1Ev
 3690      00000000 
 3691 0048 00000000 		.quad	_ZTv0_n24_N8UnitTest15MemoryOutStreamD0Ev
 3691      00000000 
 3692              		.weak	_ZTTN8UnitTest15MemoryOutStreamE
 3693              		.section	.rodata._ZTTN8UnitTest15MemoryOutStreamE,"aG",@progbits,_ZTVN8UnitTest15MemoryOutStreamE,
 3694              		.align 32
 3697              	_ZTTN8UnitTest15MemoryOutStreamE:
 3698 0000 00000000 		.quad	_ZTVN8UnitTest15MemoryOutStreamE+24
 3698      00000000 
 3699 0008 00000000 		.quad	_ZTCN8UnitTest15MemoryOutStreamE0_St19basic_ostringstreamIcSt11char_traitsIcESaIcEE+24
 3699      00000000 
 3700 0010 00000000 		.quad	_ZTCN8UnitTest15MemoryOutStreamE0_So+24
 3700      00000000 
 3701 0018 00000000 		.quad	_ZTCN8UnitTest15MemoryOutStreamE0_So+64
 3701      00000000 
 3702 0020 00000000 		.quad	_ZTCN8UnitTest15MemoryOutStreamE0_St19basic_ostringstreamIcSt11char_traitsIcESaIcEE+64
 3702      00000000 
 3703 0028 00000000 		.quad	_ZTVN8UnitTest15MemoryOutStreamE+64
 3703      00000000 
 3704              		.hidden	_ZTCN8UnitTest15MemoryOutStreamE0_St19basic_ostringstreamIcSt11char_traitsIcESaIcEE
 3705              		.weak	_ZTCN8UnitTest15MemoryOutStreamE0_St19basic_ostringstreamIcSt11char_traitsIcESaIcEE
 3706              		.section	.rodata._ZTCN8UnitTest15MemoryOutStreamE0_St19basic_ostringstreamIcSt11char_traitsIcESaIc
 3707              		.align 32
 3710              	_ZTCN8UnitTest15MemoryOutStreamE0_St19basic_ostringstreamIcSt11char_traitsIcESaIcEE:
 3711 0000 60000000 		.quad	96
 3711      00000000 
 3712 0008 00000000 		.quad	0
 3712      00000000 
 3713 0010 00000000 		.quad	_ZTISt19basic_ostringstreamIcSt11char_traitsIcESaIcEE
 3713      00000000 
 3714 0018 00000000 		.quad	_ZNSt19basic_ostringstreamIcSt11char_traitsIcESaIcEED1Ev
 3714      00000000 
 3715 0020 00000000 		.quad	_ZNSt19basic_ostringstreamIcSt11char_traitsIcESaIcEED0Ev
 3715      00000000 
 3716 0028 A0FFFFFF 		.quad	-96
 3716      FFFFFFFF 
 3717 0030 A0FFFFFF 		.quad	-96
 3717      FFFFFFFF 
 3718 0038 00000000 		.quad	_ZTISt19basic_ostringstreamIcSt11char_traitsIcESaIcEE
 3718      00000000 
 3719 0040 00000000 		.quad	_ZTv0_n24_NSt19basic_ostringstreamIcSt11char_traitsIcESaIcEED1Ev
 3719      00000000 
 3720 0048 00000000 		.quad	_ZTv0_n24_NSt19basic_ostringstreamIcSt11char_traitsIcESaIcEED0Ev
 3720      00000000 
 3721              		.hidden	_ZTCN8UnitTest15MemoryOutStreamE0_So
 3722              		.weak	_ZTCN8UnitTest15MemoryOutStreamE0_So
 3723              		.section	.rodata._ZTCN8UnitTest15MemoryOutStreamE0_So,"aG",@progbits,_ZTVN8UnitTest15MemoryOutStre
 3724              		.align 32
 3727              	_ZTCN8UnitTest15MemoryOutStreamE0_So:
 3728 0000 60000000 		.quad	96
 3728      00000000 
 3729 0008 00000000 		.quad	0
 3729      00000000 
 3730 0010 00000000 		.quad	_ZTISo
 3730      00000000 
 3731 0018 00000000 		.quad	_ZNSoD1Ev
 3731      00000000 
 3732 0020 00000000 		.quad	_ZNSoD0Ev
 3732      00000000 
 3733 0028 A0FFFFFF 		.quad	-96
 3733      FFFFFFFF 
 3734 0030 A0FFFFFF 		.quad	-96
 3734      FFFFFFFF 
 3735 0038 00000000 		.quad	_ZTISo
 3735      00000000 
 3736 0040 00000000 		.quad	_ZTv0_n24_NSoD1Ev
 3736      00000000 
 3737 0048 00000000 		.quad	_ZTv0_n24_NSoD0Ev
 3737      00000000 
 3738              		.weak	_ZTI26TestI2C_testFinaliseNoInit
 3739              		.section	.rodata._ZTI26TestI2C_testFinaliseNoInit,"aG",@progbits,_ZTI26TestI2C_testFinaliseNoInit,
 3740              		.align 16
 3743              	_ZTI26TestI2C_testFinaliseNoInit:
 3744 0000 00000000 		.quad	_ZTVN10__cxxabiv120__si_class_type_infoE+16
 3744      00000000 
 3745 0008 00000000 		.quad	_ZTS26TestI2C_testFinaliseNoInit
 3745      00000000 
 3746 0010 00000000 		.quad	_ZTIN8UnitTest4TestE
 3746      00000000 
 3747              		.weak	_ZTS26TestI2C_testFinaliseNoInit
 3748              		.section	.rodata._ZTS26TestI2C_testFinaliseNoInit,"aG",@progbits,_ZTS26TestI2C_testFinaliseNoInit,
 3749              		.align 16
 3752              	_ZTS26TestI2C_testFinaliseNoInit:
 3753 0000 32365465 		.string	"26TestI2C_testFinaliseNoInit"
 3753      73744932 
 3753      435F7465 
 3753      73744669 
 3753      6E616C69 
 3754              		.weak	_ZTI21TestI2C_testWPRNoInit
 3755              		.section	.rodata._ZTI21TestI2C_testWPRNoInit,"aG",@progbits,_ZTI21TestI2C_testWPRNoInit,comdat
 3756              		.align 16
 3759              	_ZTI21TestI2C_testWPRNoInit:
 3760 0000 00000000 		.quad	_ZTVN10__cxxabiv120__si_class_type_infoE+16
 3760      00000000 
 3761 0008 00000000 		.quad	_ZTS21TestI2C_testWPRNoInit
 3761      00000000 
 3762 0010 00000000 		.quad	_ZTIN8UnitTest4TestE
 3762      00000000 
 3763              		.weak	_ZTS21TestI2C_testWPRNoInit
 3764              		.section	.rodata._ZTS21TestI2C_testWPRNoInit,"aG",@progbits,_ZTS21TestI2C_testWPRNoInit,comdat
 3765              		.align 16
 3768              	_ZTS21TestI2C_testWPRNoInit:
 3769 0000 32315465 		.string	"21TestI2C_testWPRNoInit"
 3769      73744932 
 3769      435F7465 
 3769      73745750 
 3769      524E6F49 
 3770              		.weak	_ZTI21TestI2C_testRoundTrip
 3771              		.section	.rodata._ZTI21TestI2C_testRoundTrip,"aG",@progbits,_ZTI21TestI2C_testRoundTrip,comdat
 3772              		.align 16
 3775              	_ZTI21TestI2C_testRoundTrip:
 3776 0000 00000000 		.quad	_ZTVN10__cxxabiv120__si_class_type_infoE+16
 3776      00000000 
 3777 0008 00000000 		.quad	_ZTS21TestI2C_testRoundTrip
 3777      00000000 
 3778 0010 00000000 		.quad	_ZTIN8UnitTest4TestE
 3778      00000000 
 3779              		.weak	_ZTS21TestI2C_testRoundTrip
 3780              		.section	.rodata._ZTS21TestI2C_testRoundTrip,"aG",@progbits,_ZTS21TestI2C_testRoundTrip,comdat
 3781              		.align 16
 3784              	_ZTS21TestI2C_testRoundTrip:
 3785 0000 32315465 		.string	"21TestI2C_testRoundTrip"
 3785      73744932 
 3785      435F7465 
 3785      7374526F 
 3785      756E6454 
 3786              		.weak	_ZTI22TestI2C_testInitialise
 3787              		.section	.rodata._ZTI22TestI2C_testInitialise,"aG",@progbits,_ZTI22TestI2C_testInitialise,comdat
 3788              		.align 16
 3791              	_ZTI22TestI2C_testInitialise:
 3792 0000 00000000 		.quad	_ZTVN10__cxxabiv120__si_class_type_infoE+16
 3792      00000000 
 3793 0008 00000000 		.quad	_ZTS22TestI2C_testInitialise
 3793      00000000 
 3794 0010 00000000 		.quad	_ZTIN8UnitTest4TestE
 3794      00000000 
 3795              		.weak	_ZTS22TestI2C_testInitialise
 3796              		.section	.rodata._ZTS22TestI2C_testInitialise,"aG",@progbits,_ZTS22TestI2C_testInitialise,comdat
 3797              		.align 16
 3800              	_ZTS22TestI2C_testInitialise:
 3801 0000 32325465 		.string	"22TestI2C_testInitialise"
 3801      73744932 
 3801      435F7465 
 3801      7374496E 
 3801      69746961 
 3802              		.weak	_ZTSN8UnitTest15MemoryOutStreamE
 3803              		.section	.rodata._ZTSN8UnitTest15MemoryOutStreamE,"aG",@progbits,_ZTSN8UnitTest15MemoryOutStreamE,
 3804              		.align 16
 3807              	_ZTSN8UnitTest15MemoryOutStreamE:
 3808 0000 4E38556E 		.string	"N8UnitTest15MemoryOutStreamE"
 3808      69745465 
 3808      73743135 
 3808      4D656D6F 
 3808      72794F75 
 3809              		.weak	_ZTIN8UnitTest15MemoryOutStreamE
 3810              		.section	.rodata._ZTIN8UnitTest15MemoryOutStreamE,"aG",@progbits,_ZTIN8UnitTest15MemoryOutStreamE,
 3811              		.align 16
 3814              	_ZTIN8UnitTest15MemoryOutStreamE:
 3815 0000 00000000 		.quad	_ZTVN10__cxxabiv120__si_class_type_infoE+16
 3815      00000000 
 3816 0008 00000000 		.quad	_ZTSN8UnitTest15MemoryOutStreamE
 3816      00000000 
 3817 0010 00000000 		.quad	_ZTISt19basic_ostringstreamIcSt11char_traitsIcESaIcEE
 3817      00000000 
 3818              		.text
 3820              	_Z41__static_initialization_and_destruction_0ii:
 3821              	.LFB1142:
 3822              		.loc 3 115 0
 3823              		.cfi_startproc
 3824 1139 55       		pushq	%rbp
 3825              		.cfi_def_cfa_offset 16
 3826              		.cfi_offset 6, -16
 3827 113a 4889E5   		movq	%rsp, %rbp
 3828              		.cfi_def_cfa_register 6
 3829 113d 4883EC10 		subq	$16, %rsp
 3830 1141 897DFC   		movl	%edi, -4(%rbp)
 3831 1144 8975F8   		movl	%esi, -8(%rbp)
 3832              		.loc 3 115 0
 3833 1147 837DFC01 		cmpl	$1, -4(%rbp)
 3834 114b 0F85E100 		jne	.L197
 3834      0000
 3835              		.loc 3 115 0 is_stmt 0 discriminator 1
 3836 1151 817DF8FF 		cmpl	$65535, -8(%rbp)
 3836      FF0000
 3837 1158 0F85D400 		jne	.L197
 3837      0000
  31:testI2C.cpp   **** 	Buffer i2cBuffer;
 3838              		.loc 3 31 0 is_stmt 1
 3839 115e BF000000 		movl	$testI2C_testInitialiseInstance, %edi
 3839      00
 3840 1163 E8000000 		call	_ZN22TestI2C_testInitialiseC1Ev
 3840      00
 3841 1168 BA000000 		movl	$__dso_handle, %edx
 3841      00
 3842 116d BE000000 		movl	$testI2C_testInitialiseInstance, %esi
 3842      00
 3843 1172 BF000000 		movl	$_ZN22TestI2C_testInitialiseD1Ev, %edi
 3843      00
 3844 1177 E8000000 		call	__cxa_atexit
 3844      00
 3845 117c E8000000 		call	_ZN8UnitTest4Test11GetTestListEv
 3845      00
 3846 1181 BA000000 		movl	$testI2C_testInitialiseInstance, %edx
 3846      00
 3847 1186 4889C6   		movq	%rax, %rsi
 3848 1189 BF000000 		movl	$adderI2C_testInitialise, %edi
 3848      00
 3849 118e E8000000 		call	_ZN8UnitTest9ListAdderC1ERNS_8TestListEPNS_4TestE
 3849      00
  47:testI2C.cpp   **** 	uint32 i, j;
 3850              		.loc 3 47 0
 3851 1193 BF000000 		movl	$testI2C_testRoundTripInstance, %edi
 3851      00
 3852 1198 E8000000 		call	_ZN21TestI2C_testRoundTripC1Ev
 3852      00
 3853 119d BA000000 		movl	$__dso_handle, %edx
 3853      00
 3854 11a2 BE000000 		movl	$testI2C_testRoundTripInstance, %esi
 3854      00
 3855 11a7 BF000000 		movl	$_ZN21TestI2C_testRoundTripD1Ev, %edi
 3855      00
 3856 11ac E8000000 		call	__cxa_atexit
 3856      00
 3857 11b1 E8000000 		call	_ZN8UnitTest4Test11GetTestListEv
 3857      00
 3858 11b6 BA000000 		movl	$testI2C_testRoundTripInstance, %edx
 3858      00
 3859 11bb 4889C6   		movq	%rax, %rsi
 3860 11be BF000000 		movl	$adderI2C_testRoundTrip, %edi
 3860      00
 3861 11c3 E8000000 		call	_ZN8UnitTest9ListAdderC1ERNS_8TestListEPNS_4TestE
 3861      00
  95:testI2C.cpp   **** 	Buffer i2cBuffer;
 3862              		.loc 3 95 0
 3863 11c8 BF000000 		movl	$testI2C_testWPRNoInitInstance, %edi
 3863      00
 3864 11cd E8000000 		call	_ZN21TestI2C_testWPRNoInitC1Ev
 3864      00
 3865 11d2 BA000000 		movl	$__dso_handle, %edx
 3865      00
 3866 11d7 BE000000 		movl	$testI2C_testWPRNoInitInstance, %esi
 3866      00
 3867 11dc BF000000 		movl	$_ZN21TestI2C_testWPRNoInitD1Ev, %edi
 3867      00
 3868 11e1 E8000000 		call	__cxa_atexit
 3868      00
 3869 11e6 E8000000 		call	_ZN8UnitTest4Test11GetTestListEv
 3869      00
 3870 11eb BA000000 		movl	$testI2C_testWPRNoInitInstance, %edx
 3870      00
 3871 11f0 4889C6   		movq	%rax, %rsi
 3872 11f3 BF000000 		movl	$adderI2C_testWPRNoInit, %edi
 3872      00
 3873 11f8 E8000000 		call	_ZN8UnitTest9ListAdderC1ERNS_8TestListEPNS_4TestE
 3873      00
 106:testI2C.cpp   **** 	Buffer buf;
 3874              		.loc 3 106 0
 3875 11fd BF000000 		movl	$testI2C_testFinaliseNoInitInstance, %edi
 3875      00
 3876 1202 E8000000 		call	_ZN26TestI2C_testFinaliseNoInitC1Ev
 3876      00
 3877 1207 BA000000 		movl	$__dso_handle, %edx
 3877      00
 3878 120c BE000000 		movl	$testI2C_testFinaliseNoInitInstance, %esi
 3878      00
 3879 1211 BF000000 		movl	$_ZN26TestI2C_testFinaliseNoInitD1Ev, %edi
 3879      00
 3880 1216 E8000000 		call	__cxa_atexit
 3880      00
 3881 121b E8000000 		call	_ZN8UnitTest4Test11GetTestListEv
 3881      00
 3882 1220 BA000000 		movl	$testI2C_testFinaliseNoInitInstance, %edx
 3882      00
 3883 1225 4889C6   		movq	%rax, %rsi
 3884 1228 BF000000 		movl	$adderI2C_testFinaliseNoInit, %edi
 3884      00
 3885 122d E8000000 		call	_ZN8UnitTest9ListAdderC1ERNS_8TestListEPNS_4TestE
 3885      00
 3886              	.L197:
 3887              		.loc 3 115 0
 3888 1232 C9       		leave
 3889              		.cfi_def_cfa 7, 8
 3890 1233 C3       		ret
 3891              		.cfi_endproc
 3892              	.LFE1142:
 3895              	_GLOBAL__sub_I_testI2C_testInitialiseInstance:
 3896              	.LFB1143:
 3897              		.loc 3 115 0
 3898              		.cfi_startproc
 3899 1234 55       		pushq	%rbp
 3900              		.cfi_def_cfa_offset 16
 3901              		.cfi_offset 6, -16
 3902 1235 4889E5   		movq	%rsp, %rbp
 3903              		.cfi_def_cfa_register 6
 3904              		.loc 3 115 0
 3905 1238 BEFFFF00 		movl	$65535, %esi
 3905      00
 3906 123d BF010000 		movl	$1, %edi
 3906      00
 3907 1242 E8F2FEFF 		call	_Z41__static_initialization_and_destruction_0ii
 3907      FF
 3908 1247 5D       		popq	%rbp
 3909              		.cfi_def_cfa 7, 8
 3910 1248 C3       		ret
 3911              		.cfi_endproc
 3912              	.LFE1143:
 3914              		.section	.init_array,"aw"
 3915              		.align 8
 3916 0000 00000000 		.quad	_GLOBAL__sub_I_testI2C_testInitialiseInstance
 3916      00000000 
 3917              		.section	.rodata
 3918 0269 00000000 		.align 8
 3918      000000
 3921              	_ZZL18__gthread_active_pvE20__gthread_active_ptr:
 3922 0270 00000000 		.quad	_ZL28__gthrw___pthread_key_createPjPFvPvE
 3922      00000000 
 3923              		.weakref	_ZL28__gthrw___pthread_key_createPjPFvPvE,__pthread_key_create
 3924              		.text
 3925              	.Letext0:
 3926              		.file 5 "/home/pandu/Desktop/DigitalLogicDesign/Lab/03-/makestuff/libs/libutpp/TestDetails.h"
 3927              		.file 6 "/home/pandu/Desktop/DigitalLogicDesign/Lab/03-/makestuff/libs/libutpp/TestList.h"
 3928              		.file 7 "/home/pandu/Desktop/DigitalLogicDesign/Lab/03-/makestuff/libs/libutpp/TestResults.h"
 3929              		.file 8 "/usr/lib/gcc/x86_64-linux-gnu/4.8/include/stddef.h"
 3930              		.file 9 "/usr/include/stdio.h"
 3931              		.file 10 "<built-in>"
 3932              		.file 11 "/usr/include/wchar.h"
 3933              		.file 12 "/usr/include/c++/4.8/cwchar"
 3934              		.file 13 "/usr/include/c++/4.8/bits/char_traits.h"
 3935              		.file 14 "/usr/include/x86_64-linux-gnu/c++/4.8/bits/c++config.h"
 3936              		.file 15 "/usr/include/c++/4.8/clocale"
 3937              		.file 16 "/usr/include/c++/4.8/bits/allocator.h"
 3938              		.file 17 "/usr/include/c++/4.8/bits/basic_string.h"
 3939              		.file 18 "/usr/include/c++/4.8/bits/basic_string.tcc"
 3940              		.file 19 "/usr/include/c++/4.8/bits/stringfwd.h"
 3941              		.file 20 "/usr/include/c++/4.8/cwctype"
 3942              		.file 21 "/usr/include/time.h"
 3943              		.file 22 "/usr/include/c++/4.8/ext/new_allocator.h"
 3944              		.file 23 "/usr/include/c++/4.8/ext/numeric_traits.h"
 3945              		.file 24 "/usr/include/c++/4.8/debug/debug.h"
 3946              		.file 25 "/usr/include/locale.h"
 3947              		.file 26 "/usr/include/x86_64-linux-gnu/bits/types.h"
 3948              		.file 27 "/usr/include/x86_64-linux-gnu/c++/4.8/bits/atomic_word.h"
 3949              		.file 28 "/usr/include/wctype.h"
 3950              		.file 29 "/home/pandu/Desktop/DigitalLogicDesign/Lab/03-/makestuff/common/makestuff.h"
 3951              		.file 30 "/home/pandu/Desktop/DigitalLogicDesign/Lab/03-/makestuff/libs/libbuffer/libbuffer.h"
 3952              		.file 31 "../libfx2loader.h"