   1              		.file	"testConv.cpp"
   2              		.section	.text._ZN30TestConv_testGetHexLowerNibbleD2Ev,"axG",@progbits,_ZN30TestConv_testGetHexLow
   3              		.align 2
   4              		.p2align 4,,15
   5              		.weak	_ZN30TestConv_testGetHexLowerNibbleD2Ev
   7              	_ZN30TestConv_testGetHexLowerNibbleD2Ev:
   8              	.LFB1155:
   9              		.cfi_startproc
  10 0000 48C70700 		movq	$_ZTV30TestConv_testGetHexLowerNibble+16, (%rdi)
  10      000000
  11 0007 E9000000 		jmp	_ZN8UnitTest4TestD2Ev
  11      00
  12              		.cfi_endproc
  13              	.LFE1155:
  15              		.weak	_ZN30TestConv_testGetHexLowerNibbleD1Ev
  16              		.set	_ZN30TestConv_testGetHexLowerNibbleD1Ev,_ZN30TestConv_testGetHexLowerNibbleD2Ev
  17              		.section	.text._ZN30TestConv_testGetHexLowerNibbleD0Ev,"axG",@progbits,_ZN30TestConv_testGetHexLow
  18              		.align 2
  19              		.p2align 4,,15
  20              		.weak	_ZN30TestConv_testGetHexLowerNibbleD0Ev
  22              	_ZN30TestConv_testGetHexLowerNibbleD0Ev:
  23              	.LFB1157:
  24              		.cfi_startproc
  25 0000 53       		pushq	%rbx
  26              		.cfi_def_cfa_offset 16
  27              		.cfi_offset 3, -16
  28 0001 4889FB   		movq	%rdi, %rbx
  29 0004 48C70700 		movq	$_ZTV30TestConv_testGetHexLowerNibble+16, (%rdi)
  29      000000
  30 000b E8000000 		call	_ZN8UnitTest4TestD2Ev
  30      00
  31 0010 4889DF   		movq	%rbx, %rdi
  32 0013 5B       		popq	%rbx
  33              		.cfi_def_cfa_offset 8
  34 0014 E9000000 		jmp	_ZdlPv
  34      00
  35              		.cfi_endproc
  36              	.LFE1157:
  38              		.section	.text._ZN30TestConv_testGetHexUpperNibbleD2Ev,"axG",@progbits,_ZN30TestConv_testGetHexUpp
  39              		.align 2
  40              		.p2align 4,,15
  41              		.weak	_ZN30TestConv_testGetHexUpperNibbleD2Ev
  43              	_ZN30TestConv_testGetHexUpperNibbleD2Ev:
  44              	.LFB1159:
  45              		.cfi_startproc
  46 0000 48C70700 		movq	$_ZTV30TestConv_testGetHexUpperNibble+16, (%rdi)
  46      000000
  47 0007 E9000000 		jmp	_ZN8UnitTest4TestD2Ev
  47      00
  48              		.cfi_endproc
  49              	.LFE1159:
  51              		.weak	_ZN30TestConv_testGetHexUpperNibbleD1Ev
  52              		.set	_ZN30TestConv_testGetHexUpperNibbleD1Ev,_ZN30TestConv_testGetHexUpperNibbleD2Ev
  53              		.section	.text._ZN30TestConv_testGetHexUpperNibbleD0Ev,"axG",@progbits,_ZN30TestConv_testGetHexUpp
  54              		.align 2
  55              		.p2align 4,,15
  56              		.weak	_ZN30TestConv_testGetHexUpperNibbleD0Ev
  58              	_ZN30TestConv_testGetHexUpperNibbleD0Ev:
  59              	.LFB1161:
  60              		.cfi_startproc
  61 0000 53       		pushq	%rbx
  62              		.cfi_def_cfa_offset 16
  63              		.cfi_offset 3, -16
  64 0001 4889FB   		movq	%rdi, %rbx
  65 0004 48C70700 		movq	$_ZTV30TestConv_testGetHexUpperNibble+16, (%rdi)
  65      000000
  66 000b E8000000 		call	_ZN8UnitTest4TestD2Ev
  66      00
  67 0010 4889DF   		movq	%rbx, %rdi
  68 0013 5B       		popq	%rbx
  69              		.cfi_def_cfa_offset 8
  70 0014 E9000000 		jmp	_ZdlPv
  70      00
  71              		.cfi_endproc
  72              	.LFE1161:
  74              		.section	.text._ZN23TestConv_testGetHexByteD2Ev,"axG",@progbits,_ZN23TestConv_testGetHexByteD5Ev,c
  75              		.align 2
  76              		.p2align 4,,15
  77              		.weak	_ZN23TestConv_testGetHexByteD2Ev
  79              	_ZN23TestConv_testGetHexByteD2Ev:
  80              	.LFB1163:
  81              		.cfi_startproc
  82 0000 48C70700 		movq	$_ZTV23TestConv_testGetHexByte+16, (%rdi)
  82      000000
  83 0007 E9000000 		jmp	_ZN8UnitTest4TestD2Ev
  83      00
  84              		.cfi_endproc
  85              	.LFE1163:
  87              		.weak	_ZN23TestConv_testGetHexByteD1Ev
  88              		.set	_ZN23TestConv_testGetHexByteD1Ev,_ZN23TestConv_testGetHexByteD2Ev
  89              		.section	.text._ZN23TestConv_testGetHexByteD0Ev,"axG",@progbits,_ZN23TestConv_testGetHexByteD0Ev,c
  90              		.align 2
  91              		.p2align 4,,15
  92              		.weak	_ZN23TestConv_testGetHexByteD0Ev
  94              	_ZN23TestConv_testGetHexByteD0Ev:
  95              	.LFB1165:
  96              		.cfi_startproc
  97 0000 53       		pushq	%rbx
  98              		.cfi_def_cfa_offset 16
  99              		.cfi_offset 3, -16
 100 0001 4889FB   		movq	%rdi, %rbx
 101 0004 48C70700 		movq	$_ZTV23TestConv_testGetHexByte+16, (%rdi)
 101      000000
 102 000b E8000000 		call	_ZN8UnitTest4TestD2Ev
 102      00
 103 0010 4889DF   		movq	%rbx, %rdi
 104 0013 5B       		popq	%rbx
 105              		.cfi_def_cfa_offset 8
 106 0014 E9000000 		jmp	_ZdlPv
 106      00
 107              		.cfi_endproc
 108              	.LFE1165:
 110              		.section	.text._ZN25TestConv_testGetHexNibbleD2Ev,"axG",@progbits,_ZN25TestConv_testGetHexNibbleD5
 111              		.align 2
 112              		.p2align 4,,15
 113              		.weak	_ZN25TestConv_testGetHexNibbleD2Ev
 115              	_ZN25TestConv_testGetHexNibbleD2Ev:
 116              	.LFB1167:
 117              		.cfi_startproc
 118 0000 48C70700 		movq	$_ZTV25TestConv_testGetHexNibble+16, (%rdi)
 118      000000
 119 0007 E9000000 		jmp	_ZN8UnitTest4TestD2Ev
 119      00
 120              		.cfi_endproc
 121              	.LFE1167:
 123              		.weak	_ZN25TestConv_testGetHexNibbleD1Ev
 124              		.set	_ZN25TestConv_testGetHexNibbleD1Ev,_ZN25TestConv_testGetHexNibbleD2Ev
 125              		.section	.text._ZN25TestConv_testGetHexNibbleD0Ev,"axG",@progbits,_ZN25TestConv_testGetHexNibbleD0
 126              		.align 2
 127              		.p2align 4,,15
 128              		.weak	_ZN25TestConv_testGetHexNibbleD0Ev
 130              	_ZN25TestConv_testGetHexNibbleD0Ev:
 131              	.LFB1169:
 132              		.cfi_startproc
 133 0000 53       		pushq	%rbx
 134              		.cfi_def_cfa_offset 16
 135              		.cfi_offset 3, -16
 136 0001 4889FB   		movq	%rdi, %rbx
 137 0004 48C70700 		movq	$_ZTV25TestConv_testGetHexNibble+16, (%rdi)
 137      000000
 138 000b E8000000 		call	_ZN8UnitTest4TestD2Ev
 138      00
 139 0010 4889DF   		movq	%rbx, %rdi
 140 0013 5B       		popq	%rbx
 141              		.cfi_def_cfa_offset 8
 142 0014 E9000000 		jmp	_ZdlPv
 142      00
 143              		.cfi_endproc
 144              	.LFE1169:
 146              		.section	.text.unlikely,"ax",@progbits
 148              	_ZStlsISt11char_traitsIcEERSt13basic_ostreamIcT_ES5_PKc.part.1:
 149              	.LFB1173:
 150              		.cfi_startproc
 151 0000 50       		pushq	%rax
 152              		.cfi_def_cfa_offset 16
 153 0001 488B07   		movq	(%rdi), %rax
 154 0004 480378E8 		addq	-24(%rax), %rdi
 155 0008 8B7720   		movl	32(%rdi), %esi
 156 000b 83CE01   		orl	$1, %esi
 157 000e E8000000 		call	_ZNSt9basic_iosIcSt11char_traitsIcEE5clearESt12_Ios_Iostate
 157      00
 158 0013 5A       		popq	%rdx
 159              		.cfi_def_cfa_offset 8
 160 0014 C3       		ret
 161              		.cfi_endproc
 162              	.LFE1173:
 164              		.section	.text._ZNSt15basic_stringbufIcSt11char_traitsIcESaIcEED2Ev,"axG",@progbits,_ZNSt15basic_s
 165              		.align 2
 166              		.p2align 4,,15
 167              		.weak	_ZNSt15basic_stringbufIcSt11char_traitsIcESaIcEED2Ev
 169              	_ZNSt15basic_stringbufIcSt11char_traitsIcESaIcEED2Ev:
 170              	.LFB1078:
 171              		.cfi_startproc
 172 0000 53       		pushq	%rbx
 173              		.cfi_def_cfa_offset 16
 174              		.cfi_offset 3, -16
 175 0001 4889FB   		movq	%rdi, %rbx
 176 0004 4883EC10 		subq	$16, %rsp
 177              		.cfi_def_cfa_offset 32
 178 0008 488B4748 		movq	72(%rdi), %rax
 179 000c 48C70700 		movq	$_ZTVSt15basic_stringbufIcSt11char_traitsIcESaIcEE+16, (%rdi)
 179      000000
 180 0013 488D78E8 		leaq	-24(%rax), %rdi
 181 0017 4881FF00 		cmpq	$_ZNSs4_Rep20_S_empty_rep_storageE, %rdi
 181      000000
 182 001e 7516     		jne	.L23
 183              	.L17:
 184 0020 488D7B38 		leaq	56(%rbx), %rdi
 185 0024 48C70300 		movq	$_ZTVSt15basic_streambufIcSt11char_traitsIcEE+16, (%rbx)
 185      000000
 186 002b E8000000 		call	_ZNSt6localeD1Ev
 186      00
 187 0030 4883C410 		addq	$16, %rsp
 188              		.cfi_remember_state
 189              		.cfi_def_cfa_offset 16
 190 0034 5B       		popq	%rbx
 191              		.cfi_def_cfa_offset 8
 192 0035 C3       		ret
 193              	.L23:
 194              		.cfi_restore_state
 195 0036 B9000000 		movl	$_ZL28__gthrw___pthread_key_createPjPFvPvE, %ecx
 195      00
 196 003b 488D5710 		leaq	16(%rdi), %rdx
 197 003f 4885C9   		testq	%rcx, %rcx
 198 0042 7417     		je	.L18
 199 0044 83C8FF   		orl	$-1, %eax
 200 0047 F00FC102 		lock xaddl	%eax, (%rdx)
 201              	.L19:
 202 004b 85C0     		testl	%eax, %eax
 203 004d 7FD1     		jg	.L17
 204 004f 488D7424 		leaq	15(%rsp), %rsi
 204      0F
 205 0054 E8000000 		call	_ZNSs4_Rep10_M_destroyERKSaIcE
 205      00
 206 0059 EBC5     		jmp	.L17
 207              	.L18:
 208 005b 8B50F8   		movl	-8(%rax), %edx
 209 005e 8D4AFF   		leal	-1(%rdx), %ecx
 210 0061 8948F8   		movl	%ecx, -8(%rax)
 211 0064 89D0     		movl	%edx, %eax
 212 0066 EBE3     		jmp	.L19
 213              		.cfi_endproc
 214              	.LFE1078:
 216              		.weak	_ZNSt15basic_stringbufIcSt11char_traitsIcESaIcEED1Ev
 217              		.set	_ZNSt15basic_stringbufIcSt11char_traitsIcESaIcEED1Ev,_ZNSt15basic_stringbufIcSt11char_traitsI
 218              		.section	.text._ZNSt15basic_stringbufIcSt11char_traitsIcESaIcEED0Ev,"axG",@progbits,_ZNSt15basic_s
 219              		.align 2
 220              		.p2align 4,,15
 221              		.weak	_ZNSt15basic_stringbufIcSt11char_traitsIcESaIcEED0Ev
 223              	_ZNSt15basic_stringbufIcSt11char_traitsIcESaIcEED0Ev:
 224              	.LFB1080:
 225              		.cfi_startproc
 226 0000 53       		pushq	%rbx
 227              		.cfi_def_cfa_offset 16
 228              		.cfi_offset 3, -16
 229 0001 4889FB   		movq	%rdi, %rbx
 230 0004 4883EC10 		subq	$16, %rsp
 231              		.cfi_def_cfa_offset 32
 232 0008 488B4748 		movq	72(%rdi), %rax
 233 000c 48C70700 		movq	$_ZTVSt15basic_stringbufIcSt11char_traitsIcESaIcEE+16, (%rdi)
 233      000000
 234 0013 488D78E8 		leaq	-24(%rax), %rdi
 235 0017 4881FF00 		cmpq	$_ZNSs4_Rep20_S_empty_rep_storageE, %rdi
 235      000000
 236 001e 751E     		jne	.L31
 237              	.L26:
 238 0020 488D7B38 		leaq	56(%rbx), %rdi
 239 0024 48C70300 		movq	$_ZTVSt15basic_streambufIcSt11char_traitsIcEE+16, (%rbx)
 239      000000
 240 002b E8000000 		call	_ZNSt6localeD1Ev
 240      00
 241 0030 4889DF   		movq	%rbx, %rdi
 242 0033 E8000000 		call	_ZdlPv
 242      00
 243 0038 4883C410 		addq	$16, %rsp
 244              		.cfi_remember_state
 245              		.cfi_def_cfa_offset 16
 246 003c 5B       		popq	%rbx
 247              		.cfi_def_cfa_offset 8
 248 003d C3       		ret
 249              	.L31:
 250              		.cfi_restore_state
 251 003e B9000000 		movl	$_ZL28__gthrw___pthread_key_createPjPFvPvE, %ecx
 251      00
 252 0043 488D5710 		leaq	16(%rdi), %rdx
 253 0047 4885C9   		testq	%rcx, %rcx
 254 004a 7417     		je	.L27
 255 004c 83C8FF   		orl	$-1, %eax
 256 004f F00FC102 		lock xaddl	%eax, (%rdx)
 257              	.L28:
 258 0053 85C0     		testl	%eax, %eax
 259 0055 7FC9     		jg	.L26
 260 0057 488D7424 		leaq	15(%rsp), %rsi
 260      0F
 261 005c E8000000 		call	_ZNSs4_Rep10_M_destroyERKSaIcE
 261      00
 262 0061 EBBD     		jmp	.L26
 263              	.L27:
 264 0063 8B50F8   		movl	-8(%rax), %edx
 265 0066 8D4AFF   		leal	-1(%rdx), %ecx
 266 0069 8948F8   		movl	%ecx, -8(%rax)
 267 006c 89D0     		movl	%edx, %eax
 268 006e EBE3     		jmp	.L28
 269              		.cfi_endproc
 270              	.LFE1080:
 272              		.section	.text._ZN8UnitTest15MemoryOutStreamD1Ev,"axG",@progbits,_ZN8UnitTest15MemoryOutStreamD1Ev
 273              		.align 2
 274              		.p2align 4,,15
 275              		.weak	_ZN8UnitTest15MemoryOutStreamD1Ev
 277              	_ZN8UnitTest15MemoryOutStreamD1Ev:
 278              	.LFB1099:
 279              		.cfi_startproc
 280 0000 53       		pushq	%rbx
 281              		.cfi_def_cfa_offset 16
 282              		.cfi_offset 3, -16
 283 0001 4889FB   		movq	%rdi, %rbx
 284 0004 4883EC10 		subq	$16, %rsp
 285              		.cfi_def_cfa_offset 32
 286 0008 488B4758 		movq	88(%rdi), %rax
 287 000c 48C70700 		movq	$_ZTVN8UnitTest15MemoryOutStreamE+24, (%rdi)
 287      000000
 288 0013 48C74760 		movq	$_ZTVN8UnitTest15MemoryOutStreamE+64, 96(%rdi)
 288      00000000 
 289 001b 488D78E8 		leaq	-24(%rax), %rdi
 290 001f 4881FF00 		cmpq	$_ZNSs4_Rep20_S_empty_rep_storageE, %rdi
 290      000000
 291 0026 7557     		jne	.L44
 292              	.L34:
 293 0028 488B4350 		movq	80(%rbx), %rax
 294 002c 48C70300 		movq	$_ZTCN8UnitTest15MemoryOutStreamE0_St19basic_ostringstreamIcSt11char_traitsIcESaIcEE+24, (%rb
 294      000000
 295 0033 48C74360 		movq	$_ZTCN8UnitTest15MemoryOutStreamE0_St19basic_ostringstreamIcSt11char_traitsIcESaIcEE+64, 96(%
 295      00000000 
 296 003b 48C74308 		movq	$_ZTVSt15basic_stringbufIcSt11char_traitsIcESaIcEE+16, 8(%rbx)
 296      00000000 
 297 0043 488D78E8 		leaq	-24(%rax), %rdi
 298 0047 4881FF00 		cmpq	$_ZNSs4_Rep20_S_empty_rep_storageE, %rdi
 298      000000
 299 004e 7554     		jne	.L45
 300              	.L39:
 301 0050 488D7B40 		leaq	64(%rbx), %rdi
 302 0054 48C74308 		movq	$_ZTVSt15basic_streambufIcSt11char_traitsIcEE+16, 8(%rbx)
 302      00000000 
 303 005c E8000000 		call	_ZNSt6localeD1Ev
 303      00
 304 0061 488D7B60 		leaq	96(%rbx), %rdi
 305 0065 48C70300 		movq	$_ZTCN8UnitTest15MemoryOutStreamE0_So+24, (%rbx)
 305      000000
 306 006c 48C74360 		movq	$_ZTVSt9basic_iosIcSt11char_traitsIcEE+16, 96(%rbx)
 306      00000000 
 307 0074 E8000000 		call	_ZNSt8ios_baseD2Ev
 307      00
 308 0079 4883C410 		addq	$16, %rsp
 309              		.cfi_remember_state
 310              		.cfi_def_cfa_offset 16
 311 007d 5B       		popq	%rbx
 312              		.cfi_def_cfa_offset 8
 313 007e C3       		ret
 314              	.L44:
 315              		.cfi_restore_state
 316 007f B9000000 		movl	$_ZL28__gthrw___pthread_key_createPjPFvPvE, %ecx
 316      00
 317 0084 488D5710 		leaq	16(%rdi), %rdx
 318 0088 4885C9   		testq	%rcx, %rcx
 319 008b 743C     		je	.L35
 320 008d 83C8FF   		orl	$-1, %eax
 321 0090 F00FC102 		lock xaddl	%eax, (%rdx)
 322              	.L36:
 323 0094 85C0     		testl	%eax, %eax
 324 0096 7F90     		jg	.L34
 325 0098 488D7424 		leaq	15(%rsp), %rsi
 325      0F
 326 009d E8000000 		call	_ZNSs4_Rep10_M_destroyERKSaIcE
 326      00
 327 00a2 EB84     		jmp	.L34
 328              	.L45:
 329 00a4 B9000000 		movl	$_ZL28__gthrw___pthread_key_createPjPFvPvE, %ecx
 329      00
 330 00a9 488D5710 		leaq	16(%rdi), %rdx
 331 00ad 4885C9   		testq	%rcx, %rcx
 332 00b0 7424     		je	.L40
 333 00b2 83C8FF   		orl	$-1, %eax
 334 00b5 F00FC102 		lock xaddl	%eax, (%rdx)
 335              	.L41:
 336 00b9 85C0     		testl	%eax, %eax
 337 00bb 7F93     		jg	.L39
 338 00bd 488D7424 		leaq	15(%rsp), %rsi
 338      0F
 339 00c2 E8000000 		call	_ZNSs4_Rep10_M_destroyERKSaIcE
 339      00
 340 00c7 EB87     		jmp	.L39
 341              	.L35:
 342 00c9 8B50F8   		movl	-8(%rax), %edx
 343 00cc 8D4AFF   		leal	-1(%rdx), %ecx
 344 00cf 8948F8   		movl	%ecx, -8(%rax)
 345 00d2 89D0     		movl	%edx, %eax
 346 00d4 EBBE     		jmp	.L36
 347              	.L40:
 348 00d6 8B50F8   		movl	-8(%rax), %edx
 349 00d9 8D4AFF   		leal	-1(%rdx), %ecx
 350 00dc 8948F8   		movl	%ecx, -8(%rax)
 351 00df 89D0     		movl	%edx, %eax
 352 00e1 EBD6     		jmp	.L41
 353              		.cfi_endproc
 354              	.LFE1099:
 356              		.set	.LTHUNK0,_ZN8UnitTest15MemoryOutStreamD1Ev
 357 00e3 66666666 		.p2align 4,,15
 357      2E0F1F84 
 357      00000000 
 357      00
 358              		.weak	_ZTv0_n24_N8UnitTest15MemoryOutStreamD1Ev
 360              	_ZTv0_n24_N8UnitTest15MemoryOutStreamD1Ev:
 361              	.LFB1182:
 362              		.cfi_startproc
 363 00f0 4C8B17   		movq	(%rdi), %r10
 364 00f3 49037AE8 		addq	-24(%r10), %rdi
 365 00f7 E904FFFF 		jmp	.LTHUNK0
 365      FF
 366              		.cfi_endproc
 367              	.LFE1182:
 369              		.section	.text._ZN8UnitTest15MemoryOutStreamD0Ev,"axG",@progbits,_ZN8UnitTest15MemoryOutStreamD0Ev
 370              		.align 2
 371              		.p2align 4,,15
 372              		.weak	_ZN8UnitTest15MemoryOutStreamD0Ev
 374              	_ZN8UnitTest15MemoryOutStreamD0Ev:
 375              	.LFB1100:
 376              		.cfi_startproc
 377 0000 53       		pushq	%rbx
 378              		.cfi_def_cfa_offset 16
 379              		.cfi_offset 3, -16
 380 0001 4889FB   		movq	%rdi, %rbx
 381 0004 4883EC10 		subq	$16, %rsp
 382              		.cfi_def_cfa_offset 32
 383 0008 488B4758 		movq	88(%rdi), %rax
 384 000c 48C70700 		movq	$_ZTVN8UnitTest15MemoryOutStreamE+24, (%rdi)
 384      000000
 385 0013 48C74760 		movq	$_ZTVN8UnitTest15MemoryOutStreamE+64, 96(%rdi)
 385      00000000 
 386 001b 488D78E8 		leaq	-24(%rax), %rdi
 387 001f 4881FF00 		cmpq	$_ZNSs4_Rep20_S_empty_rep_storageE, %rdi
 387      000000
 388 0026 755F     		jne	.L58
 389              	.L48:
 390 0028 488B4350 		movq	80(%rbx), %rax
 391 002c 48C70300 		movq	$_ZTCN8UnitTest15MemoryOutStreamE0_St19basic_ostringstreamIcSt11char_traitsIcESaIcEE+24, (%rb
 391      000000
 392 0033 48C74360 		movq	$_ZTCN8UnitTest15MemoryOutStreamE0_St19basic_ostringstreamIcSt11char_traitsIcESaIcEE+64, 96(%
 392      00000000 
 393 003b 48C74308 		movq	$_ZTVSt15basic_stringbufIcSt11char_traitsIcESaIcEE+16, 8(%rbx)
 393      00000000 
 394 0043 488D78E8 		leaq	-24(%rax), %rdi
 395 0047 4881FF00 		cmpq	$_ZNSs4_Rep20_S_empty_rep_storageE, %rdi
 395      000000
 396 004e 755F     		jne	.L59
 397              	.L53:
 398 0050 488D7B40 		leaq	64(%rbx), %rdi
 399 0054 48C74308 		movq	$_ZTVSt15basic_streambufIcSt11char_traitsIcEE+16, 8(%rbx)
 399      00000000 
 400 005c E8000000 		call	_ZNSt6localeD1Ev
 400      00
 401 0061 488D7B60 		leaq	96(%rbx), %rdi
 402 0065 48C70300 		movq	$_ZTCN8UnitTest15MemoryOutStreamE0_So+24, (%rbx)
 402      000000
 403 006c 48C74360 		movq	$_ZTVSt9basic_iosIcSt11char_traitsIcEE+16, 96(%rbx)
 403      00000000 
 404 0074 E8000000 		call	_ZNSt8ios_baseD2Ev
 404      00
 405 0079 4889DF   		movq	%rbx, %rdi
 406 007c E8000000 		call	_ZdlPv
 406      00
 407 0081 4883C410 		addq	$16, %rsp
 408              		.cfi_remember_state
 409              		.cfi_def_cfa_offset 16
 410 0085 5B       		popq	%rbx
 411              		.cfi_def_cfa_offset 8
 412 0086 C3       		ret
 413              	.L58:
 414              		.cfi_restore_state
 415 0087 B9000000 		movl	$_ZL28__gthrw___pthread_key_createPjPFvPvE, %ecx
 415      00
 416 008c 488D5710 		leaq	16(%rdi), %rdx
 417 0090 4885C9   		testq	%rcx, %rcx
 418 0093 7442     		je	.L49
 419 0095 83C8FF   		orl	$-1, %eax
 420 0098 F00FC102 		lock xaddl	%eax, (%rdx)
 421              	.L50:
 422 009c 85C0     		testl	%eax, %eax
 423 009e 7F88     		jg	.L48
 424 00a0 488D7424 		leaq	15(%rsp), %rsi
 424      0F
 425 00a5 E8000000 		call	_ZNSs4_Rep10_M_destroyERKSaIcE
 425      00
 426 00aa E979FFFF 		jmp	.L48
 426      FF
 427              	.L59:
 428 00af B9000000 		movl	$_ZL28__gthrw___pthread_key_createPjPFvPvE, %ecx
 428      00
 429 00b4 488D5710 		leaq	16(%rdi), %rdx
 430 00b8 4885C9   		testq	%rcx, %rcx
 431 00bb 7427     		je	.L54
 432 00bd 83C8FF   		orl	$-1, %eax
 433 00c0 F00FC102 		lock xaddl	%eax, (%rdx)
 434              	.L55:
 435 00c4 85C0     		testl	%eax, %eax
 436 00c6 7F88     		jg	.L53
 437 00c8 488D7424 		leaq	15(%rsp), %rsi
 437      0F
 438 00cd E8000000 		call	_ZNSs4_Rep10_M_destroyERKSaIcE
 438      00
 439 00d2 E979FFFF 		jmp	.L53
 439      FF
 440              	.L49:
 441 00d7 8B50F8   		movl	-8(%rax), %edx
 442 00da 8D4AFF   		leal	-1(%rdx), %ecx
 443 00dd 8948F8   		movl	%ecx, -8(%rax)
 444 00e0 89D0     		movl	%edx, %eax
 445 00e2 EBB8     		jmp	.L50
 446              	.L54:
 447 00e4 8B50F8   		movl	-8(%rax), %edx
 448 00e7 8D4AFF   		leal	-1(%rdx), %ecx
 449 00ea 8948F8   		movl	%ecx, -8(%rax)
 450 00ed 89D0     		movl	%edx, %eax
 451 00ef EBD3     		jmp	.L55
 452              		.cfi_endproc
 453              	.LFE1100:
 455              		.set	.LTHUNK1,_ZN8UnitTest15MemoryOutStreamD0Ev
 456 00f1 66666666 		.p2align 4,,15
 456      66662E0F 
 456      1F840000 
 456      000000
 457              		.weak	_ZTv0_n24_N8UnitTest15MemoryOutStreamD0Ev
 459              	_ZTv0_n24_N8UnitTest15MemoryOutStreamD0Ev:
 460              	.LFB1183:
 461              		.cfi_startproc
 462 0100 4C8B17   		movq	(%rdi), %r10
 463 0103 49037AE8 		addq	-24(%r10), %rdi
 464 0107 E9F4FEFF 		jmp	.LTHUNK1
 464      FF
 465              		.cfi_endproc
 466              	.LFE1183:
 468              		.section	.rodata.str1.1,"aMS",@progbits,1
 469              	.LC0:
 470 0000 45787065 		.string	"Expected "
 470      63746564 
 470      2000
 471              	.LC1:
 472 000a 20627574 		.string	" but was "
 472      20776173 
 472      2000
 473              		.section	.text._ZN8UnitTest10CheckEqualIbbEEvRNS_11TestResultsERKT_RKT0_RKNS_11TestDetailsE,"axG",
 474              		.p2align 4,,15
 475              		.weak	_ZN8UnitTest10CheckEqualIbbEEvRNS_11TestResultsERKT_RKT0_RKNS_11TestDetailsE
 477              	_ZN8UnitTest10CheckEqualIbbEEvRNS_11TestResultsERKT_RKT0_RKNS_11TestDetailsE:
 478              	.LFB1096:
 479              		.cfi_startproc
 480              		.cfi_personality 0x3,__gxx_personality_v0
 481              		.cfi_lsda 0x3,.LLSDA1096
 482 0000 4156     		pushq	%r14
 483              		.cfi_def_cfa_offset 16
 484              		.cfi_offset 14, -16
 485 0002 4155     		pushq	%r13
 486              		.cfi_def_cfa_offset 24
 487              		.cfi_offset 13, -24
 488 0004 4154     		pushq	%r12
 489              		.cfi_def_cfa_offset 32
 490              		.cfi_offset 12, -32
 491 0006 55       		pushq	%rbp
 492              		.cfi_def_cfa_offset 40
 493              		.cfi_offset 6, -40
 494 0007 4889D5   		movq	%rdx, %rbp
 495 000a 53       		pushq	%rbx
 496              		.cfi_def_cfa_offset 48
 497              		.cfi_offset 3, -48
 498 000b 4889F3   		movq	%rsi, %rbx
 499 000e 4881EC80 		subq	$384, %rsp
 499      010000
 500              		.cfi_def_cfa_offset 432
 501 0015 0FB602   		movzbl	(%rdx), %eax
 502 0018 3806     		cmpb	%al, (%rsi)
 503 001a 0F840402 		je	.L60
 503      0000
 504 0020 4C8D6424 		leaq	112(%rsp), %r12
 504      70
 505 0025 4989FD   		movq	%rdi, %r13
 506 0028 4989CE   		movq	%rcx, %r14
 507 002b 4C89E7   		movq	%r12, %rdi
 508 002e E8000000 		call	_ZNSt8ios_baseC2Ev
 508      00
 509 0033 31F6     		xorl	%esi, %esi
 510 0035 4C89E7   		movq	%r12, %rdi
 511 0038 48C78424 		movq	$0, 328(%rsp)
 511      48010000 
 511      00000000 
 512 0044 C6842450 		movb	$0, 336(%rsp)
 512      01000000 
 513 004c C6842451 		movb	$0, 337(%rsp)
 513      01000000 
 514 0054 48C78424 		movq	$0, 344(%rsp)
 514      58010000 
 514      00000000 
 515 0060 48C78424 		movq	$0, 352(%rsp)
 515      60010000 
 515      00000000 
 516 006c 48C78424 		movq	$0, 360(%rsp)
 516      68010000 
 516      00000000 
 517 0078 48C78424 		movq	$0, 368(%rsp)
 517      70010000 
 517      00000000 
 518 0084 48C74424 		movq	$_ZTCN8UnitTest15MemoryOutStreamE0_So+24, 16(%rsp)
 518      10000000 
 518      00
 519 008d 48C74424 		movq	$_ZTCN8UnitTest15MemoryOutStreamE0_So+64, 112(%rsp)
 519      70000000 
 519      00
 520              	.LEHB0:
 521 0096 E8000000 		call	_ZNSt9basic_iosIcSt11char_traitsIcEE4initEPSt15basic_streambufIcS1_E
 521      00
 522              	.LEHE0:
 523 009b 488D7C24 		leaq	80(%rsp), %rdi
 523      50
 524 00a0 48C74424 		movq	$_ZTCN8UnitTest15MemoryOutStreamE0_St19basic_ostringstreamIcSt11char_traitsIcESaIcEE+24, 16(%
 524      10000000 
 524      00
 525 00a9 48C74424 		movq	$_ZTCN8UnitTest15MemoryOutStreamE0_St19basic_ostringstreamIcSt11char_traitsIcESaIcEE+64, 112(
 525      70000000 
 525      00
 526 00b2 48C74424 		movq	$_ZTVSt15basic_streambufIcSt11char_traitsIcEE+16, 24(%rsp)
 526      18000000 
 526      00
 527 00bb 48C74424 		movq	$0, 32(%rsp)
 527      20000000 
 527      00
 528 00c4 48C74424 		movq	$0, 40(%rsp)
 528      28000000 
 528      00
 529 00cd 48C74424 		movq	$0, 48(%rsp)
 529      30000000 
 529      00
 530 00d6 48C74424 		movq	$0, 56(%rsp)
 530      38000000 
 530      00
 531 00df 48C74424 		movq	$0, 64(%rsp)
 531      40000000 
 531      00
 532 00e8 48C74424 		movq	$0, 72(%rsp)
 532      48000000 
 532      00
 533 00f1 E8000000 		call	_ZNSt6localeC1Ev
 533      00
 534 00f6 488B4424 		movq	16(%rsp), %rax
 534      10
 535 00fb 488D7C24 		leaq	16(%rsp), %rdi
 535      10
 536 0100 488D7424 		leaq	24(%rsp), %rsi
 536      18
 537 0105 48C74424 		movq	$_ZTVSt15basic_stringbufIcSt11char_traitsIcESaIcEE+16, 24(%rsp)
 537      18000000 
 537      00
 538 010e C7442458 		movl	$16, 88(%rsp)
 538      10000000 
 539 0116 48C74424 		movq	$_ZNSs4_Rep20_S_empty_rep_storageE+24, 96(%rsp)
 539      60000000 
 539      00
 540 011f 480378E8 		addq	-24(%rax), %rdi
 541              	.LEHB1:
 542 0123 E8000000 		call	_ZNSt9basic_iosIcSt11char_traitsIcEE4initEPSt15basic_streambufIcS1_E
 542      00
 543              	.LEHE1:
 544 0128 488D7C24 		leaq	16(%rsp), %rdi
 544      10
 545 012d BA090000 		movl	$9, %edx
 545      00
 546 0132 BE000000 		movl	$.LC0, %esi
 546      00
 547 0137 48C74424 		movq	$_ZTVN8UnitTest15MemoryOutStreamE+24, 16(%rsp)
 547      10000000 
 547      00
 548 0140 48C74424 		movq	$_ZTVN8UnitTest15MemoryOutStreamE+64, 112(%rsp)
 548      70000000 
 548      00
 549 0149 48C74424 		movq	$_ZNSs4_Rep20_S_empty_rep_storageE+24, 104(%rsp)
 549      68000000 
 549      00
 550 0152 0FB66D00 		movzbl	0(%rbp), %ebp
 551 0156 0FB61B   		movzbl	(%rbx), %ebx
 552              	.LEHB2:
 553 0159 E8000000 		call	_ZSt16__ostream_insertIcSt11char_traitsIcEERSt13basic_ostreamIT_T0_ES6_PKS3_l
 553      00
 554 015e 488D7C24 		leaq	16(%rsp), %rdi
 554      10
 555 0163 0FB6F3   		movzbl	%bl, %esi
 556 0166 E8000000 		call	_ZNSo9_M_insertIbEERSoT_
 556      00
 557 016b BA090000 		movl	$9, %edx
 557      00
 558 0170 BE000000 		movl	$.LC1, %esi
 558      00
 559 0175 4889C7   		movq	%rax, %rdi
 560 0178 4889C3   		movq	%rax, %rbx
 561 017b E8000000 		call	_ZSt16__ostream_insertIcSt11char_traitsIcEERSt13basic_ostreamIT_T0_ES6_PKS3_l
 561      00
 562 0180 400FB6F5 		movzbl	%bpl, %esi
 563 0184 4889DF   		movq	%rbx, %rdi
 564 0187 E8000000 		call	_ZNSo9_M_insertIbEERSoT_
 564      00
 565 018c 488D7C24 		leaq	16(%rsp), %rdi
 565      10
 566 0191 E8000000 		call	_ZNK8UnitTest15MemoryOutStream7GetTextEv
 566      00
 567 0196 4889C2   		movq	%rax, %rdx
 568 0199 4C89F6   		movq	%r14, %rsi
 569 019c 4C89EF   		movq	%r13, %rdi
 570 019f E8000000 		call	_ZN8UnitTest11TestResults13OnTestFailureERKNS_11TestDetailsEPKc
 570      00
 571              	.LEHE2:
 572 01a4 488B4424 		movq	104(%rsp), %rax
 572      68
 573 01a9 48C74424 		movq	$_ZTVN8UnitTest15MemoryOutStreamE+24, 16(%rsp)
 573      10000000 
 573      00
 574 01b2 48C74424 		movq	$_ZTVN8UnitTest15MemoryOutStreamE+64, 112(%rsp)
 574      70000000 
 574      00
 575 01bb 488D78E8 		leaq	-24(%rax), %rdi
 576 01bf 4881FF00 		cmpq	$_ZNSs4_Rep20_S_empty_rep_storageE, %rdi
 576      000000
 577 01c6 756C     		jne	.L83
 578              	.L67:
 579 01c8 488B4424 		movq	96(%rsp), %rax
 579      60
 580 01cd 48C74424 		movq	$_ZTCN8UnitTest15MemoryOutStreamE0_St19basic_ostringstreamIcSt11char_traitsIcESaIcEE+24, 16(%
 580      10000000 
 580      00
 581 01d6 48C74424 		movq	$_ZTCN8UnitTest15MemoryOutStreamE0_St19basic_ostringstreamIcSt11char_traitsIcESaIcEE+64, 112(
 581      70000000 
 581      00
 582 01df 48C74424 		movq	$_ZTVSt15basic_stringbufIcSt11char_traitsIcESaIcEE+16, 24(%rsp)
 582      18000000 
 582      00
 583 01e8 488D78E8 		leaq	-24(%rax), %rdi
 584 01ec 4881FF00 		cmpq	$_ZNSs4_Rep20_S_empty_rep_storageE, %rdi
 584      000000
 585 01f3 756B     		jne	.L84
 586              	.L72:
 587 01f5 488D7C24 		leaq	80(%rsp), %rdi
 587      50
 588 01fa 48C74424 		movq	$_ZTVSt15basic_streambufIcSt11char_traitsIcEE+16, 24(%rsp)
 588      18000000 
 588      00
 589 0203 E8000000 		call	_ZNSt6localeD1Ev
 589      00
 590 0208 488D7C24 		leaq	112(%rsp), %rdi
 590      70
 591 020d 48C74424 		movq	$_ZTCN8UnitTest15MemoryOutStreamE0_So+24, 16(%rsp)
 591      10000000 
 591      00
 592 0216 48C74424 		movq	$_ZTVSt9basic_iosIcSt11char_traitsIcEE+16, 112(%rsp)
 592      70000000 
 592      00
 593              	.LEHB3:
 594 021f E8000000 		call	_ZNSt8ios_baseD2Ev
 594      00
 595              	.LEHE3:
 596              	.L60:
 597 0224 4881C480 		addq	$384, %rsp
 597      010000
 598              		.cfi_remember_state
 599              		.cfi_def_cfa_offset 48
 600 022b 5B       		popq	%rbx
 601              		.cfi_def_cfa_offset 40
 602 022c 5D       		popq	%rbp
 603              		.cfi_def_cfa_offset 32
 604 022d 415C     		popq	%r12
 605              		.cfi_def_cfa_offset 24
 606 022f 415D     		popq	%r13
 607              		.cfi_def_cfa_offset 16
 608 0231 415E     		popq	%r14
 609              		.cfi_def_cfa_offset 8
 610 0233 C3       		ret
 611              	.L83:
 612              		.cfi_restore_state
 613 0234 B9000000 		movl	$_ZL28__gthrw___pthread_key_createPjPFvPvE, %ecx
 613      00
 614 0239 488D5710 		leaq	16(%rdi), %rdx
 615 023d 4885C9   		testq	%rcx, %rcx
 616 0240 747D     		je	.L68
 617 0242 83C8FF   		orl	$-1, %eax
 618 0245 F00FC102 		lock xaddl	%eax, (%rdx)
 619              	.L69:
 620 0249 85C0     		testl	%eax, %eax
 621 024b 0F8F77FF 		jg	.L67
 621      FFFF
 622 0251 488D7424 		leaq	15(%rsp), %rsi
 622      0F
 623 0256 E8000000 		call	_ZNSs4_Rep10_M_destroyERKSaIcE
 623      00
 624 025b E968FFFF 		jmp	.L67
 624      FF
 625              	.L84:
 626 0260 B9000000 		movl	$_ZL28__gthrw___pthread_key_createPjPFvPvE, %ecx
 626      00
 627 0265 488D5710 		leaq	16(%rdi), %rdx
 628 0269 4885C9   		testq	%rcx, %rcx
 629 026c 7479     		je	.L73
 630 026e 83C8FF   		orl	$-1, %eax
 631 0271 F00FC102 		lock xaddl	%eax, (%rdx)
 632              	.L74:
 633 0275 85C0     		testl	%eax, %eax
 634 0277 0F8F78FF 		jg	.L72
 634      FFFF
 635 027d 488D7424 		leaq	15(%rsp), %rsi
 635      0F
 636 0282 E8000000 		call	_ZNSs4_Rep10_M_destroyERKSaIcE
 636      00
 637 0287 E969FFFF 		jmp	.L72
 637      FF
 638              	.L77:
 639 028c 488D7C24 		leaq	16(%rsp), %rdi
 639      10
 640 0291 4889C3   		movq	%rax, %rbx
 641 0294 E8000000 		call	_ZN8UnitTest15MemoryOutStreamD1Ev
 641      00
 642 0299 4889DF   		movq	%rbx, %rdi
 643              	.LEHB4:
 644 029c E8000000 		call	_Unwind_Resume
 644      00
 645              	.LEHE4:
 646              	.L78:
 647 02a1 4889C3   		movq	%rax, %rbx
 648              	.L64:
 649 02a4 488D7C24 		leaq	112(%rsp), %rdi
 649      70
 650 02a9 48C74424 		movq	$_ZTVSt9basic_iosIcSt11char_traitsIcEE+16, 112(%rsp)
 650      70000000 
 650      00
 651 02b2 E8000000 		call	_ZNSt8ios_baseD2Ev
 651      00
 652 02b7 4889DF   		movq	%rbx, %rdi
 653              	.LEHB5:
 654 02ba E8000000 		call	_Unwind_Resume
 654      00
 655              	.LEHE5:
 656              	.L68:
 657 02bf 8B50F8   		movl	-8(%rax), %edx
 658 02c2 8D4AFF   		leal	-1(%rdx), %ecx
 659 02c5 8948F8   		movl	%ecx, -8(%rax)
 660 02c8 89D0     		movl	%edx, %eax
 661 02ca E97AFFFF 		jmp	.L69
 661      FF
 662              	.L79:
 663 02cf 488D7C24 		leaq	24(%rsp), %rdi
 663      18
 664 02d4 4889C3   		movq	%rax, %rbx
 665 02d7 E8000000 		call	_ZNSt15basic_stringbufIcSt11char_traitsIcESaIcEED1Ev
 665      00
 666 02dc 48C74424 		movq	$_ZTCN8UnitTest15MemoryOutStreamE0_So+24, 16(%rsp)
 666      10000000 
 666      00
 667 02e5 EBBD     		jmp	.L64
 668              	.L73:
 669 02e7 8B50F8   		movl	-8(%rax), %edx
 670 02ea 8D4AFF   		leal	-1(%rdx), %ecx
 671 02ed 8948F8   		movl	%ecx, -8(%rax)
 672 02f0 89D0     		movl	%edx, %eax
 673 02f2 EB81     		jmp	.L74
 674              		.cfi_endproc
 675              	.LFE1096:
 676              		.globl	__gxx_personality_v0
 677              		.section	.gcc_except_table._ZN8UnitTest10CheckEqualIbbEEvRNS_11TestResultsERKT_RKT0_RKNS_11TestDet
 678              	.LLSDA1096:
 679 0000 FF       		.byte	0xff
 680 0001 FF       		.byte	0xff
 681 0002 01       		.byte	0x1
 682 0003 21       		.uleb128 .LLSDACSE1096-.LLSDACSB1096
 683              	.LLSDACSB1096:
 684 0004 9601     		.uleb128 .LEHB0-.LFB1096
 685 0006 05       		.uleb128 .LEHE0-.LEHB0
 686 0007 A105     		.uleb128 .L78-.LFB1096
 687 0009 00       		.uleb128 0
 688 000a A302     		.uleb128 .LEHB1-.LFB1096
 689 000c 05       		.uleb128 .LEHE1-.LEHB1
 690 000d CF05     		.uleb128 .L79-.LFB1096
 691 000f 00       		.uleb128 0
 692 0010 D902     		.uleb128 .LEHB2-.LFB1096
 693 0012 4B       		.uleb128 .LEHE2-.LEHB2
 694 0013 8C05     		.uleb128 .L77-.LFB1096
 695 0015 00       		.uleb128 0
 696 0016 9F04     		.uleb128 .LEHB3-.LFB1096
 697 0018 05       		.uleb128 .LEHE3-.LEHB3
 698 0019 00       		.uleb128 0
 699 001a 00       		.uleb128 0
 700 001b 9C05     		.uleb128 .LEHB4-.LFB1096
 701 001d 05       		.uleb128 .LEHE4-.LEHB4
 702 001e 00       		.uleb128 0
 703 001f 00       		.uleb128 0
 704 0020 BA05     		.uleb128 .LEHB5-.LFB1096
 705 0022 05       		.uleb128 .LEHE5-.LEHB5
 706 0023 00       		.uleb128 0
 707 0024 00       		.uleb128 0
 708              	.LLSDACSE1096:
 709              		.section	.text._ZN8UnitTest10CheckEqualIbbEEvRNS_11TestResultsERKT_RKT0_RKNS_11TestDetailsE,"axG",
 711              		.section	.text._ZN8UnitTest10CheckEqualIihEEvRNS_11TestResultsERKT_RKT0_RKNS_11TestDetailsE,"axG",
 712              		.p2align 4,,15
 713              		.weak	_ZN8UnitTest10CheckEqualIihEEvRNS_11TestResultsERKT_RKT0_RKNS_11TestDetailsE
 715              	_ZN8UnitTest10CheckEqualIihEEvRNS_11TestResultsERKT_RKT0_RKNS_11TestDetailsE:
 716              	.LFB1101:
 717              		.cfi_startproc
 718              		.cfi_personality 0x3,__gxx_personality_v0
 719              		.cfi_lsda 0x3,.LLSDA1101
 720 0000 4156     		pushq	%r14
 721              		.cfi_def_cfa_offset 16
 722              		.cfi_offset 14, -16
 723 0002 4155     		pushq	%r13
 724              		.cfi_def_cfa_offset 24
 725              		.cfi_offset 13, -24
 726 0004 4154     		pushq	%r12
 727              		.cfi_def_cfa_offset 32
 728              		.cfi_offset 12, -32
 729 0006 55       		pushq	%rbp
 730              		.cfi_def_cfa_offset 40
 731              		.cfi_offset 6, -40
 732 0007 4889D5   		movq	%rdx, %rbp
 733 000a 53       		pushq	%rbx
 734              		.cfi_def_cfa_offset 48
 735              		.cfi_offset 3, -48
 736 000b 4889F3   		movq	%rsi, %rbx
 737 000e 4881EC80 		subq	$384, %rsp
 737      010000
 738              		.cfi_def_cfa_offset 432
 739 0015 0FB602   		movzbl	(%rdx), %eax
 740 0018 3906     		cmpl	%eax, (%rsi)
 741 001a 0F840A02 		je	.L85
 741      0000
 742 0020 4C8D7424 		leaq	112(%rsp), %r14
 742      70
 743 0025 4989FC   		movq	%rdi, %r12
 744 0028 4989CD   		movq	%rcx, %r13
 745 002b 4C89F7   		movq	%r14, %rdi
 746 002e E8000000 		call	_ZNSt8ios_baseC2Ev
 746      00
 747 0033 31F6     		xorl	%esi, %esi
 748 0035 4C89F7   		movq	%r14, %rdi
 749 0038 48C78424 		movq	$0, 328(%rsp)
 749      48010000 
 749      00000000 
 750 0044 C6842450 		movb	$0, 336(%rsp)
 750      01000000 
 751 004c C6842451 		movb	$0, 337(%rsp)
 751      01000000 
 752 0054 48C78424 		movq	$0, 344(%rsp)
 752      58010000 
 752      00000000 
 753 0060 48C78424 		movq	$0, 352(%rsp)
 753      60010000 
 753      00000000 
 754 006c 48C78424 		movq	$0, 360(%rsp)
 754      68010000 
 754      00000000 
 755 0078 48C78424 		movq	$0, 368(%rsp)
 755      70010000 
 755      00000000 
 756 0084 48C74424 		movq	$_ZTCN8UnitTest15MemoryOutStreamE0_So+24, 16(%rsp)
 756      10000000 
 756      00
 757 008d 48C74424 		movq	$_ZTCN8UnitTest15MemoryOutStreamE0_So+64, 112(%rsp)
 757      70000000 
 757      00
 758              	.LEHB6:
 759 0096 E8000000 		call	_ZNSt9basic_iosIcSt11char_traitsIcEE4initEPSt15basic_streambufIcS1_E
 759      00
 760              	.LEHE6:
 761 009b 488D7C24 		leaq	80(%rsp), %rdi
 761      50
 762 00a0 48C74424 		movq	$_ZTCN8UnitTest15MemoryOutStreamE0_St19basic_ostringstreamIcSt11char_traitsIcESaIcEE+24, 16(%
 762      10000000 
 762      00
 763 00a9 48C74424 		movq	$_ZTCN8UnitTest15MemoryOutStreamE0_St19basic_ostringstreamIcSt11char_traitsIcESaIcEE+64, 112(
 763      70000000 
 763      00
 764 00b2 48C74424 		movq	$_ZTVSt15basic_streambufIcSt11char_traitsIcEE+16, 24(%rsp)
 764      18000000 
 764      00
 765 00bb 48C74424 		movq	$0, 32(%rsp)
 765      20000000 
 765      00
 766 00c4 48C74424 		movq	$0, 40(%rsp)
 766      28000000 
 766      00
 767 00cd 48C74424 		movq	$0, 48(%rsp)
 767      30000000 
 767      00
 768 00d6 48C74424 		movq	$0, 56(%rsp)
 768      38000000 
 768      00
 769 00df 48C74424 		movq	$0, 64(%rsp)
 769      40000000 
 769      00
 770 00e8 48C74424 		movq	$0, 72(%rsp)
 770      48000000 
 770      00
 771 00f1 E8000000 		call	_ZNSt6localeC1Ev
 771      00
 772 00f6 488B4424 		movq	16(%rsp), %rax
 772      10
 773 00fb 488D7C24 		leaq	16(%rsp), %rdi
 773      10
 774 0100 488D7424 		leaq	24(%rsp), %rsi
 774      18
 775 0105 48C74424 		movq	$_ZTVSt15basic_stringbufIcSt11char_traitsIcESaIcEE+16, 24(%rsp)
 775      18000000 
 775      00
 776 010e C7442458 		movl	$16, 88(%rsp)
 776      10000000 
 777 0116 48C74424 		movq	$_ZNSs4_Rep20_S_empty_rep_storageE+24, 96(%rsp)
 777      60000000 
 777      00
 778 011f 480378E8 		addq	-24(%rax), %rdi
 779              	.LEHB7:
 780 0123 E8000000 		call	_ZNSt9basic_iosIcSt11char_traitsIcEE4initEPSt15basic_streambufIcS1_E
 780      00
 781              	.LEHE7:
 782 0128 488D7C24 		leaq	16(%rsp), %rdi
 782      10
 783 012d BA090000 		movl	$9, %edx
 783      00
 784 0132 BE000000 		movl	$.LC0, %esi
 784      00
 785 0137 48C74424 		movq	$_ZTVN8UnitTest15MemoryOutStreamE+24, 16(%rsp)
 785      10000000 
 785      00
 786 0140 48C74424 		movq	$_ZTVN8UnitTest15MemoryOutStreamE+64, 112(%rsp)
 786      70000000 
 786      00
 787 0149 48C74424 		movq	$_ZNSs4_Rep20_S_empty_rep_storageE+24, 104(%rsp)
 787      68000000 
 787      00
 788 0152 0FB66D00 		movzbl	0(%rbp), %ebp
 789 0156 8B1B     		movl	(%rbx), %ebx
 790              	.LEHB8:
 791 0158 E8000000 		call	_ZSt16__ostream_insertIcSt11char_traitsIcEERSt13basic_ostreamIT_T0_ES6_PKS3_l
 791      00
 792 015d 488D7C24 		leaq	16(%rsp), %rdi
 792      10
 793 0162 89DE     		movl	%ebx, %esi
 794 0164 E8000000 		call	_ZNSolsEi
 794      00
 795 0169 BA090000 		movl	$9, %edx
 795      00
 796 016e BE000000 		movl	$.LC1, %esi
 796      00
 797 0173 4889C7   		movq	%rax, %rdi
 798 0176 4889C3   		movq	%rax, %rbx
 799 0179 E8000000 		call	_ZSt16__ostream_insertIcSt11char_traitsIcEERSt13basic_ostreamIT_T0_ES6_PKS3_l
 799      00
 800 017e BA010000 		movl	$1, %edx
 800      00
 801 0183 4889E6   		movq	%rsp, %rsi
 802 0186 4889DF   		movq	%rbx, %rdi
 803 0189 40882C24 		movb	%bpl, (%rsp)
 804 018d E8000000 		call	_ZSt16__ostream_insertIcSt11char_traitsIcEERSt13basic_ostreamIT_T0_ES6_PKS3_l
 804      00
 805 0192 488D7C24 		leaq	16(%rsp), %rdi
 805      10
 806 0197 E8000000 		call	_ZNK8UnitTest15MemoryOutStream7GetTextEv
 806      00
 807 019c 4889C2   		movq	%rax, %rdx
 808 019f 4C89EE   		movq	%r13, %rsi
 809 01a2 4C89E7   		movq	%r12, %rdi
 810 01a5 E8000000 		call	_ZN8UnitTest11TestResults13OnTestFailureERKNS_11TestDetailsEPKc
 810      00
 811              	.LEHE8:
 812 01aa 488B4424 		movq	104(%rsp), %rax
 812      68
 813 01af 48C74424 		movq	$_ZTVN8UnitTest15MemoryOutStreamE+24, 16(%rsp)
 813      10000000 
 813      00
 814 01b8 48C74424 		movq	$_ZTVN8UnitTest15MemoryOutStreamE+64, 112(%rsp)
 814      70000000 
 814      00
 815 01c1 488D78E8 		leaq	-24(%rax), %rdi
 816 01c5 4881FF00 		cmpq	$_ZNSs4_Rep20_S_empty_rep_storageE, %rdi
 816      000000
 817 01cc 756C     		jne	.L108
 818              	.L92:
 819 01ce 488B4424 		movq	96(%rsp), %rax
 819      60
 820 01d3 48C74424 		movq	$_ZTCN8UnitTest15MemoryOutStreamE0_St19basic_ostringstreamIcSt11char_traitsIcESaIcEE+24, 16(%
 820      10000000 
 820      00
 821 01dc 48C74424 		movq	$_ZTCN8UnitTest15MemoryOutStreamE0_St19basic_ostringstreamIcSt11char_traitsIcESaIcEE+64, 112(
 821      70000000 
 821      00
 822 01e5 48C74424 		movq	$_ZTVSt15basic_stringbufIcSt11char_traitsIcESaIcEE+16, 24(%rsp)
 822      18000000 
 822      00
 823 01ee 488D78E8 		leaq	-24(%rax), %rdi
 824 01f2 4881FF00 		cmpq	$_ZNSs4_Rep20_S_empty_rep_storageE, %rdi
 824      000000
 825 01f9 756B     		jne	.L109
 826              	.L97:
 827 01fb 488D7C24 		leaq	80(%rsp), %rdi
 827      50
 828 0200 48C74424 		movq	$_ZTVSt15basic_streambufIcSt11char_traitsIcEE+16, 24(%rsp)
 828      18000000 
 828      00
 829 0209 E8000000 		call	_ZNSt6localeD1Ev
 829      00
 830 020e 488D7C24 		leaq	112(%rsp), %rdi
 830      70
 831 0213 48C74424 		movq	$_ZTCN8UnitTest15MemoryOutStreamE0_So+24, 16(%rsp)
 831      10000000 
 831      00
 832 021c 48C74424 		movq	$_ZTVSt9basic_iosIcSt11char_traitsIcEE+16, 112(%rsp)
 832      70000000 
 832      00
 833              	.LEHB9:
 834 0225 E8000000 		call	_ZNSt8ios_baseD2Ev
 834      00
 835              	.LEHE9:
 836              	.L85:
 837 022a 4881C480 		addq	$384, %rsp
 837      010000
 838              		.cfi_remember_state
 839              		.cfi_def_cfa_offset 48
 840 0231 5B       		popq	%rbx
 841              		.cfi_def_cfa_offset 40
 842 0232 5D       		popq	%rbp
 843              		.cfi_def_cfa_offset 32
 844 0233 415C     		popq	%r12
 845              		.cfi_def_cfa_offset 24
 846 0235 415D     		popq	%r13
 847              		.cfi_def_cfa_offset 16
 848 0237 415E     		popq	%r14
 849              		.cfi_def_cfa_offset 8
 850 0239 C3       		ret
 851              	.L108:
 852              		.cfi_restore_state
 853 023a B9000000 		movl	$_ZL28__gthrw___pthread_key_createPjPFvPvE, %ecx
 853      00
 854 023f 488D5710 		leaq	16(%rdi), %rdx
 855 0243 4885C9   		testq	%rcx, %rcx
 856 0246 747D     		je	.L93
 857 0248 83C8FF   		orl	$-1, %eax
 858 024b F00FC102 		lock xaddl	%eax, (%rdx)
 859              	.L94:
 860 024f 85C0     		testl	%eax, %eax
 861 0251 0F8F77FF 		jg	.L92
 861      FFFF
 862 0257 488D7424 		leaq	15(%rsp), %rsi
 862      0F
 863 025c E8000000 		call	_ZNSs4_Rep10_M_destroyERKSaIcE
 863      00
 864 0261 E968FFFF 		jmp	.L92
 864      FF
 865              	.L109:
 866 0266 B9000000 		movl	$_ZL28__gthrw___pthread_key_createPjPFvPvE, %ecx
 866      00
 867 026b 488D5710 		leaq	16(%rdi), %rdx
 868 026f 4885C9   		testq	%rcx, %rcx
 869 0272 7479     		je	.L98
 870 0274 83C8FF   		orl	$-1, %eax
 871 0277 F00FC102 		lock xaddl	%eax, (%rdx)
 872              	.L99:
 873 027b 85C0     		testl	%eax, %eax
 874 027d 0F8F78FF 		jg	.L97
 874      FFFF
 875 0283 488D7424 		leaq	15(%rsp), %rsi
 875      0F
 876 0288 E8000000 		call	_ZNSs4_Rep10_M_destroyERKSaIcE
 876      00
 877 028d E969FFFF 		jmp	.L97
 877      FF
 878              	.L102:
 879 0292 488D7C24 		leaq	16(%rsp), %rdi
 879      10
 880 0297 4889C3   		movq	%rax, %rbx
 881 029a E8000000 		call	_ZN8UnitTest15MemoryOutStreamD1Ev
 881      00
 882 029f 4889DF   		movq	%rbx, %rdi
 883              	.LEHB10:
 884 02a2 E8000000 		call	_Unwind_Resume
 884      00
 885              	.LEHE10:
 886              	.L103:
 887 02a7 4889C3   		movq	%rax, %rbx
 888              	.L89:
 889 02aa 488D7C24 		leaq	112(%rsp), %rdi
 889      70
 890 02af 48C74424 		movq	$_ZTVSt9basic_iosIcSt11char_traitsIcEE+16, 112(%rsp)
 890      70000000 
 890      00
 891 02b8 E8000000 		call	_ZNSt8ios_baseD2Ev
 891      00
 892 02bd 4889DF   		movq	%rbx, %rdi
 893              	.LEHB11:
 894 02c0 E8000000 		call	_Unwind_Resume
 894      00
 895              	.LEHE11:
 896              	.L93:
 897 02c5 8B50F8   		movl	-8(%rax), %edx
 898 02c8 8D4AFF   		leal	-1(%rdx), %ecx
 899 02cb 8948F8   		movl	%ecx, -8(%rax)
 900 02ce 89D0     		movl	%edx, %eax
 901 02d0 E97AFFFF 		jmp	.L94
 901      FF
 902              	.L104:
 903 02d5 488D7C24 		leaq	24(%rsp), %rdi
 903      18
 904 02da 4889C3   		movq	%rax, %rbx
 905 02dd E8000000 		call	_ZNSt15basic_stringbufIcSt11char_traitsIcESaIcEED1Ev
 905      00
 906 02e2 48C74424 		movq	$_ZTCN8UnitTest15MemoryOutStreamE0_So+24, 16(%rsp)
 906      10000000 
 906      00
 907 02eb EBBD     		jmp	.L89
 908              	.L98:
 909 02ed 8B50F8   		movl	-8(%rax), %edx
 910 02f0 8D4AFF   		leal	-1(%rdx), %ecx
 911 02f3 8948F8   		movl	%ecx, -8(%rax)
 912 02f6 89D0     		movl	%edx, %eax
 913 02f8 EB81     		jmp	.L99
 914              		.cfi_endproc
 915              	.LFE1101:
 916              		.section	.gcc_except_table._ZN8UnitTest10CheckEqualIihEEvRNS_11TestResultsERKT_RKT0_RKNS_11TestDet
 917              	.LLSDA1101:
 918 0000 FF       		.byte	0xff
 919 0001 FF       		.byte	0xff
 920 0002 01       		.byte	0x1
 921 0003 21       		.uleb128 .LLSDACSE1101-.LLSDACSB1101
 922              	.LLSDACSB1101:
 923 0004 9601     		.uleb128 .LEHB6-.LFB1101
 924 0006 05       		.uleb128 .LEHE6-.LEHB6
 925 0007 A705     		.uleb128 .L103-.LFB1101
 926 0009 00       		.uleb128 0
 927 000a A302     		.uleb128 .LEHB7-.LFB1101
 928 000c 05       		.uleb128 .LEHE7-.LEHB7
 929 000d D505     		.uleb128 .L104-.LFB1101
 930 000f 00       		.uleb128 0
 931 0010 D802     		.uleb128 .LEHB8-.LFB1101
 932 0012 52       		.uleb128 .LEHE8-.LEHB8
 933 0013 9205     		.uleb128 .L102-.LFB1101
 934 0015 00       		.uleb128 0
 935 0016 A504     		.uleb128 .LEHB9-.LFB1101
 936 0018 05       		.uleb128 .LEHE9-.LEHB9
 937 0019 00       		.uleb128 0
 938 001a 00       		.uleb128 0
 939 001b A205     		.uleb128 .LEHB10-.LFB1101
 940 001d 05       		.uleb128 .LEHE10-.LEHB10
 941 001e 00       		.uleb128 0
 942 001f 00       		.uleb128 0
 943 0020 C005     		.uleb128 .LEHB11-.LFB1101
 944 0022 05       		.uleb128 .LEHE11-.LEHB11
 945 0023 00       		.uleb128 0
 946 0024 00       		.uleb128 0
 947              	.LLSDACSE1101:
 948              		.section	.text._ZN8UnitTest10CheckEqualIihEEvRNS_11TestResultsERKT_RKT0_RKNS_11TestDetailsE,"axG",
 950              		.section	.rodata.str1.8,"aMS",@progbits,1
 951              		.align 8
 952              	.LC2:
 953 0000 556E6861 		.string	"Unhandled exception in CHECK_EQUAL(false, status)"
 953      6E646C65 
 953      64206578 
 953      63657074 
 953      696F6E20 
 954 0032 00000000 		.align 8
 954      0000
 955              	.LC3:
 956 0038 556E6861 		.string	"Unhandled exception in CHECK_EQUAL(0, nibble)"
 956      6E646C65 
 956      64206578 
 956      63657074 
 956      696F6E20 
 957 0066 0000     		.align 8
 958              	.LC4:
 959 0068 556E6861 		.string	"Unhandled exception in CHECK_EQUAL(1, nibble)"
 959      6E646C65 
 959      64206578 
 959      63657074 
 959      696F6E20 
 960 0096 0000     		.align 8
 961              	.LC5:
 962 0098 556E6861 		.string	"Unhandled exception in CHECK_EQUAL(2, nibble)"
 962      6E646C65 
 962      64206578 
 962      63657074 
 962      696F6E20 
 963 00c6 0000     		.align 8
 964              	.LC6:
 965 00c8 556E6861 		.string	"Unhandled exception in CHECK_EQUAL(3, nibble)"
 965      6E646C65 
 965      64206578 
 965      63657074 
 965      696F6E20 
 966 00f6 0000     		.align 8
 967              	.LC7:
 968 00f8 556E6861 		.string	"Unhandled exception in CHECK_EQUAL(4, nibble)"
 968      6E646C65 
 968      64206578 
 968      63657074 
 968      696F6E20 
 969 0126 0000     		.align 8
 970              	.LC8:
 971 0128 556E6861 		.string	"Unhandled exception in CHECK_EQUAL(5, nibble)"
 971      6E646C65 
 971      64206578 
 971      63657074 
 971      696F6E20 
 972 0156 0000     		.align 8
 973              	.LC9:
 974 0158 556E6861 		.string	"Unhandled exception in CHECK_EQUAL(6, nibble)"
 974      6E646C65 
 974      64206578 
 974      63657074 
 974      696F6E20 
 975 0186 0000     		.align 8
 976              	.LC10:
 977 0188 556E6861 		.string	"Unhandled exception in CHECK_EQUAL(7, nibble)"
 977      6E646C65 
 977      64206578 
 977      63657074 
 977      696F6E20 
 978 01b6 0000     		.align 8
 979              	.LC11:
 980 01b8 556E6861 		.string	"Unhandled exception in CHECK_EQUAL(8, nibble)"
 980      6E646C65 
 980      64206578 
 980      63657074 
 980      696F6E20 
 981 01e6 0000     		.align 8
 982              	.LC12:
 983 01e8 556E6861 		.string	"Unhandled exception in CHECK_EQUAL(9, nibble)"
 983      6E646C65 
 983      64206578 
 983      63657074 
 983      696F6E20 
 984 0216 0000     		.align 8
 985              	.LC13:
 986 0218 556E6861 		.string	"Unhandled exception in CHECK_EQUAL(10, nibble)"
 986      6E646C65 
 986      64206578 
 986      63657074 
 986      696F6E20 
 987 0247 00       		.align 8
 988              	.LC14:
 989 0248 556E6861 		.string	"Unhandled exception in CHECK_EQUAL(11, nibble)"
 989      6E646C65 
 989      64206578 
 989      63657074 
 989      696F6E20 
 990 0277 00       		.align 8
 991              	.LC15:
 992 0278 556E6861 		.string	"Unhandled exception in CHECK_EQUAL(12, nibble)"
 992      6E646C65 
 992      64206578 
 992      63657074 
 992      696F6E20 
 993 02a7 00       		.align 8
 994              	.LC16:
 995 02a8 556E6861 		.string	"Unhandled exception in CHECK_EQUAL(13, nibble)"
 995      6E646C65 
 995      64206578 
 995      63657074 
 995      696F6E20 
 996 02d7 00       		.align 8
 997              	.LC17:
 998 02d8 556E6861 		.string	"Unhandled exception in CHECK_EQUAL(14, nibble)"
 998      6E646C65 
 998      64206578 
 998      63657074 
 998      696F6E20 
 999 0307 00       		.align 8
 1000              	.LC18:
 1001 0308 556E6861 		.string	"Unhandled exception in CHECK_EQUAL(15, nibble)"
 1001      6E646C65 
 1001      64206578 
 1001      63657074 
 1001      696F6E20 
 1002 0337 00       		.align 8
 1003              	.LC19:
 1004 0338 556E6861 		.string	"Unhandled exception in CHECK_EQUAL(true, status)"
 1004      6E646C65 
 1004      64206578 
 1004      63657074 
 1004      696F6E20 
 1005              		.text
 1006              		.align 2
 1007              		.p2align 4,,15
 1008              		.globl	_ZNK25TestConv_testGetHexNibble7RunImplEv
 1010              	_ZNK25TestConv_testGetHexNibble7RunImplEv:
 1011              	.LFB1056:
 1012              		.cfi_startproc
 1013              		.cfi_personality 0x3,__gxx_personality_v0
 1014              		.cfi_lsda 0x3,.LLSDA1056
 1015 0000 53       		pushq	%rbx
 1016              		.cfi_def_cfa_offset 16
 1017              		.cfi_offset 3, -16
 1018 0001 BF300000 		movl	$48, %edi
 1018      00
 1019 0006 4883EC50 		subq	$80, %rsp
 1020              		.cfi_def_cfa_offset 96
 1021 000a 4889E6   		movq	%rsp, %rsi
 1022              	.LEHB12:
 1023 000d E8000000 		call	getHexNibble
 1023      00
 1024              	.LEHE12:
 1025 0012 88442410 		movb	%al, 16(%rsp)
 1026              	.LEHB13:
 1027 0016 E8000000 		call	_ZN8UnitTest11CurrentTest7DetailsEv
 1027      00
 1028 001b 488D5C24 		leaq	48(%rsp), %rbx
 1028      30
 1029 0020 488B30   		movq	(%rax), %rsi
 1030 0023 BA180000 		movl	$24, %edx
 1030      00
 1031 0028 4889DF   		movq	%rbx, %rdi
 1032 002b E8000000 		call	_ZN8UnitTest11TestDetailsC1ERKS0_i
 1032      00
 1033 0030 C6442420 		movb	$0, 32(%rsp)
 1033      00
 1034 0035 E8000000 		call	_ZN8UnitTest11CurrentTest7ResultsEv
 1034      00
 1035 003a 488B38   		movq	(%rax), %rdi
 1036 003d 488D5424 		leaq	16(%rsp), %rdx
 1036      10
 1037 0042 488D7424 		leaq	32(%rsp), %rsi
 1037      20
 1038 0047 4889D9   		movq	%rbx, %rcx
 1039 004a E8000000 		call	_ZN8UnitTest10CheckEqualIbbEEvRNS_11TestResultsERKT_RKT0_RKNS_11TestDetailsE
 1039      00
 1040              	.LEHE13:
 1041              	.L113:
 1042              	.LEHB14:
 1043 004f E8000000 		call	_ZN8UnitTest11CurrentTest7DetailsEv
 1043      00
 1044 0054 488B30   		movq	(%rax), %rsi
 1045 0057 BA190000 		movl	$25, %edx
 1045      00
 1046 005c 4889DF   		movq	%rbx, %rdi
 1047 005f E8000000 		call	_ZN8UnitTest11TestDetailsC1ERKS0_i
 1047      00
 1048 0064 C7442420 		movl	$0, 32(%rsp)
 1048      00000000 
 1049 006c E8000000 		call	_ZN8UnitTest11CurrentTest7ResultsEv
 1049      00
 1050 0071 488B38   		movq	(%rax), %rdi
 1051 0074 488D7424 		leaq	32(%rsp), %rsi
 1051      20
 1052 0079 4889D9   		movq	%rbx, %rcx
 1053 007c 4889E2   		movq	%rsp, %rdx
 1054 007f E8000000 		call	_ZN8UnitTest10CheckEqualIihEEvRNS_11TestResultsERKT_RKT0_RKNS_11TestDetailsE
 1054      00
 1055              	.LEHE14:
 1056              	.L116:
 1057 0084 4889E6   		movq	%rsp, %rsi
 1058 0087 BF310000 		movl	$49, %edi
 1058      00
 1059              	.LEHB15:
 1060 008c E8000000 		call	getHexNibble
 1060      00
 1061              	.LEHE15:
 1062 0091 88442410 		movb	%al, 16(%rsp)
 1063              	.LEHB16:
 1064 0095 E8000000 		call	_ZN8UnitTest11CurrentTest7DetailsEv
 1064      00
 1065 009a 488B30   		movq	(%rax), %rsi
 1066 009d BA1B0000 		movl	$27, %edx
 1066      00
 1067 00a2 4889DF   		movq	%rbx, %rdi
 1068 00a5 E8000000 		call	_ZN8UnitTest11TestDetailsC1ERKS0_i
 1068      00
 1069 00aa C6442420 		movb	$0, 32(%rsp)
 1069      00
 1070 00af E8000000 		call	_ZN8UnitTest11CurrentTest7ResultsEv
 1070      00
 1071 00b4 488B38   		movq	(%rax), %rdi
 1072 00b7 488D5424 		leaq	16(%rsp), %rdx
 1072      10
 1073 00bc 488D7424 		leaq	32(%rsp), %rsi
 1073      20
 1074 00c1 4889D9   		movq	%rbx, %rcx
 1075 00c4 E8000000 		call	_ZN8UnitTest10CheckEqualIbbEEvRNS_11TestResultsERKT_RKT0_RKNS_11TestDetailsE
 1075      00
 1076              	.LEHE16:
 1077              	.L119:
 1078              	.LEHB17:
 1079 00c9 E8000000 		call	_ZN8UnitTest11CurrentTest7DetailsEv
 1079      00
 1080 00ce 488B30   		movq	(%rax), %rsi
 1081 00d1 BA1C0000 		movl	$28, %edx
 1081      00
 1082 00d6 4889DF   		movq	%rbx, %rdi
 1083 00d9 E8000000 		call	_ZN8UnitTest11TestDetailsC1ERKS0_i
 1083      00
 1084 00de C7442420 		movl	$1, 32(%rsp)
 1084      01000000 
 1085 00e6 E8000000 		call	_ZN8UnitTest11CurrentTest7ResultsEv
 1085      00
 1086 00eb 488B38   		movq	(%rax), %rdi
 1087 00ee 488D7424 		leaq	32(%rsp), %rsi
 1087      20
 1088 00f3 4889D9   		movq	%rbx, %rcx
 1089 00f6 4889E2   		movq	%rsp, %rdx
 1090 00f9 E8000000 		call	_ZN8UnitTest10CheckEqualIihEEvRNS_11TestResultsERKT_RKT0_RKNS_11TestDetailsE
 1090      00
 1091              	.LEHE17:
 1092              	.L122:
 1093 00fe 4889E6   		movq	%rsp, %rsi
 1094 0101 BF320000 		movl	$50, %edi
 1094      00
 1095              	.LEHB18:
 1096 0106 E8000000 		call	getHexNibble
 1096      00
 1097              	.LEHE18:
 1098 010b 88442410 		movb	%al, 16(%rsp)
 1099              	.LEHB19:
 1100 010f E8000000 		call	_ZN8UnitTest11CurrentTest7DetailsEv
 1100      00
 1101 0114 488B30   		movq	(%rax), %rsi
 1102 0117 BA1E0000 		movl	$30, %edx
 1102      00
 1103 011c 4889DF   		movq	%rbx, %rdi
 1104 011f E8000000 		call	_ZN8UnitTest11TestDetailsC1ERKS0_i
 1104      00
 1105 0124 C6442420 		movb	$0, 32(%rsp)
 1105      00
 1106 0129 E8000000 		call	_ZN8UnitTest11CurrentTest7ResultsEv
 1106      00
 1107 012e 488B38   		movq	(%rax), %rdi
 1108 0131 488D5424 		leaq	16(%rsp), %rdx
 1108      10
 1109 0136 488D7424 		leaq	32(%rsp), %rsi
 1109      20
 1110 013b 4889D9   		movq	%rbx, %rcx
 1111 013e E8000000 		call	_ZN8UnitTest10CheckEqualIbbEEvRNS_11TestResultsERKT_RKT0_RKNS_11TestDetailsE
 1111      00
 1112              	.LEHE19:
 1113              	.L125:
 1114              	.LEHB20:
 1115 0143 E8000000 		call	_ZN8UnitTest11CurrentTest7DetailsEv
 1115      00
 1116 0148 488B30   		movq	(%rax), %rsi
 1117 014b BA1F0000 		movl	$31, %edx
 1117      00
 1118 0150 4889DF   		movq	%rbx, %rdi
 1119 0153 E8000000 		call	_ZN8UnitTest11TestDetailsC1ERKS0_i
 1119      00
 1120 0158 C7442420 		movl	$2, 32(%rsp)
 1120      02000000 
 1121 0160 E8000000 		call	_ZN8UnitTest11CurrentTest7ResultsEv
 1121      00
 1122 0165 488B38   		movq	(%rax), %rdi
 1123 0168 488D7424 		leaq	32(%rsp), %rsi
 1123      20
 1124 016d 4889D9   		movq	%rbx, %rcx
 1125 0170 4889E2   		movq	%rsp, %rdx
 1126 0173 E8000000 		call	_ZN8UnitTest10CheckEqualIihEEvRNS_11TestResultsERKT_RKT0_RKNS_11TestDetailsE
 1126      00
 1127              	.LEHE20:
 1128              	.L128:
 1129 0178 4889E6   		movq	%rsp, %rsi
 1130 017b BF330000 		movl	$51, %edi
 1130      00
 1131              	.LEHB21:
 1132 0180 E8000000 		call	getHexNibble
 1132      00
 1133              	.LEHE21:
 1134 0185 88442410 		movb	%al, 16(%rsp)
 1135              	.LEHB22:
 1136 0189 E8000000 		call	_ZN8UnitTest11CurrentTest7DetailsEv
 1136      00
 1137 018e 488B30   		movq	(%rax), %rsi
 1138 0191 BA210000 		movl	$33, %edx
 1138      00
 1139 0196 4889DF   		movq	%rbx, %rdi
 1140 0199 E8000000 		call	_ZN8UnitTest11TestDetailsC1ERKS0_i
 1140      00
 1141 019e C6442420 		movb	$0, 32(%rsp)
 1141      00
 1142 01a3 E8000000 		call	_ZN8UnitTest11CurrentTest7ResultsEv
 1142      00
 1143 01a8 488B38   		movq	(%rax), %rdi
 1144 01ab 488D5424 		leaq	16(%rsp), %rdx
 1144      10
 1145 01b0 488D7424 		leaq	32(%rsp), %rsi
 1145      20
 1146 01b5 4889D9   		movq	%rbx, %rcx
 1147 01b8 E8000000 		call	_ZN8UnitTest10CheckEqualIbbEEvRNS_11TestResultsERKT_RKT0_RKNS_11TestDetailsE
 1147      00
 1148              	.LEHE22:
 1149              	.L131:
 1150              	.LEHB23:
 1151 01bd E8000000 		call	_ZN8UnitTest11CurrentTest7DetailsEv
 1151      00
 1152 01c2 488B30   		movq	(%rax), %rsi
 1153 01c5 BA220000 		movl	$34, %edx
 1153      00
 1154 01ca 4889DF   		movq	%rbx, %rdi
 1155 01cd E8000000 		call	_ZN8UnitTest11TestDetailsC1ERKS0_i
 1155      00
 1156 01d2 C7442420 		movl	$3, 32(%rsp)
 1156      03000000 
 1157 01da E8000000 		call	_ZN8UnitTest11CurrentTest7ResultsEv
 1157      00
 1158 01df 488B38   		movq	(%rax), %rdi
 1159 01e2 488D7424 		leaq	32(%rsp), %rsi
 1159      20
 1160 01e7 4889D9   		movq	%rbx, %rcx
 1161 01ea 4889E2   		movq	%rsp, %rdx
 1162 01ed E8000000 		call	_ZN8UnitTest10CheckEqualIihEEvRNS_11TestResultsERKT_RKT0_RKNS_11TestDetailsE
 1162      00
 1163              	.LEHE23:
 1164              	.L134:
 1165 01f2 4889E6   		movq	%rsp, %rsi
 1166 01f5 BF340000 		movl	$52, %edi
 1166      00
 1167              	.LEHB24:
 1168 01fa E8000000 		call	getHexNibble
 1168      00
 1169              	.LEHE24:
 1170 01ff 88442410 		movb	%al, 16(%rsp)
 1171              	.LEHB25:
 1172 0203 E8000000 		call	_ZN8UnitTest11CurrentTest7DetailsEv
 1172      00
 1173 0208 488B30   		movq	(%rax), %rsi
 1174 020b BA240000 		movl	$36, %edx
 1174      00
 1175 0210 4889DF   		movq	%rbx, %rdi
 1176 0213 E8000000 		call	_ZN8UnitTest11TestDetailsC1ERKS0_i
 1176      00
 1177 0218 C6442420 		movb	$0, 32(%rsp)
 1177      00
 1178 021d E8000000 		call	_ZN8UnitTest11CurrentTest7ResultsEv
 1178      00
 1179 0222 488B38   		movq	(%rax), %rdi
 1180 0225 488D5424 		leaq	16(%rsp), %rdx
 1180      10
 1181 022a 488D7424 		leaq	32(%rsp), %rsi
 1181      20
 1182 022f 4889D9   		movq	%rbx, %rcx
 1183 0232 E8000000 		call	_ZN8UnitTest10CheckEqualIbbEEvRNS_11TestResultsERKT_RKT0_RKNS_11TestDetailsE
 1183      00
 1184              	.LEHE25:
 1185              	.L137:
 1186              	.LEHB26:
 1187 0237 E8000000 		call	_ZN8UnitTest11CurrentTest7DetailsEv
 1187      00
 1188 023c 488B30   		movq	(%rax), %rsi
 1189 023f BA250000 		movl	$37, %edx
 1189      00
 1190 0244 4889DF   		movq	%rbx, %rdi
 1191 0247 E8000000 		call	_ZN8UnitTest11TestDetailsC1ERKS0_i
 1191      00
 1192 024c C7442420 		movl	$4, 32(%rsp)
 1192      04000000 
 1193 0254 E8000000 		call	_ZN8UnitTest11CurrentTest7ResultsEv
 1193      00
 1194 0259 488B38   		movq	(%rax), %rdi
 1195 025c 488D7424 		leaq	32(%rsp), %rsi
 1195      20
 1196 0261 4889D9   		movq	%rbx, %rcx
 1197 0264 4889E2   		movq	%rsp, %rdx
 1198 0267 E8000000 		call	_ZN8UnitTest10CheckEqualIihEEvRNS_11TestResultsERKT_RKT0_RKNS_11TestDetailsE
 1198      00
 1199              	.LEHE26:
 1200              	.L140:
 1201 026c 4889E6   		movq	%rsp, %rsi
 1202 026f BF350000 		movl	$53, %edi
 1202      00
 1203              	.LEHB27:
 1204 0274 E8000000 		call	getHexNibble
 1204      00
 1205              	.LEHE27:
 1206 0279 88442410 		movb	%al, 16(%rsp)
 1207              	.LEHB28:
 1208 027d E8000000 		call	_ZN8UnitTest11CurrentTest7DetailsEv
 1208      00
 1209 0282 488B30   		movq	(%rax), %rsi
 1210 0285 BA270000 		movl	$39, %edx
 1210      00
 1211 028a 4889DF   		movq	%rbx, %rdi
 1212 028d E8000000 		call	_ZN8UnitTest11TestDetailsC1ERKS0_i
 1212      00
 1213 0292 C6442420 		movb	$0, 32(%rsp)
 1213      00
 1214 0297 E8000000 		call	_ZN8UnitTest11CurrentTest7ResultsEv
 1214      00
 1215 029c 488B38   		movq	(%rax), %rdi
 1216 029f 488D5424 		leaq	16(%rsp), %rdx
 1216      10
 1217 02a4 488D7424 		leaq	32(%rsp), %rsi
 1217      20
 1218 02a9 4889D9   		movq	%rbx, %rcx
 1219 02ac E8000000 		call	_ZN8UnitTest10CheckEqualIbbEEvRNS_11TestResultsERKT_RKT0_RKNS_11TestDetailsE
 1219      00
 1220              	.LEHE28:
 1221              	.L143:
 1222              	.LEHB29:
 1223 02b1 E8000000 		call	_ZN8UnitTest11CurrentTest7DetailsEv
 1223      00
 1224 02b6 488B30   		movq	(%rax), %rsi
 1225 02b9 BA280000 		movl	$40, %edx
 1225      00
 1226 02be 4889DF   		movq	%rbx, %rdi
 1227 02c1 E8000000 		call	_ZN8UnitTest11TestDetailsC1ERKS0_i
 1227      00
 1228 02c6 C7442420 		movl	$5, 32(%rsp)
 1228      05000000 
 1229 02ce E8000000 		call	_ZN8UnitTest11CurrentTest7ResultsEv
 1229      00
 1230 02d3 488B38   		movq	(%rax), %rdi
 1231 02d6 488D7424 		leaq	32(%rsp), %rsi
 1231      20
 1232 02db 4889D9   		movq	%rbx, %rcx
 1233 02de 4889E2   		movq	%rsp, %rdx
 1234 02e1 E8000000 		call	_ZN8UnitTest10CheckEqualIihEEvRNS_11TestResultsERKT_RKT0_RKNS_11TestDetailsE
 1234      00
 1235              	.LEHE29:
 1236              	.L146:
 1237 02e6 4889E6   		movq	%rsp, %rsi
 1238 02e9 BF360000 		movl	$54, %edi
 1238      00
 1239              	.LEHB30:
 1240 02ee E8000000 		call	getHexNibble
 1240      00
 1241              	.LEHE30:
 1242 02f3 88442410 		movb	%al, 16(%rsp)
 1243              	.LEHB31:
 1244 02f7 E8000000 		call	_ZN8UnitTest11CurrentTest7DetailsEv
 1244      00
 1245 02fc 488B30   		movq	(%rax), %rsi
 1246 02ff BA2A0000 		movl	$42, %edx
 1246      00
 1247 0304 4889DF   		movq	%rbx, %rdi
 1248 0307 E8000000 		call	_ZN8UnitTest11TestDetailsC1ERKS0_i
 1248      00
 1249 030c C6442420 		movb	$0, 32(%rsp)
 1249      00
 1250 0311 E8000000 		call	_ZN8UnitTest11CurrentTest7ResultsEv
 1250      00
 1251 0316 488B38   		movq	(%rax), %rdi
 1252 0319 488D5424 		leaq	16(%rsp), %rdx
 1252      10
 1253 031e 488D7424 		leaq	32(%rsp), %rsi
 1253      20
 1254 0323 4889D9   		movq	%rbx, %rcx
 1255 0326 E8000000 		call	_ZN8UnitTest10CheckEqualIbbEEvRNS_11TestResultsERKT_RKT0_RKNS_11TestDetailsE
 1255      00
 1256              	.LEHE31:
 1257              	.L149:
 1258              	.LEHB32:
 1259 032b E8000000 		call	_ZN8UnitTest11CurrentTest7DetailsEv
 1259      00
 1260 0330 488B30   		movq	(%rax), %rsi
 1261 0333 BA2B0000 		movl	$43, %edx
 1261      00
 1262 0338 4889DF   		movq	%rbx, %rdi
 1263 033b E8000000 		call	_ZN8UnitTest11TestDetailsC1ERKS0_i
 1263      00
 1264 0340 C7442420 		movl	$6, 32(%rsp)
 1264      06000000 
 1265 0348 E8000000 		call	_ZN8UnitTest11CurrentTest7ResultsEv
 1265      00
 1266 034d 488B38   		movq	(%rax), %rdi
 1267 0350 488D7424 		leaq	32(%rsp), %rsi
 1267      20
 1268 0355 4889D9   		movq	%rbx, %rcx
 1269 0358 4889E2   		movq	%rsp, %rdx
 1270 035b E8000000 		call	_ZN8UnitTest10CheckEqualIihEEvRNS_11TestResultsERKT_RKT0_RKNS_11TestDetailsE
 1270      00
 1271              	.LEHE32:
 1272              	.L152:
 1273 0360 4889E6   		movq	%rsp, %rsi
 1274 0363 BF370000 		movl	$55, %edi
 1274      00
 1275              	.LEHB33:
 1276 0368 E8000000 		call	getHexNibble
 1276      00
 1277              	.LEHE33:
 1278 036d 88442410 		movb	%al, 16(%rsp)
 1279              	.LEHB34:
 1280 0371 E8000000 		call	_ZN8UnitTest11CurrentTest7DetailsEv
 1280      00
 1281 0376 488B30   		movq	(%rax), %rsi
 1282 0379 BA2D0000 		movl	$45, %edx
 1282      00
 1283 037e 4889DF   		movq	%rbx, %rdi
 1284 0381 E8000000 		call	_ZN8UnitTest11TestDetailsC1ERKS0_i
 1284      00
 1285 0386 C6442420 		movb	$0, 32(%rsp)
 1285      00
 1286 038b E8000000 		call	_ZN8UnitTest11CurrentTest7ResultsEv
 1286      00
 1287 0390 488B38   		movq	(%rax), %rdi
 1288 0393 488D5424 		leaq	16(%rsp), %rdx
 1288      10
 1289 0398 488D7424 		leaq	32(%rsp), %rsi
 1289      20
 1290 039d 4889D9   		movq	%rbx, %rcx
 1291 03a0 E8000000 		call	_ZN8UnitTest10CheckEqualIbbEEvRNS_11TestResultsERKT_RKT0_RKNS_11TestDetailsE
 1291      00
 1292              	.LEHE34:
 1293              	.L155:
 1294              	.LEHB35:
 1295 03a5 E8000000 		call	_ZN8UnitTest11CurrentTest7DetailsEv
 1295      00
 1296 03aa 488B30   		movq	(%rax), %rsi
 1297 03ad BA2E0000 		movl	$46, %edx
 1297      00
 1298 03b2 4889DF   		movq	%rbx, %rdi
 1299 03b5 E8000000 		call	_ZN8UnitTest11TestDetailsC1ERKS0_i
 1299      00
 1300 03ba C7442420 		movl	$7, 32(%rsp)
 1300      07000000 
 1301 03c2 E8000000 		call	_ZN8UnitTest11CurrentTest7ResultsEv
 1301      00
 1302 03c7 488B38   		movq	(%rax), %rdi
 1303 03ca 488D7424 		leaq	32(%rsp), %rsi
 1303      20
 1304 03cf 4889D9   		movq	%rbx, %rcx
 1305 03d2 4889E2   		movq	%rsp, %rdx
 1306 03d5 E8000000 		call	_ZN8UnitTest10CheckEqualIihEEvRNS_11TestResultsERKT_RKT0_RKNS_11TestDetailsE
 1306      00
 1307              	.LEHE35:
 1308              	.L158:
 1309 03da 4889E6   		movq	%rsp, %rsi
 1310 03dd BF380000 		movl	$56, %edi
 1310      00
 1311              	.LEHB36:
 1312 03e2 E8000000 		call	getHexNibble
 1312      00
 1313              	.LEHE36:
 1314 03e7 88442410 		movb	%al, 16(%rsp)
 1315              	.LEHB37:
 1316 03eb E8000000 		call	_ZN8UnitTest11CurrentTest7DetailsEv
 1316      00
 1317 03f0 488B30   		movq	(%rax), %rsi
 1318 03f3 BA300000 		movl	$48, %edx
 1318      00
 1319 03f8 4889DF   		movq	%rbx, %rdi
 1320 03fb E8000000 		call	_ZN8UnitTest11TestDetailsC1ERKS0_i
 1320      00
 1321 0400 C6442420 		movb	$0, 32(%rsp)
 1321      00
 1322 0405 E8000000 		call	_ZN8UnitTest11CurrentTest7ResultsEv
 1322      00
 1323 040a 488B38   		movq	(%rax), %rdi
 1324 040d 488D5424 		leaq	16(%rsp), %rdx
 1324      10
 1325 0412 488D7424 		leaq	32(%rsp), %rsi
 1325      20
 1326 0417 4889D9   		movq	%rbx, %rcx
 1327 041a E8000000 		call	_ZN8UnitTest10CheckEqualIbbEEvRNS_11TestResultsERKT_RKT0_RKNS_11TestDetailsE
 1327      00
 1328              	.LEHE37:
 1329              	.L161:
 1330              	.LEHB38:
 1331 041f E8000000 		call	_ZN8UnitTest11CurrentTest7DetailsEv
 1331      00
 1332 0424 488B30   		movq	(%rax), %rsi
 1333 0427 BA310000 		movl	$49, %edx
 1333      00
 1334 042c 4889DF   		movq	%rbx, %rdi
 1335 042f E8000000 		call	_ZN8UnitTest11TestDetailsC1ERKS0_i
 1335      00
 1336 0434 C7442420 		movl	$8, 32(%rsp)
 1336      08000000 
 1337 043c E8000000 		call	_ZN8UnitTest11CurrentTest7ResultsEv
 1337      00
 1338 0441 488B38   		movq	(%rax), %rdi
 1339 0444 488D7424 		leaq	32(%rsp), %rsi
 1339      20
 1340 0449 4889D9   		movq	%rbx, %rcx
 1341 044c 4889E2   		movq	%rsp, %rdx
 1342 044f E8000000 		call	_ZN8UnitTest10CheckEqualIihEEvRNS_11TestResultsERKT_RKT0_RKNS_11TestDetailsE
 1342      00
 1343              	.LEHE38:
 1344              	.L164:
 1345 0454 4889E6   		movq	%rsp, %rsi
 1346 0457 BF390000 		movl	$57, %edi
 1346      00
 1347              	.LEHB39:
 1348 045c E8000000 		call	getHexNibble
 1348      00
 1349              	.LEHE39:
 1350 0461 88442410 		movb	%al, 16(%rsp)
 1351              	.LEHB40:
 1352 0465 E8000000 		call	_ZN8UnitTest11CurrentTest7DetailsEv
 1352      00
 1353 046a 488B30   		movq	(%rax), %rsi
 1354 046d BA330000 		movl	$51, %edx
 1354      00
 1355 0472 4889DF   		movq	%rbx, %rdi
 1356 0475 E8000000 		call	_ZN8UnitTest11TestDetailsC1ERKS0_i
 1356      00
 1357 047a C6442420 		movb	$0, 32(%rsp)
 1357      00
 1358 047f E8000000 		call	_ZN8UnitTest11CurrentTest7ResultsEv
 1358      00
 1359 0484 488B38   		movq	(%rax), %rdi
 1360 0487 488D5424 		leaq	16(%rsp), %rdx
 1360      10
 1361 048c 488D7424 		leaq	32(%rsp), %rsi
 1361      20
 1362 0491 4889D9   		movq	%rbx, %rcx
 1363 0494 E8000000 		call	_ZN8UnitTest10CheckEqualIbbEEvRNS_11TestResultsERKT_RKT0_RKNS_11TestDetailsE
 1363      00
 1364              	.LEHE40:
 1365              	.L167:
 1366              	.LEHB41:
 1367 0499 E8000000 		call	_ZN8UnitTest11CurrentTest7DetailsEv
 1367      00
 1368 049e 488B30   		movq	(%rax), %rsi
 1369 04a1 BA340000 		movl	$52, %edx
 1369      00
 1370 04a6 4889DF   		movq	%rbx, %rdi
 1371 04a9 E8000000 		call	_ZN8UnitTest11TestDetailsC1ERKS0_i
 1371      00
 1372 04ae C7442420 		movl	$9, 32(%rsp)
 1372      09000000 
 1373 04b6 E8000000 		call	_ZN8UnitTest11CurrentTest7ResultsEv
 1373      00
 1374 04bb 488B38   		movq	(%rax), %rdi
 1375 04be 488D7424 		leaq	32(%rsp), %rsi
 1375      20
 1376 04c3 4889D9   		movq	%rbx, %rcx
 1377 04c6 4889E2   		movq	%rsp, %rdx
 1378 04c9 E8000000 		call	_ZN8UnitTest10CheckEqualIihEEvRNS_11TestResultsERKT_RKT0_RKNS_11TestDetailsE
 1378      00
 1379              	.LEHE41:
 1380              	.L170:
 1381 04ce 4889E6   		movq	%rsp, %rsi
 1382 04d1 BF410000 		movl	$65, %edi
 1382      00
 1383              	.LEHB42:
 1384 04d6 E8000000 		call	getHexNibble
 1384      00
 1385              	.LEHE42:
 1386 04db 88442410 		movb	%al, 16(%rsp)
 1387              	.LEHB43:
 1388 04df E8000000 		call	_ZN8UnitTest11CurrentTest7DetailsEv
 1388      00
 1389 04e4 488B30   		movq	(%rax), %rsi
 1390 04e7 BA360000 		movl	$54, %edx
 1390      00
 1391 04ec 4889DF   		movq	%rbx, %rdi
 1392 04ef E8000000 		call	_ZN8UnitTest11TestDetailsC1ERKS0_i
 1392      00
 1393 04f4 C6442420 		movb	$0, 32(%rsp)
 1393      00
 1394 04f9 E8000000 		call	_ZN8UnitTest11CurrentTest7ResultsEv
 1394      00
 1395 04fe 488B38   		movq	(%rax), %rdi
 1396 0501 488D5424 		leaq	16(%rsp), %rdx
 1396      10
 1397 0506 488D7424 		leaq	32(%rsp), %rsi
 1397      20
 1398 050b 4889D9   		movq	%rbx, %rcx
 1399 050e E8000000 		call	_ZN8UnitTest10CheckEqualIbbEEvRNS_11TestResultsERKT_RKT0_RKNS_11TestDetailsE
 1399      00
 1400              	.LEHE43:
 1401              	.L173:
 1402              	.LEHB44:
 1403 0513 E8000000 		call	_ZN8UnitTest11CurrentTest7DetailsEv
 1403      00
 1404 0518 488B30   		movq	(%rax), %rsi
 1405 051b BA370000 		movl	$55, %edx
 1405      00
 1406 0520 4889DF   		movq	%rbx, %rdi
 1407 0523 E8000000 		call	_ZN8UnitTest11TestDetailsC1ERKS0_i
 1407      00
 1408 0528 C7442420 		movl	$10, 32(%rsp)
 1408      0A000000 
 1409 0530 E8000000 		call	_ZN8UnitTest11CurrentTest7ResultsEv
 1409      00
 1410 0535 488B38   		movq	(%rax), %rdi
 1411 0538 488D7424 		leaq	32(%rsp), %rsi
 1411      20
 1412 053d 4889D9   		movq	%rbx, %rcx
 1413 0540 4889E2   		movq	%rsp, %rdx
 1414 0543 E8000000 		call	_ZN8UnitTest10CheckEqualIihEEvRNS_11TestResultsERKT_RKT0_RKNS_11TestDetailsE
 1414      00
 1415              	.LEHE44:
 1416              	.L176:
 1417 0548 4889E6   		movq	%rsp, %rsi
 1418 054b BF420000 		movl	$66, %edi
 1418      00
 1419              	.LEHB45:
 1420 0550 E8000000 		call	getHexNibble
 1420      00
 1421              	.LEHE45:
 1422 0555 88442410 		movb	%al, 16(%rsp)
 1423              	.LEHB46:
 1424 0559 E8000000 		call	_ZN8UnitTest11CurrentTest7DetailsEv
 1424      00
 1425 055e 488B30   		movq	(%rax), %rsi
 1426 0561 BA390000 		movl	$57, %edx
 1426      00
 1427 0566 4889DF   		movq	%rbx, %rdi
 1428 0569 E8000000 		call	_ZN8UnitTest11TestDetailsC1ERKS0_i
 1428      00
 1429 056e C6442420 		movb	$0, 32(%rsp)
 1429      00
 1430 0573 E8000000 		call	_ZN8UnitTest11CurrentTest7ResultsEv
 1430      00
 1431 0578 488B38   		movq	(%rax), %rdi
 1432 057b 488D5424 		leaq	16(%rsp), %rdx
 1432      10
 1433 0580 488D7424 		leaq	32(%rsp), %rsi
 1433      20
 1434 0585 4889D9   		movq	%rbx, %rcx
 1435 0588 E8000000 		call	_ZN8UnitTest10CheckEqualIbbEEvRNS_11TestResultsERKT_RKT0_RKNS_11TestDetailsE
 1435      00
 1436              	.LEHE46:
 1437              	.L179:
 1438              	.LEHB47:
 1439 058d E8000000 		call	_ZN8UnitTest11CurrentTest7DetailsEv
 1439      00
 1440 0592 488B30   		movq	(%rax), %rsi
 1441 0595 BA3A0000 		movl	$58, %edx
 1441      00
 1442 059a 4889DF   		movq	%rbx, %rdi
 1443 059d E8000000 		call	_ZN8UnitTest11TestDetailsC1ERKS0_i
 1443      00
 1444 05a2 C7442420 		movl	$11, 32(%rsp)
 1444      0B000000 
 1445 05aa E8000000 		call	_ZN8UnitTest11CurrentTest7ResultsEv
 1445      00
 1446 05af 488B38   		movq	(%rax), %rdi
 1447 05b2 488D7424 		leaq	32(%rsp), %rsi
 1447      20
 1448 05b7 4889D9   		movq	%rbx, %rcx
 1449 05ba 4889E2   		movq	%rsp, %rdx
 1450 05bd E8000000 		call	_ZN8UnitTest10CheckEqualIihEEvRNS_11TestResultsERKT_RKT0_RKNS_11TestDetailsE
 1450      00
 1451              	.LEHE47:
 1452              	.L182:
 1453 05c2 4889E6   		movq	%rsp, %rsi
 1454 05c5 BF430000 		movl	$67, %edi
 1454      00
 1455              	.LEHB48:
 1456 05ca E8000000 		call	getHexNibble
 1456      00
 1457              	.LEHE48:
 1458 05cf 88442410 		movb	%al, 16(%rsp)
 1459              	.LEHB49:
 1460 05d3 E8000000 		call	_ZN8UnitTest11CurrentTest7DetailsEv
 1460      00
 1461 05d8 488B30   		movq	(%rax), %rsi
 1462 05db BA3C0000 		movl	$60, %edx
 1462      00
 1463 05e0 4889DF   		movq	%rbx, %rdi
 1464 05e3 E8000000 		call	_ZN8UnitTest11TestDetailsC1ERKS0_i
 1464      00
 1465 05e8 C6442420 		movb	$0, 32(%rsp)
 1465      00
 1466 05ed E8000000 		call	_ZN8UnitTest11CurrentTest7ResultsEv
 1466      00
 1467 05f2 488B38   		movq	(%rax), %rdi
 1468 05f5 488D5424 		leaq	16(%rsp), %rdx
 1468      10
 1469 05fa 488D7424 		leaq	32(%rsp), %rsi
 1469      20
 1470 05ff 4889D9   		movq	%rbx, %rcx
 1471 0602 E8000000 		call	_ZN8UnitTest10CheckEqualIbbEEvRNS_11TestResultsERKT_RKT0_RKNS_11TestDetailsE
 1471      00
 1472              	.LEHE49:
 1473              	.L185:
 1474              	.LEHB50:
 1475 0607 E8000000 		call	_ZN8UnitTest11CurrentTest7DetailsEv
 1475      00
 1476 060c 488B30   		movq	(%rax), %rsi
 1477 060f BA3D0000 		movl	$61, %edx
 1477      00
 1478 0614 4889DF   		movq	%rbx, %rdi
 1479 0617 E8000000 		call	_ZN8UnitTest11TestDetailsC1ERKS0_i
 1479      00
 1480 061c C7442420 		movl	$12, 32(%rsp)
 1480      0C000000 
 1481 0624 E8000000 		call	_ZN8UnitTest11CurrentTest7ResultsEv
 1481      00
 1482 0629 488B38   		movq	(%rax), %rdi
 1483 062c 488D7424 		leaq	32(%rsp), %rsi
 1483      20
 1484 0631 4889D9   		movq	%rbx, %rcx
 1485 0634 4889E2   		movq	%rsp, %rdx
 1486 0637 E8000000 		call	_ZN8UnitTest10CheckEqualIihEEvRNS_11TestResultsERKT_RKT0_RKNS_11TestDetailsE
 1486      00
 1487              	.LEHE50:
 1488              	.L188:
 1489 063c 4889E6   		movq	%rsp, %rsi
 1490 063f BF440000 		movl	$68, %edi
 1490      00
 1491              	.LEHB51:
 1492 0644 E8000000 		call	getHexNibble
 1492      00
 1493              	.LEHE51:
 1494 0649 88442410 		movb	%al, 16(%rsp)
 1495              	.LEHB52:
 1496 064d E8000000 		call	_ZN8UnitTest11CurrentTest7DetailsEv
 1496      00
 1497 0652 488B30   		movq	(%rax), %rsi
 1498 0655 BA3F0000 		movl	$63, %edx
 1498      00
 1499 065a 4889DF   		movq	%rbx, %rdi
 1500 065d E8000000 		call	_ZN8UnitTest11TestDetailsC1ERKS0_i
 1500      00
 1501 0662 C6442420 		movb	$0, 32(%rsp)
 1501      00
 1502 0667 E8000000 		call	_ZN8UnitTest11CurrentTest7ResultsEv
 1502      00
 1503 066c 488B38   		movq	(%rax), %rdi
 1504 066f 488D5424 		leaq	16(%rsp), %rdx
 1504      10
 1505 0674 488D7424 		leaq	32(%rsp), %rsi
 1505      20
 1506 0679 4889D9   		movq	%rbx, %rcx
 1507 067c E8000000 		call	_ZN8UnitTest10CheckEqualIbbEEvRNS_11TestResultsERKT_RKT0_RKNS_11TestDetailsE
 1507      00
 1508              	.LEHE52:
 1509              	.L191:
 1510              	.LEHB53:
 1511 0681 E8000000 		call	_ZN8UnitTest11CurrentTest7DetailsEv
 1511      00
 1512 0686 488B30   		movq	(%rax), %rsi
 1513 0689 BA400000 		movl	$64, %edx
 1513      00
 1514 068e 4889DF   		movq	%rbx, %rdi
 1515 0691 E8000000 		call	_ZN8UnitTest11TestDetailsC1ERKS0_i
 1515      00
 1516 0696 C7442420 		movl	$13, 32(%rsp)
 1516      0D000000 
 1517 069e E8000000 		call	_ZN8UnitTest11CurrentTest7ResultsEv
 1517      00
 1518 06a3 488B38   		movq	(%rax), %rdi
 1519 06a6 488D7424 		leaq	32(%rsp), %rsi
 1519      20
 1520 06ab 4889D9   		movq	%rbx, %rcx
 1521 06ae 4889E2   		movq	%rsp, %rdx
 1522 06b1 E8000000 		call	_ZN8UnitTest10CheckEqualIihEEvRNS_11TestResultsERKT_RKT0_RKNS_11TestDetailsE
 1522      00
 1523              	.LEHE53:
 1524              	.L194:
 1525 06b6 4889E6   		movq	%rsp, %rsi
 1526 06b9 BF450000 		movl	$69, %edi
 1526      00
 1527              	.LEHB54:
 1528 06be E8000000 		call	getHexNibble
 1528      00
 1529              	.LEHE54:
 1530 06c3 88442410 		movb	%al, 16(%rsp)
 1531              	.LEHB55:
 1532 06c7 E8000000 		call	_ZN8UnitTest11CurrentTest7DetailsEv
 1532      00
 1533 06cc 488B30   		movq	(%rax), %rsi
 1534 06cf BA420000 		movl	$66, %edx
 1534      00
 1535 06d4 4889DF   		movq	%rbx, %rdi
 1536 06d7 E8000000 		call	_ZN8UnitTest11TestDetailsC1ERKS0_i
 1536      00
 1537 06dc C6442420 		movb	$0, 32(%rsp)
 1537      00
 1538 06e1 E8000000 		call	_ZN8UnitTest11CurrentTest7ResultsEv
 1538      00
 1539 06e6 488B38   		movq	(%rax), %rdi
 1540 06e9 488D5424 		leaq	16(%rsp), %rdx
 1540      10
 1541 06ee 488D7424 		leaq	32(%rsp), %rsi
 1541      20
 1542 06f3 4889D9   		movq	%rbx, %rcx
 1543 06f6 E8000000 		call	_ZN8UnitTest10CheckEqualIbbEEvRNS_11TestResultsERKT_RKT0_RKNS_11TestDetailsE
 1543      00
 1544              	.LEHE55:
 1545              	.L197:
 1546              	.LEHB56:
 1547 06fb E8000000 		call	_ZN8UnitTest11CurrentTest7DetailsEv
 1547      00
 1548 0700 488B30   		movq	(%rax), %rsi
 1549 0703 BA430000 		movl	$67, %edx
 1549      00
 1550 0708 4889DF   		movq	%rbx, %rdi
 1551 070b E8000000 		call	_ZN8UnitTest11TestDetailsC1ERKS0_i
 1551      00
 1552 0710 C7442420 		movl	$14, 32(%rsp)
 1552      0E000000 
 1553 0718 E8000000 		call	_ZN8UnitTest11CurrentTest7ResultsEv
 1553      00
 1554 071d 488B38   		movq	(%rax), %rdi
 1555 0720 488D7424 		leaq	32(%rsp), %rsi
 1555      20
 1556 0725 4889D9   		movq	%rbx, %rcx
 1557 0728 4889E2   		movq	%rsp, %rdx
 1558 072b E8000000 		call	_ZN8UnitTest10CheckEqualIihEEvRNS_11TestResultsERKT_RKT0_RKNS_11TestDetailsE
 1558      00
 1559              	.LEHE56:
 1560              	.L200:
 1561 0730 4889E6   		movq	%rsp, %rsi
 1562 0733 BF460000 		movl	$70, %edi
 1562      00
 1563              	.LEHB57:
 1564 0738 E8000000 		call	getHexNibble
 1564      00
 1565              	.LEHE57:
 1566 073d 88442410 		movb	%al, 16(%rsp)
 1567              	.LEHB58:
 1568 0741 E8000000 		call	_ZN8UnitTest11CurrentTest7DetailsEv
 1568      00
 1569 0746 488B30   		movq	(%rax), %rsi
 1570 0749 BA450000 		movl	$69, %edx
 1570      00
 1571 074e 4889DF   		movq	%rbx, %rdi
 1572 0751 E8000000 		call	_ZN8UnitTest11TestDetailsC1ERKS0_i
 1572      00
 1573 0756 C6442420 		movb	$0, 32(%rsp)
 1573      00
 1574 075b E8000000 		call	_ZN8UnitTest11CurrentTest7ResultsEv
 1574      00
 1575 0760 488B38   		movq	(%rax), %rdi
 1576 0763 488D5424 		leaq	16(%rsp), %rdx
 1576      10
 1577 0768 488D7424 		leaq	32(%rsp), %rsi
 1577      20
 1578 076d 4889D9   		movq	%rbx, %rcx
 1579 0770 E8000000 		call	_ZN8UnitTest10CheckEqualIbbEEvRNS_11TestResultsERKT_RKT0_RKNS_11TestDetailsE
 1579      00
 1580              	.LEHE58:
 1581              	.L203:
 1582              	.LEHB59:
 1583 0775 E8000000 		call	_ZN8UnitTest11CurrentTest7DetailsEv
 1583      00
 1584 077a 488B30   		movq	(%rax), %rsi
 1585 077d BA460000 		movl	$70, %edx
 1585      00
 1586 0782 4889DF   		movq	%rbx, %rdi
 1587 0785 E8000000 		call	_ZN8UnitTest11TestDetailsC1ERKS0_i
 1587      00
 1588 078a C7442420 		movl	$15, 32(%rsp)
 1588      0F000000 
 1589 0792 E8000000 		call	_ZN8UnitTest11CurrentTest7ResultsEv
 1589      00
 1590 0797 488B38   		movq	(%rax), %rdi
 1591 079a 488D7424 		leaq	32(%rsp), %rsi
 1591      20
 1592 079f 4889D9   		movq	%rbx, %rcx
 1593 07a2 4889E2   		movq	%rsp, %rdx
 1594 07a5 E8000000 		call	_ZN8UnitTest10CheckEqualIihEEvRNS_11TestResultsERKT_RKT0_RKNS_11TestDetailsE
 1594      00
 1595              	.LEHE59:
 1596              	.L206:
 1597 07aa 4889E6   		movq	%rsp, %rsi
 1598 07ad BF610000 		movl	$97, %edi
 1598      00
 1599              	.LEHB60:
 1600 07b2 E8000000 		call	getHexNibble
 1600      00
 1601              	.LEHE60:
 1602 07b7 88442410 		movb	%al, 16(%rsp)
 1603              	.LEHB61:
 1604 07bb E8000000 		call	_ZN8UnitTest11CurrentTest7DetailsEv
 1604      00
 1605 07c0 488B30   		movq	(%rax), %rsi
 1606 07c3 BA480000 		movl	$72, %edx
 1606      00
 1607 07c8 4889DF   		movq	%rbx, %rdi
 1608 07cb E8000000 		call	_ZN8UnitTest11TestDetailsC1ERKS0_i
 1608      00
 1609 07d0 C6442420 		movb	$0, 32(%rsp)
 1609      00
 1610 07d5 E8000000 		call	_ZN8UnitTest11CurrentTest7ResultsEv
 1610      00
 1611 07da 488B38   		movq	(%rax), %rdi
 1612 07dd 488D5424 		leaq	16(%rsp), %rdx
 1612      10
 1613 07e2 488D7424 		leaq	32(%rsp), %rsi
 1613      20
 1614 07e7 4889D9   		movq	%rbx, %rcx
 1615 07ea E8000000 		call	_ZN8UnitTest10CheckEqualIbbEEvRNS_11TestResultsERKT_RKT0_RKNS_11TestDetailsE
 1615      00
 1616              	.LEHE61:
 1617              	.L209:
 1618              	.LEHB62:
 1619 07ef E8000000 		call	_ZN8UnitTest11CurrentTest7DetailsEv
 1619      00
 1620 07f4 488B30   		movq	(%rax), %rsi
 1621 07f7 BA490000 		movl	$73, %edx
 1621      00
 1622 07fc 4889DF   		movq	%rbx, %rdi
 1623 07ff E8000000 		call	_ZN8UnitTest11TestDetailsC1ERKS0_i
 1623      00
 1624 0804 C7442420 		movl	$10, 32(%rsp)
 1624      0A000000 
 1625 080c E8000000 		call	_ZN8UnitTest11CurrentTest7ResultsEv
 1625      00
 1626 0811 488B38   		movq	(%rax), %rdi
 1627 0814 488D7424 		leaq	32(%rsp), %rsi
 1627      20
 1628 0819 4889D9   		movq	%rbx, %rcx
 1629 081c 4889E2   		movq	%rsp, %rdx
 1630 081f E8000000 		call	_ZN8UnitTest10CheckEqualIihEEvRNS_11TestResultsERKT_RKT0_RKNS_11TestDetailsE
 1630      00
 1631              	.LEHE62:
 1632              	.L212:
 1633 0824 4889E6   		movq	%rsp, %rsi
 1634 0827 BF620000 		movl	$98, %edi
 1634      00
 1635              	.LEHB63:
 1636 082c E8000000 		call	getHexNibble
 1636      00
 1637              	.LEHE63:
 1638 0831 88442410 		movb	%al, 16(%rsp)
 1639              	.LEHB64:
 1640 0835 E8000000 		call	_ZN8UnitTest11CurrentTest7DetailsEv
 1640      00
 1641 083a 488B30   		movq	(%rax), %rsi
 1642 083d BA4B0000 		movl	$75, %edx
 1642      00
 1643 0842 4889DF   		movq	%rbx, %rdi
 1644 0845 E8000000 		call	_ZN8UnitTest11TestDetailsC1ERKS0_i
 1644      00
 1645 084a C6442420 		movb	$0, 32(%rsp)
 1645      00
 1646 084f E8000000 		call	_ZN8UnitTest11CurrentTest7ResultsEv
 1646      00
 1647 0854 488B38   		movq	(%rax), %rdi
 1648 0857 488D5424 		leaq	16(%rsp), %rdx
 1648      10
 1649 085c 488D7424 		leaq	32(%rsp), %rsi
 1649      20
 1650 0861 4889D9   		movq	%rbx, %rcx
 1651 0864 E8000000 		call	_ZN8UnitTest10CheckEqualIbbEEvRNS_11TestResultsERKT_RKT0_RKNS_11TestDetailsE
 1651      00
 1652              	.LEHE64:
 1653              	.L215:
 1654              	.LEHB65:
 1655 0869 E8000000 		call	_ZN8UnitTest11CurrentTest7DetailsEv
 1655      00
 1656 086e 488B30   		movq	(%rax), %rsi
 1657 0871 BA4C0000 		movl	$76, %edx
 1657      00
 1658 0876 4889DF   		movq	%rbx, %rdi
 1659 0879 E8000000 		call	_ZN8UnitTest11TestDetailsC1ERKS0_i
 1659      00
 1660 087e C7442420 		movl	$11, 32(%rsp)
 1660      0B000000 
 1661 0886 E8000000 		call	_ZN8UnitTest11CurrentTest7ResultsEv
 1661      00
 1662 088b 488B38   		movq	(%rax), %rdi
 1663 088e 488D7424 		leaq	32(%rsp), %rsi
 1663      20
 1664 0893 4889D9   		movq	%rbx, %rcx
 1665 0896 4889E2   		movq	%rsp, %rdx
 1666 0899 E8000000 		call	_ZN8UnitTest10CheckEqualIihEEvRNS_11TestResultsERKT_RKT0_RKNS_11TestDetailsE
 1666      00
 1667              	.LEHE65:
 1668              	.L218:
 1669 089e 4889E6   		movq	%rsp, %rsi
 1670 08a1 BF630000 		movl	$99, %edi
 1670      00
 1671              	.LEHB66:
 1672 08a6 E8000000 		call	getHexNibble
 1672      00
 1673              	.LEHE66:
 1674 08ab 88442410 		movb	%al, 16(%rsp)
 1675              	.LEHB67:
 1676 08af E8000000 		call	_ZN8UnitTest11CurrentTest7DetailsEv
 1676      00
 1677 08b4 488B30   		movq	(%rax), %rsi
 1678 08b7 BA4E0000 		movl	$78, %edx
 1678      00
 1679 08bc 4889DF   		movq	%rbx, %rdi
 1680 08bf E8000000 		call	_ZN8UnitTest11TestDetailsC1ERKS0_i
 1680      00
 1681 08c4 C6442420 		movb	$0, 32(%rsp)
 1681      00
 1682 08c9 E8000000 		call	_ZN8UnitTest11CurrentTest7ResultsEv
 1682      00
 1683 08ce 488B38   		movq	(%rax), %rdi
 1684 08d1 488D5424 		leaq	16(%rsp), %rdx
 1684      10
 1685 08d6 488D7424 		leaq	32(%rsp), %rsi
 1685      20
 1686 08db 4889D9   		movq	%rbx, %rcx
 1687 08de E8000000 		call	_ZN8UnitTest10CheckEqualIbbEEvRNS_11TestResultsERKT_RKT0_RKNS_11TestDetailsE
 1687      00
 1688              	.LEHE67:
 1689              	.L221:
 1690              	.LEHB68:
 1691 08e3 E8000000 		call	_ZN8UnitTest11CurrentTest7DetailsEv
 1691      00
 1692 08e8 488B30   		movq	(%rax), %rsi
 1693 08eb BA4F0000 		movl	$79, %edx
 1693      00
 1694 08f0 4889DF   		movq	%rbx, %rdi
 1695 08f3 E8000000 		call	_ZN8UnitTest11TestDetailsC1ERKS0_i
 1695      00
 1696 08f8 C7442420 		movl	$12, 32(%rsp)
 1696      0C000000 
 1697 0900 E8000000 		call	_ZN8UnitTest11CurrentTest7ResultsEv
 1697      00
 1698 0905 488B38   		movq	(%rax), %rdi
 1699 0908 488D7424 		leaq	32(%rsp), %rsi
 1699      20
 1700 090d 4889D9   		movq	%rbx, %rcx
 1701 0910 4889E2   		movq	%rsp, %rdx
 1702 0913 E8000000 		call	_ZN8UnitTest10CheckEqualIihEEvRNS_11TestResultsERKT_RKT0_RKNS_11TestDetailsE
 1702      00
 1703              	.LEHE68:
 1704              	.L224:
 1705 0918 4889E6   		movq	%rsp, %rsi
 1706 091b BF640000 		movl	$100, %edi
 1706      00
 1707              	.LEHB69:
 1708 0920 E8000000 		call	getHexNibble
 1708      00
 1709              	.LEHE69:
 1710 0925 88442410 		movb	%al, 16(%rsp)
 1711              	.LEHB70:
 1712 0929 E8000000 		call	_ZN8UnitTest11CurrentTest7DetailsEv
 1712      00
 1713 092e 488B30   		movq	(%rax), %rsi
 1714 0931 BA510000 		movl	$81, %edx
 1714      00
 1715 0936 4889DF   		movq	%rbx, %rdi
 1716 0939 E8000000 		call	_ZN8UnitTest11TestDetailsC1ERKS0_i
 1716      00
 1717 093e C6442420 		movb	$0, 32(%rsp)
 1717      00
 1718 0943 E8000000 		call	_ZN8UnitTest11CurrentTest7ResultsEv
 1718      00
 1719 0948 488B38   		movq	(%rax), %rdi
 1720 094b 488D5424 		leaq	16(%rsp), %rdx
 1720      10
 1721 0950 488D7424 		leaq	32(%rsp), %rsi
 1721      20
 1722 0955 4889D9   		movq	%rbx, %rcx
 1723 0958 E8000000 		call	_ZN8UnitTest10CheckEqualIbbEEvRNS_11TestResultsERKT_RKT0_RKNS_11TestDetailsE
 1723      00
 1724              	.LEHE70:
 1725              	.L227:
 1726              	.LEHB71:
 1727 095d E8000000 		call	_ZN8UnitTest11CurrentTest7DetailsEv
 1727      00
 1728 0962 488B30   		movq	(%rax), %rsi
 1729 0965 BA520000 		movl	$82, %edx
 1729      00
 1730 096a 4889DF   		movq	%rbx, %rdi
 1731 096d E8000000 		call	_ZN8UnitTest11TestDetailsC1ERKS0_i
 1731      00
 1732 0972 C7442420 		movl	$13, 32(%rsp)
 1732      0D000000 
 1733 097a E8000000 		call	_ZN8UnitTest11CurrentTest7ResultsEv
 1733      00
 1734 097f 488B38   		movq	(%rax), %rdi
 1735 0982 488D7424 		leaq	32(%rsp), %rsi
 1735      20
 1736 0987 4889D9   		movq	%rbx, %rcx
 1737 098a 4889E2   		movq	%rsp, %rdx
 1738 098d E8000000 		call	_ZN8UnitTest10CheckEqualIihEEvRNS_11TestResultsERKT_RKT0_RKNS_11TestDetailsE
 1738      00
 1739              	.LEHE71:
 1740              	.L230:
 1741 0992 4889E6   		movq	%rsp, %rsi
 1742 0995 BF650000 		movl	$101, %edi
 1742      00
 1743              	.LEHB72:
 1744 099a E8000000 		call	getHexNibble
 1744      00
 1745              	.LEHE72:
 1746 099f 88442410 		movb	%al, 16(%rsp)
 1747              	.LEHB73:
 1748 09a3 E8000000 		call	_ZN8UnitTest11CurrentTest7DetailsEv
 1748      00
 1749 09a8 488B30   		movq	(%rax), %rsi
 1750 09ab BA540000 		movl	$84, %edx
 1750      00
 1751 09b0 4889DF   		movq	%rbx, %rdi
 1752 09b3 E8000000 		call	_ZN8UnitTest11TestDetailsC1ERKS0_i
 1752      00
 1753 09b8 C6442420 		movb	$0, 32(%rsp)
 1753      00
 1754 09bd E8000000 		call	_ZN8UnitTest11CurrentTest7ResultsEv
 1754      00
 1755 09c2 488B38   		movq	(%rax), %rdi
 1756 09c5 488D5424 		leaq	16(%rsp), %rdx
 1756      10
 1757 09ca 488D7424 		leaq	32(%rsp), %rsi
 1757      20
 1758 09cf 4889D9   		movq	%rbx, %rcx
 1759 09d2 E8000000 		call	_ZN8UnitTest10CheckEqualIbbEEvRNS_11TestResultsERKT_RKT0_RKNS_11TestDetailsE
 1759      00
 1760              	.LEHE73:
 1761              	.L233:
 1762              	.LEHB74:
 1763 09d7 E8000000 		call	_ZN8UnitTest11CurrentTest7DetailsEv
 1763      00
 1764 09dc 488B30   		movq	(%rax), %rsi
 1765 09df BA550000 		movl	$85, %edx
 1765      00
 1766 09e4 4889DF   		movq	%rbx, %rdi
 1767 09e7 E8000000 		call	_ZN8UnitTest11TestDetailsC1ERKS0_i
 1767      00
 1768 09ec C7442420 		movl	$14, 32(%rsp)
 1768      0E000000 
 1769 09f4 E8000000 		call	_ZN8UnitTest11CurrentTest7ResultsEv
 1769      00
 1770 09f9 488B38   		movq	(%rax), %rdi
 1771 09fc 488D7424 		leaq	32(%rsp), %rsi
 1771      20
 1772 0a01 4889D9   		movq	%rbx, %rcx
 1773 0a04 4889E2   		movq	%rsp, %rdx
 1774 0a07 E8000000 		call	_ZN8UnitTest10CheckEqualIihEEvRNS_11TestResultsERKT_RKT0_RKNS_11TestDetailsE
 1774      00
 1775              	.LEHE74:
 1776              	.L236:
 1777 0a0c 4889E6   		movq	%rsp, %rsi
 1778 0a0f BF660000 		movl	$102, %edi
 1778      00
 1779              	.LEHB75:
 1780 0a14 E8000000 		call	getHexNibble
 1780      00
 1781              	.LEHE75:
 1782 0a19 88442410 		movb	%al, 16(%rsp)
 1783              	.LEHB76:
 1784 0a1d E8000000 		call	_ZN8UnitTest11CurrentTest7DetailsEv
 1784      00
 1785 0a22 488B30   		movq	(%rax), %rsi
 1786 0a25 BA570000 		movl	$87, %edx
 1786      00
 1787 0a2a 4889DF   		movq	%rbx, %rdi
 1788 0a2d E8000000 		call	_ZN8UnitTest11TestDetailsC1ERKS0_i
 1788      00
 1789 0a32 C6442420 		movb	$0, 32(%rsp)
 1789      00
 1790 0a37 E8000000 		call	_ZN8UnitTest11CurrentTest7ResultsEv
 1790      00
 1791 0a3c 488B38   		movq	(%rax), %rdi
 1792 0a3f 488D5424 		leaq	16(%rsp), %rdx
 1792      10
 1793 0a44 488D7424 		leaq	32(%rsp), %rsi
 1793      20
 1794 0a49 4889D9   		movq	%rbx, %rcx
 1795 0a4c E8000000 		call	_ZN8UnitTest10CheckEqualIbbEEvRNS_11TestResultsERKT_RKT0_RKNS_11TestDetailsE
 1795      00
 1796              	.LEHE76:
 1797              	.L239:
 1798              	.LEHB77:
 1799 0a51 E8000000 		call	_ZN8UnitTest11CurrentTest7DetailsEv
 1799      00
 1800 0a56 488B30   		movq	(%rax), %rsi
 1801 0a59 BA580000 		movl	$88, %edx
 1801      00
 1802 0a5e 4889DF   		movq	%rbx, %rdi
 1803 0a61 E8000000 		call	_ZN8UnitTest11TestDetailsC1ERKS0_i
 1803      00
 1804 0a66 C7442420 		movl	$15, 32(%rsp)
 1804      0F000000 
 1805 0a6e E8000000 		call	_ZN8UnitTest11CurrentTest7ResultsEv
 1805      00
 1806 0a73 488B38   		movq	(%rax), %rdi
 1807 0a76 488D7424 		leaq	32(%rsp), %rsi
 1807      20
 1808 0a7b 4889D9   		movq	%rbx, %rcx
 1809 0a7e 4889E2   		movq	%rsp, %rdx
 1810 0a81 E8000000 		call	_ZN8UnitTest10CheckEqualIihEEvRNS_11TestResultsERKT_RKT0_RKNS_11TestDetailsE
 1810      00
 1811              	.LEHE77:
 1812              	.L242:
 1813 0a86 4889E6   		movq	%rsp, %rsi
 1814 0a89 BF2E0000 		movl	$46, %edi
 1814      00
 1815              	.LEHB78:
 1816 0a8e E8000000 		call	getHexNibble
 1816      00
 1817              	.LEHE78:
 1818 0a93 88442410 		movb	%al, 16(%rsp)
 1819              	.LEHB79:
 1820 0a97 E8000000 		call	_ZN8UnitTest11CurrentTest7DetailsEv
 1820      00
 1821 0a9c 488B30   		movq	(%rax), %rsi
 1822 0a9f BA5A0000 		movl	$90, %edx
 1822      00
 1823 0aa4 4889DF   		movq	%rbx, %rdi
 1824 0aa7 E8000000 		call	_ZN8UnitTest11TestDetailsC1ERKS0_i
 1824      00
 1825 0aac C6442420 		movb	$1, 32(%rsp)
 1825      01
 1826 0ab1 E8000000 		call	_ZN8UnitTest11CurrentTest7ResultsEv
 1826      00
 1827 0ab6 488B38   		movq	(%rax), %rdi
 1828 0ab9 488D5424 		leaq	16(%rsp), %rdx
 1828      10
 1829 0abe 488D7424 		leaq	32(%rsp), %rsi
 1829      20
 1830 0ac3 4889D9   		movq	%rbx, %rcx
 1831 0ac6 E8000000 		call	_ZN8UnitTest10CheckEqualIbbEEvRNS_11TestResultsERKT_RKT0_RKNS_11TestDetailsE
 1831      00
 1832              	.LEHE79:
 1833              	.L110:
 1834 0acb 4883C450 		addq	$80, %rsp
 1835              		.cfi_remember_state
 1836              		.cfi_def_cfa_offset 16
 1837 0acf 5B       		popq	%rbx
 1838              		.cfi_def_cfa_offset 8
 1839 0ad0 C3       		ret
 1840              	.L246:
 1841              		.cfi_restore_state
 1842 0ad1 4889C7   		movq	%rax, %rdi
 1843 0ad4 E8000000 		call	__cxa_begin_catch
 1843      00
 1844              	.LEHB80:
 1845 0ad9 E8000000 		call	_ZN8UnitTest11CurrentTest7DetailsEv
 1845      00
 1846 0ade 488D5C24 		leaq	48(%rsp), %rbx
 1846      30
 1847 0ae3 488B30   		movq	(%rax), %rsi
 1848 0ae6 BA180000 		movl	$24, %edx
 1848      00
 1849 0aeb 4889DF   		movq	%rbx, %rdi
 1850 0aee E8000000 		call	_ZN8UnitTest11TestDetailsC1ERKS0_i
 1850      00
 1851 0af3 E8000000 		call	_ZN8UnitTest11CurrentTest7ResultsEv
 1851      00
 1852 0af8 488B38   		movq	(%rax), %rdi
 1853 0afb BA000000 		movl	$.LC2, %edx
 1853      00
 1854 0b00 4889DE   		movq	%rbx, %rsi
 1855 0b03 E8000000 		call	_ZN8UnitTest11TestResults13OnTestFailureERKNS_11TestDetailsEPKc
 1855      00
 1856              	.LEHE80:
 1857              	.LEHB81:
 1858 0b08 E8000000 		call	__cxa_end_catch
 1858      00
 1859              	.LEHE81:
 1860 0b0d E93DF5FF 		jmp	.L113
 1860      FF
 1861              	.L334:
 1862 0b12 4889C7   		movq	%rax, %rdi
 1863              		.p2align 4,,5
 1864 0b15 E8000000 		call	__cxa_begin_catch
 1864      00
 1865              		.p2align 4,,5
 1866              	.LEHB82:
 1867 0b1a E8000000 		call	_ZN8UnitTest11CurrentTest7DetailsEv
 1867      00
 1868 0b1f 488B30   		movq	(%rax), %rsi
 1869 0b22 BA5A0000 		movl	$90, %edx
 1869      00
 1870 0b27 4889DF   		movq	%rbx, %rdi
 1871 0b2a E8000000 		call	_ZN8UnitTest11TestDetailsC1ERKS0_i
 1871      00
 1872 0b2f E8000000 		call	_ZN8UnitTest11CurrentTest7ResultsEv
 1872      00
 1873 0b34 488B38   		movq	(%rax), %rdi
 1874 0b37 BA000000 		movl	$.LC19, %edx
 1874      00
 1875 0b3c 4889DE   		movq	%rbx, %rsi
 1876 0b3f E8000000 		call	_ZN8UnitTest11TestResults13OnTestFailureERKNS_11TestDetailsEPKc
 1876      00
 1877              	.LEHE82:
 1878              	.LEHB83:
 1879 0b44 E8000000 		call	__cxa_end_catch
 1879      00
 1880              	.LEHE83:
 1881 0b49 EB80     		jmp	.L110
 1882              	.L330:
 1883 0b4b 4889C7   		movq	%rax, %rdi
 1884 0b4e 6690     		.p2align 4,,5
 1885 0b50 E8000000 		call	__cxa_begin_catch
 1885      00
 1886              		.p2align 4,,5
 1887              	.LEHB84:
 1888 0b55 E8000000 		call	_ZN8UnitTest11CurrentTest7DetailsEv
 1888      00
 1889 0b5a 488B30   		movq	(%rax), %rsi
 1890 0b5d BA570000 		movl	$87, %edx
 1890      00
 1891 0b62 4889DF   		movq	%rbx, %rdi
 1892 0b65 E8000000 		call	_ZN8UnitTest11TestDetailsC1ERKS0_i
 1892      00
 1893 0b6a E8000000 		call	_ZN8UnitTest11CurrentTest7ResultsEv
 1893      00
 1894 0b6f 488B38   		movq	(%rax), %rdi
 1895 0b72 BA000000 		movl	$.LC2, %edx
 1895      00
 1896 0b77 4889DE   		movq	%rbx, %rsi
 1897 0b7a E8000000 		call	_ZN8UnitTest11TestResults13OnTestFailureERKNS_11TestDetailsEPKc
 1897      00
 1898              	.LEHE84:
 1899              	.LEHB85:
 1900 0b7f E8000000 		call	__cxa_end_catch
 1900      00
 1901              	.LEHE85:
 1902 0b84 E9C8FEFF 		jmp	.L239
 1902      FF
 1903              	.L332:
 1904 0b89 4889C7   		movq	%rax, %rdi
 1905 0b8c 0F1F4000 		.p2align 4,,5
 1906 0b90 E8000000 		call	__cxa_begin_catch
 1906      00
 1907              		.p2align 4,,5
 1908              	.LEHB86:
 1909 0b95 E8000000 		call	_ZN8UnitTest11CurrentTest7DetailsEv
 1909      00
 1910 0b9a 488B30   		movq	(%rax), %rsi
 1911 0b9d BA580000 		movl	$88, %edx
 1911      00
 1912 0ba2 4889DF   		movq	%rbx, %rdi
 1913 0ba5 E8000000 		call	_ZN8UnitTest11TestDetailsC1ERKS0_i
 1913      00
 1914 0baa E8000000 		call	_ZN8UnitTest11CurrentTest7ResultsEv
 1914      00
 1915 0baf 488B38   		movq	(%rax), %rdi
 1916 0bb2 BA000000 		movl	$.LC18, %edx
 1916      00
 1917 0bb7 4889DE   		movq	%rbx, %rsi
 1918 0bba E8000000 		call	_ZN8UnitTest11TestResults13OnTestFailureERKNS_11TestDetailsEPKc
 1918      00
 1919              	.LEHE86:
 1920              	.LEHB87:
 1921 0bbf E8000000 		call	__cxa_end_catch
 1921      00
 1922              	.LEHE87:
 1923 0bc4 E9BDFEFF 		jmp	.L242
 1923      FF
 1924              	.L328:
 1925 0bc9 4889C7   		movq	%rax, %rdi
 1926 0bcc 0F1F4000 		.p2align 4,,5
 1927 0bd0 E8000000 		call	__cxa_begin_catch
 1927      00
 1928              		.p2align 4,,5
 1929              	.LEHB88:
 1930 0bd5 E8000000 		call	_ZN8UnitTest11CurrentTest7DetailsEv
 1930      00
 1931 0bda 488B30   		movq	(%rax), %rsi
 1932 0bdd BA550000 		movl	$85, %edx
 1932      00
 1933 0be2 4889DF   		movq	%rbx, %rdi
 1934 0be5 E8000000 		call	_ZN8UnitTest11TestDetailsC1ERKS0_i
 1934      00
 1935 0bea E8000000 		call	_ZN8UnitTest11CurrentTest7ResultsEv
 1935      00
 1936 0bef 488B38   		movq	(%rax), %rdi
 1937 0bf2 BA000000 		movl	$.LC17, %edx
 1937      00
 1938 0bf7 4889DE   		movq	%rbx, %rsi
 1939 0bfa E8000000 		call	_ZN8UnitTest11TestResults13OnTestFailureERKNS_11TestDetailsEPKc
 1939      00
 1940              	.LEHE88:
 1941              	.LEHB89:
 1942 0bff E8000000 		call	__cxa_end_catch
 1942      00
 1943              	.LEHE89:
 1944 0c04 E903FEFF 		jmp	.L236
 1944      FF
 1945              	.L247:
 1946 0c09 4889C3   		movq	%rax, %rbx
 1947 0c0c 0F1F4000 		.p2align 4,,5
 1948 0c10 E8000000 		call	__cxa_end_catch
 1948      00
 1949 0c15 4889DF   		movq	%rbx, %rdi
 1950              	.LEHB90:
 1951 0c18 E8000000 		call	_Unwind_Resume
 1951      00
 1952              	.LEHE90:
 1953              	.L335:
 1954 0c1d 4889C3   		movq	%rax, %rbx
 1955 0c20 E8000000 		call	__cxa_end_catch
 1955      00
 1956 0c25 4889DF   		movq	%rbx, %rdi
 1957              	.LEHB91:
 1958 0c28 E8000000 		call	_Unwind_Resume
 1958      00
 1959              	.LEHE91:
 1960              	.L333:
 1961 0c2d 4889C3   		movq	%rax, %rbx
 1962 0c30 E8000000 		call	__cxa_end_catch
 1962      00
 1963 0c35 4889DF   		movq	%rbx, %rdi
 1964              	.LEHB92:
 1965 0c38 E8000000 		call	_Unwind_Resume
 1965      00
 1966              	.LEHE92:
 1967              	.L331:
 1968 0c3d 4889C3   		movq	%rax, %rbx
 1969 0c40 E8000000 		call	__cxa_end_catch
 1969      00
 1970 0c45 4889DF   		movq	%rbx, %rdi
 1971              	.LEHB93:
 1972 0c48 E8000000 		call	_Unwind_Resume
 1972      00
 1973              	.LEHE93:
 1974              	.L329:
 1975 0c4d 4889C3   		movq	%rax, %rbx
 1976 0c50 E8000000 		call	__cxa_end_catch
 1976      00
 1977 0c55 4889DF   		movq	%rbx, %rdi
 1978              	.LEHB94:
 1979 0c58 E8000000 		call	_Unwind_Resume
 1979      00
 1980              	.LEHE94:
 1981              	.L326:
 1982 0c5d 4889C7   		movq	%rax, %rdi
 1983 0c60 E8000000 		call	__cxa_begin_catch
 1983      00
 1984              	.LEHB95:
 1985 0c65 E8000000 		call	_ZN8UnitTest11CurrentTest7DetailsEv
 1985      00
 1986 0c6a 488B30   		movq	(%rax), %rsi
 1987 0c6d BA540000 		movl	$84, %edx
 1987      00
 1988 0c72 4889DF   		movq	%rbx, %rdi
 1989 0c75 E8000000 		call	_ZN8UnitTest11TestDetailsC1ERKS0_i
 1989      00
 1990 0c7a E8000000 		call	_ZN8UnitTest11CurrentTest7ResultsEv
 1990      00
 1991 0c7f 488B38   		movq	(%rax), %rdi
 1992 0c82 BA000000 		movl	$.LC2, %edx
 1992      00
 1993 0c87 4889DE   		movq	%rbx, %rsi
 1994 0c8a E8000000 		call	_ZN8UnitTest11TestResults13OnTestFailureERKNS_11TestDetailsEPKc
 1994      00
 1995              	.LEHE95:
 1996              	.LEHB96:
 1997 0c8f E8000000 		call	__cxa_end_catch
 1997      00
 1998              	.LEHE96:
 1999 0c94 E93EFDFF 		jmp	.L233
 1999      FF
 2000              	.L324:
 2001 0c99 4889C7   		movq	%rax, %rdi
 2002 0c9c 0F1F4000 		.p2align 4,,5
 2003 0ca0 E8000000 		call	__cxa_begin_catch
 2003      00
 2004              		.p2align 4,,5
 2005              	.LEHB97:
 2006 0ca5 E8000000 		call	_ZN8UnitTest11CurrentTest7DetailsEv
 2006      00
 2007 0caa 488B30   		movq	(%rax), %rsi
 2008 0cad BA520000 		movl	$82, %edx
 2008      00
 2009 0cb2 4889DF   		movq	%rbx, %rdi
 2010 0cb5 E8000000 		call	_ZN8UnitTest11TestDetailsC1ERKS0_i
 2010      00
 2011 0cba E8000000 		call	_ZN8UnitTest11CurrentTest7ResultsEv
 2011      00
 2012 0cbf 488B38   		movq	(%rax), %rdi
 2013 0cc2 BA000000 		movl	$.LC16, %edx
 2013      00
 2014 0cc7 4889DE   		movq	%rbx, %rsi
 2015 0cca E8000000 		call	_ZN8UnitTest11TestResults13OnTestFailureERKNS_11TestDetailsEPKc
 2015      00
 2016              	.LEHE97:
 2017              	.LEHB98:
 2018 0ccf E8000000 		call	__cxa_end_catch
 2018      00
 2019              	.LEHE98:
 2020 0cd4 E9B9FCFF 		jmp	.L230
 2020      FF
 2021              	.L327:
 2022 0cd9 4889C3   		movq	%rax, %rbx
 2023 0cdc 0F1F4000 		.p2align 4,,5
 2024 0ce0 E8000000 		call	__cxa_end_catch
 2024      00
 2025 0ce5 4889DF   		movq	%rbx, %rdi
 2026              	.LEHB99:
 2027 0ce8 E8000000 		call	_Unwind_Resume
 2027      00
 2028              	.LEHE99:
 2029              	.L325:
 2030 0ced 4889C3   		movq	%rax, %rbx
 2031 0cf0 E8000000 		call	__cxa_end_catch
 2031      00
 2032 0cf5 4889DF   		movq	%rbx, %rdi
 2033              	.LEHB100:
 2034 0cf8 E8000000 		call	_Unwind_Resume
 2034      00
 2035              	.LEHE100:
 2036              	.L322:
 2037 0cfd 4889C7   		movq	%rax, %rdi
 2038 0d00 E8000000 		call	__cxa_begin_catch
 2038      00
 2039              	.LEHB101:
 2040 0d05 E8000000 		call	_ZN8UnitTest11CurrentTest7DetailsEv
 2040      00
 2041 0d0a 488B30   		movq	(%rax), %rsi
 2042 0d0d BA510000 		movl	$81, %edx
 2042      00
 2043 0d12 4889DF   		movq	%rbx, %rdi
 2044 0d15 E8000000 		call	_ZN8UnitTest11TestDetailsC1ERKS0_i
 2044      00
 2045 0d1a E8000000 		call	_ZN8UnitTest11CurrentTest7ResultsEv
 2045      00
 2046 0d1f 488B38   		movq	(%rax), %rdi
 2047 0d22 BA000000 		movl	$.LC2, %edx
 2047      00
 2048 0d27 4889DE   		movq	%rbx, %rsi
 2049 0d2a E8000000 		call	_ZN8UnitTest11TestResults13OnTestFailureERKNS_11TestDetailsEPKc
 2049      00
 2050              	.LEHE101:
 2051              	.LEHB102:
 2052 0d2f E8000000 		call	__cxa_end_catch
 2052      00
 2053              	.LEHE102:
 2054 0d34 E924FCFF 		jmp	.L227
 2054      FF
 2055              	.L320:
 2056 0d39 4889C7   		movq	%rax, %rdi
 2057 0d3c 0F1F4000 		.p2align 4,,5
 2058 0d40 E8000000 		call	__cxa_begin_catch
 2058      00
 2059              		.p2align 4,,5
 2060              	.LEHB103:
 2061 0d45 E8000000 		call	_ZN8UnitTest11CurrentTest7DetailsEv
 2061      00
 2062 0d4a 488B30   		movq	(%rax), %rsi
 2063 0d4d BA4F0000 		movl	$79, %edx
 2063      00
 2064 0d52 4889DF   		movq	%rbx, %rdi
 2065 0d55 E8000000 		call	_ZN8UnitTest11TestDetailsC1ERKS0_i
 2065      00
 2066 0d5a E8000000 		call	_ZN8UnitTest11CurrentTest7ResultsEv
 2066      00
 2067 0d5f 488B38   		movq	(%rax), %rdi
 2068 0d62 BA000000 		movl	$.LC15, %edx
 2068      00
 2069 0d67 4889DE   		movq	%rbx, %rsi
 2070 0d6a E8000000 		call	_ZN8UnitTest11TestResults13OnTestFailureERKNS_11TestDetailsEPKc
 2070      00
 2071              	.LEHE103:
 2072              	.LEHB104:
 2073 0d6f E8000000 		call	__cxa_end_catch
 2073      00
 2074              	.LEHE104:
 2075 0d74 E99FFBFF 		jmp	.L224
 2075      FF
 2076              	.L323:
 2077 0d79 4889C3   		movq	%rax, %rbx
 2078 0d7c 0F1F4000 		.p2align 4,,5
 2079 0d80 E8000000 		call	__cxa_end_catch
 2079      00
 2080 0d85 4889DF   		movq	%rbx, %rdi
 2081              	.LEHB105:
 2082 0d88 E8000000 		call	_Unwind_Resume
 2082      00
 2083              	.LEHE105:
 2084              	.L321:
 2085 0d8d 4889C3   		movq	%rax, %rbx
 2086 0d90 E8000000 		call	__cxa_end_catch
 2086      00
 2087 0d95 4889DF   		movq	%rbx, %rdi
 2088              	.LEHB106:
 2089 0d98 E8000000 		call	_Unwind_Resume
 2089      00
 2090              	.LEHE106:
 2091              	.L318:
 2092 0d9d 4889C7   		movq	%rax, %rdi
 2093 0da0 E8000000 		call	__cxa_begin_catch
 2093      00
 2094              	.LEHB107:
 2095 0da5 E8000000 		call	_ZN8UnitTest11CurrentTest7DetailsEv
 2095      00
 2096 0daa 488B30   		movq	(%rax), %rsi
 2097 0dad BA4E0000 		movl	$78, %edx
 2097      00
 2098 0db2 4889DF   		movq	%rbx, %rdi
 2099 0db5 E8000000 		call	_ZN8UnitTest11TestDetailsC1ERKS0_i
 2099      00
 2100 0dba E8000000 		call	_ZN8UnitTest11CurrentTest7ResultsEv
 2100      00
 2101 0dbf 488B38   		movq	(%rax), %rdi
 2102 0dc2 BA000000 		movl	$.LC2, %edx
 2102      00
 2103 0dc7 4889DE   		movq	%rbx, %rsi
 2104 0dca E8000000 		call	_ZN8UnitTest11TestResults13OnTestFailureERKNS_11TestDetailsEPKc
 2104      00
 2105              	.LEHE107:
 2106              	.LEHB108:
 2107 0dcf E8000000 		call	__cxa_end_catch
 2107      00
 2108              	.LEHE108:
 2109 0dd4 E90AFBFF 		jmp	.L221
 2109      FF
 2110              	.L316:
 2111 0dd9 4889C7   		movq	%rax, %rdi
 2112 0ddc 0F1F4000 		.p2align 4,,5
 2113 0de0 E8000000 		call	__cxa_begin_catch
 2113      00
 2114              		.p2align 4,,5
 2115              	.LEHB109:
 2116 0de5 E8000000 		call	_ZN8UnitTest11CurrentTest7DetailsEv
 2116      00
 2117 0dea 488B30   		movq	(%rax), %rsi
 2118 0ded BA4C0000 		movl	$76, %edx
 2118      00
 2119 0df2 4889DF   		movq	%rbx, %rdi
 2120 0df5 E8000000 		call	_ZN8UnitTest11TestDetailsC1ERKS0_i
 2120      00
 2121 0dfa E8000000 		call	_ZN8UnitTest11CurrentTest7ResultsEv
 2121      00
 2122 0dff 488B38   		movq	(%rax), %rdi
 2123 0e02 BA000000 		movl	$.LC14, %edx
 2123      00
 2124 0e07 4889DE   		movq	%rbx, %rsi
 2125 0e0a E8000000 		call	_ZN8UnitTest11TestResults13OnTestFailureERKNS_11TestDetailsEPKc
 2125      00
 2126              	.LEHE109:
 2127              	.LEHB110:
 2128 0e0f E8000000 		call	__cxa_end_catch
 2128      00
 2129              	.LEHE110:
 2130 0e14 E985FAFF 		jmp	.L218
 2130      FF
 2131              	.L319:
 2132 0e19 4889C3   		movq	%rax, %rbx
 2133 0e1c 0F1F4000 		.p2align 4,,5
 2134 0e20 E8000000 		call	__cxa_end_catch
 2134      00
 2135 0e25 4889DF   		movq	%rbx, %rdi
 2136              	.LEHB111:
 2137 0e28 E8000000 		call	_Unwind_Resume
 2137      00
 2138              	.LEHE111:
 2139              	.L317:
 2140 0e2d 4889C3   		movq	%rax, %rbx
 2141 0e30 E8000000 		call	__cxa_end_catch
 2141      00
 2142 0e35 4889DF   		movq	%rbx, %rdi
 2143              	.LEHB112:
 2144 0e38 E8000000 		call	_Unwind_Resume
 2144      00
 2145              	.LEHE112:
 2146              	.L314:
 2147 0e3d 4889C7   		movq	%rax, %rdi
 2148 0e40 E8000000 		call	__cxa_begin_catch
 2148      00
 2149              	.LEHB113:
 2150 0e45 E8000000 		call	_ZN8UnitTest11CurrentTest7DetailsEv
 2150      00
 2151 0e4a 488B30   		movq	(%rax), %rsi
 2152 0e4d BA4B0000 		movl	$75, %edx
 2152      00
 2153 0e52 4889DF   		movq	%rbx, %rdi
 2154 0e55 E8000000 		call	_ZN8UnitTest11TestDetailsC1ERKS0_i
 2154      00
 2155 0e5a E8000000 		call	_ZN8UnitTest11CurrentTest7ResultsEv
 2155      00
 2156 0e5f 488B38   		movq	(%rax), %rdi
 2157 0e62 BA000000 		movl	$.LC2, %edx
 2157      00
 2158 0e67 4889DE   		movq	%rbx, %rsi
 2159 0e6a E8000000 		call	_ZN8UnitTest11TestResults13OnTestFailureERKNS_11TestDetailsEPKc
 2159      00
 2160              	.LEHE113:
 2161              	.LEHB114:
 2162 0e6f E8000000 		call	__cxa_end_catch
 2162      00
 2163              	.LEHE114:
 2164 0e74 E9F0F9FF 		jmp	.L215
 2164      FF
 2165              	.L312:
 2166 0e79 4889C7   		movq	%rax, %rdi
 2167 0e7c 0F1F4000 		.p2align 4,,5
 2168 0e80 E8000000 		call	__cxa_begin_catch
 2168      00
 2169              		.p2align 4,,5
 2170              	.LEHB115:
 2171 0e85 E8000000 		call	_ZN8UnitTest11CurrentTest7DetailsEv
 2171      00
 2172 0e8a 488B30   		movq	(%rax), %rsi
 2173 0e8d BA490000 		movl	$73, %edx
 2173      00
 2174 0e92 4889DF   		movq	%rbx, %rdi
 2175 0e95 E8000000 		call	_ZN8UnitTest11TestDetailsC1ERKS0_i
 2175      00
 2176 0e9a E8000000 		call	_ZN8UnitTest11CurrentTest7ResultsEv
 2176      00
 2177 0e9f 488B38   		movq	(%rax), %rdi
 2178 0ea2 BA000000 		movl	$.LC13, %edx
 2178      00
 2179 0ea7 4889DE   		movq	%rbx, %rsi
 2180 0eaa E8000000 		call	_ZN8UnitTest11TestResults13OnTestFailureERKNS_11TestDetailsEPKc
 2180      00
 2181              	.LEHE115:
 2182              	.LEHB116:
 2183 0eaf E8000000 		call	__cxa_end_catch
 2183      00
 2184              	.LEHE116:
 2185 0eb4 E96BF9FF 		jmp	.L212
 2185      FF
 2186              	.L315:
 2187 0eb9 4889C3   		movq	%rax, %rbx
 2188 0ebc 0F1F4000 		.p2align 4,,5
 2189 0ec0 E8000000 		call	__cxa_end_catch
 2189      00
 2190 0ec5 4889DF   		movq	%rbx, %rdi
 2191              	.LEHB117:
 2192 0ec8 E8000000 		call	_Unwind_Resume
 2192      00
 2193              	.LEHE117:
 2194              	.L313:
 2195 0ecd 4889C3   		movq	%rax, %rbx
 2196 0ed0 E8000000 		call	__cxa_end_catch
 2196      00
 2197 0ed5 4889DF   		movq	%rbx, %rdi
 2198              	.LEHB118:
 2199 0ed8 E8000000 		call	_Unwind_Resume
 2199      00
 2200              	.LEHE118:
 2201              	.L310:
 2202 0edd 4889C7   		movq	%rax, %rdi
 2203 0ee0 E8000000 		call	__cxa_begin_catch
 2203      00
 2204              	.LEHB119:
 2205 0ee5 E8000000 		call	_ZN8UnitTest11CurrentTest7DetailsEv
 2205      00
 2206 0eea 488B30   		movq	(%rax), %rsi
 2207 0eed BA480000 		movl	$72, %edx
 2207      00
 2208 0ef2 4889DF   		movq	%rbx, %rdi
 2209 0ef5 E8000000 		call	_ZN8UnitTest11TestDetailsC1ERKS0_i
 2209      00
 2210 0efa E8000000 		call	_ZN8UnitTest11CurrentTest7ResultsEv
 2210      00
 2211 0eff 488B38   		movq	(%rax), %rdi
 2212 0f02 BA000000 		movl	$.LC2, %edx
 2212      00
 2213 0f07 4889DE   		movq	%rbx, %rsi
 2214 0f0a E8000000 		call	_ZN8UnitTest11TestResults13OnTestFailureERKNS_11TestDetailsEPKc
 2214      00
 2215              	.LEHE119:
 2216              	.LEHB120:
 2217 0f0f E8000000 		call	__cxa_end_catch
 2217      00
 2218              	.LEHE120:
 2219 0f14 E9D6F8FF 		jmp	.L209
 2219      FF
 2220              	.L308:
 2221 0f19 4889C7   		movq	%rax, %rdi
 2222 0f1c 0F1F4000 		.p2align 4,,5
 2223 0f20 E8000000 		call	__cxa_begin_catch
 2223      00
 2224              		.p2align 4,,5
 2225              	.LEHB121:
 2226 0f25 E8000000 		call	_ZN8UnitTest11CurrentTest7DetailsEv
 2226      00
 2227 0f2a 488B30   		movq	(%rax), %rsi
 2228 0f2d BA460000 		movl	$70, %edx
 2228      00
 2229 0f32 4889DF   		movq	%rbx, %rdi
 2230 0f35 E8000000 		call	_ZN8UnitTest11TestDetailsC1ERKS0_i
 2230      00
 2231 0f3a E8000000 		call	_ZN8UnitTest11CurrentTest7ResultsEv
 2231      00
 2232 0f3f 488B38   		movq	(%rax), %rdi
 2233 0f42 BA000000 		movl	$.LC18, %edx
 2233      00
 2234 0f47 4889DE   		movq	%rbx, %rsi
 2235 0f4a E8000000 		call	_ZN8UnitTest11TestResults13OnTestFailureERKNS_11TestDetailsEPKc
 2235      00
 2236              	.LEHE121:
 2237              	.LEHB122:
 2238 0f4f E8000000 		call	__cxa_end_catch
 2238      00
 2239              	.LEHE122:
 2240 0f54 E951F8FF 		jmp	.L206
 2240      FF
 2241              	.L311:
 2242 0f59 4889C3   		movq	%rax, %rbx
 2243 0f5c 0F1F4000 		.p2align 4,,5
 2244 0f60 E8000000 		call	__cxa_end_catch
 2244      00
 2245 0f65 4889DF   		movq	%rbx, %rdi
 2246              	.LEHB123:
 2247 0f68 E8000000 		call	_Unwind_Resume
 2247      00
 2248              	.LEHE123:
 2249              	.L309:
 2250 0f6d 4889C3   		movq	%rax, %rbx
 2251 0f70 E8000000 		call	__cxa_end_catch
 2251      00
 2252 0f75 4889DF   		movq	%rbx, %rdi
 2253              	.LEHB124:
 2254 0f78 E8000000 		call	_Unwind_Resume
 2254      00
 2255              	.LEHE124:
 2256              	.L306:
 2257 0f7d 4889C7   		movq	%rax, %rdi
 2258 0f80 E8000000 		call	__cxa_begin_catch
 2258      00
 2259              	.LEHB125:
 2260 0f85 E8000000 		call	_ZN8UnitTest11CurrentTest7DetailsEv
 2260      00
 2261 0f8a 488B30   		movq	(%rax), %rsi
 2262 0f8d BA450000 		movl	$69, %edx
 2262      00
 2263 0f92 4889DF   		movq	%rbx, %rdi
 2264 0f95 E8000000 		call	_ZN8UnitTest11TestDetailsC1ERKS0_i
 2264      00
 2265 0f9a E8000000 		call	_ZN8UnitTest11CurrentTest7ResultsEv
 2265      00
 2266 0f9f 488B38   		movq	(%rax), %rdi
 2267 0fa2 BA000000 		movl	$.LC2, %edx
 2267      00
 2268 0fa7 4889DE   		movq	%rbx, %rsi
 2269 0faa E8000000 		call	_ZN8UnitTest11TestResults13OnTestFailureERKNS_11TestDetailsEPKc
 2269      00
 2270              	.LEHE125:
 2271              	.LEHB126:
 2272 0faf E8000000 		call	__cxa_end_catch
 2272      00
 2273              	.LEHE126:
 2274 0fb4 E9BCF7FF 		jmp	.L203
 2274      FF
 2275              	.L304:
 2276 0fb9 4889C7   		movq	%rax, %rdi
 2277 0fbc 0F1F4000 		.p2align 4,,5
 2278 0fc0 E8000000 		call	__cxa_begin_catch
 2278      00
 2279              		.p2align 4,,5
 2280              	.LEHB127:
 2281 0fc5 E8000000 		call	_ZN8UnitTest11CurrentTest7DetailsEv
 2281      00
 2282 0fca 488B30   		movq	(%rax), %rsi
 2283 0fcd BA430000 		movl	$67, %edx
 2283      00
 2284 0fd2 4889DF   		movq	%rbx, %rdi
 2285 0fd5 E8000000 		call	_ZN8UnitTest11TestDetailsC1ERKS0_i
 2285      00
 2286 0fda E8000000 		call	_ZN8UnitTest11CurrentTest7ResultsEv
 2286      00
 2287 0fdf 488B38   		movq	(%rax), %rdi
 2288 0fe2 BA000000 		movl	$.LC17, %edx
 2288      00
 2289 0fe7 4889DE   		movq	%rbx, %rsi
 2290 0fea E8000000 		call	_ZN8UnitTest11TestResults13OnTestFailureERKNS_11TestDetailsEPKc
 2290      00
 2291              	.LEHE127:
 2292              	.LEHB128:
 2293 0fef E8000000 		call	__cxa_end_catch
 2293      00
 2294              	.LEHE128:
 2295 0ff4 E937F7FF 		jmp	.L200
 2295      FF
 2296              	.L307:
 2297 0ff9 4889C3   		movq	%rax, %rbx
 2298 0ffc 0F1F4000 		.p2align 4,,5
 2299 1000 E8000000 		call	__cxa_end_catch
 2299      00
 2300 1005 4889DF   		movq	%rbx, %rdi
 2301              	.LEHB129:
 2302 1008 E8000000 		call	_Unwind_Resume
 2302      00
 2303              	.LEHE129:
 2304              	.L305:
 2305 100d 4889C3   		movq	%rax, %rbx
 2306 1010 E8000000 		call	__cxa_end_catch
 2306      00
 2307 1015 4889DF   		movq	%rbx, %rdi
 2308              	.LEHB130:
 2309 1018 E8000000 		call	_Unwind_Resume
 2309      00
 2310              	.LEHE130:
 2311              	.L302:
 2312 101d 4889C7   		movq	%rax, %rdi
 2313 1020 E8000000 		call	__cxa_begin_catch
 2313      00
 2314              	.LEHB131:
 2315 1025 E8000000 		call	_ZN8UnitTest11CurrentTest7DetailsEv
 2315      00
 2316 102a 488B30   		movq	(%rax), %rsi
 2317 102d BA420000 		movl	$66, %edx
 2317      00
 2318 1032 4889DF   		movq	%rbx, %rdi
 2319 1035 E8000000 		call	_ZN8UnitTest11TestDetailsC1ERKS0_i
 2319      00
 2320 103a E8000000 		call	_ZN8UnitTest11CurrentTest7ResultsEv
 2320      00
 2321 103f 488B38   		movq	(%rax), %rdi
 2322 1042 BA000000 		movl	$.LC2, %edx
 2322      00
 2323 1047 4889DE   		movq	%rbx, %rsi
 2324 104a E8000000 		call	_ZN8UnitTest11TestResults13OnTestFailureERKNS_11TestDetailsEPKc
 2324      00
 2325              	.LEHE131:
 2326              	.LEHB132:
 2327 104f E8000000 		call	__cxa_end_catch
 2327      00
 2328              	.LEHE132:
 2329 1054 E9A2F6FF 		jmp	.L197
 2329      FF
 2330              	.L300:
 2331 1059 4889C7   		movq	%rax, %rdi
 2332 105c 0F1F4000 		.p2align 4,,5
 2333 1060 E8000000 		call	__cxa_begin_catch
 2333      00
 2334              		.p2align 4,,5
 2335              	.LEHB133:
 2336 1065 E8000000 		call	_ZN8UnitTest11CurrentTest7DetailsEv
 2336      00
 2337 106a 488B30   		movq	(%rax), %rsi
 2338 106d BA400000 		movl	$64, %edx
 2338      00
 2339 1072 4889DF   		movq	%rbx, %rdi
 2340 1075 E8000000 		call	_ZN8UnitTest11TestDetailsC1ERKS0_i
 2340      00
 2341 107a E8000000 		call	_ZN8UnitTest11CurrentTest7ResultsEv
 2341      00
 2342 107f 488B38   		movq	(%rax), %rdi
 2343 1082 BA000000 		movl	$.LC16, %edx
 2343      00
 2344 1087 4889DE   		movq	%rbx, %rsi
 2345 108a E8000000 		call	_ZN8UnitTest11TestResults13OnTestFailureERKNS_11TestDetailsEPKc
 2345      00
 2346              	.LEHE133:
 2347              	.LEHB134:
 2348 108f E8000000 		call	__cxa_end_catch
 2348      00
 2349              	.LEHE134:
 2350 1094 E91DF6FF 		jmp	.L194
 2350      FF
 2351              	.L303:
 2352 1099 4889C3   		movq	%rax, %rbx
 2353 109c 0F1F4000 		.p2align 4,,5
 2354 10a0 E8000000 		call	__cxa_end_catch
 2354      00
 2355 10a5 4889DF   		movq	%rbx, %rdi
 2356              	.LEHB135:
 2357 10a8 E8000000 		call	_Unwind_Resume
 2357      00
 2358              	.LEHE135:
 2359              	.L301:
 2360 10ad 4889C3   		movq	%rax, %rbx
 2361 10b0 E8000000 		call	__cxa_end_catch
 2361      00
 2362 10b5 4889DF   		movq	%rbx, %rdi
 2363              	.LEHB136:
 2364 10b8 E8000000 		call	_Unwind_Resume
 2364      00
 2365              	.LEHE136:
 2366              	.L298:
 2367 10bd 4889C7   		movq	%rax, %rdi
 2368 10c0 E8000000 		call	__cxa_begin_catch
 2368      00
 2369              	.LEHB137:
 2370 10c5 E8000000 		call	_ZN8UnitTest11CurrentTest7DetailsEv
 2370      00
 2371 10ca 488B30   		movq	(%rax), %rsi
 2372 10cd BA3F0000 		movl	$63, %edx
 2372      00
 2373 10d2 4889DF   		movq	%rbx, %rdi
 2374 10d5 E8000000 		call	_ZN8UnitTest11TestDetailsC1ERKS0_i
 2374      00
 2375 10da E8000000 		call	_ZN8UnitTest11CurrentTest7ResultsEv
 2375      00
 2376 10df 488B38   		movq	(%rax), %rdi
 2377 10e2 BA000000 		movl	$.LC2, %edx
 2377      00
 2378 10e7 4889DE   		movq	%rbx, %rsi
 2379 10ea E8000000 		call	_ZN8UnitTest11TestResults13OnTestFailureERKNS_11TestDetailsEPKc
 2379      00
 2380              	.LEHE137:
 2381              	.LEHB138:
 2382 10ef E8000000 		call	__cxa_end_catch
 2382      00
 2383              	.LEHE138:
 2384 10f4 E988F5FF 		jmp	.L191
 2384      FF
 2385              	.L296:
 2386 10f9 4889C7   		movq	%rax, %rdi
 2387 10fc 0F1F4000 		.p2align 4,,5
 2388 1100 E8000000 		call	__cxa_begin_catch
 2388      00
 2389              		.p2align 4,,5
 2390              	.LEHB139:
 2391 1105 E8000000 		call	_ZN8UnitTest11CurrentTest7DetailsEv
 2391      00
 2392 110a 488B30   		movq	(%rax), %rsi
 2393 110d BA3D0000 		movl	$61, %edx
 2393      00
 2394 1112 4889DF   		movq	%rbx, %rdi
 2395 1115 E8000000 		call	_ZN8UnitTest11TestDetailsC1ERKS0_i
 2395      00
 2396 111a E8000000 		call	_ZN8UnitTest11CurrentTest7ResultsEv
 2396      00
 2397 111f 488B38   		movq	(%rax), %rdi
 2398 1122 BA000000 		movl	$.LC15, %edx
 2398      00
 2399 1127 4889DE   		movq	%rbx, %rsi
 2400 112a E8000000 		call	_ZN8UnitTest11TestResults13OnTestFailureERKNS_11TestDetailsEPKc
 2400      00
 2401              	.LEHE139:
 2402              	.LEHB140:
 2403 112f E8000000 		call	__cxa_end_catch
 2403      00
 2404              	.LEHE140:
 2405 1134 E903F5FF 		jmp	.L188
 2405      FF
 2406              	.L299:
 2407 1139 4889C3   		movq	%rax, %rbx
 2408 113c 0F1F4000 		.p2align 4,,5
 2409 1140 E8000000 		call	__cxa_end_catch
 2409      00
 2410 1145 4889DF   		movq	%rbx, %rdi
 2411              	.LEHB141:
 2412 1148 E8000000 		call	_Unwind_Resume
 2412      00
 2413              	.LEHE141:
 2414              	.L297:
 2415 114d 4889C3   		movq	%rax, %rbx
 2416 1150 E8000000 		call	__cxa_end_catch
 2416      00
 2417 1155 4889DF   		movq	%rbx, %rdi
 2418              	.LEHB142:
 2419 1158 E8000000 		call	_Unwind_Resume
 2419      00
 2420              	.LEHE142:
 2421              	.L294:
 2422 115d 4889C7   		movq	%rax, %rdi
 2423 1160 E8000000 		call	__cxa_begin_catch
 2423      00
 2424              	.LEHB143:
 2425 1165 E8000000 		call	_ZN8UnitTest11CurrentTest7DetailsEv
 2425      00
 2426 116a 488B30   		movq	(%rax), %rsi
 2427 116d BA3C0000 		movl	$60, %edx
 2427      00
 2428 1172 4889DF   		movq	%rbx, %rdi
 2429 1175 E8000000 		call	_ZN8UnitTest11TestDetailsC1ERKS0_i
 2429      00
 2430 117a E8000000 		call	_ZN8UnitTest11CurrentTest7ResultsEv
 2430      00
 2431 117f 488B38   		movq	(%rax), %rdi
 2432 1182 BA000000 		movl	$.LC2, %edx
 2432      00
 2433 1187 4889DE   		movq	%rbx, %rsi
 2434 118a E8000000 		call	_ZN8UnitTest11TestResults13OnTestFailureERKNS_11TestDetailsEPKc
 2434      00
 2435              	.LEHE143:
 2436              	.LEHB144:
 2437 118f E8000000 		call	__cxa_end_catch
 2437      00
 2438              	.LEHE144:
 2439 1194 E96EF4FF 		jmp	.L185
 2439      FF
 2440              	.L292:
 2441 1199 4889C7   		movq	%rax, %rdi
 2442 119c 0F1F4000 		.p2align 4,,5
 2443 11a0 E8000000 		call	__cxa_begin_catch
 2443      00
 2444              		.p2align 4,,5
 2445              	.LEHB145:
 2446 11a5 E8000000 		call	_ZN8UnitTest11CurrentTest7DetailsEv
 2446      00
 2447 11aa 488B30   		movq	(%rax), %rsi
 2448 11ad BA3A0000 		movl	$58, %edx
 2448      00
 2449 11b2 4889DF   		movq	%rbx, %rdi
 2450 11b5 E8000000 		call	_ZN8UnitTest11TestDetailsC1ERKS0_i
 2450      00
 2451 11ba E8000000 		call	_ZN8UnitTest11CurrentTest7ResultsEv
 2451      00
 2452 11bf 488B38   		movq	(%rax), %rdi
 2453 11c2 BA000000 		movl	$.LC14, %edx
 2453      00
 2454 11c7 4889DE   		movq	%rbx, %rsi
 2455 11ca E8000000 		call	_ZN8UnitTest11TestResults13OnTestFailureERKNS_11TestDetailsEPKc
 2455      00
 2456              	.LEHE145:
 2457              	.LEHB146:
 2458 11cf E8000000 		call	__cxa_end_catch
 2458      00
 2459              	.LEHE146:
 2460 11d4 E9E9F3FF 		jmp	.L182
 2460      FF
 2461              	.L295:
 2462 11d9 4889C3   		movq	%rax, %rbx
 2463 11dc 0F1F4000 		.p2align 4,,5
 2464 11e0 E8000000 		call	__cxa_end_catch
 2464      00
 2465 11e5 4889DF   		movq	%rbx, %rdi
 2466              	.LEHB147:
 2467 11e8 E8000000 		call	_Unwind_Resume
 2467      00
 2468              	.LEHE147:
 2469              	.L293:
 2470 11ed 4889C3   		movq	%rax, %rbx
 2471 11f0 E8000000 		call	__cxa_end_catch
 2471      00
 2472 11f5 4889DF   		movq	%rbx, %rdi
 2473              	.LEHB148:
 2474 11f8 E8000000 		call	_Unwind_Resume
 2474      00
 2475              	.LEHE148:
 2476              	.L290:
 2477 11fd 4889C7   		movq	%rax, %rdi
 2478 1200 E8000000 		call	__cxa_begin_catch
 2478      00
 2479              	.LEHB149:
 2480 1205 E8000000 		call	_ZN8UnitTest11CurrentTest7DetailsEv
 2480      00
 2481 120a 488B30   		movq	(%rax), %rsi
 2482 120d BA390000 		movl	$57, %edx
 2482      00
 2483 1212 4889DF   		movq	%rbx, %rdi
 2484 1215 E8000000 		call	_ZN8UnitTest11TestDetailsC1ERKS0_i
 2484      00
 2485 121a E8000000 		call	_ZN8UnitTest11CurrentTest7ResultsEv
 2485      00
 2486 121f 488B38   		movq	(%rax), %rdi
 2487 1222 BA000000 		movl	$.LC2, %edx
 2487      00
 2488 1227 4889DE   		movq	%rbx, %rsi
 2489 122a E8000000 		call	_ZN8UnitTest11TestResults13OnTestFailureERKNS_11TestDetailsEPKc
 2489      00
 2490              	.LEHE149:
 2491              	.LEHB150:
 2492 122f E8000000 		call	__cxa_end_catch
 2492      00
 2493              	.LEHE150:
 2494 1234 E954F3FF 		jmp	.L179
 2494      FF
 2495              	.L288:
 2496 1239 4889C7   		movq	%rax, %rdi
 2497 123c 0F1F4000 		.p2align 4,,5
 2498 1240 E8000000 		call	__cxa_begin_catch
 2498      00
 2499              		.p2align 4,,5
 2500              	.LEHB151:
 2501 1245 E8000000 		call	_ZN8UnitTest11CurrentTest7DetailsEv
 2501      00
 2502 124a 488B30   		movq	(%rax), %rsi
 2503 124d BA370000 		movl	$55, %edx
 2503      00
 2504 1252 4889DF   		movq	%rbx, %rdi
 2505 1255 E8000000 		call	_ZN8UnitTest11TestDetailsC1ERKS0_i
 2505      00
 2506 125a E8000000 		call	_ZN8UnitTest11CurrentTest7ResultsEv
 2506      00
 2507 125f 488B38   		movq	(%rax), %rdi
 2508 1262 BA000000 		movl	$.LC13, %edx
 2508      00
 2509 1267 4889DE   		movq	%rbx, %rsi
 2510 126a E8000000 		call	_ZN8UnitTest11TestResults13OnTestFailureERKNS_11TestDetailsEPKc
 2510      00
 2511              	.LEHE151:
 2512              	.LEHB152:
 2513 126f E8000000 		call	__cxa_end_catch
 2513      00
 2514              	.LEHE152:
 2515 1274 E9CFF2FF 		jmp	.L176
 2515      FF
 2516              	.L291:
 2517 1279 4889C3   		movq	%rax, %rbx
 2518 127c 0F1F4000 		.p2align 4,,5
 2519 1280 E8000000 		call	__cxa_end_catch
 2519      00
 2520 1285 4889DF   		movq	%rbx, %rdi
 2521              	.LEHB153:
 2522 1288 E8000000 		call	_Unwind_Resume
 2522      00
 2523              	.LEHE153:
 2524              	.L289:
 2525 128d 4889C3   		movq	%rax, %rbx
 2526 1290 E8000000 		call	__cxa_end_catch
 2526      00
 2527 1295 4889DF   		movq	%rbx, %rdi
 2528              	.LEHB154:
 2529 1298 E8000000 		call	_Unwind_Resume
 2529      00
 2530              	.LEHE154:
 2531              	.L286:
 2532 129d 4889C7   		movq	%rax, %rdi
 2533 12a0 E8000000 		call	__cxa_begin_catch
 2533      00
 2534              	.LEHB155:
 2535 12a5 E8000000 		call	_ZN8UnitTest11CurrentTest7DetailsEv
 2535      00
 2536 12aa 488B30   		movq	(%rax), %rsi
 2537 12ad BA360000 		movl	$54, %edx
 2537      00
 2538 12b2 4889DF   		movq	%rbx, %rdi
 2539 12b5 E8000000 		call	_ZN8UnitTest11TestDetailsC1ERKS0_i
 2539      00
 2540 12ba E8000000 		call	_ZN8UnitTest11CurrentTest7ResultsEv
 2540      00
 2541 12bf 488B38   		movq	(%rax), %rdi
 2542 12c2 BA000000 		movl	$.LC2, %edx
 2542      00
 2543 12c7 4889DE   		movq	%rbx, %rsi
 2544 12ca E8000000 		call	_ZN8UnitTest11TestResults13OnTestFailureERKNS_11TestDetailsEPKc
 2544      00
 2545              	.LEHE155:
 2546              	.LEHB156:
 2547 12cf E8000000 		call	__cxa_end_catch
 2547      00
 2548              	.LEHE156:
 2549 12d4 E93AF2FF 		jmp	.L173
 2549      FF
 2550              	.L284:
 2551 12d9 4889C7   		movq	%rax, %rdi
 2552 12dc 0F1F4000 		.p2align 4,,5
 2553 12e0 E8000000 		call	__cxa_begin_catch
 2553      00
 2554              		.p2align 4,,5
 2555              	.LEHB157:
 2556 12e5 E8000000 		call	_ZN8UnitTest11CurrentTest7DetailsEv
 2556      00
 2557 12ea 488B30   		movq	(%rax), %rsi
 2558 12ed BA340000 		movl	$52, %edx
 2558      00
 2559 12f2 4889DF   		movq	%rbx, %rdi
 2560 12f5 E8000000 		call	_ZN8UnitTest11TestDetailsC1ERKS0_i
 2560      00
 2561 12fa E8000000 		call	_ZN8UnitTest11CurrentTest7ResultsEv
 2561      00
 2562 12ff 488B38   		movq	(%rax), %rdi
 2563 1302 BA000000 		movl	$.LC12, %edx
 2563      00
 2564 1307 4889DE   		movq	%rbx, %rsi
 2565 130a E8000000 		call	_ZN8UnitTest11TestResults13OnTestFailureERKNS_11TestDetailsEPKc
 2565      00
 2566              	.LEHE157:
 2567              	.LEHB158:
 2568 130f E8000000 		call	__cxa_end_catch
 2568      00
 2569              	.LEHE158:
 2570 1314 E9B5F1FF 		jmp	.L170
 2570      FF
 2571              	.L287:
 2572 1319 4889C3   		movq	%rax, %rbx
 2573 131c 0F1F4000 		.p2align 4,,5
 2574 1320 E8000000 		call	__cxa_end_catch
 2574      00
 2575 1325 4889DF   		movq	%rbx, %rdi
 2576              	.LEHB159:
 2577 1328 E8000000 		call	_Unwind_Resume
 2577      00
 2578              	.LEHE159:
 2579              	.L285:
 2580 132d 4889C3   		movq	%rax, %rbx
 2581 1330 E8000000 		call	__cxa_end_catch
 2581      00
 2582 1335 4889DF   		movq	%rbx, %rdi
 2583              	.LEHB160:
 2584 1338 E8000000 		call	_Unwind_Resume
 2584      00
 2585              	.LEHE160:
 2586              	.L282:
 2587 133d 4889C7   		movq	%rax, %rdi
 2588 1340 E8000000 		call	__cxa_begin_catch
 2588      00
 2589              	.LEHB161:
 2590 1345 E8000000 		call	_ZN8UnitTest11CurrentTest7DetailsEv
 2590      00
 2591 134a 488B30   		movq	(%rax), %rsi
 2592 134d BA330000 		movl	$51, %edx
 2592      00
 2593 1352 4889DF   		movq	%rbx, %rdi
 2594 1355 E8000000 		call	_ZN8UnitTest11TestDetailsC1ERKS0_i
 2594      00
 2595 135a E8000000 		call	_ZN8UnitTest11CurrentTest7ResultsEv
 2595      00
 2596 135f 488B38   		movq	(%rax), %rdi
 2597 1362 BA000000 		movl	$.LC2, %edx
 2597      00
 2598 1367 4889DE   		movq	%rbx, %rsi
 2599 136a E8000000 		call	_ZN8UnitTest11TestResults13OnTestFailureERKNS_11TestDetailsEPKc
 2599      00
 2600              	.LEHE161:
 2601              	.LEHB162:
 2602 136f E8000000 		call	__cxa_end_catch
 2602      00
 2603              	.LEHE162:
 2604 1374 E920F1FF 		jmp	.L167
 2604      FF
 2605              	.L280:
 2606 1379 4889C7   		movq	%rax, %rdi
 2607 137c 0F1F4000 		.p2align 4,,5
 2608 1380 E8000000 		call	__cxa_begin_catch
 2608      00
 2609              		.p2align 4,,5
 2610              	.LEHB163:
 2611 1385 E8000000 		call	_ZN8UnitTest11CurrentTest7DetailsEv
 2611      00
 2612 138a 488B30   		movq	(%rax), %rsi
 2613 138d BA310000 		movl	$49, %edx
 2613      00
 2614 1392 4889DF   		movq	%rbx, %rdi
 2615 1395 E8000000 		call	_ZN8UnitTest11TestDetailsC1ERKS0_i
 2615      00
 2616 139a E8000000 		call	_ZN8UnitTest11CurrentTest7ResultsEv
 2616      00
 2617 139f 488B38   		movq	(%rax), %rdi
 2618 13a2 BA000000 		movl	$.LC11, %edx
 2618      00
 2619 13a7 4889DE   		movq	%rbx, %rsi
 2620 13aa E8000000 		call	_ZN8UnitTest11TestResults13OnTestFailureERKNS_11TestDetailsEPKc
 2620      00
 2621              	.LEHE163:
 2622              	.LEHB164:
 2623 13af E8000000 		call	__cxa_end_catch
 2623      00
 2624              	.LEHE164:
 2625 13b4 E99BF0FF 		jmp	.L164
 2625      FF
 2626              	.L283:
 2627 13b9 4889C3   		movq	%rax, %rbx
 2628 13bc 0F1F4000 		.p2align 4,,5
 2629 13c0 E8000000 		call	__cxa_end_catch
 2629      00
 2630 13c5 4889DF   		movq	%rbx, %rdi
 2631              	.LEHB165:
 2632 13c8 E8000000 		call	_Unwind_Resume
 2632      00
 2633              	.LEHE165:
 2634              	.L281:
 2635 13cd 4889C3   		movq	%rax, %rbx
 2636 13d0 E8000000 		call	__cxa_end_catch
 2636      00
 2637 13d5 4889DF   		movq	%rbx, %rdi
 2638              	.LEHB166:
 2639 13d8 E8000000 		call	_Unwind_Resume
 2639      00
 2640              	.LEHE166:
 2641              	.L278:
 2642 13dd 4889C7   		movq	%rax, %rdi
 2643 13e0 E8000000 		call	__cxa_begin_catch
 2643      00
 2644              	.LEHB167:
 2645 13e5 E8000000 		call	_ZN8UnitTest11CurrentTest7DetailsEv
 2645      00
 2646 13ea 488B30   		movq	(%rax), %rsi
 2647 13ed BA300000 		movl	$48, %edx
 2647      00
 2648 13f2 4889DF   		movq	%rbx, %rdi
 2649 13f5 E8000000 		call	_ZN8UnitTest11TestDetailsC1ERKS0_i
 2649      00
 2650 13fa E8000000 		call	_ZN8UnitTest11CurrentTest7ResultsEv
 2650      00
 2651 13ff 488B38   		movq	(%rax), %rdi
 2652 1402 BA000000 		movl	$.LC2, %edx
 2652      00
 2653 1407 4889DE   		movq	%rbx, %rsi
 2654 140a E8000000 		call	_ZN8UnitTest11TestResults13OnTestFailureERKNS_11TestDetailsEPKc
 2654      00
 2655              	.LEHE167:
 2656              	.LEHB168:
 2657 140f E8000000 		call	__cxa_end_catch
 2657      00
 2658              	.LEHE168:
 2659 1414 E906F0FF 		jmp	.L161
 2659      FF
 2660              	.L276:
 2661 1419 4889C7   		movq	%rax, %rdi
 2662 141c 0F1F4000 		.p2align 4,,5
 2663 1420 E8000000 		call	__cxa_begin_catch
 2663      00
 2664              		.p2align 4,,5
 2665              	.LEHB169:
 2666 1425 E8000000 		call	_ZN8UnitTest11CurrentTest7DetailsEv
 2666      00
 2667 142a 488B30   		movq	(%rax), %rsi
 2668 142d BA2E0000 		movl	$46, %edx
 2668      00
 2669 1432 4889DF   		movq	%rbx, %rdi
 2670 1435 E8000000 		call	_ZN8UnitTest11TestDetailsC1ERKS0_i
 2670      00
 2671 143a E8000000 		call	_ZN8UnitTest11CurrentTest7ResultsEv
 2671      00
 2672 143f 488B38   		movq	(%rax), %rdi
 2673 1442 BA000000 		movl	$.LC10, %edx
 2673      00
 2674 1447 4889DE   		movq	%rbx, %rsi
 2675 144a E8000000 		call	_ZN8UnitTest11TestResults13OnTestFailureERKNS_11TestDetailsEPKc
 2675      00
 2676              	.LEHE169:
 2677              	.LEHB170:
 2678 144f E8000000 		call	__cxa_end_catch
 2678      00
 2679              	.LEHE170:
 2680 1454 E981EFFF 		jmp	.L158
 2680      FF
 2681              	.L279:
 2682 1459 4889C3   		movq	%rax, %rbx
 2683 145c 0F1F4000 		.p2align 4,,5
 2684 1460 E8000000 		call	__cxa_end_catch
 2684      00
 2685 1465 4889DF   		movq	%rbx, %rdi
 2686              	.LEHB171:
 2687 1468 E8000000 		call	_Unwind_Resume
 2687      00
 2688              	.LEHE171:
 2689              	.L277:
 2690 146d 4889C3   		movq	%rax, %rbx
 2691 1470 E8000000 		call	__cxa_end_catch
 2691      00
 2692 1475 4889DF   		movq	%rbx, %rdi
 2693              	.LEHB172:
 2694 1478 E8000000 		call	_Unwind_Resume
 2694      00
 2695              	.LEHE172:
 2696              	.L274:
 2697 147d 4889C7   		movq	%rax, %rdi
 2698 1480 E8000000 		call	__cxa_begin_catch
 2698      00
 2699              	.LEHB173:
 2700 1485 E8000000 		call	_ZN8UnitTest11CurrentTest7DetailsEv
 2700      00
 2701 148a 488B30   		movq	(%rax), %rsi
 2702 148d BA2D0000 		movl	$45, %edx
 2702      00
 2703 1492 4889DF   		movq	%rbx, %rdi
 2704 1495 E8000000 		call	_ZN8UnitTest11TestDetailsC1ERKS0_i
 2704      00
 2705 149a E8000000 		call	_ZN8UnitTest11CurrentTest7ResultsEv
 2705      00
 2706 149f 488B38   		movq	(%rax), %rdi
 2707 14a2 BA000000 		movl	$.LC2, %edx
 2707      00
 2708 14a7 4889DE   		movq	%rbx, %rsi
 2709 14aa E8000000 		call	_ZN8UnitTest11TestResults13OnTestFailureERKNS_11TestDetailsEPKc
 2709      00
 2710              	.LEHE173:
 2711              	.LEHB174:
 2712 14af E8000000 		call	__cxa_end_catch
 2712      00
 2713              	.LEHE174:
 2714 14b4 E9ECEEFF 		jmp	.L155
 2714      FF
 2715              	.L272:
 2716 14b9 4889C7   		movq	%rax, %rdi
 2717 14bc 0F1F4000 		.p2align 4,,5
 2718 14c0 E8000000 		call	__cxa_begin_catch
 2718      00
 2719              		.p2align 4,,5
 2720              	.LEHB175:
 2721 14c5 E8000000 		call	_ZN8UnitTest11CurrentTest7DetailsEv
 2721      00
 2722 14ca 488B30   		movq	(%rax), %rsi
 2723 14cd BA2B0000 		movl	$43, %edx
 2723      00
 2724 14d2 4889DF   		movq	%rbx, %rdi
 2725 14d5 E8000000 		call	_ZN8UnitTest11TestDetailsC1ERKS0_i
 2725      00
 2726 14da E8000000 		call	_ZN8UnitTest11CurrentTest7ResultsEv
 2726      00
 2727 14df 488B38   		movq	(%rax), %rdi
 2728 14e2 BA000000 		movl	$.LC9, %edx
 2728      00
 2729 14e7 4889DE   		movq	%rbx, %rsi
 2730 14ea E8000000 		call	_ZN8UnitTest11TestResults13OnTestFailureERKNS_11TestDetailsEPKc
 2730      00
 2731              	.LEHE175:
 2732              	.LEHB176:
 2733 14ef E8000000 		call	__cxa_end_catch
 2733      00
 2734              	.LEHE176:
 2735 14f4 E967EEFF 		jmp	.L152
 2735      FF
 2736              	.L275:
 2737 14f9 4889C3   		movq	%rax, %rbx
 2738 14fc 0F1F4000 		.p2align 4,,5
 2739 1500 E8000000 		call	__cxa_end_catch
 2739      00
 2740 1505 4889DF   		movq	%rbx, %rdi
 2741              	.LEHB177:
 2742 1508 E8000000 		call	_Unwind_Resume
 2742      00
 2743              	.LEHE177:
 2744              	.L273:
 2745 150d 4889C3   		movq	%rax, %rbx
 2746 1510 E8000000 		call	__cxa_end_catch
 2746      00
 2747 1515 4889DF   		movq	%rbx, %rdi
 2748              	.LEHB178:
 2749 1518 E8000000 		call	_Unwind_Resume
 2749      00
 2750              	.LEHE178:
 2751              	.L270:
 2752 151d 4889C7   		movq	%rax, %rdi
 2753 1520 E8000000 		call	__cxa_begin_catch
 2753      00
 2754              	.LEHB179:
 2755 1525 E8000000 		call	_ZN8UnitTest11CurrentTest7DetailsEv
 2755      00
 2756 152a 488B30   		movq	(%rax), %rsi
 2757 152d BA2A0000 		movl	$42, %edx
 2757      00
 2758 1532 4889DF   		movq	%rbx, %rdi
 2759 1535 E8000000 		call	_ZN8UnitTest11TestDetailsC1ERKS0_i
 2759      00
 2760 153a E8000000 		call	_ZN8UnitTest11CurrentTest7ResultsEv
 2760      00
 2761 153f 488B38   		movq	(%rax), %rdi
 2762 1542 BA000000 		movl	$.LC2, %edx
 2762      00
 2763 1547 4889DE   		movq	%rbx, %rsi
 2764 154a E8000000 		call	_ZN8UnitTest11TestResults13OnTestFailureERKNS_11TestDetailsEPKc
 2764      00
 2765              	.LEHE179:
 2766              	.LEHB180:
 2767 154f E8000000 		call	__cxa_end_catch
 2767      00
 2768              	.LEHE180:
 2769 1554 E9D2EDFF 		jmp	.L149
 2769      FF
 2770              	.L268:
 2771 1559 4889C7   		movq	%rax, %rdi
 2772 155c 0F1F4000 		.p2align 4,,5
 2773 1560 E8000000 		call	__cxa_begin_catch
 2773      00
 2774              		.p2align 4,,5
 2775              	.LEHB181:
 2776 1565 E8000000 		call	_ZN8UnitTest11CurrentTest7DetailsEv
 2776      00
 2777 156a 488B30   		movq	(%rax), %rsi
 2778 156d BA280000 		movl	$40, %edx
 2778      00
 2779 1572 4889DF   		movq	%rbx, %rdi
 2780 1575 E8000000 		call	_ZN8UnitTest11TestDetailsC1ERKS0_i
 2780      00
 2781 157a E8000000 		call	_ZN8UnitTest11CurrentTest7ResultsEv
 2781      00
 2782 157f 488B38   		movq	(%rax), %rdi
 2783 1582 BA000000 		movl	$.LC8, %edx
 2783      00
 2784 1587 4889DE   		movq	%rbx, %rsi
 2785 158a E8000000 		call	_ZN8UnitTest11TestResults13OnTestFailureERKNS_11TestDetailsEPKc
 2785      00
 2786              	.LEHE181:
 2787              	.LEHB182:
 2788 158f E8000000 		call	__cxa_end_catch
 2788      00
 2789              	.LEHE182:
 2790 1594 E94DEDFF 		jmp	.L146
 2790      FF
 2791              	.L271:
 2792 1599 4889C3   		movq	%rax, %rbx
 2793 159c 0F1F4000 		.p2align 4,,5
 2794 15a0 E8000000 		call	__cxa_end_catch
 2794      00
 2795 15a5 4889DF   		movq	%rbx, %rdi
 2796              	.LEHB183:
 2797 15a8 E8000000 		call	_Unwind_Resume
 2797      00
 2798              	.LEHE183:
 2799              	.L269:
 2800 15ad 4889C3   		movq	%rax, %rbx
 2801 15b0 E8000000 		call	__cxa_end_catch
 2801      00
 2802 15b5 4889DF   		movq	%rbx, %rdi
 2803              	.LEHB184:
 2804 15b8 E8000000 		call	_Unwind_Resume
 2804      00
 2805              	.LEHE184:
 2806              	.L266:
 2807 15bd 4889C7   		movq	%rax, %rdi
 2808 15c0 E8000000 		call	__cxa_begin_catch
 2808      00
 2809              	.LEHB185:
 2810 15c5 E8000000 		call	_ZN8UnitTest11CurrentTest7DetailsEv
 2810      00
 2811 15ca 488B30   		movq	(%rax), %rsi
 2812 15cd BA270000 		movl	$39, %edx
 2812      00
 2813 15d2 4889DF   		movq	%rbx, %rdi
 2814 15d5 E8000000 		call	_ZN8UnitTest11TestDetailsC1ERKS0_i
 2814      00
 2815 15da E8000000 		call	_ZN8UnitTest11CurrentTest7ResultsEv
 2815      00
 2816 15df 488B38   		movq	(%rax), %rdi
 2817 15e2 BA000000 		movl	$.LC2, %edx
 2817      00
 2818 15e7 4889DE   		movq	%rbx, %rsi
 2819 15ea E8000000 		call	_ZN8UnitTest11TestResults13OnTestFailureERKNS_11TestDetailsEPKc
 2819      00
 2820              	.LEHE185:
 2821              	.LEHB186:
 2822 15ef E8000000 		call	__cxa_end_catch
 2822      00
 2823              	.LEHE186:
 2824 15f4 E9B8ECFF 		jmp	.L143
 2824      FF
 2825              	.L264:
 2826 15f9 4889C7   		movq	%rax, %rdi
 2827 15fc 0F1F4000 		.p2align 4,,5
 2828 1600 E8000000 		call	__cxa_begin_catch
 2828      00
 2829              		.p2align 4,,5
 2830              	.LEHB187:
 2831 1605 E8000000 		call	_ZN8UnitTest11CurrentTest7DetailsEv
 2831      00
 2832 160a 488B30   		movq	(%rax), %rsi
 2833 160d BA250000 		movl	$37, %edx
 2833      00
 2834 1612 4889DF   		movq	%rbx, %rdi
 2835 1615 E8000000 		call	_ZN8UnitTest11TestDetailsC1ERKS0_i
 2835      00
 2836 161a E8000000 		call	_ZN8UnitTest11CurrentTest7ResultsEv
 2836      00
 2837 161f 488B38   		movq	(%rax), %rdi
 2838 1622 BA000000 		movl	$.LC7, %edx
 2838      00
 2839 1627 4889DE   		movq	%rbx, %rsi
 2840 162a E8000000 		call	_ZN8UnitTest11TestResults13OnTestFailureERKNS_11TestDetailsEPKc
 2840      00
 2841              	.LEHE187:
 2842              	.LEHB188:
 2843 162f E8000000 		call	__cxa_end_catch
 2843      00
 2844              	.LEHE188:
 2845 1634 E933ECFF 		jmp	.L140
 2845      FF
 2846              	.L267:
 2847 1639 4889C3   		movq	%rax, %rbx
 2848 163c 0F1F4000 		.p2align 4,,5
 2849 1640 E8000000 		call	__cxa_end_catch
 2849      00
 2850 1645 4889DF   		movq	%rbx, %rdi
 2851              	.LEHB189:
 2852 1648 E8000000 		call	_Unwind_Resume
 2852      00
 2853              	.LEHE189:
 2854              	.L265:
 2855 164d 4889C3   		movq	%rax, %rbx
 2856 1650 E8000000 		call	__cxa_end_catch
 2856      00
 2857 1655 4889DF   		movq	%rbx, %rdi
 2858              	.LEHB190:
 2859 1658 E8000000 		call	_Unwind_Resume
 2859      00
 2860              	.LEHE190:
 2861              	.L262:
 2862 165d 4889C7   		movq	%rax, %rdi
 2863 1660 E8000000 		call	__cxa_begin_catch
 2863      00
 2864              	.LEHB191:
 2865 1665 E8000000 		call	_ZN8UnitTest11CurrentTest7DetailsEv
 2865      00
 2866 166a 488B30   		movq	(%rax), %rsi
 2867 166d BA240000 		movl	$36, %edx
 2867      00
 2868 1672 4889DF   		movq	%rbx, %rdi
 2869 1675 E8000000 		call	_ZN8UnitTest11TestDetailsC1ERKS0_i
 2869      00
 2870 167a E8000000 		call	_ZN8UnitTest11CurrentTest7ResultsEv
 2870      00
 2871 167f 488B38   		movq	(%rax), %rdi
 2872 1682 BA000000 		movl	$.LC2, %edx
 2872      00
 2873 1687 4889DE   		movq	%rbx, %rsi
 2874 168a E8000000 		call	_ZN8UnitTest11TestResults13OnTestFailureERKNS_11TestDetailsEPKc
 2874      00
 2875              	.LEHE191:
 2876              	.LEHB192:
 2877 168f E8000000 		call	__cxa_end_catch
 2877      00
 2878              	.LEHE192:
 2879 1694 E99EEBFF 		jmp	.L137
 2879      FF
 2880              	.L260:
 2881 1699 4889C7   		movq	%rax, %rdi
 2882 169c 0F1F4000 		.p2align 4,,5
 2883 16a0 E8000000 		call	__cxa_begin_catch
 2883      00
 2884              		.p2align 4,,5
 2885              	.LEHB193:
 2886 16a5 E8000000 		call	_ZN8UnitTest11CurrentTest7DetailsEv
 2886      00
 2887 16aa 488B30   		movq	(%rax), %rsi
 2888 16ad BA220000 		movl	$34, %edx
 2888      00
 2889 16b2 4889DF   		movq	%rbx, %rdi
 2890 16b5 E8000000 		call	_ZN8UnitTest11TestDetailsC1ERKS0_i
 2890      00
 2891 16ba E8000000 		call	_ZN8UnitTest11CurrentTest7ResultsEv
 2891      00
 2892 16bf 488B38   		movq	(%rax), %rdi
 2893 16c2 BA000000 		movl	$.LC6, %edx
 2893      00
 2894 16c7 4889DE   		movq	%rbx, %rsi
 2895 16ca E8000000 		call	_ZN8UnitTest11TestResults13OnTestFailureERKNS_11TestDetailsEPKc
 2895      00
 2896              	.LEHE193:
 2897              	.LEHB194:
 2898 16cf E8000000 		call	__cxa_end_catch
 2898      00
 2899              	.LEHE194:
 2900 16d4 E919EBFF 		jmp	.L134
 2900      FF
 2901              	.L263:
 2902 16d9 4889C3   		movq	%rax, %rbx
 2903 16dc 0F1F4000 		.p2align 4,,5
 2904 16e0 E8000000 		call	__cxa_end_catch
 2904      00
 2905 16e5 4889DF   		movq	%rbx, %rdi
 2906              	.LEHB195:
 2907 16e8 E8000000 		call	_Unwind_Resume
 2907      00
 2908              	.LEHE195:
 2909              	.L261:
 2910 16ed 4889C3   		movq	%rax, %rbx
 2911 16f0 E8000000 		call	__cxa_end_catch
 2911      00
 2912 16f5 4889DF   		movq	%rbx, %rdi
 2913              	.LEHB196:
 2914 16f8 E8000000 		call	_Unwind_Resume
 2914      00
 2915              	.LEHE196:
 2916              	.L258:
 2917 16fd 4889C7   		movq	%rax, %rdi
 2918 1700 E8000000 		call	__cxa_begin_catch
 2918      00
 2919              	.LEHB197:
 2920 1705 E8000000 		call	_ZN8UnitTest11CurrentTest7DetailsEv
 2920      00
 2921 170a 488B30   		movq	(%rax), %rsi
 2922 170d BA210000 		movl	$33, %edx
 2922      00
 2923 1712 4889DF   		movq	%rbx, %rdi
 2924 1715 E8000000 		call	_ZN8UnitTest11TestDetailsC1ERKS0_i
 2924      00
 2925 171a E8000000 		call	_ZN8UnitTest11CurrentTest7ResultsEv
 2925      00
 2926 171f 488B38   		movq	(%rax), %rdi
 2927 1722 BA000000 		movl	$.LC2, %edx
 2927      00
 2928 1727 4889DE   		movq	%rbx, %rsi
 2929 172a E8000000 		call	_ZN8UnitTest11TestResults13OnTestFailureERKNS_11TestDetailsEPKc
 2929      00
 2930              	.LEHE197:
 2931              	.LEHB198:
 2932 172f E8000000 		call	__cxa_end_catch
 2932      00
 2933              	.LEHE198:
 2934 1734 E984EAFF 		jmp	.L131
 2934      FF
 2935              	.L256:
 2936 1739 4889C7   		movq	%rax, %rdi
 2937 173c 0F1F4000 		.p2align 4,,5
 2938 1740 E8000000 		call	__cxa_begin_catch
 2938      00
 2939              		.p2align 4,,5
 2940              	.LEHB199:
 2941 1745 E8000000 		call	_ZN8UnitTest11CurrentTest7DetailsEv
 2941      00
 2942 174a 488B30   		movq	(%rax), %rsi
 2943 174d BA1F0000 		movl	$31, %edx
 2943      00
 2944 1752 4889DF   		movq	%rbx, %rdi
 2945 1755 E8000000 		call	_ZN8UnitTest11TestDetailsC1ERKS0_i
 2945      00
 2946 175a E8000000 		call	_ZN8UnitTest11CurrentTest7ResultsEv
 2946      00
 2947 175f 488B38   		movq	(%rax), %rdi
 2948 1762 BA000000 		movl	$.LC5, %edx
 2948      00
 2949 1767 4889DE   		movq	%rbx, %rsi
 2950 176a E8000000 		call	_ZN8UnitTest11TestResults13OnTestFailureERKNS_11TestDetailsEPKc
 2950      00
 2951              	.LEHE199:
 2952              	.LEHB200:
 2953 176f E8000000 		call	__cxa_end_catch
 2953      00
 2954              	.LEHE200:
 2955 1774 E9FFE9FF 		jmp	.L128
 2955      FF
 2956              	.L259:
 2957 1779 4889C3   		movq	%rax, %rbx
 2958 177c 0F1F4000 		.p2align 4,,5
 2959 1780 E8000000 		call	__cxa_end_catch
 2959      00
 2960 1785 4889DF   		movq	%rbx, %rdi
 2961              	.LEHB201:
 2962 1788 E8000000 		call	_Unwind_Resume
 2962      00
 2963              	.LEHE201:
 2964              	.L257:
 2965 178d 4889C3   		movq	%rax, %rbx
 2966 1790 E8000000 		call	__cxa_end_catch
 2966      00
 2967 1795 4889DF   		movq	%rbx, %rdi
 2968              	.LEHB202:
 2969 1798 E8000000 		call	_Unwind_Resume
 2969      00
 2970              	.LEHE202:
 2971              	.L254:
 2972 179d 4889C7   		movq	%rax, %rdi
 2973 17a0 E8000000 		call	__cxa_begin_catch
 2973      00
 2974              	.LEHB203:
 2975 17a5 E8000000 		call	_ZN8UnitTest11CurrentTest7DetailsEv
 2975      00
 2976 17aa 488B30   		movq	(%rax), %rsi
 2977 17ad BA1E0000 		movl	$30, %edx
 2977      00
 2978 17b2 4889DF   		movq	%rbx, %rdi
 2979 17b5 E8000000 		call	_ZN8UnitTest11TestDetailsC1ERKS0_i
 2979      00
 2980 17ba E8000000 		call	_ZN8UnitTest11CurrentTest7ResultsEv
 2980      00
 2981 17bf 488B38   		movq	(%rax), %rdi
 2982 17c2 BA000000 		movl	$.LC2, %edx
 2982      00
 2983 17c7 4889DE   		movq	%rbx, %rsi
 2984 17ca E8000000 		call	_ZN8UnitTest11TestResults13OnTestFailureERKNS_11TestDetailsEPKc
 2984      00
 2985              	.LEHE203:
 2986              	.LEHB204:
 2987 17cf E8000000 		call	__cxa_end_catch
 2987      00
 2988              	.LEHE204:
 2989 17d4 E96AE9FF 		jmp	.L125
 2989      FF
 2990              	.L252:
 2991 17d9 4889C7   		movq	%rax, %rdi
 2992 17dc 0F1F4000 		.p2align 4,,5
 2993 17e0 E8000000 		call	__cxa_begin_catch
 2993      00
 2994              		.p2align 4,,5
 2995              	.LEHB205:
 2996 17e5 E8000000 		call	_ZN8UnitTest11CurrentTest7DetailsEv
 2996      00
 2997 17ea 488B30   		movq	(%rax), %rsi
 2998 17ed BA1C0000 		movl	$28, %edx
 2998      00
 2999 17f2 4889DF   		movq	%rbx, %rdi
 3000 17f5 E8000000 		call	_ZN8UnitTest11TestDetailsC1ERKS0_i
 3000      00
 3001 17fa E8000000 		call	_ZN8UnitTest11CurrentTest7ResultsEv
 3001      00
 3002 17ff 488B38   		movq	(%rax), %rdi
 3003 1802 BA000000 		movl	$.LC4, %edx
 3003      00
 3004 1807 4889DE   		movq	%rbx, %rsi
 3005 180a E8000000 		call	_ZN8UnitTest11TestResults13OnTestFailureERKNS_11TestDetailsEPKc
 3005      00
 3006              	.LEHE205:
 3007              	.LEHB206:
 3008 180f E8000000 		call	__cxa_end_catch
 3008      00
 3009              	.LEHE206:
 3010 1814 E9E5E8FF 		jmp	.L122
 3010      FF
 3011              	.L255:
 3012 1819 4889C3   		movq	%rax, %rbx
 3013 181c 0F1F4000 		.p2align 4,,5
 3014 1820 E8000000 		call	__cxa_end_catch
 3014      00
 3015 1825 4889DF   		movq	%rbx, %rdi
 3016              	.LEHB207:
 3017 1828 E8000000 		call	_Unwind_Resume
 3017      00
 3018              	.LEHE207:
 3019              	.L253:
 3020 182d 4889C3   		movq	%rax, %rbx
 3021 1830 E8000000 		call	__cxa_end_catch
 3021      00
 3022 1835 4889DF   		movq	%rbx, %rdi
 3023              	.LEHB208:
 3024 1838 E8000000 		call	_Unwind_Resume
 3024      00
 3025              	.LEHE208:
 3026              	.L250:
 3027 183d 4889C7   		movq	%rax, %rdi
 3028 1840 E8000000 		call	__cxa_begin_catch
 3028      00
 3029              	.LEHB209:
 3030 1845 E8000000 		call	_ZN8UnitTest11CurrentTest7DetailsEv
 3030      00
 3031 184a 488B30   		movq	(%rax), %rsi
 3032 184d BA1B0000 		movl	$27, %edx
 3032      00
 3033 1852 4889DF   		movq	%rbx, %rdi
 3034 1855 E8000000 		call	_ZN8UnitTest11TestDetailsC1ERKS0_i
 3034      00
 3035 185a E8000000 		call	_ZN8UnitTest11CurrentTest7ResultsEv
 3035      00
 3036 185f 488B38   		movq	(%rax), %rdi
 3037 1862 BA000000 		movl	$.LC2, %edx
 3037      00
 3038 1867 4889DE   		movq	%rbx, %rsi
 3039 186a E8000000 		call	_ZN8UnitTest11TestResults13OnTestFailureERKNS_11TestDetailsEPKc
 3039      00
 3040              	.LEHE209:
 3041              	.LEHB210:
 3042 186f E8000000 		call	__cxa_end_catch
 3042      00
 3043              	.LEHE210:
 3044 1874 E950E8FF 		jmp	.L119
 3044      FF
 3045              	.L248:
 3046 1879 4889C7   		movq	%rax, %rdi
 3047 187c 0F1F4000 		.p2align 4,,5
 3048 1880 E8000000 		call	__cxa_begin_catch
 3048      00
 3049              		.p2align 4,,5
 3050              	.LEHB211:
 3051 1885 E8000000 		call	_ZN8UnitTest11CurrentTest7DetailsEv
 3051      00
 3052 188a 488B30   		movq	(%rax), %rsi
 3053 188d BA190000 		movl	$25, %edx
 3053      00
 3054 1892 4889DF   		movq	%rbx, %rdi
 3055 1895 E8000000 		call	_ZN8UnitTest11TestDetailsC1ERKS0_i
 3055      00
 3056 189a E8000000 		call	_ZN8UnitTest11CurrentTest7ResultsEv
 3056      00
 3057 189f 488B38   		movq	(%rax), %rdi
 3058 18a2 BA000000 		movl	$.LC3, %edx
 3058      00
 3059 18a7 4889DE   		movq	%rbx, %rsi
 3060 18aa E8000000 		call	_ZN8UnitTest11TestResults13OnTestFailureERKNS_11TestDetailsEPKc
 3060      00
 3061              	.LEHE211:
 3062              	.LEHB212:
 3063 18af E8000000 		call	__cxa_end_catch
 3063      00
 3064              	.LEHE212:
 3065 18b4 E9CBE7FF 		jmp	.L116
 3065      FF
 3066              	.L251:
 3067 18b9 4889C3   		movq	%rax, %rbx
 3068 18bc 0F1F4000 		.p2align 4,,5
 3069 18c0 E8000000 		call	__cxa_end_catch
 3069      00
 3070 18c5 4889DF   		movq	%rbx, %rdi
 3071              	.LEHB213:
 3072 18c8 E8000000 		call	_Unwind_Resume
 3072      00
 3073              	.LEHE213:
 3074              	.L249:
 3075 18cd 4889C3   		movq	%rax, %rbx
 3076 18d0 E8000000 		call	__cxa_end_catch
 3076      00
 3077 18d5 4889DF   		movq	%rbx, %rdi
 3078              	.LEHB214:
 3079 18d8 E8000000 		call	_Unwind_Resume
 3079      00
 3080              	.LEHE214:
 3081              		.cfi_endproc
 3082              	.LFE1056:
 3083              		.section	.gcc_except_table,"a",@progbits
 3084              		.align 4
 3085              	.LLSDA1056:
 3086 0000 FF       		.byte	0xff
 3087 0001 03       		.byte	0x3
 3088 0002 D808     		.uleb128 .LLSDATT1056-.LLSDATTD1056
 3089              	.LLSDATTD1056:
 3090 0004 01       		.byte	0x1
 3091 0005 CE08     		.uleb128 .LLSDACSE1056-.LLSDACSB1056
 3092              	.LLSDACSB1056:
 3093 0007 0D       		.uleb128 .LEHB12-.LFB1056
 3094 0008 05       		.uleb128 .LEHE12-.LEHB12
 3095 0009 00       		.uleb128 0
 3096 000a 00       		.uleb128 0
 3097 000b 16       		.uleb128 .LEHB13-.LFB1056
 3098 000c 39       		.uleb128 .LEHE13-.LEHB13
 3099 000d D115     		.uleb128 .L246-.LFB1056
 3100 000f 01       		.uleb128 0x1
 3101 0010 4F       		.uleb128 .LEHB14-.LFB1056
 3102 0011 35       		.uleb128 .LEHE14-.LEHB14
 3103 0012 F930     		.uleb128 .L248-.LFB1056
 3104 0014 01       		.uleb128 0x1
 3105 0015 8C01     		.uleb128 .LEHB15-.LFB1056
 3106 0017 05       		.uleb128 .LEHE15-.LEHB15
 3107 0018 00       		.uleb128 0
 3108 0019 00       		.uleb128 0
 3109 001a 9501     		.uleb128 .LEHB16-.LFB1056
 3110 001c 34       		.uleb128 .LEHE16-.LEHB16
 3111 001d BD30     		.uleb128 .L250-.LFB1056
 3112 001f 01       		.uleb128 0x1
 3113 0020 C901     		.uleb128 .LEHB17-.LFB1056
 3114 0022 35       		.uleb128 .LEHE17-.LEHB17
 3115 0023 D92F     		.uleb128 .L252-.LFB1056
 3116 0025 01       		.uleb128 0x1
 3117 0026 8602     		.uleb128 .LEHB18-.LFB1056
 3118 0028 05       		.uleb128 .LEHE18-.LEHB18
 3119 0029 00       		.uleb128 0
 3120 002a 00       		.uleb128 0
 3121 002b 8F02     		.uleb128 .LEHB19-.LFB1056
 3122 002d 34       		.uleb128 .LEHE19-.LEHB19
 3123 002e 9D2F     		.uleb128 .L254-.LFB1056
 3124 0030 01       		.uleb128 0x1
 3125 0031 C302     		.uleb128 .LEHB20-.LFB1056
 3126 0033 35       		.uleb128 .LEHE20-.LEHB20
 3127 0034 B92E     		.uleb128 .L256-.LFB1056
 3128 0036 01       		.uleb128 0x1
 3129 0037 8003     		.uleb128 .LEHB21-.LFB1056
 3130 0039 05       		.uleb128 .LEHE21-.LEHB21
 3131 003a 00       		.uleb128 0
 3132 003b 00       		.uleb128 0
 3133 003c 8903     		.uleb128 .LEHB22-.LFB1056
 3134 003e 34       		.uleb128 .LEHE22-.LEHB22
 3135 003f FD2D     		.uleb128 .L258-.LFB1056
 3136 0041 01       		.uleb128 0x1
 3137 0042 BD03     		.uleb128 .LEHB23-.LFB1056
 3138 0044 35       		.uleb128 .LEHE23-.LEHB23
 3139 0045 992D     		.uleb128 .L260-.LFB1056
 3140 0047 01       		.uleb128 0x1
 3141 0048 FA03     		.uleb128 .LEHB24-.LFB1056
 3142 004a 05       		.uleb128 .LEHE24-.LEHB24
 3143 004b 00       		.uleb128 0
 3144 004c 00       		.uleb128 0
 3145 004d 8304     		.uleb128 .LEHB25-.LFB1056
 3146 004f 34       		.uleb128 .LEHE25-.LEHB25
 3147 0050 DD2C     		.uleb128 .L262-.LFB1056
 3148 0052 01       		.uleb128 0x1
 3149 0053 B704     		.uleb128 .LEHB26-.LFB1056
 3150 0055 35       		.uleb128 .LEHE26-.LEHB26
 3151 0056 F92B     		.uleb128 .L264-.LFB1056
 3152 0058 01       		.uleb128 0x1
 3153 0059 F404     		.uleb128 .LEHB27-.LFB1056
 3154 005b 05       		.uleb128 .LEHE27-.LEHB27
 3155 005c 00       		.uleb128 0
 3156 005d 00       		.uleb128 0
 3157 005e FD04     		.uleb128 .LEHB28-.LFB1056
 3158 0060 34       		.uleb128 .LEHE28-.LEHB28
 3159 0061 BD2B     		.uleb128 .L266-.LFB1056
 3160 0063 01       		.uleb128 0x1
 3161 0064 B105     		.uleb128 .LEHB29-.LFB1056
 3162 0066 35       		.uleb128 .LEHE29-.LEHB29
 3163 0067 D92A     		.uleb128 .L268-.LFB1056
 3164 0069 01       		.uleb128 0x1
 3165 006a EE05     		.uleb128 .LEHB30-.LFB1056
 3166 006c 05       		.uleb128 .LEHE30-.LEHB30
 3167 006d 00       		.uleb128 0
 3168 006e 00       		.uleb128 0
 3169 006f F705     		.uleb128 .LEHB31-.LFB1056
 3170 0071 34       		.uleb128 .LEHE31-.LEHB31
 3171 0072 9D2A     		.uleb128 .L270-.LFB1056
 3172 0074 01       		.uleb128 0x1
 3173 0075 AB06     		.uleb128 .LEHB32-.LFB1056
 3174 0077 35       		.uleb128 .LEHE32-.LEHB32
 3175 0078 B929     		.uleb128 .L272-.LFB1056
 3176 007a 01       		.uleb128 0x1
 3177 007b E806     		.uleb128 .LEHB33-.LFB1056
 3178 007d 05       		.uleb128 .LEHE33-.LEHB33
 3179 007e 00       		.uleb128 0
 3180 007f 00       		.uleb128 0
 3181 0080 F106     		.uleb128 .LEHB34-.LFB1056
 3182 0082 34       		.uleb128 .LEHE34-.LEHB34
 3183 0083 FD28     		.uleb128 .L274-.LFB1056
 3184 0085 01       		.uleb128 0x1
 3185 0086 A507     		.uleb128 .LEHB35-.LFB1056
 3186 0088 35       		.uleb128 .LEHE35-.LEHB35
 3187 0089 9928     		.uleb128 .L276-.LFB1056
 3188 008b 01       		.uleb128 0x1
 3189 008c E207     		.uleb128 .LEHB36-.LFB1056
 3190 008e 05       		.uleb128 .LEHE36-.LEHB36
 3191 008f 00       		.uleb128 0
 3192 0090 00       		.uleb128 0
 3193 0091 EB07     		.uleb128 .LEHB37-.LFB1056
 3194 0093 34       		.uleb128 .LEHE37-.LEHB37
 3195 0094 DD27     		.uleb128 .L278-.LFB1056
 3196 0096 01       		.uleb128 0x1
 3197 0097 9F08     		.uleb128 .LEHB38-.LFB1056
 3198 0099 35       		.uleb128 .LEHE38-.LEHB38
 3199 009a F926     		.uleb128 .L280-.LFB1056
 3200 009c 01       		.uleb128 0x1
 3201 009d DC08     		.uleb128 .LEHB39-.LFB1056
 3202 009f 05       		.uleb128 .LEHE39-.LEHB39
 3203 00a0 00       		.uleb128 0
 3204 00a1 00       		.uleb128 0
 3205 00a2 E508     		.uleb128 .LEHB40-.LFB1056
 3206 00a4 34       		.uleb128 .LEHE40-.LEHB40
 3207 00a5 BD26     		.uleb128 .L282-.LFB1056
 3208 00a7 01       		.uleb128 0x1
 3209 00a8 9909     		.uleb128 .LEHB41-.LFB1056
 3210 00aa 35       		.uleb128 .LEHE41-.LEHB41
 3211 00ab D925     		.uleb128 .L284-.LFB1056
 3212 00ad 01       		.uleb128 0x1
 3213 00ae D609     		.uleb128 .LEHB42-.LFB1056
 3214 00b0 05       		.uleb128 .LEHE42-.LEHB42
 3215 00b1 00       		.uleb128 0
 3216 00b2 00       		.uleb128 0
 3217 00b3 DF09     		.uleb128 .LEHB43-.LFB1056
 3218 00b5 34       		.uleb128 .LEHE43-.LEHB43
 3219 00b6 9D25     		.uleb128 .L286-.LFB1056
 3220 00b8 01       		.uleb128 0x1
 3221 00b9 930A     		.uleb128 .LEHB44-.LFB1056
 3222 00bb 35       		.uleb128 .LEHE44-.LEHB44
 3223 00bc B924     		.uleb128 .L288-.LFB1056
 3224 00be 01       		.uleb128 0x1
 3225 00bf D00A     		.uleb128 .LEHB45-.LFB1056
 3226 00c1 05       		.uleb128 .LEHE45-.LEHB45
 3227 00c2 00       		.uleb128 0
 3228 00c3 00       		.uleb128 0
 3229 00c4 D90A     		.uleb128 .LEHB46-.LFB1056
 3230 00c6 34       		.uleb128 .LEHE46-.LEHB46
 3231 00c7 FD23     		.uleb128 .L290-.LFB1056
 3232 00c9 01       		.uleb128 0x1
 3233 00ca 8D0B     		.uleb128 .LEHB47-.LFB1056
 3234 00cc 35       		.uleb128 .LEHE47-.LEHB47
 3235 00cd 9923     		.uleb128 .L292-.LFB1056
 3236 00cf 01       		.uleb128 0x1
 3237 00d0 CA0B     		.uleb128 .LEHB48-.LFB1056
 3238 00d2 05       		.uleb128 .LEHE48-.LEHB48
 3239 00d3 00       		.uleb128 0
 3240 00d4 00       		.uleb128 0
 3241 00d5 D30B     		.uleb128 .LEHB49-.LFB1056
 3242 00d7 34       		.uleb128 .LEHE49-.LEHB49
 3243 00d8 DD22     		.uleb128 .L294-.LFB1056
 3244 00da 01       		.uleb128 0x1
 3245 00db 870C     		.uleb128 .LEHB50-.LFB1056
 3246 00dd 35       		.uleb128 .LEHE50-.LEHB50
 3247 00de F921     		.uleb128 .L296-.LFB1056
 3248 00e0 01       		.uleb128 0x1
 3249 00e1 C40C     		.uleb128 .LEHB51-.LFB1056
 3250 00e3 05       		.uleb128 .LEHE51-.LEHB51
 3251 00e4 00       		.uleb128 0
 3252 00e5 00       		.uleb128 0
 3253 00e6 CD0C     		.uleb128 .LEHB52-.LFB1056
 3254 00e8 34       		.uleb128 .LEHE52-.LEHB52
 3255 00e9 BD21     		.uleb128 .L298-.LFB1056
 3256 00eb 01       		.uleb128 0x1
 3257 00ec 810D     		.uleb128 .LEHB53-.LFB1056
 3258 00ee 35       		.uleb128 .LEHE53-.LEHB53
 3259 00ef D920     		.uleb128 .L300-.LFB1056
 3260 00f1 01       		.uleb128 0x1
 3261 00f2 BE0D     		.uleb128 .LEHB54-.LFB1056
 3262 00f4 05       		.uleb128 .LEHE54-.LEHB54
 3263 00f5 00       		.uleb128 0
 3264 00f6 00       		.uleb128 0
 3265 00f7 C70D     		.uleb128 .LEHB55-.LFB1056
 3266 00f9 34       		.uleb128 .LEHE55-.LEHB55
 3267 00fa 9D20     		.uleb128 .L302-.LFB1056
 3268 00fc 01       		.uleb128 0x1
 3269 00fd FB0D     		.uleb128 .LEHB56-.LFB1056
 3270 00ff 35       		.uleb128 .LEHE56-.LEHB56
 3271 0100 B91F     		.uleb128 .L304-.LFB1056
 3272 0102 01       		.uleb128 0x1
 3273 0103 B80E     		.uleb128 .LEHB57-.LFB1056
 3274 0105 05       		.uleb128 .LEHE57-.LEHB57
 3275 0106 00       		.uleb128 0
 3276 0107 00       		.uleb128 0
 3277 0108 C10E     		.uleb128 .LEHB58-.LFB1056
 3278 010a 34       		.uleb128 .LEHE58-.LEHB58
 3279 010b FD1E     		.uleb128 .L306-.LFB1056
 3280 010d 01       		.uleb128 0x1
 3281 010e F50E     		.uleb128 .LEHB59-.LFB1056
 3282 0110 35       		.uleb128 .LEHE59-.LEHB59
 3283 0111 991E     		.uleb128 .L308-.LFB1056
 3284 0113 01       		.uleb128 0x1
 3285 0114 B20F     		.uleb128 .LEHB60-.LFB1056
 3286 0116 05       		.uleb128 .LEHE60-.LEHB60
 3287 0117 00       		.uleb128 0
 3288 0118 00       		.uleb128 0
 3289 0119 BB0F     		.uleb128 .LEHB61-.LFB1056
 3290 011b 34       		.uleb128 .LEHE61-.LEHB61
 3291 011c DD1D     		.uleb128 .L310-.LFB1056
 3292 011e 01       		.uleb128 0x1
 3293 011f EF0F     		.uleb128 .LEHB62-.LFB1056
 3294 0121 35       		.uleb128 .LEHE62-.LEHB62
 3295 0122 F91C     		.uleb128 .L312-.LFB1056
 3296 0124 01       		.uleb128 0x1
 3297 0125 AC10     		.uleb128 .LEHB63-.LFB1056
 3298 0127 05       		.uleb128 .LEHE63-.LEHB63
 3299 0128 00       		.uleb128 0
 3300 0129 00       		.uleb128 0
 3301 012a B510     		.uleb128 .LEHB64-.LFB1056
 3302 012c 34       		.uleb128 .LEHE64-.LEHB64
 3303 012d BD1C     		.uleb128 .L314-.LFB1056
 3304 012f 01       		.uleb128 0x1
 3305 0130 E910     		.uleb128 .LEHB65-.LFB1056
 3306 0132 35       		.uleb128 .LEHE65-.LEHB65
 3307 0133 D91B     		.uleb128 .L316-.LFB1056
 3308 0135 01       		.uleb128 0x1
 3309 0136 A611     		.uleb128 .LEHB66-.LFB1056
 3310 0138 05       		.uleb128 .LEHE66-.LEHB66
 3311 0139 00       		.uleb128 0
 3312 013a 00       		.uleb128 0
 3313 013b AF11     		.uleb128 .LEHB67-.LFB1056
 3314 013d 34       		.uleb128 .LEHE67-.LEHB67
 3315 013e 9D1B     		.uleb128 .L318-.LFB1056
 3316 0140 01       		.uleb128 0x1
 3317 0141 E311     		.uleb128 .LEHB68-.LFB1056
 3318 0143 35       		.uleb128 .LEHE68-.LEHB68
 3319 0144 B91A     		.uleb128 .L320-.LFB1056
 3320 0146 01       		.uleb128 0x1
 3321 0147 A012     		.uleb128 .LEHB69-.LFB1056
 3322 0149 05       		.uleb128 .LEHE69-.LEHB69
 3323 014a 00       		.uleb128 0
 3324 014b 00       		.uleb128 0
 3325 014c A912     		.uleb128 .LEHB70-.LFB1056
 3326 014e 34       		.uleb128 .LEHE70-.LEHB70
 3327 014f FD19     		.uleb128 .L322-.LFB1056
 3328 0151 01       		.uleb128 0x1
 3329 0152 DD12     		.uleb128 .LEHB71-.LFB1056
 3330 0154 35       		.uleb128 .LEHE71-.LEHB71
 3331 0155 9919     		.uleb128 .L324-.LFB1056
 3332 0157 01       		.uleb128 0x1
 3333 0158 9A13     		.uleb128 .LEHB72-.LFB1056
 3334 015a 05       		.uleb128 .LEHE72-.LEHB72
 3335 015b 00       		.uleb128 0
 3336 015c 00       		.uleb128 0
 3337 015d A313     		.uleb128 .LEHB73-.LFB1056
 3338 015f 34       		.uleb128 .LEHE73-.LEHB73
 3339 0160 DD18     		.uleb128 .L326-.LFB1056
 3340 0162 01       		.uleb128 0x1
 3341 0163 D713     		.uleb128 .LEHB74-.LFB1056
 3342 0165 35       		.uleb128 .LEHE74-.LEHB74
 3343 0166 C917     		.uleb128 .L328-.LFB1056
 3344 0168 01       		.uleb128 0x1
 3345 0169 9414     		.uleb128 .LEHB75-.LFB1056
 3346 016b 05       		.uleb128 .LEHE75-.LEHB75
 3347 016c 00       		.uleb128 0
 3348 016d 00       		.uleb128 0
 3349 016e 9D14     		.uleb128 .LEHB76-.LFB1056
 3350 0170 34       		.uleb128 .LEHE76-.LEHB76
 3351 0171 CB16     		.uleb128 .L330-.LFB1056
 3352 0173 01       		.uleb128 0x1
 3353 0174 D114     		.uleb128 .LEHB77-.LFB1056
 3354 0176 35       		.uleb128 .LEHE77-.LEHB77
 3355 0177 8917     		.uleb128 .L332-.LFB1056
 3356 0179 01       		.uleb128 0x1
 3357 017a 8E15     		.uleb128 .LEHB78-.LFB1056
 3358 017c 05       		.uleb128 .LEHE78-.LEHB78
 3359 017d 00       		.uleb128 0
 3360 017e 00       		.uleb128 0
 3361 017f 9715     		.uleb128 .LEHB79-.LFB1056
 3362 0181 34       		.uleb128 .LEHE79-.LEHB79
 3363 0182 9216     		.uleb128 .L334-.LFB1056
 3364 0184 01       		.uleb128 0x1
 3365 0185 D915     		.uleb128 .LEHB80-.LFB1056
 3366 0187 2F       		.uleb128 .LEHE80-.LEHB80
 3367 0188 8918     		.uleb128 .L247-.LFB1056
 3368 018a 00       		.uleb128 0
 3369 018b 8816     		.uleb128 .LEHB81-.LFB1056
 3370 018d 05       		.uleb128 .LEHE81-.LEHB81
 3371 018e 00       		.uleb128 0
 3372 018f 00       		.uleb128 0
 3373 0190 9A16     		.uleb128 .LEHB82-.LFB1056
 3374 0192 2A       		.uleb128 .LEHE82-.LEHB82
 3375 0193 9D18     		.uleb128 .L335-.LFB1056
 3376 0195 00       		.uleb128 0
 3377 0196 C416     		.uleb128 .LEHB83-.LFB1056
 3378 0198 05       		.uleb128 .LEHE83-.LEHB83
 3379 0199 00       		.uleb128 0
 3380 019a 00       		.uleb128 0
 3381 019b D516     		.uleb128 .LEHB84-.LFB1056
 3382 019d 2A       		.uleb128 .LEHE84-.LEHB84
 3383 019e BD18     		.uleb128 .L331-.LFB1056
 3384 01a0 00       		.uleb128 0
 3385 01a1 FF16     		.uleb128 .LEHB85-.LFB1056
 3386 01a3 05       		.uleb128 .LEHE85-.LEHB85
 3387 01a4 00       		.uleb128 0
 3388 01a5 00       		.uleb128 0
 3389 01a6 9517     		.uleb128 .LEHB86-.LFB1056
 3390 01a8 2A       		.uleb128 .LEHE86-.LEHB86
 3391 01a9 AD18     		.uleb128 .L333-.LFB1056
 3392 01ab 00       		.uleb128 0
 3393 01ac BF17     		.uleb128 .LEHB87-.LFB1056
 3394 01ae 05       		.uleb128 .LEHE87-.LEHB87
 3395 01af 00       		.uleb128 0
 3396 01b0 00       		.uleb128 0
 3397 01b1 D517     		.uleb128 .LEHB88-.LFB1056
 3398 01b3 2A       		.uleb128 .LEHE88-.LEHB88
 3399 01b4 CD18     		.uleb128 .L329-.LFB1056
 3400 01b6 00       		.uleb128 0
 3401 01b7 FF17     		.uleb128 .LEHB89-.LFB1056
 3402 01b9 05       		.uleb128 .LEHE89-.LEHB89
 3403 01ba 00       		.uleb128 0
 3404 01bb 00       		.uleb128 0
 3405 01bc 9818     		.uleb128 .LEHB90-.LFB1056
 3406 01be 05       		.uleb128 .LEHE90-.LEHB90
 3407 01bf 00       		.uleb128 0
 3408 01c0 00       		.uleb128 0
 3409 01c1 A818     		.uleb128 .LEHB91-.LFB1056
 3410 01c3 05       		.uleb128 .LEHE91-.LEHB91
 3411 01c4 00       		.uleb128 0
 3412 01c5 00       		.uleb128 0
 3413 01c6 B818     		.uleb128 .LEHB92-.LFB1056
 3414 01c8 05       		.uleb128 .LEHE92-.LEHB92
 3415 01c9 00       		.uleb128 0
 3416 01ca 00       		.uleb128 0
 3417 01cb C818     		.uleb128 .LEHB93-.LFB1056
 3418 01cd 05       		.uleb128 .LEHE93-.LEHB93
 3419 01ce 00       		.uleb128 0
 3420 01cf 00       		.uleb128 0
 3421 01d0 D818     		.uleb128 .LEHB94-.LFB1056
 3422 01d2 05       		.uleb128 .LEHE94-.LEHB94
 3423 01d3 00       		.uleb128 0
 3424 01d4 00       		.uleb128 0
 3425 01d5 E518     		.uleb128 .LEHB95-.LFB1056
 3426 01d7 2A       		.uleb128 .LEHE95-.LEHB95
 3427 01d8 D919     		.uleb128 .L327-.LFB1056
 3428 01da 00       		.uleb128 0
 3429 01db 8F19     		.uleb128 .LEHB96-.LFB1056
 3430 01dd 05       		.uleb128 .LEHE96-.LEHB96
 3431 01de 00       		.uleb128 0
 3432 01df 00       		.uleb128 0
 3433 01e0 A519     		.uleb128 .LEHB97-.LFB1056
 3434 01e2 2A       		.uleb128 .LEHE97-.LEHB97
 3435 01e3 ED19     		.uleb128 .L325-.LFB1056
 3436 01e5 00       		.uleb128 0
 3437 01e6 CF19     		.uleb128 .LEHB98-.LFB1056
 3438 01e8 05       		.uleb128 .LEHE98-.LEHB98
 3439 01e9 00       		.uleb128 0
 3440 01ea 00       		.uleb128 0
 3441 01eb E819     		.uleb128 .LEHB99-.LFB1056
 3442 01ed 05       		.uleb128 .LEHE99-.LEHB99
 3443 01ee 00       		.uleb128 0
 3444 01ef 00       		.uleb128 0
 3445 01f0 F819     		.uleb128 .LEHB100-.LFB1056
 3446 01f2 05       		.uleb128 .LEHE100-.LEHB100
 3447 01f3 00       		.uleb128 0
 3448 01f4 00       		.uleb128 0
 3449 01f5 851A     		.uleb128 .LEHB101-.LFB1056
 3450 01f7 2A       		.uleb128 .LEHE101-.LEHB101
 3451 01f8 F91A     		.uleb128 .L323-.LFB1056
 3452 01fa 00       		.uleb128 0
 3453 01fb AF1A     		.uleb128 .LEHB102-.LFB1056
 3454 01fd 05       		.uleb128 .LEHE102-.LEHB102
 3455 01fe 00       		.uleb128 0
 3456 01ff 00       		.uleb128 0
 3457 0200 C51A     		.uleb128 .LEHB103-.LFB1056
 3458 0202 2A       		.uleb128 .LEHE103-.LEHB103
 3459 0203 8D1B     		.uleb128 .L321-.LFB1056
 3460 0205 00       		.uleb128 0
 3461 0206 EF1A     		.uleb128 .LEHB104-.LFB1056
 3462 0208 05       		.uleb128 .LEHE104-.LEHB104
 3463 0209 00       		.uleb128 0
 3464 020a 00       		.uleb128 0
 3465 020b 881B     		.uleb128 .LEHB105-.LFB1056
 3466 020d 05       		.uleb128 .LEHE105-.LEHB105
 3467 020e 00       		.uleb128 0
 3468 020f 00       		.uleb128 0
 3469 0210 981B     		.uleb128 .LEHB106-.LFB1056
 3470 0212 05       		.uleb128 .LEHE106-.LEHB106
 3471 0213 00       		.uleb128 0
 3472 0214 00       		.uleb128 0
 3473 0215 A51B     		.uleb128 .LEHB107-.LFB1056
 3474 0217 2A       		.uleb128 .LEHE107-.LEHB107
 3475 0218 991C     		.uleb128 .L319-.LFB1056
 3476 021a 00       		.uleb128 0
 3477 021b CF1B     		.uleb128 .LEHB108-.LFB1056
 3478 021d 05       		.uleb128 .LEHE108-.LEHB108
 3479 021e 00       		.uleb128 0
 3480 021f 00       		.uleb128 0
 3481 0220 E51B     		.uleb128 .LEHB109-.LFB1056
 3482 0222 2A       		.uleb128 .LEHE109-.LEHB109
 3483 0223 AD1C     		.uleb128 .L317-.LFB1056
 3484 0225 00       		.uleb128 0
 3485 0226 8F1C     		.uleb128 .LEHB110-.LFB1056
 3486 0228 05       		.uleb128 .LEHE110-.LEHB110
 3487 0229 00       		.uleb128 0
 3488 022a 00       		.uleb128 0
 3489 022b A81C     		.uleb128 .LEHB111-.LFB1056
 3490 022d 05       		.uleb128 .LEHE111-.LEHB111
 3491 022e 00       		.uleb128 0
 3492 022f 00       		.uleb128 0
 3493 0230 B81C     		.uleb128 .LEHB112-.LFB1056
 3494 0232 05       		.uleb128 .LEHE112-.LEHB112
 3495 0233 00       		.uleb128 0
 3496 0234 00       		.uleb128 0
 3497 0235 C51C     		.uleb128 .LEHB113-.LFB1056
 3498 0237 2A       		.uleb128 .LEHE113-.LEHB113
 3499 0238 B91D     		.uleb128 .L315-.LFB1056
 3500 023a 00       		.uleb128 0
 3501 023b EF1C     		.uleb128 .LEHB114-.LFB1056
 3502 023d 05       		.uleb128 .LEHE114-.LEHB114
 3503 023e 00       		.uleb128 0
 3504 023f 00       		.uleb128 0
 3505 0240 851D     		.uleb128 .LEHB115-.LFB1056
 3506 0242 2A       		.uleb128 .LEHE115-.LEHB115
 3507 0243 CD1D     		.uleb128 .L313-.LFB1056
 3508 0245 00       		.uleb128 0
 3509 0246 AF1D     		.uleb128 .LEHB116-.LFB1056
 3510 0248 05       		.uleb128 .LEHE116-.LEHB116
 3511 0249 00       		.uleb128 0
 3512 024a 00       		.uleb128 0
 3513 024b C81D     		.uleb128 .LEHB117-.LFB1056
 3514 024d 05       		.uleb128 .LEHE117-.LEHB117
 3515 024e 00       		.uleb128 0
 3516 024f 00       		.uleb128 0
 3517 0250 D81D     		.uleb128 .LEHB118-.LFB1056
 3518 0252 05       		.uleb128 .LEHE118-.LEHB118
 3519 0253 00       		.uleb128 0
 3520 0254 00       		.uleb128 0
 3521 0255 E51D     		.uleb128 .LEHB119-.LFB1056
 3522 0257 2A       		.uleb128 .LEHE119-.LEHB119
 3523 0258 D91E     		.uleb128 .L311-.LFB1056
 3524 025a 00       		.uleb128 0
 3525 025b 8F1E     		.uleb128 .LEHB120-.LFB1056
 3526 025d 05       		.uleb128 .LEHE120-.LEHB120
 3527 025e 00       		.uleb128 0
 3528 025f 00       		.uleb128 0
 3529 0260 A51E     		.uleb128 .LEHB121-.LFB1056
 3530 0262 2A       		.uleb128 .LEHE121-.LEHB121
 3531 0263 ED1E     		.uleb128 .L309-.LFB1056
 3532 0265 00       		.uleb128 0
 3533 0266 CF1E     		.uleb128 .LEHB122-.LFB1056
 3534 0268 05       		.uleb128 .LEHE122-.LEHB122
 3535 0269 00       		.uleb128 0
 3536 026a 00       		.uleb128 0
 3537 026b E81E     		.uleb128 .LEHB123-.LFB1056
 3538 026d 05       		.uleb128 .LEHE123-.LEHB123
 3539 026e 00       		.uleb128 0
 3540 026f 00       		.uleb128 0
 3541 0270 F81E     		.uleb128 .LEHB124-.LFB1056
 3542 0272 05       		.uleb128 .LEHE124-.LEHB124
 3543 0273 00       		.uleb128 0
 3544 0274 00       		.uleb128 0
 3545 0275 851F     		.uleb128 .LEHB125-.LFB1056
 3546 0277 2A       		.uleb128 .LEHE125-.LEHB125
 3547 0278 F91F     		.uleb128 .L307-.LFB1056
 3548 027a 00       		.uleb128 0
 3549 027b AF1F     		.uleb128 .LEHB126-.LFB1056
 3550 027d 05       		.uleb128 .LEHE126-.LEHB126
 3551 027e 00       		.uleb128 0
 3552 027f 00       		.uleb128 0
 3553 0280 C51F     		.uleb128 .LEHB127-.LFB1056
 3554 0282 2A       		.uleb128 .LEHE127-.LEHB127
 3555 0283 8D20     		.uleb128 .L305-.LFB1056
 3556 0285 00       		.uleb128 0
 3557 0286 EF1F     		.uleb128 .LEHB128-.LFB1056
 3558 0288 05       		.uleb128 .LEHE128-.LEHB128
 3559 0289 00       		.uleb128 0
 3560 028a 00       		.uleb128 0
 3561 028b 8820     		.uleb128 .LEHB129-.LFB1056
 3562 028d 05       		.uleb128 .LEHE129-.LEHB129
 3563 028e 00       		.uleb128 0
 3564 028f 00       		.uleb128 0
 3565 0290 9820     		.uleb128 .LEHB130-.LFB1056
 3566 0292 05       		.uleb128 .LEHE130-.LEHB130
 3567 0293 00       		.uleb128 0
 3568 0294 00       		.uleb128 0
 3569 0295 A520     		.uleb128 .LEHB131-.LFB1056
 3570 0297 2A       		.uleb128 .LEHE131-.LEHB131
 3571 0298 9921     		.uleb128 .L303-.LFB1056
 3572 029a 00       		.uleb128 0
 3573 029b CF20     		.uleb128 .LEHB132-.LFB1056
 3574 029d 05       		.uleb128 .LEHE132-.LEHB132
 3575 029e 00       		.uleb128 0
 3576 029f 00       		.uleb128 0
 3577 02a0 E520     		.uleb128 .LEHB133-.LFB1056
 3578 02a2 2A       		.uleb128 .LEHE133-.LEHB133
 3579 02a3 AD21     		.uleb128 .L301-.LFB1056
 3580 02a5 00       		.uleb128 0
 3581 02a6 8F21     		.uleb128 .LEHB134-.LFB1056
 3582 02a8 05       		.uleb128 .LEHE134-.LEHB134
 3583 02a9 00       		.uleb128 0
 3584 02aa 00       		.uleb128 0
 3585 02ab A821     		.uleb128 .LEHB135-.LFB1056
 3586 02ad 05       		.uleb128 .LEHE135-.LEHB135
 3587 02ae 00       		.uleb128 0
 3588 02af 00       		.uleb128 0
 3589 02b0 B821     		.uleb128 .LEHB136-.LFB1056
 3590 02b2 05       		.uleb128 .LEHE136-.LEHB136
 3591 02b3 00       		.uleb128 0
 3592 02b4 00       		.uleb128 0
 3593 02b5 C521     		.uleb128 .LEHB137-.LFB1056
 3594 02b7 2A       		.uleb128 .LEHE137-.LEHB137
 3595 02b8 B922     		.uleb128 .L299-.LFB1056
 3596 02ba 00       		.uleb128 0
 3597 02bb EF21     		.uleb128 .LEHB138-.LFB1056
 3598 02bd 05       		.uleb128 .LEHE138-.LEHB138
 3599 02be 00       		.uleb128 0
 3600 02bf 00       		.uleb128 0
 3601 02c0 8522     		.uleb128 .LEHB139-.LFB1056
 3602 02c2 2A       		.uleb128 .LEHE139-.LEHB139
 3603 02c3 CD22     		.uleb128 .L297-.LFB1056
 3604 02c5 00       		.uleb128 0
 3605 02c6 AF22     		.uleb128 .LEHB140-.LFB1056
 3606 02c8 05       		.uleb128 .LEHE140-.LEHB140
 3607 02c9 00       		.uleb128 0
 3608 02ca 00       		.uleb128 0
 3609 02cb C822     		.uleb128 .LEHB141-.LFB1056
 3610 02cd 05       		.uleb128 .LEHE141-.LEHB141
 3611 02ce 00       		.uleb128 0
 3612 02cf 00       		.uleb128 0
 3613 02d0 D822     		.uleb128 .LEHB142-.LFB1056
 3614 02d2 05       		.uleb128 .LEHE142-.LEHB142
 3615 02d3 00       		.uleb128 0
 3616 02d4 00       		.uleb128 0
 3617 02d5 E522     		.uleb128 .LEHB143-.LFB1056
 3618 02d7 2A       		.uleb128 .LEHE143-.LEHB143
 3619 02d8 D923     		.uleb128 .L295-.LFB1056
 3620 02da 00       		.uleb128 0
 3621 02db 8F23     		.uleb128 .LEHB144-.LFB1056
 3622 02dd 05       		.uleb128 .LEHE144-.LEHB144
 3623 02de 00       		.uleb128 0
 3624 02df 00       		.uleb128 0
 3625 02e0 A523     		.uleb128 .LEHB145-.LFB1056
 3626 02e2 2A       		.uleb128 .LEHE145-.LEHB145
 3627 02e3 ED23     		.uleb128 .L293-.LFB1056
 3628 02e5 00       		.uleb128 0
 3629 02e6 CF23     		.uleb128 .LEHB146-.LFB1056
 3630 02e8 05       		.uleb128 .LEHE146-.LEHB146
 3631 02e9 00       		.uleb128 0
 3632 02ea 00       		.uleb128 0
 3633 02eb E823     		.uleb128 .LEHB147-.LFB1056
 3634 02ed 05       		.uleb128 .LEHE147-.LEHB147
 3635 02ee 00       		.uleb128 0
 3636 02ef 00       		.uleb128 0
 3637 02f0 F823     		.uleb128 .LEHB148-.LFB1056
 3638 02f2 05       		.uleb128 .LEHE148-.LEHB148
 3639 02f3 00       		.uleb128 0
 3640 02f4 00       		.uleb128 0
 3641 02f5 8524     		.uleb128 .LEHB149-.LFB1056
 3642 02f7 2A       		.uleb128 .LEHE149-.LEHB149
 3643 02f8 F924     		.uleb128 .L291-.LFB1056
 3644 02fa 00       		.uleb128 0
 3645 02fb AF24     		.uleb128 .LEHB150-.LFB1056
 3646 02fd 05       		.uleb128 .LEHE150-.LEHB150
 3647 02fe 00       		.uleb128 0
 3648 02ff 00       		.uleb128 0
 3649 0300 C524     		.uleb128 .LEHB151-.LFB1056
 3650 0302 2A       		.uleb128 .LEHE151-.LEHB151
 3651 0303 8D25     		.uleb128 .L289-.LFB1056
 3652 0305 00       		.uleb128 0
 3653 0306 EF24     		.uleb128 .LEHB152-.LFB1056
 3654 0308 05       		.uleb128 .LEHE152-.LEHB152
 3655 0309 00       		.uleb128 0
 3656 030a 00       		.uleb128 0
 3657 030b 8825     		.uleb128 .LEHB153-.LFB1056
 3658 030d 05       		.uleb128 .LEHE153-.LEHB153
 3659 030e 00       		.uleb128 0
 3660 030f 00       		.uleb128 0
 3661 0310 9825     		.uleb128 .LEHB154-.LFB1056
 3662 0312 05       		.uleb128 .LEHE154-.LEHB154
 3663 0313 00       		.uleb128 0
 3664 0314 00       		.uleb128 0
 3665 0315 A525     		.uleb128 .LEHB155-.LFB1056
 3666 0317 2A       		.uleb128 .LEHE155-.LEHB155
 3667 0318 9926     		.uleb128 .L287-.LFB1056
 3668 031a 00       		.uleb128 0
 3669 031b CF25     		.uleb128 .LEHB156-.LFB1056
 3670 031d 05       		.uleb128 .LEHE156-.LEHB156
 3671 031e 00       		.uleb128 0
 3672 031f 00       		.uleb128 0
 3673 0320 E525     		.uleb128 .LEHB157-.LFB1056
 3674 0322 2A       		.uleb128 .LEHE157-.LEHB157
 3675 0323 AD26     		.uleb128 .L285-.LFB1056
 3676 0325 00       		.uleb128 0
 3677 0326 8F26     		.uleb128 .LEHB158-.LFB1056
 3678 0328 05       		.uleb128 .LEHE158-.LEHB158
 3679 0329 00       		.uleb128 0
 3680 032a 00       		.uleb128 0
 3681 032b A826     		.uleb128 .LEHB159-.LFB1056
 3682 032d 05       		.uleb128 .LEHE159-.LEHB159
 3683 032e 00       		.uleb128 0
 3684 032f 00       		.uleb128 0
 3685 0330 B826     		.uleb128 .LEHB160-.LFB1056
 3686 0332 05       		.uleb128 .LEHE160-.LEHB160
 3687 0333 00       		.uleb128 0
 3688 0334 00       		.uleb128 0
 3689 0335 C526     		.uleb128 .LEHB161-.LFB1056
 3690 0337 2A       		.uleb128 .LEHE161-.LEHB161
 3691 0338 B927     		.uleb128 .L283-.LFB1056
 3692 033a 00       		.uleb128 0
 3693 033b EF26     		.uleb128 .LEHB162-.LFB1056
 3694 033d 05       		.uleb128 .LEHE162-.LEHB162
 3695 033e 00       		.uleb128 0
 3696 033f 00       		.uleb128 0
 3697 0340 8527     		.uleb128 .LEHB163-.LFB1056
 3698 0342 2A       		.uleb128 .LEHE163-.LEHB163
 3699 0343 CD27     		.uleb128 .L281-.LFB1056
 3700 0345 00       		.uleb128 0
 3701 0346 AF27     		.uleb128 .LEHB164-.LFB1056
 3702 0348 05       		.uleb128 .LEHE164-.LEHB164
 3703 0349 00       		.uleb128 0
 3704 034a 00       		.uleb128 0
 3705 034b C827     		.uleb128 .LEHB165-.LFB1056
 3706 034d 05       		.uleb128 .LEHE165-.LEHB165
 3707 034e 00       		.uleb128 0
 3708 034f 00       		.uleb128 0
 3709 0350 D827     		.uleb128 .LEHB166-.LFB1056
 3710 0352 05       		.uleb128 .LEHE166-.LEHB166
 3711 0353 00       		.uleb128 0
 3712 0354 00       		.uleb128 0
 3713 0355 E527     		.uleb128 .LEHB167-.LFB1056
 3714 0357 2A       		.uleb128 .LEHE167-.LEHB167
 3715 0358 D928     		.uleb128 .L279-.LFB1056
 3716 035a 00       		.uleb128 0
 3717 035b 8F28     		.uleb128 .LEHB168-.LFB1056
 3718 035d 05       		.uleb128 .LEHE168-.LEHB168
 3719 035e 00       		.uleb128 0
 3720 035f 00       		.uleb128 0
 3721 0360 A528     		.uleb128 .LEHB169-.LFB1056
 3722 0362 2A       		.uleb128 .LEHE169-.LEHB169
 3723 0363 ED28     		.uleb128 .L277-.LFB1056
 3724 0365 00       		.uleb128 0
 3725 0366 CF28     		.uleb128 .LEHB170-.LFB1056
 3726 0368 05       		.uleb128 .LEHE170-.LEHB170
 3727 0369 00       		.uleb128 0
 3728 036a 00       		.uleb128 0
 3729 036b E828     		.uleb128 .LEHB171-.LFB1056
 3730 036d 05       		.uleb128 .LEHE171-.LEHB171
 3731 036e 00       		.uleb128 0
 3732 036f 00       		.uleb128 0
 3733 0370 F828     		.uleb128 .LEHB172-.LFB1056
 3734 0372 05       		.uleb128 .LEHE172-.LEHB172
 3735 0373 00       		.uleb128 0
 3736 0374 00       		.uleb128 0
 3737 0375 8529     		.uleb128 .LEHB173-.LFB1056
 3738 0377 2A       		.uleb128 .LEHE173-.LEHB173
 3739 0378 F929     		.uleb128 .L275-.LFB1056
 3740 037a 00       		.uleb128 0
 3741 037b AF29     		.uleb128 .LEHB174-.LFB1056
 3742 037d 05       		.uleb128 .LEHE174-.LEHB174
 3743 037e 00       		.uleb128 0
 3744 037f 00       		.uleb128 0
 3745 0380 C529     		.uleb128 .LEHB175-.LFB1056
 3746 0382 2A       		.uleb128 .LEHE175-.LEHB175
 3747 0383 8D2A     		.uleb128 .L273-.LFB1056
 3748 0385 00       		.uleb128 0
 3749 0386 EF29     		.uleb128 .LEHB176-.LFB1056
 3750 0388 05       		.uleb128 .LEHE176-.LEHB176
 3751 0389 00       		.uleb128 0
 3752 038a 00       		.uleb128 0
 3753 038b 882A     		.uleb128 .LEHB177-.LFB1056
 3754 038d 05       		.uleb128 .LEHE177-.LEHB177
 3755 038e 00       		.uleb128 0
 3756 038f 00       		.uleb128 0
 3757 0390 982A     		.uleb128 .LEHB178-.LFB1056
 3758 0392 05       		.uleb128 .LEHE178-.LEHB178
 3759 0393 00       		.uleb128 0
 3760 0394 00       		.uleb128 0
 3761 0395 A52A     		.uleb128 .LEHB179-.LFB1056
 3762 0397 2A       		.uleb128 .LEHE179-.LEHB179
 3763 0398 992B     		.uleb128 .L271-.LFB1056
 3764 039a 00       		.uleb128 0
 3765 039b CF2A     		.uleb128 .LEHB180-.LFB1056
 3766 039d 05       		.uleb128 .LEHE180-.LEHB180
 3767 039e 00       		.uleb128 0
 3768 039f 00       		.uleb128 0
 3769 03a0 E52A     		.uleb128 .LEHB181-.LFB1056
 3770 03a2 2A       		.uleb128 .LEHE181-.LEHB181
 3771 03a3 AD2B     		.uleb128 .L269-.LFB1056
 3772 03a5 00       		.uleb128 0
 3773 03a6 8F2B     		.uleb128 .LEHB182-.LFB1056
 3774 03a8 05       		.uleb128 .LEHE182-.LEHB182
 3775 03a9 00       		.uleb128 0
 3776 03aa 00       		.uleb128 0
 3777 03ab A82B     		.uleb128 .LEHB183-.LFB1056
 3778 03ad 05       		.uleb128 .LEHE183-.LEHB183
 3779 03ae 00       		.uleb128 0
 3780 03af 00       		.uleb128 0
 3781 03b0 B82B     		.uleb128 .LEHB184-.LFB1056
 3782 03b2 05       		.uleb128 .LEHE184-.LEHB184
 3783 03b3 00       		.uleb128 0
 3784 03b4 00       		.uleb128 0
 3785 03b5 C52B     		.uleb128 .LEHB185-.LFB1056
 3786 03b7 2A       		.uleb128 .LEHE185-.LEHB185
 3787 03b8 B92C     		.uleb128 .L267-.LFB1056
 3788 03ba 00       		.uleb128 0
 3789 03bb EF2B     		.uleb128 .LEHB186-.LFB1056
 3790 03bd 05       		.uleb128 .LEHE186-.LEHB186
 3791 03be 00       		.uleb128 0
 3792 03bf 00       		.uleb128 0
 3793 03c0 852C     		.uleb128 .LEHB187-.LFB1056
 3794 03c2 2A       		.uleb128 .LEHE187-.LEHB187
 3795 03c3 CD2C     		.uleb128 .L265-.LFB1056
 3796 03c5 00       		.uleb128 0
 3797 03c6 AF2C     		.uleb128 .LEHB188-.LFB1056
 3798 03c8 05       		.uleb128 .LEHE188-.LEHB188
 3799 03c9 00       		.uleb128 0
 3800 03ca 00       		.uleb128 0
 3801 03cb C82C     		.uleb128 .LEHB189-.LFB1056
 3802 03cd 05       		.uleb128 .LEHE189-.LEHB189
 3803 03ce 00       		.uleb128 0
 3804 03cf 00       		.uleb128 0
 3805 03d0 D82C     		.uleb128 .LEHB190-.LFB1056
 3806 03d2 05       		.uleb128 .LEHE190-.LEHB190
 3807 03d3 00       		.uleb128 0
 3808 03d4 00       		.uleb128 0
 3809 03d5 E52C     		.uleb128 .LEHB191-.LFB1056
 3810 03d7 2A       		.uleb128 .LEHE191-.LEHB191
 3811 03d8 D92D     		.uleb128 .L263-.LFB1056
 3812 03da 00       		.uleb128 0
 3813 03db 8F2D     		.uleb128 .LEHB192-.LFB1056
 3814 03dd 05       		.uleb128 .LEHE192-.LEHB192
 3815 03de 00       		.uleb128 0
 3816 03df 00       		.uleb128 0
 3817 03e0 A52D     		.uleb128 .LEHB193-.LFB1056
 3818 03e2 2A       		.uleb128 .LEHE193-.LEHB193
 3819 03e3 ED2D     		.uleb128 .L261-.LFB1056
 3820 03e5 00       		.uleb128 0
 3821 03e6 CF2D     		.uleb128 .LEHB194-.LFB1056
 3822 03e8 05       		.uleb128 .LEHE194-.LEHB194
 3823 03e9 00       		.uleb128 0
 3824 03ea 00       		.uleb128 0
 3825 03eb E82D     		.uleb128 .LEHB195-.LFB1056
 3826 03ed 05       		.uleb128 .LEHE195-.LEHB195
 3827 03ee 00       		.uleb128 0
 3828 03ef 00       		.uleb128 0
 3829 03f0 F82D     		.uleb128 .LEHB196-.LFB1056
 3830 03f2 05       		.uleb128 .LEHE196-.LEHB196
 3831 03f3 00       		.uleb128 0
 3832 03f4 00       		.uleb128 0
 3833 03f5 852E     		.uleb128 .LEHB197-.LFB1056
 3834 03f7 2A       		.uleb128 .LEHE197-.LEHB197
 3835 03f8 F92E     		.uleb128 .L259-.LFB1056
 3836 03fa 00       		.uleb128 0
 3837 03fb AF2E     		.uleb128 .LEHB198-.LFB1056
 3838 03fd 05       		.uleb128 .LEHE198-.LEHB198
 3839 03fe 00       		.uleb128 0
 3840 03ff 00       		.uleb128 0
 3841 0400 C52E     		.uleb128 .LEHB199-.LFB1056
 3842 0402 2A       		.uleb128 .LEHE199-.LEHB199
 3843 0403 8D2F     		.uleb128 .L257-.LFB1056
 3844 0405 00       		.uleb128 0
 3845 0406 EF2E     		.uleb128 .LEHB200-.LFB1056
 3846 0408 05       		.uleb128 .LEHE200-.LEHB200
 3847 0409 00       		.uleb128 0
 3848 040a 00       		.uleb128 0
 3849 040b 882F     		.uleb128 .LEHB201-.LFB1056
 3850 040d 05       		.uleb128 .LEHE201-.LEHB201
 3851 040e 00       		.uleb128 0
 3852 040f 00       		.uleb128 0
 3853 0410 982F     		.uleb128 .LEHB202-.LFB1056
 3854 0412 05       		.uleb128 .LEHE202-.LEHB202
 3855 0413 00       		.uleb128 0
 3856 0414 00       		.uleb128 0
 3857 0415 A52F     		.uleb128 .LEHB203-.LFB1056
 3858 0417 2A       		.uleb128 .LEHE203-.LEHB203
 3859 0418 9930     		.uleb128 .L255-.LFB1056
 3860 041a 00       		.uleb128 0
 3861 041b CF2F     		.uleb128 .LEHB204-.LFB1056
 3862 041d 05       		.uleb128 .LEHE204-.LEHB204
 3863 041e 00       		.uleb128 0
 3864 041f 00       		.uleb128 0
 3865 0420 E52F     		.uleb128 .LEHB205-.LFB1056
 3866 0422 2A       		.uleb128 .LEHE205-.LEHB205
 3867 0423 AD30     		.uleb128 .L253-.LFB1056
 3868 0425 00       		.uleb128 0
 3869 0426 8F30     		.uleb128 .LEHB206-.LFB1056
 3870 0428 05       		.uleb128 .LEHE206-.LEHB206
 3871 0429 00       		.uleb128 0
 3872 042a 00       		.uleb128 0
 3873 042b A830     		.uleb128 .LEHB207-.LFB1056
 3874 042d 05       		.uleb128 .LEHE207-.LEHB207
 3875 042e 00       		.uleb128 0
 3876 042f 00       		.uleb128 0
 3877 0430 B830     		.uleb128 .LEHB208-.LFB1056
 3878 0432 05       		.uleb128 .LEHE208-.LEHB208
 3879 0433 00       		.uleb128 0
 3880 0434 00       		.uleb128 0
 3881 0435 C530     		.uleb128 .LEHB209-.LFB1056
 3882 0437 2A       		.uleb128 .LEHE209-.LEHB209
 3883 0438 B931     		.uleb128 .L251-.LFB1056
 3884 043a 00       		.uleb128 0
 3885 043b EF30     		.uleb128 .LEHB210-.LFB1056
 3886 043d 05       		.uleb128 .LEHE210-.LEHB210
 3887 043e 00       		.uleb128 0
 3888 043f 00       		.uleb128 0
 3889 0440 8531     		.uleb128 .LEHB211-.LFB1056
 3890 0442 2A       		.uleb128 .LEHE211-.LEHB211
 3891 0443 CD31     		.uleb128 .L249-.LFB1056
 3892 0445 00       		.uleb128 0
 3893 0446 AF31     		.uleb128 .LEHB212-.LFB1056
 3894 0448 05       		.uleb128 .LEHE212-.LEHB212
 3895 0449 00       		.uleb128 0
 3896 044a 00       		.uleb128 0
 3897 044b C831     		.uleb128 .LEHB213-.LFB1056
 3898 044d 05       		.uleb128 .LEHE213-.LEHB213
 3899 044e 00       		.uleb128 0
 3900 044f 00       		.uleb128 0
 3901 0450 D831     		.uleb128 .LEHB214-.LFB1056
 3902 0452 05       		.uleb128 .LEHE214-.LEHB214
 3903 0453 00       		.uleb128 0
 3904 0454 00       		.uleb128 0
 3905              	.LLSDACSE1056:
 3906 0455 01       		.byte	0x1
 3907 0456 00       		.byte	0
 3908 0457 00       		.align 4
 3909 0458 00000000 		.long	0
 3910              	
 3911              	.LLSDATT1056:
 3912              		.text
 3914              		.section	.rodata.str1.1
 3915              	.LC20:
 3916 0014 303000   		.string	"00"
 3917              	.LC21:
 3918 0017 413500   		.string	"A5"
 3919              	.LC22:
 3920 001a 464600   		.string	"FF"
 3921              	.LC23:
 3922 001d 474600   		.string	"GF"
 3923              	.LC24:
 3924 0020 464700   		.string	"FG"
 3925              		.section	.rodata.str1.8
 3926 0369 00000000 		.align 8
 3926      000000
 3927              	.LC25:
 3928 0370 556E6861 		.string	"Unhandled exception in CHECK_EQUAL(0x00, byte)"
 3928      6E646C65 
 3928      64206578 
 3928      63657074 
 3928      696F6E20 
 3929 039f 00       		.align 8
 3930              	.LC26:
 3931 03a0 556E6861 		.string	"Unhandled exception in CHECK_EQUAL(0xA5, byte)"
 3931      6E646C65 
 3931      64206578 
 3931      63657074 
 3931      696F6E20 
 3932 03cf 00       		.align 8
 3933              	.LC27:
 3934 03d0 556E6861 		.string	"Unhandled exception in CHECK_EQUAL(0xFF, byte)"
 3934      6E646C65 
 3934      64206578 
 3934      63657074 
 3934      696F6E20 
 3935              		.text
 3936 18dd 90       		.align 2
 3937 18de 6690     		.p2align 4,,15
 3938              		.globl	_ZNK23TestConv_testGetHexByte7RunImplEv
 3940              	_ZNK23TestConv_testGetHexByte7RunImplEv:
 3941              	.LFB1060:
 3942              		.cfi_startproc
 3943              		.cfi_personality 0x3,__gxx_personality_v0
 3944              		.cfi_lsda 0x3,.LLSDA1060
 3945 18e0 53       		pushq	%rbx
 3946              		.cfi_def_cfa_offset 16
 3947              		.cfi_offset 3, -16
 3948 18e1 BF000000 		movl	$.LC20, %edi
 3948      00
 3949 18e6 4883EC50 		subq	$80, %rsp
 3950              		.cfi_def_cfa_offset 96
 3951 18ea 4889E6   		movq	%rsp, %rsi
 3952              	.LEHB215:
 3953 18ed E8000000 		call	getHexByte
 3953      00
 3954              	.LEHE215:
 3955 18f2 88442410 		movb	%al, 16(%rsp)
 3956              	.LEHB216:
 3957 18f6 E8000000 		call	_ZN8UnitTest11CurrentTest7DetailsEv
 3957      00
 3958 18fb 488D5C24 		leaq	48(%rsp), %rbx
 3958      30
 3959 1900 488B30   		movq	(%rax), %rsi
 3960 1903 BA610000 		movl	$97, %edx
 3960      00
 3961 1908 4889DF   		movq	%rbx, %rdi
 3962 190b E8000000 		call	_ZN8UnitTest11TestDetailsC1ERKS0_i
 3962      00
 3963 1910 C6442420 		movb	$0, 32(%rsp)
 3963      00
 3964 1915 E8000000 		call	_ZN8UnitTest11CurrentTest7ResultsEv
 3964      00
 3965 191a 488B38   		movq	(%rax), %rdi
 3966 191d 488D5424 		leaq	16(%rsp), %rdx
 3966      10
 3967 1922 488D7424 		leaq	32(%rsp), %rsi
 3967      20
 3968 1927 4889D9   		movq	%rbx, %rcx
 3969 192a E8000000 		call	_ZN8UnitTest10CheckEqualIbbEEvRNS_11TestResultsERKT_RKT0_RKNS_11TestDetailsE
 3969      00
 3970              	.LEHE216:
 3971              	.L340:
 3972              	.LEHB217:
 3973 192f E8000000 		call	_ZN8UnitTest11CurrentTest7DetailsEv
 3973      00
 3974 1934 488B30   		movq	(%rax), %rsi
 3975 1937 BA620000 		movl	$98, %edx
 3975      00
 3976 193c 4889DF   		movq	%rbx, %rdi
 3977 193f E8000000 		call	_ZN8UnitTest11TestDetailsC1ERKS0_i
 3977      00
 3978 1944 C7442420 		movl	$0, 32(%rsp)
 3978      00000000 
 3979 194c E8000000 		call	_ZN8UnitTest11CurrentTest7ResultsEv
 3979      00
 3980 1951 488B38   		movq	(%rax), %rdi
 3981 1954 488D7424 		leaq	32(%rsp), %rsi
 3981      20
 3982 1959 4889D9   		movq	%rbx, %rcx
 3983 195c 4889E2   		movq	%rsp, %rdx
 3984 195f E8000000 		call	_ZN8UnitTest10CheckEqualIihEEvRNS_11TestResultsERKT_RKT0_RKNS_11TestDetailsE
 3984      00
 3985              	.LEHE217:
 3986              	.L343:
 3987 1964 4889E6   		movq	%rsp, %rsi
 3988 1967 BF000000 		movl	$.LC21, %edi
 3988      00
 3989              	.LEHB218:
 3990 196c E8000000 		call	getHexByte
 3990      00
 3991              	.LEHE218:
 3992 1971 88442410 		movb	%al, 16(%rsp)
 3993              	.LEHB219:
 3994 1975 E8000000 		call	_ZN8UnitTest11CurrentTest7DetailsEv
 3994      00
 3995 197a 488B30   		movq	(%rax), %rsi
 3996 197d BA640000 		movl	$100, %edx
 3996      00
 3997 1982 4889DF   		movq	%rbx, %rdi
 3998 1985 E8000000 		call	_ZN8UnitTest11TestDetailsC1ERKS0_i
 3998      00
 3999 198a C6442420 		movb	$0, 32(%rsp)
 3999      00
 4000 198f E8000000 		call	_ZN8UnitTest11CurrentTest7ResultsEv
 4000      00
 4001 1994 488B38   		movq	(%rax), %rdi
 4002 1997 488D5424 		leaq	16(%rsp), %rdx
 4002      10
 4003 199c 488D7424 		leaq	32(%rsp), %rsi
 4003      20
 4004 19a1 4889D9   		movq	%rbx, %rcx
 4005 19a4 E8000000 		call	_ZN8UnitTest10CheckEqualIbbEEvRNS_11TestResultsERKT_RKT0_RKNS_11TestDetailsE
 4005      00
 4006              	.LEHE219:
 4007              	.L346:
 4008              	.LEHB220:
 4009 19a9 E8000000 		call	_ZN8UnitTest11CurrentTest7DetailsEv
 4009      00
 4010 19ae 488B30   		movq	(%rax), %rsi
 4011 19b1 BA650000 		movl	$101, %edx
 4011      00
 4012 19b6 4889DF   		movq	%rbx, %rdi
 4013 19b9 E8000000 		call	_ZN8UnitTest11TestDetailsC1ERKS0_i
 4013      00
 4014 19be C7442420 		movl	$165, 32(%rsp)
 4014      A5000000 
 4015 19c6 E8000000 		call	_ZN8UnitTest11CurrentTest7ResultsEv
 4015      00
 4016 19cb 488B38   		movq	(%rax), %rdi
 4017 19ce 488D7424 		leaq	32(%rsp), %rsi
 4017      20
 4018 19d3 4889D9   		movq	%rbx, %rcx
 4019 19d6 4889E2   		movq	%rsp, %rdx
 4020 19d9 E8000000 		call	_ZN8UnitTest10CheckEqualIihEEvRNS_11TestResultsERKT_RKT0_RKNS_11TestDetailsE
 4020      00
 4021              	.LEHE220:
 4022              	.L349:
 4023 19de 4889E6   		movq	%rsp, %rsi
 4024 19e1 BF000000 		movl	$.LC22, %edi
 4024      00
 4025              	.LEHB221:
 4026 19e6 E8000000 		call	getHexByte
 4026      00
 4027              	.LEHE221:
 4028 19eb 88442410 		movb	%al, 16(%rsp)
 4029              	.LEHB222:
 4030 19ef E8000000 		call	_ZN8UnitTest11CurrentTest7DetailsEv
 4030      00
 4031 19f4 488B30   		movq	(%rax), %rsi
 4032 19f7 BA670000 		movl	$103, %edx
 4032      00
 4033 19fc 4889DF   		movq	%rbx, %rdi
 4034 19ff E8000000 		call	_ZN8UnitTest11TestDetailsC1ERKS0_i
 4034      00
 4035 1a04 C6442420 		movb	$0, 32(%rsp)
 4035      00
 4036 1a09 E8000000 		call	_ZN8UnitTest11CurrentTest7ResultsEv
 4036      00
 4037 1a0e 488B38   		movq	(%rax), %rdi
 4038 1a11 488D5424 		leaq	16(%rsp), %rdx
 4038      10
 4039 1a16 488D7424 		leaq	32(%rsp), %rsi
 4039      20
 4040 1a1b 4889D9   		movq	%rbx, %rcx
 4041 1a1e E8000000 		call	_ZN8UnitTest10CheckEqualIbbEEvRNS_11TestResultsERKT_RKT0_RKNS_11TestDetailsE
 4041      00
 4042              	.LEHE222:
 4043              	.L352:
 4044              	.LEHB223:
 4045 1a23 E8000000 		call	_ZN8UnitTest11CurrentTest7DetailsEv
 4045      00
 4046 1a28 488B30   		movq	(%rax), %rsi
 4047 1a2b BA680000 		movl	$104, %edx
 4047      00
 4048 1a30 4889DF   		movq	%rbx, %rdi
 4049 1a33 E8000000 		call	_ZN8UnitTest11TestDetailsC1ERKS0_i
 4049      00
 4050 1a38 C7442420 		movl	$255, 32(%rsp)
 4050      FF000000 
 4051 1a40 E8000000 		call	_ZN8UnitTest11CurrentTest7ResultsEv
 4051      00
 4052 1a45 488B38   		movq	(%rax), %rdi
 4053 1a48 488D7424 		leaq	32(%rsp), %rsi
 4053      20
 4054 1a4d 4889D9   		movq	%rbx, %rcx
 4055 1a50 4889E2   		movq	%rsp, %rdx
 4056 1a53 E8000000 		call	_ZN8UnitTest10CheckEqualIihEEvRNS_11TestResultsERKT_RKT0_RKNS_11TestDetailsE
 4056      00
 4057              	.LEHE223:
 4058              	.L355:
 4059 1a58 4889E6   		movq	%rsp, %rsi
 4060 1a5b BF000000 		movl	$.LC23, %edi
 4060      00
 4061              	.LEHB224:
 4062 1a60 E8000000 		call	getHexByte
 4062      00
 4063              	.LEHE224:
 4064 1a65 88442410 		movb	%al, 16(%rsp)
 4065              	.LEHB225:
 4066 1a69 E8000000 		call	_ZN8UnitTest11CurrentTest7DetailsEv
 4066      00
 4067 1a6e 488B30   		movq	(%rax), %rsi
 4068 1a71 BA6A0000 		movl	$106, %edx
 4068      00
 4069 1a76 4889DF   		movq	%rbx, %rdi
 4070 1a79 E8000000 		call	_ZN8UnitTest11TestDetailsC1ERKS0_i
 4070      00
 4071 1a7e C6442420 		movb	$1, 32(%rsp)
 4071      01
 4072 1a83 E8000000 		call	_ZN8UnitTest11CurrentTest7ResultsEv
 4072      00
 4073 1a88 488B38   		movq	(%rax), %rdi
 4074 1a8b 488D5424 		leaq	16(%rsp), %rdx
 4074      10
 4075 1a90 488D7424 		leaq	32(%rsp), %rsi
 4075      20
 4076 1a95 4889D9   		movq	%rbx, %rcx
 4077 1a98 E8000000 		call	_ZN8UnitTest10CheckEqualIbbEEvRNS_11TestResultsERKT_RKT0_RKNS_11TestDetailsE
 4077      00
 4078              	.LEHE225:
 4079              	.L358:
 4080 1a9d 4889E6   		movq	%rsp, %rsi
 4081 1aa0 BF000000 		movl	$.LC24, %edi
 4081      00
 4082              	.LEHB226:
 4083 1aa5 E8000000 		call	getHexByte
 4083      00
 4084              	.LEHE226:
 4085 1aaa 88442410 		movb	%al, 16(%rsp)
 4086              	.LEHB227:
 4087 1aae E8000000 		call	_ZN8UnitTest11CurrentTest7DetailsEv
 4087      00
 4088 1ab3 488B30   		movq	(%rax), %rsi
 4089 1ab6 BA6C0000 		movl	$108, %edx
 4089      00
 4090 1abb 4889DF   		movq	%rbx, %rdi
 4091 1abe E8000000 		call	_ZN8UnitTest11TestDetailsC1ERKS0_i
 4091      00
 4092 1ac3 C6442420 		movb	$1, 32(%rsp)
 4092      01
 4093 1ac8 E8000000 		call	_ZN8UnitTest11CurrentTest7ResultsEv
 4093      00
 4094 1acd 488B38   		movq	(%rax), %rdi
 4095 1ad0 488D5424 		leaq	16(%rsp), %rdx
 4095      10
 4096 1ad5 488D7424 		leaq	32(%rsp), %rsi
 4096      20
 4097 1ada 4889D9   		movq	%rbx, %rcx
 4098 1add E8000000 		call	_ZN8UnitTest10CheckEqualIbbEEvRNS_11TestResultsERKT_RKT0_RKNS_11TestDetailsE
 4098      00
 4099              	.LEHE227:
 4100              	.L337:
 4101 1ae2 4883C450 		addq	$80, %rsp
 4102              		.cfi_remember_state
 4103              		.cfi_def_cfa_offset 16
 4104 1ae6 5B       		popq	%rbx
 4105              		.cfi_def_cfa_offset 8
 4106 1ae7 C3       		ret
 4107              	.L362:
 4108              		.cfi_restore_state
 4109 1ae8 4889C7   		movq	%rax, %rdi
 4110 1aeb E8000000 		call	__cxa_begin_catch
 4110      00
 4111              	.LEHB228:
 4112 1af0 E8000000 		call	_ZN8UnitTest11CurrentTest7DetailsEv
 4112      00
 4113 1af5 488D5C24 		leaq	48(%rsp), %rbx
 4113      30
 4114 1afa 488B30   		movq	(%rax), %rsi
 4115 1afd BA610000 		movl	$97, %edx
 4115      00
 4116 1b02 4889DF   		movq	%rbx, %rdi
 4117 1b05 E8000000 		call	_ZN8UnitTest11TestDetailsC1ERKS0_i
 4117      00
 4118 1b0a E8000000 		call	_ZN8UnitTest11CurrentTest7ResultsEv
 4118      00
 4119 1b0f 488B38   		movq	(%rax), %rdi
 4120 1b12 BA000000 		movl	$.LC2, %edx
 4120      00
 4121 1b17 4889DE   		movq	%rbx, %rsi
 4122 1b1a E8000000 		call	_ZN8UnitTest11TestResults13OnTestFailureERKNS_11TestDetailsEPKc
 4122      00
 4123              	.LEHE228:
 4124              	.LEHB229:
 4125 1b1f E8000000 		call	__cxa_end_catch
 4125      00
 4126              	.LEHE229:
 4127 1b24 E906FEFF 		jmp	.L340
 4127      FF
 4128              	.L376:
 4129 1b29 4889C7   		movq	%rax, %rdi
 4130 1b2c 0F1F4000 		.p2align 4,,5
 4131 1b30 E8000000 		call	__cxa_begin_catch
 4131      00
 4132              		.p2align 4,,5
 4133              	.LEHB230:
 4134 1b35 E8000000 		call	_ZN8UnitTest11CurrentTest7DetailsEv
 4134      00
 4135 1b3a 488B30   		movq	(%rax), %rsi
 4136 1b3d BA6C0000 		movl	$108, %edx
 4136      00
 4137 1b42 4889DF   		movq	%rbx, %rdi
 4138 1b45 E8000000 		call	_ZN8UnitTest11TestDetailsC1ERKS0_i
 4138      00
 4139 1b4a E8000000 		call	_ZN8UnitTest11CurrentTest7ResultsEv
 4139      00
 4140 1b4f 488B38   		movq	(%rax), %rdi
 4141 1b52 BA000000 		movl	$.LC19, %edx
 4141      00
 4142 1b57 4889DE   		movq	%rbx, %rsi
 4143 1b5a E8000000 		call	_ZN8UnitTest11TestResults13OnTestFailureERKNS_11TestDetailsEPKc
 4143      00
 4144              	.LEHE230:
 4145              	.LEHB231:
 4146 1b5f E8000000 		call	__cxa_end_catch
 4146      00
 4147              	.LEHE231:
 4148 1b64 E979FFFF 		jmp	.L337
 4148      FF
 4149              	.L363:
 4150 1b69 4889C3   		movq	%rax, %rbx
 4151 1b6c 0F1F4000 		.p2align 4,,5
 4152 1b70 E8000000 		call	__cxa_end_catch
 4152      00
 4153 1b75 4889DF   		movq	%rbx, %rdi
 4154              	.LEHB232:
 4155 1b78 E8000000 		call	_Unwind_Resume
 4155      00
 4156              	.LEHE232:
 4157              	.L377:
 4158 1b7d 4889C3   		movq	%rax, %rbx
 4159 1b80 E8000000 		call	__cxa_end_catch
 4159      00
 4160 1b85 4889DF   		movq	%rbx, %rdi
 4161              	.LEHB233:
 4162 1b88 E8000000 		call	_Unwind_Resume
 4162      00
 4163              	.LEHE233:
 4164              	.L374:
 4165 1b8d 4889C7   		movq	%rax, %rdi
 4166 1b90 E8000000 		call	__cxa_begin_catch
 4166      00
 4167              	.LEHB234:
 4168 1b95 E8000000 		call	_ZN8UnitTest11CurrentTest7DetailsEv
 4168      00
 4169 1b9a 488B30   		movq	(%rax), %rsi
 4170 1b9d BA6A0000 		movl	$106, %edx
 4170      00
 4171 1ba2 4889DF   		movq	%rbx, %rdi
 4172 1ba5 E8000000 		call	_ZN8UnitTest11TestDetailsC1ERKS0_i
 4172      00
 4173 1baa E8000000 		call	_ZN8UnitTest11CurrentTest7ResultsEv
 4173      00
 4174 1baf 488B38   		movq	(%rax), %rdi
 4175 1bb2 BA000000 		movl	$.LC19, %edx
 4175      00
 4176 1bb7 4889DE   		movq	%rbx, %rsi
 4177 1bba E8000000 		call	_ZN8UnitTest11TestResults13OnTestFailureERKNS_11TestDetailsEPKc
 4177      00
 4178              	.LEHE234:
 4179              	.LEHB235:
 4180 1bbf E8000000 		call	__cxa_end_catch
 4180      00
 4181              	.LEHE235:
 4182 1bc4 E9D4FEFF 		jmp	.L358
 4182      FF
 4183              	.L372:
 4184 1bc9 4889C7   		movq	%rax, %rdi
 4185 1bcc 0F1F4000 		.p2align 4,,5
 4186 1bd0 E8000000 		call	__cxa_begin_catch
 4186      00
 4187              		.p2align 4,,5
 4188              	.LEHB236:
 4189 1bd5 E8000000 		call	_ZN8UnitTest11CurrentTest7DetailsEv
 4189      00
 4190 1bda 488B30   		movq	(%rax), %rsi
 4191 1bdd BA680000 		movl	$104, %edx
 4191      00
 4192 1be2 4889DF   		movq	%rbx, %rdi
 4193 1be5 E8000000 		call	_ZN8UnitTest11TestDetailsC1ERKS0_i
 4193      00
 4194 1bea E8000000 		call	_ZN8UnitTest11CurrentTest7ResultsEv
 4194      00
 4195 1bef 488B38   		movq	(%rax), %rdi
 4196 1bf2 BA000000 		movl	$.LC27, %edx
 4196      00
 4197 1bf7 4889DE   		movq	%rbx, %rsi
 4198 1bfa E8000000 		call	_ZN8UnitTest11TestResults13OnTestFailureERKNS_11TestDetailsEPKc
 4198      00
 4199              	.LEHE236:
 4200              	.LEHB237:
 4201 1bff E8000000 		call	__cxa_end_catch
 4201      00
 4202              	.LEHE237:
 4203 1c04 E94FFEFF 		jmp	.L355
 4203      FF
 4204              	.L375:
 4205 1c09 4889C3   		movq	%rax, %rbx
 4206 1c0c 0F1F4000 		.p2align 4,,5
 4207 1c10 E8000000 		call	__cxa_end_catch
 4207      00
 4208 1c15 4889DF   		movq	%rbx, %rdi
 4209              	.LEHB238:
 4210 1c18 E8000000 		call	_Unwind_Resume
 4210      00
 4211              	.LEHE238:
 4212              	.L373:
 4213 1c1d 4889C3   		movq	%rax, %rbx
 4214 1c20 E8000000 		call	__cxa_end_catch
 4214      00
 4215 1c25 4889DF   		movq	%rbx, %rdi
 4216              	.LEHB239:
 4217 1c28 E8000000 		call	_Unwind_Resume
 4217      00
 4218              	.LEHE239:
 4219              	.L370:
 4220 1c2d 4889C7   		movq	%rax, %rdi
 4221 1c30 E8000000 		call	__cxa_begin_catch
 4221      00
 4222              	.LEHB240:
 4223 1c35 E8000000 		call	_ZN8UnitTest11CurrentTest7DetailsEv
 4223      00
 4224 1c3a 488B30   		movq	(%rax), %rsi
 4225 1c3d BA670000 		movl	$103, %edx
 4225      00
 4226 1c42 4889DF   		movq	%rbx, %rdi
 4227 1c45 E8000000 		call	_ZN8UnitTest11TestDetailsC1ERKS0_i
 4227      00
 4228 1c4a E8000000 		call	_ZN8UnitTest11CurrentTest7ResultsEv
 4228      00
 4229 1c4f 488B38   		movq	(%rax), %rdi
 4230 1c52 BA000000 		movl	$.LC2, %edx
 4230      00
 4231 1c57 4889DE   		movq	%rbx, %rsi
 4232 1c5a E8000000 		call	_ZN8UnitTest11TestResults13OnTestFailureERKNS_11TestDetailsEPKc
 4232      00
 4233              	.LEHE240:
 4234              	.LEHB241:
 4235 1c5f E8000000 		call	__cxa_end_catch
 4235      00
 4236              	.LEHE241:
 4237 1c64 E9BAFDFF 		jmp	.L352
 4237      FF
 4238              	.L368:
 4239 1c69 4889C7   		movq	%rax, %rdi
 4240 1c6c 0F1F4000 		.p2align 4,,5
 4241 1c70 E8000000 		call	__cxa_begin_catch
 4241      00
 4242              		.p2align 4,,5
 4243              	.LEHB242:
 4244 1c75 E8000000 		call	_ZN8UnitTest11CurrentTest7DetailsEv
 4244      00
 4245 1c7a 488B30   		movq	(%rax), %rsi
 4246 1c7d BA650000 		movl	$101, %edx
 4246      00
 4247 1c82 4889DF   		movq	%rbx, %rdi
 4248 1c85 E8000000 		call	_ZN8UnitTest11TestDetailsC1ERKS0_i
 4248      00
 4249 1c8a E8000000 		call	_ZN8UnitTest11CurrentTest7ResultsEv
 4249      00
 4250 1c8f 488B38   		movq	(%rax), %rdi
 4251 1c92 BA000000 		movl	$.LC26, %edx
 4251      00
 4252 1c97 4889DE   		movq	%rbx, %rsi
 4253 1c9a E8000000 		call	_ZN8UnitTest11TestResults13OnTestFailureERKNS_11TestDetailsEPKc
 4253      00
 4254              	.LEHE242:
 4255              	.LEHB243:
 4256 1c9f E8000000 		call	__cxa_end_catch
 4256      00
 4257              	.LEHE243:
 4258 1ca4 E935FDFF 		jmp	.L349
 4258      FF
 4259              	.L371:
 4260 1ca9 4889C3   		movq	%rax, %rbx
 4261 1cac 0F1F4000 		.p2align 4,,5
 4262 1cb0 E8000000 		call	__cxa_end_catch
 4262      00
 4263 1cb5 4889DF   		movq	%rbx, %rdi
 4264              	.LEHB244:
 4265 1cb8 E8000000 		call	_Unwind_Resume
 4265      00
 4266              	.LEHE244:
 4267              	.L369:
 4268 1cbd 4889C3   		movq	%rax, %rbx
 4269 1cc0 E8000000 		call	__cxa_end_catch
 4269      00
 4270 1cc5 4889DF   		movq	%rbx, %rdi
 4271              	.LEHB245:
 4272 1cc8 E8000000 		call	_Unwind_Resume
 4272      00
 4273              	.LEHE245:
 4274              	.L366:
 4275 1ccd 4889C7   		movq	%rax, %rdi
 4276 1cd0 E8000000 		call	__cxa_begin_catch
 4276      00
 4277              	.LEHB246:
 4278 1cd5 E8000000 		call	_ZN8UnitTest11CurrentTest7DetailsEv
 4278      00
 4279 1cda 488B30   		movq	(%rax), %rsi
 4280 1cdd BA640000 		movl	$100, %edx
 4280      00
 4281 1ce2 4889DF   		movq	%rbx, %rdi
 4282 1ce5 E8000000 		call	_ZN8UnitTest11TestDetailsC1ERKS0_i
 4282      00
 4283 1cea E8000000 		call	_ZN8UnitTest11CurrentTest7ResultsEv
 4283      00
 4284 1cef 488B38   		movq	(%rax), %rdi
 4285 1cf2 BA000000 		movl	$.LC2, %edx
 4285      00
 4286 1cf7 4889DE   		movq	%rbx, %rsi
 4287 1cfa E8000000 		call	_ZN8UnitTest11TestResults13OnTestFailureERKNS_11TestDetailsEPKc
 4287      00
 4288              	.LEHE246:
 4289              	.LEHB247:
 4290 1cff E8000000 		call	__cxa_end_catch
 4290      00
 4291              	.LEHE247:
 4292 1d04 E9A0FCFF 		jmp	.L346
 4292      FF
 4293              	.L364:
 4294 1d09 4889C7   		movq	%rax, %rdi
 4295 1d0c 0F1F4000 		.p2align 4,,5
 4296 1d10 E8000000 		call	__cxa_begin_catch
 4296      00
 4297              		.p2align 4,,5
 4298              	.LEHB248:
 4299 1d15 E8000000 		call	_ZN8UnitTest11CurrentTest7DetailsEv
 4299      00
 4300 1d1a 488B30   		movq	(%rax), %rsi
 4301 1d1d BA620000 		movl	$98, %edx
 4301      00
 4302 1d22 4889DF   		movq	%rbx, %rdi
 4303 1d25 E8000000 		call	_ZN8UnitTest11TestDetailsC1ERKS0_i
 4303      00
 4304 1d2a E8000000 		call	_ZN8UnitTest11CurrentTest7ResultsEv
 4304      00
 4305 1d2f 488B38   		movq	(%rax), %rdi
 4306 1d32 BA000000 		movl	$.LC25, %edx
 4306      00
 4307 1d37 4889DE   		movq	%rbx, %rsi
 4308 1d3a E8000000 		call	_ZN8UnitTest11TestResults13OnTestFailureERKNS_11TestDetailsEPKc
 4308      00
 4309              	.LEHE248:
 4310              	.LEHB249:
 4311 1d3f E8000000 		call	__cxa_end_catch
 4311      00
 4312              	.LEHE249:
 4313 1d44 E91BFCFF 		jmp	.L343
 4313      FF
 4314              	.L367:
 4315 1d49 4889C3   		movq	%rax, %rbx
 4316 1d4c 0F1F4000 		.p2align 4,,5
 4317 1d50 E8000000 		call	__cxa_end_catch
 4317      00
 4318 1d55 4889DF   		movq	%rbx, %rdi
 4319              	.LEHB250:
 4320 1d58 E8000000 		call	_Unwind_Resume
 4320      00
 4321              	.LEHE250:
 4322              	.L365:
 4323 1d5d 4889C3   		movq	%rax, %rbx
 4324 1d60 E8000000 		call	__cxa_end_catch
 4324      00
 4325 1d65 4889DF   		movq	%rbx, %rdi
 4326              	.LEHB251:
 4327 1d68 E8000000 		call	_Unwind_Resume
 4327      00
 4328              	.LEHE251:
 4329              		.cfi_endproc
 4330              	.LFE1060:
 4331              		.section	.gcc_except_table
 4332              		.align 4
 4333              	.LLSDA1060:
 4334 045c FF       		.byte	0xff
 4335 045d 03       		.byte	0x3
 4336 045e D001     		.uleb128 .LLSDATT1060-.LLSDATTD1060
 4337              	.LLSDATTD1060:
 4338 0460 01       		.byte	0x1
 4339 0461 C601     		.uleb128 .LLSDACSE1060-.LLSDACSB1060
 4340              	.LLSDACSB1060:
 4341 0463 0D       		.uleb128 .LEHB215-.LFB1060
 4342 0464 05       		.uleb128 .LEHE215-.LEHB215
 4343 0465 00       		.uleb128 0
 4344 0466 00       		.uleb128 0
 4345 0467 16       		.uleb128 .LEHB216-.LFB1060
 4346 0468 39       		.uleb128 .LEHE216-.LEHB216
 4347 0469 8804     		.uleb128 .L362-.LFB1060
 4348 046b 01       		.uleb128 0x1
 4349 046c 4F       		.uleb128 .LEHB217-.LFB1060
 4350 046d 35       		.uleb128 .LEHE217-.LEHB217
 4351 046e A908     		.uleb128 .L364-.LFB1060
 4352 0470 01       		.uleb128 0x1
 4353 0471 8C01     		.uleb128 .LEHB218-.LFB1060
 4354 0473 05       		.uleb128 .LEHE218-.LEHB218
 4355 0474 00       		.uleb128 0
 4356 0475 00       		.uleb128 0
 4357 0476 9501     		.uleb128 .LEHB219-.LFB1060
 4358 0478 34       		.uleb128 .LEHE219-.LEHB219
 4359 0479 ED07     		.uleb128 .L366-.LFB1060
 4360 047b 01       		.uleb128 0x1
 4361 047c C901     		.uleb128 .LEHB220-.LFB1060
 4362 047e 35       		.uleb128 .LEHE220-.LEHB220
 4363 047f 8907     		.uleb128 .L368-.LFB1060
 4364 0481 01       		.uleb128 0x1
 4365 0482 8602     		.uleb128 .LEHB221-.LFB1060
 4366 0484 05       		.uleb128 .LEHE221-.LEHB221
 4367 0485 00       		.uleb128 0
 4368 0486 00       		.uleb128 0
 4369 0487 8F02     		.uleb128 .LEHB222-.LFB1060
 4370 0489 34       		.uleb128 .LEHE222-.LEHB222
 4371 048a CD06     		.uleb128 .L370-.LFB1060
 4372 048c 01       		.uleb128 0x1
 4373 048d C302     		.uleb128 .LEHB223-.LFB1060
 4374 048f 35       		.uleb128 .LEHE223-.LEHB223
 4375 0490 E905     		.uleb128 .L372-.LFB1060
 4376 0492 01       		.uleb128 0x1
 4377 0493 8003     		.uleb128 .LEHB224-.LFB1060
 4378 0495 05       		.uleb128 .LEHE224-.LEHB224
 4379 0496 00       		.uleb128 0
 4380 0497 00       		.uleb128 0
 4381 0498 8903     		.uleb128 .LEHB225-.LFB1060
 4382 049a 34       		.uleb128 .LEHE225-.LEHB225
 4383 049b AD05     		.uleb128 .L374-.LFB1060
 4384 049d 01       		.uleb128 0x1
 4385 049e C503     		.uleb128 .LEHB226-.LFB1060
 4386 04a0 05       		.uleb128 .LEHE226-.LEHB226
 4387 04a1 00       		.uleb128 0
 4388 04a2 00       		.uleb128 0
 4389 04a3 CE03     		.uleb128 .LEHB227-.LFB1060
 4390 04a5 34       		.uleb128 .LEHE227-.LEHB227
 4391 04a6 C904     		.uleb128 .L376-.LFB1060
 4392 04a8 01       		.uleb128 0x1
 4393 04a9 9004     		.uleb128 .LEHB228-.LFB1060
 4394 04ab 2F       		.uleb128 .LEHE228-.LEHB228
 4395 04ac 8905     		.uleb128 .L363-.LFB1060
 4396 04ae 00       		.uleb128 0
 4397 04af BF04     		.uleb128 .LEHB229-.LFB1060
 4398 04b1 05       		.uleb128 .LEHE229-.LEHB229
 4399 04b2 00       		.uleb128 0
 4400 04b3 00       		.uleb128 0
 4401 04b4 D504     		.uleb128 .LEHB230-.LFB1060
 4402 04b6 2A       		.uleb128 .LEHE230-.LEHB230
 4403 04b7 9D05     		.uleb128 .L377-.LFB1060
 4404 04b9 00       		.uleb128 0
 4405 04ba FF04     		.uleb128 .LEHB231-.LFB1060
 4406 04bc 05       		.uleb128 .LEHE231-.LEHB231
 4407 04bd 00       		.uleb128 0
 4408 04be 00       		.uleb128 0
 4409 04bf 9805     		.uleb128 .LEHB232-.LFB1060
 4410 04c1 05       		.uleb128 .LEHE232-.LEHB232
 4411 04c2 00       		.uleb128 0
 4412 04c3 00       		.uleb128 0
 4413 04c4 A805     		.uleb128 .LEHB233-.LFB1060
 4414 04c6 05       		.uleb128 .LEHE233-.LEHB233
 4415 04c7 00       		.uleb128 0
 4416 04c8 00       		.uleb128 0
 4417 04c9 B505     		.uleb128 .LEHB234-.LFB1060
 4418 04cb 2A       		.uleb128 .LEHE234-.LEHB234
 4419 04cc A906     		.uleb128 .L375-.LFB1060
 4420 04ce 00       		.uleb128 0
 4421 04cf DF05     		.uleb128 .LEHB235-.LFB1060
 4422 04d1 05       		.uleb128 .LEHE235-.LEHB235
 4423 04d2 00       		.uleb128 0
 4424 04d3 00       		.uleb128 0
 4425 04d4 F505     		.uleb128 .LEHB236-.LFB1060
 4426 04d6 2A       		.uleb128 .LEHE236-.LEHB236
 4427 04d7 BD06     		.uleb128 .L373-.LFB1060
 4428 04d9 00       		.uleb128 0
 4429 04da 9F06     		.uleb128 .LEHB237-.LFB1060
 4430 04dc 05       		.uleb128 .LEHE237-.LEHB237
 4431 04dd 00       		.uleb128 0
 4432 04de 00       		.uleb128 0
 4433 04df B806     		.uleb128 .LEHB238-.LFB1060
 4434 04e1 05       		.uleb128 .LEHE238-.LEHB238
 4435 04e2 00       		.uleb128 0
 4436 04e3 00       		.uleb128 0
 4437 04e4 C806     		.uleb128 .LEHB239-.LFB1060
 4438 04e6 05       		.uleb128 .LEHE239-.LEHB239
 4439 04e7 00       		.uleb128 0
 4440 04e8 00       		.uleb128 0
 4441 04e9 D506     		.uleb128 .LEHB240-.LFB1060
 4442 04eb 2A       		.uleb128 .LEHE240-.LEHB240
 4443 04ec C907     		.uleb128 .L371-.LFB1060
 4444 04ee 00       		.uleb128 0
 4445 04ef FF06     		.uleb128 .LEHB241-.LFB1060
 4446 04f1 05       		.uleb128 .LEHE241-.LEHB241
 4447 04f2 00       		.uleb128 0
 4448 04f3 00       		.uleb128 0
 4449 04f4 9507     		.uleb128 .LEHB242-.LFB1060
 4450 04f6 2A       		.uleb128 .LEHE242-.LEHB242
 4451 04f7 DD07     		.uleb128 .L369-.LFB1060
 4452 04f9 00       		.uleb128 0
 4453 04fa BF07     		.uleb128 .LEHB243-.LFB1060
 4454 04fc 05       		.uleb128 .LEHE243-.LEHB243
 4455 04fd 00       		.uleb128 0
 4456 04fe 00       		.uleb128 0
 4457 04ff D807     		.uleb128 .LEHB244-.LFB1060
 4458 0501 05       		.uleb128 .LEHE244-.LEHB244
 4459 0502 00       		.uleb128 0
 4460 0503 00       		.uleb128 0
 4461 0504 E807     		.uleb128 .LEHB245-.LFB1060
 4462 0506 05       		.uleb128 .LEHE245-.LEHB245
 4463 0507 00       		.uleb128 0
 4464 0508 00       		.uleb128 0
 4465 0509 F507     		.uleb128 .LEHB246-.LFB1060
 4466 050b 2A       		.uleb128 .LEHE246-.LEHB246
 4467 050c E908     		.uleb128 .L367-.LFB1060
 4468 050e 00       		.uleb128 0
 4469 050f 9F08     		.uleb128 .LEHB247-.LFB1060
 4470 0511 05       		.uleb128 .LEHE247-.LEHB247
 4471 0512 00       		.uleb128 0
 4472 0513 00       		.uleb128 0
 4473 0514 B508     		.uleb128 .LEHB248-.LFB1060
 4474 0516 2A       		.uleb128 .LEHE248-.LEHB248
 4475 0517 FD08     		.uleb128 .L365-.LFB1060
 4476 0519 00       		.uleb128 0
 4477 051a DF08     		.uleb128 .LEHB249-.LFB1060
 4478 051c 05       		.uleb128 .LEHE249-.LEHB249
 4479 051d 00       		.uleb128 0
 4480 051e 00       		.uleb128 0
 4481 051f F808     		.uleb128 .LEHB250-.LFB1060
 4482 0521 05       		.uleb128 .LEHE250-.LEHB250
 4483 0522 00       		.uleb128 0
 4484 0523 00       		.uleb128 0
 4485 0524 8809     		.uleb128 .LEHB251-.LFB1060
 4486 0526 05       		.uleb128 .LEHE251-.LEHB251
 4487 0527 00       		.uleb128 0
 4488 0528 00       		.uleb128 0
 4489              	.LLSDACSE1060:
 4490 0529 01       		.byte	0x1
 4491 052a 00       		.byte	0
 4492 052b 00       		.align 4
 4493 052c 00000000 		.long	0
 4494              	
 4495              	.LLSDATT1060:
 4496              		.text
 4498              		.section	.text._ZN8UnitTest10CheckEqualIccEEvRNS_11TestResultsERKT_RKT0_RKNS_11TestDetailsE,"axG",
 4499              		.p2align 4,,15
 4500              		.weak	_ZN8UnitTest10CheckEqualIccEEvRNS_11TestResultsERKT_RKT0_RKNS_11TestDetailsE
 4502              	_ZN8UnitTest10CheckEqualIccEEvRNS_11TestResultsERKT_RKT0_RKNS_11TestDetailsE:
 4503              	.LFB1102:
 4504              		.cfi_startproc
 4505              		.cfi_personality 0x3,__gxx_personality_v0
 4506              		.cfi_lsda 0x3,.LLSDA1102
 4507 0000 4156     		pushq	%r14
 4508              		.cfi_def_cfa_offset 16
 4509              		.cfi_offset 14, -16
 4510 0002 4155     		pushq	%r13
 4511              		.cfi_def_cfa_offset 24
 4512              		.cfi_offset 13, -24
 4513 0004 4154     		pushq	%r12
 4514              		.cfi_def_cfa_offset 32
 4515              		.cfi_offset 12, -32
 4516 0006 55       		pushq	%rbp
 4517              		.cfi_def_cfa_offset 40
 4518              		.cfi_offset 6, -40
 4519 0007 4889D5   		movq	%rdx, %rbp
 4520 000a 53       		pushq	%rbx
 4521              		.cfi_def_cfa_offset 48
 4522              		.cfi_offset 3, -48
 4523 000b 4889F3   		movq	%rsi, %rbx
 4524 000e 4881EC90 		subq	$400, %rsp
 4524      010000
 4525              		.cfi_def_cfa_offset 448
 4526 0015 0FB602   		movzbl	(%rdx), %eax
 4527 0018 3806     		cmpb	%al, (%rsi)
 4528 001a 0F842F02 		je	.L379
 4528      0000
 4529 0020 4C8DA424 		leaq	128(%rsp), %r12
 4529      80000000 
 4530 0028 4989FD   		movq	%rdi, %r13
 4531 002b 4989CE   		movq	%rcx, %r14
 4532 002e 4C89E7   		movq	%r12, %rdi
 4533 0031 E8000000 		call	_ZNSt8ios_baseC2Ev
 4533      00
 4534 0036 31F6     		xorl	%esi, %esi
 4535 0038 4C89E7   		movq	%r12, %rdi
 4536 003b 48C78424 		movq	$0, 344(%rsp)
 4536      58010000 
 4536      00000000 
 4537 0047 C6842460 		movb	$0, 352(%rsp)
 4537      01000000 
 4538 004f C6842461 		movb	$0, 353(%rsp)
 4538      01000000 
 4539 0057 48C78424 		movq	$0, 360(%rsp)
 4539      68010000 
 4539      00000000 
 4540 0063 48C78424 		movq	$0, 368(%rsp)
 4540      70010000 
 4540      00000000 
 4541 006f 48C78424 		movq	$0, 376(%rsp)
 4541      78010000 
 4541      00000000 
 4542 007b 48C78424 		movq	$0, 384(%rsp)
 4542      80010000 
 4542      00000000 
 4543 0087 48C74424 		movq	$_ZTCN8UnitTest15MemoryOutStreamE0_So+24, 32(%rsp)
 4543      20000000 
 4543      00
 4544 0090 48C78424 		movq	$_ZTCN8UnitTest15MemoryOutStreamE0_So+64, 128(%rsp)
 4544      80000000 
 4544      00000000 
 4545              	.LEHB252:
 4546 009c E8000000 		call	_ZNSt9basic_iosIcSt11char_traitsIcEE4initEPSt15basic_streambufIcS1_E
 4546      00
 4547              	.LEHE252:
 4548 00a1 488D7C24 		leaq	96(%rsp), %rdi
 4548      60
 4549 00a6 48C74424 		movq	$_ZTCN8UnitTest15MemoryOutStreamE0_St19basic_ostringstreamIcSt11char_traitsIcESaIcEE+24, 32(%
 4549      20000000 
 4549      00
 4550 00af 48C78424 		movq	$_ZTCN8UnitTest15MemoryOutStreamE0_St19basic_ostringstreamIcSt11char_traitsIcESaIcEE+64, 128(
 4550      80000000 
 4550      00000000 
 4551 00bb 48C74424 		movq	$_ZTVSt15basic_streambufIcSt11char_traitsIcEE+16, 40(%rsp)
 4551      28000000 
 4551      00
 4552 00c4 48C74424 		movq	$0, 48(%rsp)
 4552      30000000 
 4552      00
 4553 00cd 48C74424 		movq	$0, 56(%rsp)
 4553      38000000 
 4553      00
 4554 00d6 48C74424 		movq	$0, 64(%rsp)
 4554      40000000 
 4554      00
 4555 00df 48C74424 		movq	$0, 72(%rsp)
 4555      48000000 
 4555      00
 4556 00e8 48C74424 		movq	$0, 80(%rsp)
 4556      50000000 
 4556      00
 4557 00f1 48C74424 		movq	$0, 88(%rsp)
 4557      58000000 
 4557      00
 4558 00fa E8000000 		call	_ZNSt6localeC1Ev
 4558      00
 4559 00ff 488B4424 		movq	32(%rsp), %rax
 4559      20
 4560 0104 488D7C24 		leaq	32(%rsp), %rdi
 4560      20
 4561 0109 488D7424 		leaq	40(%rsp), %rsi
 4561      28
 4562 010e 48C74424 		movq	$_ZTVSt15basic_stringbufIcSt11char_traitsIcESaIcEE+16, 40(%rsp)
 4562      28000000 
 4562      00
 4563 0117 C7442468 		movl	$16, 104(%rsp)
 4563      10000000 
 4564 011f 48C74424 		movq	$_ZNSs4_Rep20_S_empty_rep_storageE+24, 112(%rsp)
 4564      70000000 
 4564      00
 4565 0128 480378E8 		addq	-24(%rax), %rdi
 4566              	.LEHB253:
 4567 012c E8000000 		call	_ZNSt9basic_iosIcSt11char_traitsIcEE4initEPSt15basic_streambufIcS1_E
 4567      00
 4568              	.LEHE253:
 4569 0131 488D7C24 		leaq	32(%rsp), %rdi
 4569      20
 4570 0136 BA090000 		movl	$9, %edx
 4570      00
 4571 013b BE000000 		movl	$.LC0, %esi
 4571      00
 4572 0140 48C74424 		movq	$_ZTVN8UnitTest15MemoryOutStreamE+24, 32(%rsp)
 4572      20000000 
 4572      00
 4573 0149 48C78424 		movq	$_ZTVN8UnitTest15MemoryOutStreamE+64, 128(%rsp)
 4573      80000000 
 4573      00000000 
 4574 0155 48C74424 		movq	$_ZNSs4_Rep20_S_empty_rep_storageE+24, 120(%rsp)
 4574      78000000 
 4574      00
 4575 015e 0FB66D00 		movzbl	0(%rbp), %ebp
 4576 0162 0FB61B   		movzbl	(%rbx), %ebx
 4577              	.LEHB254:
 4578 0165 E8000000 		call	_ZSt16__ostream_insertIcSt11char_traitsIcEERSt13basic_ostreamIT_T0_ES6_PKS3_l
 4578      00
 4579 016a 488D7C24 		leaq	32(%rsp), %rdi
 4579      20
 4580 016f BA010000 		movl	$1, %edx
 4580      00
 4581 0174 4889E6   		movq	%rsp, %rsi
 4582 0177 881C24   		movb	%bl, (%rsp)
 4583 017a E8000000 		call	_ZSt16__ostream_insertIcSt11char_traitsIcEERSt13basic_ostreamIT_T0_ES6_PKS3_l
 4583      00
 4584 017f BA090000 		movl	$9, %edx
 4584      00
 4585 0184 BE000000 		movl	$.LC1, %esi
 4585      00
 4586 0189 4889C7   		movq	%rax, %rdi
 4587 018c 4889C3   		movq	%rax, %rbx
 4588 018f E8000000 		call	_ZSt16__ostream_insertIcSt11char_traitsIcEERSt13basic_ostreamIT_T0_ES6_PKS3_l
 4588      00
 4589 0194 488D7424 		leaq	16(%rsp), %rsi
 4589      10
 4590 0199 BA010000 		movl	$1, %edx
 4590      00
 4591 019e 4889DF   		movq	%rbx, %rdi
 4592 01a1 40886C24 		movb	%bpl, 16(%rsp)
 4592      10
 4593 01a6 E8000000 		call	_ZSt16__ostream_insertIcSt11char_traitsIcEERSt13basic_ostreamIT_T0_ES6_PKS3_l
 4593      00
 4594 01ab 488D7C24 		leaq	32(%rsp), %rdi
 4594      20
 4595 01b0 E8000000 		call	_ZNK8UnitTest15MemoryOutStream7GetTextEv
 4595      00
 4596 01b5 4889C2   		movq	%rax, %rdx
 4597 01b8 4C89F6   		movq	%r14, %rsi
 4598 01bb 4C89EF   		movq	%r13, %rdi
 4599 01be E8000000 		call	_ZN8UnitTest11TestResults13OnTestFailureERKNS_11TestDetailsEPKc
 4599      00
 4600              	.LEHE254:
 4601 01c3 488B4424 		movq	120(%rsp), %rax
 4601      78
 4602 01c8 48C74424 		movq	$_ZTVN8UnitTest15MemoryOutStreamE+24, 32(%rsp)
 4602      20000000 
 4602      00
 4603 01d1 48C78424 		movq	$_ZTVN8UnitTest15MemoryOutStreamE+64, 128(%rsp)
 4603      80000000 
 4603      00000000 
 4604 01dd 488D78E8 		leaq	-24(%rax), %rdi
 4605 01e1 4881FF00 		cmpq	$_ZNSs4_Rep20_S_empty_rep_storageE, %rdi
 4605      000000
 4606 01e8 7575     		jne	.L402
 4607              	.L386:
 4608 01ea 488B4424 		movq	112(%rsp), %rax
 4608      70
 4609 01ef 48C74424 		movq	$_ZTCN8UnitTest15MemoryOutStreamE0_St19basic_ostringstreamIcSt11char_traitsIcESaIcEE+24, 32(%
 4609      20000000 
 4609      00
 4610 01f8 48C78424 		movq	$_ZTCN8UnitTest15MemoryOutStreamE0_St19basic_ostringstreamIcSt11char_traitsIcESaIcEE+64, 128(
 4610      80000000 
 4610      00000000 
 4611 0204 48C74424 		movq	$_ZTVSt15basic_stringbufIcSt11char_traitsIcESaIcEE+16, 40(%rsp)
 4611      28000000 
 4611      00
 4612 020d 488D78E8 		leaq	-24(%rax), %rdi
 4613 0211 4881FF00 		cmpq	$_ZNSs4_Rep20_S_empty_rep_storageE, %rdi
 4613      000000
 4614 0218 7575     		jne	.L403
 4615              	.L391:
 4616 021a 488D7C24 		leaq	96(%rsp), %rdi
 4616      60
 4617 021f 48C74424 		movq	$_ZTVSt15basic_streambufIcSt11char_traitsIcEE+16, 40(%rsp)
 4617      28000000 
 4617      00
 4618 0228 E8000000 		call	_ZNSt6localeD1Ev
 4618      00
 4619 022d 488DBC24 		leaq	128(%rsp), %rdi
 4619      80000000 
 4620 0235 48C74424 		movq	$_ZTCN8UnitTest15MemoryOutStreamE0_So+24, 32(%rsp)
 4620      20000000 
 4620      00
 4621 023e 48C78424 		movq	$_ZTVSt9basic_iosIcSt11char_traitsIcEE+16, 128(%rsp)
 4621      80000000 
 4621      00000000 
 4622              	.LEHB255:
 4623 024a E8000000 		call	_ZNSt8ios_baseD2Ev
 4623      00
 4624              	.LEHE255:
 4625              	.L379:
 4626 024f 4881C490 		addq	$400, %rsp
 4626      010000
 4627              		.cfi_remember_state
 4628              		.cfi_def_cfa_offset 48
 4629 0256 5B       		popq	%rbx
 4630              		.cfi_def_cfa_offset 40
 4631 0257 5D       		popq	%rbp
 4632              		.cfi_def_cfa_offset 32
 4633 0258 415C     		popq	%r12
 4634              		.cfi_def_cfa_offset 24
 4635 025a 415D     		popq	%r13
 4636              		.cfi_def_cfa_offset 16
 4637 025c 415E     		popq	%r14
 4638              		.cfi_def_cfa_offset 8
 4639 025e C3       		ret
 4640              	.L402:
 4641              		.cfi_restore_state
 4642 025f B9000000 		movl	$_ZL28__gthrw___pthread_key_createPjPFvPvE, %ecx
 4642      00
 4643 0264 488D5710 		leaq	16(%rdi), %rdx
 4644 0268 4885C9   		testq	%rcx, %rcx
 4645 026b 0F848300 		je	.L387
 4645      0000
 4646 0271 83C8FF   		orl	$-1, %eax
 4647 0274 F00FC102 		lock xaddl	%eax, (%rdx)
 4648              	.L388:
 4649 0278 85C0     		testl	%eax, %eax
 4650 027a 0F8F6AFF 		jg	.L386
 4650      FFFF
 4651 0280 488D7424 		leaq	31(%rsp), %rsi
 4651      1F
 4652 0285 E8000000 		call	_ZNSs4_Rep10_M_destroyERKSaIcE
 4652      00
 4653 028a E95BFFFF 		jmp	.L386
 4653      FF
 4654              	.L403:
 4655 028f B9000000 		movl	$_ZL28__gthrw___pthread_key_createPjPFvPvE, %ecx
 4655      00
 4656 0294 488D5710 		leaq	16(%rdi), %rdx
 4657 0298 4885C9   		testq	%rcx, %rcx
 4658 029b 747F     		je	.L392
 4659 029d 83C8FF   		orl	$-1, %eax
 4660 02a0 F00FC102 		lock xaddl	%eax, (%rdx)
 4661              	.L393:
 4662 02a4 85C0     		testl	%eax, %eax
 4663 02a6 0F8F6EFF 		jg	.L391
 4663      FFFF
 4664 02ac 488D7424 		leaq	31(%rsp), %rsi
 4664      1F
 4665 02b1 E8000000 		call	_ZNSs4_Rep10_M_destroyERKSaIcE
 4665      00
 4666 02b6 E95FFFFF 		jmp	.L391
 4666      FF
 4667              	.L396:
 4668 02bb 488D7C24 		leaq	32(%rsp), %rdi
 4668      20
 4669 02c0 4889C3   		movq	%rax, %rbx
 4670 02c3 E8000000 		call	_ZN8UnitTest15MemoryOutStreamD1Ev
 4670      00
 4671 02c8 4889DF   		movq	%rbx, %rdi
 4672              	.LEHB256:
 4673 02cb E8000000 		call	_Unwind_Resume
 4673      00
 4674              	.LEHE256:
 4675              	.L397:
 4676 02d0 4889C3   		movq	%rax, %rbx
 4677              	.L383:
 4678 02d3 488DBC24 		leaq	128(%rsp), %rdi
 4678      80000000 
 4679 02db 48C78424 		movq	$_ZTVSt9basic_iosIcSt11char_traitsIcEE+16, 128(%rsp)
 4679      80000000 
 4679      00000000 
 4680 02e7 E8000000 		call	_ZNSt8ios_baseD2Ev
 4680      00
 4681 02ec 4889DF   		movq	%rbx, %rdi
 4682              	.LEHB257:
 4683 02ef E8000000 		call	_Unwind_Resume
 4683      00
 4684              	.LEHE257:
 4685              	.L387:
 4686 02f4 8B50F8   		movl	-8(%rax), %edx
 4687 02f7 8D4AFF   		leal	-1(%rdx), %ecx
 4688 02fa 8948F8   		movl	%ecx, -8(%rax)
 4689 02fd 89D0     		movl	%edx, %eax
 4690 02ff E974FFFF 		jmp	.L388
 4690      FF
 4691              	.L398:
 4692 0304 488D7C24 		leaq	40(%rsp), %rdi
 4692      28
 4693 0309 4889C3   		movq	%rax, %rbx
 4694 030c E8000000 		call	_ZNSt15basic_stringbufIcSt11char_traitsIcESaIcEED1Ev
 4694      00
 4695 0311 48C74424 		movq	$_ZTCN8UnitTest15MemoryOutStreamE0_So+24, 32(%rsp)
 4695      20000000 
 4695      00
 4696 031a EBB7     		jmp	.L383
 4697              	.L392:
 4698 031c 8B50F8   		movl	-8(%rax), %edx
 4699 031f 8D4AFF   		leal	-1(%rdx), %ecx
 4700 0322 8948F8   		movl	%ecx, -8(%rax)
 4701 0325 89D0     		movl	%edx, %eax
 4702 0327 E978FFFF 		jmp	.L393
 4702      FF
 4703              		.cfi_endproc
 4704              	.LFE1102:
 4705              		.section	.gcc_except_table
 4706              	.LLSDA1102:
 4707 0530 FF       		.byte	0xff
 4708 0531 FF       		.byte	0xff
 4709 0532 01       		.byte	0x1
 4710 0533 21       		.uleb128 .LLSDACSE1102-.LLSDACSB1102
 4711              	.LLSDACSB1102:
 4712 0534 9C01     		.uleb128 .LEHB252-.LFB1102
 4713 0536 05       		.uleb128 .LEHE252-.LEHB252
 4714 0537 D005     		.uleb128 .L397-.LFB1102
 4715 0539 00       		.uleb128 0
 4716 053a AC02     		.uleb128 .LEHB253-.LFB1102
 4717 053c 05       		.uleb128 .LEHE253-.LEHB253
 4718 053d 8406     		.uleb128 .L398-.LFB1102
 4719 053f 00       		.uleb128 0
 4720 0540 E502     		.uleb128 .LEHB254-.LFB1102
 4721 0542 5E       		.uleb128 .LEHE254-.LEHB254
 4722 0543 BB05     		.uleb128 .L396-.LFB1102
 4723 0545 00       		.uleb128 0
 4724 0546 CA04     		.uleb128 .LEHB255-.LFB1102
 4725 0548 05       		.uleb128 .LEHE255-.LEHB255
 4726 0549 00       		.uleb128 0
 4727 054a 00       		.uleb128 0
 4728 054b CB05     		.uleb128 .LEHB256-.LFB1102
 4729 054d 05       		.uleb128 .LEHE256-.LEHB256
 4730 054e 00       		.uleb128 0
 4731 054f 00       		.uleb128 0
 4732 0550 EF05     		.uleb128 .LEHB257-.LFB1102
 4733 0552 05       		.uleb128 .LEHE257-.LEHB257
 4734 0553 00       		.uleb128 0
 4735 0554 00       		.uleb128 0
 4736              	.LLSDACSE1102:
 4737              		.section	.text._ZN8UnitTest10CheckEqualIccEEvRNS_11TestResultsERKT_RKT0_RKNS_11TestDetailsE,"axG",
 4739              		.section	.rodata.str1.8
 4740 03ff 00       		.align 8
 4741              	.LC28:
 4742 0400 556E6861 		.string	"Unhandled exception in CHECK_EQUAL('0', getHexUpperNibble(0x0F))"
 4742      6E646C65 
 4742      64206578 
 4742      63657074 
 4742      696F6E20 
 4743 0441 00000000 		.align 8
 4743      000000
 4744              	.LC29:
 4745 0448 556E6861 		.string	"Unhandled exception in CHECK_EQUAL('1', getHexUpperNibble(0x1F))"
 4745      6E646C65 
 4745      64206578 
 4745      63657074 
 4745      696F6E20 
 4746 0489 00000000 		.align 8
 4746      000000
 4747              	.LC30:
 4748 0490 556E6861 		.string	"Unhandled exception in CHECK_EQUAL('2', getHexUpperNibble(0x2F))"
 4748      6E646C65 
 4748      64206578 
 4748      63657074 
 4748      696F6E20 
 4749 04d1 00000000 		.align 8
 4749      000000
 4750              	.LC31:
 4751 04d8 556E6861 		.string	"Unhandled exception in CHECK_EQUAL('3', getHexUpperNibble(0x3F))"
 4751      6E646C65 
 4751      64206578 
 4751      63657074 
 4751      696F6E20 
 4752 0519 00000000 		.align 8
 4752      000000
 4753              	.LC32:
 4754 0520 556E6861 		.string	"Unhandled exception in CHECK_EQUAL('4', getHexUpperNibble(0x4F))"
 4754      6E646C65 
 4754      64206578 
 4754      63657074 
 4754      696F6E20 
 4755 0561 00000000 		.align 8
 4755      000000
 4756              	.LC33:
 4757 0568 556E6861 		.string	"Unhandled exception in CHECK_EQUAL('5', getHexUpperNibble(0x5F))"
 4757      6E646C65 
 4757      64206578 
 4757      63657074 
 4757      696F6E20 
 4758 05a9 00000000 		.align 8
 4758      000000
 4759              	.LC34:
 4760 05b0 556E6861 		.string	"Unhandled exception in CHECK_EQUAL('6', getHexUpperNibble(0x6F))"
 4760      6E646C65 
 4760      64206578 
 4760      63657074 
 4760      696F6E20 
 4761 05f1 00000000 		.align 8
 4761      000000
 4762              	.LC35:
 4763 05f8 556E6861 		.string	"Unhandled exception in CHECK_EQUAL('7', getHexUpperNibble(0x7F))"
 4763      6E646C65 
 4763      64206578 
 4763      63657074 
 4763      696F6E20 
 4764 0639 00000000 		.align 8
 4764      000000
 4765              	.LC36:
 4766 0640 556E6861 		.string	"Unhandled exception in CHECK_EQUAL('8', getHexUpperNibble(0x8F))"
 4766      6E646C65 
 4766      64206578 
 4766      63657074 
 4766      696F6E20 
 4767 0681 00000000 		.align 8
 4767      000000
 4768              	.LC37:
 4769 0688 556E6861 		.string	"Unhandled exception in CHECK_EQUAL('9', getHexUpperNibble(0x9F))"
 4769      6E646C65 
 4769      64206578 
 4769      63657074 
 4769      696F6E20 
 4770 06c9 00000000 		.align 8
 4770      000000
 4771              	.LC38:
 4772 06d0 556E6861 		.string	"Unhandled exception in CHECK_EQUAL('A', getHexUpperNibble(0xAF))"
 4772      6E646C65 
 4772      64206578 
 4772      63657074 
 4772      696F6E20 
 4773 0711 00000000 		.align 8
 4773      000000
 4774              	.LC39:
 4775 0718 556E6861 		.string	"Unhandled exception in CHECK_EQUAL('B', getHexUpperNibble(0xBF))"
 4775      6E646C65 
 4775      64206578 
 4775      63657074 
 4775      696F6E20 
 4776 0759 00000000 		.align 8
 4776      000000
 4777              	.LC40:
 4778 0760 556E6861 		.string	"Unhandled exception in CHECK_EQUAL('C', getHexUpperNibble(0xCF))"
 4778      6E646C65 
 4778      64206578 
 4778      63657074 
 4778      696F6E20 
 4779 07a1 00000000 		.align 8
 4779      000000
 4780              	.LC41:
 4781 07a8 556E6861 		.string	"Unhandled exception in CHECK_EQUAL('D', getHexUpperNibble(0xDF))"
 4781      6E646C65 
 4781      64206578 
 4781      63657074 
 4781      696F6E20 
 4782 07e9 00000000 		.align 8
 4782      000000
 4783              	.LC42:
 4784 07f0 556E6861 		.string	"Unhandled exception in CHECK_EQUAL('E', getHexUpperNibble(0xEF))"
 4784      6E646C65 
 4784      64206578 
 4784      63657074 
 4784      696F6E20 
 4785 0831 00000000 		.align 8
 4785      000000
 4786              	.LC43:
 4787 0838 556E6861 		.string	"Unhandled exception in CHECK_EQUAL('F', getHexUpperNibble(0xFF))"
 4787      6E646C65 
 4787      64206578 
 4787      63657074 
 4787      696F6E20 
 4788              		.text
 4789 1d6d 90       		.align 2
 4790 1d6e 6690     		.p2align 4,,15
 4791              		.globl	_ZNK30TestConv_testGetHexUpperNibble7RunImplEv
 4793              	_ZNK30TestConv_testGetHexUpperNibble7RunImplEv:
 4794              	.LFB1064:
 4795              		.cfi_startproc
 4796              		.cfi_personality 0x3,__gxx_personality_v0
 4797              		.cfi_lsda 0x3,.LLSDA1064
 4798 1d70 53       		pushq	%rbx
 4799              		.cfi_def_cfa_offset 16
 4800              		.cfi_offset 3, -16
 4801 1d71 4883EC40 		subq	$64, %rsp
 4802              		.cfi_def_cfa_offset 80
 4803              	.LEHB258:
 4804 1d75 E8000000 		call	_ZN8UnitTest11CurrentTest7DetailsEv
 4804      00
 4805 1d7a 488D5C24 		leaq	32(%rsp), %rbx
 4805      20
 4806 1d7f 488B30   		movq	(%rax), %rsi
 4807 1d82 BA700000 		movl	$112, %edx
 4807      00
 4808 1d87 4889DF   		movq	%rbx, %rdi
 4809 1d8a E8000000 		call	_ZN8UnitTest11TestDetailsC1ERKS0_i
 4809      00
 4810 1d8f BF0F0000 		movl	$15, %edi
 4810      00
 4811 1d94 E8000000 		call	getHexUpperNibble
 4811      00
 4812 1d99 88442410 		movb	%al, 16(%rsp)
 4813 1d9d C6042430 		movb	$48, (%rsp)
 4814 1da1 E8000000 		call	_ZN8UnitTest11CurrentTest7ResultsEv
 4814      00
 4815 1da6 488B38   		movq	(%rax), %rdi
 4816 1da9 488D5424 		leaq	16(%rsp), %rdx
 4816      10
 4817 1dae 4889D9   		movq	%rbx, %rcx
 4818 1db1 4889E6   		movq	%rsp, %rsi
 4819 1db4 E8000000 		call	_ZN8UnitTest10CheckEqualIccEEvRNS_11TestResultsERKT_RKT0_RKNS_11TestDetailsE
 4819      00
 4820              	.LEHE258:
 4821              	.L407:
 4822              	.LEHB259:
 4823 1db9 E8000000 		call	_ZN8UnitTest11CurrentTest7DetailsEv
 4823      00
 4824 1dbe 488B30   		movq	(%rax), %rsi
 4825 1dc1 BA710000 		movl	$113, %edx
 4825      00
 4826 1dc6 4889DF   		movq	%rbx, %rdi
 4827 1dc9 E8000000 		call	_ZN8UnitTest11TestDetailsC1ERKS0_i
 4827      00
 4828 1dce BF1F0000 		movl	$31, %edi
 4828      00
 4829 1dd3 E8000000 		call	getHexUpperNibble
 4829      00
 4830 1dd8 88442410 		movb	%al, 16(%rsp)
 4831 1ddc C6042431 		movb	$49, (%rsp)
 4832 1de0 E8000000 		call	_ZN8UnitTest11CurrentTest7ResultsEv
 4832      00
 4833 1de5 488B38   		movq	(%rax), %rdi
 4834 1de8 488D5424 		leaq	16(%rsp), %rdx
 4834      10
 4835 1ded 4889D9   		movq	%rbx, %rcx
 4836 1df0 4889E6   		movq	%rsp, %rsi
 4837 1df3 E8000000 		call	_ZN8UnitTest10CheckEqualIccEEvRNS_11TestResultsERKT_RKT0_RKNS_11TestDetailsE
 4837      00
 4838              	.LEHE259:
 4839              	.L410:
 4840              	.LEHB260:
 4841 1df8 E8000000 		call	_ZN8UnitTest11CurrentTest7DetailsEv
 4841      00
 4842 1dfd 488B30   		movq	(%rax), %rsi
 4843 1e00 BA720000 		movl	$114, %edx
 4843      00
 4844 1e05 4889DF   		movq	%rbx, %rdi
 4845 1e08 E8000000 		call	_ZN8UnitTest11TestDetailsC1ERKS0_i
 4845      00
 4846 1e0d BF2F0000 		movl	$47, %edi
 4846      00
 4847 1e12 E8000000 		call	getHexUpperNibble
 4847      00
 4848 1e17 88442410 		movb	%al, 16(%rsp)
 4849 1e1b C6042432 		movb	$50, (%rsp)
 4850 1e1f E8000000 		call	_ZN8UnitTest11CurrentTest7ResultsEv
 4850      00
 4851 1e24 488B38   		movq	(%rax), %rdi
 4852 1e27 488D5424 		leaq	16(%rsp), %rdx
 4852      10
 4853 1e2c 4889D9   		movq	%rbx, %rcx
 4854 1e2f 4889E6   		movq	%rsp, %rsi
 4855 1e32 E8000000 		call	_ZN8UnitTest10CheckEqualIccEEvRNS_11TestResultsERKT_RKT0_RKNS_11TestDetailsE
 4855      00
 4856              	.LEHE260:
 4857              	.L413:
 4858              	.LEHB261:
 4859 1e37 E8000000 		call	_ZN8UnitTest11CurrentTest7DetailsEv
 4859      00
 4860 1e3c 488B30   		movq	(%rax), %rsi
 4861 1e3f BA730000 		movl	$115, %edx
 4861      00
 4862 1e44 4889DF   		movq	%rbx, %rdi
 4863 1e47 E8000000 		call	_ZN8UnitTest11TestDetailsC1ERKS0_i
 4863      00
 4864 1e4c BF3F0000 		movl	$63, %edi
 4864      00
 4865 1e51 E8000000 		call	getHexUpperNibble
 4865      00
 4866 1e56 88442410 		movb	%al, 16(%rsp)
 4867 1e5a C6042433 		movb	$51, (%rsp)
 4868 1e5e E8000000 		call	_ZN8UnitTest11CurrentTest7ResultsEv
 4868      00
 4869 1e63 488B38   		movq	(%rax), %rdi
 4870 1e66 488D5424 		leaq	16(%rsp), %rdx
 4870      10
 4871 1e6b 4889D9   		movq	%rbx, %rcx
 4872 1e6e 4889E6   		movq	%rsp, %rsi
 4873 1e71 E8000000 		call	_ZN8UnitTest10CheckEqualIccEEvRNS_11TestResultsERKT_RKT0_RKNS_11TestDetailsE
 4873      00
 4874              	.LEHE261:
 4875              	.L416:
 4876              	.LEHB262:
 4877 1e76 E8000000 		call	_ZN8UnitTest11CurrentTest7DetailsEv
 4877      00
 4878 1e7b 488B30   		movq	(%rax), %rsi
 4879 1e7e BA740000 		movl	$116, %edx
 4879      00
 4880 1e83 4889DF   		movq	%rbx, %rdi
 4881 1e86 E8000000 		call	_ZN8UnitTest11TestDetailsC1ERKS0_i
 4881      00
 4882 1e8b BF4F0000 		movl	$79, %edi
 4882      00
 4883 1e90 E8000000 		call	getHexUpperNibble
 4883      00
 4884 1e95 88442410 		movb	%al, 16(%rsp)
 4885 1e99 C6042434 		movb	$52, (%rsp)
 4886 1e9d E8000000 		call	_ZN8UnitTest11CurrentTest7ResultsEv
 4886      00
 4887 1ea2 488B38   		movq	(%rax), %rdi
 4888 1ea5 488D5424 		leaq	16(%rsp), %rdx
 4888      10
 4889 1eaa 4889D9   		movq	%rbx, %rcx
 4890 1ead 4889E6   		movq	%rsp, %rsi
 4891 1eb0 E8000000 		call	_ZN8UnitTest10CheckEqualIccEEvRNS_11TestResultsERKT_RKT0_RKNS_11TestDetailsE
 4891      00
 4892              	.LEHE262:
 4893              	.L419:
 4894              	.LEHB263:
 4895 1eb5 E8000000 		call	_ZN8UnitTest11CurrentTest7DetailsEv
 4895      00
 4896 1eba 488B30   		movq	(%rax), %rsi
 4897 1ebd BA750000 		movl	$117, %edx
 4897      00
 4898 1ec2 4889DF   		movq	%rbx, %rdi
 4899 1ec5 E8000000 		call	_ZN8UnitTest11TestDetailsC1ERKS0_i
 4899      00
 4900 1eca BF5F0000 		movl	$95, %edi
 4900      00
 4901 1ecf E8000000 		call	getHexUpperNibble
 4901      00
 4902 1ed4 88442410 		movb	%al, 16(%rsp)
 4903 1ed8 C6042435 		movb	$53, (%rsp)
 4904 1edc E8000000 		call	_ZN8UnitTest11CurrentTest7ResultsEv
 4904      00
 4905 1ee1 488B38   		movq	(%rax), %rdi
 4906 1ee4 488D5424 		leaq	16(%rsp), %rdx
 4906      10
 4907 1ee9 4889D9   		movq	%rbx, %rcx
 4908 1eec 4889E6   		movq	%rsp, %rsi
 4909 1eef E8000000 		call	_ZN8UnitTest10CheckEqualIccEEvRNS_11TestResultsERKT_RKT0_RKNS_11TestDetailsE
 4909      00
 4910              	.LEHE263:
 4911              	.L422:
 4912              	.LEHB264:
 4913 1ef4 E8000000 		call	_ZN8UnitTest11CurrentTest7DetailsEv
 4913      00
 4914 1ef9 488B30   		movq	(%rax), %rsi
 4915 1efc BA760000 		movl	$118, %edx
 4915      00
 4916 1f01 4889DF   		movq	%rbx, %rdi
 4917 1f04 E8000000 		call	_ZN8UnitTest11TestDetailsC1ERKS0_i
 4917      00
 4918 1f09 BF6F0000 		movl	$111, %edi
 4918      00
 4919 1f0e E8000000 		call	getHexUpperNibble
 4919      00
 4920 1f13 88442410 		movb	%al, 16(%rsp)
 4921 1f17 C6042436 		movb	$54, (%rsp)
 4922 1f1b E8000000 		call	_ZN8UnitTest11CurrentTest7ResultsEv
 4922      00
 4923 1f20 488B38   		movq	(%rax), %rdi
 4924 1f23 488D5424 		leaq	16(%rsp), %rdx
 4924      10
 4925 1f28 4889D9   		movq	%rbx, %rcx
 4926 1f2b 4889E6   		movq	%rsp, %rsi
 4927 1f2e E8000000 		call	_ZN8UnitTest10CheckEqualIccEEvRNS_11TestResultsERKT_RKT0_RKNS_11TestDetailsE
 4927      00
 4928              	.LEHE264:
 4929              	.L425:
 4930              	.LEHB265:
 4931 1f33 E8000000 		call	_ZN8UnitTest11CurrentTest7DetailsEv
 4931      00
 4932 1f38 488B30   		movq	(%rax), %rsi
 4933 1f3b BA770000 		movl	$119, %edx
 4933      00
 4934 1f40 4889DF   		movq	%rbx, %rdi
 4935 1f43 E8000000 		call	_ZN8UnitTest11TestDetailsC1ERKS0_i
 4935      00
 4936 1f48 BF7F0000 		movl	$127, %edi
 4936      00
 4937 1f4d E8000000 		call	getHexUpperNibble
 4937      00
 4938 1f52 88442410 		movb	%al, 16(%rsp)
 4939 1f56 C6042437 		movb	$55, (%rsp)
 4940 1f5a E8000000 		call	_ZN8UnitTest11CurrentTest7ResultsEv
 4940      00
 4941 1f5f 488B38   		movq	(%rax), %rdi
 4942 1f62 488D5424 		leaq	16(%rsp), %rdx
 4942      10
 4943 1f67 4889D9   		movq	%rbx, %rcx
 4944 1f6a 4889E6   		movq	%rsp, %rsi
 4945 1f6d E8000000 		call	_ZN8UnitTest10CheckEqualIccEEvRNS_11TestResultsERKT_RKT0_RKNS_11TestDetailsE
 4945      00
 4946              	.LEHE265:
 4947              	.L428:
 4948              	.LEHB266:
 4949 1f72 E8000000 		call	_ZN8UnitTest11CurrentTest7DetailsEv
 4949      00
 4950 1f77 488B30   		movq	(%rax), %rsi
 4951 1f7a BA780000 		movl	$120, %edx
 4951      00
 4952 1f7f 4889DF   		movq	%rbx, %rdi
 4953 1f82 E8000000 		call	_ZN8UnitTest11TestDetailsC1ERKS0_i
 4953      00
 4954 1f87 BF8F0000 		movl	$143, %edi
 4954      00
 4955 1f8c E8000000 		call	getHexUpperNibble
 4955      00
 4956 1f91 88442410 		movb	%al, 16(%rsp)
 4957 1f95 C6042438 		movb	$56, (%rsp)
 4958 1f99 E8000000 		call	_ZN8UnitTest11CurrentTest7ResultsEv
 4958      00
 4959 1f9e 488B38   		movq	(%rax), %rdi
 4960 1fa1 488D5424 		leaq	16(%rsp), %rdx
 4960      10
 4961 1fa6 4889D9   		movq	%rbx, %rcx
 4962 1fa9 4889E6   		movq	%rsp, %rsi
 4963 1fac E8000000 		call	_ZN8UnitTest10CheckEqualIccEEvRNS_11TestResultsERKT_RKT0_RKNS_11TestDetailsE
 4963      00
 4964              	.LEHE266:
 4965              	.L431:
 4966              	.LEHB267:
 4967 1fb1 E8000000 		call	_ZN8UnitTest11CurrentTest7DetailsEv
 4967      00
 4968 1fb6 488B30   		movq	(%rax), %rsi
 4969 1fb9 BA790000 		movl	$121, %edx
 4969      00
 4970 1fbe 4889DF   		movq	%rbx, %rdi
 4971 1fc1 E8000000 		call	_ZN8UnitTest11TestDetailsC1ERKS0_i
 4971      00
 4972 1fc6 BF9F0000 		movl	$159, %edi
 4972      00
 4973 1fcb E8000000 		call	getHexUpperNibble
 4973      00
 4974 1fd0 88442410 		movb	%al, 16(%rsp)
 4975 1fd4 C6042439 		movb	$57, (%rsp)
 4976 1fd8 E8000000 		call	_ZN8UnitTest11CurrentTest7ResultsEv
 4976      00
 4977 1fdd 488B38   		movq	(%rax), %rdi
 4978 1fe0 488D5424 		leaq	16(%rsp), %rdx
 4978      10
 4979 1fe5 4889D9   		movq	%rbx, %rcx
 4980 1fe8 4889E6   		movq	%rsp, %rsi
 4981 1feb E8000000 		call	_ZN8UnitTest10CheckEqualIccEEvRNS_11TestResultsERKT_RKT0_RKNS_11TestDetailsE
 4981      00
 4982              	.LEHE267:
 4983              	.L434:
 4984              	.LEHB268:
 4985 1ff0 E8000000 		call	_ZN8UnitTest11CurrentTest7DetailsEv
 4985      00
 4986 1ff5 488B30   		movq	(%rax), %rsi
 4987 1ff8 BA7A0000 		movl	$122, %edx
 4987      00
 4988 1ffd 4889DF   		movq	%rbx, %rdi
 4989 2000 E8000000 		call	_ZN8UnitTest11TestDetailsC1ERKS0_i
 4989      00
 4990 2005 BFAF0000 		movl	$175, %edi
 4990      00
 4991 200a E8000000 		call	getHexUpperNibble
 4991      00
 4992 200f 88442410 		movb	%al, 16(%rsp)
 4993 2013 C6042441 		movb	$65, (%rsp)
 4994 2017 E8000000 		call	_ZN8UnitTest11CurrentTest7ResultsEv
 4994      00
 4995 201c 488B38   		movq	(%rax), %rdi
 4996 201f 488D5424 		leaq	16(%rsp), %rdx
 4996      10
 4997 2024 4889D9   		movq	%rbx, %rcx
 4998 2027 4889E6   		movq	%rsp, %rsi
 4999 202a E8000000 		call	_ZN8UnitTest10CheckEqualIccEEvRNS_11TestResultsERKT_RKT0_RKNS_11TestDetailsE
 4999      00
 5000              	.LEHE268:
 5001              	.L437:
 5002              	.LEHB269:
 5003 202f E8000000 		call	_ZN8UnitTest11CurrentTest7DetailsEv
 5003      00
 5004 2034 488B30   		movq	(%rax), %rsi
 5005 2037 BA7B0000 		movl	$123, %edx
 5005      00
 5006 203c 4889DF   		movq	%rbx, %rdi
 5007 203f E8000000 		call	_ZN8UnitTest11TestDetailsC1ERKS0_i
 5007      00
 5008 2044 BFBF0000 		movl	$191, %edi
 5008      00
 5009 2049 E8000000 		call	getHexUpperNibble
 5009      00
 5010 204e 88442410 		movb	%al, 16(%rsp)
 5011 2052 C6042442 		movb	$66, (%rsp)
 5012 2056 E8000000 		call	_ZN8UnitTest11CurrentTest7ResultsEv
 5012      00
 5013 205b 488B38   		movq	(%rax), %rdi
 5014 205e 488D5424 		leaq	16(%rsp), %rdx
 5014      10
 5015 2063 4889D9   		movq	%rbx, %rcx
 5016 2066 4889E6   		movq	%rsp, %rsi
 5017 2069 E8000000 		call	_ZN8UnitTest10CheckEqualIccEEvRNS_11TestResultsERKT_RKT0_RKNS_11TestDetailsE
 5017      00
 5018              	.LEHE269:
 5019              	.L440:
 5020              	.LEHB270:
 5021 206e E8000000 		call	_ZN8UnitTest11CurrentTest7DetailsEv
 5021      00
 5022 2073 488B30   		movq	(%rax), %rsi
 5023 2076 BA7C0000 		movl	$124, %edx
 5023      00
 5024 207b 4889DF   		movq	%rbx, %rdi
 5025 207e E8000000 		call	_ZN8UnitTest11TestDetailsC1ERKS0_i
 5025      00
 5026 2083 BFCF0000 		movl	$207, %edi
 5026      00
 5027 2088 E8000000 		call	getHexUpperNibble
 5027      00
 5028 208d 88442410 		movb	%al, 16(%rsp)
 5029 2091 C6042443 		movb	$67, (%rsp)
 5030 2095 E8000000 		call	_ZN8UnitTest11CurrentTest7ResultsEv
 5030      00
 5031 209a 488B38   		movq	(%rax), %rdi
 5032 209d 488D5424 		leaq	16(%rsp), %rdx
 5032      10
 5033 20a2 4889D9   		movq	%rbx, %rcx
 5034 20a5 4889E6   		movq	%rsp, %rsi
 5035 20a8 E8000000 		call	_ZN8UnitTest10CheckEqualIccEEvRNS_11TestResultsERKT_RKT0_RKNS_11TestDetailsE
 5035      00
 5036              	.LEHE270:
 5037              	.L443:
 5038              	.LEHB271:
 5039 20ad E8000000 		call	_ZN8UnitTest11CurrentTest7DetailsEv
 5039      00
 5040 20b2 488B30   		movq	(%rax), %rsi
 5041 20b5 BA7D0000 		movl	$125, %edx
 5041      00
 5042 20ba 4889DF   		movq	%rbx, %rdi
 5043 20bd E8000000 		call	_ZN8UnitTest11TestDetailsC1ERKS0_i
 5043      00
 5044 20c2 BFDF0000 		movl	$223, %edi
 5044      00
 5045 20c7 E8000000 		call	getHexUpperNibble
 5045      00
 5046 20cc 88442410 		movb	%al, 16(%rsp)
 5047 20d0 C6042444 		movb	$68, (%rsp)
 5048 20d4 E8000000 		call	_ZN8UnitTest11CurrentTest7ResultsEv
 5048      00
 5049 20d9 488B38   		movq	(%rax), %rdi
 5050 20dc 488D5424 		leaq	16(%rsp), %rdx
 5050      10
 5051 20e1 4889D9   		movq	%rbx, %rcx
 5052 20e4 4889E6   		movq	%rsp, %rsi
 5053 20e7 E8000000 		call	_ZN8UnitTest10CheckEqualIccEEvRNS_11TestResultsERKT_RKT0_RKNS_11TestDetailsE
 5053      00
 5054              	.LEHE271:
 5055              	.L446:
 5056              	.LEHB272:
 5057 20ec E8000000 		call	_ZN8UnitTest11CurrentTest7DetailsEv
 5057      00
 5058 20f1 488B30   		movq	(%rax), %rsi
 5059 20f4 BA7E0000 		movl	$126, %edx
 5059      00
 5060 20f9 4889DF   		movq	%rbx, %rdi
 5061 20fc E8000000 		call	_ZN8UnitTest11TestDetailsC1ERKS0_i
 5061      00
 5062 2101 BFEF0000 		movl	$239, %edi
 5062      00
 5063 2106 E8000000 		call	getHexUpperNibble
 5063      00
 5064 210b 88442410 		movb	%al, 16(%rsp)
 5065 210f C6042445 		movb	$69, (%rsp)
 5066 2113 E8000000 		call	_ZN8UnitTest11CurrentTest7ResultsEv
 5066      00
 5067 2118 488B38   		movq	(%rax), %rdi
 5068 211b 488D5424 		leaq	16(%rsp), %rdx
 5068      10
 5069 2120 4889D9   		movq	%rbx, %rcx
 5070 2123 4889E6   		movq	%rsp, %rsi
 5071 2126 E8000000 		call	_ZN8UnitTest10CheckEqualIccEEvRNS_11TestResultsERKT_RKT0_RKNS_11TestDetailsE
 5071      00
 5072              	.LEHE272:
 5073              	.L449:
 5074              	.LEHB273:
 5075 212b E8000000 		call	_ZN8UnitTest11CurrentTest7DetailsEv
 5075      00
 5076 2130 488B30   		movq	(%rax), %rsi
 5077 2133 BA7F0000 		movl	$127, %edx
 5077      00
 5078 2138 4889DF   		movq	%rbx, %rdi
 5079 213b E8000000 		call	_ZN8UnitTest11TestDetailsC1ERKS0_i
 5079      00
 5080 2140 BFFF0000 		movl	$255, %edi
 5080      00
 5081 2145 E8000000 		call	getHexUpperNibble
 5081      00
 5082 214a 88442410 		movb	%al, 16(%rsp)
 5083 214e C6042446 		movb	$70, (%rsp)
 5084 2152 E8000000 		call	_ZN8UnitTest11CurrentTest7ResultsEv
 5084      00
 5085 2157 488B38   		movq	(%rax), %rdi
 5086 215a 488D5424 		leaq	16(%rsp), %rdx
 5086      10
 5087 215f 4889D9   		movq	%rbx, %rcx
 5088 2162 4889E6   		movq	%rsp, %rsi
 5089 2165 E8000000 		call	_ZN8UnitTest10CheckEqualIccEEvRNS_11TestResultsERKT_RKT0_RKNS_11TestDetailsE
 5089      00
 5090              	.LEHE273:
 5091              	.L404:
 5092 216a 4883C440 		addq	$64, %rsp
 5093              		.cfi_remember_state
 5094              		.cfi_def_cfa_offset 16
 5095 216e 5B       		popq	%rbx
 5096              		.cfi_def_cfa_offset 8
 5097 216f C3       		ret
 5098              	.L453:
 5099              		.cfi_restore_state
 5100 2170 4889C7   		movq	%rax, %rdi
 5101 2173 E8000000 		call	__cxa_begin_catch
 5101      00
 5102              	.LEHB274:
 5103 2178 E8000000 		call	_ZN8UnitTest11CurrentTest7DetailsEv
 5103      00
 5104 217d 488D5C24 		leaq	32(%rsp), %rbx
 5104      20
 5105 2182 488B30   		movq	(%rax), %rsi
 5106 2185 BA700000 		movl	$112, %edx
 5106      00
 5107 218a 4889DF   		movq	%rbx, %rdi
 5108 218d E8000000 		call	_ZN8UnitTest11TestDetailsC1ERKS0_i
 5108      00
 5109 2192 E8000000 		call	_ZN8UnitTest11CurrentTest7ResultsEv
 5109      00
 5110 2197 488B38   		movq	(%rax), %rdi
 5111 219a BA000000 		movl	$.LC28, %edx
 5111      00
 5112 219f 4889DE   		movq	%rbx, %rsi
 5113 21a2 E8000000 		call	_ZN8UnitTest11TestResults13OnTestFailureERKNS_11TestDetailsEPKc
 5113      00
 5114              	.LEHE274:
 5115              	.LEHB275:
 5116 21a7 E8000000 		call	__cxa_end_catch
 5116      00
 5117              	.LEHE275:
 5118 21ac E908FCFF 		jmp	.L407
 5118      FF
 5119              	.L483:
 5120 21b1 4889C7   		movq	%rax, %rdi
 5121              		.p2align 4,,5
 5122 21b4 E8000000 		call	__cxa_begin_catch
 5122      00
 5123              		.p2align 4,,5
 5124              	.LEHB276:
 5125 21b9 E8000000 		call	_ZN8UnitTest11CurrentTest7DetailsEv
 5125      00
 5126 21be 488B30   		movq	(%rax), %rsi
 5127 21c1 BA7F0000 		movl	$127, %edx
 5127      00
 5128 21c6 4889DF   		movq	%rbx, %rdi
 5129 21c9 E8000000 		call	_ZN8UnitTest11TestDetailsC1ERKS0_i
 5129      00
 5130 21ce E8000000 		call	_ZN8UnitTest11CurrentTest7ResultsEv
 5130      00
 5131 21d3 488B38   		movq	(%rax), %rdi
 5132 21d6 BA000000 		movl	$.LC43, %edx
 5132      00
 5133 21db 4889DE   		movq	%rbx, %rsi
 5134 21de E8000000 		call	_ZN8UnitTest11TestResults13OnTestFailureERKNS_11TestDetailsEPKc
 5134      00
 5135              	.LEHE276:
 5136              	.LEHB277:
 5137 21e3 E8000000 		call	__cxa_end_catch
 5137      00
 5138              	.LEHE277:
 5139 21e8 EB80     		jmp	.L404
 5140              	.L454:
 5141 21ea 4889C3   		movq	%rax, %rbx
 5142 21ed 0F1F00   		.p2align 4,,5
 5143 21f0 E8000000 		call	__cxa_end_catch
 5143      00
 5144 21f5 4889DF   		movq	%rbx, %rdi
 5145              	.LEHB278:
 5146 21f8 E8000000 		call	_Unwind_Resume
 5146      00
 5147              	.LEHE278:
 5148              	.L484:
 5149 21fd 4889C3   		movq	%rax, %rbx
 5150 2200 E8000000 		call	__cxa_end_catch
 5150      00
 5151 2205 4889DF   		movq	%rbx, %rdi
 5152              	.LEHB279:
 5153 2208 E8000000 		call	_Unwind_Resume
 5153      00
 5154              	.LEHE279:
 5155              	.L481:
 5156 220d 4889C7   		movq	%rax, %rdi
 5157 2210 E8000000 		call	__cxa_begin_catch
 5157      00
 5158              	.LEHB280:
 5159 2215 E8000000 		call	_ZN8UnitTest11CurrentTest7DetailsEv
 5159      00
 5160 221a 488B30   		movq	(%rax), %rsi
 5161 221d BA7E0000 		movl	$126, %edx
 5161      00
 5162 2222 4889DF   		movq	%rbx, %rdi
 5163 2225 E8000000 		call	_ZN8UnitTest11TestDetailsC1ERKS0_i
 5163      00
 5164 222a E8000000 		call	_ZN8UnitTest11CurrentTest7ResultsEv
 5164      00
 5165 222f 488B38   		movq	(%rax), %rdi
 5166 2232 BA000000 		movl	$.LC42, %edx
 5166      00
 5167 2237 4889DE   		movq	%rbx, %rsi
 5168 223a E8000000 		call	_ZN8UnitTest11TestResults13OnTestFailureERKNS_11TestDetailsEPKc
 5168      00
 5169              	.LEHE280:
 5170              	.LEHB281:
 5171 223f E8000000 		call	__cxa_end_catch
 5171      00
 5172              	.LEHE281:
 5173 2244 E9E2FEFF 		jmp	.L449
 5173      FF
 5174              	.L479:
 5175 2249 4889C7   		movq	%rax, %rdi
 5176 224c 0F1F4000 		.p2align 4,,5
 5177 2250 E8000000 		call	__cxa_begin_catch
 5177      00
 5178              		.p2align 4,,5
 5179              	.LEHB282:
 5180 2255 E8000000 		call	_ZN8UnitTest11CurrentTest7DetailsEv
 5180      00
 5181 225a 488B30   		movq	(%rax), %rsi
 5182 225d BA7D0000 		movl	$125, %edx
 5182      00
 5183 2262 4889DF   		movq	%rbx, %rdi
 5184 2265 E8000000 		call	_ZN8UnitTest11TestDetailsC1ERKS0_i
 5184      00
 5185 226a E8000000 		call	_ZN8UnitTest11CurrentTest7ResultsEv
 5185      00
 5186 226f 488B38   		movq	(%rax), %rdi
 5187 2272 BA000000 		movl	$.LC41, %edx
 5187      00
 5188 2277 4889DE   		movq	%rbx, %rsi
 5189 227a E8000000 		call	_ZN8UnitTest11TestResults13OnTestFailureERKNS_11TestDetailsEPKc
 5189      00
 5190              	.LEHE282:
 5191              	.LEHB283:
 5192 227f E8000000 		call	__cxa_end_catch
 5192      00
 5193              	.LEHE283:
 5194 2284 E963FEFF 		jmp	.L446
 5194      FF
 5195              	.L482:
 5196 2289 4889C3   		movq	%rax, %rbx
 5197 228c 0F1F4000 		.p2align 4,,5
 5198 2290 E8000000 		call	__cxa_end_catch
 5198      00
 5199 2295 4889DF   		movq	%rbx, %rdi
 5200              	.LEHB284:
 5201 2298 E8000000 		call	_Unwind_Resume
