   1              		.file	"testCore.cpp"
   2              		.text
   3              	.Ltext0:
   4              		.local	_ZStL8__ioinit
   5              		.comm	_ZStL8__ioinit,1,1
   6              		.section	.rodata
   7              	.LC0:
   8 0000 44656661 		.string	"DefaultSuite"
   8      756C7453 
   8      75697465 
   8      00
   9              		.section	.text._ZN13UnitTestSuite12GetSuiteNameEv,"axG",@progbits,_ZN13UnitTestSuite12GetSuiteName
  10              		.weak	_ZN13UnitTestSuite12GetSuiteNameEv
  12              	_ZN13UnitTestSuite12GetSuiteNameEv:
  13              	.LFB975:
  14              		.file 1 "/home/pandu/Desktop/DigitalLogicDesign/Lab/03-/makestuff/libs/libutpp/TestSuite.h"
   1:/home/pandu/Desktop/DigitalLogicDesign/Lab/03-/makestuff/libs/libutpp/TestSuite.h **** #ifndef UNITTEST_TESTSUITE_H
   2:/home/pandu/Desktop/DigitalLogicDesign/Lab/03-/makestuff/libs/libutpp/TestSuite.h **** #define UNITTEST_TESTSUITE_H
   3:/home/pandu/Desktop/DigitalLogicDesign/Lab/03-/makestuff/libs/libutpp/TestSuite.h **** 
   4:/home/pandu/Desktop/DigitalLogicDesign/Lab/03-/makestuff/libs/libutpp/TestSuite.h **** namespace UnitTestSuite {
   5:/home/pandu/Desktop/DigitalLogicDesign/Lab/03-/makestuff/libs/libutpp/TestSuite.h **** 
   6:/home/pandu/Desktop/DigitalLogicDesign/Lab/03-/makestuff/libs/libutpp/TestSuite.h ****     inline char const* GetSuiteName ()
   7:/home/pandu/Desktop/DigitalLogicDesign/Lab/03-/makestuff/libs/libutpp/TestSuite.h ****     {
  15              		.loc 1 7 0
  16              		.cfi_startproc
  17 0000 55       		pushq	%rbp
  18              		.cfi_def_cfa_offset 16
  19              		.cfi_offset 6, -16
  20 0001 4889E5   		movq	%rsp, %rbp
  21              		.cfi_def_cfa_register 6
   8:/home/pandu/Desktop/DigitalLogicDesign/Lab/03-/makestuff/libs/libutpp/TestSuite.h ****         return "DefaultSuite";
  22              		.loc 1 8 0
  23 0004 B8000000 		movl	$.LC0, %eax
  23      00
   9:/home/pandu/Desktop/DigitalLogicDesign/Lab/03-/makestuff/libs/libutpp/TestSuite.h ****     }
  24              		.loc 1 9 0
  25 0009 5D       		popq	%rbp
  26              		.cfi_def_cfa 7, 8
  27 000a C3       		ret
  28              		.cfi_endproc
  29              	.LFE975:
  31              		.section	.text._ZN8UnitTest15MemoryOutStreamC1Ev,"axG",@progbits,_ZN8UnitTest15MemoryOutStreamC1Ev
  32              		.align 2
  33              		.weak	_ZN8UnitTest15MemoryOutStreamC1Ev
  35              	_ZN8UnitTest15MemoryOutStreamC1Ev:
  36              	.LFB1011:
  37              		.file 2 "/home/pandu/Desktop/DigitalLogicDesign/Lab/03-/makestuff/libs/libutpp/MemoryOutStream.h"
   1:/home/pandu/Desktop/DigitalLogicDesign/Lab/03-/makestuff/libs/libutpp/MemoryOutStream.h **** #ifndef UNITTEST_MEMORYOUTSTREAM_H
   2:/home/pandu/Desktop/DigitalLogicDesign/Lab/03-/makestuff/libs/libutpp/MemoryOutStream.h **** #define UNITTEST_MEMORYOUTSTREAM_H
   3:/home/pandu/Desktop/DigitalLogicDesign/Lab/03-/makestuff/libs/libutpp/MemoryOutStream.h **** 
   4:/home/pandu/Desktop/DigitalLogicDesign/Lab/03-/makestuff/libs/libutpp/MemoryOutStream.h **** #include "Config.h"
   5:/home/pandu/Desktop/DigitalLogicDesign/Lab/03-/makestuff/libs/libutpp/MemoryOutStream.h **** 
   6:/home/pandu/Desktop/DigitalLogicDesign/Lab/03-/makestuff/libs/libutpp/MemoryOutStream.h **** #ifndef UNITTEST_USE_CUSTOM_STREAMS
   7:/home/pandu/Desktop/DigitalLogicDesign/Lab/03-/makestuff/libs/libutpp/MemoryOutStream.h **** 
   8:/home/pandu/Desktop/DigitalLogicDesign/Lab/03-/makestuff/libs/libutpp/MemoryOutStream.h **** #include <sstream>
   9:/home/pandu/Desktop/DigitalLogicDesign/Lab/03-/makestuff/libs/libutpp/MemoryOutStream.h **** 
  10:/home/pandu/Desktop/DigitalLogicDesign/Lab/03-/makestuff/libs/libutpp/MemoryOutStream.h **** namespace UnitTest
  11:/home/pandu/Desktop/DigitalLogicDesign/Lab/03-/makestuff/libs/libutpp/MemoryOutStream.h **** {
  12:/home/pandu/Desktop/DigitalLogicDesign/Lab/03-/makestuff/libs/libutpp/MemoryOutStream.h **** 
  13:/home/pandu/Desktop/DigitalLogicDesign/Lab/03-/makestuff/libs/libutpp/MemoryOutStream.h **** class MemoryOutStream : public std::ostringstream
  14:/home/pandu/Desktop/DigitalLogicDesign/Lab/03-/makestuff/libs/libutpp/MemoryOutStream.h **** {
  15:/home/pandu/Desktop/DigitalLogicDesign/Lab/03-/makestuff/libs/libutpp/MemoryOutStream.h **** public:
  16:/home/pandu/Desktop/DigitalLogicDesign/Lab/03-/makestuff/libs/libutpp/MemoryOutStream.h ****     MemoryOutStream() {}
  38              		.loc 2 16 0
  39              		.cfi_startproc
  40              		.cfi_personality 0x3,__gxx_personality_v0
  41              		.cfi_lsda 0x3,.LLSDA1011
  42 0000 55       		pushq	%rbp
  43              		.cfi_def_cfa_offset 16
  44              		.cfi_offset 6, -16
  45 0001 4889E5   		movq	%rsp, %rbp
  46              		.cfi_def_cfa_register 6
  47 0004 53       		pushq	%rbx
  48 0005 4883EC18 		subq	$24, %rsp
  49              		.cfi_offset 3, -24
  50 0009 48897DE8 		movq	%rdi, -24(%rbp)
  51              	.LBB2:
  52              		.loc 2 16 0
  53 000d 488B45E8 		movq	-24(%rbp), %rax
  54 0011 4883C060 		addq	$96, %rax
  55 0015 4889C7   		movq	%rax, %rdi
  56              	.LEHB0:
  57 0018 E8000000 		call	_ZNSt9basic_iosIcSt11char_traitsIcEEC2Ev
  57      00
  58              	.LEHE0:
  59 001d B9000000 		movl	$_ZTTN8UnitTest15MemoryOutStreamE+8, %ecx
  59      00
  60 0022 488B45E8 		movq	-24(%rbp), %rax
  61 0026 BA100000 		movl	$16, %edx
  61      00
  62 002b 4889CE   		movq	%rcx, %rsi
  63 002e 4889C7   		movq	%rax, %rdi
  64              	.LEHB1:
  65 0031 E8000000 		call	_ZNSt19basic_ostringstreamIcSt11char_traitsIcESaIcEEC2ESt13_Ios_Openmode
  65      00
  66              	.LEHE1:
  67              		.loc 2 16 0 is_stmt 0 discriminator 6
  68 0036 BA000000 		movl	$_ZTVN8UnitTest15MemoryOutStreamE+24, %edx
  68      00
  69 003b 488B45E8 		movq	-24(%rbp), %rax
  70 003f 488910   		movq	%rdx, (%rax)
  71 0042 BA600000 		movl	$96, %edx
  71      00
  72 0047 488B45E8 		movq	-24(%rbp), %rax
  73 004b 4801C2   		addq	%rax, %rdx
  74 004e B8000000 		movl	$_ZTVN8UnitTest15MemoryOutStreamE+64, %eax
  74      00
  75 0053 488902   		movq	%rax, (%rdx)
  76 0056 488B45E8 		movq	-24(%rbp), %rax
  77 005a 4883C058 		addq	$88, %rax
  78 005e 4889C7   		movq	%rax, %rdi
  79              	.LEHB2:
  80 0061 E8000000 		call	_ZNSsC1Ev
  80      00
  81              	.LEHE2:
  82              	.LBE2:
  83              		.loc 2 16 0
  84 0066 EB37     		jmp	.L8
  85              	.L6:
  86 0068 4889C3   		movq	%rax, %rbx
  87              	.LBB3:
  88 006b BA000000 		movl	$_ZTTN8UnitTest15MemoryOutStreamE+8, %edx
  88      00
  89 0070 488B45E8 		movq	-24(%rbp), %rax
  90 0074 4889D6   		movq	%rdx, %rsi
  91 0077 4889C7   		movq	%rax, %rdi
  92 007a E8000000 		call	_ZNSt19basic_ostringstreamIcSt11char_traitsIcESaIcEED2Ev
  92      00
  93 007f EB03     		jmp	.L5
  94              	.L7:
  95 0081 4889C3   		movq	%rax, %rbx
  96              	.L5:
  97              		.loc 2 16 0 discriminator 19
  98 0084 488B45E8 		movq	-24(%rbp), %rax
  99 0088 4883C060 		addq	$96, %rax
 100 008c 4889C7   		movq	%rax, %rdi
 101 008f E8000000 		call	_ZNSt9basic_iosIcSt11char_traitsIcEED2Ev
 101      00
 102 0094 4889D8   		movq	%rbx, %rax
 103 0097 4889C7   		movq	%rax, %rdi
 104              	.LEHB3:
 105 009a E8000000 		call	_Unwind_Resume
 105      00
 106              	.LEHE3:
 107              	.L8:
 108              	.LBE3:
 109              		.loc 2 16 0
 110 009f 4883C418 		addq	$24, %rsp
 111 00a3 5B       		popq	%rbx
 112 00a4 5D       		popq	%rbp
 113              		.cfi_def_cfa 7, 8
 114 00a5 C3       		ret
 115              		.cfi_endproc
 116              	.LFE1011:
 117              		.globl	__gxx_personality_v0
 118              		.section	.gcc_except_table._ZN8UnitTest15MemoryOutStreamC1Ev,"aG",@progbits,_ZN8UnitTest15MemoryOu
 119              	.LLSDA1011:
 120 0000 FF       		.byte	0xff
 121 0001 FF       		.byte	0xff
 122 0002 01       		.byte	0x1
 123 0003 12       		.uleb128 .LLSDACSE1011-.LLSDACSB1011
 124              	.LLSDACSB1011:
 125 0004 18       		.uleb128 .LEHB0-.LFB1011
 126 0005 05       		.uleb128 .LEHE0-.LEHB0
 127 0006 00       		.uleb128 0
 128 0007 00       		.uleb128 0
 129 0008 31       		.uleb128 .LEHB1-.LFB1011
 130 0009 05       		.uleb128 .LEHE1-.LEHB1
 131 000a 8101     		.uleb128 .L7-.LFB1011
 132 000c 00       		.uleb128 0
 133 000d 61       		.uleb128 .LEHB2-.LFB1011
 134 000e 05       		.uleb128 .LEHE2-.LEHB2
 135 000f 68       		.uleb128 .L6-.LFB1011
 136 0010 00       		.uleb128 0
 137 0011 9A01     		.uleb128 .LEHB3-.LFB1011
 138 0013 05       		.uleb128 .LEHE3-.LEHB3
 139 0014 00       		.uleb128 0
 140 0015 00       		.uleb128 0
 141              	.LLSDACSE1011:
 142              		.section	.text._ZN8UnitTest15MemoryOutStreamC1Ev,"axG",@progbits,_ZN8UnitTest15MemoryOutStreamC1Ev
 144              		.data
 145              		.align 4
 148              	_ZL7m_count:
 149 0000 01000000 		.long	1
 150              		.local	_ZL11m_allocFree
 151              		.comm	_ZL11m_allocFree,4,4
 152              		.text
 153              		.globl	createInt
 155              	createInt:
 156              	.LFB1028:
 157              		.file 3 "testCore.cpp"
   1:testCore.cpp  **** /*
   2:testCore.cpp  ****  * Copyright (C) 2009-2012 Chris McClelland
   3:testCore.cpp  ****  *
   4:testCore.cpp  ****  * This program is free software: you can redistribute it and/or modify
   5:testCore.cpp  ****  * it under the terms of the GNU Lesser General Public License as published by
   6:testCore.cpp  ****  * the Free Software Foundation, either version 3 of the License, or
   7:testCore.cpp  ****  * (at your option) any later version.
   8:testCore.cpp  ****  *
   9:testCore.cpp  ****  * This program is distributed in the hope that it will be useful,
  10:testCore.cpp  ****  * but WITHOUT ANY WARRANTY; without even the implied warranty of
  11:testCore.cpp  ****  * MERCHANTABILITY or FITNESS FOR A PARTICULAR PURPOSE.  See the
  12:testCore.cpp  ****  * GNU Lesser General Public License for more details.
  13:testCore.cpp  ****  *
  14:testCore.cpp  ****  * You should have received a copy of the GNU Lesser General Public License
  15:testCore.cpp  ****  * along with this program.  If not, see <http://www.gnu.org/licenses/>.
  16:testCore.cpp  ****  */
  17:testCore.cpp  **** #include <iostream>
  18:testCore.cpp  **** #include <cstdlib>
  19:testCore.cpp  **** #include <errno.h>
  20:testCore.cpp  **** #include <UnitTest++.h>
  21:testCore.cpp  **** #include <makestuff.h>
  22:testCore.cpp  **** #include "../unbounded_queue.h"
  23:testCore.cpp  **** 
  24:testCore.cpp  **** using namespace std;
  25:testCore.cpp  **** 
  26:testCore.cpp  **** extern "C" {
  27:testCore.cpp  **** 	static uint32 m_count = 1;
  28:testCore.cpp  **** 	static int m_allocFree = 0;
  29:testCore.cpp  **** 	uint32 *createInt(void) {
 158              		.loc 3 29 0 is_stmt 1
 159              		.cfi_startproc
 160 0000 55       		pushq	%rbp
 161              		.cfi_def_cfa_offset 16
 162              		.cfi_offset 6, -16
 163 0001 4889E5   		movq	%rsp, %rbp
 164              		.cfi_def_cfa_register 6
 165 0004 4883EC10 		subq	$16, %rsp
 166              	.LBB4:
  30:testCore.cpp  **** 		uint32 *p;
  31:testCore.cpp  **** 		if ( m_count > 8 ) {
 167              		.loc 3 31 0
 168 0008 8B050000 		movl	_ZL7m_count(%rip), %eax
 168      0000
 169 000e 83F808   		cmpl	$8, %eax
 170 0011 7607     		jbe	.L10
  32:testCore.cpp  **** 			return NULL;  // simulate out-of-memory
 171              		.loc 3 32 0
 172 0013 B8000000 		movl	$0, %eax
 172      00
 173 0018 EB3D     		jmp	.L11
 174              	.L10:
  33:testCore.cpp  **** 		}
  34:testCore.cpp  **** 		p = (uint32 *)malloc(sizeof(uint32));
 175              		.loc 3 34 0
 176 001a BF040000 		movl	$4, %edi
 176      00
 177 001f E8000000 		call	malloc
 177      00
 178 0024 488945F8 		movq	%rax, -8(%rbp)
  35:testCore.cpp  **** 		if ( p ) {
 179              		.loc 3 35 0
 180 0028 48837DF8 		cmpq	$0, -8(%rbp)
 180      00
 181 002d 7415     		je	.L12
  36:testCore.cpp  **** 			*p = m_count++;
 182              		.loc 3 36 0
 183 002f 8B050000 		movl	_ZL7m_count(%rip), %eax
 183      0000
 184 0035 8D5001   		leal	1(%rax), %edx
 185 0038 89150000 		movl	%edx, _ZL7m_count(%rip)
 185      0000
 186 003e 488B55F8 		movq	-8(%rbp), %rdx
 187 0042 8902     		movl	%eax, (%rdx)
 188              	.L12:
  37:testCore.cpp  **** 		}
  38:testCore.cpp  **** 		m_allocFree++;
 189              		.loc 3 38 0
 190 0044 8B050000 		movl	_ZL11m_allocFree(%rip), %eax
 190      0000
 191 004a 83C001   		addl	$1, %eax
 192 004d 89050000 		movl	%eax, _ZL11m_allocFree(%rip)
 192      0000
  39:testCore.cpp  **** 		return p;
 193              		.loc 3 39 0
 194 0053 488B45F8 		movq	-8(%rbp), %rax
 195              	.L11:
 196              	.LBE4:
  40:testCore.cpp  **** 	}
 197              		.loc 3 40 0
 198 0057 C9       		leave
 199              		.cfi_def_cfa 7, 8
 200 0058 C3       		ret
 201              		.cfi_endproc
 202              	.LFE1028:
 204              		.globl	destroyInt
 206              	destroyInt:
 207              	.LFB1029:
  41:testCore.cpp  **** 	void destroyInt(uint32 *p) {
 208              		.loc 3 41 0
 209              		.cfi_startproc
 210 0059 55       		pushq	%rbp
 211              		.cfi_def_cfa_offset 16
 212              		.cfi_offset 6, -16
 213 005a 4889E5   		movq	%rsp, %rbp
 214              		.cfi_def_cfa_register 6
 215 005d 4883EC10 		subq	$16, %rsp
 216 0061 48897DF8 		movq	%rdi, -8(%rbp)
  42:testCore.cpp  **** 		if ( p ) {
 217              		.loc 3 42 0
 218 0065 48837DF8 		cmpq	$0, -8(%rbp)
 218      00
 219 006a 741B     		je	.L13
  43:testCore.cpp  **** 			m_allocFree--;
 220              		.loc 3 43 0
 221 006c 8B050000 		movl	_ZL11m_allocFree(%rip), %eax
 221      0000
 222 0072 83E801   		subl	$1, %eax
 223 0075 89050000 		movl	%eax, _ZL11m_allocFree(%rip)
 223      0000
  44:testCore.cpp  **** 			free((void*)p);
 224              		.loc 3 44 0
 225 007b 488B45F8 		movq	-8(%rbp), %rax
 226 007f 4889C7   		movq	%rax, %rdi
 227 0082 E8000000 		call	free
 227      00
 228              	.L13:
  45:testCore.cpp  **** 		}
  46:testCore.cpp  **** 	}
 229              		.loc 3 46 0
 230 0087 C9       		leave
 231              		.cfi_def_cfa 7, 8
 232 0088 C3       		ret
 233              		.cfi_endproc
 234              	.LFE1029:
 237              	_ZL5derefPKv:
 238              	.LFB1030:
  47:testCore.cpp  **** }
  48:testCore.cpp  **** 
  49:testCore.cpp  **** static inline uint32 deref(Item p) {
 239              		.loc 3 49 0
 240              		.cfi_startproc
 241 0089 55       		pushq	%rbp
 242              		.cfi_def_cfa_offset 16
 243              		.cfi_offset 6, -16
 244 008a 4889E5   		movq	%rsp, %rbp
 245              		.cfi_def_cfa_register 6
 246 008d 48897DF8 		movq	%rdi, -8(%rbp)
  50:testCore.cpp  **** 	return *((const uint32 *)p);
 247              		.loc 3 50 0
 248 0091 488B45F8 		movq	-8(%rbp), %rax
 249 0095 8B00     		movl	(%rax), %eax
  51:testCore.cpp  **** }
 250              		.loc 3 51 0
 251 0097 5D       		popq	%rbp
 252              		.cfi_def_cfa 7, 8
 253 0098 C3       		ret
 254              		.cfi_endproc
 255              	.LFE1030:
 257              		.section	.rodata
 258              	.LC1:
 259 000d 74657374 		.string	"testCore.cpp"
 259      436F7265 
 259      2E637070 
 259      00
 260              	.LC2:
 261 001a 51756575 		.string	"Queue_testInit"
 261      655F7465 
 261      7374496E 
 261      697400
 262              		.section	.text._ZN18TestQueue_testInitC2Ev,"axG",@progbits,_ZN18TestQueue_testInitC5Ev,comdat
 263              		.align 2
 264              		.weak	_ZN18TestQueue_testInitC2Ev
 266              	_ZN18TestQueue_testInitC2Ev:
 267              	.LFB1032:
  52:testCore.cpp  **** 
  53:testCore.cpp  **** TEST(Queue_testInit) {
 268              		.loc 3 53 0
 269              		.cfi_startproc
 270 0000 55       		pushq	%rbp
 271              		.cfi_def_cfa_offset 16
 272              		.cfi_offset 6, -16
 273 0001 4889E5   		movq	%rsp, %rbp
 274              		.cfi_def_cfa_register 6
 275 0004 4883EC10 		subq	$16, %rsp
 276 0008 48897DF8 		movq	%rdi, -8(%rbp)
 277              	.LBB5:
 278              		.loc 3 53 0
 279 000c E8000000 		call	_ZN13UnitTestSuite12GetSuiteNameEv
 279      00
 280 0011 4889C2   		movq	%rax, %rdx
 281 0014 488B45F8 		movq	-8(%rbp), %rax
 282 0018 41B83500 		movl	$53, %r8d
 282      0000
 283 001e B9000000 		movl	$.LC1, %ecx
 283      00
 284 0023 BE000000 		movl	$.LC2, %esi
 284      00
 285 0028 4889C7   		movq	%rax, %rdi
 286 002b E8000000 		call	_ZN8UnitTest4TestC2EPKcS2_S2_i
 286      00
 287 0030 488B45F8 		movq	-8(%rbp), %rax
 288 0034 48C70000 		movq	$_ZTV18TestQueue_testInit+16, (%rax)
 288      000000
 289              	.LBE5:
 290 003b C9       		leave
 291              		.cfi_def_cfa 7, 8
 292 003c C3       		ret
 293              		.cfi_endproc
 294              	.LFE1032:
 296              		.weak	_ZN18TestQueue_testInitC1Ev
 297              		.set	_ZN18TestQueue_testInitC1Ev,_ZN18TestQueue_testInitC2Ev
 298              		.globl	testQueue_testInitInstance
 299              		.bss
 300              		.align 32
 303              	testQueue_testInitInstance:
 304 0000 00000000 		.zero	56
 304      00000000 
 304      00000000 
 304      00000000 
 304      00000000 
 305              		.globl	adderQueue_testInit
 308              	adderQueue_testInit:
 309 0038 00       		.zero	1
 310              		.section	.rodata
 311 0029 00000000 		.align 8
 311      000000
 312              	.LC3:
 313 0030 556E6861 		.string	"Unhandled exception in CHECK_EQUAL(USB_SUCCESS, status)"
 313      6E646C65 
 313      64206578 
 313      63657074 
 313      696F6E20 
 314              		.align 8
 315              	.LC4:
 316 0068 556E6861 		.string	"Unhandled exception in CHECK_EQUAL(4UL, queue.capacity)"
 316      6E646C65 
 316      64206578 
 316      63657074 
 316      696F6E20 
 317              		.align 8
 318              	.LC5:
 319 00a0 556E6861 		.string	"Unhandled exception in CHECK_EQUAL(0UL, queue.putIndex)"
 319      6E646C65 
 319      64206578 
 319      63657074 
 319      696F6E20 
 320              		.align 8
 321              	.LC6:
 322 00d8 556E6861 		.string	"Unhandled exception in CHECK_EQUAL(0UL, queue.takeIndex)"
 322      6E646C65 
 322      64206578 
 322      63657074 
 322      696F6E20 
 323 0111 00000000 		.align 8
 323      000000
 324              	.LC7:
 325 0118 556E6861 		.string	"Unhandled exception in CHECK_EQUAL(0UL, queue.numItems)"
 325      6E646C65 
 325      64206578 
 325      63657074 
 325      696F6E20 
 326              		.align 8
 327              	.LC8:
 328 0150 556E6861 		.string	"Unhandled exception in CHECK_EQUAL(1UL, deref(queue.itemArray[0]))"
 328      6E646C65 
 328      64206578 
 328      63657074 
 328      696F6E20 
 329 0193 00000000 		.align 8
 329      00
 330              	.LC9:
 331 0198 556E6861 		.string	"Unhandled exception in CHECK_EQUAL(2UL, deref(queue.itemArray[1]))"
 331      6E646C65 
 331      64206578 
 331      63657074 
 331      696F6E20 
 332 01db 00000000 		.align 8
 332      00
 333              	.LC10:
 334 01e0 556E6861 		.string	"Unhandled exception in CHECK_EQUAL(3UL, deref(queue.itemArray[2]))"
 334      6E646C65 
 334      64206578 
 334      63657074 
 334      696F6E20 
 335 0223 00000000 		.align 8
 335      00
 336              	.LC11:
 337 0228 556E6861 		.string	"Unhandled exception in CHECK_EQUAL(4UL, deref(queue.itemArray[3]))"
 337      6E646C65 
 337      64206578 
 337      63657074 
 337      696F6E20 
 338              		.text
 339 0099 90       		.align 2
 340              		.globl	_ZNK18TestQueue_testInit7RunImplEv
 342              	_ZNK18TestQueue_testInit7RunImplEv:
 343              	.LFB1034:
 344              		.loc 3 53 0
 345              		.cfi_startproc
 346              		.cfi_personality 0x3,__gxx_personality_v0
 347              		.cfi_lsda 0x3,.LLSDA1034
 348 009a 55       		pushq	%rbp
 349              		.cfi_def_cfa_offset 16
 350              		.cfi_offset 6, -16
 351 009b 4889E5   		movq	%rsp, %rbp
 352              		.cfi_def_cfa_register 6
 353 009e 53       		pushq	%rbx
 354 009f 4881EC88 		subq	$136, %rsp
 354      000000
 355              		.cfi_offset 3, -24
 356 00a6 4889BD78 		movq	%rdi, -136(%rbp)
 356      FFFFFF
 357              	.LBB6:
  54:testCore.cpp  **** 	struct UnboundedQueue queue;
  55:testCore.cpp  **** 	m_count = 1;
 358              		.loc 3 55 0
 359 00ad C7050000 		movl	$1, _ZL7m_count(%rip)
 359      00000100 
 359      0000
  56:testCore.cpp  **** 
  57:testCore.cpp  **** 	// Create queue
  58:testCore.cpp  **** 	USBStatus status = queueInit(&queue, 4, (CreateFunc)createInt, (DestroyFunc)destroyInt);
 360              		.loc 3 58 0
 361 00b7 488D45B0 		leaq	-80(%rbp), %rax
 362 00bb B9000000 		movl	$destroyInt, %ecx
 362      00
 363 00c0 BA000000 		movl	$createInt, %edx
 363      00
 364 00c5 BE040000 		movl	$4, %esi
 364      00
 365 00ca 4889C7   		movq	%rax, %rdi
 366              	.LEHB4:
 367 00cd E8000000 		call	queueInit
 367      00
 368              	.LEHE4:
 369 00d2 894580   		movl	%eax, -128(%rbp)
 370              	.LEHB5:
  59:testCore.cpp  **** 	CHECK_EQUAL(USB_SUCCESS, status);
 371              		.loc 3 59 0
 372 00d5 E8000000 		call	_ZN8UnitTest11CurrentTest7DetailsEv
 372      00
 373 00da 488B08   		movq	(%rax), %rcx
 374 00dd 488D4590 		leaq	-112(%rbp), %rax
 375 00e1 BA3B0000 		movl	$59, %edx
 375      00
 376 00e6 4889CE   		movq	%rcx, %rsi
 377 00e9 4889C7   		movq	%rax, %rdi
 378 00ec E8000000 		call	_ZN8UnitTest11TestDetailsC1ERKS0_i
 378      00
 379              		.loc 3 59 0 is_stmt 0 discriminator 1
 380 00f1 C7458800 		movl	$0, -120(%rbp)
 380      000000
 381 00f8 E8000000 		call	_ZN8UnitTest11CurrentTest7ResultsEv
 381      00
 382 00fd 488B00   		movq	(%rax), %rax
 383 0100 488D4D90 		leaq	-112(%rbp), %rcx
 384 0104 488D5580 		leaq	-128(%rbp), %rdx
 385 0108 488D7588 		leaq	-120(%rbp), %rsi
 386 010c 4889C7   		movq	%rax, %rdi
 387 010f E8000000 		call	_ZN8UnitTest10CheckEqualI9USBStatusS1_EEvRNS_11TestResultsERKT_RKT0_RKNS_11TestDetailsE
 387      00
 388              	.LEHE5:
 389              	.L21:
 390              	.LEHB6:
  60:testCore.cpp  **** 
  61:testCore.cpp  **** 	// Verify
  62:testCore.cpp  **** 	CHECK_EQUAL(4UL, queue.capacity);
 391              		.loc 3 62 0 is_stmt 1
 392 0114 E8000000 		call	_ZN8UnitTest11CurrentTest7DetailsEv
 392      00
 393 0119 488B08   		movq	(%rax), %rcx
 394 011c 488D4590 		leaq	-112(%rbp), %rax
 395 0120 BA3E0000 		movl	$62, %edx
 395      00
 396 0125 4889CE   		movq	%rcx, %rsi
 397 0128 4889C7   		movq	%rax, %rdi
 398 012b E8000000 		call	_ZN8UnitTest11TestDetailsC1ERKS0_i
 398      00
 399              		.loc 3 62 0 is_stmt 0 discriminator 1
 400 0130 48C74588 		movq	$4, -120(%rbp)
 400      04000000 
 401 0138 E8000000 		call	_ZN8UnitTest11CurrentTest7ResultsEv
 401      00
 402 013d 488B00   		movq	(%rax), %rax
 403 0140 488D5590 		leaq	-112(%rbp), %rdx
 404 0144 488D4DB0 		leaq	-80(%rbp), %rcx
 405 0148 488D7908 		leaq	8(%rcx), %rdi
 406 014c 488D7588 		leaq	-120(%rbp), %rsi
 407 0150 4889D1   		movq	%rdx, %rcx
 408 0153 4889FA   		movq	%rdi, %rdx
 409 0156 4889C7   		movq	%rax, %rdi
 410 0159 E8000000 		call	_ZN8UnitTest10CheckEqualImmEEvRNS_11TestResultsERKT_RKT0_RKNS_11TestDetailsE
 410      00
 411              	.LEHE6:
 412              	.L24:
 413              	.LEHB7:
  63:testCore.cpp  **** 	CHECK_EQUAL(0UL, queue.putIndex);
 414              		.loc 3 63 0 is_stmt 1
 415 015e E8000000 		call	_ZN8UnitTest11CurrentTest7DetailsEv
 415      00
 416 0163 488B08   		movq	(%rax), %rcx
 417 0166 488D4590 		leaq	-112(%rbp), %rax
 418 016a BA3F0000 		movl	$63, %edx
 418      00
 419 016f 4889CE   		movq	%rcx, %rsi
 420 0172 4889C7   		movq	%rax, %rdi
 421 0175 E8000000 		call	_ZN8UnitTest11TestDetailsC1ERKS0_i
 421      00
 422              		.loc 3 63 0 is_stmt 0 discriminator 1
 423 017a 48C74588 		movq	$0, -120(%rbp)
 423      00000000 
 424 0182 E8000000 		call	_ZN8UnitTest11CurrentTest7ResultsEv
 424      00
 425 0187 488B00   		movq	(%rax), %rax
 426 018a 488D5590 		leaq	-112(%rbp), %rdx
 427 018e 488D4DB0 		leaq	-80(%rbp), %rcx
 428 0192 488D7910 		leaq	16(%rcx), %rdi
 429 0196 488D7588 		leaq	-120(%rbp), %rsi
 430 019a 4889D1   		movq	%rdx, %rcx
 431 019d 4889FA   		movq	%rdi, %rdx
 432 01a0 4889C7   		movq	%rax, %rdi
 433 01a3 E8000000 		call	_ZN8UnitTest10CheckEqualImmEEvRNS_11TestResultsERKT_RKT0_RKNS_11TestDetailsE
 433      00
 434              	.LEHE7:
 435              	.L27:
 436              	.LEHB8:
  64:testCore.cpp  **** 	CHECK_EQUAL(0UL, queue.takeIndex);
 437              		.loc 3 64 0 is_stmt 1
 438 01a8 E8000000 		call	_ZN8UnitTest11CurrentTest7DetailsEv
 438      00
 439 01ad 488B08   		movq	(%rax), %rcx
 440 01b0 488D4590 		leaq	-112(%rbp), %rax
 441 01b4 BA400000 		movl	$64, %edx
 441      00
 442 01b9 4889CE   		movq	%rcx, %rsi
 443 01bc 4889C7   		movq	%rax, %rdi
 444 01bf E8000000 		call	_ZN8UnitTest11TestDetailsC1ERKS0_i
 444      00
 445              		.loc 3 64 0 is_stmt 0 discriminator 1
 446 01c4 48C74588 		movq	$0, -120(%rbp)
 446      00000000 
 447 01cc E8000000 		call	_ZN8UnitTest11CurrentTest7ResultsEv
 447      00
 448 01d1 488B00   		movq	(%rax), %rax
 449 01d4 488D5590 		leaq	-112(%rbp), %rdx
 450 01d8 488D4DB0 		leaq	-80(%rbp), %rcx
 451 01dc 488D7918 		leaq	24(%rcx), %rdi
 452 01e0 488D7588 		leaq	-120(%rbp), %rsi
 453 01e4 4889D1   		movq	%rdx, %rcx
 454 01e7 4889FA   		movq	%rdi, %rdx
 455 01ea 4889C7   		movq	%rax, %rdi
 456 01ed E8000000 		call	_ZN8UnitTest10CheckEqualImmEEvRNS_11TestResultsERKT_RKT0_RKNS_11TestDetailsE
 456      00
 457              	.LEHE8:
 458              	.L30:
 459              	.LEHB9:
  65:testCore.cpp  **** 	CHECK_EQUAL(0UL, queue.numItems);
 460              		.loc 3 65 0 is_stmt 1
 461 01f2 E8000000 		call	_ZN8UnitTest11CurrentTest7DetailsEv
 461      00
 462 01f7 488B08   		movq	(%rax), %rcx
 463 01fa 488D4590 		leaq	-112(%rbp), %rax
 464 01fe BA410000 		movl	$65, %edx
 464      00
 465 0203 4889CE   		movq	%rcx, %rsi
 466 0206 4889C7   		movq	%rax, %rdi
 467 0209 E8000000 		call	_ZN8UnitTest11TestDetailsC1ERKS0_i
 467      00
 468              		.loc 3 65 0 is_stmt 0 discriminator 1
 469 020e 48C74588 		movq	$0, -120(%rbp)
 469      00000000 
 470 0216 E8000000 		call	_ZN8UnitTest11CurrentTest7ResultsEv
 470      00
 471 021b 488B00   		movq	(%rax), %rax
 472 021e 488D5590 		leaq	-112(%rbp), %rdx
 473 0222 488D4DB0 		leaq	-80(%rbp), %rcx
 474 0226 488D7920 		leaq	32(%rcx), %rdi
 475 022a 488D7588 		leaq	-120(%rbp), %rsi
 476 022e 4889D1   		movq	%rdx, %rcx
 477 0231 4889FA   		movq	%rdi, %rdx
 478 0234 4889C7   		movq	%rax, %rdi
 479 0237 E8000000 		call	_ZN8UnitTest10CheckEqualImmEEvRNS_11TestResultsERKT_RKT0_RKNS_11TestDetailsE
 479      00
 480              	.LEHE9:
 481              	.L33:
 482              	.LEHB10:
  66:testCore.cpp  **** 
  67:testCore.cpp  **** 	// Verify array
  68:testCore.cpp  **** 	CHECK_EQUAL(1UL, deref(queue.itemArray[0]));
 483              		.loc 3 68 0 is_stmt 1
 484 023c E8000000 		call	_ZN8UnitTest11CurrentTest7DetailsEv
 484      00
 485 0241 488B08   		movq	(%rax), %rcx
 486 0244 488D4590 		leaq	-112(%rbp), %rax
 487 0248 BA440000 		movl	$68, %edx
 487      00
 488 024d 4889CE   		movq	%rcx, %rsi
 489 0250 4889C7   		movq	%rax, %rdi
 490 0253 E8000000 		call	_ZN8UnitTest11TestDetailsC1ERKS0_i
 490      00
 491              		.loc 3 68 0 is_stmt 0 discriminator 1
 492 0258 488B45B0 		movq	-80(%rbp), %rax
 493 025c 488B00   		movq	(%rax), %rax
 494 025f 4889C7   		movq	%rax, %rdi
 495 0262 E822FEFF 		call	_ZL5derefPKv
 495      FF
 496 0267 894584   		movl	%eax, -124(%rbp)
 497 026a 48C74588 		movq	$1, -120(%rbp)
 497      01000000 
 498 0272 E8000000 		call	_ZN8UnitTest11CurrentTest7ResultsEv
 498      00
 499 0277 488B00   		movq	(%rax), %rax
 500 027a 488D4D90 		leaq	-112(%rbp), %rcx
 501 027e 488D5584 		leaq	-124(%rbp), %rdx
 502 0282 488D7588 		leaq	-120(%rbp), %rsi
 503 0286 4889C7   		movq	%rax, %rdi
 504 0289 E8000000 		call	_ZN8UnitTest10CheckEqualImjEEvRNS_11TestResultsERKT_RKT0_RKNS_11TestDetailsE
 504      00
 505              	.LEHE10:
 506              	.L36:
 507              	.LEHB11:
  69:testCore.cpp  **** 	CHECK_EQUAL(2UL, deref(queue.itemArray[1]));
 508              		.loc 3 69 0 is_stmt 1
 509 028e E8000000 		call	_ZN8UnitTest11CurrentTest7DetailsEv
 509      00
 510 0293 488B08   		movq	(%rax), %rcx
 511 0296 488D4590 		leaq	-112(%rbp), %rax
 512 029a BA450000 		movl	$69, %edx
 512      00
 513 029f 4889CE   		movq	%rcx, %rsi
 514 02a2 4889C7   		movq	%rax, %rdi
 515 02a5 E8000000 		call	_ZN8UnitTest11TestDetailsC1ERKS0_i
 515      00
 516              		.loc 3 69 0 is_stmt 0 discriminator 1
 517 02aa 488B45B0 		movq	-80(%rbp), %rax
 518 02ae 4883C008 		addq	$8, %rax
 519 02b2 488B00   		movq	(%rax), %rax
 520 02b5 4889C7   		movq	%rax, %rdi
 521 02b8 E8CCFDFF 		call	_ZL5derefPKv
 521      FF
 522 02bd 894584   		movl	%eax, -124(%rbp)
 523 02c0 48C74588 		movq	$2, -120(%rbp)
 523      02000000 
 524 02c8 E8000000 		call	_ZN8UnitTest11CurrentTest7ResultsEv
 524      00
 525 02cd 488B00   		movq	(%rax), %rax
 526 02d0 488D4D90 		leaq	-112(%rbp), %rcx
 527 02d4 488D5584 		leaq	-124(%rbp), %rdx
 528 02d8 488D7588 		leaq	-120(%rbp), %rsi
 529 02dc 4889C7   		movq	%rax, %rdi
 530 02df E8000000 		call	_ZN8UnitTest10CheckEqualImjEEvRNS_11TestResultsERKT_RKT0_RKNS_11TestDetailsE
 530      00
 531              	.LEHE11:
 532              	.L39:
 533              	.LEHB12:
  70:testCore.cpp  **** 	CHECK_EQUAL(3UL, deref(queue.itemArray[2]));
 534              		.loc 3 70 0 is_stmt 1
 535 02e4 E8000000 		call	_ZN8UnitTest11CurrentTest7DetailsEv
 535      00
 536 02e9 488B08   		movq	(%rax), %rcx
 537 02ec 488D4590 		leaq	-112(%rbp), %rax
 538 02f0 BA460000 		movl	$70, %edx
 538      00
 539 02f5 4889CE   		movq	%rcx, %rsi
 540 02f8 4889C7   		movq	%rax, %rdi
 541 02fb E8000000 		call	_ZN8UnitTest11TestDetailsC1ERKS0_i
 541      00
 542              		.loc 3 70 0 is_stmt 0 discriminator 1
 543 0300 488B45B0 		movq	-80(%rbp), %rax
 544 0304 4883C010 		addq	$16, %rax
 545 0308 488B00   		movq	(%rax), %rax
 546 030b 4889C7   		movq	%rax, %rdi
 547 030e E876FDFF 		call	_ZL5derefPKv
 547      FF
 548 0313 894584   		movl	%eax, -124(%rbp)
 549 0316 48C74588 		movq	$3, -120(%rbp)
 549      03000000 
 550 031e E8000000 		call	_ZN8UnitTest11CurrentTest7ResultsEv
 550      00
 551 0323 488B00   		movq	(%rax), %rax
 552 0326 488D4D90 		leaq	-112(%rbp), %rcx
 553 032a 488D5584 		leaq	-124(%rbp), %rdx
 554 032e 488D7588 		leaq	-120(%rbp), %rsi
 555 0332 4889C7   		movq	%rax, %rdi
 556 0335 E8000000 		call	_ZN8UnitTest10CheckEqualImjEEvRNS_11TestResultsERKT_RKT0_RKNS_11TestDetailsE
 556      00
 557              	.LEHE12:
 558              	.L42:
 559              	.LEHB13:
  71:testCore.cpp  **** 	CHECK_EQUAL(4UL, deref(queue.itemArray[3]));
 560              		.loc 3 71 0 is_stmt 1
 561 033a E8000000 		call	_ZN8UnitTest11CurrentTest7DetailsEv
 561      00
 562 033f 488B08   		movq	(%rax), %rcx
 563 0342 488D4590 		leaq	-112(%rbp), %rax
 564 0346 BA470000 		movl	$71, %edx
 564      00
 565 034b 4889CE   		movq	%rcx, %rsi
 566 034e 4889C7   		movq	%rax, %rdi
 567 0351 E8000000 		call	_ZN8UnitTest11TestDetailsC1ERKS0_i
 567      00
 568              		.loc 3 71 0 is_stmt 0 discriminator 1
 569 0356 488B45B0 		movq	-80(%rbp), %rax
 570 035a 4883C018 		addq	$24, %rax
 571 035e 488B00   		movq	(%rax), %rax
 572 0361 4889C7   		movq	%rax, %rdi
 573 0364 E820FDFF 		call	_ZL5derefPKv
 573      FF
 574 0369 894584   		movl	%eax, -124(%rbp)
 575 036c 48C74588 		movq	$4, -120(%rbp)
 575      04000000 
 576 0374 E8000000 		call	_ZN8UnitTest11CurrentTest7ResultsEv
 576      00
 577 0379 488B00   		movq	(%rax), %rax
 578 037c 488D4D90 		leaq	-112(%rbp), %rcx
 579 0380 488D5584 		leaq	-124(%rbp), %rdx
 580 0384 488D7588 		leaq	-120(%rbp), %rsi
 581 0388 4889C7   		movq	%rax, %rdi
 582 038b E8000000 		call	_ZN8UnitTest10CheckEqualImjEEvRNS_11TestResultsERKT_RKT0_RKNS_11TestDetailsE
 582      00
 583              	.LEHE13:
 584              	.L45:
  72:testCore.cpp  **** 
  73:testCore.cpp  **** 	// Clean up
  74:testCore.cpp  **** 	queueDestroy(&queue);
 585              		.loc 3 74 0 is_stmt 1
 586 0390 488D45B0 		leaq	-80(%rbp), %rax
 587 0394 4889C7   		movq	%rax, %rdi
 588              	.LEHB14:
 589 0397 E8000000 		call	queueDestroy
 589      00
 590              	.LEHE14:
 591 039c E9450300 		jmp	.L64
 591      00
 592              	.L47:
 593 03a1 4889C3   		movq	%rax, %rbx
  59:testCore.cpp  **** 
 594              		.loc 3 59 0
 595 03a4 E8000000 		call	__cxa_end_catch
 595      00
 596 03a9 4889D8   		movq	%rbx, %rax
 597 03ac 4889C7   		movq	%rax, %rdi
 598              	.LEHB15:
 599 03af E8000000 		call	_Unwind_Resume
 599      00
 600              	.LEHE15:
 601              	.L46:
 602 03b4 4889C7   		movq	%rax, %rdi
 603 03b7 E8000000 		call	__cxa_begin_catch
 603      00
 604              	.LEHB16:
 605 03bc E8000000 		call	_ZN8UnitTest11CurrentTest7DetailsEv
 605      00
 606 03c1 488B08   		movq	(%rax), %rcx
 607 03c4 488D4590 		leaq	-112(%rbp), %rax
 608 03c8 BA3B0000 		movl	$59, %edx
 608      00
 609 03cd 4889CE   		movq	%rcx, %rsi
 610 03d0 4889C7   		movq	%rax, %rdi
 611 03d3 E8000000 		call	_ZN8UnitTest11TestDetailsC1ERKS0_i
 611      00
  59:testCore.cpp  **** 
 612              		.loc 3 59 0 is_stmt 0 discriminator 1
 613 03d8 E8000000 		call	_ZN8UnitTest11CurrentTest7ResultsEv
 613      00
 614 03dd 488B00   		movq	(%rax), %rax
 615 03e0 488D4D90 		leaq	-112(%rbp), %rcx
 616 03e4 BA000000 		movl	$.LC3, %edx
 616      00
 617 03e9 4889CE   		movq	%rcx, %rsi
 618 03ec 4889C7   		movq	%rax, %rdi
 619 03ef E8000000 		call	_ZN8UnitTest11TestResults13OnTestFailureERKNS_11TestDetailsEPKc
 619      00
 620              	.LEHE16:
 621              	.LEHB17:
 622 03f4 E8000000 		call	__cxa_end_catch
 622      00
 623              	.LEHE17:
 624 03f9 E916FDFF 		jmp	.L21
 624      FF
 625              	.L49:
 626 03fe 4889C3   		movq	%rax, %rbx
  62:testCore.cpp  **** 	CHECK_EQUAL(0UL, queue.putIndex);
 627              		.loc 3 62 0 is_stmt 1
 628 0401 E8000000 		call	__cxa_end_catch
 628      00
 629 0406 4889D8   		movq	%rbx, %rax
 630 0409 4889C7   		movq	%rax, %rdi
 631              	.LEHB18:
 632 040c E8000000 		call	_Unwind_Resume
 632      00
 633              	.LEHE18:
 634              	.L48:
 635 0411 4889C7   		movq	%rax, %rdi
 636 0414 E8000000 		call	__cxa_begin_catch
 636      00
 637              	.LEHB19:
 638 0419 E8000000 		call	_ZN8UnitTest11CurrentTest7DetailsEv
 638      00
 639 041e 488B08   		movq	(%rax), %rcx
 640 0421 488D4590 		leaq	-112(%rbp), %rax
 641 0425 BA3E0000 		movl	$62, %edx
 641      00
 642 042a 4889CE   		movq	%rcx, %rsi
 643 042d 4889C7   		movq	%rax, %rdi
 644 0430 E8000000 		call	_ZN8UnitTest11TestDetailsC1ERKS0_i
 644      00
  62:testCore.cpp  **** 	CHECK_EQUAL(0UL, queue.putIndex);
 645              		.loc 3 62 0 is_stmt 0 discriminator 1
 646 0435 E8000000 		call	_ZN8UnitTest11CurrentTest7ResultsEv
 646      00
 647 043a 488B00   		movq	(%rax), %rax
 648 043d 488D4D90 		leaq	-112(%rbp), %rcx
 649 0441 BA000000 		movl	$.LC4, %edx
 649      00
 650 0446 4889CE   		movq	%rcx, %rsi
 651 0449 4889C7   		movq	%rax, %rdi
 652 044c E8000000 		call	_ZN8UnitTest11TestResults13OnTestFailureERKNS_11TestDetailsEPKc
 652      00
 653              	.LEHE19:
 654              	.LEHB20:
 655 0451 E8000000 		call	__cxa_end_catch
 655      00
 656              	.LEHE20:
 657 0456 E903FDFF 		jmp	.L24
 657      FF
 658              	.L51:
 659 045b 4889C3   		movq	%rax, %rbx
  63:testCore.cpp  **** 	CHECK_EQUAL(0UL, queue.takeIndex);
 660              		.loc 3 63 0 is_stmt 1
 661 045e E8000000 		call	__cxa_end_catch
 661      00
 662 0463 4889D8   		movq	%rbx, %rax
 663 0466 4889C7   		movq	%rax, %rdi
 664              	.LEHB21:
 665 0469 E8000000 		call	_Unwind_Resume
 665      00
 666              	.LEHE21:
 667              	.L50:
 668 046e 4889C7   		movq	%rax, %rdi
 669 0471 E8000000 		call	__cxa_begin_catch
 669      00
 670              	.LEHB22:
 671 0476 E8000000 		call	_ZN8UnitTest11CurrentTest7DetailsEv
 671      00
 672 047b 488B08   		movq	(%rax), %rcx
 673 047e 488D4590 		leaq	-112(%rbp), %rax
 674 0482 BA3F0000 		movl	$63, %edx
 674      00
 675 0487 4889CE   		movq	%rcx, %rsi
 676 048a 4889C7   		movq	%rax, %rdi
 677 048d E8000000 		call	_ZN8UnitTest11TestDetailsC1ERKS0_i
 677      00
  63:testCore.cpp  **** 	CHECK_EQUAL(0UL, queue.takeIndex);
 678              		.loc 3 63 0 is_stmt 0 discriminator 1
 679 0492 E8000000 		call	_ZN8UnitTest11CurrentTest7ResultsEv
 679      00
 680 0497 488B00   		movq	(%rax), %rax
 681 049a 488D4D90 		leaq	-112(%rbp), %rcx
 682 049e BA000000 		movl	$.LC5, %edx
 682      00
 683 04a3 4889CE   		movq	%rcx, %rsi
 684 04a6 4889C7   		movq	%rax, %rdi
 685 04a9 E8000000 		call	_ZN8UnitTest11TestResults13OnTestFailureERKNS_11TestDetailsEPKc
 685      00
 686              	.LEHE22:
 687              	.LEHB23:
 688 04ae E8000000 		call	__cxa_end_catch
 688      00
 689              	.LEHE23:
 690 04b3 E9F0FCFF 		jmp	.L27
 690      FF
 691              	.L53:
 692 04b8 4889C3   		movq	%rax, %rbx
  64:testCore.cpp  **** 	CHECK_EQUAL(0UL, queue.numItems);
 693              		.loc 3 64 0 is_stmt 1
 694 04bb E8000000 		call	__cxa_end_catch
 694      00
 695 04c0 4889D8   		movq	%rbx, %rax
 696 04c3 4889C7   		movq	%rax, %rdi
 697              	.LEHB24:
 698 04c6 E8000000 		call	_Unwind_Resume
 698      00
 699              	.LEHE24:
 700              	.L52:
 701 04cb 4889C7   		movq	%rax, %rdi
 702 04ce E8000000 		call	__cxa_begin_catch
 702      00
 703              	.LEHB25:
 704 04d3 E8000000 		call	_ZN8UnitTest11CurrentTest7DetailsEv
 704      00
 705 04d8 488B08   		movq	(%rax), %rcx
 706 04db 488D4590 		leaq	-112(%rbp), %rax
 707 04df BA400000 		movl	$64, %edx
 707      00
 708 04e4 4889CE   		movq	%rcx, %rsi
 709 04e7 4889C7   		movq	%rax, %rdi
 710 04ea E8000000 		call	_ZN8UnitTest11TestDetailsC1ERKS0_i
 710      00
  64:testCore.cpp  **** 	CHECK_EQUAL(0UL, queue.numItems);
 711              		.loc 3 64 0 is_stmt 0 discriminator 1
 712 04ef E8000000 		call	_ZN8UnitTest11CurrentTest7ResultsEv
 712      00
 713 04f4 488B00   		movq	(%rax), %rax
 714 04f7 488D4D90 		leaq	-112(%rbp), %rcx
 715 04fb BA000000 		movl	$.LC6, %edx
 715      00
 716 0500 4889CE   		movq	%rcx, %rsi
 717 0503 4889C7   		movq	%rax, %rdi
 718 0506 E8000000 		call	_ZN8UnitTest11TestResults13OnTestFailureERKNS_11TestDetailsEPKc
 718      00
 719              	.LEHE25:
 720              	.LEHB26:
 721 050b E8000000 		call	__cxa_end_catch
 721      00
 722              	.LEHE26:
 723 0510 E9DDFCFF 		jmp	.L30
 723      FF
 724              	.L55:
 725 0515 4889C3   		movq	%rax, %rbx
  65:testCore.cpp  **** 
 726              		.loc 3 65 0 is_stmt 1
 727 0518 E8000000 		call	__cxa_end_catch
 727      00
 728 051d 4889D8   		movq	%rbx, %rax
 729 0520 4889C7   		movq	%rax, %rdi
 730              	.LEHB27:
 731 0523 E8000000 		call	_Unwind_Resume
 731      00
 732              	.LEHE27:
 733              	.L54:
 734 0528 4889C7   		movq	%rax, %rdi
 735 052b E8000000 		call	__cxa_begin_catch
 735      00
 736              	.LEHB28:
 737 0530 E8000000 		call	_ZN8UnitTest11CurrentTest7DetailsEv
 737      00
 738 0535 488B08   		movq	(%rax), %rcx
 739 0538 488D4590 		leaq	-112(%rbp), %rax
 740 053c BA410000 		movl	$65, %edx
 740      00
 741 0541 4889CE   		movq	%rcx, %rsi
 742 0544 4889C7   		movq	%rax, %rdi
 743 0547 E8000000 		call	_ZN8UnitTest11TestDetailsC1ERKS0_i
 743      00
  65:testCore.cpp  **** 
 744              		.loc 3 65 0 is_stmt 0 discriminator 1
 745 054c E8000000 		call	_ZN8UnitTest11CurrentTest7ResultsEv
 745      00
 746 0551 488B00   		movq	(%rax), %rax
 747 0554 488D4D90 		leaq	-112(%rbp), %rcx
 748 0558 BA000000 		movl	$.LC7, %edx
 748      00
 749 055d 4889CE   		movq	%rcx, %rsi
 750 0560 4889C7   		movq	%rax, %rdi
 751 0563 E8000000 		call	_ZN8UnitTest11TestResults13OnTestFailureERKNS_11TestDetailsEPKc
 751      00
 752              	.LEHE28:
 753              	.LEHB29:
 754 0568 E8000000 		call	__cxa_end_catch
 754      00
 755              	.LEHE29:
 756 056d E9CAFCFF 		jmp	.L33
 756      FF
 757              	.L57:
 758 0572 4889C3   		movq	%rax, %rbx
  68:testCore.cpp  **** 	CHECK_EQUAL(2UL, deref(queue.itemArray[1]));
 759              		.loc 3 68 0 is_stmt 1
 760 0575 E8000000 		call	__cxa_end_catch
 760      00
 761 057a 4889D8   		movq	%rbx, %rax
 762 057d 4889C7   		movq	%rax, %rdi
 763              	.LEHB30:
 764 0580 E8000000 		call	_Unwind_Resume
 764      00
 765              	.LEHE30:
 766              	.L56:
 767 0585 4889C7   		movq	%rax, %rdi
 768 0588 E8000000 		call	__cxa_begin_catch
 768      00
 769              	.LEHB31:
 770 058d E8000000 		call	_ZN8UnitTest11CurrentTest7DetailsEv
 770      00
 771 0592 488B08   		movq	(%rax), %rcx
 772 0595 488D4590 		leaq	-112(%rbp), %rax
 773 0599 BA440000 		movl	$68, %edx
 773      00
 774 059e 4889CE   		movq	%rcx, %rsi
 775 05a1 4889C7   		movq	%rax, %rdi
 776 05a4 E8000000 		call	_ZN8UnitTest11TestDetailsC1ERKS0_i
 776      00
  68:testCore.cpp  **** 	CHECK_EQUAL(2UL, deref(queue.itemArray[1]));
 777              		.loc 3 68 0 is_stmt 0 discriminator 1
 778 05a9 E8000000 		call	_ZN8UnitTest11CurrentTest7ResultsEv
 778      00
 779 05ae 488B00   		movq	(%rax), %rax
 780 05b1 488D4D90 		leaq	-112(%rbp), %rcx
 781 05b5 BA000000 		movl	$.LC8, %edx
 781      00
 782 05ba 4889CE   		movq	%rcx, %rsi
 783 05bd 4889C7   		movq	%rax, %rdi
 784 05c0 E8000000 		call	_ZN8UnitTest11TestResults13OnTestFailureERKNS_11TestDetailsEPKc
 784      00
 785              	.LEHE31:
 786              	.LEHB32:
 787 05c5 E8000000 		call	__cxa_end_catch
 787      00
 788              	.LEHE32:
 789 05ca E9BFFCFF 		jmp	.L36
 789      FF
 790              	.L59:
 791 05cf 4889C3   		movq	%rax, %rbx
  69:testCore.cpp  **** 	CHECK_EQUAL(3UL, deref(queue.itemArray[2]));
 792              		.loc 3 69 0 is_stmt 1
 793 05d2 E8000000 		call	__cxa_end_catch
 793      00
 794 05d7 4889D8   		movq	%rbx, %rax
 795 05da 4889C7   		movq	%rax, %rdi
 796              	.LEHB33:
 797 05dd E8000000 		call	_Unwind_Resume
 797      00
 798              	.LEHE33:
 799              	.L58:
 800 05e2 4889C7   		movq	%rax, %rdi
 801 05e5 E8000000 		call	__cxa_begin_catch
 801      00
 802              	.LEHB34:
 803 05ea E8000000 		call	_ZN8UnitTest11CurrentTest7DetailsEv
 803      00
 804 05ef 488B08   		movq	(%rax), %rcx
 805 05f2 488D4590 		leaq	-112(%rbp), %rax
 806 05f6 BA450000 		movl	$69, %edx
 806      00
 807 05fb 4889CE   		movq	%rcx, %rsi
 808 05fe 4889C7   		movq	%rax, %rdi
 809 0601 E8000000 		call	_ZN8UnitTest11TestDetailsC1ERKS0_i
 809      00
  69:testCore.cpp  **** 	CHECK_EQUAL(3UL, deref(queue.itemArray[2]));
 810              		.loc 3 69 0 is_stmt 0 discriminator 1
 811 0606 E8000000 		call	_ZN8UnitTest11CurrentTest7ResultsEv
 811      00
 812 060b 488B00   		movq	(%rax), %rax
 813 060e 488D4D90 		leaq	-112(%rbp), %rcx
 814 0612 BA000000 		movl	$.LC9, %edx
 814      00
 815 0617 4889CE   		movq	%rcx, %rsi
 816 061a 4889C7   		movq	%rax, %rdi
 817 061d E8000000 		call	_ZN8UnitTest11TestResults13OnTestFailureERKNS_11TestDetailsEPKc
 817      00
 818              	.LEHE34:
 819              	.LEHB35:
 820 0622 E8000000 		call	__cxa_end_catch
 820      00
 821              	.LEHE35:
 822 0627 E9B8FCFF 		jmp	.L39
 822      FF
 823              	.L61:
 824 062c 4889C3   		movq	%rax, %rbx
  70:testCore.cpp  **** 	CHECK_EQUAL(4UL, deref(queue.itemArray[3]));
 825              		.loc 3 70 0 is_stmt 1
 826 062f E8000000 		call	__cxa_end_catch
 826      00
 827 0634 4889D8   		movq	%rbx, %rax
 828 0637 4889C7   		movq	%rax, %rdi
 829              	.LEHB36:
 830 063a E8000000 		call	_Unwind_Resume
 830      00
 831              	.LEHE36:
 832              	.L60:
 833 063f 4889C7   		movq	%rax, %rdi
 834 0642 E8000000 		call	__cxa_begin_catch
 834      00
 835              	.LEHB37:
 836 0647 E8000000 		call	_ZN8UnitTest11CurrentTest7DetailsEv
 836      00
 837 064c 488B08   		movq	(%rax), %rcx
 838 064f 488D4590 		leaq	-112(%rbp), %rax
 839 0653 BA460000 		movl	$70, %edx
 839      00
 840 0658 4889CE   		movq	%rcx, %rsi
 841 065b 4889C7   		movq	%rax, %rdi
 842 065e E8000000 		call	_ZN8UnitTest11TestDetailsC1ERKS0_i
 842      00
  70:testCore.cpp  **** 	CHECK_EQUAL(4UL, deref(queue.itemArray[3]));
 843              		.loc 3 70 0 is_stmt 0 discriminator 1
 844 0663 E8000000 		call	_ZN8UnitTest11CurrentTest7ResultsEv
 844      00
 845 0668 488B00   		movq	(%rax), %rax
 846 066b 488D4D90 		leaq	-112(%rbp), %rcx
 847 066f BA000000 		movl	$.LC10, %edx
 847      00
 848 0674 4889CE   		movq	%rcx, %rsi
 849 0677 4889C7   		movq	%rax, %rdi
 850 067a E8000000 		call	_ZN8UnitTest11TestResults13OnTestFailureERKNS_11TestDetailsEPKc
 850      00
 851              	.LEHE37:
 852              	.LEHB38:
 853 067f E8000000 		call	__cxa_end_catch
 853      00
 854              	.LEHE38:
 855 0684 E9B1FCFF 		jmp	.L42
 855      FF
 856              	.L63:
 857 0689 4889C3   		movq	%rax, %rbx
  71:testCore.cpp  **** 
 858              		.loc 3 71 0 is_stmt 1
 859 068c E8000000 		call	__cxa_end_catch
 859      00
 860 0691 4889D8   		movq	%rbx, %rax
 861 0694 4889C7   		movq	%rax, %rdi
 862              	.LEHB39:
 863 0697 E8000000 		call	_Unwind_Resume
 863      00
 864              	.LEHE39:
 865              	.L62:
 866 069c 4889C7   		movq	%rax, %rdi
 867 069f E8000000 		call	__cxa_begin_catch
 867      00
 868              	.LEHB40:
 869 06a4 E8000000 		call	_ZN8UnitTest11CurrentTest7DetailsEv
 869      00
 870 06a9 488B08   		movq	(%rax), %rcx
 871 06ac 488D4590 		leaq	-112(%rbp), %rax
 872 06b0 BA470000 		movl	$71, %edx
 872      00
 873 06b5 4889CE   		movq	%rcx, %rsi
 874 06b8 4889C7   		movq	%rax, %rdi
 875 06bb E8000000 		call	_ZN8UnitTest11TestDetailsC1ERKS0_i
 875      00
  71:testCore.cpp  **** 
 876              		.loc 3 71 0 is_stmt 0 discriminator 1
 877 06c0 E8000000 		call	_ZN8UnitTest11CurrentTest7ResultsEv
 877      00
 878 06c5 488B00   		movq	(%rax), %rax
 879 06c8 488D4D90 		leaq	-112(%rbp), %rcx
 880 06cc BA000000 		movl	$.LC11, %edx
 880      00
 881 06d1 4889CE   		movq	%rcx, %rsi
 882 06d4 4889C7   		movq	%rax, %rdi
 883 06d7 E8000000 		call	_ZN8UnitTest11TestResults13OnTestFailureERKNS_11TestDetailsEPKc
 883      00
 884              	.LEHE40:
 885              	.LEHB41:
 886 06dc E8000000 		call	__cxa_end_catch
 886      00
 887              	.LEHE41:
 888 06e1 E9AAFCFF 		jmp	.L45
 888      FF
 889              	.L64:
 890              	.LBE6:
  75:testCore.cpp  **** }
 891              		.loc 3 75 0 is_stmt 1
 892 06e6 4881C488 		addq	$136, %rsp
 892      000000
 893 06ed 5B       		popq	%rbx
 894 06ee 5D       		popq	%rbp
 895              		.cfi_def_cfa 7, 8
 896 06ef C3       		ret
 897              		.cfi_endproc
 898              	.LFE1034:
 899              		.section	.gcc_except_table,"a",@progbits
 900              		.align 4
 901              	.LLSDA1034:
 902 0000 FF       		.byte	0xff
 903 0001 03       		.byte	0x3
 904 0002 D801     		.uleb128 .LLSDATT1034-.LLSDATTD1034
 905              	.LLSDATTD1034:
 906 0004 01       		.byte	0x1
 907 0005 CD01     		.uleb128 .LLSDACSE1034-.LLSDACSB1034
 908              	.LLSDACSB1034:
 909 0007 33       		.uleb128 .LEHB4-.LFB1034
 910 0008 05       		.uleb128 .LEHE4-.LEHB4
 911 0009 00       		.uleb128 0
 912 000a 00       		.uleb128 0
 913 000b 3B       		.uleb128 .LEHB5-.LFB1034
 914 000c 3F       		.uleb128 .LEHE5-.LEHB5
 915 000d 9A06     		.uleb128 .L46-.LFB1034
 916 000f 01       		.uleb128 0x1
 917 0010 7A       		.uleb128 .LEHB6-.LFB1034
 918 0011 4A       		.uleb128 .LEHE6-.LEHB6
 919 0012 F706     		.uleb128 .L48-.LFB1034
 920 0014 01       		.uleb128 0x1
 921 0015 C401     		.uleb128 .LEHB7-.LFB1034
 922 0017 4A       		.uleb128 .LEHE7-.LEHB7
 923 0018 D407     		.uleb128 .L50-.LFB1034
 924 001a 01       		.uleb128 0x1
 925 001b 8E02     		.uleb128 .LEHB8-.LFB1034
 926 001d 4A       		.uleb128 .LEHE8-.LEHB8
 927 001e B108     		.uleb128 .L52-.LFB1034
 928 0020 01       		.uleb128 0x1
 929 0021 D802     		.uleb128 .LEHB9-.LFB1034
 930 0023 4A       		.uleb128 .LEHE9-.LEHB9
 931 0024 8E09     		.uleb128 .L54-.LFB1034
 932 0026 01       		.uleb128 0x1
 933 0027 A203     		.uleb128 .LEHB10-.LFB1034
 934 0029 52       		.uleb128 .LEHE10-.LEHB10
 935 002a EB09     		.uleb128 .L56-.LFB1034
 936 002c 01       		.uleb128 0x1
 937 002d F403     		.uleb128 .LEHB11-.LFB1034
 938 002f 56       		.uleb128 .LEHE11-.LEHB11
 939 0030 C80A     		.uleb128 .L58-.LFB1034
 940 0032 01       		.uleb128 0x1
 941 0033 CA04     		.uleb128 .LEHB12-.LFB1034
 942 0035 56       		.uleb128 .LEHE12-.LEHB12
 943 0036 A50B     		.uleb128 .L60-.LFB1034
 944 0038 01       		.uleb128 0x1
 945 0039 A005     		.uleb128 .LEHB13-.LFB1034
 946 003b 56       		.uleb128 .LEHE13-.LEHB13
 947 003c 820C     		.uleb128 .L62-.LFB1034
 948 003e 01       		.uleb128 0x1
 949 003f FD05     		.uleb128 .LEHB14-.LFB1034
 950 0041 05       		.uleb128 .LEHE14-.LEHB14
 951 0042 00       		.uleb128 0
 952 0043 00       		.uleb128 0
 953 0044 9506     		.uleb128 .LEHB15-.LFB1034
 954 0046 05       		.uleb128 .LEHE15-.LEHB15
 955 0047 00       		.uleb128 0
 956 0048 00       		.uleb128 0
 957 0049 A206     		.uleb128 .LEHB16-.LFB1034
 958 004b 38       		.uleb128 .LEHE16-.LEHB16
 959 004c 8706     		.uleb128 .L47-.LFB1034
 960 004e 00       		.uleb128 0
 961 004f DA06     		.uleb128 .LEHB17-.LFB1034
 962 0051 05       		.uleb128 .LEHE17-.LEHB17
 963 0052 00       		.uleb128 0
 964 0053 00       		.uleb128 0
 965 0054 F206     		.uleb128 .LEHB18-.LFB1034
 966 0056 05       		.uleb128 .LEHE18-.LEHB18
 967 0057 00       		.uleb128 0
 968 0058 00       		.uleb128 0
 969 0059 FF06     		.uleb128 .LEHB19-.LFB1034
 970 005b 38       		.uleb128 .LEHE19-.LEHB19
 971 005c E406     		.uleb128 .L49-.LFB1034
 972 005e 00       		.uleb128 0
 973 005f B707     		.uleb128 .LEHB20-.LFB1034
 974 0061 05       		.uleb128 .LEHE20-.LEHB20
 975 0062 00       		.uleb128 0
 976 0063 00       		.uleb128 0
 977 0064 CF07     		.uleb128 .LEHB21-.LFB1034
 978 0066 05       		.uleb128 .LEHE21-.LEHB21
 979 0067 00       		.uleb128 0
 980 0068 00       		.uleb128 0
 981 0069 DC07     		.uleb128 .LEHB22-.LFB1034
 982 006b 38       		.uleb128 .LEHE22-.LEHB22
 983 006c C107     		.uleb128 .L51-.LFB1034
 984 006e 00       		.uleb128 0
 985 006f 9408     		.uleb128 .LEHB23-.LFB1034
 986 0071 05       		.uleb128 .LEHE23-.LEHB23
 987 0072 00       		.uleb128 0
 988 0073 00       		.uleb128 0
 989 0074 AC08     		.uleb128 .LEHB24-.LFB1034
 990 0076 05       		.uleb128 .LEHE24-.LEHB24
 991 0077 00       		.uleb128 0
 992 0078 00       		.uleb128 0
 993 0079 B908     		.uleb128 .LEHB25-.LFB1034
 994 007b 38       		.uleb128 .LEHE25-.LEHB25
 995 007c 9E08     		.uleb128 .L53-.LFB1034
 996 007e 00       		.uleb128 0
 997 007f F108     		.uleb128 .LEHB26-.LFB1034
 998 0081 05       		.uleb128 .LEHE26-.LEHB26
 999 0082 00       		.uleb128 0
 1000 0083 00       		.uleb128 0
 1001 0084 8909     		.uleb128 .LEHB27-.LFB1034
 1002 0086 05       		.uleb128 .LEHE27-.LEHB27
 1003 0087 00       		.uleb128 0
 1004 0088 00       		.uleb128 0
 1005 0089 9609     		.uleb128 .LEHB28-.LFB1034
 1006 008b 38       		.uleb128 .LEHE28-.LEHB28
 1007 008c FB08     		.uleb128 .L55-.LFB1034
 1008 008e 00       		.uleb128 0
 1009 008f CE09     		.uleb128 .LEHB29-.LFB1034
 1010 0091 05       		.uleb128 .LEHE29-.LEHB29
 1011 0092 00       		.uleb128 0
 1012 0093 00       		.uleb128 0
 1013 0094 E609     		.uleb128 .LEHB30-.LFB1034
 1014 0096 05       		.uleb128 .LEHE30-.LEHB30
 1015 0097 00       		.uleb128 0
 1016 0098 00       		.uleb128 0
 1017 0099 F309     		.uleb128 .LEHB31-.LFB1034
 1018 009b 38       		.uleb128 .LEHE31-.LEHB31
 1019 009c D809     		.uleb128 .L57-.LFB1034
 1020 009e 00       		.uleb128 0
 1021 009f AB0A     		.uleb128 .LEHB32-.LFB1034
 1022 00a1 05       		.uleb128 .LEHE32-.LEHB32
 1023 00a2 00       		.uleb128 0
 1024 00a3 00       		.uleb128 0
 1025 00a4 C30A     		.uleb128 .LEHB33-.LFB1034
 1026 00a6 05       		.uleb128 .LEHE33-.LEHB33
 1027 00a7 00       		.uleb128 0
 1028 00a8 00       		.uleb128 0
 1029 00a9 D00A     		.uleb128 .LEHB34-.LFB1034
 1030 00ab 38       		.uleb128 .LEHE34-.LEHB34
 1031 00ac B50A     		.uleb128 .L59-.LFB1034
 1032 00ae 00       		.uleb128 0
 1033 00af 880B     		.uleb128 .LEHB35-.LFB1034
 1034 00b1 05       		.uleb128 .LEHE35-.LEHB35
 1035 00b2 00       		.uleb128 0
 1036 00b3 00       		.uleb128 0
 1037 00b4 A00B     		.uleb128 .LEHB36-.LFB1034
 1038 00b6 05       		.uleb128 .LEHE36-.LEHB36
 1039 00b7 00       		.uleb128 0
 1040 00b8 00       		.uleb128 0
 1041 00b9 AD0B     		.uleb128 .LEHB37-.LFB1034
 1042 00bb 38       		.uleb128 .LEHE37-.LEHB37
 1043 00bc 920B     		.uleb128 .L61-.LFB1034
 1044 00be 00       		.uleb128 0
 1045 00bf E50B     		.uleb128 .LEHB38-.LFB1034
 1046 00c1 05       		.uleb128 .LEHE38-.LEHB38
 1047 00c2 00       		.uleb128 0
 1048 00c3 00       		.uleb128 0
 1049 00c4 FD0B     		.uleb128 .LEHB39-.LFB1034
 1050 00c6 05       		.uleb128 .LEHE39-.LEHB39
 1051 00c7 00       		.uleb128 0
 1052 00c8 00       		.uleb128 0
 1053 00c9 8A0C     		.uleb128 .LEHB40-.LFB1034
 1054 00cb 38       		.uleb128 .LEHE40-.LEHB40
 1055 00cc EF0B     		.uleb128 .L63-.LFB1034
 1056 00ce 00       		.uleb128 0
 1057 00cf C20C     		.uleb128 .LEHB41-.LFB1034
 1058 00d1 05       		.uleb128 .LEHE41-.LEHB41
 1059 00d2 00       		.uleb128 0
 1060 00d3 00       		.uleb128 0
 1061              	.LLSDACSE1034:
 1062 00d4 01       		.byte	0x1
 1063 00d5 00       		.byte	0
 1064 00d6 0000     		.align 4
 1065 00d8 00000000 		.long	0
 1066              	
 1067              	.LLSDATT1034:
 1068              		.text
 1070              		.section	.rodata
 1071              	.LC12:
 1072 026b 51756575 		.string	"Queue_testPutNoWrap"
 1072      655F7465 
 1072      73745075 
 1072      744E6F57 
 1072      72617000 
 1073              		.section	.text._ZN23TestQueue_testPutNoWrapC2Ev,"axG",@progbits,_ZN23TestQueue_testPutNoWrapC5Ev,c
 1074              		.align 2
 1075              		.weak	_ZN23TestQueue_testPutNoWrapC2Ev
 1077              	_ZN23TestQueue_testPutNoWrapC2Ev:
 1078              	.LFB1036:
  76:testCore.cpp  **** 
  77:testCore.cpp  **** TEST(Queue_testPutNoWrap) {
 1079              		.loc 3 77 0
 1080              		.cfi_startproc
 1081 0000 55       		pushq	%rbp
 1082              		.cfi_def_cfa_offset 16
 1083              		.cfi_offset 6, -16
 1084 0001 4889E5   		movq	%rsp, %rbp
 1085              		.cfi_def_cfa_register 6
 1086 0004 4883EC10 		subq	$16, %rsp
 1087 0008 48897DF8 		movq	%rdi, -8(%rbp)
 1088              	.LBB7:
 1089              		.loc 3 77 0
 1090 000c E8000000 		call	_ZN13UnitTestSuite12GetSuiteNameEv
 1090      00
 1091 0011 4889C2   		movq	%rax, %rdx
 1092 0014 488B45F8 		movq	-8(%rbp), %rax
 1093 0018 41B84D00 		movl	$77, %r8d
 1093      0000
 1094 001e B9000000 		movl	$.LC1, %ecx
 1094      00
 1095 0023 BE000000 		movl	$.LC12, %esi
 1095      00
 1096 0028 4889C7   		movq	%rax, %rdi
 1097 002b E8000000 		call	_ZN8UnitTest4TestC2EPKcS2_S2_i
 1097      00
 1098 0030 488B45F8 		movq	-8(%rbp), %rax
 1099 0034 48C70000 		movq	$_ZTV23TestQueue_testPutNoWrap+16, (%rax)
 1099      000000
 1100              	.LBE7:
 1101 003b C9       		leave
 1102              		.cfi_def_cfa 7, 8
 1103 003c C3       		ret
 1104              		.cfi_endproc
 1105              	.LFE1036:
 1107              		.weak	_ZN23TestQueue_testPutNoWrapC1Ev
 1108              		.set	_ZN23TestQueue_testPutNoWrapC1Ev,_ZN23TestQueue_testPutNoWrapC2Ev
 1109              		.globl	testQueue_testPutNoWrapInstance
 1110              		.bss
 1111 0039 00000000 		.align 32
 1111      000000
 1114              	testQueue_testPutNoWrapInstance:
 1115 0040 00000000 		.zero	56
 1115      00000000 
 1115      00000000 
 1115      00000000 
 1115      00000000 
 1116              		.globl	adderQueue_testPutNoWrap
 1119              	adderQueue_testPutNoWrap:
 1120 0078 00       		.zero	1
 1121              		.section	.rodata
 1122 027f 00       		.align 8
 1123              	.LC13:
 1124 0280 556E6861 		.string	"Unhandled exception in CHECK_EQUAL(1UL, *item)"
 1124      6E646C65 
 1124      64206578 
 1124      63657074 
 1124      696F6E20 
 1125 02af 00       		.align 8
 1126              	.LC14:
 1127 02b0 556E6861 		.string	"Unhandled exception in CHECK_EQUAL(2UL, *item)"
 1127      6E646C65 
 1127      64206578 
 1127      63657074 
 1127      696F6E20 
 1128 02df 00       		.align 8
 1129              	.LC15:
 1130 02e0 556E6861 		.string	"Unhandled exception in CHECK_EQUAL(3UL, *item)"
 1130      6E646C65 
 1130      64206578 
 1130      63657074 
 1130      696F6E20 
 1131 030f 00       		.align 8
 1132              	.LC16:
 1133 0310 556E6861 		.string	"Unhandled exception in CHECK_EQUAL(3UL, queue.putIndex)"
 1133      6E646C65 
 1133      64206578 
 1133      63657074 
 1133      696F6E20 
 1134              		.align 8
 1135              	.LC17:
 1136 0348 556E6861 		.string	"Unhandled exception in CHECK_EQUAL(3UL, queue.numItems)"
 1136      6E646C65 
 1136      64206578 
 1136      63657074 
 1136      696F6E20 
 1137              		.align 8
 1138              	.LC18:
 1139 0380 556E6861 		.string	"Unhandled exception in CHECK_EQUAL(5UL, deref(queue.itemArray[0]))"
 1139      6E646C65 
 1139      64206578 
 1139      63657074 
 1139      696F6E20 
 1140 03c3 00000000 		.align 8
 1140      00
 1141              	.LC19:
 1142 03c8 556E6861 		.string	"Unhandled exception in CHECK_EQUAL(6UL, deref(queue.itemArray[1]))"
 1142      6E646C65 
 1142      64206578 
 1142      63657074 
 1142      696F6E20 
 1143 040b 00000000 		.align 8
 1143      00
 1144              	.LC20:
 1145 0410 556E6861 		.string	"Unhandled exception in CHECK_EQUAL(7UL, deref(queue.itemArray[2]))"
 1145      6E646C65 
 1145      64206578 
 1145      63657074 
 1145      696F6E20 
 1146              		.text
 1147              		.align 2
 1148              		.globl	_ZNK23TestQueue_testPutNoWrap7RunImplEv
 1150              	_ZNK23TestQueue_testPutNoWrap7RunImplEv:
 1151              	.LFB1038:
 1152              		.loc 3 77 0
 1153              		.cfi_startproc
 1154              		.cfi_personality 0x3,__gxx_personality_v0
 1155              		.cfi_lsda 0x3,.LLSDA1038
 1156 06f0 55       		pushq	%rbp
 1157              		.cfi_def_cfa_offset 16
 1158              		.cfi_offset 6, -16
 1159 06f1 4889E5   		movq	%rsp, %rbp
 1160              		.cfi_def_cfa_register 6
 1161 06f4 53       		pushq	%rbx
 1162 06f5 4881EC98 		subq	$152, %rsp
 1162      000000
 1163              		.cfi_offset 3, -24
 1164 06fc 4889BD68 		movq	%rdi, -152(%rbp)
 1164      FFFFFF
 1165              	.LBB8:
  78:testCore.cpp  **** 	struct UnboundedQueue queue;
  79:testCore.cpp  **** 	uint32 *item;
  80:testCore.cpp  **** 	m_count = 1;
 1166              		.loc 3 80 0
 1167 0703 C7050000 		movl	$1, _ZL7m_count(%rip)
 1167      00000100 
 1167      0000
  81:testCore.cpp  **** 
  82:testCore.cpp  **** 	// Create queue
  83:testCore.cpp  **** 	USBStatus status = queueInit(&queue, 4, (CreateFunc)createInt, (DestroyFunc)destroyInt);
 1168              		.loc 3 83 0
 1169 070d 488D45B0 		leaq	-80(%rbp), %rax
 1170 0711 B9000000 		movl	$destroyInt, %ecx
 1170      00
 1171 0716 BA000000 		movl	$createInt, %edx
 1171      00
 1172 071b BE040000 		movl	$4, %esi
 1172      00
 1173 0720 4889C7   		movq	%rax, %rdi
 1174              	.LEHB42:
 1175 0723 E8000000 		call	queueInit
 1175      00
 1176              	.LEHE42:
 1177 0728 898578FF 		movl	%eax, -136(%rbp)
 1177      FFFF
 1178              	.LEHB43:
  84:testCore.cpp  **** 	CHECK_EQUAL(USB_SUCCESS, status);
 1179              		.loc 3 84 0
 1180 072e E8000000 		call	_ZN8UnitTest11CurrentTest7DetailsEv
 1180      00
 1181 0733 488B08   		movq	(%rax), %rcx
 1182 0736 488D4590 		leaq	-112(%rbp), %rax
 1183 073a BA540000 		movl	$84, %edx
 1183      00
 1184 073f 4889CE   		movq	%rcx, %rsi
 1185 0742 4889C7   		movq	%rax, %rdi
 1186 0745 E8000000 		call	_ZN8UnitTest11TestDetailsC1ERKS0_i
 1186      00
 1187              		.loc 3 84 0 is_stmt 0 discriminator 1
 1188 074a C7458800 		movl	$0, -120(%rbp)
 1188      000000
 1189 0751 E8000000 		call	_ZN8UnitTest11CurrentTest7ResultsEv
 1189      00
 1190 0756 488B00   		movq	(%rax), %rax
 1191 0759 488D4D90 		leaq	-112(%rbp), %rcx
 1192 075d 488D9578 		leaq	-136(%rbp), %rdx
 1192      FFFFFF
 1193 0764 488D7588 		leaq	-120(%rbp), %rsi
 1194 0768 4889C7   		movq	%rax, %rdi
 1195 076b E8000000 		call	_ZN8UnitTest10CheckEqualI9USBStatusS1_EEvRNS_11TestResultsERKT_RKT0_RKNS_11TestDetailsE
 1195      00
 1196              	.LEHE43:
 1197              	.L69:
  85:testCore.cpp  **** 
  86:testCore.cpp  **** 	// Put three items into the queue
  87:testCore.cpp  **** 	status = queuePut(&queue, (Item*)&item);
 1198              		.loc 3 87 0 is_stmt 1
 1199 0770 488D5580 		leaq	-128(%rbp), %rdx
 1200 0774 488D45B0 		leaq	-80(%rbp), %rax
 1201 0778 4889D6   		movq	%rdx, %rsi
 1202 077b 4889C7   		movq	%rax, %rdi
 1203              	.LEHB44:
 1204 077e E8000000 		call	queuePut
 1204      00
 1205              	.LEHE44:
 1206 0783 898578FF 		movl	%eax, -136(%rbp)
 1206      FFFF
 1207              	.LEHB45:
  88:testCore.cpp  **** 	CHECK_EQUAL(USB_SUCCESS, status);
 1208              		.loc 3 88 0
 1209 0789 E8000000 		call	_ZN8UnitTest11CurrentTest7DetailsEv
 1209      00
 1210 078e 488B08   		movq	(%rax), %rcx
 1211 0791 488D4590 		leaq	-112(%rbp), %rax
 1212 0795 BA580000 		movl	$88, %edx
 1212      00
 1213 079a 4889CE   		movq	%rcx, %rsi
 1214 079d 4889C7   		movq	%rax, %rdi
 1215 07a0 E8000000 		call	_ZN8UnitTest11TestDetailsC1ERKS0_i
 1215      00
 1216              		.loc 3 88 0 is_stmt 0 discriminator 1
 1217 07a5 C7458800 		movl	$0, -120(%rbp)
 1217      000000
 1218 07ac E8000000 		call	_ZN8UnitTest11CurrentTest7ResultsEv
 1218      00
 1219 07b1 488B00   		movq	(%rax), %rax
 1220 07b4 488D4D90 		leaq	-112(%rbp), %rcx
 1221 07b8 488D9578 		leaq	-136(%rbp), %rdx
 1221      FFFFFF
 1222 07bf 488D7588 		leaq	-120(%rbp), %rsi
 1223 07c3 4889C7   		movq	%rax, %rdi
 1224 07c6 E8000000 		call	_ZN8UnitTest10CheckEqualI9USBStatusS1_EEvRNS_11TestResultsERKT_RKT0_RKNS_11TestDetailsE
 1224      00
 1225              	.LEHE45:
 1226              	.L72:
 1227              	.LEHB46:
  89:testCore.cpp  **** 	CHECK_EQUAL(1UL, *item);
 1228              		.loc 3 89 0 is_stmt 1
 1229 07cb E8000000 		call	_ZN8UnitTest11CurrentTest7DetailsEv
 1229      00
 1230 07d0 488B08   		movq	(%rax), %rcx
 1231 07d3 488D4590 		leaq	-112(%rbp), %rax
 1232 07d7 BA590000 		movl	$89, %edx
 1232      00
 1233 07dc 4889CE   		movq	%rcx, %rsi
 1234 07df 4889C7   		movq	%rax, %rdi
 1235 07e2 E8000000 		call	_ZN8UnitTest11TestDetailsC1ERKS0_i
 1235      00
 1236              		.loc 3 89 0 is_stmt 0 discriminator 1
 1237 07e7 488B5D80 		movq	-128(%rbp), %rbx
 1238 07eb 48C74588 		movq	$1, -120(%rbp)
 1238      01000000 
 1239 07f3 E8000000 		call	_ZN8UnitTest11CurrentTest7ResultsEv
 1239      00
 1240 07f8 488B00   		movq	(%rax), %rax
 1241 07fb 488D5590 		leaq	-112(%rbp), %rdx
 1242 07ff 488D7588 		leaq	-120(%rbp), %rsi
 1243 0803 4889D1   		movq	%rdx, %rcx
 1244 0806 4889DA   		movq	%rbx, %rdx
 1245 0809 4889C7   		movq	%rax, %rdi
 1246 080c E8000000 		call	_ZN8UnitTest10CheckEqualImjEEvRNS_11TestResultsERKT_RKT0_RKNS_11TestDetailsE
 1246      00
 1247              	.LEHE46:
 1248              	.L75:
  90:testCore.cpp  **** 	*item = 5;
 1249              		.loc 3 90 0 is_stmt 1
 1250 0811 488B4580 		movq	-128(%rbp), %rax
 1251 0815 C7000500 		movl	$5, (%rax)
 1251      0000
  91:testCore.cpp  **** 	queueCommitPut(&queue);
 1252              		.loc 3 91 0
 1253 081b 488D45B0 		leaq	-80(%rbp), %rax
 1254 081f 4889C7   		movq	%rax, %rdi
 1255              	.LEHB47:
 1256 0822 E8000000 		call	queueCommitPut
 1256      00
  92:testCore.cpp  **** 	status = queuePut(&queue, (Item*)&item);
 1257              		.loc 3 92 0
 1258 0827 488D5580 		leaq	-128(%rbp), %rdx
 1259 082b 488D45B0 		leaq	-80(%rbp), %rax
 1260 082f 4889D6   		movq	%rdx, %rsi
 1261 0832 4889C7   		movq	%rax, %rdi
 1262 0835 E8000000 		call	queuePut
 1262      00
 1263              	.LEHE47:
 1264 083a 898578FF 		movl	%eax, -136(%rbp)
 1264      FFFF
 1265              	.LEHB48:
  93:testCore.cpp  **** 	CHECK_EQUAL(USB_SUCCESS, status);
 1266              		.loc 3 93 0
 1267 0840 E8000000 		call	_ZN8UnitTest11CurrentTest7DetailsEv
 1267      00
 1268 0845 488B08   		movq	(%rax), %rcx
 1269 0848 488D4590 		leaq	-112(%rbp), %rax
 1270 084c BA5D0000 		movl	$93, %edx
 1270      00
 1271 0851 4889CE   		movq	%rcx, %rsi
 1272 0854 4889C7   		movq	%rax, %rdi
 1273 0857 E8000000 		call	_ZN8UnitTest11TestDetailsC1ERKS0_i
 1273      00
 1274              		.loc 3 93 0 is_stmt 0 discriminator 1
 1275 085c C7458800 		movl	$0, -120(%rbp)
 1275      000000
 1276 0863 E8000000 		call	_ZN8UnitTest11CurrentTest7ResultsEv
 1276      00
 1277 0868 488B00   		movq	(%rax), %rax
 1278 086b 488D4D90 		leaq	-112(%rbp), %rcx
 1279 086f 488D9578 		leaq	-136(%rbp), %rdx
 1279      FFFFFF
 1280 0876 488D7588 		leaq	-120(%rbp), %rsi
 1281 087a 4889C7   		movq	%rax, %rdi
 1282 087d E8000000 		call	_ZN8UnitTest10CheckEqualI9USBStatusS1_EEvRNS_11TestResultsERKT_RKT0_RKNS_11TestDetailsE
 1282      00
 1283              	.LEHE48:
 1284              	.L78:
 1285              	.LEHB49:
  94:testCore.cpp  **** 	CHECK_EQUAL(2UL, *item);
 1286              		.loc 3 94 0 is_stmt 1
 1287 0882 E8000000 		call	_ZN8UnitTest11CurrentTest7DetailsEv
 1287      00
 1288 0887 488B08   		movq	(%rax), %rcx
 1289 088a 488D4590 		leaq	-112(%rbp), %rax
 1290 088e BA5E0000 		movl	$94, %edx
 1290      00
 1291 0893 4889CE   		movq	%rcx, %rsi
 1292 0896 4889C7   		movq	%rax, %rdi
 1293 0899 E8000000 		call	_ZN8UnitTest11TestDetailsC1ERKS0_i
 1293      00
 1294              		.loc 3 94 0 is_stmt 0 discriminator 1
 1295 089e 488B5D80 		movq	-128(%rbp), %rbx
 1296 08a2 48C74588 		movq	$2, -120(%rbp)
 1296      02000000 
 1297 08aa E8000000 		call	_ZN8UnitTest11CurrentTest7ResultsEv
 1297      00
 1298 08af 488B00   		movq	(%rax), %rax
 1299 08b2 488D5590 		leaq	-112(%rbp), %rdx
 1300 08b6 488D7588 		leaq	-120(%rbp), %rsi
 1301 08ba 4889D1   		movq	%rdx, %rcx
 1302 08bd 4889DA   		movq	%rbx, %rdx
 1303 08c0 4889C7   		movq	%rax, %rdi
 1304 08c3 E8000000 		call	_ZN8UnitTest10CheckEqualImjEEvRNS_11TestResultsERKT_RKT0_RKNS_11TestDetailsE
 1304      00
 1305              	.LEHE49:
 1306              	.L81:
  95:testCore.cpp  **** 	*item = 6;
 1307              		.loc 3 95 0 is_stmt 1
 1308 08c8 488B4580 		movq	-128(%rbp), %rax
 1309 08cc C7000600 		movl	$6, (%rax)
 1309      0000
  96:testCore.cpp  **** 	queueCommitPut(&queue);
 1310              		.loc 3 96 0
 1311 08d2 488D45B0 		leaq	-80(%rbp), %rax
 1312 08d6 4889C7   		movq	%rax, %rdi
 1313              	.LEHB50:
 1314 08d9 E8000000 		call	queueCommitPut
 1314      00
  97:testCore.cpp  **** 	status = queuePut(&queue, (Item*)&item);
 1315              		.loc 3 97 0
 1316 08de 488D5580 		leaq	-128(%rbp), %rdx
 1317 08e2 488D45B0 		leaq	-80(%rbp), %rax
 1318 08e6 4889D6   		movq	%rdx, %rsi
 1319 08e9 4889C7   		movq	%rax, %rdi
 1320 08ec E8000000 		call	queuePut
 1320      00
 1321              	.LEHE50:
 1322 08f1 898578FF 		movl	%eax, -136(%rbp)
 1322      FFFF
 1323              	.LEHB51:
  98:testCore.cpp  **** 	CHECK_EQUAL(USB_SUCCESS, status);
 1324              		.loc 3 98 0
 1325 08f7 E8000000 		call	_ZN8UnitTest11CurrentTest7DetailsEv
 1325      00
 1326 08fc 488B08   		movq	(%rax), %rcx
 1327 08ff 488D4590 		leaq	-112(%rbp), %rax
 1328 0903 BA620000 		movl	$98, %edx
 1328      00
 1329 0908 4889CE   		movq	%rcx, %rsi
 1330 090b 4889C7   		movq	%rax, %rdi
 1331 090e E8000000 		call	_ZN8UnitTest11TestDetailsC1ERKS0_i
 1331      00
 1332              		.loc 3 98 0 is_stmt 0 discriminator 1
 1333 0913 C7458800 		movl	$0, -120(%rbp)
 1333      000000
 1334 091a E8000000 		call	_ZN8UnitTest11CurrentTest7ResultsEv
 1334      00
 1335 091f 488B00   		movq	(%rax), %rax
 1336 0922 488D4D90 		leaq	-112(%rbp), %rcx
 1337 0926 488D9578 		leaq	-136(%rbp), %rdx
 1337      FFFFFF
 1338 092d 488D7588 		leaq	-120(%rbp), %rsi
 1339 0931 4889C7   		movq	%rax, %rdi
 1340 0934 E8000000 		call	_ZN8UnitTest10CheckEqualI9USBStatusS1_EEvRNS_11TestResultsERKT_RKT0_RKNS_11TestDetailsE
 1340      00
 1341              	.LEHE51:
 1342              	.L84:
 1343              	.LEHB52:
  99:testCore.cpp  **** 	CHECK_EQUAL(3UL, *item);
 1344              		.loc 3 99 0 is_stmt 1
 1345 0939 E8000000 		call	_ZN8UnitTest11CurrentTest7DetailsEv
 1345      00
 1346 093e 488B08   		movq	(%rax), %rcx
 1347 0941 488D4590 		leaq	-112(%rbp), %rax
 1348 0945 BA630000 		movl	$99, %edx
 1348      00
 1349 094a 4889CE   		movq	%rcx, %rsi
 1350 094d 4889C7   		movq	%rax, %rdi
 1351 0950 E8000000 		call	_ZN8UnitTest11TestDetailsC1ERKS0_i
 1351      00
 1352              		.loc 3 99 0 is_stmt 0 discriminator 1
 1353 0955 488B5D80 		movq	-128(%rbp), %rbx
 1354 0959 48C74588 		movq	$3, -120(%rbp)
 1354      03000000 
 1355 0961 E8000000 		call	_ZN8UnitTest11CurrentTest7ResultsEv
 1355      00
 1356 0966 488B00   		movq	(%rax), %rax
 1357 0969 488D5590 		leaq	-112(%rbp), %rdx
 1358 096d 488D7588 		leaq	-120(%rbp), %rsi
 1359 0971 4889D1   		movq	%rdx, %rcx
 1360 0974 4889DA   		movq	%rbx, %rdx
 1361 0977 4889C7   		movq	%rax, %rdi
 1362 097a E8000000 		call	_ZN8UnitTest10CheckEqualImjEEvRNS_11TestResultsERKT_RKT0_RKNS_11TestDetailsE
 1362      00
 1363              	.LEHE52:
 1364              	.L87:
 100:testCore.cpp  **** 	*item = 7;
 1365              		.loc 3 100 0 is_stmt 1
 1366 097f 488B4580 		movq	-128(%rbp), %rax
 1367 0983 C7000700 		movl	$7, (%rax)
 1367      0000
 101:testCore.cpp  **** 	queueCommitPut(&queue);
 1368              		.loc 3 101 0
 1369 0989 488D45B0 		leaq	-80(%rbp), %rax
 1370 098d 4889C7   		movq	%rax, %rdi
 1371              	.LEHB53:
 1372 0990 E8000000 		call	queueCommitPut
 1372      00
 1373              	.LEHE53:
 1374              	.LEHB54:
 102:testCore.cpp  **** 
 103:testCore.cpp  **** 	// Verify
 104:testCore.cpp  **** 	CHECK_EQUAL(4UL, queue.capacity);
 1375              		.loc 3 104 0
 1376 0995 E8000000 		call	_ZN8UnitTest11CurrentTest7DetailsEv
 1376      00
 1377 099a 488B08   		movq	(%rax), %rcx
 1378 099d 488D4590 		leaq	-112(%rbp), %rax
 1379 09a1 BA680000 		movl	$104, %edx
 1379      00
 1380 09a6 4889CE   		movq	%rcx, %rsi
 1381 09a9 4889C7   		movq	%rax, %rdi
 1382 09ac E8000000 		call	_ZN8UnitTest11TestDetailsC1ERKS0_i
 1382      00
 1383              		.loc 3 104 0 is_stmt 0 discriminator 1
 1384 09b1 48C74588 		movq	$4, -120(%rbp)
 1384      04000000 
 1385 09b9 E8000000 		call	_ZN8UnitTest11CurrentTest7ResultsEv
 1385      00
 1386 09be 488B00   		movq	(%rax), %rax
 1387 09c1 488D5590 		leaq	-112(%rbp), %rdx
 1388 09c5 488D4DB0 		leaq	-80(%rbp), %rcx
 1389 09c9 488D7908 		leaq	8(%rcx), %rdi
 1390 09cd 488D7588 		leaq	-120(%rbp), %rsi
 1391 09d1 4889D1   		movq	%rdx, %rcx
 1392 09d4 4889FA   		movq	%rdi, %rdx
 1393 09d7 4889C7   		movq	%rax, %rdi
 1394 09da E8000000 		call	_ZN8UnitTest10CheckEqualImmEEvRNS_11TestResultsERKT_RKT0_RKNS_11TestDetailsE
 1394      00
 1395              	.LEHE54:
 1396              	.L90:
 1397              	.LEHB55:
 105:testCore.cpp  **** 	CHECK_EQUAL(3UL, queue.putIndex);
 1398              		.loc 3 105 0 is_stmt 1
 1399 09df E8000000 		call	_ZN8UnitTest11CurrentTest7DetailsEv
 1399      00
 1400 09e4 488B08   		movq	(%rax), %rcx
 1401 09e7 488D4590 		leaq	-112(%rbp), %rax
 1402 09eb BA690000 		movl	$105, %edx
 1402      00
 1403 09f0 4889CE   		movq	%rcx, %rsi
 1404 09f3 4889C7   		movq	%rax, %rdi
 1405 09f6 E8000000 		call	_ZN8UnitTest11TestDetailsC1ERKS0_i
 1405      00
 1406              		.loc 3 105 0 is_stmt 0 discriminator 1
 1407 09fb 48C74588 		movq	$3, -120(%rbp)
 1407      03000000 
 1408 0a03 E8000000 		call	_ZN8UnitTest11CurrentTest7ResultsEv
 1408      00
 1409 0a08 488B00   		movq	(%rax), %rax
 1410 0a0b 488D5590 		leaq	-112(%rbp), %rdx
 1411 0a0f 488D4DB0 		leaq	-80(%rbp), %rcx
 1412 0a13 488D7910 		leaq	16(%rcx), %rdi
 1413 0a17 488D7588 		leaq	-120(%rbp), %rsi
 1414 0a1b 4889D1   		movq	%rdx, %rcx
 1415 0a1e 4889FA   		movq	%rdi, %rdx
 1416 0a21 4889C7   		movq	%rax, %rdi
 1417 0a24 E8000000 		call	_ZN8UnitTest10CheckEqualImmEEvRNS_11TestResultsERKT_RKT0_RKNS_11TestDetailsE
 1417      00
 1418              	.LEHE55:
 1419              	.L93:
 1420              	.LEHB56:
 106:testCore.cpp  **** 	CHECK_EQUAL(0UL, queue.takeIndex);
 1421              		.loc 3 106 0 is_stmt 1
 1422 0a29 E8000000 		call	_ZN8UnitTest11CurrentTest7DetailsEv
 1422      00
 1423 0a2e 488B08   		movq	(%rax), %rcx
 1424 0a31 488D4590 		leaq	-112(%rbp), %rax
 1425 0a35 BA6A0000 		movl	$106, %edx
 1425      00
 1426 0a3a 4889CE   		movq	%rcx, %rsi
 1427 0a3d 4889C7   		movq	%rax, %rdi
 1428 0a40 E8000000 		call	_ZN8UnitTest11TestDetailsC1ERKS0_i
 1428      00
 1429              		.loc 3 106 0 is_stmt 0 discriminator 1
 1430 0a45 48C74588 		movq	$0, -120(%rbp)
 1430      00000000 
 1431 0a4d E8000000 		call	_ZN8UnitTest11CurrentTest7ResultsEv
 1431      00
 1432 0a52 488B00   		movq	(%rax), %rax
 1433 0a55 488D5590 		leaq	-112(%rbp), %rdx
 1434 0a59 488D4DB0 		leaq	-80(%rbp), %rcx
 1435 0a5d 488D7918 		leaq	24(%rcx), %rdi
 1436 0a61 488D7588 		leaq	-120(%rbp), %rsi
 1437 0a65 4889D1   		movq	%rdx, %rcx
 1438 0a68 4889FA   		movq	%rdi, %rdx
 1439 0a6b 4889C7   		movq	%rax, %rdi
 1440 0a6e E8000000 		call	_ZN8UnitTest10CheckEqualImmEEvRNS_11TestResultsERKT_RKT0_RKNS_11TestDetailsE
 1440      00
 1441              	.LEHE56:
 1442              	.L96:
 1443              	.LEHB57:
 107:testCore.cpp  **** 	CHECK_EQUAL(3UL, queue.numItems);
 1444              		.loc 3 107 0 is_stmt 1
 1445 0a73 E8000000 		call	_ZN8UnitTest11CurrentTest7DetailsEv
 1445      00
 1446 0a78 488B08   		movq	(%rax), %rcx
 1447 0a7b 488D4590 		leaq	-112(%rbp), %rax
 1448 0a7f BA6B0000 		movl	$107, %edx
 1448      00
 1449 0a84 4889CE   		movq	%rcx, %rsi
 1450 0a87 4889C7   		movq	%rax, %rdi
 1451 0a8a E8000000 		call	_ZN8UnitTest11TestDetailsC1ERKS0_i
 1451      00
 1452              		.loc 3 107 0 is_stmt 0 discriminator 1
 1453 0a8f 48C74588 		movq	$3, -120(%rbp)
 1453      03000000 
 1454 0a97 E8000000 		call	_ZN8UnitTest11CurrentTest7ResultsEv
 1454      00
 1455 0a9c 488B00   		movq	(%rax), %rax
 1456 0a9f 488D5590 		leaq	-112(%rbp), %rdx
 1457 0aa3 488D4DB0 		leaq	-80(%rbp), %rcx
 1458 0aa7 488D7920 		leaq	32(%rcx), %rdi
 1459 0aab 488D7588 		leaq	-120(%rbp), %rsi
 1460 0aaf 4889D1   		movq	%rdx, %rcx
 1461 0ab2 4889FA   		movq	%rdi, %rdx
 1462 0ab5 4889C7   		movq	%rax, %rdi
 1463 0ab8 E8000000 		call	_ZN8UnitTest10CheckEqualImmEEvRNS_11TestResultsERKT_RKT0_RKNS_11TestDetailsE
 1463      00
 1464              	.LEHE57:
 1465              	.L99:
 1466              	.LEHB58:
 108:testCore.cpp  **** 
 109:testCore.cpp  **** 	// Verify array
 110:testCore.cpp  **** 	CHECK_EQUAL(5UL, deref(queue.itemArray[0]));
 1467              		.loc 3 110 0 is_stmt 1
 1468 0abd E8000000 		call	_ZN8UnitTest11CurrentTest7DetailsEv
 1468      00
 1469 0ac2 488B08   		movq	(%rax), %rcx
 1470 0ac5 488D4590 		leaq	-112(%rbp), %rax
 1471 0ac9 BA6E0000 		movl	$110, %edx
 1471      00
 1472 0ace 4889CE   		movq	%rcx, %rsi
 1473 0ad1 4889C7   		movq	%rax, %rdi
 1474 0ad4 E8000000 		call	_ZN8UnitTest11TestDetailsC1ERKS0_i
 1474      00
 1475              		.loc 3 110 0 is_stmt 0 discriminator 1
 1476 0ad9 488B45B0 		movq	-80(%rbp), %rax
 1477 0add 488B00   		movq	(%rax), %rax
 1478 0ae0 4889C7   		movq	%rax, %rdi
 1479 0ae3 E8A1F5FF 		call	_ZL5derefPKv
 1479      FF
 1480 0ae8 89857CFF 		movl	%eax, -132(%rbp)
 1480      FFFF
 1481 0aee 48C74588 		movq	$5, -120(%rbp)
 1481      05000000 
 1482 0af6 E8000000 		call	_ZN8UnitTest11CurrentTest7ResultsEv
 1482      00
 1483 0afb 488B00   		movq	(%rax), %rax
 1484 0afe 488D4D90 		leaq	-112(%rbp), %rcx
 1485 0b02 488D957C 		leaq	-132(%rbp), %rdx
 1485      FFFFFF
 1486 0b09 488D7588 		leaq	-120(%rbp), %rsi
 1487 0b0d 4889C7   		movq	%rax, %rdi
 1488 0b10 E8000000 		call	_ZN8UnitTest10CheckEqualImjEEvRNS_11TestResultsERKT_RKT0_RKNS_11TestDetailsE
 1488      00
 1489              	.LEHE58:
 1490              	.L102:
 1491              	.LEHB59:
 111:testCore.cpp  **** 	CHECK_EQUAL(6UL, deref(queue.itemArray[1]));
 1492              		.loc 3 111 0 is_stmt 1
 1493 0b15 E8000000 		call	_ZN8UnitTest11CurrentTest7DetailsEv
 1493      00
 1494 0b1a 488B08   		movq	(%rax), %rcx
 1495 0b1d 488D4590 		leaq	-112(%rbp), %rax
 1496 0b21 BA6F0000 		movl	$111, %edx
 1496      00
 1497 0b26 4889CE   		movq	%rcx, %rsi
 1498 0b29 4889C7   		movq	%rax, %rdi
 1499 0b2c E8000000 		call	_ZN8UnitTest11TestDetailsC1ERKS0_i
 1499      00
 1500              		.loc 3 111 0 is_stmt 0 discriminator 1
 1501 0b31 488B45B0 		movq	-80(%rbp), %rax
 1502 0b35 4883C008 		addq	$8, %rax
 1503 0b39 488B00   		movq	(%rax), %rax
 1504 0b3c 4889C7   		movq	%rax, %rdi
 1505 0b3f E845F5FF 		call	_ZL5derefPKv
 1505      FF
 1506 0b44 89857CFF 		movl	%eax, -132(%rbp)
 1506      FFFF
 1507 0b4a 48C74588 		movq	$6, -120(%rbp)
 1507      06000000 
 1508 0b52 E8000000 		call	_ZN8UnitTest11CurrentTest7ResultsEv
 1508      00
 1509 0b57 488B00   		movq	(%rax), %rax
 1510 0b5a 488D4D90 		leaq	-112(%rbp), %rcx
 1511 0b5e 488D957C 		leaq	-132(%rbp), %rdx
 1511      FFFFFF
 1512 0b65 488D7588 		leaq	-120(%rbp), %rsi
 1513 0b69 4889C7   		movq	%rax, %rdi
 1514 0b6c E8000000 		call	_ZN8UnitTest10CheckEqualImjEEvRNS_11TestResultsERKT_RKT0_RKNS_11TestDetailsE
 1514      00
 1515              	.LEHE59:
 1516              	.L105:
 1517              	.LEHB60:
 112:testCore.cpp  **** 	CHECK_EQUAL(7UL, deref(queue.itemArray[2]));
 1518              		.loc 3 112 0 is_stmt 1
 1519 0b71 E8000000 		call	_ZN8UnitTest11CurrentTest7DetailsEv
 1519      00
 1520 0b76 488B08   		movq	(%rax), %rcx
 1521 0b79 488D4590 		leaq	-112(%rbp), %rax
 1522 0b7d BA700000 		movl	$112, %edx
 1522      00
 1523 0b82 4889CE   		movq	%rcx, %rsi
 1524 0b85 4889C7   		movq	%rax, %rdi
 1525 0b88 E8000000 		call	_ZN8UnitTest11TestDetailsC1ERKS0_i
 1525      00
 1526              		.loc 3 112 0 is_stmt 0 discriminator 1
 1527 0b8d 488B45B0 		movq	-80(%rbp), %rax
 1528 0b91 4883C010 		addq	$16, %rax
 1529 0b95 488B00   		movq	(%rax), %rax
 1530 0b98 4889C7   		movq	%rax, %rdi
 1531 0b9b E8E9F4FF 		call	_ZL5derefPKv
 1531      FF
 1532 0ba0 89857CFF 		movl	%eax, -132(%rbp)
 1532      FFFF
 1533 0ba6 48C74588 		movq	$7, -120(%rbp)
 1533      07000000 
 1534 0bae E8000000 		call	_ZN8UnitTest11CurrentTest7ResultsEv
 1534      00
 1535 0bb3 488B00   		movq	(%rax), %rax
 1536 0bb6 488D4D90 		leaq	-112(%rbp), %rcx
 1537 0bba 488D957C 		leaq	-132(%rbp), %rdx
 1537      FFFFFF
 1538 0bc1 488D7588 		leaq	-120(%rbp), %rsi
 1539 0bc5 4889C7   		movq	%rax, %rdi
 1540 0bc8 E8000000 		call	_ZN8UnitTest10CheckEqualImjEEvRNS_11TestResultsERKT_RKT0_RKNS_11TestDetailsE
 1540      00
 1541              	.LEHE60:
 1542              	.L108:
 1543              	.LEHB61:
 113:testCore.cpp  **** 	CHECK_EQUAL(4UL, deref(queue.itemArray[3]));
 1544              		.loc 3 113 0 is_stmt 1
 1545 0bcd E8000000 		call	_ZN8UnitTest11CurrentTest7DetailsEv
 1545      00
 1546 0bd2 488B08   		movq	(%rax), %rcx
 1547 0bd5 488D4590 		leaq	-112(%rbp), %rax
 1548 0bd9 BA710000 		movl	$113, %edx
 1548      00
 1549 0bde 4889CE   		movq	%rcx, %rsi
 1550 0be1 4889C7   		movq	%rax, %rdi
 1551 0be4 E8000000 		call	_ZN8UnitTest11TestDetailsC1ERKS0_i
 1551      00
 1552              		.loc 3 113 0 is_stmt 0 discriminator 1
 1553 0be9 488B45B0 		movq	-80(%rbp), %rax
 1554 0bed 4883C018 		addq	$24, %rax
 1555 0bf1 488B00   		movq	(%rax), %rax
 1556 0bf4 4889C7   		movq	%rax, %rdi
 1557 0bf7 E88DF4FF 		call	_ZL5derefPKv
 1557      FF
 1558 0bfc 89857CFF 		movl	%eax, -132(%rbp)
 1558      FFFF
 1559 0c02 48C74588 		movq	$4, -120(%rbp)
 1559      04000000 
 1560 0c0a E8000000 		call	_ZN8UnitTest11CurrentTest7ResultsEv
 1560      00
 1561 0c0f 488B00   		movq	(%rax), %rax
 1562 0c12 488D4D90 		leaq	-112(%rbp), %rcx
 1563 0c16 488D957C 		leaq	-132(%rbp), %rdx
 1563      FFFFFF
 1564 0c1d 488D7588 		leaq	-120(%rbp), %rsi
 1565 0c21 4889C7   		movq	%rax, %rdi
 1566 0c24 E8000000 		call	_ZN8UnitTest10CheckEqualImjEEvRNS_11TestResultsERKT_RKT0_RKNS_11TestDetailsE
 1566      00
 1567              	.LEHE61:
 1568              	.L111:
 114:testCore.cpp  **** 
 115:testCore.cpp  **** 	// Clean up
 116:testCore.cpp  **** 	queueDestroy(&queue);
 1569              		.loc 3 116 0 is_stmt 1
 1570 0c29 488D45B0 		leaq	-80(%rbp), %rax
 1571 0c2d 4889C7   		movq	%rax, %rdi
 1572              	.LEHB62:
 1573 0c30 E8000000 		call	queueDestroy
 1573      00
 1574              	.LEHE62:
 1575 0c35 E9730500 		jmp	.L142
 1575      00
 1576              	.L113:
 1577 0c3a 4889C3   		movq	%rax, %rbx
  84:testCore.cpp  **** 
 1578              		.loc 3 84 0
 1579 0c3d E8000000 		call	__cxa_end_catch
 1579      00
 1580 0c42 4889D8   		movq	%rbx, %rax
 1581 0c45 4889C7   		movq	%rax, %rdi
 1582              	.LEHB63:
 1583 0c48 E8000000 		call	_Unwind_Resume
 1583      00
 1584              	.LEHE63:
 1585              	.L112:
 1586 0c4d 4889C7   		movq	%rax, %rdi
 1587 0c50 E8000000 		call	__cxa_begin_catch
 1587      00
 1588              	.LEHB64:
 1589 0c55 E8000000 		call	_ZN8UnitTest11CurrentTest7DetailsEv
 1589      00
 1590 0c5a 488B08   		movq	(%rax), %rcx
 1591 0c5d 488D4590 		leaq	-112(%rbp), %rax
 1592 0c61 BA540000 		movl	$84, %edx
 1592      00
 1593 0c66 4889CE   		movq	%rcx, %rsi
 1594 0c69 4889C7   		movq	%rax, %rdi
 1595 0c6c E8000000 		call	_ZN8UnitTest11TestDetailsC1ERKS0_i
 1595      00
  84:testCore.cpp  **** 
 1596              		.loc 3 84 0 is_stmt 0 discriminator 1
 1597 0c71 E8000000 		call	_ZN8UnitTest11CurrentTest7ResultsEv
 1597      00
 1598 0c76 488B00   		movq	(%rax), %rax
 1599 0c79 488D4D90 		leaq	-112(%rbp), %rcx
 1600 0c7d BA000000 		movl	$.LC3, %edx
 1600      00
 1601 0c82 4889CE   		movq	%rcx, %rsi
 1602 0c85 4889C7   		movq	%rax, %rdi
 1603 0c88 E8000000 		call	_ZN8UnitTest11TestResults13OnTestFailureERKNS_11TestDetailsEPKc
 1603      00
 1604              	.LEHE64:
 1605              	.LEHB65:
 1606 0c8d E8000000 		call	__cxa_end_catch
 1606      00
 1607              	.LEHE65:
 1608 0c92 E9D9FAFF 		jmp	.L69
 1608      FF
 1609              	.L115:
 1610 0c97 4889C3   		movq	%rax, %rbx
  88:testCore.cpp  **** 	CHECK_EQUAL(1UL, *item);
 1611              		.loc 3 88 0 is_stmt 1
 1612 0c9a E8000000 		call	__cxa_end_catch
 1612      00
 1613 0c9f 4889D8   		movq	%rbx, %rax
 1614 0ca2 4889C7   		movq	%rax, %rdi
 1615              	.LEHB66:
 1616 0ca5 E8000000 		call	_Unwind_Resume
 1616      00
 1617              	.LEHE66:
 1618              	.L114:
 1619 0caa 4889C7   		movq	%rax, %rdi
 1620 0cad E8000000 		call	__cxa_begin_catch
 1620      00
 1621              	.LEHB67:
 1622 0cb2 E8000000 		call	_ZN8UnitTest11CurrentTest7DetailsEv
 1622      00
 1623 0cb7 488B08   		movq	(%rax), %rcx
 1624 0cba 488D4590 		leaq	-112(%rbp), %rax
 1625 0cbe BA580000 		movl	$88, %edx
 1625      00
 1626 0cc3 4889CE   		movq	%rcx, %rsi
 1627 0cc6 4889C7   		movq	%rax, %rdi
 1628 0cc9 E8000000 		call	_ZN8UnitTest11TestDetailsC1ERKS0_i
 1628      00
  88:testCore.cpp  **** 	CHECK_EQUAL(1UL, *item);
 1629              		.loc 3 88 0 is_stmt 0 discriminator 1
 1630 0cce E8000000 		call	_ZN8UnitTest11CurrentTest7ResultsEv
 1630      00
 1631 0cd3 488B00   		movq	(%rax), %rax
 1632 0cd6 488D4D90 		leaq	-112(%rbp), %rcx
 1633 0cda BA000000 		movl	$.LC3, %edx
 1633      00
 1634 0cdf 4889CE   		movq	%rcx, %rsi
 1635 0ce2 4889C7   		movq	%rax, %rdi
 1636 0ce5 E8000000 		call	_ZN8UnitTest11TestResults13OnTestFailureERKNS_11TestDetailsEPKc
 1636      00
 1637              	.LEHE67:
 1638              	.LEHB68:
 1639 0cea E8000000 		call	__cxa_end_catch
 1639      00
 1640              	.LEHE68:
 1641 0cef E9D7FAFF 		jmp	.L72
 1641      FF
 1642              	.L117:
 1643 0cf4 4889C3   		movq	%rax, %rbx
  89:testCore.cpp  **** 	*item = 5;
 1644              		.loc 3 89 0 is_stmt 1
 1645 0cf7 E8000000 		call	__cxa_end_catch
 1645      00
 1646 0cfc 4889D8   		movq	%rbx, %rax
 1647 0cff 4889C7   		movq	%rax, %rdi
 1648              	.LEHB69:
 1649 0d02 E8000000 		call	_Unwind_Resume
 1649      00
 1650              	.LEHE69:
 1651              	.L116:
 1652 0d07 4889C7   		movq	%rax, %rdi
 1653 0d0a E8000000 		call	__cxa_begin_catch
 1653      00
 1654              	.LEHB70:
 1655 0d0f E8000000 		call	_ZN8UnitTest11CurrentTest7DetailsEv
 1655      00
 1656 0d14 488B08   		movq	(%rax), %rcx
 1657 0d17 488D4590 		leaq	-112(%rbp), %rax
 1658 0d1b BA590000 		movl	$89, %edx
 1658      00
 1659 0d20 4889CE   		movq	%rcx, %rsi
 1660 0d23 4889C7   		movq	%rax, %rdi
 1661 0d26 E8000000 		call	_ZN8UnitTest11TestDetailsC1ERKS0_i
 1661      00
  89:testCore.cpp  **** 	*item = 5;
 1662              		.loc 3 89 0 is_stmt 0 discriminator 1
 1663 0d2b E8000000 		call	_ZN8UnitTest11CurrentTest7ResultsEv
 1663      00
 1664 0d30 488B00   		movq	(%rax), %rax
 1665 0d33 488D4D90 		leaq	-112(%rbp), %rcx
 1666 0d37 BA000000 		movl	$.LC13, %edx
 1666      00
 1667 0d3c 4889CE   		movq	%rcx, %rsi
 1668 0d3f 4889C7   		movq	%rax, %rdi
 1669 0d42 E8000000 		call	_ZN8UnitTest11TestResults13OnTestFailureERKNS_11TestDetailsEPKc
 1669      00
 1670              	.LEHE70:
 1671              	.LEHB71:
 1672 0d47 E8000000 		call	__cxa_end_catch
 1672      00
 1673              	.LEHE71:
 1674 0d4c E9C0FAFF 		jmp	.L75
 1674      FF
 1675              	.L119:
 1676 0d51 4889C3   		movq	%rax, %rbx
  93:testCore.cpp  **** 	CHECK_EQUAL(2UL, *item);
 1677              		.loc 3 93 0 is_stmt 1
 1678 0d54 E8000000 		call	__cxa_end_catch
 1678      00
 1679 0d59 4889D8   		movq	%rbx, %rax
 1680 0d5c 4889C7   		movq	%rax, %rdi
 1681              	.LEHB72:
 1682 0d5f E8000000 		call	_Unwind_Resume
 1682      00
 1683              	.LEHE72:
 1684              	.L118:
 1685 0d64 4889C7   		movq	%rax, %rdi
 1686 0d67 E8000000 		call	__cxa_begin_catch
 1686      00
 1687              	.LEHB73:
 1688 0d6c E8000000 		call	_ZN8UnitTest11CurrentTest7DetailsEv
 1688      00
 1689 0d71 488B08   		movq	(%rax), %rcx
 1690 0d74 488D4590 		leaq	-112(%rbp), %rax
 1691 0d78 BA5D0000 		movl	$93, %edx
 1691      00
 1692 0d7d 4889CE   		movq	%rcx, %rsi
 1693 0d80 4889C7   		movq	%rax, %rdi
 1694 0d83 E8000000 		call	_ZN8UnitTest11TestDetailsC1ERKS0_i
 1694      00
  93:testCore.cpp  **** 	CHECK_EQUAL(2UL, *item);
 1695              		.loc 3 93 0 is_stmt 0 discriminator 1
 1696 0d88 E8000000 		call	_ZN8UnitTest11CurrentTest7ResultsEv
 1696      00
 1697 0d8d 488B00   		movq	(%rax), %rax
 1698 0d90 488D4D90 		leaq	-112(%rbp), %rcx
 1699 0d94 BA000000 		movl	$.LC3, %edx
 1699      00
 1700 0d99 4889CE   		movq	%rcx, %rsi
 1701 0d9c 4889C7   		movq	%rax, %rdi
 1702 0d9f E8000000 		call	_ZN8UnitTest11TestResults13OnTestFailureERKNS_11TestDetailsEPKc
 1702      00
 1703              	.LEHE73:
 1704              	.LEHB74:
 1705 0da4 E8000000 		call	__cxa_end_catch
 1705      00
 1706              	.LEHE74:
 1707 0da9 E9D4FAFF 		jmp	.L78
 1707      FF
 1708              	.L121:
 1709 0dae 4889C3   		movq	%rax, %rbx
  94:testCore.cpp  **** 	*item = 6;
 1710              		.loc 3 94 0 is_stmt 1
 1711 0db1 E8000000 		call	__cxa_end_catch
 1711      00
 1712 0db6 4889D8   		movq	%rbx, %rax
 1713 0db9 4889C7   		movq	%rax, %rdi
 1714              	.LEHB75:
 1715 0dbc E8000000 		call	_Unwind_Resume
 1715      00
 1716              	.LEHE75:
 1717              	.L120:
 1718 0dc1 4889C7   		movq	%rax, %rdi
 1719 0dc4 E8000000 		call	__cxa_begin_catch
 1719      00
 1720              	.LEHB76:
 1721 0dc9 E8000000 		call	_ZN8UnitTest11CurrentTest7DetailsEv
 1721      00
 1722 0dce 488B08   		movq	(%rax), %rcx
 1723 0dd1 488D4590 		leaq	-112(%rbp), %rax
 1724 0dd5 BA5E0000 		movl	$94, %edx
 1724      00
 1725 0dda 4889CE   		movq	%rcx, %rsi
 1726 0ddd 4889C7   		movq	%rax, %rdi
 1727 0de0 E8000000 		call	_ZN8UnitTest11TestDetailsC1ERKS0_i
 1727      00
  94:testCore.cpp  **** 	*item = 6;
 1728              		.loc 3 94 0 is_stmt 0 discriminator 1
 1729 0de5 E8000000 		call	_ZN8UnitTest11CurrentTest7ResultsEv
 1729      00
 1730 0dea 488B00   		movq	(%rax), %rax
 1731 0ded 488D4D90 		leaq	-112(%rbp), %rcx
 1732 0df1 BA000000 		movl	$.LC14, %edx
 1732      00
 1733 0df6 4889CE   		movq	%rcx, %rsi
 1734 0df9 4889C7   		movq	%rax, %rdi
 1735 0dfc E8000000 		call	_ZN8UnitTest11TestResults13OnTestFailureERKNS_11TestDetailsEPKc
 1735      00
 1736              	.LEHE76:
 1737              	.LEHB77:
 1738 0e01 E8000000 		call	__cxa_end_catch
 1738      00
 1739              	.LEHE77:
 1740 0e06 E9BDFAFF 		jmp	.L81
 1740      FF
 1741              	.L123:
 1742 0e0b 4889C3   		movq	%rax, %rbx
  98:testCore.cpp  **** 	CHECK_EQUAL(3UL, *item);
 1743              		.loc 3 98 0 is_stmt 1
 1744 0e0e E8000000 		call	__cxa_end_catch
 1744      00
 1745 0e13 4889D8   		movq	%rbx, %rax
 1746 0e16 4889C7   		movq	%rax, %rdi
 1747              	.LEHB78:
 1748 0e19 E8000000 		call	_Unwind_Resume
 1748      00
 1749              	.LEHE78:
 1750              	.L122:
 1751 0e1e 4889C7   		movq	%rax, %rdi
 1752 0e21 E8000000 		call	__cxa_begin_catch
 1752      00
 1753              	.LEHB79:
 1754 0e26 E8000000 		call	_ZN8UnitTest11CurrentTest7DetailsEv
 1754      00
 1755 0e2b 488B08   		movq	(%rax), %rcx
 1756 0e2e 488D4590 		leaq	-112(%rbp), %rax
 1757 0e32 BA620000 		movl	$98, %edx
 1757      00
 1758 0e37 4889CE   		movq	%rcx, %rsi
 1759 0e3a 4889C7   		movq	%rax, %rdi
 1760 0e3d E8000000 		call	_ZN8UnitTest11TestDetailsC1ERKS0_i
 1760      00
  98:testCore.cpp  **** 	CHECK_EQUAL(3UL, *item);
 1761              		.loc 3 98 0 is_stmt 0 discriminator 1
 1762 0e42 E8000000 		call	_ZN8UnitTest11CurrentTest7ResultsEv
 1762      00
 1763 0e47 488B00   		movq	(%rax), %rax
 1764 0e4a 488D4D90 		leaq	-112(%rbp), %rcx
 1765 0e4e BA000000 		movl	$.LC3, %edx
 1765      00
 1766 0e53 4889CE   		movq	%rcx, %rsi
 1767 0e56 4889C7   		movq	%rax, %rdi
 1768 0e59 E8000000 		call	_ZN8UnitTest11TestResults13OnTestFailureERKNS_11TestDetailsEPKc
 1768      00
 1769              	.LEHE79:
 1770              	.LEHB80:
 1771 0e5e E8000000 		call	__cxa_end_catch
 1771      00
 1772              	.LEHE80:
 1773 0e63 E9D1FAFF 		jmp	.L84
 1773      FF
 1774              	.L125:
 1775 0e68 4889C3   		movq	%rax, %rbx
  99:testCore.cpp  **** 	*item = 7;
 1776              		.loc 3 99 0 is_stmt 1
 1777 0e6b E8000000 		call	__cxa_end_catch
 1777      00
 1778 0e70 4889D8   		movq	%rbx, %rax
 1779 0e73 4889C7   		movq	%rax, %rdi
 1780              	.LEHB81:
 1781 0e76 E8000000 		call	_Unwind_Resume
 1781      00
 1782              	.LEHE81:
 1783              	.L124:
 1784 0e7b 4889C7   		movq	%rax, %rdi
 1785 0e7e E8000000 		call	__cxa_begin_catch
 1785      00
 1786              	.LEHB82:
 1787 0e83 E8000000 		call	_ZN8UnitTest11CurrentTest7DetailsEv
 1787      00
 1788 0e88 488B08   		movq	(%rax), %rcx
 1789 0e8b 488D4590 		leaq	-112(%rbp), %rax
 1790 0e8f BA630000 		movl	$99, %edx
 1790      00
 1791 0e94 4889CE   		movq	%rcx, %rsi
 1792 0e97 4889C7   		movq	%rax, %rdi
 1793 0e9a E8000000 		call	_ZN8UnitTest11TestDetailsC1ERKS0_i
 1793      00
  99:testCore.cpp  **** 	*item = 7;
 1794              		.loc 3 99 0 is_stmt 0 discriminator 1
 1795 0e9f E8000000 		call	_ZN8UnitTest11CurrentTest7ResultsEv
 1795      00
 1796 0ea4 488B00   		movq	(%rax), %rax
 1797 0ea7 488D4D90 		leaq	-112(%rbp), %rcx
 1798 0eab BA000000 		movl	$.LC15, %edx
 1798      00
 1799 0eb0 4889CE   		movq	%rcx, %rsi
 1800 0eb3 4889C7   		movq	%rax, %rdi
 1801 0eb6 E8000000 		call	_ZN8UnitTest11TestResults13OnTestFailureERKNS_11TestDetailsEPKc
 1801      00
 1802              	.LEHE82:
 1803              	.LEHB83:
 1804 0ebb E8000000 		call	__cxa_end_catch
 1804      00
 1805              	.LEHE83:
 1806 0ec0 E9BAFAFF 		jmp	.L87
 1806      FF
 1807              	.L127:
 1808 0ec5 4889C3   		movq	%rax, %rbx
 104:testCore.cpp  **** 	CHECK_EQUAL(3UL, queue.putIndex);
 1809              		.loc 3 104 0 is_stmt 1
 1810 0ec8 E8000000 		call	__cxa_end_catch
 1810      00
 1811 0ecd 4889D8   		movq	%rbx, %rax
 1812 0ed0 4889C7   		movq	%rax, %rdi
 1813              	.LEHB84:
 1814 0ed3 E8000000 		call	_Unwind_Resume
 1814      00
 1815              	.LEHE84:
 1816              	.L126:
 1817 0ed8 4889C7   		movq	%rax, %rdi
 1818 0edb E8000000 		call	__cxa_begin_catch
 1818      00
 1819              	.LEHB85:
 1820 0ee0 E8000000 		call	_ZN8UnitTest11CurrentTest7DetailsEv
 1820      00
 1821 0ee5 488B08   		movq	(%rax), %rcx
 1822 0ee8 488D4590 		leaq	-112(%rbp), %rax
 1823 0eec BA680000 		movl	$104, %edx
 1823      00
 1824 0ef1 4889CE   		movq	%rcx, %rsi
 1825 0ef4 4889C7   		movq	%rax, %rdi
 1826 0ef7 E8000000 		call	_ZN8UnitTest11TestDetailsC1ERKS0_i
 1826      00
 104:testCore.cpp  **** 	CHECK_EQUAL(3UL, queue.putIndex);
 1827              		.loc 3 104 0 is_stmt 0 discriminator 1
 1828 0efc E8000000 		call	_ZN8UnitTest11CurrentTest7ResultsEv
 1828      00
 1829 0f01 488B00   		movq	(%rax), %rax
 1830 0f04 488D4D90 		leaq	-112(%rbp), %rcx
 1831 0f08 BA000000 		movl	$.LC4, %edx
 1831      00
 1832 0f0d 4889CE   		movq	%rcx, %rsi
 1833 0f10 4889C7   		movq	%rax, %rdi
 1834 0f13 E8000000 		call	_ZN8UnitTest11TestResults13OnTestFailureERKNS_11TestDetailsEPKc
 1834      00
 1835              	.LEHE85:
 1836              	.LEHB86:
 1837 0f18 E8000000 		call	__cxa_end_catch
 1837      00
 1838              	.LEHE86:
 1839 0f1d E9BDFAFF 		jmp	.L90
 1839      FF
 1840              	.L129:
 1841 0f22 4889C3   		movq	%rax, %rbx
 105:testCore.cpp  **** 	CHECK_EQUAL(0UL, queue.takeIndex);
 1842              		.loc 3 105 0 is_stmt 1
 1843 0f25 E8000000 		call	__cxa_end_catch
 1843      00
 1844 0f2a 4889D8   		movq	%rbx, %rax
 1845 0f2d 4889C7   		movq	%rax, %rdi
 1846              	.LEHB87:
 1847 0f30 E8000000 		call	_Unwind_Resume
 1847      00
 1848              	.LEHE87:
 1849              	.L128:
 1850 0f35 4889C7   		movq	%rax, %rdi
 1851 0f38 E8000000 		call	__cxa_begin_catch
 1851      00
 1852              	.LEHB88:
 1853 0f3d E8000000 		call	_ZN8UnitTest11CurrentTest7DetailsEv
 1853      00
 1854 0f42 488B08   		movq	(%rax), %rcx
 1855 0f45 488D4590 		leaq	-112(%rbp), %rax
 1856 0f49 BA690000 		movl	$105, %edx
 1856      00
 1857 0f4e 4889CE   		movq	%rcx, %rsi
 1858 0f51 4889C7   		movq	%rax, %rdi
 1859 0f54 E8000000 		call	_ZN8UnitTest11TestDetailsC1ERKS0_i
 1859      00
 105:testCore.cpp  **** 	CHECK_EQUAL(0UL, queue.takeIndex);
 1860              		.loc 3 105 0 is_stmt 0 discriminator 1
 1861 0f59 E8000000 		call	_ZN8UnitTest11CurrentTest7ResultsEv
 1861      00
 1862 0f5e 488B00   		movq	(%rax), %rax
 1863 0f61 488D4D90 		leaq	-112(%rbp), %rcx
 1864 0f65 BA000000 		movl	$.LC16, %edx
 1864      00
 1865 0f6a 4889CE   		movq	%rcx, %rsi
 1866 0f6d 4889C7   		movq	%rax, %rdi
 1867 0f70 E8000000 		call	_ZN8UnitTest11TestResults13OnTestFailureERKNS_11TestDetailsEPKc
 1867      00
 1868              	.LEHE88:
 1869              	.LEHB89:
 1870 0f75 E8000000 		call	__cxa_end_catch
 1870      00
 1871              	.LEHE89:
 1872 0f7a E9AAFAFF 		jmp	.L93
 1872      FF
 1873              	.L131:
 1874 0f7f 4889C3   		movq	%rax, %rbx
 106:testCore.cpp  **** 	CHECK_EQUAL(3UL, queue.numItems);
 1875              		.loc 3 106 0 is_stmt 1
 1876 0f82 E8000000 		call	__cxa_end_catch
 1876      00
 1877 0f87 4889D8   		movq	%rbx, %rax
 1878 0f8a 4889C7   		movq	%rax, %rdi
 1879              	.LEHB90:
 1880 0f8d E8000000 		call	_Unwind_Resume
 1880      00
 1881              	.LEHE90:
 1882              	.L130:
 1883 0f92 4889C7   		movq	%rax, %rdi
 1884 0f95 E8000000 		call	__cxa_begin_catch
 1884      00
 1885              	.LEHB91:
 1886 0f9a E8000000 		call	_ZN8UnitTest11CurrentTest7DetailsEv
 1886      00
 1887 0f9f 488B08   		movq	(%rax), %rcx
 1888 0fa2 488D4590 		leaq	-112(%rbp), %rax
 1889 0fa6 BA6A0000 		movl	$106, %edx
 1889      00
 1890 0fab 4889CE   		movq	%rcx, %rsi
 1891 0fae 4889C7   		movq	%rax, %rdi
 1892 0fb1 E8000000 		call	_ZN8UnitTest11TestDetailsC1ERKS0_i
 1892      00
 106:testCore.cpp  **** 	CHECK_EQUAL(3UL, queue.numItems);
 1893              		.loc 3 106 0 is_stmt 0 discriminator 1
 1894 0fb6 E8000000 		call	_ZN8UnitTest11CurrentTest7ResultsEv
 1894      00
 1895 0fbb 488B00   		movq	(%rax), %rax
 1896 0fbe 488D4D90 		leaq	-112(%rbp), %rcx
 1897 0fc2 BA000000 		movl	$.LC6, %edx
 1897      00
 1898 0fc7 4889CE   		movq	%rcx, %rsi
 1899 0fca 4889C7   		movq	%rax, %rdi
 1900 0fcd E8000000 		call	_ZN8UnitTest11TestResults13OnTestFailureERKNS_11TestDetailsEPKc
 1900      00
 1901              	.LEHE91:
 1902              	.LEHB92:
 1903 0fd2 E8000000 		call	__cxa_end_catch
 1903      00
 1904              	.LEHE92:
 1905 0fd7 E997FAFF 		jmp	.L96
 1905      FF
 1906              	.L133:
 1907 0fdc 4889C3   		movq	%rax, %rbx
 107:testCore.cpp  **** 
 1908              		.loc 3 107 0 is_stmt 1
 1909 0fdf E8000000 		call	__cxa_end_catch
 1909      00
 1910 0fe4 4889D8   		movq	%rbx, %rax
 1911 0fe7 4889C7   		movq	%rax, %rdi
 1912              	.LEHB93:
 1913 0fea E8000000 		call	_Unwind_Resume
 1913      00
 1914              	.LEHE93:
 1915              	.L132:
 1916 0fef 4889C7   		movq	%rax, %rdi
 1917 0ff2 E8000000 		call	__cxa_begin_catch
 1917      00
 1918              	.LEHB94:
 1919 0ff7 E8000000 		call	_ZN8UnitTest11CurrentTest7DetailsEv
 1919      00
 1920 0ffc 488B08   		movq	(%rax), %rcx
 1921 0fff 488D4590 		leaq	-112(%rbp), %rax
 1922 1003 BA6B0000 		movl	$107, %edx
 1922      00
 1923 1008 4889CE   		movq	%rcx, %rsi
 1924 100b 4889C7   		movq	%rax, %rdi
 1925 100e E8000000 		call	_ZN8UnitTest11TestDetailsC1ERKS0_i
 1925      00
 107:testCore.cpp  **** 
 1926              		.loc 3 107 0 is_stmt 0 discriminator 1
 1927 1013 E8000000 		call	_ZN8UnitTest11CurrentTest7ResultsEv
 1927      00
 1928 1018 488B00   		movq	(%rax), %rax
 1929 101b 488D4D90 		leaq	-112(%rbp), %rcx
 1930 101f BA000000 		movl	$.LC17, %edx
 1930      00
 1931 1024 4889CE   		movq	%rcx, %rsi
 1932 1027 4889C7   		movq	%rax, %rdi
 1933 102a E8000000 		call	_ZN8UnitTest11TestResults13OnTestFailureERKNS_11TestDetailsEPKc
 1933      00
 1934              	.LEHE94:
 1935              	.LEHB95:
 1936 102f E8000000 		call	__cxa_end_catch
 1936      00
 1937              	.LEHE95:
 1938 1034 E984FAFF 		jmp	.L99
 1938      FF
 1939              	.L135:
 1940 1039 4889C3   		movq	%rax, %rbx
 110:testCore.cpp  **** 	CHECK_EQUAL(6UL, deref(queue.itemArray[1]));
 1941              		.loc 3 110 0 is_stmt 1
 1942 103c E8000000 		call	__cxa_end_catch
 1942      00
 1943 1041 4889D8   		movq	%rbx, %rax
 1944 1044 4889C7   		movq	%rax, %rdi
 1945              	.LEHB96:
 1946 1047 E8000000 		call	_Unwind_Resume
 1946      00
 1947              	.LEHE96:
 1948              	.L134:
 1949 104c 4889C7   		movq	%rax, %rdi
 1950 104f E8000000 		call	__cxa_begin_catch
 1950      00
 1951              	.LEHB97:
 1952 1054 E8000000 		call	_ZN8UnitTest11CurrentTest7DetailsEv
 1952      00
 1953 1059 488B08   		movq	(%rax), %rcx
 1954 105c 488D4590 		leaq	-112(%rbp), %rax
 1955 1060 BA6E0000 		movl	$110, %edx
 1955      00
 1956 1065 4889CE   		movq	%rcx, %rsi
 1957 1068 4889C7   		movq	%rax, %rdi
 1958 106b E8000000 		call	_ZN8UnitTest11TestDetailsC1ERKS0_i
 1958      00
 110:testCore.cpp  **** 	CHECK_EQUAL(6UL, deref(queue.itemArray[1]));
 1959              		.loc 3 110 0 is_stmt 0 discriminator 1
 1960 1070 E8000000 		call	_ZN8UnitTest11CurrentTest7ResultsEv
 1960      00
 1961 1075 488B00   		movq	(%rax), %rax
 1962 1078 488D4D90 		leaq	-112(%rbp), %rcx
 1963 107c BA000000 		movl	$.LC18, %edx
 1963      00
 1964 1081 4889CE   		movq	%rcx, %rsi
 1965 1084 4889C7   		movq	%rax, %rdi
 1966 1087 E8000000 		call	_ZN8UnitTest11TestResults13OnTestFailureERKNS_11TestDetailsEPKc
 1966      00
 1967              	.LEHE97:
 1968              	.LEHB98:
 1969 108c E8000000 		call	__cxa_end_catch
 1969      00
 1970              	.LEHE98:
 1971 1091 E97FFAFF 		jmp	.L102
 1971      FF
 1972              	.L137:
 1973 1096 4889C3   		movq	%rax, %rbx
 111:testCore.cpp  **** 	CHECK_EQUAL(7UL, deref(queue.itemArray[2]));
 1974              		.loc 3 111 0 is_stmt 1
 1975 1099 E8000000 		call	__cxa_end_catch
 1975      00
 1976 109e 4889D8   		movq	%rbx, %rax
 1977 10a1 4889C7   		movq	%rax, %rdi
 1978              	.LEHB99:
 1979 10a4 E8000000 		call	_Unwind_Resume
 1979      00
 1980              	.LEHE99:
 1981              	.L136:
 1982 10a9 4889C7   		movq	%rax, %rdi
 1983 10ac E8000000 		call	__cxa_begin_catch
 1983      00
 1984              	.LEHB100:
 1985 10b1 E8000000 		call	_ZN8UnitTest11CurrentTest7DetailsEv
 1985      00
 1986 10b6 488B08   		movq	(%rax), %rcx
 1987 10b9 488D4590 		leaq	-112(%rbp), %rax
 1988 10bd BA6F0000 		movl	$111, %edx
 1988      00
 1989 10c2 4889CE   		movq	%rcx, %rsi
 1990 10c5 4889C7   		movq	%rax, %rdi
 1991 10c8 E8000000 		call	_ZN8UnitTest11TestDetailsC1ERKS0_i
 1991      00
 111:testCore.cpp  **** 	CHECK_EQUAL(7UL, deref(queue.itemArray[2]));
 1992              		.loc 3 111 0 is_stmt 0 discriminator 1
 1993 10cd E8000000 		call	_ZN8UnitTest11CurrentTest7ResultsEv
 1993      00
 1994 10d2 488B00   		movq	(%rax), %rax
 1995 10d5 488D4D90 		leaq	-112(%rbp), %rcx
 1996 10d9 BA000000 		movl	$.LC19, %edx
 1996      00
 1997 10de 4889CE   		movq	%rcx, %rsi
 1998 10e1 4889C7   		movq	%rax, %rdi
 1999 10e4 E8000000 		call	_ZN8UnitTest11TestResults13OnTestFailureERKNS_11TestDetailsEPKc
 1999      00
 2000              	.LEHE100:
 2001              	.LEHB101:
 2002 10e9 E8000000 		call	__cxa_end_catch
 2002      00
 2003              	.LEHE101:
 2004 10ee E97EFAFF 		jmp	.L105
 2004      FF
 2005              	.L139:
 2006 10f3 4889C3   		movq	%rax, %rbx
 112:testCore.cpp  **** 	CHECK_EQUAL(4UL, deref(queue.itemArray[3]));
 2007              		.loc 3 112 0 is_stmt 1
 2008 10f6 E8000000 		call	__cxa_end_catch
 2008      00
 2009 10fb 4889D8   		movq	%rbx, %rax
 2010 10fe 4889C7   		movq	%rax, %rdi
 2011              	.LEHB102:
 2012 1101 E8000000 		call	_Unwind_Resume
 2012      00
 2013              	.LEHE102:
 2014              	.L138:
 2015 1106 4889C7   		movq	%rax, %rdi
 2016 1109 E8000000 		call	__cxa_begin_catch
 2016      00
 2017              	.LEHB103:
 2018 110e E8000000 		call	_ZN8UnitTest11CurrentTest7DetailsEv
 2018      00
 2019 1113 488B08   		movq	(%rax), %rcx
 2020 1116 488D4590 		leaq	-112(%rbp), %rax
 2021 111a BA700000 		movl	$112, %edx
 2021      00
 2022 111f 4889CE   		movq	%rcx, %rsi
 2023 1122 4889C7   		movq	%rax, %rdi
 2024 1125 E8000000 		call	_ZN8UnitTest11TestDetailsC1ERKS0_i
 2024      00
 112:testCore.cpp  **** 	CHECK_EQUAL(4UL, deref(queue.itemArray[3]));
 2025              		.loc 3 112 0 is_stmt 0 discriminator 1
 2026 112a E8000000 		call	_ZN8UnitTest11CurrentTest7ResultsEv
 2026      00
 2027 112f 488B00   		movq	(%rax), %rax
 2028 1132 488D4D90 		leaq	-112(%rbp), %rcx
 2029 1136 BA000000 		movl	$.LC20, %edx
 2029      00
 2030 113b 4889CE   		movq	%rcx, %rsi
 2031 113e 4889C7   		movq	%rax, %rdi
 2032 1141 E8000000 		call	_ZN8UnitTest11TestResults13OnTestFailureERKNS_11TestDetailsEPKc
 2032      00
 2033              	.LEHE103:
 2034              	.LEHB104:
 2035 1146 E8000000 		call	__cxa_end_catch
 2035      00
 2036              	.LEHE104:
 2037 114b E97DFAFF 		jmp	.L108
 2037      FF
 2038              	.L141:
 2039 1150 4889C3   		movq	%rax, %rbx
 113:testCore.cpp  **** 
 2040              		.loc 3 113 0 is_stmt 1
 2041 1153 E8000000 		call	__cxa_end_catch
 2041      00
 2042 1158 4889D8   		movq	%rbx, %rax
 2043 115b 4889C7   		movq	%rax, %rdi
 2044              	.LEHB105:
 2045 115e E8000000 		call	_Unwind_Resume
 2045      00
 2046              	.LEHE105:
 2047              	.L140:
 2048 1163 4889C7   		movq	%rax, %rdi
 2049 1166 E8000000 		call	__cxa_begin_catch
 2049      00
 2050              	.LEHB106:
 2051 116b E8000000 		call	_ZN8UnitTest11CurrentTest7DetailsEv
 2051      00
 2052 1170 488B08   		movq	(%rax), %rcx
 2053 1173 488D4590 		leaq	-112(%rbp), %rax
 2054 1177 BA710000 		movl	$113, %edx
 2054      00
 2055 117c 4889CE   		movq	%rcx, %rsi
 2056 117f 4889C7   		movq	%rax, %rdi
 2057 1182 E8000000 		call	_ZN8UnitTest11TestDetailsC1ERKS0_i
 2057      00
 113:testCore.cpp  **** 
 2058              		.loc 3 113 0 is_stmt 0 discriminator 1
 2059 1187 E8000000 		call	_ZN8UnitTest11CurrentTest7ResultsEv
 2059      00
 2060 118c 488B00   		movq	(%rax), %rax
 2061 118f 488D4D90 		leaq	-112(%rbp), %rcx
 2062 1193 BA000000 		movl	$.LC11, %edx
 2062      00
 2063 1198 4889CE   		movq	%rcx, %rsi
 2064 119b 4889C7   		movq	%rax, %rdi
 2065 119e E8000000 		call	_ZN8UnitTest11TestResults13OnTestFailureERKNS_11TestDetailsEPKc
 2065      00
 2066              	.LEHE106:
 2067              	.LEHB107:
 2068 11a3 E8000000 		call	__cxa_end_catch
 2068      00
 2069              	.LEHE107:
 2070 11a8 E97CFAFF 		jmp	.L111
 2070      FF
 2071              	.L142:
 2072              	.LBE8:
 117:testCore.cpp  **** }
 2073              		.loc 3 117 0 is_stmt 1
 2074 11ad 4881C498 		addq	$152, %rsp
 2074      000000
 2075 11b4 5B       		popq	%rbx
 2076 11b5 5D       		popq	%rbp
 2077              		.cfi_def_cfa 7, 8
 2078 11b6 C3       		ret
 2079              		.cfi_endproc
 2080              	.LFE1038:
 2081              		.section	.gcc_except_table
 2082              		.align 4
 2083              	.LLSDA1038:
 2084 00dc FF       		.byte	0xff
 2085 00dd 03       		.byte	0x3
 2086 00de F002     		.uleb128 .LLSDATT1038-.LLSDATTD1038
 2087              	.LLSDATTD1038:
 2088 00e0 01       		.byte	0x1
 2089 00e1 E602     		.uleb128 .LLSDACSE1038-.LLSDACSB1038
 2090              	.LLSDACSB1038:
 2091 00e3 33       		.uleb128 .LEHB42-.LFB1038
 2092 00e4 05       		.uleb128 .LEHE42-.LEHB42
 2093 00e5 00       		.uleb128 0
 2094 00e6 00       		.uleb128 0
 2095 00e7 3E       		.uleb128 .LEHB43-.LFB1038
 2096 00e8 42       		.uleb128 .LEHE43-.LEHB43
 2097 00e9 DD0A     		.uleb128 .L112-.LFB1038
 2098 00eb 01       		.uleb128 0x1
 2099 00ec 8E01     		.uleb128 .LEHB44-.LFB1038
 2100 00ee 05       		.uleb128 .LEHE44-.LEHB44
 2101 00ef 00       		.uleb128 0
 2102 00f0 00       		.uleb128 0
 2103 00f1 9901     		.uleb128 .LEHB45-.LFB1038
 2104 00f3 42       		.uleb128 .LEHE45-.LEHB45
 2105 00f4 BA0B     		.uleb128 .L114-.LFB1038
 2106 00f6 01       		.uleb128 0x1
 2107 00f7 DB01     		.uleb128 .LEHB46-.LFB1038
 2108 00f9 46       		.uleb128 .LEHE46-.LEHB46
 2109 00fa 970C     		.uleb128 .L116-.LFB1038
 2110 00fc 01       		.uleb128 0x1
 2111 00fd B202     		.uleb128 .LEHB47-.LFB1038
 2112 00ff 18       		.uleb128 .LEHE47-.LEHB47
 2113 0100 00       		.uleb128 0
 2114 0101 00       		.uleb128 0
 2115 0102 D002     		.uleb128 .LEHB48-.LFB1038
 2116 0104 42       		.uleb128 .LEHE48-.LEHB48
 2117 0105 F40C     		.uleb128 .L118-.LFB1038
 2118 0107 01       		.uleb128 0x1
 2119 0108 9203     		.uleb128 .LEHB49-.LFB1038
 2120 010a 46       		.uleb128 .LEHE49-.LEHB49
 2121 010b D10D     		.uleb128 .L120-.LFB1038
 2122 010d 01       		.uleb128 0x1
 2123 010e E903     		.uleb128 .LEHB50-.LFB1038
 2124 0110 18       		.uleb128 .LEHE50-.LEHB50
 2125 0111 00       		.uleb128 0
 2126 0112 00       		.uleb128 0
 2127 0113 8704     		.uleb128 .LEHB51-.LFB1038
 2128 0115 42       		.uleb128 .LEHE51-.LEHB51
 2129 0116 AE0E     		.uleb128 .L122-.LFB1038
 2130 0118 01       		.uleb128 0x1
 2131 0119 C904     		.uleb128 .LEHB52-.LFB1038
 2132 011b 46       		.uleb128 .LEHE52-.LEHB52
 2133 011c 8B0F     		.uleb128 .L124-.LFB1038
 2134 011e 01       		.uleb128 0x1
 2135 011f A005     		.uleb128 .LEHB53-.LFB1038
 2136 0121 05       		.uleb128 .LEHE53-.LEHB53
 2137 0122 00       		.uleb128 0
 2138 0123 00       		.uleb128 0
 2139 0124 A505     		.uleb128 .LEHB54-.LFB1038
 2140 0126 4A       		.uleb128 .LEHE54-.LEHB54
 2141 0127 E80F     		.uleb128 .L126-.LFB1038
 2142 0129 01       		.uleb128 0x1
 2143 012a EF05     		.uleb128 .LEHB55-.LFB1038
 2144 012c 4A       		.uleb128 .LEHE55-.LEHB55
 2145 012d C510     		.uleb128 .L128-.LFB1038
 2146 012f 01       		.uleb128 0x1
 2147 0130 B906     		.uleb128 .LEHB56-.LFB1038
 2148 0132 4A       		.uleb128 .LEHE56-.LEHB56
 2149 0133 A211     		.uleb128 .L130-.LFB1038
 2150 0135 01       		.uleb128 0x1
 2151 0136 8307     		.uleb128 .LEHB57-.LFB1038
 2152 0138 4A       		.uleb128 .LEHE57-.LEHB57
 2153 0139 FF11     		.uleb128 .L132-.LFB1038
 2154 013b 01       		.uleb128 0x1
 2155 013c CD07     		.uleb128 .LEHB58-.LFB1038
 2156 013e 58       		.uleb128 .LEHE58-.LEHB58
 2157 013f DC12     		.uleb128 .L134-.LFB1038
 2158 0141 01       		.uleb128 0x1
 2159 0142 A508     		.uleb128 .LEHB59-.LFB1038
 2160 0144 5C       		.uleb128 .LEHE59-.LEHB59
 2161 0145 B913     		.uleb128 .L136-.LFB1038
 2162 0147 01       		.uleb128 0x1
 2163 0148 8109     		.uleb128 .LEHB60-.LFB1038
 2164 014a 5C       		.uleb128 .LEHE60-.LEHB60
 2165 014b 9614     		.uleb128 .L138-.LFB1038
 2166 014d 01       		.uleb128 0x1
 2167 014e DD09     		.uleb128 .LEHB61-.LFB1038
 2168 0150 5C       		.uleb128 .LEHE61-.LEHB61
 2169 0151 F314     		.uleb128 .L140-.LFB1038
 2170 0153 01       		.uleb128 0x1
 2171 0154 C00A     		.uleb128 .LEHB62-.LFB1038
 2172 0156 05       		.uleb128 .LEHE62-.LEHB62
 2173 0157 00       		.uleb128 0
 2174 0158 00       		.uleb128 0
 2175 0159 D80A     		.uleb128 .LEHB63-.LFB1038
 2176 015b 05       		.uleb128 .LEHE63-.LEHB63
 2177 015c 00       		.uleb128 0
 2178 015d 00       		.uleb128 0
 2179 015e E50A     		.uleb128 .LEHB64-.LFB1038
 2180 0160 38       		.uleb128 .LEHE64-.LEHB64
 2181 0161 CA0A     		.uleb128 .L113-.LFB1038
 2182 0163 00       		.uleb128 0
 2183 0164 9D0B     		.uleb128 .LEHB65-.LFB1038
 2184 0166 05       		.uleb128 .LEHE65-.LEHB65
 2185 0167 00       		.uleb128 0
 2186 0168 00       		.uleb128 0
 2187 0169 B50B     		.uleb128 .LEHB66-.LFB1038
 2188 016b 05       		.uleb128 .LEHE66-.LEHB66
 2189 016c 00       		.uleb128 0
 2190 016d 00       		.uleb128 0
 2191 016e C20B     		.uleb128 .LEHB67-.LFB1038
 2192 0170 38       		.uleb128 .LEHE67-.LEHB67
 2193 0171 A70B     		.uleb128 .L115-.LFB1038
 2194 0173 00       		.uleb128 0
 2195 0174 FA0B     		.uleb128 .LEHB68-.LFB1038
 2196 0176 05       		.uleb128 .LEHE68-.LEHB68
 2197 0177 00       		.uleb128 0
 2198 0178 00       		.uleb128 0
 2199 0179 920C     		.uleb128 .LEHB69-.LFB1038
 2200 017b 05       		.uleb128 .LEHE69-.LEHB69
 2201 017c 00       		.uleb128 0
 2202 017d 00       		.uleb128 0
 2203 017e 9F0C     		.uleb128 .LEHB70-.LFB1038
 2204 0180 38       		.uleb128 .LEHE70-.LEHB70
 2205 0181 840C     		.uleb128 .L117-.LFB1038
 2206 0183 00       		.uleb128 0
 2207 0184 D70C     		.uleb128 .LEHB71-.LFB1038
 2208 0186 05       		.uleb128 .LEHE71-.LEHB71
 2209 0187 00       		.uleb128 0
 2210 0188 00       		.uleb128 0
 2211 0189 EF0C     		.uleb128 .LEHB72-.LFB1038
 2212 018b 05       		.uleb128 .LEHE72-.LEHB72
 2213 018c 00       		.uleb128 0
 2214 018d 00       		.uleb128 0
 2215 018e FC0C     		.uleb128 .LEHB73-.LFB1038
 2216 0190 38       		.uleb128 .LEHE73-.LEHB73
 2217 0191 E10C     		.uleb128 .L119-.LFB1038
 2218 0193 00       		.uleb128 0
 2219 0194 B40D     		.uleb128 .LEHB74-.LFB1038
 2220 0196 05       		.uleb128 .LEHE74-.LEHB74
 2221 0197 00       		.uleb128 0
 2222 0198 00       		.uleb128 0
 2223 0199 CC0D     		.uleb128 .LEHB75-.LFB1038
 2224 019b 05       		.uleb128 .LEHE75-.LEHB75
 2225 019c 00       		.uleb128 0
 2226 019d 00       		.uleb128 0
 2227 019e D90D     		.uleb128 .LEHB76-.LFB1038
 2228 01a0 38       		.uleb128 .LEHE76-.LEHB76
 2229 01a1 BE0D     		.uleb128 .L121-.LFB1038
 2230 01a3 00       		.uleb128 0
 2231 01a4 910E     		.uleb128 .LEHB77-.LFB1038
 2232 01a6 05       		.uleb128 .LEHE77-.LEHB77
 2233 01a7 00       		.uleb128 0
 2234 01a8 00       		.uleb128 0
 2235 01a9 A90E     		.uleb128 .LEHB78-.LFB1038
 2236 01ab 05       		.uleb128 .LEHE78-.LEHB78
 2237 01ac 00       		.uleb128 0
 2238 01ad 00       		.uleb128 0
 2239 01ae B60E     		.uleb128 .LEHB79-.LFB1038
 2240 01b0 38       		.uleb128 .LEHE79-.LEHB79
 2241 01b1 9B0E     		.uleb128 .L123-.LFB1038
 2242 01b3 00       		.uleb128 0
 2243 01b4 EE0E     		.uleb128 .LEHB80-.LFB1038
 2244 01b6 05       		.uleb128 .LEHE80-.LEHB80
 2245 01b7 00       		.uleb128 0
 2246 01b8 00       		.uleb128 0
 2247 01b9 860F     		.uleb128 .LEHB81-.LFB1038
 2248 01bb 05       		.uleb128 .LEHE81-.LEHB81
 2249 01bc 00       		.uleb128 0
 2250 01bd 00       		.uleb128 0
 2251 01be 930F     		.uleb128 .LEHB82-.LFB1038
 2252 01c0 38       		.uleb128 .LEHE82-.LEHB82
 2253 01c1 F80E     		.uleb128 .L125-.LFB1038
 2254 01c3 00       		.uleb128 0
 2255 01c4 CB0F     		.uleb128 .LEHB83-.LFB1038
 2256 01c6 05       		.uleb128 .LEHE83-.LEHB83
 2257 01c7 00       		.uleb128 0
 2258 01c8 00       		.uleb128 0
 2259 01c9 E30F     		.uleb128 .LEHB84-.LFB1038
 2260 01cb 05       		.uleb128 .LEHE84-.LEHB84
 2261 01cc 00       		.uleb128 0
 2262 01cd 00       		.uleb128 0
 2263 01ce F00F     		.uleb128 .LEHB85-.LFB1038
 2264 01d0 38       		.uleb128 .LEHE85-.LEHB85
 2265 01d1 D50F     		.uleb128 .L127-.LFB1038
 2266 01d3 00       		.uleb128 0
 2267 01d4 A810     		.uleb128 .LEHB86-.LFB1038
 2268 01d6 05       		.uleb128 .LEHE86-.LEHB86
 2269 01d7 00       		.uleb128 0
 2270 01d8 00       		.uleb128 0
 2271 01d9 C010     		.uleb128 .LEHB87-.LFB1038
 2272 01db 05       		.uleb128 .LEHE87-.LEHB87
 2273 01dc 00       		.uleb128 0
 2274 01dd 00       		.uleb128 0
 2275 01de CD10     		.uleb128 .LEHB88-.LFB1038
 2276 01e0 38       		.uleb128 .LEHE88-.LEHB88
 2277 01e1 B210     		.uleb128 .L129-.LFB1038
 2278 01e3 00       		.uleb128 0
 2279 01e4 8511     		.uleb128 .LEHB89-.LFB1038
 2280 01e6 05       		.uleb128 .LEHE89-.LEHB89
 2281 01e7 00       		.uleb128 0
 2282 01e8 00       		.uleb128 0
 2283 01e9 9D11     		.uleb128 .LEHB90-.LFB1038
 2284 01eb 05       		.uleb128 .LEHE90-.LEHB90
 2285 01ec 00       		.uleb128 0
 2286 01ed 00       		.uleb128 0
 2287 01ee AA11     		.uleb128 .LEHB91-.LFB1038
 2288 01f0 38       		.uleb128 .LEHE91-.LEHB91
 2289 01f1 8F11     		.uleb128 .L131-.LFB1038
 2290 01f3 00       		.uleb128 0
 2291 01f4 E211     		.uleb128 .LEHB92-.LFB1038
 2292 01f6 05       		.uleb128 .LEHE92-.LEHB92
 2293 01f7 00       		.uleb128 0
 2294 01f8 00       		.uleb128 0
 2295 01f9 FA11     		.uleb128 .LEHB93-.LFB1038
 2296 01fb 05       		.uleb128 .LEHE93-.LEHB93
 2297 01fc 00       		.uleb128 0
 2298 01fd 00       		.uleb128 0
 2299 01fe 8712     		.uleb128 .LEHB94-.LFB1038
 2300 0200 38       		.uleb128 .LEHE94-.LEHB94
 2301 0201 EC11     		.uleb128 .L133-.LFB1038
 2302 0203 00       		.uleb128 0
 2303 0204 BF12     		.uleb128 .LEHB95-.LFB1038
 2304 0206 05       		.uleb128 .LEHE95-.LEHB95
 2305 0207 00       		.uleb128 0
 2306 0208 00       		.uleb128 0
 2307 0209 D712     		.uleb128 .LEHB96-.LFB1038
 2308 020b 05       		.uleb128 .LEHE96-.LEHB96
 2309 020c 00       		.uleb128 0
 2310 020d 00       		.uleb128 0
 2311 020e E412     		.uleb128 .LEHB97-.LFB1038
 2312 0210 38       		.uleb128 .LEHE97-.LEHB97
 2313 0211 C912     		.uleb128 .L135-.LFB1038
 2314 0213 00       		.uleb128 0
 2315 0214 9C13     		.uleb128 .LEHB98-.LFB1038
 2316 0216 05       		.uleb128 .LEHE98-.LEHB98
 2317 0217 00       		.uleb128 0
 2318 0218 00       		.uleb128 0
 2319 0219 B413     		.uleb128 .LEHB99-.LFB1038
 2320 021b 05       		.uleb128 .LEHE99-.LEHB99
 2321 021c 00       		.uleb128 0
 2322 021d 00       		.uleb128 0
 2323 021e C113     		.uleb128 .LEHB100-.LFB1038
 2324 0220 38       		.uleb128 .LEHE100-.LEHB100
 2325 0221 A613     		.uleb128 .L137-.LFB1038
 2326 0223 00       		.uleb128 0
 2327 0224 F913     		.uleb128 .LEHB101-.LFB1038
 2328 0226 05       		.uleb128 .LEHE101-.LEHB101
 2329 0227 00       		.uleb128 0
 2330 0228 00       		.uleb128 0
 2331 0229 9114     		.uleb128 .LEHB102-.LFB1038
 2332 022b 05       		.uleb128 .LEHE102-.LEHB102
 2333 022c 00       		.uleb128 0
 2334 022d 00       		.uleb128 0
 2335 022e 9E14     		.uleb128 .LEHB103-.LFB1038
 2336 0230 38       		.uleb128 .LEHE103-.LEHB103
 2337 0231 8314     		.uleb128 .L139-.LFB1038
 2338 0233 00       		.uleb128 0
 2339 0234 D614     		.uleb128 .LEHB104-.LFB1038
 2340 0236 05       		.uleb128 .LEHE104-.LEHB104
 2341 0237 00       		.uleb128 0
 2342 0238 00       		.uleb128 0
 2343 0239 EE14     		.uleb128 .LEHB105-.LFB1038
 2344 023b 05       		.uleb128 .LEHE105-.LEHB105
 2345 023c 00       		.uleb128 0
 2346 023d 00       		.uleb128 0
 2347 023e FB14     		.uleb128 .LEHB106-.LFB1038
 2348 0240 38       		.uleb128 .LEHE106-.LEHB106
 2349 0241 E014     		.uleb128 .L141-.LFB1038
 2350 0243 00       		.uleb128 0
 2351 0244 B315     		.uleb128 .LEHB107-.LFB1038
 2352 0246 05       		.uleb128 .LEHE107-.LEHB107
 2353 0247 00       		.uleb128 0
 2354 0248 00       		.uleb128 0
 2355              	.LLSDACSE1038:
 2356 0249 01       		.byte	0x1
 2357 024a 00       		.byte	0
 2358 024b 00       		.align 4
 2359 024c 00000000 		.long	0
 2360              	
 2361              	.LLSDATT1038:
 2362              		.text
 2364              		.section	.rodata
 2365              	.LC21:
 2366 0453 51756575 		.string	"Queue_testPutWrap"
 2366      655F7465 
 2366      73745075 
 2366      74577261 
 2366      7000
 2367              		.section	.text._ZN21TestQueue_testPutWrapC2Ev,"axG",@progbits,_ZN21TestQueue_testPutWrapC5Ev,comda
 2368              		.align 2
 2369              		.weak	_ZN21TestQueue_testPutWrapC2Ev
 2371              	_ZN21TestQueue_testPutWrapC2Ev:
 2372              	.LFB1040:
 118:testCore.cpp  **** 
 119:testCore.cpp  **** TEST(Queue_testPutWrap) {
 2373              		.loc 3 119 0
 2374              		.cfi_startproc
 2375 0000 55       		pushq	%rbp
 2376              		.cfi_def_cfa_offset 16
 2377              		.cfi_offset 6, -16
 2378 0001 4889E5   		movq	%rsp, %rbp
 2379              		.cfi_def_cfa_register 6
 2380 0004 4883EC10 		subq	$16, %rsp
 2381 0008 48897DF8 		movq	%rdi, -8(%rbp)
 2382              	.LBB9:
 2383              		.loc 3 119 0
 2384 000c E8000000 		call	_ZN13UnitTestSuite12GetSuiteNameEv
 2384      00
 2385 0011 4889C2   		movq	%rax, %rdx
 2386 0014 488B45F8 		movq	-8(%rbp), %rax
 2387 0018 41B87700 		movl	$119, %r8d
 2387      0000
 2388 001e B9000000 		movl	$.LC1, %ecx
 2388      00
 2389 0023 BE000000 		movl	$.LC21, %esi
 2389      00
 2390 0028 4889C7   		movq	%rax, %rdi
 2391 002b E8000000 		call	_ZN8UnitTest4TestC2EPKcS2_S2_i
 2391      00
 2392 0030 488B45F8 		movq	-8(%rbp), %rax
 2393 0034 48C70000 		movq	$_ZTV21TestQueue_testPutWrap+16, (%rax)
 2393      000000
 2394              	.LBE9:
 2395 003b C9       		leave
 2396              		.cfi_def_cfa 7, 8
 2397 003c C3       		ret
 2398              		.cfi_endproc
 2399              	.LFE1040:
 2401              		.weak	_ZN21TestQueue_testPutWrapC1Ev
 2402              		.set	_ZN21TestQueue_testPutWrapC1Ev,_ZN21TestQueue_testPutWrapC2Ev
 2403              		.globl	testQueue_testPutWrapInstance
 2404              		.bss
 2405 0079 00000000 		.align 32
 2405      000000
 2408              	testQueue_testPutWrapInstance:
 2409 0080 00000000 		.zero	56
 2409      00000000 
 2409      00000000 
 2409      00000000 
 2409      00000000 
 2410              		.globl	adderQueue_testPutWrap
 2413              	adderQueue_testPutWrap:
 2414 00b8 00       		.zero	1
 2415              		.section	.rodata
 2416 0465 000000   		.align 8
 2417              	.LC22:
 2418 0468 556E6861 		.string	"Unhandled exception in CHECK_EQUAL(4UL, *item)"
 2418      6E646C65 
 2418      64206578 
 2418      63657074 
 2418      696F6E20 
 2419 0497 00       		.align 8
 2420              	.LC23:
 2421 0498 556E6861 		.string	"Unhandled exception in CHECK_EQUAL(4UL, queue.numItems)"
 2421      6E646C65 
 2421      64206578 
 2421      63657074 
 2421      696F6E20 
 2422              		.align 8
 2423              	.LC24:
 2424 04d0 556E6861 		.string	"Unhandled exception in CHECK_EQUAL(8UL, deref(queue.itemArray[3]))"
 2424      6E646C65 
 2424      64206578 
 2424      63657074 
 2424      696F6E20 
 2425              		.text
 2426 11b7 90       		.align 2
 2427              		.globl	_ZNK21TestQueue_testPutWrap7RunImplEv
 2429              	_ZNK21TestQueue_testPutWrap7RunImplEv:
 2430              	.LFB1042:
 2431              		.loc 3 119 0
 2432              		.cfi_startproc
 2433              		.cfi_personality 0x3,__gxx_personality_v0
 2434              		.cfi_lsda 0x3,.LLSDA1042
 2435 11b8 55       		pushq	%rbp
 2436              		.cfi_def_cfa_offset 16
 2437              		.cfi_offset 6, -16
 2438 11b9 4889E5   		movq	%rsp, %rbp
 2439              		.cfi_def_cfa_register 6
 2440 11bc 53       		pushq	%rbx
 2441 11bd 4881EC98 		subq	$152, %rsp
 2441      000000
 2442              		.cfi_offset 3, -24
 2443 11c4 4889BD68 		movq	%rdi, -152(%rbp)
 2443      FFFFFF
 2444              	.LBB10:
 120:testCore.cpp  **** 	struct UnboundedQueue queue;
 121:testCore.cpp  **** 	uint32 *item;
 122:testCore.cpp  **** 	m_count = 1;
 2445              		.loc 3 122 0
 2446 11cb C7050000 		movl	$1, _ZL7m_count(%rip)
 2446      00000100 
 2446      0000
 123:testCore.cpp  **** 
 124:testCore.cpp  **** 	// Create queue
 125:testCore.cpp  **** 	USBStatus status = queueInit(&queue, 4, (CreateFunc)createInt, (DestroyFunc)destroyInt);
 2447              		.loc 3 125 0
 2448 11d5 488D45B0 		leaq	-80(%rbp), %rax
 2449 11d9 B9000000 		movl	$destroyInt, %ecx
 2449      00
 2450 11de BA000000 		movl	$createInt, %edx
 2450      00
 2451 11e3 BE040000 		movl	$4, %esi
 2451      00
 2452 11e8 4889C7   		movq	%rax, %rdi
 2453              	.LEHB108:
 2454 11eb E8000000 		call	queueInit
 2454      00
 2455              	.LEHE108:
 2456 11f0 898578FF 		movl	%eax, -136(%rbp)
 2456      FFFF
 2457              	.LEHB109:
 126:testCore.cpp  **** 	CHECK_EQUAL(USB_SUCCESS, status);
 2458              		.loc 3 126 0
 2459 11f6 E8000000 		call	_ZN8UnitTest11CurrentTest7DetailsEv
 2459      00
 2460 11fb 488B08   		movq	(%rax), %rcx
 2461 11fe 488D4590 		leaq	-112(%rbp), %rax
 2462 1202 BA7E0000 		movl	$126, %edx
 2462      00
 2463 1207 4889CE   		movq	%rcx, %rsi
 2464 120a 4889C7   		movq	%rax, %rdi
 2465 120d E8000000 		call	_ZN8UnitTest11TestDetailsC1ERKS0_i
 2465      00
 2466              		.loc 3 126 0 is_stmt 0 discriminator 1
 2467 1212 C7458800 		movl	$0, -120(%rbp)
 2467      000000
 2468 1219 E8000000 		call	_ZN8UnitTest11CurrentTest7ResultsEv
 2468      00
 2469 121e 488B00   		movq	(%rax), %rax
 2470 1221 488D4D90 		leaq	-112(%rbp), %rcx
 2471 1225 488D9578 		leaq	-136(%rbp), %rdx
 2471      FFFFFF
 2472 122c 488D7588 		leaq	-120(%rbp), %rsi
 2473 1230 4889C7   		movq	%rax, %rdi
 2474 1233 E8000000 		call	_ZN8UnitTest10CheckEqualI9USBStatusS1_EEvRNS_11TestResultsERKT_RKT0_RKNS_11TestDetailsE
 2474      00
 2475              	.LEHE109:
 2476              	.L147:
 127:testCore.cpp  **** 
 128:testCore.cpp  **** 	// Put four items into the queue
 129:testCore.cpp  **** 	status = queuePut(&queue, (Item*)&item);
 2477              		.loc 3 129 0 is_stmt 1
 2478 1238 488D5580 		leaq	-128(%rbp), %rdx
 2479 123c 488D45B0 		leaq	-80(%rbp), %rax
 2480 1240 4889D6   		movq	%rdx, %rsi
 2481 1243 4889C7   		movq	%rax, %rdi
 2482              	.LEHB110:
 2483 1246 E8000000 		call	queuePut
 2483      00
 2484              	.LEHE110:
 2485 124b 898578FF 		movl	%eax, -136(%rbp)
 2485      FFFF
 2486              	.LEHB111:
 130:testCore.cpp  **** 	CHECK_EQUAL(USB_SUCCESS, status);
 2487              		.loc 3 130 0
 2488 1251 E8000000 		call	_ZN8UnitTest11CurrentTest7DetailsEv
 2488      00
 2489 1256 488B08   		movq	(%rax), %rcx
 2490 1259 488D4590 		leaq	-112(%rbp), %rax
 2491 125d BA820000 		movl	$130, %edx
 2491      00
 2492 1262 4889CE   		movq	%rcx, %rsi
 2493 1265 4889C7   		movq	%rax, %rdi
 2494 1268 E8000000 		call	_ZN8UnitTest11TestDetailsC1ERKS0_i
 2494      00
 2495              		.loc 3 130 0 is_stmt 0 discriminator 1
 2496 126d C7458800 		movl	$0, -120(%rbp)
 2496      000000
 2497 1274 E8000000 		call	_ZN8UnitTest11CurrentTest7ResultsEv
 2497      00
 2498 1279 488B00   		movq	(%rax), %rax
 2499 127c 488D4D90 		leaq	-112(%rbp), %rcx
 2500 1280 488D9578 		leaq	-136(%rbp), %rdx
 2500      FFFFFF
 2501 1287 488D7588 		leaq	-120(%rbp), %rsi
 2502 128b 4889C7   		movq	%rax, %rdi
 2503 128e E8000000 		call	_ZN8UnitTest10CheckEqualI9USBStatusS1_EEvRNS_11TestResultsERKT_RKT0_RKNS_11TestDetailsE
 2503      00
 2504              	.LEHE111:
 2505              	.L150:
 2506              	.LEHB112:
 131:testCore.cpp  **** 	CHECK_EQUAL(1UL, *item);
 2507              		.loc 3 131 0 is_stmt 1
 2508 1293 E8000000 		call	_ZN8UnitTest11CurrentTest7DetailsEv
 2508      00
 2509 1298 488B08   		movq	(%rax), %rcx
 2510 129b 488D4590 		leaq	-112(%rbp), %rax
 2511 129f BA830000 		movl	$131, %edx
 2511      00
 2512 12a4 4889CE   		movq	%rcx, %rsi
 2513 12a7 4889C7   		movq	%rax, %rdi
 2514 12aa E8000000 		call	_ZN8UnitTest11TestDetailsC1ERKS0_i
 2514      00
 2515              		.loc 3 131 0 is_stmt 0 discriminator 1
 2516 12af 488B5D80 		movq	-128(%rbp), %rbx
 2517 12b3 48C74588 		movq	$1, -120(%rbp)
 2517      01000000 
 2518 12bb E8000000 		call	_ZN8UnitTest11CurrentTest7ResultsEv
 2518      00
 2519 12c0 488B00   		movq	(%rax), %rax
 2520 12c3 488D5590 		leaq	-112(%rbp), %rdx
 2521 12c7 488D7588 		leaq	-120(%rbp), %rsi
 2522 12cb 4889D1   		movq	%rdx, %rcx
 2523 12ce 4889DA   		movq	%rbx, %rdx
 2524 12d1 4889C7   		movq	%rax, %rdi
 2525 12d4 E8000000 		call	_ZN8UnitTest10CheckEqualImjEEvRNS_11TestResultsERKT_RKT0_RKNS_11TestDetailsE
 2525      00
 2526              	.LEHE112:
 2527              	.L153:
 132:testCore.cpp  **** 	*item = 5;
 2528              		.loc 3 132 0 is_stmt 1
 2529 12d9 488B4580 		movq	-128(%rbp), %rax
 2530 12dd C7000500 		movl	$5, (%rax)
 2530      0000
 133:testCore.cpp  **** 	queueCommitPut(&queue);
 2531              		.loc 3 133 0
 2532 12e3 488D45B0 		leaq	-80(%rbp), %rax
 2533 12e7 4889C7   		movq	%rax, %rdi
 2534              	.LEHB113:
 2535 12ea E8000000 		call	queueCommitPut
 2535      00
 134:testCore.cpp  **** 	status = queuePut(&queue, (Item*)&item);
 2536              		.loc 3 134 0
 2537 12ef 488D5580 		leaq	-128(%rbp), %rdx
 2538 12f3 488D45B0 		leaq	-80(%rbp), %rax
 2539 12f7 4889D6   		movq	%rdx, %rsi
 2540 12fa 4889C7   		movq	%rax, %rdi
 2541 12fd E8000000 		call	queuePut
 2541      00
 2542              	.LEHE113:
 2543 1302 898578FF 		movl	%eax, -136(%rbp)
 2543      FFFF
 2544              	.LEHB114:
 135:testCore.cpp  **** 	CHECK_EQUAL(USB_SUCCESS, status);
 2545              		.loc 3 135 0
 2546 1308 E8000000 		call	_ZN8UnitTest11CurrentTest7DetailsEv
 2546      00
 2547 130d 488B08   		movq	(%rax), %rcx
 2548 1310 488D4590 		leaq	-112(%rbp), %rax
 2549 1314 BA870000 		movl	$135, %edx
 2549      00
 2550 1319 4889CE   		movq	%rcx, %rsi
 2551 131c 4889C7   		movq	%rax, %rdi
 2552 131f E8000000 		call	_ZN8UnitTest11TestDetailsC1ERKS0_i
 2552      00
 2553              		.loc 3 135 0 is_stmt 0 discriminator 1
 2554 1324 C7458800 		movl	$0, -120(%rbp)
 2554      000000
 2555 132b E8000000 		call	_ZN8UnitTest11CurrentTest7ResultsEv
 2555      00
 2556 1330 488B00   		movq	(%rax), %rax
 2557 1333 488D4D90 		leaq	-112(%rbp), %rcx
 2558 1337 488D9578 		leaq	-136(%rbp), %rdx
 2558      FFFFFF
 2559 133e 488D7588 		leaq	-120(%rbp), %rsi
 2560 1342 4889C7   		movq	%rax, %rdi
 2561 1345 E8000000 		call	_ZN8UnitTest10CheckEqualI9USBStatusS1_EEvRNS_11TestResultsERKT_RKT0_RKNS_11TestDetailsE
 2561      00
 2562              	.LEHE114:
 2563              	.L156:
 2564              	.LEHB115:
 136:testCore.cpp  **** 	CHECK_EQUAL(2UL, *item);
 2565              		.loc 3 136 0 is_stmt 1
 2566 134a E8000000 		call	_ZN8UnitTest11CurrentTest7DetailsEv
 2566      00
 2567 134f 488B08   		movq	(%rax), %rcx
 2568 1352 488D4590 		leaq	-112(%rbp), %rax
 2569 1356 BA880000 		movl	$136, %edx
 2569      00
 2570 135b 4889CE   		movq	%rcx, %rsi
 2571 135e 4889C7   		movq	%rax, %rdi
 2572 1361 E8000000 		call	_ZN8UnitTest11TestDetailsC1ERKS0_i
 2572      00
 2573              		.loc 3 136 0 is_stmt 0 discriminator 1
 2574 1366 488B5D80 		movq	-128(%rbp), %rbx
 2575 136a 48C74588 		movq	$2, -120(%rbp)
 2575      02000000 
 2576 1372 E8000000 		call	_ZN8UnitTest11CurrentTest7ResultsEv
 2576      00
 2577 1377 488B00   		movq	(%rax), %rax
 2578 137a 488D5590 		leaq	-112(%rbp), %rdx
 2579 137e 488D7588 		leaq	-120(%rbp), %rsi
 2580 1382 4889D1   		movq	%rdx, %rcx
 2581 1385 4889DA   		movq	%rbx, %rdx
 2582 1388 4889C7   		movq	%rax, %rdi
 2583 138b E8000000 		call	_ZN8UnitTest10CheckEqualImjEEvRNS_11TestResultsERKT_RKT0_RKNS_11TestDetailsE
 2583      00
 2584              	.LEHE115:
 2585              	.L159:
 137:testCore.cpp  **** 	*item = 6;
 2586              		.loc 3 137 0 is_stmt 1
 2587 1390 488B4580 		movq	-128(%rbp), %rax
 2588 1394 C7000600 		movl	$6, (%rax)
 2588      0000
 138:testCore.cpp  **** 	queueCommitPut(&queue);
 2589              		.loc 3 138 0
 2590 139a 488D45B0 		leaq	-80(%rbp), %rax
 2591 139e 4889C7   		movq	%rax, %rdi
 2592              	.LEHB116:
 2593 13a1 E8000000 		call	queueCommitPut
 2593      00
 139:testCore.cpp  **** 	status = queuePut(&queue, (Item*)&item);
 2594              		.loc 3 139 0
 2595 13a6 488D5580 		leaq	-128(%rbp), %rdx
 2596 13aa 488D45B0 		leaq	-80(%rbp), %rax
 2597 13ae 4889D6   		movq	%rdx, %rsi
 2598 13b1 4889C7   		movq	%rax, %rdi
 2599 13b4 E8000000 		call	queuePut
 2599      00
 2600              	.LEHE116:
 2601 13b9 898578FF 		movl	%eax, -136(%rbp)
 2601      FFFF
 2602              	.LEHB117:
 140:testCore.cpp  **** 	CHECK_EQUAL(USB_SUCCESS, status);
 2603              		.loc 3 140 0
 2604 13bf E8000000 		call	_ZN8UnitTest11CurrentTest7DetailsEv
 2604      00
 2605 13c4 488B08   		movq	(%rax), %rcx
 2606 13c7 488D4590 		leaq	-112(%rbp), %rax
 2607 13cb BA8C0000 		movl	$140, %edx
 2607      00
 2608 13d0 4889CE   		movq	%rcx, %rsi
 2609 13d3 4889C7   		movq	%rax, %rdi
 2610 13d6 E8000000 		call	_ZN8UnitTest11TestDetailsC1ERKS0_i
 2610      00
 2611              		.loc 3 140 0 is_stmt 0 discriminator 1
 2612 13db C7458800 		movl	$0, -120(%rbp)
 2612      000000
 2613 13e2 E8000000 		call	_ZN8UnitTest11CurrentTest7ResultsEv
 2613      00
 2614 13e7 488B00   		movq	(%rax), %rax
 2615 13ea 488D4D90 		leaq	-112(%rbp), %rcx
 2616 13ee 488D9578 		leaq	-136(%rbp), %rdx
 2616      FFFFFF
 2617 13f5 488D7588 		leaq	-120(%rbp), %rsi
 2618 13f9 4889C7   		movq	%rax, %rdi
 2619 13fc E8000000 		call	_ZN8UnitTest10CheckEqualI9USBStatusS1_EEvRNS_11TestResultsERKT_RKT0_RKNS_11TestDetailsE
 2619      00
 2620              	.LEHE117:
 2621              	.L162:
 2622              	.LEHB118:
 141:testCore.cpp  **** 	CHECK_EQUAL(3UL, *item);
 2623              		.loc 3 141 0 is_stmt 1
 2624 1401 E8000000 		call	_ZN8UnitTest11CurrentTest7DetailsEv
 2624      00
 2625 1406 488B08   		movq	(%rax), %rcx
 2626 1409 488D4590 		leaq	-112(%rbp), %rax
 2627 140d BA8D0000 		movl	$141, %edx
 2627      00
 2628 1412 4889CE   		movq	%rcx, %rsi
 2629 1415 4889C7   		movq	%rax, %rdi
 2630 1418 E8000000 		call	_ZN8UnitTest11TestDetailsC1ERKS0_i
 2630      00
 2631              		.loc 3 141 0 is_stmt 0 discriminator 1
 2632 141d 488B5D80 		movq	-128(%rbp), %rbx
 2633 1421 48C74588 		movq	$3, -120(%rbp)
 2633      03000000 
 2634 1429 E8000000 		call	_ZN8UnitTest11CurrentTest7ResultsEv
 2634      00
 2635 142e 488B00   		movq	(%rax), %rax
 2636 1431 488D5590 		leaq	-112(%rbp), %rdx
 2637 1435 488D7588 		leaq	-120(%rbp), %rsi
 2638 1439 4889D1   		movq	%rdx, %rcx
 2639 143c 4889DA   		movq	%rbx, %rdx
 2640 143f 4889C7   		movq	%rax, %rdi
 2641 1442 E8000000 		call	_ZN8UnitTest10CheckEqualImjEEvRNS_11TestResultsERKT_RKT0_RKNS_11TestDetailsE
 2641      00
 2642              	.LEHE118:
 2643              	.L165:
 142:testCore.cpp  **** 	*item = 7;
 2644              		.loc 3 142 0 is_stmt 1
 2645 1447 488B4580 		movq	-128(%rbp), %rax
 2646 144b C7000700 		movl	$7, (%rax)
 2646      0000
 143:testCore.cpp  **** 	queueCommitPut(&queue);
 2647              		.loc 3 143 0
 2648 1451 488D45B0 		leaq	-80(%rbp), %rax
 2649 1455 4889C7   		movq	%rax, %rdi
 2650              	.LEHB119:
 2651 1458 E8000000 		call	queueCommitPut
 2651      00
 144:testCore.cpp  **** 	status = queuePut(&queue, (Item*)&item);
 2652              		.loc 3 144 0
 2653 145d 488D5580 		leaq	-128(%rbp), %rdx
 2654 1461 488D45B0 		leaq	-80(%rbp), %rax
 2655 1465 4889D6   		movq	%rdx, %rsi
 2656 1468 4889C7   		movq	%rax, %rdi
 2657 146b E8000000 		call	queuePut
 2657      00
 2658              	.LEHE119:
 2659 1470 898578FF 		movl	%eax, -136(%rbp)
 2659      FFFF
 2660              	.LEHB120:
 145:testCore.cpp  **** 	CHECK_EQUAL(USB_SUCCESS, status);
 2661              		.loc 3 145 0
 2662 1476 E8000000 		call	_ZN8UnitTest11CurrentTest7DetailsEv
 2662      00
 2663 147b 488B08   		movq	(%rax), %rcx
 2664 147e 488D4590 		leaq	-112(%rbp), %rax
 2665 1482 BA910000 		movl	$145, %edx
 2665      00
 2666 1487 4889CE   		movq	%rcx, %rsi
 2667 148a 4889C7   		movq	%rax, %rdi
 2668 148d E8000000 		call	_ZN8UnitTest11TestDetailsC1ERKS0_i
 2668      00
 2669              		.loc 3 145 0 is_stmt 0 discriminator 1
 2670 1492 C7458800 		movl	$0, -120(%rbp)
 2670      000000
 2671 1499 E8000000 		call	_ZN8UnitTest11CurrentTest7ResultsEv
 2671      00
 2672 149e 488B00   		movq	(%rax), %rax
 2673 14a1 488D4D90 		leaq	-112(%rbp), %rcx
 2674 14a5 488D9578 		leaq	-136(%rbp), %rdx
 2674      FFFFFF
 2675 14ac 488D7588 		leaq	-120(%rbp), %rsi
 2676 14b0 4889C7   		movq	%rax, %rdi
 2677 14b3 E8000000 		call	_ZN8UnitTest10CheckEqualI9USBStatusS1_EEvRNS_11TestResultsERKT_RKT0_RKNS_11TestDetailsE
 2677      00
 2678              	.LEHE120:
 2679              	.L168:
 2680              	.LEHB121:
 146:testCore.cpp  **** 	CHECK_EQUAL(4UL, *item);
 2681              		.loc 3 146 0 is_stmt 1
 2682 14b8 E8000000 		call	_ZN8UnitTest11CurrentTest7DetailsEv
 2682      00
 2683 14bd 488B08   		movq	(%rax), %rcx
 2684 14c0 488D4590 		leaq	-112(%rbp), %rax
 2685 14c4 BA920000 		movl	$146, %edx
 2685      00
 2686 14c9 4889CE   		movq	%rcx, %rsi
 2687 14cc 4889C7   		movq	%rax, %rdi
 2688 14cf E8000000 		call	_ZN8UnitTest11TestDetailsC1ERKS0_i
 2688      00
 2689              		.loc 3 146 0 is_stmt 0 discriminator 1
 2690 14d4 488B5D80 		movq	-128(%rbp), %rbx
 2691 14d8 48C74588 		movq	$4, -120(%rbp)
 2691      04000000 
 2692 14e0 E8000000 		call	_ZN8UnitTest11CurrentTest7ResultsEv
 2692      00
 2693 14e5 488B00   		movq	(%rax), %rax
 2694 14e8 488D5590 		leaq	-112(%rbp), %rdx
 2695 14ec 488D7588 		leaq	-120(%rbp), %rsi
 2696 14f0 4889D1   		movq	%rdx, %rcx
 2697 14f3 4889DA   		movq	%rbx, %rdx
 2698 14f6 4889C7   		movq	%rax, %rdi
 2699 14f9 E8000000 		call	_ZN8UnitTest10CheckEqualImjEEvRNS_11TestResultsERKT_RKT0_RKNS_11TestDetailsE
 2699      00
 2700              	.LEHE121:
 2701              	.L171:
 147:testCore.cpp  **** 	*item = 8;
 2702              		.loc 3 147 0 is_stmt 1
 2703 14fe 488B4580 		movq	-128(%rbp), %rax
 2704 1502 C7000800 		movl	$8, (%rax)
 2704      0000
 148:testCore.cpp  **** 	queueCommitPut(&queue);
 2705              		.loc 3 148 0
 2706 1508 488D45B0 		leaq	-80(%rbp), %rax
 2707 150c 4889C7   		movq	%rax, %rdi
 2708              	.LEHB122:
 2709 150f E8000000 		call	queueCommitPut
 2709      00
 2710              	.LEHE122:
 2711              	.LEHB123:
 149:testCore.cpp  **** 
 150:testCore.cpp  **** 	// Verify
 151:testCore.cpp  **** 	CHECK_EQUAL(4UL, queue.capacity);
 2712              		.loc 3 151 0
 2713 1514 E8000000 		call	_ZN8UnitTest11CurrentTest7DetailsEv
 2713      00
 2714 1519 488B08   		movq	(%rax), %rcx
 2715 151c 488D4590 		leaq	-112(%rbp), %rax
 2716 1520 BA970000 		movl	$151, %edx
 2716      00
 2717 1525 4889CE   		movq	%rcx, %rsi
 2718 1528 4889C7   		movq	%rax, %rdi
 2719 152b E8000000 		call	_ZN8UnitTest11TestDetailsC1ERKS0_i
 2719      00
 2720              		.loc 3 151 0 is_stmt 0 discriminator 1
 2721 1530 48C74588 		movq	$4, -120(%rbp)
 2721      04000000 
 2722 1538 E8000000 		call	_ZN8UnitTest11CurrentTest7ResultsEv
 2722      00
 2723 153d 488B00   		movq	(%rax), %rax
 2724 1540 488D5590 		leaq	-112(%rbp), %rdx
 2725 1544 488D4DB0 		leaq	-80(%rbp), %rcx
 2726 1548 488D7908 		leaq	8(%rcx), %rdi
 2727 154c 488D7588 		leaq	-120(%rbp), %rsi
 2728 1550 4889D1   		movq	%rdx, %rcx
 2729 1553 4889FA   		movq	%rdi, %rdx
 2730 1556 4889C7   		movq	%rax, %rdi
 2731 1559 E8000000 		call	_ZN8UnitTest10CheckEqualImmEEvRNS_11TestResultsERKT_RKT0_RKNS_11TestDetailsE
 2731      00
 2732              	.LEHE123:
 2733              	.L174:
 2734              	.LEHB124:
 152:testCore.cpp  **** 	CHECK_EQUAL(0UL, queue.putIndex);
 2735              		.loc 3 152 0 is_stmt 1
 2736 155e E8000000 		call	_ZN8UnitTest11CurrentTest7DetailsEv
 2736      00
 2737 1563 488B08   		movq	(%rax), %rcx
 2738 1566 488D4590 		leaq	-112(%rbp), %rax
 2739 156a BA980000 		movl	$152, %edx
 2739      00
 2740 156f 4889CE   		movq	%rcx, %rsi
 2741 1572 4889C7   		movq	%rax, %rdi
 2742 1575 E8000000 		call	_ZN8UnitTest11TestDetailsC1ERKS0_i
 2742      00
 2743              		.loc 3 152 0 is_stmt 0 discriminator 1
 2744 157a 48C74588 		movq	$0, -120(%rbp)
 2744      00000000 
 2745 1582 E8000000 		call	_ZN8UnitTest11CurrentTest7ResultsEv
 2745      00
 2746 1587 488B00   		movq	(%rax), %rax
 2747 158a 488D5590 		leaq	-112(%rbp), %rdx
 2748 158e 488D4DB0 		leaq	-80(%rbp), %rcx
 2749 1592 488D7910 		leaq	16(%rcx), %rdi
 2750 1596 488D7588 		leaq	-120(%rbp), %rsi
 2751 159a 4889D1   		movq	%rdx, %rcx
 2752 159d 4889FA   		movq	%rdi, %rdx
 2753 15a0 4889C7   		movq	%rax, %rdi
 2754 15a3 E8000000 		call	_ZN8UnitTest10CheckEqualImmEEvRNS_11TestResultsERKT_RKT0_RKNS_11TestDetailsE
 2754      00
 2755              	.LEHE124:
 2756              	.L177:
 2757              	.LEHB125:
 153:testCore.cpp  **** 	CHECK_EQUAL(0UL, queue.takeIndex);
 2758              		.loc 3 153 0 is_stmt 1
 2759 15a8 E8000000 		call	_ZN8UnitTest11CurrentTest7DetailsEv
 2759      00
 2760 15ad 488B08   		movq	(%rax), %rcx
 2761 15b0 488D4590 		leaq	-112(%rbp), %rax
 2762 15b4 BA990000 		movl	$153, %edx
 2762      00
 2763 15b9 4889CE   		movq	%rcx, %rsi
 2764 15bc 4889C7   		movq	%rax, %rdi
 2765 15bf E8000000 		call	_ZN8UnitTest11TestDetailsC1ERKS0_i
 2765      00
 2766              		.loc 3 153 0 is_stmt 0 discriminator 1
 2767 15c4 48C74588 		movq	$0, -120(%rbp)
 2767      00000000 
 2768 15cc E8000000 		call	_ZN8UnitTest11CurrentTest7ResultsEv
 2768      00
 2769 15d1 488B00   		movq	(%rax), %rax
 2770 15d4 488D5590 		leaq	-112(%rbp), %rdx
 2771 15d8 488D4DB0 		leaq	-80(%rbp), %rcx
 2772 15dc 488D7918 		leaq	24(%rcx), %rdi
 2773 15e0 488D7588 		leaq	-120(%rbp), %rsi
 2774 15e4 4889D1   		movq	%rdx, %rcx
 2775 15e7 4889FA   		movq	%rdi, %rdx
 2776 15ea 4889C7   		movq	%rax, %rdi
 2777 15ed E8000000 		call	_ZN8UnitTest10CheckEqualImmEEvRNS_11TestResultsERKT_RKT0_RKNS_11TestDetailsE
 2777      00
 2778              	.LEHE125:
 2779              	.L180:
 2780              	.LEHB126:
 154:testCore.cpp  **** 	CHECK_EQUAL(4UL, queue.numItems);
 2781              		.loc 3 154 0 is_stmt 1
 2782 15f2 E8000000 		call	_ZN8UnitTest11CurrentTest7DetailsEv
 2782      00
 2783 15f7 488B08   		movq	(%rax), %rcx
 2784 15fa 488D4590 		leaq	-112(%rbp), %rax
 2785 15fe BA9A0000 		movl	$154, %edx
 2785      00
 2786 1603 4889CE   		movq	%rcx, %rsi
 2787 1606 4889C7   		movq	%rax, %rdi
 2788 1609 E8000000 		call	_ZN8UnitTest11TestDetailsC1ERKS0_i
 2788      00
 2789              		.loc 3 154 0 is_stmt 0 discriminator 1
 2790 160e 48C74588 		movq	$4, -120(%rbp)
 2790      04000000 
 2791 1616 E8000000 		call	_ZN8UnitTest11CurrentTest7ResultsEv
 2791      00
 2792 161b 488B00   		movq	(%rax), %rax
 2793 161e 488D5590 		leaq	-112(%rbp), %rdx
 2794 1622 488D4DB0 		leaq	-80(%rbp), %rcx
 2795 1626 488D7920 		leaq	32(%rcx), %rdi
 2796 162a 488D7588 		leaq	-120(%rbp), %rsi
 2797 162e 4889D1   		movq	%rdx, %rcx
 2798 1631 4889FA   		movq	%rdi, %rdx
 2799 1634 4889C7   		movq	%rax, %rdi
 2800 1637 E8000000 		call	_ZN8UnitTest10CheckEqualImmEEvRNS_11TestResultsERKT_RKT0_RKNS_11TestDetailsE
 2800      00
 2801              	.LEHE126:
 2802              	.L183:
 2803              	.LEHB127:
 155:testCore.cpp  **** 
 156:testCore.cpp  **** 	// Verify array
 157:testCore.cpp  **** 	CHECK_EQUAL(5UL, deref(queue.itemArray[0]));
 2804              		.loc 3 157 0 is_stmt 1
 2805 163c E8000000 		call	_ZN8UnitTest11CurrentTest7DetailsEv
 2805      00
 2806 1641 488B08   		movq	(%rax), %rcx
 2807 1644 488D4590 		leaq	-112(%rbp), %rax
 2808 1648 BA9D0000 		movl	$157, %edx
 2808      00
 2809 164d 4889CE   		movq	%rcx, %rsi
 2810 1650 4889C7   		movq	%rax, %rdi
 2811 1653 E8000000 		call	_ZN8UnitTest11TestDetailsC1ERKS0_i
 2811      00
 2812              		.loc 3 157 0 is_stmt 0 discriminator 1
 2813 1658 488B45B0 		movq	-80(%rbp), %rax
 2814 165c 488B00   		movq	(%rax), %rax
 2815 165f 4889C7   		movq	%rax, %rdi
 2816 1662 E822EAFF 		call	_ZL5derefPKv
 2816      FF
 2817 1667 89857CFF 		movl	%eax, -132(%rbp)
 2817      FFFF
 2818 166d 48C74588 		movq	$5, -120(%rbp)
 2818      05000000 
 2819 1675 E8000000 		call	_ZN8UnitTest11CurrentTest7ResultsEv
 2819      00
 2820 167a 488B00   		movq	(%rax), %rax
 2821 167d 488D4D90 		leaq	-112(%rbp), %rcx
 2822 1681 488D957C 		leaq	-132(%rbp), %rdx
 2822      FFFFFF
 2823 1688 488D7588 		leaq	-120(%rbp), %rsi
 2824 168c 4889C7   		movq	%rax, %rdi
 2825 168f E8000000 		call	_ZN8UnitTest10CheckEqualImjEEvRNS_11TestResultsERKT_RKT0_RKNS_11TestDetailsE
 2825      00
 2826              	.LEHE127:
 2827              	.L186:
 2828              	.LEHB128:
 158:testCore.cpp  **** 	CHECK_EQUAL(6UL, deref(queue.itemArray[1]));
 2829              		.loc 3 158 0 is_stmt 1
 2830 1694 E8000000 		call	_ZN8UnitTest11CurrentTest7DetailsEv
 2830      00
 2831 1699 488B08   		movq	(%rax), %rcx
 2832 169c 488D4590 		leaq	-112(%rbp), %rax
 2833 16a0 BA9E0000 		movl	$158, %edx
 2833      00
 2834 16a5 4889CE   		movq	%rcx, %rsi
 2835 16a8 4889C7   		movq	%rax, %rdi
 2836 16ab E8000000 		call	_ZN8UnitTest11TestDetailsC1ERKS0_i
 2836      00
 2837              		.loc 3 158 0 is_stmt 0 discriminator 1
 2838 16b0 488B45B0 		movq	-80(%rbp), %rax
 2839 16b4 4883C008 		addq	$8, %rax
 2840 16b8 488B00   		movq	(%rax), %rax
 2841 16bb 4889C7   		movq	%rax, %rdi
 2842 16be E8C6E9FF 		call	_ZL5derefPKv
 2842      FF
 2843 16c3 89857CFF 		movl	%eax, -132(%rbp)
 2843      FFFF
 2844 16c9 48C74588 		movq	$6, -120(%rbp)
 2844      06000000 
 2845 16d1 E8000000 		call	_ZN8UnitTest11CurrentTest7ResultsEv
 2845      00
 2846 16d6 488B00   		movq	(%rax), %rax
 2847 16d9 488D4D90 		leaq	-112(%rbp), %rcx
 2848 16dd 488D957C 		leaq	-132(%rbp), %rdx
 2848      FFFFFF
 2849 16e4 488D7588 		leaq	-120(%rbp), %rsi
 2850 16e8 4889C7   		movq	%rax, %rdi
 2851 16eb E8000000 		call	_ZN8UnitTest10CheckEqualImjEEvRNS_11TestResultsERKT_RKT0_RKNS_11TestDetailsE
 2851      00
 2852              	.LEHE128:
 2853              	.L189:
 2854              	.LEHB129:
 159:testCore.cpp  **** 	CHECK_EQUAL(7UL, deref(queue.itemArray[2]));
 2855              		.loc 3 159 0 is_stmt 1
 2856 16f0 E8000000 		call	_ZN8UnitTest11CurrentTest7DetailsEv
 2856      00
 2857 16f5 488B08   		movq	(%rax), %rcx
 2858 16f8 488D4590 		leaq	-112(%rbp), %rax
 2859 16fc BA9F0000 		movl	$159, %edx
 2859      00
 2860 1701 4889CE   		movq	%rcx, %rsi
 2861 1704 4889C7   		movq	%rax, %rdi
 2862 1707 E8000000 		call	_ZN8UnitTest11TestDetailsC1ERKS0_i
 2862      00
 2863              		.loc 3 159 0 is_stmt 0 discriminator 1
 2864 170c 488B45B0 		movq	-80(%rbp), %rax
 2865 1710 4883C010 		addq	$16, %rax
 2866 1714 488B00   		movq	(%rax), %rax
 2867 1717 4889C7   		movq	%rax, %rdi
 2868 171a E86AE9FF 		call	_ZL5derefPKv
 2868      FF
 2869 171f 89857CFF 		movl	%eax, -132(%rbp)
 2869      FFFF
 2870 1725 48C74588 		movq	$7, -120(%rbp)
 2870      07000000 
 2871 172d E8000000 		call	_ZN8UnitTest11CurrentTest7ResultsEv
 2871      00
 2872 1732 488B00   		movq	(%rax), %rax
 2873 1735 488D4D90 		leaq	-112(%rbp), %rcx
 2874 1739 488D957C 		leaq	-132(%rbp), %rdx
 2874      FFFFFF
 2875 1740 488D7588 		leaq	-120(%rbp), %rsi
 2876 1744 4889C7   		movq	%rax, %rdi
 2877 1747 E8000000 		call	_ZN8UnitTest10CheckEqualImjEEvRNS_11TestResultsERKT_RKT0_RKNS_11TestDetailsE
 2877      00
 2878              	.LEHE129:
 2879              	.L192:
 2880              	.LEHB130:
 160:testCore.cpp  **** 	CHECK_EQUAL(8UL, deref(queue.itemArray[3]));
 2881              		.loc 3 160 0 is_stmt 1
 2882 174c E8000000 		call	_ZN8UnitTest11CurrentTest7DetailsEv
 2882      00
 2883 1751 488B08   		movq	(%rax), %rcx
 2884 1754 488D4590 		leaq	-112(%rbp), %rax
 2885 1758 BAA00000 		movl	$160, %edx
 2885      00
 2886 175d 4889CE   		movq	%rcx, %rsi
 2887 1760 4889C7   		movq	%rax, %rdi
 2888 1763 E8000000 		call	_ZN8UnitTest11TestDetailsC1ERKS0_i
 2888      00
 2889              		.loc 3 160 0 is_stmt 0 discriminator 1
 2890 1768 488B45B0 		movq	-80(%rbp), %rax
 2891 176c 4883C018 		addq	$24, %rax
 2892 1770 488B00   		movq	(%rax), %rax
 2893 1773 4889C7   		movq	%rax, %rdi
 2894 1776 E80EE9FF 		call	_ZL5derefPKv
 2894      FF
 2895 177b 89857CFF 		movl	%eax, -132(%rbp)
 2895      FFFF
 2896 1781 48C74588 		movq	$8, -120(%rbp)
 2896      08000000 
 2897 1789 E8000000 		call	_ZN8UnitTest11CurrentTest7ResultsEv
 2897      00
 2898 178e 488B00   		movq	(%rax), %rax
 2899 1791 488D4D90 		leaq	-112(%rbp), %rcx
 2900 1795 488D957C 		leaq	-132(%rbp), %rdx
 2900      FFFFFF
 2901 179c 488D7588 		leaq	-120(%rbp), %rsi
 2902 17a0 4889C7   		movq	%rax, %rdi
 2903 17a3 E8000000 		call	_ZN8UnitTest10CheckEqualImjEEvRNS_11TestResultsERKT_RKT0_RKNS_11TestDetailsE
 2903      00
 2904              	.LEHE130:
 2905              	.L195:
 161:testCore.cpp  **** 
 162:testCore.cpp  **** 	// Clean up
 163:testCore.cpp  **** 	queueDestroy(&queue);
 2906              		.loc 3 163 0 is_stmt 1
 2907 17a8 488D45B0 		leaq	-80(%rbp), %rax
 2908 17ac 4889C7   		movq	%rax, %rdi
 2909              	.LEHB131:
 2910 17af E8000000 		call	queueDestroy
 2910      00
 2911              	.LEHE131:
 2912 17b4 E92D0600 		jmp	.L230
 2912      00
 2913              	.L197:
 2914 17b9 4889C3   		movq	%rax, %rbx
 126:testCore.cpp  **** 
 2915              		.loc 3 126 0
 2916 17bc E8000000 		call	__cxa_end_catch
 2916      00
 2917 17c1 4889D8   		movq	%rbx, %rax
 2918 17c4 4889C7   		movq	%rax, %rdi
 2919              	.LEHB132:
 2920 17c7 E8000000 		call	_Unwind_Resume
 2920      00
 2921              	.LEHE132:
 2922              	.L196:
 2923 17cc 4889C7   		movq	%rax, %rdi
 2924 17cf E8000000 		call	__cxa_begin_catch
 2924      00
 2925              	.LEHB133:
 2926 17d4 E8000000 		call	_ZN8UnitTest11CurrentTest7DetailsEv
 2926      00
 2927 17d9 488B08   		movq	(%rax), %rcx
 2928 17dc 488D4590 		leaq	-112(%rbp), %rax
 2929 17e0 BA7E0000 		movl	$126, %edx
 2929      00
 2930 17e5 4889CE   		movq	%rcx, %rsi
 2931 17e8 4889C7   		movq	%rax, %rdi
 2932 17eb E8000000 		call	_ZN8UnitTest11TestDetailsC1ERKS0_i
 2932      00
 126:testCore.cpp  **** 
 2933              		.loc 3 126 0 is_stmt 0 discriminator 1
 2934 17f0 E8000000 		call	_ZN8UnitTest11CurrentTest7ResultsEv
 2934      00
 2935 17f5 488B00   		movq	(%rax), %rax
 2936 17f8 488D4D90 		leaq	-112(%rbp), %rcx
 2937 17fc BA000000 		movl	$.LC3, %edx
 2937      00
 2938 1801 4889CE   		movq	%rcx, %rsi
 2939 1804 4889C7   		movq	%rax, %rdi
 2940 1807 E8000000 		call	_ZN8UnitTest11TestResults13OnTestFailureERKNS_11TestDetailsEPKc
 2940      00
 2941              	.LEHE133:
 2942              	.LEHB134:
 2943 180c E8000000 		call	__cxa_end_catch
 2943      00
 2944              	.LEHE134:
 2945 1811 E922FAFF 		jmp	.L147
 2945      FF
 2946              	.L199:
 2947 1816 4889C3   		movq	%rax, %rbx
 130:testCore.cpp  **** 	CHECK_EQUAL(1UL, *item);
 2948              		.loc 3 130 0 is_stmt 1
 2949 1819 E8000000 		call	__cxa_end_catch
 2949      00
 2950 181e 4889D8   		movq	%rbx, %rax
 2951 1821 4889C7   		movq	%rax, %rdi
 2952              	.LEHB135:
 2953 1824 E8000000 		call	_Unwind_Resume
 2953      00
 2954              	.LEHE135:
 2955              	.L198:
 2956 1829 4889C7   		movq	%rax, %rdi
 2957 182c E8000000 		call	__cxa_begin_catch
 2957      00
 2958              	.LEHB136:
 2959 1831 E8000000 		call	_ZN8UnitTest11CurrentTest7DetailsEv
 2959      00
 2960 1836 488B08   		movq	(%rax), %rcx
 2961 1839 488D4590 		leaq	-112(%rbp), %rax
 2962 183d BA820000 		movl	$130, %edx
 2962      00
 2963 1842 4889CE   		movq	%rcx, %rsi
 2964 1845 4889C7   		movq	%rax, %rdi
 2965 1848 E8000000 		call	_ZN8UnitTest11TestDetailsC1ERKS0_i
 2965      00
 130:testCore.cpp  **** 	CHECK_EQUAL(1UL, *item);
 2966              		.loc 3 130 0 is_stmt 0 discriminator 1
 2967 184d E8000000 		call	_ZN8UnitTest11CurrentTest7ResultsEv
 2967      00
 2968 1852 488B00   		movq	(%rax), %rax
 2969 1855 488D4D90 		leaq	-112(%rbp), %rcx
 2970 1859 BA000000 		movl	$.LC3, %edx
 2970      00
 2971 185e 4889CE   		movq	%rcx, %rsi
 2972 1861 4889C7   		movq	%rax, %rdi
 2973 1864 E8000000 		call	_ZN8UnitTest11TestResults13OnTestFailureERKNS_11TestDetailsEPKc
 2973      00
 2974              	.LEHE136:
 2975              	.LEHB137:
 2976 1869 E8000000 		call	__cxa_end_catch
 2976      00
 2977              	.LEHE137:
 2978 186e E920FAFF 		jmp	.L150
 2978      FF
 2979              	.L201:
 2980 1873 4889C3   		movq	%rax, %rbx
 131:testCore.cpp  **** 	*item = 5;
 2981              		.loc 3 131 0 is_stmt 1
 2982 1876 E8000000 		call	__cxa_end_catch
 2982      00
 2983 187b 4889D8   		movq	%rbx, %rax
 2984 187e 4889C7   		movq	%rax, %rdi
 2985              	.LEHB138:
 2986 1881 E8000000 		call	_Unwind_Resume
 2986      00
 2987              	.LEHE138:
 2988              	.L200:
 2989 1886 4889C7   		movq	%rax, %rdi
 2990 1889 E8000000 		call	__cxa_begin_catch
 2990      00
 2991              	.LEHB139:
 2992 188e E8000000 		call	_ZN8UnitTest11CurrentTest7DetailsEv
 2992      00
 2993 1893 488B08   		movq	(%rax), %rcx
 2994 1896 488D4590 		leaq	-112(%rbp), %rax
 2995 189a BA830000 		movl	$131, %edx
 2995      00
 2996 189f 4889CE   		movq	%rcx, %rsi
 2997 18a2 4889C7   		movq	%rax, %rdi
 2998 18a5 E8000000 		call	_ZN8UnitTest11TestDetailsC1ERKS0_i
 2998      00
 131:testCore.cpp  **** 	*item = 5;
 2999              		.loc 3 131 0 is_stmt 0 discriminator 1
 3000 18aa E8000000 		call	_ZN8UnitTest11CurrentTest7ResultsEv
 3000      00
 3001 18af 488B00   		movq	(%rax), %rax
 3002 18b2 488D4D90 		leaq	-112(%rbp), %rcx
 3003 18b6 BA000000 		movl	$.LC13, %edx
 3003      00
 3004 18bb 4889CE   		movq	%rcx, %rsi
 3005 18be 4889C7   		movq	%rax, %rdi
 3006 18c1 E8000000 		call	_ZN8UnitTest11TestResults13OnTestFailureERKNS_11TestDetailsEPKc
 3006      00
 3007              	.LEHE139:
 3008              	.LEHB140:
 3009 18c6 E8000000 		call	__cxa_end_catch
 3009      00
 3010              	.LEHE140:
 3011 18cb E909FAFF 		jmp	.L153
 3011      FF
 3012              	.L203:
 3013 18d0 4889C3   		movq	%rax, %rbx
 135:testCore.cpp  **** 	CHECK_EQUAL(2UL, *item);
 3014              		.loc 3 135 0 is_stmt 1
 3015 18d3 E8000000 		call	__cxa_end_catch
 3015      00
 3016 18d8 4889D8   		movq	%rbx, %rax
 3017 18db 4889C7   		movq	%rax, %rdi
 3018              	.LEHB141:
 3019 18de E8000000 		call	_Unwind_Resume
 3019      00
 3020              	.LEHE141:
 3021              	.L202:
 3022 18e3 4889C7   		movq	%rax, %rdi
 3023 18e6 E8000000 		call	__cxa_begin_catch
 3023      00
 3024              	.LEHB142:
 3025 18eb E8000000 		call	_ZN8UnitTest11CurrentTest7DetailsEv
 3025      00
 3026 18f0 488B08   		movq	(%rax), %rcx
 3027 18f3 488D4590 		leaq	-112(%rbp), %rax
 3028 18f7 BA870000 		movl	$135, %edx
 3028      00
 3029 18fc 4889CE   		movq	%rcx, %rsi
 3030 18ff 4889C7   		movq	%rax, %rdi
 3031 1902 E8000000 		call	_ZN8UnitTest11TestDetailsC1ERKS0_i
 3031      00
 135:testCore.cpp  **** 	CHECK_EQUAL(2UL, *item);
 3032              		.loc 3 135 0 is_stmt 0 discriminator 1
 3033 1907 E8000000 		call	_ZN8UnitTest11CurrentTest7ResultsEv
 3033      00
 3034 190c 488B00   		movq	(%rax), %rax
 3035 190f 488D4D90 		leaq	-112(%rbp), %rcx
 3036 1913 BA000000 		movl	$.LC3, %edx
 3036      00
 3037 1918 4889CE   		movq	%rcx, %rsi
 3038 191b 4889C7   		movq	%rax, %rdi
 3039 191e E8000000 		call	_ZN8UnitTest11TestResults13OnTestFailureERKNS_11TestDetailsEPKc
 3039      00
 3040              	.LEHE142:
 3041              	.LEHB143:
 3042 1923 E8000000 		call	__cxa_end_catch
 3042      00
 3043              	.LEHE143:
 3044 1928 E91DFAFF 		jmp	.L156
 3044      FF
 3045              	.L205:
 3046 192d 4889C3   		movq	%rax, %rbx
 136:testCore.cpp  **** 	*item = 6;
 3047              		.loc 3 136 0 is_stmt 1
 3048 1930 E8000000 		call	__cxa_end_catch
 3048      00
 3049 1935 4889D8   		movq	%rbx, %rax
 3050 1938 4889C7   		movq	%rax, %rdi
 3051              	.LEHB144:
 3052 193b E8000000 		call	_Unwind_Resume
 3052      00
 3053              	.LEHE144:
 3054              	.L204:
 3055 1940 4889C7   		movq	%rax, %rdi
 3056 1943 E8000000 		call	__cxa_begin_catch
 3056      00
 3057              	.LEHB145:
 3058 1948 E8000000 		call	_ZN8UnitTest11CurrentTest7DetailsEv
 3058      00
 3059 194d 488B08   		movq	(%rax), %rcx
 3060 1950 488D4590 		leaq	-112(%rbp), %rax
 3061 1954 BA880000 		movl	$136, %edx
 3061      00
 3062 1959 4889CE   		movq	%rcx, %rsi
 3063 195c 4889C7   		movq	%rax, %rdi
 3064 195f E8000000 		call	_ZN8UnitTest11TestDetailsC1ERKS0_i
 3064      00
 136:testCore.cpp  **** 	*item = 6;
 3065              		.loc 3 136 0 is_stmt 0 discriminator 1
 3066 1964 E8000000 		call	_ZN8UnitTest11CurrentTest7ResultsEv
 3066      00
 3067 1969 488B00   		movq	(%rax), %rax
 3068 196c 488D4D90 		leaq	-112(%rbp), %rcx
 3069 1970 BA000000 		movl	$.LC14, %edx
 3069      00
 3070 1975 4889CE   		movq	%rcx, %rsi
 3071 1978 4889C7   		movq	%rax, %rdi
 3072 197b E8000000 		call	_ZN8UnitTest11TestResults13OnTestFailureERKNS_11TestDetailsEPKc
 3072      00
 3073              	.LEHE145:
 3074              	.LEHB146:
 3075 1980 E8000000 		call	__cxa_end_catch
 3075      00
 3076              	.LEHE146:
 3077 1985 E906FAFF 		jmp	.L159
 3077      FF
 3078              	.L207:
 3079 198a 4889C3   		movq	%rax, %rbx
 140:testCore.cpp  **** 	CHECK_EQUAL(3UL, *item);
 3080              		.loc 3 140 0 is_stmt 1
 3081 198d E8000000 		call	__cxa_end_catch
 3081      00
 3082 1992 4889D8   		movq	%rbx, %rax
 3083 1995 4889C7   		movq	%rax, %rdi
 3084              	.LEHB147:
 3085 1998 E8000000 		call	_Unwind_Resume
 3085      00
 3086              	.LEHE147:
 3087              	.L206:
 3088 199d 4889C7   		movq	%rax, %rdi
 3089 19a0 E8000000 		call	__cxa_begin_catch
 3089      00
 3090              	.LEHB148:
 3091 19a5 E8000000 		call	_ZN8UnitTest11CurrentTest7DetailsEv
 3091      00
 3092 19aa 488B08   		movq	(%rax), %rcx
 3093 19ad 488D4590 		leaq	-112(%rbp), %rax
 3094 19b1 BA8C0000 		movl	$140, %edx
 3094      00
 3095 19b6 4889CE   		movq	%rcx, %rsi
 3096 19b9 4889C7   		movq	%rax, %rdi
 3097 19bc E8000000 		call	_ZN8UnitTest11TestDetailsC1ERKS0_i
 3097      00
 140:testCore.cpp  **** 	CHECK_EQUAL(3UL, *item);
 3098              		.loc 3 140 0 is_stmt 0 discriminator 1
 3099 19c1 E8000000 		call	_ZN8UnitTest11CurrentTest7ResultsEv
 3099      00
 3100 19c6 488B00   		movq	(%rax), %rax
 3101 19c9 488D4D90 		leaq	-112(%rbp), %rcx
 3102 19cd BA000000 		movl	$.LC3, %edx
 3102      00
 3103 19d2 4889CE   		movq	%rcx, %rsi
 3104 19d5 4889C7   		movq	%rax, %rdi
 3105 19d8 E8000000 		call	_ZN8UnitTest11TestResults13OnTestFailureERKNS_11TestDetailsEPKc
 3105      00
 3106              	.LEHE148:
 3107              	.LEHB149:
 3108 19dd E8000000 		call	__cxa_end_catch
 3108      00
 3109              	.LEHE149:
 3110 19e2 E91AFAFF 		jmp	.L162
 3110      FF
 3111              	.L209:
 3112 19e7 4889C3   		movq	%rax, %rbx
 141:testCore.cpp  **** 	*item = 7;
 3113              		.loc 3 141 0 is_stmt 1
 3114 19ea E8000000 		call	__cxa_end_catch
 3114      00
 3115 19ef 4889D8   		movq	%rbx, %rax
 3116 19f2 4889C7   		movq	%rax, %rdi
 3117              	.LEHB150:
 3118 19f5 E8000000 		call	_Unwind_Resume
 3118      00
 3119              	.LEHE150:
 3120              	.L208:
 3121 19fa 4889C7   		movq	%rax, %rdi
 3122 19fd E8000000 		call	__cxa_begin_catch
 3122      00
 3123              	.LEHB151:
 3124 1a02 E8000000 		call	_ZN8UnitTest11CurrentTest7DetailsEv
 3124      00
 3125 1a07 488B08   		movq	(%rax), %rcx
 3126 1a0a 488D4590 		leaq	-112(%rbp), %rax
 3127 1a0e BA8D0000 		movl	$141, %edx
 3127      00
 3128 1a13 4889CE   		movq	%rcx, %rsi
 3129 1a16 4889C7   		movq	%rax, %rdi
 3130 1a19 E8000000 		call	_ZN8UnitTest11TestDetailsC1ERKS0_i
 3130      00
 141:testCore.cpp  **** 	*item = 7;
 3131              		.loc 3 141 0 is_stmt 0 discriminator 1
 3132 1a1e E8000000 		call	_ZN8UnitTest11CurrentTest7ResultsEv
 3132      00
 3133 1a23 488B00   		movq	(%rax), %rax
 3134 1a26 488D4D90 		leaq	-112(%rbp), %rcx
 3135 1a2a BA000000 		movl	$.LC15, %edx
 3135      00
 3136 1a2f 4889CE   		movq	%rcx, %rsi
 3137 1a32 4889C7   		movq	%rax, %rdi
 3138 1a35 E8000000 		call	_ZN8UnitTest11TestResults13OnTestFailureERKNS_11TestDetailsEPKc
 3138      00
 3139              	.LEHE151:
 3140              	.LEHB152:
 3141 1a3a E8000000 		call	__cxa_end_catch
 3141      00
 3142              	.LEHE152:
 3143 1a3f E903FAFF 		jmp	.L165
 3143      FF
 3144              	.L211:
 3145 1a44 4889C3   		movq	%rax, %rbx
 145:testCore.cpp  **** 	CHECK_EQUAL(4UL, *item);
 3146              		.loc 3 145 0 is_stmt 1
 3147 1a47 E8000000 		call	__cxa_end_catch
 3147      00
 3148 1a4c 4889D8   		movq	%rbx, %rax
 3149 1a4f 4889C7   		movq	%rax, %rdi
 3150              	.LEHB153:
 3151 1a52 E8000000 		call	_Unwind_Resume
 3151      00
 3152              	.LEHE153:
 3153              	.L210:
 3154 1a57 4889C7   		movq	%rax, %rdi
 3155 1a5a E8000000 		call	__cxa_begin_catch
 3155      00
 3156              	.LEHB154:
 3157 1a5f E8000000 		call	_ZN8UnitTest11CurrentTest7DetailsEv
 3157      00
 3158 1a64 488B08   		movq	(%rax), %rcx
 3159 1a67 488D4590 		leaq	-112(%rbp), %rax
 3160 1a6b BA910000 		movl	$145, %edx
 3160      00
 3161 1a70 4889CE   		movq	%rcx, %rsi
 3162 1a73 4889C7   		movq	%rax, %rdi
 3163 1a76 E8000000 		call	_ZN8UnitTest11TestDetailsC1ERKS0_i
 3163      00
 145:testCore.cpp  **** 	CHECK_EQUAL(4UL, *item);
 3164              		.loc 3 145 0 is_stmt 0 discriminator 1
 3165 1a7b E8000000 		call	_ZN8UnitTest11CurrentTest7ResultsEv
 3165      00
 3166 1a80 488B00   		movq	(%rax), %rax
 3167 1a83 488D4D90 		leaq	-112(%rbp), %rcx
 3168 1a87 BA000000 		movl	$.LC3, %edx
 3168      00
 3169 1a8c 4889CE   		movq	%rcx, %rsi
 3170 1a8f 4889C7   		movq	%rax, %rdi
 3171 1a92 E8000000 		call	_ZN8UnitTest11TestResults13OnTestFailureERKNS_11TestDetailsEPKc
 3171      00
 3172              	.LEHE154:
 3173              	.LEHB155:
 3174 1a97 E8000000 		call	__cxa_end_catch
 3174      00
 3175              	.LEHE155:
 3176 1a9c E917FAFF 		jmp	.L168
 3176      FF
 3177              	.L213:
 3178 1aa1 4889C3   		movq	%rax, %rbx
 146:testCore.cpp  **** 	*item = 8;
 3179              		.loc 3 146 0 is_stmt 1
 3180 1aa4 E8000000 		call	__cxa_end_catch
 3180      00
 3181 1aa9 4889D8   		movq	%rbx, %rax
 3182 1aac 4889C7   		movq	%rax, %rdi
 3183              	.LEHB156:
 3184 1aaf E8000000 		call	_Unwind_Resume
 3184      00
 3185              	.LEHE156:
 3186              	.L212:
 3187 1ab4 4889C7   		movq	%rax, %rdi
 3188 1ab7 E8000000 		call	__cxa_begin_catch
 3188      00
 3189              	.LEHB157:
 3190 1abc E8000000 		call	_ZN8UnitTest11CurrentTest7DetailsEv
 3190      00
 3191 1ac1 488B08   		movq	(%rax), %rcx
 3192 1ac4 488D4590 		leaq	-112(%rbp), %rax
 3193 1ac8 BA920000 		movl	$146, %edx
 3193      00
 3194 1acd 4889CE   		movq	%rcx, %rsi
 3195 1ad0 4889C7   		movq	%rax, %rdi
 3196 1ad3 E8000000 		call	_ZN8UnitTest11TestDetailsC1ERKS0_i
 3196      00
 146:testCore.cpp  **** 	*item = 8;
 3197              		.loc 3 146 0 is_stmt 0 discriminator 1
 3198 1ad8 E8000000 		call	_ZN8UnitTest11CurrentTest7ResultsEv
 3198      00
 3199 1add 488B00   		movq	(%rax), %rax
 3200 1ae0 488D4D90 		leaq	-112(%rbp), %rcx
 3201 1ae4 BA000000 		movl	$.LC22, %edx
 3201      00
 3202 1ae9 4889CE   		movq	%rcx, %rsi
 3203 1aec 4889C7   		movq	%rax, %rdi
 3204 1aef E8000000 		call	_ZN8UnitTest11TestResults13OnTestFailureERKNS_11TestDetailsEPKc
 3204      00
 3205              	.LEHE157:
 3206              	.LEHB158:
 3207 1af4 E8000000 		call	__cxa_end_catch
 3207      00
 3208              	.LEHE158:
 3209 1af9 E900FAFF 		jmp	.L171
 3209      FF
 3210              	.L215:
 3211 1afe 4889C3   		movq	%rax, %rbx
 151:testCore.cpp  **** 	CHECK_EQUAL(0UL, queue.putIndex);
 3212              		.loc 3 151 0 is_stmt 1
 3213 1b01 E8000000 		call	__cxa_end_catch
 3213      00
 3214 1b06 4889D8   		movq	%rbx, %rax
 3215 1b09 4889C7   		movq	%rax, %rdi
 3216              	.LEHB159:
 3217 1b0c E8000000 		call	_Unwind_Resume
 3217      00
 3218              	.LEHE159:
 3219              	.L214:
 3220 1b11 4889C7   		movq	%rax, %rdi
 3221 1b14 E8000000 		call	__cxa_begin_catch
 3221      00
 3222              	.LEHB160:
 3223 1b19 E8000000 		call	_ZN8UnitTest11CurrentTest7DetailsEv
 3223      00
 3224 1b1e 488B08   		movq	(%rax), %rcx
 3225 1b21 488D4590 		leaq	-112(%rbp), %rax
 3226 1b25 BA970000 		movl	$151, %edx
 3226      00
 3227 1b2a 4889CE   		movq	%rcx, %rsi
 3228 1b2d 4889C7   		movq	%rax, %rdi
 3229 1b30 E8000000 		call	_ZN8UnitTest11TestDetailsC1ERKS0_i
 3229      00
 151:testCore.cpp  **** 	CHECK_EQUAL(0UL, queue.putIndex);
 3230              		.loc 3 151 0 is_stmt 0 discriminator 1
 3231 1b35 E8000000 		call	_ZN8UnitTest11CurrentTest7ResultsEv
 3231      00
 3232 1b3a 488B00   		movq	(%rax), %rax
 3233 1b3d 488D4D90 		leaq	-112(%rbp), %rcx
 3234 1b41 BA000000 		movl	$.LC4, %edx
 3234      00
 3235 1b46 4889CE   		movq	%rcx, %rsi
 3236 1b49 4889C7   		movq	%rax, %rdi
 3237 1b4c E8000000 		call	_ZN8UnitTest11TestResults13OnTestFailureERKNS_11TestDetailsEPKc
 3237      00
 3238              	.LEHE160:
 3239              	.LEHB161:
 3240 1b51 E8000000 		call	__cxa_end_catch
 3240      00
 3241              	.LEHE161:
 3242 1b56 E903FAFF 		jmp	.L174
 3242      FF
 3243              	.L217:
 3244 1b5b 4889C3   		movq	%rax, %rbx
 152:testCore.cpp  **** 	CHECK_EQUAL(0UL, queue.takeIndex);
 3245              		.loc 3 152 0 is_stmt 1
 3246 1b5e E8000000 		call	__cxa_end_catch
 3246      00
 3247 1b63 4889D8   		movq	%rbx, %rax
 3248 1b66 4889C7   		movq	%rax, %rdi
 3249              	.LEHB162:
 3250 1b69 E8000000 		call	_Unwind_Resume
 3250      00
 3251              	.LEHE162:
 3252              	.L216:
 3253 1b6e 4889C7   		movq	%rax, %rdi
 3254 1b71 E8000000 		call	__cxa_begin_catch
 3254      00
 3255              	.LEHB163:
 3256 1b76 E8000000 		call	_ZN8UnitTest11CurrentTest7DetailsEv
 3256      00
 3257 1b7b 488B08   		movq	(%rax), %rcx
 3258 1b7e 488D4590 		leaq	-112(%rbp), %rax
 3259 1b82 BA980000 		movl	$152, %edx
 3259      00
 3260 1b87 4889CE   		movq	%rcx, %rsi
 3261 1b8a 4889C7   		movq	%rax, %rdi
 3262 1b8d E8000000 		call	_ZN8UnitTest11TestDetailsC1ERKS0_i
 3262      00
 152:testCore.cpp  **** 	CHECK_EQUAL(0UL, queue.takeIndex);
 3263              		.loc 3 152 0 is_stmt 0 discriminator 1
 3264 1b92 E8000000 		call	_ZN8UnitTest11CurrentTest7ResultsEv
 3264      00
 3265 1b97 488B00   		movq	(%rax), %rax
 3266 1b9a 488D4D90 		leaq	-112(%rbp), %rcx
 3267 1b9e BA000000 		movl	$.LC5, %edx
 3267      00
 3268 1ba3 4889CE   		movq	%rcx, %rsi
 3269 1ba6 4889C7   		movq	%rax, %rdi
 3270 1ba9 E8000000 		call	_ZN8UnitTest11TestResults13OnTestFailureERKNS_11TestDetailsEPKc
 3270      00
 3271              	.LEHE163:
 3272              	.LEHB164:
 3273 1bae E8000000 		call	__cxa_end_catch
 3273      00
 3274              	.LEHE164:
 3275 1bb3 E9F0F9FF 		jmp	.L177
 3275      FF
 3276              	.L219:
 3277 1bb8 4889C3   		movq	%rax, %rbx
 153:testCore.cpp  **** 	CHECK_EQUAL(4UL, queue.numItems);
 3278              		.loc 3 153 0 is_stmt 1
 3279 1bbb E8000000 		call	__cxa_end_catch
 3279      00
 3280 1bc0 4889D8   		movq	%rbx, %rax
 3281 1bc3 4889C7   		movq	%rax, %rdi
 3282              	.LEHB165:
 3283 1bc6 E8000000 		call	_Unwind_Resume
 3283      00
 3284              	.LEHE165:
 3285              	.L218:
 3286 1bcb 4889C7   		movq	%rax, %rdi
 3287 1bce E8000000 		call	__cxa_begin_catch
 3287      00
 3288              	.LEHB166:
 3289 1bd3 E8000000 		call	_ZN8UnitTest11CurrentTest7DetailsEv
 3289      00
 3290 1bd8 488B08   		movq	(%rax), %rcx
 3291 1bdb 488D4590 		leaq	-112(%rbp), %rax
 3292 1bdf BA990000 		movl	$153, %edx
 3292      00
 3293 1be4 4889CE   		movq	%rcx, %rsi
 3294 1be7 4889C7   		movq	%rax, %rdi
 3295 1bea E8000000 		call	_ZN8UnitTest11TestDetailsC1ERKS0_i
 3295      00
 153:testCore.cpp  **** 	CHECK_EQUAL(4UL, queue.numItems);
 3296              		.loc 3 153 0 is_stmt 0 discriminator 1
 3297 1bef E8000000 		call	_ZN8UnitTest11CurrentTest7ResultsEv
 3297      00
 3298 1bf4 488B00   		movq	(%rax), %rax
 3299 1bf7 488D4D90 		leaq	-112(%rbp), %rcx
 3300 1bfb BA000000 		movl	$.LC6, %edx
 3300      00
 3301 1c00 4889CE   		movq	%rcx, %rsi
 3302 1c03 4889C7   		movq	%rax, %rdi
 3303 1c06 E8000000 		call	_ZN8UnitTest11TestResults13OnTestFailureERKNS_11TestDetailsEPKc
 3303      00
 3304              	.LEHE166:
 3305              	.LEHB167:
 3306 1c0b E8000000 		call	__cxa_end_catch
 3306      00
 3307              	.LEHE167:
 3308 1c10 E9DDF9FF 		jmp	.L180
 3308      FF
 3309              	.L221:
 3310 1c15 4889C3   		movq	%rax, %rbx
 154:testCore.cpp  **** 
 3311              		.loc 3 154 0 is_stmt 1
 3312 1c18 E8000000 		call	__cxa_end_catch
 3312      00
 3313 1c1d 4889D8   		movq	%rbx, %rax
 3314 1c20 4889C7   		movq	%rax, %rdi
 3315              	.LEHB168:
 3316 1c23 E8000000 		call	_Unwind_Resume
 3316      00
 3317              	.LEHE168:
 3318              	.L220:
 3319 1c28 4889C7   		movq	%rax, %rdi
 3320 1c2b E8000000 		call	__cxa_begin_catch
 3320      00
 3321              	.LEHB169:
 3322 1c30 E8000000 		call	_ZN8UnitTest11CurrentTest7DetailsEv
 3322      00
 3323 1c35 488B08   		movq	(%rax), %rcx
 3324 1c38 488D4590 		leaq	-112(%rbp), %rax
 3325 1c3c BA9A0000 		movl	$154, %edx
 3325      00
 3326 1c41 4889CE   		movq	%rcx, %rsi
 3327 1c44 4889C7   		movq	%rax, %rdi
 3328 1c47 E8000000 		call	_ZN8UnitTest11TestDetailsC1ERKS0_i
 3328      00
 154:testCore.cpp  **** 
 3329              		.loc 3 154 0 is_stmt 0 discriminator 1
 3330 1c4c E8000000 		call	_ZN8UnitTest11CurrentTest7ResultsEv
 3330      00
 3331 1c51 488B00   		movq	(%rax), %rax
 3332 1c54 488D4D90 		leaq	-112(%rbp), %rcx
 3333 1c58 BA000000 		movl	$.LC23, %edx
 3333      00
 3334 1c5d 4889CE   		movq	%rcx, %rsi
 3335 1c60 4889C7   		movq	%rax, %rdi
 3336 1c63 E8000000 		call	_ZN8UnitTest11TestResults13OnTestFailureERKNS_11TestDetailsEPKc
 3336      00
 3337              	.LEHE169:
 3338              	.LEHB170:
 3339 1c68 E8000000 		call	__cxa_end_catch
 3339      00
 3340              	.LEHE170:
 3341 1c6d E9CAF9FF 		jmp	.L183
 3341      FF
 3342              	.L223:
 3343 1c72 4889C3   		movq	%rax, %rbx
 157:testCore.cpp  **** 	CHECK_EQUAL(6UL, deref(queue.itemArray[1]));
 3344              		.loc 3 157 0 is_stmt 1
 3345 1c75 E8000000 		call	__cxa_end_catch
 3345      00
 3346 1c7a 4889D8   		movq	%rbx, %rax
 3347 1c7d 4889C7   		movq	%rax, %rdi
 3348              	.LEHB171:
 3349 1c80 E8000000 		call	_Unwind_Resume
 3349      00
 3350              	.LEHE171:
 3351              	.L222:
 3352 1c85 4889C7   		movq	%rax, %rdi
 3353 1c88 E8000000 		call	__cxa_begin_catch
 3353      00
 3354              	.LEHB172:
 3355 1c8d E8000000 		call	_ZN8UnitTest11CurrentTest7DetailsEv
 3355      00
 3356 1c92 488B08   		movq	(%rax), %rcx
 3357 1c95 488D4590 		leaq	-112(%rbp), %rax
 3358 1c99 BA9D0000 		movl	$157, %edx
 3358      00
 3359 1c9e 4889CE   		movq	%rcx, %rsi
 3360 1ca1 4889C7   		movq	%rax, %rdi
 3361 1ca4 E8000000 		call	_ZN8UnitTest11TestDetailsC1ERKS0_i
 3361      00
 157:testCore.cpp  **** 	CHECK_EQUAL(6UL, deref(queue.itemArray[1]));
 3362              		.loc 3 157 0 is_stmt 0 discriminator 1
 3363 1ca9 E8000000 		call	_ZN8UnitTest11CurrentTest7ResultsEv
 3363      00
 3364 1cae 488B00   		movq	(%rax), %rax
 3365 1cb1 488D4D90 		leaq	-112(%rbp), %rcx
 3366 1cb5 BA000000 		movl	$.LC18, %edx
 3366      00
 3367 1cba 4889CE   		movq	%rcx, %rsi
 3368 1cbd 4889C7   		movq	%rax, %rdi
 3369 1cc0 E8000000 		call	_ZN8UnitTest11TestResults13OnTestFailureERKNS_11TestDetailsEPKc
 3369      00
 3370              	.LEHE172:
 3371              	.LEHB173:
 3372 1cc5 E8000000 		call	__cxa_end_catch
 3372      00
 3373              	.LEHE173:
 3374 1cca E9C5F9FF 		jmp	.L186
 3374      FF
 3375              	.L225:
 3376 1ccf 4889C3   		movq	%rax, %rbx
 158:testCore.cpp  **** 	CHECK_EQUAL(7UL, deref(queue.itemArray[2]));
 3377              		.loc 3 158 0 is_stmt 1
 3378 1cd2 E8000000 		call	__cxa_end_catch
 3378      00
 3379 1cd7 4889D8   		movq	%rbx, %rax
 3380 1cda 4889C7   		movq	%rax, %rdi
 3381              	.LEHB174:
 3382 1cdd E8000000 		call	_Unwind_Resume
 3382      00
 3383              	.LEHE174:
 3384              	.L224:
 3385 1ce2 4889C7   		movq	%rax, %rdi
 3386 1ce5 E8000000 		call	__cxa_begin_catch
 3386      00
 3387              	.LEHB175:
 3388 1cea E8000000 		call	_ZN8UnitTest11CurrentTest7DetailsEv
 3388      00
 3389 1cef 488B08   		movq	(%rax), %rcx
 3390 1cf2 488D4590 		leaq	-112(%rbp), %rax
 3391 1cf6 BA9E0000 		movl	$158, %edx
 3391      00
 3392 1cfb 4889CE   		movq	%rcx, %rsi
 3393 1cfe 4889C7   		movq	%rax, %rdi
 3394 1d01 E8000000 		call	_ZN8UnitTest11TestDetailsC1ERKS0_i
 3394      00
 158:testCore.cpp  **** 	CHECK_EQUAL(7UL, deref(queue.itemArray[2]));
 3395              		.loc 3 158 0 is_stmt 0 discriminator 1
 3396 1d06 E8000000 		call	_ZN8UnitTest11CurrentTest7ResultsEv
 3396      00
 3397 1d0b 488B00   		movq	(%rax), %rax
 3398 1d0e 488D4D90 		leaq	-112(%rbp), %rcx
 3399 1d12 BA000000 		movl	$.LC19, %edx
 3399      00
 3400 1d17 4889CE   		movq	%rcx, %rsi
 3401 1d1a 4889C7   		movq	%rax, %rdi
 3402 1d1d E8000000 		call	_ZN8UnitTest11TestResults13OnTestFailureERKNS_11TestDetailsEPKc
 3402      00
 3403              	.LEHE175:
 3404              	.LEHB176:
 3405 1d22 E8000000 		call	__cxa_end_catch
 3405      00
 3406              	.LEHE176:
 3407 1d27 E9C4F9FF 		jmp	.L189
 3407      FF
 3408              	.L227:
 3409 1d2c 4889C3   		movq	%rax, %rbx
 159:testCore.cpp  **** 	CHECK_EQUAL(8UL, deref(queue.itemArray[3]));
 3410              		.loc 3 159 0 is_stmt 1
 3411 1d2f E8000000 		call	__cxa_end_catch
 3411      00
 3412 1d34 4889D8   		movq	%rbx, %rax
 3413 1d37 4889C7   		movq	%rax, %rdi
 3414              	.LEHB177:
 3415 1d3a E8000000 		call	_Unwind_Resume
 3415      00
 3416              	.LEHE177:
 3417              	.L226:
 3418 1d3f 4889C7   		movq	%rax, %rdi
 3419 1d42 E8000000 		call	__cxa_begin_catch
 3419      00
 3420              	.LEHB178:
 3421 1d47 E8000000 		call	_ZN8UnitTest11CurrentTest7DetailsEv
 3421      00
 3422 1d4c 488B08   		movq	(%rax), %rcx
 3423 1d4f 488D4590 		leaq	-112(%rbp), %rax
 3424 1d53 BA9F0000 		movl	$159, %edx
 3424      00
 3425 1d58 4889CE   		movq	%rcx, %rsi
 3426 1d5b 4889C7   		movq	%rax, %rdi
 3427 1d5e E8000000 		call	_ZN8UnitTest11TestDetailsC1ERKS0_i
 3427      00
 159:testCore.cpp  **** 	CHECK_EQUAL(8UL, deref(queue.itemArray[3]));
 3428              		.loc 3 159 0 is_stmt 0 discriminator 1
 3429 1d63 E8000000 		call	_ZN8UnitTest11CurrentTest7ResultsEv
 3429      00
 3430 1d68 488B00   		movq	(%rax), %rax
 3431 1d6b 488D4D90 		leaq	-112(%rbp), %rcx
 3432 1d6f BA000000 		movl	$.LC20, %edx
 3432      00
 3433 1d74 4889CE   		movq	%rcx, %rsi
 3434 1d77 4889C7   		movq	%rax, %rdi
 3435 1d7a E8000000 		call	_ZN8UnitTest11TestResults13OnTestFailureERKNS_11TestDetailsEPKc
 3435      00
 3436              	.LEHE178:
 3437              	.LEHB179:
 3438 1d7f E8000000 		call	__cxa_end_catch
 3438      00
 3439              	.LEHE179:
 3440 1d84 E9C3F9FF 		jmp	.L192
 3440      FF
 3441              	.L229:
 3442 1d89 4889C3   		movq	%rax, %rbx
 160:testCore.cpp  **** 
 3443              		.loc 3 160 0 is_stmt 1
 3444 1d8c E8000000 		call	__cxa_end_catch
 3444      00
 3445 1d91 4889D8   		movq	%rbx, %rax
 3446 1d94 4889C7   		movq	%rax, %rdi
 3447              	.LEHB180:
 3448 1d97 E8000000 		call	_Unwind_Resume
 3448      00
 3449              	.LEHE180:
 3450              	.L228:
 3451 1d9c 4889C7   		movq	%rax, %rdi
 3452 1d9f E8000000 		call	__cxa_begin_catch
 3452      00
 3453              	.LEHB181:
 3454 1da4 E8000000 		call	_ZN8UnitTest11CurrentTest7DetailsEv
 3454      00
 3455 1da9 488B08   		movq	(%rax), %rcx
 3456 1dac 488D4590 		leaq	-112(%rbp), %rax
 3457 1db0 BAA00000 		movl	$160, %edx
 3457      00
 3458 1db5 4889CE   		movq	%rcx, %rsi
 3459 1db8 4889C7   		movq	%rax, %rdi
 3460 1dbb E8000000 		call	_ZN8UnitTest11TestDetailsC1ERKS0_i
 3460      00
 160:testCore.cpp  **** 
 3461              		.loc 3 160 0 is_stmt 0 discriminator 1
 3462 1dc0 E8000000 		call	_ZN8UnitTest11CurrentTest7ResultsEv
 3462      00
 3463 1dc5 488B00   		movq	(%rax), %rax
 3464 1dc8 488D4D90 		leaq	-112(%rbp), %rcx
 3465 1dcc BA000000 		movl	$.LC24, %edx
 3465      00
 3466 1dd1 4889CE   		movq	%rcx, %rsi
 3467 1dd4 4889C7   		movq	%rax, %rdi
 3468 1dd7 E8000000 		call	_ZN8UnitTest11TestResults13OnTestFailureERKNS_11TestDetailsEPKc
 3468      00
 3469              	.LEHE181:
 3470              	.LEHB182:
 3471 1ddc E8000000 		call	__cxa_end_catch
 3471      00
 3472              	.LEHE182:
 3473 1de1 E9C2F9FF 		jmp	.L195
 3473      FF
 3474              	.L230:
 3475              	.LBE10:
 164:testCore.cpp  **** }
 3476              		.loc 3 164 0 is_stmt 1
 3477 1de6 4881C498 		addq	$152, %rsp
 3477      000000
 3478 1ded 5B       		popq	%rbx
 3479 1dee 5D       		popq	%rbp
 3480              		.cfi_def_cfa 7, 8
 3481 1def C3       		ret
 3482              		.cfi_endproc
 3483              	.LFE1042:
 3484              		.section	.gcc_except_table
 3485              		.align 4
 3486              	.LLSDA1042:
 3487 0250 FF       		.byte	0xff
 3488 0251 03       		.byte	0x3
 3489 0252 A003     		.uleb128 .LLSDATT1042-.LLSDATTD1042
 3490              	.LLSDATTD1042:
 3491 0254 01       		.byte	0x1
 3492 0255 9703     		.uleb128 .LLSDACSE1042-.LLSDACSB1042
 3493              	.LLSDACSB1042:
 3494 0257 33       		.uleb128 .LEHB108-.LFB1042
 3495 0258 05       		.uleb128 .LEHE108-.LEHB108
 3496 0259 00       		.uleb128 0
 3497 025a 00       		.uleb128 0
 3498 025b 3E       		.uleb128 .LEHB109-.LFB1042
 3499 025c 42       		.uleb128 .LEHE109-.LEHB109
 3500 025d 940C     		.uleb128 .L196-.LFB1042
 3501 025f 01       		.uleb128 0x1
 3502 0260 8E01     		.uleb128 .LEHB110-.LFB1042
 3503 0262 05       		.uleb128 .LEHE110-.LEHB110
 3504 0263 00       		.uleb128 0
 3505 0264 00       		.uleb128 0
 3506 0265 9901     		.uleb128 .LEHB111-.LFB1042
 3507 0267 42       		.uleb128 .LEHE111-.LEHB111
 3508 0268 F10C     		.uleb128 .L198-.LFB1042
 3509 026a 01       		.uleb128 0x1
 3510 026b DB01     		.uleb128 .LEHB112-.LFB1042
 3511 026d 46       		.uleb128 .LEHE112-.LEHB112
 3512 026e CE0D     		.uleb128 .L200-.LFB1042
 3513 0270 01       		.uleb128 0x1
 3514 0271 B202     		.uleb128 .LEHB113-.LFB1042
 3515 0273 18       		.uleb128 .LEHE113-.LEHB113
 3516 0274 00       		.uleb128 0
 3517 0275 00       		.uleb128 0
 3518 0276 D002     		.uleb128 .LEHB114-.LFB1042
 3519 0278 42       		.uleb128 .LEHE114-.LEHB114
 3520 0279 AB0E     		.uleb128 .L202-.LFB1042
 3521 027b 01       		.uleb128 0x1
 3522 027c 9203     		.uleb128 .LEHB115-.LFB1042
 3523 027e 46       		.uleb128 .LEHE115-.LEHB115
 3524 027f 880F     		.uleb128 .L204-.LFB1042
 3525 0281 01       		.uleb128 0x1
 3526 0282 E903     		.uleb128 .LEHB116-.LFB1042
 3527 0284 18       		.uleb128 .LEHE116-.LEHB116
 3528 0285 00       		.uleb128 0
 3529 0286 00       		.uleb128 0
 3530 0287 8704     		.uleb128 .LEHB117-.LFB1042
 3531 0289 42       		.uleb128 .LEHE117-.LEHB117
 3532 028a E50F     		.uleb128 .L206-.LFB1042
 3533 028c 01       		.uleb128 0x1
 3534 028d C904     		.uleb128 .LEHB118-.LFB1042
 3535 028f 46       		.uleb128 .LEHE118-.LEHB118
 3536 0290 C210     		.uleb128 .L208-.LFB1042
 3537 0292 01       		.uleb128 0x1
 3538 0293 A005     		.uleb128 .LEHB119-.LFB1042
 3539 0295 18       		.uleb128 .LEHE119-.LEHB119
 3540 0296 00       		.uleb128 0
 3541 0297 00       		.uleb128 0
 3542 0298 BE05     		.uleb128 .LEHB120-.LFB1042
 3543 029a 42       		.uleb128 .LEHE120-.LEHB120
 3544 029b 9F11     		.uleb128 .L210-.LFB1042
 3545 029d 01       		.uleb128 0x1
 3546 029e 8006     		.uleb128 .LEHB121-.LFB1042
 3547 02a0 46       		.uleb128 .LEHE121-.LEHB121
 3548 02a1 FC11     		.uleb128 .L212-.LFB1042
 3549 02a3 01       		.uleb128 0x1
 3550 02a4 D706     		.uleb128 .LEHB122-.LFB1042
 3551 02a6 05       		.uleb128 .LEHE122-.LEHB122
 3552 02a7 00       		.uleb128 0
 3553 02a8 00       		.uleb128 0
 3554 02a9 DC06     		.uleb128 .LEHB123-.LFB1042
 3555 02ab 4A       		.uleb128 .LEHE123-.LEHB123
 3556 02ac D912     		.uleb128 .L214-.LFB1042
 3557 02ae 01       		.uleb128 0x1
 3558 02af A607     		.uleb128 .LEHB124-.LFB1042
 3559 02b1 4A       		.uleb128 .LEHE124-.LEHB124
 3560 02b2 B613     		.uleb128 .L216-.LFB1042
 3561 02b4 01       		.uleb128 0x1
 3562 02b5 F007     		.uleb128 .LEHB125-.LFB1042
 3563 02b7 4A       		.uleb128 .LEHE125-.LEHB125
 3564 02b8 9314     		.uleb128 .L218-.LFB1042
 3565 02ba 01       		.uleb128 0x1
 3566 02bb BA08     		.uleb128 .LEHB126-.LFB1042
 3567 02bd 4A       		.uleb128 .LEHE126-.LEHB126
 3568 02be F014     		.uleb128 .L220-.LFB1042
 3569 02c0 01       		.uleb128 0x1
 3570 02c1 8409     		.uleb128 .LEHB127-.LFB1042
 3571 02c3 58       		.uleb128 .LEHE127-.LEHB127
 3572 02c4 CD15     		.uleb128 .L222-.LFB1042
 3573 02c6 01       		.uleb128 0x1
 3574 02c7 DC09     		.uleb128 .LEHB128-.LFB1042
 3575 02c9 5C       		.uleb128 .LEHE128-.LEHB128
 3576 02ca AA16     		.uleb128 .L224-.LFB1042
 3577 02cc 01       		.uleb128 0x1
 3578 02cd B80A     		.uleb128 .LEHB129-.LFB1042
 3579 02cf 5C       		.uleb128 .LEHE129-.LEHB129
 3580 02d0 8717     		.uleb128 .L226-.LFB1042
 3581 02d2 01       		.uleb128 0x1
 3582 02d3 940B     		.uleb128 .LEHB130-.LFB1042
 3583 02d5 5C       		.uleb128 .LEHE130-.LEHB130
 3584 02d6 E417     		.uleb128 .L228-.LFB1042
 3585 02d8 01       		.uleb128 0x1
 3586 02d9 F70B     		.uleb128 .LEHB131-.LFB1042
 3587 02db 05       		.uleb128 .LEHE131-.LEHB131
 3588 02dc 00       		.uleb128 0
 3589 02dd 00       		.uleb128 0
 3590 02de 8F0C     		.uleb128 .LEHB132-.LFB1042
 3591 02e0 05       		.uleb128 .LEHE132-.LEHB132
 3592 02e1 00       		.uleb128 0
 3593 02e2 00       		.uleb128 0
 3594 02e3 9C0C     		.uleb128 .LEHB133-.LFB1042
 3595 02e5 38       		.uleb128 .LEHE133-.LEHB133
 3596 02e6 810C     		.uleb128 .L197-.LFB1042
 3597 02e8 00       		.uleb128 0
 3598 02e9 D40C     		.uleb128 .LEHB134-.LFB1042
 3599 02eb 05       		.uleb128 .LEHE134-.LEHB134
 3600 02ec 00       		.uleb128 0
 3601 02ed 00       		.uleb128 0
 3602 02ee EC0C     		.uleb128 .LEHB135-.LFB1042
 3603 02f0 05       		.uleb128 .LEHE135-.LEHB135
 3604 02f1 00       		.uleb128 0
 3605 02f2 00       		.uleb128 0
 3606 02f3 F90C     		.uleb128 .LEHB136-.LFB1042
 3607 02f5 38       		.uleb128 .LEHE136-.LEHB136
 3608 02f6 DE0C     		.uleb128 .L199-.LFB1042
 3609 02f8 00       		.uleb128 0
 3610 02f9 B10D     		.uleb128 .LEHB137-.LFB1042
 3611 02fb 05       		.uleb128 .LEHE137-.LEHB137
 3612 02fc 00       		.uleb128 0
 3613 02fd 00       		.uleb128 0
 3614 02fe C90D     		.uleb128 .LEHB138-.LFB1042
 3615 0300 05       		.uleb128 .LEHE138-.LEHB138
 3616 0301 00       		.uleb128 0
 3617 0302 00       		.uleb128 0
 3618 0303 D60D     		.uleb128 .LEHB139-.LFB1042
 3619 0305 38       		.uleb128 .LEHE139-.LEHB139
 3620 0306 BB0D     		.uleb128 .L201-.LFB1042
 3621 0308 00       		.uleb128 0
 3622 0309 8E0E     		.uleb128 .LEHB140-.LFB1042
 3623 030b 05       		.uleb128 .LEHE140-.LEHB140
 3624 030c 00       		.uleb128 0
 3625 030d 00       		.uleb128 0
 3626 030e A60E     		.uleb128 .LEHB141-.LFB1042
 3627 0310 05       		.uleb128 .LEHE141-.LEHB141
 3628 0311 00       		.uleb128 0
 3629 0312 00       		.uleb128 0
 3630 0313 B30E     		.uleb128 .LEHB142-.LFB1042
 3631 0315 38       		.uleb128 .LEHE142-.LEHB142
 3632 0316 980E     		.uleb128 .L203-.LFB1042
 3633 0318 00       		.uleb128 0
 3634 0319 EB0E     		.uleb128 .LEHB143-.LFB1042
 3635 031b 05       		.uleb128 .LEHE143-.LEHB143
 3636 031c 00       		.uleb128 0
 3637 031d 00       		.uleb128 0
 3638 031e 830F     		.uleb128 .LEHB144-.LFB1042
 3639 0320 05       		.uleb128 .LEHE144-.LEHB144
 3640 0321 00       		.uleb128 0
 3641 0322 00       		.uleb128 0
 3642 0323 900F     		.uleb128 .LEHB145-.LFB1042
 3643 0325 38       		.uleb128 .LEHE145-.LEHB145
 3644 0326 F50E     		.uleb128 .L205-.LFB1042
 3645 0328 00       		.uleb128 0
 3646 0329 C80F     		.uleb128 .LEHB146-.LFB1042
 3647 032b 05       		.uleb128 .LEHE146-.LEHB146
 3648 032c 00       		.uleb128 0
 3649 032d 00       		.uleb128 0
 3650 032e E00F     		.uleb128 .LEHB147-.LFB1042
 3651 0330 05       		.uleb128 .LEHE147-.LEHB147
 3652 0331 00       		.uleb128 0
 3653 0332 00       		.uleb128 0
 3654 0333 ED0F     		.uleb128 .LEHB148-.LFB1042
 3655 0335 38       		.uleb128 .LEHE148-.LEHB148
 3656 0336 D20F     		.uleb128 .L207-.LFB1042
 3657 0338 00       		.uleb128 0
 3658 0339 A510     		.uleb128 .LEHB149-.LFB1042
 3659 033b 05       		.uleb128 .LEHE149-.LEHB149
 3660 033c 00       		.uleb128 0
 3661 033d 00       		.uleb128 0
 3662 033e BD10     		.uleb128 .LEHB150-.LFB1042
 3663 0340 05       		.uleb128 .LEHE150-.LEHB150
 3664 0341 00       		.uleb128 0
 3665 0342 00       		.uleb128 0
 3666 0343 CA10     		.uleb128 .LEHB151-.LFB1042
 3667 0345 38       		.uleb128 .LEHE151-.LEHB151
 3668 0346 AF10     		.uleb128 .L209-.LFB1042
 3669 0348 00       		.uleb128 0
 3670 0349 8211     		.uleb128 .LEHB152-.LFB1042
 3671 034b 05       		.uleb128 .LEHE152-.LEHB152
 3672 034c 00       		.uleb128 0
 3673 034d 00       		.uleb128 0
 3674 034e 9A11     		.uleb128 .LEHB153-.LFB1042
 3675 0350 05       		.uleb128 .LEHE153-.LEHB153
 3676 0351 00       		.uleb128 0
 3677 0352 00       		.uleb128 0
 3678 0353 A711     		.uleb128 .LEHB154-.LFB1042
 3679 0355 38       		.uleb128 .LEHE154-.LEHB154
 3680 0356 8C11     		.uleb128 .L211-.LFB1042
 3681 0358 00       		.uleb128 0
 3682 0359 DF11     		.uleb128 .LEHB155-.LFB1042
 3683 035b 05       		.uleb128 .LEHE155-.LEHB155
 3684 035c 00       		.uleb128 0
 3685 035d 00       		.uleb128 0
 3686 035e F711     		.uleb128 .LEHB156-.LFB1042
 3687 0360 05       		.uleb128 .LEHE156-.LEHB156
 3688 0361 00       		.uleb128 0
 3689 0362 00       		.uleb128 0
 3690 0363 8412     		.uleb128 .LEHB157-.LFB1042
 3691 0365 38       		.uleb128 .LEHE157-.LEHB157
 3692 0366 E911     		.uleb128 .L213-.LFB1042
 3693 0368 00       		.uleb128 0
 3694 0369 BC12     		.uleb128 .LEHB158-.LFB1042
 3695 036b 05       		.uleb128 .LEHE158-.LEHB158
 3696 036c 00       		.uleb128 0
 3697 036d 00       		.uleb128 0
 3698 036e D412     		.uleb128 .LEHB159-.LFB1042
 3699 0370 05       		.uleb128 .LEHE159-.LEHB159
 3700 0371 00       		.uleb128 0
 3701 0372 00       		.uleb128 0
 3702 0373 E112     		.uleb128 .LEHB160-.LFB1042
 3703 0375 38       		.uleb128 .LEHE160-.LEHB160
 3704 0376 C612     		.uleb128 .L215-.LFB1042
 3705 0378 00       		.uleb128 0
 3706 0379 9913     		.uleb128 .LEHB161-.LFB1042
 3707 037b 05       		.uleb128 .LEHE161-.LEHB161
 3708 037c 00       		.uleb128 0
 3709 037d 00       		.uleb128 0
 3710 037e B113     		.uleb128 .LEHB162-.LFB1042
 3711 0380 05       		.uleb128 .LEHE162-.LEHB162
 3712 0381 00       		.uleb128 0
 3713 0382 00       		.uleb128 0
 3714 0383 BE13     		.uleb128 .LEHB163-.LFB1042
 3715 0385 38       		.uleb128 .LEHE163-.LEHB163
 3716 0386 A313     		.uleb128 .L217-.LFB1042
 3717 0388 00       		.uleb128 0
 3718 0389 F613     		.uleb128 .LEHB164-.LFB1042
 3719 038b 05       		.uleb128 .LEHE164-.LEHB164
 3720 038c 00       		.uleb128 0
 3721 038d 00       		.uleb128 0
 3722 038e 8E14     		.uleb128 .LEHB165-.LFB1042
 3723 0390 05       		.uleb128 .LEHE165-.LEHB165
 3724 0391 00       		.uleb128 0
 3725 0392 00       		.uleb128 0
 3726 0393 9B14     		.uleb128 .LEHB166-.LFB1042
 3727 0395 38       		.uleb128 .LEHE166-.LEHB166
 3728 0396 8014     		.uleb128 .L219-.LFB1042
 3729 0398 00       		.uleb128 0
 3730 0399 D314     		.uleb128 .LEHB167-.LFB1042
 3731 039b 05       		.uleb128 .LEHE167-.LEHB167
 3732 039c 00       		.uleb128 0
 3733 039d 00       		.uleb128 0
 3734 039e EB14     		.uleb128 .LEHB168-.LFB1042
 3735 03a0 05       		.uleb128 .LEHE168-.LEHB168
 3736 03a1 00       		.uleb128 0
 3737 03a2 00       		.uleb128 0
 3738 03a3 F814     		.uleb128 .LEHB169-.LFB1042
 3739 03a5 38       		.uleb128 .LEHE169-.LEHB169
 3740 03a6 DD14     		.uleb128 .L221-.LFB1042
 3741 03a8 00       		.uleb128 0
 3742 03a9 B015     		.uleb128 .LEHB170-.LFB1042
 3743 03ab 05       		.uleb128 .LEHE170-.LEHB170
 3744 03ac 00       		.uleb128 0
 3745 03ad 00       		.uleb128 0
 3746 03ae C815     		.uleb128 .LEHB171-.LFB1042
 3747 03b0 05       		.uleb128 .LEHE171-.LEHB171
 3748 03b1 00       		.uleb128 0
 3749 03b2 00       		.uleb128 0
 3750 03b3 D515     		.uleb128 .LEHB172-.LFB1042
 3751 03b5 38       		.uleb128 .LEHE172-.LEHB172
 3752 03b6 BA15     		.uleb128 .L223-.LFB1042
 3753 03b8 00       		.uleb128 0
 3754 03b9 8D16     		.uleb128 .LEHB173-.LFB1042
 3755 03bb 05       		.uleb128 .LEHE173-.LEHB173
 3756 03bc 00       		.uleb128 0
 3757 03bd 00       		.uleb128 0
 3758 03be A516     		.uleb128 .LEHB174-.LFB1042
 3759 03c0 05       		.uleb128 .LEHE174-.LEHB174
 3760 03c1 00       		.uleb128 0
 3761 03c2 00       		.uleb128 0
 3762 03c3 B216     		.uleb128 .LEHB175-.LFB1042
 3763 03c5 38       		.uleb128 .LEHE175-.LEHB175
 3764 03c6 9716     		.uleb128 .L225-.LFB1042
 3765 03c8 00       		.uleb128 0
 3766 03c9 EA16     		.uleb128 .LEHB176-.LFB1042
 3767 03cb 05       		.uleb128 .LEHE176-.LEHB176
 3768 03cc 00       		.uleb128 0
 3769 03cd 00       		.uleb128 0
 3770 03ce 8217     		.uleb128 .LEHB177-.LFB1042
 3771 03d0 05       		.uleb128 .LEHE177-.LEHB177
 3772 03d1 00       		.uleb128 0
 3773 03d2 00       		.uleb128 0
 3774 03d3 8F17     		.uleb128 .LEHB178-.LFB1042
 3775 03d5 38       		.uleb128 .LEHE178-.LEHB178
 3776 03d6 F416     		.uleb128 .L227-.LFB1042
 3777 03d8 00       		.uleb128 0
 3778 03d9 C717     		.uleb128 .LEHB179-.LFB1042
 3779 03db 05       		.uleb128 .LEHE179-.LEHB179
 3780 03dc 00       		.uleb128 0
 3781 03dd 00       		.uleb128 0
 3782 03de DF17     		.uleb128 .LEHB180-.LFB1042
 3783 03e0 05       		.uleb128 .LEHE180-.LEHB180
 3784 03e1 00       		.uleb128 0
 3785 03e2 00       		.uleb128 0
 3786 03e3 EC17     		.uleb128 .LEHB181-.LFB1042
 3787 03e5 38       		.uleb128 .LEHE181-.LEHB181
 3788 03e6 D117     		.uleb128 .L229-.LFB1042
 3789 03e8 00       		.uleb128 0
 3790 03e9 A418     		.uleb128 .LEHB182-.LFB1042
 3791 03eb 05       		.uleb128 .LEHE182-.LEHB182
 3792 03ec 00       		.uleb128 0
 3793 03ed 00       		.uleb128 0
 3794              	.LLSDACSE1042:
 3795 03ee 01       		.byte	0x1
 3796 03ef 00       		.byte	0
 3797              		.align 4
 3798 03f0 00000000 		.long	0
 3799              	
 3800              	.LLSDATT1042:
 3801              		.text
 3803              		.section	.rodata
 3804              	.LC25:
 3805 0513 51756575 		.string	"Queue_testPutTake"
 3805      655F7465 
 3805      73745075 
 3805      7454616B 
 3805      6500
 3806              		.section	.text._ZN21TestQueue_testPutTakeC2Ev,"axG",@progbits,_ZN21TestQueue_testPutTakeC5Ev,comda
 3807              		.align 2
 3808              		.weak	_ZN21TestQueue_testPutTakeC2Ev
 3810              	_ZN21TestQueue_testPutTakeC2Ev:
 3811              	.LFB1044:
 165:testCore.cpp  **** 
 166:testCore.cpp  **** TEST(Queue_testPutTake) {
 3812              		.loc 3 166 0
 3813              		.cfi_startproc
 3814 0000 55       		pushq	%rbp
 3815              		.cfi_def_cfa_offset 16
 3816              		.cfi_offset 6, -16
 3817 0001 4889E5   		movq	%rsp, %rbp
 3818              		.cfi_def_cfa_register 6
 3819 0004 4883EC10 		subq	$16, %rsp
 3820 0008 48897DF8 		movq	%rdi, -8(%rbp)
 3821              	.LBB11:
 3822              		.loc 3 166 0
 3823 000c E8000000 		call	_ZN13UnitTestSuite12GetSuiteNameEv
 3823      00
 3824 0011 4889C2   		movq	%rax, %rdx
 3825 0014 488B45F8 		movq	-8(%rbp), %rax
 3826 0018 41B8A600 		movl	$166, %r8d
 3826      0000
 3827 001e B9000000 		movl	$.LC1, %ecx
 3827      00
 3828 0023 BE000000 		movl	$.LC25, %esi
 3828      00
 3829 0028 4889C7   		movq	%rax, %rdi
 3830 002b E8000000 		call	_ZN8UnitTest4TestC2EPKcS2_S2_i
 3830      00
 3831 0030 488B45F8 		movq	-8(%rbp), %rax
 3832 0034 48C70000 		movq	$_ZTV21TestQueue_testPutTake+16, (%rax)
 3832      000000
 3833              	.LBE11:
 3834 003b C9       		leave
 3835              		.cfi_def_cfa 7, 8
 3836 003c C3       		ret
 3837              		.cfi_endproc
 3838              	.LFE1044:
 3840              		.weak	_ZN21TestQueue_testPutTakeC1Ev
 3841              		.set	_ZN21TestQueue_testPutTakeC1Ev,_ZN21TestQueue_testPutTakeC2Ev
 3842              		.globl	testQueue_testPutTakeInstance
 3843              		.bss
 3844 00b9 00000000 		.align 32
 3844      000000
 3847              	testQueue_testPutTakeInstance:
 3848 00c0 00000000 		.zero	56
 3848      00000000 
 3848      00000000 
 3848      00000000 
 3848      00000000 
 3849              		.globl	adderQueue_testPutTake
 3852              	adderQueue_testPutTake:
 3853 00f8 00       		.zero	1
 3854              		.section	.rodata
 3855 0525 000000   		.align 8
 3856              	.LC26:
 3857 0528 556E6861 		.string	"Unhandled exception in CHECK_EQUAL(5UL, *item)"
 3857      6E646C65 
 3857      64206578 
 3857      63657074 
 3857      696F6E20 
 3858 0557 00       		.align 8
 3859              	.LC27:
 3860 0558 556E6861 		.string	"Unhandled exception in CHECK_EQUAL(6UL, *item)"
 3860      6E646C65 
 3860      64206578 
 3860      63657074 
 3860      696F6E20 
 3861 0587 00       		.align 8
 3862              	.LC28:
 3863 0588 556E6861 		.string	"Unhandled exception in CHECK_EQUAL(7UL, *item)"
 3863      6E646C65 
 3863      64206578 
 3863      63657074 
 3863      696F6E20 
 3864 05b7 00       		.align 8
 3865              	.LC29:
 3866 05b8 556E6861 		.string	"Unhandled exception in CHECK_EQUAL(8UL, *item)"
 3866      6E646C65 
 3866      64206578 
 3866      63657074 
 3866      696F6E20 
 3867              		.text
 3868              		.align 2
 3869              		.globl	_ZNK21TestQueue_testPutTake7RunImplEv
 3871              	_ZNK21TestQueue_testPutTake7RunImplEv:
 3872              	.LFB1046:
 3873              		.loc 3 166 0
 3874              		.cfi_startproc
 3875              		.cfi_personality 0x3,__gxx_personality_v0
 3876              		.cfi_lsda 0x3,.LLSDA1046
 3877 1df0 55       		pushq	%rbp
 3878              		.cfi_def_cfa_offset 16
 3879              		.cfi_offset 6, -16
 3880 1df1 4889E5   		movq	%rsp, %rbp
 3881              		.cfi_def_cfa_register 6
 3882 1df4 53       		pushq	%rbx
 3883 1df5 4881EC98 		subq	$152, %rsp
 3883      000000
 3884              		.cfi_offset 3, -24
 3885 1dfc 4889BD68 		movq	%rdi, -152(%rbp)
 3885      FFFFFF
 3886              	.LBB12:
 167:testCore.cpp  **** 	struct UnboundedQueue queue;
 168:testCore.cpp  **** 	uint32 *item;
 169:testCore.cpp  **** 	m_count = 1;
 3887              		.loc 3 169 0
 3888 1e03 C7050000 		movl	$1, _ZL7m_count(%rip)
 3888      00000100 
 3888      0000
 170:testCore.cpp  **** 
 171:testCore.cpp  **** 	// Create queue
 172:testCore.cpp  **** 	USBStatus status = queueInit(&queue, 4, (CreateFunc)createInt, (DestroyFunc)destroyInt);
 3889              		.loc 3 172 0
 3890 1e0d 488D45B0 		leaq	-80(%rbp), %rax
 3891 1e11 B9000000 		movl	$destroyInt, %ecx
 3891      00
 3892 1e16 BA000000 		movl	$createInt, %edx
 3892      00
 3893 1e1b BE040000 		movl	$4, %esi
 3893      00
 3894 1e20 4889C7   		movq	%rax, %rdi
 3895              	.LEHB183:
 3896 1e23 E8000000 		call	queueInit
 3896      00
 3897              	.LEHE183:
 3898 1e28 898578FF 		movl	%eax, -136(%rbp)
 3898      FFFF
 3899              	.LEHB184:
 173:testCore.cpp  **** 	CHECK_EQUAL(USB_SUCCESS, status);
 3900              		.loc 3 173 0
 3901 1e2e E8000000 		call	_ZN8UnitTest11CurrentTest7DetailsEv
 3901      00
 3902 1e33 488B08   		movq	(%rax), %rcx
 3903 1e36 488D4590 		leaq	-112(%rbp), %rax
 3904 1e3a BAAD0000 		movl	$173, %edx
 3904      00
 3905 1e3f 4889CE   		movq	%rcx, %rsi
 3906 1e42 4889C7   		movq	%rax, %rdi
 3907 1e45 E8000000 		call	_ZN8UnitTest11TestDetailsC1ERKS0_i
 3907      00
 3908              		.loc 3 173 0 is_stmt 0 discriminator 1
 3909 1e4a C7458800 		movl	$0, -120(%rbp)
 3909      000000
 3910 1e51 E8000000 		call	_ZN8UnitTest11CurrentTest7ResultsEv
 3910      00
 3911 1e56 488B00   		movq	(%rax), %rax
 3912 1e59 488D4D90 		leaq	-112(%rbp), %rcx
 3913 1e5d 488D9578 		leaq	-136(%rbp), %rdx
 3913      FFFFFF
 3914 1e64 488D7588 		leaq	-120(%rbp), %rsi
 3915 1e68 4889C7   		movq	%rax, %rdi
 3916 1e6b E8000000 		call	_ZN8UnitTest10CheckEqualI9USBStatusS1_EEvRNS_11TestResultsERKT_RKT0_RKNS_11TestDetailsE
 3916      00
 3917              	.LEHE184:
 3918              	.L235:
 174:testCore.cpp  **** 
 175:testCore.cpp  **** 	// Put four items into the queue
 176:testCore.cpp  **** 	status = queuePut(&queue, (Item*)&item);
 3919              		.loc 3 176 0 is_stmt 1
 3920 1e70 488D5580 		leaq	-128(%rbp), %rdx
 3921 1e74 488D45B0 		leaq	-80(%rbp), %rax
 3922 1e78 4889D6   		movq	%rdx, %rsi
 3923 1e7b 4889C7   		movq	%rax, %rdi
 3924              	.LEHB185:
 3925 1e7e E8000000 		call	queuePut
 3925      00
 3926              	.LEHE185:
 3927 1e83 898578FF 		movl	%eax, -136(%rbp)
 3927      FFFF
 3928              	.LEHB186:
 177:testCore.cpp  **** 	CHECK_EQUAL(USB_SUCCESS, status);
 3929              		.loc 3 177 0
 3930 1e89 E8000000 		call	_ZN8UnitTest11CurrentTest7DetailsEv
 3930      00
 3931 1e8e 488B08   		movq	(%rax), %rcx
 3932 1e91 488D4590 		leaq	-112(%rbp), %rax
 3933 1e95 BAB10000 		movl	$177, %edx
 3933      00
 3934 1e9a 4889CE   		movq	%rcx, %rsi
 3935 1e9d 4889C7   		movq	%rax, %rdi
 3936 1ea0 E8000000 		call	_ZN8UnitTest11TestDetailsC1ERKS0_i
 3936      00
 3937              		.loc 3 177 0 is_stmt 0 discriminator 1
 3938 1ea5 C7458800 		movl	$0, -120(%rbp)
 3938      000000
 3939 1eac E8000000 		call	_ZN8UnitTest11CurrentTest7ResultsEv
 3939      00
 3940 1eb1 488B00   		movq	(%rax), %rax
 3941 1eb4 488D4D90 		leaq	-112(%rbp), %rcx
 3942 1eb8 488D9578 		leaq	-136(%rbp), %rdx
 3942      FFFFFF
 3943 1ebf 488D7588 		leaq	-120(%rbp), %rsi
 3944 1ec3 4889C7   		movq	%rax, %rdi
 3945 1ec6 E8000000 		call	_ZN8UnitTest10CheckEqualI9USBStatusS1_EEvRNS_11TestResultsERKT_RKT0_RKNS_11TestDetailsE
 3945      00
 3946              	.LEHE186:
 3947              	.L238:
 3948              	.LEHB187:
 178:testCore.cpp  **** 	CHECK_EQUAL(1UL, *item);
 3949              		.loc 3 178 0 is_stmt 1
 3950 1ecb E8000000 		call	_ZN8UnitTest11CurrentTest7DetailsEv
 3950      00
 3951 1ed0 488B08   		movq	(%rax), %rcx
 3952 1ed3 488D4590 		leaq	-112(%rbp), %rax
 3953 1ed7 BAB20000 		movl	$178, %edx
 3953      00
 3954 1edc 4889CE   		movq	%rcx, %rsi
 3955 1edf 4889C7   		movq	%rax, %rdi
 3956 1ee2 E8000000 		call	_ZN8UnitTest11TestDetailsC1ERKS0_i
 3956      00
 3957              		.loc 3 178 0 is_stmt 0 discriminator 1
 3958 1ee7 488B5D80 		movq	-128(%rbp), %rbx
 3959 1eeb 48C74588 		movq	$1, -120(%rbp)
 3959      01000000 
 3960 1ef3 E8000000 		call	_ZN8UnitTest11CurrentTest7ResultsEv
 3960      00
 3961 1ef8 488B00   		movq	(%rax), %rax
 3962 1efb 488D5590 		leaq	-112(%rbp), %rdx
 3963 1eff 488D7588 		leaq	-120(%rbp), %rsi
 3964 1f03 4889D1   		movq	%rdx, %rcx
 3965 1f06 4889DA   		movq	%rbx, %rdx
 3966 1f09 4889C7   		movq	%rax, %rdi
 3967 1f0c E8000000 		call	_ZN8UnitTest10CheckEqualImjEEvRNS_11TestResultsERKT_RKT0_RKNS_11TestDetailsE
 3967      00
 3968              	.LEHE187:
 3969              	.L241:
 179:testCore.cpp  **** 	*item = 5;
 3970              		.loc 3 179 0 is_stmt 1
 3971 1f11 488B4580 		movq	-128(%rbp), %rax
 3972 1f15 C7000500 		movl	$5, (%rax)
 3972      0000
 180:testCore.cpp  **** 	queueCommitPut(&queue);
 3973              		.loc 3 180 0
 3974 1f1b 488D45B0 		leaq	-80(%rbp), %rax
 3975 1f1f 4889C7   		movq	%rax, %rdi
 3976              	.LEHB188:
 3977 1f22 E8000000 		call	queueCommitPut
 3977      00
 181:testCore.cpp  **** 	status = queuePut(&queue, (Item*)&item);
 3978              		.loc 3 181 0
 3979 1f27 488D5580 		leaq	-128(%rbp), %rdx
 3980 1f2b 488D45B0 		leaq	-80(%rbp), %rax
 3981 1f2f 4889D6   		movq	%rdx, %rsi
 3982 1f32 4889C7   		movq	%rax, %rdi
 3983 1f35 E8000000 		call	queuePut
 3983      00
 3984              	.LEHE188:
 3985 1f3a 898578FF 		movl	%eax, -136(%rbp)
 3985      FFFF
 3986              	.LEHB189:
 182:testCore.cpp  **** 	CHECK_EQUAL(USB_SUCCESS, status);
 3987              		.loc 3 182 0
 3988 1f40 E8000000 		call	_ZN8UnitTest11CurrentTest7DetailsEv
 3988      00
 3989 1f45 488B08   		movq	(%rax), %rcx
 3990 1f48 488D4590 		leaq	-112(%rbp), %rax
 3991 1f4c BAB60000 		movl	$182, %edx
 3991      00
 3992 1f51 4889CE   		movq	%rcx, %rsi
 3993 1f54 4889C7   		movq	%rax, %rdi
 3994 1f57 E8000000 		call	_ZN8UnitTest11TestDetailsC1ERKS0_i
 3994      00
 3995              		.loc 3 182 0 is_stmt 0 discriminator 1
 3996 1f5c C7458800 		movl	$0, -120(%rbp)
 3996      000000
 3997 1f63 E8000000 		call	_ZN8UnitTest11CurrentTest7ResultsEv
 3997      00
 3998 1f68 488B00   		movq	(%rax), %rax
 3999 1f6b 488D4D90 		leaq	-112(%rbp), %rcx
 4000 1f6f 488D9578 		leaq	-136(%rbp), %rdx
 4000      FFFFFF
 4001 1f76 488D7588 		leaq	-120(%rbp), %rsi
 4002 1f7a 4889C7   		movq	%rax, %rdi
 4003 1f7d E8000000 		call	_ZN8UnitTest10CheckEqualI9USBStatusS1_EEvRNS_11TestResultsERKT_RKT0_RKNS_11TestDetailsE
 4003      00
 4004              	.LEHE189:
 4005              	.L244:
 4006              	.LEHB190:
 183:testCore.cpp  **** 	CHECK_EQUAL(2UL, *item);
 4007              		.loc 3 183 0 is_stmt 1
 4008 1f82 E8000000 		call	_ZN8UnitTest11CurrentTest7DetailsEv
 4008      00
 4009 1f87 488B08   		movq	(%rax), %rcx
 4010 1f8a 488D4590 		leaq	-112(%rbp), %rax
 4011 1f8e BAB70000 		movl	$183, %edx
 4011      00
 4012 1f93 4889CE   		movq	%rcx, %rsi
 4013 1f96 4889C7   		movq	%rax, %rdi
 4014 1f99 E8000000 		call	_ZN8UnitTest11TestDetailsC1ERKS0_i
 4014      00
 4015              		.loc 3 183 0 is_stmt 0 discriminator 1
 4016 1f9e 488B5D80 		movq	-128(%rbp), %rbx
 4017 1fa2 48C74588 		movq	$2, -120(%rbp)
 4017      02000000 
 4018 1faa E8000000 		call	_ZN8UnitTest11CurrentTest7ResultsEv
 4018      00
 4019 1faf 488B00   		movq	(%rax), %rax
 4020 1fb2 488D5590 		leaq	-112(%rbp), %rdx
 4021 1fb6 488D7588 		leaq	-120(%rbp), %rsi
 4022 1fba 4889D1   		movq	%rdx, %rcx
 4023 1fbd 4889DA   		movq	%rbx, %rdx
 4024 1fc0 4889C7   		movq	%rax, %rdi
 4025 1fc3 E8000000 		call	_ZN8UnitTest10CheckEqualImjEEvRNS_11TestResultsERKT_RKT0_RKNS_11TestDetailsE
 4025      00
 4026              	.LEHE190:
 4027              	.L247:
 184:testCore.cpp  **** 	*item = 6;
 4028              		.loc 3 184 0 is_stmt 1
 4029 1fc8 488B4580 		movq	-128(%rbp), %rax
 4030 1fcc C7000600 		movl	$6, (%rax)
 4030      0000
 185:testCore.cpp  **** 	queueCommitPut(&queue);
 4031              		.loc 3 185 0
 4032 1fd2 488D45B0 		leaq	-80(%rbp), %rax
 4033 1fd6 4889C7   		movq	%rax, %rdi
 4034              	.LEHB191:
 4035 1fd9 E8000000 		call	queueCommitPut
 4035      00
 186:testCore.cpp  **** 	status = queuePut(&queue, (Item*)&item);
 4036              		.loc 3 186 0
 4037 1fde 488D5580 		leaq	-128(%rbp), %rdx
 4038 1fe2 488D45B0 		leaq	-80(%rbp), %rax
 4039 1fe6 4889D6   		movq	%rdx, %rsi
 4040 1fe9 4889C7   		movq	%rax, %rdi
 4041 1fec E8000000 		call	queuePut
 4041      00
 4042              	.LEHE191:
 4043 1ff1 898578FF 		movl	%eax, -136(%rbp)
 4043      FFFF
 4044              	.LEHB192:
 187:testCore.cpp  **** 	CHECK_EQUAL(USB_SUCCESS, status);
 4045              		.loc 3 187 0
 4046 1ff7 E8000000 		call	_ZN8UnitTest11CurrentTest7DetailsEv
 4046      00
 4047 1ffc 488B08   		movq	(%rax), %rcx
 4048 1fff 488D4590 		leaq	-112(%rbp), %rax
 4049 2003 BABB0000 		movl	$187, %edx
 4049      00
 4050 2008 4889CE   		movq	%rcx, %rsi
 4051 200b 4889C7   		movq	%rax, %rdi
 4052 200e E8000000 		call	_ZN8UnitTest11TestDetailsC1ERKS0_i
 4052      00
 4053              		.loc 3 187 0 is_stmt 0 discriminator 1
 4054 2013 C7458800 		movl	$0, -120(%rbp)
 4054      000000
 4055 201a E8000000 		call	_ZN8UnitTest11CurrentTest7ResultsEv
 4055      00
 4056 201f 488B00   		movq	(%rax), %rax
 4057 2022 488D4D90 		leaq	-112(%rbp), %rcx
 4058 2026 488D9578 		leaq	-136(%rbp), %rdx
 4058      FFFFFF
 4059 202d 488D7588 		leaq	-120(%rbp), %rsi
 4060 2031 4889C7   		movq	%rax, %rdi
 4061 2034 E8000000 		call	_ZN8UnitTest10CheckEqualI9USBStatusS1_EEvRNS_11TestResultsERKT_RKT0_RKNS_11TestDetailsE
 4061      00
 4062              	.LEHE192:
 4063              	.L250:
 4064              	.LEHB193:
 188:testCore.cpp  **** 	CHECK_EQUAL(3UL, *item);
 4065              		.loc 3 188 0 is_stmt 1
 4066 2039 E8000000 		call	_ZN8UnitTest11CurrentTest7DetailsEv
 4066      00
 4067 203e 488B08   		movq	(%rax), %rcx
 4068 2041 488D4590 		leaq	-112(%rbp), %rax
 4069 2045 BABC0000 		movl	$188, %edx
 4069      00
 4070 204a 4889CE   		movq	%rcx, %rsi
 4071 204d 4889C7   		movq	%rax, %rdi
 4072 2050 E8000000 		call	_ZN8UnitTest11TestDetailsC1ERKS0_i
 4072      00
 4073              		.loc 3 188 0 is_stmt 0 discriminator 1
 4074 2055 488B5D80 		movq	-128(%rbp), %rbx
 4075 2059 48C74588 		movq	$3, -120(%rbp)
 4075      03000000 
 4076 2061 E8000000 		call	_ZN8UnitTest11CurrentTest7ResultsEv
 4076      00
 4077 2066 488B00   		movq	(%rax), %rax
 4078 2069 488D5590 		leaq	-112(%rbp), %rdx
 4079 206d 488D7588 		leaq	-120(%rbp), %rsi
 4080 2071 4889D1   		movq	%rdx, %rcx
 4081 2074 4889DA   		movq	%rbx, %rdx
 4082 2077 4889C7   		movq	%rax, %rdi
 4083 207a E8000000 		call	_ZN8UnitTest10CheckEqualImjEEvRNS_11TestResultsERKT_RKT0_RKNS_11TestDetailsE
 4083      00
 4084              	.LEHE193:
 4085              	.L253:
 189:testCore.cpp  **** 	*item = 7;
 4086              		.loc 3 189 0 is_stmt 1
 4087 207f 488B4580 		movq	-128(%rbp), %rax
 4088 2083 C7000700 		movl	$7, (%rax)
 4088      0000
 190:testCore.cpp  **** 	queueCommitPut(&queue);
 4089              		.loc 3 190 0
 4090 2089 488D45B0 		leaq	-80(%rbp), %rax
 4091 208d 4889C7   		movq	%rax, %rdi
 4092              	.LEHB194:
 4093 2090 E8000000 		call	queueCommitPut
 4093      00
 191:testCore.cpp  **** 	status = queuePut(&queue, (Item*)&item);
 4094              		.loc 3 191 0
 4095 2095 488D5580 		leaq	-128(%rbp), %rdx
 4096 2099 488D45B0 		leaq	-80(%rbp), %rax
 4097 209d 4889D6   		movq	%rdx, %rsi
 4098 20a0 4889C7   		movq	%rax, %rdi
 4099 20a3 E8000000 		call	queuePut
 4099      00
 4100              	.LEHE194:
 4101 20a8 898578FF 		movl	%eax, -136(%rbp)
 4101      FFFF
 4102              	.LEHB195:
 192:testCore.cpp  **** 	CHECK_EQUAL(USB_SUCCESS, status);
 4103              		.loc 3 192 0
 4104 20ae E8000000 		call	_ZN8UnitTest11CurrentTest7DetailsEv
 4104      00
 4105 20b3 488B08   		movq	(%rax), %rcx
 4106 20b6 488D4590 		leaq	-112(%rbp), %rax
 4107 20ba BAC00000 		movl	$192, %edx
 4107      00
 4108 20bf 4889CE   		movq	%rcx, %rsi
 4109 20c2 4889C7   		movq	%rax, %rdi
 4110 20c5 E8000000 		call	_ZN8UnitTest11TestDetailsC1ERKS0_i
 4110      00
 4111              		.loc 3 192 0 is_stmt 0 discriminator 1
 4112 20ca C7458800 		movl	$0, -120(%rbp)
 4112      000000
 4113 20d1 E8000000 		call	_ZN8UnitTest11CurrentTest7ResultsEv
 4113      00
 4114 20d6 488B00   		movq	(%rax), %rax
 4115 20d9 488D4D90 		leaq	-112(%rbp), %rcx
 4116 20dd 488D9578 		leaq	-136(%rbp), %rdx
 4116      FFFFFF
 4117 20e4 488D7588 		leaq	-120(%rbp), %rsi
 4118 20e8 4889C7   		movq	%rax, %rdi
 4119 20eb E8000000 		call	_ZN8UnitTest10CheckEqualI9USBStatusS1_EEvRNS_11TestResultsERKT_RKT0_RKNS_11TestDetailsE
 4119      00
 4120              	.LEHE195:
 4121              	.L256:
 4122              	.LEHB196:
 193:testCore.cpp  **** 	CHECK_EQUAL(4UL, *item);
 4123              		.loc 3 193 0 is_stmt 1
 4124 20f0 E8000000 		call	_ZN8UnitTest11CurrentTest7DetailsEv
 4124      00
 4125 20f5 488B08   		movq	(%rax), %rcx
 4126 20f8 488D4590 		leaq	-112(%rbp), %rax
 4127 20fc BAC10000 		movl	$193, %edx
 4127      00
 4128 2101 4889CE   		movq	%rcx, %rsi
 4129 2104 4889C7   		movq	%rax, %rdi
 4130 2107 E8000000 		call	_ZN8UnitTest11TestDetailsC1ERKS0_i
 4130      00
 4131              		.loc 3 193 0 is_stmt 0 discriminator 1
 4132 210c 488B5D80 		movq	-128(%rbp), %rbx
 4133 2110 48C74588 		movq	$4, -120(%rbp)
 4133      04000000 
 4134 2118 E8000000 		call	_ZN8UnitTest11CurrentTest7ResultsEv
 4134      00
 4135 211d 488B00   		movq	(%rax), %rax
 4136 2120 488D5590 		leaq	-112(%rbp), %rdx
 4137 2124 488D7588 		leaq	-120(%rbp), %rsi
 4138 2128 4889D1   		movq	%rdx, %rcx
 4139 212b 4889DA   		movq	%rbx, %rdx
 4140 212e 4889C7   		movq	%rax, %rdi
 4141 2131 E8000000 		call	_ZN8UnitTest10CheckEqualImjEEvRNS_11TestResultsERKT_RKT0_RKNS_11TestDetailsE
 4141      00
 4142              	.LEHE196:
 4143              	.L259:
 194:testCore.cpp  **** 	*item = 8;
 4144              		.loc 3 194 0 is_stmt 1
 4145 2136 488B4580 		movq	-128(%rbp), %rax
 4146 213a C7000800 		movl	$8, (%rax)
 4146      0000
 195:testCore.cpp  **** 	queueCommitPut(&queue);
 4147              		.loc 3 195 0
 4148 2140 488D45B0 		leaq	-80(%rbp), %rax
 4149 2144 4889C7   		movq	%rax, %rdi
 4150              	.LEHB197:
 4151 2147 E8000000 		call	queueCommitPut
 4151      00
 196:testCore.cpp  **** 
 197:testCore.cpp  **** 	// Take four items out of the queue
 198:testCore.cpp  **** 	status = queueTake(&queue, (Item*)&item);
 4152              		.loc 3 198 0
 4153 214c 488D5580 		leaq	-128(%rbp), %rdx
 4154 2150 488D45B0 		leaq	-80(%rbp), %rax
 4155 2154 4889D6   		movq	%rdx, %rsi
 4156 2157 4889C7   		movq	%rax, %rdi
 4157 215a E8000000 		call	queueTake
 4157      00
 4158              	.LEHE197:
 4159 215f 898578FF 		movl	%eax, -136(%rbp)
 4159      FFFF
 4160              	.LEHB198:
 199:testCore.cpp  **** 	CHECK_EQUAL(USB_SUCCESS, status);
 4161              		.loc 3 199 0
 4162 2165 E8000000 		call	_ZN8UnitTest11CurrentTest7DetailsEv
 4162      00
 4163 216a 488B08   		movq	(%rax), %rcx
 4164 216d 488D4590 		leaq	-112(%rbp), %rax
 4165 2171 BAC70000 		movl	$199, %edx
 4165      00
 4166 2176 4889CE   		movq	%rcx, %rsi
 4167 2179 4889C7   		movq	%rax, %rdi
 4168 217c E8000000 		call	_ZN8UnitTest11TestDetailsC1ERKS0_i
 4168      00
 4169              		.loc 3 199 0 is_stmt 0 discriminator 1
 4170 2181 C7458800 		movl	$0, -120(%rbp)
 4170      000000
 4171 2188 E8000000 		call	_ZN8UnitTest11CurrentTest7ResultsEv
 4171      00
 4172 218d 488B00   		movq	(%rax), %rax
 4173 2190 488D4D90 		leaq	-112(%rbp), %rcx
 4174 2194 488D9578 		leaq	-136(%rbp), %rdx
 4174      FFFFFF
 4175 219b 488D7588 		leaq	-120(%rbp), %rsi
 4176 219f 4889C7   		movq	%rax, %rdi
 4177 21a2 E8000000 		call	_ZN8UnitTest10CheckEqualI9USBStatusS1_EEvRNS_11TestResultsERKT_RKT0_RKNS_11TestDetailsE
 4177      00
 4178              	.LEHE198:
 4179              	.L262:
 4180              	.LEHB199:
 200:testCore.cpp  **** 	CHECK_EQUAL(5UL, *item);
 4181              		.loc 3 200 0 is_stmt 1
 4182 21a7 E8000000 		call	_ZN8UnitTest11CurrentTest7DetailsEv
 4182      00
 4183 21ac 488B08   		movq	(%rax), %rcx
 4184 21af 488D4590 		leaq	-112(%rbp), %rax
 4185 21b3 BAC80000 		movl	$200, %edx
 4185      00
 4186 21b8 4889CE   		movq	%rcx, %rsi
 4187 21bb 4889C7   		movq	%rax, %rdi
 4188 21be E8000000 		call	_ZN8UnitTest11TestDetailsC1ERKS0_i
 4188      00
 4189              		.loc 3 200 0 is_stmt 0 discriminator 1
 4190 21c3 488B5D80 		movq	-128(%rbp), %rbx
 4191 21c7 48C74588 		movq	$5, -120(%rbp)
 4191      05000000 
 4192 21cf E8000000 		call	_ZN8UnitTest11CurrentTest7ResultsEv
 4192      00
 4193 21d4 488B00   		movq	(%rax), %rax
 4194 21d7 488D5590 		leaq	-112(%rbp), %rdx
 4195 21db 488D7588 		leaq	-120(%rbp), %rsi
 4196 21df 4889D1   		movq	%rdx, %rcx
 4197 21e2 4889DA   		movq	%rbx, %rdx
 4198 21e5 4889C7   		movq	%rax, %rdi
 4199 21e8 E8000000 		call	_ZN8UnitTest10CheckEqualImjEEvRNS_11TestResultsERKT_RKT0_RKNS_11TestDetailsE
 4199      00
 4200              	.LEHE199:
 4201              	.L265:
 201:testCore.cpp  **** 	queueCommitTake(&queue);
 4202              		.loc 3 201 0 is_stmt 1
 4203 21ed 488D45B0 		leaq	-80(%rbp), %rax
 4204 21f1 4889C7   		movq	%rax, %rdi
 4205              	.LEHB200:
 4206 21f4 E8000000 		call	queueCommitTake
 4206      00
 202:testCore.cpp  **** 	status = queueTake(&queue, (Item*)&item);
 4207              		.loc 3 202 0
 4208 21f9 488D5580 		leaq	-128(%rbp), %rdx
 4209 21fd 488D45B0 		leaq	-80(%rbp), %rax
 4210 2201 4889D6   		movq	%rdx, %rsi
 4211 2204 4889C7   		movq	%rax, %rdi
 4212 2207 E8000000 		call	queueTake
 4212      00
 4213              	.LEHE200:
 4214 220c 898578FF 		movl	%eax, -136(%rbp)
 4214      FFFF
 4215              	.LEHB201:
 203:testCore.cpp  **** 	CHECK_EQUAL(USB_SUCCESS, status);
 4216              		.loc 3 203 0
 4217 2212 E8000000 		call	_ZN8UnitTest11CurrentTest7DetailsEv
 4217      00
 4218 2217 488B08   		movq	(%rax), %rcx
 4219 221a 488D4590 		leaq	-112(%rbp), %rax
 4220 221e BACB0000 		movl	$203, %edx
 4220      00
 4221 2223 4889CE   		movq	%rcx, %rsi
 4222 2226 4889C7   		movq	%rax, %rdi
 4223 2229 E8000000 		call	_ZN8UnitTest11TestDetailsC1ERKS0_i
 4223      00
 4224              		.loc 3 203 0 is_stmt 0 discriminator 1
 4225 222e C7458800 		movl	$0, -120(%rbp)
 4225      000000
 4226 2235 E8000000 		call	_ZN8UnitTest11CurrentTest7ResultsEv
 4226      00
 4227 223a 488B00   		movq	(%rax), %rax
 4228 223d 488D4D90 		leaq	-112(%rbp), %rcx
 4229 2241 488D9578 		leaq	-136(%rbp), %rdx
 4229      FFFFFF
 4230 2248 488D7588 		leaq	-120(%rbp), %rsi
 4231 224c 4889C7   		movq	%rax, %rdi
 4232 224f E8000000 		call	_ZN8UnitTest10CheckEqualI9USBStatusS1_EEvRNS_11TestResultsERKT_RKT0_RKNS_11TestDetailsE
 4232      00
 4233              	.LEHE201:
 4234              	.L268:
 4235              	.LEHB202:
 204:testCore.cpp  **** 	CHECK_EQUAL(6UL, *item);
 4236              		.loc 3 204 0 is_stmt 1
 4237 2254 E8000000 		call	_ZN8UnitTest11CurrentTest7DetailsEv
 4237      00
 4238 2259 488B08   		movq	(%rax), %rcx
 4239 225c 488D4590 		leaq	-112(%rbp), %rax
 4240 2260 BACC0000 		movl	$204, %edx
 4240      00
 4241 2265 4889CE   		movq	%rcx, %rsi
 4242 2268 4889C7   		movq	%rax, %rdi
 4243 226b E8000000 		call	_ZN8UnitTest11TestDetailsC1ERKS0_i
 4243      00
 4244              		.loc 3 204 0 is_stmt 0 discriminator 1
 4245 2270 488B5D80 		movq	-128(%rbp), %rbx
 4246 2274 48C74588 		movq	$6, -120(%rbp)
 4246      06000000 
 4247 227c E8000000 		call	_ZN8UnitTest11CurrentTest7ResultsEv
 4247      00
 4248 2281 488B00   		movq	(%rax), %rax
 4249 2284 488D5590 		leaq	-112(%rbp), %rdx
 4250 2288 488D7588 		leaq	-120(%rbp), %rsi
 4251 228c 4889D1   		movq	%rdx, %rcx
 4252 228f 4889DA   		movq	%rbx, %rdx
 4253 2292 4889C7   		movq	%rax, %rdi
 4254 2295 E8000000 		call	_ZN8UnitTest10CheckEqualImjEEvRNS_11TestResultsERKT_RKT0_RKNS_11TestDetailsE
 4254      00
 4255              	.LEHE202:
 4256              	.L271:
 205:testCore.cpp  **** 	queueCommitTake(&queue);
 4257              		.loc 3 205 0 is_stmt 1
 4258 229a 488D45B0 		leaq	-80(%rbp), %rax
 4259 229e 4889C7   		movq	%rax, %rdi
 4260              	.LEHB203:
 4261 22a1 E8000000 		call	queueCommitTake
 4261      00
 206:testCore.cpp  **** 	status = queueTake(&queue, (Item*)&item);
 4262              		.loc 3 206 0
 4263 22a6 488D5580 		leaq	-128(%rbp), %rdx
 4264 22aa 488D45B0 		leaq	-80(%rbp), %rax
 4265 22ae 4889D6   		movq	%rdx, %rsi
 4266 22b1 4889C7   		movq	%rax, %rdi
 4267 22b4 E8000000 		call	queueTake
 4267      00
 4268              	.LEHE203:
 4269 22b9 898578FF 		movl	%eax, -136(%rbp)
 4269      FFFF
 4270              	.LEHB204:
 207:testCore.cpp  **** 	CHECK_EQUAL(USB_SUCCESS, status);
 4271              		.loc 3 207 0
 4272 22bf E8000000 		call	_ZN8UnitTest11CurrentTest7DetailsEv
 4272      00
 4273 22c4 488B08   		movq	(%rax), %rcx
 4274 22c7 488D4590 		leaq	-112(%rbp), %rax
 4275 22cb BACF0000 		movl	$207, %edx
 4275      00
 4276 22d0 4889CE   		movq	%rcx, %rsi
 4277 22d3 4889C7   		movq	%rax, %rdi
 4278 22d6 E8000000 		call	_ZN8UnitTest11TestDetailsC1ERKS0_i
 4278      00
 4279              		.loc 3 207 0 is_stmt 0 discriminator 1
 4280 22db C7458800 		movl	$0, -120(%rbp)
 4280      000000
 4281 22e2 E8000000 		call	_ZN8UnitTest11CurrentTest7ResultsEv
 4281      00
 4282 22e7 488B00   		movq	(%rax), %rax
 4283 22ea 488D4D90 		leaq	-112(%rbp), %rcx
 4284 22ee 488D9578 		leaq	-136(%rbp), %rdx
 4284      FFFFFF
 4285 22f5 488D7588 		leaq	-120(%rbp), %rsi
 4286 22f9 4889C7   		movq	%rax, %rdi
 4287 22fc E8000000 		call	_ZN8UnitTest10CheckEqualI9USBStatusS1_EEvRNS_11TestResultsERKT_RKT0_RKNS_11TestDetailsE
 4287      00
 4288              	.LEHE204:
 4289              	.L274:
 4290              	.LEHB205:
 208:testCore.cpp  **** 	CHECK_EQUAL(7UL, *item);
 4291              		.loc 3 208 0 is_stmt 1
 4292 2301 E8000000 		call	_ZN8UnitTest11CurrentTest7DetailsEv
 4292      00
 4293 2306 488B08   		movq	(%rax), %rcx
 4294 2309 488D4590 		leaq	-112(%rbp), %rax
 4295 230d BAD00000 		movl	$208, %edx
 4295      00
 4296 2312 4889CE   		movq	%rcx, %rsi
 4297 2315 4889C7   		movq	%rax, %rdi
 4298 2318 E8000000 		call	_ZN8UnitTest11TestDetailsC1ERKS0_i
 4298      00
 4299              		.loc 3 208 0 is_stmt 0 discriminator 1
 4300 231d 488B5D80 		movq	-128(%rbp), %rbx
 4301 2321 48C74588 		movq	$7, -120(%rbp)
 4301      07000000 
 4302 2329 E8000000 		call	_ZN8UnitTest11CurrentTest7ResultsEv
 4302      00
 4303 232e 488B00   		movq	(%rax), %rax
 4304 2331 488D5590 		leaq	-112(%rbp), %rdx
 4305 2335 488D7588 		leaq	-120(%rbp), %rsi
 4306 2339 4889D1   		movq	%rdx, %rcx
 4307 233c 4889DA   		movq	%rbx, %rdx
 4308 233f 4889C7   		movq	%rax, %rdi
 4309 2342 E8000000 		call	_ZN8UnitTest10CheckEqualImjEEvRNS_11TestResultsERKT_RKT0_RKNS_11TestDetailsE
 4309      00
 4310              	.LEHE205:
 4311              	.L277:
 209:testCore.cpp  **** 	queueCommitTake(&queue);
 4312              		.loc 3 209 0 is_stmt 1
 4313 2347 488D45B0 		leaq	-80(%rbp), %rax
 4314 234b 4889C7   		movq	%rax, %rdi
 4315              	.LEHB206:
 4316 234e E8000000 		call	queueCommitTake
 4316      00
 210:testCore.cpp  **** 	status = queueTake(&queue, (Item*)&item);
 4317              		.loc 3 210 0
 4318 2353 488D5580 		leaq	-128(%rbp), %rdx
 4319 2357 488D45B0 		leaq	-80(%rbp), %rax
 4320 235b 4889D6   		movq	%rdx, %rsi
 4321 235e 4889C7   		movq	%rax, %rdi
 4322 2361 E8000000 		call	queueTake
 4322      00
 4323              	.LEHE206:
 4324 2366 898578FF 		movl	%eax, -136(%rbp)
 4324      FFFF
 4325              	.LEHB207:
 211:testCore.cpp  **** 	CHECK_EQUAL(USB_SUCCESS, status);
 4326              		.loc 3 211 0
 4327 236c E8000000 		call	_ZN8UnitTest11CurrentTest7DetailsEv
 4327      00
 4328 2371 488B08   		movq	(%rax), %rcx
 4329 2374 488D4590 		leaq	-112(%rbp), %rax
 4330 2378 BAD30000 		movl	$211, %edx
 4330      00
 4331 237d 4889CE   		movq	%rcx, %rsi
 4332 2380 4889C7   		movq	%rax, %rdi
 4333 2383 E8000000 		call	_ZN8UnitTest11TestDetailsC1ERKS0_i
 4333      00
 4334              		.loc 3 211 0 is_stmt 0 discriminator 1
 4335 2388 C7458800 		movl	$0, -120(%rbp)
 4335      000000
 4336 238f E8000000 		call	_ZN8UnitTest11CurrentTest7ResultsEv
 4336      00
 4337 2394 488B00   		movq	(%rax), %rax
 4338 2397 488D4D90 		leaq	-112(%rbp), %rcx
 4339 239b 488D9578 		leaq	-136(%rbp), %rdx
 4339      FFFFFF
 4340 23a2 488D7588 		leaq	-120(%rbp), %rsi
 4341 23a6 4889C7   		movq	%rax, %rdi
 4342 23a9 E8000000 		call	_ZN8UnitTest10CheckEqualI9USBStatusS1_EEvRNS_11TestResultsERKT_RKT0_RKNS_11TestDetailsE
 4342      00
 4343              	.LEHE207:
 4344              	.L280:
 4345              	.LEHB208:
 212:testCore.cpp  **** 	CHECK_EQUAL(8UL, *item);
 4346              		.loc 3 212 0 is_stmt 1
 4347 23ae E8000000 		call	_ZN8UnitTest11CurrentTest7DetailsEv
 4347      00
 4348 23b3 488B08   		movq	(%rax), %rcx
 4349 23b6 488D4590 		leaq	-112(%rbp), %rax
 4350 23ba BAD40000 		movl	$212, %edx
 4350      00
 4351 23bf 4889CE   		movq	%rcx, %rsi
 4352 23c2 4889C7   		movq	%rax, %rdi
 4353 23c5 E8000000 		call	_ZN8UnitTest11TestDetailsC1ERKS0_i
 4353      00
 4354              		.loc 3 212 0 is_stmt 0 discriminator 1
 4355 23ca 488B5D80 		movq	-128(%rbp), %rbx
 4356 23ce 48C74588 		movq	$8, -120(%rbp)
 4356      08000000 
 4357 23d6 E8000000 		call	_ZN8UnitTest11CurrentTest7ResultsEv
 4357      00
 4358 23db 488B00   		movq	(%rax), %rax
 4359 23de 488D5590 		leaq	-112(%rbp), %rdx
 4360 23e2 488D7588 		leaq	-120(%rbp), %rsi
 4361 23e6 4889D1   		movq	%rdx, %rcx
 4362 23e9 4889DA   		movq	%rbx, %rdx
 4363 23ec 4889C7   		movq	%rax, %rdi
 4364 23ef E8000000 		call	_ZN8UnitTest10CheckEqualImjEEvRNS_11TestResultsERKT_RKT0_RKNS_11TestDetailsE
 4364      00
 4365              	.LEHE208:
 4366              	.L283:
 213:testCore.cpp  **** 	queueCommitTake(&queue);
 4367              		.loc 3 213 0 is_stmt 1
 4368 23f4 488D45B0 		leaq	-80(%rbp), %rax
 4369 23f8 4889C7   		movq	%rax, %rdi
 4370              	.LEHB209:
 4371 23fb E8000000 		call	queueCommitTake
 4371      00
 4372              	.LEHE209:
 4373              	.LEHB210:
 214:testCore.cpp  **** 
 215:testCore.cpp  **** 	// Verify
 216:testCore.cpp  **** 	CHECK_EQUAL(4UL, queue.capacity);
 4374              		.loc 3 216 0
 4375 2400 E8000000 		call	_ZN8UnitTest11CurrentTest7DetailsEv
 4375      00
 4376 2405 488B08   		movq	(%rax), %rcx
 4377 2408 488D4590 		leaq	-112(%rbp), %rax
 4378 240c BAD80000 		movl	$216, %edx
 4378      00
 4379 2411 4889CE   		movq	%rcx, %rsi
 4380 2414 4889C7   		movq	%rax, %rdi
 4381 2417 E8000000 		call	_ZN8UnitTest11TestDetailsC1ERKS0_i
 4381      00
 4382              		.loc 3 216 0 is_stmt 0 discriminator 1
 4383 241c 48C74588 		movq	$4, -120(%rbp)
 4383      04000000 
 4384 2424 E8000000 		call	_ZN8UnitTest11CurrentTest7ResultsEv
 4384      00
 4385 2429 488B00   		movq	(%rax), %rax
 4386 242c 488D5590 		leaq	-112(%rbp), %rdx
 4387 2430 488D4DB0 		leaq	-80(%rbp), %rcx
 4388 2434 488D7908 		leaq	8(%rcx), %rdi
 4389 2438 488D7588 		leaq	-120(%rbp), %rsi
 4390 243c 4889D1   		movq	%rdx, %rcx
 4391 243f 4889FA   		movq	%rdi, %rdx
 4392 2442 4889C7   		movq	%rax, %rdi
 4393 2445 E8000000 		call	_ZN8UnitTest10CheckEqualImmEEvRNS_11TestResultsERKT_RKT0_RKNS_11TestDetailsE
 4393      00
 4394              	.LEHE210:
 4395              	.L286:
 4396              	.LEHB211:
 217:testCore.cpp  **** 	CHECK_EQUAL(0UL, queue.putIndex);
 4397              		.loc 3 217 0 is_stmt 1
 4398 244a E8000000 		call	_ZN8UnitTest11CurrentTest7DetailsEv
 4398      00
 4399 244f 488B08   		movq	(%rax), %rcx
 4400 2452 488D4590 		leaq	-112(%rbp), %rax
 4401 2456 BAD90000 		movl	$217, %edx
 4401      00
 4402 245b 4889CE   		movq	%rcx, %rsi
 4403 245e 4889C7   		movq	%rax, %rdi
 4404 2461 E8000000 		call	_ZN8UnitTest11TestDetailsC1ERKS0_i
 4404      00
 4405              		.loc 3 217 0 is_stmt 0 discriminator 1
 4406 2466 48C74588 		movq	$0, -120(%rbp)
 4406      00000000 
 4407 246e E8000000 		call	_ZN8UnitTest11CurrentTest7ResultsEv
 4407      00
 4408 2473 488B00   		movq	(%rax), %rax
 4409 2476 488D5590 		leaq	-112(%rbp), %rdx
 4410 247a 488D4DB0 		leaq	-80(%rbp), %rcx
 4411 247e 488D7910 		leaq	16(%rcx), %rdi
 4412 2482 488D7588 		leaq	-120(%rbp), %rsi
 4413 2486 4889D1   		movq	%rdx, %rcx
 4414 2489 4889FA   		movq	%rdi, %rdx
 4415 248c 4889C7   		movq	%rax, %rdi
 4416 248f E8000000 		call	_ZN8UnitTest10CheckEqualImmEEvRNS_11TestResultsERKT_RKT0_RKNS_11TestDetailsE
 4416      00
 4417              	.LEHE211:
 4418              	.L289:
 4419              	.LEHB212:
 218:testCore.cpp  **** 	CHECK_EQUAL(0UL, queue.takeIndex);
 4420              		.loc 3 218 0 is_stmt 1
 4421 2494 E8000000 		call	_ZN8UnitTest11CurrentTest7DetailsEv
 4421      00
 4422 2499 488B08   		movq	(%rax), %rcx
 4423 249c 488D4590 		leaq	-112(%rbp), %rax
 4424 24a0 BADA0000 		movl	$218, %edx
 4424      00
 4425 24a5 4889CE   		movq	%rcx, %rsi
 4426 24a8 4889C7   		movq	%rax, %rdi
 4427 24ab E8000000 		call	_ZN8UnitTest11TestDetailsC1ERKS0_i
 4427      00
 4428              		.loc 3 218 0 is_stmt 0 discriminator 1
 4429 24b0 48C74588 		movq	$0, -120(%rbp)
 4429      00000000 
 4430 24b8 E8000000 		call	_ZN8UnitTest11CurrentTest7ResultsEv
 4430      00
 4431 24bd 488B00   		movq	(%rax), %rax
 4432 24c0 488D5590 		leaq	-112(%rbp), %rdx
 4433 24c4 488D4DB0 		leaq	-80(%rbp), %rcx
 4434 24c8 488D7918 		leaq	24(%rcx), %rdi
 4435 24cc 488D7588 		leaq	-120(%rbp), %rsi
 4436 24d0 4889D1   		movq	%rdx, %rcx
 4437 24d3 4889FA   		movq	%rdi, %rdx
 4438 24d6 4889C7   		movq	%rax, %rdi
 4439 24d9 E8000000 		call	_ZN8UnitTest10CheckEqualImmEEvRNS_11TestResultsERKT_RKT0_RKNS_11TestDetailsE
 4439      00
 4440              	.LEHE212:
 4441              	.L292:
 4442              	.LEHB213:
 219:testCore.cpp  **** 	CHECK_EQUAL(0UL, queue.numItems);
 4443              		.loc 3 219 0 is_stmt 1
 4444 24de E8000000 		call	_ZN8UnitTest11CurrentTest7DetailsEv
 4444      00
 4445 24e3 488B08   		movq	(%rax), %rcx
 4446 24e6 488D4590 		leaq	-112(%rbp), %rax
 4447 24ea BADB0000 		movl	$219, %edx
 4447      00
 4448 24ef 4889CE   		movq	%rcx, %rsi
 4449 24f2 4889C7   		movq	%rax, %rdi
 4450 24f5 E8000000 		call	_ZN8UnitTest11TestDetailsC1ERKS0_i
 4450      00
 4451              		.loc 3 219 0 is_stmt 0 discriminator 1
 4452 24fa 48C74588 		movq	$0, -120(%rbp)
 4452      00000000 
 4453 2502 E8000000 		call	_ZN8UnitTest11CurrentTest7ResultsEv
 4453      00
 4454 2507 488B00   		movq	(%rax), %rax
 4455 250a 488D5590 		leaq	-112(%rbp), %rdx
 4456 250e 488D4DB0 		leaq	-80(%rbp), %rcx
 4457 2512 488D7920 		leaq	32(%rcx), %rdi
 4458 2516 488D7588 		leaq	-120(%rbp), %rsi
 4459 251a 4889D1   		movq	%rdx, %rcx
 4460 251d 4889FA   		movq	%rdi, %rdx
 4461 2520 4889C7   		movq	%rax, %rdi
 4462 2523 E8000000 		call	_ZN8UnitTest10CheckEqualImmEEvRNS_11TestResultsERKT_RKT0_RKNS_11TestDetailsE
 4462      00
 4463              	.LEHE213:
 4464              	.L295:
 4465              	.LEHB214:
 220:testCore.cpp  **** 
 221:testCore.cpp  **** 	// Verify array
 222:testCore.cpp  **** 	CHECK_EQUAL(5UL, deref(queue.itemArray[0]));
 4466              		.loc 3 222 0 is_stmt 1
 4467 2528 E8000000 		call	_ZN8UnitTest11CurrentTest7DetailsEv
 4467      00
 4468 252d 488B08   		movq	(%rax), %rcx
 4469 2530 488D4590 		leaq	-112(%rbp), %rax
 4470 2534 BADE0000 		movl	$222, %edx
 4470      00
 4471 2539 4889CE   		movq	%rcx, %rsi
 4472 253c 4889C7   		movq	%rax, %rdi
 4473 253f E8000000 		call	_ZN8UnitTest11TestDetailsC1ERKS0_i
 4473      00
 4474              		.loc 3 222 0 is_stmt 0 discriminator 1
 4475 2544 488B45B0 		movq	-80(%rbp), %rax
 4476 2548 488B00   		movq	(%rax), %rax
 4477 254b 4889C7   		movq	%rax, %rdi
 4478 254e E836DBFF 		call	_ZL5derefPKv
 4478      FF
 4479 2553 89857CFF 		movl	%eax, -132(%rbp)
 4479      FFFF
 4480 2559 48C74588 		movq	$5, -120(%rbp)
 4480      05000000 
 4481 2561 E8000000 		call	_ZN8UnitTest11CurrentTest7ResultsEv
 4481      00
 4482 2566 488B00   		movq	(%rax), %rax
 4483 2569 488D4D90 		leaq	-112(%rbp), %rcx
 4484 256d 488D957C 		leaq	-132(%rbp), %rdx
 4484      FFFFFF
 4485 2574 488D7588 		leaq	-120(%rbp), %rsi
 4486 2578 4889C7   		movq	%rax, %rdi
 4487 257b E8000000 		call	_ZN8UnitTest10CheckEqualImjEEvRNS_11TestResultsERKT_RKT0_RKNS_11TestDetailsE
 4487      00
 4488              	.LEHE214:
 4489              	.L298:
 4490              	.LEHB215:
 223:testCore.cpp  **** 	CHECK_EQUAL(6UL, deref(queue.itemArray[1]));
 4491              		.loc 3 223 0 is_stmt 1
 4492 2580 E8000000 		call	_ZN8UnitTest11CurrentTest7DetailsEv
 4492      00
 4493 2585 488B08   		movq	(%rax), %rcx
 4494 2588 488D4590 		leaq	-112(%rbp), %rax
 4495 258c BADF0000 		movl	$223, %edx
 4495      00
 4496 2591 4889CE   		movq	%rcx, %rsi
 4497 2594 4889C7   		movq	%rax, %rdi
 4498 2597 E8000000 		call	_ZN8UnitTest11TestDetailsC1ERKS0_i
 4498      00
 4499              		.loc 3 223 0 is_stmt 0 discriminator 1
 4500 259c 488B45B0 		movq	-80(%rbp), %rax
 4501 25a0 4883C008 		addq	$8, %rax
 4502 25a4 488B00   		movq	(%rax), %rax
 4503 25a7 4889C7   		movq	%rax, %rdi
 4504 25aa E8DADAFF 		call	_ZL5derefPKv
 4504      FF
 4505 25af 89857CFF 		movl	%eax, -132(%rbp)
 4505      FFFF
 4506 25b5 48C74588 		movq	$6, -120(%rbp)
 4506      06000000 
 4507 25bd E8000000 		call	_ZN8UnitTest11CurrentTest7ResultsEv
 4507      00
 4508 25c2 488B00   		movq	(%rax), %rax
 4509 25c5 488D4D90 		leaq	-112(%rbp), %rcx
 4510 25c9 488D957C 		leaq	-132(%rbp), %rdx
 4510      FFFFFF
 4511 25d0 488D7588 		leaq	-120(%rbp), %rsi
 4512 25d4 4889C7   		movq	%rax, %rdi
 4513 25d7 E8000000 		call	_ZN8UnitTest10CheckEqualImjEEvRNS_11TestResultsERKT_RKT0_RKNS_11TestDetailsE
 4513      00
 4514              	.LEHE215:
 4515              	.L301:
 4516              	.LEHB216:
 224:testCore.cpp  **** 	CHECK_EQUAL(7UL, deref(queue.itemArray[2]));
 4517              		.loc 3 224 0 is_stmt 1
 4518 25dc E8000000 		call	_ZN8UnitTest11CurrentTest7DetailsEv
 4518      00
 4519 25e1 488B08   		movq	(%rax), %rcx
 4520 25e4 488D4590 		leaq	-112(%rbp), %rax
 4521 25e8 BAE00000 		movl	$224, %edx
 4521      00
 4522 25ed 4889CE   		movq	%rcx, %rsi
 4523 25f0 4889C7   		movq	%rax, %rdi
 4524 25f3 E8000000 		call	_ZN8UnitTest11TestDetailsC1ERKS0_i
 4524      00
 4525              		.loc 3 224 0 is_stmt 0 discriminator 1
 4526 25f8 488B45B0 		movq	-80(%rbp), %rax
 4527 25fc 4883C010 		addq	$16, %rax
 4528 2600 488B00   		movq	(%rax), %rax
 4529 2603 4889C7   		movq	%rax, %rdi
 4530 2606 E87EDAFF 		call	_ZL5derefPKv
 4530      FF
 4531 260b 89857CFF 		movl	%eax, -132(%rbp)
 4531      FFFF
 4532 2611 48C74588 		movq	$7, -120(%rbp)
 4532      07000000 
 4533 2619 E8000000 		call	_ZN8UnitTest11CurrentTest7ResultsEv
 4533      00
 4534 261e 488B00   		movq	(%rax), %rax
 4535 2621 488D4D90 		leaq	-112(%rbp), %rcx
 4536 2625 488D957C 		leaq	-132(%rbp), %rdx
 4536      FFFFFF
 4537 262c 488D7588 		leaq	-120(%rbp), %rsi
 4538 2630 4889C7   		movq	%rax, %rdi
 4539 2633 E8000000 		call	_ZN8UnitTest10CheckEqualImjEEvRNS_11TestResultsERKT_RKT0_RKNS_11TestDetailsE
 4539      00
 4540              	.LEHE216:
 4541              	.L304:
 4542              	.LEHB217:
 225:testCore.cpp  **** 	CHECK_EQUAL(8UL, deref(queue.itemArray[3]));
 4543              		.loc 3 225 0 is_stmt 1
 4544 2638 E8000000 		call	_ZN8UnitTest11CurrentTest7DetailsEv
 4544      00
 4545 263d 488B08   		movq	(%rax), %rcx
 4546 2640 488D4590 		leaq	-112(%rbp), %rax
 4547 2644 BAE10000 		movl	$225, %edx
 4547      00
 4548 2649 4889CE   		movq	%rcx, %rsi
 4549 264c 4889C7   		movq	%rax, %rdi
 4550 264f E8000000 		call	_ZN8UnitTest11TestDetailsC1ERKS0_i
 4550      00
 4551              		.loc 3 225 0 is_stmt 0 discriminator 1
 4552 2654 488B45B0 		movq	-80(%rbp), %rax
 4553 2658 4883C018 		addq	$24, %rax
 4554 265c 488B00   		movq	(%rax), %rax
 4555 265f 4889C7   		movq	%rax, %rdi
 4556 2662 E822DAFF 		call	_ZL5derefPKv
 4556      FF
 4557 2667 89857CFF 		movl	%eax, -132(%rbp)
 4557      FFFF
 4558 266d 48C74588 		movq	$8, -120(%rbp)
 4558      08000000 
 4559 2675 E8000000 		call	_ZN8UnitTest11CurrentTest7ResultsEv
 4559      00
 4560 267a 488B00   		movq	(%rax), %rax
 4561 267d 488D4D90 		leaq	-112(%rbp), %rcx
 4562 2681 488D957C 		leaq	-132(%rbp), %rdx
 4562      FFFFFF
 4563 2688 488D7588 		leaq	-120(%rbp), %rsi
 4564 268c 4889C7   		movq	%rax, %rdi
 4565 268f E8000000 		call	_ZN8UnitTest10CheckEqualImjEEvRNS_11TestResultsERKT_RKT0_RKNS_11TestDetailsE
 4565      00
 4566              	.LEHE217:
 4567              	.L307:
 226:testCore.cpp  **** 
 227:testCore.cpp  **** 	// Clean up
 228:testCore.cpp  **** 	queueDestroy(&queue);
 4568              		.loc 3 228 0 is_stmt 1
 4569 2694 488D45B0 		leaq	-80(%rbp), %rax
 4570 2698 4889C7   		movq	%rax, %rdi
 4571              	.LEHB218:
 4572 269b E8000000 		call	queueDestroy
 4572      00
 4573              	.LEHE218:
 4574 26a0 E9150900 		jmp	.L358
 4574      00
 4575              	.L309:
 4576 26a5 4889C3   		movq	%rax, %rbx
 173:testCore.cpp  **** 
 4577              		.loc 3 173 0
 4578 26a8 E8000000 		call	__cxa_end_catch
 4578      00
 4579 26ad 4889D8   		movq	%rbx, %rax
 4580 26b0 4889C7   		movq	%rax, %rdi
 4581              	.LEHB219:
 4582 26b3 E8000000 		call	_Unwind_Resume
 4582      00
 4583              	.LEHE219:
 4584              	.L308:
 4585 26b8 4889C7   		movq	%rax, %rdi
 4586 26bb E8000000 		call	__cxa_begin_catch
 4586      00
 4587              	.LEHB220:
 4588 26c0 E8000000 		call	_ZN8UnitTest11CurrentTest7DetailsEv
 4588      00
 4589 26c5 488B08   		movq	(%rax), %rcx
 4590 26c8 488D4590 		leaq	-112(%rbp), %rax
 4591 26cc BAAD0000 		movl	$173, %edx
 4591      00
 4592 26d1 4889CE   		movq	%rcx, %rsi
 4593 26d4 4889C7   		movq	%rax, %rdi
 4594 26d7 E8000000 		call	_ZN8UnitTest11TestDetailsC1ERKS0_i
 4594      00
 173:testCore.cpp  **** 
 4595              		.loc 3 173 0 is_stmt 0 discriminator 1
 4596 26dc E8000000 		call	_ZN8UnitTest11CurrentTest7ResultsEv
 4596      00
 4597 26e1 488B00   		movq	(%rax), %rax
 4598 26e4 488D4D90 		leaq	-112(%rbp), %rcx
 4599 26e8 BA000000 		movl	$.LC3, %edx
 4599      00
 4600 26ed 4889CE   		movq	%rcx, %rsi
 4601 26f0 4889C7   		movq	%rax, %rdi
 4602 26f3 E8000000 		call	_ZN8UnitTest11TestResults13OnTestFailureERKNS_11TestDetailsEPKc
 4602      00
 4603              	.LEHE220:
 4604              	.LEHB221:
 4605 26f8 E8000000 		call	__cxa_end_catch
 4605      00
 4606              	.LEHE221:
 4607 26fd E96EF7FF 		jmp	.L235
 4607      FF
 4608              	.L311:
 4609 2702 4889C3   		movq	%rax, %rbx
 177:testCore.cpp  **** 	CHECK_EQUAL(1UL, *item);
 4610              		.loc 3 177 0 is_stmt 1
 4611 2705 E8000000 		call	__cxa_end_catch
 4611      00
 4612 270a 4889D8   		movq	%rbx, %rax
 4613 270d 4889C7   		movq	%rax, %rdi
 4614              	.LEHB222:
 4615 2710 E8000000 		call	_Unwind_Resume
 4615      00
 4616              	.LEHE222:
 4617              	.L310:
 4618 2715 4889C7   		movq	%rax, %rdi
 4619 2718 E8000000 		call	__cxa_begin_catch
 4619      00
 4620              	.LEHB223:
 4621 271d E8000000 		call	_ZN8UnitTest11CurrentTest7DetailsEv
 4621      00
 4622 2722 488B08   		movq	(%rax), %rcx
 4623 2725 488D4590 		leaq	-112(%rbp), %rax
 4624 2729 BAB10000 		movl	$177, %edx
 4624      00
 4625 272e 4889CE   		movq	%rcx, %rsi
 4626 2731 4889C7   		movq	%rax, %rdi
 4627 2734 E8000000 		call	_ZN8UnitTest11TestDetailsC1ERKS0_i
 4627      00
 177:testCore.cpp  **** 	CHECK_EQUAL(1UL, *item);
 4628              		.loc 3 177 0 is_stmt 0 discriminator 1
 4629 2739 E8000000 		call	_ZN8UnitTest11CurrentTest7ResultsEv
 4629      00
 4630 273e 488B00   		movq	(%rax), %rax
 4631 2741 488D4D90 		leaq	-112(%rbp), %rcx
 4632 2745 BA000000 		movl	$.LC3, %edx
 4632      00
 4633 274a 4889CE   		movq	%rcx, %rsi
 4634 274d 4889C7   		movq	%rax, %rdi
 4635 2750 E8000000 		call	_ZN8UnitTest11TestResults13OnTestFailureERKNS_11TestDetailsEPKc
 4635      00
 4636              	.LEHE223:
 4637              	.LEHB224:
 4638 2755 E8000000 		call	__cxa_end_catch
 4638      00
 4639              	.LEHE224:
 4640 275a E96CF7FF 		jmp	.L238
 4640      FF
 4641              	.L313:
 4642 275f 4889C3   		movq	%rax, %rbx
 178:testCore.cpp  **** 	*item = 5;
 4643              		.loc 3 178 0 is_stmt 1
 4644 2762 E8000000 		call	__cxa_end_catch
 4644      00
 4645 2767 4889D8   		movq	%rbx, %rax
 4646 276a 4889C7   		movq	%rax, %rdi
 4647              	.LEHB225:
 4648 276d E8000000 		call	_Unwind_Resume
 4648      00
 4649              	.LEHE225:
 4650              	.L312:
 4651 2772 4889C7   		movq	%rax, %rdi
 4652 2775 E8000000 		call	__cxa_begin_catch
 4652      00
 4653              	.LEHB226:
 4654 277a E8000000 		call	_ZN8UnitTest11CurrentTest7DetailsEv
 4654      00
 4655 277f 488B08   		movq	(%rax), %rcx
 4656 2782 488D4590 		leaq	-112(%rbp), %rax
 4657 2786 BAB20000 		movl	$178, %edx
 4657      00
 4658 278b 4889CE   		movq	%rcx, %rsi
 4659 278e 4889C7   		movq	%rax, %rdi
 4660 2791 E8000000 		call	_ZN8UnitTest11TestDetailsC1ERKS0_i
 4660      00
 178:testCore.cpp  **** 	*item = 5;
 4661              		.loc 3 178 0 is_stmt 0 discriminator 1
 4662 2796 E8000000 		call	_ZN8UnitTest11CurrentTest7ResultsEv
 4662      00
 4663 279b 488B00   		movq	(%rax), %rax
 4664 279e 488D4D90 		leaq	-112(%rbp), %rcx
 4665 27a2 BA000000 		movl	$.LC13, %edx
 4665      00
 4666 27a7 4889CE   		movq	%rcx, %rsi
 4667 27aa 4889C7   		movq	%rax, %rdi
 4668 27ad E8000000 		call	_ZN8UnitTest11TestResults13OnTestFailureERKNS_11TestDetailsEPKc
 4668      00
 4669              	.LEHE226:
 4670              	.LEHB227:
 4671 27b2 E8000000 		call	__cxa_end_catch
 4671      00
 4672              	.LEHE227:
 4673 27b7 E955F7FF 		jmp	.L241
 4673      FF
 4674              	.L315:
 4675 27bc 4889C3   		movq	%rax, %rbx
 182:testCore.cpp  **** 	CHECK_EQUAL(2UL, *item);
 4676              		.loc 3 182 0 is_stmt 1
 4677 27bf E8000000 		call	__cxa_end_catch
 4677      00
 4678 27c4 4889D8   		movq	%rbx, %rax
 4679 27c7 4889C7   		movq	%rax, %rdi
 4680              	.LEHB228:
 4681 27ca E8000000 		call	_Unwind_Resume
 4681      00
 4682              	.LEHE228:
 4683              	.L314:
 4684 27cf 4889C7   		movq	%rax, %rdi
 4685 27d2 E8000000 		call	__cxa_begin_catch
 4685      00
 4686              	.LEHB229:
 4687 27d7 E8000000 		call	_ZN8UnitTest11CurrentTest7DetailsEv
 4687      00
 4688 27dc 488B08   		movq	(%rax), %rcx
 4689 27df 488D4590 		leaq	-112(%rbp), %rax
 4690 27e3 BAB60000 		movl	$182, %edx
 4690      00
 4691 27e8 4889CE   		movq	%rcx, %rsi
 4692 27eb 4889C7   		movq	%rax, %rdi
 4693 27ee E8000000 		call	_ZN8UnitTest11TestDetailsC1ERKS0_i
 4693      00
 182:testCore.cpp  **** 	CHECK_EQUAL(2UL, *item);
 4694              		.loc 3 182 0 is_stmt 0 discriminator 1
 4695 27f3 E8000000 		call	_ZN8UnitTest11CurrentTest7ResultsEv
 4695      00
 4696 27f8 488B00   		movq	(%rax), %rax
 4697 27fb 488D4D90 		leaq	-112(%rbp), %rcx
 4698 27ff BA000000 		movl	$.LC3, %edx
 4698      00
 4699 2804 4889CE   		movq	%rcx, %rsi
 4700 2807 4889C7   		movq	%rax, %rdi
 4701 280a E8000000 		call	_ZN8UnitTest11TestResults13OnTestFailureERKNS_11TestDetailsEPKc
 4701      00
 4702              	.LEHE229:
 4703              	.LEHB230:
 4704 280f E8000000 		call	__cxa_end_catch
 4704      00
 4705              	.LEHE230:
 4706 2814 E969F7FF 		jmp	.L244
 4706      FF
 4707              	.L317:
 4708 2819 4889C3   		movq	%rax, %rbx
 183:testCore.cpp  **** 	*item = 6;
 4709              		.loc 3 183 0 is_stmt 1
 4710 281c E8000000 		call	__cxa_end_catch
 4710      00
 4711 2821 4889D8   		movq	%rbx, %rax
 4712 2824 4889C7   		movq	%rax, %rdi
 4713              	.LEHB231:
 4714 2827 E8000000 		call	_Unwind_Resume
 4714      00
 4715              	.LEHE231:
 4716              	.L316:
 4717 282c 4889C7   		movq	%rax, %rdi
 4718 282f E8000000 		call	__cxa_begin_catch
 4718      00
 4719              	.LEHB232:
 4720 2834 E8000000 		call	_ZN8UnitTest11CurrentTest7DetailsEv
 4720      00
 4721 2839 488B08   		movq	(%rax), %rcx
 4722 283c 488D4590 		leaq	-112(%rbp), %rax
 4723 2840 BAB70000 		movl	$183, %edx
 4723      00
 4724 2845 4889CE   		movq	%rcx, %rsi
 4725 2848 4889C7   		movq	%rax, %rdi
 4726 284b E8000000 		call	_ZN8UnitTest11TestDetailsC1ERKS0_i
 4726      00
 183:testCore.cpp  **** 	*item = 6;
 4727              		.loc 3 183 0 is_stmt 0 discriminator 1
 4728 2850 E8000000 		call	_ZN8UnitTest11CurrentTest7ResultsEv
 4728      00
 4729 2855 488B00   		movq	(%rax), %rax
 4730 2858 488D4D90 		leaq	-112(%rbp), %rcx
 4731 285c BA000000 		movl	$.LC14, %edx
 4731      00
 4732 2861 4889CE   		movq	%rcx, %rsi
 4733 2864 4889C7   		movq	%rax, %rdi
 4734 2867 E8000000 		call	_ZN8UnitTest11TestResults13OnTestFailureERKNS_11TestDetailsEPKc
 4734      00
 4735              	.LEHE232:
 4736              	.LEHB233:
 4737 286c E8000000 		call	__cxa_end_catch
 4737      00
 4738              	.LEHE233:
 4739 2871 E952F7FF 		jmp	.L247
 4739      FF
 4740              	.L319:
 4741 2876 4889C3   		movq	%rax, %rbx
 187:testCore.cpp  **** 	CHECK_EQUAL(3UL, *item);
 4742              		.loc 3 187 0 is_stmt 1
 4743 2879 E8000000 		call	__cxa_end_catch
 4743      00
 4744 287e 4889D8   		movq	%rbx, %rax
 4745 2881 4889C7   		movq	%rax, %rdi
 4746              	.LEHB234:
 4747 2884 E8000000 		call	_Unwind_Resume
 4747      00
 4748              	.LEHE234:
 4749              	.L318:
 4750 2889 4889C7   		movq	%rax, %rdi
 4751 288c E8000000 		call	__cxa_begin_catch
 4751      00
 4752              	.LEHB235:
 4753 2891 E8000000 		call	_ZN8UnitTest11CurrentTest7DetailsEv
 4753      00
 4754 2896 488B08   		movq	(%rax), %rcx
 4755 2899 488D4590 		leaq	-112(%rbp), %rax
 4756 289d BABB0000 		movl	$187, %edx
 4756      00
 4757 28a2 4889CE   		movq	%rcx, %rsi
 4758 28a5 4889C7   		movq	%rax, %rdi
 4759 28a8 E8000000 		call	_ZN8UnitTest11TestDetailsC1ERKS0_i
 4759      00
 187:testCore.cpp  **** 	CHECK_EQUAL(3UL, *item);
 4760              		.loc 3 187 0 is_stmt 0 discriminator 1
 4761 28ad E8000000 		call	_ZN8UnitTest11CurrentTest7ResultsEv
 4761      00
 4762 28b2 488B00   		movq	(%rax), %rax
 4763 28b5 488D4D90 		leaq	-112(%rbp), %rcx
 4764 28b9 BA000000 		movl	$.LC3, %edx
 4764      00
 4765 28be 4889CE   		movq	%rcx, %rsi
 4766 28c1 4889C7   		movq	%rax, %rdi
 4767 28c4 E8000000 		call	_ZN8UnitTest11TestResults13OnTestFailureERKNS_11TestDetailsEPKc
 4767      00
 4768              	.LEHE235:
 4769              	.LEHB236:
 4770 28c9 E8000000 		call	__cxa_end_catch
 4770      00
 4771              	.LEHE236:
 4772 28ce E966F7FF 		jmp	.L250
 4772      FF
 4773              	.L321:
 4774 28d3 4889C3   		movq	%rax, %rbx
 188:testCore.cpp  **** 	*item = 7;
 4775              		.loc 3 188 0 is_stmt 1
 4776 28d6 E8000000 		call	__cxa_end_catch
 4776      00
 4777 28db 4889D8   		movq	%rbx, %rax
 4778 28de 4889C7   		movq	%rax, %rdi
 4779              	.LEHB237:
 4780 28e1 E8000000 		call	_Unwind_Resume
 4780      00
 4781              	.LEHE237:
 4782              	.L320:
 4783 28e6 4889C7   		movq	%rax, %rdi
 4784 28e9 E8000000 		call	__cxa_begin_catch
 4784      00
 4785              	.LEHB238:
 4786 28ee E8000000 		call	_ZN8UnitTest11CurrentTest7DetailsEv
 4786      00
 4787 28f3 488B08   		movq	(%rax), %rcx
 4788 28f6 488D4590 		leaq	-112(%rbp), %rax
 4789 28fa BABC0000 		movl	$188, %edx
 4789      00
 4790 28ff 4889CE   		movq	%rcx, %rsi
 4791 2902 4889C7   		movq	%rax, %rdi
 4792 2905 E8000000 		call	_ZN8UnitTest11TestDetailsC1ERKS0_i
 4792      00
 188:testCore.cpp  **** 	*item = 7;
 4793              		.loc 3 188 0 is_stmt 0 discriminator 1
 4794 290a E8000000 		call	_ZN8UnitTest11CurrentTest7ResultsEv
 4794      00
 4795 290f 488B00   		movq	(%rax), %rax
 4796 2912 488D4D90 		leaq	-112(%rbp), %rcx
 4797 2916 BA000000 		movl	$.LC15, %edx
 4797      00
 4798 291b 4889CE   		movq	%rcx, %rsi
 4799 291e 4889C7   		movq	%rax, %rdi
 4800 2921 E8000000 		call	_ZN8UnitTest11TestResults13OnTestFailureERKNS_11TestDetailsEPKc
 4800      00
 4801              	.LEHE238:
 4802              	.LEHB239:
 4803 2926 E8000000 		call	__cxa_end_catch
 4803      00
 4804              	.LEHE239:
 4805 292b E94FF7FF 		jmp	.L253
 4805      FF
 4806              	.L323:
 4807 2930 4889C3   		movq	%rax, %rbx
 192:testCore.cpp  **** 	CHECK_EQUAL(4UL, *item);
 4808              		.loc 3 192 0 is_stmt 1
 4809 2933 E8000000 		call	__cxa_end_catch
 4809      00
 4810 2938 4889D8   		movq	%rbx, %rax
 4811 293b 4889C7   		movq	%rax, %rdi
 4812              	.LEHB240:
 4813 293e E8000000 		call	_Unwind_Resume
 4813      00
 4814              	.LEHE240:
 4815              	.L322:
 4816 2943 4889C7   		movq	%rax, %rdi
 4817 2946 E8000000 		call	__cxa_begin_catch
 4817      00
 4818              	.LEHB241:
 4819 294b E8000000 		call	_ZN8UnitTest11CurrentTest7DetailsEv
 4819      00
 4820 2950 488B08   		movq	(%rax), %rcx
 4821 2953 488D4590 		leaq	-112(%rbp), %rax
 4822 2957 BAC00000 		movl	$192, %edx
 4822      00
 4823 295c 4889CE   		movq	%rcx, %rsi
 4824 295f 4889C7   		movq	%rax, %rdi
 4825 2962 E8000000 		call	_ZN8UnitTest11TestDetailsC1ERKS0_i
 4825      00
 192:testCore.cpp  **** 	CHECK_EQUAL(4UL, *item);
 4826              		.loc 3 192 0 is_stmt 0 discriminator 1
 4827 2967 E8000000 		call	_ZN8UnitTest11CurrentTest7ResultsEv
 4827      00
 4828 296c 488B00   		movq	(%rax), %rax
 4829 296f 488D4D90 		leaq	-112(%rbp), %rcx
 4830 2973 BA000000 		movl	$.LC3, %edx
 4830      00
 4831 2978 4889CE   		movq	%rcx, %rsi
 4832 297b 4889C7   		movq	%rax, %rdi
 4833 297e E8000000 		call	_ZN8UnitTest11TestResults13OnTestFailureERKNS_11TestDetailsEPKc
 4833      00
 4834              	.LEHE241:
 4835              	.LEHB242:
 4836 2983 E8000000 		call	__cxa_end_catch
 4836      00
 4837              	.LEHE242:
 4838 2988 E963F7FF 		jmp	.L256
 4838      FF
 4839              	.L325:
 4840 298d 4889C3   		movq	%rax, %rbx
 193:testCore.cpp  **** 	*item = 8;
 4841              		.loc 3 193 0 is_stmt 1
 4842 2990 E8000000 		call	__cxa_end_catch
 4842      00
 4843 2995 4889D8   		movq	%rbx, %rax
 4844 2998 4889C7   		movq	%rax, %rdi
 4845              	.LEHB243:
 4846 299b E8000000 		call	_Unwind_Resume
 4846      00
 4847              	.LEHE243:
 4848              	.L324:
 4849 29a0 4889C7   		movq	%rax, %rdi
 4850 29a3 E8000000 		call	__cxa_begin_catch
 4850      00
 4851              	.LEHB244:
 4852 29a8 E8000000 		call	_ZN8UnitTest11CurrentTest7DetailsEv
 4852      00
 4853 29ad 488B08   		movq	(%rax), %rcx
 4854 29b0 488D4590 		leaq	-112(%rbp), %rax
 4855 29b4 BAC10000 		movl	$193, %edx
 4855      00
 4856 29b9 4889CE   		movq	%rcx, %rsi
 4857 29bc 4889C7   		movq	%rax, %rdi
 4858 29bf E8000000 		call	_ZN8UnitTest11TestDetailsC1ERKS0_i
 4858      00
 193:testCore.cpp  **** 	*item = 8;
 4859              		.loc 3 193 0 is_stmt 0 discriminator 1
 4860 29c4 E8000000 		call	_ZN8UnitTest11CurrentTest7ResultsEv
 4860      00
 4861 29c9 488B00   		movq	(%rax), %rax
 4862 29cc 488D4D90 		leaq	-112(%rbp), %rcx
 4863 29d0 BA000000 		movl	$.LC22, %edx
 4863      00
 4864 29d5 4889CE   		movq	%rcx, %rsi
 4865 29d8 4889C7   		movq	%rax, %rdi
 4866 29db E8000000 		call	_ZN8UnitTest11TestResults13OnTestFailureERKNS_11TestDetailsEPKc
 4866      00
 4867              	.LEHE244:
 4868              	.LEHB245:
 4869 29e0 E8000000 		call	__cxa_end_catch
 4869      00
 4870              	.LEHE245:
 4871 29e5 E94CF7FF 		jmp	.L259
 4871      FF
 4872              	.L327:
 4873 29ea 4889C3   		movq	%rax, %rbx
 199:testCore.cpp  **** 	CHECK_EQUAL(5UL, *item);
 4874              		.loc 3 199 0 is_stmt 1
 4875 29ed E8000000 		call	__cxa_end_catch
 4875      00
 4876 29f2 4889D8   		movq	%rbx, %rax
 4877 29f5 4889C7   		movq	%rax, %rdi
 4878              	.LEHB246:
 4879 29f8 E8000000 		call	_Unwind_Resume
 4879      00
 4880              	.LEHE246:
 4881              	.L326:
 4882 29fd 4889C7   		movq	%rax, %rdi
 4883 2a00 E8000000 		call	__cxa_begin_catch
 4883      00
 4884              	.LEHB247:
 4885 2a05 E8000000 		call	_ZN8UnitTest11CurrentTest7DetailsEv
 4885      00
 4886 2a0a 488B08   		movq	(%rax), %rcx
 4887 2a0d 488D4590 		leaq	-112(%rbp), %rax
 4888 2a11 BAC70000 		movl	$199, %edx
 4888      00
 4889 2a16 4889CE   		movq	%rcx, %rsi
 4890 2a19 4889C7   		movq	%rax, %rdi
 4891 2a1c E8000000 		call	_ZN8UnitTest11TestDetailsC1ERKS0_i
 4891      00
 199:testCore.cpp  **** 	CHECK_EQUAL(5UL, *item);
 4892              		.loc 3 199 0 is_stmt 0 discriminator 1
 4893 2a21 E8000000 		call	_ZN8UnitTest11CurrentTest7ResultsEv
 4893      00
 4894 2a26 488B00   		movq	(%rax), %rax
 4895 2a29 488D4D90 		leaq	-112(%rbp), %rcx
 4896 2a2d BA000000 		movl	$.LC3, %edx
 4896      00
 4897 2a32 4889CE   		movq	%rcx, %rsi
 4898 2a35 4889C7   		movq	%rax, %rdi
 4899 2a38 E8000000 		call	_ZN8UnitTest11TestResults13OnTestFailureERKNS_11TestDetailsEPKc
 4899      00
 4900              	.LEHE247:
 4901              	.LEHB248:
 4902 2a3d E8000000 		call	__cxa_end_catch
 4902      00
 4903              	.LEHE248:
 4904 2a42 E960F7FF 		jmp	.L262
 4904      FF
 4905              	.L329:
 4906 2a47 4889C3   		movq	%rax, %rbx
 200:testCore.cpp  **** 	queueCommitTake(&queue);
 4907              		.loc 3 200 0 is_stmt 1
 4908 2a4a E8000000 		call	__cxa_end_catch
 4908      00
 4909 2a4f 4889D8   		movq	%rbx, %rax
 4910 2a52 4889C7   		movq	%rax, %rdi
 4911              	.LEHB249:
 4912 2a55 E8000000 		call	_Unwind_Resume
 4912      00
 4913              	.LEHE249:
 4914              	.L328:
 4915 2a5a 4889C7   		movq	%rax, %rdi
 4916 2a5d E8000000 		call	__cxa_begin_catch
 4916      00
 4917              	.LEHB250:
 4918 2a62 E8000000 		call	_ZN8UnitTest11CurrentTest7DetailsEv
 4918      00
 4919 2a67 488B08   		movq	(%rax), %rcx
 4920 2a6a 488D4590 		leaq	-112(%rbp), %rax
 4921 2a6e BAC80000 		movl	$200, %edx
 4921      00
 4922 2a73 4889CE   		movq	%rcx, %rsi
 4923 2a76 4889C7   		movq	%rax, %rdi
 4924 2a79 E8000000 		call	_ZN8UnitTest11TestDetailsC1ERKS0_i
 4924      00
 200:testCore.cpp  **** 	queueCommitTake(&queue);
 4925              		.loc 3 200 0 is_stmt 0 discriminator 1
 4926 2a7e E8000000 		call	_ZN8UnitTest11CurrentTest7ResultsEv
 4926      00
 4927 2a83 488B00   		movq	(%rax), %rax
 4928 2a86 488D4D90 		leaq	-112(%rbp), %rcx
 4929 2a8a BA000000 		movl	$.LC26, %edx
 4929      00
 4930 2a8f 4889CE   		movq	%rcx, %rsi
 4931 2a92 4889C7   		movq	%rax, %rdi
 4932 2a95 E8000000 		call	_ZN8UnitTest11TestResults13OnTestFailureERKNS_11TestDetailsEPKc
 4932      00
 4933              	.LEHE250:
 4934              	.LEHB251:
 4935 2a9a E8000000 		call	__cxa_end_catch
 4935      00
 4936              	.LEHE251:
 4937 2a9f E949F7FF 		jmp	.L265
 4937      FF
 4938              	.L331:
 4939 2aa4 4889C3   		movq	%rax, %rbx
 203:testCore.cpp  **** 	CHECK_EQUAL(6UL, *item);
 4940              		.loc 3 203 0 is_stmt 1
 4941 2aa7 E8000000 		call	__cxa_end_catch
 4941      00
 4942 2aac 4889D8   		movq	%rbx, %rax
 4943 2aaf 4889C7   		movq	%rax, %rdi
 4944              	.LEHB252:
 4945 2ab2 E8000000 		call	_Unwind_Resume
 4945      00
 4946              	.LEHE252:
 4947              	.L330:
 4948 2ab7 4889C7   		movq	%rax, %rdi
 4949 2aba E8000000 		call	__cxa_begin_catch
 4949      00
 4950              	.LEHB253:
 4951 2abf E8000000 		call	_ZN8UnitTest11CurrentTest7DetailsEv
 4951      00
 4952 2ac4 488B08   		movq	(%rax), %rcx
 4953 2ac7 488D4590 		leaq	-112(%rbp), %rax
 4954 2acb BACB0000 		movl	$203, %edx
 4954      00
 4955 2ad0 4889CE   		movq	%rcx, %rsi
 4956 2ad3 4889C7   		movq	%rax, %rdi
 4957 2ad6 E8000000 		call	_ZN8UnitTest11TestDetailsC1ERKS0_i
 4957      00
 203:testCore.cpp  **** 	CHECK_EQUAL(6UL, *item);
 4958              		.loc 3 203 0 is_stmt 0 discriminator 1
 4959 2adb E8000000 		call	_ZN8UnitTest11CurrentTest7ResultsEv
 4959      00
 4960 2ae0 488B00   		movq	(%rax), %rax
 4961 2ae3 488D4D90 		leaq	-112(%rbp), %rcx
 4962 2ae7 BA000000 		movl	$.LC3, %edx
 4962      00
 4963 2aec 4889CE   		movq	%rcx, %rsi
 4964 2aef 4889C7   		movq	%rax, %rdi
 4965 2af2 E8000000 		call	_ZN8UnitTest11TestResults13OnTestFailureERKNS_11TestDetailsEPKc
 4965      00
 4966              	.LEHE253:
 4967              	.LEHB254:
 4968 2af7 E8000000 		call	__cxa_end_catch
 4968      00
 4969              	.LEHE254:
 4970 2afc E953F7FF 		jmp	.L268
 4970      FF
 4971              	.L333:
 4972 2b01 4889C3   		movq	%rax, %rbx
 204:testCore.cpp  **** 	queueCommitTake(&queue);
 4973              		.loc 3 204 0 is_stmt 1
 4974 2b04 E8000000 		call	__cxa_end_catch
 4974      00
 4975 2b09 4889D8   		movq	%rbx, %rax
 4976 2b0c 4889C7   		movq	%rax, %rdi
 4977              	.LEHB255:
 4978 2b0f E8000000 		call	_Unwind_Resume
 4978      00
 4979              	.LEHE255:
 4980              	.L332:
 4981 2b14 4889C7   		movq	%rax, %rdi
 4982 2b17 E8000000 		call	__cxa_begin_catch
 4982      00
 4983              	.LEHB256:
 4984 2b1c E8000000 		call	_ZN8UnitTest11CurrentTest7DetailsEv
 4984      00
 4985 2b21 488B08   		movq	(%rax), %rcx
 4986 2b24 488D4590 		leaq	-112(%rbp), %rax
 4987 2b28 BACC0000 		movl	$204, %edx
 4987      00
 4988 2b2d 4889CE   		movq	%rcx, %rsi
 4989 2b30 4889C7   		movq	%rax, %rdi
 4990 2b33 E8000000 		call	_ZN8UnitTest11TestDetailsC1ERKS0_i
 4990      00
 204:testCore.cpp  **** 	queueCommitTake(&queue);
 4991              		.loc 3 204 0 is_stmt 0 discriminator 1
 4992 2b38 E8000000 		call	_ZN8UnitTest11CurrentTest7ResultsEv
 4992      00
 4993 2b3d 488B00   		movq	(%rax), %rax
 4994 2b40 488D4D90 		leaq	-112(%rbp), %rcx
 4995 2b44 BA000000 		movl	$.LC27, %edx
 4995      00
 4996 2b49 4889CE   		movq	%rcx, %rsi
 4997 2b4c 4889C7   		movq	%rax, %rdi
 4998 2b4f E8000000 		call	_ZN8UnitTest11TestResults13OnTestFailureERKNS_11TestDetailsEPKc
 4998      00
 4999              	.LEHE256:
 5000              	.LEHB257:
 5001 2b54 E8000000 		call	__cxa_end_catch
 5001      00
 5002              	.LEHE257:
 5003 2b59 E93CF7FF 		jmp	.L271
 5003      FF
 5004              	.L335:
 5005 2b5e 4889C3   		movq	%rax, %rbx
 207:testCore.cpp  **** 	CHECK_EQUAL(7UL, *item);
 5006              		.loc 3 207 0 is_stmt 1
 5007 2b61 E8000000 		call	__cxa_end_catch
 5007      00
 5008 2b66 4889D8   		movq	%rbx, %rax
 5009 2b69 4889C7   		movq	%rax, %rdi
 5010              	.LEHB258:
 5011 2b6c E8000000 		call	_Unwind_Resume
 5011      00
 5012              	.LEHE258:
 5013              	.L334:
 5014 2b71 4889C7   		movq	%rax, %rdi
 5015 2b74 E8000000 		call	__cxa_begin_catch
 5015      00
 5016              	.LEHB259:
 5017 2b79 E8000000 		call	_ZN8UnitTest11CurrentTest7DetailsEv
 5017      00
 5018 2b7e 488B08   		movq	(%rax), %rcx
 5019 2b81 488D4590 		leaq	-112(%rbp), %rax
 5020 2b85 BACF0000 		movl	$207, %edx
 5020      00
 5021 2b8a 4889CE   		movq	%rcx, %rsi
 5022 2b8d 4889C7   		movq	%rax, %rdi
 5023 2b90 E8000000 		call	_ZN8UnitTest11TestDetailsC1ERKS0_i
 5023      00
 207:testCore.cpp  **** 	CHECK_EQUAL(7UL, *item);
 5024              		.loc 3 207 0 is_stmt 0 discriminator 1
 5025 2b95 E8000000 		call	_ZN8UnitTest11CurrentTest7ResultsEv
 5025      00
 5026 2b9a 488B00   		movq	(%rax), %rax
 5027 2b9d 488D4D90 		leaq	-112(%rbp), %rcx
 5028 2ba1 BA000000 		movl	$.LC3, %edx
 5028      00
 5029 2ba6 4889CE   		movq	%rcx, %rsi
 5030 2ba9 4889C7   		movq	%rax, %rdi
 5031 2bac E8000000 		call	_ZN8UnitTest11TestResults13OnTestFailureERKNS_11TestDetailsEPKc
 5031      00
 5032              	.LEHE259:
 5033              	.LEHB260:
 5034 2bb1 E8000000 		call	__cxa_end_catch
 5034      00
 5035              	.LEHE260:
 5036 2bb6 E946F7FF 		jmp	.L274
 5036      FF
 5037              	.L337:
 5038 2bbb 4889C3   		movq	%rax, %rbx
 208:testCore.cpp  **** 	queueCommitTake(&queue);
 5039              		.loc 3 208 0 is_stmt 1
 5040 2bbe E8000000 		call	__cxa_end_catch
 5040      00
 5041 2bc3 4889D8   		movq	%rbx, %rax
 5042 2bc6 4889C7   		movq	%rax, %rdi
 5043              	.LEHB261:
 5044 2bc9 E8000000 		call	_Unwind_Resume
 5044      00
 5045              	.LEHE261:
 5046              	.L336:
 5047 2bce 4889C7   		movq	%rax, %rdi
 5048 2bd1 E8000000 		call	__cxa_begin_catch
 5048      00
 5049              	.LEHB262:
 5050 2bd6 E8000000 		call	_ZN8UnitTest11CurrentTest7DetailsEv
 5050      00
 5051 2bdb 488B08   		movq	(%rax), %rcx
 5052 2bde 488D4590 		leaq	-112(%rbp), %rax
 5053 2be2 BAD00000 		movl	$208, %edx
 5053      00
 5054 2be7 4889CE   		movq	%rcx, %rsi
 5055 2bea 4889C7   		movq	%rax, %rdi
 5056 2bed E8000000 		call	_ZN8UnitTest11TestDetailsC1ERKS0_i
 5056      00
 208:testCore.cpp  **** 	queueCommitTake(&queue);
 5057              		.loc 3 208 0 is_stmt 0 discriminator 1
 5058 2bf2 E8000000 		call	_ZN8UnitTest11CurrentTest7ResultsEv
 5058      00
 5059 2bf7 488B00   		movq	(%rax), %rax
 5060 2bfa 488D4D90 		leaq	-112(%rbp), %rcx
 5061 2bfe BA000000 		movl	$.LC28, %edx
 5061      00
 5062 2c03 4889CE   		movq	%rcx, %rsi
 5063 2c06 4889C7   		movq	%rax, %rdi
 5064 2c09 E8000000 		call	_ZN8UnitTest11TestResults13OnTestFailureERKNS_11TestDetailsEPKc
 5064      00
 5065              	.LEHE262:
 5066              	.LEHB263:
 5067 2c0e E8000000 		call	__cxa_end_catch
 5067      00
 5068              	.LEHE263:
 5069 2c13 E92FF7FF 		jmp	.L277
 5069      FF
 5070              	.L339:
 5071 2c18 4889C3   		movq	%rax, %rbx
 211:testCore.cpp  **** 	CHECK_EQUAL(8UL, *item);
 5072              		.loc 3 211 0 is_stmt 1
 5073 2c1b E8000000 		call	__cxa_end_catch
 5073      00
 5074 2c20 4889D8   		movq	%rbx, %rax
 5075 2c23 4889C7   		movq	%rax, %rdi
 5076              	.LEHB264:
 5077 2c26 E8000000 		call	_Unwind_Resume
 5077      00
 5078              	.LEHE264:
 5079              	.L338:
 5080 2c2b 4889C7   		movq	%rax, %rdi
 5081 2c2e E8000000 		call	__cxa_begin_catch
 5081      00
 5082              	.LEHB265:
 5083 2c33 E8000000 		call	_ZN8UnitTest11CurrentTest7DetailsEv
 5083      00
 5084 2c38 488B08   		movq	(%rax), %rcx
 5085 2c3b 488D4590 		leaq	-112(%rbp), %rax
 5086 2c3f BAD30000 		movl	$211, %edx
 5086      00
 5087 2c44 4889CE   		movq	%rcx, %rsi
 5088 2c47 4889C7   		movq	%rax, %rdi
 5089 2c4a E8000000 		call	_ZN8UnitTest11TestDetailsC1ERKS0_i
 5089      00
 211:testCore.cpp  **** 	CHECK_EQUAL(8UL, *item);
 5090              		.loc 3 211 0 is_stmt 0 discriminator 1
 5091 2c4f E8000000 		call	_ZN8UnitTest11CurrentTest7ResultsEv
 5091      00
 5092 2c54 488B00   		movq	(%rax), %rax
 5093 2c57 488D4D90 		leaq	-112(%rbp), %rcx
 5094 2c5b BA000000 		movl	$.LC3, %edx
 5094      00
 5095 2c60 4889CE   		movq	%rcx, %rsi
 5096 2c63 4889C7   		movq	%rax, %rdi
 5097 2c66 E8000000 		call	_ZN8UnitTest11TestResults13OnTestFailureERKNS_11TestDetailsEPKc
 5097      00
 5098              	.LEHE265:
 5099              	.LEHB266:
 5100 2c6b E8000000 		call	__cxa_end_catch
 5100      00
 5101              	.LEHE266:
 5102 2c70 E939F7FF 		jmp	.L280
 5102      FF
 5103              	.L341:
 5104 2c75 4889C3   		movq	%rax, %rbx
 212:testCore.cpp  **** 	queueCommitTake(&queue);
 5105              		.loc 3 212 0 is_stmt 1
 5106 2c78 E8000000 		call	__cxa_end_catch
 5106      00
 5107 2c7d 4889D8   		movq	%rbx, %rax
 5108 2c80 4889C7   		movq	%rax, %rdi
 5109              	.LEHB267:
 5110 2c83 E8000000 		call	_Unwind_Resume
 5110      00
 5111              	.LEHE267:
 5112              	.L340:
 5113 2c88 4889C7   		movq	%rax, %rdi
 5114 2c8b E8000000 		call	__cxa_begin_catch
 5114      00
 5115              	.LEHB268:
 5116 2c90 E8000000 		call	_ZN8UnitTest11CurrentTest7DetailsEv
 5116      00
 5117 2c95 488B08   		movq	(%rax), %rcx
 5118 2c98 488D4590 		leaq	-112(%rbp), %rax
 5119 2c9c BAD40000 		movl	$212, %edx
 5119      00
 5120 2ca1 4889CE   		movq	%rcx, %rsi
 5121 2ca4 4889C7   		movq	%rax, %rdi
 5122 2ca7 E8000000 		call	_ZN8UnitTest11TestDetailsC1ERKS0_i
 5122      00
 212:testCore.cpp  **** 	queueCommitTake(&queue);
 5123              		.loc 3 212 0 is_stmt 0 discriminator 1
 5124 2cac E8000000 		call	_ZN8UnitTest11CurrentTest7ResultsEv
 5124      00
 5125 2cb1 488B00   		movq	(%rax), %rax
 5126 2cb4 488D4D90 		leaq	-112(%rbp), %rcx
 5127 2cb8 BA000000 		movl	$.LC29, %edx
 5127      00
 5128 2cbd 4889CE   		movq	%rcx, %rsi
 5129 2cc0 4889C7   		movq	%rax, %rdi
 5130 2cc3 E8000000 		call	_ZN8UnitTest11TestResults13OnTestFailureERKNS_11TestDetailsEPKc
 5130      00
 5131              	.LEHE268:
 5132              	.LEHB269:
 5133 2cc8 E8000000 		call	__cxa_end_catch
 5133      00
 5134              	.LEHE269:
 5135 2ccd E922F7FF 		jmp	.L283
 5135      FF
 5136              	.L343:
 5137 2cd2 4889C3   		movq	%rax, %rbx
 216:testCore.cpp  **** 	CHECK_EQUAL(0UL, queue.putIndex);
 5138              		.loc 3 216 0 is_stmt 1
 5139 2cd5 E8000000 		call	__cxa_end_catch
 5139      00
 5140 2cda 4889D8   		movq	%rbx, %rax
 5141 2cdd 4889C7   		movq	%rax, %rdi
 5142              	.LEHB270:
 5143 2ce0 E8000000 		call	_Unwind_Resume
 5143      00
 5144              	.LEHE270:
 5145              	.L342:
 5146 2ce5 4889C7   		movq	%rax, %rdi
 5147 2ce8 E8000000 		call	__cxa_begin_catch
 5147      00
 5148              	.LEHB271:
 5149 2ced E8000000 		call	_ZN8UnitTest11CurrentTest7DetailsEv
 5149      00
 5150 2cf2 488B08   		movq	(%rax), %rcx
 5151 2cf5 488D4590 		leaq	-112(%rbp), %rax
 5152 2cf9 BAD80000 		movl	$216, %edx
 5152      00
 5153 2cfe 4889CE   		movq	%rcx, %rsi
 5154 2d01 4889C7   		movq	%rax, %rdi
 5155 2d04 E8000000 		call	_ZN8UnitTest11TestDetailsC1ERKS0_i
 5155      00
 216:testCore.cpp  **** 	CHECK_EQUAL(0UL, queue.putIndex);
 5156              		.loc 3 216 0 is_stmt 0 discriminator 1
 5157 2d09 E8000000 		call	_ZN8UnitTest11CurrentTest7ResultsEv
 5157      00
 5158 2d0e 488B00   		movq	(%rax), %rax
 5159 2d11 488D4D90 		leaq	-112(%rbp), %rcx
 5160 2d15 BA000000 		movl	$.LC4, %edx
 5160      00
 5161 2d1a 4889CE   		movq	%rcx, %rsi
 5162 2d1d 4889C7   		movq	%rax, %rdi
 5163 2d20 E8000000 		call	_ZN8UnitTest11TestResults13OnTestFailureERKNS_11TestDetailsEPKc
 5163      00
 5164              	.LEHE271:
 5165              	.LEHB272:
 5166 2d25 E8000000 		call	__cxa_end_catch
 5166      00
 5167              	.LEHE272:
 5168 2d2a E91BF7FF 		jmp	.L286
 5168      FF
 5169              	.L345:
 5170 2d2f 4889C3   		movq	%rax, %rbx
 217:testCore.cpp  **** 	CHECK_EQUAL(0UL, queue.takeIndex);
 5171              		.loc 3 217 0 is_stmt 1
 5172 2d32 E8000000 		call	__cxa_end_catch
 5172      00
 5173 2d37 4889D8   		movq	%rbx, %rax
 5174 2d3a 4889C7   		movq	%rax, %rdi
 5175              	.LEHB273:
 5176 2d3d E8000000 		call	_Unwind_Resume
 5176      00
 5177              	.LEHE273:
 5178              	.L344:
 5179 2d42 4889C7   		movq	%rax, %rdi
 5180 2d45 E8000000 		call	__cxa_begin_catch
 5180      00
 5181              	.LEHB274:
 5182 2d4a E8000000 		call	_ZN8UnitTest11CurrentTest7DetailsEv
 5182      00
 5183 2d4f 488B08   		movq	(%rax), %rcx
 5184 2d52 488D4590 		leaq	-112(%rbp), %rax
 5185 2d56 BAD90000 		movl	$217, %edx
 5185      00
 5186 2d5b 4889CE   		movq	%rcx, %rsi
 5187 2d5e 4889C7   		movq	%rax, %rdi
 5188 2d61 E8000000 		call	_ZN8UnitTest11TestDetailsC1ERKS0_i
 5188      00
 217:testCore.cpp  **** 	CHECK_EQUAL(0UL, queue.takeIndex);
 5189              		.loc 3 217 0 is_stmt 0 discriminator 1
 5190 2d66 E8000000 		call	_ZN8UnitTest11CurrentTest7ResultsEv
 5190      00
 5191 2d6b 488B00   		movq	(%rax), %rax
 5192 2d6e 488D4D90 		leaq	-112(%rbp), %rcx
 5193 2d72 BA000000 		movl	$.LC5, %edx
 5193      00
 5194 2d77 4889CE   		movq	%rcx, %rsi
 5195 2d7a 4889C7   		movq	%rax, %rdi
 5196 2d7d E8000000 		call	_ZN8UnitTest11TestResults13OnTestFailureERKNS_11TestDetailsEPKc
 5196      00
 5197              	.LEHE274:
 5198              	.LEHB275:
 5199 2d82 E8000000 		call	__cxa_end_catch
 5199      00
 5200              	.LEHE275:
 5201 2d87 E908F7FF 		jmp	.L289
 5201      FF
 5202              	.L347:
 5203 2d8c 4889C3   		movq	%rax, %rbx
 218:testCore.cpp  **** 	CHECK_EQUAL(0UL, queue.numItems);
 5204              		.loc 3 218 0 is_stmt 1
 5205 2d8f E8000000 		call	__cxa_end_catch
 5205      00
 5206 2d94 4889D8   		movq	%rbx, %rax
 5207 2d97 4889C7   		movq	%rax, %rdi
 5208              	.LEHB276:
 5209 2d9a E8000000 		call	_Unwind_Resume
 5209      00
 5210              	.LEHE276:
 5211              	.L346:
 5212 2d9f 4889C7   		movq	%rax, %rdi
 5213 2da2 E8000000 		call	__cxa_begin_catch
 5213      00
 5214              	.LEHB277:
 5215 2da7 E8000000 		call	_ZN8UnitTest11CurrentTest7DetailsEv
 5215      00
 5216 2dac 488B08   		movq	(%rax), %rcx
 5217 2daf 488D4590 		leaq	-112(%rbp), %rax
 5218 2db3 BADA0000 		movl	$218, %edx
 5218      00
 5219 2db8 4889CE   		movq	%rcx, %rsi
 5220 2dbb 4889C7   		movq	%rax, %rdi
 5221 2dbe E8000000 		call	_ZN8UnitTest11TestDetailsC1ERKS0_i
 5221      00
 218:testCore.cpp  **** 	CHECK_EQUAL(0UL, queue.numItems);
 5222              		.loc 3 218 0 is_stmt 0 discriminator 1
 5223 2dc3 E8000000 		call	_ZN8UnitTest11CurrentTest7ResultsEv
 5223      00
 5224 2dc8 488B00   		movq	(%rax), %rax
 5225 2dcb 488D4D90 		leaq	-112(%rbp), %rcx
 5226 2dcf BA000000 		movl	$.LC6, %edx
 5226      00
 5227 2dd4 4889CE   		movq	%rcx, %rsi
 5228 2dd7 4889C7   		movq	%rax, %rdi
 5229 2dda E8000000 		call	_ZN8UnitTest11TestResults13OnTestFailureERKNS_11TestDetailsEPKc
 5229      00
 5230              	.LEHE277:
 5231              	.LEHB278:
 5232 2ddf E8000000 		call	__cxa_end_catch
 5232      00
 5233              	.LEHE278:
 5234 2de4 E9F5F6FF 		jmp	.L292
 5234      FF
 5235              	.L349:
 5236 2de9 4889C3   		movq	%rax, %rbx
 219:testCore.cpp  **** 
 5237              		.loc 3 219 0 is_stmt 1
 5238 2dec E8000000 		call	__cxa_end_catch
 5238      00
 5239 2df1 4889D8   		movq	%rbx, %rax
 5240 2df4 4889C7   		movq	%rax, %rdi
 5241              	.LEHB279:
 5242 2df7 E8000000 		call	_Unwind_Resume
 5242      00
 5243              	.LEHE279:
 5244              	.L348:
 5245 2dfc 4889C7   		movq	%rax, %rdi
 5246 2dff E8000000 		call	__cxa_begin_catch
 5246      00
 5247              	.LEHB280:
 5248 2e04 E8000000 		call	_ZN8UnitTest11CurrentTest7DetailsEv
 5248      00
 5249 2e09 488B08   		movq	(%rax), %rcx
 5250 2e0c 488D4590 		leaq	-112(%rbp), %rax
 5251 2e10 BADB0000 		movl	$219, %edx
 5251      00
 5252 2e15 4889CE   		movq	%rcx, %rsi
 5253 2e18 4889C7   		movq	%rax, %rdi
 5254 2e1b E8000000 		call	_ZN8UnitTest11TestDetailsC1ERKS0_i
 5254      00
 219:testCore.cpp  **** 
 5255              		.loc 3 219 0 is_stmt 0 discriminator 1
 5256 2e20 E8000000 		call	_ZN8UnitTest11CurrentTest7ResultsEv
 5256      00
 5257 2e25 488B00   		movq	(%rax), %rax
 5258 2e28 488D4D90 		leaq	-112(%rbp), %rcx
 5259 2e2c BA000000 		movl	$.LC7, %edx
 5259      00
 5260 2e31 4889CE   		movq	%rcx, %rsi
 5261 2e34 4889C7   		movq	%rax, %rdi
 5262 2e37 E8000000 		call	_ZN8UnitTest11TestResults13OnTestFailureERKNS_11TestDetailsEPKc
 5262      00
 5263              	.LEHE280:
 5264              	.LEHB281:
 5265 2e3c E8000000 		call	__cxa_end_catch
 5265      00
 5266              	.LEHE281:
 5267 2e41 E9E2F6FF 		jmp	.L295
 5267      FF
 5268              	.L351:
 5269 2e46 4889C3   		movq	%rax, %rbx
 222:testCore.cpp  **** 	CHECK_EQUAL(6UL, deref(queue.itemArray[1]));
 5270              		.loc 3 222 0 is_stmt 1
 5271 2e49 E8000000 		call	__cxa_end_catch
 5271      00
 5272 2e4e 4889D8   		movq	%rbx, %rax
 5273 2e51 4889C7   		movq	%rax, %rdi
 5274              	.LEHB282:
 5275 2e54 E8000000 		call	_Unwind_Resume
 5275      00
 5276              	.LEHE282:
 5277              	.L350:
 5278 2e59 4889C7   		movq	%rax, %rdi
 5279 2e5c E8000000 		call	__cxa_begin_catch
 5279      00
 5280              	.LEHB283:
 5281 2e61 E8000000 		call	_ZN8UnitTest11CurrentTest7DetailsEv
 5281      00
 5282 2e66 488B08   		movq	(%rax), %rcx
 5283 2e69 488D4590 		leaq	-112(%rbp), %rax
 5284 2e6d BADE0000 		movl	$222, %edx
 5284      00
 5285 2e72 4889CE   		movq	%rcx, %rsi
 5286 2e75 4889C7   		movq	%rax, %rdi
 5287 2e78 E8000000 		call	_ZN8UnitTest11TestDetailsC1ERKS0_i
 5287      00
 222:testCore.cpp  **** 	CHECK_EQUAL(6UL, deref(queue.itemArray[1]));
 5288              		.loc 3 222 0 is_stmt 0 discriminator 1
 5289 2e7d E8000000 		call	_ZN8UnitTest11CurrentTest7ResultsEv
 5289      00
 5290 2e82 488B00   		movq	(%rax), %rax
 5291 2e85 488D4D90 		leaq	-112(%rbp), %rcx
 5292 2e89 BA000000 		movl	$.LC18, %edx
 5292      00
 5293 2e8e 4889CE   		movq	%rcx, %rsi
 5294 2e91 4889C7   		movq	%rax, %rdi
 5295 2e94 E8000000 		call	_ZN8UnitTest11TestResults13OnTestFailureERKNS_11TestDetailsEPKc
 5295      00
 5296              	.LEHE283:
 5297              	.LEHB284:
 5298 2e99 E8000000 		call	__cxa_end_catch
 5298      00
 5299              	.LEHE284:
 5300 2e9e E9DDF6FF 		jmp	.L298
 5300      FF
 5301              	.L353:
 5302 2ea3 4889C3   		movq	%rax, %rbx
 223:testCore.cpp  **** 	CHECK_EQUAL(7UL, deref(queue.itemArray[2]));
 5303              		.loc 3 223 0 is_stmt 1
 5304 2ea6 E8000000 		call	__cxa_end_catch
 5304      00
 5305 2eab 4889D8   		movq	%rbx, %rax
 5306 2eae 4889C7   		movq	%rax, %rdi
 5307              	.LEHB285:
 5308 2eb1 E8000000 		call	_Unwind_Resume
 5308      00
 5309              	.LEHE285:
 5310              	.L352:
 5311 2eb6 4889C7   		movq	%rax, %rdi
 5312 2eb9 E8000000 		call	__cxa_begin_catch
 5312      00
 5313              	.LEHB286:
 5314 2ebe E8000000 		call	_ZN8UnitTest11CurrentTest7DetailsEv
 5314      00
 5315 2ec3 488B08   		movq	(%rax), %rcx
 5316 2ec6 488D4590 		leaq	-112(%rbp), %rax
 5317 2eca BADF0000 		movl	$223, %edx
 5317      00
 5318 2ecf 4889CE   		movq	%rcx, %rsi
 5319 2ed2 4889C7   		movq	%rax, %rdi
 5320 2ed5 E8000000 		call	_ZN8UnitTest11TestDetailsC1ERKS0_i
 5320      00
 223:testCore.cpp  **** 	CHECK_EQUAL(7UL, deref(queue.itemArray[2]));
 5321              		.loc 3 223 0 is_stmt 0 discriminator 1
 5322 2eda E8000000 		call	_ZN8UnitTest11CurrentTest7ResultsEv
 5322      00
 5323 2edf 488B00   		movq	(%rax), %rax
 5324 2ee2 488D4D90 		leaq	-112(%rbp), %rcx
 5325 2ee6 BA000000 		movl	$.LC19, %edx
 5325      00
 5326 2eeb 4889CE   		movq	%rcx, %rsi
 5327 2eee 4889C7   		movq	%rax, %rdi
 5328 2ef1 E8000000 		call	_ZN8UnitTest11TestResults13OnTestFailureERKNS_11TestDetailsEPKc
 5328      00
 5329              	.LEHE286:
 5330              	.LEHB287:
 5331 2ef6 E8000000 		call	__cxa_end_catch
 5331      00
 5332              	.LEHE287:
 5333 2efb E9DCF6FF 		jmp	.L301
 5333      FF
 5334              	.L355:
 5335 2f00 4889C3   		movq	%rax, %rbx
 224:testCore.cpp  **** 	CHECK_EQUAL(8UL, deref(queue.itemArray[3]));
 5336              		.loc 3 224 0 is_stmt 1
 5337 2f03 E8000000 		call	__cxa_end_catch
 5337      00
 5338 2f08 4889D8   		movq	%rbx, %rax
 5339 2f0b 4889C7   		movq	%rax, %rdi
 5340              	.LEHB288:
 5341 2f0e E8000000 		call	_Unwind_Resume
 5341      00
 5342              	.LEHE288:
 5343              	.L354:
 5344 2f13 4889C7   		movq	%rax, %rdi
 5345 2f16 E8000000 		call	__cxa_begin_catch
 5345      00
 5346              	.LEHB289:
 5347 2f1b E8000000 		call	_ZN8UnitTest11CurrentTest7DetailsEv
 5347      00
 5348 2f20 488B08   		movq	(%rax), %rcx
 5349 2f23 488D4590 		leaq	-112(%rbp), %rax
 5350 2f27 BAE00000 		movl	$224, %edx
 5350      00
 5351 2f2c 4889CE   		movq	%rcx, %rsi
 5352 2f2f 4889C7   		movq	%rax, %rdi
 5353 2f32 E8000000 		call	_ZN8UnitTest11TestDetailsC1ERKS0_i
 5353      00
 224:testCore.cpp  **** 	CHECK_EQUAL(8UL, deref(queue.itemArray[3]));
 5354              		.loc 3 224 0 is_stmt 0 discriminator 1
 5355 2f37 E8000000 		call	_ZN8UnitTest11CurrentTest7ResultsEv
 5355      00
 5356 2f3c 488B00   		movq	(%rax), %rax
 5357 2f3f 488D4D90 		leaq	-112(%rbp), %rcx
 5358 2f43 BA000000 		movl	$.LC20, %edx
 5358      00
 5359 2f48 4889CE   		movq	%rcx, %rsi
 5360 2f4b 4889C7   		movq	%rax, %rdi
 5361 2f4e E8000000 		call	_ZN8UnitTest11TestResults13OnTestFailureERKNS_11TestDetailsEPKc
 5361      00
 5362              	.LEHE289:
 5363              	.LEHB290:
 5364 2f53 E8000000 		call	__cxa_end_catch
 5364      00
 5365              	.LEHE290:
 5366 2f58 E9DBF6FF 		jmp	.L304
 5366      FF
 5367              	.L357:
 5368 2f5d 4889C3   		movq	%rax, %rbx
 225:testCore.cpp  **** 
 5369              		.loc 3 225 0 is_stmt 1
 5370 2f60 E8000000 		call	__cxa_end_catch
 5370      00
 5371 2f65 4889D8   		movq	%rbx, %rax
 5372 2f68 4889C7   		movq	%rax, %rdi
 5373              	.LEHB291:
 5374 2f6b E8000000 		call	_Unwind_Resume
 5374      00
 5375              	.LEHE291:
 5376              	.L356:
 5377 2f70 4889C7   		movq	%rax, %rdi
 5378 2f73 E8000000 		call	__cxa_begin_catch
 5378      00
 5379              	.LEHB292:
 5380 2f78 E8000000 		call	_ZN8UnitTest11CurrentTest7DetailsEv
 5380      00
 5381 2f7d 488B08   		movq	(%rax), %rcx
 5382 2f80 488D4590 		leaq	-112(%rbp), %rax
 5383 2f84 BAE10000 		movl	$225, %edx
 5383      00
 5384 2f89 4889CE   		movq	%rcx, %rsi
 5385 2f8c 4889C7   		movq	%rax, %rdi
 5386 2f8f E8000000 		call	_ZN8UnitTest11TestDetailsC1ERKS0_i
 5386      00
 225:testCore.cpp  **** 
 5387              		.loc 3 225 0 is_stmt 0 discriminator 1
 5388 2f94 E8000000 		call	_ZN8UnitTest11CurrentTest7ResultsEv
 5388      00
 5389 2f99 488B00   		movq	(%rax), %rax
 5390 2f9c 488D4D90 		leaq	-112(%rbp), %rcx
 5391 2fa0 BA000000 		movl	$.LC24, %edx
 5391      00
 5392 2fa5 4889CE   		movq	%rcx, %rsi
 5393 2fa8 4889C7   		movq	%rax, %rdi
 5394 2fab E8000000 		call	_ZN8UnitTest11TestResults13OnTestFailureERKNS_11TestDetailsEPKc
 5394      00
 5395              	.LEHE292:
 5396              	.LEHB293:
 5397 2fb0 E8000000 		call	__cxa_end_catch
 5397      00
 5398              	.LEHE293:
 5399 2fb5 E9DAF6FF 		jmp	.L307
 5399      FF
 5400              	.L358:
 5401              	.LBE12:
 229:testCore.cpp  **** }
 5402              		.loc 3 229 0 is_stmt 1
 5403 2fba 4881C498 		addq	$152, %rsp
 5403      000000
 5404 2fc1 5B       		popq	%rbx
 5405 2fc2 5D       		popq	%rbp
 5406              		.cfi_def_cfa 7, 8
 5407 2fc3 C3       		ret
 5408              		.cfi_endproc
 5409              	.LFE1046:
 5410              		.section	.gcc_except_table
 5411              		.align 4
 5412              	.LLSDA1046:
 5413 03f4 FF       		.byte	0xff
 5414 03f5 03       		.byte	0x3
 5415 03f6 E404     		.uleb128 .LLSDATT1046-.LLSDATTD1046
 5416              	.LLSDATTD1046:
 5417 03f8 01       		.byte	0x1
 5418 03f9 DB04     		.uleb128 .LLSDACSE1046-.LLSDACSB1046
 5419              	.LLSDACSB1046:
 5420 03fb 33       		.uleb128 .LEHB183-.LFB1046
 5421 03fc 05       		.uleb128 .LEHE183-.LEHB183
 5422 03fd 00       		.uleb128 0
 5423 03fe 00       		.uleb128 0
 5424 03ff 3E       		.uleb128 .LEHB184-.LFB1046
 5425 0400 42       		.uleb128 .LEHE184-.LEHB184
 5426 0401 C811     		.uleb128 .L308-.LFB1046
 5427 0403 01       		.uleb128 0x1
 5428 0404 8E01     		.uleb128 .LEHB185-.LFB1046
 5429 0406 05       		.uleb128 .LEHE185-.LEHB185
 5430 0407 00       		.uleb128 0
 5431 0408 00       		.uleb128 0
 5432 0409 9901     		.uleb128 .LEHB186-.LFB1046
 5433 040b 42       		.uleb128 .LEHE186-.LEHB186
 5434 040c A512     		.uleb128 .L310-.LFB1046
 5435 040e 01       		.uleb128 0x1
 5436 040f DB01     		.uleb128 .LEHB187-.LFB1046
 5437 0411 46       		.uleb128 .LEHE187-.LEHB187
 5438 0412 8213     		.uleb128 .L312-.LFB1046
 5439 0414 01       		.uleb128 0x1
 5440 0415 B202     		.uleb128 .LEHB188-.LFB1046
 5441 0417 18       		.uleb128 .LEHE188-.LEHB188
 5442 0418 00       		.uleb128 0
 5443 0419 00       		.uleb128 0
 5444 041a D002     		.uleb128 .LEHB189-.LFB1046
 5445 041c 42       		.uleb128 .LEHE189-.LEHB189
 5446 041d DF13     		.uleb128 .L314-.LFB1046
 5447 041f 01       		.uleb128 0x1
 5448 0420 9203     		.uleb128 .LEHB190-.LFB1046
 5449 0422 46       		.uleb128 .LEHE190-.LEHB190
 5450 0423 BC14     		.uleb128 .L316-.LFB1046
 5451 0425 01       		.uleb128 0x1
 5452 0426 E903     		.uleb128 .LEHB191-.LFB1046
 5453 0428 18       		.uleb128 .LEHE191-.LEHB191
 5454 0429 00       		.uleb128 0
 5455 042a 00       		.uleb128 0
 5456 042b 8704     		.uleb128 .LEHB192-.LFB1046
 5457 042d 42       		.uleb128 .LEHE192-.LEHB192
 5458 042e 9915     		.uleb128 .L318-.LFB1046
 5459 0430 01       		.uleb128 0x1
 5460 0431 C904     		.uleb128 .LEHB193-.LFB1046
 5461 0433 46       		.uleb128 .LEHE193-.LEHB193
 5462 0434 F615     		.uleb128 .L320-.LFB1046
 5463 0436 01       		.uleb128 0x1
 5464 0437 A005     		.uleb128 .LEHB194-.LFB1046
 5465 0439 18       		.uleb128 .LEHE194-.LEHB194
 5466 043a 00       		.uleb128 0
 5467 043b 00       		.uleb128 0
 5468 043c BE05     		.uleb128 .LEHB195-.LFB1046
 5469 043e 42       		.uleb128 .LEHE195-.LEHB195
 5470 043f D316     		.uleb128 .L322-.LFB1046
 5471 0441 01       		.uleb128 0x1
 5472 0442 8006     		.uleb128 .LEHB196-.LFB1046
 5473 0444 46       		.uleb128 .LEHE196-.LEHB196
 5474 0445 B017     		.uleb128 .L324-.LFB1046
 5475 0447 01       		.uleb128 0x1
 5476 0448 D706     		.uleb128 .LEHB197-.LFB1046
 5477 044a 18       		.uleb128 .LEHE197-.LEHB197
 5478 044b 00       		.uleb128 0
 5479 044c 00       		.uleb128 0
 5480 044d F506     		.uleb128 .LEHB198-.LFB1046
 5481 044f 42       		.uleb128 .LEHE198-.LEHB198
 5482 0450 8D18     		.uleb128 .L326-.LFB1046
 5483 0452 01       		.uleb128 0x1
 5484 0453 B707     		.uleb128 .LEHB199-.LFB1046
 5485 0455 46       		.uleb128 .LEHE199-.LEHB199
 5486 0456 EA18     		.uleb128 .L328-.LFB1046
 5487 0458 01       		.uleb128 0x1
 5488 0459 8408     		.uleb128 .LEHB200-.LFB1046
 5489 045b 18       		.uleb128 .LEHE200-.LEHB200
 5490 045c 00       		.uleb128 0
 5491 045d 00       		.uleb128 0
 5492 045e A208     		.uleb128 .LEHB201-.LFB1046
 5493 0460 42       		.uleb128 .LEHE201-.LEHB201
 5494 0461 C719     		.uleb128 .L330-.LFB1046
 5495 0463 01       		.uleb128 0x1
 5496 0464 E408     		.uleb128 .LEHB202-.LFB1046
 5497 0466 46       		.uleb128 .LEHE202-.LEHB202
 5498 0467 A41A     		.uleb128 .L332-.LFB1046
 5499 0469 01       		.uleb128 0x1
 5500 046a B109     		.uleb128 .LEHB203-.LFB1046
 5501 046c 18       		.uleb128 .LEHE203-.LEHB203
 5502 046d 00       		.uleb128 0
 5503 046e 00       		.uleb128 0
 5504 046f CF09     		.uleb128 .LEHB204-.LFB1046
 5505 0471 42       		.uleb128 .LEHE204-.LEHB204
 5506 0472 811B     		.uleb128 .L334-.LFB1046
 5507 0474 01       		.uleb128 0x1
 5508 0475 910A     		.uleb128 .LEHB205-.LFB1046
 5509 0477 46       		.uleb128 .LEHE205-.LEHB205
 5510 0478 DE1B     		.uleb128 .L336-.LFB1046
 5511 047a 01       		.uleb128 0x1
 5512 047b DE0A     		.uleb128 .LEHB206-.LFB1046
 5513 047d 18       		.uleb128 .LEHE206-.LEHB206
 5514 047e 00       		.uleb128 0
 5515 047f 00       		.uleb128 0
 5516 0480 FC0A     		.uleb128 .LEHB207-.LFB1046
 5517 0482 42       		.uleb128 .LEHE207-.LEHB207
 5518 0483 BB1C     		.uleb128 .L338-.LFB1046
 5519 0485 01       		.uleb128 0x1
 5520 0486 BE0B     		.uleb128 .LEHB208-.LFB1046
 5521 0488 46       		.uleb128 .LEHE208-.LEHB208
 5522 0489 981D     		.uleb128 .L340-.LFB1046
 5523 048b 01       		.uleb128 0x1
 5524 048c 8B0C     		.uleb128 .LEHB209-.LFB1046
 5525 048e 05       		.uleb128 .LEHE209-.LEHB209
 5526 048f 00       		.uleb128 0
 5527 0490 00       		.uleb128 0
 5528 0491 900C     		.uleb128 .LEHB210-.LFB1046
 5529 0493 4A       		.uleb128 .LEHE210-.LEHB210
 5530 0494 F51D     		.uleb128 .L342-.LFB1046
 5531 0496 01       		.uleb128 0x1
 5532 0497 DA0C     		.uleb128 .LEHB211-.LFB1046
 5533 0499 4A       		.uleb128 .LEHE211-.LEHB211
 5534 049a D21E     		.uleb128 .L344-.LFB1046
 5535 049c 01       		.uleb128 0x1
 5536 049d A40D     		.uleb128 .LEHB212-.LFB1046
 5537 049f 4A       		.uleb128 .LEHE212-.LEHB212
 5538 04a0 AF1F     		.uleb128 .L346-.LFB1046
 5539 04a2 01       		.uleb128 0x1
 5540 04a3 EE0D     		.uleb128 .LEHB213-.LFB1046
 5541 04a5 4A       		.uleb128 .LEHE213-.LEHB213
 5542 04a6 8C20     		.uleb128 .L348-.LFB1046
 5543 04a8 01       		.uleb128 0x1
 5544 04a9 B80E     		.uleb128 .LEHB214-.LFB1046
 5545 04ab 58       		.uleb128 .LEHE214-.LEHB214
 5546 04ac E920     		.uleb128 .L350-.LFB1046
 5547 04ae 01       		.uleb128 0x1
 5548 04af 900F     		.uleb128 .LEHB215-.LFB1046
 5549 04b1 5C       		.uleb128 .LEHE215-.LEHB215
 5550 04b2 C621     		.uleb128 .L352-.LFB1046
 5551 04b4 01       		.uleb128 0x1
 5552 04b5 EC0F     		.uleb128 .LEHB216-.LFB1046
 5553 04b7 5C       		.uleb128 .LEHE216-.LEHB216
 5554 04b8 A322     		.uleb128 .L354-.LFB1046
 5555 04ba 01       		.uleb128 0x1
 5556 04bb C810     		.uleb128 .LEHB217-.LFB1046
 5557 04bd 5C       		.uleb128 .LEHE217-.LEHB217
 5558 04be 8023     		.uleb128 .L356-.LFB1046
 5559 04c0 01       		.uleb128 0x1
 5560 04c1 AB11     		.uleb128 .LEHB218-.LFB1046
 5561 04c3 05       		.uleb128 .LEHE218-.LEHB218
 5562 04c4 00       		.uleb128 0
 5563 04c5 00       		.uleb128 0
 5564 04c6 C311     		.uleb128 .LEHB219-.LFB1046
 5565 04c8 05       		.uleb128 .LEHE219-.LEHB219
 5566 04c9 00       		.uleb128 0
 5567 04ca 00       		.uleb128 0
 5568 04cb D011     		.uleb128 .LEHB220-.LFB1046
 5569 04cd 38       		.uleb128 .LEHE220-.LEHB220
 5570 04ce B511     		.uleb128 .L309-.LFB1046
 5571 04d0 00       		.uleb128 0
 5572 04d1 8812     		.uleb128 .LEHB221-.LFB1046
 5573 04d3 05       		.uleb128 .LEHE221-.LEHB221
 5574 04d4 00       		.uleb128 0
 5575 04d5 00       		.uleb128 0
 5576 04d6 A012     		.uleb128 .LEHB222-.LFB1046
 5577 04d8 05       		.uleb128 .LEHE222-.LEHB222
 5578 04d9 00       		.uleb128 0
 5579 04da 00       		.uleb128 0
 5580 04db AD12     		.uleb128 .LEHB223-.LFB1046
 5581 04dd 38       		.uleb128 .LEHE223-.LEHB223
 5582 04de 9212     		.uleb128 .L311-.LFB1046
 5583 04e0 00       		.uleb128 0
 5584 04e1 E512     		.uleb128 .LEHB224-.LFB1046
 5585 04e3 05       		.uleb128 .LEHE224-.LEHB224
 5586 04e4 00       		.uleb128 0
 5587 04e5 00       		.uleb128 0
 5588 04e6 FD12     		.uleb128 .LEHB225-.LFB1046
 5589 04e8 05       		.uleb128 .LEHE225-.LEHB225
 5590 04e9 00       		.uleb128 0
 5591 04ea 00       		.uleb128 0
 5592 04eb 8A13     		.uleb128 .LEHB226-.LFB1046
 5593 04ed 38       		.uleb128 .LEHE226-.LEHB226
 5594 04ee EF12     		.uleb128 .L313-.LFB1046
 5595 04f0 00       		.uleb128 0
 5596 04f1 C213     		.uleb128 .LEHB227-.LFB1046
 5597 04f3 05       		.uleb128 .LEHE227-.LEHB227
 5598 04f4 00       		.uleb128 0
 5599 04f5 00       		.uleb128 0
 5600 04f6 DA13     		.uleb128 .LEHB228-.LFB1046
 5601 04f8 05       		.uleb128 .LEHE228-.LEHB228
 5602 04f9 00       		.uleb128 0
 5603 04fa 00       		.uleb128 0
 5604 04fb E713     		.uleb128 .LEHB229-.LFB1046
 5605 04fd 38       		.uleb128 .LEHE229-.LEHB229
 5606 04fe CC13     		.uleb128 .L315-.LFB1046
 5607 0500 00       		.uleb128 0
 5608 0501 9F14     		.uleb128 .LEHB230-.LFB1046
 5609 0503 05       		.uleb128 .LEHE230-.LEHB230
 5610 0504 00       		.uleb128 0
 5611 0505 00       		.uleb128 0
 5612 0506 B714     		.uleb128 .LEHB231-.LFB1046
 5613 0508 05       		.uleb128 .LEHE231-.LEHB231
 5614 0509 00       		.uleb128 0
 5615 050a 00       		.uleb128 0
 5616 050b C414     		.uleb128 .LEHB232-.LFB1046
 5617 050d 38       		.uleb128 .LEHE232-.LEHB232
 5618 050e A914     		.uleb128 .L317-.LFB1046
 5619 0510 00       		.uleb128 0
 5620 0511 FC14     		.uleb128 .LEHB233-.LFB1046
 5621 0513 05       		.uleb128 .LEHE233-.LEHB233
 5622 0514 00       		.uleb128 0
 5623 0515 00       		.uleb128 0
 5624 0516 9415     		.uleb128 .LEHB234-.LFB1046
 5625 0518 05       		.uleb128 .LEHE234-.LEHB234
 5626 0519 00       		.uleb128 0
 5627 051a 00       		.uleb128 0
 5628 051b A115     		.uleb128 .LEHB235-.LFB1046
 5629 051d 38       		.uleb128 .LEHE235-.LEHB235
 5630 051e 8615     		.uleb128 .L319-.LFB1046
 5631 0520 00       		.uleb128 0
 5632 0521 D915     		.uleb128 .LEHB236-.LFB1046
 5633 0523 05       		.uleb128 .LEHE236-.LEHB236
 5634 0524 00       		.uleb128 0
 5635 0525 00       		.uleb128 0
 5636 0526 F115     		.uleb128 .LEHB237-.LFB1046
 5637 0528 05       		.uleb128 .LEHE237-.LEHB237
 5638 0529 00       		.uleb128 0
 5639 052a 00       		.uleb128 0
 5640 052b FE15     		.uleb128 .LEHB238-.LFB1046
 5641 052d 38       		.uleb128 .LEHE238-.LEHB238
 5642 052e E315     		.uleb128 .L321-.LFB1046
 5643 0530 00       		.uleb128 0
 5644 0531 B616     		.uleb128 .LEHB239-.LFB1046
 5645 0533 05       		.uleb128 .LEHE239-.LEHB239
 5646 0534 00       		.uleb128 0
 5647 0535 00       		.uleb128 0
 5648 0536 CE16     		.uleb128 .LEHB240-.LFB1046
 5649 0538 05       		.uleb128 .LEHE240-.LEHB240
 5650 0539 00       		.uleb128 0
 5651 053a 00       		.uleb128 0
 5652 053b DB16     		.uleb128 .LEHB241-.LFB1046
 5653 053d 38       		.uleb128 .LEHE241-.LEHB241
 5654 053e C016     		.uleb128 .L323-.LFB1046
 5655 0540 00       		.uleb128 0
 5656 0541 9317     		.uleb128 .LEHB242-.LFB1046
 5657 0543 05       		.uleb128 .LEHE242-.LEHB242
 5658 0544 00       		.uleb128 0
 5659 0545 00       		.uleb128 0
 5660 0546 AB17     		.uleb128 .LEHB243-.LFB1046
 5661 0548 05       		.uleb128 .LEHE243-.LEHB243
 5662 0549 00       		.uleb128 0
 5663 054a 00       		.uleb128 0
 5664 054b B817     		.uleb128 .LEHB244-.LFB1046
 5665 054d 38       		.uleb128 .LEHE244-.LEHB244
 5666 054e 9D17     		.uleb128 .L325-.LFB1046
 5667 0550 00       		.uleb128 0
 5668 0551 F017     		.uleb128 .LEHB245-.LFB1046
 5669 0553 05       		.uleb128 .LEHE245-.LEHB245
 5670 0554 00       		.uleb128 0
 5671 0555 00       		.uleb128 0
 5672 0556 8818     		.uleb128 .LEHB246-.LFB1046
 5673 0558 05       		.uleb128 .LEHE246-.LEHB246
 5674 0559 00       		.uleb128 0
 5675 055a 00       		.uleb128 0
 5676 055b 9518     		.uleb128 .LEHB247-.LFB1046
 5677 055d 38       		.uleb128 .LEHE247-.LEHB247
 5678 055e FA17     		.uleb128 .L327-.LFB1046
 5679 0560 00       		.uleb128 0
 5680 0561 CD18     		.uleb128 .LEHB248-.LFB1046
 5681 0563 05       		.uleb128 .LEHE248-.LEHB248
 5682 0564 00       		.uleb128 0
 5683 0565 00       		.uleb128 0
 5684 0566 E518     		.uleb128 .LEHB249-.LFB1046
 5685 0568 05       		.uleb128 .LEHE249-.LEHB249
 5686 0569 00       		.uleb128 0
 5687 056a 00       		.uleb128 0
 5688 056b F218     		.uleb128 .LEHB250-.LFB1046
 5689 056d 38       		.uleb128 .LEHE250-.LEHB250
 5690 056e D718     		.uleb128 .L329-.LFB1046
 5691 0570 00       		.uleb128 0
 5692 0571 AA19     		.uleb128 .LEHB251-.LFB1046
 5693 0573 05       		.uleb128 .LEHE251-.LEHB251
 5694 0574 00       		.uleb128 0
 5695 0575 00       		.uleb128 0
 5696 0576 C219     		.uleb128 .LEHB252-.LFB1046
 5697 0578 05       		.uleb128 .LEHE252-.LEHB252
 5698 0579 00       		.uleb128 0
 5699 057a 00       		.uleb128 0
 5700 057b CF19     		.uleb128 .LEHB253-.LFB1046
 5701 057d 38       		.uleb128 .LEHE253-.LEHB253
 5702 057e B419     		.uleb128 .L331-.LFB1046
 5703 0580 00       		.uleb128 0
 5704 0581 871A     		.uleb128 .LEHB254-.LFB1046
 5705 0583 05       		.uleb128 .LEHE254-.LEHB254
 5706 0584 00       		.uleb128 0
 5707 0585 00       		.uleb128 0
 5708 0586 9F1A     		.uleb128 .LEHB255-.LFB1046
 5709 0588 05       		.uleb128 .LEHE255-.LEHB255
 5710 0589 00       		.uleb128 0
 5711 058a 00       		.uleb128 0
 5712 058b AC1A     		.uleb128 .LEHB256-.LFB1046
 5713 058d 38       		.uleb128 .LEHE256-.LEHB256
 5714 058e 911A     		.uleb128 .L333-.LFB1046
 5715 0590 00       		.uleb128 0
 5716 0591 E41A     		.uleb128 .LEHB257-.LFB1046
 5717 0593 05       		.uleb128 .LEHE257-.LEHB257
 5718 0594 00       		.uleb128 0
 5719 0595 00       		.uleb128 0
 5720 0596 FC1A     		.uleb128 .LEHB258-.LFB1046
 5721 0598 05       		.uleb128 .LEHE258-.LEHB258
 5722 0599 00       		.uleb128 0
 5723 059a 00       		.uleb128 0
 5724 059b 891B     		.uleb128 .LEHB259-.LFB1046
 5725 059d 38       		.uleb128 .LEHE259-.LEHB259
 5726 059e EE1A     		.uleb128 .L335-.LFB1046
 5727 05a0 00       		.uleb128 0
 5728 05a1 C11B     		.uleb128 .LEHB260-.LFB1046
 5729 05a3 05       		.uleb128 .LEHE260-.LEHB260
 5730 05a4 00       		.uleb128 0
 5731 05a5 00       		.uleb128 0
 5732 05a6 D91B     		.uleb128 .LEHB261-.LFB1046
 5733 05a8 05       		.uleb128 .LEHE261-.LEHB261
 5734 05a9 00       		.uleb128 0
 5735 05aa 00       		.uleb128 0
 5736 05ab E61B     		.uleb128 .LEHB262-.LFB1046
 5737 05ad 38       		.uleb128 .LEHE262-.LEHB262
 5738 05ae CB1B     		.uleb128 .L337-.LFB1046
 5739 05b0 00       		.uleb128 0
 5740 05b1 9E1C     		.uleb128 .LEHB263-.LFB1046
 5741 05b3 05       		.uleb128 .LEHE263-.LEHB263
 5742 05b4 00       		.uleb128 0
 5743 05b5 00       		.uleb128 0
 5744 05b6 B61C     		.uleb128 .LEHB264-.LFB1046
 5745 05b8 05       		.uleb128 .LEHE264-.LEHB264
 5746 05b9 00       		.uleb128 0
 5747 05ba 00       		.uleb128 0
 5748 05bb C31C     		.uleb128 .LEHB265-.LFB1046
 5749 05bd 38       		.uleb128 .LEHE265-.LEHB265
 5750 05be A81C     		.uleb128 .L339-.LFB1046
 5751 05c0 00       		.uleb128 0
 5752 05c1 FB1C     		.uleb128 .LEHB266-.LFB1046
 5753 05c3 05       		.uleb128 .LEHE266-.LEHB266
 5754 05c4 00       		.uleb128 0
 5755 05c5 00       		.uleb128 0
 5756 05c6 931D     		.uleb128 .LEHB267-.LFB1046
 5757 05c8 05       		.uleb128 .LEHE267-.LEHB267
 5758 05c9 00       		.uleb128 0
 5759 05ca 00       		.uleb128 0
 5760 05cb A01D     		.uleb128 .LEHB268-.LFB1046
 5761 05cd 38       		.uleb128 .LEHE268-.LEHB268
 5762 05ce 851D     		.uleb128 .L341-.LFB1046
 5763 05d0 00       		.uleb128 0
 5764 05d1 D81D     		.uleb128 .LEHB269-.LFB1046
 5765 05d3 05       		.uleb128 .LEHE269-.LEHB269
 5766 05d4 00       		.uleb128 0
 5767 05d5 00       		.uleb128 0
 5768 05d6 F01D     		.uleb128 .LEHB270-.LFB1046
 5769 05d8 05       		.uleb128 .LEHE270-.LEHB270
 5770 05d9 00       		.uleb128 0
 5771 05da 00       		.uleb128 0
 5772 05db FD1D     		.uleb128 .LEHB271-.LFB1046
 5773 05dd 38       		.uleb128 .LEHE271-.LEHB271
 5774 05de E21D     		.uleb128 .L343-.LFB1046
 5775 05e0 00       		.uleb128 0
 5776 05e1 B51E     		.uleb128 .LEHB272-.LFB1046
 5777 05e3 05       		.uleb128 .LEHE272-.LEHB272
 5778 05e4 00       		.uleb128 0
 5779 05e5 00       		.uleb128 0
 5780 05e6 CD1E     		.uleb128 .LEHB273-.LFB1046
 5781 05e8 05       		.uleb128 .LEHE273-.LEHB273
 5782 05e9 00       		.uleb128 0
 5783 05ea 00       		.uleb128 0
 5784 05eb DA1E     		.uleb128 .LEHB274-.LFB1046
 5785 05ed 38       		.uleb128 .LEHE274-.LEHB274
 5786 05ee BF1E     		.uleb128 .L345-.LFB1046
 5787 05f0 00       		.uleb128 0
 5788 05f1 921F     		.uleb128 .LEHB275-.LFB1046
 5789 05f3 05       		.uleb128 .LEHE275-.LEHB275
 5790 05f4 00       		.uleb128 0
 5791 05f5 00       		.uleb128 0
 5792 05f6 AA1F     		.uleb128 .LEHB276-.LFB1046
 5793 05f8 05       		.uleb128 .LEHE276-.LEHB276
 5794 05f9 00       		.uleb128 0
 5795 05fa 00       		.uleb128 0
 5796 05fb B71F     		.uleb128 .LEHB277-.LFB1046
 5797 05fd 38       		.uleb128 .LEHE277-.LEHB277
 5798 05fe 9C1F     		.uleb128 .L347-.LFB1046
 5799 0600 00       		.uleb128 0
 5800 0601 EF1F     		.uleb128 .LEHB278-.LFB1046
 5801 0603 05       		.uleb128 .LEHE278-.LEHB278
 5802 0604 00       		.uleb128 0
 5803 0605 00       		.uleb128 0
 5804 0606 8720     		.uleb128 .LEHB279-.LFB1046
 5805 0608 05       		.uleb128 .LEHE279-.LEHB279
 5806 0609 00       		.uleb128 0
 5807 060a 00       		.uleb128 0
 5808 060b 9420     		.uleb128 .LEHB280-.LFB1046
 5809 060d 38       		.uleb128 .LEHE280-.LEHB280
 5810 060e F91F     		.uleb128 .L349-.LFB1046
 5811 0610 00       		.uleb128 0
 5812 0611 CC20     		.uleb128 .LEHB281-.LFB1046
 5813 0613 05       		.uleb128 .LEHE281-.LEHB281
 5814 0614 00       		.uleb128 0
 5815 0615 00       		.uleb128 0
 5816 0616 E420     		.uleb128 .LEHB282-.LFB1046
 5817 0618 05       		.uleb128 .LEHE282-.LEHB282
 5818 0619 00       		.uleb128 0
 5819 061a 00       		.uleb128 0
 5820 061b F120     		.uleb128 .LEHB283-.LFB1046
 5821 061d 38       		.uleb128 .LEHE283-.LEHB283
 5822 061e D620     		.uleb128 .L351-.LFB1046
 5823 0620 00       		.uleb128 0
 5824 0621 A921     		.uleb128 .LEHB284-.LFB1046
 5825 0623 05       		.uleb128 .LEHE284-.LEHB284
 5826 0624 00       		.uleb128 0
 5827 0625 00       		.uleb128 0
 5828 0626 C121     		.uleb128 .LEHB285-.LFB1046
 5829 0628 05       		.uleb128 .LEHE285-.LEHB285
 5830 0629 00       		.uleb128 0
 5831 062a 00       		.uleb128 0
 5832 062b CE21     		.uleb128 .LEHB286-.LFB1046
 5833 062d 38       		.uleb128 .LEHE286-.LEHB286
 5834 062e B321     		.uleb128 .L353-.LFB1046
 5835 0630 00       		.uleb128 0
 5836 0631 8622     		.uleb128 .LEHB287-.LFB1046
 5837 0633 05       		.uleb128 .LEHE287-.LEHB287
 5838 0634 00       		.uleb128 0
 5839 0635 00       		.uleb128 0
 5840 0636 9E22     		.uleb128 .LEHB288-.LFB1046
 5841 0638 05       		.uleb128 .LEHE288-.LEHB288
 5842 0639 00       		.uleb128 0
 5843 063a 00       		.uleb128 0
 5844 063b AB22     		.uleb128 .LEHB289-.LFB1046
 5845 063d 38       		.uleb128 .LEHE289-.LEHB289
 5846 063e 9022     		.uleb128 .L355-.LFB1046
 5847 0640 00       		.uleb128 0
 5848 0641 E322     		.uleb128 .LEHB290-.LFB1046
 5849 0643 05       		.uleb128 .LEHE290-.LEHB290
 5850 0644 00       		.uleb128 0
 5851 0645 00       		.uleb128 0
 5852 0646 FB22     		.uleb128 .LEHB291-.LFB1046
 5853 0648 05       		.uleb128 .LEHE291-.LEHB291
 5854 0649 00       		.uleb128 0
 5855 064a 00       		.uleb128 0
 5856 064b 8823     		.uleb128 .LEHB292-.LFB1046
 5857 064d 38       		.uleb128 .LEHE292-.LEHB292
 5858 064e ED22     		.uleb128 .L357-.LFB1046
 5859 0650 00       		.uleb128 0
 5860 0651 C023     		.uleb128 .LEHB293-.LFB1046
 5861 0653 05       		.uleb128 .LEHE293-.LEHB293
 5862 0654 00       		.uleb128 0
 5863 0655 00       		.uleb128 0
 5864              	.LLSDACSE1046:
 5865 0656 01       		.byte	0x1
 5866 0657 00       		.byte	0
 5867              		.align 4
 5868 0658 00000000 		.long	0
 5869              	
 5870              	.LLSDATT1046:
 5871              		.text
 5873              		.section	.rodata
 5874 05e7 00       		.align 8
 5875              	.LC30:
 5876 05e8 556E6861 		.string	"Unhandled exception in CHECK_EQUAL((offset) % 4 + 1UL, *item)"
 5876      6E646C65 
 5876      64206578 
 5876      63657074 
 5876      696F6E20 
 5877 0626 0000     		.align 8
 5878              	.LC31:
 5879 0628 556E6861 		.string	"Unhandled exception in CHECK_EQUAL((offset + 1UL) % 4 + 1UL, *item)"
 5879      6E646C65 
 5879      64206578 
 5879      63657074 
 5879      696F6E20 
 5880 066c 00000000 		.align 8
 5881              	.LC32:
 5882 0670 556E6861 		.string	"Unhandled exception in CHECK_EQUAL((offset + 2UL) % 4 + 1UL, *item)"
 5882      6E646C65 
 5882      64206578 
 5882      63657074 
 5882      696F6E20 
 5883 06b4 00000000 		.align 8
 5884              	.LC33:
 5885 06b8 556E6861 		.string	"Unhandled exception in CHECK_EQUAL((offset + 3UL) % 4 + 1UL, *item)"
 5885      6E646C65 
 5885      64206578 
 5885      63657074 
 5885      696F6E20 
 5886 06fc 00000000 		.align 8
 5887              	.LC34:
 5888 0700 556E6861 		.string	"Unhandled exception in CHECK_EQUAL(offset, queue.putIndex)"
 5888      6E646C65 
 5888      64206578 
 5888      63657074 
 5888      696F6E20 
 5889 073b 00000000 		.align 8
 5889      00
 5890              	.LC35:
 5891 0740 556E6861 		.string	"Unhandled exception in CHECK_EQUAL(offset, queue.takeIndex)"
 5891      6E646C65 
 5891      64206578 
 5891      63657074 
 5891      696F6E20 
 5892 077c 00000000 		.align 8
 5893              	.LC36:
 5894 0780 556E6861 		.string	"Unhandled exception in CHECK_EQUAL(8UL, queue.capacity)"
 5894      6E646C65 
 5894      64206578 
 5894      63657074 
 5894      696F6E20 
 5895              		.align 8
 5896              	.LC37:
 5897 07b8 556E6861 		.string	"Unhandled exception in CHECK_EQUAL(5UL, queue.putIndex)"
 5897      6E646C65 
 5897      64206578 
 5897      63657074 
 5897      696F6E20 
 5898              		.align 8
 5899              	.LC38:
 5900 07f0 556E6861 		.string	"Unhandled exception in CHECK_EQUAL(5UL, queue.numItems)"
 5900      6E646C65 
 5900      64206578 
 5900      63657074 
 5900      696F6E20 
 5901              		.align 8
 5902              	.LC39:
 5903 0828 556E6861 		.string	"Unhandled exception in CHECK_EQUAL(100UL, deref(queue.itemArray[0]))"
 5903      6E646C65 
 5903      64206578 
 5903      63657074 
 5903      696F6E20 
 5904 086d 000000   		.align 8
 5905              	.LC40:
 5906 0870 556E6861 		.string	"Unhandled exception in CHECK_EQUAL(101UL, deref(queue.itemArray[1]))"
 5906      6E646C65 
 5906      64206578 
 5906      63657074 
 5906      696F6E20 
 5907 08b5 000000   		.align 8
 5908              	.LC41:
 5909 08b8 556E6861 		.string	"Unhandled exception in CHECK_EQUAL(102UL, deref(queue.itemArray[2]))"
 5909      6E646C65 
 5909      64206578 
 5909      63657074 
 5909      696F6E20 
 5910 08fd 000000   		.align 8
 5911              	.LC42:
 5912 0900 556E6861 		.string	"Unhandled exception in CHECK_EQUAL(103UL, deref(queue.itemArray[3]))"
 5912      6E646C65 
 5912      64206578 
 5912      63657074 
 5912      696F6E20 
 5913 0945 000000   		.align 8
 5914              	.LC43:
 5915 0948 556E6861 		.string	"Unhandled exception in CHECK_EQUAL(104UL, deref(queue.itemArray[4]))"
 5915      6E646C65 
 5915      64206578 
 5915      63657074 
 5915      696F6E20 
 5916 098d 000000   		.align 8
 5917              	.LC44:
 5918 0990 556E6861 		.string	"Unhandled exception in CHECK_EQUAL(6UL, deref(queue.itemArray[5]))"
 5918      6E646C65 
 5918      64206578 
 5918      63657074 
 5918      696F6E20 
 5919 09d3 00000000 		.align 8
 5919      00
 5920              	.LC45:
 5921 09d8 556E6861 		.string	"Unhandled exception in CHECK_EQUAL(7UL, deref(queue.itemArray[6]))"
 5921      6E646C65 
 5921      64206578 
 5921      63657074 
 5921      696F6E20 
 5922 0a1b 00000000 		.align 8
 5922      00
 5923              	.LC46:
 5924 0a20 556E6861 		.string	"Unhandled exception in CHECK_EQUAL(8UL, deref(queue.itemArray[7]))"
 5924      6E646C65 
 5924      64206578 
 5924      63657074 
 5924      696F6E20 
 5925 0a63 00000000 		.align 8
 5925      00
 5926              	.LC47:
 5927 0a68 556E6861 		.string	"Unhandled exception in CHECK_EQUAL(100UL, *item)"
 5927      6E646C65 
 5927      64206578 
 5927      63657074 
 5927      696F6E20 
 5928 0a99 00000000 		.align 8
 5928      000000
 5929              	.LC48:
 5930 0aa0 556E6861 		.string	"Unhandled exception in CHECK_EQUAL(101UL, *item)"
 5930      6E646C65 
 5930      64206578 
 5930      63657074 
 5930      696F6E20 
 5931 0ad1 00000000 		.align 8
 5931      000000
 5932              	.LC49:
 5933 0ad8 556E6861 		.string	"Unhandled exception in CHECK_EQUAL(102UL, *item)"
 5933      6E646C65 
 5933      64206578 
 5933      63657074 
 5933      696F6E20 
 5934 0b09 00000000 		.align 8
 5934      000000
 5935              	.LC50:
 5936 0b10 556E6861 		.string	"Unhandled exception in CHECK_EQUAL(103UL, *item)"
 5936      6E646C65 
 5936      64206578 
 5936      63657074 
 5936      696F6E20 
 5937 0b41 00000000 		.align 8
 5937      000000
 5938              	.LC51:
 5939 0b48 556E6861 		.string	"Unhandled exception in CHECK_EQUAL(104UL, *item)"
 5939      6E646C65 
 5939      64206578 
 5939      63657074 
 5939      696F6E20 
 5940 0b79 00000000 		.align 8
 5940      000000
 5941              	.LC52:
 5942 0b80 556E6861 		.string	"Unhandled exception in CHECK_EQUAL(USB_EMPTY_QUEUE, status)"
 5942      6E646C65 
 5942      64206578 
 5942      63657074 
 5942      696F6E20 
 5943              		.text
 5944              		.globl	_Z11testReallocm
 5946              	_Z11testReallocm:
 5947              	.LFB1047:
 230:testCore.cpp  **** 
 231:testCore.cpp  **** void testRealloc(const size_t offset) {
 5948              		.loc 3 231 0
 5949              		.cfi_startproc
 5950              		.cfi_personality 0x3,__gxx_personality_v0
 5951              		.cfi_lsda 0x3,.LLSDA1047
 5952 2fc4 55       		pushq	%rbp
 5953              		.cfi_def_cfa_offset 16
 5954              		.cfi_offset 6, -16
 5955 2fc5 4889E5   		movq	%rsp, %rbp
 5956              		.cfi_def_cfa_register 6
 5957 2fc8 53       		pushq	%rbx
 5958 2fc9 4881EC98 		subq	$152, %rsp
 5958      000000
 5959              		.cfi_offset 3, -24
 5960 2fd0 4889BD68 		movq	%rdi, -152(%rbp)
 5960      FFFFFF
 5961              	.LBB13:
 232:testCore.cpp  **** 	struct UnboundedQueue queue;
 233:testCore.cpp  **** 	uint32 *item;
 234:testCore.cpp  **** 	m_count = 1;
 5962              		.loc 3 234 0
 5963 2fd7 C7050000 		movl	$1, _ZL7m_count(%rip)
 5963      00000100 
 5963      0000
 235:testCore.cpp  **** 
 236:testCore.cpp  **** 	// Create queue
 237:testCore.cpp  **** 	USBStatus status = queueInit(&queue, 4, (CreateFunc)createInt, (DestroyFunc)destroyInt);
 5964              		.loc 3 237 0
 5965 2fe1 488D45B0 		leaq	-80(%rbp), %rax
 5966 2fe5 B9000000 		movl	$destroyInt, %ecx
 5966      00
 5967 2fea BA000000 		movl	$createInt, %edx
 5967      00
 5968 2fef BE040000 		movl	$4, %esi
 5968      00
 5969 2ff4 4889C7   		movq	%rax, %rdi
 5970              	.LEHB294:
 5971 2ff7 E8000000 		call	queueInit
 5971      00
 5972              	.LEHE294:
 5973 2ffc 898578FF 		movl	%eax, -136(%rbp)
 5973      FFFF
 5974              	.LEHB295:
 238:testCore.cpp  **** 	CHECK_EQUAL(USB_SUCCESS, status);
 5975              		.loc 3 238 0
 5976 3002 E8000000 		call	_ZN8UnitTest11CurrentTest7DetailsEv
 5976      00
 5977 3007 488B08   		movq	(%rax), %rcx
 5978 300a 488D4590 		leaq	-112(%rbp), %rax
 5979 300e BAEE0000 		movl	$238, %edx
 5979      00
 5980 3013 4889CE   		movq	%rcx, %rsi
 5981 3016 4889C7   		movq	%rax, %rdi
 5982 3019 E8000000 		call	_ZN8UnitTest11TestDetailsC1ERKS0_i
 5982      00
 5983              		.loc 3 238 0 is_stmt 0 discriminator 1
 5984 301e C7458800 		movl	$0, -120(%rbp)
 5984      000000
 5985 3025 E8000000 		call	_ZN8UnitTest11CurrentTest7ResultsEv
 5985      00
 5986 302a 488B00   		movq	(%rax), %rax
 5987 302d 488D4D90 		leaq	-112(%rbp), %rcx
 5988 3031 488D9578 		leaq	-136(%rbp), %rdx
 5988      FFFFFF
 5989 3038 488D7588 		leaq	-120(%rbp), %rsi
 5990 303c 4889C7   		movq	%rax, %rdi
 5991 303f E8000000 		call	_ZN8UnitTest10CheckEqualI9USBStatusS1_EEvRNS_11TestResultsERKT_RKT0_RKNS_11TestDetailsE
 5991      00
 5992              	.LEHE295:
 5993              	.L362:
 239:testCore.cpp  **** 
 240:testCore.cpp  **** 	// Shift indices so realloc has to do more work
 241:testCore.cpp  **** 	queue.putIndex = offset;
 5994              		.loc 3 241 0 is_stmt 1
 5995 3044 488B8568 		movq	-152(%rbp), %rax
 5995      FFFFFF
 5996 304b 488945C0 		movq	%rax, -64(%rbp)
 242:testCore.cpp  **** 	queue.takeIndex = offset;
 5997              		.loc 3 242 0
 5998 304f 488B8568 		movq	-152(%rbp), %rax
 5998      FFFFFF
 5999 3056 488945C8 		movq	%rax, -56(%rbp)
 243:testCore.cpp  **** 
 244:testCore.cpp  **** 	// Now fill the queue to capacity
 245:testCore.cpp  **** 	status = queuePut(&queue, (Item*)&item);
 6000              		.loc 3 245 0
 6001 305a 488D5580 		leaq	-128(%rbp), %rdx
 6002 305e 488D45B0 		leaq	-80(%rbp), %rax
 6003 3062 4889D6   		movq	%rdx, %rsi
 6004 3065 4889C7   		movq	%rax, %rdi
 6005              	.LEHB296:
 6006 3068 E8000000 		call	queuePut
 6006      00
 6007              	.LEHE296:
 6008 306d 898578FF 		movl	%eax, -136(%rbp)
 6008      FFFF
 6009              	.LEHB297:
 246:testCore.cpp  **** 	CHECK_EQUAL(USB_SUCCESS, status);
 6010              		.loc 3 246 0
 6011 3073 E8000000 		call	_ZN8UnitTest11CurrentTest7DetailsEv
 6011      00
 6012 3078 488B08   		movq	(%rax), %rcx
 6013 307b 488D4590 		leaq	-112(%rbp), %rax
 6014 307f BAF60000 		movl	$246, %edx
 6014      00
 6015 3084 4889CE   		movq	%rcx, %rsi
 6016 3087 4889C7   		movq	%rax, %rdi
 6017 308a E8000000 		call	_ZN8UnitTest11TestDetailsC1ERKS0_i
 6017      00
 6018              		.loc 3 246 0 is_stmt 0 discriminator 1
 6019 308f C7458800 		movl	$0, -120(%rbp)
 6019      000000
 6020 3096 E8000000 		call	_ZN8UnitTest11CurrentTest7ResultsEv
 6020      00
 6021 309b 488B00   		movq	(%rax), %rax
 6022 309e 488D4D90 		leaq	-112(%rbp), %rcx
 6023 30a2 488D9578 		leaq	-136(%rbp), %rdx
 6023      FFFFFF
 6024 30a9 488D7588 		leaq	-120(%rbp), %rsi
 6025 30ad 4889C7   		movq	%rax, %rdi
 6026 30b0 E8000000 		call	_ZN8UnitTest10CheckEqualI9USBStatusS1_EEvRNS_11TestResultsERKT_RKT0_RKNS_11TestDetailsE
 6026      00
 6027              	.LEHE297:
 6028              	.L365:
 6029              	.LEHB298:
 247:testCore.cpp  **** 	CHECK_EQUAL((offset) % 4 + 1UL, *item);
 6030              		.loc 3 247 0 is_stmt 1
 6031 30b5 E8000000 		call	_ZN8UnitTest11CurrentTest7DetailsEv
 6031      00
 6032 30ba 488B08   		movq	(%rax), %rcx
 6033 30bd 488D4590 		leaq	-112(%rbp), %rax
 6034 30c1 BAF70000 		movl	$247, %edx
 6034      00
 6035 30c6 4889CE   		movq	%rcx, %rsi
 6036 30c9 4889C7   		movq	%rax, %rdi
 6037 30cc E8000000 		call	_ZN8UnitTest11TestDetailsC1ERKS0_i
 6037      00
 6038              		.loc 3 247 0 is_stmt 0 discriminator 1
 6039 30d1 488B5D80 		movq	-128(%rbp), %rbx
 6040 30d5 488B8568 		movq	-152(%rbp), %rax
 6040      FFFFFF
 6041 30dc 83E003   		andl	$3, %eax
 6042 30df 4883C001 		addq	$1, %rax
 6043 30e3 48894588 		movq	%rax, -120(%rbp)
 6044 30e7 E8000000 		call	_ZN8UnitTest11CurrentTest7ResultsEv
 6044      00
 6045 30ec 488B00   		movq	(%rax), %rax
 6046 30ef 488D5590 		leaq	-112(%rbp), %rdx
 6047 30f3 488D7588 		leaq	-120(%rbp), %rsi
 6048 30f7 4889D1   		movq	%rdx, %rcx
 6049 30fa 4889DA   		movq	%rbx, %rdx
 6050 30fd 4889C7   		movq	%rax, %rdi
 6051 3100 E8000000 		call	_ZN8UnitTest10CheckEqualImjEEvRNS_11TestResultsERKT_RKT0_RKNS_11TestDetailsE
 6051      00
 6052              	.LEHE298:
 6053              	.L368:
 248:testCore.cpp  **** 	*item = 100;
 6054              		.loc 3 248 0 is_stmt 1
 6055 3105 488B4580 		movq	-128(%rbp), %rax
 6056 3109 C7006400 		movl	$100, (%rax)
 6056      0000
 249:testCore.cpp  **** 	queueCommitPut(&queue);
 6057              		.loc 3 249 0
 6058 310f 488D45B0 		leaq	-80(%rbp), %rax
 6059 3113 4889C7   		movq	%rax, %rdi
 6060              	.LEHB299:
 6061 3116 E8000000 		call	queueCommitPut
 6061      00
 250:testCore.cpp  **** 	status = queuePut(&queue, (Item*)&item);
 6062              		.loc 3 250 0
 6063 311b 488D5580 		leaq	-128(%rbp), %rdx
 6064 311f 488D45B0 		leaq	-80(%rbp), %rax
 6065 3123 4889D6   		movq	%rdx, %rsi
 6066 3126 4889C7   		movq	%rax, %rdi
 6067 3129 E8000000 		call	queuePut
 6067      00
 6068              	.LEHE299:
 6069 312e 898578FF 		movl	%eax, -136(%rbp)
 6069      FFFF
 6070              	.LEHB300:
 251:testCore.cpp  **** 	CHECK_EQUAL(USB_SUCCESS, status);
 6071              		.loc 3 251 0
 6072 3134 E8000000 		call	_ZN8UnitTest11CurrentTest7DetailsEv
 6072      00
 6073 3139 488B08   		movq	(%rax), %rcx
 6074 313c 488D4590 		leaq	-112(%rbp), %rax
 6075 3140 BAFB0000 		movl	$251, %edx
 6075      00
 6076 3145 4889CE   		movq	%rcx, %rsi
 6077 3148 4889C7   		movq	%rax, %rdi
 6078 314b E8000000 		call	_ZN8UnitTest11TestDetailsC1ERKS0_i
 6078      00
 6079              		.loc 3 251 0 is_stmt 0 discriminator 1
 6080 3150 C7458800 		movl	$0, -120(%rbp)
 6080      000000
 6081 3157 E8000000 		call	_ZN8UnitTest11CurrentTest7ResultsEv
 6081      00
 6082 315c 488B00   		movq	(%rax), %rax
 6083 315f 488D4D90 		leaq	-112(%rbp), %rcx
 6084 3163 488D9578 		leaq	-136(%rbp), %rdx
 6084      FFFFFF
 6085 316a 488D7588 		leaq	-120(%rbp), %rsi
 6086 316e 4889C7   		movq	%rax, %rdi
 6087 3171 E8000000 		call	_ZN8UnitTest10CheckEqualI9USBStatusS1_EEvRNS_11TestResultsERKT_RKT0_RKNS_11TestDetailsE
 6087      00
 6088              	.LEHE300:
 6089              	.L371:
 6090              	.LEHB301:
 252:testCore.cpp  **** 	CHECK_EQUAL((offset + 1UL) % 4 + 1UL, *item);
 6091              		.loc 3 252 0 is_stmt 1
 6092 3176 E8000000 		call	_ZN8UnitTest11CurrentTest7DetailsEv
 6092      00
 6093 317b 488B08   		movq	(%rax), %rcx
 6094 317e 488D4590 		leaq	-112(%rbp), %rax
 6095 3182 BAFC0000 		movl	$252, %edx
 6095      00
 6096 3187 4889CE   		movq	%rcx, %rsi
 6097 318a 4889C7   		movq	%rax, %rdi
 6098 318d E8000000 		call	_ZN8UnitTest11TestDetailsC1ERKS0_i
 6098      00
 6099              		.loc 3 252 0 is_stmt 0 discriminator 1
 6100 3192 488B5D80 		movq	-128(%rbp), %rbx
 6101 3196 488B8568 		movq	-152(%rbp), %rax
 6101      FFFFFF
 6102 319d 4883C001 		addq	$1, %rax
 6103 31a1 83E003   		andl	$3, %eax
 6104 31a4 4883C001 		addq	$1, %rax
 6105 31a8 48894588 		movq	%rax, -120(%rbp)
 6106 31ac E8000000 		call	_ZN8UnitTest11CurrentTest7ResultsEv
 6106      00
 6107 31b1 488B00   		movq	(%rax), %rax
 6108 31b4 488D5590 		leaq	-112(%rbp), %rdx
 6109 31b8 488D7588 		leaq	-120(%rbp), %rsi
 6110 31bc 4889D1   		movq	%rdx, %rcx
 6111 31bf 4889DA   		movq	%rbx, %rdx
 6112 31c2 4889C7   		movq	%rax, %rdi
 6113 31c5 E8000000 		call	_ZN8UnitTest10CheckEqualImjEEvRNS_11TestResultsERKT_RKT0_RKNS_11TestDetailsE
 6113      00
 6114              	.LEHE301:
 6115              	.L374:
 253:testCore.cpp  **** 	*item = 101;
 6116              		.loc 3 253 0 is_stmt 1
 6117 31ca 488B4580 		movq	-128(%rbp), %rax
 6118 31ce C7006500 		movl	$101, (%rax)
 6118      0000
 254:testCore.cpp  **** 	queueCommitPut(&queue);
 6119              		.loc 3 254 0
 6120 31d4 488D45B0 		leaq	-80(%rbp), %rax
 6121 31d8 4889C7   		movq	%rax, %rdi
 6122              	.LEHB302:
 6123 31db E8000000 		call	queueCommitPut
 6123      00
 255:testCore.cpp  **** 	status = queuePut(&queue, (Item*)&item);
 6124              		.loc 3 255 0
 6125 31e0 488D5580 		leaq	-128(%rbp), %rdx
 6126 31e4 488D45B0 		leaq	-80(%rbp), %rax
 6127 31e8 4889D6   		movq	%rdx, %rsi
 6128 31eb 4889C7   		movq	%rax, %rdi
 6129 31ee E8000000 		call	queuePut
 6129      00
 6130              	.LEHE302:
 6131 31f3 898578FF 		movl	%eax, -136(%rbp)
 6131      FFFF
 6132              	.LEHB303:
 256:testCore.cpp  **** 	CHECK_EQUAL(USB_SUCCESS, status);
 6133              		.loc 3 256 0
 6134 31f9 E8000000 		call	_ZN8UnitTest11CurrentTest7DetailsEv
 6134      00
 6135 31fe 488B08   		movq	(%rax), %rcx
 6136 3201 488D4590 		leaq	-112(%rbp), %rax
 6137 3205 BA000100 		movl	$256, %edx
 6137      00
 6138 320a 4889CE   		movq	%rcx, %rsi
 6139 320d 4889C7   		movq	%rax, %rdi
 6140 3210 E8000000 		call	_ZN8UnitTest11TestDetailsC1ERKS0_i
 6140      00
 6141              		.loc 3 256 0 is_stmt 0 discriminator 1
 6142 3215 C7458800 		movl	$0, -120(%rbp)
 6142      000000
 6143 321c E8000000 		call	_ZN8UnitTest11CurrentTest7ResultsEv
 6143      00
 6144 3221 488B00   		movq	(%rax), %rax
 6145 3224 488D4D90 		leaq	-112(%rbp), %rcx
 6146 3228 488D9578 		leaq	-136(%rbp), %rdx
 6146      FFFFFF
 6147 322f 488D7588 		leaq	-120(%rbp), %rsi
 6148 3233 4889C7   		movq	%rax, %rdi
 6149 3236 E8000000 		call	_ZN8UnitTest10CheckEqualI9USBStatusS1_EEvRNS_11TestResultsERKT_RKT0_RKNS_11TestDetailsE
 6149      00
 6150              	.LEHE303:
 6151              	.L377:
 6152              	.LEHB304:
 257:testCore.cpp  **** 	CHECK_EQUAL((offset + 2UL) % 4 + 1UL, *item);
 6153              		.loc 3 257 0 is_stmt 1
 6154 323b E8000000 		call	_ZN8UnitTest11CurrentTest7DetailsEv
 6154      00
 6155 3240 488B08   		movq	(%rax), %rcx
 6156 3243 488D4590 		leaq	-112(%rbp), %rax
 6157 3247 BA010100 		movl	$257, %edx
 6157      00
 6158 324c 4889CE   		movq	%rcx, %rsi
 6159 324f 4889C7   		movq	%rax, %rdi
 6160 3252 E8000000 		call	_ZN8UnitTest11TestDetailsC1ERKS0_i
 6160      00
 6161              		.loc 3 257 0 is_stmt 0 discriminator 1
 6162 3257 488B5D80 		movq	-128(%rbp), %rbx
 6163 325b 488B8568 		movq	-152(%rbp), %rax
 6163      FFFFFF
 6164 3262 4883C002 		addq	$2, %rax
 6165 3266 83E003   		andl	$3, %eax
 6166 3269 4883C001 		addq	$1, %rax
 6167 326d 48894588 		movq	%rax, -120(%rbp)
 6168 3271 E8000000 		call	_ZN8UnitTest11CurrentTest7ResultsEv
 6168      00
 6169 3276 488B00   		movq	(%rax), %rax
 6170 3279 488D5590 		leaq	-112(%rbp), %rdx
 6171 327d 488D7588 		leaq	-120(%rbp), %rsi
 6172 3281 4889D1   		movq	%rdx, %rcx
 6173 3284 4889DA   		movq	%rbx, %rdx
 6174 3287 4889C7   		movq	%rax, %rdi
 6175 328a E8000000 		call	_ZN8UnitTest10CheckEqualImjEEvRNS_11TestResultsERKT_RKT0_RKNS_11TestDetailsE
 6175      00
 6176              	.LEHE304:
 6177              	.L380:
 258:testCore.cpp  **** 	*item = 102;
 6178              		.loc 3 258 0 is_stmt 1
 6179 328f 488B4580 		movq	-128(%rbp), %rax
 6180 3293 C7006600 		movl	$102, (%rax)
 6180      0000
 259:testCore.cpp  **** 	queueCommitPut(&queue);
 6181              		.loc 3 259 0
 6182 3299 488D45B0 		leaq	-80(%rbp), %rax
 6183 329d 4889C7   		movq	%rax, %rdi
 6184              	.LEHB305:
 6185 32a0 E8000000 		call	queueCommitPut
 6185      00
 260:testCore.cpp  **** 	status = queuePut(&queue, (Item*)&item);
 6186              		.loc 3 260 0
 6187 32a5 488D5580 		leaq	-128(%rbp), %rdx
 6188 32a9 488D45B0 		leaq	-80(%rbp), %rax
 6189 32ad 4889D6   		movq	%rdx, %rsi
 6190 32b0 4889C7   		movq	%rax, %rdi
 6191 32b3 E8000000 		call	queuePut
 6191      00
 6192              	.LEHE305:
 6193 32b8 898578FF 		movl	%eax, -136(%rbp)
 6193      FFFF
 6194              	.LEHB306:
 261:testCore.cpp  **** 	CHECK_EQUAL(USB_SUCCESS, status);
 6195              		.loc 3 261 0
 6196 32be E8000000 		call	_ZN8UnitTest11CurrentTest7DetailsEv
 6196      00
 6197 32c3 488B08   		movq	(%rax), %rcx
 6198 32c6 488D4590 		leaq	-112(%rbp), %rax
 6199 32ca BA050100 		movl	$261, %edx
 6199      00
 6200 32cf 4889CE   		movq	%rcx, %rsi
 6201 32d2 4889C7   		movq	%rax, %rdi
 6202 32d5 E8000000 		call	_ZN8UnitTest11TestDetailsC1ERKS0_i
 6202      00
 6203              		.loc 3 261 0 is_stmt 0 discriminator 1
 6204 32da C7458800 		movl	$0, -120(%rbp)
 6204      000000
 6205 32e1 E8000000 		call	_ZN8UnitTest11CurrentTest7ResultsEv
 6205      00
 6206 32e6 488B00   		movq	(%rax), %rax
 6207 32e9 488D4D90 		leaq	-112(%rbp), %rcx
 6208 32ed 488D9578 		leaq	-136(%rbp), %rdx
 6208      FFFFFF
 6209 32f4 488D7588 		leaq	-120(%rbp), %rsi
 6210 32f8 4889C7   		movq	%rax, %rdi
 6211 32fb E8000000 		call	_ZN8UnitTest10CheckEqualI9USBStatusS1_EEvRNS_11TestResultsERKT_RKT0_RKNS_11TestDetailsE
 6211      00
 6212              	.LEHE306:
 6213              	.L383:
 6214              	.LEHB307:
 262:testCore.cpp  **** 	CHECK_EQUAL((offset + 3UL) % 4 + 1UL, *item);
 6215              		.loc 3 262 0 is_stmt 1
 6216 3300 E8000000 		call	_ZN8UnitTest11CurrentTest7DetailsEv
 6216      00
 6217 3305 488B08   		movq	(%rax), %rcx
 6218 3308 488D4590 		leaq	-112(%rbp), %rax
 6219 330c BA060100 		movl	$262, %edx
 6219      00
 6220 3311 4889CE   		movq	%rcx, %rsi
 6221 3314 4889C7   		movq	%rax, %rdi
 6222 3317 E8000000 		call	_ZN8UnitTest11TestDetailsC1ERKS0_i
 6222      00
 6223              		.loc 3 262 0 is_stmt 0 discriminator 1
 6224 331c 488B5D80 		movq	-128(%rbp), %rbx
 6225 3320 488B8568 		movq	-152(%rbp), %rax
 6225      FFFFFF
 6226 3327 4883C003 		addq	$3, %rax
 6227 332b 83E003   		andl	$3, %eax
 6228 332e 4883C001 		addq	$1, %rax
 6229 3332 48894588 		movq	%rax, -120(%rbp)
 6230 3336 E8000000 		call	_ZN8UnitTest11CurrentTest7ResultsEv
 6230      00
 6231 333b 488B00   		movq	(%rax), %rax
 6232 333e 488D5590 		leaq	-112(%rbp), %rdx
 6233 3342 488D7588 		leaq	-120(%rbp), %rsi
 6234 3346 4889D1   		movq	%rdx, %rcx
 6235 3349 4889DA   		movq	%rbx, %rdx
 6236 334c 4889C7   		movq	%rax, %rdi
 6237 334f E8000000 		call	_ZN8UnitTest10CheckEqualImjEEvRNS_11TestResultsERKT_RKT0_RKNS_11TestDetailsE
 6237      00
 6238              	.LEHE307:
 6239              	.L386:
 263:testCore.cpp  **** 	*item = 103;
 6240              		.loc 3 263 0 is_stmt 1
 6241 3354 488B4580 		movq	-128(%rbp), %rax
 6242 3358 C7006700 		movl	$103, (%rax)
 6242      0000
 264:testCore.cpp  **** 	queueCommitPut(&queue);
 6243              		.loc 3 264 0
 6244 335e 488D45B0 		leaq	-80(%rbp), %rax
 6245 3362 4889C7   		movq	%rax, %rdi
 6246              	.LEHB308:
 6247 3365 E8000000 		call	queueCommitPut
 6247      00
 6248              	.LEHE308:
 6249              	.LEHB309:
 265:testCore.cpp  **** 
 266:testCore.cpp  **** 	// Verify
 267:testCore.cpp  **** 	CHECK_EQUAL(4UL, queue.capacity);
 6250              		.loc 3 267 0
 6251 336a E8000000 		call	_ZN8UnitTest11CurrentTest7DetailsEv
 6251      00
 6252 336f 488B08   		movq	(%rax), %rcx
 6253 3372 488D4590 		leaq	-112(%rbp), %rax
 6254 3376 BA0B0100 		movl	$267, %edx
 6254      00
 6255 337b 4889CE   		movq	%rcx, %rsi
 6256 337e 4889C7   		movq	%rax, %rdi
 6257 3381 E8000000 		call	_ZN8UnitTest11TestDetailsC1ERKS0_i
 6257      00
 6258              		.loc 3 267 0 is_stmt 0 discriminator 1
 6259 3386 48C74588 		movq	$4, -120(%rbp)
 6259      04000000 
 6260 338e E8000000 		call	_ZN8UnitTest11CurrentTest7ResultsEv
 6260      00
 6261 3393 488B00   		movq	(%rax), %rax
 6262 3396 488D5590 		leaq	-112(%rbp), %rdx
 6263 339a 488D4DB0 		leaq	-80(%rbp), %rcx
 6264 339e 488D7908 		leaq	8(%rcx), %rdi
 6265 33a2 488D7588 		leaq	-120(%rbp), %rsi
 6266 33a6 4889D1   		movq	%rdx, %rcx
 6267 33a9 4889FA   		movq	%rdi, %rdx
 6268 33ac 4889C7   		movq	%rax, %rdi
 6269 33af E8000000 		call	_ZN8UnitTest10CheckEqualImmEEvRNS_11TestResultsERKT_RKT0_RKNS_11TestDetailsE
 6269      00
 6270              	.LEHE309:
 6271              	.L389:
 6272              	.LEHB310:
 268:testCore.cpp  **** 	CHECK_EQUAL(offset, queue.putIndex);
 6273              		.loc 3 268 0 is_stmt 1
 6274 33b4 E8000000 		call	_ZN8UnitTest11CurrentTest7DetailsEv
 6274      00
 6275 33b9 488B08   		movq	(%rax), %rcx
 6276 33bc 488D4590 		leaq	-112(%rbp), %rax
 6277 33c0 BA0C0100 		movl	$268, %edx
 6277      00
 6278 33c5 4889CE   		movq	%rcx, %rsi
 6279 33c8 4889C7   		movq	%rax, %rdi
 6280 33cb E8000000 		call	_ZN8UnitTest11TestDetailsC1ERKS0_i
 6280      00
 6281              		.loc 3 268 0 is_stmt 0 discriminator 1
 6282 33d0 E8000000 		call	_ZN8UnitTest11CurrentTest7ResultsEv
 6282      00
 6283 33d5 488B00   		movq	(%rax), %rax
 6284 33d8 488D5590 		leaq	-112(%rbp), %rdx
 6285 33dc 488D4DB0 		leaq	-80(%rbp), %rcx
 6286 33e0 488D7910 		leaq	16(%rcx), %rdi
 6287 33e4 488DB568 		leaq	-152(%rbp), %rsi
 6287      FFFFFF
 6288 33eb 4889D1   		movq	%rdx, %rcx
 6289 33ee 4889FA   		movq	%rdi, %rdx
 6290 33f1 4889C7   		movq	%rax, %rdi
 6291 33f4 E8000000 		call	_ZN8UnitTest10CheckEqualImmEEvRNS_11TestResultsERKT_RKT0_RKNS_11TestDetailsE
 6291      00
 6292              	.LEHE310:
 6293              	.L392:
 6294              	.LEHB311:
 269:testCore.cpp  **** 	CHECK_EQUAL(offset, queue.takeIndex);
 6295              		.loc 3 269 0 is_stmt 1
 6296 33f9 E8000000 		call	_ZN8UnitTest11CurrentTest7DetailsEv
 6296      00
 6297 33fe 488B08   		movq	(%rax), %rcx
 6298 3401 488D4590 		leaq	-112(%rbp), %rax
 6299 3405 BA0D0100 		movl	$269, %edx
 6299      00
 6300 340a 4889CE   		movq	%rcx, %rsi
 6301 340d 4889C7   		movq	%rax, %rdi
 6302 3410 E8000000 		call	_ZN8UnitTest11TestDetailsC1ERKS0_i
 6302      00
 6303              		.loc 3 269 0 is_stmt 0 discriminator 1
 6304 3415 E8000000 		call	_ZN8UnitTest11CurrentTest7ResultsEv
 6304      00
 6305 341a 488B00   		movq	(%rax), %rax
 6306 341d 488D5590 		leaq	-112(%rbp), %rdx
 6307 3421 488D4DB0 		leaq	-80(%rbp), %rcx
 6308 3425 488D7918 		leaq	24(%rcx), %rdi
 6309 3429 488DB568 		leaq	-152(%rbp), %rsi
 6309      FFFFFF
 6310 3430 4889D1   		movq	%rdx, %rcx
 6311 3433 4889FA   		movq	%rdi, %rdx
 6312 3436 4889C7   		movq	%rax, %rdi
 6313 3439 E8000000 		call	_ZN8UnitTest10CheckEqualImmEEvRNS_11TestResultsERKT_RKT0_RKNS_11TestDetailsE
 6313      00
 6314              	.LEHE311:
 6315              	.L395:
 6316              	.LEHB312:
 270:testCore.cpp  **** 	CHECK_EQUAL(4UL, queue.numItems);
 6317              		.loc 3 270 0 is_stmt 1
 6318 343e E8000000 		call	_ZN8UnitTest11CurrentTest7DetailsEv
 6318      00
 6319 3443 488B08   		movq	(%rax), %rcx
 6320 3446 488D4590 		leaq	-112(%rbp), %rax
 6321 344a BA0E0100 		movl	$270, %edx
 6321      00
 6322 344f 4889CE   		movq	%rcx, %rsi
 6323 3452 4889C7   		movq	%rax, %rdi
 6324 3455 E8000000 		call	_ZN8UnitTest11TestDetailsC1ERKS0_i
 6324      00
 6325              		.loc 3 270 0 is_stmt 0 discriminator 1
 6326 345a 48C74588 		movq	$4, -120(%rbp)
 6326      04000000 
 6327 3462 E8000000 		call	_ZN8UnitTest11CurrentTest7ResultsEv
 6327      00
 6328 3467 488B00   		movq	(%rax), %rax
 6329 346a 488D5590 		leaq	-112(%rbp), %rdx
 6330 346e 488D4DB0 		leaq	-80(%rbp), %rcx
 6331 3472 488D7920 		leaq	32(%rcx), %rdi
 6332 3476 488D7588 		leaq	-120(%rbp), %rsi
 6333 347a 4889D1   		movq	%rdx, %rcx
 6334 347d 4889FA   		movq	%rdi, %rdx
 6335 3480 4889C7   		movq	%rax, %rdi
 6336 3483 E8000000 		call	_ZN8UnitTest10CheckEqualImmEEvRNS_11TestResultsERKT_RKT0_RKNS_11TestDetailsE
 6336      00
 6337              	.LEHE312:
 6338              	.L398:
 271:testCore.cpp  **** 
 272:testCore.cpp  **** 	// Force reallocation
 273:testCore.cpp  **** 	status = queuePut(&queue, (Item*)&item);
 6339              		.loc 3 273 0 is_stmt 1
 6340 3488 488D5580 		leaq	-128(%rbp), %rdx
 6341 348c 488D45B0 		leaq	-80(%rbp), %rax
 6342 3490 4889D6   		movq	%rdx, %rsi
 6343 3493 4889C7   		movq	%rax, %rdi
 6344              	.LEHB313:
 6345 3496 E8000000 		call	queuePut
 6345      00
 6346              	.LEHE313:
 6347 349b 898578FF 		movl	%eax, -136(%rbp)
 6347      FFFF
 6348              	.LEHB314:
 274:testCore.cpp  **** 	CHECK_EQUAL(USB_SUCCESS, status);
 6349              		.loc 3 274 0
 6350 34a1 E8000000 		call	_ZN8UnitTest11CurrentTest7DetailsEv
 6350      00
 6351 34a6 488B08   		movq	(%rax), %rcx
 6352 34a9 488D4590 		leaq	-112(%rbp), %rax
 6353 34ad BA120100 		movl	$274, %edx
 6353      00
 6354 34b2 4889CE   		movq	%rcx, %rsi
 6355 34b5 4889C7   		movq	%rax, %rdi
 6356 34b8 E8000000 		call	_ZN8UnitTest11TestDetailsC1ERKS0_i
 6356      00
 6357              		.loc 3 274 0 is_stmt 0 discriminator 1
 6358 34bd C7458800 		movl	$0, -120(%rbp)
 6358      000000
 6359 34c4 E8000000 		call	_ZN8UnitTest11CurrentTest7ResultsEv
 6359      00
 6360 34c9 488B00   		movq	(%rax), %rax
 6361 34cc 488D4D90 		leaq	-112(%rbp), %rcx
 6362 34d0 488D9578 		leaq	-136(%rbp), %rdx
 6362      FFFFFF
 6363 34d7 488D7588 		leaq	-120(%rbp), %rsi
 6364 34db 4889C7   		movq	%rax, %rdi
 6365 34de E8000000 		call	_ZN8UnitTest10CheckEqualI9USBStatusS1_EEvRNS_11TestResultsERKT_RKT0_RKNS_11TestDetailsE
 6365      00
 6366              	.LEHE314:
 6367              	.L401:
 6368              	.LEHB315:
 275:testCore.cpp  **** 	CHECK_EQUAL(5UL, *item);
 6369              		.loc 3 275 0 is_stmt 1
 6370 34e3 E8000000 		call	_ZN8UnitTest11CurrentTest7DetailsEv
 6370      00
 6371 34e8 488B08   		movq	(%rax), %rcx
 6372 34eb 488D4590 		leaq	-112(%rbp), %rax
 6373 34ef BA130100 		movl	$275, %edx
 6373      00
 6374 34f4 4889CE   		movq	%rcx, %rsi
 6375 34f7 4889C7   		movq	%rax, %rdi
 6376 34fa E8000000 		call	_ZN8UnitTest11TestDetailsC1ERKS0_i
 6376      00
 6377              		.loc 3 275 0 is_stmt 0 discriminator 1
 6378 34ff 488B5D80 		movq	-128(%rbp), %rbx
 6379 3503 48C74588 		movq	$5, -120(%rbp)
 6379      05000000 
 6380 350b E8000000 		call	_ZN8UnitTest11CurrentTest7ResultsEv
 6380      00
 6381 3510 488B00   		movq	(%rax), %rax
 6382 3513 488D5590 		leaq	-112(%rbp), %rdx
 6383 3517 488D7588 		leaq	-120(%rbp), %rsi
 6384 351b 4889D1   		movq	%rdx, %rcx
 6385 351e 4889DA   		movq	%rbx, %rdx
 6386 3521 4889C7   		movq	%rax, %rdi
 6387 3524 E8000000 		call	_ZN8UnitTest10CheckEqualImjEEvRNS_11TestResultsERKT_RKT0_RKNS_11TestDetailsE
 6387      00
 6388              	.LEHE315:
 6389              	.L404:
 276:testCore.cpp  **** 	*item = 104;
 6390              		.loc 3 276 0 is_stmt 1
 6391 3529 488B4580 		movq	-128(%rbp), %rax
 6392 352d C7006800 		movl	$104, (%rax)
 6392      0000
 277:testCore.cpp  **** 	queueCommitPut(&queue);
 6393              		.loc 3 277 0
 6394 3533 488D45B0 		leaq	-80(%rbp), %rax
 6395 3537 4889C7   		movq	%rax, %rdi
 6396              	.LEHB316:
 6397 353a E8000000 		call	queueCommitPut
 6397      00
 6398              	.LEHE316:
 6399              	.LEHB317:
 278:testCore.cpp  **** 
 279:testCore.cpp  **** 	// Verify
 280:testCore.cpp  **** 	CHECK_EQUAL(8UL, queue.capacity);
 6400              		.loc 3 280 0
 6401 353f E8000000 		call	_ZN8UnitTest11CurrentTest7DetailsEv
 6401      00
 6402 3544 488B08   		movq	(%rax), %rcx
 6403 3547 488D4590 		leaq	-112(%rbp), %rax
 6404 354b BA180100 		movl	$280, %edx
 6404      00
 6405 3550 4889CE   		movq	%rcx, %rsi
 6406 3553 4889C7   		movq	%rax, %rdi
 6407 3556 E8000000 		call	_ZN8UnitTest11TestDetailsC1ERKS0_i
 6407      00
 6408              		.loc 3 280 0 is_stmt 0 discriminator 1
 6409 355b 48C74588 		movq	$8, -120(%rbp)
 6409      08000000 
 6410 3563 E8000000 		call	_ZN8UnitTest11CurrentTest7ResultsEv
 6410      00
 6411 3568 488B00   		movq	(%rax), %rax
 6412 356b 488D5590 		leaq	-112(%rbp), %rdx
 6413 356f 488D4DB0 		leaq	-80(%rbp), %rcx
 6414 3573 488D7908 		leaq	8(%rcx), %rdi
 6415 3577 488D7588 		leaq	-120(%rbp), %rsi
 6416 357b 4889D1   		movq	%rdx, %rcx
 6417 357e 4889FA   		movq	%rdi, %rdx
 6418 3581 4889C7   		movq	%rax, %rdi
 6419 3584 E8000000 		call	_ZN8UnitTest10CheckEqualImmEEvRNS_11TestResultsERKT_RKT0_RKNS_11TestDetailsE
 6419      00
 6420              	.LEHE317:
 6421              	.L407:
 6422              	.LEHB318:
 281:testCore.cpp  **** 	CHECK_EQUAL(5UL, queue.putIndex);
 6423              		.loc 3 281 0 is_stmt 1
 6424 3589 E8000000 		call	_ZN8UnitTest11CurrentTest7DetailsEv
 6424      00
 6425 358e 488B08   		movq	(%rax), %rcx
 6426 3591 488D4590 		leaq	-112(%rbp), %rax
 6427 3595 BA190100 		movl	$281, %edx
 6427      00
 6428 359a 4889CE   		movq	%rcx, %rsi
 6429 359d 4889C7   		movq	%rax, %rdi
 6430 35a0 E8000000 		call	_ZN8UnitTest11TestDetailsC1ERKS0_i
 6430      00
 6431              		.loc 3 281 0 is_stmt 0 discriminator 1
 6432 35a5 48C74588 		movq	$5, -120(%rbp)
 6432      05000000 
 6433 35ad E8000000 		call	_ZN8UnitTest11CurrentTest7ResultsEv
 6433      00
 6434 35b2 488B00   		movq	(%rax), %rax
 6435 35b5 488D5590 		leaq	-112(%rbp), %rdx
 6436 35b9 488D4DB0 		leaq	-80(%rbp), %rcx
 6437 35bd 488D7910 		leaq	16(%rcx), %rdi
 6438 35c1 488D7588 		leaq	-120(%rbp), %rsi
 6439 35c5 4889D1   		movq	%rdx, %rcx
 6440 35c8 4889FA   		movq	%rdi, %rdx
 6441 35cb 4889C7   		movq	%rax, %rdi
 6442 35ce E8000000 		call	_ZN8UnitTest10CheckEqualImmEEvRNS_11TestResultsERKT_RKT0_RKNS_11TestDetailsE
 6442      00
 6443              	.LEHE318:
 6444              	.L410:
 6445              	.LEHB319:
 282:testCore.cpp  **** 	CHECK_EQUAL(0UL, queue.takeIndex);
 6446              		.loc 3 282 0 is_stmt 1
 6447 35d3 E8000000 		call	_ZN8UnitTest11CurrentTest7DetailsEv
 6447      00
 6448 35d8 488B08   		movq	(%rax), %rcx
 6449 35db 488D4590 		leaq	-112(%rbp), %rax
 6450 35df BA1A0100 		movl	$282, %edx
 6450      00
 6451 35e4 4889CE   		movq	%rcx, %rsi
 6452 35e7 4889C7   		movq	%rax, %rdi
 6453 35ea E8000000 		call	_ZN8UnitTest11TestDetailsC1ERKS0_i
 6453      00
 6454              		.loc 3 282 0 is_stmt 0 discriminator 1
 6455 35ef 48C74588 		movq	$0, -120(%rbp)
 6455      00000000 
 6456 35f7 E8000000 		call	_ZN8UnitTest11CurrentTest7ResultsEv
 6456      00
 6457 35fc 488B00   		movq	(%rax), %rax
 6458 35ff 488D5590 		leaq	-112(%rbp), %rdx
 6459 3603 488D4DB0 		leaq	-80(%rbp), %rcx
 6460 3607 488D7918 		leaq	24(%rcx), %rdi
 6461 360b 488D7588 		leaq	-120(%rbp), %rsi
 6462 360f 4889D1   		movq	%rdx, %rcx
 6463 3612 4889FA   		movq	%rdi, %rdx
 6464 3615 4889C7   		movq	%rax, %rdi
 6465 3618 E8000000 		call	_ZN8UnitTest10CheckEqualImmEEvRNS_11TestResultsERKT_RKT0_RKNS_11TestDetailsE
 6465      00
 6466              	.LEHE319:
 6467              	.L413:
 6468              	.LEHB320:
 283:testCore.cpp  **** 	CHECK_EQUAL(5UL, queue.numItems);
 6469              		.loc 3 283 0 is_stmt 1
 6470 361d E8000000 		call	_ZN8UnitTest11CurrentTest7DetailsEv
 6470      00
 6471 3622 488B08   		movq	(%rax), %rcx
 6472 3625 488D4590 		leaq	-112(%rbp), %rax
 6473 3629 BA1B0100 		movl	$283, %edx
 6473      00
 6474 362e 4889CE   		movq	%rcx, %rsi
 6475 3631 4889C7   		movq	%rax, %rdi
 6476 3634 E8000000 		call	_ZN8UnitTest11TestDetailsC1ERKS0_i
 6476      00
 6477              		.loc 3 283 0 is_stmt 0 discriminator 1
 6478 3639 48C74588 		movq	$5, -120(%rbp)
 6478      05000000 
 6479 3641 E8000000 		call	_ZN8UnitTest11CurrentTest7ResultsEv
 6479      00
 6480 3646 488B00   		movq	(%rax), %rax
 6481 3649 488D5590 		leaq	-112(%rbp), %rdx
 6482 364d 488D4DB0 		leaq	-80(%rbp), %rcx
 6483 3651 488D7920 		leaq	32(%rcx), %rdi
 6484 3655 488D7588 		leaq	-120(%rbp), %rsi
 6485 3659 4889D1   		movq	%rdx, %rcx
 6486 365c 4889FA   		movq	%rdi, %rdx
 6487 365f 4889C7   		movq	%rax, %rdi
 6488 3662 E8000000 		call	_ZN8UnitTest10CheckEqualImmEEvRNS_11TestResultsERKT_RKT0_RKNS_11TestDetailsE
 6488      00
 6489              	.LEHE320:
 6490              	.L416:
 6491              	.LEHB321:
 284:testCore.cpp  **** 
 285:testCore.cpp  **** 	// Verify array
 286:testCore.cpp  **** 	CHECK_EQUAL(100UL, deref(queue.itemArray[0]));
 6492              		.loc 3 286 0 is_stmt 1
 6493 3667 E8000000 		call	_ZN8UnitTest11CurrentTest7DetailsEv
 6493      00
 6494 366c 488B08   		movq	(%rax), %rcx
 6495 366f 488D4590 		leaq	-112(%rbp), %rax
 6496 3673 BA1E0100 		movl	$286, %edx
 6496      00
 6497 3678 4889CE   		movq	%rcx, %rsi
 6498 367b 4889C7   		movq	%rax, %rdi
 6499 367e E8000000 		call	_ZN8UnitTest11TestDetailsC1ERKS0_i
 6499      00
 6500              		.loc 3 286 0 is_stmt 0 discriminator 1
 6501 3683 488B45B0 		movq	-80(%rbp), %rax
 6502 3687 488B00   		movq	(%rax), %rax
 6503 368a 4889C7   		movq	%rax, %rdi
 6504 368d E8F7C9FF 		call	_ZL5derefPKv
 6504      FF
 6505 3692 89857CFF 		movl	%eax, -132(%rbp)
 6505      FFFF
 6506 3698 48C74588 		movq	$100, -120(%rbp)
 6506      64000000 
 6507 36a0 E8000000 		call	_ZN8UnitTest11CurrentTest7ResultsEv
 6507      00
 6508 36a5 488B00   		movq	(%rax), %rax
 6509 36a8 488D4D90 		leaq	-112(%rbp), %rcx
 6510 36ac 488D957C 		leaq	-132(%rbp), %rdx
 6510      FFFFFF
 6511 36b3 488D7588 		leaq	-120(%rbp), %rsi
 6512 36b7 4889C7   		movq	%rax, %rdi
 6513 36ba E8000000 		call	_ZN8UnitTest10CheckEqualImjEEvRNS_11TestResultsERKT_RKT0_RKNS_11TestDetailsE
 6513      00
 6514              	.LEHE321:
 6515              	.L419:
 6516              	.LEHB322:
 287:testCore.cpp  **** 	CHECK_EQUAL(101UL, deref(queue.itemArray[1]));
 6517              		.loc 3 287 0 is_stmt 1
 6518 36bf E8000000 		call	_ZN8UnitTest11CurrentTest7DetailsEv
 6518      00
 6519 36c4 488B08   		movq	(%rax), %rcx
 6520 36c7 488D4590 		leaq	-112(%rbp), %rax
 6521 36cb BA1F0100 		movl	$287, %edx
 6521      00
 6522 36d0 4889CE   		movq	%rcx, %rsi
 6523 36d3 4889C7   		movq	%rax, %rdi
 6524 36d6 E8000000 		call	_ZN8UnitTest11TestDetailsC1ERKS0_i
 6524      00
 6525              		.loc 3 287 0 is_stmt 0 discriminator 1
 6526 36db 488B45B0 		movq	-80(%rbp), %rax
 6527 36df 4883C008 		addq	$8, %rax
 6528 36e3 488B00   		movq	(%rax), %rax
 6529 36e6 4889C7   		movq	%rax, %rdi
 6530 36e9 E89BC9FF 		call	_ZL5derefPKv
 6530      FF
 6531 36ee 89857CFF 		movl	%eax, -132(%rbp)
 6531      FFFF
 6532 36f4 48C74588 		movq	$101, -120(%rbp)
 6532      65000000 
 6533 36fc E8000000 		call	_ZN8UnitTest11CurrentTest7ResultsEv
 6533      00
 6534 3701 488B00   		movq	(%rax), %rax
 6535 3704 488D4D90 		leaq	-112(%rbp), %rcx
 6536 3708 488D957C 		leaq	-132(%rbp), %rdx
 6536      FFFFFF
 6537 370f 488D7588 		leaq	-120(%rbp), %rsi
 6538 3713 4889C7   		movq	%rax, %rdi
 6539 3716 E8000000 		call	_ZN8UnitTest10CheckEqualImjEEvRNS_11TestResultsERKT_RKT0_RKNS_11TestDetailsE
 6539      00
 6540              	.LEHE322:
 6541              	.L422:
 6542              	.LEHB323:
 288:testCore.cpp  **** 	CHECK_EQUAL(102UL, deref(queue.itemArray[2]));
 6543              		.loc 3 288 0 is_stmt 1
 6544 371b E8000000 		call	_ZN8UnitTest11CurrentTest7DetailsEv
 6544      00
 6545 3720 488B08   		movq	(%rax), %rcx
 6546 3723 488D4590 		leaq	-112(%rbp), %rax
 6547 3727 BA200100 		movl	$288, %edx
 6547      00
 6548 372c 4889CE   		movq	%rcx, %rsi
 6549 372f 4889C7   		movq	%rax, %rdi
 6550 3732 E8000000 		call	_ZN8UnitTest11TestDetailsC1ERKS0_i
 6550      00
 6551              		.loc 3 288 0 is_stmt 0 discriminator 1
 6552 3737 488B45B0 		movq	-80(%rbp), %rax
 6553 373b 4883C010 		addq	$16, %rax
 6554 373f 488B00   		movq	(%rax), %rax
 6555 3742 4889C7   		movq	%rax, %rdi
 6556 3745 E83FC9FF 		call	_ZL5derefPKv
 6556      FF
 6557 374a 89857CFF 		movl	%eax, -132(%rbp)
 6557      FFFF
 6558 3750 48C74588 		movq	$102, -120(%rbp)
 6558      66000000 
 6559 3758 E8000000 		call	_ZN8UnitTest11CurrentTest7ResultsEv
 6559      00
 6560 375d 488B00   		movq	(%rax), %rax
 6561 3760 488D4D90 		leaq	-112(%rbp), %rcx
 6562 3764 488D957C 		leaq	-132(%rbp), %rdx
 6562      FFFFFF
 6563 376b 488D7588 		leaq	-120(%rbp), %rsi
 6564 376f 4889C7   		movq	%rax, %rdi
 6565 3772 E8000000 		call	_ZN8UnitTest10CheckEqualImjEEvRNS_11TestResultsERKT_RKT0_RKNS_11TestDetailsE
 6565      00
 6566              	.LEHE323:
 6567              	.L425:
 6568              	.LEHB324:
 289:testCore.cpp  **** 	CHECK_EQUAL(103UL, deref(queue.itemArray[3]));
 6569              		.loc 3 289 0 is_stmt 1
 6570 3777 E8000000 		call	_ZN8UnitTest11CurrentTest7DetailsEv
 6570      00
 6571 377c 488B08   		movq	(%rax), %rcx
 6572 377f 488D4590 		leaq	-112(%rbp), %rax
 6573 3783 BA210100 		movl	$289, %edx
 6573      00
 6574 3788 4889CE   		movq	%rcx, %rsi
 6575 378b 4889C7   		movq	%rax, %rdi
 6576 378e E8000000 		call	_ZN8UnitTest11TestDetailsC1ERKS0_i
 6576      00
 6577              		.loc 3 289 0 is_stmt 0 discriminator 1
 6578 3793 488B45B0 		movq	-80(%rbp), %rax
 6579 3797 4883C018 		addq	$24, %rax
 6580 379b 488B00   		movq	(%rax), %rax
 6581 379e 4889C7   		movq	%rax, %rdi
 6582 37a1 E8E3C8FF 		call	_ZL5derefPKv
 6582      FF
 6583 37a6 89857CFF 		movl	%eax, -132(%rbp)
 6583      FFFF
 6584 37ac 48C74588 		movq	$103, -120(%rbp)
 6584      67000000 
 6585 37b4 E8000000 		call	_ZN8UnitTest11CurrentTest7ResultsEv
 6585      00
 6586 37b9 488B00   		movq	(%rax), %rax
 6587 37bc 488D4D90 		leaq	-112(%rbp), %rcx
 6588 37c0 488D957C 		leaq	-132(%rbp), %rdx
 6588      FFFFFF
 6589 37c7 488D7588 		leaq	-120(%rbp), %rsi
 6590 37cb 4889C7   		movq	%rax, %rdi
 6591 37ce E8000000 		call	_ZN8UnitTest10CheckEqualImjEEvRNS_11TestResultsERKT_RKT0_RKNS_11TestDetailsE
 6591      00
 6592              	.LEHE324:
 6593              	.L428:
 6594              	.LEHB325:
 290:testCore.cpp  **** 	CHECK_EQUAL(104UL, deref(queue.itemArray[4]));
 6595              		.loc 3 290 0 is_stmt 1
 6596 37d3 E8000000 		call	_ZN8UnitTest11CurrentTest7DetailsEv
 6596      00
 6597 37d8 488B08   		movq	(%rax), %rcx
 6598 37db 488D4590 		leaq	-112(%rbp), %rax
 6599 37df BA220100 		movl	$290, %edx
 6599      00
 6600 37e4 4889CE   		movq	%rcx, %rsi
 6601 37e7 4889C7   		movq	%rax, %rdi
 6602 37ea E8000000 		call	_ZN8UnitTest11TestDetailsC1ERKS0_i
 6602      00
 6603              		.loc 3 290 0 is_stmt 0 discriminator 1
 6604 37ef 488B45B0 		movq	-80(%rbp), %rax
 6605 37f3 4883C020 		addq	$32, %rax
 6606 37f7 488B00   		movq	(%rax), %rax
 6607 37fa 4889C7   		movq	%rax, %rdi
 6608 37fd E887C8FF 		call	_ZL5derefPKv
 6608      FF
 6609 3802 89857CFF 		movl	%eax, -132(%rbp)
 6609      FFFF
 6610 3808 48C74588 		movq	$104, -120(%rbp)
 6610      68000000 
 6611 3810 E8000000 		call	_ZN8UnitTest11CurrentTest7ResultsEv
 6611      00
 6612 3815 488B00   		movq	(%rax), %rax
 6613 3818 488D4D90 		leaq	-112(%rbp), %rcx
 6614 381c 488D957C 		leaq	-132(%rbp), %rdx
 6614      FFFFFF
 6615 3823 488D7588 		leaq	-120(%rbp), %rsi
 6616 3827 4889C7   		movq	%rax, %rdi
 6617 382a E8000000 		call	_ZN8UnitTest10CheckEqualImjEEvRNS_11TestResultsERKT_RKT0_RKNS_11TestDetailsE
 6617      00
 6618              	.LEHE325:
 6619              	.L431:
 6620              	.LEHB326:
 291:testCore.cpp  **** 	CHECK_EQUAL(6UL, deref(queue.itemArray[5]));
 6621              		.loc 3 291 0 is_stmt 1
 6622 382f E8000000 		call	_ZN8UnitTest11CurrentTest7DetailsEv
 6622      00
 6623 3834 488B08   		movq	(%rax), %rcx
 6624 3837 488D4590 		leaq	-112(%rbp), %rax
 6625 383b BA230100 		movl	$291, %edx
 6625      00
 6626 3840 4889CE   		movq	%rcx, %rsi
 6627 3843 4889C7   		movq	%rax, %rdi
 6628 3846 E8000000 		call	_ZN8UnitTest11TestDetailsC1ERKS0_i
 6628      00
 6629              		.loc 3 291 0 is_stmt 0 discriminator 1
 6630 384b 488B45B0 		movq	-80(%rbp), %rax
 6631 384f 4883C028 		addq	$40, %rax
 6632 3853 488B00   		movq	(%rax), %rax
 6633 3856 4889C7   		movq	%rax, %rdi
 6634 3859 E82BC8FF 		call	_ZL5derefPKv
 6634      FF
 6635 385e 89857CFF 		movl	%eax, -132(%rbp)
 6635      FFFF
 6636 3864 48C74588 		movq	$6, -120(%rbp)
 6636      06000000 
 6637 386c E8000000 		call	_ZN8UnitTest11CurrentTest7ResultsEv
 6637      00
 6638 3871 488B00   		movq	(%rax), %rax
 6639 3874 488D4D90 		leaq	-112(%rbp), %rcx
 6640 3878 488D957C 		leaq	-132(%rbp), %rdx
 6640      FFFFFF
 6641 387f 488D7588 		leaq	-120(%rbp), %rsi
 6642 3883 4889C7   		movq	%rax, %rdi
 6643 3886 E8000000 		call	_ZN8UnitTest10CheckEqualImjEEvRNS_11TestResultsERKT_RKT0_RKNS_11TestDetailsE
 6643      00
 6644              	.LEHE326:
 6645              	.L434:
 6646              	.LEHB327:
 292:testCore.cpp  **** 	CHECK_EQUAL(7UL, deref(queue.itemArray[6]));
 6647              		.loc 3 292 0 is_stmt 1
 6648 388b E8000000 		call	_ZN8UnitTest11CurrentTest7DetailsEv
 6648      00
 6649 3890 488B08   		movq	(%rax), %rcx
 6650 3893 488D4590 		leaq	-112(%rbp), %rax
 6651 3897 BA240100 		movl	$292, %edx
 6651      00
 6652 389c 4889CE   		movq	%rcx, %rsi
 6653 389f 4889C7   		movq	%rax, %rdi
 6654 38a2 E8000000 		call	_ZN8UnitTest11TestDetailsC1ERKS0_i
 6654      00
 6655              		.loc 3 292 0 is_stmt 0 discriminator 1
 6656 38a7 488B45B0 		movq	-80(%rbp), %rax
 6657 38ab 4883C030 		addq	$48, %rax
 6658 38af 488B00   		movq	(%rax), %rax
 6659 38b2 4889C7   		movq	%rax, %rdi
 6660 38b5 E8CFC7FF 		call	_ZL5derefPKv
 6660      FF
 6661 38ba 89857CFF 		movl	%eax, -132(%rbp)
 6661      FFFF
 6662 38c0 48C74588 		movq	$7, -120(%rbp)
 6662      07000000 
 6663 38c8 E8000000 		call	_ZN8UnitTest11CurrentTest7ResultsEv
 6663      00
 6664 38cd 488B00   		movq	(%rax), %rax
 6665 38d0 488D4D90 		leaq	-112(%rbp), %rcx
 6666 38d4 488D957C 		leaq	-132(%rbp), %rdx
 6666      FFFFFF
 6667 38db 488D7588 		leaq	-120(%rbp), %rsi
 6668 38df 4889C7   		movq	%rax, %rdi
 6669 38e2 E8000000 		call	_ZN8UnitTest10CheckEqualImjEEvRNS_11TestResultsERKT_RKT0_RKNS_11TestDetailsE
 6669      00
 6670              	.LEHE327:
 6671              	.L437:
 6672              	.LEHB328:
 293:testCore.cpp  **** 	CHECK_EQUAL(8UL, deref(queue.itemArray[7]));
 6673              		.loc 3 293 0 is_stmt 1
 6674 38e7 E8000000 		call	_ZN8UnitTest11CurrentTest7DetailsEv
 6674      00
 6675 38ec 488B08   		movq	(%rax), %rcx
 6676 38ef 488D4590 		leaq	-112(%rbp), %rax
 6677 38f3 BA250100 		movl	$293, %edx
 6677      00
 6678 38f8 4889CE   		movq	%rcx, %rsi
 6679 38fb 4889C7   		movq	%rax, %rdi
 6680 38fe E8000000 		call	_ZN8UnitTest11TestDetailsC1ERKS0_i
 6680      00
 6681              		.loc 3 293 0 is_stmt 0 discriminator 1
 6682 3903 488B45B0 		movq	-80(%rbp), %rax
 6683 3907 4883C038 		addq	$56, %rax
 6684 390b 488B00   		movq	(%rax), %rax
 6685 390e 4889C7   		movq	%rax, %rdi
 6686 3911 E873C7FF 		call	_ZL5derefPKv
 6686      FF
 6687 3916 89857CFF 		movl	%eax, -132(%rbp)
 6687      FFFF
 6688 391c 48C74588 		movq	$8, -120(%rbp)
 6688      08000000 
 6689 3924 E8000000 		call	_ZN8UnitTest11CurrentTest7ResultsEv
 6689      00
 6690 3929 488B00   		movq	(%rax), %rax
 6691 392c 488D4D90 		leaq	-112(%rbp), %rcx
 6692 3930 488D957C 		leaq	-132(%rbp), %rdx
 6692      FFFFFF
 6693 3937 488D7588 		leaq	-120(%rbp), %rsi
 6694 393b 4889C7   		movq	%rax, %rdi
 6695 393e E8000000 		call	_ZN8UnitTest10CheckEqualImjEEvRNS_11TestResultsERKT_RKT0_RKNS_11TestDetailsE
 6695      00
 6696              	.LEHE328:
 6697              	.L440:
 294:testCore.cpp  **** 
 295:testCore.cpp  **** 	// Take five items out of the queue
 296:testCore.cpp  **** 	status = queueTake(&queue, (Item*)&item);
 6698              		.loc 3 296 0 is_stmt 1
 6699 3943 488D5580 		leaq	-128(%rbp), %rdx
 6700 3947 488D45B0 		leaq	-80(%rbp), %rax
 6701 394b 4889D6   		movq	%rdx, %rsi
 6702 394e 4889C7   		movq	%rax, %rdi
 6703              	.LEHB329:
 6704 3951 E8000000 		call	queueTake
 6704      00
 6705              	.LEHE329:
 6706 3956 898578FF 		movl	%eax, -136(%rbp)
 6706      FFFF
 6707              	.LEHB330:
 297:testCore.cpp  **** 	CHECK_EQUAL(USB_SUCCESS, status);
 6708              		.loc 3 297 0
 6709 395c E8000000 		call	_ZN8UnitTest11CurrentTest7DetailsEv
 6709      00
 6710 3961 488B08   		movq	(%rax), %rcx
 6711 3964 488D4590 		leaq	-112(%rbp), %rax
 6712 3968 BA290100 		movl	$297, %edx
 6712      00
 6713 396d 4889CE   		movq	%rcx, %rsi
 6714 3970 4889C7   		movq	%rax, %rdi
 6715 3973 E8000000 		call	_ZN8UnitTest11TestDetailsC1ERKS0_i
 6715      00
 6716              		.loc 3 297 0 is_stmt 0 discriminator 1
 6717 3978 C7458800 		movl	$0, -120(%rbp)
 6717      000000
 6718 397f E8000000 		call	_ZN8UnitTest11CurrentTest7ResultsEv
 6718      00
 6719 3984 488B00   		movq	(%rax), %rax
 6720 3987 488D4D90 		leaq	-112(%rbp), %rcx
 6721 398b 488D9578 		leaq	-136(%rbp), %rdx
 6721      FFFFFF
 6722 3992 488D7588 		leaq	-120(%rbp), %rsi
 6723 3996 4889C7   		movq	%rax, %rdi
 6724 3999 E8000000 		call	_ZN8UnitTest10CheckEqualI9USBStatusS1_EEvRNS_11TestResultsERKT_RKT0_RKNS_11TestDetailsE
 6724      00
 6725              	.LEHE330:
 6726              	.L443:
 6727              	.LEHB331:
 298:testCore.cpp  **** 	CHECK_EQUAL(100UL, *item);
 6728              		.loc 3 298 0 is_stmt 1
 6729 399e E8000000 		call	_ZN8UnitTest11CurrentTest7DetailsEv
 6729      00
 6730 39a3 488B08   		movq	(%rax), %rcx
 6731 39a6 488D4590 		leaq	-112(%rbp), %rax
 6732 39aa BA2A0100 		movl	$298, %edx
 6732      00
 6733 39af 4889CE   		movq	%rcx, %rsi
 6734 39b2 4889C7   		movq	%rax, %rdi
 6735 39b5 E8000000 		call	_ZN8UnitTest11TestDetailsC1ERKS0_i
 6735      00
 6736              		.loc 3 298 0 is_stmt 0 discriminator 1
 6737 39ba 488B5D80 		movq	-128(%rbp), %rbx
 6738 39be 48C74588 		movq	$100, -120(%rbp)
 6738      64000000 
 6739 39c6 E8000000 		call	_ZN8UnitTest11CurrentTest7ResultsEv
 6739      00
 6740 39cb 488B00   		movq	(%rax), %rax
 6741 39ce 488D5590 		leaq	-112(%rbp), %rdx
 6742 39d2 488D7588 		leaq	-120(%rbp), %rsi
 6743 39d6 4889D1   		movq	%rdx, %rcx
 6744 39d9 4889DA   		movq	%rbx, %rdx
 6745 39dc 4889C7   		movq	%rax, %rdi
 6746 39df E8000000 		call	_ZN8UnitTest10CheckEqualImjEEvRNS_11TestResultsERKT_RKT0_RKNS_11TestDetailsE
 6746      00
 6747              	.LEHE331:
 6748              	.L446:
 299:testCore.cpp  **** 	queueCommitTake(&queue);
 6749              		.loc 3 299 0 is_stmt 1
 6750 39e4 488D45B0 		leaq	-80(%rbp), %rax
 6751 39e8 4889C7   		movq	%rax, %rdi
 6752              	.LEHB332:
 6753 39eb E8000000 		call	queueCommitTake
 6753      00
 300:testCore.cpp  **** 	status = queueTake(&queue, (Item*)&item);
 6754              		.loc 3 300 0
 6755 39f0 488D5580 		leaq	-128(%rbp), %rdx
 6756 39f4 488D45B0 		leaq	-80(%rbp), %rax
 6757 39f8 4889D6   		movq	%rdx, %rsi
 6758 39fb 4889C7   		movq	%rax, %rdi
 6759 39fe E8000000 		call	queueTake
 6759      00
 6760              	.LEHE332:
 6761 3a03 898578FF 		movl	%eax, -136(%rbp)
 6761      FFFF
 6762              	.LEHB333:
 301:testCore.cpp  **** 	CHECK_EQUAL(USB_SUCCESS, status);
 6763              		.loc 3 301 0
 6764 3a09 E8000000 		call	_ZN8UnitTest11CurrentTest7DetailsEv
 6764      00
 6765 3a0e 488B08   		movq	(%rax), %rcx
 6766 3a11 488D4590 		leaq	-112(%rbp), %rax
 6767 3a15 BA2D0100 		movl	$301, %edx
 6767      00
 6768 3a1a 4889CE   		movq	%rcx, %rsi
 6769 3a1d 4889C7   		movq	%rax, %rdi
 6770 3a20 E8000000 		call	_ZN8UnitTest11TestDetailsC1ERKS0_i
 6770      00
 6771              		.loc 3 301 0 is_stmt 0 discriminator 1
 6772 3a25 C7458800 		movl	$0, -120(%rbp)
 6772      000000
 6773 3a2c E8000000 		call	_ZN8UnitTest11CurrentTest7ResultsEv
 6773      00
 6774 3a31 488B00   		movq	(%rax), %rax
 6775 3a34 488D4D90 		leaq	-112(%rbp), %rcx
 6776 3a38 488D9578 		leaq	-136(%rbp), %rdx
 6776      FFFFFF
 6777 3a3f 488D7588 		leaq	-120(%rbp), %rsi
 6778 3a43 4889C7   		movq	%rax, %rdi
 6779 3a46 E8000000 		call	_ZN8UnitTest10CheckEqualI9USBStatusS1_EEvRNS_11TestResultsERKT_RKT0_RKNS_11TestDetailsE
 6779      00
 6780              	.LEHE333:
 6781              	.L449:
 6782              	.LEHB334:
 302:testCore.cpp  **** 	CHECK_EQUAL(101UL, *item);
 6783              		.loc 3 302 0 is_stmt 1
 6784 3a4b E8000000 		call	_ZN8UnitTest11CurrentTest7DetailsEv
 6784      00
 6785 3a50 488B08   		movq	(%rax), %rcx
 6786 3a53 488D4590 		leaq	-112(%rbp), %rax
 6787 3a57 BA2E0100 		movl	$302, %edx
 6787      00
 6788 3a5c 4889CE   		movq	%rcx, %rsi
 6789 3a5f 4889C7   		movq	%rax, %rdi
 6790 3a62 E8000000 		call	_ZN8UnitTest11TestDetailsC1ERKS0_i
 6790      00
 6791              		.loc 3 302 0 is_stmt 0 discriminator 1
 6792 3a67 488B5D80 		movq	-128(%rbp), %rbx
 6793 3a6b 48C74588 		movq	$101, -120(%rbp)
 6793      65000000 
 6794 3a73 E8000000 		call	_ZN8UnitTest11CurrentTest7ResultsEv
 6794      00
 6795 3a78 488B00   		movq	(%rax), %rax
 6796 3a7b 488D5590 		leaq	-112(%rbp), %rdx
 6797 3a7f 488D7588 		leaq	-120(%rbp), %rsi
 6798 3a83 4889D1   		movq	%rdx, %rcx
 6799 3a86 4889DA   		movq	%rbx, %rdx
 6800 3a89 4889C7   		movq	%rax, %rdi
 6801 3a8c E8000000 		call	_ZN8UnitTest10CheckEqualImjEEvRNS_11TestResultsERKT_RKT0_RKNS_11TestDetailsE
 6801      00
 6802              	.LEHE334:
 6803              	.L452:
 303:testCore.cpp  **** 	queueCommitTake(&queue);
 6804              		.loc 3 303 0 is_stmt 1
 6805 3a91 488D45B0 		leaq	-80(%rbp), %rax
 6806 3a95 4889C7   		movq	%rax, %rdi
 6807              	.LEHB335:
 6808 3a98 E8000000 		call	queueCommitTake
 6808      00
 304:testCore.cpp  **** 	status = queueTake(&queue, (Item*)&item);
 6809              		.loc 3 304 0
 6810 3a9d 488D5580 		leaq	-128(%rbp), %rdx
 6811 3aa1 488D45B0 		leaq	-80(%rbp), %rax
 6812 3aa5 4889D6   		movq	%rdx, %rsi
 6813 3aa8 4889C7   		movq	%rax, %rdi
 6814 3aab E8000000 		call	queueTake
 6814      00
 6815              	.LEHE335:
 6816 3ab0 898578FF 		movl	%eax, -136(%rbp)
 6816      FFFF
 6817              	.LEHB336:
 305:testCore.cpp  **** 	CHECK_EQUAL(USB_SUCCESS, status);
 6818              		.loc 3 305 0
 6819 3ab6 E8000000 		call	_ZN8UnitTest11CurrentTest7DetailsEv
 6819      00
 6820 3abb 488B08   		movq	(%rax), %rcx
 6821 3abe 488D4590 		leaq	-112(%rbp), %rax
 6822 3ac2 BA310100 		movl	$305, %edx
 6822      00
 6823 3ac7 4889CE   		movq	%rcx, %rsi
 6824 3aca 4889C7   		movq	%rax, %rdi
 6825 3acd E8000000 		call	_ZN8UnitTest11TestDetailsC1ERKS0_i
 6825      00
 6826              		.loc 3 305 0 is_stmt 0 discriminator 1
 6827 3ad2 C7458800 		movl	$0, -120(%rbp)
 6827      000000
 6828 3ad9 E8000000 		call	_ZN8UnitTest11CurrentTest7ResultsEv
 6828      00
 6829 3ade 488B00   		movq	(%rax), %rax
 6830 3ae1 488D4D90 		leaq	-112(%rbp), %rcx
 6831 3ae5 488D9578 		leaq	-136(%rbp), %rdx
 6831      FFFFFF
 6832 3aec 488D7588 		leaq	-120(%rbp), %rsi
 6833 3af0 4889C7   		movq	%rax, %rdi
 6834 3af3 E8000000 		call	_ZN8UnitTest10CheckEqualI9USBStatusS1_EEvRNS_11TestResultsERKT_RKT0_RKNS_11TestDetailsE
 6834      00
 6835              	.LEHE336:
 6836              	.L455:
 6837              	.LEHB337:
 306:testCore.cpp  **** 	CHECK_EQUAL(102UL, *item);
 6838              		.loc 3 306 0 is_stmt 1
 6839 3af8 E8000000 		call	_ZN8UnitTest11CurrentTest7DetailsEv
 6839      00
 6840 3afd 488B08   		movq	(%rax), %rcx
 6841 3b00 488D4590 		leaq	-112(%rbp), %rax
 6842 3b04 BA320100 		movl	$306, %edx
 6842      00
 6843 3b09 4889CE   		movq	%rcx, %rsi
 6844 3b0c 4889C7   		movq	%rax, %rdi
 6845 3b0f E8000000 		call	_ZN8UnitTest11TestDetailsC1ERKS0_i
 6845      00
 6846              		.loc 3 306 0 is_stmt 0 discriminator 1
 6847 3b14 488B5D80 		movq	-128(%rbp), %rbx
 6848 3b18 48C74588 		movq	$102, -120(%rbp)
 6848      66000000 
 6849 3b20 E8000000 		call	_ZN8UnitTest11CurrentTest7ResultsEv
 6849      00
 6850 3b25 488B00   		movq	(%rax), %rax
 6851 3b28 488D5590 		leaq	-112(%rbp), %rdx
 6852 3b2c 488D7588 		leaq	-120(%rbp), %rsi
 6853 3b30 4889D1   		movq	%rdx, %rcx
 6854 3b33 4889DA   		movq	%rbx, %rdx
 6855 3b36 4889C7   		movq	%rax, %rdi
 6856 3b39 E8000000 		call	_ZN8UnitTest10CheckEqualImjEEvRNS_11TestResultsERKT_RKT0_RKNS_11TestDetailsE
 6856      00
 6857              	.LEHE337:
 6858              	.L458:
 307:testCore.cpp  **** 	queueCommitTake(&queue);
 6859              		.loc 3 307 0 is_stmt 1
 6860 3b3e 488D45B0 		leaq	-80(%rbp), %rax
 6861 3b42 4889C7   		movq	%rax, %rdi
 6862              	.LEHB338:
 6863 3b45 E8000000 		call	queueCommitTake
 6863      00
 308:testCore.cpp  **** 	status = queueTake(&queue, (Item*)&item);
 6864              		.loc 3 308 0
 6865 3b4a 488D5580 		leaq	-128(%rbp), %rdx
 6866 3b4e 488D45B0 		leaq	-80(%rbp), %rax
 6867 3b52 4889D6   		movq	%rdx, %rsi
 6868 3b55 4889C7   		movq	%rax, %rdi
 6869 3b58 E8000000 		call	queueTake
 6869      00
 6870              	.LEHE338:
 6871 3b5d 898578FF 		movl	%eax, -136(%rbp)
 6871      FFFF
 6872              	.LEHB339:
 309:testCore.cpp  **** 	CHECK_EQUAL(USB_SUCCESS, status);
 6873              		.loc 3 309 0
 6874 3b63 E8000000 		call	_ZN8UnitTest11CurrentTest7DetailsEv
 6874      00
 6875 3b68 488B08   		movq	(%rax), %rcx
 6876 3b6b 488D4590 		leaq	-112(%rbp), %rax
 6877 3b6f BA350100 		movl	$309, %edx
 6877      00
 6878 3b74 4889CE   		movq	%rcx, %rsi
 6879 3b77 4889C7   		movq	%rax, %rdi
 6880 3b7a E8000000 		call	_ZN8UnitTest11TestDetailsC1ERKS0_i
 6880      00
 6881              		.loc 3 309 0 is_stmt 0 discriminator 1
 6882 3b7f C7458800 		movl	$0, -120(%rbp)
 6882      000000
 6883 3b86 E8000000 		call	_ZN8UnitTest11CurrentTest7ResultsEv
 6883      00
 6884 3b8b 488B00   		movq	(%rax), %rax
 6885 3b8e 488D4D90 		leaq	-112(%rbp), %rcx
 6886 3b92 488D9578 		leaq	-136(%rbp), %rdx
 6886      FFFFFF
 6887 3b99 488D7588 		leaq	-120(%rbp), %rsi
 6888 3b9d 4889C7   		movq	%rax, %rdi
 6889 3ba0 E8000000 		call	_ZN8UnitTest10CheckEqualI9USBStatusS1_EEvRNS_11TestResultsERKT_RKT0_RKNS_11TestDetailsE
 6889      00
 6890              	.LEHE339:
 6891              	.L461:
 6892              	.LEHB340:
 310:testCore.cpp  **** 	CHECK_EQUAL(103UL, *item);
 6893              		.loc 3 310 0 is_stmt 1
 6894 3ba5 E8000000 		call	_ZN8UnitTest11CurrentTest7DetailsEv
 6894      00
 6895 3baa 488B08   		movq	(%rax), %rcx
 6896 3bad 488D4590 		leaq	-112(%rbp), %rax
 6897 3bb1 BA360100 		movl	$310, %edx
 6897      00
 6898 3bb6 4889CE   		movq	%rcx, %rsi
 6899 3bb9 4889C7   		movq	%rax, %rdi
 6900 3bbc E8000000 		call	_ZN8UnitTest11TestDetailsC1ERKS0_i
 6900      00
 6901              		.loc 3 310 0 is_stmt 0 discriminator 1
 6902 3bc1 488B5D80 		movq	-128(%rbp), %rbx
 6903 3bc5 48C74588 		movq	$103, -120(%rbp)
 6903      67000000 
 6904 3bcd E8000000 		call	_ZN8UnitTest11CurrentTest7ResultsEv
 6904      00
 6905 3bd2 488B00   		movq	(%rax), %rax
 6906 3bd5 488D5590 		leaq	-112(%rbp), %rdx
 6907 3bd9 488D7588 		leaq	-120(%rbp), %rsi
 6908 3bdd 4889D1   		movq	%rdx, %rcx
 6909 3be0 4889DA   		movq	%rbx, %rdx
 6910 3be3 4889C7   		movq	%rax, %rdi
 6911 3be6 E8000000 		call	_ZN8UnitTest10CheckEqualImjEEvRNS_11TestResultsERKT_RKT0_RKNS_11TestDetailsE
 6911      00
 6912              	.LEHE340:
 6913              	.L464:
 311:testCore.cpp  **** 	queueCommitTake(&queue);
 6914              		.loc 3 311 0 is_stmt 1
 6915 3beb 488D45B0 		leaq	-80(%rbp), %rax
 6916 3bef 4889C7   		movq	%rax, %rdi
 6917              	.LEHB341:
 6918 3bf2 E8000000 		call	queueCommitTake
 6918      00
 312:testCore.cpp  **** 	status = queueTake(&queue, (Item*)&item);
 6919              		.loc 3 312 0
 6920 3bf7 488D5580 		leaq	-128(%rbp), %rdx
 6921 3bfb 488D45B0 		leaq	-80(%rbp), %rax
 6922 3bff 4889D6   		movq	%rdx, %rsi
 6923 3c02 4889C7   		movq	%rax, %rdi
 6924 3c05 E8000000 		call	queueTake
 6924      00
 6925              	.LEHE341:
 6926 3c0a 898578FF 		movl	%eax, -136(%rbp)
 6926      FFFF
 6927              	.LEHB342:
 313:testCore.cpp  **** 	CHECK_EQUAL(USB_SUCCESS, status);
 6928              		.loc 3 313 0
 6929 3c10 E8000000 		call	_ZN8UnitTest11CurrentTest7DetailsEv
 6929      00
 6930 3c15 488B08   		movq	(%rax), %rcx
 6931 3c18 488D4590 		leaq	-112(%rbp), %rax
 6932 3c1c BA390100 		movl	$313, %edx
 6932      00
 6933 3c21 4889CE   		movq	%rcx, %rsi
 6934 3c24 4889C7   		movq	%rax, %rdi
 6935 3c27 E8000000 		call	_ZN8UnitTest11TestDetailsC1ERKS0_i
 6935      00
 6936              		.loc 3 313 0 is_stmt 0 discriminator 1
 6937 3c2c C7458800 		movl	$0, -120(%rbp)
 6937      000000
 6938 3c33 E8000000 		call	_ZN8UnitTest11CurrentTest7ResultsEv
 6938      00
 6939 3c38 488B00   		movq	(%rax), %rax
 6940 3c3b 488D4D90 		leaq	-112(%rbp), %rcx
 6941 3c3f 488D9578 		leaq	-136(%rbp), %rdx
 6941      FFFFFF
 6942 3c46 488D7588 		leaq	-120(%rbp), %rsi
 6943 3c4a 4889C7   		movq	%rax, %rdi
 6944 3c4d E8000000 		call	_ZN8UnitTest10CheckEqualI9USBStatusS1_EEvRNS_11TestResultsERKT_RKT0_RKNS_11TestDetailsE
 6944      00
 6945              	.LEHE342:
 6946              	.L467:
 6947              	.LEHB343:
 314:testCore.cpp  **** 	CHECK_EQUAL(104UL, *item);
 6948              		.loc 3 314 0 is_stmt 1
 6949 3c52 E8000000 		call	_ZN8UnitTest11CurrentTest7DetailsEv
 6949      00
 6950 3c57 488B08   		movq	(%rax), %rcx
 6951 3c5a 488D4590 		leaq	-112(%rbp), %rax
 6952 3c5e BA3A0100 		movl	$314, %edx
 6952      00
 6953 3c63 4889CE   		movq	%rcx, %rsi
 6954 3c66 4889C7   		movq	%rax, %rdi
 6955 3c69 E8000000 		call	_ZN8UnitTest11TestDetailsC1ERKS0_i
 6955      00
 6956              		.loc 3 314 0 is_stmt 0 discriminator 1
 6957 3c6e 488B5D80 		movq	-128(%rbp), %rbx
 6958 3c72 48C74588 		movq	$104, -120(%rbp)
 6958      68000000 
 6959 3c7a E8000000 		call	_ZN8UnitTest11CurrentTest7ResultsEv
 6959      00
 6960 3c7f 488B00   		movq	(%rax), %rax
 6961 3c82 488D5590 		leaq	-112(%rbp), %rdx
 6962 3c86 488D7588 		leaq	-120(%rbp), %rsi
 6963 3c8a 4889D1   		movq	%rdx, %rcx
 6964 3c8d 4889DA   		movq	%rbx, %rdx
 6965 3c90 4889C7   		movq	%rax, %rdi
 6966 3c93 E8000000 		call	_ZN8UnitTest10CheckEqualImjEEvRNS_11TestResultsERKT_RKT0_RKNS_11TestDetailsE
 6966      00
 6967              	.LEHE343:
 6968              	.L470:
 315:testCore.cpp  **** 	queueCommitTake(&queue);
 6969              		.loc 3 315 0 is_stmt 1
 6970 3c98 488D45B0 		leaq	-80(%rbp), %rax
 6971 3c9c 4889C7   		movq	%rax, %rdi
 6972              	.LEHB344:
 6973 3c9f E8000000 		call	queueCommitTake
 6973      00
 316:testCore.cpp  **** 
 317:testCore.cpp  **** 	// Try to take one more
 318:testCore.cpp  **** 	status = queueTake(&queue, (Item*)&item);
 6974              		.loc 3 318 0
 6975 3ca4 488D5580 		leaq	-128(%rbp), %rdx
 6976 3ca8 488D45B0 		leaq	-80(%rbp), %rax
 6977 3cac 4889D6   		movq	%rdx, %rsi
 6978 3caf 4889C7   		movq	%rax, %rdi
 6979 3cb2 E8000000 		call	queueTake
 6979      00
 6980              	.LEHE344:
 6981 3cb7 898578FF 		movl	%eax, -136(%rbp)
 6981      FFFF
 6982              	.LEHB345:
 319:testCore.cpp  **** 	CHECK_EQUAL(USB_EMPTY_QUEUE, status);
 6983              		.loc 3 319 0
 6984 3cbd E8000000 		call	_ZN8UnitTest11CurrentTest7DetailsEv
 6984      00
 6985 3cc2 488B08   		movq	(%rax), %rcx
 6986 3cc5 488D4590 		leaq	-112(%rbp), %rax
 6987 3cc9 BA3F0100 		movl	$319, %edx
 6987      00
 6988 3cce 4889CE   		movq	%rcx, %rsi
 6989 3cd1 4889C7   		movq	%rax, %rdi
 6990 3cd4 E8000000 		call	_ZN8UnitTest11TestDetailsC1ERKS0_i
 6990      00
 6991              		.loc 3 319 0 is_stmt 0 discriminator 1
 6992 3cd9 C745880D 		movl	$13, -120(%rbp)
 6992      000000
 6993 3ce0 E8000000 		call	_ZN8UnitTest11CurrentTest7ResultsEv
 6993      00
 6994 3ce5 488B00   		movq	(%rax), %rax
 6995 3ce8 488D4D90 		leaq	-112(%rbp), %rcx
 6996 3cec 488D9578 		leaq	-136(%rbp), %rdx
 6996      FFFFFF
 6997 3cf3 488D7588 		leaq	-120(%rbp), %rsi
 6998 3cf7 4889C7   		movq	%rax, %rdi
 6999 3cfa E8000000 		call	_ZN8UnitTest10CheckEqualI9USBStatusS1_EEvRNS_11TestResultsERKT_RKT0_RKNS_11TestDetailsE
 6999      00
 7000              	.LEHE345:
 7001              	.L473:
 320:testCore.cpp  **** 
 321:testCore.cpp  **** 	queueDestroy(&queue);
 7002              		.loc 3 321 0 is_stmt 1
 7003 3cff 488D45B0 		leaq	-80(%rbp), %rax
 7004 3d03 4889C7   		movq	%rax, %rdi
 7005              	.LEHB346:
 7006 3d06 E8000000 		call	queueDestroy
 7006      00
 7007              	.LEHE346:
 7008 3d0b E9CE0D00 		jmp	.L550
 7008      00
 7009              	.L475:
 7010 3d10 4889C3   		movq	%rax, %rbx
 238:testCore.cpp  **** 
 7011              		.loc 3 238 0
 7012 3d13 E8000000 		call	__cxa_end_catch
 7012      00
 7013 3d18 4889D8   		movq	%rbx, %rax
 7014 3d1b 4889C7   		movq	%rax, %rdi
 7015              	.LEHB347:
 7016 3d1e E8000000 		call	_Unwind_Resume
 7016      00
 7017              	.LEHE347:
 7018              	.L474:
 7019 3d23 4889C7   		movq	%rax, %rdi
 7020 3d26 E8000000 		call	__cxa_begin_catch
 7020      00
 7021              	.LEHB348:
 7022 3d2b E8000000 		call	_ZN8UnitTest11CurrentTest7DetailsEv
 7022      00
 7023 3d30 488B08   		movq	(%rax), %rcx
 7024 3d33 488D4590 		leaq	-112(%rbp), %rax
 7025 3d37 BAEE0000 		movl	$238, %edx
 7025      00
 7026 3d3c 4889CE   		movq	%rcx, %rsi
 7027 3d3f 4889C7   		movq	%rax, %rdi
 7028 3d42 E8000000 		call	_ZN8UnitTest11TestDetailsC1ERKS0_i
 7028      00
 238:testCore.cpp  **** 
 7029              		.loc 3 238 0 is_stmt 0 discriminator 1
 7030 3d47 E8000000 		call	_ZN8UnitTest11CurrentTest7ResultsEv
 7030      00
 7031 3d4c 488B00   		movq	(%rax), %rax
 7032 3d4f 488D4D90 		leaq	-112(%rbp), %rcx
 7033 3d53 BA000000 		movl	$.LC3, %edx
 7033      00
 7034 3d58 4889CE   		movq	%rcx, %rsi
 7035 3d5b 4889C7   		movq	%rax, %rdi
 7036 3d5e E8000000 		call	_ZN8UnitTest11TestResults13OnTestFailureERKNS_11TestDetailsEPKc
 7036      00
 7037              	.LEHE348:
 7038              	.LEHB349:
 7039 3d63 E8000000 		call	__cxa_end_catch
 7039      00
 7040              	.LEHE349:
 7041 3d68 E9D7F2FF 		jmp	.L362
 7041      FF
 7042              	.L477:
 7043 3d6d 4889C3   		movq	%rax, %rbx
 246:testCore.cpp  **** 	CHECK_EQUAL((offset) % 4 + 1UL, *item);
 7044              		.loc 3 246 0 is_stmt 1
 7045 3d70 E8000000 		call	__cxa_end_catch
 7045      00
 7046 3d75 4889D8   		movq	%rbx, %rax
 7047 3d78 4889C7   		movq	%rax, %rdi
 7048              	.LEHB350:
 7049 3d7b E8000000 		call	_Unwind_Resume
 7049      00
 7050              	.LEHE350:
 7051              	.L476:
 7052 3d80 4889C7   		movq	%rax, %rdi
 7053 3d83 E8000000 		call	__cxa_begin_catch
 7053      00
 7054              	.LEHB351:
 7055 3d88 E8000000 		call	_ZN8UnitTest11CurrentTest7DetailsEv
 7055      00
 7056 3d8d 488B08   		movq	(%rax), %rcx
 7057 3d90 488D4590 		leaq	-112(%rbp), %rax
 7058 3d94 BAF60000 		movl	$246, %edx
 7058      00
 7059 3d99 4889CE   		movq	%rcx, %rsi
 7060 3d9c 4889C7   		movq	%rax, %rdi
 7061 3d9f E8000000 		call	_ZN8UnitTest11TestDetailsC1ERKS0_i
 7061      00
 246:testCore.cpp  **** 	CHECK_EQUAL((offset) % 4 + 1UL, *item);
 7062              		.loc 3 246 0 is_stmt 0 discriminator 1
 7063 3da4 E8000000 		call	_ZN8UnitTest11CurrentTest7ResultsEv
 7063      00
 7064 3da9 488B00   		movq	(%rax), %rax
 7065 3dac 488D4D90 		leaq	-112(%rbp), %rcx
 7066 3db0 BA000000 		movl	$.LC3, %edx
 7066      00
 7067 3db5 4889CE   		movq	%rcx, %rsi
 7068 3db8 4889C7   		movq	%rax, %rdi
 7069 3dbb E8000000 		call	_ZN8UnitTest11TestResults13OnTestFailureERKNS_11TestDetailsEPKc
 7069      00
 7070              	.LEHE351:
 7071              	.LEHB352:
 7072 3dc0 E8000000 		call	__cxa_end_catch
 7072      00
 7073              	.LEHE352:
 7074 3dc5 E9EBF2FF 		jmp	.L365
 7074      FF
 7075              	.L479:
 7076 3dca 4889C3   		movq	%rax, %rbx
 247:testCore.cpp  **** 	*item = 100;
 7077              		.loc 3 247 0 is_stmt 1
 7078 3dcd E8000000 		call	__cxa_end_catch
 7078      00
 7079 3dd2 4889D8   		movq	%rbx, %rax
 7080 3dd5 4889C7   		movq	%rax, %rdi
 7081              	.LEHB353:
 7082 3dd8 E8000000 		call	_Unwind_Resume
 7082      00
 7083              	.LEHE353:
 7084              	.L478:
 7085 3ddd 4889C7   		movq	%rax, %rdi
 7086 3de0 E8000000 		call	__cxa_begin_catch
 7086      00
 7087              	.LEHB354:
 7088 3de5 E8000000 		call	_ZN8UnitTest11CurrentTest7DetailsEv
 7088      00
 7089 3dea 488B08   		movq	(%rax), %rcx
 7090 3ded 488D4590 		leaq	-112(%rbp), %rax
 7091 3df1 BAF70000 		movl	$247, %edx
 7091      00
 7092 3df6 4889CE   		movq	%rcx, %rsi
 7093 3df9 4889C7   		movq	%rax, %rdi
 7094 3dfc E8000000 		call	_ZN8UnitTest11TestDetailsC1ERKS0_i
 7094      00
 247:testCore.cpp  **** 	*item = 100;
 7095              		.loc 3 247 0 is_stmt 0 discriminator 1
 7096 3e01 E8000000 		call	_ZN8UnitTest11CurrentTest7ResultsEv
 7096      00
 7097 3e06 488B00   		movq	(%rax), %rax
 7098 3e09 488D4D90 		leaq	-112(%rbp), %rcx
 7099 3e0d BA000000 		movl	$.LC30, %edx
 7099      00
 7100 3e12 4889CE   		movq	%rcx, %rsi
 7101 3e15 4889C7   		movq	%rax, %rdi
 7102 3e18 E8000000 		call	_ZN8UnitTest11TestResults13OnTestFailureERKNS_11TestDetailsEPKc
 7102      00
 7103              	.LEHE354:
 7104              	.LEHB355:
 7105 3e1d E8000000 		call	__cxa_end_catch
 7105      00
 7106              	.LEHE355:
 7107 3e22 E9DEF2FF 		jmp	.L368
 7107      FF
 7108              	.L481:
 7109 3e27 4889C3   		movq	%rax, %rbx
 251:testCore.cpp  **** 	CHECK_EQUAL((offset + 1UL) % 4 + 1UL, *item);
 7110              		.loc 3 251 0 is_stmt 1
 7111 3e2a E8000000 		call	__cxa_end_catch
 7111      00
 7112 3e2f 4889D8   		movq	%rbx, %rax
 7113 3e32 4889C7   		movq	%rax, %rdi
 7114              	.LEHB356:
 7115 3e35 E8000000 		call	_Unwind_Resume
 7115      00
 7116              	.LEHE356:
 7117              	.L480:
 7118 3e3a 4889C7   		movq	%rax, %rdi
 7119 3e3d E8000000 		call	__cxa_begin_catch
 7119      00
 7120              	.LEHB357:
 7121 3e42 E8000000 		call	_ZN8UnitTest11CurrentTest7DetailsEv
 7121      00
 7122 3e47 488B08   		movq	(%rax), %rcx
 7123 3e4a 488D4590 		leaq	-112(%rbp), %rax
 7124 3e4e BAFB0000 		movl	$251, %edx
 7124      00
 7125 3e53 4889CE   		movq	%rcx, %rsi
 7126 3e56 4889C7   		movq	%rax, %rdi
 7127 3e59 E8000000 		call	_ZN8UnitTest11TestDetailsC1ERKS0_i
 7127      00
 251:testCore.cpp  **** 	CHECK_EQUAL((offset + 1UL) % 4 + 1UL, *item);
 7128              		.loc 3 251 0 is_stmt 0 discriminator 1
 7129 3e5e E8000000 		call	_ZN8UnitTest11CurrentTest7ResultsEv
 7129      00
 7130 3e63 488B00   		movq	(%rax), %rax
 7131 3e66 488D4D90 		leaq	-112(%rbp), %rcx
 7132 3e6a BA000000 		movl	$.LC3, %edx
 7132      00
 7133 3e6f 4889CE   		movq	%rcx, %rsi
 7134 3e72 4889C7   		movq	%rax, %rdi
 7135 3e75 E8000000 		call	_ZN8UnitTest11TestResults13OnTestFailureERKNS_11TestDetailsEPKc
 7135      00
 7136              	.LEHE357:
 7137              	.LEHB358:
 7138 3e7a E8000000 		call	__cxa_end_catch
 7138      00
 7139              	.LEHE358:
 7140 3e7f E9F2F2FF 		jmp	.L371
 7140      FF
 7141              	.L483:
 7142 3e84 4889C3   		movq	%rax, %rbx
 252:testCore.cpp  **** 	*item = 101;
 7143              		.loc 3 252 0 is_stmt 1
 7144 3e87 E8000000 		call	__cxa_end_catch
 7144      00
 7145 3e8c 4889D8   		movq	%rbx, %rax
 7146 3e8f 4889C7   		movq	%rax, %rdi
 7147              	.LEHB359:
 7148 3e92 E8000000 		call	_Unwind_Resume
 7148      00
 7149              	.LEHE359:
 7150              	.L482:
 7151 3e97 4889C7   		movq	%rax, %rdi
 7152 3e9a E8000000 		call	__cxa_begin_catch
 7152      00
 7153              	.LEHB360:
 7154 3e9f E8000000 		call	_ZN8UnitTest11CurrentTest7DetailsEv
 7154      00
 7155 3ea4 488B08   		movq	(%rax), %rcx
 7156 3ea7 488D4590 		leaq	-112(%rbp), %rax
 7157 3eab BAFC0000 		movl	$252, %edx
 7157      00
 7158 3eb0 4889CE   		movq	%rcx, %rsi
 7159 3eb3 4889C7   		movq	%rax, %rdi
 7160 3eb6 E8000000 		call	_ZN8UnitTest11TestDetailsC1ERKS0_i
 7160      00
 252:testCore.cpp  **** 	*item = 101;
 7161              		.loc 3 252 0 is_stmt 0 discriminator 1
 7162 3ebb E8000000 		call	_ZN8UnitTest11CurrentTest7ResultsEv
 7162      00
 7163 3ec0 488B00   		movq	(%rax), %rax
 7164 3ec3 488D4D90 		leaq	-112(%rbp), %rcx
 7165 3ec7 BA000000 		movl	$.LC31, %edx
 7165      00
 7166 3ecc 4889CE   		movq	%rcx, %rsi
 7167 3ecf 4889C7   		movq	%rax, %rdi
 7168 3ed2 E8000000 		call	_ZN8UnitTest11TestResults13OnTestFailureERKNS_11TestDetailsEPKc
 7168      00
 7169              	.LEHE360:
 7170              	.LEHB361:
 7171 3ed7 E8000000 		call	__cxa_end_catch
 7171      00
 7172              	.LEHE361:
 7173 3edc E9E9F2FF 		jmp	.L374
 7173      FF
 7174              	.L485:
 7175 3ee1 4889C3   		movq	%rax, %rbx
 256:testCore.cpp  **** 	CHECK_EQUAL((offset + 2UL) % 4 + 1UL, *item);
 7176              		.loc 3 256 0 is_stmt 1
 7177 3ee4 E8000000 		call	__cxa_end_catch
 7177      00
 7178 3ee9 4889D8   		movq	%rbx, %rax
 7179 3eec 4889C7   		movq	%rax, %rdi
 7180              	.LEHB362:
 7181 3eef E8000000 		call	_Unwind_Resume
 7181      00
 7182              	.LEHE362:
 7183              	.L484:
 7184 3ef4 4889C7   		movq	%rax, %rdi
 7185 3ef7 E8000000 		call	__cxa_begin_catch
 7185      00
 7186              	.LEHB363:
 7187 3efc E8000000 		call	_ZN8UnitTest11CurrentTest7DetailsEv
 7187      00
 7188 3f01 488B08   		movq	(%rax), %rcx
 7189 3f04 488D4590 		leaq	-112(%rbp), %rax
 7190 3f08 BA000100 		movl	$256, %edx
 7190      00
 7191 3f0d 4889CE   		movq	%rcx, %rsi
 7192 3f10 4889C7   		movq	%rax, %rdi
 7193 3f13 E8000000 		call	_ZN8UnitTest11TestDetailsC1ERKS0_i
 7193      00
 256:testCore.cpp  **** 	CHECK_EQUAL((offset + 2UL) % 4 + 1UL, *item);
 7194              		.loc 3 256 0 is_stmt 0 discriminator 1
 7195 3f18 E8000000 		call	_ZN8UnitTest11CurrentTest7ResultsEv
 7195      00
 7196 3f1d 488B00   		movq	(%rax), %rax
 7197 3f20 488D4D90 		leaq	-112(%rbp), %rcx
 7198 3f24 BA000000 		movl	$.LC3, %edx
 7198      00
 7199 3f29 4889CE   		movq	%rcx, %rsi
 7200 3f2c 4889C7   		movq	%rax, %rdi
 7201 3f2f E8000000 		call	_ZN8UnitTest11TestResults13OnTestFailureERKNS_11TestDetailsEPKc
 7201      00
 7202              	.LEHE363:
 7203              	.LEHB364:
 7204 3f34 E8000000 		call	__cxa_end_catch
 7204      00
 7205              	.LEHE364:
 7206 3f39 E9FDF2FF 		jmp	.L377
 7206      FF
 7207              	.L487:
 7208 3f3e 4889C3   		movq	%rax, %rbx
 257:testCore.cpp  **** 	*item = 102;
 7209              		.loc 3 257 0 is_stmt 1
 7210 3f41 E8000000 		call	__cxa_end_catch
 7210      00
 7211 3f46 4889D8   		movq	%rbx, %rax
 7212 3f49 4889C7   		movq	%rax, %rdi
 7213              	.LEHB365:
 7214 3f4c E8000000 		call	_Unwind_Resume
 7214      00
 7215              	.LEHE365:
 7216              	.L486:
 7217 3f51 4889C7   		movq	%rax, %rdi
 7218 3f54 E8000000 		call	__cxa_begin_catch
 7218      00
 7219              	.LEHB366:
 7220 3f59 E8000000 		call	_ZN8UnitTest11CurrentTest7DetailsEv
 7220      00
 7221 3f5e 488B08   		movq	(%rax), %rcx
 7222 3f61 488D4590 		leaq	-112(%rbp), %rax
 7223 3f65 BA010100 		movl	$257, %edx
 7223      00
 7224 3f6a 4889CE   		movq	%rcx, %rsi
 7225 3f6d 4889C7   		movq	%rax, %rdi
 7226 3f70 E8000000 		call	_ZN8UnitTest11TestDetailsC1ERKS0_i
 7226      00
 257:testCore.cpp  **** 	*item = 102;
 7227              		.loc 3 257 0 is_stmt 0 discriminator 1
 7228 3f75 E8000000 		call	_ZN8UnitTest11CurrentTest7ResultsEv
 7228      00
 7229 3f7a 488B00   		movq	(%rax), %rax
 7230 3f7d 488D4D90 		leaq	-112(%rbp), %rcx
 7231 3f81 BA000000 		movl	$.LC32, %edx
 7231      00
 7232 3f86 4889CE   		movq	%rcx, %rsi
 7233 3f89 4889C7   		movq	%rax, %rdi
 7234 3f8c E8000000 		call	_ZN8UnitTest11TestResults13OnTestFailureERKNS_11TestDetailsEPKc
 7234      00
 7235              	.LEHE366:
 7236              	.LEHB367:
 7237 3f91 E8000000 		call	__cxa_end_catch
 7237      00
 7238              	.LEHE367:
 7239 3f96 E9F4F2FF 		jmp	.L380
 7239      FF
 7240              	.L489:
 7241 3f9b 4889C3   		movq	%rax, %rbx
 261:testCore.cpp  **** 	CHECK_EQUAL((offset + 3UL) % 4 + 1UL, *item);
 7242              		.loc 3 261 0 is_stmt 1
 7243 3f9e E8000000 		call	__cxa_end_catch
 7243      00
 7244 3fa3 4889D8   		movq	%rbx, %rax
 7245 3fa6 4889C7   		movq	%rax, %rdi
 7246              	.LEHB368:
 7247 3fa9 E8000000 		call	_Unwind_Resume
 7247      00
 7248              	.LEHE368:
 7249              	.L488:
 7250 3fae 4889C7   		movq	%rax, %rdi
 7251 3fb1 E8000000 		call	__cxa_begin_catch
 7251      00
 7252              	.LEHB369:
 7253 3fb6 E8000000 		call	_ZN8UnitTest11CurrentTest7DetailsEv
 7253      00
 7254 3fbb 488B08   		movq	(%rax), %rcx
 7255 3fbe 488D4590 		leaq	-112(%rbp), %rax
 7256 3fc2 BA050100 		movl	$261, %edx
 7256      00
 7257 3fc7 4889CE   		movq	%rcx, %rsi
 7258 3fca 4889C7   		movq	%rax, %rdi
 7259 3fcd E8000000 		call	_ZN8UnitTest11TestDetailsC1ERKS0_i
 7259      00
 261:testCore.cpp  **** 	CHECK_EQUAL((offset + 3UL) % 4 + 1UL, *item);
 7260              		.loc 3 261 0 is_stmt 0 discriminator 1
 7261 3fd2 E8000000 		call	_ZN8UnitTest11CurrentTest7ResultsEv
 7261      00
 7262 3fd7 488B00   		movq	(%rax), %rax
 7263 3fda 488D4D90 		leaq	-112(%rbp), %rcx
 7264 3fde BA000000 		movl	$.LC3, %edx
 7264      00
 7265 3fe3 4889CE   		movq	%rcx, %rsi
 7266 3fe6 4889C7   		movq	%rax, %rdi
 7267 3fe9 E8000000 		call	_ZN8UnitTest11TestResults13OnTestFailureERKNS_11TestDetailsEPKc
 7267      00
 7268              	.LEHE369:
 7269              	.LEHB370:
 7270 3fee E8000000 		call	__cxa_end_catch
 7270      00
 7271              	.LEHE370:
 7272 3ff3 E908F3FF 		jmp	.L383
 7272      FF
 7273              	.L491:
 7274 3ff8 4889C3   		movq	%rax, %rbx
 262:testCore.cpp  **** 	*item = 103;
 7275              		.loc 3 262 0 is_stmt 1
 7276 3ffb E8000000 		call	__cxa_end_catch
 7276      00
 7277 4000 4889D8   		movq	%rbx, %rax
 7278 4003 4889C7   		movq	%rax, %rdi
 7279              	.LEHB371:
 7280 4006 E8000000 		call	_Unwind_Resume
 7280      00
 7281              	.LEHE371:
 7282              	.L490:
 7283 400b 4889C7   		movq	%rax, %rdi
 7284 400e E8000000 		call	__cxa_begin_catch
 7284      00
 7285              	.LEHB372:
 7286 4013 E8000000 		call	_ZN8UnitTest11CurrentTest7DetailsEv
 7286      00
 7287 4018 488B08   		movq	(%rax), %rcx
 7288 401b 488D4590 		leaq	-112(%rbp), %rax
 7289 401f BA060100 		movl	$262, %edx
 7289      00
 7290 4024 4889CE   		movq	%rcx, %rsi
 7291 4027 4889C7   		movq	%rax, %rdi
 7292 402a E8000000 		call	_ZN8UnitTest11TestDetailsC1ERKS0_i
 7292      00
 262:testCore.cpp  **** 	*item = 103;
 7293              		.loc 3 262 0 is_stmt 0 discriminator 1
 7294 402f E8000000 		call	_ZN8UnitTest11CurrentTest7ResultsEv
 7294      00
 7295 4034 488B00   		movq	(%rax), %rax
 7296 4037 488D4D90 		leaq	-112(%rbp), %rcx
 7297 403b BA000000 		movl	$.LC33, %edx
 7297      00
 7298 4040 4889CE   		movq	%rcx, %rsi
 7299 4043 4889C7   		movq	%rax, %rdi
 7300 4046 E8000000 		call	_ZN8UnitTest11TestResults13OnTestFailureERKNS_11TestDetailsEPKc
 7300      00
 7301              	.LEHE372:
 7302              	.LEHB373:
 7303 404b E8000000 		call	__cxa_end_catch
 7303      00
 7304              	.LEHE373:
 7305 4050 E9FFF2FF 		jmp	.L386
 7305      FF
 7306              	.L493:
 7307 4055 4889C3   		movq	%rax, %rbx
 267:testCore.cpp  **** 	CHECK_EQUAL(offset, queue.putIndex);
 7308              		.loc 3 267 0 is_stmt 1
 7309 4058 E8000000 		call	__cxa_end_catch
 7309      00
 7310 405d 4889D8   		movq	%rbx, %rax
 7311 4060 4889C7   		movq	%rax, %rdi
 7312              	.LEHB374:
 7313 4063 E8000000 		call	_Unwind_Resume
 7313      00
 7314              	.LEHE374:
 7315              	.L492:
 7316 4068 4889C7   		movq	%rax, %rdi
 7317 406b E8000000 		call	__cxa_begin_catch
 7317      00
 7318              	.LEHB375:
 7319 4070 E8000000 		call	_ZN8UnitTest11CurrentTest7DetailsEv
 7319      00
 7320 4075 488B08   		movq	(%rax), %rcx
 7321 4078 488D4590 		leaq	-112(%rbp), %rax
 7322 407c BA0B0100 		movl	$267, %edx
 7322      00
 7323 4081 4889CE   		movq	%rcx, %rsi
 7324 4084 4889C7   		movq	%rax, %rdi
 7325 4087 E8000000 		call	_ZN8UnitTest11TestDetailsC1ERKS0_i
 7325      00
 267:testCore.cpp  **** 	CHECK_EQUAL(offset, queue.putIndex);
 7326              		.loc 3 267 0 is_stmt 0 discriminator 1
 7327 408c E8000000 		call	_ZN8UnitTest11CurrentTest7ResultsEv
 7327      00
 7328 4091 488B00   		movq	(%rax), %rax
 7329 4094 488D4D90 		leaq	-112(%rbp), %rcx
 7330 4098 BA000000 		movl	$.LC4, %edx
 7330      00
 7331 409d 4889CE   		movq	%rcx, %rsi
 7332 40a0 4889C7   		movq	%rax, %rdi
 7333 40a3 E8000000 		call	_ZN8UnitTest11TestResults13OnTestFailureERKNS_11TestDetailsEPKc
 7333      00
 7334              	.LEHE375:
 7335              	.LEHB376:
 7336 40a8 E8000000 		call	__cxa_end_catch
 7336      00
 7337              	.LEHE376:
 7338 40ad E902F3FF 		jmp	.L389
 7338      FF
 7339              	.L495:
 7340 40b2 4889C3   		movq	%rax, %rbx
 268:testCore.cpp  **** 	CHECK_EQUAL(offset, queue.takeIndex);
 7341              		.loc 3 268 0 is_stmt 1
 7342 40b5 E8000000 		call	__cxa_end_catch
 7342      00
 7343 40ba 4889D8   		movq	%rbx, %rax
 7344 40bd 4889C7   		movq	%rax, %rdi
 7345              	.LEHB377:
 7346 40c0 E8000000 		call	_Unwind_Resume
 7346      00
 7347              	.LEHE377:
 7348              	.L494:
 7349 40c5 4889C7   		movq	%rax, %rdi
 7350 40c8 E8000000 		call	__cxa_begin_catch
 7350      00
 7351              	.LEHB378:
 7352 40cd E8000000 		call	_ZN8UnitTest11CurrentTest7DetailsEv
 7352      00
 7353 40d2 488B08   		movq	(%rax), %rcx
 7354 40d5 488D4590 		leaq	-112(%rbp), %rax
 7355 40d9 BA0C0100 		movl	$268, %edx
 7355      00
 7356 40de 4889CE   		movq	%rcx, %rsi
 7357 40e1 4889C7   		movq	%rax, %rdi
 7358 40e4 E8000000 		call	_ZN8UnitTest11TestDetailsC1ERKS0_i
 7358      00
 268:testCore.cpp  **** 	CHECK_EQUAL(offset, queue.takeIndex);
 7359              		.loc 3 268 0 is_stmt 0 discriminator 1
 7360 40e9 E8000000 		call	_ZN8UnitTest11CurrentTest7ResultsEv
 7360      00
 7361 40ee 488B00   		movq	(%rax), %rax
 7362 40f1 488D4D90 		leaq	-112(%rbp), %rcx
 7363 40f5 BA000000 		movl	$.LC34, %edx
 7363      00
 7364 40fa 4889CE   		movq	%rcx, %rsi
 7365 40fd 4889C7   		movq	%rax, %rdi
 7366 4100 E8000000 		call	_ZN8UnitTest11TestResults13OnTestFailureERKNS_11TestDetailsEPKc
 7366      00
 7367              	.LEHE378:
 7368              	.LEHB379:
 7369 4105 E8000000 		call	__cxa_end_catch
 7369      00
 7370              	.LEHE379:
 7371 410a E9EAF2FF 		jmp	.L392
 7371      FF
 7372              	.L497:
 7373 410f 4889C3   		movq	%rax, %rbx
 269:testCore.cpp  **** 	CHECK_EQUAL(4UL, queue.numItems);
 7374              		.loc 3 269 0 is_stmt 1
 7375 4112 E8000000 		call	__cxa_end_catch
 7375      00
 7376 4117 4889D8   		movq	%rbx, %rax
 7377 411a 4889C7   		movq	%rax, %rdi
 7378              	.LEHB380:
 7379 411d E8000000 		call	_Unwind_Resume
 7379      00
 7380              	.LEHE380:
 7381              	.L496:
 7382 4122 4889C7   		movq	%rax, %rdi
 7383 4125 E8000000 		call	__cxa_begin_catch
 7383      00
 7384              	.LEHB381:
 7385 412a E8000000 		call	_ZN8UnitTest11CurrentTest7DetailsEv
 7385      00
 7386 412f 488B08   		movq	(%rax), %rcx
 7387 4132 488D4590 		leaq	-112(%rbp), %rax
 7388 4136 BA0D0100 		movl	$269, %edx
 7388      00
 7389 413b 4889CE   		movq	%rcx, %rsi
 7390 413e 4889C7   		movq	%rax, %rdi
 7391 4141 E8000000 		call	_ZN8UnitTest11TestDetailsC1ERKS0_i
 7391      00
 269:testCore.cpp  **** 	CHECK_EQUAL(4UL, queue.numItems);
 7392              		.loc 3 269 0 is_stmt 0 discriminator 1
 7393 4146 E8000000 		call	_ZN8UnitTest11CurrentTest7ResultsEv
 7393      00
 7394 414b 488B00   		movq	(%rax), %rax
 7395 414e 488D4D90 		leaq	-112(%rbp), %rcx
 7396 4152 BA000000 		movl	$.LC35, %edx
 7396      00
 7397 4157 4889CE   		movq	%rcx, %rsi
 7398 415a 4889C7   		movq	%rax, %rdi
 7399 415d E8000000 		call	_ZN8UnitTest11TestResults13OnTestFailureERKNS_11TestDetailsEPKc
 7399      00
 7400              	.LEHE381:
 7401              	.LEHB382:
 7402 4162 E8000000 		call	__cxa_end_catch
 7402      00
 7403              	.LEHE382:
 7404 4167 E9D2F2FF 		jmp	.L395
 7404      FF
 7405              	.L499:
 7406 416c 4889C3   		movq	%rax, %rbx
 270:testCore.cpp  **** 
 7407              		.loc 3 270 0 is_stmt 1
 7408 416f E8000000 		call	__cxa_end_catch
 7408      00
 7409 4174 4889D8   		movq	%rbx, %rax
 7410 4177 4889C7   		movq	%rax, %rdi
 7411              	.LEHB383:
 7412 417a E8000000 		call	_Unwind_Resume
 7412      00
 7413              	.LEHE383:
 7414              	.L498:
 7415 417f 4889C7   		movq	%rax, %rdi
 7416 4182 E8000000 		call	__cxa_begin_catch
 7416      00
 7417              	.LEHB384:
 7418 4187 E8000000 		call	_ZN8UnitTest11CurrentTest7DetailsEv
 7418      00
 7419 418c 488B08   		movq	(%rax), %rcx
 7420 418f 488D4590 		leaq	-112(%rbp), %rax
 7421 4193 BA0E0100 		movl	$270, %edx
 7421      00
 7422 4198 4889CE   		movq	%rcx, %rsi
 7423 419b 4889C7   		movq	%rax, %rdi
 7424 419e E8000000 		call	_ZN8UnitTest11TestDetailsC1ERKS0_i
 7424      00
 270:testCore.cpp  **** 
 7425              		.loc 3 270 0 is_stmt 0 discriminator 1
 7426 41a3 E8000000 		call	_ZN8UnitTest11CurrentTest7ResultsEv
 7426      00
 7427 41a8 488B00   		movq	(%rax), %rax
 7428 41ab 488D4D90 		leaq	-112(%rbp), %rcx
 7429 41af BA000000 		movl	$.LC23, %edx
 7429      00
 7430 41b4 4889CE   		movq	%rcx, %rsi
 7431 41b7 4889C7   		movq	%rax, %rdi
 7432 41ba E8000000 		call	_ZN8UnitTest11TestResults13OnTestFailureERKNS_11TestDetailsEPKc
 7432      00
 7433              	.LEHE384:
 7434              	.LEHB385:
 7435 41bf E8000000 		call	__cxa_end_catch
 7435      00
 7436              	.LEHE385:
 7437 41c4 E9BFF2FF 		jmp	.L398
 7437      FF
 7438              	.L501:
 7439 41c9 4889C3   		movq	%rax, %rbx
 274:testCore.cpp  **** 	CHECK_EQUAL(5UL, *item);
 7440              		.loc 3 274 0 is_stmt 1
 7441 41cc E8000000 		call	__cxa_end_catch
 7441      00
 7442 41d1 4889D8   		movq	%rbx, %rax
 7443 41d4 4889C7   		movq	%rax, %rdi
 7444              	.LEHB386:
 7445 41d7 E8000000 		call	_Unwind_Resume
 7445      00
 7446              	.LEHE386:
 7447              	.L500:
 7448 41dc 4889C7   		movq	%rax, %rdi
 7449 41df E8000000 		call	__cxa_begin_catch
 7449      00
 7450              	.LEHB387:
 7451 41e4 E8000000 		call	_ZN8UnitTest11CurrentTest7DetailsEv
 7451      00
 7452 41e9 488B08   		movq	(%rax), %rcx
 7453 41ec 488D4590 		leaq	-112(%rbp), %rax
 7454 41f0 BA120100 		movl	$274, %edx
 7454      00
 7455 41f5 4889CE   		movq	%rcx, %rsi
 7456 41f8 4889C7   		movq	%rax, %rdi
 7457 41fb E8000000 		call	_ZN8UnitTest11TestDetailsC1ERKS0_i
 7457      00
 274:testCore.cpp  **** 	CHECK_EQUAL(5UL, *item);
 7458              		.loc 3 274 0 is_stmt 0 discriminator 1
 7459 4200 E8000000 		call	_ZN8UnitTest11CurrentTest7ResultsEv
 7459      00
 7460 4205 488B00   		movq	(%rax), %rax
 7461 4208 488D4D90 		leaq	-112(%rbp), %rcx
 7462 420c BA000000 		movl	$.LC3, %edx
 7462      00
 7463 4211 4889CE   		movq	%rcx, %rsi
 7464 4214 4889C7   		movq	%rax, %rdi
 7465 4217 E8000000 		call	_ZN8UnitTest11TestResults13OnTestFailureERKNS_11TestDetailsEPKc
 7465      00
 7466              	.LEHE387:
 7467              	.LEHB388:
 7468 421c E8000000 		call	__cxa_end_catch
 7468      00
 7469              	.LEHE388:
 7470 4221 E9BDF2FF 		jmp	.L401
 7470      FF
 7471              	.L503:
 7472 4226 4889C3   		movq	%rax, %rbx
 275:testCore.cpp  **** 	*item = 104;
 7473              		.loc 3 275 0 is_stmt 1
 7474 4229 E8000000 		call	__cxa_end_catch
 7474      00
 7475 422e 4889D8   		movq	%rbx, %rax
 7476 4231 4889C7   		movq	%rax, %rdi
 7477              	.LEHB389:
 7478 4234 E8000000 		call	_Unwind_Resume
 7478      00
 7479              	.LEHE389:
 7480              	.L502:
 7481 4239 4889C7   		movq	%rax, %rdi
 7482 423c E8000000 		call	__cxa_begin_catch
 7482      00
 7483              	.LEHB390:
 7484 4241 E8000000 		call	_ZN8UnitTest11CurrentTest7DetailsEv
 7484      00
 7485 4246 488B08   		movq	(%rax), %rcx
 7486 4249 488D4590 		leaq	-112(%rbp), %rax
 7487 424d BA130100 		movl	$275, %edx
 7487      00
 7488 4252 4889CE   		movq	%rcx, %rsi
 7489 4255 4889C7   		movq	%rax, %rdi
 7490 4258 E8000000 		call	_ZN8UnitTest11TestDetailsC1ERKS0_i
 7490      00
 275:testCore.cpp  **** 	*item = 104;
 7491              		.loc 3 275 0 is_stmt 0 discriminator 1
 7492 425d E8000000 		call	_ZN8UnitTest11CurrentTest7ResultsEv
 7492      00
 7493 4262 488B00   		movq	(%rax), %rax
 7494 4265 488D4D90 		leaq	-112(%rbp), %rcx
 7495 4269 BA000000 		movl	$.LC26, %edx
 7495      00
 7496 426e 4889CE   		movq	%rcx, %rsi
 7497 4271 4889C7   		movq	%rax, %rdi
 7498 4274 E8000000 		call	_ZN8UnitTest11TestResults13OnTestFailureERKNS_11TestDetailsEPKc
 7498      00
 7499              	.LEHE390:
 7500              	.LEHB391:
 7501 4279 E8000000 		call	__cxa_end_catch
 7501      00
 7502              	.LEHE391:
 7503 427e E9A6F2FF 		jmp	.L404
 7503      FF
 7504              	.L505:
 7505 4283 4889C3   		movq	%rax, %rbx
 280:testCore.cpp  **** 	CHECK_EQUAL(5UL, queue.putIndex);
 7506              		.loc 3 280 0 is_stmt 1
 7507 4286 E8000000 		call	__cxa_end_catch
 7507      00
 7508 428b 4889D8   		movq	%rbx, %rax
 7509 428e 4889C7   		movq	%rax, %rdi
 7510              	.LEHB392:
 7511 4291 E8000000 		call	_Unwind_Resume
 7511      00
 7512              	.LEHE392:
 7513              	.L504:
 7514 4296 4889C7   		movq	%rax, %rdi
 7515 4299 E8000000 		call	__cxa_begin_catch
 7515      00
 7516              	.LEHB393:
 7517 429e E8000000 		call	_ZN8UnitTest11CurrentTest7DetailsEv
 7517      00
 7518 42a3 488B08   		movq	(%rax), %rcx
 7519 42a6 488D4590 		leaq	-112(%rbp), %rax
 7520 42aa BA180100 		movl	$280, %edx
 7520      00
 7521 42af 4889CE   		movq	%rcx, %rsi
 7522 42b2 4889C7   		movq	%rax, %rdi
 7523 42b5 E8000000 		call	_ZN8UnitTest11TestDetailsC1ERKS0_i
 7523      00
 280:testCore.cpp  **** 	CHECK_EQUAL(5UL, queue.putIndex);
 7524              		.loc 3 280 0 is_stmt 0 discriminator 1
 7525 42ba E8000000 		call	_ZN8UnitTest11CurrentTest7ResultsEv
 7525      00
 7526 42bf 488B00   		movq	(%rax), %rax
 7527 42c2 488D4D90 		leaq	-112(%rbp), %rcx
 7528 42c6 BA000000 		movl	$.LC36, %edx
 7528      00
 7529 42cb 4889CE   		movq	%rcx, %rsi
 7530 42ce 4889C7   		movq	%rax, %rdi
 7531 42d1 E8000000 		call	_ZN8UnitTest11TestResults13OnTestFailureERKNS_11TestDetailsEPKc
 7531      00
 7532              	.LEHE393:
 7533              	.LEHB394:
 7534 42d6 E8000000 		call	__cxa_end_catch
 7534      00
 7535              	.LEHE394:
 7536 42db E9A9F2FF 		jmp	.L407
 7536      FF
 7537              	.L507:
 7538 42e0 4889C3   		movq	%rax, %rbx
 281:testCore.cpp  **** 	CHECK_EQUAL(0UL, queue.takeIndex);
 7539              		.loc 3 281 0 is_stmt 1
 7540 42e3 E8000000 		call	__cxa_end_catch
 7540      00
 7541 42e8 4889D8   		movq	%rbx, %rax
 7542 42eb 4889C7   		movq	%rax, %rdi
 7543              	.LEHB395:
 7544 42ee E8000000 		call	_Unwind_Resume
 7544      00
 7545              	.LEHE395:
 7546              	.L506:
 7547 42f3 4889C7   		movq	%rax, %rdi
 7548 42f6 E8000000 		call	__cxa_begin_catch
 7548      00
 7549              	.LEHB396:
 7550 42fb E8000000 		call	_ZN8UnitTest11CurrentTest7DetailsEv
 7550      00
 7551 4300 488B08   		movq	(%rax), %rcx
 7552 4303 488D4590 		leaq	-112(%rbp), %rax
 7553 4307 BA190100 		movl	$281, %edx
 7553      00
 7554 430c 4889CE   		movq	%rcx, %rsi
 7555 430f 4889C7   		movq	%rax, %rdi
 7556 4312 E8000000 		call	_ZN8UnitTest11TestDetailsC1ERKS0_i
 7556      00
 281:testCore.cpp  **** 	CHECK_EQUAL(0UL, queue.takeIndex);
 7557              		.loc 3 281 0 is_stmt 0 discriminator 1
 7558 4317 E8000000 		call	_ZN8UnitTest11CurrentTest7ResultsEv
 7558      00
 7559 431c 488B00   		movq	(%rax), %rax
 7560 431f 488D4D90 		leaq	-112(%rbp), %rcx
 7561 4323 BA000000 		movl	$.LC37, %edx
 7561      00
 7562 4328 4889CE   		movq	%rcx, %rsi
 7563 432b 4889C7   		movq	%rax, %rdi
 7564 432e E8000000 		call	_ZN8UnitTest11TestResults13OnTestFailureERKNS_11TestDetailsEPKc
 7564      00
 7565              	.LEHE396:
 7566              	.LEHB397:
 7567 4333 E8000000 		call	__cxa_end_catch
 7567      00
 7568              	.LEHE397:
 7569 4338 E996F2FF 		jmp	.L410
 7569      FF
 7570              	.L509:
 7571 433d 4889C3   		movq	%rax, %rbx
 282:testCore.cpp  **** 	CHECK_EQUAL(5UL, queue.numItems);
 7572              		.loc 3 282 0 is_stmt 1
 7573 4340 E8000000 		call	__cxa_end_catch
 7573      00
 7574 4345 4889D8   		movq	%rbx, %rax
 7575 4348 4889C7   		movq	%rax, %rdi
 7576              	.LEHB398:
 7577 434b E8000000 		call	_Unwind_Resume
 7577      00
 7578              	.LEHE398:
 7579              	.L508:
 7580 4350 4889C7   		movq	%rax, %rdi
 7581 4353 E8000000 		call	__cxa_begin_catch
 7581      00
 7582              	.LEHB399:
 7583 4358 E8000000 		call	_ZN8UnitTest11CurrentTest7DetailsEv
 7583      00
 7584 435d 488B08   		movq	(%rax), %rcx
 7585 4360 488D4590 		leaq	-112(%rbp), %rax
 7586 4364 BA1A0100 		movl	$282, %edx
 7586      00
 7587 4369 4889CE   		movq	%rcx, %rsi
 7588 436c 4889C7   		movq	%rax, %rdi
 7589 436f E8000000 		call	_ZN8UnitTest11TestDetailsC1ERKS0_i
 7589      00
 282:testCore.cpp  **** 	CHECK_EQUAL(5UL, queue.numItems);
 7590              		.loc 3 282 0 is_stmt 0 discriminator 1
 7591 4374 E8000000 		call	_ZN8UnitTest11CurrentTest7ResultsEv
 7591      00
 7592 4379 488B00   		movq	(%rax), %rax
 7593 437c 488D4D90 		leaq	-112(%rbp), %rcx
 7594 4380 BA000000 		movl	$.LC6, %edx
 7594      00
 7595 4385 4889CE   		movq	%rcx, %rsi
 7596 4388 4889C7   		movq	%rax, %rdi
 7597 438b E8000000 		call	_ZN8UnitTest11TestResults13OnTestFailureERKNS_11TestDetailsEPKc
 7597      00
 7598              	.LEHE399:
 7599              	.LEHB400:
 7600 4390 E8000000 		call	__cxa_end_catch
 7600      00
 7601              	.LEHE400:
 7602 4395 E983F2FF 		jmp	.L413
 7602      FF
 7603              	.L511:
 7604 439a 4889C3   		movq	%rax, %rbx
 283:testCore.cpp  **** 
 7605              		.loc 3 283 0 is_stmt 1
 7606 439d E8000000 		call	__cxa_end_catch
 7606      00
 7607 43a2 4889D8   		movq	%rbx, %rax
 7608 43a5 4889C7   		movq	%rax, %rdi
 7609              	.LEHB401:
 7610 43a8 E8000000 		call	_Unwind_Resume
 7610      00
 7611              	.LEHE401:
 7612              	.L510:
 7613 43ad 4889C7   		movq	%rax, %rdi
 7614 43b0 E8000000 		call	__cxa_begin_catch
 7614      00
 7615              	.LEHB402:
 7616 43b5 E8000000 		call	_ZN8UnitTest11CurrentTest7DetailsEv
 7616      00
 7617 43ba 488B08   		movq	(%rax), %rcx
 7618 43bd 488D4590 		leaq	-112(%rbp), %rax
 7619 43c1 BA1B0100 		movl	$283, %edx
 7619      00
 7620 43c6 4889CE   		movq	%rcx, %rsi
 7621 43c9 4889C7   		movq	%rax, %rdi
 7622 43cc E8000000 		call	_ZN8UnitTest11TestDetailsC1ERKS0_i
 7622      00
 283:testCore.cpp  **** 
 7623              		.loc 3 283 0 is_stmt 0 discriminator 1
 7624 43d1 E8000000 		call	_ZN8UnitTest11CurrentTest7ResultsEv
 7624      00
 7625 43d6 488B00   		movq	(%rax), %rax
 7626 43d9 488D4D90 		leaq	-112(%rbp), %rcx
 7627 43dd BA000000 		movl	$.LC38, %edx
 7627      00
 7628 43e2 4889CE   		movq	%rcx, %rsi
 7629 43e5 4889C7   		movq	%rax, %rdi
 7630 43e8 E8000000 		call	_ZN8UnitTest11TestResults13OnTestFailureERKNS_11TestDetailsEPKc
 7630      00
 7631              	.LEHE402:
 7632              	.LEHB403:
 7633 43ed E8000000 		call	__cxa_end_catch
 7633      00
 7634              	.LEHE403:
 7635 43f2 E970F2FF 		jmp	.L416
 7635      FF
 7636              	.L513:
 7637 43f7 4889C3   		movq	%rax, %rbx
 286:testCore.cpp  **** 	CHECK_EQUAL(101UL, deref(queue.itemArray[1]));
 7638              		.loc 3 286 0 is_stmt 1
 7639 43fa E8000000 		call	__cxa_end_catch
 7639      00
 7640 43ff 4889D8   		movq	%rbx, %rax
 7641 4402 4889C7   		movq	%rax, %rdi
 7642              	.LEHB404:
 7643 4405 E8000000 		call	_Unwind_Resume
 7643      00
 7644              	.LEHE404:
 7645              	.L512:
 7646 440a 4889C7   		movq	%rax, %rdi
 7647 440d E8000000 		call	__cxa_begin_catch
 7647      00
 7648              	.LEHB405:
 7649 4412 E8000000 		call	_ZN8UnitTest11CurrentTest7DetailsEv
 7649      00
 7650 4417 488B08   		movq	(%rax), %rcx
 7651 441a 488D4590 		leaq	-112(%rbp), %rax
 7652 441e BA1E0100 		movl	$286, %edx
 7652      00
 7653 4423 4889CE   		movq	%rcx, %rsi
 7654 4426 4889C7   		movq	%rax, %rdi
 7655 4429 E8000000 		call	_ZN8UnitTest11TestDetailsC1ERKS0_i
 7655      00
 286:testCore.cpp  **** 	CHECK_EQUAL(101UL, deref(queue.itemArray[1]));
 7656              		.loc 3 286 0 is_stmt 0 discriminator 1
 7657 442e E8000000 		call	_ZN8UnitTest11CurrentTest7ResultsEv
 7657      00
 7658 4433 488B00   		movq	(%rax), %rax
 7659 4436 488D4D90 		leaq	-112(%rbp), %rcx
 7660 443a BA000000 		movl	$.LC39, %edx
 7660      00
 7661 443f 4889CE   		movq	%rcx, %rsi
 7662 4442 4889C7   		movq	%rax, %rdi
 7663 4445 E8000000 		call	_ZN8UnitTest11TestResults13OnTestFailureERKNS_11TestDetailsEPKc
 7663      00
 7664              	.LEHE405:
 7665              	.LEHB406:
 7666 444a E8000000 		call	__cxa_end_catch
 7666      00
 7667              	.LEHE406:
 7668 444f E96BF2FF 		jmp	.L419
 7668      FF
 7669              	.L515:
 7670 4454 4889C3   		movq	%rax, %rbx
 287:testCore.cpp  **** 	CHECK_EQUAL(102UL, deref(queue.itemArray[2]));
 7671              		.loc 3 287 0 is_stmt 1
 7672 4457 E8000000 		call	__cxa_end_catch
 7672      00
 7673 445c 4889D8   		movq	%rbx, %rax
 7674 445f 4889C7   		movq	%rax, %rdi
 7675              	.LEHB407:
 7676 4462 E8000000 		call	_Unwind_Resume
 7676      00
 7677              	.LEHE407:
 7678              	.L514:
 7679 4467 4889C7   		movq	%rax, %rdi
 7680 446a E8000000 		call	__cxa_begin_catch
 7680      00
 7681              	.LEHB408:
 7682 446f E8000000 		call	_ZN8UnitTest11CurrentTest7DetailsEv
 7682      00
 7683 4474 488B08   		movq	(%rax), %rcx
 7684 4477 488D4590 		leaq	-112(%rbp), %rax
 7685 447b BA1F0100 		movl	$287, %edx
 7685      00
 7686 4480 4889CE   		movq	%rcx, %rsi
 7687 4483 4889C7   		movq	%rax, %rdi
 7688 4486 E8000000 		call	_ZN8UnitTest11TestDetailsC1ERKS0_i
 7688      00
 287:testCore.cpp  **** 	CHECK_EQUAL(102UL, deref(queue.itemArray[2]));
 7689              		.loc 3 287 0 is_stmt 0 discriminator 1
 7690 448b E8000000 		call	_ZN8UnitTest11CurrentTest7ResultsEv
 7690      00
 7691 4490 488B00   		movq	(%rax), %rax
 7692 4493 488D4D90 		leaq	-112(%rbp), %rcx
 7693 4497 BA000000 		movl	$.LC40, %edx
 7693      00
 7694 449c 4889CE   		movq	%rcx, %rsi
 7695 449f 4889C7   		movq	%rax, %rdi
 7696 44a2 E8000000 		call	_ZN8UnitTest11TestResults13OnTestFailureERKNS_11TestDetailsEPKc
 7696      00
 7697              	.LEHE408:
 7698              	.LEHB409:
 7699 44a7 E8000000 		call	__cxa_end_catch
 7699      00
 7700              	.LEHE409:
 7701 44ac E96AF2FF 		jmp	.L422
 7701      FF
 7702              	.L517:
 7703 44b1 4889C3   		movq	%rax, %rbx
 288:testCore.cpp  **** 	CHECK_EQUAL(103UL, deref(queue.itemArray[3]));
 7704              		.loc 3 288 0 is_stmt 1
 7705 44b4 E8000000 		call	__cxa_end_catch
 7705      00
 7706 44b9 4889D8   		movq	%rbx, %rax
 7707 44bc 4889C7   		movq	%rax, %rdi
 7708              	.LEHB410:
 7709 44bf E8000000 		call	_Unwind_Resume
 7709      00
 7710              	.LEHE410:
 7711              	.L516:
 7712 44c4 4889C7   		movq	%rax, %rdi
 7713 44c7 E8000000 		call	__cxa_begin_catch
 7713      00
 7714              	.LEHB411:
 7715 44cc E8000000 		call	_ZN8UnitTest11CurrentTest7DetailsEv
 7715      00
 7716 44d1 488B08   		movq	(%rax), %rcx
 7717 44d4 488D4590 		leaq	-112(%rbp), %rax
 7718 44d8 BA200100 		movl	$288, %edx
 7718      00
 7719 44dd 4889CE   		movq	%rcx, %rsi
 7720 44e0 4889C7   		movq	%rax, %rdi
 7721 44e3 E8000000 		call	_ZN8UnitTest11TestDetailsC1ERKS0_i
 7721      00
 288:testCore.cpp  **** 	CHECK_EQUAL(103UL, deref(queue.itemArray[3]));
 7722              		.loc 3 288 0 is_stmt 0 discriminator 1
 7723 44e8 E8000000 		call	_ZN8UnitTest11CurrentTest7ResultsEv
 7723      00
 7724 44ed 488B00   		movq	(%rax), %rax
 7725 44f0 488D4D90 		leaq	-112(%rbp), %rcx
 7726 44f4 BA000000 		movl	$.LC41, %edx
 7726      00
 7727 44f9 4889CE   		movq	%rcx, %rsi
 7728 44fc 4889C7   		movq	%rax, %rdi
 7729 44ff E8000000 		call	_ZN8UnitTest11TestResults13OnTestFailureERKNS_11TestDetailsEPKc
 7729      00
 7730              	.LEHE411:
 7731              	.LEHB412:
 7732 4504 E8000000 		call	__cxa_end_catch
 7732      00
 7733              	.LEHE412:
 7734 4509 E969F2FF 		jmp	.L425
 7734      FF
 7735              	.L519:
 7736 450e 4889C3   		movq	%rax, %rbx
 289:testCore.cpp  **** 	CHECK_EQUAL(104UL, deref(queue.itemArray[4]));
 7737              		.loc 3 289 0 is_stmt 1
 7738 4511 E8000000 		call	__cxa_end_catch
 7738      00
 7739 4516 4889D8   		movq	%rbx, %rax
 7740 4519 4889C7   		movq	%rax, %rdi
 7741              	.LEHB413:
 7742 451c E8000000 		call	_Unwind_Resume
 7742      00
 7743              	.LEHE413:
 7744              	.L518:
 7745 4521 4889C7   		movq	%rax, %rdi
 7746 4524 E8000000 		call	__cxa_begin_catch
 7746      00
 7747              	.LEHB414:
 7748 4529 E8000000 		call	_ZN8UnitTest11CurrentTest7DetailsEv
 7748      00
 7749 452e 488B08   		movq	(%rax), %rcx
 7750 4531 488D4590 		leaq	-112(%rbp), %rax
 7751 4535 BA210100 		movl	$289, %edx
 7751      00
 7752 453a 4889CE   		movq	%rcx, %rsi
 7753 453d 4889C7   		movq	%rax, %rdi
 7754 4540 E8000000 		call	_ZN8UnitTest11TestDetailsC1ERKS0_i
 7754      00
 289:testCore.cpp  **** 	CHECK_EQUAL(104UL, deref(queue.itemArray[4]));
 7755              		.loc 3 289 0 is_stmt 0 discriminator 1
 7756 4545 E8000000 		call	_ZN8UnitTest11CurrentTest7ResultsEv
 7756      00
 7757 454a 488B00   		movq	(%rax), %rax
 7758 454d 488D4D90 		leaq	-112(%rbp), %rcx
 7759 4551 BA000000 		movl	$.LC42, %edx
 7759      00
 7760 4556 4889CE   		movq	%rcx, %rsi
 7761 4559 4889C7   		movq	%rax, %rdi
 7762 455c E8000000 		call	_ZN8UnitTest11TestResults13OnTestFailureERKNS_11TestDetailsEPKc
 7762      00
 7763              	.LEHE414:
 7764              	.LEHB415:
 7765 4561 E8000000 		call	__cxa_end_catch
 7765      00
 7766              	.LEHE415:
 7767 4566 E968F2FF 		jmp	.L428
 7767      FF
 7768              	.L521:
 7769 456b 4889C3   		movq	%rax, %rbx
 290:testCore.cpp  **** 	CHECK_EQUAL(6UL, deref(queue.itemArray[5]));
 7770              		.loc 3 290 0 is_stmt 1
 7771 456e E8000000 		call	__cxa_end_catch
 7771      00
 7772 4573 4889D8   		movq	%rbx, %rax
 7773 4576 4889C7   		movq	%rax, %rdi
 7774              	.LEHB416:
 7775 4579 E8000000 		call	_Unwind_Resume
 7775      00
 7776              	.LEHE416:
 7777              	.L520:
 7778 457e 4889C7   		movq	%rax, %rdi
 7779 4581 E8000000 		call	__cxa_begin_catch
 7779      00
 7780              	.LEHB417:
 7781 4586 E8000000 		call	_ZN8UnitTest11CurrentTest7DetailsEv
 7781      00
 7782 458b 488B08   		movq	(%rax), %rcx
 7783 458e 488D4590 		leaq	-112(%rbp), %rax
 7784 4592 BA220100 		movl	$290, %edx
 7784      00
 7785 4597 4889CE   		movq	%rcx, %rsi
 7786 459a 4889C7   		movq	%rax, %rdi
 7787 459d E8000000 		call	_ZN8UnitTest11TestDetailsC1ERKS0_i
 7787      00
 290:testCore.cpp  **** 	CHECK_EQUAL(6UL, deref(queue.itemArray[5]));
 7788              		.loc 3 290 0 is_stmt 0 discriminator 1
 7789 45a2 E8000000 		call	_ZN8UnitTest11CurrentTest7ResultsEv
 7789      00
 7790 45a7 488B00   		movq	(%rax), %rax
 7791 45aa 488D4D90 		leaq	-112(%rbp), %rcx
 7792 45ae BA000000 		movl	$.LC43, %edx
 7792      00
 7793 45b3 4889CE   		movq	%rcx, %rsi
 7794 45b6 4889C7   		movq	%rax, %rdi
 7795 45b9 E8000000 		call	_ZN8UnitTest11TestResults13OnTestFailureERKNS_11TestDetailsEPKc
 7795      00
 7796              	.LEHE417:
 7797              	.LEHB418:
 7798 45be E8000000 		call	__cxa_end_catch
 7798      00
 7799              	.LEHE418:
 7800 45c3 E967F2FF 		jmp	.L431
 7800      FF
 7801              	.L523:
 7802 45c8 4889C3   		movq	%rax, %rbx
 291:testCore.cpp  **** 	CHECK_EQUAL(7UL, deref(queue.itemArray[6]));
 7803              		.loc 3 291 0 is_stmt 1
 7804 45cb E8000000 		call	__cxa_end_catch
 7804      00
 7805 45d0 4889D8   		movq	%rbx, %rax
 7806 45d3 4889C7   		movq	%rax, %rdi
 7807              	.LEHB419:
 7808 45d6 E8000000 		call	_Unwind_Resume
 7808      00
 7809              	.LEHE419:
 7810              	.L522:
 7811 45db 4889C7   		movq	%rax, %rdi
 7812 45de E8000000 		call	__cxa_begin_catch
 7812      00
 7813              	.LEHB420:
 7814 45e3 E8000000 		call	_ZN8UnitTest11CurrentTest7DetailsEv
 7814      00
 7815 45e8 488B08   		movq	(%rax), %rcx
 7816 45eb 488D4590 		leaq	-112(%rbp), %rax
 7817 45ef BA230100 		movl	$291, %edx
 7817      00
 7818 45f4 4889CE   		movq	%rcx, %rsi
 7819 45f7 4889C7   		movq	%rax, %rdi
 7820 45fa E8000000 		call	_ZN8UnitTest11TestDetailsC1ERKS0_i
 7820      00
 291:testCore.cpp  **** 	CHECK_EQUAL(7UL, deref(queue.itemArray[6]));
 7821              		.loc 3 291 0 is_stmt 0 discriminator 1
 7822 45ff E8000000 		call	_ZN8UnitTest11CurrentTest7ResultsEv
 7822      00
 7823 4604 488B00   		movq	(%rax), %rax
 7824 4607 488D4D90 		leaq	-112(%rbp), %rcx
 7825 460b BA000000 		movl	$.LC44, %edx
 7825      00
 7826 4610 4889CE   		movq	%rcx, %rsi
 7827 4613 4889C7   		movq	%rax, %rdi
 7828 4616 E8000000 		call	_ZN8UnitTest11TestResults13OnTestFailureERKNS_11TestDetailsEPKc
 7828      00
 7829              	.LEHE420:
 7830              	.LEHB421:
 7831 461b E8000000 		call	__cxa_end_catch
 7831      00
 7832              	.LEHE421:
 7833 4620 E966F2FF 		jmp	.L434
 7833      FF
 7834              	.L525:
 7835 4625 4889C3   		movq	%rax, %rbx
 292:testCore.cpp  **** 	CHECK_EQUAL(8UL, deref(queue.itemArray[7]));
 7836              		.loc 3 292 0 is_stmt 1
 7837 4628 E8000000 		call	__cxa_end_catch
 7837      00
 7838 462d 4889D8   		movq	%rbx, %rax
 7839 4630 4889C7   		movq	%rax, %rdi
 7840              	.LEHB422:
 7841 4633 E8000000 		call	_Unwind_Resume
 7841      00
 7842              	.LEHE422:
 7843              	.L524:
 7844 4638 4889C7   		movq	%rax, %rdi
 7845 463b E8000000 		call	__cxa_begin_catch
 7845      00
 7846              	.LEHB423:
 7847 4640 E8000000 		call	_ZN8UnitTest11CurrentTest7DetailsEv
 7847      00
 7848 4645 488B08   		movq	(%rax), %rcx
 7849 4648 488D4590 		leaq	-112(%rbp), %rax
 7850 464c BA240100 		movl	$292, %edx
 7850      00
 7851 4651 4889CE   		movq	%rcx, %rsi
 7852 4654 4889C7   		movq	%rax, %rdi
 7853 4657 E8000000 		call	_ZN8UnitTest11TestDetailsC1ERKS0_i
 7853      00
 292:testCore.cpp  **** 	CHECK_EQUAL(8UL, deref(queue.itemArray[7]));
 7854              		.loc 3 292 0 is_stmt 0 discriminator 1
 7855 465c E8000000 		call	_ZN8UnitTest11CurrentTest7ResultsEv
 7855      00
 7856 4661 488B00   		movq	(%rax), %rax
 7857 4664 488D4D90 		leaq	-112(%rbp), %rcx
 7858 4668 BA000000 		movl	$.LC45, %edx
 7858      00
 7859 466d 4889CE   		movq	%rcx, %rsi
 7860 4670 4889C7   		movq	%rax, %rdi
 7861 4673 E8000000 		call	_ZN8UnitTest11TestResults13OnTestFailureERKNS_11TestDetailsEPKc
 7861      00
 7862              	.LEHE423:
 7863              	.LEHB424:
 7864 4678 E8000000 		call	__cxa_end_catch
 7864      00
 7865              	.LEHE424:
 7866 467d E965F2FF 		jmp	.L437
 7866      FF
 7867              	.L527:
 7868 4682 4889C3   		movq	%rax, %rbx
 293:testCore.cpp  **** 
 7869              		.loc 3 293 0 is_stmt 1
 7870 4685 E8000000 		call	__cxa_end_catch
 7870      00
 7871 468a 4889D8   		movq	%rbx, %rax
 7872 468d 4889C7   		movq	%rax, %rdi
 7873              	.LEHB425:
 7874 4690 E8000000 		call	_Unwind_Resume
 7874      00
 7875              	.LEHE425:
 7876              	.L526:
 7877 4695 4889C7   		movq	%rax, %rdi
 7878 4698 E8000000 		call	__cxa_begin_catch
 7878      00
 7879              	.LEHB426:
 7880 469d E8000000 		call	_ZN8UnitTest11CurrentTest7DetailsEv
 7880      00
 7881 46a2 488B08   		movq	(%rax), %rcx
 7882 46a5 488D4590 		leaq	-112(%rbp), %rax
 7883 46a9 BA250100 		movl	$293, %edx
 7883      00
 7884 46ae 4889CE   		movq	%rcx, %rsi
 7885 46b1 4889C7   		movq	%rax, %rdi
 7886 46b4 E8000000 		call	_ZN8UnitTest11TestDetailsC1ERKS0_i
 7886      00
 293:testCore.cpp  **** 
 7887              		.loc 3 293 0 is_stmt 0 discriminator 1
 7888 46b9 E8000000 		call	_ZN8UnitTest11CurrentTest7ResultsEv
 7888      00
 7889 46be 488B00   		movq	(%rax), %rax
 7890 46c1 488D4D90 		leaq	-112(%rbp), %rcx
 7891 46c5 BA000000 		movl	$.LC46, %edx
 7891      00
 7892 46ca 4889CE   		movq	%rcx, %rsi
 7893 46cd 4889C7   		movq	%rax, %rdi
 7894 46d0 E8000000 		call	_ZN8UnitTest11TestResults13OnTestFailureERKNS_11TestDetailsEPKc
 7894      00
 7895              	.LEHE426:
 7896              	.LEHB427:
 7897 46d5 E8000000 		call	__cxa_end_catch
 7897      00
 7898              	.LEHE427:
 7899 46da E964F2FF 		jmp	.L440
 7899      FF
 7900              	.L529:
 7901 46df 4889C3   		movq	%rax, %rbx
 297:testCore.cpp  **** 	CHECK_EQUAL(100UL, *item);
 7902              		.loc 3 297 0 is_stmt 1
 7903 46e2 E8000000 		call	__cxa_end_catch
 7903      00
 7904 46e7 4889D8   		movq	%rbx, %rax
 7905 46ea 4889C7   		movq	%rax, %rdi
 7906              	.LEHB428:
 7907 46ed E8000000 		call	_Unwind_Resume
 7907      00
 7908              	.LEHE428:
 7909              	.L528:
 7910 46f2 4889C7   		movq	%rax, %rdi
 7911 46f5 E8000000 		call	__cxa_begin_catch
 7911      00
 7912              	.LEHB429:
 7913 46fa E8000000 		call	_ZN8UnitTest11CurrentTest7DetailsEv
 7913      00
 7914 46ff 488B08   		movq	(%rax), %rcx
 7915 4702 488D4590 		leaq	-112(%rbp), %rax
 7916 4706 BA290100 		movl	$297, %edx
 7916      00
 7917 470b 4889CE   		movq	%rcx, %rsi
 7918 470e 4889C7   		movq	%rax, %rdi
 7919 4711 E8000000 		call	_ZN8UnitTest11TestDetailsC1ERKS0_i
 7919      00
 297:testCore.cpp  **** 	CHECK_EQUAL(100UL, *item);
 7920              		.loc 3 297 0 is_stmt 0 discriminator 1
 7921 4716 E8000000 		call	_ZN8UnitTest11CurrentTest7ResultsEv
 7921      00
 7922 471b 488B00   		movq	(%rax), %rax
 7923 471e 488D4D90 		leaq	-112(%rbp), %rcx
 7924 4722 BA000000 		movl	$.LC3, %edx
 7924      00
 7925 4727 4889CE   		movq	%rcx, %rsi
 7926 472a 4889C7   		movq	%rax, %rdi
 7927 472d E8000000 		call	_ZN8UnitTest11TestResults13OnTestFailureERKNS_11TestDetailsEPKc
 7927      00
 7928              	.LEHE429:
 7929              	.LEHB430:
 7930 4732 E8000000 		call	__cxa_end_catch
 7930      00
 7931              	.LEHE430:
 7932 4737 E962F2FF 		jmp	.L443
 7932      FF
 7933              	.L531:
 7934 473c 4889C3   		movq	%rax, %rbx
 298:testCore.cpp  **** 	queueCommitTake(&queue);
 7935              		.loc 3 298 0 is_stmt 1
 7936 473f E8000000 		call	__cxa_end_catch
 7936      00
 7937 4744 4889D8   		movq	%rbx, %rax
 7938 4747 4889C7   		movq	%rax, %rdi
 7939              	.LEHB431:
 7940 474a E8000000 		call	_Unwind_Resume
 7940      00
 7941              	.LEHE431:
 7942              	.L530:
 7943 474f 4889C7   		movq	%rax, %rdi
 7944 4752 E8000000 		call	__cxa_begin_catch
 7944      00
 7945              	.LEHB432:
 7946 4757 E8000000 		call	_ZN8UnitTest11CurrentTest7DetailsEv
 7946      00
 7947 475c 488B08   		movq	(%rax), %rcx
 7948 475f 488D4590 		leaq	-112(%rbp), %rax
 7949 4763 BA2A0100 		movl	$298, %edx
 7949      00
 7950 4768 4889CE   		movq	%rcx, %rsi
 7951 476b 4889C7   		movq	%rax, %rdi
 7952 476e E8000000 		call	_ZN8UnitTest11TestDetailsC1ERKS0_i
 7952      00
 298:testCore.cpp  **** 	queueCommitTake(&queue);
 7953              		.loc 3 298 0 is_stmt 0 discriminator 1
 7954 4773 E8000000 		call	_ZN8UnitTest11CurrentTest7ResultsEv
 7954      00
 7955 4778 488B00   		movq	(%rax), %rax
 7956 477b 488D4D90 		leaq	-112(%rbp), %rcx
 7957 477f BA000000 		movl	$.LC47, %edx
 7957      00
 7958 4784 4889CE   		movq	%rcx, %rsi
 7959 4787 4889C7   		movq	%rax, %rdi
 7960 478a E8000000 		call	_ZN8UnitTest11TestResults13OnTestFailureERKNS_11TestDetailsEPKc
 7960      00
 7961              	.LEHE432:
 7962              	.LEHB433:
 7963 478f E8000000 		call	__cxa_end_catch
 7963      00
 7964              	.LEHE433:
 7965 4794 E94BF2FF 		jmp	.L446
 7965      FF
 7966              	.L533:
 7967 4799 4889C3   		movq	%rax, %rbx
 301:testCore.cpp  **** 	CHECK_EQUAL(101UL, *item);
 7968              		.loc 3 301 0 is_stmt 1
 7969 479c E8000000 		call	__cxa_end_catch
 7969      00
 7970 47a1 4889D8   		movq	%rbx, %rax
 7971 47a4 4889C7   		movq	%rax, %rdi
 7972              	.LEHB434:
 7973 47a7 E8000000 		call	_Unwind_Resume
 7973      00
 7974              	.LEHE434:
 7975              	.L532:
 7976 47ac 4889C7   		movq	%rax, %rdi
 7977 47af E8000000 		call	__cxa_begin_catch
 7977      00
 7978              	.LEHB435:
 7979 47b4 E8000000 		call	_ZN8UnitTest11CurrentTest7DetailsEv
 7979      00
 7980 47b9 488B08   		movq	(%rax), %rcx
 7981 47bc 488D4590 		leaq	-112(%rbp), %rax
 7982 47c0 BA2D0100 		movl	$301, %edx
 7982      00
 7983 47c5 4889CE   		movq	%rcx, %rsi
 7984 47c8 4889C7   		movq	%rax, %rdi
 7985 47cb E8000000 		call	_ZN8UnitTest11TestDetailsC1ERKS0_i
 7985      00
 301:testCore.cpp  **** 	CHECK_EQUAL(101UL, *item);
 7986              		.loc 3 301 0 is_stmt 0 discriminator 1
 7987 47d0 E8000000 		call	_ZN8UnitTest11CurrentTest7ResultsEv
 7987      00
 7988 47d5 488B00   		movq	(%rax), %rax
 7989 47d8 488D4D90 		leaq	-112(%rbp), %rcx
 7990 47dc BA000000 		movl	$.LC3, %edx
 7990      00
 7991 47e1 4889CE   		movq	%rcx, %rsi
 7992 47e4 4889C7   		movq	%rax, %rdi
 7993 47e7 E8000000 		call	_ZN8UnitTest11TestResults13OnTestFailureERKNS_11TestDetailsEPKc
 7993      00
 7994              	.LEHE435:
 7995              	.LEHB436:
 7996 47ec E8000000 		call	__cxa_end_catch
 7996      00
 7997              	.LEHE436:
 7998 47f1 E955F2FF 		jmp	.L449
 7998      FF
 7999              	.L535:
 8000 47f6 4889C3   		movq	%rax, %rbx
 302:testCore.cpp  **** 	queueCommitTake(&queue);
 8001              		.loc 3 302 0 is_stmt 1
 8002 47f9 E8000000 		call	__cxa_end_catch
 8002      00
 8003 47fe 4889D8   		movq	%rbx, %rax
 8004 4801 4889C7   		movq	%rax, %rdi
 8005              	.LEHB437:
 8006 4804 E8000000 		call	_Unwind_Resume
 8006      00
 8007              	.LEHE437:
 8008              	.L534:
 8009 4809 4889C7   		movq	%rax, %rdi
 8010 480c E8000000 		call	__cxa_begin_catch
 8010      00
 8011              	.LEHB438:
 8012 4811 E8000000 		call	_ZN8UnitTest11CurrentTest7DetailsEv
 8012      00
 8013 4816 488B08   		movq	(%rax), %rcx
 8014 4819 488D4590 		leaq	-112(%rbp), %rax
 8015 481d BA2E0100 		movl	$302, %edx
 8015      00
 8016 4822 4889CE   		movq	%rcx, %rsi
 8017 4825 4889C7   		movq	%rax, %rdi
 8018 4828 E8000000 		call	_ZN8UnitTest11TestDetailsC1ERKS0_i
 8018      00
 302:testCore.cpp  **** 	queueCommitTake(&queue);
 8019              		.loc 3 302 0 is_stmt 0 discriminator 1
 8020 482d E8000000 		call	_ZN8UnitTest11CurrentTest7ResultsEv
 8020      00
 8021 4832 488B00   		movq	(%rax), %rax
 8022 4835 488D4D90 		leaq	-112(%rbp), %rcx
 8023 4839 BA000000 		movl	$.LC48, %edx
 8023      00
 8024 483e 4889CE   		movq	%rcx, %rsi
 8025 4841 4889C7   		movq	%rax, %rdi
 8026 4844 E8000000 		call	_ZN8UnitTest11TestResults13OnTestFailureERKNS_11TestDetailsEPKc
 8026      00
 8027              	.LEHE438:
 8028              	.LEHB439:
 8029 4849 E8000000 		call	__cxa_end_catch
 8029      00
 8030              	.LEHE439:
 8031 484e E93EF2FF 		jmp	.L452
 8031      FF
 8032              	.L537:
 8033 4853 4889C3   		movq	%rax, %rbx
 305:testCore.cpp  **** 	CHECK_EQUAL(102UL, *item);
 8034              		.loc 3 305 0 is_stmt 1
 8035 4856 E8000000 		call	__cxa_end_catch
 8035      00
 8036 485b 4889D8   		movq	%rbx, %rax
 8037 485e 4889C7   		movq	%rax, %rdi
 8038              	.LEHB440:
 8039 4861 E8000000 		call	_Unwind_Resume
 8039      00
 8040              	.LEHE440:
 8041              	.L536:
 8042 4866 4889C7   		movq	%rax, %rdi
 8043 4869 E8000000 		call	__cxa_begin_catch
 8043      00
 8044              	.LEHB441:
 8045 486e E8000000 		call	_ZN8UnitTest11CurrentTest7DetailsEv
 8045      00
 8046 4873 488B08   		movq	(%rax), %rcx
 8047 4876 488D4590 		leaq	-112(%rbp), %rax
 8048 487a BA310100 		movl	$305, %edx
 8048      00
 8049 487f 4889CE   		movq	%rcx, %rsi
 8050 4882 4889C7   		movq	%rax, %rdi
 8051 4885 E8000000 		call	_ZN8UnitTest11TestDetailsC1ERKS0_i
 8051      00
 305:testCore.cpp  **** 	CHECK_EQUAL(102UL, *item);
 8052              		.loc 3 305 0 is_stmt 0 discriminator 1
 8053 488a E8000000 		call	_ZN8UnitTest11CurrentTest7ResultsEv
 8053      00
 8054 488f 488B00   		movq	(%rax), %rax
 8055 4892 488D4D90 		leaq	-112(%rbp), %rcx
 8056 4896 BA000000 		movl	$.LC3, %edx
 8056      00
 8057 489b 4889CE   		movq	%rcx, %rsi
 8058 489e 4889C7   		movq	%rax, %rdi
 8059 48a1 E8000000 		call	_ZN8UnitTest11TestResults13OnTestFailureERKNS_11TestDetailsEPKc
 8059      00
 8060              	.LEHE441:
 8061              	.LEHB442:
 8062 48a6 E8000000 		call	__cxa_end_catch
 8062      00
 8063              	.LEHE442:
 8064 48ab E948F2FF 		jmp	.L455
 8064      FF
 8065              	.L539:
 8066 48b0 4889C3   		movq	%rax, %rbx
 306:testCore.cpp  **** 	queueCommitTake(&queue);
 8067              		.loc 3 306 0 is_stmt 1
 8068 48b3 E8000000 		call	__cxa_end_catch
 8068      00
 8069 48b8 4889D8   		movq	%rbx, %rax
 8070 48bb 4889C7   		movq	%rax, %rdi
 8071              	.LEHB443:
 8072 48be E8000000 		call	_Unwind_Resume
 8072      00
 8073              	.LEHE443:
 8074              	.L538:
 8075 48c3 4889C7   		movq	%rax, %rdi
 8076 48c6 E8000000 		call	__cxa_begin_catch
 8076      00
 8077              	.LEHB444:
 8078 48cb E8000000 		call	_ZN8UnitTest11CurrentTest7DetailsEv
 8078      00
 8079 48d0 488B08   		movq	(%rax), %rcx
 8080 48d3 488D4590 		leaq	-112(%rbp), %rax
 8081 48d7 BA320100 		movl	$306, %edx
 8081      00
 8082 48dc 4889CE   		movq	%rcx, %rsi
 8083 48df 4889C7   		movq	%rax, %rdi
 8084 48e2 E8000000 		call	_ZN8UnitTest11TestDetailsC1ERKS0_i
 8084      00
 306:testCore.cpp  **** 	queueCommitTake(&queue);
 8085              		.loc 3 306 0 is_stmt 0 discriminator 1
 8086 48e7 E8000000 		call	_ZN8UnitTest11CurrentTest7ResultsEv
 8086      00
 8087 48ec 488B00   		movq	(%rax), %rax
 8088 48ef 488D4D90 		leaq	-112(%rbp), %rcx
 8089 48f3 BA000000 		movl	$.LC49, %edx
 8089      00
 8090 48f8 4889CE   		movq	%rcx, %rsi
 8091 48fb 4889C7   		movq	%rax, %rdi
 8092 48fe E8000000 		call	_ZN8UnitTest11TestResults13OnTestFailureERKNS_11TestDetailsEPKc
 8092      00
 8093              	.LEHE444:
 8094              	.LEHB445:
 8095 4903 E8000000 		call	__cxa_end_catch
 8095      00
 8096              	.LEHE445:
 8097 4908 E931F2FF 		jmp	.L458
 8097      FF
 8098              	.L541:
 8099 490d 4889C3   		movq	%rax, %rbx
 309:testCore.cpp  **** 	CHECK_EQUAL(103UL, *item);
 8100              		.loc 3 309 0 is_stmt 1
 8101 4910 E8000000 		call	__cxa_end_catch
 8101      00
 8102 4915 4889D8   		movq	%rbx, %rax
 8103 4918 4889C7   		movq	%rax, %rdi
 8104              	.LEHB446:
 8105 491b E8000000 		call	_Unwind_Resume
 8105      00
 8106              	.LEHE446:
 8107              	.L540:
 8108 4920 4889C7   		movq	%rax, %rdi
 8109 4923 E8000000 		call	__cxa_begin_catch
 8109      00
 8110              	.LEHB447:
 8111 4928 E8000000 		call	_ZN8UnitTest11CurrentTest7DetailsEv
 8111      00
 8112 492d 488B08   		movq	(%rax), %rcx
 8113 4930 488D4590 		leaq	-112(%rbp), %rax
 8114 4934 BA350100 		movl	$309, %edx
 8114      00
 8115 4939 4889CE   		movq	%rcx, %rsi
 8116 493c 4889C7   		movq	%rax, %rdi
 8117 493f E8000000 		call	_ZN8UnitTest11TestDetailsC1ERKS0_i
 8117      00
 309:testCore.cpp  **** 	CHECK_EQUAL(103UL, *item);
 8118              		.loc 3 309 0 is_stmt 0 discriminator 1
 8119 4944 E8000000 		call	_ZN8UnitTest11CurrentTest7ResultsEv
 8119      00
 8120 4949 488B00   		movq	(%rax), %rax
 8121 494c 488D4D90 		leaq	-112(%rbp), %rcx
 8122 4950 BA000000 		movl	$.LC3, %edx
 8122      00
 8123 4955 4889CE   		movq	%rcx, %rsi
 8124 4958 4889C7   		movq	%rax, %rdi
 8125 495b E8000000 		call	_ZN8UnitTest11TestResults13OnTestFailureERKNS_11TestDetailsEPKc
 8125      00
 8126              	.LEHE447:
 8127              	.LEHB448:
 8128 4960 E8000000 		call	__cxa_end_catch
 8128      00
 8129              	.LEHE448:
 8130 4965 E93BF2FF 		jmp	.L461
 8130      FF
 8131              	.L543:
 8132 496a 4889C3   		movq	%rax, %rbx
 310:testCore.cpp  **** 	queueCommitTake(&queue);
 8133              		.loc 3 310 0 is_stmt 1
 8134 496d E8000000 		call	__cxa_end_catch
 8134      00
 8135 4972 4889D8   		movq	%rbx, %rax
 8136 4975 4889C7   		movq	%rax, %rdi
 8137              	.LEHB449:
 8138 4978 E8000000 		call	_Unwind_Resume
 8138      00
 8139              	.LEHE449:
 8140              	.L542:
 8141 497d 4889C7   		movq	%rax, %rdi
 8142 4980 E8000000 		call	__cxa_begin_catch
 8142      00
 8143              	.LEHB450:
 8144 4985 E8000000 		call	_ZN8UnitTest11CurrentTest7DetailsEv
 8144      00
 8145 498a 488B08   		movq	(%rax), %rcx
 8146 498d 488D4590 		leaq	-112(%rbp), %rax
 8147 4991 BA360100 		movl	$310, %edx
 8147      00
 8148 4996 4889CE   		movq	%rcx, %rsi
 8149 4999 4889C7   		movq	%rax, %rdi
 8150 499c E8000000 		call	_ZN8UnitTest11TestDetailsC1ERKS0_i
 8150      00
 310:testCore.cpp  **** 	queueCommitTake(&queue);
 8151              		.loc 3 310 0 is_stmt 0 discriminator 1
 8152 49a1 E8000000 		call	_ZN8UnitTest11CurrentTest7ResultsEv
 8152      00
 8153 49a6 488B00   		movq	(%rax), %rax
 8154 49a9 488D4D90 		leaq	-112(%rbp), %rcx
 8155 49ad BA000000 		movl	$.LC50, %edx
 8155      00
 8156 49b2 4889CE   		movq	%rcx, %rsi
 8157 49b5 4889C7   		movq	%rax, %rdi
 8158 49b8 E8000000 		call	_ZN8UnitTest11TestResults13OnTestFailureERKNS_11TestDetailsEPKc
 8158      00
 8159              	.LEHE450:
 8160              	.LEHB451:
 8161 49bd E8000000 		call	__cxa_end_catch
 8161      00
 8162              	.LEHE451:
 8163 49c2 E924F2FF 		jmp	.L464
 8163      FF
 8164              	.L545:
 8165 49c7 4889C3   		movq	%rax, %rbx
 313:testCore.cpp  **** 	CHECK_EQUAL(104UL, *item);
 8166              		.loc 3 313 0 is_stmt 1
 8167 49ca E8000000 		call	__cxa_end_catch
 8167      00
 8168 49cf 4889D8   		movq	%rbx, %rax
 8169 49d2 4889C7   		movq	%rax, %rdi
 8170              	.LEHB452:
 8171 49d5 E8000000 		call	_Unwind_Resume
 8171      00
 8172              	.LEHE452:
 8173              	.L544:
 8174 49da 4889C7   		movq	%rax, %rdi
 8175 49dd E8000000 		call	__cxa_begin_catch
 8175      00
 8176              	.LEHB453:
 8177 49e2 E8000000 		call	_ZN8UnitTest11CurrentTest7DetailsEv
 8177      00
 8178 49e7 488B08   		movq	(%rax), %rcx
 8179 49ea 488D4590 		leaq	-112(%rbp), %rax
 8180 49ee BA390100 		movl	$313, %edx
 8180      00
 8181 49f3 4889CE   		movq	%rcx, %rsi
 8182 49f6 4889C7   		movq	%rax, %rdi
 8183 49f9 E8000000 		call	_ZN8UnitTest11TestDetailsC1ERKS0_i
 8183      00
 313:testCore.cpp  **** 	CHECK_EQUAL(104UL, *item);
 8184              		.loc 3 313 0 is_stmt 0 discriminator 1
 8185 49fe E8000000 		call	_ZN8UnitTest11CurrentTest7ResultsEv
 8185      00
 8186 4a03 488B00   		movq	(%rax), %rax
 8187 4a06 488D4D90 		leaq	-112(%rbp), %rcx
 8188 4a0a BA000000 		movl	$.LC3, %edx
 8188      00
 8189 4a0f 4889CE   		movq	%rcx, %rsi
 8190 4a12 4889C7   		movq	%rax, %rdi
 8191 4a15 E8000000 		call	_ZN8UnitTest11TestResults13OnTestFailureERKNS_11TestDetailsEPKc
 8191      00
 8192              	.LEHE453:
 8193              	.LEHB454:
 8194 4a1a E8000000 		call	__cxa_end_catch
 8194      00
 8195              	.LEHE454:
 8196 4a1f E92EF2FF 		jmp	.L467
 8196      FF
 8197              	.L547:
 8198 4a24 4889C3   		movq	%rax, %rbx
 314:testCore.cpp  **** 	queueCommitTake(&queue);
 8199              		.loc 3 314 0 is_stmt 1
 8200 4a27 E8000000 		call	__cxa_end_catch
 8200      00
 8201 4a2c 4889D8   		movq	%rbx, %rax
 8202 4a2f 4889C7   		movq	%rax, %rdi
 8203              	.LEHB455:
 8204 4a32 E8000000 		call	_Unwind_Resume
 8204      00
 8205              	.LEHE455:
 8206              	.L546:
 8207 4a37 4889C7   		movq	%rax, %rdi
 8208 4a3a E8000000 		call	__cxa_begin_catch
 8208      00
 8209              	.LEHB456:
 8210 4a3f E8000000 		call	_ZN8UnitTest11CurrentTest7DetailsEv
 8210      00
 8211 4a44 488B08   		movq	(%rax), %rcx
 8212 4a47 488D4590 		leaq	-112(%rbp), %rax
 8213 4a4b BA3A0100 		movl	$314, %edx
 8213      00
 8214 4a50 4889CE   		movq	%rcx, %rsi
 8215 4a53 4889C7   		movq	%rax, %rdi
 8216 4a56 E8000000 		call	_ZN8UnitTest11TestDetailsC1ERKS0_i
 8216      00
 314:testCore.cpp  **** 	queueCommitTake(&queue);
 8217              		.loc 3 314 0 is_stmt 0 discriminator 1
 8218 4a5b E8000000 		call	_ZN8UnitTest11CurrentTest7ResultsEv
 8218      00
 8219 4a60 488B00   		movq	(%rax), %rax
 8220 4a63 488D4D90 		leaq	-112(%rbp), %rcx
 8221 4a67 BA000000 		movl	$.LC51, %edx
 8221      00
 8222 4a6c 4889CE   		movq	%rcx, %rsi
 8223 4a6f 4889C7   		movq	%rax, %rdi
 8224 4a72 E8000000 		call	_ZN8UnitTest11TestResults13OnTestFailureERKNS_11TestDetailsEPKc
 8224      00
 8225              	.LEHE456:
 8226              	.LEHB457:
 8227 4a77 E8000000 		call	__cxa_end_catch
 8227      00
 8228              	.LEHE457:
 8229 4a7c E917F2FF 		jmp	.L470
 8229      FF
 8230              	.L549:
 8231 4a81 4889C3   		movq	%rax, %rbx
 319:testCore.cpp  **** 
 8232              		.loc 3 319 0 is_stmt 1
 8233 4a84 E8000000 		call	__cxa_end_catch
 8233      00
 8234 4a89 4889D8   		movq	%rbx, %rax
 8235 4a8c 4889C7   		movq	%rax, %rdi
 8236              	.LEHB458:
 8237 4a8f E8000000 		call	_Unwind_Resume
 8237      00
 8238              	.LEHE458:
 8239              	.L548:
 8240 4a94 4889C7   		movq	%rax, %rdi
 8241 4a97 E8000000 		call	__cxa_begin_catch
 8241      00
 8242              	.LEHB459:
 8243 4a9c E8000000 		call	_ZN8UnitTest11CurrentTest7DetailsEv
 8243      00
 8244 4aa1 488B08   		movq	(%rax), %rcx
 8245 4aa4 488D4590 		leaq	-112(%rbp), %rax
 8246 4aa8 BA3F0100 		movl	$319, %edx
 8246      00
 8247 4aad 4889CE   		movq	%rcx, %rsi
 8248 4ab0 4889C7   		movq	%rax, %rdi
 8249 4ab3 E8000000 		call	_ZN8UnitTest11TestDetailsC1ERKS0_i
 8249      00
 319:testCore.cpp  **** 
 8250              		.loc 3 319 0 is_stmt 0 discriminator 1
 8251 4ab8 E8000000 		call	_ZN8UnitTest11CurrentTest7ResultsEv
 8251      00
 8252 4abd 488B00   		movq	(%rax), %rax
 8253 4ac0 488D4D90 		leaq	-112(%rbp), %rcx
 8254 4ac4 BA000000 		movl	$.LC52, %edx
 8254      00
 8255 4ac9 4889CE   		movq	%rcx, %rsi
 8256 4acc 4889C7   		movq	%rax, %rdi
 8257 4acf E8000000 		call	_ZN8UnitTest11TestResults13OnTestFailureERKNS_11TestDetailsEPKc
 8257      00
 8258              	.LEHE459:
 8259              	.LEHB460:
 8260 4ad4 E8000000 		call	__cxa_end_catch
 8260      00
 8261              	.LEHE460:
 8262 4ad9 E921F2FF 		jmp	.L473
 8262      FF
 8263              	.L550:
 8264              	.LBE13:
 322:testCore.cpp  **** }
 8265              		.loc 3 322 0 is_stmt 1
 8266 4ade 4881C498 		addq	$152, %rsp
 8266      000000
 8267 4ae5 5B       		popq	%rbx
 8268 4ae6 5D       		popq	%rbp
 8269              		.cfi_def_cfa 7, 8
 8270 4ae7 C3       		ret
 8271              		.cfi_endproc
 8272              	.LFE1047:
 8273              		.section	.gcc_except_table
 8274              		.align 4
 8275              	.LLSDA1047:
 8276 065c FF       		.byte	0xff
 8277 065d 03       		.byte	0x3
 8278 065e 9807     		.uleb128 .LLSDATT1047-.LLSDATTD1047
 8279              	.LLSDATTD1047:
 8280 0660 01       		.byte	0x1
 8281 0661 8D07     		.uleb128 .LLSDACSE1047-.LLSDACSB1047
 8282              	.LLSDACSB1047:
 8283 0663 33       		.uleb128 .LEHB294-.LFB1047
 8284 0664 05       		.uleb128 .LEHE294-.LEHB294
 8285 0665 00       		.uleb128 0
 8286 0666 00       		.uleb128 0
 8287 0667 3E       		.uleb128 .LEHB295-.LFB1047
 8288 0668 42       		.uleb128 .LEHE295-.LEHB295
 8289 0669 DF1A     		.uleb128 .L474-.LFB1047
 8290 066b 01       		.uleb128 0x1
 8291 066c A401     		.uleb128 .LEHB296-.LFB1047
 8292 066e 05       		.uleb128 .LEHE296-.LEHB296
 8293 066f 00       		.uleb128 0
 8294 0670 00       		.uleb128 0
 8295 0671 AF01     		.uleb128 .LEHB297-.LFB1047
 8296 0673 42       		.uleb128 .LEHE297-.LEHB297
 8297 0674 BC1B     		.uleb128 .L476-.LFB1047
 8298 0676 01       		.uleb128 0x1
 8299 0677 F101     		.uleb128 .LEHB298-.LFB1047
 8300 0679 50       		.uleb128 .LEHE298-.LEHB298
 8301 067a 991C     		.uleb128 .L478-.LFB1047
 8302 067c 01       		.uleb128 0x1
 8303 067d D202     		.uleb128 .LEHB299-.LFB1047
 8304 067f 18       		.uleb128 .LEHE299-.LEHB299
 8305 0680 00       		.uleb128 0
 8306 0681 00       		.uleb128 0
 8307 0682 F002     		.uleb128 .LEHB300-.LFB1047
 8308 0684 42       		.uleb128 .LEHE300-.LEHB300
 8309 0685 F61C     		.uleb128 .L480-.LFB1047
 8310 0687 01       		.uleb128 0x1
 8311 0688 B203     		.uleb128 .LEHB301-.LFB1047
 8312 068a 54       		.uleb128 .LEHE301-.LEHB301
 8313 068b D31D     		.uleb128 .L482-.LFB1047
 8314 068d 01       		.uleb128 0x1
 8315 068e 9704     		.uleb128 .LEHB302-.LFB1047
 8316 0690 18       		.uleb128 .LEHE302-.LEHB302
 8317 0691 00       		.uleb128 0
 8318 0692 00       		.uleb128 0
 8319 0693 B504     		.uleb128 .LEHB303-.LFB1047
 8320 0695 42       		.uleb128 .LEHE303-.LEHB303
 8321 0696 B01E     		.uleb128 .L484-.LFB1047
 8322 0698 01       		.uleb128 0x1
 8323 0699 F704     		.uleb128 .LEHB304-.LFB1047
 8324 069b 54       		.uleb128 .LEHE304-.LEHB304
 8325 069c 8D1F     		.uleb128 .L486-.LFB1047
 8326 069e 01       		.uleb128 0x1
 8327 069f DC05     		.uleb128 .LEHB305-.LFB1047
 8328 06a1 18       		.uleb128 .LEHE305-.LEHB305
 8329 06a2 00       		.uleb128 0
 8330 06a3 00       		.uleb128 0
 8331 06a4 FA05     		.uleb128 .LEHB306-.LFB1047
 8332 06a6 42       		.uleb128 .LEHE306-.LEHB306
 8333 06a7 EA1F     		.uleb128 .L488-.LFB1047
 8334 06a9 01       		.uleb128 0x1
 8335 06aa BC06     		.uleb128 .LEHB307-.LFB1047
 8336 06ac 54       		.uleb128 .LEHE307-.LEHB307
 8337 06ad C720     		.uleb128 .L490-.LFB1047
 8338 06af 01       		.uleb128 0x1
 8339 06b0 A107     		.uleb128 .LEHB308-.LFB1047
 8340 06b2 05       		.uleb128 .LEHE308-.LEHB308
 8341 06b3 00       		.uleb128 0
 8342 06b4 00       		.uleb128 0
 8343 06b5 A607     		.uleb128 .LEHB309-.LFB1047
 8344 06b7 4A       		.uleb128 .LEHE309-.LEHB309
 8345 06b8 A421     		.uleb128 .L492-.LFB1047
 8346 06ba 01       		.uleb128 0x1
 8347 06bb F007     		.uleb128 .LEHB310-.LFB1047
 8348 06bd 45       		.uleb128 .LEHE310-.LEHB310
 8349 06be 8122     		.uleb128 .L494-.LFB1047
 8350 06c0 01       		.uleb128 0x1
 8351 06c1 B508     		.uleb128 .LEHB311-.LFB1047
 8352 06c3 45       		.uleb128 .LEHE311-.LEHB311
 8353 06c4 DE22     		.uleb128 .L496-.LFB1047
 8354 06c6 01       		.uleb128 0x1
 8355 06c7 FA08     		.uleb128 .LEHB312-.LFB1047
 8356 06c9 4A       		.uleb128 .LEHE312-.LEHB312
 8357 06ca BB23     		.uleb128 .L498-.LFB1047
 8358 06cc 01       		.uleb128 0x1
 8359 06cd D209     		.uleb128 .LEHB313-.LFB1047
 8360 06cf 05       		.uleb128 .LEHE313-.LEHB313
 8361 06d0 00       		.uleb128 0
 8362 06d1 00       		.uleb128 0
 8363 06d2 DD09     		.uleb128 .LEHB314-.LFB1047
 8364 06d4 42       		.uleb128 .LEHE314-.LEHB314
 8365 06d5 9824     		.uleb128 .L500-.LFB1047
 8366 06d7 01       		.uleb128 0x1
 8367 06d8 9F0A     		.uleb128 .LEHB315-.LFB1047
 8368 06da 46       		.uleb128 .LEHE315-.LEHB315
 8369 06db F524     		.uleb128 .L502-.LFB1047
 8370 06dd 01       		.uleb128 0x1
 8371 06de F60A     		.uleb128 .LEHB316-.LFB1047
 8372 06e0 05       		.uleb128 .LEHE316-.LEHB316
 8373 06e1 00       		.uleb128 0
 8374 06e2 00       		.uleb128 0
 8375 06e3 FB0A     		.uleb128 .LEHB317-.LFB1047
 8376 06e5 4A       		.uleb128 .LEHE317-.LEHB317
 8377 06e6 D225     		.uleb128 .L504-.LFB1047
 8378 06e8 01       		.uleb128 0x1
 8379 06e9 C50B     		.uleb128 .LEHB318-.LFB1047
 8380 06eb 4A       		.uleb128 .LEHE318-.LEHB318
 8381 06ec AF26     		.uleb128 .L506-.LFB1047
 8382 06ee 01       		.uleb128 0x1
 8383 06ef 8F0C     		.uleb128 .LEHB319-.LFB1047
 8384 06f1 4A       		.uleb128 .LEHE319-.LEHB319
 8385 06f2 8C27     		.uleb128 .L508-.LFB1047
 8386 06f4 01       		.uleb128 0x1
 8387 06f5 D90C     		.uleb128 .LEHB320-.LFB1047
 8388 06f7 4A       		.uleb128 .LEHE320-.LEHB320
 8389 06f8 E927     		.uleb128 .L510-.LFB1047
 8390 06fa 01       		.uleb128 0x1
 8391 06fb A30D     		.uleb128 .LEHB321-.LFB1047
 8392 06fd 58       		.uleb128 .LEHE321-.LEHB321
 8393 06fe C628     		.uleb128 .L512-.LFB1047
 8394 0700 01       		.uleb128 0x1
 8395 0701 FB0D     		.uleb128 .LEHB322-.LFB1047
 8396 0703 5C       		.uleb128 .LEHE322-.LEHB322
 8397 0704 A329     		.uleb128 .L514-.LFB1047
 8398 0706 01       		.uleb128 0x1
 8399 0707 D70E     		.uleb128 .LEHB323-.LFB1047
 8400 0709 5C       		.uleb128 .LEHE323-.LEHB323
 8401 070a 802A     		.uleb128 .L516-.LFB1047
 8402 070c 01       		.uleb128 0x1
 8403 070d B30F     		.uleb128 .LEHB324-.LFB1047
 8404 070f 5C       		.uleb128 .LEHE324-.LEHB324
 8405 0710 DD2A     		.uleb128 .L518-.LFB1047
 8406 0712 01       		.uleb128 0x1
 8407 0713 8F10     		.uleb128 .LEHB325-.LFB1047
 8408 0715 5C       		.uleb128 .LEHE325-.LEHB325
 8409 0716 BA2B     		.uleb128 .L520-.LFB1047
 8410 0718 01       		.uleb128 0x1
 8411 0719 EB10     		.uleb128 .LEHB326-.LFB1047
 8412 071b 5C       		.uleb128 .LEHE326-.LEHB326
 8413 071c 972C     		.uleb128 .L522-.LFB1047
 8414 071e 01       		.uleb128 0x1
 8415 071f C711     		.uleb128 .LEHB327-.LFB1047
 8416 0721 5C       		.uleb128 .LEHE327-.LEHB327
 8417 0722 F42C     		.uleb128 .L524-.LFB1047
 8418 0724 01       		.uleb128 0x1
 8419 0725 A312     		.uleb128 .LEHB328-.LFB1047
 8420 0727 5C       		.uleb128 .LEHE328-.LEHB328
 8421 0728 D12D     		.uleb128 .L526-.LFB1047
 8422 072a 01       		.uleb128 0x1
 8423 072b 8D13     		.uleb128 .LEHB329-.LFB1047
 8424 072d 05       		.uleb128 .LEHE329-.LEHB329
 8425 072e 00       		.uleb128 0
 8426 072f 00       		.uleb128 0
 8427 0730 9813     		.uleb128 .LEHB330-.LFB1047
 8428 0732 42       		.uleb128 .LEHE330-.LEHB330
 8429 0733 AE2E     		.uleb128 .L528-.LFB1047
 8430 0735 01       		.uleb128 0x1
 8431 0736 DA13     		.uleb128 .LEHB331-.LFB1047
 8432 0738 46       		.uleb128 .LEHE331-.LEHB331
 8433 0739 8B2F     		.uleb128 .L530-.LFB1047
 8434 073b 01       		.uleb128 0x1
 8435 073c A714     		.uleb128 .LEHB332-.LFB1047
 8436 073e 18       		.uleb128 .LEHE332-.LEHB332
 8437 073f 00       		.uleb128 0
 8438 0740 00       		.uleb128 0
 8439 0741 C514     		.uleb128 .LEHB333-.LFB1047
 8440 0743 42       		.uleb128 .LEHE333-.LEHB333
 8441 0744 E82F     		.uleb128 .L532-.LFB1047
 8442 0746 01       		.uleb128 0x1
 8443 0747 8715     		.uleb128 .LEHB334-.LFB1047
 8444 0749 46       		.uleb128 .LEHE334-.LEHB334
 8445 074a C530     		.uleb128 .L534-.LFB1047
 8446 074c 01       		.uleb128 0x1
 8447 074d D415     		.uleb128 .LEHB335-.LFB1047
 8448 074f 18       		.uleb128 .LEHE335-.LEHB335
 8449 0750 00       		.uleb128 0
 8450 0751 00       		.uleb128 0
 8451 0752 F215     		.uleb128 .LEHB336-.LFB1047
 8452 0754 42       		.uleb128 .LEHE336-.LEHB336
 8453 0755 A231     		.uleb128 .L536-.LFB1047
 8454 0757 01       		.uleb128 0x1
 8455 0758 B416     		.uleb128 .LEHB337-.LFB1047
 8456 075a 46       		.uleb128 .LEHE337-.LEHB337
 8457 075b FF31     		.uleb128 .L538-.LFB1047
 8458 075d 01       		.uleb128 0x1
 8459 075e 8117     		.uleb128 .LEHB338-.LFB1047
 8460 0760 18       		.uleb128 .LEHE338-.LEHB338
 8461 0761 00       		.uleb128 0
 8462 0762 00       		.uleb128 0
 8463 0763 9F17     		.uleb128 .LEHB339-.LFB1047
 8464 0765 42       		.uleb128 .LEHE339-.LEHB339
 8465 0766 DC32     		.uleb128 .L540-.LFB1047
 8466 0768 01       		.uleb128 0x1
 8467 0769 E117     		.uleb128 .LEHB340-.LFB1047
 8468 076b 46       		.uleb128 .LEHE340-.LEHB340
 8469 076c B933     		.uleb128 .L542-.LFB1047
 8470 076e 01       		.uleb128 0x1
 8471 076f AE18     		.uleb128 .LEHB341-.LFB1047
 8472 0771 18       		.uleb128 .LEHE341-.LEHB341
 8473 0772 00       		.uleb128 0
 8474 0773 00       		.uleb128 0
 8475 0774 CC18     		.uleb128 .LEHB342-.LFB1047
 8476 0776 42       		.uleb128 .LEHE342-.LEHB342
 8477 0777 9634     		.uleb128 .L544-.LFB1047
 8478 0779 01       		.uleb128 0x1
 8479 077a 8E19     		.uleb128 .LEHB343-.LFB1047
 8480 077c 46       		.uleb128 .LEHE343-.LEHB343
 8481 077d F334     		.uleb128 .L546-.LFB1047
 8482 077f 01       		.uleb128 0x1
 8483 0780 DB19     		.uleb128 .LEHB344-.LFB1047
 8484 0782 18       		.uleb128 .LEHE344-.LEHB344
 8485 0783 00       		.uleb128 0
 8486 0784 00       		.uleb128 0
 8487 0785 F919     		.uleb128 .LEHB345-.LFB1047
 8488 0787 42       		.uleb128 .LEHE345-.LEHB345
 8489 0788 D035     		.uleb128 .L548-.LFB1047
 8490 078a 01       		.uleb128 0x1
 8491 078b C21A     		.uleb128 .LEHB346-.LFB1047
 8492 078d 05       		.uleb128 .LEHE346-.LEHB346
 8493 078e 00       		.uleb128 0
 8494 078f 00       		.uleb128 0
 8495 0790 DA1A     		.uleb128 .LEHB347-.LFB1047
 8496 0792 05       		.uleb128 .LEHE347-.LEHB347
 8497 0793 00       		.uleb128 0
 8498 0794 00       		.uleb128 0
 8499 0795 E71A     		.uleb128 .LEHB348-.LFB1047
 8500 0797 38       		.uleb128 .LEHE348-.LEHB348
 8501 0798 CC1A     		.uleb128 .L475-.LFB1047
 8502 079a 00       		.uleb128 0
 8503 079b 9F1B     		.uleb128 .LEHB349-.LFB1047
 8504 079d 05       		.uleb128 .LEHE349-.LEHB349
 8505 079e 00       		.uleb128 0
 8506 079f 00       		.uleb128 0
 8507 07a0 B71B     		.uleb128 .LEHB350-.LFB1047
 8508 07a2 05       		.uleb128 .LEHE350-.LEHB350
 8509 07a3 00       		.uleb128 0
 8510 07a4 00       		.uleb128 0
 8511 07a5 C41B     		.uleb128 .LEHB351-.LFB1047
 8512 07a7 38       		.uleb128 .LEHE351-.LEHB351
 8513 07a8 A91B     		.uleb128 .L477-.LFB1047
 8514 07aa 00       		.uleb128 0
 8515 07ab FC1B     		.uleb128 .LEHB352-.LFB1047
 8516 07ad 05       		.uleb128 .LEHE352-.LEHB352
 8517 07ae 00       		.uleb128 0
 8518 07af 00       		.uleb128 0
 8519 07b0 941C     		.uleb128 .LEHB353-.LFB1047
 8520 07b2 05       		.uleb128 .LEHE353-.LEHB353
 8521 07b3 00       		.uleb128 0
 8522 07b4 00       		.uleb128 0
 8523 07b5 A11C     		.uleb128 .LEHB354-.LFB1047
 8524 07b7 38       		.uleb128 .LEHE354-.LEHB354
 8525 07b8 861C     		.uleb128 .L479-.LFB1047
 8526 07ba 00       		.uleb128 0
 8527 07bb D91C     		.uleb128 .LEHB355-.LFB1047
 8528 07bd 05       		.uleb128 .LEHE355-.LEHB355
 8529 07be 00       		.uleb128 0
 8530 07bf 00       		.uleb128 0
 8531 07c0 F11C     		.uleb128 .LEHB356-.LFB1047
 8532 07c2 05       		.uleb128 .LEHE356-.LEHB356
 8533 07c3 00       		.uleb128 0
 8534 07c4 00       		.uleb128 0
 8535 07c5 FE1C     		.uleb128 .LEHB357-.LFB1047
 8536 07c7 38       		.uleb128 .LEHE357-.LEHB357
 8537 07c8 E31C     		.uleb128 .L481-.LFB1047
 8538 07ca 00       		.uleb128 0
 8539 07cb B61D     		.uleb128 .LEHB358-.LFB1047
 8540 07cd 05       		.uleb128 .LEHE358-.LEHB358
 8541 07ce 00       		.uleb128 0
 8542 07cf 00       		.uleb128 0
 8543 07d0 CE1D     		.uleb128 .LEHB359-.LFB1047
 8544 07d2 05       		.uleb128 .LEHE359-.LEHB359
 8545 07d3 00       		.uleb128 0
 8546 07d4 00       		.uleb128 0
 8547 07d5 DB1D     		.uleb128 .LEHB360-.LFB1047
 8548 07d7 38       		.uleb128 .LEHE360-.LEHB360
 8549 07d8 C01D     		.uleb128 .L483-.LFB1047
 8550 07da 00       		.uleb128 0
 8551 07db 931E     		.uleb128 .LEHB361-.LFB1047
 8552 07dd 05       		.uleb128 .LEHE361-.LEHB361
 8553 07de 00       		.uleb128 0
 8554 07df 00       		.uleb128 0
 8555 07e0 AB1E     		.uleb128 .LEHB362-.LFB1047
 8556 07e2 05       		.uleb128 .LEHE362-.LEHB362
 8557 07e3 00       		.uleb128 0
 8558 07e4 00       		.uleb128 0
 8559 07e5 B81E     		.uleb128 .LEHB363-.LFB1047
 8560 07e7 38       		.uleb128 .LEHE363-.LEHB363
 8561 07e8 9D1E     		.uleb128 .L485-.LFB1047
 8562 07ea 00       		.uleb128 0
 8563 07eb F01E     		.uleb128 .LEHB364-.LFB1047
 8564 07ed 05       		.uleb128 .LEHE364-.LEHB364
 8565 07ee 00       		.uleb128 0
 8566 07ef 00       		.uleb128 0
 8567 07f0 881F     		.uleb128 .LEHB365-.LFB1047
 8568 07f2 05       		.uleb128 .LEHE365-.LEHB365
 8569 07f3 00       		.uleb128 0
 8570 07f4 00       		.uleb128 0
 8571 07f5 951F     		.uleb128 .LEHB366-.LFB1047
 8572 07f7 38       		.uleb128 .LEHE366-.LEHB366
 8573 07f8 FA1E     		.uleb128 .L487-.LFB1047
 8574 07fa 00       		.uleb128 0
 8575 07fb CD1F     		.uleb128 .LEHB367-.LFB1047
 8576 07fd 05       		.uleb128 .LEHE367-.LEHB367
 8577 07fe 00       		.uleb128 0
 8578 07ff 00       		.uleb128 0
 8579 0800 E51F     		.uleb128 .LEHB368-.LFB1047
 8580 0802 05       		.uleb128 .LEHE368-.LEHB368
 8581 0803 00       		.uleb128 0
 8582 0804 00       		.uleb128 0
 8583 0805 F21F     		.uleb128 .LEHB369-.LFB1047
 8584 0807 38       		.uleb128 .LEHE369-.LEHB369
 8585 0808 D71F     		.uleb128 .L489-.LFB1047
 8586 080a 00       		.uleb128 0
 8587 080b AA20     		.uleb128 .LEHB370-.LFB1047
 8588 080d 05       		.uleb128 .LEHE370-.LEHB370
 8589 080e 00       		.uleb128 0
 8590 080f 00       		.uleb128 0
 8591 0810 C220     		.uleb128 .LEHB371-.LFB1047
 8592 0812 05       		.uleb128 .LEHE371-.LEHB371
 8593 0813 00       		.uleb128 0
 8594 0814 00       		.uleb128 0
 8595 0815 CF20     		.uleb128 .LEHB372-.LFB1047
 8596 0817 38       		.uleb128 .LEHE372-.LEHB372
 8597 0818 B420     		.uleb128 .L491-.LFB1047
 8598 081a 00       		.uleb128 0
 8599 081b 8721     		.uleb128 .LEHB373-.LFB1047
 8600 081d 05       		.uleb128 .LEHE373-.LEHB373
 8601 081e 00       		.uleb128 0
 8602 081f 00       		.uleb128 0
 8603 0820 9F21     		.uleb128 .LEHB374-.LFB1047
 8604 0822 05       		.uleb128 .LEHE374-.LEHB374
 8605 0823 00       		.uleb128 0
 8606 0824 00       		.uleb128 0
 8607 0825 AC21     		.uleb128 .LEHB375-.LFB1047
 8608 0827 38       		.uleb128 .LEHE375-.LEHB375
 8609 0828 9121     		.uleb128 .L493-.LFB1047
 8610 082a 00       		.uleb128 0
 8611 082b E421     		.uleb128 .LEHB376-.LFB1047
 8612 082d 05       		.uleb128 .LEHE376-.LEHB376
 8613 082e 00       		.uleb128 0
 8614 082f 00       		.uleb128 0
 8615 0830 FC21     		.uleb128 .LEHB377-.LFB1047
 8616 0832 05       		.uleb128 .LEHE377-.LEHB377
 8617 0833 00       		.uleb128 0
 8618 0834 00       		.uleb128 0
 8619 0835 8922     		.uleb128 .LEHB378-.LFB1047
 8620 0837 38       		.uleb128 .LEHE378-.LEHB378
 8621 0838 EE21     		.uleb128 .L495-.LFB1047
 8622 083a 00       		.uleb128 0
 8623 083b C122     		.uleb128 .LEHB379-.LFB1047
 8624 083d 05       		.uleb128 .LEHE379-.LEHB379
 8625 083e 00       		.uleb128 0
 8626 083f 00       		.uleb128 0
 8627 0840 D922     		.uleb128 .LEHB380-.LFB1047
 8628 0842 05       		.uleb128 .LEHE380-.LEHB380
 8629 0843 00       		.uleb128 0
 8630 0844 00       		.uleb128 0
 8631 0845 E622     		.uleb128 .LEHB381-.LFB1047
 8632 0847 38       		.uleb128 .LEHE381-.LEHB381
 8633 0848 CB22     		.uleb128 .L497-.LFB1047
 8634 084a 00       		.uleb128 0
 8635 084b 9E23     		.uleb128 .LEHB382-.LFB1047
 8636 084d 05       		.uleb128 .LEHE382-.LEHB382
 8637 084e 00       		.uleb128 0
 8638 084f 00       		.uleb128 0
 8639 0850 B623     		.uleb128 .LEHB383-.LFB1047
 8640 0852 05       		.uleb128 .LEHE383-.LEHB383
 8641 0853 00       		.uleb128 0
 8642 0854 00       		.uleb128 0
 8643 0855 C323     		.uleb128 .LEHB384-.LFB1047
 8644 0857 38       		.uleb128 .LEHE384-.LEHB384
 8645 0858 A823     		.uleb128 .L499-.LFB1047
 8646 085a 00       		.uleb128 0
 8647 085b FB23     		.uleb128 .LEHB385-.LFB1047
 8648 085d 05       		.uleb128 .LEHE385-.LEHB385
 8649 085e 00       		.uleb128 0
 8650 085f 00       		.uleb128 0
 8651 0860 9324     		.uleb128 .LEHB386-.LFB1047
 8652 0862 05       		.uleb128 .LEHE386-.LEHB386
 8653 0863 00       		.uleb128 0
 8654 0864 00       		.uleb128 0
 8655 0865 A024     		.uleb128 .LEHB387-.LFB1047
 8656 0867 38       		.uleb128 .LEHE387-.LEHB387
 8657 0868 8524     		.uleb128 .L501-.LFB1047
 8658 086a 00       		.uleb128 0
 8659 086b D824     		.uleb128 .LEHB388-.LFB1047
 8660 086d 05       		.uleb128 .LEHE388-.LEHB388
 8661 086e 00       		.uleb128 0
 8662 086f 00       		.uleb128 0
 8663 0870 F024     		.uleb128 .LEHB389-.LFB1047
 8664 0872 05       		.uleb128 .LEHE389-.LEHB389
 8665 0873 00       		.uleb128 0
 8666 0874 00       		.uleb128 0
 8667 0875 FD24     		.uleb128 .LEHB390-.LFB1047
 8668 0877 38       		.uleb128 .LEHE390-.LEHB390
 8669 0878 E224     		.uleb128 .L503-.LFB1047
 8670 087a 00       		.uleb128 0
 8671 087b B525     		.uleb128 .LEHB391-.LFB1047
 8672 087d 05       		.uleb128 .LEHE391-.LEHB391
 8673 087e 00       		.uleb128 0
 8674 087f 00       		.uleb128 0
 8675 0880 CD25     		.uleb128 .LEHB392-.LFB1047
 8676 0882 05       		.uleb128 .LEHE392-.LEHB392
 8677 0883 00       		.uleb128 0
 8678 0884 00       		.uleb128 0
 8679 0885 DA25     		.uleb128 .LEHB393-.LFB1047
 8680 0887 38       		.uleb128 .LEHE393-.LEHB393
 8681 0888 BF25     		.uleb128 .L505-.LFB1047
 8682 088a 00       		.uleb128 0
 8683 088b 9226     		.uleb128 .LEHB394-.LFB1047
 8684 088d 05       		.uleb128 .LEHE394-.LEHB394
 8685 088e 00       		.uleb128 0
 8686 088f 00       		.uleb128 0
 8687 0890 AA26     		.uleb128 .LEHB395-.LFB1047
 8688 0892 05       		.uleb128 .LEHE395-.LEHB395
 8689 0893 00       		.uleb128 0
 8690 0894 00       		.uleb128 0
 8691 0895 B726     		.uleb128 .LEHB396-.LFB1047
 8692 0897 38       		.uleb128 .LEHE396-.LEHB396
 8693 0898 9C26     		.uleb128 .L507-.LFB1047
 8694 089a 00       		.uleb128 0
 8695 089b EF26     		.uleb128 .LEHB397-.LFB1047
 8696 089d 05       		.uleb128 .LEHE397-.LEHB397
 8697 089e 00       		.uleb128 0
 8698 089f 00       		.uleb128 0
 8699 08a0 8727     		.uleb128 .LEHB398-.LFB1047
 8700 08a2 05       		.uleb128 .LEHE398-.LEHB398
 8701 08a3 00       		.uleb128 0
 8702 08a4 00       		.uleb128 0
 8703 08a5 9427     		.uleb128 .LEHB399-.LFB1047
 8704 08a7 38       		.uleb128 .LEHE399-.LEHB399
 8705 08a8 F926     		.uleb128 .L509-.LFB1047
 8706 08aa 00       		.uleb128 0
 8707 08ab CC27     		.uleb128 .LEHB400-.LFB1047
 8708 08ad 05       		.uleb128 .LEHE400-.LEHB400
 8709 08ae 00       		.uleb128 0
 8710 08af 00       		.uleb128 0
 8711 08b0 E427     		.uleb128 .LEHB401-.LFB1047
 8712 08b2 05       		.uleb128 .LEHE401-.LEHB401
 8713 08b3 00       		.uleb128 0
 8714 08b4 00       		.uleb128 0
 8715 08b5 F127     		.uleb128 .LEHB402-.LFB1047
 8716 08b7 38       		.uleb128 .LEHE402-.LEHB402
 8717 08b8 D627     		.uleb128 .L511-.LFB1047
 8718 08ba 00       		.uleb128 0
 8719 08bb A928     		.uleb128 .LEHB403-.LFB1047
 8720 08bd 05       		.uleb128 .LEHE403-.LEHB403
 8721 08be 00       		.uleb128 0
 8722 08bf 00       		.uleb128 0
 8723 08c0 C128     		.uleb128 .LEHB404-.LFB1047
 8724 08c2 05       		.uleb128 .LEHE404-.LEHB404
 8725 08c3 00       		.uleb128 0
 8726 08c4 00       		.uleb128 0
 8727 08c5 CE28     		.uleb128 .LEHB405-.LFB1047
 8728 08c7 38       		.uleb128 .LEHE405-.LEHB405
 8729 08c8 B328     		.uleb128 .L513-.LFB1047
 8730 08ca 00       		.uleb128 0
 8731 08cb 8629     		.uleb128 .LEHB406-.LFB1047
 8732 08cd 05       		.uleb128 .LEHE406-.LEHB406
 8733 08ce 00       		.uleb128 0
 8734 08cf 00       		.uleb128 0
 8735 08d0 9E29     		.uleb128 .LEHB407-.LFB1047
 8736 08d2 05       		.uleb128 .LEHE407-.LEHB407
 8737 08d3 00       		.uleb128 0
 8738 08d4 00       		.uleb128 0
 8739 08d5 AB29     		.uleb128 .LEHB408-.LFB1047
 8740 08d7 38       		.uleb128 .LEHE408-.LEHB408
 8741 08d8 9029     		.uleb128 .L515-.LFB1047
 8742 08da 00       		.uleb128 0
 8743 08db E329     		.uleb128 .LEHB409-.LFB1047
 8744 08dd 05       		.uleb128 .LEHE409-.LEHB409
 8745 08de 00       		.uleb128 0
 8746 08df 00       		.uleb128 0
 8747 08e0 FB29     		.uleb128 .LEHB410-.LFB1047
 8748 08e2 05       		.uleb128 .LEHE410-.LEHB410
 8749 08e3 00       		.uleb128 0
 8750 08e4 00       		.uleb128 0
 8751 08e5 882A     		.uleb128 .LEHB411-.LFB1047
 8752 08e7 38       		.uleb128 .LEHE411-.LEHB411
 8753 08e8 ED29     		.uleb128 .L517-.LFB1047
 8754 08ea 00       		.uleb128 0
 8755 08eb C02A     		.uleb128 .LEHB412-.LFB1047
 8756 08ed 05       		.uleb128 .LEHE412-.LEHB412
 8757 08ee 00       		.uleb128 0
 8758 08ef 00       		.uleb128 0
 8759 08f0 D82A     		.uleb128 .LEHB413-.LFB1047
 8760 08f2 05       		.uleb128 .LEHE413-.LEHB413
 8761 08f3 00       		.uleb128 0
 8762 08f4 00       		.uleb128 0
 8763 08f5 E52A     		.uleb128 .LEHB414-.LFB1047
 8764 08f7 38       		.uleb128 .LEHE414-.LEHB414
 8765 08f8 CA2A     		.uleb128 .L519-.LFB1047
 8766 08fa 00       		.uleb128 0
 8767 08fb 9D2B     		.uleb128 .LEHB415-.LFB1047
 8768 08fd 05       		.uleb128 .LEHE415-.LEHB415
 8769 08fe 00       		.uleb128 0
 8770 08ff 00       		.uleb128 0
 8771 0900 B52B     		.uleb128 .LEHB416-.LFB1047
 8772 0902 05       		.uleb128 .LEHE416-.LEHB416
 8773 0903 00       		.uleb128 0
 8774 0904 00       		.uleb128 0
 8775 0905 C22B     		.uleb128 .LEHB417-.LFB1047
 8776 0907 38       		.uleb128 .LEHE417-.LEHB417
 8777 0908 A72B     		.uleb128 .L521-.LFB1047
 8778 090a 00       		.uleb128 0
 8779 090b FA2B     		.uleb128 .LEHB418-.LFB1047
 8780 090d 05       		.uleb128 .LEHE418-.LEHB418
 8781 090e 00       		.uleb128 0
 8782 090f 00       		.uleb128 0
 8783 0910 922C     		.uleb128 .LEHB419-.LFB1047
 8784 0912 05       		.uleb128 .LEHE419-.LEHB419
 8785 0913 00       		.uleb128 0
 8786 0914 00       		.uleb128 0
 8787 0915 9F2C     		.uleb128 .LEHB420-.LFB1047
 8788 0917 38       		.uleb128 .LEHE420-.LEHB420
 8789 0918 842C     		.uleb128 .L523-.LFB1047
 8790 091a 00       		.uleb128 0
 8791 091b D72C     		.uleb128 .LEHB421-.LFB1047
 8792 091d 05       		.uleb128 .LEHE421-.LEHB421
 8793 091e 00       		.uleb128 0
 8794 091f 00       		.uleb128 0
 8795 0920 EF2C     		.uleb128 .LEHB422-.LFB1047
 8796 0922 05       		.uleb128 .LEHE422-.LEHB422
 8797 0923 00       		.uleb128 0
 8798 0924 00       		.uleb128 0
 8799 0925 FC2C     		.uleb128 .LEHB423-.LFB1047
 8800 0927 38       		.uleb128 .LEHE423-.LEHB423
 8801 0928 E12C     		.uleb128 .L525-.LFB1047
 8802 092a 00       		.uleb128 0
 8803 092b B42D     		.uleb128 .LEHB424-.LFB1047
 8804 092d 05       		.uleb128 .LEHE424-.LEHB424
 8805 092e 00       		.uleb128 0
 8806 092f 00       		.uleb128 0
 8807 0930 CC2D     		.uleb128 .LEHB425-.LFB1047
 8808 0932 05       		.uleb128 .LEHE425-.LEHB425
 8809 0933 00       		.uleb128 0
 8810 0934 00       		.uleb128 0
 8811 0935 D92D     		.uleb128 .LEHB426-.LFB1047
 8812 0937 38       		.uleb128 .LEHE426-.LEHB426
 8813 0938 BE2D     		.uleb128 .L527-.LFB1047
 8814 093a 00       		.uleb128 0
 8815 093b 912E     		.uleb128 .LEHB427-.LFB1047
 8816 093d 05       		.uleb128 .LEHE427-.LEHB427
 8817 093e 00       		.uleb128 0
 8818 093f 00       		.uleb128 0
 8819 0940 A92E     		.uleb128 .LEHB428-.LFB1047
 8820 0942 05       		.uleb128 .LEHE428-.LEHB428
 8821 0943 00       		.uleb128 0
 8822 0944 00       		.uleb128 0
 8823 0945 B62E     		.uleb128 .LEHB429-.LFB1047
 8824 0947 38       		.uleb128 .LEHE429-.LEHB429
 8825 0948 9B2E     		.uleb128 .L529-.LFB1047
 8826 094a 00       		.uleb128 0
 8827 094b EE2E     		.uleb128 .LEHB430-.LFB1047
 8828 094d 05       		.uleb128 .LEHE430-.LEHB430
 8829 094e 00       		.uleb128 0
 8830 094f 00       		.uleb128 0
 8831 0950 862F     		.uleb128 .LEHB431-.LFB1047
 8832 0952 05       		.uleb128 .LEHE431-.LEHB431
 8833 0953 00       		.uleb128 0
 8834 0954 00       		.uleb128 0
 8835 0955 932F     		.uleb128 .LEHB432-.LFB1047
 8836 0957 38       		.uleb128 .LEHE432-.LEHB432
 8837 0958 F82E     		.uleb128 .L531-.LFB1047
 8838 095a 00       		.uleb128 0
 8839 095b CB2F     		.uleb128 .LEHB433-.LFB1047
 8840 095d 05       		.uleb128 .LEHE433-.LEHB433
 8841 095e 00       		.uleb128 0
 8842 095f 00       		.uleb128 0
 8843 0960 E32F     		.uleb128 .LEHB434-.LFB1047
 8844 0962 05       		.uleb128 .LEHE434-.LEHB434
 8845 0963 00       		.uleb128 0
 8846 0964 00       		.uleb128 0
 8847 0965 F02F     		.uleb128 .LEHB435-.LFB1047
 8848 0967 38       		.uleb128 .LEHE435-.LEHB435
 8849 0968 D52F     		.uleb128 .L533-.LFB1047
 8850 096a 00       		.uleb128 0
 8851 096b A830     		.uleb128 .LEHB436-.LFB1047
 8852 096d 05       		.uleb128 .LEHE436-.LEHB436
 8853 096e 00       		.uleb128 0
 8854 096f 00       		.uleb128 0
 8855 0970 C030     		.uleb128 .LEHB437-.LFB1047
 8856 0972 05       		.uleb128 .LEHE437-.LEHB437
 8857 0973 00       		.uleb128 0
 8858 0974 00       		.uleb128 0
 8859 0975 CD30     		.uleb128 .LEHB438-.LFB1047
 8860 0977 38       		.uleb128 .LEHE438-.LEHB438
 8861 0978 B230     		.uleb128 .L535-.LFB1047
 8862 097a 00       		.uleb128 0
 8863 097b 8531     		.uleb128 .LEHB439-.LFB1047
 8864 097d 05       		.uleb128 .LEHE439-.LEHB439
 8865 097e 00       		.uleb128 0
 8866 097f 00       		.uleb128 0
 8867 0980 9D31     		.uleb128 .LEHB440-.LFB1047
 8868 0982 05       		.uleb128 .LEHE440-.LEHB440
 8869 0983 00       		.uleb128 0
 8870 0984 00       		.uleb128 0
 8871 0985 AA31     		.uleb128 .LEHB441-.LFB1047
 8872 0987 38       		.uleb128 .LEHE441-.LEHB441
 8873 0988 8F31     		.uleb128 .L537-.LFB1047
 8874 098a 00       		.uleb128 0
 8875 098b E231     		.uleb128 .LEHB442-.LFB1047
 8876 098d 05       		.uleb128 .LEHE442-.LEHB442
 8877 098e 00       		.uleb128 0
 8878 098f 00       		.uleb128 0
 8879 0990 FA31     		.uleb128 .LEHB443-.LFB1047
 8880 0992 05       		.uleb128 .LEHE443-.LEHB443
 8881 0993 00       		.uleb128 0
 8882 0994 00       		.uleb128 0
 8883 0995 8732     		.uleb128 .LEHB444-.LFB1047
 8884 0997 38       		.uleb128 .LEHE444-.LEHB444
 8885 0998 EC31     		.uleb128 .L539-.LFB1047
 8886 099a 00       		.uleb128 0
 8887 099b BF32     		.uleb128 .LEHB445-.LFB1047
 8888 099d 05       		.uleb128 .LEHE445-.LEHB445
 8889 099e 00       		.uleb128 0
 8890 099f 00       		.uleb128 0
 8891 09a0 D732     		.uleb128 .LEHB446-.LFB1047
 8892 09a2 05       		.uleb128 .LEHE446-.LEHB446
 8893 09a3 00       		.uleb128 0
 8894 09a4 00       		.uleb128 0
 8895 09a5 E432     		.uleb128 .LEHB447-.LFB1047
 8896 09a7 38       		.uleb128 .LEHE447-.LEHB447
 8897 09a8 C932     		.uleb128 .L541-.LFB1047
 8898 09aa 00       		.uleb128 0
 8899 09ab 9C33     		.uleb128 .LEHB448-.LFB1047
 8900 09ad 05       		.uleb128 .LEHE448-.LEHB448
 8901 09ae 00       		.uleb128 0
 8902 09af 00       		.uleb128 0
 8903 09b0 B433     		.uleb128 .LEHB449-.LFB1047
 8904 09b2 05       		.uleb128 .LEHE449-.LEHB449
 8905 09b3 00       		.uleb128 0
 8906 09b4 00       		.uleb128 0
 8907 09b5 C133     		.uleb128 .LEHB450-.LFB1047
 8908 09b7 38       		.uleb128 .LEHE450-.LEHB450
 8909 09b8 A633     		.uleb128 .L543-.LFB1047
 8910 09ba 00       		.uleb128 0
 8911 09bb F933     		.uleb128 .LEHB451-.LFB1047
 8912 09bd 05       		.uleb128 .LEHE451-.LEHB451
 8913 09be 00       		.uleb128 0
 8914 09bf 00       		.uleb128 0
 8915 09c0 9134     		.uleb128 .LEHB452-.LFB1047
 8916 09c2 05       		.uleb128 .LEHE452-.LEHB452
 8917 09c3 00       		.uleb128 0
 8918 09c4 00       		.uleb128 0
 8919 09c5 9E34     		.uleb128 .LEHB453-.LFB1047
 8920 09c7 38       		.uleb128 .LEHE453-.LEHB453
 8921 09c8 8334     		.uleb128 .L545-.LFB1047
 8922 09ca 00       		.uleb128 0
 8923 09cb D634     		.uleb128 .LEHB454-.LFB1047
 8924 09cd 05       		.uleb128 .LEHE454-.LEHB454
 8925 09ce 00       		.uleb128 0
 8926 09cf 00       		.uleb128 0
 8927 09d0 EE34     		.uleb128 .LEHB455-.LFB1047
 8928 09d2 05       		.uleb128 .LEHE455-.LEHB455
 8929 09d3 00       		.uleb128 0
 8930 09d4 00       		.uleb128 0
 8931 09d5 FB34     		.uleb128 .LEHB456-.LFB1047
 8932 09d7 38       		.uleb128 .LEHE456-.LEHB456
 8933 09d8 E034     		.uleb128 .L547-.LFB1047
 8934 09da 00       		.uleb128 0
 8935 09db B335     		.uleb128 .LEHB457-.LFB1047
 8936 09dd 05       		.uleb128 .LEHE457-.LEHB457
 8937 09de 00       		.uleb128 0
 8938 09df 00       		.uleb128 0
 8939 09e0 CB35     		.uleb128 .LEHB458-.LFB1047
 8940 09e2 05       		.uleb128 .LEHE458-.LEHB458
 8941 09e3 00       		.uleb128 0
 8942 09e4 00       		.uleb128 0
 8943 09e5 D835     		.uleb128 .LEHB459-.LFB1047
 8944 09e7 38       		.uleb128 .LEHE459-.LEHB459
 8945 09e8 BD35     		.uleb128 .L549-.LFB1047
 8946 09ea 00       		.uleb128 0
 8947 09eb 9036     		.uleb128 .LEHB460-.LFB1047
 8948 09ed 05       		.uleb128 .LEHE460-.LEHB460
 8949 09ee 00       		.uleb128 0
 8950 09ef 00       		.uleb128 0
 8951              	.LLSDACSE1047:
 8952 09f0 01       		.byte	0x1
 8953 09f1 00       		.byte	0
 8954 09f2 0000     		.align 4
 8955 09f4 00000000 		.long	0
 8956              	
 8957              	.LLSDATT1047:
 8958              		.text
 8960              		.section	.rodata
 8961              	.LC53:
 8962 0bbc 51756575 		.string	"Queue_testRealloc"
 8962      655F7465 
 8962      73745265 
 8962      616C6C6F 
 8962      6300
 8963              		.section	.text._ZN21TestQueue_testReallocC2Ev,"axG",@progbits,_ZN21TestQueue_testReallocC5Ev,comda
 8964              		.align 2
 8965              		.weak	_ZN21TestQueue_testReallocC2Ev
 8967              	_ZN21TestQueue_testReallocC2Ev:
 8968              	.LFB1049:
 323:testCore.cpp  **** 
 324:testCore.cpp  **** TEST(Queue_testRealloc) {
 8969              		.loc 3 324 0
 8970              		.cfi_startproc
 8971 0000 55       		pushq	%rbp
 8972              		.cfi_def_cfa_offset 16
 8973              		.cfi_offset 6, -16
 8974 0001 4889E5   		movq	%rsp, %rbp
 8975              		.cfi_def_cfa_register 6
 8976 0004 4883EC10 		subq	$16, %rsp
 8977 0008 48897DF8 		movq	%rdi, -8(%rbp)
 8978              	.LBB14:
 8979              		.loc 3 324 0
 8980 000c E8000000 		call	_ZN13UnitTestSuite12GetSuiteNameEv
 8980      00
 8981 0011 4889C2   		movq	%rax, %rdx
 8982 0014 488B45F8 		movq	-8(%rbp), %rax
 8983 0018 41B84401 		movl	$324, %r8d
 8983      0000
 8984 001e B9000000 		movl	$.LC1, %ecx
 8984      00
 8985 0023 BE000000 		movl	$.LC53, %esi
 8985      00
 8986 0028 4889C7   		movq	%rax, %rdi
 8987 002b E8000000 		call	_ZN8UnitTest4TestC2EPKcS2_S2_i
 8987      00
 8988 0030 488B45F8 		movq	-8(%rbp), %rax
 8989 0034 48C70000 		movq	$_ZTV21TestQueue_testRealloc+16, (%rax)
 8989      000000
 8990              	.LBE14:
 8991 003b C9       		leave
 8992              		.cfi_def_cfa 7, 8
 8993 003c C3       		ret
 8994              		.cfi_endproc
 8995              	.LFE1049:
 8997              		.weak	_ZN21TestQueue_testReallocC1Ev
 8998              		.set	_ZN21TestQueue_testReallocC1Ev,_ZN21TestQueue_testReallocC2Ev
 8999              		.globl	testQueue_testReallocInstance
 9000              		.bss
 9001 00f9 00000000 		.align 32
 9001      000000
 9004              	testQueue_testReallocInstance:
 9005 0100 00000000 		.zero	56
 9005      00000000 
 9005      00000000 
 9005      00000000 
 9005      00000000 
 9006              		.globl	adderQueue_testRealloc
 9009              	adderQueue_testRealloc:
 9010 0138 00       		.zero	1
 9011              		.text
 9012              		.align 2
 9013              		.globl	_ZNK21TestQueue_testRealloc7RunImplEv
 9015              	_ZNK21TestQueue_testRealloc7RunImplEv:
 9016              	.LFB1051:
 9017              		.loc 3 324 0
 9018              		.cfi_startproc
 9019 4ae8 55       		pushq	%rbp
 9020              		.cfi_def_cfa_offset 16
 9021              		.cfi_offset 6, -16
 9022 4ae9 4889E5   		movq	%rsp, %rbp
 9023              		.cfi_def_cfa_register 6
 9024 4aec 4883EC10 		subq	$16, %rsp
 9025 4af0 48897DF8 		movq	%rdi, -8(%rbp)
 325:testCore.cpp  **** 	testRealloc(0);
 9026              		.loc 3 325 0
 9027 4af4 BF000000 		movl	$0, %edi
 9027      00
 9028 4af9 E8000000 		call	_Z11testReallocm
 9028      00
 326:testCore.cpp  **** 	testRealloc(1);
 9029              		.loc 3 326 0
 9030 4afe BF010000 		movl	$1, %edi
 9030      00
 9031 4b03 E8000000 		call	_Z11testReallocm
 9031      00
 327:testCore.cpp  **** 	testRealloc(2);
 9032              		.loc 3 327 0
 9033 4b08 BF020000 		movl	$2, %edi
 9033      00
 9034 4b0d E8000000 		call	_Z11testReallocm
 9034      00
 328:testCore.cpp  **** 	testRealloc(3);
 9035              		.loc 3 328 0
 9036 4b12 BF030000 		movl	$3, %edi
 9036      00
 9037 4b17 E8000000 		call	_Z11testReallocm
 9037      00
 329:testCore.cpp  **** }
 9038              		.loc 3 329 0
 9039 4b1c C9       		leave
 9040              		.cfi_def_cfa 7, 8
 9041 4b1d C3       		ret
 9042              		.cfi_endproc
 9043              	.LFE1051:
 9045              		.section	.rodata
 9046              	.LC54:
 9047 0bce 51756575 		.string	"Queue_testAllocOOM"
 9047      655F7465 
 9047      7374416C 
 9047      6C6F634F 
 9047      4F4D00
 9048              		.section	.text._ZN22TestQueue_testAllocOOMC2Ev,"axG",@progbits,_ZN22TestQueue_testAllocOOMC5Ev,com
 9049              		.align 2
 9050              		.weak	_ZN22TestQueue_testAllocOOMC2Ev
 9052              	_ZN22TestQueue_testAllocOOMC2Ev:
 9053              	.LFB1053:
 330:testCore.cpp  **** 
 331:testCore.cpp  **** TEST(Queue_testAllocOOM) {
 9054              		.loc 3 331 0
 9055              		.cfi_startproc
 9056 0000 55       		pushq	%rbp
 9057              		.cfi_def_cfa_offset 16
 9058              		.cfi_offset 6, -16
 9059 0001 4889E5   		movq	%rsp, %rbp
 9060              		.cfi_def_cfa_register 6
 9061 0004 4883EC10 		subq	$16, %rsp
 9062 0008 48897DF8 		movq	%rdi, -8(%rbp)
 9063              	.LBB15:
 9064              		.loc 3 331 0
 9065 000c E8000000 		call	_ZN13UnitTestSuite12GetSuiteNameEv
 9065      00
 9066 0011 4889C2   		movq	%rax, %rdx
 9067 0014 488B45F8 		movq	-8(%rbp), %rax
 9068 0018 41B84B01 		movl	$331, %r8d
 9068      0000
 9069 001e B9000000 		movl	$.LC1, %ecx
 9069      00
 9070 0023 BE000000 		movl	$.LC54, %esi
 9070      00
 9071 0028 4889C7   		movq	%rax, %rdi
 9072 002b E8000000 		call	_ZN8UnitTest4TestC2EPKcS2_S2_i
 9072      00
 9073 0030 488B45F8 		movq	-8(%rbp), %rax
 9074 0034 48C70000 		movq	$_ZTV22TestQueue_testAllocOOM+16, (%rax)
 9074      000000
 9075              	.LBE15:
 9076 003b C9       		leave
 9077              		.cfi_def_cfa 7, 8
 9078 003c C3       		ret
 9079              		.cfi_endproc
 9080              	.LFE1053:
 9082              		.weak	_ZN22TestQueue_testAllocOOMC1Ev
 9083              		.set	_ZN22TestQueue_testAllocOOMC1Ev,_ZN22TestQueue_testAllocOOMC2Ev
 9084              		.globl	testQueue_testAllocOOMInstance
 9085              		.bss
 9086 0139 00000000 		.align 32
 9086      000000
 9089              	testQueue_testAllocOOMInstance:
 9090 0140 00000000 		.zero	56
 9090      00000000 
 9090      00000000 
 9090      00000000 
 9090      00000000 
 9091              		.globl	adderQueue_testAllocOOM
 9094              	adderQueue_testAllocOOM:
 9095 0178 00       		.zero	1
 9096              		.section	.rodata
 9097 0be1 00000000 		.align 8
 9097      000000
 9098              	.LC55:
 9099 0be8 556E6861 		.string	"Unhandled exception in CHECK_EQUAL(USB_ALLOC_ERR, status)"
 9099      6E646C65 
 9099      64206578 
 9099      63657074 
 9099      696F6E20 
 9100              		.text
 9101              		.align 2
 9102              		.globl	_ZNK22TestQueue_testAllocOOM7RunImplEv
 9104              	_ZNK22TestQueue_testAllocOOM7RunImplEv:
 9105              	.LFB1055:
 9106              		.loc 3 331 0
 9107              		.cfi_startproc
 9108              		.cfi_personality 0x3,__gxx_personality_v0
 9109              		.cfi_lsda 0x3,.LLSDA1055
 9110 4b1e 55       		pushq	%rbp
 9111              		.cfi_def_cfa_offset 16
 9112              		.cfi_offset 6, -16
 9113 4b1f 4889E5   		movq	%rsp, %rbp
 9114              		.cfi_def_cfa_register 6
 9115 4b22 53       		pushq	%rbx
 9116 4b23 4881EC88 		subq	$136, %rsp
 9116      000000
 9117              		.cfi_offset 3, -24
 9118 4b2a 4889BD78 		movq	%rdi, -136(%rbp)
 9118      FFFFFF
 9119              	.LBB16:
 332:testCore.cpp  **** 	struct UnboundedQueue queue;
 333:testCore.cpp  **** 	m_count = 1;
 9120              		.loc 3 333 0
 9121 4b31 C7050000 		movl	$1, _ZL7m_count(%rip)
 9121      00000100 
 9121      0000
 334:testCore.cpp  **** 
 335:testCore.cpp  **** 	// Create queue
 336:testCore.cpp  **** 	USBStatus status = queueInit(&queue, 9, (CreateFunc)createInt, (DestroyFunc)destroyInt);
 9122              		.loc 3 336 0
 9123 4b3b 488D45B0 		leaq	-80(%rbp), %rax
 9124 4b3f B9000000 		movl	$destroyInt, %ecx
 9124      00
 9125 4b44 BA000000 		movl	$createInt, %edx
 9125      00
 9126 4b49 BE090000 		movl	$9, %esi
 9126      00
 9127 4b4e 4889C7   		movq	%rax, %rdi
 9128              	.LEHB461:
 9129 4b51 E8000000 		call	queueInit
 9129      00
 9130              	.LEHE461:
 9131 4b56 894588   		movl	%eax, -120(%rbp)
 9132              	.LEHB462:
 337:testCore.cpp  **** 	CHECK_EQUAL(USB_ALLOC_ERR, status);
 9133              		.loc 3 337 0
 9134 4b59 E8000000 		call	_ZN8UnitTest11CurrentTest7DetailsEv
 9134      00
 9135 4b5e 488B08   		movq	(%rax), %rcx
 9136 4b61 488D4590 		leaq	-112(%rbp), %rax
 9137 4b65 BA510100 		movl	$337, %edx
 9137      00
 9138 4b6a 4889CE   		movq	%rcx, %rsi
 9139 4b6d 4889C7   		movq	%rax, %rdi
 9140 4b70 E8000000 		call	_ZN8UnitTest11TestDetailsC1ERKS0_i
 9140      00
 9141              		.loc 3 337 0 is_stmt 0 discriminator 1
 9142 4b75 C7458C0C 		movl	$12, -116(%rbp)
 9142      000000
 9143 4b7c E8000000 		call	_ZN8UnitTest11CurrentTest7ResultsEv
 9143      00
 9144 4b81 488B00   		movq	(%rax), %rax
 9145 4b84 488D4D90 		leaq	-112(%rbp), %rcx
 9146 4b88 488D5588 		leaq	-120(%rbp), %rdx
 9147 4b8c 488D758C 		leaq	-116(%rbp), %rsi
 9148 4b90 4889C7   		movq	%rax, %rdi
 9149 4b93 E8000000 		call	_ZN8UnitTest10CheckEqualI9USBStatusS1_EEvRNS_11TestResultsERKT_RKT0_RKNS_11TestDetailsE
 9149      00
 9150              	.LEHE462:
 9151              	.L557:
 338:testCore.cpp  **** 
 339:testCore.cpp  **** 	queueDestroy(&queue);
 9152              		.loc 3 339 0 is_stmt 1
 9153 4b98 488D45B0 		leaq	-80(%rbp), %rax
 9154 4b9c 4889C7   		movq	%rax, %rdi
 9155              	.LEHB463:
 9156 4b9f E8000000 		call	queueDestroy
 9156      00
 9157              	.LEHE463:
 9158 4ba4 EB5A     		jmp	.L560
 9159              	.L559:
 9160 4ba6 4889C3   		movq	%rax, %rbx
 337:testCore.cpp  **** 	CHECK_EQUAL(USB_ALLOC_ERR, status);
 9161              		.loc 3 337 0
 9162 4ba9 E8000000 		call	__cxa_end_catch
 9162      00
 9163 4bae 4889D8   		movq	%rbx, %rax
 9164 4bb1 4889C7   		movq	%rax, %rdi
 9165              	.LEHB464:
 9166 4bb4 E8000000 		call	_Unwind_Resume
 9166      00
 9167              	.LEHE464:
 9168              	.L558:
 9169 4bb9 4889C7   		movq	%rax, %rdi
 9170 4bbc E8000000 		call	__cxa_begin_catch
 9170      00
 9171              	.LEHB465:
 9172 4bc1 E8000000 		call	_ZN8UnitTest11CurrentTest7DetailsEv
 9172      00
 9173 4bc6 488B08   		movq	(%rax), %rcx
 9174 4bc9 488D4590 		leaq	-112(%rbp), %rax
 9175 4bcd BA510100 		movl	$337, %edx
 9175      00
 9176 4bd2 4889CE   		movq	%rcx, %rsi
 9177 4bd5 4889C7   		movq	%rax, %rdi
 9178 4bd8 E8000000 		call	_ZN8UnitTest11TestDetailsC1ERKS0_i
 9178      00
 337:testCore.cpp  **** 	CHECK_EQUAL(USB_ALLOC_ERR, status);
 9179              		.loc 3 337 0 is_stmt 0 discriminator 1
 9180 4bdd E8000000 		call	_ZN8UnitTest11CurrentTest7ResultsEv
 9180      00
 9181 4be2 488B00   		movq	(%rax), %rax
 9182 4be5 488D4D90 		leaq	-112(%rbp), %rcx
 9183 4be9 BA000000 		movl	$.LC55, %edx
 9183      00
 9184 4bee 4889CE   		movq	%rcx, %rsi
 9185 4bf1 4889C7   		movq	%rax, %rdi
 9186 4bf4 E8000000 		call	_ZN8UnitTest11TestResults13OnTestFailureERKNS_11TestDetailsEPKc
 9186      00
 9187              	.LEHE465:
 9188              	.LEHB466:
 9189 4bf9 E8000000 		call	__cxa_end_catch
 9189      00
 9190              	.LEHE466:
 9191 4bfe EB98     		jmp	.L557
 9192              	.L560:
 9193              	.LBE16:
 340:testCore.cpp  **** }
 9194              		.loc 3 340 0 is_stmt 1
 9195 4c00 4881C488 		addq	$136, %rsp
 9195      000000
 9196 4c07 5B       		popq	%rbx
 9197 4c08 5D       		popq	%rbp
 9198              		.cfi_def_cfa 7, 8
 9199 4c09 C3       		ret
 9200              		.cfi_endproc
 9201              	.LFE1055:
 9202              		.section	.gcc_except_table
 9203              		.align 4
 9204              	.LLSDA1055:
 9205 09f8 FF       		.byte	0xff
 9206 09f9 03       		.byte	0x3
 9207 09fa 29       		.uleb128 .LLSDATT1055-.LLSDATTD1055
 9208              	.LLSDATTD1055:
 9209 09fb 01       		.byte	0x1
 9210 09fc 1E       		.uleb128 .LLSDACSE1055-.LLSDACSB1055
 9211              	.LLSDACSB1055:
 9212 09fd 33       		.uleb128 .LEHB461-.LFB1055
 9213 09fe 05       		.uleb128 .LEHE461-.LEHB461
 9214 09ff 00       		.uleb128 0
 9215 0a00 00       		.uleb128 0
 9216 0a01 3B       		.uleb128 .LEHB462-.LFB1055
 9217 0a02 3F       		.uleb128 .LEHE462-.LEHB462
 9218 0a03 9B01     		.uleb128 .L558-.LFB1055
 9219 0a05 01       		.uleb128 0x1
 9220 0a06 8101     		.uleb128 .LEHB463-.LFB1055
 9221 0a08 05       		.uleb128 .LEHE463-.LEHB463
 9222 0a09 00       		.uleb128 0
 9223 0a0a 00       		.uleb128 0
 9224 0a0b 9601     		.uleb128 .LEHB464-.LFB1055
 9225 0a0d 05       		.uleb128 .LEHE464-.LEHB464
 9226 0a0e 00       		.uleb128 0
 9227 0a0f 00       		.uleb128 0
 9228 0a10 A301     		.uleb128 .LEHB465-.LFB1055
 9229 0a12 38       		.uleb128 .LEHE465-.LEHB465
 9230 0a13 8801     		.uleb128 .L559-.LFB1055
 9231 0a15 00       		.uleb128 0
 9232 0a16 DB01     		.uleb128 .LEHB466-.LFB1055
 9233 0a18 05       		.uleb128 .LEHE466-.LEHB466
 9234 0a19 00       		.uleb128 0
 9235 0a1a 00       		.uleb128 0
 9236              	.LLSDACSE1055:
 9237 0a1b 01       		.byte	0x1
 9238 0a1c 00       		.byte	0
 9239 0a1d 000000   		.align 4
 9240 0a20 00000000 		.long	0
 9241              	
 9242              	.LLSDATT1055:
 9243              		.text
 9245              		.section	.rodata
 9246              	.LC56:
 9247 0c22 51756575 		.string	"Queue_testReallocOOM"
 9247      655F7465 
 9247      73745265 
 9247      616C6C6F 
 9247      634F4F4D 
 9248              		.section	.text._ZN24TestQueue_testReallocOOMC2Ev,"axG",@progbits,_ZN24TestQueue_testReallocOOMC5Ev
 9249              		.align 2
 9250              		.weak	_ZN24TestQueue_testReallocOOMC2Ev
 9252              	_ZN24TestQueue_testReallocOOMC2Ev:
 9253              	.LFB1057:
 341:testCore.cpp  **** 
 342:testCore.cpp  **** TEST(Queue_testReallocOOM) {
 9254              		.loc 3 342 0
 9255              		.cfi_startproc
 9256 0000 55       		pushq	%rbp
 9257              		.cfi_def_cfa_offset 16
 9258              		.cfi_offset 6, -16
 9259 0001 4889E5   		movq	%rsp, %rbp
 9260              		.cfi_def_cfa_register 6
 9261 0004 4883EC10 		subq	$16, %rsp
 9262 0008 48897DF8 		movq	%rdi, -8(%rbp)
 9263              	.LBB17:
 9264              		.loc 3 342 0
 9265 000c E8000000 		call	_ZN13UnitTestSuite12GetSuiteNameEv
 9265      00
 9266 0011 4889C2   		movq	%rax, %rdx
 9267 0014 488B45F8 		movq	-8(%rbp), %rax
 9268 0018 41B85601 		movl	$342, %r8d
 9268      0000
 9269 001e B9000000 		movl	$.LC1, %ecx
 9269      00
 9270 0023 BE000000 		movl	$.LC56, %esi
 9270      00
 9271 0028 4889C7   		movq	%rax, %rdi
 9272 002b E8000000 		call	_ZN8UnitTest4TestC2EPKcS2_S2_i
 9272      00
 9273 0030 488B45F8 		movq	-8(%rbp), %rax
 9274 0034 48C70000 		movq	$_ZTV24TestQueue_testReallocOOM+16, (%rax)
 9274      000000
 9275              	.LBE17:
 9276 003b C9       		leave
 9277              		.cfi_def_cfa 7, 8
 9278 003c C3       		ret
 9279              		.cfi_endproc
 9280              	.LFE1057:
 9282              		.weak	_ZN24TestQueue_testReallocOOMC1Ev
 9283              		.set	_ZN24TestQueue_testReallocOOMC1Ev,_ZN24TestQueue_testReallocOOMC2Ev
 9284              		.globl	testQueue_testReallocOOMInstance
 9285              		.bss
 9286 0179 00000000 		.align 32
 9286      000000
 9289              	testQueue_testReallocOOMInstance:
 9290 0180 00000000 		.zero	56
 9290      00000000 
 9290      00000000 
 9290      00000000 
 9290      00000000 
 9291              		.globl	adderQueue_testReallocOOM
 9294              	adderQueue_testReallocOOM:
 9295 01b8 00       		.zero	1
 9296              		.text
 9297              		.align 2
 9298              		.globl	_ZNK24TestQueue_testReallocOOM7RunImplEv
 9300              	_ZNK24TestQueue_testReallocOOM7RunImplEv:
 9301              	.LFB1059:
 9302              		.loc 3 342 0
 9303              		.cfi_startproc
 9304              		.cfi_personality 0x3,__gxx_personality_v0
 9305              		.cfi_lsda 0x3,.LLSDA1059
 9306 4c0a 55       		pushq	%rbp
 9307              		.cfi_def_cfa_offset 16
 9308              		.cfi_offset 6, -16
 9309 4c0b 4889E5   		movq	%rsp, %rbp
 9310              		.cfi_def_cfa_register 6
 9311 4c0e 53       		pushq	%rbx
 9312 4c0f 4881EC88 		subq	$136, %rsp
 9312      000000
 9313              		.cfi_offset 3, -24
 9314 4c16 4889BD78 		movq	%rdi, -136(%rbp)
 9314      FFFFFF
 9315              	.LBB18:
 343:testCore.cpp  **** 	struct UnboundedQueue queue;
 344:testCore.cpp  **** 	uint32 *item;
 345:testCore.cpp  **** 	m_count = 1;
 9316              		.loc 3 345 0
 9317 4c1d C7050000 		movl	$1, _ZL7m_count(%rip)
 9317      00000100 
 9317      0000
 346:testCore.cpp  **** 
 347:testCore.cpp  **** 	// Create queue
 348:testCore.cpp  **** 	USBStatus status = queueInit(&queue, 8, (CreateFunc)createInt, (DestroyFunc)destroyInt);
 9318              		.loc 3 348 0
 9319 4c27 488D45B0 		leaq	-80(%rbp), %rax
 9320 4c2b B9000000 		movl	$destroyInt, %ecx
 9320      00
 9321 4c30 BA000000 		movl	$createInt, %edx
 9321      00
 9322 4c35 BE080000 		movl	$8, %esi
 9322      00
 9323 4c3a 4889C7   		movq	%rax, %rdi
 9324              	.LEHB467:
 9325 4c3d E8000000 		call	queueInit
 9325      00
 9326              	.LEHE467:
 9327 4c42 894580   		movl	%eax, -128(%rbp)
 9328              	.LEHB468:
 349:testCore.cpp  **** 	CHECK_EQUAL(USB_SUCCESS, status);
 9329              		.loc 3 349 0
 9330 4c45 E8000000 		call	_ZN8UnitTest11CurrentTest7DetailsEv
 9330      00
 9331 4c4a 488B08   		movq	(%rax), %rcx
 9332 4c4d 488D4590 		leaq	-112(%rbp), %rax
 9333 4c51 BA5D0100 		movl	$349, %edx
 9333      00
 9334 4c56 4889CE   		movq	%rcx, %rsi
 9335 4c59 4889C7   		movq	%rax, %rdi
 9336 4c5c E8000000 		call	_ZN8UnitTest11TestDetailsC1ERKS0_i
 9336      00
 9337              		.loc 3 349 0 is_stmt 0 discriminator 1
 9338 4c61 C7458800 		movl	$0, -120(%rbp)
 9338      000000
 9339 4c68 E8000000 		call	_ZN8UnitTest11CurrentTest7ResultsEv
 9339      00
 9340 4c6d 488B00   		movq	(%rax), %rax
 9341 4c70 488D4D90 		leaq	-112(%rbp), %rcx
 9342 4c74 488D5580 		leaq	-128(%rbp), %rdx
 9343 4c78 488D7588 		leaq	-120(%rbp), %rsi
 9344 4c7c 4889C7   		movq	%rax, %rdi
 9345 4c7f E8000000 		call	_ZN8UnitTest10CheckEqualI9USBStatusS1_EEvRNS_11TestResultsERKT_RKT0_RKNS_11TestDetailsE
 9345      00
 9346              	.LEHE468:
 9347              	.L565:
 350:testCore.cpp  **** 
 351:testCore.cpp  **** 	// Put eight items into the queue
 352:testCore.cpp  **** 	status = queuePut(&queue, (Item*)&item);
 9348              		.loc 3 352 0 is_stmt 1
 9349 4c84 488D5588 		leaq	-120(%rbp), %rdx
 9350 4c88 488D45B0 		leaq	-80(%rbp), %rax
 9351 4c8c 4889D6   		movq	%rdx, %rsi
 9352 4c8f 4889C7   		movq	%rax, %rdi
 9353              	.LEHB469:
 9354 4c92 E8000000 		call	queuePut
 9354      00
 9355              	.LEHE469:
 9356 4c97 894580   		movl	%eax, -128(%rbp)
 9357              	.LEHB470:
 353:testCore.cpp  **** 	CHECK_EQUAL(USB_SUCCESS, status);
 9358              		.loc 3 353 0
 9359 4c9a E8000000 		call	_ZN8UnitTest11CurrentTest7DetailsEv
 9359      00
 9360 4c9f 488B08   		movq	(%rax), %rcx
 9361 4ca2 488D4590 		leaq	-112(%rbp), %rax
 9362 4ca6 BA610100 		movl	$353, %edx
 9362      00
 9363 4cab 4889CE   		movq	%rcx, %rsi
 9364 4cae 4889C7   		movq	%rax, %rdi
 9365 4cb1 E8000000 		call	_ZN8UnitTest11TestDetailsC1ERKS0_i
 9365      00
 9366              		.loc 3 353 0 is_stmt 0 discriminator 1
 9367 4cb6 C7458400 		movl	$0, -124(%rbp)
 9367      000000
 9368 4cbd E8000000 		call	_ZN8UnitTest11CurrentTest7ResultsEv
 9368      00
 9369 4cc2 488B00   		movq	(%rax), %rax
 9370 4cc5 488D4D90 		leaq	-112(%rbp), %rcx
 9371 4cc9 488D5580 		leaq	-128(%rbp), %rdx
 9372 4ccd 488D7584 		leaq	-124(%rbp), %rsi
 9373 4cd1 4889C7   		movq	%rax, %rdi
 9374 4cd4 E8000000 		call	_ZN8UnitTest10CheckEqualI9USBStatusS1_EEvRNS_11TestResultsERKT_RKT0_RKNS_11TestDetailsE
 9374      00
 9375              	.LEHE470:
 9376              	.L568:
 354:testCore.cpp  **** 	queueCommitPut(&queue);
 9377              		.loc 3 354 0 is_stmt 1
 9378 4cd9 488D45B0 		leaq	-80(%rbp), %rax
 9379 4cdd 4889C7   		movq	%rax, %rdi
 9380              	.LEHB471:
 9381 4ce0 E8000000 		call	queueCommitPut
 9381      00
 355:testCore.cpp  **** 	status = queuePut(&queue, (Item*)&item);
 9382              		.loc 3 355 0
 9383 4ce5 488D5588 		leaq	-120(%rbp), %rdx
 9384 4ce9 488D45B0 		leaq	-80(%rbp), %rax
 9385 4ced 4889D6   		movq	%rdx, %rsi
 9386 4cf0 4889C7   		movq	%rax, %rdi
 9387 4cf3 E8000000 		call	queuePut
 9387      00
 9388              	.LEHE471:
 9389 4cf8 894580   		movl	%eax, -128(%rbp)
 9390              	.LEHB472:
 356:testCore.cpp  **** 	CHECK_EQUAL(USB_SUCCESS, status);
 9391              		.loc 3 356 0
 9392 4cfb E8000000 		call	_ZN8UnitTest11CurrentTest7DetailsEv
 9392      00
 9393 4d00 488B08   		movq	(%rax), %rcx
 9394 4d03 488D4590 		leaq	-112(%rbp), %rax
 9395 4d07 BA640100 		movl	$356, %edx
 9395      00
 9396 4d0c 4889CE   		movq	%rcx, %rsi
 9397 4d0f 4889C7   		movq	%rax, %rdi
 9398 4d12 E8000000 		call	_ZN8UnitTest11TestDetailsC1ERKS0_i
 9398      00
 9399              		.loc 3 356 0 is_stmt 0 discriminator 1
 9400 4d17 C7458400 		movl	$0, -124(%rbp)
 9400      000000
 9401 4d1e E8000000 		call	_ZN8UnitTest11CurrentTest7ResultsEv
 9401      00
 9402 4d23 488B00   		movq	(%rax), %rax
 9403 4d26 488D4D90 		leaq	-112(%rbp), %rcx
 9404 4d2a 488D5580 		leaq	-128(%rbp), %rdx
 9405 4d2e 488D7584 		leaq	-124(%rbp), %rsi
 9406 4d32 4889C7   		movq	%rax, %rdi
 9407 4d35 E8000000 		call	_ZN8UnitTest10CheckEqualI9USBStatusS1_EEvRNS_11TestResultsERKT_RKT0_RKNS_11TestDetailsE
 9407      00
 9408              	.LEHE472:
 9409              	.L571:
 357:testCore.cpp  **** 	queueCommitPut(&queue);
 9410              		.loc 3 357 0 is_stmt 1
 9411 4d3a 488D45B0 		leaq	-80(%rbp), %rax
 9412 4d3e 4889C7   		movq	%rax, %rdi
 9413              	.LEHB473:
 9414 4d41 E8000000 		call	queueCommitPut
 9414      00
 358:testCore.cpp  **** 	status = queuePut(&queue, (Item*)&item);
 9415              		.loc 3 358 0
 9416 4d46 488D5588 		leaq	-120(%rbp), %rdx
 9417 4d4a 488D45B0 		leaq	-80(%rbp), %rax
 9418 4d4e 4889D6   		movq	%rdx, %rsi
 9419 4d51 4889C7   		movq	%rax, %rdi
 9420 4d54 E8000000 		call	queuePut
 9420      00
 9421              	.LEHE473:
 9422 4d59 894580   		movl	%eax, -128(%rbp)
 9423              	.LEHB474:
 359:testCore.cpp  **** 	CHECK_EQUAL(USB_SUCCESS, status);
 9424              		.loc 3 359 0
 9425 4d5c E8000000 		call	_ZN8UnitTest11CurrentTest7DetailsEv
 9425      00
 9426 4d61 488B08   		movq	(%rax), %rcx
 9427 4d64 488D4590 		leaq	-112(%rbp), %rax
 9428 4d68 BA670100 		movl	$359, %edx
 9428      00
 9429 4d6d 4889CE   		movq	%rcx, %rsi
 9430 4d70 4889C7   		movq	%rax, %rdi
 9431 4d73 E8000000 		call	_ZN8UnitTest11TestDetailsC1ERKS0_i
 9431      00
 9432              		.loc 3 359 0 is_stmt 0 discriminator 1
 9433 4d78 C7458400 		movl	$0, -124(%rbp)
 9433      000000
 9434 4d7f E8000000 		call	_ZN8UnitTest11CurrentTest7ResultsEv
 9434      00
 9435 4d84 488B00   		movq	(%rax), %rax
 9436 4d87 488D4D90 		leaq	-112(%rbp), %rcx
 9437 4d8b 488D5580 		leaq	-128(%rbp), %rdx
 9438 4d8f 488D7584 		leaq	-124(%rbp), %rsi
 9439 4d93 4889C7   		movq	%rax, %rdi
 9440 4d96 E8000000 		call	_ZN8UnitTest10CheckEqualI9USBStatusS1_EEvRNS_11TestResultsERKT_RKT0_RKNS_11TestDetailsE
 9440      00
 9441              	.LEHE474:
 9442              	.L574:
 360:testCore.cpp  **** 	queueCommitPut(&queue);
 9443              		.loc 3 360 0 is_stmt 1
 9444 4d9b 488D45B0 		leaq	-80(%rbp), %rax
 9445 4d9f 4889C7   		movq	%rax, %rdi
 9446              	.LEHB475:
 9447 4da2 E8000000 		call	queueCommitPut
 9447      00
 361:testCore.cpp  **** 	status = queuePut(&queue, (Item*)&item);
 9448              		.loc 3 361 0
 9449 4da7 488D5588 		leaq	-120(%rbp), %rdx
 9450 4dab 488D45B0 		leaq	-80(%rbp), %rax
 9451 4daf 4889D6   		movq	%rdx, %rsi
 9452 4db2 4889C7   		movq	%rax, %rdi
 9453 4db5 E8000000 		call	queuePut
 9453      00
 9454              	.LEHE475:
 9455 4dba 894580   		movl	%eax, -128(%rbp)
 9456              	.LEHB476:
 362:testCore.cpp  **** 	CHECK_EQUAL(USB_SUCCESS, status);
 9457              		.loc 3 362 0
 9458 4dbd E8000000 		call	_ZN8UnitTest11CurrentTest7DetailsEv
 9458      00
 9459 4dc2 488B08   		movq	(%rax), %rcx
 9460 4dc5 488D4590 		leaq	-112(%rbp), %rax
 9461 4dc9 BA6A0100 		movl	$362, %edx
 9461      00
 9462 4dce 4889CE   		movq	%rcx, %rsi
 9463 4dd1 4889C7   		movq	%rax, %rdi
 9464 4dd4 E8000000 		call	_ZN8UnitTest11TestDetailsC1ERKS0_i
 9464      00
 9465              		.loc 3 362 0 is_stmt 0 discriminator 1
 9466 4dd9 C7458400 		movl	$0, -124(%rbp)
 9466      000000
 9467 4de0 E8000000 		call	_ZN8UnitTest11CurrentTest7ResultsEv
 9467      00
 9468 4de5 488B00   		movq	(%rax), %rax
 9469 4de8 488D4D90 		leaq	-112(%rbp), %rcx
 9470 4dec 488D5580 		leaq	-128(%rbp), %rdx
 9471 4df0 488D7584 		leaq	-124(%rbp), %rsi
 9472 4df4 4889C7   		movq	%rax, %rdi
 9473 4df7 E8000000 		call	_ZN8UnitTest10CheckEqualI9USBStatusS1_EEvRNS_11TestResultsERKT_RKT0_RKNS_11TestDetailsE
 9473      00
 9474              	.LEHE476:
 9475              	.L577:
 363:testCore.cpp  **** 	queueCommitPut(&queue);
 9476              		.loc 3 363 0 is_stmt 1
 9477 4dfc 488D45B0 		leaq	-80(%rbp), %rax
 9478 4e00 4889C7   		movq	%rax, %rdi
 9479              	.LEHB477:
 9480 4e03 E8000000 		call	queueCommitPut
 9480      00
 364:testCore.cpp  **** 	status = queuePut(&queue, (Item*)&item);
 9481              		.loc 3 364 0
 9482 4e08 488D5588 		leaq	-120(%rbp), %rdx
 9483 4e0c 488D45B0 		leaq	-80(%rbp), %rax
 9484 4e10 4889D6   		movq	%rdx, %rsi
 9485 4e13 4889C7   		movq	%rax, %rdi
 9486 4e16 E8000000 		call	queuePut
 9486      00
 9487              	.LEHE477:
 9488 4e1b 894580   		movl	%eax, -128(%rbp)
 9489              	.LEHB478:
 365:testCore.cpp  **** 	CHECK_EQUAL(USB_SUCCESS, status);
 9490              		.loc 3 365 0
 9491 4e1e E8000000 		call	_ZN8UnitTest11CurrentTest7DetailsEv
 9491      00
 9492 4e23 488B08   		movq	(%rax), %rcx
 9493 4e26 488D4590 		leaq	-112(%rbp), %rax
 9494 4e2a BA6D0100 		movl	$365, %edx
 9494      00
 9495 4e2f 4889CE   		movq	%rcx, %rsi
 9496 4e32 4889C7   		movq	%rax, %rdi
 9497 4e35 E8000000 		call	_ZN8UnitTest11TestDetailsC1ERKS0_i
 9497      00
 9498              		.loc 3 365 0 is_stmt 0 discriminator 1
 9499 4e3a C7458400 		movl	$0, -124(%rbp)
 9499      000000
 9500 4e41 E8000000 		call	_ZN8UnitTest11CurrentTest7ResultsEv
 9500      00
 9501 4e46 488B00   		movq	(%rax), %rax
 9502 4e49 488D4D90 		leaq	-112(%rbp), %rcx
 9503 4e4d 488D5580 		leaq	-128(%rbp), %rdx
 9504 4e51 488D7584 		leaq	-124(%rbp), %rsi
 9505 4e55 4889C7   		movq	%rax, %rdi
 9506 4e58 E8000000 		call	_ZN8UnitTest10CheckEqualI9USBStatusS1_EEvRNS_11TestResultsERKT_RKT0_RKNS_11TestDetailsE
 9506      00
 9507              	.LEHE478:
 9508              	.L580:
 366:testCore.cpp  **** 	queueCommitPut(&queue);
 9509              		.loc 3 366 0 is_stmt 1
 9510 4e5d 488D45B0 		leaq	-80(%rbp), %rax
 9511 4e61 4889C7   		movq	%rax, %rdi
 9512              	.LEHB479:
 9513 4e64 E8000000 		call	queueCommitPut
 9513      00
 367:testCore.cpp  **** 	status = queuePut(&queue, (Item*)&item);
 9514              		.loc 3 367 0
 9515 4e69 488D5588 		leaq	-120(%rbp), %rdx
 9516 4e6d 488D45B0 		leaq	-80(%rbp), %rax
 9517 4e71 4889D6   		movq	%rdx, %rsi
 9518 4e74 4889C7   		movq	%rax, %rdi
 9519 4e77 E8000000 		call	queuePut
 9519      00
 9520              	.LEHE479:
 9521 4e7c 894580   		movl	%eax, -128(%rbp)
 9522              	.LEHB480:
 368:testCore.cpp  **** 	CHECK_EQUAL(USB_SUCCESS, status);
 9523              		.loc 3 368 0
 9524 4e7f E8000000 		call	_ZN8UnitTest11CurrentTest7DetailsEv
 9524      00
 9525 4e84 488B08   		movq	(%rax), %rcx
 9526 4e87 488D4590 		leaq	-112(%rbp), %rax
 9527 4e8b BA700100 		movl	$368, %edx
 9527      00
 9528 4e90 4889CE   		movq	%rcx, %rsi
 9529 4e93 4889C7   		movq	%rax, %rdi
 9530 4e96 E8000000 		call	_ZN8UnitTest11TestDetailsC1ERKS0_i
 9530      00
 9531              		.loc 3 368 0 is_stmt 0 discriminator 1
 9532 4e9b C7458400 		movl	$0, -124(%rbp)
 9532      000000
 9533 4ea2 E8000000 		call	_ZN8UnitTest11CurrentTest7ResultsEv
 9533      00
 9534 4ea7 488B00   		movq	(%rax), %rax
 9535 4eaa 488D4D90 		leaq	-112(%rbp), %rcx
 9536 4eae 488D5580 		leaq	-128(%rbp), %rdx
 9537 4eb2 488D7584 		leaq	-124(%rbp), %rsi
 9538 4eb6 4889C7   		movq	%rax, %rdi
 9539 4eb9 E8000000 		call	_ZN8UnitTest10CheckEqualI9USBStatusS1_EEvRNS_11TestResultsERKT_RKT0_RKNS_11TestDetailsE
 9539      00
 9540              	.LEHE480:
 9541              	.L583:
 369:testCore.cpp  **** 	queueCommitPut(&queue);
 9542              		.loc 3 369 0 is_stmt 1
 9543 4ebe 488D45B0 		leaq	-80(%rbp), %rax
 9544 4ec2 4889C7   		movq	%rax, %rdi
 9545              	.LEHB481:
 9546 4ec5 E8000000 		call	queueCommitPut
 9546      00
 370:testCore.cpp  **** 	status = queuePut(&queue, (Item*)&item);
 9547              		.loc 3 370 0
 9548 4eca 488D5588 		leaq	-120(%rbp), %rdx
 9549 4ece 488D45B0 		leaq	-80(%rbp), %rax
 9550 4ed2 4889D6   		movq	%rdx, %rsi
 9551 4ed5 4889C7   		movq	%rax, %rdi
 9552 4ed8 E8000000 		call	queuePut
 9552      00
 9553              	.LEHE481:
 9554 4edd 894580   		movl	%eax, -128(%rbp)
 9555              	.LEHB482:
 371:testCore.cpp  **** 	CHECK_EQUAL(USB_SUCCESS, status);
 9556              		.loc 3 371 0
 9557 4ee0 E8000000 		call	_ZN8UnitTest11CurrentTest7DetailsEv
 9557      00
 9558 4ee5 488B08   		movq	(%rax), %rcx
 9559 4ee8 488D4590 		leaq	-112(%rbp), %rax
 9560 4eec BA730100 		movl	$371, %edx
 9560      00
 9561 4ef1 4889CE   		movq	%rcx, %rsi
 9562 4ef4 4889C7   		movq	%rax, %rdi
 9563 4ef7 E8000000 		call	_ZN8UnitTest11TestDetailsC1ERKS0_i
 9563      00
 9564              		.loc 3 371 0 is_stmt 0 discriminator 1
 9565 4efc C7458400 		movl	$0, -124(%rbp)
 9565      000000
 9566 4f03 E8000000 		call	_ZN8UnitTest11CurrentTest7ResultsEv
 9566      00
 9567 4f08 488B00   		movq	(%rax), %rax
 9568 4f0b 488D4D90 		leaq	-112(%rbp), %rcx
 9569 4f0f 488D5580 		leaq	-128(%rbp), %rdx
 9570 4f13 488D7584 		leaq	-124(%rbp), %rsi
 9571 4f17 4889C7   		movq	%rax, %rdi
 9572 4f1a E8000000 		call	_ZN8UnitTest10CheckEqualI9USBStatusS1_EEvRNS_11TestResultsERKT_RKT0_RKNS_11TestDetailsE
 9572      00
 9573              	.LEHE482:
 9574              	.L586:
 372:testCore.cpp  **** 	queueCommitPut(&queue);
 9575              		.loc 3 372 0 is_stmt 1
 9576 4f1f 488D45B0 		leaq	-80(%rbp), %rax
 9577 4f23 4889C7   		movq	%rax, %rdi
 9578              	.LEHB483:
 9579 4f26 E8000000 		call	queueCommitPut
 9579      00
 373:testCore.cpp  **** 	status = queuePut(&queue, (Item*)&item);
 9580              		.loc 3 373 0
 9581 4f2b 488D5588 		leaq	-120(%rbp), %rdx
 9582 4f2f 488D45B0 		leaq	-80(%rbp), %rax
 9583 4f33 4889D6   		movq	%rdx, %rsi
 9584 4f36 4889C7   		movq	%rax, %rdi
 9585 4f39 E8000000 		call	queuePut
 9585      00
 9586              	.LEHE483:
 9587 4f3e 894580   		movl	%eax, -128(%rbp)
 9588              	.LEHB484:
 374:testCore.cpp  **** 	CHECK_EQUAL(USB_SUCCESS, status);
 9589              		.loc 3 374 0
 9590 4f41 E8000000 		call	_ZN8UnitTest11CurrentTest7DetailsEv
 9590      00
 9591 4f46 488B08   		movq	(%rax), %rcx
 9592 4f49 488D4590 		leaq	-112(%rbp), %rax
 9593 4f4d BA760100 		movl	$374, %edx
 9593      00
 9594 4f52 4889CE   		movq	%rcx, %rsi
 9595 4f55 4889C7   		movq	%rax, %rdi
 9596 4f58 E8000000 		call	_ZN8UnitTest11TestDetailsC1ERKS0_i
 9596      00
 9597              		.loc 3 374 0 is_stmt 0 discriminator 1
 9598 4f5d C7458400 		movl	$0, -124(%rbp)
 9598      000000
 9599 4f64 E8000000 		call	_ZN8UnitTest11CurrentTest7ResultsEv
 9599      00
 9600 4f69 488B00   		movq	(%rax), %rax
 9601 4f6c 488D4D90 		leaq	-112(%rbp), %rcx
 9602 4f70 488D5580 		leaq	-128(%rbp), %rdx
 9603 4f74 488D7584 		leaq	-124(%rbp), %rsi
 9604 4f78 4889C7   		movq	%rax, %rdi
 9605 4f7b E8000000 		call	_ZN8UnitTest10CheckEqualI9USBStatusS1_EEvRNS_11TestResultsERKT_RKT0_RKNS_11TestDetailsE
 9605      00
 9606              	.LEHE484:
 9607              	.L589:
 375:testCore.cpp  **** 	queueCommitPut(&queue);
 9608              		.loc 3 375 0 is_stmt 1
 9609 4f80 488D45B0 		leaq	-80(%rbp), %rax
 9610 4f84 4889C7   		movq	%rax, %rdi
 9611              	.LEHB485:
 9612 4f87 E8000000 		call	queueCommitPut
 9612      00
 376:testCore.cpp  **** 
 377:testCore.cpp  **** 	// The ninth allocation fails
 378:testCore.cpp  **** 	status = queuePut(&queue, (Item*)&item);
 9613              		.loc 3 378 0
 9614 4f8c 488D5588 		leaq	-120(%rbp), %rdx
 9615 4f90 488D45B0 		leaq	-80(%rbp), %rax
 9616 4f94 4889D6   		movq	%rdx, %rsi
 9617 4f97 4889C7   		movq	%rax, %rdi
 9618 4f9a E8000000 		call	queuePut
 9618      00
 9619              	.LEHE485:
 9620 4f9f 894580   		movl	%eax, -128(%rbp)
 9621              	.LEHB486:
 379:testCore.cpp  **** 	CHECK_EQUAL(USB_ALLOC_ERR, status);
 9622              		.loc 3 379 0
 9623 4fa2 E8000000 		call	_ZN8UnitTest11CurrentTest7DetailsEv
 9623      00
 9624 4fa7 488B08   		movq	(%rax), %rcx
 9625 4faa 488D4590 		leaq	-112(%rbp), %rax
 9626 4fae BA7B0100 		movl	$379, %edx
 9626      00
 9627 4fb3 4889CE   		movq	%rcx, %rsi
 9628 4fb6 4889C7   		movq	%rax, %rdi
 9629 4fb9 E8000000 		call	_ZN8UnitTest11TestDetailsC1ERKS0_i
 9629      00
 9630              		.loc 3 379 0 is_stmt 0 discriminator 1
 9631 4fbe C745840C 		movl	$12, -124(%rbp)
 9631      000000
 9632 4fc5 E8000000 		call	_ZN8UnitTest11CurrentTest7ResultsEv
 9632      00
 9633 4fca 488B00   		movq	(%rax), %rax
 9634 4fcd 488D4D90 		leaq	-112(%rbp), %rcx
 9635 4fd1 488D5580 		leaq	-128(%rbp), %rdx
 9636 4fd5 488D7584 		leaq	-124(%rbp), %rsi
 9637 4fd9 4889C7   		movq	%rax, %rdi
 9638 4fdc E8000000 		call	_ZN8UnitTest10CheckEqualI9USBStatusS1_EEvRNS_11TestResultsERKT_RKT0_RKNS_11TestDetailsE
 9638      00
 9639              	.LEHE486:
 9640              	.L592:
 380:testCore.cpp  **** 
 381:testCore.cpp  **** 	queueDestroy(&queue);
 9641              		.loc 3 381 0 is_stmt 1
 9642 4fe1 488D45B0 		leaq	-80(%rbp), %rax
 9643 4fe5 4889C7   		movq	%rax, %rdi
 9644              	.LEHB487:
 9645 4fe8 E8000000 		call	queueDestroy
 9645      00
 9646              	.LEHE487:
 9647 4fed E9A20300 		jmp	.L613
 9647      00
 9648              	.L594:
 9649 4ff2 4889C3   		movq	%rax, %rbx
 349:testCore.cpp  **** 
 9650              		.loc 3 349 0
 9651 4ff5 E8000000 		call	__cxa_end_catch
 9651      00
 9652 4ffa 4889D8   		movq	%rbx, %rax
 9653 4ffd 4889C7   		movq	%rax, %rdi
 9654              	.LEHB488:
 9655 5000 E8000000 		call	_Unwind_Resume
 9655      00
 9656              	.LEHE488:
 9657              	.L593:
 9658 5005 4889C7   		movq	%rax, %rdi
 9659 5008 E8000000 		call	__cxa_begin_catch
 9659      00
 9660              	.LEHB489:
 9661 500d E8000000 		call	_ZN8UnitTest11CurrentTest7DetailsEv
 9661      00
 9662 5012 488B08   		movq	(%rax), %rcx
 9663 5015 488D4590 		leaq	-112(%rbp), %rax
 9664 5019 BA5D0100 		movl	$349, %edx
 9664      00
 9665 501e 4889CE   		movq	%rcx, %rsi
 9666 5021 4889C7   		movq	%rax, %rdi
 9667 5024 E8000000 		call	_ZN8UnitTest11TestDetailsC1ERKS0_i
 9667      00
 349:testCore.cpp  **** 
 9668              		.loc 3 349 0 is_stmt 0 discriminator 1
 9669 5029 E8000000 		call	_ZN8UnitTest11CurrentTest7ResultsEv
 9669      00
 9670 502e 488B00   		movq	(%rax), %rax
 9671 5031 488D4D90 		leaq	-112(%rbp), %rcx
 9672 5035 BA000000 		movl	$.LC3, %edx
 9672      00
 9673 503a 4889CE   		movq	%rcx, %rsi
 9674 503d 4889C7   		movq	%rax, %rdi
 9675 5040 E8000000 		call	_ZN8UnitTest11TestResults13OnTestFailureERKNS_11TestDetailsEPKc
 9675      00
 9676              	.LEHE489:
 9677              	.LEHB490:
 9678 5045 E8000000 		call	__cxa_end_catch
 9678      00
 9679              	.LEHE490:
 9680 504a E935FCFF 		jmp	.L565
 9680      FF
 9681              	.L596:
 9682 504f 4889C3   		movq	%rax, %rbx
 353:testCore.cpp  **** 	queueCommitPut(&queue);
 9683              		.loc 3 353 0 is_stmt 1
 9684 5052 E8000000 		call	__cxa_end_catch
 9684      00
 9685 5057 4889D8   		movq	%rbx, %rax
 9686 505a 4889C7   		movq	%rax, %rdi
 9687              	.LEHB491:
 9688 505d E8000000 		call	_Unwind_Resume
 9688      00
 9689              	.LEHE491:
 9690              	.L595:
 9691 5062 4889C7   		movq	%rax, %rdi
 9692 5065 E8000000 		call	__cxa_begin_catch
 9692      00
 9693              	.LEHB492:
 9694 506a E8000000 		call	_ZN8UnitTest11CurrentTest7DetailsEv
 9694      00
 9695 506f 488B08   		movq	(%rax), %rcx
 9696 5072 488D4590 		leaq	-112(%rbp), %rax
 9697 5076 BA610100 		movl	$353, %edx
 9697      00
 9698 507b 4889CE   		movq	%rcx, %rsi
 9699 507e 4889C7   		movq	%rax, %rdi
 9700 5081 E8000000 		call	_ZN8UnitTest11TestDetailsC1ERKS0_i
 9700      00
 353:testCore.cpp  **** 	queueCommitPut(&queue);
 9701              		.loc 3 353 0 is_stmt 0 discriminator 1
 9702 5086 E8000000 		call	_ZN8UnitTest11CurrentTest7ResultsEv
 9702      00
 9703 508b 488B00   		movq	(%rax), %rax
 9704 508e 488D4D90 		leaq	-112(%rbp), %rcx
 9705 5092 BA000000 		movl	$.LC3, %edx
 9705      00
 9706 5097 4889CE   		movq	%rcx, %rsi
 9707 509a 4889C7   		movq	%rax, %rdi
 9708 509d E8000000 		call	_ZN8UnitTest11TestResults13OnTestFailureERKNS_11TestDetailsEPKc
 9708      00
 9709              	.LEHE492:
 9710              	.LEHB493:
 9711 50a2 E8000000 		call	__cxa_end_catch
 9711      00
 9712              	.LEHE493:
 9713 50a7 E92DFCFF 		jmp	.L568
 9713      FF
 9714              	.L598:
 9715 50ac 4889C3   		movq	%rax, %rbx
 356:testCore.cpp  **** 	queueCommitPut(&queue);
 9716              		.loc 3 356 0 is_stmt 1
 9717 50af E8000000 		call	__cxa_end_catch
 9717      00
 9718 50b4 4889D8   		movq	%rbx, %rax
 9719 50b7 4889C7   		movq	%rax, %rdi
 9720              	.LEHB494:
 9721 50ba E8000000 		call	_Unwind_Resume
 9721      00
 9722              	.LEHE494:
 9723              	.L597:
 9724 50bf 4889C7   		movq	%rax, %rdi
 9725 50c2 E8000000 		call	__cxa_begin_catch
 9725      00
 9726              	.LEHB495:
 9727 50c7 E8000000 		call	_ZN8UnitTest11CurrentTest7DetailsEv
 9727      00
 9728 50cc 488B08   		movq	(%rax), %rcx
 9729 50cf 488D4590 		leaq	-112(%rbp), %rax
 9730 50d3 BA640100 		movl	$356, %edx
 9730      00
 9731 50d8 4889CE   		movq	%rcx, %rsi
 9732 50db 4889C7   		movq	%rax, %rdi
 9733 50de E8000000 		call	_ZN8UnitTest11TestDetailsC1ERKS0_i
 9733      00
 356:testCore.cpp  **** 	queueCommitPut(&queue);
 9734              		.loc 3 356 0 is_stmt 0 discriminator 1
 9735 50e3 E8000000 		call	_ZN8UnitTest11CurrentTest7ResultsEv
 9735      00
 9736 50e8 488B00   		movq	(%rax), %rax
 9737 50eb 488D4D90 		leaq	-112(%rbp), %rcx
 9738 50ef BA000000 		movl	$.LC3, %edx
 9738      00
 9739 50f4 4889CE   		movq	%rcx, %rsi
 9740 50f7 4889C7   		movq	%rax, %rdi
 9741 50fa E8000000 		call	_ZN8UnitTest11TestResults13OnTestFailureERKNS_11TestDetailsEPKc
 9741      00
 9742              	.LEHE495:
 9743              	.LEHB496:
 9744 50ff E8000000 		call	__cxa_end_catch
 9744      00
 9745              	.LEHE496:
 9746 5104 E931FCFF 		jmp	.L571
 9746      FF
 9747              	.L600:
 9748 5109 4889C3   		movq	%rax, %rbx
 359:testCore.cpp  **** 	queueCommitPut(&queue);
 9749              		.loc 3 359 0 is_stmt 1
 9750 510c E8000000 		call	__cxa_end_catch
 9750      00
 9751 5111 4889D8   		movq	%rbx, %rax
 9752 5114 4889C7   		movq	%rax, %rdi
 9753              	.LEHB497:
 9754 5117 E8000000 		call	_Unwind_Resume
 9754      00
 9755              	.LEHE497:
 9756              	.L599:
 9757 511c 4889C7   		movq	%rax, %rdi
 9758 511f E8000000 		call	__cxa_begin_catch
 9758      00
 9759              	.LEHB498:
 9760 5124 E8000000 		call	_ZN8UnitTest11CurrentTest7DetailsEv
 9760      00
 9761 5129 488B08   		movq	(%rax), %rcx
 9762 512c 488D4590 		leaq	-112(%rbp), %rax
 9763 5130 BA670100 		movl	$359, %edx
 9763      00
 9764 5135 4889CE   		movq	%rcx, %rsi
 9765 5138 4889C7   		movq	%rax, %rdi
 9766 513b E8000000 		call	_ZN8UnitTest11TestDetailsC1ERKS0_i
 9766      00
 359:testCore.cpp  **** 	queueCommitPut(&queue);
 9767              		.loc 3 359 0 is_stmt 0 discriminator 1
 9768 5140 E8000000 		call	_ZN8UnitTest11CurrentTest7ResultsEv
 9768      00
 9769 5145 488B00   		movq	(%rax), %rax
 9770 5148 488D4D90 		leaq	-112(%rbp), %rcx
 9771 514c BA000000 		movl	$.LC3, %edx
 9771      00
 9772 5151 4889CE   		movq	%rcx, %rsi
 9773 5154 4889C7   		movq	%rax, %rdi
 9774 5157 E8000000 		call	_ZN8UnitTest11TestResults13OnTestFailureERKNS_11TestDetailsEPKc
 9774      00
 9775              	.LEHE498:
 9776              	.LEHB499:
 9777 515c E8000000 		call	__cxa_end_catch
 9777      00
 9778              	.LEHE499:
 9779 5161 E935FCFF 		jmp	.L574
 9779      FF
 9780              	.L602:
 9781 5166 4889C3   		movq	%rax, %rbx
 362:testCore.cpp  **** 	queueCommitPut(&queue);
 9782              		.loc 3 362 0 is_stmt 1
 9783 5169 E8000000 		call	__cxa_end_catch
 9783      00
 9784 516e 4889D8   		movq	%rbx, %rax
 9785 5171 4889C7   		movq	%rax, %rdi
 9786              	.LEHB500:
 9787 5174 E8000000 		call	_Unwind_Resume
 9787      00
 9788              	.LEHE500:
 9789              	.L601:
 9790 5179 4889C7   		movq	%rax, %rdi
 9791 517c E8000000 		call	__cxa_begin_catch
 9791      00
 9792              	.LEHB501:
 9793 5181 E8000000 		call	_ZN8UnitTest11CurrentTest7DetailsEv
 9793      00
 9794 5186 488B08   		movq	(%rax), %rcx
 9795 5189 488D4590 		leaq	-112(%rbp), %rax
 9796 518d BA6A0100 		movl	$362, %edx
 9796      00
 9797 5192 4889CE   		movq	%rcx, %rsi
 9798 5195 4889C7   		movq	%rax, %rdi
 9799 5198 E8000000 		call	_ZN8UnitTest11TestDetailsC1ERKS0_i
 9799      00
 362:testCore.cpp  **** 	queueCommitPut(&queue);
 9800              		.loc 3 362 0 is_stmt 0 discriminator 1
 9801 519d E8000000 		call	_ZN8UnitTest11CurrentTest7ResultsEv
 9801      00
 9802 51a2 488B00   		movq	(%rax), %rax
 9803 51a5 488D4D90 		leaq	-112(%rbp), %rcx
 9804 51a9 BA000000 		movl	$.LC3, %edx
 9804      00
 9805 51ae 4889CE   		movq	%rcx, %rsi
 9806 51b1 4889C7   		movq	%rax, %rdi
 9807 51b4 E8000000 		call	_ZN8UnitTest11TestResults13OnTestFailureERKNS_11TestDetailsEPKc
 9807      00
 9808              	.LEHE501:
 9809              	.LEHB502:
 9810 51b9 E8000000 		call	__cxa_end_catch
 9810      00
 9811              	.LEHE502:
 9812 51be E939FCFF 		jmp	.L577
 9812      FF
 9813              	.L604:
 9814 51c3 4889C3   		movq	%rax, %rbx
 365:testCore.cpp  **** 	queueCommitPut(&queue);
 9815              		.loc 3 365 0 is_stmt 1
 9816 51c6 E8000000 		call	__cxa_end_catch
 9816      00
 9817 51cb 4889D8   		movq	%rbx, %rax
 9818 51ce 4889C7   		movq	%rax, %rdi
 9819              	.LEHB503:
 9820 51d1 E8000000 		call	_Unwind_Resume
 9820      00
 9821              	.LEHE503:
 9822              	.L603:
 9823 51d6 4889C7   		movq	%rax, %rdi
 9824 51d9 E8000000 		call	__cxa_begin_catch
 9824      00
 9825              	.LEHB504:
 9826 51de E8000000 		call	_ZN8UnitTest11CurrentTest7DetailsEv
 9826      00
 9827 51e3 488B08   		movq	(%rax), %rcx
 9828 51e6 488D4590 		leaq	-112(%rbp), %rax
 9829 51ea BA6D0100 		movl	$365, %edx
 9829      00
 9830 51ef 4889CE   		movq	%rcx, %rsi
 9831 51f2 4889C7   		movq	%rax, %rdi
 9832 51f5 E8000000 		call	_ZN8UnitTest11TestDetailsC1ERKS0_i
 9832      00
 365:testCore.cpp  **** 	queueCommitPut(&queue);
 9833              		.loc 3 365 0 is_stmt 0 discriminator 1
 9834 51fa E8000000 		call	_ZN8UnitTest11CurrentTest7ResultsEv
 9834      00
 9835 51ff 488B00   		movq	(%rax), %rax
 9836 5202 488D4D90 		leaq	-112(%rbp), %rcx
 9837 5206 BA000000 		movl	$.LC3, %edx
 9837      00
 9838 520b 4889CE   		movq	%rcx, %rsi
 9839 520e 4889C7   		movq	%rax, %rdi
 9840 5211 E8000000 		call	_ZN8UnitTest11TestResults13OnTestFailureERKNS_11TestDetailsEPKc
 9840      00
 9841              	.LEHE504:
 9842              	.LEHB505:
 9843 5216 E8000000 		call	__cxa_end_catch
 9843      00
 9844              	.LEHE505:
 9845 521b E93DFCFF 		jmp	.L580
 9845      FF
 9846              	.L606:
 9847 5220 4889C3   		movq	%rax, %rbx
 368:testCore.cpp  **** 	queueCommitPut(&queue);
 9848              		.loc 3 368 0 is_stmt 1
 9849 5223 E8000000 		call	__cxa_end_catch
 9849      00
 9850 5228 4889D8   		movq	%rbx, %rax
 9851 522b 4889C7   		movq	%rax, %rdi
 9852              	.LEHB506:
 9853 522e E8000000 		call	_Unwind_Resume
 9853      00
 9854              	.LEHE506:
 9855              	.L605:
 9856 5233 4889C7   		movq	%rax, %rdi
 9857 5236 E8000000 		call	__cxa_begin_catch
 9857      00
 9858              	.LEHB507:
 9859 523b E8000000 		call	_ZN8UnitTest11CurrentTest7DetailsEv
 9859      00
 9860 5240 488B08   		movq	(%rax), %rcx
 9861 5243 488D4590 		leaq	-112(%rbp), %rax
 9862 5247 BA700100 		movl	$368, %edx
 9862      00
 9863 524c 4889CE   		movq	%rcx, %rsi
 9864 524f 4889C7   		movq	%rax, %rdi
 9865 5252 E8000000 		call	_ZN8UnitTest11TestDetailsC1ERKS0_i
 9865      00
 368:testCore.cpp  **** 	queueCommitPut(&queue);
 9866              		.loc 3 368 0 is_stmt 0 discriminator 1
 9867 5257 E8000000 		call	_ZN8UnitTest11CurrentTest7ResultsEv
 9867      00
 9868 525c 488B00   		movq	(%rax), %rax
 9869 525f 488D4D90 		leaq	-112(%rbp), %rcx
 9870 5263 BA000000 		movl	$.LC3, %edx
 9870      00
 9871 5268 4889CE   		movq	%rcx, %rsi
 9872 526b 4889C7   		movq	%rax, %rdi
 9873 526e E8000000 		call	_ZN8UnitTest11TestResults13OnTestFailureERKNS_11TestDetailsEPKc
 9873      00
 9874              	.LEHE507:
 9875              	.LEHB508:
 9876 5273 E8000000 		call	__cxa_end_catch
 9876      00
 9877              	.LEHE508:
 9878 5278 E941FCFF 		jmp	.L583
 9878      FF
 9879              	.L608:
 9880 527d 4889C3   		movq	%rax, %rbx
 371:testCore.cpp  **** 	queueCommitPut(&queue);
 9881              		.loc 3 371 0 is_stmt 1
 9882 5280 E8000000 		call	__cxa_end_catch
 9882      00
 9883 5285 4889D8   		movq	%rbx, %rax
 9884 5288 4889C7   		movq	%rax, %rdi
 9885              	.LEHB509:
 9886 528b E8000000 		call	_Unwind_Resume
 9886      00
 9887              	.LEHE509:
 9888              	.L607:
 9889 5290 4889C7   		movq	%rax, %rdi
 9890 5293 E8000000 		call	__cxa_begin_catch
 9890      00
 9891              	.LEHB510:
 9892 5298 E8000000 		call	_ZN8UnitTest11CurrentTest7DetailsEv
 9892      00
 9893 529d 488B08   		movq	(%rax), %rcx
 9894 52a0 488D4590 		leaq	-112(%rbp), %rax
 9895 52a4 BA730100 		movl	$371, %edx
 9895      00
 9896 52a9 4889CE   		movq	%rcx, %rsi
 9897 52ac 4889C7   		movq	%rax, %rdi
 9898 52af E8000000 		call	_ZN8UnitTest11TestDetailsC1ERKS0_i
 9898      00
 371:testCore.cpp  **** 	queueCommitPut(&queue);
 9899              		.loc 3 371 0 is_stmt 0 discriminator 1
 9900 52b4 E8000000 		call	_ZN8UnitTest11CurrentTest7ResultsEv
 9900      00
 9901 52b9 488B00   		movq	(%rax), %rax
 9902 52bc 488D4D90 		leaq	-112(%rbp), %rcx
 9903 52c0 BA000000 		movl	$.LC3, %edx
 9903      00
 9904 52c5 4889CE   		movq	%rcx, %rsi
 9905 52c8 4889C7   		movq	%rax, %rdi
 9906 52cb E8000000 		call	_ZN8UnitTest11TestResults13OnTestFailureERKNS_11TestDetailsEPKc
 9906      00
 9907              	.LEHE510:
 9908              	.LEHB511:
 9909 52d0 E8000000 		call	__cxa_end_catch
 9909      00
 9910              	.LEHE511:
 9911 52d5 E945FCFF 		jmp	.L586
 9911      FF
 9912              	.L610:
 9913 52da 4889C3   		movq	%rax, %rbx
 374:testCore.cpp  **** 	queueCommitPut(&queue);
 9914              		.loc 3 374 0 is_stmt 1
 9915 52dd E8000000 		call	__cxa_end_catch
 9915      00
 9916 52e2 4889D8   		movq	%rbx, %rax
 9917 52e5 4889C7   		movq	%rax, %rdi
 9918              	.LEHB512:
 9919 52e8 E8000000 		call	_Unwind_Resume
 9919      00
 9920              	.LEHE512:
 9921              	.L609:
 9922 52ed 4889C7   		movq	%rax, %rdi
 9923 52f0 E8000000 		call	__cxa_begin_catch
 9923      00
 9924              	.LEHB513:
 9925 52f5 E8000000 		call	_ZN8UnitTest11CurrentTest7DetailsEv
 9925      00
 9926 52fa 488B08   		movq	(%rax), %rcx
 9927 52fd 488D4590 		leaq	-112(%rbp), %rax
 9928 5301 BA760100 		movl	$374, %edx
 9928      00
 9929 5306 4889CE   		movq	%rcx, %rsi
 9930 5309 4889C7   		movq	%rax, %rdi
 9931 530c E8000000 		call	_ZN8UnitTest11TestDetailsC1ERKS0_i
 9931      00
 374:testCore.cpp  **** 	queueCommitPut(&queue);
 9932              		.loc 3 374 0 is_stmt 0 discriminator 1
 9933 5311 E8000000 		call	_ZN8UnitTest11CurrentTest7ResultsEv
 9933      00
 9934 5316 488B00   		movq	(%rax), %rax
 9935 5319 488D4D90 		leaq	-112(%rbp), %rcx
 9936 531d BA000000 		movl	$.LC3, %edx
 9936      00
 9937 5322 4889CE   		movq	%rcx, %rsi
 9938 5325 4889C7   		movq	%rax, %rdi
 9939 5328 E8000000 		call	_ZN8UnitTest11TestResults13OnTestFailureERKNS_11TestDetailsEPKc
 9939      00
 9940              	.LEHE513:
 9941              	.LEHB514:
 9942 532d E8000000 		call	__cxa_end_catch
 9942      00
 9943              	.LEHE514:
 9944 5332 E949FCFF 		jmp	.L589
 9944      FF
 9945              	.L612:
 9946 5337 4889C3   		movq	%rax, %rbx
 379:testCore.cpp  **** 
 9947              		.loc 3 379 0 is_stmt 1
 9948 533a E8000000 		call	__cxa_end_catch
 9948      00
 9949 533f 4889D8   		movq	%rbx, %rax
 9950 5342 4889C7   		movq	%rax, %rdi
 9951              	.LEHB515:
 9952 5345 E8000000 		call	_Unwind_Resume
 9952      00
 9953              	.LEHE515:
 9954              	.L611:
 9955 534a 4889C7   		movq	%rax, %rdi
 9956 534d E8000000 		call	__cxa_begin_catch
 9956      00
 9957              	.LEHB516:
 9958 5352 E8000000 		call	_ZN8UnitTest11CurrentTest7DetailsEv
 9958      00
 9959 5357 488B08   		movq	(%rax), %rcx
 9960 535a 488D4590 		leaq	-112(%rbp), %rax
 9961 535e BA7B0100 		movl	$379, %edx
 9961      00
 9962 5363 4889CE   		movq	%rcx, %rsi
 9963 5366 4889C7   		movq	%rax, %rdi
 9964 5369 E8000000 		call	_ZN8UnitTest11TestDetailsC1ERKS0_i
 9964      00
 379:testCore.cpp  **** 
 9965              		.loc 3 379 0 is_stmt 0 discriminator 1
 9966 536e E8000000 		call	_ZN8UnitTest11CurrentTest7ResultsEv
 9966      00
 9967 5373 488B00   		movq	(%rax), %rax
 9968 5376 488D4D90 		leaq	-112(%rbp), %rcx
 9969 537a BA000000 		movl	$.LC55, %edx
 9969      00
 9970 537f 4889CE   		movq	%rcx, %rsi
 9971 5382 4889C7   		movq	%rax, %rdi
 9972 5385 E8000000 		call	_ZN8UnitTest11TestResults13OnTestFailureERKNS_11TestDetailsEPKc
 9972      00
 9973              	.LEHE516:
 9974              	.LEHB517:
 9975 538a E8000000 		call	__cxa_end_catch
 9975      00
 9976              	.LEHE517:
 9977 538f E94DFCFF 		jmp	.L592
 9977      FF
 9978              	.L613:
 9979              	.LBE18:
 382:testCore.cpp  **** }
 9980              		.loc 3 382 0 is_stmt 1
 9981 5394 4881C488 		addq	$136, %rsp
 9981      000000
 9982 539b 5B       		popq	%rbx
 9983 539c 5D       		popq	%rbp
 9984              		.cfi_def_cfa 7, 8
 9985 539d C3       		ret
 9986              		.cfi_endproc
 9987              	.LFE1059:
 9988              		.section	.gcc_except_table
 9989              		.align 4
 9990              	.LLSDA1059:
 9991 0a24 FF       		.byte	0xff
 9992 0a25 03       		.byte	0x3
 9993 0a26 9C02     		.uleb128 .LLSDATT1059-.LLSDATTD1059
 9994              	.LLSDATTD1059:
 9995 0a28 01       		.byte	0x1
 9996 0a29 9102     		.uleb128 .LLSDACSE1059-.LLSDACSB1059
 9997              	.LLSDACSB1059:
 9998 0a2b 33       		.uleb128 .LEHB467-.LFB1059
 9999 0a2c 05       		.uleb128 .LEHE467-.LEHB467
 10000 0a2d 00       		.uleb128 0
 10001 0a2e 00       		.uleb128 0
 10002 0a2f 3B       		.uleb128 .LEHB468-.LFB1059
 10003 0a30 3F       		.uleb128 .LEHE468-.LEHB468
 10004 0a31 FB07     		.uleb128 .L593-.LFB1059
 10005 0a33 01       		.uleb128 0x1
 10006 0a34 8801     		.uleb128 .LEHB469-.LFB1059
 10007 0a36 05       		.uleb128 .LEHE469-.LEHB469
 10008 0a37 00       		.uleb128 0
 10009 0a38 00       		.uleb128 0
 10010 0a39 9001     		.uleb128 .LEHB470-.LFB1059
 10011 0a3b 3F       		.uleb128 .LEHE470-.LEHB470
 10012 0a3c D808     		.uleb128 .L595-.LFB1059
 10013 0a3e 01       		.uleb128 0x1
 10014 0a3f D601     		.uleb128 .LEHB471-.LFB1059
 10015 0a41 18       		.uleb128 .LEHE471-.LEHB471
 10016 0a42 00       		.uleb128 0
 10017 0a43 00       		.uleb128 0
 10018 0a44 F101     		.uleb128 .LEHB472-.LFB1059
 10019 0a46 3F       		.uleb128 .LEHE472-.LEHB472
 10020 0a47 B509     		.uleb128 .L597-.LFB1059
 10021 0a49 01       		.uleb128 0x1
 10022 0a4a B702     		.uleb128 .LEHB473-.LFB1059
 10023 0a4c 18       		.uleb128 .LEHE473-.LEHB473
 10024 0a4d 00       		.uleb128 0
 10025 0a4e 00       		.uleb128 0
 10026 0a4f D202     		.uleb128 .LEHB474-.LFB1059
 10027 0a51 3F       		.uleb128 .LEHE474-.LEHB474
 10028 0a52 920A     		.uleb128 .L599-.LFB1059
 10029 0a54 01       		.uleb128 0x1
 10030 0a55 9803     		.uleb128 .LEHB475-.LFB1059
 10031 0a57 18       		.uleb128 .LEHE475-.LEHB475
 10032 0a58 00       		.uleb128 0
 10033 0a59 00       		.uleb128 0
 10034 0a5a B303     		.uleb128 .LEHB476-.LFB1059
 10035 0a5c 3F       		.uleb128 .LEHE476-.LEHB476
 10036 0a5d EF0A     		.uleb128 .L601-.LFB1059
 10037 0a5f 01       		.uleb128 0x1
 10038 0a60 F903     		.uleb128 .LEHB477-.LFB1059
 10039 0a62 18       		.uleb128 .LEHE477-.LEHB477
 10040 0a63 00       		.uleb128 0
 10041 0a64 00       		.uleb128 0
 10042 0a65 9404     		.uleb128 .LEHB478-.LFB1059
 10043 0a67 3F       		.uleb128 .LEHE478-.LEHB478
 10044 0a68 CC0B     		.uleb128 .L603-.LFB1059
 10045 0a6a 01       		.uleb128 0x1
 10046 0a6b DA04     		.uleb128 .LEHB479-.LFB1059
 10047 0a6d 18       		.uleb128 .LEHE479-.LEHB479
 10048 0a6e 00       		.uleb128 0
 10049 0a6f 00       		.uleb128 0
 10050 0a70 F504     		.uleb128 .LEHB480-.LFB1059
 10051 0a72 3F       		.uleb128 .LEHE480-.LEHB480
 10052 0a73 A90C     		.uleb128 .L605-.LFB1059
 10053 0a75 01       		.uleb128 0x1
 10054 0a76 BB05     		.uleb128 .LEHB481-.LFB1059
 10055 0a78 18       		.uleb128 .LEHE481-.LEHB481
 10056 0a79 00       		.uleb128 0
 10057 0a7a 00       		.uleb128 0
 10058 0a7b D605     		.uleb128 .LEHB482-.LFB1059
 10059 0a7d 3F       		.uleb128 .LEHE482-.LEHB482
 10060 0a7e 860D     		.uleb128 .L607-.LFB1059
 10061 0a80 01       		.uleb128 0x1
 10062 0a81 9C06     		.uleb128 .LEHB483-.LFB1059
 10063 0a83 18       		.uleb128 .LEHE483-.LEHB483
 10064 0a84 00       		.uleb128 0
 10065 0a85 00       		.uleb128 0
 10066 0a86 B706     		.uleb128 .LEHB484-.LFB1059
 10067 0a88 3F       		.uleb128 .LEHE484-.LEHB484
 10068 0a89 E30D     		.uleb128 .L609-.LFB1059
 10069 0a8b 01       		.uleb128 0x1
 10070 0a8c FD06     		.uleb128 .LEHB485-.LFB1059
 10071 0a8e 18       		.uleb128 .LEHE485-.LEHB485
 10072 0a8f 00       		.uleb128 0
 10073 0a90 00       		.uleb128 0
 10074 0a91 9807     		.uleb128 .LEHB486-.LFB1059
 10075 0a93 3F       		.uleb128 .LEHE486-.LEHB486
 10076 0a94 C00E     		.uleb128 .L611-.LFB1059
 10077 0a96 01       		.uleb128 0x1
 10078 0a97 DE07     		.uleb128 .LEHB487-.LFB1059
 10079 0a99 05       		.uleb128 .LEHE487-.LEHB487
 10080 0a9a 00       		.uleb128 0
 10081 0a9b 00       		.uleb128 0
 10082 0a9c F607     		.uleb128 .LEHB488-.LFB1059
 10083 0a9e 05       		.uleb128 .LEHE488-.LEHB488
 10084 0a9f 00       		.uleb128 0
 10085 0aa0 00       		.uleb128 0
 10086 0aa1 8308     		.uleb128 .LEHB489-.LFB1059
 10087 0aa3 38       		.uleb128 .LEHE489-.LEHB489
 10088 0aa4 E807     		.uleb128 .L594-.LFB1059
 10089 0aa6 00       		.uleb128 0
 10090 0aa7 BB08     		.uleb128 .LEHB490-.LFB1059
 10091 0aa9 05       		.uleb128 .LEHE490-.LEHB490
 10092 0aaa 00       		.uleb128 0
 10093 0aab 00       		.uleb128 0
 10094 0aac D308     		.uleb128 .LEHB491-.LFB1059
 10095 0aae 05       		.uleb128 .LEHE491-.LEHB491
 10096 0aaf 00       		.uleb128 0
 10097 0ab0 00       		.uleb128 0
 10098 0ab1 E008     		.uleb128 .LEHB492-.LFB1059
 10099 0ab3 38       		.uleb128 .LEHE492-.LEHB492
 10100 0ab4 C508     		.uleb128 .L596-.LFB1059
 10101 0ab6 00       		.uleb128 0
 10102 0ab7 9809     		.uleb128 .LEHB493-.LFB1059
 10103 0ab9 05       		.uleb128 .LEHE493-.LEHB493
 10104 0aba 00       		.uleb128 0
 10105 0abb 00       		.uleb128 0
 10106 0abc B009     		.uleb128 .LEHB494-.LFB1059
 10107 0abe 05       		.uleb128 .LEHE494-.LEHB494
 10108 0abf 00       		.uleb128 0
 10109 0ac0 00       		.uleb128 0
 10110 0ac1 BD09     		.uleb128 .LEHB495-.LFB1059
 10111 0ac3 38       		.uleb128 .LEHE495-.LEHB495
 10112 0ac4 A209     		.uleb128 .L598-.LFB1059
 10113 0ac6 00       		.uleb128 0
 10114 0ac7 F509     		.uleb128 .LEHB496-.LFB1059
 10115 0ac9 05       		.uleb128 .LEHE496-.LEHB496
 10116 0aca 00       		.uleb128 0
 10117 0acb 00       		.uleb128 0
 10118 0acc 8D0A     		.uleb128 .LEHB497-.LFB1059
 10119 0ace 05       		.uleb128 .LEHE497-.LEHB497
 10120 0acf 00       		.uleb128 0
 10121 0ad0 00       		.uleb128 0
 10122 0ad1 9A0A     		.uleb128 .LEHB498-.LFB1059
 10123 0ad3 38       		.uleb128 .LEHE498-.LEHB498
 10124 0ad4 FF09     		.uleb128 .L600-.LFB1059
 10125 0ad6 00       		.uleb128 0
 10126 0ad7 D20A     		.uleb128 .LEHB499-.LFB1059
 10127 0ad9 05       		.uleb128 .LEHE499-.LEHB499
 10128 0ada 00       		.uleb128 0
 10129 0adb 00       		.uleb128 0
 10130 0adc EA0A     		.uleb128 .LEHB500-.LFB1059
 10131 0ade 05       		.uleb128 .LEHE500-.LEHB500
 10132 0adf 00       		.uleb128 0
 10133 0ae0 00       		.uleb128 0
 10134 0ae1 F70A     		.uleb128 .LEHB501-.LFB1059
 10135 0ae3 38       		.uleb128 .LEHE501-.LEHB501
 10136 0ae4 DC0A     		.uleb128 .L602-.LFB1059
 10137 0ae6 00       		.uleb128 0
 10138 0ae7 AF0B     		.uleb128 .LEHB502-.LFB1059
 10139 0ae9 05       		.uleb128 .LEHE502-.LEHB502
 10140 0aea 00       		.uleb128 0
 10141 0aeb 00       		.uleb128 0
 10142 0aec C70B     		.uleb128 .LEHB503-.LFB1059
 10143 0aee 05       		.uleb128 .LEHE503-.LEHB503
 10144 0aef 00       		.uleb128 0
 10145 0af0 00       		.uleb128 0
 10146 0af1 D40B     		.uleb128 .LEHB504-.LFB1059
 10147 0af3 38       		.uleb128 .LEHE504-.LEHB504
 10148 0af4 B90B     		.uleb128 .L604-.LFB1059
 10149 0af6 00       		.uleb128 0
 10150 0af7 8C0C     		.uleb128 .LEHB505-.LFB1059
 10151 0af9 05       		.uleb128 .LEHE505-.LEHB505
 10152 0afa 00       		.uleb128 0
 10153 0afb 00       		.uleb128 0
 10154 0afc A40C     		.uleb128 .LEHB506-.LFB1059
 10155 0afe 05       		.uleb128 .LEHE506-.LEHB506
 10156 0aff 00       		.uleb128 0
 10157 0b00 00       		.uleb128 0
 10158 0b01 B10C     		.uleb128 .LEHB507-.LFB1059
 10159 0b03 38       		.uleb128 .LEHE507-.LEHB507
 10160 0b04 960C     		.uleb128 .L606-.LFB1059
 10161 0b06 00       		.uleb128 0
 10162 0b07 E90C     		.uleb128 .LEHB508-.LFB1059
 10163 0b09 05       		.uleb128 .LEHE508-.LEHB508
 10164 0b0a 00       		.uleb128 0
 10165 0b0b 00       		.uleb128 0
 10166 0b0c 810D     		.uleb128 .LEHB509-.LFB1059
 10167 0b0e 05       		.uleb128 .LEHE509-.LEHB509
 10168 0b0f 00       		.uleb128 0
 10169 0b10 00       		.uleb128 0
 10170 0b11 8E0D     		.uleb128 .LEHB510-.LFB1059
 10171 0b13 38       		.uleb128 .LEHE510-.LEHB510
 10172 0b14 F30C     		.uleb128 .L608-.LFB1059
 10173 0b16 00       		.uleb128 0
 10174 0b17 C60D     		.uleb128 .LEHB511-.LFB1059
 10175 0b19 05       		.uleb128 .LEHE511-.LEHB511
 10176 0b1a 00       		.uleb128 0
 10177 0b1b 00       		.uleb128 0
 10178 0b1c DE0D     		.uleb128 .LEHB512-.LFB1059
 10179 0b1e 05       		.uleb128 .LEHE512-.LEHB512
 10180 0b1f 00       		.uleb128 0
 10181 0b20 00       		.uleb128 0
 10182 0b21 EB0D     		.uleb128 .LEHB513-.LFB1059
 10183 0b23 38       		.uleb128 .LEHE513-.LEHB513
 10184 0b24 D00D     		.uleb128 .L610-.LFB1059
 10185 0b26 00       		.uleb128 0
 10186 0b27 A30E     		.uleb128 .LEHB514-.LFB1059
 10187 0b29 05       		.uleb128 .LEHE514-.LEHB514
 10188 0b2a 00       		.uleb128 0
 10189 0b2b 00       		.uleb128 0
 10190 0b2c BB0E     		.uleb128 .LEHB515-.LFB1059
 10191 0b2e 05       		.uleb128 .LEHE515-.LEHB515
 10192 0b2f 00       		.uleb128 0
 10193 0b30 00       		.uleb128 0
 10194 0b31 C80E     		.uleb128 .LEHB516-.LFB1059
 10195 0b33 38       		.uleb128 .LEHE516-.LEHB516
 10196 0b34 AD0E     		.uleb128 .L612-.LFB1059
 10197 0b36 00       		.uleb128 0
 10198 0b37 800F     		.uleb128 .LEHB517-.LFB1059
 10199 0b39 05       		.uleb128 .LEHE517-.LEHB517
 10200 0b3a 00       		.uleb128 0
 10201 0b3b 00       		.uleb128 0
 10202              	.LLSDACSE1059:
 10203 0b3c 01       		.byte	0x1
 10204 0b3d 00       		.byte	0
 10205 0b3e 0000     		.align 4
 10206 0b40 00000000 		.long	0
 10207              	
 10208              	.LLSDATT1059:
 10209              		.text
 10211              		.section	.rodata
 10212              	.LC57:
 10213 0c37 51756575 		.string	"Queue_testAllocFreeMatching"
 10213      655F7465 
 10213      7374416C 
 10213      6C6F6346 
 10213      7265654D 
 10214              		.section	.text._ZN31TestQueue_testAllocFreeMatchingC2Ev,"axG",@progbits,_ZN31TestQueue_testAllocFr
 10215              		.align 2
 10216              		.weak	_ZN31TestQueue_testAllocFreeMatchingC2Ev
 10218              	_ZN31TestQueue_testAllocFreeMatchingC2Ev:
 10219              	.LFB1061:
 383:testCore.cpp  **** 
 384:testCore.cpp  **** TEST(Queue_testAllocFreeMatching) {
 10220              		.loc 3 384 0
 10221              		.cfi_startproc
 10222 0000 55       		pushq	%rbp
 10223              		.cfi_def_cfa_offset 16
 10224              		.cfi_offset 6, -16
 10225 0001 4889E5   		movq	%rsp, %rbp
 10226              		.cfi_def_cfa_register 6
 10227 0004 4883EC10 		subq	$16, %rsp
 10228 0008 48897DF8 		movq	%rdi, -8(%rbp)
 10229              	.LBB19:
 10230              		.loc 3 384 0
 10231 000c E8000000 		call	_ZN13UnitTestSuite12GetSuiteNameEv
 10231      00
 10232 0011 4889C2   		movq	%rax, %rdx
 10233 0014 488B45F8 		movq	-8(%rbp), %rax
 10234 0018 41B88001 		movl	$384, %r8d
 10234      0000
 10235 001e B9000000 		movl	$.LC1, %ecx
 10235      00
 10236 0023 BE000000 		movl	$.LC57, %esi
 10236      00
 10237 0028 4889C7   		movq	%rax, %rdi
 10238 002b E8000000 		call	_ZN8UnitTest4TestC2EPKcS2_S2_i
 10238      00
 10239 0030 488B45F8 		movq	-8(%rbp), %rax
 10240 0034 48C70000 		movq	$_ZTV31TestQueue_testAllocFreeMatching+16, (%rax)
 10240      000000
 10241              	.LBE19:
 10242 003b C9       		leave
 10243              		.cfi_def_cfa 7, 8
 10244 003c C3       		ret
 10245              		.cfi_endproc
 10246              	.LFE1061:
 10248              		.weak	_ZN31TestQueue_testAllocFreeMatchingC1Ev
 10249              		.set	_ZN31TestQueue_testAllocFreeMatchingC1Ev,_ZN31TestQueue_testAllocFreeMatchingC2Ev
 10250              		.globl	testQueue_testAllocFreeMatchingInstance
 10251              		.bss
 10252 01b9 00000000 		.align 32
 10252      000000
 10255              	testQueue_testAllocFreeMatchingInstance:
 10256 01c0 00000000 		.zero	56
 10256      00000000 
 10256      00000000 
 10256      00000000 
 10256      00000000 
 10257              		.globl	adderQueue_testAllocFreeMatching
 10260              	adderQueue_testAllocFreeMatching:
 10261 01f8 00       		.zero	1
 10262              		.section	.rodata
 10263 0c53 00000000 		.align 8
 10263      00
 10264              	.LC58:
 10265 0c58 556E6861 		.string	"Unhandled exception in CHECK_EQUAL(0, m_allocFree)"
 10265      6E646C65 
 10265      64206578 
 10265      63657074 
 10265      696F6E20 
 10266              		.text
 10267              		.align 2
 10268              		.globl	_ZNK31TestQueue_testAllocFreeMatching7RunImplEv
 10270              	_ZNK31TestQueue_testAllocFreeMatching7RunImplEv:
 10271              	.LFB1063:
 10272              		.loc 3 384 0
 10273              		.cfi_startproc
 10274              		.cfi_personality 0x3,__gxx_personality_v0
 10275              		.cfi_lsda 0x3,.LLSDA1063
 10276 539e 55       		pushq	%rbp
 10277              		.cfi_def_cfa_offset 16
 10278              		.cfi_offset 6, -16
 10279 539f 4889E5   		movq	%rsp, %rbp
 10280              		.cfi_def_cfa_register 6
 10281 53a2 53       		pushq	%rbx
 10282 53a3 4883EC48 		subq	$72, %rsp
 10283              		.cfi_offset 3, -24
 10284 53a7 48897DB8 		movq	%rdi, -72(%rbp)
 10285              	.LEHB518:
 385:testCore.cpp  **** 	CHECK_EQUAL(0, m_allocFree);
 10286              		.loc 3 385 0
 10287 53ab E8000000 		call	_ZN8UnitTest11CurrentTest7DetailsEv
 10287      00
 10288 53b0 488B08   		movq	(%rax), %rcx
 10289 53b3 488D45D0 		leaq	-48(%rbp), %rax
 10290 53b7 BA810100 		movl	$385, %edx
 10290      00
 10291 53bc 4889CE   		movq	%rcx, %rsi
 10292 53bf 4889C7   		movq	%rax, %rdi
 10293 53c2 E8000000 		call	_ZN8UnitTest11TestDetailsC1ERKS0_i
 10293      00
 10294              		.loc 3 385 0 is_stmt 0 discriminator 1
 10295 53c7 C745CC00 		movl	$0, -52(%rbp)
 10295      000000
 10296 53ce E8000000 		call	_ZN8UnitTest11CurrentTest7ResultsEv
 10296      00
 10297 53d3 488B00   		movq	(%rax), %rax
 10298 53d6 488D55D0 		leaq	-48(%rbp), %rdx
 10299 53da 488D75CC 		leaq	-52(%rbp), %rsi
 10300 53de 4889D1   		movq	%rdx, %rcx
 10301 53e1 BA000000 		movl	$_ZL11m_allocFree, %edx
 10301      00
 10302 53e6 4889C7   		movq	%rax, %rdi
 10303 53e9 E8000000 		call	_ZN8UnitTest10CheckEqualIiiEEvRNS_11TestResultsERKT_RKT0_RKNS_11TestDetailsE
 10303      00
 10304              	.LEHE518:
 386:testCore.cpp  **** }
 10305              		.loc 3 386 0 is_stmt 1
 10306 53ee EB58     		jmp	.L621
 10307              	.L620:
 10308 53f0 4889C3   		movq	%rax, %rbx
 385:testCore.cpp  **** 	CHECK_EQUAL(0, m_allocFree);
 10309              		.loc 3 385 0
 10310 53f3 E8000000 		call	__cxa_end_catch
 10310      00
 10311 53f8 4889D8   		movq	%rbx, %rax
 10312 53fb 4889C7   		movq	%rax, %rdi
 10313              	.LEHB519:
 10314 53fe E8000000 		call	_Unwind_Resume
 10314      00
 10315              	.LEHE519:
 10316              	.L619:
 10317 5403 4889C7   		movq	%rax, %rdi
 10318 5406 E8000000 		call	__cxa_begin_catch
 10318      00
 10319              	.LEHB520:
 10320 540b E8000000 		call	_ZN8UnitTest11CurrentTest7DetailsEv
 10320      00
 10321 5410 488B08   		movq	(%rax), %rcx
 10322 5413 488D45D0 		leaq	-48(%rbp), %rax
 10323 5417 BA810100 		movl	$385, %edx
 10323      00
 10324 541c 4889CE   		movq	%rcx, %rsi
 10325 541f 4889C7   		movq	%rax, %rdi
 10326 5422 E8000000 		call	_ZN8UnitTest11TestDetailsC1ERKS0_i
 10326      00
 385:testCore.cpp  **** 	CHECK_EQUAL(0, m_allocFree);
 10327              		.loc 3 385 0 is_stmt 0 discriminator 1
 10328 5427 E8000000 		call	_ZN8UnitTest11CurrentTest7ResultsEv
 10328      00
 10329 542c 488B00   		movq	(%rax), %rax
 10330 542f 488D4DD0 		leaq	-48(%rbp), %rcx
 10331 5433 BA000000 		movl	$.LC58, %edx
 10331      00
 10332 5438 4889CE   		movq	%rcx, %rsi
 10333 543b 4889C7   		movq	%rax, %rdi
 10334 543e E8000000 		call	_ZN8UnitTest11TestResults13OnTestFailureERKNS_11TestDetailsEPKc
 10334      00
 10335              	.LEHE520:
 10336              	.LEHB521:
 10337 5443 E8000000 		call	__cxa_end_catch
 10337      00
 10338              	.LEHE521:
 10339              	.L621:
 10340              		.loc 3 386 0 is_stmt 1
 10341 5448 90       		nop
 10342 5449 4883C448 		addq	$72, %rsp
 10343 544d 5B       		popq	%rbx
 10344 544e 5D       		popq	%rbp
 10345              		.cfi_def_cfa 7, 8
 10346 544f C3       		ret
 10347              		.cfi_endproc
 10348              	.LFE1063:
 10349              		.section	.gcc_except_table
 10350              		.align 4
 10351              	.LLSDA1063:
 10352 0b44 FF       		.byte	0xff
 10353 0b45 03       		.byte	0x3
 10354 0b46 19       		.uleb128 .LLSDATT1063-.LLSDATTD1063
 10355              	.LLSDATTD1063:
 10356 0b47 01       		.byte	0x1
 10357 0b48 11       		.uleb128 .LLSDACSE1063-.LLSDACSB1063
 10358              	.LLSDACSB1063:
 10359 0b49 0D       		.uleb128 .LEHB518-.LFB1063
 10360 0b4a 43       		.uleb128 .LEHE518-.LEHB518
 10361 0b4b 65       		.uleb128 .L619-.LFB1063
 10362 0b4c 01       		.uleb128 0x1
 10363 0b4d 60       		.uleb128 .LEHB519-.LFB1063
 10364 0b4e 05       		.uleb128 .LEHE519-.LEHB519
 10365 0b4f 00       		.uleb128 0
 10366 0b50 00       		.uleb128 0
 10367 0b51 6D       		.uleb128 .LEHB520-.LFB1063
 10368 0b52 38       		.uleb128 .LEHE520-.LEHB520
 10369 0b53 52       		.uleb128 .L620-.LFB1063
 10370 0b54 00       		.uleb128 0
 10371 0b55 A501     		.uleb128 .LEHB521-.LFB1063
 10372 0b57 05       		.uleb128 .LEHE521-.LEHB521
 10373 0b58 00       		.uleb128 0
 10374 0b59 00       		.uleb128 0
 10375              	.LLSDACSE1063:
 10376 0b5a 01       		.byte	0x1
 10377 0b5b 00       		.byte	0
 10378              		.align 4
 10379 0b5c 00000000 		.long	0
 10380              	
 10381              	.LLSDATT1063:
 10382              		.text
 10384              		.section	.text._ZN8UnitTest15MemoryOutStreamD1Ev,"axG",@progbits,_ZN8UnitTest15MemoryOutStreamD1Ev
 10385              		.align 2
 10386              		.weak	_ZN8UnitTest15MemoryOutStreamD1Ev
 10388              	_ZN8UnitTest15MemoryOutStreamD1Ev:
 10389              	.LFB1094:
  13:/home/pandu/Desktop/DigitalLogicDesign/Lab/03-/makestuff/libs/libutpp/MemoryOutStream.h **** {
 10390              		.loc 2 13 0
 10391              		.cfi_startproc
 10392              		.cfi_personality 0x3,__gxx_personality_v0
 10393              		.cfi_lsda 0x3,.LLSDA1094
 10394 0000 55       		pushq	%rbp
 10395              		.cfi_def_cfa_offset 16
 10396              		.cfi_offset 6, -16
 10397 0001 4889E5   		movq	%rsp, %rbp
 10398              		.cfi_def_cfa_register 6
 10399 0004 53       		pushq	%rbx
 10400 0005 4883EC18 		subq	$24, %rsp
 10401              		.cfi_offset 3, -24
 10402 0009 48897DE8 		movq	%rdi, -24(%rbp)
 10403              	.LBB20:
  13:/home/pandu/Desktop/DigitalLogicDesign/Lab/03-/makestuff/libs/libutpp/MemoryOutStream.h **** {
 10404              		.loc 2 13 0
 10405 000d BA000000 		movl	$_ZTVN8UnitTest15MemoryOutStreamE+24, %edx
 10405      00
 10406 0012 488B45E8 		movq	-24(%rbp), %rax
 10407 0016 488910   		movq	%rdx, (%rax)
 10408 0019 BA600000 		movl	$96, %edx
 10408      00
 10409 001e 488B45E8 		movq	-24(%rbp), %rax
 10410 0022 4801C2   		addq	%rax, %rdx
 10411 0025 B8000000 		movl	$_ZTVN8UnitTest15MemoryOutStreamE+64, %eax
 10411      00
 10412 002a 488902   		movq	%rax, (%rdx)
 10413 002d 488B45E8 		movq	-24(%rbp), %rax
 10414 0031 4883C058 		addq	$88, %rax
 10415 0035 4889C7   		movq	%rax, %rdi
 10416              	.LEHB522:
 10417 0038 E8000000 		call	_ZNSsD1Ev
 10417      00
 10418              	.LEHE522:
  13:/home/pandu/Desktop/DigitalLogicDesign/Lab/03-/makestuff/libs/libutpp/MemoryOutStream.h **** {
 10419              		.loc 2 13 0 is_stmt 0 discriminator 10
 10420 003d BA000000 		movl	$_ZTTN8UnitTest15MemoryOutStreamE+8, %edx
 10420      00
 10421 0042 488B45E8 		movq	-24(%rbp), %rax
 10422 0046 4889D6   		movq	%rdx, %rsi
 10423 0049 4889C7   		movq	%rax, %rdi
 10424              	.LEHB523:
 10425 004c E8000000 		call	_ZNSt19basic_ostringstreamIcSt11char_traitsIcESaIcEED2Ev
 10425      00
 10426              	.LEHE523:
  13:/home/pandu/Desktop/DigitalLogicDesign/Lab/03-/makestuff/libs/libutpp/MemoryOutStream.h **** {
 10427              		.loc 2 13 0 discriminator 14
 10428 0051 B8020000 		movl	$2, %eax
 10428      00
 10429 0056 85C0     		testl	%eax, %eax
 10430 0058 7410     		je	.L623
  13:/home/pandu/Desktop/DigitalLogicDesign/Lab/03-/makestuff/libs/libutpp/MemoryOutStream.h **** {
 10431              		.loc 2 13 0 discriminator 15
 10432 005a 488B45E8 		movq	-24(%rbp), %rax
 10433 005e 4883C060 		addq	$96, %rax
 10434 0062 4889C7   		movq	%rax, %rdi
 10435              	.LEHB524:
 10436 0065 E8000000 		call	_ZNSt9basic_iosIcSt11char_traitsIcEED2Ev
 10436      00
 10437              	.LEHE524:
 10438              	.L623:
 10439              	.LBE20:
  13:/home/pandu/Desktop/DigitalLogicDesign/Lab/03-/makestuff/libs/libutpp/MemoryOutStream.h **** {
 10440              		.loc 2 13 0 discriminator 16
 10441 006a B8000000 		movl	$0, %eax
 10441      00
 10442 006f 85C0     		testl	%eax, %eax
 10443 0071 744E     		je	.L630
  13:/home/pandu/Desktop/DigitalLogicDesign/Lab/03-/makestuff/libs/libutpp/MemoryOutStream.h **** {
 10444              		.loc 2 13 0 discriminator 1
 10445 0073 488B45E8 		movq	-24(%rbp), %rax
 10446 0077 4889C7   		movq	%rax, %rdi
 10447 007a E8000000 		call	_ZdlPv
 10447      00
 10448 007f EB40     		jmp	.L630
 10449              	.L628:
 10450 0081 4889C3   		movq	%rax, %rbx
 10451              	.LBB21:
  13:/home/pandu/Desktop/DigitalLogicDesign/Lab/03-/makestuff/libs/libutpp/MemoryOutStream.h **** {
 10452              		.loc 2 13 0
 10453 0084 BA000000 		movl	$_ZTTN8UnitTest15MemoryOutStreamE+8, %edx
 10453      00
 10454 0089 488B45E8 		movq	-24(%rbp), %rax
 10455 008d 4889D6   		movq	%rdx, %rsi
 10456 0090 4889C7   		movq	%rax, %rdi
 10457 0093 E8000000 		call	_ZNSt19basic_ostringstreamIcSt11char_traitsIcESaIcEED2Ev
 10457      00
 10458 0098 EB03     		jmp	.L626
 10459              	.L629:
 10460 009a 4889C3   		movq	%rax, %rbx
 10461              	.L626:
 10462 009d B8020000 		movl	$2, %eax
 10462      00
 10463 00a2 85C0     		testl	%eax, %eax
 10464 00a4 7410     		je	.L627
  13:/home/pandu/Desktop/DigitalLogicDesign/Lab/03-/makestuff/libs/libutpp/MemoryOutStream.h **** {
 10465              		.loc 2 13 0 discriminator 20
 10466 00a6 488B45E8 		movq	-24(%rbp), %rax
 10467 00aa 4883C060 		addq	$96, %rax
 10468 00ae 4889C7   		movq	%rax, %rdi
 10469 00b1 E8000000 		call	_ZNSt9basic_iosIcSt11char_traitsIcEED2Ev
 10469      00
 10470              	.L627:
 10471 00b6 4889D8   		movq	%rbx, %rax
 10472 00b9 4889C7   		movq	%rax, %rdi
 10473              	.LEHB525:
 10474 00bc E8000000 		call	_Unwind_Resume
 10474      00
 10475              	.LEHE525:
 10476              	.L630:
 10477              	.LBE21:
  13:/home/pandu/Desktop/DigitalLogicDesign/Lab/03-/makestuff/libs/libutpp/MemoryOutStream.h **** {
 10478              		.loc 2 13 0
 10479 00c1 4883C418 		addq	$24, %rsp
 10480 00c5 5B       		popq	%rbx
 10481 00c6 5D       		popq	%rbp
 10482              		.cfi_def_cfa 7, 8
 10483 00c7 C3       		ret
 10484              		.cfi_endproc
 10485              	.LFE1094:
 10486              		.section	.gcc_except_table
 10487              	.LLSDA1094:
 10488 0b60 FF       		.byte	0xff
 10489 0b61 FF       		.byte	0xff
 10490 0b62 01       		.byte	0x1
 10491 0b63 13       		.uleb128 .LLSDACSE1094-.LLSDACSB1094
 10492              	.LLSDACSB1094:
 10493 0b64 38       		.uleb128 .LEHB522-.LFB1094
 10494 0b65 05       		.uleb128 .LEHE522-.LEHB522
 10495 0b66 8101     		.uleb128 .L628-.LFB1094
 10496 0b68 00       		.uleb128 0
 10497 0b69 4C       		.uleb128 .LEHB523-.LFB1094
 10498 0b6a 05       		.uleb128 .LEHE523-.LEHB523
 10499 0b6b 9A01     		.uleb128 .L629-.LFB1094
 10500 0b6d 00       		.uleb128 0
 10501 0b6e 65       		.uleb128 .LEHB524-.LFB1094
 10502 0b6f 05       		.uleb128 .LEHE524-.LEHB524
 10503 0b70 00       		.uleb128 0
 10504 0b71 00       		.uleb128 0
 10505 0b72 BC01     		.uleb128 .LEHB525-.LFB1094
 10506 0b74 05       		.uleb128 .LEHE525-.LEHB525
 10507 0b75 00       		.uleb128 0
 10508 0b76 00       		.uleb128 0
 10509              	.LLSDACSE1094:
 10510              		.section	.text._ZN8UnitTest15MemoryOutStreamD1Ev,"axG",@progbits,_ZN8UnitTest15MemoryOutStreamD1Ev
 10512              		.set	.LTHUNK0,_ZN8UnitTest15MemoryOutStreamD1Ev
 10513              		.weak	_ZTv0_n24_N8UnitTest15MemoryOutStreamD1Ev
 10515              	_ZTv0_n24_N8UnitTest15MemoryOutStreamD1Ev:
 10516              	.LFB1183:
  13:/home/pandu/Desktop/DigitalLogicDesign/Lab/03-/makestuff/libs/libutpp/MemoryOutStream.h **** {
 10517              		.loc 2 13 0 is_stmt 1
 10518              		.cfi_startproc
 10519 00c8 4C8B17   		movq	(%rdi), %r10
 10520 00cb 49037AE8 		addq	-24(%r10), %rdi
 10521 00cf E92CFFFF 		jmp	.LTHUNK0
 10521      FF
 10522              		.cfi_endproc
 10523              	.LFE1183:
 10525              		.section	.text._ZN8UnitTest15MemoryOutStreamD0Ev,"axG",@progbits,_ZN8UnitTest15MemoryOutStreamD0Ev
 10526              		.align 2
 10527              		.weak	_ZN8UnitTest15MemoryOutStreamD0Ev
 10529              	_ZN8UnitTest15MemoryOutStreamD0Ev:
 10530              	.LFB1095:
  13:/home/pandu/Desktop/DigitalLogicDesign/Lab/03-/makestuff/libs/libutpp/MemoryOutStream.h **** {
 10531              		.loc 2 13 0
 10532              		.cfi_startproc
 10533 0000 55       		pushq	%rbp
 10534              		.cfi_def_cfa_offset 16
 10535              		.cfi_offset 6, -16
 10536 0001 4889E5   		movq	%rsp, %rbp
 10537              		.cfi_def_cfa_register 6
 10538 0004 4883EC10 		subq	$16, %rsp
 10539 0008 48897DF8 		movq	%rdi, -8(%rbp)
  13:/home/pandu/Desktop/DigitalLogicDesign/Lab/03-/makestuff/libs/libutpp/MemoryOutStream.h **** {
 10540              		.loc 2 13 0
 10541 000c 488B45F8 		movq	-8(%rbp), %rax
 10542 0010 4889C7   		movq	%rax, %rdi
 10543 0013 E8000000 		call	_ZN8UnitTest15MemoryOutStreamD1Ev
 10543      00
 10544 0018 488B45F8 		movq	-8(%rbp), %rax
 10545 001c 4889C7   		movq	%rax, %rdi
 10546 001f E8000000 		call	_ZdlPv
 10546      00
 10547 0024 C9       		leave
 10548              		.cfi_def_cfa 7, 8
 10549 0025 C3       		ret
 10550              		.cfi_endproc
 10551              	.LFE1095:
 10553              		.set	.LTHUNK1,_ZN8UnitTest15MemoryOutStreamD0Ev
 10554              		.weak	_ZTv0_n24_N8UnitTest15MemoryOutStreamD0Ev
 10556              	_ZTv0_n24_N8UnitTest15MemoryOutStreamD0Ev:
 10557              	.LFB1184:
  13:/home/pandu/Desktop/DigitalLogicDesign/Lab/03-/makestuff/libs/libutpp/MemoryOutStream.h **** {
 10558              		.loc 2 13 0
 10559              		.cfi_startproc
 10560 0026 4C8B17   		movq	(%rdi), %r10
 10561 0029 49037AE8 		addq	-24(%r10), %rdi
 10562 002d EBD1     		jmp	.LTHUNK1
 10563              		.cfi_endproc
 10564              	.LFE1184:
 10566              		.section	.rodata
 10567              	.LC59:
 10568 0c8b 45787065 		.string	"Expected "
 10568      63746564 
 10568      2000
 10569              	.LC60:
 10570 0c95 20627574 		.string	" but was "
 10570      20776173 
 10570      2000
 10571              		.section	.text._ZN8UnitTest10CheckEqualI9USBStatusS1_EEvRNS_11TestResultsERKT_RKT0_RKNS_11TestDeta
 10572              		.weak	_ZN8UnitTest10CheckEqualI9USBStatusS1_EEvRNS_11TestResultsERKT_RKT0_RKNS_11TestDetailsE
 10574              	_ZN8UnitTest10CheckEqualI9USBStatusS1_EEvRNS_11TestResultsERKT_RKT0_RKNS_11TestDetailsE:
 10575              	.LFB1091:
 10576              		.file 4 "/home/pandu/Desktop/DigitalLogicDesign/Lab/03-/makestuff/libs/libutpp/Checks.h"
   1:/home/pandu/Desktop/DigitalLogicDesign/Lab/03-/makestuff/libs/libutpp/Checks.h **** #ifndef UNITTEST_CHECKS_H
   2:/home/pandu/Desktop/DigitalLogicDesign/Lab/03-/makestuff/libs/libutpp/Checks.h **** #define UNITTEST_CHECKS_H
   3:/home/pandu/Desktop/DigitalLogicDesign/Lab/03-/makestuff/libs/libutpp/Checks.h **** 
   4:/home/pandu/Desktop/DigitalLogicDesign/Lab/03-/makestuff/libs/libutpp/Checks.h **** #include "Config.h"
   5:/home/pandu/Desktop/DigitalLogicDesign/Lab/03-/makestuff/libs/libutpp/Checks.h **** #include "TestResults.h"
   6:/home/pandu/Desktop/DigitalLogicDesign/Lab/03-/makestuff/libs/libutpp/Checks.h **** #include "MemoryOutStream.h"
   7:/home/pandu/Desktop/DigitalLogicDesign/Lab/03-/makestuff/libs/libutpp/Checks.h **** 
   8:/home/pandu/Desktop/DigitalLogicDesign/Lab/03-/makestuff/libs/libutpp/Checks.h **** namespace UnitTest {
   9:/home/pandu/Desktop/DigitalLogicDesign/Lab/03-/makestuff/libs/libutpp/Checks.h **** 
  10:/home/pandu/Desktop/DigitalLogicDesign/Lab/03-/makestuff/libs/libutpp/Checks.h **** 
  11:/home/pandu/Desktop/DigitalLogicDesign/Lab/03-/makestuff/libs/libutpp/Checks.h **** template< typename Value >
  12:/home/pandu/Desktop/DigitalLogicDesign/Lab/03-/makestuff/libs/libutpp/Checks.h **** bool Check(Value const value)
  13:/home/pandu/Desktop/DigitalLogicDesign/Lab/03-/makestuff/libs/libutpp/Checks.h **** {
  14:/home/pandu/Desktop/DigitalLogicDesign/Lab/03-/makestuff/libs/libutpp/Checks.h ****     return !!value; // doing double negative to avoid silly VS warnings
  15:/home/pandu/Desktop/DigitalLogicDesign/Lab/03-/makestuff/libs/libutpp/Checks.h **** }
  16:/home/pandu/Desktop/DigitalLogicDesign/Lab/03-/makestuff/libs/libutpp/Checks.h **** 
  17:/home/pandu/Desktop/DigitalLogicDesign/Lab/03-/makestuff/libs/libutpp/Checks.h **** 
  18:/home/pandu/Desktop/DigitalLogicDesign/Lab/03-/makestuff/libs/libutpp/Checks.h **** template< typename Expected, typename Actual >
  19:/home/pandu/Desktop/DigitalLogicDesign/Lab/03-/makestuff/libs/libutpp/Checks.h **** void CheckEqual(TestResults& results, Expected const& expected, Actual const& actual, TestDetails c
 10577              		.loc 4 19 0
 10578              		.cfi_startproc
 10579              		.cfi_personality 0x3,__gxx_personality_v0
 10580              		.cfi_lsda 0x3,.LLSDA1091
 10581 0000 55       		pushq	%rbp
 10582              		.cfi_def_cfa_offset 16
 10583              		.cfi_offset 6, -16
 10584 0001 4889E5   		movq	%rsp, %rbp
 10585              		.cfi_def_cfa_register 6
 10586 0004 4154     		pushq	%r12
 10587 0006 53       		pushq	%rbx
 10588 0007 4881EC90 		subq	$400, %rsp
 10588      010000
 10589              		.cfi_offset 12, -24
 10590              		.cfi_offset 3, -32
 10591 000e 4889BD78 		movq	%rdi, -392(%rbp)
 10591      FEFFFF
 10592 0015 4889B570 		movq	%rsi, -400(%rbp)
 10592      FEFFFF
 10593 001c 48899568 		movq	%rdx, -408(%rbp)
 10593      FEFFFF
 10594 0023 48898D60 		movq	%rcx, -416(%rbp)
 10594      FEFFFF
 10595              	.LBB22:
 10596              	.LBB23:
  20:/home/pandu/Desktop/DigitalLogicDesign/Lab/03-/makestuff/libs/libutpp/Checks.h **** {
  21:/home/pandu/Desktop/DigitalLogicDesign/Lab/03-/makestuff/libs/libutpp/Checks.h ****     if (!(expected == actual))
 10597              		.loc 4 21 0
 10598 002a 488B8570 		movq	-400(%rbp), %rax
 10598      FEFFFF
 10599 0031 8B10     		movl	(%rax), %edx
 10600 0033 488B8568 		movq	-408(%rbp), %rax
 10600      FEFFFF
 10601 003a 8B00     		movl	(%rax), %eax
 10602 003c 39C2     		cmpl	%eax, %edx
 10603 003e 0F84B500 		je	.L637
 10603      0000
 10604              	.LBB24:
  22:/home/pandu/Desktop/DigitalLogicDesign/Lab/03-/makestuff/libs/libutpp/Checks.h ****     {
  23:/home/pandu/Desktop/DigitalLogicDesign/Lab/03-/makestuff/libs/libutpp/Checks.h ****         UnitTest::MemoryOutStream stream;
 10605              		.loc 4 23 0
 10606 0044 488D8580 		leaq	-384(%rbp), %rax
 10606      FEFFFF
 10607 004b 4889C7   		movq	%rax, %rdi
 10608              	.LEHB526:
 10609 004e E8000000 		call	_ZN8UnitTest15MemoryOutStreamC1Ev
 10609      00
 10610              	.LEHE526:
  24:/home/pandu/Desktop/DigitalLogicDesign/Lab/03-/makestuff/libs/libutpp/Checks.h ****         stream << "Expected " << expected << " but was " << actual;
 10611              		.loc 4 24 0
 10612 0053 488B8568 		movq	-408(%rbp), %rax
 10612      FEFFFF
 10613 005a 8B00     		movl	(%rax), %eax
 10614 005c 89C3     		movl	%eax, %ebx
 10615 005e 488B8570 		movq	-400(%rbp), %rax
 10615      FEFFFF
 10616 0065 8B00     		movl	(%rax), %eax
 10617 0067 4189C4   		movl	%eax, %r12d
 10618 006a 488D8580 		leaq	-384(%rbp), %rax
 10618      FEFFFF
 10619 0071 BE000000 		movl	$.LC59, %esi
 10619      00
 10620 0076 4889C7   		movq	%rax, %rdi
 10621              	.LEHB527:
 10622 0079 E8000000 		call	_ZStlsISt11char_traitsIcEERSt13basic_ostreamIcT_ES5_PKc
 10622      00
 10623 007e 4489E6   		movl	%r12d, %esi
 10624 0081 4889C7   		movq	%rax, %rdi
 10625 0084 E8000000 		call	_ZNSolsEi
 10625      00
 10626              		.loc 4 24 0 is_stmt 0 discriminator 1
 10627 0089 BE000000 		movl	$.LC60, %esi
 10627      00
 10628 008e 4889C7   		movq	%rax, %rdi
 10629 0091 E8000000 		call	_ZStlsISt11char_traitsIcEERSt13basic_ostreamIcT_ES5_PKc
 10629      00
 10630 0096 89DE     		movl	%ebx, %esi
 10631 0098 4889C7   		movq	%rax, %rdi
 10632 009b E8000000 		call	_ZNSolsEi
 10632      00
  25:/home/pandu/Desktop/DigitalLogicDesign/Lab/03-/makestuff/libs/libutpp/Checks.h **** 
  26:/home/pandu/Desktop/DigitalLogicDesign/Lab/03-/makestuff/libs/libutpp/Checks.h ****         results.OnTestFailure(details, stream.GetText());
 10633              		.loc 4 26 0 is_stmt 1
 10634 00a0 488D8580 		leaq	-384(%rbp), %rax
 10634      FEFFFF
 10635 00a7 4889C7   		movq	%rax, %rdi
 10636 00aa E8000000 		call	_ZNK8UnitTest15MemoryOutStream7GetTextEv
 10636      00
 10637 00af 4889C2   		movq	%rax, %rdx
 10638 00b2 488B8D60 		movq	-416(%rbp), %rcx
 10638      FEFFFF
 10639 00b9 488B8578 		movq	-392(%rbp), %rax
 10639      FEFFFF
 10640 00c0 4889CE   		movq	%rcx, %rsi
 10641 00c3 4889C7   		movq	%rax, %rdi
 10642 00c6 E8000000 		call	_ZN8UnitTest11TestResults13OnTestFailureERKNS_11TestDetailsEPKc
 10642      00
 10643              	.LEHE527:
 10644              		.loc 4 26 0 is_stmt 0 discriminator 1
 10645 00cb 488D8580 		leaq	-384(%rbp), %rax
 10645      FEFFFF
 10646 00d2 4889C7   		movq	%rax, %rdi
 10647              	.LEHB528:
 10648 00d5 E8000000 		call	_ZN8UnitTest15MemoryOutStreamD1Ev
 10648      00
 10649              	.LEHE528:
 10650              	.LBE24:
 10651 00da EB1D     		jmp	.L637
 10652              	.L636:
 10653 00dc 4889C3   		movq	%rax, %rbx
 10654              	.LBB25:
 10655              		.loc 4 26 0
 10656 00df 488D8580 		leaq	-384(%rbp), %rax
 10656      FEFFFF
 10657 00e6 4889C7   		movq	%rax, %rdi
 10658 00e9 E8000000 		call	_ZN8UnitTest15MemoryOutStreamD1Ev
 10658      00
 10659 00ee 4889D8   		movq	%rbx, %rax
 10660 00f1 4889C7   		movq	%rax, %rdi
 10661              	.LEHB529:
 10662 00f4 E8000000 		call	_Unwind_Resume
 10662      00
 10663              	.LEHE529:
 10664              	.L637:
 10665              	.LBE25:
 10666              	.LBE23:
 10667              	.LBE22:
  27:/home/pandu/Desktop/DigitalLogicDesign/Lab/03-/makestuff/libs/libutpp/Checks.h ****     }
  28:/home/pandu/Desktop/DigitalLogicDesign/Lab/03-/makestuff/libs/libutpp/Checks.h **** }
 10668              		.loc 4 28 0 is_stmt 1
 10669 00f9 4881C490 		addq	$400, %rsp
 10669      010000
 10670 0100 5B       		popq	%rbx
 10671 0101 415C     		popq	%r12
 10672 0103 5D       		popq	%rbp
 10673              		.cfi_def_cfa 7, 8
 10674 0104 C3       		ret
 10675              		.cfi_endproc
 10676              	.LFE1091:
 10677              		.section	.gcc_except_table
 10678              	.LLSDA1091:
 10679 0b77 FF       		.byte	0xff
 10680 0b78 FF       		.byte	0xff
 10681 0b79 01       		.byte	0x1
 10682 0b7a 13       		.uleb128 .LLSDACSE1091-.LLSDACSB1091
 10683              	.LLSDACSB1091:
 10684 0b7b 4E       		.uleb128 .LEHB526-.LFB1091
 10685 0b7c 05       		.uleb128 .LEHE526-.LEHB526
 10686 0b7d 00       		.uleb128 0
 10687 0b7e 00       		.uleb128 0
 10688 0b7f 79       		.uleb128 .LEHB527-.LFB1091
 10689 0b80 52       		.uleb128 .LEHE527-.LEHB527
 10690 0b81 DC01     		.uleb128 .L636-.LFB1091
 10691 0b83 00       		.uleb128 0
 10692 0b84 D501     		.uleb128 .LEHB528-.LFB1091
 10693 0b86 05       		.uleb128 .LEHE528-.LEHB528
 10694 0b87 00       		.uleb128 0
 10695 0b88 00       		.uleb128 0
 10696 0b89 F401     		.uleb128 .LEHB529-.LFB1091
 10697 0b8b 05       		.uleb128 .LEHE529-.LEHB529
 10698 0b8c 00       		.uleb128 0
 10699 0b8d 00       		.uleb128 0
 10700              	.LLSDACSE1091:
 10701              		.section	.text._ZN8UnitTest10CheckEqualI9USBStatusS1_EEvRNS_11TestResultsERKT_RKT0_RKNS_11TestDeta
 10703              		.section	.text._ZN8UnitTest10CheckEqualImmEEvRNS_11TestResultsERKT_RKT0_RKNS_11TestDetailsE,"axG",
 10704              		.weak	_ZN8UnitTest10CheckEqualImmEEvRNS_11TestResultsERKT_RKT0_RKNS_11TestDetailsE
 10706              	_ZN8UnitTest10CheckEqualImmEEvRNS_11TestResultsERKT_RKT0_RKNS_11TestDetailsE:
 10707              	.LFB1096:
  19:/home/pandu/Desktop/DigitalLogicDesign/Lab/03-/makestuff/libs/libutpp/Checks.h **** {
 10708              		.loc 4 19 0
 10709              		.cfi_startproc
 10710              		.cfi_personality 0x3,__gxx_personality_v0
 10711              		.cfi_lsda 0x3,.LLSDA1096
 10712 0000 55       		pushq	%rbp
 10713              		.cfi_def_cfa_offset 16
 10714              		.cfi_offset 6, -16
 10715 0001 4889E5   		movq	%rsp, %rbp
 10716              		.cfi_def_cfa_register 6
 10717 0004 4154     		pushq	%r12
 10718 0006 53       		pushq	%rbx
 10719 0007 4881EC90 		subq	$400, %rsp
 10719      010000
 10720              		.cfi_offset 12, -24
 10721              		.cfi_offset 3, -32
 10722 000e 4889BD78 		movq	%rdi, -392(%rbp)
 10722      FEFFFF
 10723 0015 4889B570 		movq	%rsi, -400(%rbp)
 10723      FEFFFF
 10724 001c 48899568 		movq	%rdx, -408(%rbp)
 10724      FEFFFF
 10725 0023 48898D60 		movq	%rcx, -416(%rbp)
 10725      FEFFFF
 10726              	.LBB26:
 10727              	.LBB27:
  21:/home/pandu/Desktop/DigitalLogicDesign/Lab/03-/makestuff/libs/libutpp/Checks.h ****     {
 10728              		.loc 4 21 0
 10729 002a 488B8570 		movq	-400(%rbp), %rax
 10729      FEFFFF
 10730 0031 488B10   		movq	(%rax), %rdx
 10731 0034 488B8568 		movq	-408(%rbp), %rax
 10731      FEFFFF
 10732 003b 488B00   		movq	(%rax), %rax
 10733 003e 4839C2   		cmpq	%rax, %rdx
 10734 0041 0F84B300 		je	.L642
 10734      0000
 10735              	.LBB28:
  23:/home/pandu/Desktop/DigitalLogicDesign/Lab/03-/makestuff/libs/libutpp/Checks.h ****         stream << "Expected " << expected << " but was " << actual;
 10736              		.loc 4 23 0
 10737 0047 488D8580 		leaq	-384(%rbp), %rax
 10737      FEFFFF
 10738 004e 4889C7   		movq	%rax, %rdi
 10739              	.LEHB530:
 10740 0051 E8000000 		call	_ZN8UnitTest15MemoryOutStreamC1Ev
 10740      00
 10741              	.LEHE530:
  24:/home/pandu/Desktop/DigitalLogicDesign/Lab/03-/makestuff/libs/libutpp/Checks.h **** 
 10742              		.loc 4 24 0
 10743 0056 488B8568 		movq	-408(%rbp), %rax
 10743      FEFFFF
 10744 005d 488B18   		movq	(%rax), %rbx
 10745 0060 488B8570 		movq	-400(%rbp), %rax
 10745      FEFFFF
 10746 0067 4C8B20   		movq	(%rax), %r12
 10747 006a 488D8580 		leaq	-384(%rbp), %rax
 10747      FEFFFF
 10748 0071 BE000000 		movl	$.LC59, %esi
 10748      00
 10749 0076 4889C7   		movq	%rax, %rdi
 10750              	.LEHB531:
 10751 0079 E8000000 		call	_ZStlsISt11char_traitsIcEERSt13basic_ostreamIcT_ES5_PKc
 10751      00
 10752 007e 4C89E6   		movq	%r12, %rsi
 10753 0081 4889C7   		movq	%rax, %rdi
 10754 0084 E8000000 		call	_ZNSolsEm
 10754      00
  24:/home/pandu/Desktop/DigitalLogicDesign/Lab/03-/makestuff/libs/libutpp/Checks.h **** 
 10755              		.loc 4 24 0 is_stmt 0 discriminator 1
 10756 0089 BE000000 		movl	$.LC60, %esi
 10756      00
 10757 008e 4889C7   		movq	%rax, %rdi
 10758 0091 E8000000 		call	_ZStlsISt11char_traitsIcEERSt13basic_ostreamIcT_ES5_PKc
 10758      00
 10759 0096 4889DE   		movq	%rbx, %rsi
 10760 0099 4889C7   		movq	%rax, %rdi
 10761 009c E8000000 		call	_ZNSolsEm
 10761      00
  26:/home/pandu/Desktop/DigitalLogicDesign/Lab/03-/makestuff/libs/libutpp/Checks.h ****     }
 10762              		.loc 4 26 0 is_stmt 1
 10763 00a1 488D8580 		leaq	-384(%rbp), %rax
 10763      FEFFFF
 10764 00a8 4889C7   		movq	%rax, %rdi
 10765 00ab E8000000 		call	_ZNK8UnitTest15MemoryOutStream7GetTextEv
 10765      00
 10766 00b0 4889C2   		movq	%rax, %rdx
 10767 00b3 488B8D60 		movq	-416(%rbp), %rcx
 10767      FEFFFF
 10768 00ba 488B8578 		movq	-392(%rbp), %rax
 10768      FEFFFF
 10769 00c1 4889CE   		movq	%rcx, %rsi
 10770 00c4 4889C7   		movq	%rax, %rdi
 10771 00c7 E8000000 		call	_ZN8UnitTest11TestResults13OnTestFailureERKNS_11TestDetailsEPKc
 10771      00
 10772              	.LEHE531:
  26:/home/pandu/Desktop/DigitalLogicDesign/Lab/03-/makestuff/libs/libutpp/Checks.h ****     }
 10773              		.loc 4 26 0 is_stmt 0 discriminator 1
 10774 00cc 488D8580 		leaq	-384(%rbp), %rax
 10774      FEFFFF
 10775 00d3 4889C7   		movq	%rax, %rdi
 10776              	.LEHB532:
 10777 00d6 E8000000 		call	_ZN8UnitTest15MemoryOutStreamD1Ev
 10777      00
 10778              	.LEHE532:
 10779              	.LBE28:
 10780 00db EB1D     		jmp	.L642
 10781              	.L641:
 10782 00dd 4889C3   		movq	%rax, %rbx
 10783              	.LBB29:
  26:/home/pandu/Desktop/DigitalLogicDesign/Lab/03-/makestuff/libs/libutpp/Checks.h ****     }
 10784              		.loc 4 26 0
 10785 00e0 488D8580 		leaq	-384(%rbp), %rax
 10785      FEFFFF
 10786 00e7 4889C7   		movq	%rax, %rdi
 10787 00ea E8000000 		call	_ZN8UnitTest15MemoryOutStreamD1Ev
 10787      00
 10788 00ef 4889D8   		movq	%rbx, %rax
 10789 00f2 4889C7   		movq	%rax, %rdi
 10790              	.LEHB533:
 10791 00f5 E8000000 		call	_Unwind_Resume
 10791      00
 10792              	.LEHE533:
 10793              	.L642:
 10794              	.LBE29:
 10795              	.LBE27:
 10796              	.LBE26:
 10797              		.loc 4 28 0 is_stmt 1
 10798 00fa 4881C490 		addq	$400, %rsp
 10798      010000
 10799 0101 5B       		popq	%rbx
 10800 0102 415C     		popq	%r12
 10801 0104 5D       		popq	%rbp
 10802              		.cfi_def_cfa 7, 8
 10803 0105 C3       		ret
 10804              		.cfi_endproc
 10805              	.LFE1096:
 10806              		.section	.gcc_except_table
 10807              	.LLSDA1096:
 10808 0b8e FF       		.byte	0xff
 10809 0b8f FF       		.byte	0xff
 10810 0b90 01       		.byte	0x1
 10811 0b91 13       		.uleb128 .LLSDACSE1096-.LLSDACSB1096
 10812              	.LLSDACSB1096:
 10813 0b92 51       		.uleb128 .LEHB530-.LFB1096
 10814 0b93 05       		.uleb128 .LEHE530-.LEHB530
 10815 0b94 00       		.uleb128 0
 10816 0b95 00       		.uleb128 0
 10817 0b96 79       		.uleb128 .LEHB531-.LFB1096
 10818 0b97 53       		.uleb128 .LEHE531-.LEHB531
 10819 0b98 DD01     		.uleb128 .L641-.LFB1096
 10820 0b9a 00       		.uleb128 0
 10821 0b9b D601     		.uleb128 .LEHB532-.LFB1096
 10822 0b9d 05       		.uleb128 .LEHE532-.LEHB532
 10823 0b9e 00       		.uleb128 0
 10824 0b9f 00       		.uleb128 0
 10825 0ba0 F501     		.uleb128 .LEHB533-.LFB1096
 10826 0ba2 05       		.uleb128 .LEHE533-.LEHB533
 10827 0ba3 00       		.uleb128 0
 10828 0ba4 00       		.uleb128 0
 10829              	.LLSDACSE1096:
 10830              		.section	.text._ZN8UnitTest10CheckEqualImmEEvRNS_11TestResultsERKT_RKT0_RKNS_11TestDetailsE,"axG",
 10832              		.section	.text._ZN8UnitTest10CheckEqualImjEEvRNS_11TestResultsERKT_RKT0_RKNS_11TestDetailsE,"axG",
 10833              		.weak	_ZN8UnitTest10CheckEqualImjEEvRNS_11TestResultsERKT_RKT0_RKNS_11TestDetailsE
 10835              	_ZN8UnitTest10CheckEqualImjEEvRNS_11TestResultsERKT_RKT0_RKNS_11TestDetailsE:
 10836              	.LFB1097:
  19:/home/pandu/Desktop/DigitalLogicDesign/Lab/03-/makestuff/libs/libutpp/Checks.h **** {
 10837              		.loc 4 19 0
 10838              		.cfi_startproc
 10839              		.cfi_personality 0x3,__gxx_personality_v0
 10840              		.cfi_lsda 0x3,.LLSDA1097
 10841 0000 55       		pushq	%rbp
 10842              		.cfi_def_cfa_offset 16
 10843              		.cfi_offset 6, -16
 10844 0001 4889E5   		movq	%rsp, %rbp
 10845              		.cfi_def_cfa_register 6
 10846 0004 4154     		pushq	%r12
 10847 0006 53       		pushq	%rbx
 10848 0007 4881EC90 		subq	$400, %rsp
 10848      010000
 10849              		.cfi_offset 12, -24
 10850              		.cfi_offset 3, -32
 10851 000e 4889BD78 		movq	%rdi, -392(%rbp)
 10851      FEFFFF
 10852 0015 4889B570 		movq	%rsi, -400(%rbp)
 10852      FEFFFF
 10853 001c 48899568 		movq	%rdx, -408(%rbp)
 10853      FEFFFF
 10854 0023 48898D60 		movq	%rcx, -416(%rbp)
 10854      FEFFFF
 10855              	.LBB30:
 10856              	.LBB31:
  21:/home/pandu/Desktop/DigitalLogicDesign/Lab/03-/makestuff/libs/libutpp/Checks.h ****     {
 10857              		.loc 4 21 0
 10858 002a 488B8570 		movq	-400(%rbp), %rax
 10858      FEFFFF
 10859 0031 488B10   		movq	(%rax), %rdx
 10860 0034 488B8568 		movq	-408(%rbp), %rax
 10860      FEFFFF
 10861 003b 8B00     		movl	(%rax), %eax
 10862 003d 89C0     		movl	%eax, %eax
 10863 003f 4839C2   		cmpq	%rax, %rdx
 10864 0042 0F84B100 		je	.L647
 10864      0000
 10865              	.LBB32:
  23:/home/pandu/Desktop/DigitalLogicDesign/Lab/03-/makestuff/libs/libutpp/Checks.h ****         stream << "Expected " << expected << " but was " << actual;
 10866              		.loc 4 23 0
 10867 0048 488D8580 		leaq	-384(%rbp), %rax
 10867      FEFFFF
 10868 004f 4889C7   		movq	%rax, %rdi
 10869              	.LEHB534:
 10870 0052 E8000000 		call	_ZN8UnitTest15MemoryOutStreamC1Ev
 10870      00
 10871              	.LEHE534:
  24:/home/pandu/Desktop/DigitalLogicDesign/Lab/03-/makestuff/libs/libutpp/Checks.h **** 
 10872              		.loc 4 24 0
 10873 0057 488B8568 		movq	-408(%rbp), %rax
 10873      FEFFFF
 10874 005e 8B18     		movl	(%rax), %ebx
 10875 0060 488B8570 		movq	-400(%rbp), %rax
 10875      FEFFFF
 10876 0067 4C8B20   		movq	(%rax), %r12
 10877 006a 488D8580 		leaq	-384(%rbp), %rax
 10877      FEFFFF
 10878 0071 BE000000 		movl	$.LC59, %esi
 10878      00
 10879 0076 4889C7   		movq	%rax, %rdi
 10880              	.LEHB535:
 10881 0079 E8000000 		call	_ZStlsISt11char_traitsIcEERSt13basic_ostreamIcT_ES5_PKc
 10881      00
 10882 007e 4C89E6   		movq	%r12, %rsi
 10883 0081 4889C7   		movq	%rax, %rdi
 10884 0084 E8000000 		call	_ZNSolsEm
 10884      00
  24:/home/pandu/Desktop/DigitalLogicDesign/Lab/03-/makestuff/libs/libutpp/Checks.h **** 
 10885              		.loc 4 24 0 is_stmt 0 discriminator 1
 10886 0089 BE000000 		movl	$.LC60, %esi
 10886      00
 10887 008e 4889C7   		movq	%rax, %rdi
 10888 0091 E8000000 		call	_ZStlsISt11char_traitsIcEERSt13basic_ostreamIcT_ES5_PKc
 10888      00
 10889 0096 89DE     		movl	%ebx, %esi
 10890 0098 4889C7   		movq	%rax, %rdi
 10891 009b E8000000 		call	_ZNSolsEj
 10891      00
  26:/home/pandu/Desktop/DigitalLogicDesign/Lab/03-/makestuff/libs/libutpp/Checks.h ****     }
 10892              		.loc 4 26 0 is_stmt 1
 10893 00a0 488D8580 		leaq	-384(%rbp), %rax
 10893      FEFFFF
 10894 00a7 4889C7   		movq	%rax, %rdi
 10895 00aa E8000000 		call	_ZNK8UnitTest15MemoryOutStream7GetTextEv
 10895      00
 10896 00af 4889C2   		movq	%rax, %rdx
 10897 00b2 488B8D60 		movq	-416(%rbp), %rcx
 10897      FEFFFF
 10898 00b9 488B8578 		movq	-392(%rbp), %rax
 10898      FEFFFF
 10899 00c0 4889CE   		movq	%rcx, %rsi
 10900 00c3 4889C7   		movq	%rax, %rdi
 10901 00c6 E8000000 		call	_ZN8UnitTest11TestResults13OnTestFailureERKNS_11TestDetailsEPKc
 10901      00
 10902              	.LEHE535:
  26:/home/pandu/Desktop/DigitalLogicDesign/Lab/03-/makestuff/libs/libutpp/Checks.h ****     }
 10903              		.loc 4 26 0 is_stmt 0 discriminator 1
 10904 00cb 488D8580 		leaq	-384(%rbp), %rax
 10904      FEFFFF
 10905 00d2 4889C7   		movq	%rax, %rdi
 10906              	.LEHB536:
 10907 00d5 E8000000 		call	_ZN8UnitTest15MemoryOutStreamD1Ev
 10907      00
 10908              	.LEHE536:
 10909              	.LBE32:
 10910 00da EB1D     		jmp	.L647
 10911              	.L646:
 10912 00dc 4889C3   		movq	%rax, %rbx
 10913              	.LBB33:
  26:/home/pandu/Desktop/DigitalLogicDesign/Lab/03-/makestuff/libs/libutpp/Checks.h ****     }
 10914              		.loc 4 26 0
 10915 00df 488D8580 		leaq	-384(%rbp), %rax
 10915      FEFFFF
 10916 00e6 4889C7   		movq	%rax, %rdi
 10917 00e9 E8000000 		call	_ZN8UnitTest15MemoryOutStreamD1Ev
 10917      00
 10918 00ee 4889D8   		movq	%rbx, %rax
 10919 00f1 4889C7   		movq	%rax, %rdi
 10920              	.LEHB537:
 10921 00f4 E8000000 		call	_Unwind_Resume
 10921      00
 10922              	.LEHE537:
 10923              	.L647:
 10924              	.LBE33:
 10925              	.LBE31:
 10926              	.LBE30:
 10927              		.loc 4 28 0 is_stmt 1
 10928 00f9 4881C490 		addq	$400, %rsp
 10928      010000
 10929 0100 5B       		popq	%rbx
 10930 0101 415C     		popq	%r12
 10931 0103 5D       		popq	%rbp
 10932              		.cfi_def_cfa 7, 8
 10933 0104 C3       		ret
 10934              		.cfi_endproc
 10935              	.LFE1097:
 10936              		.section	.gcc_except_table
 10937              	.LLSDA1097:
 10938 0ba5 FF       		.byte	0xff
 10939 0ba6 FF       		.byte	0xff
 10940 0ba7 01       		.byte	0x1
 10941 0ba8 13       		.uleb128 .LLSDACSE1097-.LLSDACSB1097
 10942              	.LLSDACSB1097:
 10943 0ba9 52       		.uleb128 .LEHB534-.LFB1097
 10944 0baa 05       		.uleb128 .LEHE534-.LEHB534
 10945 0bab 00       		.uleb128 0
 10946 0bac 00       		.uleb128 0
 10947 0bad 79       		.uleb128 .LEHB535-.LFB1097
 10948 0bae 52       		.uleb128 .LEHE535-.LEHB535
 10949 0baf DC01     		.uleb128 .L646-.LFB1097
 10950 0bb1 00       		.uleb128 0
 10951 0bb2 D501     		.uleb128 .LEHB536-.LFB1097
 10952 0bb4 05       		.uleb128 .LEHE536-.LEHB536
 10953 0bb5 00       		.uleb128 0
 10954 0bb6 00       		.uleb128 0
 10955 0bb7 F401     		.uleb128 .LEHB537-.LFB1097
 10956 0bb9 05       		.uleb128 .LEHE537-.LEHB537
 10957 0bba 00       		.uleb128 0
 10958 0bbb 00       		.uleb128 0
 10959              	.LLSDACSE1097:
 10960              		.section	.text._ZN8UnitTest10CheckEqualImjEEvRNS_11TestResultsERKT_RKT0_RKNS_11TestDetailsE,"axG",
 10962              		.section	.text._ZN8UnitTest10CheckEqualIiiEEvRNS_11TestResultsERKT_RKT0_RKNS_11TestDetailsE,"axG",
 10963              		.weak	_ZN8UnitTest10CheckEqualIiiEEvRNS_11TestResultsERKT_RKT0_RKNS_11TestDetailsE
 10965              	_ZN8UnitTest10CheckEqualIiiEEvRNS_11TestResultsERKT_RKT0_RKNS_11TestDetailsE:
 10966              	.LFB1098:
  19:/home/pandu/Desktop/DigitalLogicDesign/Lab/03-/makestuff/libs/libutpp/Checks.h **** {
 10967              		.loc 4 19 0
 10968              		.cfi_startproc
 10969              		.cfi_personality 0x3,__gxx_personality_v0
 10970              		.cfi_lsda 0x3,.LLSDA1098
 10971 0000 55       		pushq	%rbp
 10972              		.cfi_def_cfa_offset 16
 10973              		.cfi_offset 6, -16
 10974 0001 4889E5   		movq	%rsp, %rbp
 10975              		.cfi_def_cfa_register 6
 10976 0004 4154     		pushq	%r12
 10977 0006 53       		pushq	%rbx
 10978 0007 4881EC90 		subq	$400, %rsp
 10978      010000
 10979              		.cfi_offset 12, -24
 10980              		.cfi_offset 3, -32
 10981 000e 4889BD78 		movq	%rdi, -392(%rbp)
 10981      FEFFFF
 10982 0015 4889B570 		movq	%rsi, -400(%rbp)
 10982      FEFFFF
 10983 001c 48899568 		movq	%rdx, -408(%rbp)
 10983      FEFFFF
 10984 0023 48898D60 		movq	%rcx, -416(%rbp)
 10984      FEFFFF
 10985              	.LBB34:
 10986              	.LBB35:
  21:/home/pandu/Desktop/DigitalLogicDesign/Lab/03-/makestuff/libs/libutpp/Checks.h ****     {
 10987              		.loc 4 21 0
 10988 002a 488B8570 		movq	-400(%rbp), %rax
 10988      FEFFFF
 10989 0031 8B10     		movl	(%rax), %edx
 10990 0033 488B8568 		movq	-408(%rbp), %rax
 10990      FEFFFF
 10991 003a 8B00     		movl	(%rax), %eax
 10992 003c 39C2     		cmpl	%eax, %edx
 10993 003e 0F84B100 		je	.L652
 10993      0000
 10994              	.LBB36:
  23:/home/pandu/Desktop/DigitalLogicDesign/Lab/03-/makestuff/libs/libutpp/Checks.h ****         stream << "Expected " << expected << " but was " << actual;
 10995              		.loc 4 23 0
 10996 0044 488D8580 		leaq	-384(%rbp), %rax
 10996      FEFFFF
 10997 004b 4889C7   		movq	%rax, %rdi
 10998              	.LEHB538:
 10999 004e E8000000 		call	_ZN8UnitTest15MemoryOutStreamC1Ev
 10999      00
 11000              	.LEHE538:
  24:/home/pandu/Desktop/DigitalLogicDesign/Lab/03-/makestuff/libs/libutpp/Checks.h **** 
 11001              		.loc 4 24 0
 11002 0053 488B8568 		movq	-408(%rbp), %rax
 11002      FEFFFF
 11003 005a 8B18     		movl	(%rax), %ebx
 11004 005c 488B8570 		movq	-400(%rbp), %rax
 11004      FEFFFF
 11005 0063 448B20   		movl	(%rax), %r12d
 11006 0066 488D8580 		leaq	-384(%rbp), %rax
 11006      FEFFFF
 11007 006d BE000000 		movl	$.LC59, %esi
 11007      00
 11008 0072 4889C7   		movq	%rax, %rdi
 11009              	.LEHB539:
 11010 0075 E8000000 		call	_ZStlsISt11char_traitsIcEERSt13basic_ostreamIcT_ES5_PKc
 11010      00
 11011 007a 4489E6   		movl	%r12d, %esi
 11012 007d 4889C7   		movq	%rax, %rdi
 11013 0080 E8000000 		call	_ZNSolsEi
 11013      00
  24:/home/pandu/Desktop/DigitalLogicDesign/Lab/03-/makestuff/libs/libutpp/Checks.h **** 
 11014              		.loc 4 24 0 is_stmt 0 discriminator 1
 11015 0085 BE000000 		movl	$.LC60, %esi
 11015      00
 11016 008a 4889C7   		movq	%rax, %rdi
 11017 008d E8000000 		call	_ZStlsISt11char_traitsIcEERSt13basic_ostreamIcT_ES5_PKc
 11017      00
 11018 0092 89DE     		movl	%ebx, %esi
 11019 0094 4889C7   		movq	%rax, %rdi
 11020 0097 E8000000 		call	_ZNSolsEi
 11020      00
  26:/home/pandu/Desktop/DigitalLogicDesign/Lab/03-/makestuff/libs/libutpp/Checks.h ****     }
 11021              		.loc 4 26 0 is_stmt 1
 11022 009c 488D8580 		leaq	-384(%rbp), %rax
 11022      FEFFFF
 11023 00a3 4889C7   		movq	%rax, %rdi
 11024 00a6 E8000000 		call	_ZNK8UnitTest15MemoryOutStream7GetTextEv
 11024      00
 11025 00ab 4889C2   		movq	%rax, %rdx
 11026 00ae 488B8D60 		movq	-416(%rbp), %rcx
 11026      FEFFFF
 11027 00b5 488B8578 		movq	-392(%rbp), %rax
 11027      FEFFFF
 11028 00bc 4889CE   		movq	%rcx, %rsi
 11029 00bf 4889C7   		movq	%rax, %rdi
 11030 00c2 E8000000 		call	_ZN8UnitTest11TestResults13OnTestFailureERKNS_11TestDetailsEPKc
 11030      00
 11031              	.LEHE539:
  26:/home/pandu/Desktop/DigitalLogicDesign/Lab/03-/makestuff/libs/libutpp/Checks.h ****     }
 11032              		.loc 4 26 0 is_stmt 0 discriminator 1
 11033 00c7 488D8580 		leaq	-384(%rbp), %rax
 11033      FEFFFF
 11034 00ce 4889C7   		movq	%rax, %rdi
 11035              	.LEHB540:
 11036 00d1 E8000000 		call	_ZN8UnitTest15MemoryOutStreamD1Ev
 11036      00
 11037              	.LEHE540:
 11038              	.LBE36:
 11039 00d6 EB1D     		jmp	.L652
 11040              	.L651:
 11041 00d8 4889C3   		movq	%rax, %rbx
 11042              	.LBB37:
  26:/home/pandu/Desktop/DigitalLogicDesign/Lab/03-/makestuff/libs/libutpp/Checks.h ****     }
 11043              		.loc 4 26 0
 11044 00db 488D8580 		leaq	-384(%rbp), %rax
 11044      FEFFFF
 11045 00e2 4889C7   		movq	%rax, %rdi
 11046 00e5 E8000000 		call	_ZN8UnitTest15MemoryOutStreamD1Ev
 11046      00
 11047 00ea 4889D8   		movq	%rbx, %rax
 11048 00ed 4889C7   		movq	%rax, %rdi
 11049              	.LEHB541:
 11050 00f0 E8000000 		call	_Unwind_Resume
 11050      00
 11051              	.LEHE541:
 11052              	.L652:
 11053              	.LBE37:
 11054              	.LBE35:
 11055              	.LBE34:
 11056              		.loc 4 28 0 is_stmt 1
 11057 00f5 4881C490 		addq	$400, %rsp
 11057      010000
 11058 00fc 5B       		popq	%rbx
 11059 00fd 415C     		popq	%r12
 11060 00ff 5D       		popq	%rbp
 11061              		.cfi_def_cfa 7, 8
 11062 0100 C3       		ret
 11063              		.cfi_endproc
 11064              	.LFE1098:
 11065              		.section	.gcc_except_table
 11066              	.LLSDA1098:
 11067 0bbc FF       		.byte	0xff
 11068 0bbd FF       		.byte	0xff
 11069 0bbe 01       		.byte	0x1
 11070 0bbf 13       		.uleb128 .LLSDACSE1098-.LLSDACSB1098
 11071              	.LLSDACSB1098:
 11072 0bc0 4E       		.uleb128 .LEHB538-.LFB1098
 11073 0bc1 05       		.uleb128 .LEHE538-.LEHB538
 11074 0bc2 00       		.uleb128 0
 11075 0bc3 00       		.uleb128 0
 11076 0bc4 75       		.uleb128 .LEHB539-.LFB1098
 11077 0bc5 52       		.uleb128 .LEHE539-.LEHB539
 11078 0bc6 D801     		.uleb128 .L651-.LFB1098
 11079 0bc8 00       		.uleb128 0
 11080 0bc9 D101     		.uleb128 .LEHB540-.LFB1098
 11081 0bcb 05       		.uleb128 .LEHE540-.LEHB540
 11082 0bcc 00       		.uleb128 0
 11083 0bcd 00       		.uleb128 0
 11084 0bce F001     		.uleb128 .LEHB541-.LFB1098
 11085 0bd0 05       		.uleb128 .LEHE541-.LEHB541
 11086 0bd1 00       		.uleb128 0
 11087 0bd2 00       		.uleb128 0
 11088              	.LLSDACSE1098:
 11089              		.section	.text._ZN8UnitTest10CheckEqualIiiEEvRNS_11TestResultsERKT_RKT0_RKNS_11TestDetailsE,"axG",
 11091              		.weak	_ZTV31TestQueue_testAllocFreeMatching
 11092              		.section	.rodata._ZTV31TestQueue_testAllocFreeMatching,"aG",@progbits,_ZTV31TestQueue_testAllocFre
 11093              		.align 32
 11096              	_ZTV31TestQueue_testAllocFreeMatching:
 11097 0000 00000000 		.quad	0
 11097      00000000 
 11098 0008 00000000 		.quad	_ZTI31TestQueue_testAllocFreeMatching
 11098      00000000 
 11099 0010 00000000 		.quad	_ZN31TestQueue_testAllocFreeMatchingD1Ev
 11099      00000000 
 11100 0018 00000000 		.quad	_ZN31TestQueue_testAllocFreeMatchingD0Ev
 11100      00000000 
 11101 0020 00000000 		.quad	_ZNK31TestQueue_testAllocFreeMatching7RunImplEv
 11101      00000000 
 11102              		.section	.text._ZN31TestQueue_testAllocFreeMatchingD2Ev,"axG",@progbits,_ZN31TestQueue_testAllocFr
 11103              		.align 2
 11104              		.weak	_ZN31TestQueue_testAllocFreeMatchingD2Ev
 11106              	_ZN31TestQueue_testAllocFreeMatchingD2Ev:
 11107              	.LFB1150:
 384:testCore.cpp  **** 	CHECK_EQUAL(0, m_allocFree);
 11108              		.loc 3 384 0
 11109              		.cfi_startproc
 11110 0000 55       		pushq	%rbp
 11111              		.cfi_def_cfa_offset 16
 11112              		.cfi_offset 6, -16
 11113 0001 4889E5   		movq	%rsp, %rbp
 11114              		.cfi_def_cfa_register 6
 11115 0004 4883EC10 		subq	$16, %rsp
 11116 0008 48897DF8 		movq	%rdi, -8(%rbp)
 11117              	.LBB38:
 384:testCore.cpp  **** 	CHECK_EQUAL(0, m_allocFree);
 11118              		.loc 3 384 0
 11119 000c 488B45F8 		movq	-8(%rbp), %rax
 11120 0010 48C70000 		movq	$_ZTV31TestQueue_testAllocFreeMatching+16, (%rax)
 11120      000000
 11121 0017 488B45F8 		movq	-8(%rbp), %rax
 11122 001b 4889C7   		movq	%rax, %rdi
 11123 001e E8000000 		call	_ZN8UnitTest4TestD2Ev
 11123      00
 11124              	.LBE38:
 11125 0023 B8000000 		movl	$0, %eax
 11125      00
 11126 0028 85C0     		testl	%eax, %eax
 11127 002a 740C     		je	.L653
 384:testCore.cpp  **** 	CHECK_EQUAL(0, m_allocFree);
 11128              		.loc 3 384 0 is_stmt 0 discriminator 1
 11129 002c 488B45F8 		movq	-8(%rbp), %rax
 11130 0030 4889C7   		movq	%rax, %rdi
 11131 0033 E8000000 		call	_ZdlPv
 11131      00
 11132              	.L653:
 384:testCore.cpp  **** 	CHECK_EQUAL(0, m_allocFree);
 11133              		.loc 3 384 0
 11134 0038 C9       		leave
 11135              		.cfi_def_cfa 7, 8
 11136 0039 C3       		ret
 11137              		.cfi_endproc
 11138              	.LFE1150:
 11140              		.weak	_ZN31TestQueue_testAllocFreeMatchingD1Ev
 11141              		.set	_ZN31TestQueue_testAllocFreeMatchingD1Ev,_ZN31TestQueue_testAllocFreeMatchingD2Ev
 11142              		.section	.text._ZN31TestQueue_testAllocFreeMatchingD0Ev,"axG",@progbits,_ZN31TestQueue_testAllocFr
 11143              		.align 2
 11144              		.weak	_ZN31TestQueue_testAllocFreeMatchingD0Ev
 11146              	_ZN31TestQueue_testAllocFreeMatchingD0Ev:
 11147              	.LFB1152:
 384:testCore.cpp  **** 	CHECK_EQUAL(0, m_allocFree);
 11148              		.loc 3 384 0 is_stmt 1
 11149              		.cfi_startproc
 11150 0000 55       		pushq	%rbp
 11151              		.cfi_def_cfa_offset 16
 11152              		.cfi_offset 6, -16
 11153 0001 4889E5   		movq	%rsp, %rbp
 11154              		.cfi_def_cfa_register 6
 11155 0004 4883EC10 		subq	$16, %rsp
 11156 0008 48897DF8 		movq	%rdi, -8(%rbp)
 384:testCore.cpp  **** 	CHECK_EQUAL(0, m_allocFree);
 11157              		.loc 3 384 0
 11158 000c 488B45F8 		movq	-8(%rbp), %rax
 11159 0010 4889C7   		movq	%rax, %rdi
 11160 0013 E8000000 		call	_ZN31TestQueue_testAllocFreeMatchingD1Ev
 11160      00
 11161 0018 488B45F8 		movq	-8(%rbp), %rax
 11162 001c 4889C7   		movq	%rax, %rdi
 11163 001f E8000000 		call	_ZdlPv
 11163      00
 11164 0024 C9       		leave
 11165              		.cfi_def_cfa 7, 8
 11166 0025 C3       		ret
 11167              		.cfi_endproc
 11168              	.LFE1152:
 11170              		.weak	_ZTV24TestQueue_testReallocOOM
 11171              		.section	.rodata._ZTV24TestQueue_testReallocOOM,"aG",@progbits,_ZTV24TestQueue_testReallocOOM,comd
 11172              		.align 32
 11175              	_ZTV24TestQueue_testReallocOOM:
 11176 0000 00000000 		.quad	0
 11176      00000000 
 11177 0008 00000000 		.quad	_ZTI24TestQueue_testReallocOOM
 11177      00000000 
 11178 0010 00000000 		.quad	_ZN24TestQueue_testReallocOOMD1Ev
 11178      00000000 
 11179 0018 00000000 		.quad	_ZN24TestQueue_testReallocOOMD0Ev
 11179      00000000 
 11180 0020 00000000 		.quad	_ZNK24TestQueue_testReallocOOM7RunImplEv
 11180      00000000 
 11181              		.section	.text._ZN24TestQueue_testReallocOOMD2Ev,"axG",@progbits,_ZN24TestQueue_testReallocOOMD5Ev
 11182              		.align 2
 11183              		.weak	_ZN24TestQueue_testReallocOOMD2Ev
 11185              	_ZN24TestQueue_testReallocOOMD2Ev:
 11186              	.LFB1154:
 342:testCore.cpp  **** 	struct UnboundedQueue queue;
 11187              		.loc 3 342 0
 11188              		.cfi_startproc
 11189 0000 55       		pushq	%rbp
 11190              		.cfi_def_cfa_offset 16
 11191              		.cfi_offset 6, -16
 11192 0001 4889E5   		movq	%rsp, %rbp
 11193              		.cfi_def_cfa_register 6
 11194 0004 4883EC10 		subq	$16, %rsp
 11195 0008 48897DF8 		movq	%rdi, -8(%rbp)
 11196              	.LBB39:
 342:testCore.cpp  **** 	struct UnboundedQueue queue;
 11197              		.loc 3 342 0
 11198 000c 488B45F8 		movq	-8(%rbp), %rax
 11199 0010 48C70000 		movq	$_ZTV24TestQueue_testReallocOOM+16, (%rax)
 11199      000000
 11200 0017 488B45F8 		movq	-8(%rbp), %rax
 11201 001b 4889C7   		movq	%rax, %rdi
 11202 001e E8000000 		call	_ZN8UnitTest4TestD2Ev
 11202      00
 11203              	.LBE39:
 11204 0023 B8000000 		movl	$0, %eax
 11204      00
 11205 0028 85C0     		testl	%eax, %eax
 11206 002a 740C     		je	.L658
 342:testCore.cpp  **** 	struct UnboundedQueue queue;
 11207              		.loc 3 342 0 is_stmt 0 discriminator 1
 11208 002c 488B45F8 		movq	-8(%rbp), %rax
 11209 0030 4889C7   		movq	%rax, %rdi
 11210 0033 E8000000 		call	_ZdlPv
 11210      00
 11211              	.L658:
 342:testCore.cpp  **** 	struct UnboundedQueue queue;
 11212              		.loc 3 342 0
 11213 0038 C9       		leave
 11214              		.cfi_def_cfa 7, 8
 11215 0039 C3       		ret
 11216              		.cfi_endproc
 11217              	.LFE1154:
 11219              		.weak	_ZN24TestQueue_testReallocOOMD1Ev
 11220              		.set	_ZN24TestQueue_testReallocOOMD1Ev,_ZN24TestQueue_testReallocOOMD2Ev
 11221              		.section	.text._ZN24TestQueue_testReallocOOMD0Ev,"axG",@progbits,_ZN24TestQueue_testReallocOOMD0Ev
 11222              		.align 2
 11223              		.weak	_ZN24TestQueue_testReallocOOMD0Ev
 11225              	_ZN24TestQueue_testReallocOOMD0Ev:
 11226              	.LFB1156:
 342:testCore.cpp  **** 	struct UnboundedQueue queue;
 11227              		.loc 3 342 0 is_stmt 1
 11228              		.cfi_startproc
 11229 0000 55       		pushq	%rbp
 11230              		.cfi_def_cfa_offset 16
 11231              		.cfi_offset 6, -16
 11232 0001 4889E5   		movq	%rsp, %rbp
 11233              		.cfi_def_cfa_register 6
 11234 0004 4883EC10 		subq	$16, %rsp
 11235 0008 48897DF8 		movq	%rdi, -8(%rbp)
 342:testCore.cpp  **** 	struct UnboundedQueue queue;
 11236              		.loc 3 342 0
 11237 000c 488B45F8 		movq	-8(%rbp), %rax
 11238 0010 4889C7   		movq	%rax, %rdi
 11239 0013 E8000000 		call	_ZN24TestQueue_testReallocOOMD1Ev
 11239      00
 11240 0018 488B45F8 		movq	-8(%rbp), %rax
 11241 001c 4889C7   		movq	%rax, %rdi
 11242 001f E8000000 		call	_ZdlPv
 11242      00
 11243 0024 C9       		leave
 11244              		.cfi_def_cfa 7, 8
 11245 0025 C3       		ret
 11246              		.cfi_endproc
 11247              	.LFE1156:
 11249              		.weak	_ZTV22TestQueue_testAllocOOM
 11250              		.section	.rodata._ZTV22TestQueue_testAllocOOM,"aG",@progbits,_ZTV22TestQueue_testAllocOOM,comdat
 11251              		.align 32
 11254              	_ZTV22TestQueue_testAllocOOM:
 11255 0000 00000000 		.quad	0
 11255      00000000 
 11256 0008 00000000 		.quad	_ZTI22TestQueue_testAllocOOM
 11256      00000000 
 11257 0010 00000000 		.quad	_ZN22TestQueue_testAllocOOMD1Ev
 11257      00000000 
 11258 0018 00000000 		.quad	_ZN22TestQueue_testAllocOOMD0Ev
 11258      00000000 
 11259 0020 00000000 		.quad	_ZNK22TestQueue_testAllocOOM7RunImplEv
 11259      00000000 
 11260              		.section	.text._ZN22TestQueue_testAllocOOMD2Ev,"axG",@progbits,_ZN22TestQueue_testAllocOOMD5Ev,com
 11261              		.align 2
 11262              		.weak	_ZN22TestQueue_testAllocOOMD2Ev
 11264              	_ZN22TestQueue_testAllocOOMD2Ev:
 11265              	.LFB1158:
 331:testCore.cpp  **** 	struct UnboundedQueue queue;
 11266              		.loc 3 331 0
 11267              		.cfi_startproc
 11268 0000 55       		pushq	%rbp
 11269              		.cfi_def_cfa_offset 16
 11270              		.cfi_offset 6, -16
 11271 0001 4889E5   		movq	%rsp, %rbp
 11272              		.cfi_def_cfa_register 6
 11273 0004 4883EC10 		subq	$16, %rsp
 11274 0008 48897DF8 		movq	%rdi, -8(%rbp)
 11275              	.LBB40:
 331:testCore.cpp  **** 	struct UnboundedQueue queue;
 11276              		.loc 3 331 0
 11277 000c 488B45F8 		movq	-8(%rbp), %rax
 11278 0010 48C70000 		movq	$_ZTV22TestQueue_testAllocOOM+16, (%rax)
 11278      000000
 11279 0017 488B45F8 		movq	-8(%rbp), %rax
 11280 001b 4889C7   		movq	%rax, %rdi
 11281 001e E8000000 		call	_ZN8UnitTest4TestD2Ev
 11281      00
 11282              	.LBE40:
 11283 0023 B8000000 		movl	$0, %eax
 11283      00
 11284 0028 85C0     		testl	%eax, %eax
 11285 002a 740C     		je	.L663
 331:testCore.cpp  **** 	struct UnboundedQueue queue;
 11286              		.loc 3 331 0 is_stmt 0 discriminator 1
 11287 002c 488B45F8 		movq	-8(%rbp), %rax
 11288 0030 4889C7   		movq	%rax, %rdi
 11289 0033 E8000000 		call	_ZdlPv
 11289      00
 11290              	.L663:
 331:testCore.cpp  **** 	struct UnboundedQueue queue;
 11291              		.loc 3 331 0
 11292 0038 C9       		leave
 11293              		.cfi_def_cfa 7, 8
 11294 0039 C3       		ret
 11295              		.cfi_endproc
 11296              	.LFE1158:
 11298              		.weak	_ZN22TestQueue_testAllocOOMD1Ev
 11299              		.set	_ZN22TestQueue_testAllocOOMD1Ev,_ZN22TestQueue_testAllocOOMD2Ev
 11300              		.section	.text._ZN22TestQueue_testAllocOOMD0Ev,"axG",@progbits,_ZN22TestQueue_testAllocOOMD0Ev,com
 11301              		.align 2
 11302              		.weak	_ZN22TestQueue_testAllocOOMD0Ev
 11304              	_ZN22TestQueue_testAllocOOMD0Ev:
 11305              	.LFB1160:
 331:testCore.cpp  **** 	struct UnboundedQueue queue;
 11306              		.loc 3 331 0 is_stmt 1
 11307              		.cfi_startproc
 11308 0000 55       		pushq	%rbp
 11309              		.cfi_def_cfa_offset 16
 11310              		.cfi_offset 6, -16
 11311 0001 4889E5   		movq	%rsp, %rbp
 11312              		.cfi_def_cfa_register 6
 11313 0004 4883EC10 		subq	$16, %rsp
 11314 0008 48897DF8 		movq	%rdi, -8(%rbp)
 331:testCore.cpp  **** 	struct UnboundedQueue queue;
 11315              		.loc 3 331 0
 11316 000c 488B45F8 		movq	-8(%rbp), %rax
 11317 0010 4889C7   		movq	%rax, %rdi
 11318 0013 E8000000 		call	_ZN22TestQueue_testAllocOOMD1Ev
 11318      00
 11319 0018 488B45F8 		movq	-8(%rbp), %rax
 11320 001c 4889C7   		movq	%rax, %rdi
 11321 001f E8000000 		call	_ZdlPv
 11321      00
 11322 0024 C9       		leave
 11323              		.cfi_def_cfa 7, 8
 11324 0025 C3       		ret
 11325              		.cfi_endproc
 11326              	.LFE1160:
 11328              		.weak	_ZTV21TestQueue_testRealloc
 11329              		.section	.rodata._ZTV21TestQueue_testRealloc,"aG",@progbits,_ZTV21TestQueue_testRealloc,comdat
 11330              		.align 32
 11333              	_ZTV21TestQueue_testRealloc:
 11334 0000 00000000 		.quad	0
 11334      00000000 
 11335 0008 00000000 		.quad	_ZTI21TestQueue_testRealloc
 11335      00000000 
 11336 0010 00000000 		.quad	_ZN21TestQueue_testReallocD1Ev
 11336      00000000 
 11337 0018 00000000 		.quad	_ZN21TestQueue_testReallocD0Ev
 11337      00000000 
 11338 0020 00000000 		.quad	_ZNK21TestQueue_testRealloc7RunImplEv
 11338      00000000 
 11339              		.section	.text._ZN21TestQueue_testReallocD2Ev,"axG",@progbits,_ZN21TestQueue_testReallocD5Ev,comda
 11340              		.align 2
 11341              		.weak	_ZN21TestQueue_testReallocD2Ev
 11343              	_ZN21TestQueue_testReallocD2Ev:
 11344              	.LFB1162:
 324:testCore.cpp  **** 	testRealloc(0);
 11345              		.loc 3 324 0
 11346              		.cfi_startproc
 11347 0000 55       		pushq	%rbp
 11348              		.cfi_def_cfa_offset 16
 11349              		.cfi_offset 6, -16
 11350 0001 4889E5   		movq	%rsp, %rbp
 11351              		.cfi_def_cfa_register 6
 11352 0004 4883EC10 		subq	$16, %rsp
 11353 0008 48897DF8 		movq	%rdi, -8(%rbp)
 11354              	.LBB41:
 324:testCore.cpp  **** 	testRealloc(0);
 11355              		.loc 3 324 0
 11356 000c 488B45F8 		movq	-8(%rbp), %rax
 11357 0010 48C70000 		movq	$_ZTV21TestQueue_testRealloc+16, (%rax)
 11357      000000
 11358 0017 488B45F8 		movq	-8(%rbp), %rax
 11359 001b 4889C7   		movq	%rax, %rdi
 11360 001e E8000000 		call	_ZN8UnitTest4TestD2Ev
 11360      00
 11361              	.LBE41:
 11362 0023 B8000000 		movl	$0, %eax
 11362      00
 11363 0028 85C0     		testl	%eax, %eax
 11364 002a 740C     		je	.L668
 324:testCore.cpp  **** 	testRealloc(0);
 11365              		.loc 3 324 0 is_stmt 0 discriminator 1
 11366 002c 488B45F8 		movq	-8(%rbp), %rax
 11367 0030 4889C7   		movq	%rax, %rdi
 11368 0033 E8000000 		call	_ZdlPv
 11368      00
 11369              	.L668:
 324:testCore.cpp  **** 	testRealloc(0);
 11370              		.loc 3 324 0
 11371 0038 C9       		leave
 11372              		.cfi_def_cfa 7, 8
 11373 0039 C3       		ret
 11374              		.cfi_endproc
 11375              	.LFE1162:
 11377              		.weak	_ZN21TestQueue_testReallocD1Ev
 11378              		.set	_ZN21TestQueue_testReallocD1Ev,_ZN21TestQueue_testReallocD2Ev
 11379              		.section	.text._ZN21TestQueue_testReallocD0Ev,"axG",@progbits,_ZN21TestQueue_testReallocD0Ev,comda
 11380              		.align 2
 11381              		.weak	_ZN21TestQueue_testReallocD0Ev
 11383              	_ZN21TestQueue_testReallocD0Ev:
 11384              	.LFB1164:
 324:testCore.cpp  **** 	testRealloc(0);
 11385              		.loc 3 324 0 is_stmt 1
 11386              		.cfi_startproc
 11387 0000 55       		pushq	%rbp
 11388              		.cfi_def_cfa_offset 16
 11389              		.cfi_offset 6, -16
 11390 0001 4889E5   		movq	%rsp, %rbp
 11391              		.cfi_def_cfa_register 6
 11392 0004 4883EC10 		subq	$16, %rsp
 11393 0008 48897DF8 		movq	%rdi, -8(%rbp)
 324:testCore.cpp  **** 	testRealloc(0);
 11394              		.loc 3 324 0
 11395 000c 488B45F8 		movq	-8(%rbp), %rax
 11396 0010 4889C7   		movq	%rax, %rdi
 11397 0013 E8000000 		call	_ZN21TestQueue_testReallocD1Ev
 11397      00
 11398 0018 488B45F8 		movq	-8(%rbp), %rax
 11399 001c 4889C7   		movq	%rax, %rdi
 11400 001f E8000000 		call	_ZdlPv
 11400      00
 11401 0024 C9       		leave
 11402              		.cfi_def_cfa 7, 8
 11403 0025 C3       		ret
 11404              		.cfi_endproc
 11405              	.LFE1164:
 11407              		.weak	_ZTV21TestQueue_testPutTake
 11408              		.section	.rodata._ZTV21TestQueue_testPutTake,"aG",@progbits,_ZTV21TestQueue_testPutTake,comdat
 11409              		.align 32
 11412              	_ZTV21TestQueue_testPutTake:
 11413 0000 00000000 		.quad	0
 11413      00000000 
 11414 0008 00000000 		.quad	_ZTI21TestQueue_testPutTake
 11414      00000000 
 11415 0010 00000000 		.quad	_ZN21TestQueue_testPutTakeD1Ev
 11415      00000000 
 11416 0018 00000000 		.quad	_ZN21TestQueue_testPutTakeD0Ev
 11416      00000000 
 11417 0020 00000000 		.quad	_ZNK21TestQueue_testPutTake7RunImplEv
 11417      00000000 
 11418              		.section	.text._ZN21TestQueue_testPutTakeD2Ev,"axG",@progbits,_ZN21TestQueue_testPutTakeD5Ev,comda
 11419              		.align 2
 11420              		.weak	_ZN21TestQueue_testPutTakeD2Ev
 11422              	_ZN21TestQueue_testPutTakeD2Ev:
 11423              	.LFB1166:
 166:testCore.cpp  **** 	struct UnboundedQueue queue;
 11424              		.loc 3 166 0
 11425              		.cfi_startproc
 11426 0000 55       		pushq	%rbp
 11427              		.cfi_def_cfa_offset 16
 11428              		.cfi_offset 6, -16
 11429 0001 4889E5   		movq	%rsp, %rbp
 11430              		.cfi_def_cfa_register 6
 11431 0004 4883EC10 		subq	$16, %rsp
 11432 0008 48897DF8 		movq	%rdi, -8(%rbp)
 11433              	.LBB42:
 166:testCore.cpp  **** 	struct UnboundedQueue queue;
 11434              		.loc 3 166 0
 11435 000c 488B45F8 		movq	-8(%rbp), %rax
 11436 0010 48C70000 		movq	$_ZTV21TestQueue_testPutTake+16, (%rax)
 11436      000000
 11437 0017 488B45F8 		movq	-8(%rbp), %rax
 11438 001b 4889C7   		movq	%rax, %rdi
 11439 001e E8000000 		call	_ZN8UnitTest4TestD2Ev
 11439      00
 11440              	.LBE42:
 11441 0023 B8000000 		movl	$0, %eax
 11441      00
 11442 0028 85C0     		testl	%eax, %eax
 11443 002a 740C     		je	.L673
 166:testCore.cpp  **** 	struct UnboundedQueue queue;
 11444              		.loc 3 166 0 is_stmt 0 discriminator 1
 11445 002c 488B45F8 		movq	-8(%rbp), %rax
 11446 0030 4889C7   		movq	%rax, %rdi
 11447 0033 E8000000 		call	_ZdlPv
 11447      00
 11448              	.L673:
 166:testCore.cpp  **** 	struct UnboundedQueue queue;
 11449              		.loc 3 166 0
 11450 0038 C9       		leave
 11451              		.cfi_def_cfa 7, 8
 11452 0039 C3       		ret
 11453              		.cfi_endproc
 11454              	.LFE1166:
 11456              		.weak	_ZN21TestQueue_testPutTakeD1Ev
 11457              		.set	_ZN21TestQueue_testPutTakeD1Ev,_ZN21TestQueue_testPutTakeD2Ev
 11458              		.section	.text._ZN21TestQueue_testPutTakeD0Ev,"axG",@progbits,_ZN21TestQueue_testPutTakeD0Ev,comda
 11459              		.align 2
 11460              		.weak	_ZN21TestQueue_testPutTakeD0Ev
 11462              	_ZN21TestQueue_testPutTakeD0Ev:
 11463              	.LFB1168:
 166:testCore.cpp  **** 	struct UnboundedQueue queue;
 11464              		.loc 3 166 0 is_stmt 1
 11465              		.cfi_startproc
 11466 0000 55       		pushq	%rbp
 11467              		.cfi_def_cfa_offset 16
 11468              		.cfi_offset 6, -16
 11469 0001 4889E5   		movq	%rsp, %rbp
 11470              		.cfi_def_cfa_register 6
 11471 0004 4883EC10 		subq	$16, %rsp
 11472 0008 48897DF8 		movq	%rdi, -8(%rbp)
 166:testCore.cpp  **** 	struct UnboundedQueue queue;
 11473              		.loc 3 166 0
 11474 000c 488B45F8 		movq	-8(%rbp), %rax
 11475 0010 4889C7   		movq	%rax, %rdi
 11476 0013 E8000000 		call	_ZN21TestQueue_testPutTakeD1Ev
 11476      00
 11477 0018 488B45F8 		movq	-8(%rbp), %rax
 11478 001c 4889C7   		movq	%rax, %rdi
 11479 001f E8000000 		call	_ZdlPv
 11479      00
 11480 0024 C9       		leave
 11481              		.cfi_def_cfa 7, 8
 11482 0025 C3       		ret
 11483              		.cfi_endproc
 11484              	.LFE1168:
 11486              		.weak	_ZTV21TestQueue_testPutWrap
 11487              		.section	.rodata._ZTV21TestQueue_testPutWrap,"aG",@progbits,_ZTV21TestQueue_testPutWrap,comdat
 11488              		.align 32
 11491              	_ZTV21TestQueue_testPutWrap:
 11492 0000 00000000 		.quad	0
 11492      00000000 
 11493 0008 00000000 		.quad	_ZTI21TestQueue_testPutWrap
 11493      00000000 
 11494 0010 00000000 		.quad	_ZN21TestQueue_testPutWrapD1Ev
 11494      00000000 
 11495 0018 00000000 		.quad	_ZN21TestQueue_testPutWrapD0Ev
 11495      00000000 
 11496 0020 00000000 		.quad	_ZNK21TestQueue_testPutWrap7RunImplEv
 11496      00000000 
 11497              		.section	.text._ZN21TestQueue_testPutWrapD2Ev,"axG",@progbits,_ZN21TestQueue_testPutWrapD5Ev,comda
 11498              		.align 2
 11499              		.weak	_ZN21TestQueue_testPutWrapD2Ev
 11501              	_ZN21TestQueue_testPutWrapD2Ev:
 11502              	.LFB1170:
 119:testCore.cpp  **** 	struct UnboundedQueue queue;
 11503              		.loc 3 119 0
 11504              		.cfi_startproc
 11505 0000 55       		pushq	%rbp
 11506              		.cfi_def_cfa_offset 16
 11507              		.cfi_offset 6, -16
 11508 0001 4889E5   		movq	%rsp, %rbp
 11509              		.cfi_def_cfa_register 6
 11510 0004 4883EC10 		subq	$16, %rsp
 11511 0008 48897DF8 		movq	%rdi, -8(%rbp)
 11512              	.LBB43:
 119:testCore.cpp  **** 	struct UnboundedQueue queue;
 11513              		.loc 3 119 0
 11514 000c 488B45F8 		movq	-8(%rbp), %rax
 11515 0010 48C70000 		movq	$_ZTV21TestQueue_testPutWrap+16, (%rax)
 11515      000000
 11516 0017 488B45F8 		movq	-8(%rbp), %rax
 11517 001b 4889C7   		movq	%rax, %rdi
 11518 001e E8000000 		call	_ZN8UnitTest4TestD2Ev
 11518      00
 11519              	.LBE43:
 11520 0023 B8000000 		movl	$0, %eax
 11520      00
 11521 0028 85C0     		testl	%eax, %eax
 11522 002a 740C     		je	.L678
 119:testCore.cpp  **** 	struct UnboundedQueue queue;
 11523              		.loc 3 119 0 is_stmt 0 discriminator 1
 11524 002c 488B45F8 		movq	-8(%rbp), %rax
 11525 0030 4889C7   		movq	%rax, %rdi
 11526 0033 E8000000 		call	_ZdlPv
 11526      00
 11527              	.L678:
 119:testCore.cpp  **** 	struct UnboundedQueue queue;
 11528              		.loc 3 119 0
 11529 0038 C9       		leave
 11530              		.cfi_def_cfa 7, 8
 11531 0039 C3       		ret
 11532              		.cfi_endproc
 11533              	.LFE1170:
 11535              		.weak	_ZN21TestQueue_testPutWrapD1Ev
 11536              		.set	_ZN21TestQueue_testPutWrapD1Ev,_ZN21TestQueue_testPutWrapD2Ev
 11537              		.section	.text._ZN21TestQueue_testPutWrapD0Ev,"axG",@progbits,_ZN21TestQueue_testPutWrapD0Ev,comda
 11538              		.align 2
 11539              		.weak	_ZN21TestQueue_testPutWrapD0Ev
 11541              	_ZN21TestQueue_testPutWrapD0Ev:
 11542              	.LFB1172:
 119:testCore.cpp  **** 	struct UnboundedQueue queue;
 11543              		.loc 3 119 0 is_stmt 1
 11544              		.cfi_startproc
 11545 0000 55       		pushq	%rbp
 11546              		.cfi_def_cfa_offset 16
 11547              		.cfi_offset 6, -16
 11548 0001 4889E5   		movq	%rsp, %rbp
 11549              		.cfi_def_cfa_register 6
 11550 0004 4883EC10 		subq	$16, %rsp
 11551 0008 48897DF8 		movq	%rdi, -8(%rbp)
 119:testCore.cpp  **** 	struct UnboundedQueue queue;
 11552              		.loc 3 119 0
 11553 000c 488B45F8 		movq	-8(%rbp), %rax
 11554 0010 4889C7   		movq	%rax, %rdi
 11555 0013 E8000000 		call	_ZN21TestQueue_testPutWrapD1Ev
 11555      00
 11556 0018 488B45F8 		movq	-8(%rbp), %rax
 11557 001c 4889C7   		movq	%rax, %rdi
 11558 001f E8000000 		call	_ZdlPv
 11558      00
 11559 0024 C9       		leave
 11560              		.cfi_def_cfa 7, 8
 11561 0025 C3       		ret
 11562              		.cfi_endproc
 11563              	.LFE1172:
 11565              		.weak	_ZTV23TestQueue_testPutNoWrap
 11566              		.section	.rodata._ZTV23TestQueue_testPutNoWrap,"aG",@progbits,_ZTV23TestQueue_testPutNoWrap,comdat
 11567              		.align 32
 11570              	_ZTV23TestQueue_testPutNoWrap:
 11571 0000 00000000 		.quad	0
 11571      00000000 
 11572 0008 00000000 		.quad	_ZTI23TestQueue_testPutNoWrap
 11572      00000000 
 11573 0010 00000000 		.quad	_ZN23TestQueue_testPutNoWrapD1Ev
 11573      00000000 
 11574 0018 00000000 		.quad	_ZN23TestQueue_testPutNoWrapD0Ev
 11574      00000000 
 11575 0020 00000000 		.quad	_ZNK23TestQueue_testPutNoWrap7RunImplEv
 11575      00000000 
 11576              		.section	.text._ZN23TestQueue_testPutNoWrapD2Ev,"axG",@progbits,_ZN23TestQueue_testPutNoWrapD5Ev,c
 11577              		.align 2
 11578              		.weak	_ZN23TestQueue_testPutNoWrapD2Ev
 11580              	_ZN23TestQueue_testPutNoWrapD2Ev:
 11581              	.LFB1174:
  77:testCore.cpp  **** 	struct UnboundedQueue queue;
 11582              		.loc 3 77 0
 11583              		.cfi_startproc
 11584 0000 55       		pushq	%rbp
 11585              		.cfi_def_cfa_offset 16
 11586              		.cfi_offset 6, -16
 11587 0001 4889E5   		movq	%rsp, %rbp
 11588              		.cfi_def_cfa_register 6
 11589 0004 4883EC10 		subq	$16, %rsp
 11590 0008 48897DF8 		movq	%rdi, -8(%rbp)
 11591              	.LBB44:
  77:testCore.cpp  **** 	struct UnboundedQueue queue;
 11592              		.loc 3 77 0
 11593 000c 488B45F8 		movq	-8(%rbp), %rax
 11594 0010 48C70000 		movq	$_ZTV23TestQueue_testPutNoWrap+16, (%rax)
 11594      000000
 11595 0017 488B45F8 		movq	-8(%rbp), %rax
 11596 001b 4889C7   		movq	%rax, %rdi
 11597 001e E8000000 		call	_ZN8UnitTest4TestD2Ev
 11597      00
 11598              	.LBE44:
 11599 0023 B8000000 		movl	$0, %eax
 11599      00
 11600 0028 85C0     		testl	%eax, %eax
 11601 002a 740C     		je	.L683
  77:testCore.cpp  **** 	struct UnboundedQueue queue;
 11602              		.loc 3 77 0 is_stmt 0 discriminator 1
 11603 002c 488B45F8 		movq	-8(%rbp), %rax
 11604 0030 4889C7   		movq	%rax, %rdi
 11605 0033 E8000000 		call	_ZdlPv
 11605      00
 11606              	.L683:
  77:testCore.cpp  **** 	struct UnboundedQueue queue;
 11607              		.loc 3 77 0
 11608 0038 C9       		leave
 11609              		.cfi_def_cfa 7, 8
 11610 0039 C3       		ret
 11611              		.cfi_endproc
 11612              	.LFE1174:
 11614              		.weak	_ZN23TestQueue_testPutNoWrapD1Ev
 11615              		.set	_ZN23TestQueue_testPutNoWrapD1Ev,_ZN23TestQueue_testPutNoWrapD2Ev
 11616              		.section	.text._ZN23TestQueue_testPutNoWrapD0Ev,"axG",@progbits,_ZN23TestQueue_testPutNoWrapD0Ev,c
 11617              		.align 2
 11618              		.weak	_ZN23TestQueue_testPutNoWrapD0Ev
 11620              	_ZN23TestQueue_testPutNoWrapD0Ev:
 11621              	.LFB1176:
  77:testCore.cpp  **** 	struct UnboundedQueue queue;
 11622              		.loc 3 77 0 is_stmt 1
 11623              		.cfi_startproc
 11624 0000 55       		pushq	%rbp
 11625              		.cfi_def_cfa_offset 16
 11626              		.cfi_offset 6, -16
 11627 0001 4889E5   		movq	%rsp, %rbp
 11628              		.cfi_def_cfa_register 6
 11629 0004 4883EC10 		subq	$16, %rsp
 11630 0008 48897DF8 		movq	%rdi, -8(%rbp)
  77:testCore.cpp  **** 	struct UnboundedQueue queue;
 11631              		.loc 3 77 0
 11632 000c 488B45F8 		movq	-8(%rbp), %rax
 11633 0010 4889C7   		movq	%rax, %rdi
 11634 0013 E8000000 		call	_ZN23TestQueue_testPutNoWrapD1Ev
 11634      00
 11635 0018 488B45F8 		movq	-8(%rbp), %rax
 11636 001c 4889C7   		movq	%rax, %rdi
 11637 001f E8000000 		call	_ZdlPv
 11637      00
 11638 0024 C9       		leave
 11639              		.cfi_def_cfa 7, 8
 11640 0025 C3       		ret
 11641              		.cfi_endproc
 11642              	.LFE1176:
 11644              		.weak	_ZTV18TestQueue_testInit
 11645              		.section	.rodata._ZTV18TestQueue_testInit,"aG",@progbits,_ZTV18TestQueue_testInit,comdat
 11646              		.align 32
 11649              	_ZTV18TestQueue_testInit:
 11650 0000 00000000 		.quad	0
 11650      00000000 
 11651 0008 00000000 		.quad	_ZTI18TestQueue_testInit
 11651      00000000 
 11652 0010 00000000 		.quad	_ZN18TestQueue_testInitD1Ev
 11652      00000000 
 11653 0018 00000000 		.quad	_ZN18TestQueue_testInitD0Ev
 11653      00000000 
 11654 0020 00000000 		.quad	_ZNK18TestQueue_testInit7RunImplEv
 11654      00000000 
 11655              		.section	.text._ZN18TestQueue_testInitD2Ev,"axG",@progbits,_ZN18TestQueue_testInitD5Ev,comdat
 11656              		.align 2
 11657              		.weak	_ZN18TestQueue_testInitD2Ev
 11659              	_ZN18TestQueue_testInitD2Ev:
 11660              	.LFB1178:
  53:testCore.cpp  **** 	struct UnboundedQueue queue;
 11661              		.loc 3 53 0
 11662              		.cfi_startproc
 11663 0000 55       		pushq	%rbp
 11664              		.cfi_def_cfa_offset 16
 11665              		.cfi_offset 6, -16
 11666 0001 4889E5   		movq	%rsp, %rbp
 11667              		.cfi_def_cfa_register 6
 11668 0004 4883EC10 		subq	$16, %rsp
 11669 0008 48897DF8 		movq	%rdi, -8(%rbp)
 11670              	.LBB45:
  53:testCore.cpp  **** 	struct UnboundedQueue queue;
 11671              		.loc 3 53 0
 11672 000c 488B45F8 		movq	-8(%rbp), %rax
 11673 0010 48C70000 		movq	$_ZTV18TestQueue_testInit+16, (%rax)
 11673      000000
 11674 0017 488B45F8 		movq	-8(%rbp), %rax
 11675 001b 4889C7   		movq	%rax, %rdi
 11676 001e E8000000 		call	_ZN8UnitTest4TestD2Ev
 11676      00
 11677              	.LBE45:
 11678 0023 B8000000 		movl	$0, %eax
 11678      00
 11679 0028 85C0     		testl	%eax, %eax
 11680 002a 740C     		je	.L688
  53:testCore.cpp  **** 	struct UnboundedQueue queue;
 11681              		.loc 3 53 0 is_stmt 0 discriminator 1
 11682 002c 488B45F8 		movq	-8(%rbp), %rax
 11683 0030 4889C7   		movq	%rax, %rdi
 11684 0033 E8000000 		call	_ZdlPv
 11684      00
 11685              	.L688:
  53:testCore.cpp  **** 	struct UnboundedQueue queue;
 11686              		.loc 3 53 0
 11687 0038 C9       		leave
 11688              		.cfi_def_cfa 7, 8
 11689 0039 C3       		ret
 11690              		.cfi_endproc
 11691              	.LFE1178:
 11693              		.weak	_ZN18TestQueue_testInitD1Ev
 11694              		.set	_ZN18TestQueue_testInitD1Ev,_ZN18TestQueue_testInitD2Ev
 11695              		.section	.text._ZN18TestQueue_testInitD0Ev,"axG",@progbits,_ZN18TestQueue_testInitD0Ev,comdat
 11696              		.align 2
 11697              		.weak	_ZN18TestQueue_testInitD0Ev
 11699              	_ZN18TestQueue_testInitD0Ev:
 11700              	.LFB1180:
  53:testCore.cpp  **** 	struct UnboundedQueue queue;
 11701              		.loc 3 53 0 is_stmt 1
 11702              		.cfi_startproc
 11703 0000 55       		pushq	%rbp
 11704              		.cfi_def_cfa_offset 16
 11705              		.cfi_offset 6, -16
 11706 0001 4889E5   		movq	%rsp, %rbp
 11707              		.cfi_def_cfa_register 6
 11708 0004 4883EC10 		subq	$16, %rsp
 11709 0008 48897DF8 		movq	%rdi, -8(%rbp)
  53:testCore.cpp  **** 	struct UnboundedQueue queue;
 11710              		.loc 3 53 0
 11711 000c 488B45F8 		movq	-8(%rbp), %rax
 11712 0010 4889C7   		movq	%rax, %rdi
 11713 0013 E8000000 		call	_ZN18TestQueue_testInitD1Ev
 11713      00
 11714 0018 488B45F8 		movq	-8(%rbp), %rax
 11715 001c 4889C7   		movq	%rax, %rdi
 11716 001f E8000000 		call	_ZdlPv
 11716      00
 11717 0024 C9       		leave
 11718              		.cfi_def_cfa 7, 8
 11719 0025 C3       		ret
 11720              		.cfi_endproc
 11721              	.LFE1180:
 11723              		.weak	_ZTVN8UnitTest15MemoryOutStreamE
 11724              		.section	.rodata._ZTVN8UnitTest15MemoryOutStreamE,"aG",@progbits,_ZTVN8UnitTest15MemoryOutStreamE,
 11725              		.align 32
 11728              	_ZTVN8UnitTest15MemoryOutStreamE:
 11729 0000 60000000 		.quad	96
 11729      00000000 
 11730 0008 00000000 		.quad	0
 11730      00000000 
 11731 0010 00000000 		.quad	_ZTIN8UnitTest15MemoryOutStreamE
 11731      00000000 
 11732 0018 00000000 		.quad	_ZN8UnitTest15MemoryOutStreamD1Ev
 11732      00000000 
 11733 0020 00000000 		.quad	_ZN8UnitTest15MemoryOutStreamD0Ev
 11733      00000000 
 11734 0028 A0FFFFFF 		.quad	-96
 11734      FFFFFFFF 
 11735 0030 A0FFFFFF 		.quad	-96
 11735      FFFFFFFF 
 11736 0038 00000000 		.quad	_ZTIN8UnitTest15MemoryOutStreamE
 11736      00000000 
 11737 0040 00000000 		.quad	_ZTv0_n24_N8UnitTest15MemoryOutStreamD1Ev
 11737      00000000 
 11738 0048 00000000 		.quad	_ZTv0_n24_N8UnitTest15MemoryOutStreamD0Ev
 11738      00000000 
 11739              		.weak	_ZTTN8UnitTest15MemoryOutStreamE
 11740              		.section	.rodata._ZTTN8UnitTest15MemoryOutStreamE,"aG",@progbits,_ZTVN8UnitTest15MemoryOutStreamE,
 11741              		.align 32
 11744              	_ZTTN8UnitTest15MemoryOutStreamE:
 11745 0000 00000000 		.quad	_ZTVN8UnitTest15MemoryOutStreamE+24
 11745      00000000 
 11746 0008 00000000 		.quad	_ZTCN8UnitTest15MemoryOutStreamE0_St19basic_ostringstreamIcSt11char_traitsIcESaIcEE+24
 11746      00000000 
 11747 0010 00000000 		.quad	_ZTCN8UnitTest15MemoryOutStreamE0_So+24
 11747      00000000 
 11748 0018 00000000 		.quad	_ZTCN8UnitTest15MemoryOutStreamE0_So+64
 11748      00000000 
 11749 0020 00000000 		.quad	_ZTCN8UnitTest15MemoryOutStreamE0_St19basic_ostringstreamIcSt11char_traitsIcESaIcEE+64
 11749      00000000 
 11750 0028 00000000 		.quad	_ZTVN8UnitTest15MemoryOutStreamE+64
 11750      00000000 
 11751              		.hidden	_ZTCN8UnitTest15MemoryOutStreamE0_St19basic_ostringstreamIcSt11char_traitsIcESaIcEE
 11752              		.weak	_ZTCN8UnitTest15MemoryOutStreamE0_St19basic_ostringstreamIcSt11char_traitsIcESaIcEE
 11753              		.section	.rodata._ZTCN8UnitTest15MemoryOutStreamE0_St19basic_ostringstreamIcSt11char_traitsIcESaIc
 11754              		.align 32
 11757              	_ZTCN8UnitTest15MemoryOutStreamE0_St19basic_ostringstreamIcSt11char_traitsIcESaIcEE:
 11758 0000 60000000 		.quad	96
 11758      00000000 
 11759 0008 00000000 		.quad	0
 11759      00000000 
 11760 0010 00000000 		.quad	_ZTISt19basic_ostringstreamIcSt11char_traitsIcESaIcEE
 11760      00000000 
 11761 0018 00000000 		.quad	_ZNSt19basic_ostringstreamIcSt11char_traitsIcESaIcEED1Ev
 11761      00000000 
 11762 0020 00000000 		.quad	_ZNSt19basic_ostringstreamIcSt11char_traitsIcESaIcEED0Ev
 11762      00000000 
 11763 0028 A0FFFFFF 		.quad	-96
 11763      FFFFFFFF 
 11764 0030 A0FFFFFF 		.quad	-96
 11764      FFFFFFFF 
 11765 0038 00000000 		.quad	_ZTISt19basic_ostringstreamIcSt11char_traitsIcESaIcEE
 11765      00000000 
 11766 0040 00000000 		.quad	_ZTv0_n24_NSt19basic_ostringstreamIcSt11char_traitsIcESaIcEED1Ev
 11766      00000000 
 11767 0048 00000000 		.quad	_ZTv0_n24_NSt19basic_ostringstreamIcSt11char_traitsIcESaIcEED0Ev
 11767      00000000 
 11768              		.hidden	_ZTCN8UnitTest15MemoryOutStreamE0_So
 11769              		.weak	_ZTCN8UnitTest15MemoryOutStreamE0_So
 11770              		.section	.rodata._ZTCN8UnitTest15MemoryOutStreamE0_So,"aG",@progbits,_ZTVN8UnitTest15MemoryOutStre
 11771              		.align 32
 11774              	_ZTCN8UnitTest15MemoryOutStreamE0_So:
 11775 0000 60000000 		.quad	96
 11775      00000000 
 11776 0008 00000000 		.quad	0
 11776      00000000 
 11777 0010 00000000 		.quad	_ZTISo
 11777      00000000 
 11778 0018 00000000 		.quad	_ZNSoD1Ev
 11778      00000000 
 11779 0020 00000000 		.quad	_ZNSoD0Ev
 11779      00000000 
 11780 0028 A0FFFFFF 		.quad	-96
 11780      FFFFFFFF 
 11781 0030 A0FFFFFF 		.quad	-96
 11781      FFFFFFFF 
 11782 0038 00000000 		.quad	_ZTISo
 11782      00000000 
 11783 0040 00000000 		.quad	_ZTv0_n24_NSoD1Ev
 11783      00000000 
 11784 0048 00000000 		.quad	_ZTv0_n24_NSoD0Ev
 11784      00000000 
 11785              		.weak	_ZTI31TestQueue_testAllocFreeMatching
 11786              		.section	.rodata._ZTI31TestQueue_testAllocFreeMatching,"aG",@progbits,_ZTI31TestQueue_testAllocFre
 11787              		.align 16
 11790              	_ZTI31TestQueue_testAllocFreeMatching:
 11791 0000 00000000 		.quad	_ZTVN10__cxxabiv120__si_class_type_infoE+16
 11791      00000000 
 11792 0008 00000000 		.quad	_ZTS31TestQueue_testAllocFreeMatching
 11792      00000000 
 11793 0010 00000000 		.quad	_ZTIN8UnitTest4TestE
 11793      00000000 
 11794              		.weak	_ZTS31TestQueue_testAllocFreeMatching
 11795              		.section	.rodata._ZTS31TestQueue_testAllocFreeMatching,"aG",@progbits,_ZTS31TestQueue_testAllocFre
 11796              		.align 32
 11799              	_ZTS31TestQueue_testAllocFreeMatching:
 11800 0000 33315465 		.string	"31TestQueue_testAllocFreeMatching"
 11800      73745175 
 11800      6575655F 
 11800      74657374 
 11800      416C6C6F 
 11801              		.weak	_ZTI24TestQueue_testReallocOOM
 11802              		.section	.rodata._ZTI24TestQueue_testReallocOOM,"aG",@progbits,_ZTI24TestQueue_testReallocOOM,comd
 11803              		.align 16
 11806              	_ZTI24TestQueue_testReallocOOM:
 11807 0000 00000000 		.quad	_ZTVN10__cxxabiv120__si_class_type_infoE+16
 11807      00000000 
 11808 0008 00000000 		.quad	_ZTS24TestQueue_testReallocOOM
 11808      00000000 
 11809 0010 00000000 		.quad	_ZTIN8UnitTest4TestE
 11809      00000000 
 11810              		.weak	_ZTS24TestQueue_testReallocOOM
 11811              		.section	.rodata._ZTS24TestQueue_testReallocOOM,"aG",@progbits,_ZTS24TestQueue_testReallocOOM,comd
 11812              		.align 16
 11815              	_ZTS24TestQueue_testReallocOOM:
 11816 0000 32345465 		.string	"24TestQueue_testReallocOOM"
 11816      73745175 
 11816      6575655F 
 11816      74657374 
 11816      5265616C 
 11817              		.weak	_ZTI22TestQueue_testAllocOOM
 11818              		.section	.rodata._ZTI22TestQueue_testAllocOOM,"aG",@progbits,_ZTI22TestQueue_testAllocOOM,comdat
 11819              		.align 16
 11822              	_ZTI22TestQueue_testAllocOOM:
 11823 0000 00000000 		.quad	_ZTVN10__cxxabiv120__si_class_type_infoE+16
 11823      00000000 
 11824 0008 00000000 		.quad	_ZTS22TestQueue_testAllocOOM
 11824      00000000 
 11825 0010 00000000 		.quad	_ZTIN8UnitTest4TestE
 11825      00000000 
 11826              		.weak	_ZTS22TestQueue_testAllocOOM
 11827              		.section	.rodata._ZTS22TestQueue_testAllocOOM,"aG",@progbits,_ZTS22TestQueue_testAllocOOM,comdat
 11828              		.align 16
 11831              	_ZTS22TestQueue_testAllocOOM:
 11832 0000 32325465 		.string	"22TestQueue_testAllocOOM"
 11832      73745175 
 11832      6575655F 
 11832      74657374 
 11832      416C6C6F 
 11833              		.weak	_ZTI21TestQueue_testRealloc
 11834              		.section	.rodata._ZTI21TestQueue_testRealloc,"aG",@progbits,_ZTI21TestQueue_testRealloc,comdat
 11835              		.align 16
 11838              	_ZTI21TestQueue_testRealloc:
 11839 0000 00000000 		.quad	_ZTVN10__cxxabiv120__si_class_type_infoE+16
 11839      00000000 
 11840 0008 00000000 		.quad	_ZTS21TestQueue_testRealloc
 11840      00000000 
 11841 0010 00000000 		.quad	_ZTIN8UnitTest4TestE
 11841      00000000 
 11842              		.weak	_ZTS21TestQueue_testRealloc
 11843              		.section	.rodata._ZTS21TestQueue_testRealloc,"aG",@progbits,_ZTS21TestQueue_testRealloc,comdat
 11844              		.align 16
 11847              	_ZTS21TestQueue_testRealloc:
 11848 0000 32315465 		.string	"21TestQueue_testRealloc"
 11848      73745175 
 11848      6575655F 
 11848      74657374 
 11848      5265616C 
 11849              		.weak	_ZTI21TestQueue_testPutTake
 11850              		.section	.rodata._ZTI21TestQueue_testPutTake,"aG",@progbits,_ZTI21TestQueue_testPutTake,comdat
 11851              		.align 16
 11854              	_ZTI21TestQueue_testPutTake:
 11855 0000 00000000 		.quad	_ZTVN10__cxxabiv120__si_class_type_infoE+16
 11855      00000000 
 11856 0008 00000000 		.quad	_ZTS21TestQueue_testPutTake
 11856      00000000 
 11857 0010 00000000 		.quad	_ZTIN8UnitTest4TestE
 11857      00000000 
 11858              		.weak	_ZTS21TestQueue_testPutTake
 11859              		.section	.rodata._ZTS21TestQueue_testPutTake,"aG",@progbits,_ZTS21TestQueue_testPutTake,comdat
 11860              		.align 16
 11863              	_ZTS21TestQueue_testPutTake:
 11864 0000 32315465 		.string	"21TestQueue_testPutTake"
 11864      73745175 
 11864      6575655F 
 11864      74657374 
 11864      50757454 
 11865              		.weak	_ZTI21TestQueue_testPutWrap
 11866              		.section	.rodata._ZTI21TestQueue_testPutWrap,"aG",@progbits,_ZTI21TestQueue_testPutWrap,comdat
 11867              		.align 16
 11870              	_ZTI21TestQueue_testPutWrap:
 11871 0000 00000000 		.quad	_ZTVN10__cxxabiv120__si_class_type_infoE+16
 11871      00000000 
 11872 0008 00000000 		.quad	_ZTS21TestQueue_testPutWrap
 11872      00000000 
 11873 0010 00000000 		.quad	_ZTIN8UnitTest4TestE
 11873      00000000 
 11874              		.weak	_ZTS21TestQueue_testPutWrap
 11875              		.section	.rodata._ZTS21TestQueue_testPutWrap,"aG",@progbits,_ZTS21TestQueue_testPutWrap,comdat
 11876              		.align 16
 11879              	_ZTS21TestQueue_testPutWrap:
 11880 0000 32315465 		.string	"21TestQueue_testPutWrap"
 11880      73745175 
 11880      6575655F 
 11880      74657374 
 11880      50757457 
 11881              		.weak	_ZTI23TestQueue_testPutNoWrap
 11882              		.section	.rodata._ZTI23TestQueue_testPutNoWrap,"aG",@progbits,_ZTI23TestQueue_testPutNoWrap,comdat
 11883              		.align 16
 11886              	_ZTI23TestQueue_testPutNoWrap:
 11887 0000 00000000 		.quad	_ZTVN10__cxxabiv120__si_class_type_infoE+16
 11887      00000000 
 11888 0008 00000000 		.quad	_ZTS23TestQueue_testPutNoWrap
 11888      00000000 
 11889 0010 00000000 		.quad	_ZTIN8UnitTest4TestE
 11889      00000000 
 11890              		.weak	_ZTS23TestQueue_testPutNoWrap
 11891              		.section	.rodata._ZTS23TestQueue_testPutNoWrap,"aG",@progbits,_ZTS23TestQueue_testPutNoWrap,comdat
 11892              		.align 16
 11895              	_ZTS23TestQueue_testPutNoWrap:
 11896 0000 32335465 		.string	"23TestQueue_testPutNoWrap"
 11896      73745175 
 11896      6575655F 
 11896      74657374 
 11896      5075744E 
 11897              		.weak	_ZTI18TestQueue_testInit
 11898              		.section	.rodata._ZTI18TestQueue_testInit,"aG",@progbits,_ZTI18TestQueue_testInit,comdat
 11899              		.align 16
 11902              	_ZTI18TestQueue_testInit:
 11903 0000 00000000 		.quad	_ZTVN10__cxxabiv120__si_class_type_infoE+16
 11903      00000000 
 11904 0008 00000000 		.quad	_ZTS18TestQueue_testInit
 11904      00000000 
 11905 0010 00000000 		.quad	_ZTIN8UnitTest4TestE
 11905      00000000 
 11906              		.weak	_ZTS18TestQueue_testInit
 11907              		.section	.rodata._ZTS18TestQueue_testInit,"aG",@progbits,_ZTS18TestQueue_testInit,comdat
 11908              		.align 16
 11911              	_ZTS18TestQueue_testInit:
 11912 0000 31385465 		.string	"18TestQueue_testInit"
 11912      73745175 
 11912      6575655F 
 11912      74657374 
 11912      496E6974 
 11913              		.weak	_ZTSN8UnitTest15MemoryOutStreamE
 11914              		.section	.rodata._ZTSN8UnitTest15MemoryOutStreamE,"aG",@progbits,_ZTSN8UnitTest15MemoryOutStreamE,
 11915              		.align 16
 11918              	_ZTSN8UnitTest15MemoryOutStreamE:
 11919 0000 4E38556E 		.string	"N8UnitTest15MemoryOutStreamE"
 11919      69745465 
 11919      73743135 
 11919      4D656D6F 
 11919      72794F75 
 11920              		.weak	_ZTIN8UnitTest15MemoryOutStreamE
 11921              		.section	.rodata._ZTIN8UnitTest15MemoryOutStreamE,"aG",@progbits,_ZTIN8UnitTest15MemoryOutStreamE,
 11922              		.align 16
 11925              	_ZTIN8UnitTest15MemoryOutStreamE:
 11926 0000 00000000 		.quad	_ZTVN10__cxxabiv120__si_class_type_infoE+16
 11926      00000000 
 11927 0008 00000000 		.quad	_ZTSN8UnitTest15MemoryOutStreamE
 11927      00000000 
 11928 0010 00000000 		.quad	_ZTISt19basic_ostringstreamIcSt11char_traitsIcESaIcEE
 11928      00000000 
 11929              		.text
 11931              	_Z41__static_initialization_and_destruction_0ii:
 11932              	.LFB1181:
 11933              		.loc 3 386 0
 11934              		.cfi_startproc
 11935 5450 55       		pushq	%rbp
 11936              		.cfi_def_cfa_offset 16
 11937              		.cfi_offset 6, -16
 11938 5451 4889E5   		movq	%rsp, %rbp
 11939              		.cfi_def_cfa_register 6
 11940 5454 4883EC10 		subq	$16, %rsp
 11941 5458 897DFC   		movl	%edi, -4(%rbp)
 11942 545b 8975F8   		movl	%esi, -8(%rbp)
 11943              		.loc 3 386 0
 11944 545e 837DFC01 		cmpl	$1, -4(%rbp)
 11945 5462 0F85D301 		jne	.L693
 11945      0000
 11946              		.loc 3 386 0 is_stmt 0 discriminator 1
 11947 5468 817DF8FF 		cmpl	$65535, -8(%rbp)
 11947      FF0000
 11948 546f 0F85C601 		jne	.L693
 11948      0000
 11949              		.file 5 "/usr/include/c++/4.8/iostream"
   1:/usr/include/c++/4.8/iostream **** // Standard iostream objects -*- C++ -*-
   2:/usr/include/c++/4.8/iostream **** 
   3:/usr/include/c++/4.8/iostream **** // Copyright (C) 1997-2013 Free Software Foundation, Inc.
   4:/usr/include/c++/4.8/iostream **** //
   5:/usr/include/c++/4.8/iostream **** // This file is part of the GNU ISO C++ Library.  This library is free
   6:/usr/include/c++/4.8/iostream **** // software; you can redistribute it and/or modify it under the
   7:/usr/include/c++/4.8/iostream **** // terms of the GNU General Public License as published by the
   8:/usr/include/c++/4.8/iostream **** // Free Software Foundation; either version 3, or (at your option)
   9:/usr/include/c++/4.8/iostream **** // any later version.
  10:/usr/include/c++/4.8/iostream **** 
  11:/usr/include/c++/4.8/iostream **** // This library is distributed in the hope that it will be useful,
  12:/usr/include/c++/4.8/iostream **** // but WITHOUT ANY WARRANTY; without even the implied warranty of
  13:/usr/include/c++/4.8/iostream **** // MERCHANTABILITY or FITNESS FOR A PARTICULAR PURPOSE.  See the
  14:/usr/include/c++/4.8/iostream **** // GNU General Public License for more details.
  15:/usr/include/c++/4.8/iostream **** 
  16:/usr/include/c++/4.8/iostream **** // Under Section 7 of GPL version 3, you are granted additional
  17:/usr/include/c++/4.8/iostream **** // permissions described in the GCC Runtime Library Exception, version
  18:/usr/include/c++/4.8/iostream **** // 3.1, as published by the Free Software Foundation.
  19:/usr/include/c++/4.8/iostream **** 
  20:/usr/include/c++/4.8/iostream **** // You should have received a copy of the GNU General Public License and
  21:/usr/include/c++/4.8/iostream **** // a copy of the GCC Runtime Library Exception along with this program;
  22:/usr/include/c++/4.8/iostream **** // see the files COPYING3 and COPYING.RUNTIME respectively.  If not, see
  23:/usr/include/c++/4.8/iostream **** // <http://www.gnu.org/licenses/>.
  24:/usr/include/c++/4.8/iostream **** 
  25:/usr/include/c++/4.8/iostream **** /** @file include/iostream
  26:/usr/include/c++/4.8/iostream ****  *  This is a Standard C++ Library header.
  27:/usr/include/c++/4.8/iostream ****  */
  28:/usr/include/c++/4.8/iostream **** 
  29:/usr/include/c++/4.8/iostream **** //
  30:/usr/include/c++/4.8/iostream **** // ISO C++ 14882: 27.3  Standard iostream objects
  31:/usr/include/c++/4.8/iostream **** //
  32:/usr/include/c++/4.8/iostream **** 
  33:/usr/include/c++/4.8/iostream **** #ifndef _GLIBCXX_IOSTREAM
  34:/usr/include/c++/4.8/iostream **** #define _GLIBCXX_IOSTREAM 1
  35:/usr/include/c++/4.8/iostream **** 
  36:/usr/include/c++/4.8/iostream **** #pragma GCC system_header
  37:/usr/include/c++/4.8/iostream **** 
  38:/usr/include/c++/4.8/iostream **** #include <bits/c++config.h>
  39:/usr/include/c++/4.8/iostream **** #include <ostream>
  40:/usr/include/c++/4.8/iostream **** #include <istream>
  41:/usr/include/c++/4.8/iostream **** 
  42:/usr/include/c++/4.8/iostream **** namespace std _GLIBCXX_VISIBILITY(default)
  43:/usr/include/c++/4.8/iostream **** {
  44:/usr/include/c++/4.8/iostream **** _GLIBCXX_BEGIN_NAMESPACE_VERSION
  45:/usr/include/c++/4.8/iostream **** 
  46:/usr/include/c++/4.8/iostream ****   /**
  47:/usr/include/c++/4.8/iostream ****    *  @name Standard Stream Objects
  48:/usr/include/c++/4.8/iostream ****    *
  49:/usr/include/c++/4.8/iostream ****    *  The &lt;iostream&gt; header declares the eight <em>standard stream
  50:/usr/include/c++/4.8/iostream ****    *  objects</em>.  For other declarations, see
  51:/usr/include/c++/4.8/iostream ****    *  http://gcc.gnu.org/onlinedocs/libstdc++/manual/io.html
  52:/usr/include/c++/4.8/iostream ****    *  and the @link iosfwd I/O forward declarations @endlink
  53:/usr/include/c++/4.8/iostream ****    *
  54:/usr/include/c++/4.8/iostream ****    *  They are required by default to cooperate with the global C
  55:/usr/include/c++/4.8/iostream ****    *  library's @c FILE streams, and to be available during program
  56:/usr/include/c++/4.8/iostream ****    *  startup and termination. For more information, see the section of the
  57:/usr/include/c++/4.8/iostream ****    *  manual linked to above.
  58:/usr/include/c++/4.8/iostream ****   */
  59:/usr/include/c++/4.8/iostream ****   //@{
  60:/usr/include/c++/4.8/iostream ****   extern istream cin;		/// Linked to standard input
  61:/usr/include/c++/4.8/iostream ****   extern ostream cout;		/// Linked to standard output
  62:/usr/include/c++/4.8/iostream ****   extern ostream cerr;		/// Linked to standard error (unbuffered)
  63:/usr/include/c++/4.8/iostream ****   extern ostream clog;		/// Linked to standard error (buffered)
  64:/usr/include/c++/4.8/iostream **** 
  65:/usr/include/c++/4.8/iostream **** #ifdef _GLIBCXX_USE_WCHAR_T
  66:/usr/include/c++/4.8/iostream ****   extern wistream wcin;		/// Linked to standard input
  67:/usr/include/c++/4.8/iostream ****   extern wostream wcout;	/// Linked to standard output
  68:/usr/include/c++/4.8/iostream ****   extern wostream wcerr;	/// Linked to standard error (unbuffered)
  69:/usr/include/c++/4.8/iostream ****   extern wostream wclog;	/// Linked to standard error (buffered)
  70:/usr/include/c++/4.8/iostream **** #endif
  71:/usr/include/c++/4.8/iostream ****   //@}
  72:/usr/include/c++/4.8/iostream **** 
  73:/usr/include/c++/4.8/iostream ****   // For construction of filebuffers for cout, cin, cerr, clog et. al.
  74:/usr/include/c++/4.8/iostream ****   static ios_base::Init __ioinit;
 11950              		.loc 5 74 0 is_stmt 1
 11951 5475 BF000000 		movl	$_ZStL8__ioinit, %edi
 11951      00
 11952 547a E8000000 		call	_ZNSt8ios_base4InitC1Ev
 11952      00
 11953 547f BA000000 		movl	$__dso_handle, %edx
 11953      00
 11954 5484 BE000000 		movl	$_ZStL8__ioinit, %esi
 11954      00
 11955 5489 BF000000 		movl	$_ZNSt8ios_base4InitD1Ev, %edi
 11955      00
 11956 548e E8000000 		call	__cxa_atexit
 11956      00
  53:testCore.cpp  **** 	struct UnboundedQueue queue;
 11957              		.loc 3 53 0
 11958 5493 BF000000 		movl	$testQueue_testInitInstance, %edi
 11958      00
 11959 5498 E8000000 		call	_ZN18TestQueue_testInitC1Ev
 11959      00
 11960 549d BA000000 		movl	$__dso_handle, %edx
 11960      00
 11961 54a2 BE000000 		movl	$testQueue_testInitInstance, %esi
 11961      00
 11962 54a7 BF000000 		movl	$_ZN18TestQueue_testInitD1Ev, %edi
 11962      00
 11963 54ac E8000000 		call	__cxa_atexit
 11963      00
 11964 54b1 E8000000 		call	_ZN8UnitTest4Test11GetTestListEv
 11964      00
 11965 54b6 BA000000 		movl	$testQueue_testInitInstance, %edx
 11965      00
 11966 54bb 4889C6   		movq	%rax, %rsi
 11967 54be BF000000 		movl	$adderQueue_testInit, %edi
 11967      00
 11968 54c3 E8000000 		call	_ZN8UnitTest9ListAdderC1ERNS_8TestListEPNS_4TestE
 11968      00
  77:testCore.cpp  **** 	struct UnboundedQueue queue;
 11969              		.loc 3 77 0
 11970 54c8 BF000000 		movl	$testQueue_testPutNoWrapInstance, %edi
 11970      00
 11971 54cd E8000000 		call	_ZN23TestQueue_testPutNoWrapC1Ev
 11971      00
 11972 54d2 BA000000 		movl	$__dso_handle, %edx
 11972      00
 11973 54d7 BE000000 		movl	$testQueue_testPutNoWrapInstance, %esi
 11973      00
 11974 54dc BF000000 		movl	$_ZN23TestQueue_testPutNoWrapD1Ev, %edi
 11974      00
 11975 54e1 E8000000 		call	__cxa_atexit
 11975      00
 11976 54e6 E8000000 		call	_ZN8UnitTest4Test11GetTestListEv
 11976      00
 11977 54eb BA000000 		movl	$testQueue_testPutNoWrapInstance, %edx
 11977      00
 11978 54f0 4889C6   		movq	%rax, %rsi
 11979 54f3 BF000000 		movl	$adderQueue_testPutNoWrap, %edi
 11979      00
 11980 54f8 E8000000 		call	_ZN8UnitTest9ListAdderC1ERNS_8TestListEPNS_4TestE
 11980      00
 119:testCore.cpp  **** 	struct UnboundedQueue queue;
 11981              		.loc 3 119 0
 11982 54fd BF000000 		movl	$testQueue_testPutWrapInstance, %edi
 11982      00
 11983 5502 E8000000 		call	_ZN21TestQueue_testPutWrapC1Ev
 11983      00
 11984 5507 BA000000 		movl	$__dso_handle, %edx
 11984      00
 11985 550c BE000000 		movl	$testQueue_testPutWrapInstance, %esi
 11985      00
 11986 5511 BF000000 		movl	$_ZN21TestQueue_testPutWrapD1Ev, %edi
 11986      00
 11987 5516 E8000000 		call	__cxa_atexit
 11987      00
 11988 551b E8000000 		call	_ZN8UnitTest4Test11GetTestListEv
 11988      00
 11989 5520 BA000000 		movl	$testQueue_testPutWrapInstance, %edx
 11989      00
 11990 5525 4889C6   		movq	%rax, %rsi
 11991 5528 BF000000 		movl	$adderQueue_testPutWrap, %edi
 11991      00
 11992 552d E8000000 		call	_ZN8UnitTest9ListAdderC1ERNS_8TestListEPNS_4TestE
 11992      00
 166:testCore.cpp  **** 	struct UnboundedQueue queue;
 11993              		.loc 3 166 0
 11994 5532 BF000000 		movl	$testQueue_testPutTakeInstance, %edi
 11994      00
 11995 5537 E8000000 		call	_ZN21TestQueue_testPutTakeC1Ev
 11995      00
 11996 553c BA000000 		movl	$__dso_handle, %edx
 11996      00
 11997 5541 BE000000 		movl	$testQueue_testPutTakeInstance, %esi
 11997      00
 11998 5546 BF000000 		movl	$_ZN21TestQueue_testPutTakeD1Ev, %edi
 11998      00
 11999 554b E8000000 		call	__cxa_atexit
 11999      00
 12000 5550 E8000000 		call	_ZN8UnitTest4Test11GetTestListEv
 12000      00
 12001 5555 BA000000 		movl	$testQueue_testPutTakeInstance, %edx
 12001      00
 12002 555a 4889C6   		movq	%rax, %rsi
 12003 555d BF000000 		movl	$adderQueue_testPutTake, %edi
 12003      00
 12004 5562 E8000000 		call	_ZN8UnitTest9ListAdderC1ERNS_8TestListEPNS_4TestE
 12004      00
 324:testCore.cpp  **** 	testRealloc(0);
 12005              		.loc 3 324 0
 12006 5567 BF000000 		movl	$testQueue_testReallocInstance, %edi
 12006      00
 12007 556c E8000000 		call	_ZN21TestQueue_testReallocC1Ev
 12007      00
 12008 5571 BA000000 		movl	$__dso_handle, %edx
 12008      00
 12009 5576 BE000000 		movl	$testQueue_testReallocInstance, %esi
 12009      00
 12010 557b BF000000 		movl	$_ZN21TestQueue_testReallocD1Ev, %edi
 12010      00
 12011 5580 E8000000 		call	__cxa_atexit
 12011      00
 12012 5585 E8000000 		call	_ZN8UnitTest4Test11GetTestListEv
 12012      00
 12013 558a BA000000 		movl	$testQueue_testReallocInstance, %edx
 12013      00
 12014 558f 4889C6   		movq	%rax, %rsi
 12015 5592 BF000000 		movl	$adderQueue_testRealloc, %edi
 12015      00
 12016 5597 E8000000 		call	_ZN8UnitTest9ListAdderC1ERNS_8TestListEPNS_4TestE
 12016      00
 331:testCore.cpp  **** 	struct UnboundedQueue queue;
 12017              		.loc 3 331 0
 12018 559c BF000000 		movl	$testQueue_testAllocOOMInstance, %edi
 12018      00
 12019 55a1 E8000000 		call	_ZN22TestQueue_testAllocOOMC1Ev
 12019      00
 12020 55a6 BA000000 		movl	$__dso_handle, %edx
 12020      00
 12021 55ab BE000000 		movl	$testQueue_testAllocOOMInstance, %esi
 12021      00
 12022 55b0 BF000000 		movl	$_ZN22TestQueue_testAllocOOMD1Ev, %edi
 12022      00
 12023 55b5 E8000000 		call	__cxa_atexit
 12023      00
 12024 55ba E8000000 		call	_ZN8UnitTest4Test11GetTestListEv
 12024      00
 12025 55bf BA000000 		movl	$testQueue_testAllocOOMInstance, %edx
 12025      00
 12026 55c4 4889C6   		movq	%rax, %rsi
 12027 55c7 BF000000 		movl	$adderQueue_testAllocOOM, %edi
 12027      00
 12028 55cc E8000000 		call	_ZN8UnitTest9ListAdderC1ERNS_8TestListEPNS_4TestE
 12028      00
 342:testCore.cpp  **** 	struct UnboundedQueue queue;
 12029              		.loc 3 342 0
 12030 55d1 BF000000 		movl	$testQueue_testReallocOOMInstance, %edi
 12030      00
 12031 55d6 E8000000 		call	_ZN24TestQueue_testReallocOOMC1Ev
 12031      00
 12032 55db BA000000 		movl	$__dso_handle, %edx
 12032      00
 12033 55e0 BE000000 		movl	$testQueue_testReallocOOMInstance, %esi
 12033      00
 12034 55e5 BF000000 		movl	$_ZN24TestQueue_testReallocOOMD1Ev, %edi
 12034      00
 12035 55ea E8000000 		call	__cxa_atexit
 12035      00
 12036 55ef E8000000 		call	_ZN8UnitTest4Test11GetTestListEv
 12036      00
 12037 55f4 BA000000 		movl	$testQueue_testReallocOOMInstance, %edx
 12037      00
 12038 55f9 4889C6   		movq	%rax, %rsi
 12039 55fc BF000000 		movl	$adderQueue_testReallocOOM, %edi
 12039      00
 12040 5601 E8000000 		call	_ZN8UnitTest9ListAdderC1ERNS_8TestListEPNS_4TestE
 12040      00
 384:testCore.cpp  **** 	CHECK_EQUAL(0, m_allocFree);
 12041              		.loc 3 384 0
 12042 5606 BF000000 		movl	$testQueue_testAllocFreeMatchingInstance, %edi
 12042      00
 12043 560b E8000000 		call	_ZN31TestQueue_testAllocFreeMatchingC1Ev
 12043      00
 12044 5610 BA000000 		movl	$__dso_handle, %edx
 12044      00
 12045 5615 BE000000 		movl	$testQueue_testAllocFreeMatchingInstance, %esi
 12045      00
 12046 561a BF000000 		movl	$_ZN31TestQueue_testAllocFreeMatchingD1Ev, %edi
 12046      00
 12047 561f E8000000 		call	__cxa_atexit
 12047      00
 12048 5624 E8000000 		call	_ZN8UnitTest4Test11GetTestListEv
 12048      00
 12049 5629 BA000000 		movl	$testQueue_testAllocFreeMatchingInstance, %edx
 12049      00
 12050 562e 4889C6   		movq	%rax, %rsi
 12051 5631 BF000000 		movl	$adderQueue_testAllocFreeMatching, %edi
 12051      00
 12052 5636 E8000000 		call	_ZN8UnitTest9ListAdderC1ERNS_8TestListEPNS_4TestE
 12052      00
 12053              	.L693:
 12054              		.loc 3 386 0
 12055 563b C9       		leave
 12056              		.cfi_def_cfa 7, 8
 12057 563c C3       		ret
 12058              		.cfi_endproc
 12059              	.LFE1181:
 12062              	_GLOBAL__sub_I_createInt:
 12063              	.LFB1182:
 12064              		.loc 3 386 0
 12065              		.cfi_startproc
 12066 563d 55       		pushq	%rbp
 12067              		.cfi_def_cfa_offset 16
 12068              		.cfi_offset 6, -16
 12069 563e 4889E5   		movq	%rsp, %rbp
 12070              		.cfi_def_cfa_register 6
 12071              		.loc 3 386 0
 12072 5641 BEFFFF00 		movl	$65535, %esi
 12072      00
 12073 5646 BF010000 		movl	$1, %edi
 12073      00
 12074 564b E800FEFF 		call	_Z41__static_initialization_and_destruction_0ii
 12074      FF
 12075 5650 5D       		popq	%rbp
 12076              		.cfi_def_cfa 7, 8
 12077 5651 C3       		ret
 12078              		.cfi_endproc
 12079              	.LFE1182:
 12081              		.section	.init_array,"aw"
 12082              		.align 8
 12083 0000 00000000 		.quad	_GLOBAL__sub_I_createInt
 12083      00000000 
 12084              		.section	.rodata
 12085 0c9f 00       		.align 8
 12088              	_ZZL18__gthread_active_pvE20__gthread_active_ptr:
 12089 0ca0 00000000 		.quad	_ZL28__gthrw___pthread_key_createPjPFvPvE
 12089      00000000 
 12090              		.weakref	_ZL28__gthrw___pthread_key_createPjPFvPvE,__pthread_key_create
 12091              		.text
 12092              	.Letext0:
 12093              		.file 6 "/usr/include/libio.h"
 12094              		.file 7 "<built-in>"
 12095              		.file 8 "/usr/include/stdio.h"
 12096              		.file 9 "/usr/lib/gcc/x86_64-linux-gnu/4.8/include/stddef.h"
 12097              		.file 10 "/usr/include/wchar.h"
 12098              		.file 11 "/usr/include/c++/4.8/cwchar"
 12099              		.file 12 "/usr/include/c++/4.8/bits/char_traits.h"
 12100              		.file 13 "/usr/include/x86_64-linux-gnu/c++/4.8/bits/c++config.h"
 12101              		.file 14 "/usr/include/c++/4.8/clocale"
 12102              		.file 15 "/usr/include/c++/4.8/bits/allocator.h"
 12103              		.file 16 "/usr/include/c++/4.8/bits/basic_string.h"
 12104              		.file 17 "/usr/include/c++/4.8/bits/basic_string.tcc"
 12105              		.file 18 "/usr/include/c++/4.8/bits/stringfwd.h"
 12106              		.file 19 "/usr/include/c++/4.8/bits/ios_base.h"
 12107              		.file 20 "/usr/include/c++/4.8/cwctype"
 12108              		.file 21 "/usr/include/c++/4.8/cstdlib"
 12109              		.file 22 "/usr/include/time.h"
 12110              		.file 23 "/usr/include/c++/4.8/ext/new_allocator.h"
 12111              		.file 24 "/usr/include/c++/4.8/ext/numeric_traits.h"
 12112              		.file 25 "/usr/include/c++/4.8/debug/debug.h"
 12113              		.file 26 "/usr/include/locale.h"
 12114              		.file 27 "/usr/include/x86_64-linux-gnu/bits/types.h"
 12115              		.file 28 "/usr/include/x86_64-linux-gnu/c++/4.8/bits/atomic_word.h"
 12116              		.file 29 "/usr/include/wctype.h"
 12117              		.file 30 "/usr/include/stdlib.h"
 12118              		.file 31 "/home/pandu/Desktop/DigitalLogicDesign/Lab/03-/makestuff/libs/libutpp/TestDetails.h"
 12119              		.file 32 "/home/pandu/Desktop/DigitalLogicDesign/Lab/03-/makestuff/libs/libutpp/TestList.h"
 12120              		.file 33 "/home/pandu/Desktop/DigitalLogicDesign/Lab/03-/makestuff/libs/libutpp/TestResults.h"
 12121              		.file 34 "/home/pandu/Desktop/DigitalLogicDesign/Lab/03-/makestuff/common/makestuff.h"
 12122              		.file 35 "../libusbwrap.h"
 12123              		.file 36 "../unbounded_queue.h"
DEFINED SYMBOLS
                            *ABS*:0000000000000000 testCore.cpp
                             .bss:00000000000001f9 _ZStL8__ioinit
     /tmp/cciRR2Qp.s:12     .text._ZN13UnitTestSuite12GetSuiteNameEv:0000000000000000 _ZN13UnitTestSuite12GetSuiteNameEv
     /tmp/cciRR2Qp.s:35     .text._ZN8UnitTest15MemoryOutStreamC1Ev:0000000000000000 _ZN8UnitTest15MemoryOutStreamC1Ev
     /tmp/cciRR2Qp.s:11744  .rodata._ZTTN8UnitTest15MemoryOutStreamE:0000000000000000 _ZTTN8UnitTest15MemoryOutStreamE
     /tmp/cciRR2Qp.s:11728  .rodata._ZTVN8UnitTest15MemoryOutStreamE:0000000000000000 _ZTVN8UnitTest15MemoryOutStreamE
     /tmp/cciRR2Qp.s:148    .data:0000000000000000 _ZL7m_count
     /tmp/cciRR2Qp.s:151    .bss:00000000000001fc _ZL11m_allocFree
     /tmp/cciRR2Qp.s:155    .text:0000000000000000 createInt
     /tmp/cciRR2Qp.s:206    .text:0000000000000059 destroyInt
     /tmp/cciRR2Qp.s:237    .text:0000000000000089 _ZL5derefPKv
     /tmp/cciRR2Qp.s:266    .text._ZN18TestQueue_testInitC2Ev:0000000000000000 _ZN18TestQueue_testInitC2Ev
     /tmp/cciRR2Qp.s:11649  .rodata._ZTV18TestQueue_testInit:0000000000000000 _ZTV18TestQueue_testInit
     /tmp/cciRR2Qp.s:266    .text._ZN18TestQueue_testInitC2Ev:0000000000000000 _ZN18TestQueue_testInitC1Ev
     /tmp/cciRR2Qp.s:303    .bss:0000000000000000 testQueue_testInitInstance
     /tmp/cciRR2Qp.s:308    .bss:0000000000000038 adderQueue_testInit
     /tmp/cciRR2Qp.s:342    .text:000000000000009a _ZNK18TestQueue_testInit7RunImplEv
     /tmp/cciRR2Qp.s:10574  .text._ZN8UnitTest10CheckEqualI9USBStatusS1_EEvRNS_11TestResultsERKT_RKT0_RKNS_11TestDetailsE:0000000000000000 _ZN8UnitTest10CheckEqualI9USBStatusS1_EEvRNS_11TestResultsERKT_RKT0_RKNS_11TestDetailsE
     /tmp/cciRR2Qp.s:10706  .text._ZN8UnitTest10CheckEqualImmEEvRNS_11TestResultsERKT_RKT0_RKNS_11TestDetailsE:0000000000000000 _ZN8UnitTest10CheckEqualImmEEvRNS_11TestResultsERKT_RKT0_RKNS_11TestDetailsE
     /tmp/cciRR2Qp.s:10835  .text._ZN8UnitTest10CheckEqualImjEEvRNS_11TestResultsERKT_RKT0_RKNS_11TestDetailsE:0000000000000000 _ZN8UnitTest10CheckEqualImjEEvRNS_11TestResultsERKT_RKT0_RKNS_11TestDetailsE
     /tmp/cciRR2Qp.s:1077   .text._ZN23TestQueue_testPutNoWrapC2Ev:0000000000000000 _ZN23TestQueue_testPutNoWrapC2Ev
     /tmp/cciRR2Qp.s:11570  .rodata._ZTV23TestQueue_testPutNoWrap:0000000000000000 _ZTV23TestQueue_testPutNoWrap
     /tmp/cciRR2Qp.s:1077   .text._ZN23TestQueue_testPutNoWrapC2Ev:0000000000000000 _ZN23TestQueue_testPutNoWrapC1Ev
     /tmp/cciRR2Qp.s:1114   .bss:0000000000000040 testQueue_testPutNoWrapInstance
     /tmp/cciRR2Qp.s:1119   .bss:0000000000000078 adderQueue_testPutNoWrap
     /tmp/cciRR2Qp.s:1150   .text:00000000000006f0 _ZNK23TestQueue_testPutNoWrap7RunImplEv
     /tmp/cciRR2Qp.s:2371   .text._ZN21TestQueue_testPutWrapC2Ev:0000000000000000 _ZN21TestQueue_testPutWrapC2Ev
     /tmp/cciRR2Qp.s:11491  .rodata._ZTV21TestQueue_testPutWrap:0000000000000000 _ZTV21TestQueue_testPutWrap
     /tmp/cciRR2Qp.s:2371   .text._ZN21TestQueue_testPutWrapC2Ev:0000000000000000 _ZN21TestQueue_testPutWrapC1Ev
     /tmp/cciRR2Qp.s:2408   .bss:0000000000000080 testQueue_testPutWrapInstance
     /tmp/cciRR2Qp.s:2413   .bss:00000000000000b8 adderQueue_testPutWrap
     /tmp/cciRR2Qp.s:2429   .text:00000000000011b8 _ZNK21TestQueue_testPutWrap7RunImplEv
     /tmp/cciRR2Qp.s:3810   .text._ZN21TestQueue_testPutTakeC2Ev:0000000000000000 _ZN21TestQueue_testPutTakeC2Ev
     /tmp/cciRR2Qp.s:11412  .rodata._ZTV21TestQueue_testPutTake:0000000000000000 _ZTV21TestQueue_testPutTake
     /tmp/cciRR2Qp.s:3810   .text._ZN21TestQueue_testPutTakeC2Ev:0000000000000000 _ZN21TestQueue_testPutTakeC1Ev
     /tmp/cciRR2Qp.s:3847   .bss:00000000000000c0 testQueue_testPutTakeInstance
     /tmp/cciRR2Qp.s:3852   .bss:00000000000000f8 adderQueue_testPutTake
     /tmp/cciRR2Qp.s:3871   .text:0000000000001df0 _ZNK21TestQueue_testPutTake7RunImplEv
     /tmp/cciRR2Qp.s:5946   .text:0000000000002fc4 _Z11testReallocm
     /tmp/cciRR2Qp.s:8967   .text._ZN21TestQueue_testReallocC2Ev:0000000000000000 _ZN21TestQueue_testReallocC2Ev
     /tmp/cciRR2Qp.s:11333  .rodata._ZTV21TestQueue_testRealloc:0000000000000000 _ZTV21TestQueue_testRealloc
     /tmp/cciRR2Qp.s:8967   .text._ZN21TestQueue_testReallocC2Ev:0000000000000000 _ZN21TestQueue_testReallocC1Ev
     /tmp/cciRR2Qp.s:9004   .bss:0000000000000100 testQueue_testReallocInstance
     /tmp/cciRR2Qp.s:9009   .bss:0000000000000138 adderQueue_testRealloc
     /tmp/cciRR2Qp.s:9015   .text:0000000000004ae8 _ZNK21TestQueue_testRealloc7RunImplEv
     /tmp/cciRR2Qp.s:9052   .text._ZN22TestQueue_testAllocOOMC2Ev:0000000000000000 _ZN22TestQueue_testAllocOOMC2Ev
     /tmp/cciRR2Qp.s:11254  .rodata._ZTV22TestQueue_testAllocOOM:0000000000000000 _ZTV22TestQueue_testAllocOOM
     /tmp/cciRR2Qp.s:9052   .text._ZN22TestQueue_testAllocOOMC2Ev:0000000000000000 _ZN22TestQueue_testAllocOOMC1Ev
     /tmp/cciRR2Qp.s:9089   .bss:0000000000000140 testQueue_testAllocOOMInstance
     /tmp/cciRR2Qp.s:9094   .bss:0000000000000178 adderQueue_testAllocOOM
     /tmp/cciRR2Qp.s:9104   .text:0000000000004b1e _ZNK22TestQueue_testAllocOOM7RunImplEv
     /tmp/cciRR2Qp.s:9252   .text._ZN24TestQueue_testReallocOOMC2Ev:0000000000000000 _ZN24TestQueue_testReallocOOMC2Ev
     /tmp/cciRR2Qp.s:11175  .rodata._ZTV24TestQueue_testReallocOOM:0000000000000000 _ZTV24TestQueue_testReallocOOM
     /tmp/cciRR2Qp.s:9252   .text._ZN24TestQueue_testReallocOOMC2Ev:0000000000000000 _ZN24TestQueue_testReallocOOMC1Ev
     /tmp/cciRR2Qp.s:9289   .bss:0000000000000180 testQueue_testReallocOOMInstance
     /tmp/cciRR2Qp.s:9294   .bss:00000000000001b8 adderQueue_testReallocOOM
     /tmp/cciRR2Qp.s:9300   .text:0000000000004c0a _ZNK24TestQueue_testReallocOOM7RunImplEv
     /tmp/cciRR2Qp.s:10218  .text._ZN31TestQueue_testAllocFreeMatchingC2Ev:0000000000000000 _ZN31TestQueue_testAllocFreeMatchingC2Ev
     /tmp/cciRR2Qp.s:11096  .rodata._ZTV31TestQueue_testAllocFreeMatching:0000000000000000 _ZTV31TestQueue_testAllocFreeMatching
     /tmp/cciRR2Qp.s:10218  .text._ZN31TestQueue_testAllocFreeMatchingC2Ev:0000000000000000 _ZN31TestQueue_testAllocFreeMatchingC1Ev
     /tmp/cciRR2Qp.s:10255  .bss:00000000000001c0 testQueue_testAllocFreeMatchingInstance
     /tmp/cciRR2Qp.s:10260  .bss:00000000000001f8 adderQueue_testAllocFreeMatching
     /tmp/cciRR2Qp.s:10270  .text:000000000000539e _ZNK31TestQueue_testAllocFreeMatching7RunImplEv
     /tmp/cciRR2Qp.s:10965  .text._ZN8UnitTest10CheckEqualIiiEEvRNS_11TestResultsERKT_RKT0_RKNS_11TestDetailsE:0000000000000000 _ZN8UnitTest10CheckEqualIiiEEvRNS_11TestResultsERKT_RKT0_RKNS_11TestDetailsE
     /tmp/cciRR2Qp.s:10388  .text._ZN8UnitTest15MemoryOutStreamD1Ev:0000000000000000 _ZN8UnitTest15MemoryOutStreamD1Ev
     /tmp/cciRR2Qp.s:10515  .text._ZN8UnitTest15MemoryOutStreamD1Ev:00000000000000c8 _ZTv0_n24_N8UnitTest15MemoryOutStreamD1Ev
     /tmp/cciRR2Qp.s:10529  .text._ZN8UnitTest15MemoryOutStreamD0Ev:0000000000000000 _ZN8UnitTest15MemoryOutStreamD0Ev
     /tmp/cciRR2Qp.s:10556  .text._ZN8UnitTest15MemoryOutStreamD0Ev:0000000000000026 _ZTv0_n24_N8UnitTest15MemoryOutStreamD0Ev
     /tmp/cciRR2Qp.s:11790  .rodata._ZTI31TestQueue_testAllocFreeMatching:0000000000000000 _ZTI31TestQueue_testAllocFreeMatching
     /tmp/cciRR2Qp.s:11106  .text._ZN31TestQueue_testAllocFreeMatchingD2Ev:0000000000000000 _ZN31TestQueue_testAllocFreeMatchingD1Ev
     /tmp/cciRR2Qp.s:11146  .text._ZN31TestQueue_testAllocFreeMatchingD0Ev:0000000000000000 _ZN31TestQueue_testAllocFreeMatchingD0Ev
     /tmp/cciRR2Qp.s:11106  .text._ZN31TestQueue_testAllocFreeMatchingD2Ev:0000000000000000 _ZN31TestQueue_testAllocFreeMatchingD2Ev
     /tmp/cciRR2Qp.s:11806  .rodata._ZTI24TestQueue_testReallocOOM:0000000000000000 _ZTI24TestQueue_testReallocOOM
     /tmp/cciRR2Qp.s:11185  .text._ZN24TestQueue_testReallocOOMD2Ev:0000000000000000 _ZN24TestQueue_testReallocOOMD1Ev
     /tmp/cciRR2Qp.s:11225  .text._ZN24TestQueue_testReallocOOMD0Ev:0000000000000000 _ZN24TestQueue_testReallocOOMD0Ev
     /tmp/cciRR2Qp.s:11185  .text._ZN24TestQueue_testReallocOOMD2Ev:0000000000000000 _ZN24TestQueue_testReallocOOMD2Ev
     /tmp/cciRR2Qp.s:11822  .rodata._ZTI22TestQueue_testAllocOOM:0000000000000000 _ZTI22TestQueue_testAllocOOM
     /tmp/cciRR2Qp.s:11264  .text._ZN22TestQueue_testAllocOOMD2Ev:0000000000000000 _ZN22TestQueue_testAllocOOMD1Ev
     /tmp/cciRR2Qp.s:11304  .text._ZN22TestQueue_testAllocOOMD0Ev:0000000000000000 _ZN22TestQueue_testAllocOOMD0Ev
     /tmp/cciRR2Qp.s:11264  .text._ZN22TestQueue_testAllocOOMD2Ev:0000000000000000 _ZN22TestQueue_testAllocOOMD2Ev
     /tmp/cciRR2Qp.s:11838  .rodata._ZTI21TestQueue_testRealloc:0000000000000000 _ZTI21TestQueue_testRealloc
     /tmp/cciRR2Qp.s:11343  .text._ZN21TestQueue_testReallocD2Ev:0000000000000000 _ZN21TestQueue_testReallocD1Ev
     /tmp/cciRR2Qp.s:11383  .text._ZN21TestQueue_testReallocD0Ev:0000000000000000 _ZN21TestQueue_testReallocD0Ev
     /tmp/cciRR2Qp.s:11343  .text._ZN21TestQueue_testReallocD2Ev:0000000000000000 _ZN21TestQueue_testReallocD2Ev
     /tmp/cciRR2Qp.s:11854  .rodata._ZTI21TestQueue_testPutTake:0000000000000000 _ZTI21TestQueue_testPutTake
     /tmp/cciRR2Qp.s:11422  .text._ZN21TestQueue_testPutTakeD2Ev:0000000000000000 _ZN21TestQueue_testPutTakeD1Ev
     /tmp/cciRR2Qp.s:11462  .text._ZN21TestQueue_testPutTakeD0Ev:0000000000000000 _ZN21TestQueue_testPutTakeD0Ev
     /tmp/cciRR2Qp.s:11422  .text._ZN21TestQueue_testPutTakeD2Ev:0000000000000000 _ZN21TestQueue_testPutTakeD2Ev
     /tmp/cciRR2Qp.s:11870  .rodata._ZTI21TestQueue_testPutWrap:0000000000000000 _ZTI21TestQueue_testPutWrap
     /tmp/cciRR2Qp.s:11501  .text._ZN21TestQueue_testPutWrapD2Ev:0000000000000000 _ZN21TestQueue_testPutWrapD1Ev
     /tmp/cciRR2Qp.s:11541  .text._ZN21TestQueue_testPutWrapD0Ev:0000000000000000 _ZN21TestQueue_testPutWrapD0Ev
     /tmp/cciRR2Qp.s:11501  .text._ZN21TestQueue_testPutWrapD2Ev:0000000000000000 _ZN21TestQueue_testPutWrapD2Ev
     /tmp/cciRR2Qp.s:11886  .rodata._ZTI23TestQueue_testPutNoWrap:0000000000000000 _ZTI23TestQueue_testPutNoWrap
     /tmp/cciRR2Qp.s:11580  .text._ZN23TestQueue_testPutNoWrapD2Ev:0000000000000000 _ZN23TestQueue_testPutNoWrapD1Ev
     /tmp/cciRR2Qp.s:11620  .text._ZN23TestQueue_testPutNoWrapD0Ev:0000000000000000 _ZN23TestQueue_testPutNoWrapD0Ev
     /tmp/cciRR2Qp.s:11580  .text._ZN23TestQueue_testPutNoWrapD2Ev:0000000000000000 _ZN23TestQueue_testPutNoWrapD2Ev
     /tmp/cciRR2Qp.s:11902  .rodata._ZTI18TestQueue_testInit:0000000000000000 _ZTI18TestQueue_testInit
     /tmp/cciRR2Qp.s:11659  .text._ZN18TestQueue_testInitD2Ev:0000000000000000 _ZN18TestQueue_testInitD1Ev
     /tmp/cciRR2Qp.s:11699  .text._ZN18TestQueue_testInitD0Ev:0000000000000000 _ZN18TestQueue_testInitD0Ev
     /tmp/cciRR2Qp.s:11659  .text._ZN18TestQueue_testInitD2Ev:0000000000000000 _ZN18TestQueue_testInitD2Ev
     /tmp/cciRR2Qp.s:11925  .rodata._ZTIN8UnitTest15MemoryOutStreamE:0000000000000000 _ZTIN8UnitTest15MemoryOutStreamE
     /tmp/cciRR2Qp.s:11757  .rodata._ZTCN8UnitTest15MemoryOutStreamE0_St19basic_ostringstreamIcSt11char_traitsIcESaIcEE:0000000000000000 _ZTCN8UnitTest15MemoryOutStreamE0_St19basic_ostringstreamIcSt11char_traitsIcESaIcEE
     /tmp/cciRR2Qp.s:11774  .rodata._ZTCN8UnitTest15MemoryOutStreamE0_So:0000000000000000 _ZTCN8UnitTest15MemoryOutStreamE0_So
     /tmp/cciRR2Qp.s:11799  .rodata._ZTS31TestQueue_testAllocFreeMatching:0000000000000000 _ZTS31TestQueue_testAllocFreeMatching
     /tmp/cciRR2Qp.s:11815  .rodata._ZTS24TestQueue_testReallocOOM:0000000000000000 _ZTS24TestQueue_testReallocOOM
     /tmp/cciRR2Qp.s:11831  .rodata._ZTS22TestQueue_testAllocOOM:0000000000000000 _ZTS22TestQueue_testAllocOOM
     /tmp/cciRR2Qp.s:11847  .rodata._ZTS21TestQueue_testRealloc:0000000000000000 _ZTS21TestQueue_testRealloc
     /tmp/cciRR2Qp.s:11863  .rodata._ZTS21TestQueue_testPutTake:0000000000000000 _ZTS21TestQueue_testPutTake
     /tmp/cciRR2Qp.s:11879  .rodata._ZTS21TestQueue_testPutWrap:0000000000000000 _ZTS21TestQueue_testPutWrap
     /tmp/cciRR2Qp.s:11895  .rodata._ZTS23TestQueue_testPutNoWrap:0000000000000000 _ZTS23TestQueue_testPutNoWrap
     /tmp/cciRR2Qp.s:11911  .rodata._ZTS18TestQueue_testInit:0000000000000000 _ZTS18TestQueue_testInit
     /tmp/cciRR2Qp.s:11918  .rodata._ZTSN8UnitTest15MemoryOutStreamE:0000000000000000 _ZTSN8UnitTest15MemoryOutStreamE
     /tmp/cciRR2Qp.s:11931  .text:0000000000005450 _Z41__static_initialization_and_destruction_0ii
     /tmp/cciRR2Qp.s:12062  .text:000000000000563d _GLOBAL__sub_I_createInt
     /tmp/cciRR2Qp.s:12088  .rodata:0000000000000ca0 _ZZL18__gthread_active_pvE20__gthread_active_ptr
                           .group:0000000000000000 _ZN18TestQueue_testInitC5Ev
                           .group:0000000000000000 _ZN23TestQueue_testPutNoWrapC5Ev
                           .group:0000000000000000 _ZN21TestQueue_testPutWrapC5Ev
                           .group:0000000000000000 _ZN21TestQueue_testPutTakeC5Ev
                           .group:0000000000000000 _ZN21TestQueue_testReallocC5Ev
                           .group:0000000000000000 _ZN22TestQueue_testAllocOOMC5Ev
                           .group:0000000000000000 _ZN24TestQueue_testReallocOOMC5Ev
                           .group:0000000000000000 _ZN31TestQueue_testAllocFreeMatchingC5Ev
                           .group:0000000000000000 _ZN31TestQueue_testAllocFreeMatchingD5Ev
                           .group:0000000000000000 _ZN24TestQueue_testReallocOOMD5Ev
                           .group:0000000000000000 _ZN22TestQueue_testAllocOOMD5Ev
                           .group:0000000000000000 _ZN21TestQueue_testReallocD5Ev
                           .group:0000000000000000 _ZN21TestQueue_testPutTakeD5Ev
                           .group:0000000000000000 _ZN21TestQueue_testPutWrapD5Ev
                           .group:0000000000000000 _ZN23TestQueue_testPutNoWrapD5Ev
                           .group:0000000000000000 _ZN18TestQueue_testInitD5Ev

UNDEFINED SYMBOLS
__gxx_personality_v0
_ZNSt9basic_iosIcSt11char_traitsIcEEC2Ev
_ZNSt19basic_ostringstreamIcSt11char_traitsIcESaIcEEC2ESt13_Ios_Openmode
_ZNSsC1Ev
_ZNSt19basic_ostringstreamIcSt11char_traitsIcESaIcEED2Ev
_ZNSt9basic_iosIcSt11char_traitsIcEED2Ev
_Unwind_Resume
malloc
free
_ZN8UnitTest4TestC2EPKcS2_S2_i
queueInit
_ZN8UnitTest11CurrentTest7DetailsEv
_ZN8UnitTest11TestDetailsC1ERKS0_i
_ZN8UnitTest11CurrentTest7ResultsEv
queueDestroy
__cxa_end_catch
__cxa_begin_catch
_ZN8UnitTest11TestResults13OnTestFailureERKNS_11TestDetailsEPKc
queuePut
queueCommitPut
queueTake
queueCommitTake
_ZNSsD1Ev
_ZdlPv
_ZStlsISt11char_traitsIcEERSt13basic_ostreamIcT_ES5_PKc
_ZNSolsEi
_ZNK8UnitTest15MemoryOutStream7GetTextEv
_ZNSolsEm
_ZNSolsEj
_ZN8UnitTest4TestD2Ev
_ZTISt19basic_ostringstreamIcSt11char_traitsIcESaIcEE
_ZNSt19basic_ostringstreamIcSt11char_traitsIcESaIcEED1Ev
_ZNSt19basic_ostringstreamIcSt11char_traitsIcESaIcEED0Ev
_ZTv0_n24_NSt19basic_ostringstreamIcSt11char_traitsIcESaIcEED1Ev
_ZTv0_n24_NSt19basic_ostringstreamIcSt11char_traitsIcESaIcEED0Ev
_ZTISo
_ZNSoD1Ev
_ZNSoD0Ev
_ZTv0_n24_NSoD1Ev
_ZTv0_n24_NSoD0Ev
_ZTVN10__cxxabiv120__si_class_type_infoE
_ZTIN8UnitTest4TestE
_ZNSt8ios_base4InitC1Ev
__dso_handle
_ZNSt8ios_base4InitD1Ev
__cxa_atexit
_ZN8UnitTest4Test11GetTestListEv
_ZN8UnitTest9ListAdderC1ERNS_8TestListEPNS_4TestE
__pthread_key_create
