   1              		.file	"testSvf2Csvf.cpp"
   2              		.section	.text._ZN27TestFPGALink_testBuildIndexD2Ev,"axG",@progbits,_ZN27TestFPGALink_testBuildInd
   3              		.align 2
   4              		.p2align 4,,15
   5              		.weak	_ZN27TestFPGALink_testBuildIndexD2Ev
   7              	_ZN27TestFPGALink_testBuildIndexD2Ev:
   8              	.LFB1224:
   9              		.cfi_startproc
  10 0000 48C70700 		movq	$_ZTV27TestFPGALink_testBuildIndex+16, (%rdi)
  10      000000
  11 0007 E9000000 		jmp	_ZN8UnitTest4TestD2Ev
  11      00
  12              		.cfi_endproc
  13              	.LFE1224:
  15              		.weak	_ZN27TestFPGALink_testBuildIndexD1Ev
  16              		.set	_ZN27TestFPGALink_testBuildIndexD1Ev,_ZN27TestFPGALink_testBuildIndexD2Ev
  17              		.section	.text._ZN27TestFPGALink_testBuildIndexD0Ev,"axG",@progbits,_ZN27TestFPGALink_testBuildInd
  18              		.align 2
  19              		.p2align 4,,15
  20              		.weak	_ZN27TestFPGALink_testBuildIndexD0Ev
  22              	_ZN27TestFPGALink_testBuildIndexD0Ev:
  23              	.LFB1226:
  24              		.cfi_startproc
  25 0000 53       		pushq	%rbx
  26              		.cfi_def_cfa_offset 16
  27              		.cfi_offset 3, -16
  28 0001 4889FB   		movq	%rdi, %rbx
  29 0004 48C70700 		movq	$_ZTV27TestFPGALink_testBuildIndex+16, (%rdi)
  29      000000
  30 000b E8000000 		call	_ZN8UnitTest4TestD2Ev
  30      00
  31 0010 4889DF   		movq	%rbx, %rdi
  32 0013 5B       		popq	%rbx
  33              		.cfi_def_cfa_offset 8
  34 0014 E9000000 		jmp	_ZdlPv
  34      00
  35              		.cfi_endproc
  36              	.LFE1226:
  38              		.section	.text._ZN29TestFPGALink_testProcessIndexD2Ev,"axG",@progbits,_ZN29TestFPGALink_testProces
  39              		.align 2
  40              		.p2align 4,,15
  41              		.weak	_ZN29TestFPGALink_testProcessIndexD2Ev
  43              	_ZN29TestFPGALink_testProcessIndexD2Ev:
  44              	.LFB1228:
  45              		.cfi_startproc
  46 0000 48C70700 		movq	$_ZTV29TestFPGALink_testProcessIndex+16, (%rdi)
  46      000000
  47 0007 E9000000 		jmp	_ZN8UnitTest4TestD2Ev
  47      00
  48              		.cfi_endproc
  49              	.LFE1228:
  51              		.weak	_ZN29TestFPGALink_testProcessIndexD1Ev
  52              		.set	_ZN29TestFPGALink_testProcessIndexD1Ev,_ZN29TestFPGALink_testProcessIndexD2Ev
  53              		.section	.text._ZN29TestFPGALink_testProcessIndexD0Ev,"axG",@progbits,_ZN29TestFPGALink_testProces
  54              		.align 2
  55              		.p2align 4,,15
  56              		.weak	_ZN29TestFPGALink_testProcessIndexD0Ev
  58              	_ZN29TestFPGALink_testProcessIndexD0Ev:
  59              	.LFB1230:
  60              		.cfi_startproc
  61 0000 53       		pushq	%rbx
  62              		.cfi_def_cfa_offset 16
  63              		.cfi_offset 3, -16
  64 0001 4889FB   		movq	%rdi, %rbx
  65 0004 48C70700 		movq	$_ZTV29TestFPGALink_testProcessIndex+16, (%rdi)
  65      000000
  66 000b E8000000 		call	_ZN8UnitTest4TestD2Ev
  66      00
  67 0010 4889DF   		movq	%rbx, %rdi
  68 0013 5B       		popq	%rbx
  69              		.cfi_def_cfa_offset 8
  70 0014 E9000000 		jmp	_ZdlPv
  70      00
  71              		.cfi_endproc
  72              	.LFE1230:
  74              		.section	.text._ZN22TestFPGALink_testParseD2Ev,"axG",@progbits,_ZN22TestFPGALink_testParseD5Ev,com
  75              		.align 2
  76              		.p2align 4,,15
  77              		.weak	_ZN22TestFPGALink_testParseD2Ev
  79              	_ZN22TestFPGALink_testParseD2Ev:
  80              	.LFB1232:
  81              		.cfi_startproc
  82 0000 48C70700 		movq	$_ZTV22TestFPGALink_testParse+16, (%rdi)
  82      000000
  83 0007 E9000000 		jmp	_ZN8UnitTest4TestD2Ev
  83      00
  84              		.cfi_endproc
  85              	.LFE1232:
  87              		.weak	_ZN22TestFPGALink_testParseD1Ev
  88              		.set	_ZN22TestFPGALink_testParseD1Ev,_ZN22TestFPGALink_testParseD2Ev
  89              		.section	.text._ZN22TestFPGALink_testParseD0Ev,"axG",@progbits,_ZN22TestFPGALink_testParseD0Ev,com
  90              		.align 2
  91              		.p2align 4,,15
  92              		.weak	_ZN22TestFPGALink_testParseD0Ev
  94              	_ZN22TestFPGALink_testParseD0Ev:
  95              	.LFB1234:
  96              		.cfi_startproc
  97 0000 53       		pushq	%rbx
  98              		.cfi_def_cfa_offset 16
  99              		.cfi_offset 3, -16
 100 0001 4889FB   		movq	%rdi, %rbx
 101 0004 48C70700 		movq	$_ZTV22TestFPGALink_testParse+16, (%rdi)
 101      000000
 102 000b E8000000 		call	_ZN8UnitTest4TestD2Ev
 102      00
 103 0010 4889DF   		movq	%rbx, %rdi
 104 0013 5B       		popq	%rbx
 105              		.cfi_def_cfa_offset 8
 106 0014 E9000000 		jmp	_ZdlPv
 106      00
 107              		.cfi_endproc
 108              	.LFE1234:
 110              		.section	.text._ZN22TestFPGALink_testShiftD2Ev,"axG",@progbits,_ZN22TestFPGALink_testShiftD5Ev,com
 111              		.align 2
 112              		.p2align 4,,15
 113              		.weak	_ZN22TestFPGALink_testShiftD2Ev
 115              	_ZN22TestFPGALink_testShiftD2Ev:
 116              	.LFB1236:
 117              		.cfi_startproc
 118 0000 48C70700 		movq	$_ZTV22TestFPGALink_testShift+16, (%rdi)
 118      000000
 119 0007 E9000000 		jmp	_ZN8UnitTest4TestD2Ev
 119      00
 120              		.cfi_endproc
 121              	.LFE1236:
 123              		.weak	_ZN22TestFPGALink_testShiftD1Ev
 124              		.set	_ZN22TestFPGALink_testShiftD1Ev,_ZN22TestFPGALink_testShiftD2Ev
 125              		.section	.text._ZN22TestFPGALink_testShiftD0Ev,"axG",@progbits,_ZN22TestFPGALink_testShiftD0Ev,com
 126              		.align 2
 127              		.p2align 4,,15
 128              		.weak	_ZN22TestFPGALink_testShiftD0Ev
 130              	_ZN22TestFPGALink_testShiftD0Ev:
 131              	.LFB1238:
 132              		.cfi_startproc
 133 0000 53       		pushq	%rbx
 134              		.cfi_def_cfa_offset 16
 135              		.cfi_offset 3, -16
 136 0001 4889FB   		movq	%rdi, %rbx
 137 0004 48C70700 		movq	$_ZTV22TestFPGALink_testShift+16, (%rdi)
 137      000000
 138 000b E8000000 		call	_ZN8UnitTest4TestD2Ev
 138      00
 139 0010 4889DF   		movq	%rbx, %rdi
 140 0013 5B       		popq	%rbx
 141              		.cfi_def_cfa_offset 8
 142 0014 E9000000 		jmp	_ZdlPv
 142      00
 143              		.cfi_endproc
 144              	.LFE1238:
 146              		.section	.text._ZN26TestFPGALink_testReadBytesD2Ev,"axG",@progbits,_ZN26TestFPGALink_testReadBytes
 147              		.align 2
 148              		.p2align 4,,15
 149              		.weak	_ZN26TestFPGALink_testReadBytesD2Ev
 151              	_ZN26TestFPGALink_testReadBytesD2Ev:
 152              	.LFB1240:
 153              		.cfi_startproc
 154 0000 48C70700 		movq	$_ZTV26TestFPGALink_testReadBytes+16, (%rdi)
 154      000000
 155 0007 E9000000 		jmp	_ZN8UnitTest4TestD2Ev
 155      00
 156              		.cfi_endproc
 157              	.LFE1240:
 159              		.weak	_ZN26TestFPGALink_testReadBytesD1Ev
 160              		.set	_ZN26TestFPGALink_testReadBytesD1Ev,_ZN26TestFPGALink_testReadBytesD2Ev
 161              		.section	.text._ZN26TestFPGALink_testReadBytesD0Ev,"axG",@progbits,_ZN26TestFPGALink_testReadBytes
 162              		.align 2
 163              		.p2align 4,,15
 164              		.weak	_ZN26TestFPGALink_testReadBytesD0Ev
 166              	_ZN26TestFPGALink_testReadBytesD0Ev:
 167              	.LFB1242:
 168              		.cfi_startproc
 169 0000 53       		pushq	%rbx
 170              		.cfi_def_cfa_offset 16
 171              		.cfi_offset 3, -16
 172 0001 4889FB   		movq	%rdi, %rbx
 173 0004 48C70700 		movq	$_ZTV26TestFPGALink_testReadBytes+16, (%rdi)
 173      000000
 174 000b E8000000 		call	_ZN8UnitTest4TestD2Ev
 174      00
 175 0010 4889DF   		movq	%rbx, %rdi
 176 0013 5B       		popq	%rbx
 177              		.cfi_def_cfa_offset 8
 178 0014 E9000000 		jmp	_ZdlPv
 178      00
 179              		.cfi_endproc
 180              	.LFE1242:
 182              		.section	.text.unlikely,"ax",@progbits
 184              	_ZStlsISt11char_traitsIcEERSt13basic_ostreamIcT_ES5_PKc.part.1:
 185              	.LFB1246:
 186              		.cfi_startproc
 187 0000 50       		pushq	%rax
 188              		.cfi_def_cfa_offset 16
 189 0001 488B07   		movq	(%rdi), %rax
 190 0004 480378E8 		addq	-24(%rax), %rdi
 191 0008 8B7720   		movl	32(%rdi), %esi
 192 000b 83CE01   		orl	$1, %esi
 193 000e E8000000 		call	_ZNSt9basic_iosIcSt11char_traitsIcEE5clearESt12_Ios_Iostate
 193      00
 194 0013 5A       		popq	%rdx
 195              		.cfi_def_cfa_offset 8
 196 0014 C3       		ret
 197              		.cfi_endproc
 198              	.LFE1246:
 200              		.section	.text._ZNSt15basic_stringbufIcSt11char_traitsIcESaIcEED2Ev,"axG",@progbits,_ZNSt15basic_s
 201              		.align 2
 202              		.p2align 4,,15
 203              		.weak	_ZNSt15basic_stringbufIcSt11char_traitsIcESaIcEED2Ev
 205              	_ZNSt15basic_stringbufIcSt11char_traitsIcESaIcEED2Ev:
 206              	.LFB1145:
 207              		.cfi_startproc
 208 0000 53       		pushq	%rbx
 209              		.cfi_def_cfa_offset 16
 210              		.cfi_offset 3, -16
 211 0001 4889FB   		movq	%rdi, %rbx
 212 0004 4883EC10 		subq	$16, %rsp
 213              		.cfi_def_cfa_offset 32
 214 0008 488B4748 		movq	72(%rdi), %rax
 215 000c 48C70700 		movq	$_ZTVSt15basic_stringbufIcSt11char_traitsIcESaIcEE+16, (%rdi)
 215      000000
 216 0013 488D78E8 		leaq	-24(%rax), %rdi
 217 0017 4881FF00 		cmpq	$_ZNSs4_Rep20_S_empty_rep_storageE, %rdi
 217      000000
 218 001e 7516     		jne	.L26
 219              	.L20:
 220 0020 488D7B38 		leaq	56(%rbx), %rdi
 221 0024 48C70300 		movq	$_ZTVSt15basic_streambufIcSt11char_traitsIcEE+16, (%rbx)
 221      000000
 222 002b E8000000 		call	_ZNSt6localeD1Ev
 222      00
 223 0030 4883C410 		addq	$16, %rsp
 224              		.cfi_remember_state
 225              		.cfi_def_cfa_offset 16
 226 0034 5B       		popq	%rbx
 227              		.cfi_def_cfa_offset 8
 228 0035 C3       		ret
 229              	.L26:
 230              		.cfi_restore_state
 231 0036 B9000000 		movl	$_ZL28__gthrw___pthread_key_createPjPFvPvE, %ecx
 231      00
 232 003b 488D5710 		leaq	16(%rdi), %rdx
 233 003f 4885C9   		testq	%rcx, %rcx
 234 0042 7417     		je	.L21
 235 0044 83C8FF   		orl	$-1, %eax
 236 0047 F00FC102 		lock xaddl	%eax, (%rdx)
 237              	.L22:
 238 004b 85C0     		testl	%eax, %eax
 239 004d 7FD1     		jg	.L20
 240 004f 488D7424 		leaq	15(%rsp), %rsi
 240      0F
 241 0054 E8000000 		call	_ZNSs4_Rep10_M_destroyERKSaIcE
 241      00
 242 0059 EBC5     		jmp	.L20
 243              	.L21:
 244 005b 8B50F8   		movl	-8(%rax), %edx
 245 005e 8D4AFF   		leal	-1(%rdx), %ecx
 246 0061 8948F8   		movl	%ecx, -8(%rax)
 247 0064 89D0     		movl	%edx, %eax
 248 0066 EBE3     		jmp	.L22
 249              		.cfi_endproc
 250              	.LFE1145:
 252              		.weak	_ZNSt15basic_stringbufIcSt11char_traitsIcESaIcEED1Ev
 253              		.set	_ZNSt15basic_stringbufIcSt11char_traitsIcESaIcEED1Ev,_ZNSt15basic_stringbufIcSt11char_traitsI
 254              		.section	.text._ZNSt15basic_stringbufIcSt11char_traitsIcESaIcEED0Ev,"axG",@progbits,_ZNSt15basic_s
 255              		.align 2
 256              		.p2align 4,,15
 257              		.weak	_ZNSt15basic_stringbufIcSt11char_traitsIcESaIcEED0Ev
 259              	_ZNSt15basic_stringbufIcSt11char_traitsIcESaIcEED0Ev:
 260              	.LFB1147:
 261              		.cfi_startproc
 262 0000 53       		pushq	%rbx
 263              		.cfi_def_cfa_offset 16
 264              		.cfi_offset 3, -16
 265 0001 4889FB   		movq	%rdi, %rbx
 266 0004 4883EC10 		subq	$16, %rsp
 267              		.cfi_def_cfa_offset 32
 268 0008 488B4748 		movq	72(%rdi), %rax
 269 000c 48C70700 		movq	$_ZTVSt15basic_stringbufIcSt11char_traitsIcESaIcEE+16, (%rdi)
 269      000000
 270 0013 488D78E8 		leaq	-24(%rax), %rdi
 271 0017 4881FF00 		cmpq	$_ZNSs4_Rep20_S_empty_rep_storageE, %rdi
 271      000000
 272 001e 751E     		jne	.L34
 273              	.L29:
 274 0020 488D7B38 		leaq	56(%rbx), %rdi
 275 0024 48C70300 		movq	$_ZTVSt15basic_streambufIcSt11char_traitsIcEE+16, (%rbx)
 275      000000
 276 002b E8000000 		call	_ZNSt6localeD1Ev
 276      00
 277 0030 4889DF   		movq	%rbx, %rdi
 278 0033 E8000000 		call	_ZdlPv
 278      00
 279 0038 4883C410 		addq	$16, %rsp
 280              		.cfi_remember_state
 281              		.cfi_def_cfa_offset 16
 282 003c 5B       		popq	%rbx
 283              		.cfi_def_cfa_offset 8
 284 003d C3       		ret
 285              	.L34:
 286              		.cfi_restore_state
 287 003e B9000000 		movl	$_ZL28__gthrw___pthread_key_createPjPFvPvE, %ecx
 287      00
 288 0043 488D5710 		leaq	16(%rdi), %rdx
 289 0047 4885C9   		testq	%rcx, %rcx
 290 004a 7417     		je	.L30
 291 004c 83C8FF   		orl	$-1, %eax
 292 004f F00FC102 		lock xaddl	%eax, (%rdx)
 293              	.L31:
 294 0053 85C0     		testl	%eax, %eax
 295 0055 7FC9     		jg	.L29
 296 0057 488D7424 		leaq	15(%rsp), %rsi
 296      0F
 297 005c E8000000 		call	_ZNSs4_Rep10_M_destroyERKSaIcE
 297      00
 298 0061 EBBD     		jmp	.L29
 299              	.L30:
 300 0063 8B50F8   		movl	-8(%rax), %edx
 301 0066 8D4AFF   		leal	-1(%rdx), %ecx
 302 0069 8948F8   		movl	%ecx, -8(%rax)
 303 006c 89D0     		movl	%edx, %eax
 304 006e EBE3     		jmp	.L31
 305              		.cfi_endproc
 306              	.LFE1147:
 308              		.section	.text._ZN8UnitTest15MemoryOutStreamD1Ev,"axG",@progbits,_ZN8UnitTest15MemoryOutStreamD1Ev
 309              		.align 2
 310              		.p2align 4,,15
 311              		.weak	_ZN8UnitTest15MemoryOutStreamD1Ev
 313              	_ZN8UnitTest15MemoryOutStreamD1Ev:
 314              	.LFB1166:
 315              		.cfi_startproc
 316 0000 53       		pushq	%rbx
 317              		.cfi_def_cfa_offset 16
 318              		.cfi_offset 3, -16
 319 0001 4889FB   		movq	%rdi, %rbx
 320 0004 4883EC10 		subq	$16, %rsp
 321              		.cfi_def_cfa_offset 32
 322 0008 488B4758 		movq	88(%rdi), %rax
 323 000c 48C70700 		movq	$_ZTVN8UnitTest15MemoryOutStreamE+24, (%rdi)
 323      000000
 324 0013 48C74760 		movq	$_ZTVN8UnitTest15MemoryOutStreamE+64, 96(%rdi)
 324      00000000 
 325 001b 488D78E8 		leaq	-24(%rax), %rdi
 326 001f 4881FF00 		cmpq	$_ZNSs4_Rep20_S_empty_rep_storageE, %rdi
 326      000000
 327 0026 7557     		jne	.L47
 328              	.L37:
 329 0028 488B4350 		movq	80(%rbx), %rax
 330 002c 48C70300 		movq	$_ZTCN8UnitTest15MemoryOutStreamE0_St19basic_ostringstreamIcSt11char_traitsIcESaIcEE+24, (%rb
 330      000000
 331 0033 48C74360 		movq	$_ZTCN8UnitTest15MemoryOutStreamE0_St19basic_ostringstreamIcSt11char_traitsIcESaIcEE+64, 96(%
 331      00000000 
 332 003b 48C74308 		movq	$_ZTVSt15basic_stringbufIcSt11char_traitsIcESaIcEE+16, 8(%rbx)
 332      00000000 
 333 0043 488D78E8 		leaq	-24(%rax), %rdi
 334 0047 4881FF00 		cmpq	$_ZNSs4_Rep20_S_empty_rep_storageE, %rdi
 334      000000
 335 004e 7554     		jne	.L48
 336              	.L42:
 337 0050 488D7B40 		leaq	64(%rbx), %rdi
 338 0054 48C74308 		movq	$_ZTVSt15basic_streambufIcSt11char_traitsIcEE+16, 8(%rbx)
 338      00000000 
 339 005c E8000000 		call	_ZNSt6localeD1Ev
 339      00
 340 0061 488D7B60 		leaq	96(%rbx), %rdi
 341 0065 48C70300 		movq	$_ZTCN8UnitTest15MemoryOutStreamE0_So+24, (%rbx)
 341      000000
 342 006c 48C74360 		movq	$_ZTVSt9basic_iosIcSt11char_traitsIcEE+16, 96(%rbx)
 342      00000000 
 343 0074 E8000000 		call	_ZNSt8ios_baseD2Ev
 343      00
 344 0079 4883C410 		addq	$16, %rsp
 345              		.cfi_remember_state
 346              		.cfi_def_cfa_offset 16
 347 007d 5B       		popq	%rbx
 348              		.cfi_def_cfa_offset 8
 349 007e C3       		ret
 350              	.L47:
 351              		.cfi_restore_state
 352 007f B9000000 		movl	$_ZL28__gthrw___pthread_key_createPjPFvPvE, %ecx
 352      00
 353 0084 488D5710 		leaq	16(%rdi), %rdx
 354 0088 4885C9   		testq	%rcx, %rcx
 355 008b 743C     		je	.L38
 356 008d 83C8FF   		orl	$-1, %eax
 357 0090 F00FC102 		lock xaddl	%eax, (%rdx)
 358              	.L39:
 359 0094 85C0     		testl	%eax, %eax
 360 0096 7F90     		jg	.L37
 361 0098 488D7424 		leaq	15(%rsp), %rsi
 361      0F
 362 009d E8000000 		call	_ZNSs4_Rep10_M_destroyERKSaIcE
 362      00
 363 00a2 EB84     		jmp	.L37
 364              	.L48:
 365 00a4 B9000000 		movl	$_ZL28__gthrw___pthread_key_createPjPFvPvE, %ecx
 365      00
 366 00a9 488D5710 		leaq	16(%rdi), %rdx
 367 00ad 4885C9   		testq	%rcx, %rcx
 368 00b0 7424     		je	.L43
 369 00b2 83C8FF   		orl	$-1, %eax
 370 00b5 F00FC102 		lock xaddl	%eax, (%rdx)
 371              	.L44:
 372 00b9 85C0     		testl	%eax, %eax
 373 00bb 7F93     		jg	.L42
 374 00bd 488D7424 		leaq	15(%rsp), %rsi
 374      0F
 375 00c2 E8000000 		call	_ZNSs4_Rep10_M_destroyERKSaIcE
 375      00
 376 00c7 EB87     		jmp	.L42
 377              	.L38:
 378 00c9 8B50F8   		movl	-8(%rax), %edx
 379 00cc 8D4AFF   		leal	-1(%rdx), %ecx
 380 00cf 8948F8   		movl	%ecx, -8(%rax)
 381 00d2 89D0     		movl	%edx, %eax
 382 00d4 EBBE     		jmp	.L39
 383              	.L43:
 384 00d6 8B50F8   		movl	-8(%rax), %edx
 385 00d9 8D4AFF   		leal	-1(%rdx), %ecx
 386 00dc 8948F8   		movl	%ecx, -8(%rax)
 387 00df 89D0     		movl	%edx, %eax
 388 00e1 EBD6     		jmp	.L44
 389              		.cfi_endproc
 390              	.LFE1166:
 392              		.set	.LTHUNK0,_ZN8UnitTest15MemoryOutStreamD1Ev
 393 00e3 66666666 		.p2align 4,,15
 393      2E0F1F84 
 393      00000000 
 393      00
 394              		.weak	_ZTv0_n24_N8UnitTest15MemoryOutStreamD1Ev
 396              	_ZTv0_n24_N8UnitTest15MemoryOutStreamD1Ev:
 397              	.LFB1255:
 398              		.cfi_startproc
 399 00f0 4C8B17   		movq	(%rdi), %r10
 400 00f3 49037AE8 		addq	-24(%r10), %rdi
 401 00f7 E904FFFF 		jmp	.LTHUNK0
 401      FF
 402              		.cfi_endproc
 403              	.LFE1255:
 405              		.section	.text._ZN8UnitTest15MemoryOutStreamD0Ev,"axG",@progbits,_ZN8UnitTest15MemoryOutStreamD0Ev
 406              		.align 2
 407              		.p2align 4,,15
 408              		.weak	_ZN8UnitTest15MemoryOutStreamD0Ev
 410              	_ZN8UnitTest15MemoryOutStreamD0Ev:
 411              	.LFB1167:
 412              		.cfi_startproc
 413 0000 53       		pushq	%rbx
 414              		.cfi_def_cfa_offset 16
 415              		.cfi_offset 3, -16
 416 0001 4889FB   		movq	%rdi, %rbx
 417 0004 4883EC10 		subq	$16, %rsp
 418              		.cfi_def_cfa_offset 32
 419 0008 488B4758 		movq	88(%rdi), %rax
 420 000c 48C70700 		movq	$_ZTVN8UnitTest15MemoryOutStreamE+24, (%rdi)
 420      000000
 421 0013 48C74760 		movq	$_ZTVN8UnitTest15MemoryOutStreamE+64, 96(%rdi)
 421      00000000 
 422 001b 488D78E8 		leaq	-24(%rax), %rdi
 423 001f 4881FF00 		cmpq	$_ZNSs4_Rep20_S_empty_rep_storageE, %rdi
 423      000000
 424 0026 755F     		jne	.L61
 425              	.L51:
 426 0028 488B4350 		movq	80(%rbx), %rax
 427 002c 48C70300 		movq	$_ZTCN8UnitTest15MemoryOutStreamE0_St19basic_ostringstreamIcSt11char_traitsIcESaIcEE+24, (%rb
 427      000000
 428 0033 48C74360 		movq	$_ZTCN8UnitTest15MemoryOutStreamE0_St19basic_ostringstreamIcSt11char_traitsIcESaIcEE+64, 96(%
 428      00000000 
 429 003b 48C74308 		movq	$_ZTVSt15basic_stringbufIcSt11char_traitsIcESaIcEE+16, 8(%rbx)
 429      00000000 
 430 0043 488D78E8 		leaq	-24(%rax), %rdi
 431 0047 4881FF00 		cmpq	$_ZNSs4_Rep20_S_empty_rep_storageE, %rdi
 431      000000
 432 004e 755F     		jne	.L62
 433              	.L56:
 434 0050 488D7B40 		leaq	64(%rbx), %rdi
 435 0054 48C74308 		movq	$_ZTVSt15basic_streambufIcSt11char_traitsIcEE+16, 8(%rbx)
 435      00000000 
 436 005c E8000000 		call	_ZNSt6localeD1Ev
 436      00
 437 0061 488D7B60 		leaq	96(%rbx), %rdi
 438 0065 48C70300 		movq	$_ZTCN8UnitTest15MemoryOutStreamE0_So+24, (%rbx)
 438      000000
 439 006c 48C74360 		movq	$_ZTVSt9basic_iosIcSt11char_traitsIcEE+16, 96(%rbx)
 439      00000000 
 440 0074 E8000000 		call	_ZNSt8ios_baseD2Ev
 440      00
 441 0079 4889DF   		movq	%rbx, %rdi
 442 007c E8000000 		call	_ZdlPv
 442      00
 443 0081 4883C410 		addq	$16, %rsp
 444              		.cfi_remember_state
 445              		.cfi_def_cfa_offset 16
 446 0085 5B       		popq	%rbx
 447              		.cfi_def_cfa_offset 8
 448 0086 C3       		ret
 449              	.L61:
 450              		.cfi_restore_state
 451 0087 B9000000 		movl	$_ZL28__gthrw___pthread_key_createPjPFvPvE, %ecx
 451      00
 452 008c 488D5710 		leaq	16(%rdi), %rdx
 453 0090 4885C9   		testq	%rcx, %rcx
 454 0093 7442     		je	.L52
 455 0095 83C8FF   		orl	$-1, %eax
 456 0098 F00FC102 		lock xaddl	%eax, (%rdx)
 457              	.L53:
 458 009c 85C0     		testl	%eax, %eax
 459 009e 7F88     		jg	.L51
 460 00a0 488D7424 		leaq	15(%rsp), %rsi
 460      0F
 461 00a5 E8000000 		call	_ZNSs4_Rep10_M_destroyERKSaIcE
 461      00
 462 00aa E979FFFF 		jmp	.L51
 462      FF
 463              	.L62:
 464 00af B9000000 		movl	$_ZL28__gthrw___pthread_key_createPjPFvPvE, %ecx
 464      00
 465 00b4 488D5710 		leaq	16(%rdi), %rdx
 466 00b8 4885C9   		testq	%rcx, %rcx
 467 00bb 7427     		je	.L57
 468 00bd 83C8FF   		orl	$-1, %eax
 469 00c0 F00FC102 		lock xaddl	%eax, (%rdx)
 470              	.L58:
 471 00c4 85C0     		testl	%eax, %eax
 472 00c6 7F88     		jg	.L56
 473 00c8 488D7424 		leaq	15(%rsp), %rsi
 473      0F
 474 00cd E8000000 		call	_ZNSs4_Rep10_M_destroyERKSaIcE
 474      00
 475 00d2 E979FFFF 		jmp	.L56
 475      FF
 476              	.L52:
 477 00d7 8B50F8   		movl	-8(%rax), %edx
 478 00da 8D4AFF   		leal	-1(%rdx), %ecx
 479 00dd 8948F8   		movl	%ecx, -8(%rax)
 480 00e0 89D0     		movl	%edx, %eax
 481 00e2 EBB8     		jmp	.L53
 482              	.L57:
 483 00e4 8B50F8   		movl	-8(%rax), %edx
 484 00e7 8D4AFF   		leal	-1(%rdx), %ecx
 485 00ea 8948F8   		movl	%ecx, -8(%rax)
 486 00ed 89D0     		movl	%edx, %eax
 487 00ef EBD3     		jmp	.L58
 488              		.cfi_endproc
 489              	.LFE1167:
 491              		.set	.LTHUNK1,_ZN8UnitTest15MemoryOutStreamD0Ev
 492 00f1 66666666 		.p2align 4,,15
 492      66662E0F 
 492      1F840000 
 492      000000
 493              		.weak	_ZTv0_n24_N8UnitTest15MemoryOutStreamD0Ev
 495              	_ZTv0_n24_N8UnitTest15MemoryOutStreamD0Ev:
 496              	.LFB1256:
 497              		.cfi_startproc
 498 0100 4C8B17   		movq	(%rdi), %r10
 499 0103 49037AE8 		addq	-24(%r10), %rdi
 500 0107 E9F4FEFF 		jmp	.LTHUNK1
 500      FF
 501              		.cfi_endproc
 502              	.LFE1256:
 504              		.section	.rodata.str1.1,"aMS",@progbits,1
 505              	.LC0:
 506 0000 44617461 		.string	"Dataset %d\n"
 506      73657420 
 506      25640A00 
 507              	.LC1:
 508 000c 20205B25 		.string	"  [%d] %s:%s\n"
 508      645D2025 
 508      733A2573 
 508      0A00
 509              	.LC2:
 510 001a 45787065 		.string	"Expected "
 510      63746564 
 510      2000
 511              	.LC3:
 512 0024 20627574 		.string	" but was "
 512      20776173 
 512      2000
 513              		.section	.rodata.str1.8,"aMS",@progbits,1
 514              		.align 8
 515              	.LC4:
 516 0000 556E6861 		.string	"Unhandled exception in CHECK_EQUAL(sExpected, sActual)"
 516      6E646C65 
 516      64206578 
 516      63657074 
 516      696F6E20 
 517 0037 00       		.align 8
 518              	.LC5:
 519 0038 556E6861 		.string	"Unhandled exception in CHECK_EQUAL(expected, actual)"
 519      6E646C65 
 519      64206578 
 519      63657074 
 519      696F6E20 
 520              		.section	.rodata.str1.1
 521              	.LC6:
 522 002e 2A2A7045 		.string	"**pExpected == XCOMPLETE"
 522      78706563 
 522      74656420 
 522      3D3D2058 
 522      434F4D50 
 523              	.LC7:
 524 0047 2A2A7041 		.string	"**pActual == XCOMPLETE"
 524      63747561 
 524      6C203D3D 
 524      2058434F 
 524      4D504C45 
 525              		.section	.rodata.str1.8
 526 006d 000000   		.align 8
 527              	.LC8:
 528 0070 556E6861 		.string	"Unhandled exception in CHECK(**pExpected == XCOMPLETE)"
 528      6E646C65 
 528      64206578 
 528      63657074 
 528      696F6E20 
 529 00a7 00       		.align 8
 530              	.LC9:
 531 00a8 556E6861 		.string	"Unhandled exception in CHECK(**pActual == XCOMPLETE)"
 531      6E646C65 
 531      64206578 
 531      63657074 
 531      696F6E20 
 532              		.text
 533              		.align 2
 534              		.p2align 4,,15
 535              		.globl	_ZNK29TestFPGALink_testProcessIndex7RunImplEv
 537              	_ZNK29TestFPGALink_testProcessIndex7RunImplEv:
 538              	.LFB1131:
 539              		.cfi_startproc
 540              		.cfi_personality 0x3,__gxx_personality_v0
 541              		.cfi_lsda 0x3,.LLSDA1131
 542 0000 4157     		pushq	%r15
 543              		.cfi_def_cfa_offset 16
 544              		.cfi_offset 15, -16
 545 0002 4156     		pushq	%r14
 546              		.cfi_def_cfa_offset 24
 547              		.cfi_offset 14, -24
 548 0004 4155     		pushq	%r13
 549              		.cfi_def_cfa_offset 32
 550              		.cfi_offset 13, -32
 551 0006 4154     		pushq	%r12
 552              		.cfi_def_cfa_offset 40
 553              		.cfi_offset 12, -40
 554 0008 55       		pushq	%rbp
 555              		.cfi_def_cfa_offset 48
 556              		.cfi_offset 6, -48
 557 0009 53       		pushq	%rbx
 558              		.cfi_def_cfa_offset 56
 559              		.cfi_offset 3, -56
 560 000a 4881ECB8 		subq	$9912, %rsp
 560      260000
 561              		.cfi_def_cfa_offset 9968
 562 0011 488D5424 		leaq	96(%rsp), %rdx
 562      60
 563 0016 488D4C24 		leaq	64(%rsp), %rcx
 563      40
 564 001b 488D7C24 		leaq	80(%rsp), %rdi
 564      50
 565 0020 488DB424 		leaq	9872(%rsp), %rsi
 565      90260000 
 566 0028 488D5C24 		leaq	32(%rsp), %rbx
 566      20
 567 002d 4C8D8424 		leaq	9856(%rsp), %r8
 567      80260000 
 568 0035 4C8D4C24 		leaq	112(%rsp), %r9
 568      70
 569 003a 4C8D9424 		leaq	9888(%rsp), %r10
 569      A0260000 
 570 0042 C6842480 		movb	$4, 9856(%rsp)
 570      26000004 
 571 004a 64488B04 		movq	%fs:40, %rax
 571      25280000 
 571      00
 572 0053 48898424 		movq	%rax, 9896(%rsp)
 572      A8260000 
 573 005b 31C0     		xorl	%eax, %eax
 574 005d 488D4424 		leaq	48(%rsp), %rax
 574      30
 575 0062 C6842481 		movb	$0, 9857(%rsp)
 575      26000000 
 576 006a C6842482 		movb	$0, 9858(%rsp)
 576      26000000 
 577 0072 C6842483 		movb	$0, 9859(%rsp)
 577      26000000 
 578 007a C6842484 		movb	$0, 9860(%rsp)
 578      26000000 
 579 0082 C6842490 		movb	$4, 9872(%rsp)
 579      26000004 
 580 008a C6842491 		movb	$0, 9873(%rsp)
 580      26000000 
 581 0092 C6842492 		movb	$0, 9874(%rsp)
 581      26000000 
 582 009a C6842493 		movb	$0, 9875(%rsp)
 582      26000000 
 583 00a2 C6842494 		movb	$10, 9876(%rsp)
 583      2600000A 
 584 00aa C68424A0 		movb	$4, 9888(%rsp)
 584      26000004 
 585 00b2 C68424A1 		movb	$0, 9889(%rsp)
 585      26000000 
 586 00ba C68424A2 		movb	$0, 9890(%rsp)
 586      26000000 
 587 00c2 C68424A3 		movb	$39, 9891(%rsp)
 587      26000027 
 588 00ca C68424A4 		movb	$16, 9892(%rsp)
 588      26000010 
 589 00d2 C6442420 		movb	$0, 32(%rsp)
 589      00
 590 00d7 C6442430 		movb	$3, 48(%rsp)
 590      03
 591 00dc C6442440 		movb	$8, 64(%rsp)
 591      08
 592 00e1 C6442450 		movb	$9, 80(%rsp)
 592      09
 593 00e6 C6442460 		movb	$2, 96(%rsp)
 593      02
 594 00eb C6442470 		movb	$1, 112(%rsp)
 594      01
 595 00f0 48899424 		movq	%rdx, 720(%rsp)
 595      D0020000 
 596 00f8 48898C24 		movq	%rcx, 728(%rsp)
 596      D8020000 
 597 0100 4C898C24 		movq	%r9, 736(%rsp)
 597      E0020000 
 598 0108 4889BC24 		movq	%rdi, 744(%rsp)
 598      E8020000 
 599 0110 48899424 		movq	%rdx, 752(%rsp)
 599      F0020000 
 600 0118 48898424 		movq	%rax, 864(%rsp)
 600      60030000 
 601 0120 48898424 		movq	%rax, 896(%rsp)
 601      80030000 
 602 0128 48898424 		movq	%rax, 904(%rsp)
 602      88030000 
 603 0130 48898424 		movq	%rax, 912(%rsp)
 603      90030000 
 604 0138 48898424 		movq	%rax, 920(%rsp)
 604      98030000 
 605 0140 48898424 		movq	%rax, 928(%rsp)
 605      A0030000 
 606 0148 48898424 		movq	%rax, 936(%rsp)
 606      A8030000 
 607 0150 48898424 		movq	%rax, 944(%rsp)
 607      B0030000 
 608 0158 48898424 		movq	%rax, 952(%rsp)
 608      B8030000 
 609 0160 48898424 		movq	%rax, 960(%rsp)
 609      C0030000 
 610 0168 48898424 		movq	%rax, 968(%rsp)
 610      C8030000 
 611 0170 4889BC24 		movq	%rdi, 760(%rsp)
 611      F8020000 
 612 0178 48899424 		movq	%rdx, 768(%rsp)
 612      00030000 
 613 0180 4889BC24 		movq	%rdi, 776(%rsp)
 613      08030000 
 614 0188 48899424 		movq	%rdx, 784(%rsp)
 614      10030000 
 615 0190 48899424 		movq	%rdx, 792(%rsp)
 615      18030000 
 616 0198 4889BC24 		movq	%rdi, 800(%rsp)
 616      20030000 
 617 01a0 48899424 		movq	%rdx, 808(%rsp)
 617      28030000 
 618 01a8 4889B424 		movq	%rsi, 816(%rsp)
 618      30030000 
 619 01b0 48899424 		movq	%rdx, 824(%rsp)
 619      38030000 
 620 01b8 48899424 		movq	%rdx, 832(%rsp)
 620      40030000 
 621 01c0 4C899424 		movq	%r10, 840(%rsp)
 621      48030000 
 622 01c8 48899424 		movq	%rdx, 848(%rsp)
 622      50030000 
 623 01d0 48898C24 		movq	%rcx, 856(%rsp)
 623      58030000 
 624 01d8 4889B424 		movq	%rsi, 872(%rsp)
 624      68030000 
 625 01e0 48899424 		movq	%rdx, 880(%rsp)
 625      70030000 
 626 01e8 48898C24 		movq	%rcx, 888(%rsp)
 626      78030000 
 627 01f0 48899C24 		movq	%rbx, 976(%rsp)
 627      D0030000 
 628 01f8 4C898424 		movq	%r8, 992(%rsp)
 628      E0030000 
 629 0200 48899424 		movq	%rdx, 1000(%rsp)
 629      E8030000 
 630 0208 48898C24 		movq	%rcx, 1008(%rsp)
 630      F0030000 
 631 0210 4C898C24 		movq	%r9, 1016(%rsp)
 631      F8030000 
 632 0218 4889BC24 		movq	%rdi, 1024(%rsp)
 632      00040000 
 633 0220 48899424 		movq	%rdx, 1032(%rsp)
 633      08040000 
 634 0228 48898424 		movq	%rax, 1168(%rsp)
 634      90040000 
 635 0230 48898424 		movq	%rax, 1200(%rsp)
 635      B0040000 
 636 0238 48898424 		movq	%rax, 1208(%rsp)
 636      B8040000 
 637 0240 48898424 		movq	%rax, 1216(%rsp)
 637      C0040000 
 638 0248 48898424 		movq	%rax, 1224(%rsp)
 638      C8040000 
 639 0250 48898424 		movq	%rax, 1232(%rsp)
 639      D0040000 
 640 0258 48898424 		movq	%rax, 1240(%rsp)
 640      D8040000 
 641 0260 48898424 		movq	%rax, 1248(%rsp)
 641      E0040000 
 642 0268 48898424 		movq	%rax, 1256(%rsp)
 642      E8040000 
 643 0270 48898424 		movq	%rax, 1264(%rsp)
 643      F0040000 
 644 0278 48898424 		movq	%rax, 1272(%rsp)
 644      F8040000 
 645 0280 4889BC24 		movq	%rdi, 1040(%rsp)
 645      10040000 
 646 0288 48899424 		movq	%rdx, 1048(%rsp)
 646      18040000 
 647 0290 4889BC24 		movq	%rdi, 1056(%rsp)
 647      20040000 
 648 0298 48899424 		movq	%rdx, 1064(%rsp)
 648      28040000 
 649 02a0 48899424 		movq	%rdx, 1072(%rsp)
 649      30040000 
 650 02a8 4889BC24 		movq	%rdi, 1080(%rsp)
 650      38040000 
 651 02b0 4889B424 		movq	%rsi, 1088(%rsp)
 651      40040000 
 652 02b8 48899424 		movq	%rdx, 1096(%rsp)
 652      48040000 
 653 02c0 4C898424 		movq	%r8, 1104(%rsp)
 653      50040000 
 654 02c8 48899424 		movq	%rdx, 1112(%rsp)
 654      58040000 
 655 02d0 4C899424 		movq	%r10, 1120(%rsp)
 655      60040000 
 656 02d8 48899424 		movq	%rdx, 1128(%rsp)
 656      68040000 
 657 02e0 4C898424 		movq	%r8, 1136(%rsp)
 657      70040000 
 658 02e8 48899424 		movq	%rdx, 1144(%rsp)
 658      78040000 
 659 02f0 4889B424 		movq	%rsi, 1152(%rsp)
 659      80040000 
 660 02f8 48898C24 		movq	%rcx, 1160(%rsp)
 660      88040000 
 661 0300 4C898424 		movq	%r8, 1176(%rsp)
 661      98040000 
 662 0308 48899424 		movq	%rdx, 1184(%rsp)
 662      A0040000 
 663 0310 48898C24 		movq	%rcx, 1192(%rsp)
 663      A8040000 
 664 0318 48899C24 		movq	%rbx, 1280(%rsp)
 664      00050000 
 665 0320 48899424 		movq	%rdx, 160(%rsp)
 665      A0000000 
 666 0328 48898C24 		movq	%rcx, 168(%rsp)
 666      A8000000 
 667 0330 48898424 		movq	%rax, 176(%rsp)
 667      B0000000 
 668 0338 48898424 		movq	%rax, 184(%rsp)
 668      B8000000 
 669 0340 48898424 		movq	%rax, 328(%rsp)
 669      48010000 
 670 0348 48898424 		movq	%rax, 336(%rsp)
 670      50010000 
 671 0350 48898424 		movq	%rax, 368(%rsp)
 671      70010000 
 672 0358 48898424 		movq	%rax, 376(%rsp)
 672      78010000 
 673 0360 48898424 		movq	%rax, 472(%rsp)
 673      D8010000 
 674 0368 48898424 		movq	%rax, 488(%rsp)
 674      E8010000 
 675 0370 48898424 		movq	%rax, 416(%rsp)
 675      A0010000 
 676 0378 48898424 		movq	%rax, 432(%rsp)
 676      B0010000 
 677 0380 48898424 		movq	%rax, 544(%rsp)
 677      20020000 
 678 0388 48899C24 		movq	%rbx, 192(%rsp)
 678      C0000000 
 679 0390 4C898424 		movq	%r8, 304(%rsp)
 679      30010000 
 680 0398 48899424 		movq	%rdx, 312(%rsp)
 680      38010000 
 681 03a0 48898C24 		movq	%rcx, 320(%rsp)
 681      40010000 
 682 03a8 48899C24 		movq	%rbx, 344(%rsp)
 682      58010000 
 683 03b0 48899424 		movq	%rdx, 352(%rsp)
 683      60010000 
 684 03b8 48898C24 		movq	%rcx, 360(%rsp)
 684      68010000 
 685 03c0 4889B424 		movq	%rsi, 384(%rsp)
 685      80010000 
 686 03c8 48899C24 		movq	%rbx, 392(%rsp)
 686      88010000 
 687 03d0 4C898424 		movq	%r8, 448(%rsp)
 687      C0010000 
 688 03d8 48899424 		movq	%rdx, 456(%rsp)
 688      C8010000 
 689 03e0 48898C24 		movq	%rcx, 464(%rsp)
 689      D0010000 
 690 03e8 4889B424 		movq	%rsi, 480(%rsp)
 690      E0010000 
 691 03f0 48899C24 		movq	%rbx, 496(%rsp)
 691      F0010000 
 692 03f8 48899424 		movq	%rdx, 400(%rsp)
 692      90010000 
 693 0400 48898C24 		movq	%rcx, 408(%rsp)
 693      98010000 
 694 0408 4889B424 		movq	%rsi, 424(%rsp)
 694      A8010000 
 695 0410 48899C24 		movq	%rbx, 440(%rsp)
 695      B8010000 
 696 0418 4C898424 		movq	%r8, 512(%rsp)
 696      00020000 
 697 0420 48899424 		movq	%rdx, 520(%rsp)
 697      08020000 
 698 0428 4889B424 		movq	%rsi, 528(%rsp)
 698      10020000 
 699 0430 48898C24 		movq	%rcx, 536(%rsp)
 699      18020000 
 700 0438 4C898424 		movq	%r8, 552(%rsp)
 700      28020000 
 701 0440 48898424 		movq	%rax, 560(%rsp)
 701      30020000 
 702 0448 48898424 		movq	%rax, 616(%rsp)
 702      68020000 
 703 0450 48898424 		movq	%rax, 696(%rsp)
 703      B8020000 
 704 0458 488D8424 		leaq	720(%rsp), %rax
 704      D0020000 
 705 0460 48899C24 		movq	%rbx, 568(%rsp)
 705      38020000 
 706 0468 48899424 		movq	%rdx, 576(%rsp)
 706      40020000 
 707 0470 48898C24 		movq	%rcx, 584(%rsp)
 707      48020000 
 708 0478 48898424 		movq	%rax, 208(%rsp)
 708      D0000000 
 709 0480 488D8424 		leaq	160(%rsp), %rax
 709      A0000000 
 710 0488 4C898C24 		movq	%r9, 592(%rsp)
 710      50020000 
 711 0490 4889BC24 		movq	%rdi, 600(%rsp)
 711      58020000 
 712 0498 48898C24 		movq	%rcx, 608(%rsp)
 712      60020000 
 713 04a0 48898424 		movq	%rax, 216(%rsp)
 713      D8000000 
 714 04a8 488D8424 		leaq	352(%rsp), %rax
 714      60010000 
 715 04b0 4889B424 		movq	%rsi, 624(%rsp)
 715      70020000 
 716 04b8 48899C24 		movq	%rbx, 632(%rsp)
 716      78020000 
 717 04c0 4C898424 		movq	%r8, 640(%rsp)
 717      80020000 
 718 04c8 48898424 		movq	%rax, 224(%rsp)
 718      E0000000 
 719 04d0 488D8424 		leaq	400(%rsp), %rax
 719      90010000 
 720 04d8 48899424 		movq	%rdx, 648(%rsp)
 720      88020000 
 721 04e0 48898C24 		movq	%rcx, 656(%rsp)
 721      90020000 
 722 04e8 4C898C24 		movq	%r9, 664(%rsp)
 722      98020000 
 723 04f0 48898424 		movq	%rax, 232(%rsp)
 723      E8000000 
 724 04f8 488D8424 		leaq	576(%rsp), %rax
 724      40020000 
 725 0500 4889BC24 		movq	%rdi, 672(%rsp)
 725      A0020000 
 726 0508 4889B424 		movq	%rsi, 680(%rsp)
 726      A8020000 
 727 0510 48898C24 		movq	%rcx, 688(%rsp)
 727      B0020000 
 728 0518 48898424 		movq	%rax, 240(%rsp)
 728      F0000000 
 729 0520 488D8424 		leaq	992(%rsp), %rax
 729      E0030000 
 730 0528 48899C24 		movq	%rbx, 704(%rsp)
 730      C0020000 
 731 0530 48C74424 		movq	$0, 24(%rsp)
 731      18000000 
 731      00
 732 0539 48898424 		movq	%rax, 256(%rsp)
 732      00010000 
 733 0541 488D8424 		leaq	304(%rsp), %rax
 733      30010000 
 734 0549 48898424 		movq	%rax, 264(%rsp)
 734      08010000 
 735 0551 488D8424 		leaq	448(%rsp), %rax
 735      C0010000 
 736 0559 48898424 		movq	%rax, 272(%rsp)
 736      10010000 
 737 0561 488D8424 		leaq	512(%rsp), %rax
 737      00020000 
 738 0569 48898424 		movq	%rax, 280(%rsp)
 738      18010000 
 739 0571 488D8424 		leaq	640(%rsp), %rax
 739      80020000 
 740 0579 48898424 		movq	%rax, 288(%rsp)
 740      20010000 
 741 0581 488D8424 		leaq	1392(%rsp), %rax
 741      70050000 
 742 0589 48894424 		movq	%rax, 16(%rsp)
 742      10
 743              	.L93:
 744 058e 488B5C24 		movq	24(%rsp), %rbx
 744      18
 745 0593 BE000000 		movl	$.LC0, %esi
 745      00
 746 0598 BF010000 		movl	$1, %edi
 746      00
 747 059d 31C0     		xorl	%eax, %eax
 748 059f 4C8DA424 		leaq	1664(%rsp), %r12
 748      80060000 
 749 05a7 89DA     		movl	%ebx, %edx
 750              	.LEHB0:
 751 05a9 E8000000 		call	__printf_chk
 751      00
 752 05ae 488BBCDC 		movq	208(%rsp,%rbx,8), %rdi
 752      D0000000 
 753 05b6 488DB424 		leaq	1664(%rsp), %rsi
 753      80060000 
 754 05be E8000000 		call	processIndex
 754      00
 755 05c3 4C8BACDC 		movq	256(%rsp,%rbx,8), %r13
 755      00010000 
 756 05cb 31D2     		xorl	%edx, %edx
 757 05cd EB05     		jmp	.L64
 758 05cf 90       		.p2align 4,,10
 759              		.p2align 3
 760              	.L65:
 761 05d0 8B542404 		movl	4(%rsp), %edx
 762              	.L64:
 763 05d4 498B5D00 		movq	0(%r13), %rbx
 764 05d8 803B00   		cmpb	$0, (%rbx)
 765 05db 0F845F03 		je	.L119
 765      0000
 766 05e1 498B2C24 		movq	(%r12), %rbp
 767 05e5 807D0000 		cmpb	$0, 0(%rbp)
 768 05e9 0F84D103 		je	.L120
 768      0000
 769 05ef 8D4201   		leal	1(%rdx), %eax
 770 05f2 4889DF   		movq	%rbx, %rdi
 771 05f5 89542408 		movl	%edx, 8(%rsp)
 772 05f9 4983C408 		addq	$8, %r12
 773 05fd 4983C508 		addq	$8, %r13
 774 0601 89442404 		movl	%eax, 4(%rsp)
 775 0605 E8000000 		call	getCmdName
 775      00
 776 060a 4889EF   		movq	%rbp, %rdi
 777 060d 4989C6   		movq	%rax, %r14
 778 0610 E8000000 		call	getCmdName
 778      00
 779 0615 4989C7   		movq	%rax, %r15
 780 0618 0FB603   		movzbl	(%rbx), %eax
 781 061b 8B542408 		movl	8(%rsp), %edx
 782 061f 4D89F8   		movq	%r15, %r8
 783 0622 4C89F1   		movq	%r14, %rcx
 784 0625 BE000000 		movl	$.LC1, %esi
 784      00
 785 062a BF010000 		movl	$1, %edi
 785      00
 786 062f 8844240F 		movb	%al, 15(%rsp)
 787 0633 0FB64500 		movzbl	0(%rbp), %eax
 788 0637 8844240E 		movb	%al, 14(%rsp)
 789 063b 31C0     		xorl	%eax, %eax
 790 063d E8000000 		call	__printf_chk
 790      00
 791              	.LEHE0:
 792              	.LEHB1:
 793 0642 E8000000 		call	_ZN8UnitTest11CurrentTest7DetailsEv
 793      00
 794 0647 488B30   		movq	(%rax), %rsi
 795 064a 488DBC24 		leaq	128(%rsp), %rdi
 795      80000000 
 796 0652 BA890200 		movl	$649, %edx
 796      00
 797 0657 E8000000 		call	_ZN8UnitTest11TestDetailsC1ERKS0_i
 797      00
 798 065c E8000000 		call	_ZN8UnitTest11CurrentTest7ResultsEv
 798      00
 799 0661 488B38   		movq	(%rax), %rdi
 800 0664 488D8C24 		leaq	128(%rsp), %rcx
 800      80000000 
 801 066c 4C89FA   		movq	%r15, %rdx
 802 066f 4C89F6   		movq	%r14, %rsi
 803 0672 E8000000 		call	_ZN8UnitTest10CheckEqualERNS_11TestResultsEPKcS3_RKNS_11TestDetailsE
 803      00
 804              	.LEHE1:
 805              	.L85:
 806 0677 807C240E 		cmpb	$4, 14(%rsp)
 806      04
 807 067c 0F854EFF 		jne	.L65
 807      FFFF
 808 0682 807C240F 		cmpb	$4, 15(%rsp)
 808      04
 809 0687 0F8543FF 		jne	.L65
 809      FFFF
 810 068d 488D7B01 		leaq	1(%rbx), %rdi
 811              	.LEHB2:
 812 0691 E8000000 		call	readLongBE
 812      00
 813 0696 488D7D01 		leaq	1(%rbp), %rdi
 814 069a 4189C6   		movl	%eax, %r14d
 815 069d E8000000 		call	readLongBE
 815      00
 816              	.LEHE2:
 817 06a2 89C3     		movl	%eax, %ebx
 818              	.LEHB3:
 819 06a4 E8000000 		call	_ZN8UnitTest11CurrentTest7DetailsEv
 819      00
 820 06a9 488B30   		movq	(%rax), %rsi
 821 06ac 488DBC24 		leaq	128(%rsp), %rdi
 821      80000000 
 822 06b4 BA8D0200 		movl	$653, %edx
 822      00
 823 06b9 E8000000 		call	_ZN8UnitTest11TestDetailsC1ERKS0_i
 823      00
 824 06be E8000000 		call	_ZN8UnitTest11CurrentTest7ResultsEv
 824      00
 825              	.LEHE3:
 826 06c3 4139DE   		cmpl	%ebx, %r14d
 827 06c6 488B28   		movq	(%rax), %rbp
 828 06c9 0F8401FF 		je	.L65
 828      FFFF
 829 06cf 4C8B7C24 		movq	16(%rsp), %r15
 829      10
 830 06d4 4C89FF   		movq	%r15, %rdi
 831 06d7 E8000000 		call	_ZNSt8ios_baseC2Ev
 831      00
 832 06dc 31F6     		xorl	%esi, %esi
 833 06de 4C89FF   		movq	%r15, %rdi
 834 06e1 48C78424 		movq	$0, 1608(%rsp)
 834      48060000 
 834      00000000 
 835 06ed C6842450 		movb	$0, 1616(%rsp)
 835      06000000 
 836 06f5 C6842451 		movb	$0, 1617(%rsp)
 836      06000000 
 837 06fd 48C78424 		movq	$0, 1624(%rsp)
 837      58060000 
 837      00000000 
 838 0709 48C78424 		movq	$0, 1632(%rsp)
 838      60060000 
 838      00000000 
 839 0715 48C78424 		movq	$0, 1640(%rsp)
 839      68060000 
 839      00000000 
 840 0721 48C78424 		movq	$0, 1648(%rsp)
 840      70060000 
 840      00000000 
 841 072d 48C78424 		movq	$_ZTCN8UnitTest15MemoryOutStreamE0_So+24, 1296(%rsp)
 841      10050000 
 841      00000000 
 842 0739 48C78424 		movq	$_ZTCN8UnitTest15MemoryOutStreamE0_So+64, 1392(%rsp)
 842      70050000 
 842      00000000 
 843              	.LEHB4:
 844 0745 E8000000 		call	_ZNSt9basic_iosIcSt11char_traitsIcEE4initEPSt15basic_streambufIcS1_E
 844      00
 845              	.LEHE4:
 846 074a 488DBC24 		leaq	1360(%rsp), %rdi
 846      50050000 
 847 0752 48C78424 		movq	$_ZTCN8UnitTest15MemoryOutStreamE0_St19basic_ostringstreamIcSt11char_traitsIcESaIcEE+24, 1296
 847      10050000 
 847      00000000 
 848 075e 48C78424 		movq	$_ZTCN8UnitTest15MemoryOutStreamE0_St19basic_ostringstreamIcSt11char_traitsIcESaIcEE+64, 1392
 848      70050000 
 848      00000000 
 849 076a 48C78424 		movq	$_ZTVSt15basic_streambufIcSt11char_traitsIcEE+16, 1304(%rsp)
 849      18050000 
 849      00000000 
 850 0776 48C78424 		movq	$0, 1312(%rsp)
 850      20050000 
 850      00000000 
 851 0782 48C78424 		movq	$0, 1320(%rsp)
 851      28050000 
 851      00000000 
 852 078e 48C78424 		movq	$0, 1328(%rsp)
 852      30050000 
 852      00000000 
 853 079a 48C78424 		movq	$0, 1336(%rsp)
 853      38050000 
 853      00000000 
 854 07a6 48C78424 		movq	$0, 1344(%rsp)
 854      40050000 
 854      00000000 
 855 07b2 48C78424 		movq	$0, 1352(%rsp)
 855      48050000 
 855      00000000 
 856 07be E8000000 		call	_ZNSt6localeC1Ev
 856      00
 857 07c3 488B8424 		movq	1296(%rsp), %rax
 857      10050000 
 858 07cb 488DBC24 		leaq	1296(%rsp), %rdi
 858      10050000 
 859 07d3 488DB424 		leaq	1304(%rsp), %rsi
 859      18050000 
 860 07db 48C78424 		movq	$_ZTVSt15basic_stringbufIcSt11char_traitsIcESaIcEE+16, 1304(%rsp)
 860      18050000 
 860      00000000 
 861 07e7 C7842458 		movl	$16, 1368(%rsp)
 861      05000010 
 861      000000
 862 07f2 48C78424 		movq	$_ZNSs4_Rep20_S_empty_rep_storageE+24, 1376(%rsp)
 862      60050000 
 862      00000000 
 863 07fe 480378E8 		addq	-24(%rax), %rdi
 864              	.LEHB5:
 865 0802 E8000000 		call	_ZNSt9basic_iosIcSt11char_traitsIcEE4initEPSt15basic_streambufIcS1_E
 865      00
 866              	.LEHE5:
 867 0807 488DBC24 		leaq	1296(%rsp), %rdi
 867      10050000 
 868 080f BA090000 		movl	$9, %edx
 868      00
 869 0814 BE000000 		movl	$.LC2, %esi
 869      00
 870 0819 48C78424 		movq	$_ZTVN8UnitTest15MemoryOutStreamE+24, 1296(%rsp)
 870      10050000 
 870      00000000 
 871 0825 48C78424 		movq	$_ZTVN8UnitTest15MemoryOutStreamE+64, 1392(%rsp)
 871      70050000 
 871      00000000 
 872 0831 48C78424 		movq	$_ZNSs4_Rep20_S_empty_rep_storageE+24, 1384(%rsp)
 872      68050000 
 872      00000000 
 873              	.LEHB6:
 874 083d E8000000 		call	_ZSt16__ostream_insertIcSt11char_traitsIcEERSt13basic_ostreamIT_T0_ES6_PKS3_l
 874      00
 875 0842 488DBC24 		leaq	1296(%rsp), %rdi
 875      10050000 
 876 084a 4489F6   		movl	%r14d, %esi
 877 084d E8000000 		call	_ZNSo9_M_insertImEERSoT_
 877      00
 878 0852 BA090000 		movl	$9, %edx
 878      00
 879 0857 BE000000 		movl	$.LC3, %esi
 879      00
 880 085c 4889C7   		movq	%rax, %rdi
 881 085f 4989C6   		movq	%rax, %r14
 882 0862 E8000000 		call	_ZSt16__ostream_insertIcSt11char_traitsIcEERSt13basic_ostreamIT_T0_ES6_PKS3_l
 882      00
 883 0867 89DE     		movl	%ebx, %esi
 884 0869 4C89F7   		movq	%r14, %rdi
 885 086c E8000000 		call	_ZNSo9_M_insertImEERSoT_
 885      00
 886 0871 488DBC24 		leaq	1296(%rsp), %rdi
 886      10050000 
 887 0879 E8000000 		call	_ZNK8UnitTest15MemoryOutStream7GetTextEv
 887      00
 888 087e 488DB424 		leaq	128(%rsp), %rsi
 888      80000000 
 889 0886 4889C2   		movq	%rax, %rdx
 890 0889 4889EF   		movq	%rbp, %rdi
 891 088c E8000000 		call	_ZN8UnitTest11TestResults13OnTestFailureERKNS_11TestDetailsEPKc
 891      00
 892              	.LEHE6:
 893 0891 488B8424 		movq	1384(%rsp), %rax
 893      68050000 
 894 0899 48C78424 		movq	$_ZTVN8UnitTest15MemoryOutStreamE+24, 1296(%rsp)
 894      10050000 
 894      00000000 
 895 08a5 48C78424 		movq	$_ZTVN8UnitTest15MemoryOutStreamE+64, 1392(%rsp)
 895      70050000 
 895      00000000 
 896 08b1 488D78E8 		leaq	-24(%rax), %rdi
 897 08b5 4881FF00 		cmpq	$_ZNSs4_Rep20_S_empty_rep_storageE, %rdi
 897      000000
 898 08bc 0F858701 		jne	.L121
 898      0000
 899              	.L73:
 900 08c2 488B8424 		movq	1376(%rsp), %rax
 900      60050000 
 901 08ca 48C78424 		movq	$_ZTCN8UnitTest15MemoryOutStreamE0_St19basic_ostringstreamIcSt11char_traitsIcESaIcEE+24, 1296
 901      10050000 
 901      00000000 
 902 08d6 48C78424 		movq	$_ZTCN8UnitTest15MemoryOutStreamE0_St19basic_ostringstreamIcSt11char_traitsIcESaIcEE+64, 1392
 902      70050000 
 902      00000000 
 903 08e2 48C78424 		movq	$_ZTVSt15basic_stringbufIcSt11char_traitsIcESaIcEE+16, 1304(%rsp)
 903      18050000 
 903      00000000 
 904 08ee 488D78E8 		leaq	-24(%rax), %rdi
 905 08f2 4881FF00 		cmpq	$_ZNSs4_Rep20_S_empty_rep_storageE, %rdi
 905      000000
 906 08f9 0F858101 		jne	.L122
 906      0000
 907              	.L78:
 908 08ff 488DBC24 		leaq	1360(%rsp), %rdi
 908      50050000 
 909 0907 48C78424 		movq	$_ZTVSt15basic_streambufIcSt11char_traitsIcEE+16, 1304(%rsp)
 909      18050000 
 909      00000000 
 910 0913 E8000000 		call	_ZNSt6localeD1Ev
 910      00
 911 0918 488B7C24 		movq	16(%rsp), %rdi
 911      10
 912 091d 48C78424 		movq	$_ZTCN8UnitTest15MemoryOutStreamE0_So+24, 1296(%rsp)
 912      10050000 
 912      00000000 
 913 0929 48C78424 		movq	$_ZTVSt9basic_iosIcSt11char_traitsIcEE+16, 1392(%rsp)
 913      70050000 
 913      00000000 
 914              	.LEHB7:
 915 0935 E8000000 		call	_ZNSt8ios_baseD2Ev
 915      00
 916              	.LEHE7:
 917 093a E991FCFF 		jmp	.L65
 917      FF
 918 093f 90       		.p2align 4,,10
 919              		.p2align 3
 920              	.L119:
 921 0940 498B3C24 		movq	(%r12), %rdi
 922              	.L88:
 923 0944 89542404 		movl	%edx, 4(%rsp)
 924              	.LEHB8:
 925 0948 E8000000 		call	getCmdName
 925      00
 926 094d 4889DF   		movq	%rbx, %rdi
 927 0950 4889C5   		movq	%rax, %rbp
 928 0953 E8000000 		call	getCmdName
 928      00
 929 0958 8B542404 		movl	4(%rsp), %edx
 930 095c 4889C1   		movq	%rax, %rcx
 931 095f 4989E8   		movq	%rbp, %r8
 932 0962 31C0     		xorl	%eax, %eax
 933 0964 BE000000 		movl	$.LC1, %esi
 933      00
 934 0969 BF010000 		movl	$1, %edi
 934      00
 935 096e E8000000 		call	__printf_chk
 935      00
 936              	.LEHE8:
 937 0973 803B00   		cmpb	$0, (%rbx)
 938 0976 0F859400 		jne	.L123
 938      0000
 939              	.L90:
 940 097c 498B0424 		movq	(%r12), %rax
 941 0980 803800   		cmpb	$0, (%rax)
 942 0983 754B     		jne	.L124
 943              	.L91:
 944 0985 48834424 		addq	$1, 24(%rsp)
 944      1801
 945 098b 48837C24 		cmpq	$5, 24(%rsp)
 945      1805
 946 0991 0F85F7FB 		jne	.L93
 946      FFFF
 947 0997 488B8424 		movq	9896(%rsp), %rax
 947      A8260000 
 948 099f 64483304 		xorq	%fs:40, %rax
 948      25280000 
 948      00
 949 09a8 0F85F601 		jne	.L125
 949      0000
 950 09ae 4881C4B8 		addq	$9912, %rsp
 950      260000
 951              		.cfi_remember_state
 952              		.cfi_def_cfa_offset 56
 953 09b5 5B       		popq	%rbx
 954              		.cfi_def_cfa_offset 48
 955 09b6 5D       		popq	%rbp
 956              		.cfi_def_cfa_offset 40
 957 09b7 415C     		popq	%r12
 958              		.cfi_def_cfa_offset 32
 959 09b9 415D     		popq	%r13
 960              		.cfi_def_cfa_offset 24
 961 09bb 415E     		popq	%r14
 962              		.cfi_def_cfa_offset 16
 963 09bd 415F     		popq	%r15
 964              		.cfi_def_cfa_offset 8
 965 09bf C3       		ret
 966              		.p2align 4,,10
 967              		.p2align 3
 968              	.L120:
 969              		.cfi_restore_state
 970 09c0 4889EF   		movq	%rbp, %rdi
 971 09c3 E97CFFFF 		jmp	.L88
 971      FF
 972 09c8 0F1F8400 		.p2align 4,,10
 972      00000000 
 973              		.p2align 3
 974              	.L124:
 975              	.LEHB9:
 976 09d0 E8000000 		call	_ZN8UnitTest11CurrentTest7DetailsEv
 976      00
 977 09d5 488B30   		movq	(%rax), %rsi
 978 09d8 488DBC24 		leaq	128(%rsp), %rdi
 978      80000000 
 979 09e0 BA3E0300 		movl	$830, %edx
 979      00
 980 09e5 E8000000 		call	_ZN8UnitTest11TestDetailsC1ERKS0_i
 980      00
 981 09ea E8000000 		call	_ZN8UnitTest11CurrentTest7ResultsEv
 981      00
 982 09ef 488B38   		movq	(%rax), %rdi
 983 09f2 488DB424 		leaq	128(%rsp), %rsi
 983      80000000 
 984 09fa BA000000 		movl	$.LC7, %edx
 984      00
 985 09ff E8000000 		call	_ZN8UnitTest11TestResults13OnTestFailureERKNS_11TestDetailsEPKc
 985      00
 986              	.LEHE9:
 987 0a04 E97CFFFF 		jmp	.L91
 987      FF
 988 0a09 0F1F8000 		.p2align 4,,10
 988      000000
 989              		.p2align 3
 990              	.L123:
 991              	.LEHB10:
 992 0a10 E8000000 		call	_ZN8UnitTest11CurrentTest7DetailsEv
 992      00
 993 0a15 488B30   		movq	(%rax), %rsi
 994 0a18 488DBC24 		leaq	128(%rsp), %rdi
 994      80000000 
 995 0a20 BA3D0300 		movl	$829, %edx
 995      00
 996 0a25 E8000000 		call	_ZN8UnitTest11TestDetailsC1ERKS0_i
 996      00
 997 0a2a E8000000 		call	_ZN8UnitTest11CurrentTest7ResultsEv
 997      00
 998 0a2f 488B38   		movq	(%rax), %rdi
 999 0a32 488DB424 		leaq	128(%rsp), %rsi
 999      80000000 
 1000 0a3a BA000000 		movl	$.LC6, %edx
 1000      00
 1001 0a3f E8000000 		call	_ZN8UnitTest11TestResults13OnTestFailureERKNS_11TestDetailsEPKc
 1001      00
 1002              	.LEHE10:
 1003 0a44 E933FFFF 		jmp	.L90
 1003      FF
 1004              	.L121:
 1005 0a49 B9000000 		movl	$_ZL28__gthrw___pthread_key_createPjPFvPvE, %ecx
 1005      00
 1006 0a4e 488D5710 		leaq	16(%rdi), %rdx
 1007 0a52 4885C9   		testq	%rcx, %rcx
 1008 0a55 0F840602 		je	.L74
 1008      0000
 1009 0a5b B8FFFFFF 		movl	$-1, %eax
 1009      FF
 1010 0a60 F00FC102 		lock xaddl	%eax, (%rdx)
 1011              	.L75:
 1012 0a64 85C0     		testl	%eax, %eax
 1013 0a66 0F8F56FE 		jg	.L73
 1013      FFFF
 1014 0a6c 488D7424 		leaq	127(%rsp), %rsi
 1014      7F
 1015 0a71 E8000000 		call	_ZNSs4_Rep10_M_destroyERKSaIcE
 1015      00
 1016 0a76 E947FEFF 		jmp	.L73
 1016      FF
 1017 0a7b 0F1F4400 		.p2align 4,,10
 1017      00
 1018              		.p2align 3
 1019              	.L122:
 1020 0a80 B9000000 		movl	$_ZL28__gthrw___pthread_key_createPjPFvPvE, %ecx
 1020      00
 1021 0a85 488D5710 		leaq	16(%rdi), %rdx
 1022 0a89 4885C9   		testq	%rcx, %rcx
 1023 0a8c 7466     		je	.L79
 1024 0a8e B8FFFFFF 		movl	$-1, %eax
 1024      FF
 1025 0a93 F00FC102 		lock xaddl	%eax, (%rdx)
 1026              	.L80:
 1027 0a97 85C0     		testl	%eax, %eax
 1028 0a99 0F8F60FE 		jg	.L78
 1028      FFFF
 1029 0a9f 488D7424 		leaq	127(%rsp), %rsi
 1029      7F
 1030 0aa4 E8000000 		call	_ZNSs4_Rep10_M_destroyERKSaIcE
 1030      00
 1031 0aa9 E951FEFF 		jmp	.L78
 1031      FF
 1032              	.L101:
 1033 0aae 4889C7   		movq	%rax, %rdi
 1034 0ab1 E8000000 		call	__cxa_begin_catch
 1034      00
 1035              		.p2align 4,,5
 1036              	.LEHB11:
 1037 0ab6 E8000000 		call	_ZN8UnitTest11CurrentTest7DetailsEv
 1037      00
 1038 0abb 488B30   		movq	(%rax), %rsi
 1039 0abe 488DBC24 		leaq	128(%rsp), %rdi
 1039      80000000 
 1040 0ac6 BA3E0300 		movl	$830, %edx
 1040      00
 1041 0acb E8000000 		call	_ZN8UnitTest11TestDetailsC1ERKS0_i
 1041      00
 1042 0ad0 E8000000 		call	_ZN8UnitTest11CurrentTest7ResultsEv
 1042      00
 1043 0ad5 488B38   		movq	(%rax), %rdi
 1044 0ad8 488DB424 		leaq	128(%rsp), %rsi
 1044      80000000 
 1045 0ae0 BA000000 		movl	$.LC9, %edx
 1045      00
 1046 0ae5 E8000000 		call	_ZN8UnitTest11TestResults13OnTestFailureERKNS_11TestDetailsEPKc
 1046      00
 1047              	.LEHE11:
 1048              	.LEHB12:
 1049 0aea E8000000 		call	__cxa_end_catch
 1049      00
 1050              	.LEHE12:
 1051 0aef E991FEFF 		jmp	.L91
 1051      FF
 1052              	.L79:
 1053 0af4 8B50F8   		movl	-8(%rax), %edx
 1054 0af7 8D4AFF   		leal	-1(%rdx), %ecx
 1055 0afa 8948F8   		movl	%ecx, -8(%rax)
 1056 0afd 89D0     		movl	%edx, %eax
 1057 0aff EB96     		jmp	.L80
 1058              	.L102:
 1059 0b01 4889C3   		movq	%rax, %rbx
 1060 0b04 E8000000 		call	__cxa_end_catch
 1060      00
 1061 0b09 4889DF   		movq	%rbx, %rdi
 1062              	.LEHB13:
 1063 0b0c E8000000 		call	_Unwind_Resume
 1063      00
 1064              	.LEHE13:
 1065              	.L109:
 1066 0b11 488DBC24 		leaq	1304(%rsp), %rdi
 1066      18050000 
 1067 0b19 4889C3   		movq	%rax, %rbx
 1068 0b1c E8000000 		call	_ZNSt15basic_stringbufIcSt11char_traitsIcESaIcEED1Ev
 1068      00
 1069 0b21 48C78424 		movq	$_ZTCN8UnitTest15MemoryOutStreamE0_So+24, 1296(%rsp)
 1069      10050000 
 1069      00000000 
 1070              	.L69:
 1071 0b2d 488B7C24 		movq	16(%rsp), %rdi
 1071      10
 1072 0b32 48C78424 		movq	$_ZTVSt9basic_iosIcSt11char_traitsIcEE+16, 1392(%rsp)
 1072      70050000 
 1072      00000000 
 1073 0b3e E8000000 		call	_ZNSt8ios_baseD2Ev
 1073      00
 1074 0b43 4889D8   		movq	%rbx, %rax
 1075              	.L71:
 1076 0b46 4889C7   		movq	%rax, %rdi
 1077 0b49 E8000000 		call	__cxa_begin_catch
 1077      00
 1078              	.LEHB14:
 1079 0b4e E8000000 		call	_ZN8UnitTest11CurrentTest7DetailsEv
 1079      00
 1080 0b53 488B30   		movq	(%rax), %rsi
 1081 0b56 488DBC24 		leaq	128(%rsp), %rdi
 1081      80000000 
 1082 0b5e BA8D0200 		movl	$653, %edx
 1082      00
 1083 0b63 E8000000 		call	_ZN8UnitTest11TestDetailsC1ERKS0_i
 1083      00
 1084 0b68 E8000000 		call	_ZN8UnitTest11CurrentTest7ResultsEv
 1084      00
 1085 0b6d 488B38   		movq	(%rax), %rdi
 1086 0b70 488DB424 		leaq	128(%rsp), %rsi
 1086      80000000 
 1087 0b78 BA000000 		movl	$.LC5, %edx
 1087      00
 1088 0b7d E8000000 		call	_ZN8UnitTest11TestResults13OnTestFailureERKNS_11TestDetailsEPKc
 1088      00
 1089              	.LEHE14:
 1090              	.LEHB15:
 1091 0b82 E8000000 		call	__cxa_end_catch
 1091      00
 1092              	.LEHE15:
 1093 0b87 E944FAFF 		jmp	.L65
 1093      FF
 1094              	.L108:
 1095 0b8c 4889C3   		movq	%rax, %rbx
 1096 0b8f 90       		.p2align 4,,5
 1097 0b90 EB9B     		jmp	.L69
 1098              	.L103:
 1099 0b92 4889C3   		movq	%rax, %rbx
 1100              		.p2align 4,,5
 1101 0b95 E8000000 		call	__cxa_end_catch
 1101      00
 1102 0b9a 4889DF   		movq	%rbx, %rdi
 1103              	.LEHB16:
 1104 0b9d E8000000 		call	_Unwind_Resume
 1104      00
 1105              	.LEHE16:
 1106              	.L104:
 1107 0ba2 EBA2     		jmp	.L71
 1108              	.L125:
 1109              		.p2align 4,,5
 1110 0ba4 E8000000 		call	__stack_chk_fail
 1110      00
 1111              	.L99:
 1112 0ba9 4889C7   		movq	%rax, %rdi
 1113 0bac 0F1F4000 		.p2align 4,,5
 1114 0bb0 E8000000 		call	__cxa_begin_catch
 1114      00
 1115              	.LEHB17:
 1116 0bb5 E8000000 		call	_ZN8UnitTest11CurrentTest7DetailsEv
 1116      00
 1117 0bba 488B30   		movq	(%rax), %rsi
 1118 0bbd 488DBC24 		leaq	128(%rsp), %rdi
 1118      80000000 
 1119 0bc5 BA3D0300 		movl	$829, %edx
 1119      00
 1120 0bca E8000000 		call	_ZN8UnitTest11TestDetailsC1ERKS0_i
 1120      00
 1121 0bcf E8000000 		call	_ZN8UnitTest11CurrentTest7ResultsEv
 1121      00
 1122 0bd4 488B38   		movq	(%rax), %rdi
 1123 0bd7 488DB424 		leaq	128(%rsp), %rsi
 1123      80000000 
 1124 0bdf BA000000 		movl	$.LC8, %edx
 1124      00
 1125 0be4 E8000000 		call	_ZN8UnitTest11TestResults13OnTestFailureERKNS_11TestDetailsEPKc
 1125      00
 1126              	.LEHE17:
 1127              	.LEHB18:
 1128 0be9 E8000000 		call	__cxa_end_catch
 1128      00
 1129              	.LEHE18:
 1130 0bee E989FDFF 		jmp	.L90
 1130      FF
 1131              	.L107:
 1132 0bf3 488DBC24 		leaq	1296(%rsp), %rdi
 1132      10050000 
 1133 0bfb 4889C3   		movq	%rax, %rbx
 1134 0bfe E8000000 		call	_ZN8UnitTest15MemoryOutStreamD1Ev
 1134      00
 1135 0c03 4889D8   		movq	%rbx, %rax
 1136 0c06 E93BFFFF 		jmp	.L71
 1136      FF
 1137              	.L100:
 1138 0c0b 4889C3   		movq	%rax, %rbx
 1139 0c0e E8000000 		call	__cxa_end_catch
 1139      00
 1140 0c13 4889DF   		movq	%rbx, %rdi
 1141              	.LEHB19:
 1142 0c16 E8000000 		call	_Unwind_Resume
 1142      00
 1143              	.LEHE19:
 1144              	.L106:
 1145 0c1b 4889C7   		movq	%rax, %rdi
 1146 0c1e E8000000 		call	__cxa_begin_catch
 1146      00
 1147              	.LEHB20:
 1148 0c23 E8000000 		call	_ZN8UnitTest11CurrentTest7DetailsEv
 1148      00
 1149 0c28 488B30   		movq	(%rax), %rsi
 1150 0c2b 488DBC24 		leaq	128(%rsp), %rdi
 1150      80000000 
 1151 0c33 BA890200 		movl	$649, %edx
 1151      00
 1152 0c38 E8000000 		call	_ZN8UnitTest11TestDetailsC1ERKS0_i
 1152      00
 1153 0c3d E8000000 		call	_ZN8UnitTest11CurrentTest7ResultsEv
 1153      00
 1154 0c42 488B38   		movq	(%rax), %rdi
 1155 0c45 488DB424 		leaq	128(%rsp), %rsi
 1155      80000000 
 1156 0c4d BA000000 		movl	$.LC4, %edx
 1156      00
 1157 0c52 E8000000 		call	_ZN8UnitTest11TestResults13OnTestFailureERKNS_11TestDetailsEPKc
 1157      00
 1158              	.LEHE20:
 1159              	.LEHB21:
 1160 0c57 E8000000 		call	__cxa_end_catch
 1160      00
 1161              	.LEHE21:
 1162 0c5c E916FAFF 		jmp	.L85
 1162      FF
 1163              	.L74:
 1164 0c61 8B50F8   		movl	-8(%rax), %edx
 1165 0c64 8D4AFF   		leal	-1(%rdx), %ecx
 1166 0c67 8948F8   		movl	%ecx, -8(%rax)
 1167 0c6a 89D0     		movl	%edx, %eax
 1168 0c6c E9F3FDFF 		jmp	.L75
 1168      FF
 1169              	.L105:
 1170 0c71 4889C3   		movq	%rax, %rbx
 1171 0c74 E8000000 		call	__cxa_end_catch
 1171      00
 1172 0c79 4889DF   		movq	%rbx, %rdi
 1173              	.LEHB22:
 1174 0c7c E8000000 		call	_Unwind_Resume
 1174      00
 1175              	.LEHE22:
 1176              		.cfi_endproc
 1177              	.LFE1131:
 1178              		.globl	__gxx_personality_v0
 1179              		.section	.gcc_except_table,"a",@progbits
 1180              		.align 4
 1181              	.LLSDA1131:
 1182 0000 FF       		.byte	0xff
 1183 0001 03       		.byte	0x3
 1184 0002 8C01     		.uleb128 .LLSDATT1131-.LLSDATTD1131
 1185              	.LLSDATTD1131:
 1186 0004 01       		.byte	0x1
 1187 0005 8001     		.uleb128 .LLSDACSE1131-.LLSDACSB1131
 1188              	.LLSDACSB1131:
 1189 0007 A90B     		.uleb128 .LEHB0-.LFB1131
 1190 0009 9901     		.uleb128 .LEHE0-.LEHB0
 1191 000b 00       		.uleb128 0
 1192 000c 00       		.uleb128 0
 1193 000d C20C     		.uleb128 .LEHB1-.LFB1131
 1194 000f 35       		.uleb128 .LEHE1-.LEHB1
 1195 0010 9B18     		.uleb128 .L106-.LFB1131
 1196 0012 01       		.uleb128 0x1
 1197 0013 910D     		.uleb128 .LEHB2-.LFB1131
 1198 0015 11       		.uleb128 .LEHE2-.LEHB2
 1199 0016 00       		.uleb128 0
 1200 0017 00       		.uleb128 0
 1201 0018 A40D     		.uleb128 .LEHB3-.LFB1131
 1202 001a 1F       		.uleb128 .LEHE3-.LEHB3
 1203 001b A217     		.uleb128 .L104-.LFB1131
 1204 001d 01       		.uleb128 0x1
 1205 001e C50E     		.uleb128 .LEHB4-.LFB1131
 1206 0020 05       		.uleb128 .LEHE4-.LEHB4
 1207 0021 8C17     		.uleb128 .L108-.LFB1131
 1208 0023 03       		.uleb128 0x3
 1209 0024 8210     		.uleb128 .LEHB5-.LFB1131
 1210 0026 05       		.uleb128 .LEHE5-.LEHB5
 1211 0027 9116     		.uleb128 .L109-.LFB1131
 1212 0029 03       		.uleb128 0x3
 1213 002a BD10     		.uleb128 .LEHB6-.LFB1131
 1214 002c 54       		.uleb128 .LEHE6-.LEHB6
 1215 002d F317     		.uleb128 .L107-.LFB1131
 1216 002f 03       		.uleb128 0x3
 1217 0030 B512     		.uleb128 .LEHB7-.LFB1131
 1218 0032 05       		.uleb128 .LEHE7-.LEHB7
 1219 0033 A217     		.uleb128 .L104-.LFB1131
 1220 0035 01       		.uleb128 0x1
 1221 0036 C812     		.uleb128 .LEHB8-.LFB1131
 1222 0038 2B       		.uleb128 .LEHE8-.LEHB8
 1223 0039 00       		.uleb128 0
 1224 003a 00       		.uleb128 0
 1225 003b D013     		.uleb128 .LEHB9-.LFB1131
 1226 003d 34       		.uleb128 .LEHE9-.LEHB9
 1227 003e AE15     		.uleb128 .L101-.LFB1131
 1228 0040 01       		.uleb128 0x1
 1229 0041 9014     		.uleb128 .LEHB10-.LFB1131
 1230 0043 34       		.uleb128 .LEHE10-.LEHB10
 1231 0044 A917     		.uleb128 .L99-.LFB1131
 1232 0046 01       		.uleb128 0x1
 1233 0047 B615     		.uleb128 .LEHB11-.LFB1131
 1234 0049 34       		.uleb128 .LEHE11-.LEHB11
 1235 004a 8116     		.uleb128 .L102-.LFB1131
 1236 004c 00       		.uleb128 0
 1237 004d EA15     		.uleb128 .LEHB12-.LFB1131
 1238 004f 05       		.uleb128 .LEHE12-.LEHB12
 1239 0050 00       		.uleb128 0
 1240 0051 00       		.uleb128 0
 1241 0052 8C16     		.uleb128 .LEHB13-.LFB1131
 1242 0054 05       		.uleb128 .LEHE13-.LEHB13
 1243 0055 00       		.uleb128 0
 1244 0056 00       		.uleb128 0
 1245 0057 CE16     		.uleb128 .LEHB14-.LFB1131
 1246 0059 34       		.uleb128 .LEHE14-.LEHB14
 1247 005a 9217     		.uleb128 .L103-.LFB1131
 1248 005c 00       		.uleb128 0
 1249 005d 8217     		.uleb128 .LEHB15-.LFB1131
 1250 005f 05       		.uleb128 .LEHE15-.LEHB15
 1251 0060 00       		.uleb128 0
 1252 0061 00       		.uleb128 0
 1253 0062 9D17     		.uleb128 .LEHB16-.LFB1131
 1254 0064 05       		.uleb128 .LEHE16-.LEHB16
 1255 0065 00       		.uleb128 0
 1256 0066 00       		.uleb128 0
 1257 0067 B517     		.uleb128 .LEHB17-.LFB1131
 1258 0069 34       		.uleb128 .LEHE17-.LEHB17
 1259 006a 8B18     		.uleb128 .L100-.LFB1131
 1260 006c 00       		.uleb128 0
 1261 006d E917     		.uleb128 .LEHB18-.LFB1131
 1262 006f 05       		.uleb128 .LEHE18-.LEHB18
 1263 0070 00       		.uleb128 0
 1264 0071 00       		.uleb128 0
 1265 0072 9618     		.uleb128 .LEHB19-.LFB1131
 1266 0074 05       		.uleb128 .LEHE19-.LEHB19
 1267 0075 00       		.uleb128 0
 1268 0076 00       		.uleb128 0
 1269 0077 A318     		.uleb128 .LEHB20-.LFB1131
 1270 0079 34       		.uleb128 .LEHE20-.LEHB20
 1271 007a F118     		.uleb128 .L105-.LFB1131
 1272 007c 00       		.uleb128 0
 1273 007d D718     		.uleb128 .LEHB21-.LFB1131
 1274 007f 05       		.uleb128 .LEHE21-.LEHB21
 1275 0080 00       		.uleb128 0
 1276 0081 00       		.uleb128 0
 1277 0082 FC18     		.uleb128 .LEHB22-.LFB1131
 1278 0084 05       		.uleb128 .LEHE22-.LEHB22
 1279 0085 00       		.uleb128 0
 1280 0086 00       		.uleb128 0
 1281              	.LLSDACSE1131:
 1282 0087 01       		.byte	0x1
 1283 0088 00       		.byte	0
 1284 0089 00       		.byte	0
 1285 008a 7D       		.byte	0x7d
 1286 008b 00       		.align 4
 1287 008c 00000000 		.long	0
 1288              	
 1289              	.LLSDATT1131:
 1290              		.text
 1292              		.section	.rodata.str1.1
 1293              	.LC10:
 1294 005e 25303258 		.string	"%02X"
 1294      00
 1295              		.text
 1296 0c81 66666666 		.p2align 4,,15
 1296      66662E0F 
 1296      1F840000 
 1296      000000
 1297              		.globl	_Z12renderBufferRPcPK6Buffer
 1299              	_Z12renderBufferRPcPK6Buffer:
 1300              	.LFB1120:
 1301              		.cfi_startproc
 1302 0c90 4154     		pushq	%r12
 1303              		.cfi_def_cfa_offset 16
 1304              		.cfi_offset 12, -16
 1305 0c92 55       		pushq	%rbp
 1306              		.cfi_def_cfa_offset 24
 1307              		.cfi_offset 6, -24
 1308 0c93 4889FD   		movq	%rdi, %rbp
 1309 0c96 53       		pushq	%rbx
 1310              		.cfi_def_cfa_offset 32
 1311              		.cfi_offset 3, -32
 1312 0c97 488B17   		movq	(%rdi), %rdx
 1313 0c9a 488B4608 		movq	8(%rsi), %rax
 1314 0c9e 488B1E   		movq	(%rsi), %rbx
 1315 0ca1 488D4A01 		leaq	1(%rdx), %rcx
 1316 0ca5 85C0     		testl	%eax, %eax
 1317 0ca7 48890F   		movq	%rcx, (%rdi)
 1318 0caa C6027B   		movb	$123, (%rdx)
 1319 0cad 8D50FF   		leal	-1(%rax), %edx
 1320 0cb0 488B3F   		movq	(%rdi), %rdi
 1321 0cb3 4C8D6413 		leaq	1(%rbx,%rdx), %r12
 1321      01
 1322 0cb8 7437     		je	.L128
 1323 0cba 660F1F44 		.p2align 4,,10
 1323      0000
 1324              		.p2align 3
 1325              	.L129:
 1326 0cc0 440FB603 		movzbl	(%rbx), %r8d
 1327 0cc4 31C0     		xorl	%eax, %eax
 1328 0cc6 B9000000 		movl	$.LC10, %ecx
 1328      00
 1329 0ccb 48C7C2FF 		movq	$-1, %rdx
 1329      FFFFFF
 1330 0cd2 BE010000 		movl	$1, %esi
 1330      00
 1331 0cd7 4883C301 		addq	$1, %rbx
 1332 0cdb E8000000 		call	__sprintf_chk
 1332      00
 1333 0ce0 488B4500 		movq	0(%rbp), %rax
 1334 0ce4 4C39E3   		cmpq	%r12, %rbx
 1335 0ce7 488D7802 		leaq	2(%rax), %rdi
 1336 0ceb 48897D00 		movq	%rdi, 0(%rbp)
 1337 0cef 75CF     		jne	.L129
 1338              	.L128:
 1339 0cf1 488D5701 		leaq	1(%rdi), %rdx
 1340 0cf5 48895500 		movq	%rdx, 0(%rbp)
 1341 0cf9 C6077D   		movb	$125, (%rdi)
 1342 0cfc 5B       		popq	%rbx
 1343              		.cfi_def_cfa_offset 24
 1344 0cfd 5D       		popq	%rbp
 1345              		.cfi_def_cfa_offset 16
 1346 0cfe 415C     		popq	%r12
 1347              		.cfi_def_cfa_offset 8
 1348 0d00 C3       		ret
 1349              		.cfi_endproc
 1350              	.LFE1120:
 1352              		.section	.rodata.str1.1
 1353              	.LC11:
 1354 0063 25642C20 		.string	"%d, "
 1354      00
 1355              		.text
 1356 0d01 66666666 		.p2align 4,,15
 1356      66662E0F 
 1356      1F840000 
 1356      000000
 1357              		.globl	_Z14renderBitStoreRPcPK8BitStore
 1359              	_Z14renderBitStoreRPcPK8BitStore:
 1360              	.LFB1121:
 1361              		.cfi_startproc
 1362 0d10 4155     		pushq	%r13
 1363              		.cfi_def_cfa_offset 16
 1364              		.cfi_offset 13, -16
 1365 0d12 B9000000 		movl	$.LC11, %ecx
 1365      00
 1366 0d17 48C7C2FF 		movq	$-1, %rdx
 1366      FFFFFF
 1367 0d1e 31C0     		xorl	%eax, %eax
 1368 0d20 4154     		pushq	%r12
 1369              		.cfi_def_cfa_offset 24
 1370              		.cfi_offset 12, -24
 1371 0d22 4989F4   		movq	%rsi, %r12
 1372 0d25 55       		pushq	%rbp
 1373              		.cfi_def_cfa_offset 32
 1374              		.cfi_offset 6, -32
 1375 0d26 53       		pushq	%rbx
 1376              		.cfi_def_cfa_offset 40
 1377              		.cfi_offset 3, -40
 1378 0d27 4889FB   		movq	%rdi, %rbx
 1379 0d2a 4883EC08 		subq	$8, %rsp
 1380              		.cfi_def_cfa_offset 48
 1381 0d2e 448B06   		movl	(%rsi), %r8d
 1382 0d31 488B3F   		movq	(%rdi), %rdi
 1383 0d34 BE010000 		movl	$1, %esi
 1383      00
 1384 0d39 E8000000 		call	__sprintf_chk
 1384      00
 1385 0d3e 488B2B   		movq	(%rbx), %rbp
 1386 0d41 4889EF   		movq	%rbp, %rdi
 1387 0d44 E8000000 		call	strlen
 1387      00
 1388 0d49 498B5424 		movq	16(%r12), %rdx
 1388      10
 1389 0d4e 4801E8   		addq	%rbp, %rax
 1390 0d51 488D4801 		leaq	1(%rax), %rcx
 1391 0d55 488903   		movq	%rax, (%rbx)
 1392 0d58 498B6C24 		movq	8(%r12), %rbp
 1392      08
 1393 0d5d 48890B   		movq	%rcx, (%rbx)
 1394 0d60 C6007B   		movb	$123, (%rax)
 1395 0d63 8D42FF   		leal	-1(%rdx), %eax
 1396 0d66 85D2     		testl	%edx, %edx
 1397 0d68 488B3B   		movq	(%rbx), %rdi
 1398 0d6b 4C8D6C05 		leaq	1(%rbp,%rax), %r13
 1398      01
 1399 0d70 7436     		je	.L133
 1400              		.p2align 4,,10
 1401 0d72 660F1F44 		.p2align 3
 1401      0000
 1402              	.L134:
 1403 0d78 440FB645 		movzbl	0(%rbp), %r8d
 1403      00
 1404 0d7d 31C0     		xorl	%eax, %eax
 1405 0d7f B9000000 		movl	$.LC10, %ecx
 1405      00
 1406 0d84 48C7C2FF 		movq	$-1, %rdx
 1406      FFFFFF
 1407 0d8b BE010000 		movl	$1, %esi
 1407      00
 1408 0d90 4883C501 		addq	$1, %rbp
 1409 0d94 E8000000 		call	__sprintf_chk
 1409      00
 1410 0d99 488B03   		movq	(%rbx), %rax
 1411 0d9c 4C39ED   		cmpq	%r13, %rbp
 1412 0d9f 488D7802 		leaq	2(%rax), %rdi
 1413 0da3 48893B   		movq	%rdi, (%rbx)
 1414 0da6 75D0     		jne	.L134
 1415              	.L133:
 1416 0da8 488D4701 		leaq	1(%rdi), %rax
 1417 0dac 488903   		movq	%rax, (%rbx)
 1418 0daf C6077D   		movb	$125, (%rdi)
 1419 0db2 488B03   		movq	(%rbx), %rax
 1420 0db5 488D5001 		leaq	1(%rax), %rdx
 1421 0db9 488913   		movq	%rdx, (%rbx)
 1422 0dbc C6002C   		movb	$44, (%rax)
 1423 0dbf 488B03   		movq	(%rbx), %rax
 1424 0dc2 488D5001 		leaq	1(%rax), %rdx
 1425 0dc6 488913   		movq	%rdx, (%rbx)
 1426 0dc9 C60020   		movb	$32, (%rax)
 1427 0dcc 488B13   		movq	(%rbx), %rdx
 1428 0dcf 498B4424 		movq	48(%r12), %rax
 1428      30
 1429 0dd4 498B6C24 		movq	40(%r12), %rbp
 1429      28
 1430 0dd9 488D4A01 		leaq	1(%rdx), %rcx
 1431 0ddd 85C0     		testl	%eax, %eax
 1432 0ddf 48890B   		movq	%rcx, (%rbx)
 1433 0de2 C6027B   		movb	$123, (%rdx)
 1434 0de5 8D50FF   		leal	-1(%rax), %edx
 1435 0de8 488B3B   		movq	(%rbx), %rdi
 1436 0deb 4C8D6C15 		leaq	1(%rbp,%rdx), %r13
 1436      01
 1437 0df0 7436     		je	.L136
 1438              		.p2align 4,,10
 1439 0df2 660F1F44 		.p2align 3
 1439      0000
 1440              	.L137:
 1441 0df8 440FB645 		movzbl	0(%rbp), %r8d
 1441      00
 1442 0dfd 31C0     		xorl	%eax, %eax
 1443 0dff B9000000 		movl	$.LC10, %ecx
 1443      00
 1444 0e04 48C7C2FF 		movq	$-1, %rdx
 1444      FFFFFF
 1445 0e0b BE010000 		movl	$1, %esi
 1445      00
 1446 0e10 4883C501 		addq	$1, %rbp
 1447 0e14 E8000000 		call	__sprintf_chk
 1447      00
 1448 0e19 488B03   		movq	(%rbx), %rax
 1449 0e1c 4C39ED   		cmpq	%r13, %rbp
 1450 0e1f 488D7802 		leaq	2(%rax), %rdi
 1451 0e23 48893B   		movq	%rdi, (%rbx)
 1452 0e26 75D0     		jne	.L137
 1453              	.L136:
 1454 0e28 488D4701 		leaq	1(%rdi), %rax
 1455 0e2c 488903   		movq	%rax, (%rbx)
 1456 0e2f C6077D   		movb	$125, (%rdi)
 1457 0e32 488B03   		movq	(%rbx), %rax
 1458 0e35 488D5001 		leaq	1(%rax), %rdx
 1459 0e39 488913   		movq	%rdx, (%rbx)
 1460 0e3c C6002C   		movb	$44, (%rax)
 1461 0e3f 488B03   		movq	(%rbx), %rax
 1462 0e42 488D5001 		leaq	1(%rax), %rdx
 1463 0e46 488913   		movq	%rdx, (%rbx)
 1464 0e49 C60020   		movb	$32, (%rax)
 1465 0e4c 488B13   		movq	(%rbx), %rdx
 1466 0e4f 498B4424 		movq	80(%r12), %rax
 1466      50
 1467 0e54 498B6C24 		movq	72(%r12), %rbp
 1467      48
 1468 0e59 488D4A01 		leaq	1(%rdx), %rcx
 1469 0e5d 85C0     		testl	%eax, %eax
 1470 0e5f 48890B   		movq	%rcx, (%rbx)
 1471 0e62 C6027B   		movb	$123, (%rdx)
 1472 0e65 8D50FF   		leal	-1(%rax), %edx
 1473 0e68 488B3B   		movq	(%rbx), %rdi
 1474 0e6b 4C8D6415 		leaq	1(%rbp,%rdx), %r12
 1474      01
 1475 0e70 7436     		je	.L139
 1476              		.p2align 4,,10
 1477 0e72 660F1F44 		.p2align 3
 1477      0000
 1478              	.L140:
 1479 0e78 440FB645 		movzbl	0(%rbp), %r8d
 1479      00
 1480 0e7d 31C0     		xorl	%eax, %eax
 1481 0e7f B9000000 		movl	$.LC10, %ecx
 1481      00
 1482 0e84 48C7C2FF 		movq	$-1, %rdx
 1482      FFFFFF
 1483 0e8b BE010000 		movl	$1, %esi
 1483      00
 1484 0e90 4883C501 		addq	$1, %rbp
 1485 0e94 E8000000 		call	__sprintf_chk
 1485      00
 1486 0e99 488B03   		movq	(%rbx), %rax
 1487 0e9c 4C39E5   		cmpq	%r12, %rbp
 1488 0e9f 488D7802 		leaq	2(%rax), %rdi
 1489 0ea3 48893B   		movq	%rdi, (%rbx)
 1490 0ea6 75D0     		jne	.L140
 1491              	.L139:
 1492 0ea8 488D4701 		leaq	1(%rdi), %rax
 1493 0eac 488903   		movq	%rax, (%rbx)
 1494 0eaf C6077D   		movb	$125, (%rdi)
 1495 0eb2 4883C408 		addq	$8, %rsp
 1496              		.cfi_def_cfa_offset 40
 1497 0eb6 5B       		popq	%rbx
 1498              		.cfi_def_cfa_offset 32
 1499 0eb7 5D       		popq	%rbp
 1500              		.cfi_def_cfa_offset 24
 1501 0eb8 415C     		popq	%r12
 1502              		.cfi_def_cfa_offset 16
 1503 0eba 415D     		popq	%r13
 1504              		.cfi_def_cfa_offset 8
 1505 0ebc C3       		ret
 1506              		.cfi_endproc
 1507              	.LFE1121:
 1509 0ebd 0F1F00   		.p2align 4,,15
 1510              		.globl	_Z9renderCxtPK12ParseContext
 1512              	_Z9renderCxtPK12ParseContext:
 1513              	.LFB1122:
 1514              		.cfi_startproc
 1515 0ec0 53       		pushq	%rbx
 1516              		.cfi_def_cfa_offset 16
 1517              		.cfi_offset 3, -16
 1518 0ec1 4889FE   		movq	%rdi, %rsi
 1519 0ec4 4889FB   		movq	%rdi, %rbx
 1520 0ec7 4883EC10 		subq	$16, %rsp
 1521              		.cfi_def_cfa_offset 32
 1522 0ecb 4889E7   		movq	%rsp, %rdi
 1523 0ece 48C70424 		movq	$_ZZ9renderCxtPK12ParseContextE6result, (%rsp)
 1523      00000000 
 1524 0ed6 E8000000 		call	_Z14renderBitStoreRPcPK8BitStore
 1524      00
 1525 0edb 488B0424 		movq	(%rsp), %rax
 1526 0edf 488D7368 		leaq	104(%rbx), %rsi
 1527 0ee3 4889E7   		movq	%rsp, %rdi
 1528 0ee6 488D5001 		leaq	1(%rax), %rdx
 1529 0eea 48891424 		movq	%rdx, (%rsp)
 1530 0eee C6002C   		movb	$44, (%rax)
 1531 0ef1 488B0424 		movq	(%rsp), %rax
 1532 0ef5 488D5001 		leaq	1(%rax), %rdx
 1533 0ef9 48891424 		movq	%rdx, (%rsp)
 1534 0efd C60020   		movb	$32, (%rax)
 1535 0f00 E8000000 		call	_Z14renderBitStoreRPcPK8BitStore
 1535      00
 1536 0f05 488B0424 		movq	(%rsp), %rax
 1537 0f09 488DB3D0 		leaq	208(%rbx), %rsi
 1537      000000
 1538 0f10 4889E7   		movq	%rsp, %rdi
 1539 0f13 488D5001 		leaq	1(%rax), %rdx
 1540 0f17 48891424 		movq	%rdx, (%rsp)
 1541 0f1b C6002C   		movb	$44, (%rax)
 1542 0f1e 488B0424 		movq	(%rsp), %rax
 1543 0f22 488D5001 		leaq	1(%rax), %rdx
 1544 0f26 48891424 		movq	%rdx, (%rsp)
 1545 0f2a C60020   		movb	$32, (%rax)
 1546 0f2d E8000000 		call	_Z14renderBitStoreRPcPK8BitStore
 1546      00
 1547 0f32 488B0424 		movq	(%rsp), %rax
 1548 0f36 488DB338 		leaq	312(%rbx), %rsi
 1548      010000
 1549 0f3d 4889E7   		movq	%rsp, %rdi
 1550 0f40 488D5001 		leaq	1(%rax), %rdx
 1551 0f44 48891424 		movq	%rdx, (%rsp)
 1552 0f48 C6002C   		movb	$44, (%rax)
 1553 0f4b 488B0424 		movq	(%rsp), %rax
 1554 0f4f 488D5001 		leaq	1(%rax), %rdx
 1555 0f53 48891424 		movq	%rdx, (%rsp)
 1556 0f57 C60020   		movb	$32, (%rax)
 1557 0f5a E8000000 		call	_Z14renderBitStoreRPcPK8BitStore
 1557      00
 1558 0f5f 488B0424 		movq	(%rsp), %rax
 1559 0f63 488DB3A0 		leaq	416(%rbx), %rsi
 1559      010000
 1560 0f6a 4889E7   		movq	%rsp, %rdi
 1561 0f6d 488D5001 		leaq	1(%rax), %rdx
 1562 0f71 48891424 		movq	%rdx, (%rsp)
 1563 0f75 C6002C   		movb	$44, (%rax)
 1564 0f78 488B0424 		movq	(%rsp), %rax
 1565 0f7c 488D5001 		leaq	1(%rax), %rdx
 1566 0f80 48891424 		movq	%rdx, (%rsp)
 1567 0f84 C60020   		movb	$32, (%rax)
 1568 0f87 E8000000 		call	_Z14renderBitStoreRPcPK8BitStore
 1568      00
 1569 0f8c 488B0424 		movq	(%rsp), %rax
 1570 0f90 488DB308 		leaq	520(%rbx), %rsi
 1570      020000
 1571 0f97 4889E7   		movq	%rsp, %rdi
 1572 0f9a 488D5001 		leaq	1(%rax), %rdx
 1573 0f9e 48891424 		movq	%rdx, (%rsp)
 1574 0fa2 C6002C   		movb	$44, (%rax)
 1575 0fa5 488B0424 		movq	(%rsp), %rax
 1576 0fa9 488D5001 		leaq	1(%rax), %rdx
 1577 0fad 48891424 		movq	%rdx, (%rsp)
 1578 0fb1 C60020   		movb	$32, (%rax)
 1579 0fb4 E8000000 		call	_Z14renderBitStoreRPcPK8BitStore
 1579      00
 1580 0fb9 488B0424 		movq	(%rsp), %rax
 1581 0fbd C60000   		movb	$0, (%rax)
 1582 0fc0 4883C410 		addq	$16, %rsp
 1583              		.cfi_def_cfa_offset 16
 1584 0fc4 B8000000 		movl	$_ZZ9renderCxtPK12ParseContextE6result, %eax
 1584      00
 1585 0fc9 5B       		popq	%rbx
 1586              		.cfi_def_cfa_offset 8
 1587 0fca C3       		ret
 1588              		.cfi_endproc
 1589              	.LFE1122:
 1591              		.section	.text._ZN8UnitTest10CheckEqualI8FLStatusS1_EEvRNS_11TestResultsERKT_RKT0_RKNS_11TestDetai
 1592              		.p2align 4,,15
 1593              		.weak	_ZN8UnitTest10CheckEqualI8FLStatusS1_EEvRNS_11TestResultsERKT_RKT0_RKNS_11TestDetailsE
 1595              	_ZN8UnitTest10CheckEqualI8FLStatusS1_EEvRNS_11TestResultsERKT_RKT0_RKNS_11TestDetailsE:
 1596              	.LFB1163:
 1597              		.cfi_startproc
 1598              		.cfi_personality 0x3,__gxx_personality_v0
 1599              		.cfi_lsda 0x3,.LLSDA1163
 1600 0000 4156     		pushq	%r14
 1601              		.cfi_def_cfa_offset 16
 1602              		.cfi_offset 14, -16
 1603 0002 4155     		pushq	%r13
 1604              		.cfi_def_cfa_offset 24
 1605              		.cfi_offset 13, -24
 1606 0004 4154     		pushq	%r12
 1607              		.cfi_def_cfa_offset 32
 1608              		.cfi_offset 12, -32
 1609 0006 55       		pushq	%rbp
 1610              		.cfi_def_cfa_offset 40
 1611              		.cfi_offset 6, -40
 1612 0007 4889D5   		movq	%rdx, %rbp
 1613 000a 53       		pushq	%rbx
 1614              		.cfi_def_cfa_offset 48
 1615              		.cfi_offset 3, -48
 1616 000b 4889F3   		movq	%rsi, %rbx
 1617 000e 4881EC80 		subq	$384, %rsp
 1617      010000
 1618              		.cfi_def_cfa_offset 432
 1619 0015 8B02     		movl	(%rdx), %eax
 1620 0017 3906     		cmpl	%eax, (%rsi)
 1621 0019 0F84FF01 		je	.L144
 1621      0000
 1622 001f 4C8D6424 		leaq	112(%rsp), %r12
 1622      70
 1623 0024 4989FD   		movq	%rdi, %r13
 1624 0027 4989CE   		movq	%rcx, %r14
 1625 002a 4C89E7   		movq	%r12, %rdi
 1626 002d E8000000 		call	_ZNSt8ios_baseC2Ev
 1626      00
 1627 0032 31F6     		xorl	%esi, %esi
 1628 0034 4C89E7   		movq	%r12, %rdi
 1629 0037 48C78424 		movq	$0, 328(%rsp)
 1629      48010000 
 1629      00000000 
 1630 0043 C6842450 		movb	$0, 336(%rsp)
 1630      01000000 
 1631 004b C6842451 		movb	$0, 337(%rsp)
 1631      01000000 
 1632 0053 48C78424 		movq	$0, 344(%rsp)
 1632      58010000 
 1632      00000000 
 1633 005f 48C78424 		movq	$0, 352(%rsp)
 1633      60010000 
 1633      00000000 
 1634 006b 48C78424 		movq	$0, 360(%rsp)
 1634      68010000 
 1634      00000000 
 1635 0077 48C78424 		movq	$0, 368(%rsp)
 1635      70010000 
 1635      00000000 
 1636 0083 48C74424 		movq	$_ZTCN8UnitTest15MemoryOutStreamE0_So+24, 16(%rsp)
 1636      10000000 
 1636      00
 1637 008c 48C74424 		movq	$_ZTCN8UnitTest15MemoryOutStreamE0_So+64, 112(%rsp)
 1637      70000000 
 1637      00
 1638              	.LEHB23:
 1639 0095 E8000000 		call	_ZNSt9basic_iosIcSt11char_traitsIcEE4initEPSt15basic_streambufIcS1_E
 1639      00
 1640              	.LEHE23:
 1641 009a 488D7C24 		leaq	80(%rsp), %rdi
 1641      50
 1642 009f 48C74424 		movq	$_ZTCN8UnitTest15MemoryOutStreamE0_St19basic_ostringstreamIcSt11char_traitsIcESaIcEE+24, 16(%
 1642      10000000 
 1642      00
 1643 00a8 48C74424 		movq	$_ZTCN8UnitTest15MemoryOutStreamE0_St19basic_ostringstreamIcSt11char_traitsIcESaIcEE+64, 112(
 1643      70000000 
 1643      00
 1644 00b1 48C74424 		movq	$_ZTVSt15basic_streambufIcSt11char_traitsIcEE+16, 24(%rsp)
 1644      18000000 
 1644      00
 1645 00ba 48C74424 		movq	$0, 32(%rsp)
 1645      20000000 
 1645      00
 1646 00c3 48C74424 		movq	$0, 40(%rsp)
 1646      28000000 
 1646      00
 1647 00cc 48C74424 		movq	$0, 48(%rsp)
 1647      30000000 
 1647      00
 1648 00d5 48C74424 		movq	$0, 56(%rsp)
 1648      38000000 
 1648      00
 1649 00de 48C74424 		movq	$0, 64(%rsp)
 1649      40000000 
 1649      00
 1650 00e7 48C74424 		movq	$0, 72(%rsp)
 1650      48000000 
 1650      00
 1651 00f0 E8000000 		call	_ZNSt6localeC1Ev
 1651      00
 1652 00f5 488B4424 		movq	16(%rsp), %rax
 1652      10
 1653 00fa 488D7C24 		leaq	16(%rsp), %rdi
 1653      10
 1654 00ff 488D7424 		leaq	24(%rsp), %rsi
 1654      18
 1655 0104 48C74424 		movq	$_ZTVSt15basic_stringbufIcSt11char_traitsIcESaIcEE+16, 24(%rsp)
 1655      18000000 
 1655      00
 1656 010d C7442458 		movl	$16, 88(%rsp)
 1656      10000000 
 1657 0115 48C74424 		movq	$_ZNSs4_Rep20_S_empty_rep_storageE+24, 96(%rsp)
 1657      60000000 
 1657      00
 1658 011e 480378E8 		addq	-24(%rax), %rdi
 1659              	.LEHB24:
 1660 0122 E8000000 		call	_ZNSt9basic_iosIcSt11char_traitsIcEE4initEPSt15basic_streambufIcS1_E
 1660      00
 1661              	.LEHE24:
 1662 0127 488D7C24 		leaq	16(%rsp), %rdi
 1662      10
 1663 012c BA090000 		movl	$9, %edx
 1663      00
 1664 0131 BE000000 		movl	$.LC2, %esi
 1664      00
 1665 0136 48C74424 		movq	$_ZTVN8UnitTest15MemoryOutStreamE+24, 16(%rsp)
 1665      10000000 
 1665      00
 1666 013f 48C74424 		movq	$_ZTVN8UnitTest15MemoryOutStreamE+64, 112(%rsp)
 1666      70000000 
 1666      00
 1667 0148 48C74424 		movq	$_ZNSs4_Rep20_S_empty_rep_storageE+24, 104(%rsp)
 1667      68000000 
 1667      00
 1668 0151 8B6D00   		movl	0(%rbp), %ebp
 1669 0154 8B1B     		movl	(%rbx), %ebx
 1670              	.LEHB25:
 1671 0156 E8000000 		call	_ZSt16__ostream_insertIcSt11char_traitsIcEERSt13basic_ostreamIT_T0_ES6_PKS3_l
 1671      00
 1672 015b 488D7C24 		leaq	16(%rsp), %rdi
 1672      10
 1673 0160 89DE     		movl	%ebx, %esi
 1674 0162 E8000000 		call	_ZNSolsEi
 1674      00
 1675 0167 BA090000 		movl	$9, %edx
 1675      00
 1676 016c BE000000 		movl	$.LC3, %esi
 1676      00
 1677 0171 4889C7   		movq	%rax, %rdi
 1678 0174 4889C3   		movq	%rax, %rbx
 1679 0177 E8000000 		call	_ZSt16__ostream_insertIcSt11char_traitsIcEERSt13basic_ostreamIT_T0_ES6_PKS3_l
 1679      00
 1680 017c 89EE     		movl	%ebp, %esi
 1681 017e 4889DF   		movq	%rbx, %rdi
 1682 0181 E8000000 		call	_ZNSolsEi
 1682      00
 1683 0186 488D7C24 		leaq	16(%rsp), %rdi
 1683      10
 1684 018b E8000000 		call	_ZNK8UnitTest15MemoryOutStream7GetTextEv
 1684      00
 1685 0190 4889C2   		movq	%rax, %rdx
 1686 0193 4C89F6   		movq	%r14, %rsi
 1687 0196 4C89EF   		movq	%r13, %rdi
 1688 0199 E8000000 		call	_ZN8UnitTest11TestResults13OnTestFailureERKNS_11TestDetailsEPKc
 1688      00
 1689              	.LEHE25:
 1690 019e 488B4424 		movq	104(%rsp), %rax
 1690      68
 1691 01a3 48C74424 		movq	$_ZTVN8UnitTest15MemoryOutStreamE+24, 16(%rsp)
 1691      10000000 
 1691      00
 1692 01ac 48C74424 		movq	$_ZTVN8UnitTest15MemoryOutStreamE+64, 112(%rsp)
 1692      70000000 
 1692      00
 1693 01b5 488D78E8 		leaq	-24(%rax), %rdi
 1694 01b9 4881FF00 		cmpq	$_ZNSs4_Rep20_S_empty_rep_storageE, %rdi
 1694      000000
 1695 01c0 756C     		jne	.L167
 1696              	.L151:
 1697 01c2 488B4424 		movq	96(%rsp), %rax
 1697      60
 1698 01c7 48C74424 		movq	$_ZTCN8UnitTest15MemoryOutStreamE0_St19basic_ostringstreamIcSt11char_traitsIcESaIcEE+24, 16(%
 1698      10000000 
 1698      00
 1699 01d0 48C74424 		movq	$_ZTCN8UnitTest15MemoryOutStreamE0_St19basic_ostringstreamIcSt11char_traitsIcESaIcEE+64, 112(
 1699      70000000 
 1699      00
 1700 01d9 48C74424 		movq	$_ZTVSt15basic_stringbufIcSt11char_traitsIcESaIcEE+16, 24(%rsp)
 1700      18000000 
 1700      00
 1701 01e2 488D78E8 		leaq	-24(%rax), %rdi
 1702 01e6 4881FF00 		cmpq	$_ZNSs4_Rep20_S_empty_rep_storageE, %rdi
 1702      000000
 1703 01ed 756B     		jne	.L168
 1704              	.L156:
 1705 01ef 488D7C24 		leaq	80(%rsp), %rdi
 1705      50
 1706 01f4 48C74424 		movq	$_ZTVSt15basic_streambufIcSt11char_traitsIcEE+16, 24(%rsp)
 1706      18000000 
 1706      00
 1707 01fd E8000000 		call	_ZNSt6localeD1Ev
 1707      00
 1708 0202 488D7C24 		leaq	112(%rsp), %rdi
 1708      70
 1709 0207 48C74424 		movq	$_ZTCN8UnitTest15MemoryOutStreamE0_So+24, 16(%rsp)
 1709      10000000 
 1709      00
 1710 0210 48C74424 		movq	$_ZTVSt9basic_iosIcSt11char_traitsIcEE+16, 112(%rsp)
 1710      70000000 
 1710      00
 1711              	.LEHB26:
 1712 0219 E8000000 		call	_ZNSt8ios_baseD2Ev
 1712      00
 1713              	.LEHE26:
 1714              	.L144:
 1715 021e 4881C480 		addq	$384, %rsp
 1715      010000
 1716              		.cfi_remember_state
 1717              		.cfi_def_cfa_offset 48
 1718 0225 5B       		popq	%rbx
 1719              		.cfi_def_cfa_offset 40
 1720 0226 5D       		popq	%rbp
 1721              		.cfi_def_cfa_offset 32
 1722 0227 415C     		popq	%r12
 1723              		.cfi_def_cfa_offset 24
 1724 0229 415D     		popq	%r13
 1725              		.cfi_def_cfa_offset 16
 1726 022b 415E     		popq	%r14
 1727              		.cfi_def_cfa_offset 8
 1728 022d C3       		ret
 1729              	.L167:
 1730              		.cfi_restore_state
 1731 022e B9000000 		movl	$_ZL28__gthrw___pthread_key_createPjPFvPvE, %ecx
 1731      00
 1732 0233 488D5710 		leaq	16(%rdi), %rdx
 1733 0237 4885C9   		testq	%rcx, %rcx
 1734 023a 747D     		je	.L152
 1735 023c 83C8FF   		orl	$-1, %eax
 1736 023f F00FC102 		lock xaddl	%eax, (%rdx)
 1737              	.L153:
 1738 0243 85C0     		testl	%eax, %eax
 1739 0245 0F8F77FF 		jg	.L151
 1739      FFFF
 1740 024b 488D7424 		leaq	15(%rsp), %rsi
 1740      0F
 1741 0250 E8000000 		call	_ZNSs4_Rep10_M_destroyERKSaIcE
 1741      00
 1742 0255 E968FFFF 		jmp	.L151
 1742      FF
 1743              	.L168:
 1744 025a B9000000 		movl	$_ZL28__gthrw___pthread_key_createPjPFvPvE, %ecx
 1744      00
 1745 025f 488D5710 		leaq	16(%rdi), %rdx
 1746 0263 4885C9   		testq	%rcx, %rcx
 1747 0266 7479     		je	.L157
 1748 0268 83C8FF   		orl	$-1, %eax
 1749 026b F00FC102 		lock xaddl	%eax, (%rdx)
 1750              	.L158:
 1751 026f 85C0     		testl	%eax, %eax
 1752 0271 0F8F78FF 		jg	.L156
 1752      FFFF
 1753 0277 488D7424 		leaq	15(%rsp), %rsi
 1753      0F
 1754 027c E8000000 		call	_ZNSs4_Rep10_M_destroyERKSaIcE
 1754      00
 1755 0281 E969FFFF 		jmp	.L156
 1755      FF
 1756              	.L161:
 1757 0286 488D7C24 		leaq	16(%rsp), %rdi
 1757      10
 1758 028b 4889C3   		movq	%rax, %rbx
 1759 028e E8000000 		call	_ZN8UnitTest15MemoryOutStreamD1Ev
 1759      00
 1760 0293 4889DF   		movq	%rbx, %rdi
 1761              	.LEHB27:
 1762 0296 E8000000 		call	_Unwind_Resume
 1762      00
 1763              	.LEHE27:
 1764              	.L162:
 1765 029b 4889C3   		movq	%rax, %rbx
 1766              	.L148:
 1767 029e 488D7C24 		leaq	112(%rsp), %rdi
 1767      70
 1768 02a3 48C74424 		movq	$_ZTVSt9basic_iosIcSt11char_traitsIcEE+16, 112(%rsp)
 1768      70000000 
 1768      00
 1769 02ac E8000000 		call	_ZNSt8ios_baseD2Ev
 1769      00
 1770 02b1 4889DF   		movq	%rbx, %rdi
 1771              	.LEHB28:
 1772 02b4 E8000000 		call	_Unwind_Resume
 1772      00
 1773              	.LEHE28:
 1774              	.L152:
 1775 02b9 8B50F8   		movl	-8(%rax), %edx
 1776 02bc 8D4AFF   		leal	-1(%rdx), %ecx
 1777 02bf 8948F8   		movl	%ecx, -8(%rax)
 1778 02c2 89D0     		movl	%edx, %eax
 1779 02c4 E97AFFFF 		jmp	.L153
 1779      FF
 1780              	.L163:
 1781 02c9 488D7C24 		leaq	24(%rsp), %rdi
 1781      18
 1782 02ce 4889C3   		movq	%rax, %rbx
 1783 02d1 E8000000 		call	_ZNSt15basic_stringbufIcSt11char_traitsIcESaIcEED1Ev
 1783      00
 1784 02d6 48C74424 		movq	$_ZTCN8UnitTest15MemoryOutStreamE0_So+24, 16(%rsp)
 1784      10000000 
 1784      00
 1785 02df EBBD     		jmp	.L148
 1786              	.L157:
 1787 02e1 8B50F8   		movl	-8(%rax), %edx
 1788 02e4 8D4AFF   		leal	-1(%rdx), %ecx
 1789 02e7 8948F8   		movl	%ecx, -8(%rax)
 1790 02ea 89D0     		movl	%edx, %eax
 1791 02ec EB81     		jmp	.L158
 1792              		.cfi_endproc
 1793              	.LFE1163:
 1794              		.section	.gcc_except_table
 1795              	.LLSDA1163:
 1796 0090 FF       		.byte	0xff
 1797 0091 FF       		.byte	0xff
 1798 0092 01       		.byte	0x1
 1799 0093 21       		.uleb128 .LLSDACSE1163-.LLSDACSB1163
 1800              	.LLSDACSB1163:
 1801 0094 9501     		.uleb128 .LEHB23-.LFB1163
 1802 0096 05       		.uleb128 .LEHE23-.LEHB23
 1803 0097 9B05     		.uleb128 .L162-.LFB1163
 1804 0099 00       		.uleb128 0
 1805 009a A202     		.uleb128 .LEHB24-.LFB1163
 1806 009c 05       		.uleb128 .LEHE24-.LEHB24
 1807 009d C905     		.uleb128 .L163-.LFB1163
 1808 009f 00       		.uleb128 0
 1809 00a0 D602     		.uleb128 .LEHB25-.LFB1163
 1810 00a2 48       		.uleb128 .LEHE25-.LEHB25
 1811 00a3 8605     		.uleb128 .L161-.LFB1163
 1812 00a5 00       		.uleb128 0
 1813 00a6 9904     		.uleb128 .LEHB26-.LFB1163
 1814 00a8 05       		.uleb128 .LEHE26-.LEHB26
 1815 00a9 00       		.uleb128 0
 1816 00aa 00       		.uleb128 0
 1817 00ab 9605     		.uleb128 .LEHB27-.LFB1163
 1818 00ad 05       		.uleb128 .LEHE27-.LEHB27
 1819 00ae 00       		.uleb128 0
 1820 00af 00       		.uleb128 0
 1821 00b0 B405     		.uleb128 .LEHB28-.LFB1163
 1822 00b2 05       		.uleb128 .LEHE28-.LEHB28
 1823 00b3 00       		.uleb128 0
 1824 00b4 00       		.uleb128 0
 1825              	.LLSDACSE1163:
 1826              		.section	.text._ZN8UnitTest10CheckEqualI8FLStatusS1_EEvRNS_11TestResultsERKT_RKT0_RKNS_11TestDetai
 1828              		.section	.rodata.str1.8
 1829 00dd 000000   		.align 8
 1830              	.LC12:
 1831 00e0 556E6861 		.string	"Unhandled exception in CHECK_EQUAL(FL_SUCCESS, fStatus)"
 1831      6E646C65 
 1831      64206578 
 1831      63657074 
 1831      696F6E20 
 1832              		.align 8
 1833              	.LC13:
 1834 0118 556E6861 		.string	"Unhandled exception in CHECK_EQUAL(expectedLength, buf->length)"
 1834      6E646C65 
 1834      64206578 
 1834      63657074 
 1834      696F6E20 
 1835              		.align 8
 1836              	.LC14:
 1837 0158 556E6861 		.string	"Unhandled exception in CHECK_EQUAL(expected, result)"
 1837      6E646C65 
 1837      64206578 
 1837      63657074 
 1837      696F6E20 
 1838              		.text
 1839 0fcb 0F1F4400 		.p2align 4,,15
 1839      00
 1840              		.globl	_Z13testReadBytesP6BufferPKc
 1842              	_Z13testReadBytesP6BufferPKc:
 1843              	.LFB1109:
 1844              		.cfi_startproc
 1845              		.cfi_personality 0x3,__gxx_personality_v0
 1846              		.cfi_lsda 0x3,.LLSDA1109
 1847 0fd0 4157     		pushq	%r15
 1848              		.cfi_def_cfa_offset 16
 1849              		.cfi_offset 15, -16
 1850 0fd2 4156     		pushq	%r14
 1851              		.cfi_def_cfa_offset 24
 1852              		.cfi_offset 14, -24
 1853 0fd4 4155     		pushq	%r13
 1854              		.cfi_def_cfa_offset 32
 1855              		.cfi_offset 13, -32
 1856 0fd6 4989F5   		movq	%rsi, %r13
 1857 0fd9 4154     		pushq	%r12
 1858              		.cfi_def_cfa_offset 40
 1859              		.cfi_offset 12, -40
 1860 0fdb 55       		pushq	%rbp
 1861              		.cfi_def_cfa_offset 48
 1862              		.cfi_offset 6, -48
 1863 0fdc 53       		pushq	%rbx
 1864              		.cfi_def_cfa_offset 56
 1865              		.cfi_offset 3, -56
 1866 0fdd 4889FB   		movq	%rdi, %rbx
 1867 0fe0 4889F7   		movq	%rsi, %rdi
 1868 0fe3 4881ECD8 		subq	$1496, %rsp
 1868      050000
 1869              		.cfi_def_cfa_offset 1552
 1870 0fea 64488B04 		movq	%fs:40, %rax
 1870      25280000 
 1870      00
 1871 0ff3 48898424 		movq	%rax, 1480(%rsp)
 1871      C8050000 
 1872 0ffb 31C0     		xorl	%eax, %eax
 1873 0ffd E8000000 		call	strlen
 1873      00
 1874 1002 4889DF   		movq	%rbx, %rdi
 1875 1005 4189C6   		movl	%eax, %r14d
 1876              	.LEHB29:
 1877 1008 E8000000 		call	bufZeroLength
 1877      00
 1878 100d 31D2     		xorl	%edx, %edx
 1879 100f 4C89EE   		movq	%r13, %rsi
 1880 1012 4889DF   		movq	%rbx, %rdi
 1881 1015 E8000000 		call	readBytes
 1881      00
 1882              	.LEHE29:
 1883 101a 41D1EE   		shrl	%r14d
 1884 101d 89442420 		movl	%eax, 32(%rsp)
 1885              	.LEHB30:
 1886 1021 E8000000 		call	_ZN8UnitTest11CurrentTest7DetailsEv
 1886      00
 1887 1026 488D6C24 		leaq	80(%rsp), %rbp
 1887      50
 1888 102b 488B30   		movq	(%rax), %rsi
 1889 102e BA210000 		movl	$33, %edx
 1889      00
 1890 1033 4889EF   		movq	%rbp, %rdi
 1891 1036 E8000000 		call	_ZN8UnitTest11TestDetailsC1ERKS0_i
 1891      00
 1892 103b C7442430 		movl	$0, 48(%rsp)
 1892      00000000 
 1893 1043 E8000000 		call	_ZN8UnitTest11CurrentTest7ResultsEv
 1893      00
 1894 1048 488B38   		movq	(%rax), %rdi
 1895 104b 488D5424 		leaq	32(%rsp), %rdx
 1895      20
 1896 1050 488D7424 		leaq	48(%rsp), %rsi
 1896      30
 1897 1055 4889E9   		movq	%rbp, %rcx
 1898 1058 E8000000 		call	_ZN8UnitTest10CheckEqualI8FLStatusS1_EEvRNS_11TestResultsERKT_RKT0_RKNS_11TestDetailsE
 1898      00
 1899              	.LEHE30:
 1900              	.L191:
 1901              	.LEHB31:
 1902 105d E8000000 		call	_ZN8UnitTest11CurrentTest7DetailsEv
 1902      00
 1903 1062 4C8D6424 		leaq	48(%rsp), %r12
 1903      30
 1904 1067 488B30   		movq	(%rax), %rsi
 1905 106a BA220000 		movl	$34, %edx
 1905      00
 1906 106f 4C89E7   		movq	%r12, %rdi
 1907 1072 E8000000 		call	_ZN8UnitTest11TestDetailsC1ERKS0_i
 1907      00
 1908 1077 E8000000 		call	_ZN8UnitTest11CurrentTest7ResultsEv
 1908      00
 1909              	.LEHE31:
 1910 107c 4C3B7308 		cmpq	8(%rbx), %r14
 1911 1080 4C8B38   		movq	(%rax), %r15
 1912 1083 0F843102 		je	.L187
 1912      0000
 1913 1089 488D4560 		leaq	96(%rbp), %rax
 1914 108d 4889C7   		movq	%rax, %rdi
 1915 1090 48894424 		movq	%rax, 8(%rsp)
 1915      08
 1916 1095 E8000000 		call	_ZNSt8ios_baseC2Ev
 1916      00
 1917 109a 488B4424 		movq	8(%rsp), %rax
 1917      08
 1918 109f 31F6     		xorl	%esi, %esi
 1919 10a1 48C78424 		movq	$0, 392(%rsp)
 1919      88010000 
 1919      00000000 
 1920 10ad C6842490 		movb	$0, 400(%rsp)
 1920      01000000 
 1921 10b5 C6842491 		movb	$0, 401(%rsp)
 1921      01000000 
 1922 10bd 48C78424 		movq	$0, 408(%rsp)
 1922      98010000 
 1922      00000000 
 1923 10c9 48C78424 		movq	$0, 416(%rsp)
 1923      A0010000 
 1923      00000000 
 1924 10d5 4889C7   		movq	%rax, %rdi
 1925 10d8 48C78424 		movq	$0, 424(%rsp)
 1925      A8010000 
 1925      00000000 
 1926 10e4 48C78424 		movq	$0, 432(%rsp)
 1926      B0010000 
 1926      00000000 
 1927 10f0 48C74424 		movq	$_ZTCN8UnitTest15MemoryOutStreamE0_So+24, 80(%rsp)
 1927      50000000 
 1927      00
 1928 10f9 48C78424 		movq	$_ZTCN8UnitTest15MemoryOutStreamE0_So+64, 176(%rsp)
 1928      B0000000 
 1928      00000000 
 1929              	.LEHB32:
 1930 1105 E8000000 		call	_ZNSt9basic_iosIcSt11char_traitsIcEE4initEPSt15basic_streambufIcS1_E
 1930      00
 1931              	.LEHE32:
 1932 110a 488D7D40 		leaq	64(%rbp), %rdi
 1933 110e 48C74424 		movq	$_ZTCN8UnitTest15MemoryOutStreamE0_St19basic_ostringstreamIcSt11char_traitsIcESaIcEE+24, 80(%
 1933      50000000 
 1933      00
 1934 1117 48C78424 		movq	$_ZTCN8UnitTest15MemoryOutStreamE0_St19basic_ostringstreamIcSt11char_traitsIcESaIcEE+64, 176(
 1934      B0000000 
 1934      00000000 
 1935 1123 48C74424 		movq	$_ZTVSt15basic_streambufIcSt11char_traitsIcEE+16, 88(%rsp)
 1935      58000000 
 1935      00
 1936 112c 48C74424 		movq	$0, 96(%rsp)
 1936      60000000 
 1936      00
 1937 1135 48C74424 		movq	$0, 104(%rsp)
 1937      68000000 
 1937      00
 1938 113e 48C74424 		movq	$0, 112(%rsp)
 1938      70000000 
 1938      00
 1939 1147 48C74424 		movq	$0, 120(%rsp)
 1939      78000000 
 1939      00
 1940 1150 48C78424 		movq	$0, 128(%rsp)
 1940      80000000 
 1940      00000000 
 1941 115c 48C78424 		movq	$0, 136(%rsp)
 1941      88000000 
 1941      00000000 
 1942 1168 E8000000 		call	_ZNSt6localeC1Ev
 1942      00
 1943 116d 488B4424 		movq	80(%rsp), %rax
 1943      50
 1944 1172 4889EF   		movq	%rbp, %rdi
 1945 1175 488D7508 		leaq	8(%rbp), %rsi
 1946 1179 48C74424 		movq	$_ZTVSt15basic_stringbufIcSt11char_traitsIcESaIcEE+16, 88(%rsp)
 1946      58000000 
 1946      00
 1947 1182 C7842498 		movl	$16, 152(%rsp)
 1947      00000010 
 1947      000000
 1948 118d 48C78424 		movq	$_ZNSs4_Rep20_S_empty_rep_storageE+24, 160(%rsp)
 1948      A0000000 
 1948      00000000 
 1949 1199 480378E8 		addq	-24(%rax), %rdi
 1950              	.LEHB33:
 1951 119d E8000000 		call	_ZNSt9basic_iosIcSt11char_traitsIcEE4initEPSt15basic_streambufIcS1_E
 1951      00
 1952              	.LEHE33:
 1953 11a2 488B4308 		movq	8(%rbx), %rax
 1954 11a6 BA090000 		movl	$9, %edx
 1954      00
 1955 11ab BE000000 		movl	$.LC2, %esi
 1955      00
 1956 11b0 4889EF   		movq	%rbp, %rdi
 1957 11b3 48C74424 		movq	$_ZTVN8UnitTest15MemoryOutStreamE+24, 80(%rsp)
 1957      50000000 
 1957      00
 1958 11bc 48C78424 		movq	$_ZTVN8UnitTest15MemoryOutStreamE+64, 176(%rsp)
 1958      B0000000 
 1958      00000000 
 1959 11c8 48C78424 		movq	$_ZNSs4_Rep20_S_empty_rep_storageE+24, 168(%rsp)
 1959      A8000000 
 1959      00000000 
 1960 11d4 48894424 		movq	%rax, 8(%rsp)
 1960      08
 1961              	.LEHB34:
 1962 11d9 E8000000 		call	_ZSt16__ostream_insertIcSt11char_traitsIcEERSt13basic_ostreamIT_T0_ES6_PKS3_l
 1962      00
 1963 11de 4C89F6   		movq	%r14, %rsi
 1964 11e1 4889EF   		movq	%rbp, %rdi
 1965 11e4 E8000000 		call	_ZNSo9_M_insertImEERSoT_
 1965      00
 1966 11e9 BA090000 		movl	$9, %edx
 1966      00
 1967 11ee BE000000 		movl	$.LC3, %esi
 1967      00
 1968 11f3 4889C7   		movq	%rax, %rdi
 1969 11f6 4989C6   		movq	%rax, %r14
 1970 11f9 E8000000 		call	_ZSt16__ostream_insertIcSt11char_traitsIcEERSt13basic_ostreamIT_T0_ES6_PKS3_l
 1970      00
 1971 11fe 488B7424 		movq	8(%rsp), %rsi
 1971      08
 1972 1203 4C89F7   		movq	%r14, %rdi
 1973 1206 E8000000 		call	_ZNSo9_M_insertImEERSoT_
 1973      00
 1974 120b 4889EF   		movq	%rbp, %rdi
 1975 120e E8000000 		call	_ZNK8UnitTest15MemoryOutStream7GetTextEv
 1975      00
 1976 1213 4889C2   		movq	%rax, %rdx
 1977 1216 4C89E6   		movq	%r12, %rsi
 1978 1219 4C89FF   		movq	%r15, %rdi
 1979 121c E8000000 		call	_ZN8UnitTest11TestResults13OnTestFailureERKNS_11TestDetailsEPKc
 1979      00
 1980              	.LEHE34:
 1981 1221 488B8424 		movq	168(%rsp), %rax
 1981      A8000000 
 1982 1229 48C74424 		movq	$_ZTVN8UnitTest15MemoryOutStreamE+24, 80(%rsp)
 1982      50000000 
 1982      00
 1983 1232 48C78424 		movq	$_ZTVN8UnitTest15MemoryOutStreamE+64, 176(%rsp)
 1983      B0000000 
 1983      00000000 
 1984 123e 488D78E8 		leaq	-24(%rax), %rdi
 1985 1242 4881FF00 		cmpq	$_ZNSs4_Rep20_S_empty_rep_storageE, %rdi
 1985      000000
 1986 1249 0F852C02 		jne	.L216
 1986      0000
 1987              	.L177:
 1988 124f 488B8424 		movq	160(%rsp), %rax
 1988      A0000000 
 1989 1257 48C74424 		movq	$_ZTCN8UnitTest15MemoryOutStreamE0_St19basic_ostringstreamIcSt11char_traitsIcESaIcEE+24, 80(%
 1989      50000000 
 1989      00
 1990 1260 48C78424 		movq	$_ZTCN8UnitTest15MemoryOutStreamE0_St19basic_ostringstreamIcSt11char_traitsIcESaIcEE+64, 176(
 1990      B0000000 
 1990      00000000 
 1991 126c 48C74424 		movq	$_ZTVSt15basic_stringbufIcSt11char_traitsIcESaIcEE+16, 88(%rsp)
 1991      58000000 
 1991      00
 1992 1275 488D78E8 		leaq	-24(%rax), %rdi
 1993 1279 4881FF00 		cmpq	$_ZNSs4_Rep20_S_empty_rep_storageE, %rdi
 1993      000000
 1994 1280 0F85C701 		jne	.L217
 1994      0000
 1995              	.L182:
 1996 1286 488D7D40 		leaq	64(%rbp), %rdi
 1997 128a 48C74424 		movq	$_ZTVSt15basic_streambufIcSt11char_traitsIcEE+16, 88(%rsp)
 1997      58000000 
 1997      00
 1998 1293 E8000000 		call	_ZNSt6localeD1Ev
 1998      00
 1999 1298 488D7D60 		leaq	96(%rbp), %rdi
 2000 129c 48C74424 		movq	$_ZTCN8UnitTest15MemoryOutStreamE0_So+24, 80(%rsp)
 2000      50000000 
 2000      00
 2001 12a5 48C78424 		movq	$_ZTVSt9basic_iosIcSt11char_traitsIcEE+16, 176(%rsp)
 2001      B0000000 
 2001      00000000 
 2002              	.LEHB35:
 2003 12b1 E8000000 		call	_ZNSt8ios_baseD2Ev
 2003      00
 2004              	.LEHE35:
 2005              	.L215:
 2006 12b6 4C8B7308 		movq	8(%rbx), %r14
 2007              	.L187:
 2008 12ba 4D01F6   		addq	%r14, %r14
 2009 12bd 744A     		je	.L193
 2010 12bf 31C0     		xorl	%eax, %eax
 2011 12c1 31ED     		xorl	%ebp, %ebp
 2012              		.p2align 4,,10
 2013 12c3 0F1F4400 		.p2align 3
 2013      00
 2014              	.L194:
 2015 12c8 488B13   		movq	(%rbx), %rdx
 2016 12cb 8D7C2D00 		leal	(%rbp,%rbp), %edi
 2017 12cf 488D8C24 		leaq	448(%rsp), %rcx
 2017      C0010000 
 2018 12d7 BE010000 		movl	$1, %esi
 2018      00
 2019 12dc 83C501   		addl	$1, %ebp
 2020 12df 4801CF   		addq	%rcx, %rdi
 2021 12e2 B9000000 		movl	$.LC10, %ecx
 2021      00
 2022 12e7 440FB604 		movzbl	(%rdx,%rax), %r8d
 2022      02
 2023 12ec 31C0     		xorl	%eax, %eax
 2024 12ee 48C7C2FF 		movq	$-1, %rdx
 2024      FFFFFF
 2025 12f5 E8000000 		call	__sprintf_chk
 2025      00
 2026 12fa 488B7308 		movq	8(%rbx), %rsi
 2027 12fe 89E8     		movl	%ebp, %eax
 2028 1300 4C8D3436 		leaq	(%rsi,%rsi), %r14
 2029 1304 4C39F0   		cmpq	%r14, %rax
 2030 1307 72BF     		jb	.L194
 2031              	.L193:
 2032 1309 42C68434 		movb	$0, 448(%rsp,%r14)
 2032      C0010000 
 2032      00
 2033              	.LEHB36:
 2034 1312 E8000000 		call	_ZN8UnitTest11CurrentTest7DetailsEv
 2034      00
 2035 1317 488B30   		movq	(%rax), %rsi
 2036 131a BA270000 		movl	$39, %edx
 2036      00
 2037 131f 4C89E7   		movq	%r12, %rdi
 2038 1322 E8000000 		call	_ZN8UnitTest11TestDetailsC1ERKS0_i
 2038      00
 2039 1327 E8000000 		call	_ZN8UnitTest11CurrentTest7ResultsEv
 2039      00
 2040 132c 488B38   		movq	(%rax), %rdi
 2041 132f 488D9424 		leaq	448(%rsp), %rdx
 2041      C0010000 
 2042 1337 4C89E1   		movq	%r12, %rcx
 2043 133a 4C89EE   		movq	%r13, %rsi
 2044 133d E8000000 		call	_ZN8UnitTest10CheckEqualERNS_11TestResultsEPKcPcRKNS_11TestDetailsE
 2044      00
 2045              	.LEHE36:
 2046              	.L169:
 2047 1342 488B8424 		movq	1480(%rsp), %rax
 2047      C8050000 
 2048 134a 64483304 		xorq	%fs:40, %rax
 2048      25280000 
 2048      00
 2049 1353 7553     		jne	.L218
 2050 1355 4881C4D8 		addq	$1496, %rsp
 2050      050000
 2051              		.cfi_remember_state
 2052              		.cfi_def_cfa_offset 56
 2053 135c 5B       		popq	%rbx
 2054              		.cfi_def_cfa_offset 48
 2055 135d 5D       		popq	%rbp
 2056              		.cfi_def_cfa_offset 40
 2057 135e 415C     		popq	%r12
 2058              		.cfi_def_cfa_offset 32
 2059 1360 415D     		popq	%r13
 2060              		.cfi_def_cfa_offset 24
 2061 1362 415E     		popq	%r14
 2062              		.cfi_def_cfa_offset 16
 2063 1364 415F     		popq	%r15
 2064              		.cfi_def_cfa_offset 8
 2065 1366 C3       		ret
 2066              	.L200:
 2067              		.cfi_restore_state
 2068 1367 4889C7   		movq	%rax, %rdi
 2069 136a E8000000 		call	__cxa_begin_catch
 2069      00
 2070              	.LEHB37:
 2071 136f E8000000 		call	_ZN8UnitTest11CurrentTest7DetailsEv
 2071      00
 2072 1374 488D6C24 		leaq	80(%rsp), %rbp
 2072      50
 2073 1379 488B30   		movq	(%rax), %rsi
 2074 137c BA210000 		movl	$33, %edx
 2074      00
 2075 1381 4889EF   		movq	%rbp, %rdi
 2076 1384 E8000000 		call	_ZN8UnitTest11TestDetailsC1ERKS0_i
 2076      00
 2077 1389 E8000000 		call	_ZN8UnitTest11CurrentTest7ResultsEv
 2077      00
 2078 138e 488B38   		movq	(%rax), %rdi
 2079 1391 BA000000 		movl	$.LC12, %edx
 2079      00
 2080 1396 4889EE   		movq	%rbp, %rsi
 2081 1399 E8000000 		call	_ZN8UnitTest11TestResults13OnTestFailureERKNS_11TestDetailsEPKc
 2081      00
 2082              	.LEHE37:
 2083              	.LEHB38:
 2084 139e E8000000 		call	__cxa_end_catch
 2084      00
 2085              	.LEHE38:
 2086 13a3 E9B5FCFF 		jmp	.L191
 2086      FF
 2087              	.L218:
 2088 13a8 0F1F8400 		.p2align 4,,8
 2088      00000000 
 2089 13b0 E8000000 		call	__stack_chk_fail
 2089      00
 2090              	.L206:
 2091 13b5 4989C4   		movq	%rax, %r12
 2092 13b8 4889EF   		movq	%rbp, %rdi
 2093 13bb E8000000 		call	_ZN8UnitTest15MemoryOutStreamD1Ev
 2093      00
 2094 13c0 4C89E0   		movq	%r12, %rax
 2095              	.L175:
 2096 13c3 4889C7   		movq	%rax, %rdi
 2097 13c6 E8000000 		call	__cxa_begin_catch
 2097      00
 2098              	.LEHB39:
 2099 13cb E8000000 		call	_ZN8UnitTest11CurrentTest7DetailsEv
 2099      00
 2100 13d0 4C8D6424 		leaq	48(%rsp), %r12
 2100      30
 2101 13d5 488B30   		movq	(%rax), %rsi
 2102 13d8 BA220000 		movl	$34, %edx
 2102      00
 2103 13dd 4C89E7   		movq	%r12, %rdi
 2104 13e0 E8000000 		call	_ZN8UnitTest11TestDetailsC1ERKS0_i
 2104      00
 2105 13e5 E8000000 		call	_ZN8UnitTest11CurrentTest7ResultsEv
 2105      00
 2106 13ea 488B38   		movq	(%rax), %rdi
 2107 13ed BA000000 		movl	$.LC13, %edx
 2107      00
 2108 13f2 4C89E6   		movq	%r12, %rsi
 2109 13f5 E8000000 		call	_ZN8UnitTest11TestResults13OnTestFailureERKNS_11TestDetailsEPKc
 2109      00
 2110              	.LEHE39:
 2111              	.LEHB40:
 2112 13fa E8000000 		call	__cxa_end_catch
 2112      00
 2113              	.LEHE40:
 2114 13ff E9B2FEFF 		jmp	.L215
 2114      FF
 2115              	.L208:
 2116 1404 488D7D08 		leaq	8(%rbp), %rdi
 2117 1408 4989C4   		movq	%rax, %r12
 2118 140b E8000000 		call	_ZNSt15basic_stringbufIcSt11char_traitsIcESaIcEED1Ev
 2118      00
 2119 1410 48C74424 		movq	$_ZTCN8UnitTest15MemoryOutStreamE0_So+24, 80(%rsp)
 2119      50000000 
 2119      00
 2120              	.L173:
 2121 1419 488D7D60 		leaq	96(%rbp), %rdi
 2122 141d 48C78424 		movq	$_ZTVSt9basic_iosIcSt11char_traitsIcEE+16, 176(%rsp)
 2122      B0000000 
 2122      00000000 
 2123 1429 E8000000 		call	_ZNSt8ios_baseD2Ev
 2123      00
 2124 142e 4C89E0   		movq	%r12, %rax
 2125 1431 EB90     		jmp	.L175
 2126              	.L203:
 2127 1433 4889C3   		movq	%rax, %rbx
 2128 1436 E8000000 		call	__cxa_end_catch
 2128      00
 2129 143b 4889DF   		movq	%rbx, %rdi
 2130              	.LEHB41:
 2131 143e E8000000 		call	_Unwind_Resume
 2131      00
 2132              	.LEHE41:
 2133              	.L207:
 2134 1443 4989C4   		movq	%rax, %r12
 2135 1446 EBD1     		jmp	.L173
 2136              	.L202:
 2137              		.p2align 4,,2
 2138 1448 E976FFFF 		jmp	.L175
 2138      FF
 2139              	.L217:
 2140 144d B9000000 		movl	$_ZL28__gthrw___pthread_key_createPjPFvPvE, %ecx
 2140      00
 2141 1452 488D5710 		leaq	16(%rdi), %rdx
 2142 1456 4885C9   		testq	%rcx, %rcx
 2143 1459 744E     		je	.L183
 2144 145b B8FFFFFF 		movl	$-1, %eax
 2144      FF
 2145 1460 F00FC102 		lock xaddl	%eax, (%rdx)
 2146              	.L184:
 2147 1464 85C0     		testl	%eax, %eax
 2148 1466 0F8F1AFE 		jg	.L182
 2148      FFFF
 2149 146c 488D7424 		leaq	31(%rsp), %rsi
 2149      1F
 2150 1471 E8000000 		call	_ZNSs4_Rep10_M_destroyERKSaIcE
 2150      00
 2151 1476 E90BFEFF 		jmp	.L182
 2151      FF
 2152              	.L216:
 2153 147b B9000000 		movl	$_ZL28__gthrw___pthread_key_createPjPFvPvE, %ecx
 2153      00
 2154 1480 488D5710 		leaq	16(%rdi), %rdx
 2155 1484 4885C9   		testq	%rcx, %rcx
 2156 1487 742D     		je	.L178
 2157 1489 B8FFFFFF 		movl	$-1, %eax
 2157      FF
 2158 148e F00FC102 		lock xaddl	%eax, (%rdx)
 2159              	.L179:
 2160 1492 85C0     		testl	%eax, %eax
 2161 1494 0F8FB5FD 		jg	.L177
 2161      FFFF
 2162 149a 488D7424 		leaq	31(%rsp), %rsi
 2162      1F
 2163 149f E8000000 		call	_ZNSs4_Rep10_M_destroyERKSaIcE
 2163      00
 2164 14a4 E9A6FDFF 		jmp	.L177
 2164      FF
 2165              	.L183:
 2166 14a9 8B50F8   		movl	-8(%rax), %edx
 2167 14ac 8D4AFF   		leal	-1(%rdx), %ecx
 2168 14af 8948F8   		movl	%ecx, -8(%rax)
 2169 14b2 89D0     		movl	%edx, %eax
 2170 14b4 EBAE     		jmp	.L184
 2171              	.L178:
 2172 14b6 8B50F8   		movl	-8(%rax), %edx
 2173 14b9 8D4AFF   		leal	-1(%rdx), %ecx
 2174 14bc 8948F8   		movl	%ecx, -8(%rax)
 2175 14bf 89D0     		movl	%edx, %eax
 2176 14c1 EBCF     		jmp	.L179
 2177              	.L204:
 2178 14c3 4889C7   		movq	%rax, %rdi
 2179 14c6 E8000000 		call	__cxa_begin_catch
 2179      00
 2180              	.LEHB42:
 2181 14cb E8000000 		call	_ZN8UnitTest11CurrentTest7DetailsEv
 2181      00
 2182 14d0 488B30   		movq	(%rax), %rsi
 2183 14d3 BA270000 		movl	$39, %edx
 2183      00
 2184 14d8 4C89E7   		movq	%r12, %rdi
 2185 14db E8000000 		call	_ZN8UnitTest11TestDetailsC1ERKS0_i
 2185      00
 2186 14e0 E8000000 		call	_ZN8UnitTest11CurrentTest7ResultsEv
 2186      00
 2187 14e5 488B38   		movq	(%rax), %rdi
 2188 14e8 BA000000 		movl	$.LC14, %edx
 2188      00
 2189 14ed 4C89E6   		movq	%r12, %rsi
 2190 14f0 E8000000 		call	_ZN8UnitTest11TestResults13OnTestFailureERKNS_11TestDetailsEPKc
 2190      00
 2191              	.LEHE42:
 2192              	.LEHB43:
 2193 14f5 E8000000 		call	__cxa_end_catch
 2193      00
 2194              	.LEHE43:
 2195 14fa E943FEFF 		jmp	.L169
 2195      FF
 2196              	.L201:
 2197 14ff 4889C3   		movq	%rax, %rbx
 2198              		.p2align 4,,5
 2199 1502 E8000000 		call	__cxa_end_catch
 2199      00
 2200 1507 4889DF   		movq	%rbx, %rdi
 2201              	.LEHB44:
 2202 150a E8000000 		call	_Unwind_Resume
 2202      00
 2203              	.LEHE44:
 2204              	.L205:
 2205 150f 4889C3   		movq	%rax, %rbx
 2206 1512 E8000000 		call	__cxa_end_catch
 2206      00
 2207 1517 4889DF   		movq	%rbx, %rdi
 2208              	.LEHB45:
 2209 151a E8000000 		call	_Unwind_Resume
 2209      00
 2210              	.LEHE45:
 2211              		.cfi_endproc
 2212              	.LFE1109:
 2213              		.section	.gcc_except_table
 2214 00b5 000000   		.align 4
 2215              	.LLSDA1109:
 2216 00b8 FF       		.byte	0xff
 2217 00b9 03       		.byte	0x3
 2218 00ba 69       		.uleb128 .LLSDATT1109-.LLSDATTD1109
 2219              	.LLSDATTD1109:
 2220 00bb 01       		.byte	0x1
 2221 00bc 5D       		.uleb128 .LLSDACSE1109-.LLSDACSB1109
 2222              	.LLSDACSB1109:
 2223 00bd 38       		.uleb128 .LEHB29-.LFB1109
 2224 00be 12       		.uleb128 .LEHE29-.LEHB29
 2225 00bf 00       		.uleb128 0
 2226 00c0 00       		.uleb128 0
 2227 00c1 51       		.uleb128 .LEHB30-.LFB1109
 2228 00c2 3C       		.uleb128 .LEHE30-.LEHB30
 2229 00c3 9707     		.uleb128 .L200-.LFB1109
 2230 00c5 01       		.uleb128 0x1
 2231 00c6 8D01     		.uleb128 .LEHB31-.LFB1109
 2232 00c8 1F       		.uleb128 .LEHE31-.LEHB31
 2233 00c9 F808     		.uleb128 .L202-.LFB1109
 2234 00cb 01       		.uleb128 0x1
 2235 00cc B502     		.uleb128 .LEHB32-.LFB1109
 2236 00ce 05       		.uleb128 .LEHE32-.LEHB32
 2237 00cf F308     		.uleb128 .L207-.LFB1109
 2238 00d1 03       		.uleb128 0x3
 2239 00d2 CD03     		.uleb128 .LEHB33-.LFB1109
 2240 00d4 05       		.uleb128 .LEHE33-.LEHB33
 2241 00d5 B408     		.uleb128 .L208-.LFB1109
 2242 00d7 03       		.uleb128 0x3
 2243 00d8 8904     		.uleb128 .LEHB34-.LFB1109
 2244 00da 48       		.uleb128 .LEHE34-.LEHB34
 2245 00db E507     		.uleb128 .L206-.LFB1109
 2246 00dd 03       		.uleb128 0x3
 2247 00de E105     		.uleb128 .LEHB35-.LFB1109
 2248 00e0 05       		.uleb128 .LEHE35-.LEHB35
 2249 00e1 F808     		.uleb128 .L202-.LFB1109
 2250 00e3 01       		.uleb128 0x1
 2251 00e4 C206     		.uleb128 .LEHB36-.LFB1109
 2252 00e6 30       		.uleb128 .LEHE36-.LEHB36
 2253 00e7 F309     		.uleb128 .L204-.LFB1109
 2254 00e9 01       		.uleb128 0x1
 2255 00ea 9F07     		.uleb128 .LEHB37-.LFB1109
 2256 00ec 2F       		.uleb128 .LEHE37-.LEHB37
 2257 00ed AF0A     		.uleb128 .L201-.LFB1109
 2258 00ef 00       		.uleb128 0
 2259 00f0 CE07     		.uleb128 .LEHB38-.LFB1109
 2260 00f2 05       		.uleb128 .LEHE38-.LEHB38
 2261 00f3 00       		.uleb128 0
 2262 00f4 00       		.uleb128 0
 2263 00f5 FB07     		.uleb128 .LEHB39-.LFB1109
 2264 00f7 2F       		.uleb128 .LEHE39-.LEHB39
 2265 00f8 E308     		.uleb128 .L203-.LFB1109
 2266 00fa 00       		.uleb128 0
 2267 00fb AA08     		.uleb128 .LEHB40-.LFB1109
 2268 00fd 05       		.uleb128 .LEHE40-.LEHB40
 2269 00fe 00       		.uleb128 0
 2270 00ff 00       		.uleb128 0
 2271 0100 EE08     		.uleb128 .LEHB41-.LFB1109
 2272 0102 05       		.uleb128 .LEHE41-.LEHB41
 2273 0103 00       		.uleb128 0
 2274 0104 00       		.uleb128 0
 2275 0105 FB09     		.uleb128 .LEHB42-.LFB1109
 2276 0107 2A       		.uleb128 .LEHE42-.LEHB42
 2277 0108 BF0A     		.uleb128 .L205-.LFB1109
 2278 010a 00       		.uleb128 0
 2279 010b A50A     		.uleb128 .LEHB43-.LFB1109
 2280 010d 05       		.uleb128 .LEHE43-.LEHB43
 2281 010e 00       		.uleb128 0
 2282 010f 00       		.uleb128 0
 2283 0110 BA0A     		.uleb128 .LEHB44-.LFB1109
 2284 0112 05       		.uleb128 .LEHE44-.LEHB44
 2285 0113 00       		.uleb128 0
 2286 0114 00       		.uleb128 0
 2287 0115 CA0A     		.uleb128 .LEHB45-.LFB1109
 2288 0117 05       		.uleb128 .LEHE45-.LEHB45
 2289 0118 00       		.uleb128 0
 2290 0119 00       		.uleb128 0
 2291              	.LLSDACSE1109:
 2292 011a 01       		.byte	0x1
 2293 011b 00       		.byte	0
 2294 011c 00       		.byte	0
 2295 011d 7D       		.byte	0x7d
 2296 011e 0000     		.align 4
 2297 0120 00000000 		.long	0
 2298              	
 2299              	.LLSDATT1109:
 2300              		.text
 2302              		.section	.text._ZN8UnitTest10CheckEqualI12BufferStatusS1_EEvRNS_11TestResultsERKT_RKT0_RKNS_11Test
 2303              		.p2align 4,,15
 2304              		.weak	_ZN8UnitTest10CheckEqualI12BufferStatusS1_EEvRNS_11TestResultsERKT_RKT0_RKNS_11TestDetailsE
 2306              	_ZN8UnitTest10CheckEqualI12BufferStatusS1_EEvRNS_11TestResultsERKT_RKT0_RKNS_11TestDetailsE:
 2307              	.LFB1169:
 2308              		.cfi_startproc
 2309              		.cfi_personality 0x3,__gxx_personality_v0
 2310              		.cfi_lsda 0x3,.LLSDA1169
 2311 0000 4156     		pushq	%r14
 2312              		.cfi_def_cfa_offset 16
 2313              		.cfi_offset 14, -16
 2314 0002 4155     		pushq	%r13
 2315              		.cfi_def_cfa_offset 24
 2316              		.cfi_offset 13, -24
 2317 0004 4154     		pushq	%r12
 2318              		.cfi_def_cfa_offset 32
 2319              		.cfi_offset 12, -32
 2320 0006 55       		pushq	%rbp
 2321              		.cfi_def_cfa_offset 40
 2322              		.cfi_offset 6, -40
 2323 0007 4889D5   		movq	%rdx, %rbp
 2324 000a 53       		pushq	%rbx
 2325              		.cfi_def_cfa_offset 48
 2326              		.cfi_offset 3, -48
 2327 000b 4889F3   		movq	%rsi, %rbx
 2328 000e 4881EC80 		subq	$384, %rsp
 2328      010000
 2329              		.cfi_def_cfa_offset 432
 2330 0015 8B02     		movl	(%rdx), %eax
 2331 0017 3906     		cmpl	%eax, (%rsi)
 2332 0019 0F84FF01 		je	.L219
 2332      0000
 2333 001f 4C8D6424 		leaq	112(%rsp), %r12
 2333      70
 2334 0024 4989FD   		movq	%rdi, %r13
 2335 0027 4989CE   		movq	%rcx, %r14
 2336 002a 4C89E7   		movq	%r12, %rdi
 2337 002d E8000000 		call	_ZNSt8ios_baseC2Ev
 2337      00
 2338 0032 31F6     		xorl	%esi, %esi
 2339 0034 4C89E7   		movq	%r12, %rdi
 2340 0037 48C78424 		movq	$0, 328(%rsp)
 2340      48010000 
 2340      00000000 
 2341 0043 C6842450 		movb	$0, 336(%rsp)
 2341      01000000 
 2342 004b C6842451 		movb	$0, 337(%rsp)
 2342      01000000 
 2343 0053 48C78424 		movq	$0, 344(%rsp)
 2343      58010000 
 2343      00000000 
 2344 005f 48C78424 		movq	$0, 352(%rsp)
 2344      60010000 
 2344      00000000 
 2345 006b 48C78424 		movq	$0, 360(%rsp)
 2345      68010000 
 2345      00000000 
 2346 0077 48C78424 		movq	$0, 368(%rsp)
 2346      70010000 
 2346      00000000 
 2347 0083 48C74424 		movq	$_ZTCN8UnitTest15MemoryOutStreamE0_So+24, 16(%rsp)
 2347      10000000 
 2347      00
 2348 008c 48C74424 		movq	$_ZTCN8UnitTest15MemoryOutStreamE0_So+64, 112(%rsp)
 2348      70000000 
 2348      00
 2349              	.LEHB46:
 2350 0095 E8000000 		call	_ZNSt9basic_iosIcSt11char_traitsIcEE4initEPSt15basic_streambufIcS1_E
 2350      00
 2351              	.LEHE46:
 2352 009a 488D7C24 		leaq	80(%rsp), %rdi
 2352      50
 2353 009f 48C74424 		movq	$_ZTCN8UnitTest15MemoryOutStreamE0_St19basic_ostringstreamIcSt11char_traitsIcESaIcEE+24, 16(%
 2353      10000000 
 2353      00
 2354 00a8 48C74424 		movq	$_ZTCN8UnitTest15MemoryOutStreamE0_St19basic_ostringstreamIcSt11char_traitsIcESaIcEE+64, 112(
 2354      70000000 
 2354      00
 2355 00b1 48C74424 		movq	$_ZTVSt15basic_streambufIcSt11char_traitsIcEE+16, 24(%rsp)
 2355      18000000 
 2355      00
 2356 00ba 48C74424 		movq	$0, 32(%rsp)
 2356      20000000 
 2356      00
 2357 00c3 48C74424 		movq	$0, 40(%rsp)
 2357      28000000 
 2357      00
 2358 00cc 48C74424 		movq	$0, 48(%rsp)
 2358      30000000 
 2358      00
 2359 00d5 48C74424 		movq	$0, 56(%rsp)
 2359      38000000 
 2359      00
 2360 00de 48C74424 		movq	$0, 64(%rsp)
 2360      40000000 
 2360      00
 2361 00e7 48C74424 		movq	$0, 72(%rsp)
 2361      48000000 
 2361      00
 2362 00f0 E8000000 		call	_ZNSt6localeC1Ev
 2362      00
 2363 00f5 488B4424 		movq	16(%rsp), %rax
 2363      10
 2364 00fa 488D7C24 		leaq	16(%rsp), %rdi
 2364      10
 2365 00ff 488D7424 		leaq	24(%rsp), %rsi
 2365      18
 2366 0104 48C74424 		movq	$_ZTVSt15basic_stringbufIcSt11char_traitsIcESaIcEE+16, 24(%rsp)
 2366      18000000 
 2366      00
 2367 010d C7442458 		movl	$16, 88(%rsp)
 2367      10000000 
 2368 0115 48C74424 		movq	$_ZNSs4_Rep20_S_empty_rep_storageE+24, 96(%rsp)
 2368      60000000 
 2368      00
 2369 011e 480378E8 		addq	-24(%rax), %rdi
 2370              	.LEHB47:
 2371 0122 E8000000 		call	_ZNSt9basic_iosIcSt11char_traitsIcEE4initEPSt15basic_streambufIcS1_E
 2371      00
 2372              	.LEHE47:
 2373 0127 488D7C24 		leaq	16(%rsp), %rdi
 2373      10
 2374 012c BA090000 		movl	$9, %edx
 2374      00
 2375 0131 BE000000 		movl	$.LC2, %esi
 2375      00
 2376 0136 48C74424 		movq	$_ZTVN8UnitTest15MemoryOutStreamE+24, 16(%rsp)
 2376      10000000 
 2376      00
 2377 013f 48C74424 		movq	$_ZTVN8UnitTest15MemoryOutStreamE+64, 112(%rsp)
 2377      70000000 
 2377      00
 2378 0148 48C74424 		movq	$_ZNSs4_Rep20_S_empty_rep_storageE+24, 104(%rsp)
 2378      68000000 
 2378      00
 2379 0151 8B6D00   		movl	0(%rbp), %ebp
 2380 0154 8B1B     		movl	(%rbx), %ebx
 2381              	.LEHB48:
 2382 0156 E8000000 		call	_ZSt16__ostream_insertIcSt11char_traitsIcEERSt13basic_ostreamIT_T0_ES6_PKS3_l
 2382      00
 2383 015b 488D7C24 		leaq	16(%rsp), %rdi
 2383      10
 2384 0160 89DE     		movl	%ebx, %esi
 2385 0162 E8000000 		call	_ZNSolsEi
 2385      00
 2386 0167 BA090000 		movl	$9, %edx
 2386      00
 2387 016c BE000000 		movl	$.LC3, %esi
 2387      00
 2388 0171 4889C7   		movq	%rax, %rdi
 2389 0174 4889C3   		movq	%rax, %rbx
 2390 0177 E8000000 		call	_ZSt16__ostream_insertIcSt11char_traitsIcEERSt13basic_ostreamIT_T0_ES6_PKS3_l
 2390      00
 2391 017c 89EE     		movl	%ebp, %esi
 2392 017e 4889DF   		movq	%rbx, %rdi
 2393 0181 E8000000 		call	_ZNSolsEi
 2393      00
 2394 0186 488D7C24 		leaq	16(%rsp), %rdi
 2394      10
 2395 018b E8000000 		call	_ZNK8UnitTest15MemoryOutStream7GetTextEv
 2395      00
 2396 0190 4889C2   		movq	%rax, %rdx
 2397 0193 4C89F6   		movq	%r14, %rsi
 2398 0196 4C89EF   		movq	%r13, %rdi
 2399 0199 E8000000 		call	_ZN8UnitTest11TestResults13OnTestFailureERKNS_11TestDetailsEPKc
 2399      00
 2400              	.LEHE48:
 2401 019e 488B4424 		movq	104(%rsp), %rax
 2401      68
 2402 01a3 48C74424 		movq	$_ZTVN8UnitTest15MemoryOutStreamE+24, 16(%rsp)
 2402      10000000 
 2402      00
 2403 01ac 48C74424 		movq	$_ZTVN8UnitTest15MemoryOutStreamE+64, 112(%rsp)
 2403      70000000 
 2403      00
 2404 01b5 488D78E8 		leaq	-24(%rax), %rdi
 2405 01b9 4881FF00 		cmpq	$_ZNSs4_Rep20_S_empty_rep_storageE, %rdi
 2405      000000
 2406 01c0 756C     		jne	.L242
 2407              	.L226:
 2408 01c2 488B4424 		movq	96(%rsp), %rax
 2408      60
 2409 01c7 48C74424 		movq	$_ZTCN8UnitTest15MemoryOutStreamE0_St19basic_ostringstreamIcSt11char_traitsIcESaIcEE+24, 16(%
 2409      10000000 
 2409      00
 2410 01d0 48C74424 		movq	$_ZTCN8UnitTest15MemoryOutStreamE0_St19basic_ostringstreamIcSt11char_traitsIcESaIcEE+64, 112(
 2410      70000000 
 2410      00
 2411 01d9 48C74424 		movq	$_ZTVSt15basic_stringbufIcSt11char_traitsIcESaIcEE+16, 24(%rsp)
 2411      18000000 
 2411      00
 2412 01e2 488D78E8 		leaq	-24(%rax), %rdi
 2413 01e6 4881FF00 		cmpq	$_ZNSs4_Rep20_S_empty_rep_storageE, %rdi
 2413      000000
 2414 01ed 756B     		jne	.L243
 2415              	.L231:
 2416 01ef 488D7C24 		leaq	80(%rsp), %rdi
 2416      50
 2417 01f4 48C74424 		movq	$_ZTVSt15basic_streambufIcSt11char_traitsIcEE+16, 24(%rsp)
 2417      18000000 
 2417      00
 2418 01fd E8000000 		call	_ZNSt6localeD1Ev
 2418      00
 2419 0202 488D7C24 		leaq	112(%rsp), %rdi
 2419      70
 2420 0207 48C74424 		movq	$_ZTCN8UnitTest15MemoryOutStreamE0_So+24, 16(%rsp)
 2420      10000000 
 2420      00
 2421 0210 48C74424 		movq	$_ZTVSt9basic_iosIcSt11char_traitsIcEE+16, 112(%rsp)
 2421      70000000 
 2421      00
 2422              	.LEHB49:
 2423 0219 E8000000 		call	_ZNSt8ios_baseD2Ev
 2423      00
 2424              	.LEHE49:
 2425              	.L219:
 2426 021e 4881C480 		addq	$384, %rsp
 2426      010000
 2427              		.cfi_remember_state
 2428              		.cfi_def_cfa_offset 48
 2429 0225 5B       		popq	%rbx
 2430              		.cfi_def_cfa_offset 40
 2431 0226 5D       		popq	%rbp
 2432              		.cfi_def_cfa_offset 32
 2433 0227 415C     		popq	%r12
 2434              		.cfi_def_cfa_offset 24
 2435 0229 415D     		popq	%r13
 2436              		.cfi_def_cfa_offset 16
 2437 022b 415E     		popq	%r14
 2438              		.cfi_def_cfa_offset 8
 2439 022d C3       		ret
 2440              	.L242:
 2441              		.cfi_restore_state
 2442 022e B9000000 		movl	$_ZL28__gthrw___pthread_key_createPjPFvPvE, %ecx
 2442      00
 2443 0233 488D5710 		leaq	16(%rdi), %rdx
 2444 0237 4885C9   		testq	%rcx, %rcx
 2445 023a 747D     		je	.L227
 2446 023c 83C8FF   		orl	$-1, %eax
 2447 023f F00FC102 		lock xaddl	%eax, (%rdx)
 2448              	.L228:
 2449 0243 85C0     		testl	%eax, %eax
 2450 0245 0F8F77FF 		jg	.L226
 2450      FFFF
 2451 024b 488D7424 		leaq	15(%rsp), %rsi
 2451      0F
 2452 0250 E8000000 		call	_ZNSs4_Rep10_M_destroyERKSaIcE
 2452      00
 2453 0255 E968FFFF 		jmp	.L226
 2453      FF
 2454              	.L243:
 2455 025a B9000000 		movl	$_ZL28__gthrw___pthread_key_createPjPFvPvE, %ecx
 2455      00
 2456 025f 488D5710 		leaq	16(%rdi), %rdx
 2457 0263 4885C9   		testq	%rcx, %rcx
 2458 0266 7479     		je	.L232
 2459 0268 83C8FF   		orl	$-1, %eax
 2460 026b F00FC102 		lock xaddl	%eax, (%rdx)
 2461              	.L233:
 2462 026f 85C0     		testl	%eax, %eax
 2463 0271 0F8F78FF 		jg	.L231
 2463      FFFF
 2464 0277 488D7424 		leaq	15(%rsp), %rsi
 2464      0F
 2465 027c E8000000 		call	_ZNSs4_Rep10_M_destroyERKSaIcE
 2465      00
 2466 0281 E969FFFF 		jmp	.L231
 2466      FF
 2467              	.L236:
 2468 0286 488D7C24 		leaq	16(%rsp), %rdi
 2468      10
 2469 028b 4889C3   		movq	%rax, %rbx
 2470 028e E8000000 		call	_ZN8UnitTest15MemoryOutStreamD1Ev
 2470      00
 2471 0293 4889DF   		movq	%rbx, %rdi
 2472              	.LEHB50:
 2473 0296 E8000000 		call	_Unwind_Resume
 2473      00
 2474              	.LEHE50:
 2475              	.L237:
 2476 029b 4889C3   		movq	%rax, %rbx
 2477              	.L223:
 2478 029e 488D7C24 		leaq	112(%rsp), %rdi
 2478      70
 2479 02a3 48C74424 		movq	$_ZTVSt9basic_iosIcSt11char_traitsIcEE+16, 112(%rsp)
 2479      70000000 
 2479      00
 2480 02ac E8000000 		call	_ZNSt8ios_baseD2Ev
 2480      00
 2481 02b1 4889DF   		movq	%rbx, %rdi
 2482              	.LEHB51:
 2483 02b4 E8000000 		call	_Unwind_Resume
 2483      00
 2484              	.LEHE51:
 2485              	.L227:
 2486 02b9 8B50F8   		movl	-8(%rax), %edx
 2487 02bc 8D4AFF   		leal	-1(%rdx), %ecx
 2488 02bf 8948F8   		movl	%ecx, -8(%rax)
 2489 02c2 89D0     		movl	%edx, %eax
 2490 02c4 E97AFFFF 		jmp	.L228
 2490      FF
 2491              	.L238:
 2492 02c9 488D7C24 		leaq	24(%rsp), %rdi
 2492      18
 2493 02ce 4889C3   		movq	%rax, %rbx
 2494 02d1 E8000000 		call	_ZNSt15basic_stringbufIcSt11char_traitsIcESaIcEED1Ev
 2494      00
 2495 02d6 48C74424 		movq	$_ZTCN8UnitTest15MemoryOutStreamE0_So+24, 16(%rsp)
 2495      10000000 
 2495      00
 2496 02df EBBD     		jmp	.L223
 2497              	.L232:
 2498 02e1 8B50F8   		movl	-8(%rax), %edx
 2499 02e4 8D4AFF   		leal	-1(%rdx), %ecx
 2500 02e7 8948F8   		movl	%ecx, -8(%rax)
 2501 02ea 89D0     		movl	%edx, %eax
 2502 02ec EB81     		jmp	.L233
 2503              		.cfi_endproc
 2504              	.LFE1169:
 2505              		.section	.gcc_except_table
 2506              	.LLSDA1169:
 2507 0124 FF       		.byte	0xff
 2508 0125 FF       		.byte	0xff
 2509 0126 01       		.byte	0x1
 2510 0127 21       		.uleb128 .LLSDACSE1169-.LLSDACSB1169
 2511              	.LLSDACSB1169:
 2512 0128 9501     		.uleb128 .LEHB46-.LFB1169
 2513 012a 05       		.uleb128 .LEHE46-.LEHB46
 2514 012b 9B05     		.uleb128 .L237-.LFB1169
 2515 012d 00       		.uleb128 0
 2516 012e A202     		.uleb128 .LEHB47-.LFB1169
 2517 0130 05       		.uleb128 .LEHE47-.LEHB47
 2518 0131 C905     		.uleb128 .L238-.LFB1169
 2519 0133 00       		.uleb128 0
 2520 0134 D602     		.uleb128 .LEHB48-.LFB1169
 2521 0136 48       		.uleb128 .LEHE48-.LEHB48
 2522 0137 8605     		.uleb128 .L236-.LFB1169
 2523 0139 00       		.uleb128 0
 2524 013a 9904     		.uleb128 .LEHB49-.LFB1169
 2525 013c 05       		.uleb128 .LEHE49-.LEHB49
 2526 013d 00       		.uleb128 0
 2527 013e 00       		.uleb128 0
 2528 013f 9605     		.uleb128 .LEHB50-.LFB1169
 2529 0141 05       		.uleb128 .LEHE50-.LEHB50
 2530 0142 00       		.uleb128 0
 2531 0143 00       		.uleb128 0
 2532 0144 B405     		.uleb128 .LEHB51-.LFB1169
 2533 0146 05       		.uleb128 .LEHE51-.LEHB51
 2534 0147 00       		.uleb128 0
 2535 0148 00       		.uleb128 0
 2536              	.LLSDACSE1169:
 2537              		.section	.text._ZN8UnitTest10CheckEqualI12BufferStatusS1_EEvRNS_11TestResultsERKT_RKT0_RKNS_11Test
 2539              		.section	.rodata.str1.1
 2540              	.LC15:
 2541 0068 464500   		.string	"FE"
 2542              	.LC16:
 2543 006b 43414645 		.string	"CAFE"
 2543      00
 2544              	.LC17:
 2545 0070 46303044 		.string	"F00D1E"
 2545      314500
 2546              	.LC18:
 2547 0077 44454144 		.string	"DEADF00D"
 2547      46303044 
 2547      00
 2548              	.LC19:
 2549 0080 43414645 		.string	"CAFEF00D1E"
 2549      46303044 
 2549      314500
 2550              	.LC20:
 2551 008b 44454144 		.string	"DEADCAFEBABE"
 2551      43414645 
 2551      42414245 
 2551      00
 2552              		.section	.rodata.str1.8
 2553 018d 000000   		.align 8
 2554              	.LC21:
 2555 0190 556E6861 		.string	"Unhandled exception in CHECK_EQUAL(BUF_SUCCESS, bStatus)"
 2555      6E646C65 
 2555      64206578 
 2555      63657074 
 2555      696F6E20 
 2556              		.text
 2557 151f 90       		.align 2
 2558              		.p2align 4,,15
 2559              		.globl	_ZNK26TestFPGALink_testReadBytes7RunImplEv
 2561              	_ZNK26TestFPGALink_testReadBytes7RunImplEv:
 2562              	.LFB1113:
 2563              		.cfi_startproc
 2564              		.cfi_personality 0x3,__gxx_personality_v0
 2565              		.cfi_lsda 0x3,.LLSDA1113
 2566 1520 53       		pushq	%rbx
 2567              		.cfi_def_cfa_offset 16
 2568              		.cfi_offset 3, -16
 2569 1521 31C9     		xorl	%ecx, %ecx
 2570 1523 31D2     		xorl	%edx, %edx
 2571 1525 BE000400 		movl	$1024, %esi
 2571      00
 2572 152a 4883EC50 		subq	$80, %rsp
 2573              		.cfi_def_cfa_offset 96
 2574 152e 488D7C24 		leaq	16(%rsp), %rdi
 2574      10
 2575              	.LEHB52:
 2576 1533 E8000000 		call	bufInitialise
 2576      00
 2577              	.LEHE52:
 2578 1538 8944240C 		movl	%eax, 12(%rsp)
 2579              	.LEHB53:
 2580 153c E8000000 		call	_ZN8UnitTest11CurrentTest7DetailsEv
 2580      00
 2581 1541 488D5C24 		leaq	48(%rsp), %rbx
 2581      30
 2582 1546 488B30   		movq	(%rax), %rsi
 2583 1549 BA2E0000 		movl	$46, %edx
 2583      00
 2584 154e 4889DF   		movq	%rbx, %rdi
 2585 1551 E8000000 		call	_ZN8UnitTest11TestDetailsC1ERKS0_i
 2585      00
 2586 1556 C7042400 		movl	$0, (%rsp)
 2586      000000
 2587 155d E8000000 		call	_ZN8UnitTest11CurrentTest7ResultsEv
 2587      00
 2588 1562 488B38   		movq	(%rax), %rdi
 2589 1565 488D5424 		leaq	12(%rsp), %rdx
 2589      0C
 2590 156a 4889D9   		movq	%rbx, %rcx
 2591 156d 4889E6   		movq	%rsp, %rsi
 2592 1570 E8000000 		call	_ZN8UnitTest10CheckEqualI12BufferStatusS1_EEvRNS_11TestResultsERKT_RKT0_RKNS_11TestDetailsE
 2592      00
 2593              	.LEHE53:
 2594              	.L247:
 2595 1575 488D7C24 		leaq	16(%rsp), %rdi
 2595      10
 2596 157a BE000000 		movl	$.LC15, %esi
 2596      00
 2597              	.LEHB54:
 2598 157f E8000000 		call	_Z13testReadBytesP6BufferPKc
 2598      00
 2599 1584 488D7C24 		leaq	16(%rsp), %rdi
 2599      10
 2600 1589 BE000000 		movl	$.LC16, %esi
 2600      00
 2601 158e E8000000 		call	_Z13testReadBytesP6BufferPKc
 2601      00
 2602 1593 488D7C24 		leaq	16(%rsp), %rdi
 2602      10
 2603 1598 BE000000 		movl	$.LC17, %esi
 2603      00
 2604 159d E8000000 		call	_Z13testReadBytesP6BufferPKc
 2604      00
 2605 15a2 488D7C24 		leaq	16(%rsp), %rdi
 2605      10
 2606 15a7 BE000000 		movl	$.LC18, %esi
 2606      00
 2607 15ac E8000000 		call	_Z13testReadBytesP6BufferPKc
 2607      00
 2608 15b1 488D7C24 		leaq	16(%rsp), %rdi
 2608      10
 2609 15b6 BE000000 		movl	$.LC19, %esi
 2609      00
 2610 15bb E8000000 		call	_Z13testReadBytesP6BufferPKc
 2610      00
 2611 15c0 488D7C24 		leaq	16(%rsp), %rdi
 2611      10
 2612 15c5 BE000000 		movl	$.LC20, %esi
 2612      00
 2613 15ca E8000000 		call	_Z13testReadBytesP6BufferPKc
 2613      00
 2614 15cf 488D7C24 		leaq	16(%rsp), %rdi
 2614      10
 2615 15d4 E8000000 		call	bufDestroy
 2615      00
 2616              	.LEHE54:
 2617 15d9 4883C450 		addq	$80, %rsp
 2618              		.cfi_remember_state
 2619              		.cfi_def_cfa_offset 16
 2620 15dd 5B       		popq	%rbx
 2621              		.cfi_def_cfa_offset 8
 2622 15de C3       		ret
 2623              	.L248:
 2624              		.cfi_restore_state
 2625 15df 4889C7   		movq	%rax, %rdi
 2626 15e2 E8000000 		call	__cxa_begin_catch
 2626      00
 2627              	.LEHB55:
 2628 15e7 E8000000 		call	_ZN8UnitTest11CurrentTest7DetailsEv
 2628      00
 2629 15ec 488D5C24 		leaq	48(%rsp), %rbx
 2629      30
 2630 15f1 488B30   		movq	(%rax), %rsi
 2631 15f4 BA2E0000 		movl	$46, %edx
 2631      00
 2632 15f9 4889DF   		movq	%rbx, %rdi
 2633 15fc E8000000 		call	_ZN8UnitTest11TestDetailsC1ERKS0_i
 2633      00
 2634 1601 E8000000 		call	_ZN8UnitTest11CurrentTest7ResultsEv
 2634      00
 2635 1606 488B38   		movq	(%rax), %rdi
 2636 1609 BA000000 		movl	$.LC21, %edx
 2636      00
 2637 160e 4889DE   		movq	%rbx, %rsi
 2638 1611 E8000000 		call	_ZN8UnitTest11TestResults13OnTestFailureERKNS_11TestDetailsEPKc
 2638      00
 2639              	.LEHE55:
 2640              	.LEHB56:
 2641 1616 E8000000 		call	__cxa_end_catch
 2641      00
 2642              	.LEHE56:
 2643 161b E955FFFF 		jmp	.L247
 2643      FF
 2644              	.L249:
 2645 1620 4889C3   		movq	%rax, %rbx
 2646              		.p2align 4,,5
 2647 1623 E8000000 		call	__cxa_end_catch
 2647      00
 2648 1628 4889DF   		movq	%rbx, %rdi
 2649              	.LEHB57:
 2650 162b E8000000 		call	_Unwind_Resume
 2650      00
 2651              	.LEHE57:
 2652              		.cfi_endproc
 2653              	.LFE1113:
 2654              		.section	.gcc_except_table
 2655 0149 000000   		.align 4
 2656              	.LLSDA1113:
 2657 014c FF       		.byte	0xff
 2658 014d 03       		.byte	0x3
 2659 014e 25       		.uleb128 .LLSDATT1113-.LLSDATTD1113
 2660              	.LLSDATTD1113:
 2661 014f 01       		.byte	0x1
 2662 0150 1D       		.uleb128 .LLSDACSE1113-.LLSDACSB1113
 2663              	.LLSDACSB1113:
 2664 0151 13       		.uleb128 .LEHB52-.LFB1113
 2665 0152 05       		.uleb128 .LEHE52-.LEHB52
 2666 0153 00       		.uleb128 0
 2667 0154 00       		.uleb128 0
 2668 0155 1C       		.uleb128 .LEHB53-.LFB1113
 2669 0156 39       		.uleb128 .LEHE53-.LEHB53
 2670 0157 BF01     		.uleb128 .L248-.LFB1113
 2671 0159 01       		.uleb128 0x1
 2672 015a 5F       		.uleb128 .LEHB54-.LFB1113
 2673 015b 5A       		.uleb128 .LEHE54-.LEHB54
 2674 015c 00       		.uleb128 0
 2675 015d 00       		.uleb128 0
 2676 015e C701     		.uleb128 .LEHB55-.LFB1113
 2677 0160 2F       		.uleb128 .LEHE55-.LEHB55
 2678 0161 8002     		.uleb128 .L249-.LFB1113
 2679 0163 00       		.uleb128 0
 2680 0164 F601     		.uleb128 .LEHB56-.LFB1113
 2681 0166 05       		.uleb128 .LEHE56-.LEHB56
 2682 0167 00       		.uleb128 0
 2683 0168 00       		.uleb128 0
 2684 0169 8B02     		.uleb128 .LEHB57-.LFB1113
 2685 016b 05       		.uleb128 .LEHE57-.LEHB57
 2686 016c 00       		.uleb128 0
 2687 016d 00       		.uleb128 0
 2688              	.LLSDACSE1113:
 2689 016e 01       		.byte	0x1
 2690 016f 00       		.byte	0
 2691              		.align 4
 2692 0170 00000000 		.long	0
 2693              	
 2694              	.LLSDATT1113:
 2695              		.text
 2697              		.p2align 4,,15
 2698              		.globl	_Z11parseStringP12ParseContextPKcP6Buffer
 2700              	_Z11parseStringP12ParseContextPKcP6Buffer:
 2701              	.LFB1119:
 2702              		.cfi_startproc
 2703              		.cfi_personality 0x3,__gxx_personality_v0
 2704              		.cfi_lsda 0x3,.LLSDA1119
 2705 1630 4156     		pushq	%r14
 2706              		.cfi_def_cfa_offset 16
 2707              		.cfi_offset 14, -16
 2708 1632 4989D6   		movq	%rdx, %r14
 2709 1635 4155     		pushq	%r13
 2710              		.cfi_def_cfa_offset 24
 2711              		.cfi_offset 13, -24
 2712 1637 4989FD   		movq	%rdi, %r13
 2713 163a 4889F7   		movq	%rsi, %rdi
 2714 163d 4154     		pushq	%r12
 2715              		.cfi_def_cfa_offset 32
 2716              		.cfi_offset 12, -32
 2717 163f 4989F4   		movq	%rsi, %r12
 2718 1642 55       		pushq	%rbp
 2719              		.cfi_def_cfa_offset 40
 2720              		.cfi_offset 6, -40
 2721 1643 53       		pushq	%rbx
 2722              		.cfi_def_cfa_offset 48
 2723              		.cfi_offset 3, -48
 2724 1644 4883EC60 		subq	$96, %rsp
 2725              		.cfi_def_cfa_offset 144
 2726 1648 E8000000 		call	strlen
 2726      00
 2727 164d 8D6801   		leal	1(%rax), %ebp
 2728 1650 488D7C24 		leaq	32(%rsp), %rdi
 2728      20
 2729 1655 31C9     		xorl	%ecx, %ecx
 2730 1657 31D2     		xorl	%edx, %edx
 2731 1659 4889EE   		movq	%rbp, %rsi
 2732              	.LEHB58:
 2733 165c E8000000 		call	bufInitialise
 2733      00
 2734              	.LEHE58:
 2735 1661 8944240C 		movl	%eax, 12(%rsp)
 2736              	.LEHB59:
 2737 1665 E8000000 		call	_ZN8UnitTest11CurrentTest7DetailsEv
 2737      00
 2738 166a 488D5C24 		leaq	64(%rsp), %rbx
 2738      40
 2739 166f 488B30   		movq	(%rax), %rsi
 2740 1672 BA1F0200 		movl	$543, %edx
 2740      00
 2741 1677 4889DF   		movq	%rbx, %rdi
 2742 167a E8000000 		call	_ZN8UnitTest11TestDetailsC1ERKS0_i
 2742      00
 2743 167f C7442410 		movl	$0, 16(%rsp)
 2743      00000000 
 2744 1687 E8000000 		call	_ZN8UnitTest11CurrentTest7ResultsEv
 2744      00
 2745 168c 488B38   		movq	(%rax), %rdi
 2746 168f 488D5424 		leaq	12(%rsp), %rdx
 2746      0C
 2747 1694 488D7424 		leaq	16(%rsp), %rsi
 2747      10
 2748 1699 4889D9   		movq	%rbx, %rcx
 2749 169c E8000000 		call	_ZN8UnitTest10CheckEqualI12BufferStatusS1_EEvRNS_11TestResultsERKT_RKT0_RKNS_11TestDetailsE
 2749      00
 2750              	.LEHE59:
 2751              	.L255:
 2752 16a1 488D7C24 		leaq	32(%rsp), %rdi
 2752      20
 2753 16a6 31C9     		xorl	%ecx, %ecx
 2754 16a8 4889EA   		movq	%rbp, %rdx
 2755 16ab 4C89E6   		movq	%r12, %rsi
 2756              	.LEHB60:
 2757 16ae E8000000 		call	bufAppendBlock
 2757      00
 2758              	.LEHE60:
 2759 16b3 8944240C 		movl	%eax, 12(%rsp)
 2760              	.LEHB61:
 2761 16b7 E8000000 		call	_ZN8UnitTest11CurrentTest7DetailsEv
 2761      00
 2762 16bc 488B30   		movq	(%rax), %rsi
 2763 16bf BA210200 		movl	$545, %edx
 2763      00
 2764 16c4 4889DF   		movq	%rbx, %rdi
 2765 16c7 E8000000 		call	_ZN8UnitTest11TestDetailsC1ERKS0_i
 2765      00
 2766 16cc C7442410 		movl	$0, 16(%rsp)
 2766      00000000 
 2767 16d4 E8000000 		call	_ZN8UnitTest11CurrentTest7ResultsEv
 2767      00
 2768 16d9 488B38   		movq	(%rax), %rdi
 2769 16dc 488D5424 		leaq	12(%rsp), %rdx
 2769      0C
 2770 16e1 488D7424 		leaq	16(%rsp), %rsi
 2770      10
 2771 16e6 4889D9   		movq	%rbx, %rcx
 2772 16e9 E8000000 		call	_ZN8UnitTest10CheckEqualI12BufferStatusS1_EEvRNS_11TestResultsERKT_RKT0_RKNS_11TestDetailsE
 2772      00
 2773              	.LEHE61:
 2774              	.L258:
 2775 16ee 488D7424 		leaq	32(%rsp), %rsi
 2775      20
 2776 16f3 4531C0   		xorl	%r8d, %r8d
 2777 16f6 31C9     		xorl	%ecx, %ecx
 2778 16f8 4C89F2   		movq	%r14, %rdx
 2779 16fb 4C89EF   		movq	%r13, %rdi
 2780              	.LEHB62:
 2781 16fe E8000000 		call	parseLine
 2781      00
 2782              	.LEHE62:
 2783 1703 89442410 		movl	%eax, 16(%rsp)
 2784              	.LEHB63:
 2785 1707 E8000000 		call	_ZN8UnitTest11CurrentTest7DetailsEv
 2785      00
 2786 170c 488B30   		movq	(%rax), %rsi
 2787 170f BA230200 		movl	$547, %edx
 2787      00
 2788 1714 4889DF   		movq	%rbx, %rdi
 2789 1717 E8000000 		call	_ZN8UnitTest11TestDetailsC1ERKS0_i
 2789      00
 2790 171c C7042400 		movl	$0, (%rsp)
 2790      000000
 2791 1723 E8000000 		call	_ZN8UnitTest11CurrentTest7ResultsEv
 2791      00
 2792 1728 488B38   		movq	(%rax), %rdi
 2793 172b 488D5424 		leaq	16(%rsp), %rdx
 2793      10
 2794 1730 4889D9   		movq	%rbx, %rcx
 2795 1733 4889E6   		movq	%rsp, %rsi
 2796 1736 E8000000 		call	_ZN8UnitTest10CheckEqualI8FLStatusS1_EEvRNS_11TestResultsERKT_RKT0_RKNS_11TestDetailsE
 2796      00
 2797              	.LEHE63:
 2798              	.L261:
 2799 173b 488D7C24 		leaq	32(%rsp), %rdi
 2799      20
 2800              	.LEHB64:
 2801 1740 E8000000 		call	bufDestroy
 2801      00
 2802              	.LEHE64:
 2803 1745 4883C460 		addq	$96, %rsp
 2804              		.cfi_remember_state
 2805              		.cfi_def_cfa_offset 48
 2806 1749 5B       		popq	%rbx
 2807              		.cfi_def_cfa_offset 40
 2808 174a 5D       		popq	%rbp
 2809              		.cfi_def_cfa_offset 32
 2810 174b 415C     		popq	%r12
 2811              		.cfi_def_cfa_offset 24
 2812 174d 415D     		popq	%r13
 2813              		.cfi_def_cfa_offset 16
 2814 174f 415E     		popq	%r14
 2815              		.cfi_def_cfa_offset 8
 2816 1751 C3       		ret
 2817              	.L262:
 2818              		.cfi_restore_state
 2819 1752 4889C7   		movq	%rax, %rdi
 2820 1755 E8000000 		call	__cxa_begin_catch
 2820      00
 2821              	.LEHB65:
 2822 175a E8000000 		call	_ZN8UnitTest11CurrentTest7DetailsEv
 2822      00
 2823 175f 488D5C24 		leaq	64(%rsp), %rbx
 2823      40
 2824 1764 488B30   		movq	(%rax), %rsi
 2825 1767 BA1F0200 		movl	$543, %edx
 2825      00
 2826 176c 4889DF   		movq	%rbx, %rdi
 2827 176f E8000000 		call	_ZN8UnitTest11TestDetailsC1ERKS0_i
 2827      00
 2828 1774 E8000000 		call	_ZN8UnitTest11CurrentTest7ResultsEv
 2828      00
 2829 1779 488B38   		movq	(%rax), %rdi
 2830 177c BA000000 		movl	$.LC21, %edx
 2830      00
 2831 1781 4889DE   		movq	%rbx, %rsi
 2832 1784 E8000000 		call	_ZN8UnitTest11TestResults13OnTestFailureERKNS_11TestDetailsEPKc
 2832      00
 2833              	.LEHE65:
 2834              	.LEHB66:
 2835 1789 E8000000 		call	__cxa_end_catch
 2835      00
 2836              	.LEHE66:
 2837 178e E90EFFFF 		jmp	.L255
 2837      FF
 2838              	.L266:
 2839 1793 4889C7   		movq	%rax, %rdi
 2840              		.p2align 4,,5
 2841 1796 E8000000 		call	__cxa_begin_catch
 2841      00
 2842 179b 0F1F4400 		.p2align 4,,5
 2842      00
 2843              	.LEHB67:
 2844 17a0 E8000000 		call	_ZN8UnitTest11CurrentTest7DetailsEv
 2844      00
 2845 17a5 488B30   		movq	(%rax), %rsi
 2846 17a8 BA230200 		movl	$547, %edx
 2846      00
 2847 17ad 4889DF   		movq	%rbx, %rdi
 2848 17b0 E8000000 		call	_ZN8UnitTest11TestDetailsC1ERKS0_i
 2848      00
 2849 17b5 E8000000 		call	_ZN8UnitTest11CurrentTest7ResultsEv
 2849      00
 2850 17ba 488B38   		movq	(%rax), %rdi
 2851 17bd BA000000 		movl	$.LC12, %edx
 2851      00
 2852 17c2 4889DE   		movq	%rbx, %rsi
 2853 17c5 E8000000 		call	_ZN8UnitTest11TestResults13OnTestFailureERKNS_11TestDetailsEPKc
 2853      00
 2854              	.LEHE67:
 2855              	.LEHB68:
 2856 17ca E8000000 		call	__cxa_end_catch
 2856      00
 2857              	.LEHE68:
 2858 17cf E967FFFF 		jmp	.L261
 2858      FF
 2859              	.L264:
 2860 17d4 4889C7   		movq	%rax, %rdi
 2861              		.p2align 4,,5
 2862 17d7 E8000000 		call	__cxa_begin_catch
 2862      00
 2863 17dc 0F1F4000 		.p2align 4,,5
 2864              	.LEHB69:
 2865 17e0 E8000000 		call	_ZN8UnitTest11CurrentTest7DetailsEv
 2865      00
 2866 17e5 488B30   		movq	(%rax), %rsi
 2867 17e8 BA210200 		movl	$545, %edx
 2867      00
 2868 17ed 4889DF   		movq	%rbx, %rdi
 2869 17f0 E8000000 		call	_ZN8UnitTest11TestDetailsC1ERKS0_i
 2869      00
 2870 17f5 E8000000 		call	_ZN8UnitTest11CurrentTest7ResultsEv
 2870      00
 2871 17fa 488B38   		movq	(%rax), %rdi
 2872 17fd BA000000 		movl	$.LC21, %edx
 2872      00
 2873 1802 4889DE   		movq	%rbx, %rsi
 2874 1805 E8000000 		call	_ZN8UnitTest11TestResults13OnTestFailureERKNS_11TestDetailsEPKc
 2874      00
 2875              	.LEHE69:
 2876              	.LEHB70:
 2877 180a E8000000 		call	__cxa_end_catch
 2877      00
 2878              	.LEHE70:
 2879 180f E9DAFEFF 		jmp	.L258
 2879      FF
 2880              	.L263:
 2881 1814 4889C3   		movq	%rax, %rbx
 2882              		.p2align 4,,5
 2883 1817 E8000000 		call	__cxa_end_catch
 2883      00
 2884 181c 4889DF   		movq	%rbx, %rdi
 2885              	.LEHB71:
 2886 181f E8000000 		call	_Unwind_Resume
 2886      00
 2887              	.LEHE71:
 2888              	.L267:
 2889 1824 4889C3   		movq	%rax, %rbx
 2890 1827 E8000000 		call	__cxa_end_catch
 2890      00
 2891 182c 4889DF   		movq	%rbx, %rdi
 2892              	.LEHB72:
 2893 182f E8000000 		call	_Unwind_Resume
 2893      00
 2894              	.LEHE72:
 2895              	.L265:
 2896 1834 4889C3   		movq	%rax, %rbx
 2897 1837 E8000000 		call	__cxa_end_catch
 2897      00
 2898 183c 4889DF   		movq	%rbx, %rdi
 2899              	.LEHB73:
 2900 183f E8000000 		call	_Unwind_Resume
 2900      00
 2901              	.LEHE73:
 2902              		.cfi_endproc
 2903              	.LFE1119:
 2904              		.section	.gcc_except_table
 2905              		.align 4
 2906              	.LLSDA1119:
 2907 0174 FF       		.byte	0xff
 2908 0175 03       		.byte	0x3
 2909 0176 5D       		.uleb128 .LLSDATT1119-.LLSDATTD1119
 2910              	.LLSDATTD1119:
 2911 0177 01       		.byte	0x1
 2912 0178 53       		.uleb128 .LLSDACSE1119-.LLSDACSB1119
 2913              	.LLSDACSB1119:
 2914 0179 2C       		.uleb128 .LEHB58-.LFB1119
 2915 017a 05       		.uleb128 .LEHE58-.LEHB58
 2916 017b 00       		.uleb128 0
 2917 017c 00       		.uleb128 0
 2918 017d 35       		.uleb128 .LEHB59-.LFB1119
 2919 017e 3C       		.uleb128 .LEHE59-.LEHB59
 2920 017f A202     		.uleb128 .L262-.LFB1119
 2921 0181 01       		.uleb128 0x1
 2922 0182 7E       		.uleb128 .LEHB60-.LFB1119
 2923 0183 05       		.uleb128 .LEHE60-.LEHB60
 2924 0184 00       		.uleb128 0
 2925 0185 00       		.uleb128 0
 2926 0186 8701     		.uleb128 .LEHB61-.LFB1119
 2927 0188 37       		.uleb128 .LEHE61-.LEHB61
 2928 0189 A403     		.uleb128 .L264-.LFB1119
 2929 018b 01       		.uleb128 0x1
 2930 018c CE01     		.uleb128 .LEHB62-.LFB1119
 2931 018e 05       		.uleb128 .LEHE62-.LEHB62
 2932 018f 00       		.uleb128 0
 2933 0190 00       		.uleb128 0
 2934 0191 D701     		.uleb128 .LEHB63-.LFB1119
 2935 0193 34       		.uleb128 .LEHE63-.LEHB63
 2936 0194 E302     		.uleb128 .L266-.LFB1119
 2937 0196 01       		.uleb128 0x1
 2938 0197 9002     		.uleb128 .LEHB64-.LFB1119
 2939 0199 05       		.uleb128 .LEHE64-.LEHB64
 2940 019a 00       		.uleb128 0
 2941 019b 00       		.uleb128 0
 2942 019c AA02     		.uleb128 .LEHB65-.LFB1119
 2943 019e 2F       		.uleb128 .LEHE65-.LEHB65
 2944 019f E403     		.uleb128 .L263-.LFB1119
 2945 01a1 00       		.uleb128 0
 2946 01a2 D902     		.uleb128 .LEHB66-.LFB1119
 2947 01a4 05       		.uleb128 .LEHE66-.LEHB66
 2948 01a5 00       		.uleb128 0
 2949 01a6 00       		.uleb128 0
 2950 01a7 F002     		.uleb128 .LEHB67-.LFB1119
 2951 01a9 2A       		.uleb128 .LEHE67-.LEHB67
 2952 01aa F403     		.uleb128 .L267-.LFB1119
 2953 01ac 00       		.uleb128 0
 2954 01ad 9A03     		.uleb128 .LEHB68-.LFB1119
 2955 01af 05       		.uleb128 .LEHE68-.LEHB68
 2956 01b0 00       		.uleb128 0
 2957 01b1 00       		.uleb128 0
 2958 01b2 B003     		.uleb128 .LEHB69-.LFB1119
 2959 01b4 2A       		.uleb128 .LEHE69-.LEHB69
 2960 01b5 8404     		.uleb128 .L265-.LFB1119
 2961 01b7 00       		.uleb128 0
 2962 01b8 DA03     		.uleb128 .LEHB70-.LFB1119
 2963 01ba 05       		.uleb128 .LEHE70-.LEHB70
 2964 01bb 00       		.uleb128 0
 2965 01bc 00       		.uleb128 0
 2966 01bd EF03     		.uleb128 .LEHB71-.LFB1119
 2967 01bf 05       		.uleb128 .LEHE71-.LEHB71
 2968 01c0 00       		.uleb128 0
 2969 01c1 00       		.uleb128 0
 2970 01c2 FF03     		.uleb128 .LEHB72-.LFB1119
 2971 01c4 05       		.uleb128 .LEHE72-.LEHB72
 2972 01c5 00       		.uleb128 0
 2973 01c6 00       		.uleb128 0
 2974 01c7 8F04     		.uleb128 .LEHB73-.LFB1119
 2975 01c9 05       		.uleb128 .LEHE73-.LEHB73
 2976 01ca 00       		.uleb128 0
 2977 01cb 00       		.uleb128 0
 2978              	.LLSDACSE1119:
 2979 01cc 01       		.byte	0x1
 2980 01cd 00       		.byte	0
 2981 01ce 0000     		.align 4
 2982 01d0 00000000 		.long	0
 2983              	
 2984              	.LLSDATT1119:
 2985              		.text
 2987              		.section	.rodata.str1.1
 2988              	.LC22:
 2989 0098 48445220 		.string	"HDR 8 TDI (aa)"
 2989      38205444 
 2989      49202861 
 2989      612900
 2990              		.section	.rodata.str1.8
 2991 01c9 00000000 		.align 8
 2991      000000
 2992              	.LC23:
 2993 01d0 382C207B 		.string	"8, {AA}, {00}, {FF}, 0, {}, {}, {}, 0, {}, {}, {}, 0, {}, {}, {}, 0, {}, {}, {}, 0, {}, {
 2993      41417D2C 
 2993      207B3030 
 2993      7D2C207B 
 2993      46467D2C 
 2994              		.section	.rodata.str1.1
 2995              	.LC24:
 2996 00a7 48445220 		.string	"HDR 8 MASK (55)"
 2996      38204D41 
 2996      534B2028 
 2996      35352900 
 2997              		.section	.rodata.str1.8
 2998 022f 00       		.align 8
 2999              	.LC25:
 3000 0230 382C207B 		.string	"8, {AA}, {00}, {55}, 0, {}, {}, {}, 0, {}, {}, {}, 0, {}, {}, {}, 0, {}, {}, {}, 0, {}, {
 3000      41417D2C 
 3000      207B3030 
 3000      7D2C207B 
 3000      35357D2C 
 3001              		.section	.rodata.str1.1
 3002              	.LC26:
 3003 00b7 48445220 		.string	"HDR 6 TDI (3A)"
 3003      36205444 
 3003      49202833 
 3003      412900
 3004              		.section	.rodata.str1.8
 3005 028f 00       		.align 8
 3006              	.LC27:
 3007 0290 362C207B 		.string	"6, {3A}, {00}, {FF}, 0, {}, {}, {}, 0, {}, {}, {}, 0, {}, {}, {}, 0, {}, {}, {}, 0, {}, {
 3007      33417D2C 
 3007      207B3030 
 3007      7D2C207B 
 3007      46467D2C 
 3008 02ef 00       		.align 8
 3009              	.LC28:
 3010 02f0 556E6861 		.string	"Unhandled exception in CHECK_EQUAL(\"8, {AA}, {00}, {FF}, \" \"0, {}, {}, {}, \" \"0, {},
 3010      6E646C65 
 3010      64206578 
 3010      63657074 
 3010      696F6E20 
 3011 0395 000000   		.align 8
 3012              	.LC29:
 3013 0398 556E6861 		.string	"Unhandled exception in CHECK_EQUAL(\"8, {AA}, {00}, {55}, \" \"0, {}, {}, {}, \" \"0, {},
 3013      6E646C65 
 3013      64206578 
 3013      63657074 
 3013      696F6E20 
 3014 043d 000000   		.align 8
 3015              	.LC30:
 3016 0440 556E6861 		.string	"Unhandled exception in CHECK_EQUAL(\"6, {3A}, {00}, {FF}, \" \"0, {}, {}, {}, \" \"0, {},
 3016      6E646C65 
 3016      64206578 
 3016      63657074 
 3016      696F6E20 
 3017              		.text
 3018              		.align 2
 3019 1844 6666662E 		.p2align 4,,15
 3019      0F1F8400 
 3019      00000000 
 3020              		.globl	_ZNK22TestFPGALink_testParse7RunImplEv
 3022              	_ZNK22TestFPGALink_testParse7RunImplEv:
 3023              	.LFB1126:
 3024              		.cfi_startproc
 3025              		.cfi_personality 0x3,__gxx_personality_v0
 3026              		.cfi_lsda 0x3,.LLSDA1126
 3027 1850 4154     		pushq	%r12
 3028              		.cfi_def_cfa_offset 16
 3029              		.cfi_offset 12, -16
 3030 1852 31C9     		xorl	%ecx, %ecx
 3031 1854 31D2     		xorl	%edx, %edx
 3032 1856 BE000400 		movl	$1024, %esi
 3032      00
 3033 185b 55       		pushq	%rbp
 3034              		.cfi_def_cfa_offset 24
 3035              		.cfi_offset 6, -24
 3036 185c 53       		pushq	%rbx
 3037              		.cfi_def_cfa_offset 32
 3038              		.cfi_offset 3, -32
 3039 185d 4881EC00 		subq	$768, %rsp
 3039      030000
 3040              		.cfi_def_cfa_offset 800
 3041 1864 488D7C24 		leaq	16(%rsp), %rdi
 3041      10
 3042              	.LEHB74:
 3043 1869 E8000000 		call	bufInitialise
 3043      00
 3044              	.LEHE74:
 3045 186e 8944240C 		movl	%eax, 12(%rsp)
 3046              	.LEHB75:
 3047 1872 E8000000 		call	_ZN8UnitTest11CurrentTest7DetailsEv
 3047      00
 3048 1877 488D5C24 		leaq	80(%rsp), %rbx
 3048      50
 3049 187c 488B30   		movq	(%rax), %rsi
 3050 187f BA5A0200 		movl	$602, %edx
 3050      00
 3051 1884 4889DF   		movq	%rbx, %rdi
 3052 1887 E8000000 		call	_ZN8UnitTest11TestDetailsC1ERKS0_i
 3052      00
 3053 188c C7442430 		movl	$0, 48(%rsp)
 3053      00000000 
 3054 1894 E8000000 		call	_ZN8UnitTest11CurrentTest7ResultsEv
 3054      00
 3055 1899 488B38   		movq	(%rax), %rdi
 3056 189c 488D5424 		leaq	12(%rsp), %rdx
 3056      0C
 3057 18a1 488D7424 		leaq	48(%rsp), %rsi
 3057      30
 3058 18a6 4889D9   		movq	%rbx, %rcx
 3059 18a9 E8000000 		call	_ZN8UnitTest10CheckEqualI12BufferStatusS1_EEvRNS_11TestResultsERKT_RKT0_RKNS_11TestDetailsE
 3059      00
 3060              	.LEHE75:
 3061              	.L273:
 3062 18ae 31F6     		xorl	%esi, %esi
 3063 18b0 4889DF   		movq	%rbx, %rdi
 3064              	.LEHB76:
 3065 18b3 E8000000 		call	cxtInitialise
 3065      00
 3066              	.LEHE76:
 3067 18b8 89442408 		movl	%eax, 8(%rsp)
 3068              	.LEHB77:
 3069 18bc E8000000 		call	_ZN8UnitTest11CurrentTest7DetailsEv
 3069      00
 3070 18c1 488D6C24 		leaq	48(%rsp), %rbp
 3070      30
 3071 18c6 488B30   		movq	(%rax), %rsi
 3072 18c9 BA5C0200 		movl	$604, %edx
 3072      00
 3073 18ce 4889EF   		movq	%rbp, %rdi
 3074 18d1 E8000000 		call	_ZN8UnitTest11TestDetailsC1ERKS0_i
 3074      00
 3075 18d6 C7042400 		movl	$0, (%rsp)
 3075      000000
 3076 18dd E8000000 		call	_ZN8UnitTest11CurrentTest7ResultsEv
 3076      00
 3077 18e2 488B38   		movq	(%rax), %rdi
 3078 18e5 488D5424 		leaq	8(%rsp), %rdx
 3078      08
 3079 18ea 4889E9   		movq	%rbp, %rcx
 3080 18ed 4889E6   		movq	%rsp, %rsi
 3081 18f0 E8000000 		call	_ZN8UnitTest10CheckEqualI8FLStatusS1_EEvRNS_11TestResultsERKT_RKT0_RKNS_11TestDetailsE
 3081      00
 3082              	.LEHE77:
 3083              	.L276:
 3084 18f5 488D5424 		leaq	16(%rsp), %rdx
 3084      10
 3085 18fa BE000000 		movl	$.LC22, %esi
 3085      00
 3086 18ff 4889DF   		movq	%rbx, %rdi
 3087              	.LEHB78:
 3088 1902 E8000000 		call	_Z11parseStringP12ParseContextPKcP6Buffer
 3088      00
 3089              	.LEHE78:
 3090              	.LEHB79:
 3091 1907 E8000000 		call	_ZN8UnitTest11CurrentTest7DetailsEv
 3091      00
 3092 190c 488B30   		movq	(%rax), %rsi
 3093 190f BA670200 		movl	$615, %edx
 3093      00
 3094 1914 4889EF   		movq	%rbp, %rdi
 3095 1917 E8000000 		call	_ZN8UnitTest11TestDetailsC1ERKS0_i
 3095      00
 3096 191c 4889DF   		movq	%rbx, %rdi
 3097 191f E8000000 		call	_Z9renderCxtPK12ParseContext
 3097      00
 3098 1924 4989C4   		movq	%rax, %r12
 3099 1927 E8000000 		call	_ZN8UnitTest11CurrentTest7ResultsEv
 3099      00
 3100 192c 488B38   		movq	(%rax), %rdi
 3101 192f 4889E9   		movq	%rbp, %rcx
 3102 1932 4C89E2   		movq	%r12, %rdx
 3103 1935 BE000000 		movl	$.LC23, %esi
 3103      00
 3104 193a E8000000 		call	_ZN8UnitTest10CheckEqualERNS_11TestResultsEPKcS3_RKNS_11TestDetailsE
 3104      00
 3105              	.LEHE79:
 3106              	.L279:
 3107 193f 488D5424 		leaq	16(%rsp), %rdx
 3107      10
 3108 1944 BE000000 		movl	$.LC24, %esi
 3108      00
 3109 1949 4889DF   		movq	%rbx, %rdi
 3110              	.LEHB80:
 3111 194c E8000000 		call	_Z11parseStringP12ParseContextPKcP6Buffer
 3111      00
 3112              	.LEHE80:
 3113              	.LEHB81:
 3114 1951 E8000000 		call	_ZN8UnitTest11CurrentTest7DetailsEv
 3114      00
 3115 1956 488B30   		movq	(%rax), %rsi
 3116 1959 BA720200 		movl	$626, %edx
 3116      00
 3117 195e 4889EF   		movq	%rbp, %rdi
 3118 1961 E8000000 		call	_ZN8UnitTest11TestDetailsC1ERKS0_i
 3118      00
 3119 1966 4889DF   		movq	%rbx, %rdi
 3120 1969 E8000000 		call	_Z9renderCxtPK12ParseContext
 3120      00
 3121 196e 4989C4   		movq	%rax, %r12
 3122 1971 E8000000 		call	_ZN8UnitTest11CurrentTest7ResultsEv
 3122      00
 3123 1976 488B38   		movq	(%rax), %rdi
 3124 1979 4889E9   		movq	%rbp, %rcx
 3125 197c 4C89E2   		movq	%r12, %rdx
 3126 197f BE000000 		movl	$.LC25, %esi
 3126      00
 3127 1984 E8000000 		call	_ZN8UnitTest10CheckEqualERNS_11TestResultsEPKcS3_RKNS_11TestDetailsE
 3127      00
 3128              	.LEHE81:
 3129              	.L282:
 3130 1989 488D5424 		leaq	16(%rsp), %rdx
 3130      10
 3131 198e BE000000 		movl	$.LC26, %esi
 3131      00
 3132 1993 4889DF   		movq	%rbx, %rdi
 3133              	.LEHB82:
 3134 1996 E8000000 		call	_Z11parseStringP12ParseContextPKcP6Buffer
 3134      00
 3135              	.LEHE82:
 3136              	.LEHB83:
 3137 199b E8000000 		call	_ZN8UnitTest11CurrentTest7DetailsEv
 3137      00
 3138 19a0 488B30   		movq	(%rax), %rsi
 3139 19a3 BA7D0200 		movl	$637, %edx
 3139      00
 3140 19a8 4889EF   		movq	%rbp, %rdi
 3141 19ab E8000000 		call	_ZN8UnitTest11TestDetailsC1ERKS0_i
 3141      00
 3142 19b0 4889DF   		movq	%rbx, %rdi
 3143 19b3 E8000000 		call	_Z9renderCxtPK12ParseContext
 3143      00
 3144 19b8 4989C4   		movq	%rax, %r12
 3145 19bb E8000000 		call	_ZN8UnitTest11CurrentTest7ResultsEv
 3145      00
 3146 19c0 488B38   		movq	(%rax), %rdi
 3147 19c3 4889E9   		movq	%rbp, %rcx
 3148 19c6 4C89E2   		movq	%r12, %rdx
 3149 19c9 BE000000 		movl	$.LC27, %esi
 3149      00
 3150 19ce E8000000 		call	_ZN8UnitTest10CheckEqualERNS_11TestResultsEPKcS3_RKNS_11TestDetailsE
 3150      00
 3151              	.LEHE83:
 3152              	.L285:
 3153 19d3 4889DF   		movq	%rbx, %rdi
 3154              	.LEHB84:
 3155 19d6 E8000000 		call	cxtDestroy
 3155      00
 3156 19db 488D7C24 		leaq	16(%rsp), %rdi
 3156      10
 3157 19e0 E8000000 		call	bufDestroy
 3157      00
 3158              	.LEHE84:
 3159 19e5 4881C400 		addq	$768, %rsp
 3159      030000
 3160              		.cfi_remember_state
 3161              		.cfi_def_cfa_offset 32
 3162 19ec 5B       		popq	%rbx
 3163              		.cfi_def_cfa_offset 24
 3164 19ed 5D       		popq	%rbp
 3165              		.cfi_def_cfa_offset 16
 3166 19ee 415C     		popq	%r12
 3167              		.cfi_def_cfa_offset 8
 3168 19f0 C3       		ret
 3169              	.L286:
 3170              		.cfi_restore_state
 3171 19f1 4889C7   		movq	%rax, %rdi
 3172 19f4 E8000000 		call	__cxa_begin_catch
 3172      00
 3173              	.LEHB85:
 3174 19f9 E8000000 		call	_ZN8UnitTest11CurrentTest7DetailsEv
 3174      00
 3175 19fe 488D5C24 		leaq	80(%rsp), %rbx
 3175      50
 3176 1a03 488B30   		movq	(%rax), %rsi
 3177 1a06 BA5A0200 		movl	$602, %edx
 3177      00
 3178 1a0b 4889DF   		movq	%rbx, %rdi
 3179 1a0e E8000000 		call	_ZN8UnitTest11TestDetailsC1ERKS0_i
 3179      00
 3180 1a13 E8000000 		call	_ZN8UnitTest11CurrentTest7ResultsEv
 3180      00
 3181 1a18 488B38   		movq	(%rax), %rdi
 3182 1a1b BA000000 		movl	$.LC21, %edx
 3182      00
 3183 1a20 4889DE   		movq	%rbx, %rsi
 3184 1a23 E8000000 		call	_ZN8UnitTest11TestResults13OnTestFailureERKNS_11TestDetailsEPKc
 3184      00
 3185              	.LEHE85:
 3186              	.LEHB86:
 3187 1a28 E8000000 		call	__cxa_end_catch
 3187      00
 3188              	.LEHE86:
 3189 1a2d E97CFEFF 		jmp	.L273
 3189      FF
 3190              	.L294:
 3191 1a32 4889C7   		movq	%rax, %rdi
 3192              		.p2align 4,,5
 3193 1a35 E8000000 		call	__cxa_begin_catch
 3193      00
 3194              		.p2align 4,,5
 3195              	.LEHB87:
 3196 1a3a E8000000 		call	_ZN8UnitTest11CurrentTest7DetailsEv
 3196      00
 3197 1a3f 488B30   		movq	(%rax), %rsi
 3198 1a42 BA7D0200 		movl	$637, %edx
 3198      00
 3199 1a47 4889EF   		movq	%rbp, %rdi
 3200 1a4a E8000000 		call	_ZN8UnitTest11TestDetailsC1ERKS0_i
 3200      00
 3201 1a4f E8000000 		call	_ZN8UnitTest11CurrentTest7ResultsEv
 3201      00
 3202 1a54 488B38   		movq	(%rax), %rdi
 3203 1a57 BA000000 		movl	$.LC30, %edx
 3203      00
 3204 1a5c 4889EE   		movq	%rbp, %rsi
 3205 1a5f E8000000 		call	_ZN8UnitTest11TestResults13OnTestFailureERKNS_11TestDetailsEPKc
 3205      00
 3206              	.LEHE87:
 3207              	.LEHB88:
 3208 1a64 E8000000 		call	__cxa_end_catch
 3208      00
 3209              	.LEHE88:
 3210 1a69 E965FFFF 		jmp	.L285
 3210      FF
 3211              	.L290:
 3212 1a6e 4889C7   		movq	%rax, %rdi
 3213              		.p2align 4,,5
 3214 1a71 E8000000 		call	__cxa_begin_catch
 3214      00
 3215              		.p2align 4,,5
 3216              	.LEHB89:
 3217 1a76 E8000000 		call	_ZN8UnitTest11CurrentTest7DetailsEv
 3217      00
 3218 1a7b 488B30   		movq	(%rax), %rsi
 3219 1a7e BA670200 		movl	$615, %edx
 3219      00
 3220 1a83 4889EF   		movq	%rbp, %rdi
 3221 1a86 E8000000 		call	_ZN8UnitTest11TestDetailsC1ERKS0_i
 3221      00
 3222 1a8b E8000000 		call	_ZN8UnitTest11CurrentTest7ResultsEv
 3222      00
 3223 1a90 488B38   		movq	(%rax), %rdi
 3224 1a93 BA000000 		movl	$.LC28, %edx
 3224      00
 3225 1a98 4889EE   		movq	%rbp, %rsi
 3226 1a9b E8000000 		call	_ZN8UnitTest11TestResults13OnTestFailureERKNS_11TestDetailsEPKc
 3226      00
 3227              	.LEHE89:
 3228              	.LEHB90:
 3229 1aa0 E8000000 		call	__cxa_end_catch
 3229      00
 3230              	.LEHE90:
 3231 1aa5 E995FEFF 		jmp	.L279
 3231      FF
 3232              	.L292:
 3233 1aaa 4889C7   		movq	%rax, %rdi
 3234 1aad 0F1F00   		.p2align 4,,5
 3235 1ab0 E8000000 		call	__cxa_begin_catch
 3235      00
 3236              		.p2align 4,,5
 3237              	.LEHB91:
 3238 1ab5 E8000000 		call	_ZN8UnitTest11CurrentTest7DetailsEv
 3238      00
 3239 1aba 488B30   		movq	(%rax), %rsi
 3240 1abd BA720200 		movl	$626, %edx
 3240      00
 3241 1ac2 4889EF   		movq	%rbp, %rdi
 3242 1ac5 E8000000 		call	_ZN8UnitTest11TestDetailsC1ERKS0_i
 3242      00
 3243 1aca E8000000 		call	_ZN8UnitTest11CurrentTest7ResultsEv
 3243      00
 3244 1acf 488B38   		movq	(%rax), %rdi
 3245 1ad2 BA000000 		movl	$.LC29, %edx
 3245      00
 3246 1ad7 4889EE   		movq	%rbp, %rsi
 3247 1ada E8000000 		call	_ZN8UnitTest11TestResults13OnTestFailureERKNS_11TestDetailsEPKc
 3247      00
 3248              	.LEHE91:
 3249              	.LEHB92:
 3250 1adf E8000000 		call	__cxa_end_catch
 3250      00
 3251              	.LEHE92:
 3252 1ae4 E9A0FEFF 		jmp	.L282
 3252      FF
 3253              	.L288:
 3254 1ae9 4889C7   		movq	%rax, %rdi
 3255 1aec 0F1F4000 		.p2align 4,,5
 3256 1af0 E8000000 		call	__cxa_begin_catch
 3256      00
 3257              		.p2align 4,,5
 3258              	.LEHB93:
 3259 1af5 E8000000 		call	_ZN8UnitTest11CurrentTest7DetailsEv
 3259      00
 3260 1afa 488D6C24 		leaq	48(%rsp), %rbp
 3260      30
 3261 1aff 488B30   		movq	(%rax), %rsi
 3262 1b02 BA5C0200 		movl	$604, %edx
 3262      00
 3263 1b07 4889EF   		movq	%rbp, %rdi
 3264 1b0a E8000000 		call	_ZN8UnitTest11TestDetailsC1ERKS0_i
 3264      00
 3265 1b0f E8000000 		call	_ZN8UnitTest11CurrentTest7ResultsEv
 3265      00
 3266 1b14 488B38   		movq	(%rax), %rdi
 3267 1b17 BA000000 		movl	$.LC12, %edx
 3267      00
 3268 1b1c 4889EE   		movq	%rbp, %rsi
 3269 1b1f E8000000 		call	_ZN8UnitTest11TestResults13OnTestFailureERKNS_11TestDetailsEPKc
 3269      00
 3270              	.LEHE93:
 3271              	.LEHB94:
 3272 1b24 E8000000 		call	__cxa_end_catch
 3272      00
 3273              	.LEHE94:
 3274 1b29 E9C7FDFF 		jmp	.L276
 3274      FF
 3275              	.L287:
 3276 1b2e 4889C3   		movq	%rax, %rbx
 3277              		.p2align 4,,5
 3278 1b31 E8000000 		call	__cxa_end_catch
 3278      00
 3279 1b36 4889DF   		movq	%rbx, %rdi
 3280              	.LEHB95:
 3281 1b39 E8000000 		call	_Unwind_Resume
 3281      00
 3282              	.LEHE95:
 3283              	.L295:
 3284 1b3e 4889C3   		movq	%rax, %rbx
 3285 1b41 E8000000 		call	__cxa_end_catch
 3285      00
 3286 1b46 4889DF   		movq	%rbx, %rdi
 3287              	.LEHB96:
 3288 1b49 E8000000 		call	_Unwind_Resume
 3288      00
 3289              	.LEHE96:
 3290              	.L293:
 3291 1b4e 4889C3   		movq	%rax, %rbx
 3292 1b51 E8000000 		call	__cxa_end_catch
 3292      00
 3293 1b56 4889DF   		movq	%rbx, %rdi
 3294              	.LEHB97:
 3295 1b59 E8000000 		call	_Unwind_Resume
 3295      00
 3296              	.LEHE97:
 3297              	.L291:
 3298 1b5e 4889C3   		movq	%rax, %rbx
 3299 1b61 E8000000 		call	__cxa_end_catch
 3299      00
 3300 1b66 4889DF   		movq	%rbx, %rdi
 3301              	.LEHB98:
 3302 1b69 E8000000 		call	_Unwind_Resume
 3302      00
 3303              	.LEHE98:
 3304              	.L289:
 3305 1b6e 4889C3   		movq	%rax, %rbx
 3306 1b71 E8000000 		call	__cxa_end_catch
 3306      00
 3307 1b76 4889DF   		movq	%rbx, %rdi
 3308              	.LEHB99:
 3309 1b79 E8000000 		call	_Unwind_Resume
 3309      00
 3310              	.LEHE99:
 3311              		.cfi_endproc
 3312              	.LFE1126:
 3313              		.section	.gcc_except_table
 3314              		.align 4
 3315              	.LLSDA1126:
 3316 01d4 FF       		.byte	0xff
 3317 01d5 03       		.byte	0x3
 3318 01d6 9401     		.uleb128 .LLSDATT1126-.LLSDATTD1126
 3319              	.LLSDATTD1126:
 3320 01d8 01       		.byte	0x1
 3321 01d9 8801     		.uleb128 .LLSDACSE1126-.LLSDACSB1126
 3322              	.LLSDACSB1126:
 3323 01db 19       		.uleb128 .LEHB74-.LFB1126
 3324 01dc 05       		.uleb128 .LEHE74-.LEHB74
 3325 01dd 00       		.uleb128 0
 3326 01de 00       		.uleb128 0
 3327 01df 22       		.uleb128 .LEHB75-.LFB1126
 3328 01e0 3C       		.uleb128 .LEHE75-.LEHB75
 3329 01e1 A103     		.uleb128 .L286-.LFB1126
 3330 01e3 01       		.uleb128 0x1
 3331 01e4 63       		.uleb128 .LEHB76-.LFB1126
 3332 01e5 05       		.uleb128 .LEHE76-.LEHB76
 3333 01e6 00       		.uleb128 0
 3334 01e7 00       		.uleb128 0
 3335 01e8 6C       		.uleb128 .LEHB77-.LFB1126
 3336 01e9 39       		.uleb128 .LEHE77-.LEHB77
 3337 01ea 9905     		.uleb128 .L288-.LFB1126
 3338 01ec 01       		.uleb128 0x1
 3339 01ed B201     		.uleb128 .LEHB78-.LFB1126
 3340 01ef 05       		.uleb128 .LEHE78-.LEHB78
 3341 01f0 00       		.uleb128 0
 3342 01f1 00       		.uleb128 0
 3343 01f2 B701     		.uleb128 .LEHB79-.LFB1126
 3344 01f4 38       		.uleb128 .LEHE79-.LEHB79
 3345 01f5 9E04     		.uleb128 .L290-.LFB1126
 3346 01f7 01       		.uleb128 0x1
 3347 01f8 FC01     		.uleb128 .LEHB80-.LFB1126
 3348 01fa 05       		.uleb128 .LEHE80-.LEHB80
 3349 01fb 00       		.uleb128 0
 3350 01fc 00       		.uleb128 0
 3351 01fd 8102     		.uleb128 .LEHB81-.LFB1126
 3352 01ff 38       		.uleb128 .LEHE81-.LEHB81
 3353 0200 DA04     		.uleb128 .L292-.LFB1126
 3354 0202 01       		.uleb128 0x1
 3355 0203 C602     		.uleb128 .LEHB82-.LFB1126
 3356 0205 05       		.uleb128 .LEHE82-.LEHB82
 3357 0206 00       		.uleb128 0
 3358 0207 00       		.uleb128 0
 3359 0208 CB02     		.uleb128 .LEHB83-.LFB1126
 3360 020a 38       		.uleb128 .LEHE83-.LEHB83
 3361 020b E203     		.uleb128 .L294-.LFB1126
 3362 020d 01       		.uleb128 0x1
 3363 020e 8603     		.uleb128 .LEHB84-.LFB1126
 3364 0210 0F       		.uleb128 .LEHE84-.LEHB84
 3365 0211 00       		.uleb128 0
 3366 0212 00       		.uleb128 0
 3367 0213 A903     		.uleb128 .LEHB85-.LFB1126
 3368 0215 2F       		.uleb128 .LEHE85-.LEHB85
 3369 0216 DE05     		.uleb128 .L287-.LFB1126
 3370 0218 00       		.uleb128 0
 3371 0219 D803     		.uleb128 .LEHB86-.LFB1126
 3372 021b 05       		.uleb128 .LEHE86-.LEHB86
 3373 021c 00       		.uleb128 0
 3374 021d 00       		.uleb128 0
 3375 021e EA03     		.uleb128 .LEHB87-.LFB1126
 3376 0220 2A       		.uleb128 .LEHE87-.LEHB87
 3377 0221 EE05     		.uleb128 .L295-.LFB1126
 3378 0223 00       		.uleb128 0
 3379 0224 9404     		.uleb128 .LEHB88-.LFB1126
 3380 0226 05       		.uleb128 .LEHE88-.LEHB88
 3381 0227 00       		.uleb128 0
 3382 0228 00       		.uleb128 0
 3383 0229 A604     		.uleb128 .LEHB89-.LFB1126
 3384 022b 2A       		.uleb128 .LEHE89-.LEHB89
 3385 022c 8E06     		.uleb128 .L291-.LFB1126
 3386 022e 00       		.uleb128 0
 3387 022f D004     		.uleb128 .LEHB90-.LFB1126
 3388 0231 05       		.uleb128 .LEHE90-.LEHB90
 3389 0232 00       		.uleb128 0
 3390 0233 00       		.uleb128 0
 3391 0234 E504     		.uleb128 .LEHB91-.LFB1126
 3392 0236 2A       		.uleb128 .LEHE91-.LEHB91
 3393 0237 FE05     		.uleb128 .L293-.LFB1126
 3394 0239 00       		.uleb128 0
 3395 023a 8F05     		.uleb128 .LEHB92-.LFB1126
 3396 023c 05       		.uleb128 .LEHE92-.LEHB92
 3397 023d 00       		.uleb128 0
 3398 023e 00       		.uleb128 0
 3399 023f A505     		.uleb128 .LEHB93-.LFB1126
 3400 0241 2F       		.uleb128 .LEHE93-.LEHB93
 3401 0242 9E06     		.uleb128 .L289-.LFB1126
 3402 0244 00       		.uleb128 0
 3403 0245 D405     		.uleb128 .LEHB94-.LFB1126
 3404 0247 05       		.uleb128 .LEHE94-.LEHB94
 3405 0248 00       		.uleb128 0
 3406 0249 00       		.uleb128 0
 3407 024a E905     		.uleb128 .LEHB95-.LFB1126
 3408 024c 05       		.uleb128 .LEHE95-.LEHB95
 3409 024d 00       		.uleb128 0
 3410 024e 00       		.uleb128 0
 3411 024f F905     		.uleb128 .LEHB96-.LFB1126
 3412 0251 05       		.uleb128 .LEHE96-.LEHB96
 3413 0252 00       		.uleb128 0
 3414 0253 00       		.uleb128 0
 3415 0254 8906     		.uleb128 .LEHB97-.LFB1126
 3416 0256 05       		.uleb128 .LEHE97-.LEHB97
 3417 0257 00       		.uleb128 0
 3418 0258 00       		.uleb128 0
 3419 0259 9906     		.uleb128 .LEHB98-.LFB1126
 3420 025b 05       		.uleb128 .LEHE98-.LEHB98
 3421 025c 00       		.uleb128 0
 3422 025d 00       		.uleb128 0
 3423 025e A906     		.uleb128 .LEHB99-.LFB1126
 3424 0260 05       		.uleb128 .LEHE99-.LEHB99
 3425 0261 00       		.uleb128 0
 3426 0262 00       		.uleb128 0
 3427              	.LLSDACSE1126:
 3428 0263 01       		.byte	0x1
 3429 0264 00       		.byte	0
 3430 0265 000000   		.align 4
 3431 0268 00000000 		.long	0
 3432              	
 3433              	.LLSDATT1126:
 3434              		.text
 3436              		.align 2
 3437 1b7e 6690     		.p2align 4,,15
 3438              		.globl	_ZNK27TestFPGALink_testBuildIndex7RunImplEv
 3440              	_ZNK27TestFPGALink_testBuildIndex7RunImplEv:
 3441              	.LFB1135:
 3442              		.cfi_startproc
 3443              		.cfi_personality 0x3,__gxx_personality_v0
 3444              		.cfi_lsda 0x3,.LLSDA1135
 3445 1b80 55       		pushq	%rbp
 3446              		.cfi_def_cfa_offset 16
 3447              		.cfi_offset 6, -16
 3448 1b81 31C9     		xorl	%ecx, %ecx
 3449 1b83 31D2     		xorl	%edx, %edx
 3450 1b85 BE230000 		movl	$35, %esi
 3450      00
 3451 1b8a 53       		pushq	%rbx
 3452              		.cfi_def_cfa_offset 24
 3453              		.cfi_offset 3, -24
 3454 1b8b 4881EC48 		subq	$840, %rsp
 3454      030000
 3455              		.cfi_def_cfa_offset 864
 3456 1b92 488D7C24 		leaq	32(%rsp), %rdi
 3456      20
 3457 1b97 C6842410 		movb	$2, 784(%rsp)
 3457      03000002 
 3458 1b9f C6842411 		movb	$6, 785(%rsp)
 3458      03000006 
 3459 1ba7 64488B04 		movq	%fs:40, %rax
 3459      25280000 
 3459      00
 3460 1bb0 48898424 		movq	%rax, 824(%rsp)
 3460      38030000 
 3461 1bb8 31C0     		xorl	%eax, %eax
 3462 1bba C6842412 		movb	$9, 786(%rsp)
 3462      03000009 
 3463 1bc2 C6842413 		movb	$8, 787(%rsp)
 3463      03000008 
 3464 1bca C6842414 		movb	$0, 788(%rsp)
 3464      03000000 
 3465 1bd2 C6842415 		movb	$0, 789(%rsp)
 3465      03000000 
 3466 1bda C6842416 		movb	$0, 790(%rsp)
 3466      03000000 
 3467 1be2 C6842417 		movb	$32, 791(%rsp)
 3467      03000020 
 3468 1bea C6842418 		movb	$1, 792(%rsp)
 3468      03000001 
 3469 1bf2 C6842419 		movb	$-1, 793(%rsp)
 3469      030000FF 
 3470 1bfa C684241A 		movb	$-1, 794(%rsp)
 3470      030000FF 
 3471 1c02 C684241B 		movb	$-1, 795(%rsp)
 3471      030000FF 
 3472 1c0a C684241C 		movb	$15, 796(%rsp)
 3472      0300000F 
 3473 1c12 C684241D 		movb	$9, 797(%rsp)
 3473      03000009 
 3474 1c1a C684241E 		movb	$0, 798(%rsp)
 3474      03000000 
 3475 1c22 C684241F 		movb	$-109, 799(%rsp)
 3475      03000093 
 3476 1c2a C6842420 		movb	$0, 800(%rsp)
 3476      03000000 
 3477 1c32 C6842421 		movb	$-128, 801(%rsp)
 3477      03000080 
 3478 1c3a C6842422 		movb	$0, 802(%rsp)
 3478      03000000 
 3479 1c42 C6842423 		movb	$97, 803(%rsp)
 3479      03000061 
 3480 1c4a C6842424 		movb	$0, 804(%rsp)
 3480      03000000 
 3481 1c52 C6842425 		movb	$-14, 805(%rsp)
 3481      030000F2 
 3482 1c5a C6842426 		movb	$8, 806(%rsp)
 3482      03000008 
 3483 1c62 C6842427 		movb	$0, 807(%rsp)
 3483      03000000 
 3484 1c6a C6842428 		movb	$0, 808(%rsp)
 3484      03000000 
 3485 1c72 C6842429 		movb	$0, 809(%rsp)
 3485      03000000 
 3486 1c7a C684242A 		movb	$5, 810(%rsp)
 3486      03000005 
 3487 1c82 C684242B 		movb	$3, 811(%rsp)
 3487      03000003 
 3488 1c8a C684242C 		movb	$0, 812(%rsp)
 3488      03000000 
 3489 1c92 C684242D 		movb	$4, 813(%rsp)
 3489      03000004 
 3490 1c9a C684242E 		movb	$0, 814(%rsp)
 3490      03000000 
 3491 1ca2 C684242F 		movb	$0, 815(%rsp)
 3491      03000000 
 3492 1caa C6842430 		movb	$0, 816(%rsp)
 3492      03000000 
 3493 1cb2 C6842431 		movb	$16, 817(%rsp)
 3493      03000010 
 3494 1cba C6842432 		movb	$0, 818(%rsp)
 3494      03000000 
 3495              	.LEHB100:
 3496 1cc2 E8000000 		call	bufInitialise
 3496      00
 3497              	.LEHE100:
 3498 1cc7 8944241C 		movl	%eax, 28(%rsp)
 3499              	.LEHB101:
 3500 1ccb E8000000 		call	_ZN8UnitTest11CurrentTest7DetailsEv
 3500      00
 3501 1cd0 488D5C24 		leaq	96(%rsp), %rbx
 3501      60
 3502 1cd5 488B30   		movq	(%rax), %rsi
 3503 1cd8 BA4F0300 		movl	$847, %edx
 3503      00
 3504 1cdd 4889DF   		movq	%rbx, %rdi
 3505 1ce0 E8000000 		call	_ZN8UnitTest11TestDetailsC1ERKS0_i
 3505      00
 3506 1ce5 C7442440 		movl	$0, 64(%rsp)
 3506      00000000 
 3507 1ced E8000000 		call	_ZN8UnitTest11CurrentTest7ResultsEv
 3507      00
 3508 1cf2 488B38   		movq	(%rax), %rdi
 3509 1cf5 488D5424 		leaq	28(%rsp), %rdx
 3509      1C
 3510 1cfa 488D7424 		leaq	64(%rsp), %rsi
 3510      40
 3511 1cff 4889D9   		movq	%rbx, %rcx
 3512 1d02 E8000000 		call	_ZN8UnitTest10CheckEqualI12BufferStatusS1_EEvRNS_11TestResultsERKT_RKT0_RKNS_11TestDetailsE
 3512      00
 3513              	.LEHE101:
 3514              	.L301:
 3515 1d07 31C0     		xorl	%eax, %eax
 3516 1d09 B9550000 		movl	$85, %ecx
 3516      00
 3517 1d0e 4889DF   		movq	%rbx, %rdi
 3518 1d11 F348AB   		rep stosq
 3519 1d14 488DB424 		leaq	784(%rsp), %rsi
 3519      10030000 
 3520 1d1c 488D7C24 		leaq	32(%rsp), %rdi
 3520      20
 3521 1d21 BA230000 		movl	$35, %edx
 3521      00
 3522 1d26 C78424FC 		movl	$8, 764(%rsp)
 3522      02000008 
 3522      000000
 3523              	.LEHB102:
 3524 1d31 E8000000 		call	bufAppendBlock
 3524      00
 3525              	.LEHE102:
 3526 1d36 8944241C 		movl	%eax, 28(%rsp)
 3527              	.LEHB103:
 3528 1d3a E8000000 		call	_ZN8UnitTest11CurrentTest7DetailsEv
 3528      00
 3529 1d3f 488D6C24 		leaq	64(%rsp), %rbp
 3529      40
 3530 1d44 488B30   		movq	(%rax), %rsi
 3531 1d47 BA530300 		movl	$851, %edx
 3531      00
 3532 1d4c 4889EF   		movq	%rbp, %rdi
 3533 1d4f E8000000 		call	_ZN8UnitTest11TestDetailsC1ERKS0_i
 3533      00
 3534 1d54 C7442410 		movl	$0, 16(%rsp)
 3534      00000000 
 3535 1d5c E8000000 		call	_ZN8UnitTest11CurrentTest7ResultsEv
 3535      00
 3536 1d61 488B38   		movq	(%rax), %rdi
 3537 1d64 488D5424 		leaq	28(%rsp), %rdx
 3537      1C
 3538 1d69 488D7424 		leaq	16(%rsp), %rsi
 3538      10
 3539 1d6e 4889E9   		movq	%rbp, %rcx
 3540 1d71 E8000000 		call	_ZN8UnitTest10CheckEqualI12BufferStatusS1_EEvRNS_11TestResultsERKT_RKT0_RKNS_11TestDetailsE
 3540      00
 3541              	.LEHE103:
 3542              	.L304:
 3543 1d76 488D7424 		leaq	32(%rsp), %rsi
 3543      20
 3544 1d7b 31D2     		xorl	%edx, %edx
 3545 1d7d 4889DF   		movq	%rbx, %rdi
 3546              	.LEHB104:
 3547 1d80 E8000000 		call	buildIndex
 3547      00
 3548              	.LEHE104:
 3549 1d85 89442410 		movl	%eax, 16(%rsp)
 3550              	.LEHB105:
 3551 1d89 E8000000 		call	_ZN8UnitTest11CurrentTest7DetailsEv
 3551      00
 3552 1d8e 488B30   		movq	(%rax), %rsi
 3553 1d91 BA550300 		movl	$853, %edx
 3553      00
 3554 1d96 4889EF   		movq	%rbp, %rdi
 3555 1d99 E8000000 		call	_ZN8UnitTest11TestDetailsC1ERKS0_i
 3555      00
 3556 1d9e C7042400 		movl	$0, (%rsp)
 3556      000000
 3557 1da5 E8000000 		call	_ZN8UnitTest11CurrentTest7ResultsEv
 3557      00
 3558 1daa 488B38   		movq	(%rax), %rdi
 3559 1dad 488D5424 		leaq	16(%rsp), %rdx
 3559      10
 3560 1db2 4889E9   		movq	%rbp, %rcx
 3561 1db5 4889E6   		movq	%rsp, %rsi
 3562 1db8 E8000000 		call	_ZN8UnitTest10CheckEqualI8FLStatusS1_EEvRNS_11TestResultsERKT_RKT0_RKNS_11TestDetailsE
 3562      00
 3563              	.LEHE105:
 3564              	.L307:
 3565 1dbd 488D7C24 		leaq	32(%rsp), %rdi
 3565      20
 3566              	.LEHB106:
 3567 1dc2 E8000000 		call	bufDestroy
 3567      00
 3568              	.LEHE106:
 3569 1dc7 488B8424 		movq	824(%rsp), %rax
 3569      38030000 
 3570 1dcf 64483304 		xorq	%fs:40, %rax
 3570      25280000 
 3570      00
 3571 1dd8 750A     		jne	.L317
 3572 1dda 4881C448 		addq	$840, %rsp
 3572      030000
 3573              		.cfi_remember_state
 3574              		.cfi_def_cfa_offset 24
 3575 1de1 5B       		popq	%rbx
 3576              		.cfi_def_cfa_offset 16
 3577 1de2 5D       		popq	%rbp
 3578              		.cfi_def_cfa_offset 8
 3579 1de3 C3       		ret
 3580              	.L317:
 3581              		.cfi_restore_state
 3582 1de4 E8000000 		call	__stack_chk_fail
 3582      00
 3583              	.L313:
 3584 1de9 4889C7   		movq	%rax, %rdi
 3585 1dec E8000000 		call	__cxa_begin_catch
 3585      00
 3586              	.LEHB107:
 3587 1df1 E8000000 		call	_ZN8UnitTest11CurrentTest7DetailsEv
 3587      00
 3588 1df6 488B30   		movq	(%rax), %rsi
 3589 1df9 BA550300 		movl	$853, %edx
 3589      00
 3590 1dfe 4889EF   		movq	%rbp, %rdi
 3591 1e01 E8000000 		call	_ZN8UnitTest11TestDetailsC1ERKS0_i
 3591      00
 3592 1e06 E8000000 		call	_ZN8UnitTest11CurrentTest7ResultsEv
 3592      00
 3593 1e0b 488B38   		movq	(%rax), %rdi
 3594 1e0e BA000000 		movl	$.LC12, %edx
 3594      00
 3595 1e13 4889EE   		movq	%rbp, %rsi
 3596 1e16 E8000000 		call	_ZN8UnitTest11TestResults13OnTestFailureERKNS_11TestDetailsEPKc
 3596      00
 3597              	.LEHE107:
 3598              	.LEHB108:
 3599 1e1b E8000000 		call	__cxa_end_catch
 3599      00
 3600              	.LEHE108:
 3601 1e20 EB9B     		jmp	.L307
 3602              	.L311:
 3603 1e22 4889C7   		movq	%rax, %rdi
 3604              		.p2align 4,,5
 3605 1e25 E8000000 		call	__cxa_begin_catch
 3605      00
 3606              		.p2align 4,,5
 3607              	.LEHB109:
 3608 1e2a E8000000 		call	_ZN8UnitTest11CurrentTest7DetailsEv
 3608      00
 3609 1e2f 488D6C24 		leaq	64(%rsp), %rbp
 3609      40
 3610 1e34 488B30   		movq	(%rax), %rsi
 3611 1e37 BA530300 		movl	$851, %edx
 3611      00
 3612 1e3c 4889EF   		movq	%rbp, %rdi
 3613 1e3f E8000000 		call	_ZN8UnitTest11TestDetailsC1ERKS0_i
 3613      00
 3614 1e44 E8000000 		call	_ZN8UnitTest11CurrentTest7ResultsEv
 3614      00
 3615 1e49 488B38   		movq	(%rax), %rdi
 3616 1e4c BA000000 		movl	$.LC21, %edx
 3616      00
 3617 1e51 4889EE   		movq	%rbp, %rsi
 3618 1e54 E8000000 		call	_ZN8UnitTest11TestResults13OnTestFailureERKNS_11TestDetailsEPKc
 3618      00
 3619              	.LEHE109:
 3620              	.LEHB110:
 3621 1e59 E8000000 		call	__cxa_end_catch
 3621      00
 3622              	.LEHE110:
 3623 1e5e E913FFFF 		jmp	.L304
 3623      FF
 3624              	.L309:
 3625 1e63 4889C7   		movq	%rax, %rdi
 3626              		.p2align 4,,5
 3627 1e66 E8000000 		call	__cxa_begin_catch
 3627      00
 3628 1e6b 0F1F4400 		.p2align 4,,5
 3628      00
 3629              	.LEHB111:
 3630 1e70 E8000000 		call	_ZN8UnitTest11CurrentTest7DetailsEv
 3630      00
 3631 1e75 488D5C24 		leaq	96(%rsp), %rbx
 3631      60
 3632 1e7a 488B30   		movq	(%rax), %rsi
 3633 1e7d BA4F0300 		movl	$847, %edx
 3633      00
 3634 1e82 4889DF   		movq	%rbx, %rdi
 3635 1e85 E8000000 		call	_ZN8UnitTest11TestDetailsC1ERKS0_i
 3635      00
 3636 1e8a E8000000 		call	_ZN8UnitTest11CurrentTest7ResultsEv
 3636      00
 3637 1e8f 488B38   		movq	(%rax), %rdi
 3638 1e92 BA000000 		movl	$.LC21, %edx
 3638      00
 3639 1e97 4889DE   		movq	%rbx, %rsi
 3640 1e9a E8000000 		call	_ZN8UnitTest11TestResults13OnTestFailureERKNS_11TestDetailsEPKc
 3640      00
 3641              	.LEHE111:
 3642              	.LEHB112:
 3643 1e9f E8000000 		call	__cxa_end_catch
 3643      00
 3644              	.LEHE112:
 3645 1ea4 E95EFEFF 		jmp	.L301
 3645      FF
 3646              	.L314:
 3647 1ea9 4889C3   		movq	%rax, %rbx
 3648 1eac 0F1F4000 		.p2align 4,,5
 3649 1eb0 E8000000 		call	__cxa_end_catch
 3649      00
 3650 1eb5 4889DF   		movq	%rbx, %rdi
 3651              	.LEHB113:
 3652 1eb8 E8000000 		call	_Unwind_Resume
 3652      00
 3653              	.LEHE113:
 3654              	.L312:
 3655 1ebd 4889C3   		movq	%rax, %rbx
 3656 1ec0 E8000000 		call	__cxa_end_catch
 3656      00
 3657 1ec5 4889DF   		movq	%rbx, %rdi
 3658              	.LEHB114:
 3659 1ec8 E8000000 		call	_Unwind_Resume
 3659      00
 3660              	.LEHE114:
 3661              	.L310:
 3662 1ecd 4889C3   		movq	%rax, %rbx
 3663 1ed0 E8000000 		call	__cxa_end_catch
 3663      00
 3664 1ed5 4889DF   		movq	%rbx, %rdi
 3665              	.LEHB115:
 3666 1ed8 E8000000 		call	_Unwind_Resume
 3666      00
 3667              	.LEHE115:
 3668              		.cfi_endproc
 3669              	.LFE1135:
 3670              		.section	.gcc_except_table
 3671              		.align 4
 3672              	.LLSDA1135:
 3673 026c FF       		.byte	0xff
 3674 026d 03       		.byte	0x3
 3675 026e 61       		.uleb128 .LLSDATT1135-.LLSDATTD1135
 3676              	.LLSDATTD1135:
 3677 026f 01       		.byte	0x1
 3678 0270 56       		.uleb128 .LLSDACSE1135-.LLSDACSB1135
 3679              	.LLSDACSB1135:
 3680 0271 C202     		.uleb128 .LEHB100-.LFB1135
 3681 0273 05       		.uleb128 .LEHE100-.LEHB100
 3682 0274 00       		.uleb128 0
 3683 0275 00       		.uleb128 0
 3684 0276 CB02     		.uleb128 .LEHB101-.LFB1135
 3685 0278 3C       		.uleb128 .LEHE101-.LEHB101
 3686 0279 E305     		.uleb128 .L309-.LFB1135
 3687 027b 01       		.uleb128 0x1
 3688 027c B103     		.uleb128 .LEHB102-.LFB1135
 3689 027e 05       		.uleb128 .LEHE102-.LEHB102
 3690 027f 00       		.uleb128 0
 3691 0280 00       		.uleb128 0
 3692 0281 BA03     		.uleb128 .LEHB103-.LFB1135
 3693 0283 3C       		.uleb128 .LEHE103-.LEHB103
 3694 0284 A205     		.uleb128 .L311-.LFB1135
 3695 0286 01       		.uleb128 0x1
 3696 0287 8004     		.uleb128 .LEHB104-.LFB1135
 3697 0289 05       		.uleb128 .LEHE104-.LEHB104
 3698 028a 00       		.uleb128 0
 3699 028b 00       		.uleb128 0
 3700 028c 8904     		.uleb128 .LEHB105-.LFB1135
 3701 028e 34       		.uleb128 .LEHE105-.LEHB105
 3702 028f E904     		.uleb128 .L313-.LFB1135
 3703 0291 01       		.uleb128 0x1
 3704 0292 C204     		.uleb128 .LEHB106-.LFB1135
 3705 0294 05       		.uleb128 .LEHE106-.LEHB106
 3706 0295 00       		.uleb128 0
 3707 0296 00       		.uleb128 0
 3708 0297 F104     		.uleb128 .LEHB107-.LFB1135
 3709 0299 2A       		.uleb128 .LEHE107-.LEHB107
 3710 029a A906     		.uleb128 .L314-.LFB1135
 3711 029c 00       		.uleb128 0
 3712 029d 9B05     		.uleb128 .LEHB108-.LFB1135
 3713 029f 05       		.uleb128 .LEHE108-.LEHB108
 3714 02a0 00       		.uleb128 0
 3715 02a1 00       		.uleb128 0
 3716 02a2 AA05     		.uleb128 .LEHB109-.LFB1135
 3717 02a4 2F       		.uleb128 .LEHE109-.LEHB109
 3718 02a5 BD06     		.uleb128 .L312-.LFB1135
 3719 02a7 00       		.uleb128 0
 3720 02a8 D905     		.uleb128 .LEHB110-.LFB1135
 3721 02aa 05       		.uleb128 .LEHE110-.LEHB110
 3722 02ab 00       		.uleb128 0
 3723 02ac 00       		.uleb128 0
 3724 02ad F005     		.uleb128 .LEHB111-.LFB1135
 3725 02af 2F       		.uleb128 .LEHE111-.LEHB111
 3726 02b0 CD06     		.uleb128 .L310-.LFB1135
 3727 02b2 00       		.uleb128 0
 3728 02b3 9F06     		.uleb128 .LEHB112-.LFB1135
 3729 02b5 05       		.uleb128 .LEHE112-.LEHB112
 3730 02b6 00       		.uleb128 0
 3731 02b7 00       		.uleb128 0
 3732 02b8 B806     		.uleb128 .LEHB113-.LFB1135
 3733 02ba 05       		.uleb128 .LEHE113-.LEHB113
 3734 02bb 00       		.uleb128 0
 3735 02bc 00       		.uleb128 0
 3736 02bd C806     		.uleb128 .LEHB114-.LFB1135
 3737 02bf 05       		.uleb128 .LEHE114-.LEHB114
 3738 02c0 00       		.uleb128 0
 3739 02c1 00       		.uleb128 0
 3740 02c2 D806     		.uleb128 .LEHB115-.LFB1135
 3741 02c4 05       		.uleb128 .LEHE115-.LEHB115
 3742 02c5 00       		.uleb128 0
 3743 02c6 00       		.uleb128 0
 3744              	.LLSDACSE1135:
 3745 02c7 01       		.byte	0x1
 3746 02c8 00       		.byte	0
 3747 02c9 000000   		.align 4
 3748 02cc 00000000 		.long	0
 3749              	
 3750              	.LLSDATT1135:
 3751              		.text
 3753              		.section	.rodata.str1.8
 3754 04e5 000000   		.align 8
 3755              	.LC31:
 3756 04e8 556E6861 		.string	"Unhandled exception in CHECK_EQUAL(strlen(expectedHex)/2, lineBuf.length)"
 3756      6E646C65 
 3756      64206578 
 3756      63657074 
 3756      696F6E20 
 3757 0532 00000000 		.align 8
 3757      0000
 3758              	.LC32:
 3759 0538 556E6861 		.string	"Unhandled exception in CHECK_EQUAL(expectedHex, resultHex)"
 3759      6E646C65 
 3759      64206578 
 3759      63657074 
 3759      696F6E20 
 3760              		.text
 3761 1edd 0F1F00   		.p2align 4,,15
 3762              		.globl	_Z9testShiftPKcjS0_jS0_jS0_
 3764              	_Z9testShiftPKcjS0_jS0_jS0_:
 3765              	.LFB1114:
 3766              		.cfi_startproc
 3767              		.cfi_personality 0x3,__gxx_personality_v0
 3768              		.cfi_lsda 0x3,.LLSDA1114
 3769 1ee0 4157     		pushq	%r15
 3770              		.cfi_def_cfa_offset 16
 3771              		.cfi_offset 15, -16
 3772 1ee2 4989FF   		movq	%rdi, %r15
 3773 1ee5 4156     		pushq	%r14
 3774              		.cfi_def_cfa_offset 24
 3775              		.cfi_offset 14, -24
 3776 1ee7 4D89C6   		movq	%r8, %r14
 3777 1eea 4155     		pushq	%r13
 3778              		.cfi_def_cfa_offset 32
 3779              		.cfi_offset 13, -32
 3780 1eec 4589CD   		movl	%r9d, %r13d
 3781 1eef 4154     		pushq	%r12
 3782              		.cfi_def_cfa_offset 40
 3783              		.cfi_offset 12, -40
 3784 1ef1 4189CC   		movl	%ecx, %r12d
 3785 1ef4 31C9     		xorl	%ecx, %ecx
 3786 1ef6 55       		pushq	%rbp
 3787              		.cfi_def_cfa_offset 48
 3788              		.cfi_offset 6, -48
 3789 1ef7 53       		pushq	%rbx
 3790              		.cfi_def_cfa_offset 56
 3791              		.cfi_offset 3, -56
 3792 1ef8 4881EC38 		subq	$1592, %rsp
 3792      060000
 3793              		.cfi_def_cfa_offset 1648
 3794 1eff 488D7C24 		leaq	48(%rsp), %rdi
 3794      30
 3795 1f04 89742414 		movl	%esi, 20(%rsp)
 3796 1f08 48895424 		movq	%rdx, 24(%rsp)
 3796      18
 3797 1f0d BE000400 		movl	$1024, %esi
 3797      00
 3798 1f12 31D2     		xorl	%edx, %edx
 3799 1f14 488BAC24 		movq	1648(%rsp), %rbp
 3799      70060000 
 3800 1f1c 64488B04 		movq	%fs:40, %rax
 3800      25280000 
 3800      00
 3801 1f25 48898424 		movq	%rax, 1576(%rsp)
 3801      28060000 
 3802 1f2d 31C0     		xorl	%eax, %eax
 3803              	.LEHB116:
 3804 1f2f E8000000 		call	bufInitialise
 3804      00
 3805              	.LEHE116:
 3806 1f34 89442428 		movl	%eax, 40(%rsp)
 3807              	.LEHB117:
 3808 1f38 E8000000 		call	_ZN8UnitTest11CurrentTest7DetailsEv
 3808      00
 3809 1f3d 488D9C24 		leaq	176(%rsp), %rbx
 3809      B0000000 
 3810 1f45 488B30   		movq	(%rax), %rsi
 3811 1f48 BA420000 		movl	$66, %edx
 3811      00
 3812 1f4d 4889DF   		movq	%rbx, %rdi
 3813 1f50 E8000000 		call	_ZN8UnitTest11TestDetailsC1ERKS0_i
 3813      00
 3814 1f55 C7842490 		movl	$0, 144(%rsp)
 3814      00000000 
 3814      000000
 3815 1f60 E8000000 		call	_ZN8UnitTest11CurrentTest7ResultsEv
 3815      00
 3816 1f65 488B38   		movq	(%rax), %rdi
 3817 1f68 488D5424 		leaq	40(%rsp), %rdx
 3817      28
 3818 1f6d 488DB424 		leaq	144(%rsp), %rsi
 3818      90000000 
 3819 1f75 4889D9   		movq	%rbx, %rcx
 3820 1f78 E8000000 		call	_ZN8UnitTest10CheckEqualI12BufferStatusS1_EEvRNS_11TestResultsERKT_RKT0_RKNS_11TestDetailsE
 3820      00
 3821              	.LEHE117:
 3822              	.L340:
 3823 1f7d 488D7C24 		leaq	80(%rsp), %rdi
 3823      50
 3824 1f82 31C9     		xorl	%ecx, %ecx
 3825 1f84 31D2     		xorl	%edx, %edx
 3826 1f86 BE000400 		movl	$1024, %esi
 3826      00
 3827              	.LEHB118:
 3828 1f8b E8000000 		call	bufInitialise
 3828      00
 3829              	.LEHE118:
 3830 1f90 89442428 		movl	%eax, 40(%rsp)
 3831              	.LEHB119:
 3832 1f94 E8000000 		call	_ZN8UnitTest11CurrentTest7DetailsEv
 3832      00
 3833 1f99 488B30   		movq	(%rax), %rsi
 3834 1f9c BA440000 		movl	$68, %edx
 3834      00
 3835 1fa1 4889DF   		movq	%rbx, %rdi
 3836 1fa4 E8000000 		call	_ZN8UnitTest11TestDetailsC1ERKS0_i
 3836      00
 3837 1fa9 C7842490 		movl	$0, 144(%rsp)
 3837      00000000 
 3837      000000
 3838 1fb4 E8000000 		call	_ZN8UnitTest11CurrentTest7ResultsEv
 3838      00
 3839 1fb9 488B38   		movq	(%rax), %rdi
 3840 1fbc 488D5424 		leaq	40(%rsp), %rdx
 3840      28
 3841 1fc1 488DB424 		leaq	144(%rsp), %rsi
 3841      90000000 
 3842 1fc9 4889D9   		movq	%rbx, %rcx
 3843 1fcc E8000000 		call	_ZN8UnitTest10CheckEqualI12BufferStatusS1_EEvRNS_11TestResultsERKT_RKT0_RKNS_11TestDetailsE
 3843      00
 3844              	.LEHE119:
 3845              	.L343:
 3846 1fd1 488D7C24 		leaq	112(%rsp), %rdi
 3846      70
 3847 1fd6 31C9     		xorl	%ecx, %ecx
 3848 1fd8 31D2     		xorl	%edx, %edx
 3849 1fda BE000400 		movl	$1024, %esi
 3849      00
 3850              	.LEHB120:
 3851 1fdf E8000000 		call	bufInitialise
 3851      00
 3852              	.LEHE120:
 3853 1fe4 89442428 		movl	%eax, 40(%rsp)
 3854              	.LEHB121:
 3855 1fe8 E8000000 		call	_ZN8UnitTest11CurrentTest7DetailsEv
 3855      00
 3856 1fed 488B30   		movq	(%rax), %rsi
 3857 1ff0 BA460000 		movl	$70, %edx
 3857      00
 3858 1ff5 4889DF   		movq	%rbx, %rdi
 3859 1ff8 E8000000 		call	_ZN8UnitTest11TestDetailsC1ERKS0_i
 3859      00
 3860 1ffd C7842490 		movl	$0, 144(%rsp)
 3860      00000000 
 3860      000000
 3861 2008 E8000000 		call	_ZN8UnitTest11CurrentTest7ResultsEv
 3861      00
 3862 200d 488B38   		movq	(%rax), %rdi
 3863 2010 488D5424 		leaq	40(%rsp), %rdx
 3863      28
 3864 2015 488DB424 		leaq	144(%rsp), %rsi
 3864      90000000 
 3865 201d 4889D9   		movq	%rbx, %rcx
 3866 2020 E8000000 		call	_ZN8UnitTest10CheckEqualI12BufferStatusS1_EEvRNS_11TestResultsERKT_RKT0_RKNS_11TestDetailsE
 3866      00
 3867              	.LEHE121:
 3868              	.L346:
 3869 2025 488D7C24 		leaq	48(%rsp), %rdi
 3869      30
 3870 202a 31D2     		xorl	%edx, %edx
 3871 202c 4C89FE   		movq	%r15, %rsi
 3872              	.LEHB122:
 3873 202f E8000000 		call	readBytes
 3873      00
 3874              	.LEHE122:
 3875 2034 8944242C 		movl	%eax, 44(%rsp)
 3876              	.LEHB123:
 3877 2038 E8000000 		call	_ZN8UnitTest11CurrentTest7DetailsEv
 3877      00
 3878 203d 488B30   		movq	(%rax), %rsi
 3879 2040 BA480000 		movl	$72, %edx
 3879      00
 3880 2045 4889DF   		movq	%rbx, %rdi
 3881 2048 E8000000 		call	_ZN8UnitTest11TestDetailsC1ERKS0_i
 3881      00
 3882 204d C7842490 		movl	$0, 144(%rsp)
 3882      00000000 
 3882      000000
 3883 2058 E8000000 		call	_ZN8UnitTest11CurrentTest7ResultsEv
 3883      00
 3884 205d 488B38   		movq	(%rax), %rdi
 3885 2060 488D5424 		leaq	44(%rsp), %rdx
 3885      2C
 3886 2065 488DB424 		leaq	144(%rsp), %rsi
 3886      90000000 
 3887 206d 4889D9   		movq	%rbx, %rcx
 3888 2070 E8000000 		call	_ZN8UnitTest10CheckEqualI8FLStatusS1_EEvRNS_11TestResultsERKT_RKT0_RKNS_11TestDetailsE
 3888      00
 3889              	.LEHE123:
 3890              	.L349:
 3891 2075 488B7424 		movq	24(%rsp), %rsi
 3891      18
 3892 207a 488D7C24 		leaq	80(%rsp), %rdi
 3892      50
 3893 207f 31D2     		xorl	%edx, %edx
 3894              	.LEHB124:
 3895 2081 E8000000 		call	readBytes
 3895      00
 3896              	.LEHE124:
 3897 2086 8944242C 		movl	%eax, 44(%rsp)
 3898              	.LEHB125:
 3899 208a E8000000 		call	_ZN8UnitTest11CurrentTest7DetailsEv
 3899      00
 3900 208f 488B30   		movq	(%rax), %rsi
 3901 2092 BA4A0000 		movl	$74, %edx
 3901      00
 3902 2097 4889DF   		movq	%rbx, %rdi
 3903 209a E8000000 		call	_ZN8UnitTest11TestDetailsC1ERKS0_i
 3903      00
 3904 209f C7842490 		movl	$0, 144(%rsp)
 3904      00000000 
 3904      000000
 3905 20aa E8000000 		call	_ZN8UnitTest11CurrentTest7ResultsEv
 3905      00
 3906 20af 488B38   		movq	(%rax), %rdi
 3907 20b2 488D5424 		leaq	44(%rsp), %rdx
 3907      2C
 3908 20b7 488DB424 		leaq	144(%rsp), %rsi
 3908      90000000 
 3909 20bf 4889D9   		movq	%rbx, %rcx
 3910 20c2 E8000000 		call	_ZN8UnitTest10CheckEqualI8FLStatusS1_EEvRNS_11TestResultsERKT_RKT0_RKNS_11TestDetailsE
 3910      00
 3911              	.LEHE125:
 3912              	.L352:
 3913 20c7 488D7C24 		leaq	112(%rsp), %rdi
 3913      70
 3914 20cc 31D2     		xorl	%edx, %edx
 3915 20ce 4C89F6   		movq	%r14, %rsi
 3916              	.LEHB126:
 3917 20d1 E8000000 		call	readBytes
 3917      00
 3918              	.LEHE126:
 3919 20d6 8944242C 		movl	%eax, 44(%rsp)
 3920              	.LEHB127:
 3921 20da E8000000 		call	_ZN8UnitTest11CurrentTest7DetailsEv
 3921      00
 3922 20df 488B30   		movq	(%rax), %rsi
 3923 20e2 BA4C0000 		movl	$76, %edx
 3923      00
 3924 20e7 4889DF   		movq	%rbx, %rdi
 3925 20ea E8000000 		call	_ZN8UnitTest11TestDetailsC1ERKS0_i
 3925      00
 3926 20ef C7842490 		movl	$0, 144(%rsp)
 3926      00000000 
 3926      000000
 3927 20fa E8000000 		call	_ZN8UnitTest11CurrentTest7ResultsEv
 3927      00
 3928 20ff 488B38   		movq	(%rax), %rdi
 3929 2102 488D5424 		leaq	44(%rsp), %rdx
 3929      2C
 3930 2107 488DB424 		leaq	144(%rsp), %rsi
 3930      90000000 
 3931 210f 4889D9   		movq	%rbx, %rcx
 3932 2112 E8000000 		call	_ZN8UnitTest10CheckEqualI8FLStatusS1_EEvRNS_11TestResultsERKT_RKT0_RKNS_11TestDetailsE
 3932      00
 3933              	.LEHE127:
 3934              	.L355:
 3935 2117 8B4C2414 		movl	20(%rsp), %ecx
 3936 211b 488D5424 		leaq	112(%rsp), %rdx
 3936      70
 3937 2120 488D7424 		leaq	80(%rsp), %rsi
 3937      50
 3938 2125 488D7C24 		leaq	48(%rsp), %rdi
 3938      30
 3939 212a 48C70424 		movq	$0, (%rsp)
 3939      00000000 
 3940 2132 4589E9   		movl	%r13d, %r9d
 3941 2135 4589E0   		movl	%r12d, %r8d
 3942              	.LEHB128:
 3943 2138 E8000000 		call	headTail
 3943      00
 3944              	.LEHE128:
 3945 213d 8944242C 		movl	%eax, 44(%rsp)
 3946              	.LEHB129:
 3947 2141 E8000000 		call	_ZN8UnitTest11CurrentTest7DetailsEv
 3947      00
 3948 2146 488B30   		movq	(%rax), %rsi
 3949 2149 BA4E0000 		movl	$78, %edx
 3949      00
 3950 214e 4889DF   		movq	%rbx, %rdi
 3951 2151 E8000000 		call	_ZN8UnitTest11TestDetailsC1ERKS0_i
 3951      00
 3952 2156 C7842490 		movl	$0, 144(%rsp)
 3952      00000000 
 3952      000000
 3953 2161 E8000000 		call	_ZN8UnitTest11CurrentTest7ResultsEv
 3953      00
 3954 2166 488B38   		movq	(%rax), %rdi
 3955 2169 488D5424 		leaq	44(%rsp), %rdx
 3955      2C
 3956 216e 488DB424 		leaq	144(%rsp), %rsi
 3956      90000000 
 3957 2176 4889D9   		movq	%rbx, %rcx
 3958 2179 E8000000 		call	_ZN8UnitTest10CheckEqualI8FLStatusS1_EEvRNS_11TestResultsERKT_RKT0_RKNS_11TestDetailsE
 3958      00
 3959              	.LEHE129:
 3960              	.L358:
 3961              	.LEHB130:
 3962 217e E8000000 		call	_ZN8UnitTest11CurrentTest7DetailsEv
 3962      00
 3963 2183 4C8DA424 		leaq	144(%rsp), %r12
 3963      90000000 
 3964 218b 488B30   		movq	(%rax), %rsi
 3965 218e BA4F0000 		movl	$79, %edx
 3965      00
 3966 2193 4C89E7   		movq	%r12, %rdi
 3967 2196 E8000000 		call	_ZN8UnitTest11TestDetailsC1ERKS0_i
 3967      00
 3968 219b 4889EF   		movq	%rbp, %rdi
 3969 219e E8000000 		call	strlen
 3969      00
 3970 21a3 4989C5   		movq	%rax, %r13
 3971 21a6 49D1ED   		shrq	%r13
 3972 21a9 E8000000 		call	_ZN8UnitTest11CurrentTest7ResultsEv
 3972      00
 3973              	.LEHE130:
 3974 21ae 4C3B6C24 		cmpq	56(%rsp), %r13
 3974      38
 3975 21b3 4C8B30   		movq	(%rax), %r14
 3976 21b6 0F842403 		je	.L366
 3976      0000
 3977 21bc 4C8D7B60 		leaq	96(%rbx), %r15
 3978 21c0 4C89FF   		movq	%r15, %rdi
 3979 21c3 E8000000 		call	_ZNSt8ios_baseC2Ev
 3979      00
 3980 21c8 31F6     		xorl	%esi, %esi
 3981 21ca 4C89FF   		movq	%r15, %rdi
 3982 21cd 48C78424 		movq	$0, 488(%rsp)
 3982      E8010000 
 3982      00000000 
 3983 21d9 C68424F0 		movb	$0, 496(%rsp)
 3983      01000000 
 3984 21e1 C68424F1 		movb	$0, 497(%rsp)
 3984      01000000 
 3985 21e9 48C78424 		movq	$0, 504(%rsp)
 3985      F8010000 
 3985      00000000 
 3986 21f5 48C78424 		movq	$0, 512(%rsp)
 3986      00020000 
 3986      00000000 
 3987 2201 48C78424 		movq	$0, 520(%rsp)
 3987      08020000 
 3987      00000000 
 3988 220d 48C78424 		movq	$0, 528(%rsp)
 3988      10020000 
 3988      00000000 
 3989 2219 48C78424 		movq	$_ZTCN8UnitTest15MemoryOutStreamE0_So+24, 176(%rsp)
 3989      B0000000 
 3989      00000000 
 3990 2225 48C78424 		movq	$_ZTCN8UnitTest15MemoryOutStreamE0_So+64, 272(%rsp)
 3990      10010000 
 3990      00000000 
 3991              	.LEHB131:
 3992 2231 E8000000 		call	_ZNSt9basic_iosIcSt11char_traitsIcEE4initEPSt15basic_streambufIcS1_E
 3992      00
 3993              	.LEHE131:
 3994 2236 488D7B40 		leaq	64(%rbx), %rdi
 3995 223a 48C78424 		movq	$_ZTCN8UnitTest15MemoryOutStreamE0_St19basic_ostringstreamIcSt11char_traitsIcESaIcEE+24, 176(
 3995      B0000000 
 3995      00000000 
 3996 2246 48C78424 		movq	$_ZTCN8UnitTest15MemoryOutStreamE0_St19basic_ostringstreamIcSt11char_traitsIcESaIcEE+64, 272(
 3996      10010000 
 3996      00000000 
 3997 2252 48C78424 		movq	$_ZTVSt15basic_streambufIcSt11char_traitsIcEE+16, 184(%rsp)
 3997      B8000000 
 3997      00000000 
 3998 225e 48C78424 		movq	$0, 192(%rsp)
 3998      C0000000 
 3998      00000000 
 3999 226a 48C78424 		movq	$0, 200(%rsp)
 3999      C8000000 
 3999      00000000 
 4000 2276 48C78424 		movq	$0, 208(%rsp)
 4000      D0000000 
 4000      00000000 
 4001 2282 48C78424 		movq	$0, 216(%rsp)
 4001      D8000000 
 4001      00000000 
 4002 228e 48C78424 		movq	$0, 224(%rsp)
 4002      E0000000 
 4002      00000000 
 4003 229a 48C78424 		movq	$0, 232(%rsp)
 4003      E8000000 
 4003      00000000 
 4004 22a6 E8000000 		call	_ZNSt6localeC1Ev
 4004      00
 4005 22ab 488B8424 		movq	176(%rsp), %rax
 4005      B0000000 
 4006 22b3 4889DF   		movq	%rbx, %rdi
 4007 22b6 488D7308 		leaq	8(%rbx), %rsi
 4008 22ba 48C78424 		movq	$_ZTVSt15basic_stringbufIcSt11char_traitsIcESaIcEE+16, 184(%rsp)
 4008      B8000000 
 4008      00000000 
 4009 22c6 C78424F8 		movl	$16, 248(%rsp)
 4009      00000010 
 4009      000000
 4010 22d1 48C78424 		movq	$_ZNSs4_Rep20_S_empty_rep_storageE+24, 256(%rsp)
 4010      00010000 
 4010      00000000 
 4011 22dd 480378E8 		addq	-24(%rax), %rdi
 4012              	.LEHB132:
 4013 22e1 E8000000 		call	_ZNSt9basic_iosIcSt11char_traitsIcEE4initEPSt15basic_streambufIcS1_E
 4013      00
 4014              	.LEHE132:
 4015 22e6 BA090000 		movl	$9, %edx
 4015      00
 4016 22eb BE000000 		movl	$.LC2, %esi
 4016      00
 4017 22f0 4889DF   		movq	%rbx, %rdi
 4018 22f3 48C78424 		movq	$_ZTVN8UnitTest15MemoryOutStreamE+24, 176(%rsp)
 4018      B0000000 
 4018      00000000 
 4019 22ff 48C78424 		movq	$_ZTVN8UnitTest15MemoryOutStreamE+64, 272(%rsp)
 4019      10010000 
 4019      00000000 
 4020 230b 48C78424 		movq	$_ZNSs4_Rep20_S_empty_rep_storageE+24, 264(%rsp)
 4020      08010000 
 4020      00000000 
 4021 2317 4C8B7C24 		movq	56(%rsp), %r15
 4021      38
 4022              	.LEHB133:
 4023 231c E8000000 		call	_ZSt16__ostream_insertIcSt11char_traitsIcEERSt13basic_ostreamIT_T0_ES6_PKS3_l
 4023      00
 4024 2321 4C89EE   		movq	%r13, %rsi
 4025 2324 4889DF   		movq	%rbx, %rdi
 4026 2327 E8000000 		call	_ZNSo9_M_insertImEERSoT_
 4026      00
 4027 232c BA090000 		movl	$9, %edx
 4027      00
 4028 2331 BE000000 		movl	$.LC3, %esi
 4028      00
 4029 2336 4889C7   		movq	%rax, %rdi
 4030 2339 4989C5   		movq	%rax, %r13
 4031 233c E8000000 		call	_ZSt16__ostream_insertIcSt11char_traitsIcEERSt13basic_ostreamIT_T0_ES6_PKS3_l
 4031      00
 4032 2341 4C89FE   		movq	%r15, %rsi
 4033 2344 4C89EF   		movq	%r13, %rdi
 4034 2347 E8000000 		call	_ZNSo9_M_insertImEERSoT_
 4034      00
 4035 234c 4889DF   		movq	%rbx, %rdi
 4036 234f E8000000 		call	_ZNK8UnitTest15MemoryOutStream7GetTextEv
 4036      00
 4037 2354 4889C2   		movq	%rax, %rdx
 4038 2357 4C89E6   		movq	%r12, %rsi
 4039 235a 4C89F7   		movq	%r14, %rdi
 4040 235d E8000000 		call	_ZN8UnitTest11TestResults13OnTestFailureERKNS_11TestDetailsEPKc
 4040      00
 4041              	.LEHE133:
 4042 2362 488B8424 		movq	264(%rsp), %rax
 4042      08010000 
 4043 236a 48C78424 		movq	$_ZTVN8UnitTest15MemoryOutStreamE+24, 176(%rsp)
 4043      B0000000 
 4043      00000000 
 4044 2376 48C78424 		movq	$_ZTVN8UnitTest15MemoryOutStreamE+64, 272(%rsp)
 4044      10010000 
 4044      00000000 
 4045 2382 488D78E8 		leaq	-24(%rax), %rdi
 4046 2386 4881FF00 		cmpq	$_ZNSs4_Rep20_S_empty_rep_storageE, %rdi
 4046      000000
 4047 238d 0F856A04 		jne	.L396
 4047      0000
 4048              	.L326:
 4049 2393 488B8424 		movq	256(%rsp), %rax
 4049      00010000 
 4050 239b 48C78424 		movq	$_ZTCN8UnitTest15MemoryOutStreamE0_St19basic_ostringstreamIcSt11char_traitsIcESaIcEE+24, 176(
 4050      B0000000 
 4050      00000000 
 4051 23a7 48C78424 		movq	$_ZTCN8UnitTest15MemoryOutStreamE0_St19basic_ostringstreamIcSt11char_traitsIcESaIcEE+64, 272(
 4051      10010000 
 4051      00000000 
 4052 23b3 48C78424 		movq	$_ZTVSt15basic_stringbufIcSt11char_traitsIcESaIcEE+16, 184(%rsp)
 4052      B8000000 
 4052      00000000 
 4053 23bf 488D78E8 		leaq	-24(%rax), %rdi
 4054 23c3 4881FF00 		cmpq	$_ZNSs4_Rep20_S_empty_rep_storageE, %rdi
 4054      000000
 4055 23ca 0F85E203 		jne	.L397
 4055      0000
 4056              	.L331:
 4057 23d0 488D7B40 		leaq	64(%rbx), %rdi
 4058 23d4 48C78424 		movq	$_ZTVSt15basic_streambufIcSt11char_traitsIcEE+16, 184(%rsp)
 4058      B8000000 
 4058      00000000 
 4059 23e0 E8000000 		call	_ZNSt6localeD1Ev
 4059      00
 4060 23e5 488D7B60 		leaq	96(%rbx), %rdi
 4061 23e9 48C78424 		movq	$_ZTCN8UnitTest15MemoryOutStreamE0_So+24, 176(%rsp)
 4061      B0000000 
 4061      00000000 
 4062 23f5 48C78424 		movq	$_ZTVSt9basic_iosIcSt11char_traitsIcEE+16, 272(%rsp)
 4062      10010000 
 4062      00000000 
 4063              	.LEHB134:
 4064 2401 E8000000 		call	_ZNSt8ios_baseD2Ev
 4064      00
 4065              	.LEHE134:
 4066              	.L395:
 4067 2406 488B5424 		movq	56(%rsp), %rdx
 4067      38
 4068              	.L336:
 4069 240b 4801D2   		addq	%rdx, %rdx
 4070 240e 744B     		je	.L360
 4071 2410 31C0     		xorl	%eax, %eax
 4072 2412 31DB     		xorl	%ebx, %ebx
 4073              		.p2align 4,,10
 4074 2414 0F1F4000 		.p2align 3
 4075              	.L361:
 4076 2418 488B5424 		movq	48(%rsp), %rdx
 4076      30
 4077 241d 8D3C1B   		leal	(%rbx,%rbx), %edi
 4078 2420 488D8C24 		leaq	544(%rsp), %rcx
 4078      20020000 
 4079 2428 BE010000 		movl	$1, %esi
 4079      00
 4080 242d 83C301   		addl	$1, %ebx
 4081 2430 4801CF   		addq	%rcx, %rdi
 4082 2433 B9000000 		movl	$.LC10, %ecx
 4082      00
 4083 2438 440FB604 		movzbl	(%rdx,%rax), %r8d
 4083      02
 4084 243d 48C7C2FF 		movq	$-1, %rdx
 4084      FFFFFF
 4085 2444 31C0     		xorl	%eax, %eax
 4086 2446 E8000000 		call	__sprintf_chk
 4086      00
 4087 244b 488B7424 		movq	56(%rsp), %rsi
 4087      38
 4088 2450 89D8     		movl	%ebx, %eax
 4089 2452 488D1436 		leaq	(%rsi,%rsi), %rdx
 4090 2456 4839D0   		cmpq	%rdx, %rax
 4091 2459 72BD     		jb	.L361
 4092              	.L360:
 4093 245b C6841420 		movb	$0, 544(%rsp,%rdx)
 4093      02000000 
 4094              	.LEHB135:
 4095 2463 E8000000 		call	_ZN8UnitTest11CurrentTest7DetailsEv
 4095      00
 4096 2468 488B30   		movq	(%rax), %rsi
 4097 246b BA540000 		movl	$84, %edx
 4097      00
 4098 2470 4C89E7   		movq	%r12, %rdi
 4099 2473 E8000000 		call	_ZN8UnitTest11TestDetailsC1ERKS0_i
 4099      00
 4100 2478 E8000000 		call	_ZN8UnitTest11CurrentTest7ResultsEv
 4100      00
 4101 247d 488B38   		movq	(%rax), %rdi
 4102 2480 488D9424 		leaq	544(%rsp), %rdx
 4102      20020000 
 4103 2488 4C89E1   		movq	%r12, %rcx
 4104 248b 4889EE   		movq	%rbp, %rsi
 4105 248e E8000000 		call	_ZN8UnitTest10CheckEqualERNS_11TestResultsEPKcPcRKNS_11TestDetailsE
 4105      00
 4106              	.LEHE135:
 4107              	.L364:
 4108 2493 488D7C24 		leaq	112(%rsp), %rdi
 4108      70
 4109              	.LEHB136:
 4110 2498 E8000000 		call	bufDestroy
 4110      00
 4111 249d 488D7C24 		leaq	80(%rsp), %rdi
 4111      50
 4112 24a2 E8000000 		call	bufDestroy
 4112      00
 4113 24a7 488D7C24 		leaq	48(%rsp), %rdi
 4113      30
 4114 24ac E8000000 		call	bufDestroy
 4114      00
 4115              	.LEHE136:
 4116 24b1 488B8424 		movq	1576(%rsp), %rax
 4116      28060000 
 4117 24b9 64483304 		xorq	%fs:40, %rax
 4117      25280000 
 4117      00
 4118 24c2 0F859902 		jne	.L398
 4118      0000
 4119 24c8 4881C438 		addq	$1592, %rsp
 4119      060000
 4120              		.cfi_remember_state
 4121              		.cfi_def_cfa_offset 56
 4122 24cf 5B       		popq	%rbx
 4123              		.cfi_def_cfa_offset 48
 4124 24d0 5D       		popq	%rbp
 4125              		.cfi_def_cfa_offset 40
 4126 24d1 415C     		popq	%r12
 4127              		.cfi_def_cfa_offset 32
 4128 24d3 415D     		popq	%r13
 4129              		.cfi_def_cfa_offset 24
 4130 24d5 415E     		popq	%r14
 4131              		.cfi_def_cfa_offset 16
 4132 24d7 415F     		popq	%r15
 4133              		.cfi_def_cfa_offset 8
 4134 24d9 C3       		ret
 4135 24da 660F1F44 		.p2align 4,,10
 4135      0000
 4136              		.p2align 3
 4137              	.L366:
 4138              		.cfi_restore_state
 4139 24e0 4C89EA   		movq	%r13, %rdx
 4140 24e3 E923FFFF 		jmp	.L336
 4140      FF
 4141              	.L381:
 4142              	.L324:
 4143 24e8 4889C7   		movq	%rax, %rdi
 4144 24eb E8000000 		call	__cxa_begin_catch
 4144      00
 4145              	.LEHB137:
 4146 24f0 E8000000 		call	_ZN8UnitTest11CurrentTest7DetailsEv
 4146      00
 4147 24f5 4C8DA424 		leaq	144(%rsp), %r12
 4147      90000000 
 4148 24fd 488B30   		movq	(%rax), %rsi
 4149 2500 BA4F0000 		movl	$79, %edx
 4149      00
 4150 2505 4C89E7   		movq	%r12, %rdi
 4151 2508 E8000000 		call	_ZN8UnitTest11TestDetailsC1ERKS0_i
 4151      00
 4152 250d E8000000 		call	_ZN8UnitTest11CurrentTest7ResultsEv
 4152      00
 4153 2512 488B38   		movq	(%rax), %rdi
 4154 2515 BA000000 		movl	$.LC31, %edx
 4154      00
 4155 251a 4C89E6   		movq	%r12, %rsi
 4156 251d E8000000 		call	_ZN8UnitTest11TestResults13OnTestFailureERKNS_11TestDetailsEPKc
 4156      00
 4157              	.LEHE137:
 4158              	.LEHB138:
 4159 2522 E8000000 		call	__cxa_end_catch
 4159      00
 4160              	.LEHE138:
 4161 2527 E9DAFEFF 		jmp	.L395
 4161      FF
 4162              	.L379:
 4163 252c 4889C7   		movq	%rax, %rdi
 4164 252f 90       		.p2align 4,,5
 4165 2530 E8000000 		call	__cxa_begin_catch
 4165      00
 4166              		.p2align 4,,5
 4167              	.LEHB139:
 4168 2535 E8000000 		call	_ZN8UnitTest11CurrentTest7DetailsEv
 4168      00
 4169 253a 488B30   		movq	(%rax), %rsi
 4170 253d BA4E0000 		movl	$78, %edx
 4170      00
 4171 2542 4889DF   		movq	%rbx, %rdi
 4172 2545 E8000000 		call	_ZN8UnitTest11TestDetailsC1ERKS0_i
 4172      00
 4173 254a E8000000 		call	_ZN8UnitTest11CurrentTest7ResultsEv
 4173      00
 4174 254f 488B38   		movq	(%rax), %rdi
 4175 2552 BA000000 		movl	$.LC12, %edx
 4175      00
 4176 2557 4889DE   		movq	%rbx, %rsi
 4177 255a E8000000 		call	_ZN8UnitTest11TestResults13OnTestFailureERKNS_11TestDetailsEPKc
 4177      00
 4178              	.LEHE139:
 4179              	.LEHB140:
 4180 255f E8000000 		call	__cxa_end_catch
 4180      00
 4181              	.LEHE140:
 4182 2564 E915FCFF 		jmp	.L358
 4182      FF
 4183              	.L377:
 4184 2569 4889C7   		movq	%rax, %rdi
 4185 256c 0F1F4000 		.p2align 4,,5
 4186 2570 E8000000 		call	__cxa_begin_catch
 4186      00
 4187              		.p2align 4,,5
 4188              	.LEHB141:
 4189 2575 E8000000 		call	_ZN8UnitTest11CurrentTest7DetailsEv
 4189      00
 4190 257a 488B30   		movq	(%rax), %rsi
 4191 257d BA4C0000 		movl	$76, %edx
 4191      00
 4192 2582 4889DF   		movq	%rbx, %rdi
 4193 2585 E8000000 		call	_ZN8UnitTest11TestDetailsC1ERKS0_i
 4193      00
 4194 258a E8000000 		call	_ZN8UnitTest11CurrentTest7ResultsEv
 4194      00
 4195 258f 488B38   		movq	(%rax), %rdi
 4196 2592 BA000000 		movl	$.LC12, %edx
 4196      00
 4197 2597 4889DE   		movq	%rbx, %rsi
 4198 259a E8000000 		call	_ZN8UnitTest11TestResults13OnTestFailureERKNS_11TestDetailsEPKc
 4198      00
 4199              	.LEHE141:
 4200              	.LEHB142:
 4201 259f E8000000 		call	__cxa_end_catch
 4201      00
 4202              	.LEHE142:
 4203 25a4 E96EFBFF 		jmp	.L355
 4203      FF
 4204              	.L382:
 4205 25a9 4889C3   		movq	%rax, %rbx
 4206 25ac 0F1F4000 		.p2align 4,,5
 4207 25b0 E8000000 		call	__cxa_end_catch
 4207      00
 4208 25b5 4889DF   		movq	%rbx, %rdi
 4209              	.LEHB143:
 4210 25b8 E8000000 		call	_Unwind_Resume
 4210      00
 4211              	.LEHE143:
 4212              	.L380:
 4213 25bd 4889C3   		movq	%rax, %rbx
 4214 25c0 E8000000 		call	__cxa_end_catch
 4214      00
 4215 25c5 4889DF   		movq	%rbx, %rdi
 4216              	.LEHB144:
 4217 25c8 E8000000 		call	_Unwind_Resume
 4217      00
 4218              	.LEHE144:
 4219              	.L378:
 4220 25cd 4889C3   		movq	%rax, %rbx
 4221 25d0 E8000000 		call	__cxa_end_catch
 4221      00
 4222 25d5 4889DF   		movq	%rbx, %rdi
 4223              	.LEHB145:
 4224 25d8 E8000000 		call	_Unwind_Resume
 4224      00
 4225              	.LEHE145:
 4226              	.L375:
 4227 25dd 4889C7   		movq	%rax, %rdi
 4228 25e0 E8000000 		call	__cxa_begin_catch
 4228      00
 4229              	.LEHB146:
 4230 25e5 E8000000 		call	_ZN8UnitTest11CurrentTest7DetailsEv
 4230      00
 4231 25ea 488B30   		movq	(%rax), %rsi
 4232 25ed BA4A0000 		movl	$74, %edx
 4232      00
 4233 25f2 4889DF   		movq	%rbx, %rdi
 4234 25f5 E8000000 		call	_ZN8UnitTest11TestDetailsC1ERKS0_i
 4234      00
 4235 25fa E8000000 		call	_ZN8UnitTest11CurrentTest7ResultsEv
 4235      00
 4236 25ff 488B38   		movq	(%rax), %rdi
 4237 2602 BA000000 		movl	$.LC12, %edx
 4237      00
 4238 2607 4889DE   		movq	%rbx, %rsi
 4239 260a E8000000 		call	_ZN8UnitTest11TestResults13OnTestFailureERKNS_11TestDetailsEPKc
 4239      00
 4240              	.LEHE146:
 4241              	.LEHB147:
 4242 260f E8000000 		call	__cxa_end_catch
 4242      00
 4243              	.LEHE147:
 4244 2614 E9AEFAFF 		jmp	.L352
 4244      FF
 4245              	.L373:
 4246 2619 4889C7   		movq	%rax, %rdi
 4247 261c 0F1F4000 		.p2align 4,,5
 4248 2620 E8000000 		call	__cxa_begin_catch
 4248      00
 4249              		.p2align 4,,5
 4250              	.LEHB148:
 4251 2625 E8000000 		call	_ZN8UnitTest11CurrentTest7DetailsEv
 4251      00
 4252 262a 488B30   		movq	(%rax), %rsi
 4253 262d BA480000 		movl	$72, %edx
 4253      00
 4254 2632 4889DF   		movq	%rbx, %rdi
 4255 2635 E8000000 		call	_ZN8UnitTest11TestDetailsC1ERKS0_i
 4255      00
 4256 263a E8000000 		call	_ZN8UnitTest11CurrentTest7ResultsEv
 4256      00
 4257 263f 488B38   		movq	(%rax), %rdi
 4258 2642 BA000000 		movl	$.LC12, %edx
 4258      00
 4259 2647 4889DE   		movq	%rbx, %rsi
 4260 264a E8000000 		call	_ZN8UnitTest11TestResults13OnTestFailureERKNS_11TestDetailsEPKc
 4260      00
 4261              	.LEHE148:
 4262              	.LEHB149:
 4263 264f E8000000 		call	__cxa_end_catch
 4263      00
 4264              	.LEHE149:
 4265 2654 E91CFAFF 		jmp	.L349
 4265      FF
 4266              	.L376:
 4267 2659 4889C3   		movq	%rax, %rbx
 4268 265c 0F1F4000 		.p2align 4,,5
 4269 2660 E8000000 		call	__cxa_end_catch
 4269      00
 4270 2665 4889DF   		movq	%rbx, %rdi
 4271              	.LEHB150:
 4272 2668 E8000000 		call	_Unwind_Resume
 4272      00
 4273              	.LEHE150:
 4274              	.L374:
 4275 266d 4889C3   		movq	%rax, %rbx
 4276 2670 E8000000 		call	__cxa_end_catch
 4276      00
 4277 2675 4889DF   		movq	%rbx, %rdi
 4278              	.LEHB151:
 4279 2678 E8000000 		call	_Unwind_Resume
 4279      00
 4280              	.LEHE151:
 4281              	.L371:
 4282 267d 4889C7   		movq	%rax, %rdi
 4283 2680 E8000000 		call	__cxa_begin_catch
 4283      00
 4284              	.LEHB152:
 4285 2685 E8000000 		call	_ZN8UnitTest11CurrentTest7DetailsEv
 4285      00
 4286 268a 488B30   		movq	(%rax), %rsi
 4287 268d BA460000 		movl	$70, %edx
 4287      00
 4288 2692 4889DF   		movq	%rbx, %rdi
 4289 2695 E8000000 		call	_ZN8UnitTest11TestDetailsC1ERKS0_i
 4289      00
 4290 269a E8000000 		call	_ZN8UnitTest11CurrentTest7ResultsEv
 4290      00
 4291 269f 488B38   		movq	(%rax), %rdi
 4292 26a2 BA000000 		movl	$.LC21, %edx
 4292      00
 4293 26a7 4889DE   		movq	%rbx, %rsi
 4294 26aa E8000000 		call	_ZN8UnitTest11TestResults13OnTestFailureERKNS_11TestDetailsEPKc
 4294      00
 4295              	.LEHE152:
 4296              	.LEHB153:
 4297 26af E8000000 		call	__cxa_end_catch
 4297      00
 4298              	.LEHE153:
 4299 26b4 E96CF9FF 		jmp	.L346
 4299      FF
 4300              	.L369:
 4301 26b9 4889C7   		movq	%rax, %rdi
 4302 26bc 0F1F4000 		.p2align 4,,5
 4303 26c0 E8000000 		call	__cxa_begin_catch
 4303      00
 4304              		.p2align 4,,5
 4305              	.LEHB154:
 4306 26c5 E8000000 		call	_ZN8UnitTest11CurrentTest7DetailsEv
 4306      00
 4307 26ca 488B30   		movq	(%rax), %rsi
 4308 26cd BA440000 		movl	$68, %edx
 4308      00
 4309 26d2 4889DF   		movq	%rbx, %rdi
 4310 26d5 E8000000 		call	_ZN8UnitTest11TestDetailsC1ERKS0_i
 4310      00
 4311 26da E8000000 		call	_ZN8UnitTest11CurrentTest7ResultsEv
 4311      00
 4312 26df 488B38   		movq	(%rax), %rdi
 4313 26e2 BA000000 		movl	$.LC21, %edx
 4313      00
 4314 26e7 4889DE   		movq	%rbx, %rsi
 4315 26ea E8000000 		call	_ZN8UnitTest11TestResults13OnTestFailureERKNS_11TestDetailsEPKc
 4315      00
 4316              	.LEHE154:
 4317              	.LEHB155:
 4318 26ef E8000000 		call	__cxa_end_catch
 4318      00
 4319              	.LEHE155:
 4320 26f4 E9D8F8FF 		jmp	.L343
 4320      FF
 4321              	.L372:
 4322 26f9 4889C3   		movq	%rax, %rbx
 4323 26fc 0F1F4000 		.p2align 4,,5
 4324 2700 E8000000 		call	__cxa_end_catch
 4324      00
 4325 2705 4889DF   		movq	%rbx, %rdi
 4326              	.LEHB156:
 4327 2708 E8000000 		call	_Unwind_Resume
 4327      00
 4328              	.LEHE156:
 4329              	.L370:
 4330 270d 4889C3   		movq	%rax, %rbx
 4331 2710 E8000000 		call	__cxa_end_catch
 4331      00
 4332 2715 4889DF   		movq	%rbx, %rdi
 4333              	.LEHB157:
 4334 2718 E8000000 		call	_Unwind_Resume
 4334      00
 4335              	.LEHE157:
 4336              	.L367:
 4337 271d 4889C7   		movq	%rax, %rdi
 4338 2720 E8000000 		call	__cxa_begin_catch
 4338      00
 4339              	.LEHB158:
 4340 2725 E8000000 		call	_ZN8UnitTest11CurrentTest7DetailsEv
 4340      00
 4341 272a 488D9C24 		leaq	176(%rsp), %rbx
 4341      B0000000 
 4342 2732 488B30   		movq	(%rax), %rsi
 4343 2735 BA420000 		movl	$66, %edx
 4343      00
 4344 273a 4889DF   		movq	%rbx, %rdi
 4345 273d E8000000 		call	_ZN8UnitTest11TestDetailsC1ERKS0_i
 4345      00
 4346 2742 E8000000 		call	_ZN8UnitTest11CurrentTest7ResultsEv
 4346      00
 4347 2747 488B38   		movq	(%rax), %rdi
 4348 274a BA000000 		movl	$.LC21, %edx
 4348      00
 4349 274f 4889DE   		movq	%rbx, %rsi
 4350 2752 E8000000 		call	_ZN8UnitTest11TestResults13OnTestFailureERKNS_11TestDetailsEPKc
 4350      00
 4351              	.LEHE158:
 4352              	.LEHB159:
 4353 2757 E8000000 		call	__cxa_end_catch
 4353      00
 4354              	.LEHE159:
 4355 275c E91CF8FF 		jmp	.L340
 4355      FF
 4356              	.L398:
 4357              		.p2align 4,,8
 4358 2761 E8000000 		call	__stack_chk_fail
 4358      00
 4359              	.L368:
 4360 2766 4889C3   		movq	%rax, %rbx
 4361              		.p2align 4,,5
 4362 2769 E8000000 		call	__cxa_end_catch
 4362      00
 4363 276e 4889DF   		movq	%rbx, %rdi
 4364              	.LEHB160:
 4365 2771 E8000000 		call	_Unwind_Resume
 4365      00
 4366              	.LEHE160:
 4367              	.L383:
 4368 2776 4889C7   		movq	%rax, %rdi
 4369 2779 E8000000 		call	__cxa_begin_catch
 4369      00
 4370              	.LEHB161:
 4371 277e E8000000 		call	_ZN8UnitTest11CurrentTest7DetailsEv
 4371      00
 4372 2783 488B30   		movq	(%rax), %rsi
 4373 2786 BA540000 		movl	$84, %edx
 4373      00
 4374 278b 4C89E7   		movq	%r12, %rdi
 4375 278e E8000000 		call	_ZN8UnitTest11TestDetailsC1ERKS0_i
 4375      00
 4376 2793 E8000000 		call	_ZN8UnitTest11CurrentTest7ResultsEv
 4376      00
 4377 2798 488B38   		movq	(%rax), %rdi
 4378 279b BA000000 		movl	$.LC32, %edx
 4378      00
 4379 27a0 4C89E6   		movq	%r12, %rsi
 4380 27a3 E8000000 		call	_ZN8UnitTest11TestResults13OnTestFailureERKNS_11TestDetailsEPKc
 4380      00
 4381              	.LEHE161:
 4382              	.LEHB162:
 4383 27a8 E8000000 		call	__cxa_end_catch
 4383      00
 4384              	.LEHE162:
 4385 27ad E9E1FCFF 		jmp	.L364
 4385      FF
 4386              	.L397:
 4387 27b2 B9000000 		movl	$_ZL28__gthrw___pthread_key_createPjPFvPvE, %ecx
 4387      00
 4388 27b7 488D5710 		leaq	16(%rdi), %rdx
 4389 27bb 4885C9   		testq	%rcx, %rcx
 4390 27be 7430     		je	.L332
 4391 27c0 B8FFFFFF 		movl	$-1, %eax
 4391      FF
 4392 27c5 F00FC102 		lock xaddl	%eax, (%rdx)
 4393              	.L333:
 4394 27c9 85C0     		testl	%eax, %eax
 4395 27cb 0F8FFFFB 		jg	.L331
 4395      FFFF
 4396 27d1 488D7424 		leaq	39(%rsp), %rsi
 4396      27
 4397 27d6 E8000000 		call	_ZNSs4_Rep10_M_destroyERKSaIcE
 4397      00
 4398 27db E9F0FBFF 		jmp	.L331
 4398      FF
 4399              	.L384:
 4400 27e0 4889C3   		movq	%rax, %rbx
 4401 27e3 E8000000 		call	__cxa_end_catch
 4401      00
 4402 27e8 4889DF   		movq	%rbx, %rdi
 4403              	.LEHB163:
 4404 27eb E8000000 		call	_Unwind_Resume
 4404      00
 4405              	.LEHE163:
 4406              	.L332:
 4407 27f0 8B50F8   		movl	-8(%rax), %edx
 4408 27f3 8D4AFF   		leal	-1(%rdx), %ecx
 4409 27f6 8948F8   		movl	%ecx, -8(%rax)
 4410 27f9 89D0     		movl	%edx, %eax
 4411 27fb EBCC     		jmp	.L333
 4412              	.L396:
 4413 27fd B9000000 		movl	$_ZL28__gthrw___pthread_key_createPjPFvPvE, %ecx
 4413      00
 4414 2802 488D5710 		leaq	16(%rdi), %rdx
 4415 2806 4885C9   		testq	%rcx, %rcx
 4416 2809 7433     		je	.L327
 4417 280b B8FFFFFF 		movl	$-1, %eax
 4417      FF
 4418 2810 F00FC102 		lock xaddl	%eax, (%rdx)
 4419              	.L328:
 4420 2814 85C0     		testl	%eax, %eax
 4421 2816 0F8F77FB 		jg	.L326
 4421      FFFF
 4422 281c 488D7424 		leaq	39(%rsp), %rsi
 4422      27
 4423 2821 E8000000 		call	_ZNSs4_Rep10_M_destroyERKSaIcE
 4423      00
 4424 2826 E968FBFF 		jmp	.L326
 4424      FF
 4425              	.L385:
 4426 282b 4989C4   		movq	%rax, %r12
 4427 282e 4889DF   		movq	%rbx, %rdi
 4428 2831 E8000000 		call	_ZN8UnitTest15MemoryOutStreamD1Ev
 4428      00
 4429 2836 4C89E0   		movq	%r12, %rax
 4430 2839 E9AAFCFF 		jmp	.L324
 4430      FF
 4431              	.L327:
 4432 283e 8B50F8   		movl	-8(%rax), %edx
 4433 2841 8D4AFF   		leal	-1(%rdx), %ecx
 4434 2844 8948F8   		movl	%ecx, -8(%rax)
 4435 2847 89D0     		movl	%edx, %eax
 4436 2849 EBC9     		jmp	.L328
 4437              	.L387:
 4438 284b 488D7B08 		leaq	8(%rbx), %rdi
 4439 284f 4989C4   		movq	%rax, %r12
 4440 2852 E8000000 		call	_ZNSt15basic_stringbufIcSt11char_traitsIcESaIcEED1Ev
 4440      00
 4441 2857 48C78424 		movq	$_ZTCN8UnitTest15MemoryOutStreamE0_So+24, 176(%rsp)
 4441      B0000000 
 4441      00000000 
 4442              	.L322:
 4443 2863 488D7B60 		leaq	96(%rbx), %rdi
 4444 2867 48C78424 		movq	$_ZTVSt9basic_iosIcSt11char_traitsIcEE+16, 272(%rsp)
 4444      10010000 
 4444      00000000 
 4445 2873 E8000000 		call	_ZNSt8ios_baseD2Ev
 4445      00
 4446 2878 4C89E0   		movq	%r12, %rax
 4447 287b E968FCFF 		jmp	.L324
 4447      FF
 4448              	.L386:
 4449 2880 4989C4   		movq	%rax, %r12
 4450 2883 EBDE     		jmp	.L322
 4451              		.cfi_endproc
 4452              	.LFE1114:
 4453              		.section	.gcc_except_table
 4454              		.align 4
 4455              	.LLSDA1114:
 4456 02d0 FF       		.byte	0xff
 4457 02d1 03       		.byte	0x3
 4458 02d2 9002     		.uleb128 .LLSDATT1114-.LLSDATTD1114
 4459              	.LLSDATTD1114:
 4460 02d4 01       		.byte	0x1
 4461 02d5 8402     		.uleb128 .LLSDACSE1114-.LLSDACSB1114
 4462              	.LLSDACSB1114:
 4463 02d7 4F       		.uleb128 .LEHB116-.LFB1114
 4464 02d8 05       		.uleb128 .LEHE116-.LEHB116
 4465 02d9 00       		.uleb128 0
 4466 02da 00       		.uleb128 0
 4467 02db 58       		.uleb128 .LEHB117-.LFB1114
 4468 02dc 45       		.uleb128 .LEHE117-.LEHB117
 4469 02dd BD10     		.uleb128 .L367-.LFB1114
 4470 02df 01       		.uleb128 0x1
 4471 02e0 AB01     		.uleb128 .LEHB118-.LFB1114
 4472 02e2 05       		.uleb128 .LEHE118-.LEHB118
 4473 02e3 00       		.uleb128 0
 4474 02e4 00       		.uleb128 0
 4475 02e5 B401     		.uleb128 .LEHB119-.LFB1114
 4476 02e7 3D       		.uleb128 .LEHE119-.LEHB119
 4477 02e8 D90F     		.uleb128 .L369-.LFB1114
 4478 02ea 01       		.uleb128 0x1
 4479 02eb FF01     		.uleb128 .LEHB120-.LFB1114
 4480 02ed 05       		.uleb128 .LEHE120-.LEHB120
 4481 02ee 00       		.uleb128 0
 4482 02ef 00       		.uleb128 0
 4483 02f0 8802     		.uleb128 .LEHB121-.LFB1114
 4484 02f2 3D       		.uleb128 .LEHE121-.LEHB121
 4485 02f3 9D0F     		.uleb128 .L371-.LFB1114
 4486 02f5 01       		.uleb128 0x1
 4487 02f6 CF02     		.uleb128 .LEHB122-.LFB1114
 4488 02f8 05       		.uleb128 .LEHE122-.LEHB122
 4489 02f9 00       		.uleb128 0
 4490 02fa 00       		.uleb128 0
 4491 02fb D802     		.uleb128 .LEHB123-.LFB1114
 4492 02fd 3D       		.uleb128 .LEHE123-.LEHB123
 4493 02fe B90E     		.uleb128 .L373-.LFB1114
 4494 0300 01       		.uleb128 0x1
 4495 0301 A103     		.uleb128 .LEHB124-.LFB1114
 4496 0303 05       		.uleb128 .LEHE124-.LEHB124
 4497 0304 00       		.uleb128 0
 4498 0305 00       		.uleb128 0
 4499 0306 AA03     		.uleb128 .LEHB125-.LFB1114
 4500 0308 3D       		.uleb128 .LEHE125-.LEHB125
 4501 0309 FD0D     		.uleb128 .L375-.LFB1114
 4502 030b 01       		.uleb128 0x1
 4503 030c F103     		.uleb128 .LEHB126-.LFB1114
 4504 030e 05       		.uleb128 .LEHE126-.LEHB126
 4505 030f 00       		.uleb128 0
 4506 0310 00       		.uleb128 0
 4507 0311 FA03     		.uleb128 .LEHB127-.LFB1114
 4508 0313 3D       		.uleb128 .LEHE127-.LEHB127
 4509 0314 890D     		.uleb128 .L377-.LFB1114
 4510 0316 01       		.uleb128 0x1
 4511 0317 D804     		.uleb128 .LEHB128-.LFB1114
 4512 0319 05       		.uleb128 .LEHE128-.LEHB128
 4513 031a 00       		.uleb128 0
 4514 031b 00       		.uleb128 0
 4515 031c E104     		.uleb128 .LEHB129-.LFB1114
 4516 031e 3D       		.uleb128 .LEHE129-.LEHB129
 4517 031f CC0C     		.uleb128 .L379-.LFB1114
 4518 0321 01       		.uleb128 0x1
 4519 0322 9E05     		.uleb128 .LEHB130-.LFB1114
 4520 0324 30       		.uleb128 .LEHE130-.LEHB130
 4521 0325 880C     		.uleb128 .L381-.LFB1114
 4522 0327 01       		.uleb128 0x1
 4523 0328 D106     		.uleb128 .LEHB131-.LFB1114
 4524 032a 05       		.uleb128 .LEHE131-.LEHB131
 4525 032b A013     		.uleb128 .L386-.LFB1114
 4526 032d 03       		.uleb128 0x3
 4527 032e 8108     		.uleb128 .LEHB132-.LFB1114
 4528 0330 05       		.uleb128 .LEHE132-.LEHB132
 4529 0331 EB12     		.uleb128 .L387-.LFB1114
 4530 0333 03       		.uleb128 0x3
 4531 0334 BC08     		.uleb128 .LEHB133-.LFB1114
 4532 0336 46       		.uleb128 .LEHE133-.LEHB133
 4533 0337 CB12     		.uleb128 .L385-.LFB1114
 4534 0339 03       		.uleb128 0x3
 4535 033a A10A     		.uleb128 .LEHB134-.LFB1114
 4536 033c 05       		.uleb128 .LEHE134-.LEHB134
 4537 033d 880C     		.uleb128 .L381-.LFB1114
 4538 033f 01       		.uleb128 0x1
 4539 0340 830B     		.uleb128 .LEHB135-.LFB1114
 4540 0342 30       		.uleb128 .LEHE135-.LEHB135
 4541 0343 9611     		.uleb128 .L383-.LFB1114
 4542 0345 01       		.uleb128 0x1
 4543 0346 B80B     		.uleb128 .LEHB136-.LFB1114
 4544 0348 19       		.uleb128 .LEHE136-.LEHB136
 4545 0349 00       		.uleb128 0
 4546 034a 00       		.uleb128 0
 4547 034b 900C     		.uleb128 .LEHB137-.LFB1114
 4548 034d 32       		.uleb128 .LEHE137-.LEHB137
 4549 034e C90D     		.uleb128 .L382-.LFB1114
 4550 0350 00       		.uleb128 0
 4551 0351 C20C     		.uleb128 .LEHB138-.LFB1114
 4552 0353 05       		.uleb128 .LEHE138-.LEHB138
 4553 0354 00       		.uleb128 0
 4554 0355 00       		.uleb128 0
 4555 0356 D50C     		.uleb128 .LEHB139-.LFB1114
 4556 0358 2A       		.uleb128 .LEHE139-.LEHB139
 4557 0359 DD0D     		.uleb128 .L380-.LFB1114
 4558 035b 00       		.uleb128 0
 4559 035c FF0C     		.uleb128 .LEHB140-.LFB1114
 4560 035e 05       		.uleb128 .LEHE140-.LEHB140
 4561 035f 00       		.uleb128 0
 4562 0360 00       		.uleb128 0
 4563 0361 950D     		.uleb128 .LEHB141-.LFB1114
 4564 0363 2A       		.uleb128 .LEHE141-.LEHB141
 4565 0364 ED0D     		.uleb128 .L378-.LFB1114
 4566 0366 00       		.uleb128 0
 4567 0367 BF0D     		.uleb128 .LEHB142-.LFB1114
 4568 0369 05       		.uleb128 .LEHE142-.LEHB142
 4569 036a 00       		.uleb128 0
 4570 036b 00       		.uleb128 0
 4571 036c D80D     		.uleb128 .LEHB143-.LFB1114
 4572 036e 05       		.uleb128 .LEHE143-.LEHB143
 4573 036f 00       		.uleb128 0
 4574 0370 00       		.uleb128 0
 4575 0371 E80D     		.uleb128 .LEHB144-.LFB1114
 4576 0373 05       		.uleb128 .LEHE144-.LEHB144
 4577 0374 00       		.uleb128 0
 4578 0375 00       		.uleb128 0
 4579 0376 F80D     		.uleb128 .LEHB145-.LFB1114
 4580 0378 05       		.uleb128 .LEHE145-.LEHB145
 4581 0379 00       		.uleb128 0
 4582 037a 00       		.uleb128 0
 4583 037b 850E     		.uleb128 .LEHB146-.LFB1114
 4584 037d 2A       		.uleb128 .LEHE146-.LEHB146
 4585 037e F90E     		.uleb128 .L376-.LFB1114
 4586 0380 00       		.uleb128 0
 4587 0381 AF0E     		.uleb128 .LEHB147-.LFB1114
 4588 0383 05       		.uleb128 .LEHE147-.LEHB147
 4589 0384 00       		.uleb128 0
 4590 0385 00       		.uleb128 0
 4591 0386 C50E     		.uleb128 .LEHB148-.LFB1114
 4592 0388 2A       		.uleb128 .LEHE148-.LEHB148
 4593 0389 8D0F     		.uleb128 .L374-.LFB1114
 4594 038b 00       		.uleb128 0
 4595 038c EF0E     		.uleb128 .LEHB149-.LFB1114
 4596 038e 05       		.uleb128 .LEHE149-.LEHB149
 4597 038f 00       		.uleb128 0
 4598 0390 00       		.uleb128 0
 4599 0391 880F     		.uleb128 .LEHB150-.LFB1114
 4600 0393 05       		.uleb128 .LEHE150-.LEHB150
 4601 0394 00       		.uleb128 0
 4602 0395 00       		.uleb128 0
 4603 0396 980F     		.uleb128 .LEHB151-.LFB1114
 4604 0398 05       		.uleb128 .LEHE151-.LEHB151
 4605 0399 00       		.uleb128 0
 4606 039a 00       		.uleb128 0
 4607 039b A50F     		.uleb128 .LEHB152-.LFB1114
 4608 039d 2A       		.uleb128 .LEHE152-.LEHB152
 4609 039e 9910     		.uleb128 .L372-.LFB1114
 4610 03a0 00       		.uleb128 0
 4611 03a1 CF0F     		.uleb128 .LEHB153-.LFB1114
 4612 03a3 05       		.uleb128 .LEHE153-.LEHB153
 4613 03a4 00       		.uleb128 0
 4614 03a5 00       		.uleb128 0
 4615 03a6 E50F     		.uleb128 .LEHB154-.LFB1114
 4616 03a8 2A       		.uleb128 .LEHE154-.LEHB154
 4617 03a9 AD10     		.uleb128 .L370-.LFB1114
 4618 03ab 00       		.uleb128 0
 4619 03ac 8F10     		.uleb128 .LEHB155-.LFB1114
 4620 03ae 05       		.uleb128 .LEHE155-.LEHB155
 4621 03af 00       		.uleb128 0
 4622 03b0 00       		.uleb128 0
 4623 03b1 A810     		.uleb128 .LEHB156-.LFB1114
 4624 03b3 05       		.uleb128 .LEHE156-.LEHB156
 4625 03b4 00       		.uleb128 0
 4626 03b5 00       		.uleb128 0
 4627 03b6 B810     		.uleb128 .LEHB157-.LFB1114
 4628 03b8 05       		.uleb128 .LEHE157-.LEHB157
 4629 03b9 00       		.uleb128 0
 4630 03ba 00       		.uleb128 0
 4631 03bb C510     		.uleb128 .LEHB158-.LFB1114
 4632 03bd 32       		.uleb128 .LEHE158-.LEHB158
 4633 03be 8611     		.uleb128 .L368-.LFB1114
 4634 03c0 00       		.uleb128 0
 4635 03c1 F710     		.uleb128 .LEHB159-.LFB1114
 4636 03c3 05       		.uleb128 .LEHE159-.LEHB159
 4637 03c4 00       		.uleb128 0
 4638 03c5 00       		.uleb128 0
 4639 03c6 9111     		.uleb128 .LEHB160-.LFB1114
 4640 03c8 05       		.uleb128 .LEHE160-.LEHB160
 4641 03c9 00       		.uleb128 0
 4642 03ca 00       		.uleb128 0
 4643 03cb 9E11     		.uleb128 .LEHB161-.LFB1114
 4644 03cd 2A       		.uleb128 .LEHE161-.LEHB161
 4645 03ce 8012     		.uleb128 .L384-.LFB1114
 4646 03d0 00       		.uleb128 0
 4647 03d1 C811     		.uleb128 .LEHB162-.LFB1114
 4648 03d3 05       		.uleb128 .LEHE162-.LEHB162
 4649 03d4 00       		.uleb128 0
 4650 03d5 00       		.uleb128 0
 4651 03d6 8B12     		.uleb128 .LEHB163-.LFB1114
 4652 03d8 05       		.uleb128 .LEHE163-.LEHB163
 4653 03d9 00       		.uleb128 0
 4654 03da 00       		.uleb128 0
 4655              	.LLSDACSE1114:
 4656 03db 01       		.byte	0x1
 4657 03dc 00       		.byte	0
 4658 03dd 00       		.byte	0
 4659 03de 7D       		.byte	0x7d
 4660 03df 00       		.align 4
 4661 03e0 00000000 		.long	0
 4662              	
 4663              	.LLSDATT1114:
 4664              		.text
 4666              		.section	.rodata.str1.1
 4667              	.LC33:
 4668 00c6 303600   		.string	"06"
 4669              	.LC34:
 4670 00c9 303000   		.string	"00"
 4671              	.LC35:
 4672 00cc 46314332 		.string	"F1C2E093"
 4672      45303933 
 4672      00
 4673              	.LC36:
 4674 00d5 30364631 		.string	"06F1C2E093"
 4674      43324530 
 4674      393300
 4675              	.LC37:
 4676 00e0 303100   		.string	"01"
 4677              	.LC38:
 4678 00e3 30444533 		.string	"0DE385C127"
 4678      38354331 
 4678      323700
 4679              	.LC39:
 4680 00ee 303200   		.string	"02"
 4681              	.LC40:
 4682 00f1 31424337 		.string	"1BC70B824E"
 4682      30423832 
 4682      344500
 4683              	.LC41:
 4684 00fc 33373845 		.string	"378E17049E"
 4684      31373034 
 4684      394500
 4685              	.LC42:
 4686 0107 304100   		.string	"0A"
 4687              	.LC43:
 4688 010a 36463143 		.string	"6F1C2E093A"
 4688      32453039 
 4688      334100
 4689              	.LC44:
 4690 0115 313500   		.string	"15"
 4691              	.LC45:
 4692 0118 44453338 		.string	"DE385C1275"
 4692      35433132 
 4692      373500
 4693              	.LC46:
 4694 0123 323500   		.string	"25"
 4695              	.LC47:
 4696 0126 30314243 		.string	"01BC70B824E5"
 4696      37304238 
 4696      32344535 
 4696      00
 4697              	.LC48:
 4698 0133 373500   		.string	"75"
 4699              	.LC49:
 4700 0136 30333738 		.string	"0378E17049F5"
 4700      45313730 
 4700      34394635 
 4700      00
 4701              	.LC50:
 4702 0143 653500   		.string	"e5"
 4703              	.LC51:
 4704 0146 30364631 		.string	"06F1C2E093E5"
 4704      43324530 
 4704      39334535 
 4704      00
 4705              	.LC52:
 4706 0153 30313135 		.string	"0115"
 4706      00
 4707              	.LC53:
 4708 0158 30444533 		.string	"0DE385C12715"
 4708      38354331 
 4708      32373135 
 4708      00
 4709              	.LC54:
 4710 0165 30333135 		.string	"0315"
 4710      00
 4711              	.LC55:
 4712 016a 31424337 		.string	"1BC70B824F15"
 4712      30423832 
 4712      34463135 
 4712      00
 4713              	.LC56:
 4714 0177 30373135 		.string	"0715"
 4714      00
 4715              	.LC57:
 4716 017c 33373845 		.string	"378E17049F15"
 4716      31373034 
 4716      39463135 
 4716      00
 4717              	.LC58:
 4718 0189 30633135 		.string	"0c15"
 4718      00
 4719              	.LC59:
 4720 018e 36463143 		.string	"6F1C2E093C15"
 4720      32453039 
 4720      33433135 
 4720      00
 4721              	.LC60:
 4722 019b 31633135 		.string	"1c15"
 4722      00
 4723              	.LC61:
 4724 01a0 44453338 		.string	"DE385C127C15"
 4724      35433132 
 4724      37433135 
 4724      00
 4725              	.LC62:
 4726 01ad 32633135 		.string	"2c15"
 4726      00
 4727              	.LC63:
 4728 01b2 30314243 		.string	"01BC70B824EC15"
 4728      37304238 
 4728      32344543 
 4728      313500
 4729              	.LC64:
 4730 01c1 34303135 		.string	"4015"
 4730      00
 4731              	.LC65:
 4732 01c6 30333738 		.string	"0378E17049C015"
 4732      45313730 
 4732      34394330 
 4732      313500
 4733              	.LC66:
 4734 01d5 38303135 		.string	"8015"
 4734      00
 4735              	.LC67:
 4736 01da 30364631 		.string	"06F1C2E0938015"
 4736      43324530 
 4736      39333830 
 4736      313500
 4737              	.LC68:
 4738 01e9 30313830 		.string	"018015"
 4738      313500
 4739              	.LC69:
 4740 01f0 30444533 		.string	"0DE385C1278015"
 4740      38354331 
 4740      32373830 
 4740      313500
 4741              	.LC70:
 4742 01ff 30414631 		.string	"0AF1C2E093"
 4742      43324530 
 4742      393300
 4743              	.LC71:
 4744 020a 31354533 		.string	"15E385C127"
 4744      38354331 
 4744      323700
 4745              	.LC72:
 4746 0215 32424337 		.string	"2BC70B824E"
 4746      30423832 
 4746      344500
 4747              	.LC73:
 4748 0220 35373845 		.string	"578E17049E"
 4748      31373034 
 4748      394500
 4749              	.LC74:
 4750 022b 41463143 		.string	"AF1C2E093A"
 4750      32453039 
 4750      334100
 4751              	.LC75:
 4752 0236 30313545 		.string	"015E385C1275"
 4752      33383543 
 4752      31323735 
 4752      00
 4753              	.LC76:
 4754 0243 30324243 		.string	"02BC70B824E5"
 4754      37304238 
 4754      32344535 
 4754      00
 4755              	.LC77:
 4756 0250 30353738 		.string	"0578E17049F5"
 4756      45313730 
 4756      34394635 
 4756      00
 4757              	.LC78:
 4758 025d 30414631 		.string	"0AF1C2E093E5"
 4758      43324530 
 4758      39334535 
 4758      00
 4759              	.LC79:
 4760 026a 31354533 		.string	"15E385C12715"
 4760      38354331 
 4760      32373135 
 4760      00
 4761              	.LC80:
 4762 0277 32424337 		.string	"2BC70B824F15"
 4762      30423832 
 4762      34463135 
 4762      00
 4763              	.LC81:
 4764 0284 35373845 		.string	"578E17049F15"
 4764      31373034 
 4764      39463135 
 4764      00
 4765              	.LC82:
 4766 0291 41463143 		.string	"AF1C2E093C15"
 4766      32453039 
 4766      33433135 
 4766      00
 4767              	.LC83:
 4768 029e 30313545 		.string	"015E385C127C15"
 4768      33383543 
 4768      31323743 
 4768      313500
 4769              	.LC84:
 4770 02ad 30324243 		.string	"02BC70B824EC15"
 4770      37304238 
 4770      32344543 
 4770      313500
 4771              	.LC85:
 4772 02bc 30353738 		.string	"0578E17049C015"
 4772      45313730 
 4772      34394330 
 4772      313500
 4773              	.LC86:
 4774 02cb 30414631 		.string	"0AF1C2E0938015"
 4774      43324530 
 4774      39333830 
 4774      313500
 4775              	.LC87:
 4776 02da 31354533 		.string	"15E385C1278015"
 4776      38354331 
 4776      32373830 
 4776      313500
 4777              	.LC88:
 4778 02e9 30313335 		.string	"0135"
 4778      00
 4779              	.LC89:
 4780 02ee 30313335 		.string	"0135F1C2E093"
 4780      46314332 
 4780      45303933 
 4780      00
 4781              	.LC90:
 4782 02fb 30323642 		.string	"026BE385C127"
 4782      45333835 
 4782      43313237 
 4782      00
 4783              	.LC91:
 4784 0308 30344437 		.string	"04D7C70B824E"
 4784      43373042 
 4784      38323445 
 4784      00
 4785              	.LC92:
 4786 0315 30394146 		.string	"09AF8E17049E"
 4786      38453137 
 4786      30343945 
 4786      00
 4787              	.LC93:
 4788 0322 31333546 		.string	"135F1C2E093A"
 4788      31433245 
 4788      30393341 
 4788      00
 4789              	.LC94:
 4790 032f 32364245 		.string	"26BE385C1275"
 4790      33383543 
 4790      31323735 
 4790      00
 4791              	.LC95:
 4792 033c 34443743 		.string	"4D7C70B824E5"
 4792      37304238 
 4792      32344535 
 4792      00
 4793              	.LC96:
 4794 0349 39414638 		.string	"9AF8E17049F5"
 4794      45313730 
 4794      34394635 
 4794      00
 4795              	.LC97:
 4796 0356 30313335 		.string	"0135F1C2E093E5"
 4796      46314332 
 4796      45303933 
 4796      453500
 4797              	.LC98:
 4798 0365 30323642 		.string	"026BE385C12715"
 4798      45333835 
 4798      43313237 
 4798      313500
 4799              	.LC99:
 4800 0374 30344437 		.string	"04D7C70B824F15"
 4800      43373042 
 4800      38323446 
 4800      313500
 4801              	.LC100:
 4802 0383 30394146 		.string	"09AF8E17049F15"
 4802      38453137 
 4802      30343946 
 4802      313500
 4803              	.LC101:
 4804 0392 31333546 		.string	"135F1C2E093C15"
 4804      31433245 
 4804      30393343 
 4804      313500
 4805              	.LC102:
 4806 03a1 32364245 		.string	"26BE385C127C15"
 4806      33383543 
 4806      31323743 
 4806      313500
 4807              	.LC103:
 4808 03b0 34443743 		.string	"4D7C70B824EC15"
 4808      37304238 
 4808      32344543 
 4808      313500
 4809              	.LC104:
 4810 03bf 39414638 		.string	"9AF8E17049C015"
 4810      45313730 
 4810      34394330 
 4810      313500
 4811              	.LC105:
 4812 03ce 30313335 		.string	"0135F1C2E0938015"
 4812      46314332 
 4812      45303933 
 4812      38303135 
 4812      00
 4813              	.LC106:
 4814 03df 30323642 		.string	"026BE385C1278015"
 4814      45333835 
 4814      43313237 
 4814      38303135 
 4814      00
 4815              	.LC107:
 4816 03f0 37314332 		.string	"71C2E093"
 4816      45303933 
 4816      00
 4817              	.LC108:
 4818 03f9 39414631 		.string	"9AF1C2E093"
 4818      43324530 
 4818      393300
 4819              	.LC109:
 4820 0404 30313335 		.string	"0135E385C127"
 4820      45333835 
 4820      43313237 
 4820      00
 4821              	.LC110:
 4822 0411 30323642 		.string	"026BC70B824E"
 4822      43373042 
 4822      38323445 
 4822      00
 4823              	.LC111:
 4824 041e 30344437 		.string	"04D78E17049E"
 4824      38453137 
 4824      30343945 
 4824      00
 4825              	.LC112:
 4826 042b 30394146 		.string	"09AF1C2E093A"
 4826      31433245 
 4826      30393341 
 4826      00
 4827              	.LC113:
 4828 0438 31333545 		.string	"135E385C1275"
 4828      33383543 
 4828      31323735 
 4828      00
 4829              	.LC114:
 4830 0445 32364243 		.string	"26BC70B824E5"
 4830      37304238 
 4830      32344535 
 4830      00
 4831              	.LC115:
 4832 0452 34443738 		.string	"4D78E17049F5"
 4832      45313730 
 4832      34394635 
 4832      00
 4833              	.LC116:
 4834 045f 39414631 		.string	"9AF1C2E093E5"
 4834      43324530 
 4834      39334535 
 4834      00
 4835              	.LC117:
 4836 046c 30313335 		.string	"0135E385C12715"
 4836      45333835 
 4836      43313237 
 4836      313500
 4837              	.LC118:
 4838 047b 30323642 		.string	"026BC70B824F15"
 4838      43373042 
 4838      38323446 
 4838      313500
 4839              	.LC119:
 4840 048a 30344437 		.string	"04D78E17049F15"
 4840      38453137 
 4840      30343946 
 4840      313500
 4841              	.LC120:
 4842 0499 30394146 		.string	"09AF1C2E093C15"
 4842      31433245 
 4842      30393343 
 4842      313500
 4843              	.LC121:
 4844 04a8 31333545 		.string	"135E385C127C15"
 4844      33383543 
 4844      31323743 
 4844      313500
 4845              	.LC122:
 4846 04b7 32364243 		.string	"26BC70B824EC15"
 4846      37304238 
 4846      32344543 
 4846      313500
 4847              	.LC123:
 4848 04c6 34443738 		.string	"4D78E17049C015"
 4848      45313730 
 4848      34394330 
 4848      313500
 4849              	.LC124:
 4850 04d5 39414631 		.string	"9AF1C2E0938015"
 4850      43324530 
 4850      39333830 
 4850      313500
 4851              	.LC125:
 4852 04e4 30313335 		.string	"0135E385C1278015"
 4852      45333835 
 4852      43313237 
 4852      38303135 
 4852      00
 4853              	.LC126:
 4854 04f5 00       		.string	""
 4855              	.LC127:
 4856 04f6 35343233 		.string	"5423DF3A8F129B2C91B9425D"
 4856      44463341 
 4856      38463132 
 4856      39423243 
 4856      39314239 
 4857              	.LC128:
 4858 050f 44343233 		.string	"D423DF3A8F129B2C91B9425D"
 4858      44463341 
 4858      38463132 
 4858      39423243 
 4858      39314239 
 4859              	.LC129:
 4860 0528 41383437 		.string	"A847BE751E253659237284BB"
 4860      42453735 
 4860      31453235 
 4860      33363539 
 4860      32333732 
 4861              		.text
 4862 2885 90       		.align 2
 4863 2886 662E0F1F 		.p2align 4,,15
 4863      84000000 
 4863      0000
 4864              		.globl	_ZNK22TestFPGALink_testShift7RunImplEv
 4866              	_ZNK22TestFPGALink_testShift7RunImplEv:
 4867              	.LFB1118:
 4868              		.cfi_startproc
 4869 2890 4883EC18 		subq	$24, %rsp
 4870              		.cfi_def_cfa_offset 32
 4871 2894 31C9     		xorl	%ecx, %ecx
 4872 2896 41B90300 		movl	$3, %r9d
 4872      0000
 4873 289c 48C70424 		movq	$.LC36, (%rsp)
 4873      00000000 
 4874 28a4 41B80000 		movl	$.LC33, %r8d
 4874      0000
 4875 28aa BA000000 		movl	$.LC34, %edx
 4875      00
 4876 28af BE200000 		movl	$32, %esi
 4876      00
 4877 28b4 BF000000 		movl	$.LC35, %edi
 4877      00
 4878 28b9 E8000000 		call	_Z9testShiftPKcjS0_jS0_jS0_
 4878      00
 4879 28be 48C70424 		movq	$.LC38, (%rsp)
 4879      00000000 
 4880 28c6 41B90300 		movl	$3, %r9d
 4880      0000
 4881 28cc 41B80000 		movl	$.LC33, %r8d
 4881      0000
 4882 28d2 B9010000 		movl	$1, %ecx
 4882      00
 4883 28d7 BA000000 		movl	$.LC37, %edx
 4883      00
 4884 28dc BE200000 		movl	$32, %esi
 4884      00
 4885 28e1 BF000000 		movl	$.LC35, %edi
 4885      00
 4886 28e6 E8000000 		call	_Z9testShiftPKcjS0_jS0_jS0_
 4886      00
 4887 28eb 48C70424 		movq	$.LC40, (%rsp)
 4887      00000000 
 4888 28f3 41B90300 		movl	$3, %r9d
 4888      0000
 4889 28f9 41B80000 		movl	$.LC33, %r8d
 4889      0000
 4890 28ff B9020000 		movl	$2, %ecx
 4890      00
 4891 2904 BA000000 		movl	$.LC39, %edx
 4891      00
 4892 2909 BE200000 		movl	$32, %esi
 4892      00
 4893 290e BF000000 		movl	$.LC35, %edi
 4893      00
 4894 2913 E8000000 		call	_Z9testShiftPKcjS0_jS0_jS0_
 4894      00
 4895 2918 41B80000 		movl	$.LC33, %r8d
 4895      0000
 4896 291e 48C70424 		movq	$.LC41, (%rsp)
 4896      00000000 
 4897 2926 41B90300 		movl	$3, %r9d
 4897      0000
 4898 292c 4C89C2   		movq	%r8, %rdx
 4899 292f B9030000 		movl	$3, %ecx
 4899      00
 4900 2934 BE200000 		movl	$32, %esi
 4900      00
 4901 2939 BF000000 		movl	$.LC35, %edi
 4901      00
 4902 293e E8000000 		call	_Z9testShiftPKcjS0_jS0_jS0_
 4902      00
 4903 2943 48C70424 		movq	$.LC43, (%rsp)
 4903      00000000 
 4904 294b 41B90300 		movl	$3, %r9d
 4904      0000
 4905 2951 41B80000 		movl	$.LC33, %r8d
 4905      0000
 4906 2957 B9040000 		movl	$4, %ecx
 4906      00
 4907 295c BA000000 		movl	$.LC42, %edx
 4907      00
 4908 2961 BE200000 		movl	$32, %esi
 4908      00
 4909 2966 BF000000 		movl	$.LC35, %edi
 4909      00
 4910 296b E8000000 		call	_Z9testShiftPKcjS0_jS0_jS0_
 4910      00
 4911 2970 48C70424 		movq	$.LC45, (%rsp)
 4911      00000000 
 4912 2978 41B90300 		movl	$3, %r9d
 4912      0000
 4913 297e 41B80000 		movl	$.LC33, %r8d
 4913      0000
 4914 2984 B9050000 		movl	$5, %ecx
 4914      00
 4915 2989 BA000000 		movl	$.LC44, %edx
 4915      00
 4916 298e BE200000 		movl	$32, %esi
 4916      00
 4917 2993 BF000000 		movl	$.LC35, %edi
 4917      00
 4918 2998 E8000000 		call	_Z9testShiftPKcjS0_jS0_jS0_
 4918      00
 4919 299d 48C70424 		movq	$.LC47, (%rsp)
 4919      00000000 
 4920 29a5 41B90300 		movl	$3, %r9d
 4920      0000
 4921 29ab 41B80000 		movl	$.LC33, %r8d
 4921      0000
 4922 29b1 B9060000 		movl	$6, %ecx
 4922      00
 4923 29b6 BA000000 		movl	$.LC46, %edx
 4923      00
 4924 29bb BE200000 		movl	$32, %esi
 4924      00
 4925 29c0 BF000000 		movl	$.LC35, %edi
 4925      00
 4926 29c5 E8000000 		call	_Z9testShiftPKcjS0_jS0_jS0_
 4926      00
 4927 29ca 48C70424 		movq	$.LC49, (%rsp)
 4927      00000000 
 4928 29d2 41B90300 		movl	$3, %r9d
 4928      0000
 4929 29d8 41B80000 		movl	$.LC33, %r8d
 4929      0000
 4930 29de B9070000 		movl	$7, %ecx
 4930      00
 4931 29e3 BA000000 		movl	$.LC48, %edx
 4931      00
 4932 29e8 BE200000 		movl	$32, %esi
 4932      00
 4933 29ed BF000000 		movl	$.LC35, %edi
 4933      00
 4934 29f2 E8000000 		call	_Z9testShiftPKcjS0_jS0_jS0_
 4934      00
 4935 29f7 48C70424 		movq	$.LC51, (%rsp)
 4935      00000000 
 4936 29ff 41B90300 		movl	$3, %r9d
 4936      0000
 4937 2a05 41B80000 		movl	$.LC33, %r8d
 4937      0000
 4938 2a0b B9080000 		movl	$8, %ecx
 4938      00
 4939 2a10 BA000000 		movl	$.LC50, %edx
 4939      00
 4940 2a15 BE200000 		movl	$32, %esi
 4940      00
 4941 2a1a BF000000 		movl	$.LC35, %edi
 4941      00
 4942 2a1f E8000000 		call	_Z9testShiftPKcjS0_jS0_jS0_
 4942      00
 4943 2a24 48C70424 		movq	$.LC53, (%rsp)
 4943      00000000 
 4944 2a2c 41B90300 		movl	$3, %r9d
 4944      0000
 4945 2a32 41B80000 		movl	$.LC33, %r8d
 4945      0000
 4946 2a38 B9090000 		movl	$9, %ecx
 4946      00
 4947 2a3d BA000000 		movl	$.LC52, %edx
 4947      00
 4948 2a42 BE200000 		movl	$32, %esi
 4948      00
 4949 2a47 BF000000 		movl	$.LC35, %edi
 4949      00
 4950 2a4c E8000000 		call	_Z9testShiftPKcjS0_jS0_jS0_
 4950      00
 4951 2a51 48C70424 		movq	$.LC55, (%rsp)
 4951      00000000 
 4952 2a59 41B90300 		movl	$3, %r9d
 4952      0000
 4953 2a5f 41B80000 		movl	$.LC33, %r8d
 4953      0000
 4954 2a65 B90A0000 		movl	$10, %ecx
 4954      00
 4955 2a6a BA000000 		movl	$.LC54, %edx
 4955      00
 4956 2a6f BE200000 		movl	$32, %esi
 4956      00
 4957 2a74 BF000000 		movl	$.LC35, %edi
 4957      00
 4958 2a79 E8000000 		call	_Z9testShiftPKcjS0_jS0_jS0_
 4958      00
 4959 2a7e 48C70424 		movq	$.LC57, (%rsp)
 4959      00000000 
 4960 2a86 41B90300 		movl	$3, %r9d
 4960      0000
 4961 2a8c 41B80000 		movl	$.LC33, %r8d
 4961      0000
 4962 2a92 B90B0000 		movl	$11, %ecx
 4962      00
 4963 2a97 BA000000 		movl	$.LC56, %edx
 4963      00
 4964 2a9c BE200000 		movl	$32, %esi
 4964      00
 4965 2aa1 BF000000 		movl	$.LC35, %edi
 4965      00
 4966 2aa6 E8000000 		call	_Z9testShiftPKcjS0_jS0_jS0_
 4966      00
 4967 2aab 48C70424 		movq	$.LC59, (%rsp)
 4967      00000000 
 4968 2ab3 41B90300 		movl	$3, %r9d
 4968      0000
 4969 2ab9 41B80000 		movl	$.LC33, %r8d
 4969      0000
 4970 2abf B90C0000 		movl	$12, %ecx
 4970      00
 4971 2ac4 BA000000 		movl	$.LC58, %edx
 4971      00
 4972 2ac9 BE200000 		movl	$32, %esi
 4972      00
 4973 2ace BF000000 		movl	$.LC35, %edi
 4973      00
 4974 2ad3 E8000000 		call	_Z9testShiftPKcjS0_jS0_jS0_
 4974      00
 4975 2ad8 48C70424 		movq	$.LC61, (%rsp)
 4975      00000000 
 4976 2ae0 41B90300 		movl	$3, %r9d
 4976      0000
 4977 2ae6 41B80000 		movl	$.LC33, %r8d
 4977      0000
 4978 2aec B90D0000 		movl	$13, %ecx
 4978      00
 4979 2af1 BA000000 		movl	$.LC60, %edx
 4979      00
 4980 2af6 BE200000 		movl	$32, %esi
 4980      00
 4981 2afb BF000000 		movl	$.LC35, %edi
 4981      00
 4982 2b00 E8000000 		call	_Z9testShiftPKcjS0_jS0_jS0_
 4982      00
 4983 2b05 48C70424 		movq	$.LC63, (%rsp)
 4983      00000000 
 4984 2b0d 41B90300 		movl	$3, %r9d
 4984      0000
 4985 2b13 41B80000 		movl	$.LC33, %r8d
 4985      0000
 4986 2b19 B90E0000 		movl	$14, %ecx
 4986      00
 4987 2b1e BA000000 		movl	$.LC62, %edx
 4987      00
 4988 2b23 BE200000 		movl	$32, %esi
 4988      00
 4989 2b28 BF000000 		movl	$.LC35, %edi
 4989      00
 4990 2b2d E8000000 		call	_Z9testShiftPKcjS0_jS0_jS0_
 4990      00
 4991 2b32 48C70424 		movq	$.LC65, (%rsp)
 4991      00000000 
 4992 2b3a 41B90300 		movl	$3, %r9d
 4992      0000
 4993 2b40 41B80000 		movl	$.LC33, %r8d
 4993      0000
 4994 2b46 B90F0000 		movl	$15, %ecx
 4994      00
 4995 2b4b BA000000 		movl	$.LC64, %edx
 4995      00
 4996 2b50 BE200000 		movl	$32, %esi
 4996      00
 4997 2b55 BF000000 		movl	$.LC35, %edi
 4997      00
 4998 2b5a E8000000 		call	_Z9testShiftPKcjS0_jS0_jS0_
 4998      00
 4999 2b5f 48C70424 		movq	$.LC67, (%rsp)
 4999      00000000 
 5000 2b67 41B90300 		movl	$3, %r9d
 5000      0000
 5001 2b6d 41B80000 		movl	$.LC33, %r8d
 5001      0000
 5002 2b73 B9100000 		movl	$16, %ecx
 5002      00
 5003 2b78 BA000000 		movl	$.LC66, %edx
 5003      00
 5004 2b7d BE200000 		movl	$32, %esi
 5004      00
 5005 2b82 BF000000 		movl	$.LC35, %edi
 5005      00
 5006 2b87 E8000000 		call	_Z9testShiftPKcjS0_jS0_jS0_
 5006      00
 5007 2b8c 48C70424 		movq	$.LC69, (%rsp)
 5007      00000000 
 5008 2b94 41B90300 		movl	$3, %r9d
 5008      0000
 5009 2b9a 41B80000 		movl	$.LC33, %r8d
 5009      0000
 5010 2ba0 B9110000 		movl	$17, %ecx
 5010      00
 5011 2ba5 BA000000 		movl	$.LC68, %edx
 5011      00
 5012 2baa BE200000 		movl	$32, %esi
 5012      00
 5013 2baf BF000000 		movl	$.LC35, %edi
 5013      00
 5014 2bb4 E8000000 		call	_Z9testShiftPKcjS0_jS0_jS0_
 5014      00
 5015 2bb9 31C9     		xorl	%ecx, %ecx
 5016 2bbb 48C70424 		movq	$.LC70, (%rsp)
 5016      00000000 
 5017 2bc3 41B90400 		movl	$4, %r9d
 5017      0000
 5018 2bc9 41B80000 		movl	$.LC42, %r8d
 5018      0000
 5019 2bcf BA000000 		movl	$.LC34, %edx
 5019      00
 5020 2bd4 BE200000 		movl	$32, %esi
 5020      00
 5021 2bd9 BF000000 		movl	$.LC35, %edi
 5021      00
 5022 2bde E8000000 		call	_Z9testShiftPKcjS0_jS0_jS0_
 5022      00
 5023 2be3 48C70424 		movq	$.LC71, (%rsp)
 5023      00000000 
 5024 2beb 41B90400 		movl	$4, %r9d
 5024      0000
 5025 2bf1 41B80000 		movl	$.LC42, %r8d
 5025      0000
 5026 2bf7 B9010000 		movl	$1, %ecx
 5026      00
 5027 2bfc BA000000 		movl	$.LC37, %edx
 5027      00
 5028 2c01 BE200000 		movl	$32, %esi
 5028      00
 5029 2c06 BF000000 		movl	$.LC35, %edi
 5029      00
 5030 2c0b E8000000 		call	_Z9testShiftPKcjS0_jS0_jS0_
 5030      00
 5031 2c10 48C70424 		movq	$.LC72, (%rsp)
 5031      00000000 
 5032 2c18 41B90400 		movl	$4, %r9d
 5032      0000
 5033 2c1e 41B80000 		movl	$.LC42, %r8d
 5033      0000
 5034 2c24 B9020000 		movl	$2, %ecx
 5034      00
 5035 2c29 BA000000 		movl	$.LC39, %edx
 5035      00
 5036 2c2e BE200000 		movl	$32, %esi
 5036      00
 5037 2c33 BF000000 		movl	$.LC35, %edi
 5037      00
 5038 2c38 E8000000 		call	_Z9testShiftPKcjS0_jS0_jS0_
 5038      00
 5039 2c3d 48C70424 		movq	$.LC73, (%rsp)
 5039      00000000 
 5040 2c45 41B90400 		movl	$4, %r9d
 5040      0000
 5041 2c4b 41B80000 		movl	$.LC42, %r8d
 5041      0000
 5042 2c51 B9030000 		movl	$3, %ecx
 5042      00
 5043 2c56 BA000000 		movl	$.LC33, %edx
 5043      00
 5044 2c5b BE200000 		movl	$32, %esi
 5044      00
 5045 2c60 BF000000 		movl	$.LC35, %edi
 5045      00
 5046 2c65 E8000000 		call	_Z9testShiftPKcjS0_jS0_jS0_
 5046      00
 5047 2c6a 41B80000 		movl	$.LC42, %r8d
 5047      0000
 5048 2c70 48C70424 		movq	$.LC74, (%rsp)
 5048      00000000 
 5049 2c78 41B90400 		movl	$4, %r9d
 5049      0000
 5050 2c7e 4C89C2   		movq	%r8, %rdx
 5051 2c81 B9040000 		movl	$4, %ecx
 5051      00
 5052 2c86 BE200000 		movl	$32, %esi
 5052      00
 5053 2c8b BF000000 		movl	$.LC35, %edi
 5053      00
 5054 2c90 E8000000 		call	_Z9testShiftPKcjS0_jS0_jS0_
 5054      00
 5055 2c95 48C70424 		movq	$.LC75, (%rsp)
 5055      00000000 
 5056 2c9d 41B90400 		movl	$4, %r9d
 5056      0000
 5057 2ca3 41B80000 		movl	$.LC42, %r8d
 5057      0000
 5058 2ca9 B9050000 		movl	$5, %ecx
 5058      00
 5059 2cae BA000000 		movl	$.LC44, %edx
 5059      00
 5060 2cb3 BE200000 		movl	$32, %esi
 5060      00
 5061 2cb8 BF000000 		movl	$.LC35, %edi
 5061      00
 5062 2cbd E8000000 		call	_Z9testShiftPKcjS0_jS0_jS0_
 5062      00
 5063 2cc2 48C70424 		movq	$.LC76, (%rsp)
 5063      00000000 
 5064 2cca 41B90400 		movl	$4, %r9d
 5064      0000
 5065 2cd0 41B80000 		movl	$.LC42, %r8d
 5065      0000
 5066 2cd6 B9060000 		movl	$6, %ecx
 5066      00
 5067 2cdb BA000000 		movl	$.LC46, %edx
 5067      00
 5068 2ce0 BE200000 		movl	$32, %esi
 5068      00
 5069 2ce5 BF000000 		movl	$.LC35, %edi
 5069      00
 5070 2cea E8000000 		call	_Z9testShiftPKcjS0_jS0_jS0_
 5070      00
 5071 2cef 48C70424 		movq	$.LC77, (%rsp)
 5071      00000000 
 5072 2cf7 41B90400 		movl	$4, %r9d
 5072      0000
 5073 2cfd 41B80000 		movl	$.LC42, %r8d
 5073      0000
 5074 2d03 B9070000 		movl	$7, %ecx
 5074      00
 5075 2d08 BA000000 		movl	$.LC48, %edx
 5075      00
 5076 2d0d BE200000 		movl	$32, %esi
 5076      00
 5077 2d12 BF000000 		movl	$.LC35, %edi
 5077      00
 5078 2d17 E8000000 		call	_Z9testShiftPKcjS0_jS0_jS0_
 5078      00
 5079 2d1c 48C70424 		movq	$.LC78, (%rsp)
 5079      00000000 
 5080 2d24 41B90400 		movl	$4, %r9d
 5080      0000
 5081 2d2a 41B80000 		movl	$.LC42, %r8d
 5081      0000
 5082 2d30 B9080000 		movl	$8, %ecx
 5082      00
 5083 2d35 BA000000 		movl	$.LC50, %edx
 5083      00
 5084 2d3a BE200000 		movl	$32, %esi
 5084      00
 5085 2d3f BF000000 		movl	$.LC35, %edi
 5085      00
 5086 2d44 E8000000 		call	_Z9testShiftPKcjS0_jS0_jS0_
 5086      00
 5087 2d49 48C70424 		movq	$.LC79, (%rsp)
 5087      00000000 
 5088 2d51 41B90400 		movl	$4, %r9d
 5088      0000
 5089 2d57 41B80000 		movl	$.LC42, %r8d
