   1              		.file	"core.c"
   2              		.section	.rodata.str1.8,"aMS",@progbits,1
   3              		.align 8
   4              	.LC0:
   5 0000 62756649 		.string	"bufInitialise(): Cannot allocate memory for buffer"
   5      6E697469 
   5      616C6973 
   5      6528293A 
   5      2043616E 
   6              		.text
   7              		.p2align 4,,15
   8              		.globl	bufInitialise
  10              	bufInitialise:
  11              	.LFB47:
  12              		.cfi_startproc
  13 0000 4155     		pushq	%r13
  14              		.cfi_def_cfa_offset 16
  15              		.cfi_offset 13, -16
  16 0002 4989CD   		movq	%rcx, %r13
  17 0005 4154     		pushq	%r12
  18              		.cfi_def_cfa_offset 24
  19              		.cfi_offset 12, -24
  20 0007 4189D4   		movl	%edx, %r12d
  21 000a 55       		pushq	%rbp
  22              		.cfi_def_cfa_offset 32
  23              		.cfi_offset 6, -32
  24 000b 4889F5   		movq	%rsi, %rbp
  25 000e 53       		pushq	%rbx
  26              		.cfi_def_cfa_offset 40
  27              		.cfi_offset 3, -40
  28 000f 4889FB   		movq	%rdi, %rbx
  29 0012 4889F7   		movq	%rsi, %rdi
  30 0015 4883EC08 		subq	$8, %rsp
  31              		.cfi_def_cfa_offset 48
  32 0019 885318   		movb	%dl, 24(%rbx)
  33 001c E8000000 		call	malloc@PLT
  33      00
  34 0021 4885C0   		testq	%rax, %rax
  35 0024 488903   		movq	%rax, (%rbx)
  36 0027 7440     		je	.L10
  37 0029 488D0C28 		leaq	(%rax,%rbp), %rcx
  38 002d 4489E2   		movl	%r12d, %edx
  39 0030 4839C8   		cmpq	%rcx, %rax
  40 0033 720F     		jb	.L7
  41 0035 EB19     		jmp	.L5
  42 0037 660F1F84 		.p2align 4,,10
  42      00000000 
  42      00
  43              		.p2align 3
  44              	.L11:
  45 0040 0FB65318 		movzbl	24(%rbx), %edx
  46              	.L7:
  47 0044 4883C001 		addq	$1, %rax
  48 0048 8850FF   		movb	%dl, -1(%rax)
  49 004b 4839C8   		cmpq	%rcx, %rax
  50 004e 75F0     		jne	.L11
  51              	.L5:
  52 0050 48896B10 		movq	%rbp, 16(%rbx)
  53 0054 48C74308 		movq	$0, 8(%rbx)
  53      00000000 
  54 005c 31C0     		xorl	%eax, %eax
  55              	.L3:
  56 005e 4883C408 		addq	$8, %rsp
  57              		.cfi_remember_state
  58              		.cfi_def_cfa_offset 40
  59 0062 5B       		popq	%rbx
  60              		.cfi_def_cfa_offset 32
  61 0063 5D       		popq	%rbp
  62              		.cfi_def_cfa_offset 24
  63 0064 415C     		popq	%r12
  64              		.cfi_def_cfa_offset 16
  65 0066 415D     		popq	%r13
  66              		.cfi_def_cfa_offset 8
  67 0068 C3       		ret
  68              	.L10:
  69              		.cfi_restore_state
  70 0069 488D3500 		leaq	.LC0(%rip), %rsi
  70      000000
  71 0070 4C89EF   		movq	%r13, %rdi
  72 0073 E8000000 		call	errPrefix@PLT
  72      00
  73 0078 B8010000 		movl	$1, %eax
  73      00
  74 007d EBDF     		jmp	.L3
  75              		.cfi_endproc
  76              	.LFE47:
  78 007f 90       		.p2align 4,,15
  79              		.globl	bufDestroy
  81              	bufDestroy:
  82              	.LFB48:
  83              		.cfi_startproc
  84 0080 53       		pushq	%rbx
  85              		.cfi_def_cfa_offset 16
  86              		.cfi_offset 3, -16
  87 0081 4889FB   		movq	%rdi, %rbx
  88 0084 488B3F   		movq	(%rdi), %rdi
  89 0087 E8000000 		call	free@PLT
  89      00
  90 008c 48C70300 		movq	$0, (%rbx)
  90      000000
  91 0093 48C74310 		movq	$0, 16(%rbx)
  91      00000000 
  92 009b 48C74308 		movq	$0, 8(%rbx)
  92      00000000 
  93 00a3 C6431800 		movb	$0, 24(%rbx)
  94 00a7 5B       		popq	%rbx
  95              		.cfi_def_cfa_offset 8
  96 00a8 C3       		ret
  97              		.cfi_endproc
  98              	.LFE48:
 100              		.section	.rodata.str1.8
 101 0033 00000000 		.align 8
 101      00
 102              	.LC1:
 103 0038 62756644 		.string	"bufDeepCopy(): Cannot allocate memory for buffer"
 103      65657043 
 103      6F707928 
 103      293A2043 
 103      616E6E6F 
 104              		.text
 105 00a9 0F1F8000 		.p2align 4,,15
 105      000000
 106              		.globl	bufDeepCopy
 108              	bufDeepCopy:
 109              	.LFB49:
 110              		.cfi_startproc
 111 00b0 4154     		pushq	%r12
 112              		.cfi_def_cfa_offset 16
 113              		.cfi_offset 12, -16
 114 00b2 4989D4   		movq	%rdx, %r12
 115 00b5 55       		pushq	%rbp
 116              		.cfi_def_cfa_offset 24
 117              		.cfi_offset 6, -24
 118 00b6 4889F5   		movq	%rsi, %rbp
 119 00b9 53       		pushq	%rbx
 120              		.cfi_def_cfa_offset 32
 121              		.cfi_offset 3, -32
 122 00ba 4889FB   		movq	%rdi, %rbx
 123 00bd 4883EC10 		subq	$16, %rsp
 124              		.cfi_def_cfa_offset 48
 125 00c1 488B3F   		movq	(%rdi), %rdi
 126 00c4 4885FF   		testq	%rdi, %rdi
 127 00c7 0F84FB01 		je	.L18
 127      0000
 128 00cd 488B4610 		movq	16(%rsi), %rax
 129 00d1 48394310 		cmpq	%rax, 16(%rbx)
 130 00d5 0F82D501 		jb	.L41
 130      0000
 131              	.L17:
 132 00db 0FB64518 		movzbl	24(%rbp), %eax
 133 00df 488B5508 		movq	8(%rbp), %rdx
 134 00e3 488B7500 		movq	0(%rbp), %rsi
 135 00e7 48895308 		movq	%rdx, 8(%rbx)
 136 00eb 884318   		movb	%al, 24(%rbx)
 137 00ee E8000000 		call	memcpy@PLT
 137      00
 138 00f3 488B13   		movq	(%rbx), %rdx
 139 00f6 4889D0   		movq	%rdx, %rax
 140 00f9 48035310 		addq	16(%rbx), %rdx
 141 00fd 48034308 		addq	8(%rbx), %rax
 142 0101 4839D0   		cmpq	%rdx, %rax
 143 0104 0F837E01 		jnb	.L26
 143      0000
 144 010a 488D7B18 		leaq	24(%rbx), %rdi
 145 010e 4889D6   		movq	%rdx, %rsi
 146 0111 488D4801 		leaq	1(%rax), %rcx
 147 0115 4829C6   		subq	%rax, %rsi
 148 0118 4839FA   		cmpq	%rdi, %rdx
 149 011b 488D7B19 		leaq	25(%rbx), %rdi
 150 011f 410F96C0 		setbe	%r8b
 151 0123 4839F8   		cmpq	%rdi, %rax
 152 0126 400F93C7 		setnb	%dil
 153 012a 4108F8   		orb	%dil, %r8b
 154 012d 0F846901 		je	.L29
 154      0000
 155 0133 4883FE0F 		cmpq	$15, %rsi
 156 0137 0F865F01 		jbe	.L29
 156      0000
 157 013d 4889F7   		movq	%rsi, %rdi
 158 0140 31C9     		xorl	%ecx, %ecx
 159 0142 48C1EF04 		shrq	$4, %rdi
 160 0146 4989F8   		movq	%rdi, %r8
 161 0149 49C1E004 		salq	$4, %r8
 162              	.L27:
 163 014d 440FB653 		movzbl	24(%rbx), %r10d
 163      18
 164 0152 4989C9   		movq	%rcx, %r9
 165 0155 4883C101 		addq	$1, %rcx
 166 0159 49C1E104 		salq	$4, %r9
 167 015d 4839CF   		cmpq	%rcx, %rdi
 168 0160 44881424 		movb	%r10b, (%rsp)
 169 0164 660F6E04 		movd	(%rsp), %xmm0
 169      24
 170 0169 660F60C0 		punpcklbw	%xmm0, %xmm0
 171 016d 660F61C0 		punpcklwd	%xmm0, %xmm0
 172 0171 660F70C0 		pshufd	$0, %xmm0, %xmm0
 172      00
 173 0176 F3420F7F 		movdqu	%xmm0, (%rax,%r9)
 173      0408
 174 017c 77CF     		ja	.L27
 175 017e 4C01C0   		addq	%r8, %rax
 176 0181 4C39C6   		cmpq	%r8, %rsi
 177 0184 0F84FE00 		je	.L26
 177      0000
 178 018a 0FB64B18 		movzbl	24(%rbx), %ecx
 179 018e 8808     		movb	%cl, (%rax)
 180 0190 488D4801 		leaq	1(%rax), %rcx
 181 0194 4839CA   		cmpq	%rcx, %rdx
 182 0197 0F86EB00 		jbe	.L26
 182      0000
 183 019d 0FB64B18 		movzbl	24(%rbx), %ecx
 184 01a1 884801   		movb	%cl, 1(%rax)
 185 01a4 488D4802 		leaq	2(%rax), %rcx
 186 01a8 4839CA   		cmpq	%rcx, %rdx
 187 01ab 0F86D700 		jbe	.L26
 187      0000
 188 01b1 0FB64B18 		movzbl	24(%rbx), %ecx
 189 01b5 884802   		movb	%cl, 2(%rax)
 190 01b8 488D4803 		leaq	3(%rax), %rcx
 191 01bc 4839CA   		cmpq	%rcx, %rdx
 192 01bf 0F86C300 		jbe	.L26
 192      0000
 193 01c5 0FB64B18 		movzbl	24(%rbx), %ecx
 194 01c9 884803   		movb	%cl, 3(%rax)
 195 01cc 488D4804 		leaq	4(%rax), %rcx
 196 01d0 4839CA   		cmpq	%rcx, %rdx
 197 01d3 0F86AF00 		jbe	.L26
 197      0000
 198 01d9 0FB64B18 		movzbl	24(%rbx), %ecx
 199 01dd 884804   		movb	%cl, 4(%rax)
 200 01e0 488D4805 		leaq	5(%rax), %rcx
 201 01e4 4839CA   		cmpq	%rcx, %rdx
 202 01e7 0F869B00 		jbe	.L26
 202      0000
 203 01ed 0FB64B18 		movzbl	24(%rbx), %ecx
 204 01f1 884805   		movb	%cl, 5(%rax)
 205 01f4 488D4806 		leaq	6(%rax), %rcx
 206 01f8 4839CA   		cmpq	%rcx, %rdx
 207 01fb 0F868700 		jbe	.L26
 207      0000
 208 0201 0FB64B18 		movzbl	24(%rbx), %ecx
 209 0205 884806   		movb	%cl, 6(%rax)
 210 0208 488D4807 		leaq	7(%rax), %rcx
 211 020c 4839CA   		cmpq	%rcx, %rdx
 212 020f 7677     		jbe	.L26
 213 0211 0FB64B18 		movzbl	24(%rbx), %ecx
 214 0215 884807   		movb	%cl, 7(%rax)
 215 0218 488D4808 		leaq	8(%rax), %rcx
 216 021c 4839CA   		cmpq	%rcx, %rdx
 217 021f 7667     		jbe	.L26
 218 0221 0FB64B18 		movzbl	24(%rbx), %ecx
 219 0225 884808   		movb	%cl, 8(%rax)
 220 0228 488D4809 		leaq	9(%rax), %rcx
 221 022c 4839CA   		cmpq	%rcx, %rdx
 222 022f 7657     		jbe	.L26
 223 0231 0FB64B18 		movzbl	24(%rbx), %ecx
 224 0235 884809   		movb	%cl, 9(%rax)
 225 0238 488D480A 		leaq	10(%rax), %rcx
 226 023c 4839CA   		cmpq	%rcx, %rdx
 227 023f 7647     		jbe	.L26
 228 0241 0FB64B18 		movzbl	24(%rbx), %ecx
 229 0245 88480A   		movb	%cl, 10(%rax)
 230 0248 488D480B 		leaq	11(%rax), %rcx
 231 024c 4839CA   		cmpq	%rcx, %rdx
 232 024f 7637     		jbe	.L26
 233 0251 0FB64B18 		movzbl	24(%rbx), %ecx
 234 0255 88480B   		movb	%cl, 11(%rax)
 235 0258 488D480C 		leaq	12(%rax), %rcx
 236 025c 4839CA   		cmpq	%rcx, %rdx
 237 025f 7627     		jbe	.L26
 238 0261 0FB64B18 		movzbl	24(%rbx), %ecx
 239 0265 88480C   		movb	%cl, 12(%rax)
 240 0268 488D480D 		leaq	13(%rax), %rcx
 241 026c 4839CA   		cmpq	%rcx, %rdx
 242 026f 7617     		jbe	.L26
 243 0271 0FB64B18 		movzbl	24(%rbx), %ecx
 244 0275 88480D   		movb	%cl, 13(%rax)
 245 0278 488D480E 		leaq	14(%rax), %rcx
 246 027c 4839CA   		cmpq	%rcx, %rdx
 247 027f 7607     		jbe	.L26
 248 0281 0FB65318 		movzbl	24(%rbx), %edx
 249 0285 88500E   		movb	%dl, 14(%rax)
 250              	.L26:
 251 0288 31C0     		xorl	%eax, %eax
 252              	.L19:
 253 028a 4883C410 		addq	$16, %rsp
 254              		.cfi_remember_state
 255              		.cfi_def_cfa_offset 32
 256 028e 5B       		popq	%rbx
 257              		.cfi_def_cfa_offset 24
 258 028f 5D       		popq	%rbp
 259              		.cfi_def_cfa_offset 16
 260 0290 415C     		popq	%r12
 261              		.cfi_def_cfa_offset 8
 262 0292 C3       		ret
 263              		.p2align 4,,10
 264 0293 0F1F4400 		.p2align 3
 264      00
 265              	.L42:
 266              		.cfi_restore_state
 267 0298 4883C101 		addq	$1, %rcx
 268              	.L29:
 269 029c 0FB64318 		movzbl	24(%rbx), %eax
 270 02a0 4839D1   		cmpq	%rdx, %rcx
 271 02a3 8841FF   		movb	%al, -1(%rcx)
 272 02a6 75F0     		jne	.L42
 273 02a8 EBDE     		jmp	.L26
 274 02aa 660F1F44 		.p2align 4,,10
 274      0000
 275              		.p2align 3
 276              	.L41:
 277 02b0 4889DF   		movq	%rbx, %rdi
 278 02b3 E8000000 		call	bufDestroy@PLT
 278      00
 279 02b8 488B3B   		movq	(%rbx), %rdi
 280 02bb 4885FF   		testq	%rdi, %rdi
 281 02be 0F8517FE 		jne	.L17
 281      FFFF
 282              		.p2align 4,,10
 283 02c4 0F1F4000 		.p2align 3
 284              	.L18:
 285 02c8 488B7D10 		movq	16(%rbp), %rdi
 286 02cc 48897B10 		movq	%rdi, 16(%rbx)
 287 02d0 E8000000 		call	malloc@PLT
 287      00
 288 02d5 4885C0   		testq	%rax, %rax
 289 02d8 488903   		movq	%rax, (%rbx)
 290 02db 7408     		je	.L16
 291 02dd 4889C7   		movq	%rax, %rdi
 292 02e0 E9F6FDFF 		jmp	.L17
 292      FF
 293              	.L16:
 294 02e5 488D3500 		leaq	.LC1(%rip), %rsi
 294      000000
 295 02ec 4C89E7   		movq	%r12, %rdi
 296 02ef E8000000 		call	errPrefix@PLT
 296      00
 297 02f4 B8010000 		movl	$1, %eax
 297      00
 298 02f9 EB8F     		jmp	.L19
 299              		.cfi_endproc
 300              	.LFE49:
 302 02fb 0F1F4400 		.p2align 4,,15
 302      00
 303              		.globl	bufSwap
 305              	bufSwap:
 306              	.LFB50:
 307              		.cfi_startproc
 308 0300 4C8B0E   		movq	(%rsi), %r9
 309 0303 4C8B07   		movq	(%rdi), %r8
 310 0306 488B4F08 		movq	8(%rdi), %rcx
 311 030a 488B5710 		movq	16(%rdi), %rdx
 312 030e 0FB64718 		movzbl	24(%rdi), %eax
 313 0312 4C890F   		movq	%r9, (%rdi)
 314 0315 4C8B4E08 		movq	8(%rsi), %r9
 315 0319 4C894F08 		movq	%r9, 8(%rdi)
 316 031d 4C8B4E10 		movq	16(%rsi), %r9
 317 0321 4C894F10 		movq	%r9, 16(%rdi)
 318 0325 440FB64E 		movzbl	24(%rsi), %r9d
 318      18
 319 032a 44884F18 		movb	%r9b, 24(%rdi)
 320 032e 4C8906   		movq	%r8, (%rsi)
 321 0331 48894E08 		movq	%rcx, 8(%rsi)
 322 0335 48895610 		movq	%rdx, 16(%rsi)
 323 0339 884618   		movb	%al, 24(%rsi)
 324 033c C3       		ret
 325              		.cfi_endproc
 326              	.LFE50:
 328 033d 0F1F00   		.p2align 4,,15
 329              		.globl	bufZeroLength
 331              	bufZeroLength:
 332              	.LFB51:
 333              		.cfi_startproc
 334 0340 31C0     		xorl	%eax, %eax
 335 0342 48837F10 		cmpq	$0, 16(%rdi)
 335      00
 336 0347 48C74708 		movq	$0, 8(%rdi)
 336      00000000 
 337 034f 741B     		je	.L44
 338              		.p2align 4,,10
 339 0351 0F1F8000 		.p2align 3
 339      000000
 340              	.L48:
 341 0358 0FB64F18 		movzbl	24(%rdi), %ecx
 342 035c 488B17   		movq	(%rdi), %rdx
 343 035f 880C02   		movb	%cl, (%rdx,%rax)
 344 0362 4883C001 		addq	$1, %rax
 345 0366 48394710 		cmpq	%rax, 16(%rdi)
 346 036a 77EC     		ja	.L48
 347              	.L44:
 348 036c F3C3     		rep ret
 349              		.cfi_endproc
 350              	.LFE51:
 352              		.section	.rodata.str1.8
 353 0069 00000000 		.align 8
 353      000000
 354              	.LC2:
 355 0070 43616E6E 		.string	"Cannot reallocate memory for buffer"
 355      6F742072 
 355      65616C6C 
 355      6F636174 
 355      65206D65 
 356              		.section	.rodata.str1.1,"aMS",@progbits,1
 357              	.LC3:
 358 0000 62756641 		.string	"bufAppendByte()"
 358      7070656E 
 358      64427974 
 358      65282900 
 359              		.text
 360 036e 6690     		.p2align 4,,15
 361              		.globl	bufAppendByte
 363              	bufAppendByte:
 364              	.LFB53:
 365              		.cfi_startproc
 366 0370 4156     		pushq	%r14
 367              		.cfi_def_cfa_offset 16
 368              		.cfi_offset 14, -16
 369 0372 4189F6   		movl	%esi, %r14d
 370 0375 4155     		pushq	%r13
 371              		.cfi_def_cfa_offset 24
 372              		.cfi_offset 13, -24
 373 0377 4154     		pushq	%r12
 374              		.cfi_def_cfa_offset 32
 375              		.cfi_offset 12, -32
 376 0379 55       		pushq	%rbp
 377              		.cfi_def_cfa_offset 40
 378              		.cfi_offset 6, -40
 379 037a 4889FD   		movq	%rdi, %rbp
 380 037d 53       		pushq	%rbx
 381              		.cfi_def_cfa_offset 48
 382              		.cfi_offset 3, -48
 383 037e 4883EC10 		subq	$16, %rsp
 384              		.cfi_def_cfa_offset 64
 385 0382 4C8B6F08 		movq	8(%rdi), %r13
 386 0386 488B5F10 		movq	16(%rdi), %rbx
 387 038a 4D8D6501 		leaq	1(%r13), %r12
 388 038e 4939DC   		cmpq	%rbx, %r12
 389 0391 771D     		ja	.L53
 390 0393 488B07   		movq	(%rdi), %rax
 391              	.L51:
 392 0396 46883428 		movb	%r14b, (%rax,%r13)
 393 039a 48834508 		addq	$1, 8(%rbp)
 393      01
 394 039f 31C0     		xorl	%eax, %eax
 395              	.L55:
 396 03a1 4883C410 		addq	$16, %rsp
 397              		.cfi_remember_state
 398              		.cfi_def_cfa_offset 48
 399 03a5 5B       		popq	%rbx
 400              		.cfi_def_cfa_offset 40
 401 03a6 5D       		popq	%rbp
 402              		.cfi_def_cfa_offset 32
 403 03a7 415C     		popq	%r12
 404              		.cfi_def_cfa_offset 24
 405 03a9 415D     		popq	%r13
 406              		.cfi_def_cfa_offset 16
 407 03ab 415E     		popq	%r14
 408              		.cfi_def_cfa_offset 8
 409 03ad C3       		ret
 410 03ae 6690     		.p2align 4,,10
 411              		.p2align 3
 412              	.L53:
 413              		.cfi_restore_state
 414 03b0 4801DB   		addq	%rbx, %rbx
 415 03b3 4939DC   		cmpq	%rbx, %r12
 416 03b6 77F8     		ja	.L53
 417 03b8 488B7D00 		movq	0(%rbp), %rdi
 418 03bc 4889DE   		movq	%rbx, %rsi
 419 03bf 48895424 		movq	%rdx, 8(%rsp)
 419      08
 420 03c4 E8000000 		call	realloc@PLT
 420      00
 421 03c9 4885C0   		testq	%rax, %rax
 422 03cc 488B5424 		movq	8(%rsp), %rdx
 422      08
 423 03d1 0F84FB01 		je	.L74
 423      0000
 424 03d7 48895D10 		movq	%rbx, 16(%rbp)
 425 03db 4901C4   		addq	%rax, %r12
 426 03de 4801C3   		addq	%rax, %rbx
 427 03e1 4939DC   		cmpq	%rbx, %r12
 428 03e4 48894500 		movq	%rax, 0(%rbp)
 429 03e8 0F83C101 		jnb	.L73
 429      0000
 430 03ee 4C01E8   		addq	%r13, %rax
 431 03f1 4889D9   		movq	%rbx, %rcx
 432 03f4 4C8D4518 		leaq	24(%rbp), %r8
 433 03f8 488D7001 		leaq	1(%rax), %rsi
 434 03fc 4C29E1   		subq	%r12, %rcx
 435 03ff 498D5424 		leaq	1(%r12), %rdx
 435      01
 436 0404 488D3C0E 		leaq	(%rsi,%rcx), %rdi
 437 0408 4939F8   		cmpq	%rdi, %r8
 438 040b 4C8D4519 		leaq	25(%rbp), %r8
 439 040f 400F93C7 		setnb	%dil
 440 0413 4C39C6   		cmpq	%r8, %rsi
 441 0416 400F93C6 		setnb	%sil
 442 041a 4008F7   		orb	%sil, %dil
 443 041d 0F84A101 		je	.L64
 443      0000
 444 0423 4883F90F 		cmpq	$15, %rcx
 445 0427 0F869701 		jbe	.L64
 445      0000
 446 042d 4889CE   		movq	%rcx, %rsi
 447 0430 31D2     		xorl	%edx, %edx
 448 0432 48C1EE04 		shrq	$4, %rsi
 449 0436 4889F7   		movq	%rsi, %rdi
 450 0439 48C1E704 		salq	$4, %rdi
 451              	.L62:
 452 043d 440FB64D 		movzbl	24(%rbp), %r9d
 452      18
 453 0442 4989D0   		movq	%rdx, %r8
 454 0445 4883C201 		addq	$1, %rdx
 455 0449 49C1E004 		salq	$4, %r8
 456 044d 4839D6   		cmpq	%rdx, %rsi
 457 0450 44884C24 		movb	%r9b, 8(%rsp)
 457      08
 458 0455 660F6E44 		movd	8(%rsp), %xmm0
 458      2408
 459 045b 660F60C0 		punpcklbw	%xmm0, %xmm0
 460 045f 660F61C0 		punpcklwd	%xmm0, %xmm0
 461 0463 660F70C0 		pshufd	$0, %xmm0, %xmm0
 461      00
 462 0468 F3420F7F 		movdqu	%xmm0, 1(%rax,%r8)
 462      440001
 463 046f 77CC     		ja	.L62
 464 0471 4901FC   		addq	%rdi, %r12
 465 0474 4839F9   		cmpq	%rdi, %rcx
 466 0477 0F842E01 		je	.L63
 466      0000
 467 047d 0FB64518 		movzbl	24(%rbp), %eax
 468 0481 41880424 		movb	%al, (%r12)
 469 0485 498D4424 		leaq	1(%r12), %rax
 469      01
 470 048a 4839C3   		cmpq	%rax, %rbx
 471 048d 0F861801 		jbe	.L63
 471      0000
 472 0493 0FB64518 		movzbl	24(%rbp), %eax
 473 0497 41884424 		movb	%al, 1(%r12)
 473      01
 474 049c 498D4424 		leaq	2(%r12), %rax
 474      02
 475 04a1 4839C3   		cmpq	%rax, %rbx
 476 04a4 0F860101 		jbe	.L63
 476      0000
 477 04aa 0FB64518 		movzbl	24(%rbp), %eax
 478 04ae 41884424 		movb	%al, 2(%r12)
 478      02
 479 04b3 498D4424 		leaq	3(%r12), %rax
 479      03
 480 04b8 4839C3   		cmpq	%rax, %rbx
 481 04bb 0F86EA00 		jbe	.L63
 481      0000
 482 04c1 0FB64518 		movzbl	24(%rbp), %eax
 483 04c5 41884424 		movb	%al, 3(%r12)
 483      03
 484 04ca 498D4424 		leaq	4(%r12), %rax
 484      04
 485 04cf 4839C3   		cmpq	%rax, %rbx
 486 04d2 0F86D300 		jbe	.L63
 486      0000
 487 04d8 0FB64518 		movzbl	24(%rbp), %eax
 488 04dc 41884424 		movb	%al, 4(%r12)
 488      04
 489 04e1 498D4424 		leaq	5(%r12), %rax
 489      05
 490 04e6 4839C3   		cmpq	%rax, %rbx
 491 04e9 0F86BC00 		jbe	.L63
 491      0000
 492 04ef 0FB64518 		movzbl	24(%rbp), %eax
 493 04f3 41884424 		movb	%al, 5(%r12)
 493      05
 494 04f8 498D4424 		leaq	6(%r12), %rax
 494      06
 495 04fd 4839C3   		cmpq	%rax, %rbx
 496 0500 0F86A500 		jbe	.L63
 496      0000
 497 0506 0FB64518 		movzbl	24(%rbp), %eax
 498 050a 41884424 		movb	%al, 6(%r12)
 498      06
 499 050f 498D4424 		leaq	7(%r12), %rax
 499      07
 500 0514 4839C3   		cmpq	%rax, %rbx
 501 0517 0F868E00 		jbe	.L63
 501      0000
 502 051d 0FB64518 		movzbl	24(%rbp), %eax
 503 0521 41884424 		movb	%al, 7(%r12)
 503      07
 504 0526 498D4424 		leaq	8(%r12), %rax
 504      08
 505 052b 4839C3   		cmpq	%rax, %rbx
 506 052e 767B     		jbe	.L63
 507 0530 0FB64518 		movzbl	24(%rbp), %eax
 508 0534 41884424 		movb	%al, 8(%r12)
 508      08
 509 0539 498D4424 		leaq	9(%r12), %rax
 509      09
 510 053e 4839C3   		cmpq	%rax, %rbx
 511 0541 7668     		jbe	.L63
 512 0543 0FB64518 		movzbl	24(%rbp), %eax
 513 0547 41884424 		movb	%al, 9(%r12)
 513      09
 514 054c 498D4424 		leaq	10(%r12), %rax
 514      0A
 515 0551 4839C3   		cmpq	%rax, %rbx
 516 0554 7655     		jbe	.L63
 517 0556 0FB64518 		movzbl	24(%rbp), %eax
 518 055a 41884424 		movb	%al, 10(%r12)
 518      0A
 519 055f 498D4424 		leaq	11(%r12), %rax
 519      0B
 520 0564 4839C3   		cmpq	%rax, %rbx
 521 0567 7642     		jbe	.L63
 522 0569 0FB64518 		movzbl	24(%rbp), %eax
 523 056d 41884424 		movb	%al, 11(%r12)
 523      0B
 524 0572 498D4424 		leaq	12(%r12), %rax
 524      0C
 525 0577 4839C3   		cmpq	%rax, %rbx
 526 057a 762F     		jbe	.L63
 527 057c 0FB64518 		movzbl	24(%rbp), %eax
 528 0580 41884424 		movb	%al, 12(%r12)
 528      0C
 529 0585 498D4424 		leaq	13(%r12), %rax
 529      0D
 530 058a 4839C3   		cmpq	%rax, %rbx
 531 058d 761C     		jbe	.L63
 532 058f 0FB64518 		movzbl	24(%rbp), %eax
 533 0593 41884424 		movb	%al, 13(%r12)
 533      0D
 534 0598 498D4424 		leaq	14(%r12), %rax
 534      0E
 535 059d 4839C3   		cmpq	%rax, %rbx
 536 05a0 7609     		jbe	.L63
 537 05a2 0FB64518 		movzbl	24(%rbp), %eax
 538 05a6 41884424 		movb	%al, 14(%r12)
 538      0E
 539              	.L63:
 540 05ab 488B4500 		movq	0(%rbp), %rax
 541              	.L73:
 542 05af 4C8B6D08 		movq	8(%rbp), %r13
 543 05b3 E9DEFDFF 		jmp	.L51
 543      FF
 544 05b8 0F1F8400 		.p2align 4,,10
 544      00000000 
 545              		.p2align 3
 546              	.L75:
 547 05c0 4883C201 		addq	$1, %rdx
 548              	.L64:
 549 05c4 0FB64518 		movzbl	24(%rbp), %eax
 550 05c8 4839DA   		cmpq	%rbx, %rdx
 551 05cb 8842FF   		movb	%al, -1(%rdx)
 552 05ce 75F0     		jne	.L75
 553 05d0 EBD9     		jmp	.L63
 554              	.L74:
 555 05d2 488D3500 		leaq	.LC2(%rip), %rsi
 555      000000
 556 05d9 4889D7   		movq	%rdx, %rdi
 557 05dc E8000000 		call	errPrefix@PLT
 557      00
 558 05e1 488B5424 		movq	8(%rsp), %rdx
 558      08
 559 05e6 488D3500 		leaq	.LC3(%rip), %rsi
 559      000000
 560 05ed 4889D7   		movq	%rdx, %rdi
 561 05f0 E8000000 		call	errPrefix@PLT
 561      00
 562 05f5 B8010000 		movl	$1, %eax
 562      00
 563 05fa E9A2FDFF 		jmp	.L55
 563      FF
 564              		.cfi_endproc
 565              	.LFE53:
 567              		.section	.rodata.str1.1
 568              	.LC4:
 569 0010 62756641 		.string	"bufAppendWordLE()"
 569      7070656E 
 569      64576F72 
 569      644C4528 
 569      2900
 570              		.text
 571 05ff 90       		.p2align 4,,15
 572              		.globl	bufAppendWordLE
 574              	bufAppendWordLE:
 575              	.LFB54:
 576              		.cfi_startproc
 577 0600 4156     		pushq	%r14
 578              		.cfi_def_cfa_offset 16
 579              		.cfi_offset 14, -16
 580 0602 4189F6   		movl	%esi, %r14d
 581 0605 4155     		pushq	%r13
 582              		.cfi_def_cfa_offset 24
 583              		.cfi_offset 13, -24
 584 0607 4154     		pushq	%r12
 585              		.cfi_def_cfa_offset 32
 586              		.cfi_offset 12, -32
 587 0609 55       		pushq	%rbp
 588              		.cfi_def_cfa_offset 40
 589              		.cfi_offset 6, -40
 590 060a 4889FD   		movq	%rdi, %rbp
 591 060d 53       		pushq	%rbx
 592              		.cfi_def_cfa_offset 48
 593              		.cfi_offset 3, -48
 594 060e 4883EC10 		subq	$16, %rsp
 595              		.cfi_def_cfa_offset 64
 596 0612 4C8B6F08 		movq	8(%rdi), %r13
 597 0616 488B5F10 		movq	16(%rdi), %rbx
 598 061a 4D8D6502 		leaq	2(%r13), %r12
 599 061e 4939DC   		cmpq	%rbx, %r12
 600 0621 772D     		ja	.L80
 601 0623 488B07   		movq	(%rdi), %rax
 602              	.L78:
 603 0626 46883428 		movb	%r14b, (%rax,%r13)
 604 062a 488B4508 		movq	8(%rbp), %rax
 605 062e 4489F1   		movl	%r14d, %ecx
 606 0631 488B5500 		movq	0(%rbp), %rdx
 607 0635 0FB6CD   		movzbl	%ch, %ecx
 608 0638 884C0201 		movb	%cl, 1(%rdx,%rax)
 609 063c 48834508 		addq	$2, 8(%rbp)
 609      02
 610 0641 31C0     		xorl	%eax, %eax
 611              	.L82:
 612 0643 4883C410 		addq	$16, %rsp
 613              		.cfi_remember_state
 614              		.cfi_def_cfa_offset 48
 615 0647 5B       		popq	%rbx
 616              		.cfi_def_cfa_offset 40
 617 0648 5D       		popq	%rbp
 618              		.cfi_def_cfa_offset 32
 619 0649 415C     		popq	%r12
 620              		.cfi_def_cfa_offset 24
 621 064b 415D     		popq	%r13
 622              		.cfi_def_cfa_offset 16
 623 064d 415E     		popq	%r14
 624              		.cfi_def_cfa_offset 8
 625 064f C3       		ret
 626              		.p2align 4,,10
 627              		.p2align 3
 628              	.L80:
 629              		.cfi_restore_state
 630 0650 4801DB   		addq	%rbx, %rbx
 631 0653 4939DC   		cmpq	%rbx, %r12
 632 0656 77F8     		ja	.L80
 633 0658 488B7D00 		movq	0(%rbp), %rdi
 634 065c 4889DE   		movq	%rbx, %rsi
 635 065f 48895424 		movq	%rdx, 8(%rsp)
 635      08
 636 0664 E8000000 		call	realloc@PLT
 636      00
 637 0669 4885C0   		testq	%rax, %rax
 638 066c 488B5424 		movq	8(%rsp), %rdx
 638      08
 639 0671 0F84FB01 		je	.L101
 639      0000
 640 0677 48895D10 		movq	%rbx, 16(%rbp)
 641 067b 4901C4   		addq	%rax, %r12
 642 067e 4801C3   		addq	%rax, %rbx
 643 0681 4939DC   		cmpq	%rbx, %r12
 644 0684 48894500 		movq	%rax, 0(%rbp)
 645 0688 0F83C101 		jnb	.L100
 645      0000
 646 068e 4C01E8   		addq	%r13, %rax
 647 0691 4889D9   		movq	%rbx, %rcx
 648 0694 4C8D4518 		leaq	24(%rbp), %r8
 649 0698 488D7002 		leaq	2(%rax), %rsi
 650 069c 4C29E1   		subq	%r12, %rcx
 651 069f 498D5424 		leaq	1(%r12), %rdx
 651      01
 652 06a4 488D3C0E 		leaq	(%rsi,%rcx), %rdi
 653 06a8 4939F8   		cmpq	%rdi, %r8
 654 06ab 4C8D4519 		leaq	25(%rbp), %r8
 655 06af 400F93C7 		setnb	%dil
 656 06b3 4C39C6   		cmpq	%r8, %rsi
 657 06b6 400F93C6 		setnb	%sil
 658 06ba 4008F7   		orb	%sil, %dil
 659 06bd 0F84A101 		je	.L91
 659      0000
 660 06c3 4883F90F 		cmpq	$15, %rcx
 661 06c7 0F869701 		jbe	.L91
 661      0000
 662 06cd 4889CE   		movq	%rcx, %rsi
 663 06d0 31D2     		xorl	%edx, %edx
 664 06d2 48C1EE04 		shrq	$4, %rsi
 665 06d6 4889F7   		movq	%rsi, %rdi
 666 06d9 48C1E704 		salq	$4, %rdi
 667              	.L89:
 668 06dd 440FB64D 		movzbl	24(%rbp), %r9d
 668      18
 669 06e2 4989D0   		movq	%rdx, %r8
 670 06e5 4883C201 		addq	$1, %rdx
 671 06e9 49C1E004 		salq	$4, %r8
 672 06ed 4839D6   		cmpq	%rdx, %rsi
 673 06f0 44884C24 		movb	%r9b, 8(%rsp)
 673      08
 674 06f5 660F6E44 		movd	8(%rsp), %xmm0
 674      2408
 675 06fb 660F60C0 		punpcklbw	%xmm0, %xmm0
 676 06ff 660F61C0 		punpcklwd	%xmm0, %xmm0
 677 0703 660F70C0 		pshufd	$0, %xmm0, %xmm0
 677      00
 678 0708 F3420F7F 		movdqu	%xmm0, 2(%rax,%r8)
 678      440002
 679 070f 77CC     		ja	.L89
 680 0711 4901FC   		addq	%rdi, %r12
 681 0714 4839F9   		cmpq	%rdi, %rcx
 682 0717 0F842E01 		je	.L90
 682      0000
 683 071d 0FB64518 		movzbl	24(%rbp), %eax
 684 0721 41880424 		movb	%al, (%r12)
 685 0725 498D4424 		leaq	1(%r12), %rax
 685      01
 686 072a 4839C3   		cmpq	%rax, %rbx
 687 072d 0F861801 		jbe	.L90
 687      0000
 688 0733 0FB64518 		movzbl	24(%rbp), %eax
 689 0737 41884424 		movb	%al, 1(%r12)
 689      01
 690 073c 498D4424 		leaq	2(%r12), %rax
 690      02
 691 0741 4839C3   		cmpq	%rax, %rbx
 692 0744 0F860101 		jbe	.L90
 692      0000
 693 074a 0FB64518 		movzbl	24(%rbp), %eax
 694 074e 41884424 		movb	%al, 2(%r12)
 694      02
 695 0753 498D4424 		leaq	3(%r12), %rax
 695      03
 696 0758 4839C3   		cmpq	%rax, %rbx
 697 075b 0F86EA00 		jbe	.L90
 697      0000
 698 0761 0FB64518 		movzbl	24(%rbp), %eax
 699 0765 41884424 		movb	%al, 3(%r12)
 699      03
 700 076a 498D4424 		leaq	4(%r12), %rax
 700      04
 701 076f 4839C3   		cmpq	%rax, %rbx
 702 0772 0F86D300 		jbe	.L90
 702      0000
 703 0778 0FB64518 		movzbl	24(%rbp), %eax
 704 077c 41884424 		movb	%al, 4(%r12)
 704      04
 705 0781 498D4424 		leaq	5(%r12), %rax
 705      05
 706 0786 4839C3   		cmpq	%rax, %rbx
 707 0789 0F86BC00 		jbe	.L90
 707      0000
 708 078f 0FB64518 		movzbl	24(%rbp), %eax
 709 0793 41884424 		movb	%al, 5(%r12)
 709      05
 710 0798 498D4424 		leaq	6(%r12), %rax
 710      06
 711 079d 4839C3   		cmpq	%rax, %rbx
 712 07a0 0F86A500 		jbe	.L90
 712      0000
 713 07a6 0FB64518 		movzbl	24(%rbp), %eax
 714 07aa 41884424 		movb	%al, 6(%r12)
 714      06
 715 07af 498D4424 		leaq	7(%r12), %rax
 715      07
 716 07b4 4839C3   		cmpq	%rax, %rbx
 717 07b7 0F868E00 		jbe	.L90
 717      0000
 718 07bd 0FB64518 		movzbl	24(%rbp), %eax
 719 07c1 41884424 		movb	%al, 7(%r12)
 719      07
 720 07c6 498D4424 		leaq	8(%r12), %rax
 720      08
 721 07cb 4839C3   		cmpq	%rax, %rbx
 722 07ce 767B     		jbe	.L90
 723 07d0 0FB64518 		movzbl	24(%rbp), %eax
 724 07d4 41884424 		movb	%al, 8(%r12)
 724      08
 725 07d9 498D4424 		leaq	9(%r12), %rax
 725      09
 726 07de 4839C3   		cmpq	%rax, %rbx
 727 07e1 7668     		jbe	.L90
 728 07e3 0FB64518 		movzbl	24(%rbp), %eax
 729 07e7 41884424 		movb	%al, 9(%r12)
 729      09
 730 07ec 498D4424 		leaq	10(%r12), %rax
 730      0A
 731 07f1 4839C3   		cmpq	%rax, %rbx
 732 07f4 7655     		jbe	.L90
 733 07f6 0FB64518 		movzbl	24(%rbp), %eax
 734 07fa 41884424 		movb	%al, 10(%r12)
 734      0A
 735 07ff 498D4424 		leaq	11(%r12), %rax
 735      0B
 736 0804 4839C3   		cmpq	%rax, %rbx
 737 0807 7642     		jbe	.L90
 738 0809 0FB64518 		movzbl	24(%rbp), %eax
 739 080d 41884424 		movb	%al, 11(%r12)
 739      0B
 740 0812 498D4424 		leaq	12(%r12), %rax
 740      0C
 741 0817 4839C3   		cmpq	%rax, %rbx
 742 081a 762F     		jbe	.L90
 743 081c 0FB64518 		movzbl	24(%rbp), %eax
 744 0820 41884424 		movb	%al, 12(%r12)
 744      0C
 745 0825 498D4424 		leaq	13(%r12), %rax
 745      0D
 746 082a 4839C3   		cmpq	%rax, %rbx
 747 082d 761C     		jbe	.L90
 748 082f 0FB64518 		movzbl	24(%rbp), %eax
 749 0833 41884424 		movb	%al, 13(%r12)
 749      0D
 750 0838 498D4424 		leaq	14(%r12), %rax
 750      0E
 751 083d 4839C3   		cmpq	%rax, %rbx
 752 0840 7609     		jbe	.L90
 753 0842 0FB64518 		movzbl	24(%rbp), %eax
 754 0846 41884424 		movb	%al, 14(%r12)
 754      0E
 755              	.L90:
 756 084b 488B4500 		movq	0(%rbp), %rax
 757              	.L100:
 758 084f 4C8B6D08 		movq	8(%rbp), %r13
 759 0853 E9CEFDFF 		jmp	.L78
 759      FF
 760 0858 0F1F8400 		.p2align 4,,10
 760      00000000 
 761              		.p2align 3
 762              	.L102:
 763 0860 4883C201 		addq	$1, %rdx
 764              	.L91:
 765 0864 0FB64518 		movzbl	24(%rbp), %eax
 766 0868 4839DA   		cmpq	%rbx, %rdx
 767 086b 8842FF   		movb	%al, -1(%rdx)
 768 086e 75F0     		jne	.L102
 769 0870 EBD9     		jmp	.L90
 770              	.L101:
 771 0872 488D3500 		leaq	.LC2(%rip), %rsi
 771      000000
 772 0879 4889D7   		movq	%rdx, %rdi
 773 087c E8000000 		call	errPrefix@PLT
 773      00
 774 0881 488B5424 		movq	8(%rsp), %rdx
 774      08
 775 0886 488D3500 		leaq	.LC4(%rip), %rsi
 775      000000
 776 088d 4889D7   		movq	%rdx, %rdi
 777 0890 E8000000 		call	errPrefix@PLT
 777      00
 778 0895 B8010000 		movl	$1, %eax
 778      00
 779 089a E9A4FDFF 		jmp	.L82
 779      FF
 780              		.cfi_endproc
 781              	.LFE54:
 783              		.section	.rodata.str1.1
 784              	.LC5:
 785 0022 62756641 		.string	"bufAppendWordBE()"
 785      7070656E 
 785      64576F72 
 785      64424528 
 785      2900
 786              		.text
 787 089f 90       		.p2align 4,,15
 788              		.globl	bufAppendWordBE
 790              	bufAppendWordBE:
 791              	.LFB55:
 792              		.cfi_startproc
 793 08a0 4156     		pushq	%r14
 794              		.cfi_def_cfa_offset 16
 795              		.cfi_offset 14, -16
 796 08a2 4189F6   		movl	%esi, %r14d
 797 08a5 4155     		pushq	%r13
 798              		.cfi_def_cfa_offset 24
 799              		.cfi_offset 13, -24
 800 08a7 4154     		pushq	%r12
 801              		.cfi_def_cfa_offset 32
 802              		.cfi_offset 12, -32
 803 08a9 55       		pushq	%rbp
 804              		.cfi_def_cfa_offset 40
 805              		.cfi_offset 6, -40
 806 08aa 4889FD   		movq	%rdi, %rbp
 807 08ad 53       		pushq	%rbx
 808              		.cfi_def_cfa_offset 48
 809              		.cfi_offset 3, -48
 810 08ae 4883EC10 		subq	$16, %rsp
 811              		.cfi_def_cfa_offset 64
 812 08b2 4C8B6F08 		movq	8(%rdi), %r13
 813 08b6 488B5F10 		movq	16(%rdi), %rbx
 814 08ba 4D8D6502 		leaq	2(%r13), %r12
 815 08be 4939DC   		cmpq	%rbx, %r12
 816 08c1 7735     		ja	.L107
 817 08c3 488B07   		movq	(%rdi), %rax
 818              	.L105:
 819 08c6 4489F1   		movl	%r14d, %ecx
 820 08c9 0FB6D5   		movzbl	%ch, %edx
 821 08cc 42881428 		movb	%dl, (%rax,%r13)
 822 08d0 488B4508 		movq	8(%rbp), %rax
 823 08d4 488B5500 		movq	0(%rbp), %rdx
 824 08d8 44887402 		movb	%r14b, 1(%rdx,%rax)
 824      01
 825 08dd 48834508 		addq	$2, 8(%rbp)
 825      02
 826 08e2 31C0     		xorl	%eax, %eax
 827              	.L109:
 828 08e4 4883C410 		addq	$16, %rsp
 829              		.cfi_remember_state
 830              		.cfi_def_cfa_offset 48
 831 08e8 5B       		popq	%rbx
 832              		.cfi_def_cfa_offset 40
 833 08e9 5D       		popq	%rbp
 834              		.cfi_def_cfa_offset 32
 835 08ea 415C     		popq	%r12
 836              		.cfi_def_cfa_offset 24
 837 08ec 415D     		popq	%r13
 838              		.cfi_def_cfa_offset 16
 839 08ee 415E     		popq	%r14
 840              		.cfi_def_cfa_offset 8
 841 08f0 C3       		ret
 842              		.p2align 4,,10
 843 08f1 0F1F8000 		.p2align 3
 843      000000
 844              	.L107:
 845              		.cfi_restore_state
 846 08f8 4801DB   		addq	%rbx, %rbx
 847 08fb 4939DC   		cmpq	%rbx, %r12
 848 08fe 77F8     		ja	.L107
 849 0900 488B7D00 		movq	0(%rbp), %rdi
 850 0904 4889DE   		movq	%rbx, %rsi
 851 0907 48895424 		movq	%rdx, 8(%rsp)
 851      08
 852 090c E8000000 		call	realloc@PLT
 852      00
 853 0911 4885C0   		testq	%rax, %rax
 854 0914 488B5424 		movq	8(%rsp), %rdx
 854      08
 855 0919 0F84F301 		je	.L128
 855      0000
 856 091f 48895D10 		movq	%rbx, 16(%rbp)
 857 0923 4901C4   		addq	%rax, %r12
 858 0926 4801C3   		addq	%rax, %rbx
 859 0929 4939DC   		cmpq	%rbx, %r12
 860 092c 48894500 		movq	%rax, 0(%rbp)
 861 0930 0F83C101 		jnb	.L127
 861      0000
 862 0936 4C01E8   		addq	%r13, %rax
 863 0939 4889D9   		movq	%rbx, %rcx
 864 093c 4C8D4518 		leaq	24(%rbp), %r8
 865 0940 488D7002 		leaq	2(%rax), %rsi
 866 0944 4C29E1   		subq	%r12, %rcx
 867 0947 498D5424 		leaq	1(%r12), %rdx
 867      01
 868 094c 488D3C0E 		leaq	(%rsi,%rcx), %rdi
 869 0950 4939F8   		cmpq	%rdi, %r8
 870 0953 4C8D4519 		leaq	25(%rbp), %r8
 871 0957 400F93C7 		setnb	%dil
 872 095b 4C39C6   		cmpq	%r8, %rsi
 873 095e 400F93C6 		setnb	%sil
 874 0962 4008F7   		orb	%sil, %dil
 875 0965 0F849901 		je	.L118
 875      0000
 876 096b 4883F90F 		cmpq	$15, %rcx
 877 096f 0F868F01 		jbe	.L118
 877      0000
 878 0975 4889CE   		movq	%rcx, %rsi
 879 0978 31D2     		xorl	%edx, %edx
 880 097a 48C1EE04 		shrq	$4, %rsi
 881 097e 4889F7   		movq	%rsi, %rdi
 882 0981 48C1E704 		salq	$4, %rdi
 883              	.L116:
 884 0985 440FB64D 		movzbl	24(%rbp), %r9d
 884      18
 885 098a 4989D0   		movq	%rdx, %r8
 886 098d 4883C201 		addq	$1, %rdx
 887 0991 49C1E004 		salq	$4, %r8
 888 0995 4839D6   		cmpq	%rdx, %rsi
 889 0998 44884C24 		movb	%r9b, 8(%rsp)
 889      08
 890 099d 660F6E44 		movd	8(%rsp), %xmm0
 890      2408
 891 09a3 660F60C0 		punpcklbw	%xmm0, %xmm0
 892 09a7 660F61C0 		punpcklwd	%xmm0, %xmm0
 893 09ab 660F70C0 		pshufd	$0, %xmm0, %xmm0
 893      00
 894 09b0 F3420F7F 		movdqu	%xmm0, 2(%rax,%r8)
 894      440002
 895 09b7 77CC     		ja	.L116
 896 09b9 4901FC   		addq	%rdi, %r12
 897 09bc 4839F9   		cmpq	%rdi, %rcx
 898 09bf 0F842E01 		je	.L117
 898      0000
 899 09c5 0FB64518 		movzbl	24(%rbp), %eax
 900 09c9 41880424 		movb	%al, (%r12)
 901 09cd 498D4424 		leaq	1(%r12), %rax
 901      01
 902 09d2 4839C3   		cmpq	%rax, %rbx
 903 09d5 0F861801 		jbe	.L117
 903      0000
 904 09db 0FB64518 		movzbl	24(%rbp), %eax
 905 09df 41884424 		movb	%al, 1(%r12)
 905      01
 906 09e4 498D4424 		leaq	2(%r12), %rax
 906      02
 907 09e9 4839C3   		cmpq	%rax, %rbx
 908 09ec 0F860101 		jbe	.L117
 908      0000
 909 09f2 0FB64518 		movzbl	24(%rbp), %eax
 910 09f6 41884424 		movb	%al, 2(%r12)
 910      02
 911 09fb 498D4424 		leaq	3(%r12), %rax
 911      03
 912 0a00 4839C3   		cmpq	%rax, %rbx
 913 0a03 0F86EA00 		jbe	.L117
 913      0000
 914 0a09 0FB64518 		movzbl	24(%rbp), %eax
 915 0a0d 41884424 		movb	%al, 3(%r12)
 915      03
 916 0a12 498D4424 		leaq	4(%r12), %rax
 916      04
 917 0a17 4839C3   		cmpq	%rax, %rbx
 918 0a1a 0F86D300 		jbe	.L117
 918      0000
 919 0a20 0FB64518 		movzbl	24(%rbp), %eax
 920 0a24 41884424 		movb	%al, 4(%r12)
 920      04
 921 0a29 498D4424 		leaq	5(%r12), %rax
 921      05
 922 0a2e 4839C3   		cmpq	%rax, %rbx
 923 0a31 0F86BC00 		jbe	.L117
 923      0000
 924 0a37 0FB64518 		movzbl	24(%rbp), %eax
 925 0a3b 41884424 		movb	%al, 5(%r12)
 925      05
 926 0a40 498D4424 		leaq	6(%r12), %rax
 926      06
 927 0a45 4839C3   		cmpq	%rax, %rbx
 928 0a48 0F86A500 		jbe	.L117
 928      0000
 929 0a4e 0FB64518 		movzbl	24(%rbp), %eax
 930 0a52 41884424 		movb	%al, 6(%r12)
 930      06
 931 0a57 498D4424 		leaq	7(%r12), %rax
 931      07
 932 0a5c 4839C3   		cmpq	%rax, %rbx
 933 0a5f 0F868E00 		jbe	.L117
 933      0000
 934 0a65 0FB64518 		movzbl	24(%rbp), %eax
 935 0a69 41884424 		movb	%al, 7(%r12)
 935      07
 936 0a6e 498D4424 		leaq	8(%r12), %rax
 936      08
 937 0a73 4839C3   		cmpq	%rax, %rbx
 938 0a76 767B     		jbe	.L117
 939 0a78 0FB64518 		movzbl	24(%rbp), %eax
 940 0a7c 41884424 		movb	%al, 8(%r12)
 940      08
 941 0a81 498D4424 		leaq	9(%r12), %rax
 941      09
 942 0a86 4839C3   		cmpq	%rax, %rbx
 943 0a89 7668     		jbe	.L117
 944 0a8b 0FB64518 		movzbl	24(%rbp), %eax
 945 0a8f 41884424 		movb	%al, 9(%r12)
 945      09
 946 0a94 498D4424 		leaq	10(%r12), %rax
 946      0A
 947 0a99 4839C3   		cmpq	%rax, %rbx
 948 0a9c 7655     		jbe	.L117
 949 0a9e 0FB64518 		movzbl	24(%rbp), %eax
 950 0aa2 41884424 		movb	%al, 10(%r12)
 950      0A
 951 0aa7 498D4424 		leaq	11(%r12), %rax
 951      0B
 952 0aac 4839C3   		cmpq	%rax, %rbx
 953 0aaf 7642     		jbe	.L117
 954 0ab1 0FB64518 		movzbl	24(%rbp), %eax
 955 0ab5 41884424 		movb	%al, 11(%r12)
 955      0B
 956 0aba 498D4424 		leaq	12(%r12), %rax
 956      0C
 957 0abf 4839C3   		cmpq	%rax, %rbx
 958 0ac2 762F     		jbe	.L117
 959 0ac4 0FB64518 		movzbl	24(%rbp), %eax
 960 0ac8 41884424 		movb	%al, 12(%r12)
 960      0C
 961 0acd 498D4424 		leaq	13(%r12), %rax
 961      0D
 962 0ad2 4839C3   		cmpq	%rax, %rbx
 963 0ad5 761C     		jbe	.L117
 964 0ad7 0FB64518 		movzbl	24(%rbp), %eax
 965 0adb 41884424 		movb	%al, 13(%r12)
 965      0D
 966 0ae0 498D4424 		leaq	14(%r12), %rax
 966      0E
 967 0ae5 4839C3   		cmpq	%rax, %rbx
 968 0ae8 7609     		jbe	.L117
 969 0aea 0FB64518 		movzbl	24(%rbp), %eax
 970 0aee 41884424 		movb	%al, 14(%r12)
 970      0E
 971              	.L117:
 972 0af3 488B4500 		movq	0(%rbp), %rax
 973              	.L127:
 974 0af7 4C8B6D08 		movq	8(%rbp), %r13
 975 0afb E9C6FDFF 		jmp	.L105
 975      FF
 976              		.p2align 4,,10
 977              		.p2align 3
 978              	.L129:
 979 0b00 4883C201 		addq	$1, %rdx
 980              	.L118:
 981 0b04 0FB64518 		movzbl	24(%rbp), %eax
 982 0b08 4839DA   		cmpq	%rbx, %rdx
 983 0b0b 8842FF   		movb	%al, -1(%rdx)
 984 0b0e 75F0     		jne	.L129
 985 0b10 EBE1     		jmp	.L117
 986              	.L128:
 987 0b12 488D3500 		leaq	.LC2(%rip), %rsi
 987      000000
 988 0b19 4889D7   		movq	%rdx, %rdi
 989 0b1c E8000000 		call	errPrefix@PLT
 989      00
 990 0b21 488B5424 		movq	8(%rsp), %rdx
 990      08
 991 0b26 488D3500 		leaq	.LC5(%rip), %rsi
 991      000000
 992 0b2d 4889D7   		movq	%rdx, %rdi
 993 0b30 E8000000 		call	errPrefix@PLT
 993      00
 994 0b35 B8010000 		movl	$1, %eax
 994      00
 995 0b3a E9A5FDFF 		jmp	.L109
 995      FF
 996              		.cfi_endproc
 997              	.LFE55:
 999              		.section	.rodata.str1.1
 1000              	.LC6:
 1001 0034 62756641 		.string	"bufAppendLongLE()"
 1001      7070656E 
 1001      644C6F6E 
 1001      674C4528 
 1001      2900
 1002              		.text
 1003 0b3f 90       		.p2align 4,,15
 1004              		.globl	bufAppendLongLE
 1006              	bufAppendLongLE:
 1007              	.LFB56:
 1008              		.cfi_startproc
 1009 0b40 4156     		pushq	%r14
 1010              		.cfi_def_cfa_offset 16
 1011              		.cfi_offset 14, -16
 1012 0b42 4155     		pushq	%r13
 1013              		.cfi_def_cfa_offset 24
 1014              		.cfi_offset 13, -24
 1015 0b44 4189F5   		movl	%esi, %r13d
 1016 0b47 4154     		pushq	%r12
 1017              		.cfi_def_cfa_offset 32
 1018              		.cfi_offset 12, -32
 1019 0b49 55       		pushq	%rbp
 1020              		.cfi_def_cfa_offset 40
 1021              		.cfi_offset 6, -40
 1022 0b4a 53       		pushq	%rbx
 1023              		.cfi_def_cfa_offset 48
 1024              		.cfi_offset 3, -48
 1025 0b4b 4889FB   		movq	%rdi, %rbx
 1026 0b4e 4883EC10 		subq	$16, %rsp
 1027              		.cfi_def_cfa_offset 64
 1028 0b52 4C8B7708 		movq	8(%rdi), %r14
 1029 0b56 488B6F10 		movq	16(%rdi), %rbp
 1030 0b5a 4D8D6604 		leaq	4(%r14), %r12
 1031 0b5e 4939EC   		cmpq	%rbp, %r12
 1032 0b61 774D     		ja	.L134
 1033 0b63 488B07   		movq	(%rdi), %rax
 1034              	.L132:
 1035 0b66 46882C30 		movb	%r13b, (%rax,%r14)
 1036 0b6a 488B4308 		movq	8(%rbx), %rax
 1037 0b6e 4489E9   		movl	%r13d, %ecx
 1038 0b71 488B13   		movq	(%rbx), %rdx
 1039 0b74 0FB6CD   		movzbl	%ch, %ecx
 1040 0b77 884C0201 		movb	%cl, 1(%rdx,%rax)
 1041 0b7b 488B4308 		movq	8(%rbx), %rax
 1042 0b7f 4489E9   		movl	%r13d, %ecx
 1043 0b82 488B13   		movq	(%rbx), %rdx
 1044 0b85 C1E910   		shrl	$16, %ecx
 1045 0b88 41C1ED18 		shrl	$24, %r13d
 1046 0b8c 884C0202 		movb	%cl, 2(%rdx,%rax)
 1047 0b90 488B4308 		movq	8(%rbx), %rax
 1048 0b94 488B13   		movq	(%rbx), %rdx
 1049 0b97 44886C02 		movb	%r13b, 3(%rdx,%rax)
 1049      03
 1050 0b9c 48834308 		addq	$4, 8(%rbx)
 1050      04
 1051 0ba1 31C0     		xorl	%eax, %eax
 1052              	.L136:
 1053 0ba3 4883C410 		addq	$16, %rsp
 1054              		.cfi_remember_state
 1055              		.cfi_def_cfa_offset 48
 1056 0ba7 5B       		popq	%rbx
 1057              		.cfi_def_cfa_offset 40
 1058 0ba8 5D       		popq	%rbp
 1059              		.cfi_def_cfa_offset 32
 1060 0ba9 415C     		popq	%r12
 1061              		.cfi_def_cfa_offset 24
 1062 0bab 415D     		popq	%r13
 1063              		.cfi_def_cfa_offset 16
 1064 0bad 415E     		popq	%r14
 1065              		.cfi_def_cfa_offset 8
 1066 0baf C3       		ret
 1067              		.p2align 4,,10
 1068              		.p2align 3
 1069              	.L134:
 1070              		.cfi_restore_state
 1071 0bb0 4801ED   		addq	%rbp, %rbp
 1072 0bb3 4939EC   		cmpq	%rbp, %r12
 1073 0bb6 77F8     		ja	.L134
 1074 0bb8 488B3B   		movq	(%rbx), %rdi
 1075 0bbb 4889EE   		movq	%rbp, %rsi
 1076 0bbe 48895424 		movq	%rdx, 8(%rsp)
 1076      08
 1077 0bc3 E8000000 		call	realloc@PLT
 1077      00
 1078 0bc8 4885C0   		testq	%rax, %rax
 1079 0bcb 488B5424 		movq	8(%rsp), %rdx
 1079      08
 1080 0bd0 0F84F401 		je	.L155
 1080      0000
 1081 0bd6 48896B10 		movq	%rbp, 16(%rbx)
 1082 0bda 4901C4   		addq	%rax, %r12
 1083 0bdd 4801C5   		addq	%rax, %rbp
 1084 0be0 4939EC   		cmpq	%rbp, %r12
 1085 0be3 488903   		movq	%rax, (%rbx)
 1086 0be6 0F83C001 		jnb	.L154
 1086      0000
 1087 0bec 4C01F0   		addq	%r14, %rax
 1088 0bef 4889E9   		movq	%rbp, %rcx
 1089 0bf2 4C8D4318 		leaq	24(%rbx), %r8
 1090 0bf6 488D7004 		leaq	4(%rax), %rsi
 1091 0bfa 4C29E1   		subq	%r12, %rcx
 1092 0bfd 498D5424 		leaq	1(%r12), %rdx
 1092      01
 1093 0c02 488D3C0E 		leaq	(%rsi,%rcx), %rdi
 1094 0c06 4939F8   		cmpq	%rdi, %r8
 1095 0c09 4C8D4319 		leaq	25(%rbx), %r8
 1096 0c0d 400F93C7 		setnb	%dil
 1097 0c11 4C39C6   		cmpq	%r8, %rsi
 1098 0c14 400F93C6 		setnb	%sil
 1099 0c18 4008F7   		orb	%sil, %dil
 1100 0c1b 0F849B01 		je	.L145
 1100      0000
 1101 0c21 4883F90F 		cmpq	$15, %rcx
 1102 0c25 0F869101 		jbe	.L145
 1102      0000
 1103 0c2b 4889CE   		movq	%rcx, %rsi
 1104 0c2e 31D2     		xorl	%edx, %edx
 1105 0c30 48C1EE04 		shrq	$4, %rsi
 1106 0c34 4889F7   		movq	%rsi, %rdi
 1107 0c37 48C1E704 		salq	$4, %rdi
 1108              	.L143:
 1109 0c3b 440FB64B 		movzbl	24(%rbx), %r9d
 1109      18
 1110 0c40 4989D0   		movq	%rdx, %r8
 1111 0c43 4883C201 		addq	$1, %rdx
 1112 0c47 49C1E004 		salq	$4, %r8
 1113 0c4b 4839D6   		cmpq	%rdx, %rsi
 1114 0c4e 44884C24 		movb	%r9b, 8(%rsp)
 1114      08
 1115 0c53 660F6E44 		movd	8(%rsp), %xmm0
 1115      2408
 1116 0c59 660F60C0 		punpcklbw	%xmm0, %xmm0
 1117 0c5d 660F61C0 		punpcklwd	%xmm0, %xmm0
 1118 0c61 660F70C0 		pshufd	$0, %xmm0, %xmm0
 1118      00
 1119 0c66 F3420F7F 		movdqu	%xmm0, 4(%rax,%r8)
 1119      440004
 1120 0c6d 77CC     		ja	.L143
 1121 0c6f 4901FC   		addq	%rdi, %r12
 1122 0c72 4839F9   		cmpq	%rdi, %rcx
 1123 0c75 0F842E01 		je	.L144
 1123      0000
 1124 0c7b 0FB64318 		movzbl	24(%rbx), %eax
 1125 0c7f 41880424 		movb	%al, (%r12)
 1126 0c83 498D4424 		leaq	1(%r12), %rax
 1126      01
 1127 0c88 4839C5   		cmpq	%rax, %rbp
 1128 0c8b 0F861801 		jbe	.L144
 1128      0000
 1129 0c91 0FB64318 		movzbl	24(%rbx), %eax
 1130 0c95 41884424 		movb	%al, 1(%r12)
 1130      01
 1131 0c9a 498D4424 		leaq	2(%r12), %rax
 1131      02
 1132 0c9f 4839C5   		cmpq	%rax, %rbp
 1133 0ca2 0F860101 		jbe	.L144
 1133      0000
 1134 0ca8 0FB64318 		movzbl	24(%rbx), %eax
 1135 0cac 41884424 		movb	%al, 2(%r12)
 1135      02
 1136 0cb1 498D4424 		leaq	3(%r12), %rax
 1136      03
 1137 0cb6 4839C5   		cmpq	%rax, %rbp
 1138 0cb9 0F86EA00 		jbe	.L144
 1138      0000
 1139 0cbf 0FB64318 		movzbl	24(%rbx), %eax
 1140 0cc3 41884424 		movb	%al, 3(%r12)
 1140      03
 1141 0cc8 498D4424 		leaq	4(%r12), %rax
 1141      04
 1142 0ccd 4839C5   		cmpq	%rax, %rbp
 1143 0cd0 0F86D300 		jbe	.L144
 1143      0000
 1144 0cd6 0FB64318 		movzbl	24(%rbx), %eax
 1145 0cda 41884424 		movb	%al, 4(%r12)
 1145      04
 1146 0cdf 498D4424 		leaq	5(%r12), %rax
 1146      05
 1147 0ce4 4839C5   		cmpq	%rax, %rbp
 1148 0ce7 0F86BC00 		jbe	.L144
 1148      0000
 1149 0ced 0FB64318 		movzbl	24(%rbx), %eax
 1150 0cf1 41884424 		movb	%al, 5(%r12)
 1150      05
 1151 0cf6 498D4424 		leaq	6(%r12), %rax
 1151      06
 1152 0cfb 4839C5   		cmpq	%rax, %rbp
 1153 0cfe 0F86A500 		jbe	.L144
 1153      0000
 1154 0d04 0FB64318 		movzbl	24(%rbx), %eax
 1155 0d08 41884424 		movb	%al, 6(%r12)
 1155      06
 1156 0d0d 498D4424 		leaq	7(%r12), %rax
 1156      07
 1157 0d12 4839C5   		cmpq	%rax, %rbp
 1158 0d15 0F868E00 		jbe	.L144
 1158      0000
 1159 0d1b 0FB64318 		movzbl	24(%rbx), %eax
 1160 0d1f 41884424 		movb	%al, 7(%r12)
 1160      07
 1161 0d24 498D4424 		leaq	8(%r12), %rax
 1161      08
 1162 0d29 4839C5   		cmpq	%rax, %rbp
 1163 0d2c 767B     		jbe	.L144
 1164 0d2e 0FB64318 		movzbl	24(%rbx), %eax
 1165 0d32 41884424 		movb	%al, 8(%r12)
 1165      08
 1166 0d37 498D4424 		leaq	9(%r12), %rax
 1166      09
 1167 0d3c 4839C5   		cmpq	%rax, %rbp
 1168 0d3f 7668     		jbe	.L144
 1169 0d41 0FB64318 		movzbl	24(%rbx), %eax
 1170 0d45 41884424 		movb	%al, 9(%r12)
 1170      09
 1171 0d4a 498D4424 		leaq	10(%r12), %rax
 1171      0A
 1172 0d4f 4839C5   		cmpq	%rax, %rbp
 1173 0d52 7655     		jbe	.L144
 1174 0d54 0FB64318 		movzbl	24(%rbx), %eax
 1175 0d58 41884424 		movb	%al, 10(%r12)
 1175      0A
 1176 0d5d 498D4424 		leaq	11(%r12), %rax
 1176      0B
 1177 0d62 4839C5   		cmpq	%rax, %rbp
 1178 0d65 7642     		jbe	.L144
 1179 0d67 0FB64318 		movzbl	24(%rbx), %eax
 1180 0d6b 41884424 		movb	%al, 11(%r12)
 1180      0B
 1181 0d70 498D4424 		leaq	12(%r12), %rax
 1181      0C
 1182 0d75 4839C5   		cmpq	%rax, %rbp
 1183 0d78 762F     		jbe	.L144
 1184 0d7a 0FB64318 		movzbl	24(%rbx), %eax
 1185 0d7e 41884424 		movb	%al, 12(%r12)
 1185      0C
 1186 0d83 498D4424 		leaq	13(%r12), %rax
 1186      0D
 1187 0d88 4839C5   		cmpq	%rax, %rbp
 1188 0d8b 761C     		jbe	.L144
 1189 0d8d 0FB64318 		movzbl	24(%rbx), %eax
 1190 0d91 41884424 		movb	%al, 13(%r12)
 1190      0D
 1191 0d96 498D4424 		leaq	14(%r12), %rax
 1191      0E
 1192 0d9b 4839C5   		cmpq	%rax, %rbp
 1193 0d9e 7609     		jbe	.L144
 1194 0da0 0FB64318 		movzbl	24(%rbx), %eax
 1195 0da4 41884424 		movb	%al, 14(%r12)
 1195      0E
 1196              	.L144:
 1197 0da9 488B03   		movq	(%rbx), %rax
 1198              	.L154:
 1199 0dac 4C8B7308 		movq	8(%rbx), %r14
 1200 0db0 E9B1FDFF 		jmp	.L132
 1200      FF
 1201              		.p2align 4,,10
 1202 0db5 0F1F00   		.p2align 3
 1203              	.L156:
 1204 0db8 4883C201 		addq	$1, %rdx
 1205              	.L145:
 1206 0dbc 0FB64318 		movzbl	24(%rbx), %eax
 1207 0dc0 4839EA   		cmpq	%rbp, %rdx
 1208 0dc3 8842FF   		movb	%al, -1(%rdx)
 1209 0dc6 75F0     		jne	.L156
 1210 0dc8 EBDF     		jmp	.L144
 1211              	.L155:
 1212 0dca 488D3500 		leaq	.LC2(%rip), %rsi
 1212      000000
 1213 0dd1 4889D7   		movq	%rdx, %rdi
 1214 0dd4 E8000000 		call	errPrefix@PLT
 1214      00
 1215 0dd9 488B5424 		movq	8(%rsp), %rdx
 1215      08
 1216 0dde 488D3500 		leaq	.LC6(%rip), %rsi
 1216      000000
 1217 0de5 4889D7   		movq	%rdx, %rdi
 1218 0de8 E8000000 		call	errPrefix@PLT
 1218      00
 1219 0ded B8010000 		movl	$1, %eax
 1219      00
 1220 0df2 E9ACFDFF 		jmp	.L136
 1220      FF
 1221              		.cfi_endproc
 1222              	.LFE56:
 1224              		.section	.rodata.str1.1
 1225              	.LC7:
 1226 0046 62756641 		.string	"bufAppendLongBE()"
 1226      7070656E 
 1226      644C6F6E 
 1226      67424528 
 1226      2900
 1227              		.text
 1228 0df7 660F1F84 		.p2align 4,,15
 1228      00000000 
 1228      00
 1229              		.globl	bufAppendLongBE
 1231              	bufAppendLongBE:
 1232              	.LFB57:
 1233              		.cfi_startproc
 1234 0e00 4156     		pushq	%r14
 1235              		.cfi_def_cfa_offset 16
 1236              		.cfi_offset 14, -16
 1237 0e02 4155     		pushq	%r13
 1238              		.cfi_def_cfa_offset 24
 1239              		.cfi_offset 13, -24
 1240 0e04 4189F5   		movl	%esi, %r13d
 1241 0e07 4154     		pushq	%r12
 1242              		.cfi_def_cfa_offset 32
 1243              		.cfi_offset 12, -32
 1244 0e09 55       		pushq	%rbp
 1245              		.cfi_def_cfa_offset 40
 1246              		.cfi_offset 6, -40
 1247 0e0a 53       		pushq	%rbx
 1248              		.cfi_def_cfa_offset 48
 1249              		.cfi_offset 3, -48
 1250 0e0b 4889FB   		movq	%rdi, %rbx
 1251 0e0e 4883EC10 		subq	$16, %rsp
 1252              		.cfi_def_cfa_offset 64
 1253 0e12 4C8B7708 		movq	8(%rdi), %r14
 1254 0e16 488B6F10 		movq	16(%rdi), %rbp
 1255 0e1a 4D8D6604 		leaq	4(%r14), %r12
 1256 0e1e 4939EC   		cmpq	%rbp, %r12
 1257 0e21 7755     		ja	.L161
 1258 0e23 488B07   		movq	(%rdi), %rax
 1259              	.L159:
 1260 0e26 4489EA   		movl	%r13d, %edx
 1261 0e29 4489E9   		movl	%r13d, %ecx
 1262 0e2c C1EA18   		shrl	$24, %edx
 1263 0e2f C1E910   		shrl	$16, %ecx
 1264 0e32 42881430 		movb	%dl, (%rax,%r14)
 1265 0e36 488B4308 		movq	8(%rbx), %rax
 1266 0e3a 488B13   		movq	(%rbx), %rdx
 1267 0e3d 884C0201 		movb	%cl, 1(%rdx,%rax)
 1268 0e41 488B4308 		movq	8(%rbx), %rax
 1269 0e45 4489E9   		movl	%r13d, %ecx
 1270 0e48 488B13   		movq	(%rbx), %rdx
 1271 0e4b 0FB6CD   		movzbl	%ch, %ecx
 1272 0e4e 884C0202 		movb	%cl, 2(%rdx,%rax)
 1273 0e52 488B4308 		movq	8(%rbx), %rax
 1274 0e56 488B13   		movq	(%rbx), %rdx
 1275 0e59 44886C02 		movb	%r13b, 3(%rdx,%rax)
 1275      03
 1276 0e5e 48834308 		addq	$4, 8(%rbx)
 1276      04
 1277 0e63 31C0     		xorl	%eax, %eax
 1278              	.L163:
 1279 0e65 4883C410 		addq	$16, %rsp
 1280              		.cfi_remember_state
 1281              		.cfi_def_cfa_offset 48
 1282 0e69 5B       		popq	%rbx
 1283              		.cfi_def_cfa_offset 40
 1284 0e6a 5D       		popq	%rbp
 1285              		.cfi_def_cfa_offset 32
 1286 0e6b 415C     		popq	%r12
 1287              		.cfi_def_cfa_offset 24
 1288 0e6d 415D     		popq	%r13
 1289              		.cfi_def_cfa_offset 16
 1290 0e6f 415E     		popq	%r14
 1291              		.cfi_def_cfa_offset 8
 1292 0e71 C3       		ret
 1293              		.p2align 4,,10
 1294 0e72 660F1F44 		.p2align 3
 1294      0000
 1295              	.L161:
 1296              		.cfi_restore_state
 1297 0e78 4801ED   		addq	%rbp, %rbp
 1298 0e7b 4939EC   		cmpq	%rbp, %r12
 1299 0e7e 77F8     		ja	.L161
 1300 0e80 488B3B   		movq	(%rbx), %rdi
 1301 0e83 4889EE   		movq	%rbp, %rsi
 1302 0e86 48895424 		movq	%rdx, 8(%rsp)
 1302      08
 1303 0e8b E8000000 		call	realloc@PLT
 1303      00
 1304 0e90 4885C0   		testq	%rax, %rax
 1305 0e93 488B5424 		movq	8(%rsp), %rdx
 1305      08
 1306 0e98 0F84F401 		je	.L182
 1306      0000
 1307 0e9e 48896B10 		movq	%rbp, 16(%rbx)
 1308 0ea2 4901C4   		addq	%rax, %r12
 1309 0ea5 4801C5   		addq	%rax, %rbp
 1310 0ea8 4939EC   		cmpq	%rbp, %r12
 1311 0eab 488903   		movq	%rax, (%rbx)
 1312 0eae 0F83C001 		jnb	.L181
 1312      0000
 1313 0eb4 4C01F0   		addq	%r14, %rax
 1314 0eb7 4889E9   		movq	%rbp, %rcx
 1315 0eba 4C8D4318 		leaq	24(%rbx), %r8
 1316 0ebe 488D7004 		leaq	4(%rax), %rsi
 1317 0ec2 4C29E1   		subq	%r12, %rcx
 1318 0ec5 498D5424 		leaq	1(%r12), %rdx
 1318      01
 1319 0eca 488D3C0E 		leaq	(%rsi,%rcx), %rdi
 1320 0ece 4939F8   		cmpq	%rdi, %r8
 1321 0ed1 4C8D4319 		leaq	25(%rbx), %r8
 1322 0ed5 400F93C7 		setnb	%dil
 1323 0ed9 4C39C6   		cmpq	%r8, %rsi
 1324 0edc 400F93C6 		setnb	%sil
 1325 0ee0 4008F7   		orb	%sil, %dil
 1326 0ee3 0F849B01 		je	.L172
 1326      0000
 1327 0ee9 4883F90F 		cmpq	$15, %rcx
 1328 0eed 0F869101 		jbe	.L172
 1328      0000
 1329 0ef3 4889CE   		movq	%rcx, %rsi
 1330 0ef6 31D2     		xorl	%edx, %edx
 1331 0ef8 48C1EE04 		shrq	$4, %rsi
 1332 0efc 4889F7   		movq	%rsi, %rdi
 1333 0eff 48C1E704 		salq	$4, %rdi
 1334              	.L170:
 1335 0f03 440FB64B 		movzbl	24(%rbx), %r9d
 1335      18
 1336 0f08 4989D0   		movq	%rdx, %r8
 1337 0f0b 4883C201 		addq	$1, %rdx
 1338 0f0f 49C1E004 		salq	$4, %r8
 1339 0f13 4839D6   		cmpq	%rdx, %rsi
 1340 0f16 44884C24 		movb	%r9b, 8(%rsp)
 1340      08
 1341 0f1b 660F6E44 		movd	8(%rsp), %xmm0
 1341      2408
 1342 0f21 660F60C0 		punpcklbw	%xmm0, %xmm0
 1343 0f25 660F61C0 		punpcklwd	%xmm0, %xmm0
 1344 0f29 660F70C0 		pshufd	$0, %xmm0, %xmm0
 1344      00
 1345 0f2e F3420F7F 		movdqu	%xmm0, 4(%rax,%r8)
 1345      440004
 1346 0f35 77CC     		ja	.L170
 1347 0f37 4901FC   		addq	%rdi, %r12
 1348 0f3a 4839F9   		cmpq	%rdi, %rcx
 1349 0f3d 0F842E01 		je	.L171
 1349      0000
 1350 0f43 0FB64318 		movzbl	24(%rbx), %eax
 1351 0f47 41880424 		movb	%al, (%r12)
 1352 0f4b 498D4424 		leaq	1(%r12), %rax
 1352      01
 1353 0f50 4839C5   		cmpq	%rax, %rbp
 1354 0f53 0F861801 		jbe	.L171
 1354      0000
 1355 0f59 0FB64318 		movzbl	24(%rbx), %eax
 1356 0f5d 41884424 		movb	%al, 1(%r12)
 1356      01
 1357 0f62 498D4424 		leaq	2(%r12), %rax
 1357      02
 1358 0f67 4839C5   		cmpq	%rax, %rbp
 1359 0f6a 0F860101 		jbe	.L171
 1359      0000
 1360 0f70 0FB64318 		movzbl	24(%rbx), %eax
 1361 0f74 41884424 		movb	%al, 2(%r12)
 1361      02
 1362 0f79 498D4424 		leaq	3(%r12), %rax
 1362      03
 1363 0f7e 4839C5   		cmpq	%rax, %rbp
 1364 0f81 0F86EA00 		jbe	.L171
 1364      0000
 1365 0f87 0FB64318 		movzbl	24(%rbx), %eax
 1366 0f8b 41884424 		movb	%al, 3(%r12)
 1366      03
 1367 0f90 498D4424 		leaq	4(%r12), %rax
 1367      04
 1368 0f95 4839C5   		cmpq	%rax, %rbp
 1369 0f98 0F86D300 		jbe	.L171
 1369      0000
 1370 0f9e 0FB64318 		movzbl	24(%rbx), %eax
 1371 0fa2 41884424 		movb	%al, 4(%r12)
 1371      04
 1372 0fa7 498D4424 		leaq	5(%r12), %rax
 1372      05
 1373 0fac 4839C5   		cmpq	%rax, %rbp
 1374 0faf 0F86BC00 		jbe	.L171
 1374      0000
 1375 0fb5 0FB64318 		movzbl	24(%rbx), %eax
 1376 0fb9 41884424 		movb	%al, 5(%r12)
 1376      05
 1377 0fbe 498D4424 		leaq	6(%r12), %rax
 1377      06
 1378 0fc3 4839C5   		cmpq	%rax, %rbp
 1379 0fc6 0F86A500 		jbe	.L171
 1379      0000
 1380 0fcc 0FB64318 		movzbl	24(%rbx), %eax
 1381 0fd0 41884424 		movb	%al, 6(%r12)
 1381      06
 1382 0fd5 498D4424 		leaq	7(%r12), %rax
 1382      07
 1383 0fda 4839C5   		cmpq	%rax, %rbp
 1384 0fdd 0F868E00 		jbe	.L171
 1384      0000
 1385 0fe3 0FB64318 		movzbl	24(%rbx), %eax
 1386 0fe7 41884424 		movb	%al, 7(%r12)
 1386      07
 1387 0fec 498D4424 		leaq	8(%r12), %rax
 1387      08
 1388 0ff1 4839C5   		cmpq	%rax, %rbp
 1389 0ff4 767B     		jbe	.L171
 1390 0ff6 0FB64318 		movzbl	24(%rbx), %eax
 1391 0ffa 41884424 		movb	%al, 8(%r12)
 1391      08
 1392 0fff 498D4424 		leaq	9(%r12), %rax
 1392      09
 1393 1004 4839C5   		cmpq	%rax, %rbp
 1394 1007 7668     		jbe	.L171
 1395 1009 0FB64318 		movzbl	24(%rbx), %eax
 1396 100d 41884424 		movb	%al, 9(%r12)
 1396      09
 1397 1012 498D4424 		leaq	10(%r12), %rax
 1397      0A
 1398 1017 4839C5   		cmpq	%rax, %rbp
 1399 101a 7655     		jbe	.L171
 1400 101c 0FB64318 		movzbl	24(%rbx), %eax
 1401 1020 41884424 		movb	%al, 10(%r12)
 1401      0A
 1402 1025 498D4424 		leaq	11(%r12), %rax
 1402      0B
 1403 102a 4839C5   		cmpq	%rax, %rbp
 1404 102d 7642     		jbe	.L171
 1405 102f 0FB64318 		movzbl	24(%rbx), %eax
 1406 1033 41884424 		movb	%al, 11(%r12)
 1406      0B
 1407 1038 498D4424 		leaq	12(%r12), %rax
 1407      0C
 1408 103d 4839C5   		cmpq	%rax, %rbp
 1409 1040 762F     		jbe	.L171
 1410 1042 0FB64318 		movzbl	24(%rbx), %eax
 1411 1046 41884424 		movb	%al, 12(%r12)
 1411      0C
 1412 104b 498D4424 		leaq	13(%r12), %rax
 1412      0D
 1413 1050 4839C5   		cmpq	%rax, %rbp
 1414 1053 761C     		jbe	.L171
 1415 1055 0FB64318 		movzbl	24(%rbx), %eax
 1416 1059 41884424 		movb	%al, 13(%r12)
 1416      0D
 1417 105e 498D4424 		leaq	14(%r12), %rax
 1417      0E
 1418 1063 4839C5   		cmpq	%rax, %rbp
 1419 1066 7609     		jbe	.L171
 1420 1068 0FB64318 		movzbl	24(%rbx), %eax
 1421 106c 41884424 		movb	%al, 14(%r12)
 1421      0E
 1422              	.L171:
 1423 1071 488B03   		movq	(%rbx), %rax
 1424              	.L181:
 1425 1074 4C8B7308 		movq	8(%rbx), %r14
 1426 1078 E9A9FDFF 		jmp	.L159
 1426      FF
 1427 107d 0F1F00   		.p2align 4,,10
 1428              		.p2align 3
 1429              	.L183:
 1430 1080 4883C201 		addq	$1, %rdx
 1431              	.L172:
 1432 1084 0FB64318 		movzbl	24(%rbx), %eax
 1433 1088 4839EA   		cmpq	%rbp, %rdx
 1434 108b 8842FF   		movb	%al, -1(%rdx)
 1435 108e 75F0     		jne	.L183
 1436 1090 EBDF     		jmp	.L171
 1437              	.L182:
 1438 1092 488D3500 		leaq	.LC2(%rip), %rsi
 1438      000000
 1439 1099 4889D7   		movq	%rdx, %rdi
 1440 109c E8000000 		call	errPrefix@PLT
 1440      00
 1441 10a1 488B5424 		movq	8(%rsp), %rdx
 1441      08
 1442 10a6 488D3500 		leaq	.LC7(%rip), %rsi
 1442      000000
 1443 10ad 4889D7   		movq	%rdx, %rdi
 1444 10b0 E8000000 		call	errPrefix@PLT
 1444      00
 1445 10b5 B8010000 		movl	$1, %eax
 1445      00
 1446 10ba E9A6FDFF 		jmp	.L163
 1446      FF
 1447              		.cfi_endproc
 1448              	.LFE57:
 1450              		.section	.rodata.str1.1
 1451              	.LC8:
 1452 0058 62756641 		.string	"bufAppendConst()"
 1452      7070656E 
 1452      64436F6E 
 1452      73742829 
 1452      00
 1453              		.text
 1454 10bf 90       		.p2align 4,,15
 1455              		.globl	bufAppendConst
 1457              	bufAppendConst:
 1458              	.LFB58:
 1459              		.cfi_startproc
 1460 10c0 4155     		pushq	%r13
 1461              		.cfi_def_cfa_offset 16
 1462              		.cfi_offset 13, -16
 1463 10c2 4189F5   		movl	%esi, %r13d
 1464 10c5 4154     		pushq	%r12
 1465              		.cfi_def_cfa_offset 24
 1466              		.cfi_offset 12, -24
 1467 10c7 55       		pushq	%rbp
 1468              		.cfi_def_cfa_offset 32
 1469              		.cfi_offset 6, -32
 1470 10c8 4889FD   		movq	%rdi, %rbp
 1471 10cb 53       		pushq	%rbx
 1472              		.cfi_def_cfa_offset 40
 1473              		.cfi_offset 3, -40
 1474 10cc 4883EC18 		subq	$24, %rsp
 1475              		.cfi_def_cfa_offset 64
 1476 10d0 4C8B4708 		movq	8(%rdi), %r8
 1477 10d4 488B5F10 		movq	16(%rdi), %rbx
 1478 10d8 4E8D2402 		leaq	(%rdx,%r8), %r12
 1479 10dc 4939DC   		cmpq	%rbx, %r12
 1480 10df 7727     		ja	.L188
 1481 10e1 488B3F   		movq	(%rdi), %rdi
 1482              	.L186:
 1483 10e4 410FB6F5 		movzbl	%r13b, %esi
 1484 10e8 4C01C7   		addq	%r8, %rdi
 1485 10eb E8000000 		call	memset@PLT
 1485      00
 1486 10f0 4C896508 		movq	%r12, 8(%rbp)
 1487 10f4 31C0     		xorl	%eax, %eax
 1488              	.L190:
 1489 10f6 4883C418 		addq	$24, %rsp
 1490              		.cfi_remember_state
 1491              		.cfi_def_cfa_offset 40
 1492 10fa 5B       		popq	%rbx
 1493              		.cfi_def_cfa_offset 32
 1494 10fb 5D       		popq	%rbp
 1495              		.cfi_def_cfa_offset 24
 1496 10fc 415C     		popq	%r12
 1497              		.cfi_def_cfa_offset 16
 1498 10fe 415D     		popq	%r13
 1499              		.cfi_def_cfa_offset 8
 1500 1100 C3       		ret
 1501              		.p2align 4,,10
 1502 1101 0F1F8000 		.p2align 3
 1502      000000
 1503              	.L188:
 1504              		.cfi_restore_state
 1505 1108 4801DB   		addq	%rbx, %rbx
 1506 110b 4939DC   		cmpq	%rbx, %r12
 1507 110e 77F8     		ja	.L188
 1508 1110 488B7D00 		movq	0(%rbp), %rdi
 1509 1114 4889DE   		movq	%rbx, %rsi
 1510 1117 48894C24 		movq	%rcx, 8(%rsp)
 1510      08
 1511 111c 48891424 		movq	%rdx, (%rsp)
 1512 1120 E8000000 		call	realloc@PLT
 1512      00
 1513 1125 4885C0   		testq	%rax, %rax
 1514 1128 488B1424 		movq	(%rsp), %rdx
 1515 112c 488B4C24 		movq	8(%rsp), %rcx
 1515      08
 1516 1131 0F84C701 		je	.L208
 1516      0000
 1517 1137 4A8D3420 		leaq	(%rax,%r12), %rsi
 1518 113b 48895D10 		movq	%rbx, 16(%rbp)
 1519 113f 4801C3   		addq	%rax, %rbx
 1520 1142 48894500 		movq	%rax, 0(%rbp)
 1521 1146 4839DE   		cmpq	%rbx, %rsi
 1522 1149 0F83A301 		jnb	.L209
 1522      0000
 1523 114f 488D4518 		leaq	24(%rbp), %rax
 1524 1153 4889DF   		movq	%rbx, %rdi
 1525 1156 488D4E01 		leaq	1(%rsi), %rcx
 1526 115a 4829F7   		subq	%rsi, %rdi
 1527 115d 4839C3   		cmpq	%rax, %rbx
 1528 1160 488D4519 		leaq	25(%rbp), %rax
 1529 1164 410F96C0 		setbe	%r8b
 1530 1168 4839C6   		cmpq	%rax, %rsi
 1531 116b 0F93C0   		setnb	%al
 1532 116e 4108C0   		orb	%al, %r8b
 1533 1171 0F846D01 		je	.L199
 1533      0000
 1534 1177 4883FF0F 		cmpq	$15, %rdi
 1535 117b 0F866301 		jbe	.L199
 1535      0000
 1536 1181 4889F9   		movq	%rdi, %rcx
 1537 1184 31C0     		xorl	%eax, %eax
 1538 1186 48C1E904 		shrq	$4, %rcx
 1539 118a 4989C8   		movq	%rcx, %r8
 1540 118d 49C1E004 		salq	$4, %r8
 1541              	.L197:
 1542 1191 440FB655 		movzbl	24(%rbp), %r10d
 1542      18
 1543 1196 4989C1   		movq	%rax, %r9
 1544 1199 4883C001 		addq	$1, %rax
 1545 119d 49C1E104 		salq	$4, %r9
 1546 11a1 4839C1   		cmpq	%rax, %rcx
 1547 11a4 44881424 		movb	%r10b, (%rsp)
 1548 11a8 660F6E04 		movd	(%rsp), %xmm0
 1548      24
 1549 11ad 660F60C0 		punpcklbw	%xmm0, %xmm0
 1550 11b1 660F61C0 		punpcklwd	%xmm0, %xmm0
 1551 11b5 660F70C0 		pshufd	$0, %xmm0, %xmm0
 1551      00
 1552 11ba F3420F7F 		movdqu	%xmm0, (%rsi,%r9)
 1552      040E
 1553 11c0 77CF     		ja	.L197
 1554 11c2 4C39C7   		cmpq	%r8, %rdi
 1555 11c5 4A8D0406 		leaq	(%rsi,%r8), %rax
 1556 11c9 0F84FE00 		je	.L198
 1556      0000
 1557 11cf 0FB64D18 		movzbl	24(%rbp), %ecx
 1558 11d3 8808     		movb	%cl, (%rax)
 1559 11d5 488D4801 		leaq	1(%rax), %rcx
 1560 11d9 4839CB   		cmpq	%rcx, %rbx
 1561 11dc 0F86EB00 		jbe	.L198
 1561      0000
 1562 11e2 0FB64D18 		movzbl	24(%rbp), %ecx
 1563 11e6 884801   		movb	%cl, 1(%rax)
 1564 11e9 488D4802 		leaq	2(%rax), %rcx
 1565 11ed 4839CB   		cmpq	%rcx, %rbx
 1566 11f0 0F86D700 		jbe	.L198
 1566      0000
 1567 11f6 0FB64D18 		movzbl	24(%rbp), %ecx
 1568 11fa 884802   		movb	%cl, 2(%rax)
 1569 11fd 488D4803 		leaq	3(%rax), %rcx
 1570 1201 4839CB   		cmpq	%rcx, %rbx
 1571 1204 0F86C300 		jbe	.L198
 1571      0000
 1572 120a 0FB64D18 		movzbl	24(%rbp), %ecx
 1573 120e 884803   		movb	%cl, 3(%rax)
 1574 1211 488D4804 		leaq	4(%rax), %rcx
 1575 1215 4839CB   		cmpq	%rcx, %rbx
 1576 1218 0F86AF00 		jbe	.L198
 1576      0000
 1577 121e 0FB64D18 		movzbl	24(%rbp), %ecx
 1578 1222 884804   		movb	%cl, 4(%rax)
 1579 1225 488D4805 		leaq	5(%rax), %rcx
 1580 1229 4839CB   		cmpq	%rcx, %rbx
 1581 122c 0F869B00 		jbe	.L198
 1581      0000
 1582 1232 0FB64D18 		movzbl	24(%rbp), %ecx
 1583 1236 884805   		movb	%cl, 5(%rax)
 1584 1239 488D4806 		leaq	6(%rax), %rcx
 1585 123d 4839CB   		cmpq	%rcx, %rbx
 1586 1240 0F868700 		jbe	.L198
 1586      0000
 1587 1246 0FB64D18 		movzbl	24(%rbp), %ecx
 1588 124a 884806   		movb	%cl, 6(%rax)
 1589 124d 488D4807 		leaq	7(%rax), %rcx
 1590 1251 4839CB   		cmpq	%rcx, %rbx
 1591 1254 7677     		jbe	.L198
 1592 1256 0FB64D18 		movzbl	24(%rbp), %ecx
 1593 125a 884807   		movb	%cl, 7(%rax)
 1594 125d 488D4808 		leaq	8(%rax), %rcx
 1595 1261 4839CB   		cmpq	%rcx, %rbx
 1596 1264 7667     		jbe	.L198
 1597 1266 0FB64D18 		movzbl	24(%rbp), %ecx
 1598 126a 884808   		movb	%cl, 8(%rax)
 1599 126d 488D4809 		leaq	9(%rax), %rcx
 1600 1271 4839CB   		cmpq	%rcx, %rbx
 1601 1274 7657     		jbe	.L198
 1602 1276 0FB64D18 		movzbl	24(%rbp), %ecx
 1603 127a 884809   		movb	%cl, 9(%rax)
 1604 127d 488D480A 		leaq	10(%rax), %rcx
 1605 1281 4839CB   		cmpq	%rcx, %rbx
 1606 1284 7647     		jbe	.L198
 1607 1286 0FB64D18 		movzbl	24(%rbp), %ecx
 1608 128a 88480A   		movb	%cl, 10(%rax)
 1609 128d 488D480B 		leaq	11(%rax), %rcx
 1610 1291 4839CB   		cmpq	%rcx, %rbx
 1611 1294 7637     		jbe	.L198
 1612 1296 0FB64D18 		movzbl	24(%rbp), %ecx
 1613 129a 88480B   		movb	%cl, 11(%rax)
 1614 129d 488D480C 		leaq	12(%rax), %rcx
 1615 12a1 4839CB   		cmpq	%rcx, %rbx
 1616 12a4 7627     		jbe	.L198
 1617 12a6 0FB64D18 		movzbl	24(%rbp), %ecx
 1618 12aa 88480C   		movb	%cl, 12(%rax)
 1619 12ad 488D480D 		leaq	13(%rax), %rcx
 1620 12b1 4839CB   		cmpq	%rcx, %rbx
 1621 12b4 7617     		jbe	.L198
 1622 12b6 0FB64D18 		movzbl	24(%rbp), %ecx
 1623 12ba 88480D   		movb	%cl, 13(%rax)
 1624 12bd 488D480E 		leaq	14(%rax), %rcx
 1625 12c1 4839CB   		cmpq	%rcx, %rbx
 1626 12c4 7607     		jbe	.L198
 1627 12c6 0FB64D18 		movzbl	24(%rbp), %ecx
 1628 12ca 88480E   		movb	%cl, 14(%rax)
 1629              	.L198:
 1630 12cd 488B7D00 		movq	0(%rbp), %rdi
 1631 12d1 4C8B4508 		movq	8(%rbp), %r8
 1632 12d5 E90AFEFF 		jmp	.L186
 1632      FF
 1633 12da 660F1F44 		.p2align 4,,10
 1633      0000
 1634              		.p2align 3
 1635              	.L210:
 1636 12e0 4883C101 		addq	$1, %rcx
 1637              	.L199:
 1638 12e4 0FB64518 		movzbl	24(%rbp), %eax
 1639 12e8 4839D9   		cmpq	%rbx, %rcx
 1640 12eb 8841FF   		movb	%al, -1(%rcx)
 1641 12ee 75F0     		jne	.L210
 1642 12f0 EBDB     		jmp	.L198
 1643              	.L209:
 1644 12f2 4C8B4508 		movq	8(%rbp), %r8
 1645 12f6 4889C7   		movq	%rax, %rdi
 1646 12f9 E9E6FDFF 		jmp	.L186
 1646      FF
 1647              	.L208:
 1648 12fe 488D3500 		leaq	.LC2(%rip), %rsi
 1648      000000
 1649 1305 4889CF   		movq	%rcx, %rdi
 1650 1308 48890C24 		movq	%rcx, (%rsp)
 1651 130c E8000000 		call	errPrefix@PLT
 1651      00
 1652 1311 488B0C24 		movq	(%rsp), %rcx
 1653 1315 488D3500 		leaq	.LC8(%rip), %rsi
 1653      000000
 1654 131c 4889CF   		movq	%rcx, %rdi
 1655 131f E8000000 		call	errPrefix@PLT
 1655      00
 1656 1324 B8010000 		movl	$1, %eax
 1656      00
 1657 1329 E9C8FDFF 		jmp	.L190
 1657      FF
 1658              		.cfi_endproc
 1659              	.LFE58:
 1661              		.section	.rodata.str1.1
 1662              	.LC9:
 1663 0069 62756641 		.string	"bufAppendBlock()"
 1663      7070656E 
 1663      64426C6F 
 1663      636B2829 
 1663      00
 1664              		.text
 1665 132e 6690     		.p2align 4,,15
 1666              		.globl	bufAppendBlock
 1668              	bufAppendBlock:
 1669              	.LFB59:
 1670              		.cfi_startproc
 1671 1330 4156     		pushq	%r14
 1672              		.cfi_def_cfa_offset 16
 1673              		.cfi_offset 14, -16
 1674 1332 4989CE   		movq	%rcx, %r14
 1675 1335 4155     		pushq	%r13
 1676              		.cfi_def_cfa_offset 24
 1677              		.cfi_offset 13, -24
 1678 1337 4989F5   		movq	%rsi, %r13
 1679 133a 4154     		pushq	%r12
 1680              		.cfi_def_cfa_offset 32
 1681              		.cfi_offset 12, -32
 1682 133c 55       		pushq	%rbp
 1683              		.cfi_def_cfa_offset 40
 1684              		.cfi_offset 6, -40
 1685 133d 4889FD   		movq	%rdi, %rbp
 1686 1340 53       		pushq	%rbx
 1687              		.cfi_def_cfa_offset 48
 1688              		.cfi_offset 3, -48
 1689 1341 4883EC10 		subq	$16, %rsp
 1690              		.cfi_def_cfa_offset 64
 1691 1345 4C8B4708 		movq	8(%rdi), %r8
 1692 1349 488B5F10 		movq	16(%rdi), %rbx
 1693 134d 4E8D2402 		leaq	(%rdx,%r8), %r12
 1694 1351 4939DC   		cmpq	%rbx, %r12
 1695 1354 772A     		ja	.L215
 1696 1356 488B07   		movq	(%rdi), %rax
 1697              	.L213:
 1698 1359 4A8D3C00 		leaq	(%rax,%r8), %rdi
 1699 135d 4C89EE   		movq	%r13, %rsi
 1700 1360 E8000000 		call	memcpy@PLT
 1700      00
 1701 1365 4C896508 		movq	%r12, 8(%rbp)
 1702 1369 31C0     		xorl	%eax, %eax
 1703              	.L217:
 1704 136b 4883C410 		addq	$16, %rsp
 1705              		.cfi_remember_state
 1706              		.cfi_def_cfa_offset 48
 1707 136f 5B       		popq	%rbx
 1708              		.cfi_def_cfa_offset 40
 1709 1370 5D       		popq	%rbp
 1710              		.cfi_def_cfa_offset 32
 1711 1371 415C     		popq	%r12
 1712              		.cfi_def_cfa_offset 24
 1713 1373 415D     		popq	%r13
 1714              		.cfi_def_cfa_offset 16
 1715 1375 415E     		popq	%r14
 1716              		.cfi_def_cfa_offset 8
 1717 1377 C3       		ret
 1718 1378 0F1F8400 		.p2align 4,,10
 1718      00000000 
 1719              		.p2align 3
 1720              	.L215:
 1721              		.cfi_restore_state
 1722 1380 4801DB   		addq	%rbx, %rbx
 1723 1383 4939DC   		cmpq	%rbx, %r12
 1724 1386 77F8     		ja	.L215
 1725 1388 488B7D00 		movq	0(%rbp), %rdi
 1726 138c 4889DE   		movq	%rbx, %rsi
 1727 138f 48895424 		movq	%rdx, 8(%rsp)
 1727      08
 1728 1394 E8000000 		call	realloc@PLT
 1728      00
 1729 1399 4885C0   		testq	%rax, %rax
 1730 139c 488B5424 		movq	8(%rsp), %rdx
 1730      08
 1731 13a1 0F84BB01 		je	.L236
 1731      0000
 1732 13a7 4E8D0420 		leaq	(%rax,%r12), %r8
 1733 13ab 48895D10 		movq	%rbx, 16(%rbp)
 1734 13af 4801C3   		addq	%rax, %rbx
 1735 13b2 48894500 		movq	%rax, 0(%rbp)
 1736 13b6 4939D8   		cmpq	%rbx, %r8
 1737 13b9 0F838401 		jnb	.L235
 1737      0000
 1738 13bf 488D4518 		leaq	24(%rbp), %rax
 1739 13c3 4889DE   		movq	%rbx, %rsi
 1740 13c6 498D4801 		leaq	1(%r8), %rcx
 1741 13ca 4C29C6   		subq	%r8, %rsi
 1742 13cd 4839C3   		cmpq	%rax, %rbx
 1743 13d0 488D4519 		leaq	25(%rbp), %rax
 1744 13d4 400F96C7 		setbe	%dil
 1745 13d8 4939C0   		cmpq	%rax, %r8
 1746 13db 0F93C0   		setnb	%al
 1747 13de 4008C7   		orb	%al, %dil
 1748 13e1 0F846D01 		je	.L226
 1748      0000
 1749 13e7 4883FE0F 		cmpq	$15, %rsi
 1750 13eb 0F866301 		jbe	.L226
 1750      0000
 1751 13f1 4889F1   		movq	%rsi, %rcx
 1752 13f4 31C0     		xorl	%eax, %eax
 1753 13f6 48C1E904 		shrq	$4, %rcx
 1754 13fa 4889CF   		movq	%rcx, %rdi
 1755 13fd 48C1E704 		salq	$4, %rdi
 1756              	.L224:
 1757 1401 440FB655 		movzbl	24(%rbp), %r10d
 1757      18
 1758 1406 4989C1   		movq	%rax, %r9
 1759 1409 4883C001 		addq	$1, %rax
 1760 140d 49C1E104 		salq	$4, %r9
 1761 1411 4839C1   		cmpq	%rax, %rcx
 1762 1414 44885424 		movb	%r10b, 8(%rsp)
 1762      08
 1763 1419 660F6E44 		movd	8(%rsp), %xmm0
 1763      2408
 1764 141f 660F60C0 		punpcklbw	%xmm0, %xmm0
 1765 1423 660F61C0 		punpcklwd	%xmm0, %xmm0
 1766 1427 660F70C0 		pshufd	$0, %xmm0, %xmm0
 1766      00
 1767 142c F3430F7F 		movdqu	%xmm0, (%r8,%r9)
 1767      0408
 1768 1432 77CD     		ja	.L224
 1769 1434 4839FE   		cmpq	%rdi, %rsi
 1770 1437 498D0438 		leaq	(%r8,%rdi), %rax
 1771 143b 0F84FE00 		je	.L225
 1771      0000
 1772 1441 0FB64D18 		movzbl	24(%rbp), %ecx
 1773 1445 8808     		movb	%cl, (%rax)
 1774 1447 488D4801 		leaq	1(%rax), %rcx
 1775 144b 4839CB   		cmpq	%rcx, %rbx
 1776 144e 0F86EB00 		jbe	.L225
 1776      0000
 1777 1454 0FB64D18 		movzbl	24(%rbp), %ecx
 1778 1458 884801   		movb	%cl, 1(%rax)
 1779 145b 488D4802 		leaq	2(%rax), %rcx
 1780 145f 4839CB   		cmpq	%rcx, %rbx
 1781 1462 0F86D700 		jbe	.L225
 1781      0000
 1782 1468 0FB64D18 		movzbl	24(%rbp), %ecx
 1783 146c 884802   		movb	%cl, 2(%rax)
 1784 146f 488D4803 		leaq	3(%rax), %rcx
 1785 1473 4839CB   		cmpq	%rcx, %rbx
 1786 1476 0F86C300 		jbe	.L225
 1786      0000
 1787 147c 0FB64D18 		movzbl	24(%rbp), %ecx
 1788 1480 884803   		movb	%cl, 3(%rax)
 1789 1483 488D4804 		leaq	4(%rax), %rcx
 1790 1487 4839CB   		cmpq	%rcx, %rbx
 1791 148a 0F86AF00 		jbe	.L225
 1791      0000
 1792 1490 0FB64D18 		movzbl	24(%rbp), %ecx
 1793 1494 884804   		movb	%cl, 4(%rax)
 1794 1497 488D4805 		leaq	5(%rax), %rcx
 1795 149b 4839CB   		cmpq	%rcx, %rbx
 1796 149e 0F869B00 		jbe	.L225
 1796      0000
 1797 14a4 0FB64D18 		movzbl	24(%rbp), %ecx
 1798 14a8 884805   		movb	%cl, 5(%rax)
 1799 14ab 488D4806 		leaq	6(%rax), %rcx
 1800 14af 4839CB   		cmpq	%rcx, %rbx
 1801 14b2 0F868700 		jbe	.L225
 1801      0000
 1802 14b8 0FB64D18 		movzbl	24(%rbp), %ecx
 1803 14bc 884806   		movb	%cl, 6(%rax)
 1804 14bf 488D4807 		leaq	7(%rax), %rcx
 1805 14c3 4839CB   		cmpq	%rcx, %rbx
 1806 14c6 7677     		jbe	.L225
 1807 14c8 0FB64D18 		movzbl	24(%rbp), %ecx
 1808 14cc 884807   		movb	%cl, 7(%rax)
 1809 14cf 488D4808 		leaq	8(%rax), %rcx
 1810 14d3 4839CB   		cmpq	%rcx, %rbx
 1811 14d6 7667     		jbe	.L225
 1812 14d8 0FB64D18 		movzbl	24(%rbp), %ecx
 1813 14dc 884808   		movb	%cl, 8(%rax)
 1814 14df 488D4809 		leaq	9(%rax), %rcx
 1815 14e3 4839CB   		cmpq	%rcx, %rbx
 1816 14e6 7657     		jbe	.L225
 1817 14e8 0FB64D18 		movzbl	24(%rbp), %ecx
 1818 14ec 884809   		movb	%cl, 9(%rax)
 1819 14ef 488D480A 		leaq	10(%rax), %rcx
 1820 14f3 4839CB   		cmpq	%rcx, %rbx
 1821 14f6 7647     		jbe	.L225
 1822 14f8 0FB64D18 		movzbl	24(%rbp), %ecx
 1823 14fc 88480A   		movb	%cl, 10(%rax)
 1824 14ff 488D480B 		leaq	11(%rax), %rcx
 1825 1503 4839CB   		cmpq	%rcx, %rbx
 1826 1506 7637     		jbe	.L225
 1827 1508 0FB64D18 		movzbl	24(%rbp), %ecx
 1828 150c 88480B   		movb	%cl, 11(%rax)
 1829 150f 488D480C 		leaq	12(%rax), %rcx
 1830 1513 4839CB   		cmpq	%rcx, %rbx
 1831 1516 7627     		jbe	.L225
 1832 1518 0FB64D18 		movzbl	24(%rbp), %ecx
 1833 151c 88480C   		movb	%cl, 12(%rax)
 1834 151f 488D480D 		leaq	13(%rax), %rcx
 1835 1523 4839CB   		cmpq	%rcx, %rbx
 1836 1526 7617     		jbe	.L225
 1837 1528 0FB64D18 		movzbl	24(%rbp), %ecx
 1838 152c 88480D   		movb	%cl, 13(%rax)
 1839 152f 488D480E 		leaq	14(%rax), %rcx
 1840 1533 4839CB   		cmpq	%rcx, %rbx
 1841 1536 7607     		jbe	.L225
 1842 1538 0FB64D18 		movzbl	24(%rbp), %ecx
 1843 153c 88480E   		movb	%cl, 14(%rax)
 1844              	.L225:
 1845 153f 488B4500 		movq	0(%rbp), %rax
 1846              	.L235:
 1847 1543 4C8B4508 		movq	8(%rbp), %r8
 1848 1547 E90DFEFF 		jmp	.L213
 1848      FF
 1849 154c 0F1F4000 		.p2align 4,,10
 1850              		.p2align 3
 1851              	.L237:
 1852 1550 4883C101 		addq	$1, %rcx
 1853              	.L226:
 1854 1554 0FB64518 		movzbl	24(%rbp), %eax
 1855 1558 4839D9   		cmpq	%rbx, %rcx
 1856 155b 8841FF   		movb	%al, -1(%rcx)
 1857 155e 75F0     		jne	.L237
 1858 1560 EBDD     		jmp	.L225
 1859              	.L236:
 1860 1562 488D3500 		leaq	.LC2(%rip), %rsi
 1860      000000
 1861 1569 4C89F7   		movq	%r14, %rdi
 1862 156c E8000000 		call	errPrefix@PLT
 1862      00
 1863 1571 488D3500 		leaq	.LC9(%rip), %rsi
 1863      000000
 1864 1578 4C89F7   		movq	%r14, %rdi
 1865 157b E8000000 		call	errPrefix@PLT
 1865      00
 1866 1580 B8010000 		movl	$1, %eax
 1866      00
 1867 1585 E9E1FDFF 		jmp	.L217
 1867      FF
 1868              		.cfi_endproc
 1869              	.LFE59:
 1871              		.section	.rodata.str1.1
 1872              	.LC10:
 1873 007a 6D617962 		.string	"maybeReallocate()"
 1873      65526561 
 1873      6C6C6F63 
 1873      61746528 
 1873      2900
 1874              	.LC11:
 1875 008c 62756657 		.string	"bufWriteByte()"
 1875      72697465 
 1875      42797465 
 1875      282900
 1876              		.text
 1877 158a 660F1F44 		.p2align 4,,15
 1877      0000
 1878              		.globl	bufWriteByte
 1880              	bufWriteByte:
 1881              	.LFB61:
 1882              		.cfi_startproc
 1883 1590 4155     		pushq	%r13
 1884              		.cfi_def_cfa_offset 16
 1885              		.cfi_offset 13, -16
 1886 1592 4989F5   		movq	%rsi, %r13
 1887 1595 4154     		pushq	%r12
 1888              		.cfi_def_cfa_offset 24
 1889              		.cfi_offset 12, -24
 1890 1597 4C8D6601 		leaq	1(%rsi), %r12
 1891 159b 55       		pushq	%rbp
 1892              		.cfi_def_cfa_offset 32
 1893              		.cfi_offset 6, -32
 1894 159c 53       		pushq	%rbx
 1895              		.cfi_def_cfa_offset 40
 1896              		.cfi_offset 3, -40
 1897 159d 4889FB   		movq	%rdi, %rbx
 1898 15a0 4883EC18 		subq	$24, %rsp
 1899              		.cfi_def_cfa_offset 64
 1900 15a4 488B4708 		movq	8(%rdi), %rax
 1901 15a8 4839C6   		cmpq	%rax, %rsi
 1902 15ab 732B     		jnb	.L307
 1903 15ad 4939C4   		cmpq	%rax, %r12
 1904 15b0 0F86F205 		jbe	.L265
 1904      0000
 1905 15b6 488B6F10 		movq	16(%rdi), %rbp
 1906 15ba 4939EC   		cmpq	%rbp, %r12
 1907 15bd 0F87D503 		ja	.L269
 1907      0000
 1908              	.L277:
 1909 15c3 488B0B   		movq	(%rbx), %rcx
 1910              	.L267:
 1911 15c6 4C896308 		movq	%r12, 8(%rbx)
 1912 15ca 4901CD   		addq	%rcx, %r13
 1913 15cd E9B80100 		jmp	.L264
 1913      00
 1914              		.p2align 4,,10
 1915 15d2 660F1F44 		.p2align 3
 1915      0000
 1916              	.L307:
 1917 15d8 488B6F10 		movq	16(%rdi), %rbp
 1918 15dc 4939EC   		cmpq	%rbp, %r12
 1919 15df 0F87BB01 		ja	.L243
 1919      0000
 1920 15e5 488B0F   		movq	(%rdi), %rcx
 1921              	.L241:
 1922 15e8 4801C8   		addq	%rcx, %rax
 1923 15eb 4C01E9   		addq	%r13, %rcx
 1924 15ee 4839C8   		cmpq	%rcx, %rax
 1925 15f1 0F83D905 		jnb	.L279
 1925      0000
 1926 15f7 4C8D4318 		leaq	24(%rbx), %r8
 1927 15fb 4889CF   		movq	%rcx, %rdi
 1928 15fe 488D7001 		leaq	1(%rax), %rsi
 1929 1602 4829C7   		subq	%rax, %rdi
 1930 1605 4C39C1   		cmpq	%r8, %rcx
 1931 1608 4C8D4319 		leaq	25(%rbx), %r8
 1932 160c 410F96C1 		setbe	%r9b
 1933 1610 4C39C0   		cmpq	%r8, %rax
 1934 1613 410F93C0 		setnb	%r8b
 1935 1617 4508C1   		orb	%r8b, %r9b
 1936 161a 0F846403 		je	.L263
 1936      0000
 1937 1620 4883FF0F 		cmpq	$15, %rdi
 1938 1624 0F865A03 		jbe	.L263
 1938      0000
 1939 162a 4989F8   		movq	%rdi, %r8
 1940 162d 31F6     		xorl	%esi, %esi
 1941 162f 49C1E804 		shrq	$4, %r8
 1942 1633 4D89C1   		movq	%r8, %r9
 1943 1636 49C1E104 		salq	$4, %r9
 1944              	.L261:
 1945 163a 440FB65B 		movzbl	24(%rbx), %r11d
 1945      18
 1946 163f 4989F2   		movq	%rsi, %r10
 1947 1642 4883C601 		addq	$1, %rsi
 1948 1646 49C1E204 		salq	$4, %r10
 1949 164a 4939F0   		cmpq	%rsi, %r8
 1950 164d 44881C24 		movb	%r11b, (%rsp)
 1951 1651 660F6E04 		movd	(%rsp), %xmm0
 1951      24
 1952 1656 660F60C0 		punpcklbw	%xmm0, %xmm0
 1953 165a 660F61C0 		punpcklwd	%xmm0, %xmm0
 1954 165e 660F70C0 		pshufd	$0, %xmm0, %xmm0
 1954      00
 1955 1663 F3420F7F 		movdqu	%xmm0, (%rax,%r10)
 1955      0410
 1956 1669 77CF     		ja	.L261
 1957 166b 4C01C8   		addq	%r9, %rax
 1958 166e 4C39CF   		cmpq	%r9, %rdi
 1959 1671 0F840C01 		je	.L262
 1959      0000
 1960 1677 0FB67318 		movzbl	24(%rbx), %esi
 1961 167b 408830   		movb	%sil, (%rax)
 1962 167e 488D7001 		leaq	1(%rax), %rsi
 1963 1682 4839F1   		cmpq	%rsi, %rcx
 1964 1685 0F86F800 		jbe	.L262
 1964      0000
 1965 168b 0FB67318 		movzbl	24(%rbx), %esi
 1966 168f 40887001 		movb	%sil, 1(%rax)
 1967 1693 488D7002 		leaq	2(%rax), %rsi
 1968 1697 4839F1   		cmpq	%rsi, %rcx
 1969 169a 0F86E300 		jbe	.L262
 1969      0000
 1970 16a0 0FB67318 		movzbl	24(%rbx), %esi
 1971 16a4 40887002 		movb	%sil, 2(%rax)
 1972 16a8 488D7003 		leaq	3(%rax), %rsi
 1973 16ac 4839F1   		cmpq	%rsi, %rcx
 1974 16af 0F86CE00 		jbe	.L262
 1974      0000
 1975 16b5 0FB67318 		movzbl	24(%rbx), %esi
 1976 16b9 40887003 		movb	%sil, 3(%rax)
 1977 16bd 488D7004 		leaq	4(%rax), %rsi
 1978 16c1 4839F1   		cmpq	%rsi, %rcx
 1979 16c4 0F86B900 		jbe	.L262
 1979      0000
 1980 16ca 0FB67318 		movzbl	24(%rbx), %esi
 1981 16ce 40887004 		movb	%sil, 4(%rax)
 1982 16d2 488D7005 		leaq	5(%rax), %rsi
 1983 16d6 4839F1   		cmpq	%rsi, %rcx
 1984 16d9 0F86A400 		jbe	.L262
 1984      0000
 1985 16df 0FB67318 		movzbl	24(%rbx), %esi
 1986 16e3 40887005 		movb	%sil, 5(%rax)
 1987 16e7 488D7006 		leaq	6(%rax), %rsi
 1988 16eb 4839F1   		cmpq	%rsi, %rcx
 1989 16ee 0F868F00 		jbe	.L262
 1989      0000
 1990 16f4 0FB67318 		movzbl	24(%rbx), %esi
 1991 16f8 40887006 		movb	%sil, 6(%rax)
 1992 16fc 488D7007 		leaq	7(%rax), %rsi
 1993 1700 4839F1   		cmpq	%rsi, %rcx
 1994 1703 767E     		jbe	.L262
 1995 1705 0FB67318 		movzbl	24(%rbx), %esi
 1996 1709 40887007 		movb	%sil, 7(%rax)
 1997 170d 488D7008 		leaq	8(%rax), %rsi
 1998 1711 4839F1   		cmpq	%rsi, %rcx
 1999 1714 766D     		jbe	.L262
 2000 1716 0FB67318 		movzbl	24(%rbx), %esi
 2001 171a 40887008 		movb	%sil, 8(%rax)
 2002 171e 488D7009 		leaq	9(%rax), %rsi
 2003 1722 4839F1   		cmpq	%rsi, %rcx
 2004 1725 765C     		jbe	.L262
 2005 1727 0FB67318 		movzbl	24(%rbx), %esi
 2006 172b 40887009 		movb	%sil, 9(%rax)
 2007 172f 488D700A 		leaq	10(%rax), %rsi
 2008 1733 4839F1   		cmpq	%rsi, %rcx
 2009 1736 764B     		jbe	.L262
 2010 1738 0FB67318 		movzbl	24(%rbx), %esi
 2011 173c 4088700A 		movb	%sil, 10(%rax)
 2012 1740 488D700B 		leaq	11(%rax), %rsi
 2013 1744 4839F1   		cmpq	%rsi, %rcx
 2014 1747 763A     		jbe	.L262
 2015 1749 0FB67318 		movzbl	24(%rbx), %esi
 2016 174d 4088700B 		movb	%sil, 11(%rax)
 2017 1751 488D700C 		leaq	12(%rax), %rsi
 2018 1755 4839F1   		cmpq	%rsi, %rcx
 2019 1758 7629     		jbe	.L262
 2020 175a 0FB67318 		movzbl	24(%rbx), %esi
 2021 175e 4088700C 		movb	%sil, 12(%rax)
 2022 1762 488D700D 		leaq	13(%rax), %rsi
 2023 1766 4839F1   		cmpq	%rsi, %rcx
 2024 1769 7618     		jbe	.L262
 2025 176b 0FB67318 		movzbl	24(%rbx), %esi
 2026 176f 4088700D 		movb	%sil, 13(%rax)
 2027 1773 488D700E 		leaq	14(%rax), %rsi
 2028 1777 4839F1   		cmpq	%rsi, %rcx
 2029 177a 7607     		jbe	.L262
 2030 177c 0FB64B18 		movzbl	24(%rbx), %ecx
 2031 1780 88480E   		movb	%cl, 14(%rax)
 2032              	.L262:
 2033 1783 4C032B   		addq	(%rbx), %r13
 2034              	.L255:
 2035 1786 4C896308 		movq	%r12, 8(%rbx)
 2036              	.L264:
 2037 178a 41885500 		movb	%dl, 0(%r13)
 2038 178e 31C0     		xorl	%eax, %eax
 2039              	.L245:
 2040              	.L302:
 2041 1790 4883C418 		addq	$24, %rsp
 2042              		.cfi_remember_state
 2043              		.cfi_def_cfa_offset 40
 2044 1794 5B       		popq	%rbx
 2045              		.cfi_def_cfa_offset 32
 2046 1795 5D       		popq	%rbp
 2047              		.cfi_def_cfa_offset 24
 2048 1796 415C     		popq	%r12
 2049              		.cfi_def_cfa_offset 16
 2050 1798 415D     		popq	%r13
 2051              		.cfi_def_cfa_offset 8
 2052 179a C3       		ret
 2053 179b 0F1F4400 		.p2align 4,,10
 2053      00
 2054              		.p2align 3
 2055              	.L243:
 2056              		.cfi_restore_state
 2057 17a0 4801ED   		addq	%rbp, %rbp
 2058 17a3 4939EC   		cmpq	%rbp, %r12
 2059 17a6 77F8     		ja	.L243
 2060 17a8 488B3B   		movq	(%rbx), %rdi
 2061 17ab 4889EE   		movq	%rbp, %rsi
 2062 17ae 48894C24 		movq	%rcx, 8(%rsp)
 2062      08
 2063 17b3 891424   		movl	%edx, (%rsp)
 2064 17b6 E8000000 		call	realloc@PLT
 2064      00
 2065 17bb 4885C0   		testq	%rax, %rax
 2066 17be 4889C7   		movq	%rax, %rdi
 2067 17c1 8B1424   		movl	(%rsp), %edx
 2068 17c4 488B4C24 		movq	8(%rsp), %rcx
 2068      08
 2069 17c9 0F841504 		je	.L270
 2069      0000
 2070 17cf 488903   		movq	%rax, (%rbx)
 2071 17d2 4A8D0420 		leaq	(%rax,%r12), %rax
 2072 17d6 48896B10 		movq	%rbp, 16(%rbx)
 2073 17da 4801FD   		addq	%rdi, %rbp
 2074 17dd 4839E8   		cmpq	%rbp, %rax
 2075 17e0 0F83F203 		jnb	.L308
 2075      0000
 2076 17e6 4C01EF   		addq	%r13, %rdi
 2077 17e9 4989E8   		movq	%rbp, %r8
 2078 17ec 4C8D5318 		leaq	24(%rbx), %r10
 2079 17f0 4C8D4F01 		leaq	1(%rdi), %r9
 2080 17f4 4929C0   		subq	%rax, %r8
 2081 17f7 488D7001 		leaq	1(%rax), %rsi
 2082 17fb 4B8D0C01 		leaq	(%r9,%r8), %rcx
 2083 17ff 4939CA   		cmpq	%rcx, %r10
 2084 1802 488D4B19 		leaq	25(%rbx), %rcx
 2085 1806 410F93C2 		setnb	%r10b
 2086 180a 4939C9   		cmpq	%rcx, %r9
 2087 180d 0F93C1   		setnb	%cl
 2088 1810 4108CA   		orb	%cl, %r10b
 2089 1813 0F847B03 		je	.L254
 2089      0000
 2090 1819 4983F80F 		cmpq	$15, %r8
 2091 181d 0F867103 		jbe	.L254
 2091      0000
 2092 1823 4C89C6   		movq	%r8, %rsi
 2093 1826 31C9     		xorl	%ecx, %ecx
 2094 1828 48C1EE04 		shrq	$4, %rsi
 2095 182c 4989F1   		movq	%rsi, %r9
 2096 182f 49C1E104 		salq	$4, %r9
 2097              	.L252:
 2098 1833 440FB65B 		movzbl	24(%rbx), %r11d
 2098      18
 2099 1838 4989CA   		movq	%rcx, %r10
 2100 183b 4883C101 		addq	$1, %rcx
 2101 183f 49C1E204 		salq	$4, %r10
 2102 1843 4839CE   		cmpq	%rcx, %rsi
 2103 1846 44881C24 		movb	%r11b, (%rsp)
 2104 184a 660F6E04 		movd	(%rsp), %xmm0
 2104      24
 2105 184f 660F60C0 		punpcklbw	%xmm0, %xmm0
 2106 1853 660F61C0 		punpcklwd	%xmm0, %xmm0
 2107 1857 660F70C0 		pshufd	$0, %xmm0, %xmm0
 2107      00
 2108 185c F3420F7F 		movdqu	%xmm0, 1(%rdi,%r10)
 2108      441701
 2109 1863 77CE     		ja	.L252
 2110 1865 4C01C8   		addq	%r9, %rax
 2111 1868 4D39C8   		cmpq	%r9, %r8
 2112 186b 0F84FE00 		je	.L253
 2112      0000
 2113 1871 0FB64B18 		movzbl	24(%rbx), %ecx
 2114 1875 8808     		movb	%cl, (%rax)
 2115 1877 488D4801 		leaq	1(%rax), %rcx
 2116 187b 4839CD   		cmpq	%rcx, %rbp
 2117 187e 0F86EB00 		jbe	.L253
 2117      0000
 2118 1884 0FB64B18 		movzbl	24(%rbx), %ecx
 2119 1888 884801   		movb	%cl, 1(%rax)
 2120 188b 488D4802 		leaq	2(%rax), %rcx
 2121 188f 4839CD   		cmpq	%rcx, %rbp
 2122 1892 0F86D700 		jbe	.L253
 2122      0000
 2123 1898 0FB64B18 		movzbl	24(%rbx), %ecx
 2124 189c 884802   		movb	%cl, 2(%rax)
 2125 189f 488D4803 		leaq	3(%rax), %rcx
 2126 18a3 4839CD   		cmpq	%rcx, %rbp
 2127 18a6 0F86C300 		jbe	.L253
 2127      0000
 2128 18ac 0FB64B18 		movzbl	24(%rbx), %ecx
 2129 18b0 884803   		movb	%cl, 3(%rax)
 2130 18b3 488D4804 		leaq	4(%rax), %rcx
 2131 18b7 4839CD   		cmpq	%rcx, %rbp
 2132 18ba 0F86AF00 		jbe	.L253
 2132      0000
 2133 18c0 0FB64B18 		movzbl	24(%rbx), %ecx
 2134 18c4 884804   		movb	%cl, 4(%rax)
 2135 18c7 488D4805 		leaq	5(%rax), %rcx
 2136 18cb 4839CD   		cmpq	%rcx, %rbp
 2137 18ce 0F869B00 		jbe	.L253
 2137      0000
 2138 18d4 0FB64B18 		movzbl	24(%rbx), %ecx
 2139 18d8 884805   		movb	%cl, 5(%rax)
 2140 18db 488D4806 		leaq	6(%rax), %rcx
 2141 18df 4839CD   		cmpq	%rcx, %rbp
 2142 18e2 0F868700 		jbe	.L253
 2142      0000
 2143 18e8 0FB64B18 		movzbl	24(%rbx), %ecx
 2144 18ec 884806   		movb	%cl, 6(%rax)
 2145 18ef 488D4807 		leaq	7(%rax), %rcx
 2146 18f3 4839CD   		cmpq	%rcx, %rbp
 2147 18f6 7677     		jbe	.L253
 2148 18f8 0FB64B18 		movzbl	24(%rbx), %ecx
 2149 18fc 884807   		movb	%cl, 7(%rax)
 2150 18ff 488D4808 		leaq	8(%rax), %rcx
 2151 1903 4839CD   		cmpq	%rcx, %rbp
 2152 1906 7667     		jbe	.L253
 2153 1908 0FB64B18 		movzbl	24(%rbx), %ecx
 2154 190c 884808   		movb	%cl, 8(%rax)
 2155 190f 488D4809 		leaq	9(%rax), %rcx
 2156 1913 4839CD   		cmpq	%rcx, %rbp
 2157 1916 7657     		jbe	.L253
 2158 1918 0FB64B18 		movzbl	24(%rbx), %ecx
 2159 191c 884809   		movb	%cl, 9(%rax)
 2160 191f 488D480A 		leaq	10(%rax), %rcx
 2161 1923 4839CD   		cmpq	%rcx, %rbp
 2162 1926 7647     		jbe	.L253
 2163 1928 0FB64B18 		movzbl	24(%rbx), %ecx
 2164 192c 88480A   		movb	%cl, 10(%rax)
 2165 192f 488D480B 		leaq	11(%rax), %rcx
 2166 1933 4839CD   		cmpq	%rcx, %rbp
 2167 1936 7637     		jbe	.L253
 2168 1938 0FB64B18 		movzbl	24(%rbx), %ecx
 2169 193c 88480B   		movb	%cl, 11(%rax)
 2170 193f 488D480C 		leaq	12(%rax), %rcx
 2171 1943 4839CD   		cmpq	%rcx, %rbp
 2172 1946 7627     		jbe	.L253
 2173 1948 0FB64B18 		movzbl	24(%rbx), %ecx
 2174 194c 88480C   		movb	%cl, 12(%rax)
 2175 194f 488D480D 		leaq	13(%rax), %rcx
 2176 1953 4839CD   		cmpq	%rcx, %rbp
 2177 1956 7617     		jbe	.L253
 2178 1958 0FB64B18 		movzbl	24(%rbx), %ecx
 2179 195c 88480D   		movb	%cl, 13(%rax)
 2180 195f 488D480E 		leaq	14(%rax), %rcx
 2181 1963 4839CD   		cmpq	%rcx, %rbp
 2182 1966 7607     		jbe	.L253
 2183 1968 0FB64B18 		movzbl	24(%rbx), %ecx
 2184 196c 88480E   		movb	%cl, 14(%rax)
 2185              	.L253:
 2186 196f 488B0B   		movq	(%rbx), %rcx
 2187 1972 488B4308 		movq	8(%rbx), %rax
 2188 1976 E96DFCFF 		jmp	.L241
 2188      FF
 2189 197b 0F1F4400 		.p2align 4,,10
 2189      00
 2190              		.p2align 3
 2191              	.L309:
 2192 1980 4883C601 		addq	$1, %rsi
 2193              	.L263:
 2194 1984 0FB64318 		movzbl	24(%rbx), %eax
 2195 1988 4839CE   		cmpq	%rcx, %rsi
 2196 198b 8846FF   		movb	%al, -1(%rsi)
 2197 198e 75F0     		jne	.L309
 2198 1990 E9EEFDFF 		jmp	.L262
 2198      FF
 2199              		.p2align 4,,10
 2200 1995 0F1F00   		.p2align 3
 2201              	.L269:
 2202 1998 4801ED   		addq	%rbp, %rbp
 2203 199b 4939EC   		cmpq	%rbp, %r12
 2204 199e 77F8     		ja	.L269
 2205 19a0 488B3B   		movq	(%rbx), %rdi
 2206 19a3 4889EE   		movq	%rbp, %rsi
 2207 19a6 48890C24 		movq	%rcx, (%rsp)
 2208 19aa 89542408 		movl	%edx, 8(%rsp)
 2209 19ae E8000000 		call	realloc@PLT
 2209      00
 2210 19b3 4885C0   		testq	%rax, %rax
 2211 19b6 488B0C24 		movq	(%rsp), %rcx
 2212 19ba 0F842402 		je	.L270
 2212      0000
 2213 19c0 4A8D3420 		leaq	(%rax,%r12), %rsi
 2214 19c4 48896B10 		movq	%rbp, 16(%rbx)
 2215 19c8 4801C5   		addq	%rax, %rbp
 2216 19cb 488903   		movq	%rax, (%rbx)
 2217 19ce 8B542408 		movl	8(%rsp), %edx
 2218 19d2 4839EE   		cmpq	%rbp, %rsi
 2219 19d5 0F83EA01 		jnb	.L280
 2219      0000
 2220 19db 4C01E8   		addq	%r13, %rax
 2221 19de 4889EF   		movq	%rbp, %rdi
 2222 19e1 4C8D5318 		leaq	24(%rbx), %r10
 2223 19e5 4C8D4001 		leaq	1(%rax), %r8
 2224 19e9 4829F7   		subq	%rsi, %rdi
 2225 19ec 488D4E01 		leaq	1(%rsi), %rcx
 2226 19f0 4D8D0C38 		leaq	(%r8,%rdi), %r9
 2227 19f4 4D39CA   		cmpq	%r9, %r10
 2228 19f7 4C8D5319 		leaq	25(%rbx), %r10
 2229 19fb 410F93C1 		setnb	%r9b
 2230 19ff 4D39D0   		cmpq	%r10, %r8
 2231 1a02 410F93C0 		setnb	%r8b
 2232 1a06 4508C1   		orb	%r8b, %r9b
 2233 1a09 0F84A501 		je	.L278
 2233      0000
 2234 1a0f 4883FF0F 		cmpq	$15, %rdi
 2235 1a13 0F869B01 		jbe	.L278
 2235      0000
 2236 1a19 4989F8   		movq	%rdi, %r8
 2237 1a1c 31C9     		xorl	%ecx, %ecx
 2238 1a1e 49C1E804 		shrq	$4, %r8
 2239 1a22 4D89C1   		movq	%r8, %r9
 2240 1a25 49C1E104 		salq	$4, %r9
 2241              	.L276:
 2242 1a29 440FB65B 		movzbl	24(%rbx), %r11d
 2242      18
 2243 1a2e 4989CA   		movq	%rcx, %r10
 2244 1a31 4883C101 		addq	$1, %rcx
 2245 1a35 49C1E204 		salq	$4, %r10
 2246 1a39 4939C8   		cmpq	%rcx, %r8
 2247 1a3c 44881C24 		movb	%r11b, (%rsp)
 2248 1a40 660F6E04 		movd	(%rsp), %xmm0
 2248      24
 2249 1a45 660F60C0 		punpcklbw	%xmm0, %xmm0
 2250 1a49 660F61C0 		punpcklwd	%xmm0, %xmm0
 2251 1a4d 660F70C0 		pshufd	$0, %xmm0, %xmm0
 2251      00
 2252 1a52 F3420F7F 		movdqu	%xmm0, 1(%rax,%r10)
 2252      441001
 2253 1a59 77CE     		ja	.L276
 2254 1a5b 4C39CF   		cmpq	%r9, %rdi
 2255 1a5e 4A8D040E 		leaq	(%rsi,%r9), %rax
 2256 1a62 0F845BFB 		je	.L277
 2256      FFFF
 2257 1a68 0FB64B18 		movzbl	24(%rbx), %ecx
 2258 1a6c 8808     		movb	%cl, (%rax)
 2259 1a6e 488D4801 		leaq	1(%rax), %rcx
 2260 1a72 4839CD   		cmpq	%rcx, %rbp
 2261 1a75 0F8648FB 		jbe	.L277
 2261      FFFF
 2262 1a7b 0FB64B18 		movzbl	24(%rbx), %ecx
 2263 1a7f 884801   		movb	%cl, 1(%rax)
 2264 1a82 488D4802 		leaq	2(%rax), %rcx
 2265 1a86 4839CD   		cmpq	%rcx, %rbp
 2266 1a89 0F8634FB 		jbe	.L277
 2266      FFFF
 2267 1a8f 0FB64B18 		movzbl	24(%rbx), %ecx
 2268 1a93 884802   		movb	%cl, 2(%rax)
 2269 1a96 488D4803 		leaq	3(%rax), %rcx
 2270 1a9a 4839CD   		cmpq	%rcx, %rbp
 2271 1a9d 0F8620FB 		jbe	.L277
 2271      FFFF
 2272 1aa3 0FB64B18 		movzbl	24(%rbx), %ecx
 2273 1aa7 884803   		movb	%cl, 3(%rax)
 2274 1aaa 488D4804 		leaq	4(%rax), %rcx
 2275 1aae 4839CD   		cmpq	%rcx, %rbp
 2276 1ab1 0F860CFB 		jbe	.L277
 2276      FFFF
 2277 1ab7 0FB64B18 		movzbl	24(%rbx), %ecx
 2278 1abb 884804   		movb	%cl, 4(%rax)
 2279 1abe 488D4805 		leaq	5(%rax), %rcx
 2280 1ac2 4839CD   		cmpq	%rcx, %rbp
 2281 1ac5 0F86F8FA 		jbe	.L277
 2281      FFFF
 2282 1acb 0FB64B18 		movzbl	24(%rbx), %ecx
 2283 1acf 884805   		movb	%cl, 5(%rax)
 2284 1ad2 488D4806 		leaq	6(%rax), %rcx
 2285 1ad6 4839CD   		cmpq	%rcx, %rbp
 2286 1ad9 0F86E4FA 		jbe	.L277
 2286      FFFF
 2287 1adf 0FB64B18 		movzbl	24(%rbx), %ecx
 2288 1ae3 884806   		movb	%cl, 6(%rax)
 2289 1ae6 488D4807 		leaq	7(%rax), %rcx
 2290 1aea 4839CD   		cmpq	%rcx, %rbp
 2291 1aed 0F86D0FA 		jbe	.L277
 2291      FFFF
 2292 1af3 0FB64B18 		movzbl	24(%rbx), %ecx
 2293 1af7 884807   		movb	%cl, 7(%rax)
 2294 1afa 488D4808 		leaq	8(%rax), %rcx
 2295 1afe 4839CD   		cmpq	%rcx, %rbp
 2296 1b01 0F86BCFA 		jbe	.L277
 2296      FFFF
 2297 1b07 0FB64B18 		movzbl	24(%rbx), %ecx
 2298 1b0b 884808   		movb	%cl, 8(%rax)
 2299 1b0e 488D4809 		leaq	9(%rax), %rcx
 2300 1b12 4839CD   		cmpq	%rcx, %rbp
 2301 1b15 0F86A8FA 		jbe	.L277
 2301      FFFF
 2302 1b1b 0FB64B18 		movzbl	24(%rbx), %ecx
 2303 1b1f 884809   		movb	%cl, 9(%rax)
 2304 1b22 488D480A 		leaq	10(%rax), %rcx
 2305 1b26 4839CD   		cmpq	%rcx, %rbp
 2306 1b29 0F8694FA 		jbe	.L277
 2306      FFFF
 2307 1b2f 0FB64B18 		movzbl	24(%rbx), %ecx
 2308 1b33 88480A   		movb	%cl, 10(%rax)
 2309 1b36 488D480B 		leaq	11(%rax), %rcx
 2310 1b3a 4839CD   		cmpq	%rcx, %rbp
 2311 1b3d 0F8680FA 		jbe	.L277
 2311      FFFF
 2312 1b43 0FB64B18 		movzbl	24(%rbx), %ecx
 2313 1b47 88480B   		movb	%cl, 11(%rax)
 2314 1b4a 488D480C 		leaq	12(%rax), %rcx
 2315 1b4e 4839CD   		cmpq	%rcx, %rbp
 2316 1b51 0F866CFA 		jbe	.L277
 2316      FFFF
 2317 1b57 0FB64B18 		movzbl	24(%rbx), %ecx
 2318 1b5b 88480C   		movb	%cl, 12(%rax)
 2319 1b5e 488D480D 		leaq	13(%rax), %rcx
 2320 1b62 4839CD   		cmpq	%rcx, %rbp
 2321 1b65 0F8658FA 		jbe	.L277
 2321      FFFF
 2322 1b6b 0FB64B18 		movzbl	24(%rbx), %ecx
 2323 1b6f 88480D   		movb	%cl, 13(%rax)
 2324 1b72 488D480E 		leaq	14(%rax), %rcx
 2325 1b76 4839CD   		cmpq	%rcx, %rbp
 2326 1b79 0F8644FA 		jbe	.L277
 2326      FFFF
 2327 1b7f 0FB64B18 		movzbl	24(%rbx), %ecx
 2328 1b83 88480E   		movb	%cl, 14(%rax)
 2329 1b86 E938FAFF 		jmp	.L277
 2329      FF
 2330 1b8b 0F1F4400 		.p2align 4,,10
 2330      00
 2331              		.p2align 3
 2332              	.L310:
 2333 1b90 4883C601 		addq	$1, %rsi
 2334              	.L254:
 2335 1b94 0FB64318 		movzbl	24(%rbx), %eax
 2336 1b98 4839EE   		cmpq	%rbp, %rsi
 2337 1b9b 8846FF   		movb	%al, -1(%rsi)
 2338 1b9e 75F0     		jne	.L310
 2339 1ba0 E9CAFDFF 		jmp	.L253
 2339      FF
 2340              		.p2align 4,,10
 2341 1ba5 0F1F00   		.p2align 3
 2342              	.L265:
 2343 1ba8 4C032F   		addq	(%rdi), %r13
 2344 1bab E9DAFBFF 		jmp	.L264
 2344      FF
 2345              		.p2align 4,,10
 2346              		.p2align 3
 2347              	.L311:
 2348 1bb0 4883C101 		addq	$1, %rcx
 2349              	.L278:
 2350 1bb4 0FB64318 		movzbl	24(%rbx), %eax
 2351 1bb8 4839E9   		cmpq	%rbp, %rcx
 2352 1bbb 8841FF   		movb	%al, -1(%rcx)
 2353 1bbe 75F0     		jne	.L311
 2354 1bc0 E9FEF9FF 		jmp	.L277
 2354      FF
 2355              	.L280:
 2356 1bc5 4889C1   		movq	%rax, %rcx
 2357 1bc8 E9F9F9FF 		jmp	.L267
 2357      FF
 2358 1bcd 0F1F00   		.p2align 4,,10
 2359              		.p2align 3
 2360              	.L279:
 2361 1bd0 4989CD   		movq	%rcx, %r13
 2362 1bd3 E9AEFBFF 		jmp	.L255
 2362      FF
 2363              	.L308:
 2364 1bd8 488B4308 		movq	8(%rbx), %rax
 2365 1bdc 4889F9   		movq	%rdi, %rcx
 2366 1bdf E904FAFF 		jmp	.L241
 2366      FF
 2367              	.L270:
 2368 1be4 488D3500 		leaq	.LC2(%rip), %rsi
 2368      000000
 2369 1beb 4889CF   		movq	%rcx, %rdi
 2370 1bee 48890C24 		movq	%rcx, (%rsp)
 2371 1bf2 E8000000 		call	errPrefix@PLT
 2371      00
 2372 1bf7 488B0C24 		movq	(%rsp), %rcx
 2373 1bfb 488D3500 		leaq	.LC10(%rip), %rsi
 2373      000000
 2374 1c02 4889CF   		movq	%rcx, %rdi
 2375 1c05 E8000000 		call	errPrefix@PLT
 2375      00
 2376 1c0a 488B0C24 		movq	(%rsp), %rcx
 2377 1c0e 488D3500 		leaq	.LC11(%rip), %rsi
 2377      000000
 2378 1c15 4889CF   		movq	%rcx, %rdi
 2379 1c18 E8000000 		call	errPrefix@PLT
 2379      00
 2380 1c1d B8010000 		movl	$1, %eax
 2380      00
 2381 1c22 E969FBFF 		jmp	.L302
 2381      FF
 2382              		.cfi_endproc
 2383              	.LFE61:
 2385              		.section	.rodata.str1.1
 2386              	.LC12:
 2387 009b 62756657 		.string	"bufWriteWordLE()"
 2387      72697465 
 2387      576F7264 
 2387      4C452829 
 2387      00
 2388              		.text
 2389 1c27 660F1F84 		.p2align 4,,15
 2389      00000000 
 2389      00
 2390              		.globl	bufWriteWordLE
 2392              	bufWriteWordLE:
 2393              	.LFB62:
 2394              		.cfi_startproc
 2395 1c30 4155     		pushq	%r13
 2396              		.cfi_def_cfa_offset 16
 2397              		.cfi_offset 13, -16
 2398 1c32 4C8D6E02 		leaq	2(%rsi), %r13
 2399 1c36 4154     		pushq	%r12
 2400              		.cfi_def_cfa_offset 24
 2401              		.cfi_offset 12, -24
 2402 1c38 4989F4   		movq	%rsi, %r12
 2403 1c3b 55       		pushq	%rbp
 2404              		.cfi_def_cfa_offset 32
 2405              		.cfi_offset 6, -32
 2406 1c3c 53       		pushq	%rbx
 2407              		.cfi_def_cfa_offset 40
 2408              		.cfi_offset 3, -40
 2409 1c3d 4889FB   		movq	%rdi, %rbx
 2410 1c40 4883EC18 		subq	$24, %rsp
 2411              		.cfi_def_cfa_offset 64
 2412 1c44 488B4708 		movq	8(%rdi), %rax
 2413 1c48 4839C6   		cmpq	%rax, %rsi
 2414 1c4b 732B     		jnb	.L381
 2415 1c4d 4939C5   		cmpq	%rax, %r13
 2416 1c50 0F860206 		jbe	.L339
 2416      0000
 2417 1c56 488B6F10 		movq	16(%rdi), %rbp
 2418 1c5a 4939ED   		cmpq	%rbp, %r13
 2419 1c5d 0F87E503 		ja	.L343
 2419      0000
 2420              	.L351:
 2421 1c63 488B0B   		movq	(%rbx), %rcx
 2422              	.L341:
 2423 1c66 4C896B08 		movq	%r13, 8(%rbx)
 2424 1c6a 4C01E1   		addq	%r12, %rcx
 2425 1c6d E9BB0100 		jmp	.L338
 2425      00
 2426              		.p2align 4,,10
 2427 1c72 660F1F44 		.p2align 3
 2427      0000
 2428              	.L381:
 2429 1c78 488B6F10 		movq	16(%rdi), %rbp
 2430 1c7c 4939ED   		cmpq	%rbp, %r13
 2431 1c7f 0F87CB01 		ja	.L317
 2431      0000
 2432 1c85 488B0F   		movq	(%rdi), %rcx
 2433              	.L315:
 2434 1c88 4801C8   		addq	%rcx, %rax
 2435 1c8b 4C01E1   		addq	%r12, %rcx
 2436 1c8e 4839C8   		cmpq	%rcx, %rax
 2437 1c91 0F839201 		jnb	.L329
 2437      0000
 2438 1c97 4C8D4318 		leaq	24(%rbx), %r8
 2439 1c9b 4889CF   		movq	%rcx, %rdi
 2440 1c9e 488D7001 		leaq	1(%rax), %rsi
 2441 1ca2 4829C7   		subq	%rax, %rdi
 2442 1ca5 4C39C1   		cmpq	%r8, %rcx
 2443 1ca8 4C8D4319 		leaq	25(%rbx), %r8
 2444 1cac 410F96C1 		setbe	%r9b
 2445 1cb0 4C39C0   		cmpq	%r8, %rax
 2446 1cb3 410F93C0 		setnb	%r8b
 2447 1cb7 4508C1   		orb	%r8b, %r9b
 2448 1cba 0F847403 		je	.L337
 2448      0000
 2449 1cc0 4883FF0F 		cmpq	$15, %rdi
 2450 1cc4 0F866A03 		jbe	.L337
 2450      0000
 2451 1cca 4989F8   		movq	%rdi, %r8
 2452 1ccd 31F6     		xorl	%esi, %esi
 2453 1ccf 49C1E804 		shrq	$4, %r8
 2454 1cd3 4D89C1   		movq	%r8, %r9
 2455 1cd6 49C1E104 		salq	$4, %r9
 2456              	.L335:
 2457 1cda 440FB65B 		movzbl	24(%rbx), %r11d
 2457      18
 2458 1cdf 4989F2   		movq	%rsi, %r10
 2459 1ce2 4883C601 		addq	$1, %rsi
 2460 1ce6 49C1E204 		salq	$4, %r10
 2461 1cea 4939F0   		cmpq	%rsi, %r8
 2462 1ced 44881C24 		movb	%r11b, (%rsp)
 2463 1cf1 660F6E04 		movd	(%rsp), %xmm0
 2463      24
 2464 1cf6 660F60C0 		punpcklbw	%xmm0, %xmm0
 2465 1cfa 660F61C0 		punpcklwd	%xmm0, %xmm0
 2466 1cfe 660F70C0 		pshufd	$0, %xmm0, %xmm0
 2466      00
 2467 1d03 F3420F7F 		movdqu	%xmm0, (%rax,%r10)
 2467      0410
 2468 1d09 77CF     		ja	.L335
 2469 1d0b 4C01C8   		addq	%r9, %rax
 2470 1d0e 4C39CF   		cmpq	%r9, %rdi
 2471 1d11 0F840C01 		je	.L336
 2471      0000
 2472 1d17 0FB67318 		movzbl	24(%rbx), %esi
 2473 1d1b 408830   		movb	%sil, (%rax)
 2474 1d1e 488D7001 		leaq	1(%rax), %rsi
 2475 1d22 4839F1   		cmpq	%rsi, %rcx
 2476 1d25 0F86F800 		jbe	.L336
 2476      0000
 2477 1d2b 0FB67318 		movzbl	24(%rbx), %esi
 2478 1d2f 40887001 		movb	%sil, 1(%rax)
 2479 1d33 488D7002 		leaq	2(%rax), %rsi
 2480 1d37 4839F1   		cmpq	%rsi, %rcx
 2481 1d3a 0F86E300 		jbe	.L336
 2481      0000
 2482 1d40 0FB67318 		movzbl	24(%rbx), %esi
 2483 1d44 40887002 		movb	%sil, 2(%rax)
 2484 1d48 488D7003 		leaq	3(%rax), %rsi
 2485 1d4c 4839F1   		cmpq	%rsi, %rcx
 2486 1d4f 0F86CE00 		jbe	.L336
 2486      0000
 2487 1d55 0FB67318 		movzbl	24(%rbx), %esi
 2488 1d59 40887003 		movb	%sil, 3(%rax)
 2489 1d5d 488D7004 		leaq	4(%rax), %rsi
 2490 1d61 4839F1   		cmpq	%rsi, %rcx
 2491 1d64 0F86B900 		jbe	.L336
 2491      0000
 2492 1d6a 0FB67318 		movzbl	24(%rbx), %esi
 2493 1d6e 40887004 		movb	%sil, 4(%rax)
 2494 1d72 488D7005 		leaq	5(%rax), %rsi
 2495 1d76 4839F1   		cmpq	%rsi, %rcx
 2496 1d79 0F86A400 		jbe	.L336
 2496      0000
 2497 1d7f 0FB67318 		movzbl	24(%rbx), %esi
 2498 1d83 40887005 		movb	%sil, 5(%rax)
 2499 1d87 488D7006 		leaq	6(%rax), %rsi
 2500 1d8b 4839F1   		cmpq	%rsi, %rcx
 2501 1d8e 0F868F00 		jbe	.L336
 2501      0000
 2502 1d94 0FB67318 		movzbl	24(%rbx), %esi
 2503 1d98 40887006 		movb	%sil, 6(%rax)
 2504 1d9c 488D7007 		leaq	7(%rax), %rsi
 2505 1da0 4839F1   		cmpq	%rsi, %rcx
 2506 1da3 767E     		jbe	.L336
 2507 1da5 0FB67318 		movzbl	24(%rbx), %esi
 2508 1da9 40887007 		movb	%sil, 7(%rax)
 2509 1dad 488D7008 		leaq	8(%rax), %rsi
 2510 1db1 4839F1   		cmpq	%rsi, %rcx
 2511 1db4 766D     		jbe	.L336
 2512 1db6 0FB67318 		movzbl	24(%rbx), %esi
 2513 1dba 40887008 		movb	%sil, 8(%rax)
 2514 1dbe 488D7009 		leaq	9(%rax), %rsi
 2515 1dc2 4839F1   		cmpq	%rsi, %rcx
 2516 1dc5 765C     		jbe	.L336
 2517 1dc7 0FB67318 		movzbl	24(%rbx), %esi
 2518 1dcb 40887009 		movb	%sil, 9(%rax)
 2519 1dcf 488D700A 		leaq	10(%rax), %rsi
 2520 1dd3 4839F1   		cmpq	%rsi, %rcx
 2521 1dd6 764B     		jbe	.L336
 2522 1dd8 0FB67318 		movzbl	24(%rbx), %esi
 2523 1ddc 4088700A 		movb	%sil, 10(%rax)
 2524 1de0 488D700B 		leaq	11(%rax), %rsi
 2525 1de4 4839F1   		cmpq	%rsi, %rcx
 2526 1de7 763A     		jbe	.L336
 2527 1de9 0FB67318 		movzbl	24(%rbx), %esi
 2528 1ded 4088700B 		movb	%sil, 11(%rax)
 2529 1df1 488D700C 		leaq	12(%rax), %rsi
 2530 1df5 4839F1   		cmpq	%rsi, %rcx
 2531 1df8 7629     		jbe	.L336
 2532 1dfa 0FB67318 		movzbl	24(%rbx), %esi
 2533 1dfe 4088700C 		movb	%sil, 12(%rax)
 2534 1e02 488D700D 		leaq	13(%rax), %rsi
 2535 1e06 4839F1   		cmpq	%rsi, %rcx
 2536 1e09 7618     		jbe	.L336
 2537 1e0b 0FB67318 		movzbl	24(%rbx), %esi
 2538 1e0f 4088700D 		movb	%sil, 13(%rax)
 2539 1e13 488D700E 		leaq	14(%rax), %rsi
 2540 1e17 4839F1   		cmpq	%rsi, %rcx
 2541 1e1a 7607     		jbe	.L336
 2542 1e1c 0FB64B18 		movzbl	24(%rbx), %ecx
 2543 1e20 88480E   		movb	%cl, 14(%rax)
 2544              	.L336:
 2545 1e23 4C89E1   		movq	%r12, %rcx
 2546 1e26 48030B   		addq	(%rbx), %rcx
 2547              	.L329:
 2548 1e29 4C896B08 		movq	%r13, 8(%rbx)
 2549              	.L338:
 2550 1e2d 8811     		movb	%dl, (%rcx)
 2551 1e2f 488B03   		movq	(%rbx), %rax
 2552 1e32 0FB6D6   		movzbl	%dh, %edx
 2553 1e35 42885420 		movb	%dl, 1(%rax,%r12)
 2553      01
 2554 1e3a 31C0     		xorl	%eax, %eax
 2555              	.L319:
 2556              	.L376:
 2557 1e3c 4883C418 		addq	$24, %rsp
 2558              		.cfi_remember_state
 2559              		.cfi_def_cfa_offset 40
 2560 1e40 5B       		popq	%rbx
 2561              		.cfi_def_cfa_offset 32
 2562 1e41 5D       		popq	%rbp
 2563              		.cfi_def_cfa_offset 24
 2564 1e42 415C     		popq	%r12
 2565              		.cfi_def_cfa_offset 16
 2566 1e44 415D     		popq	%r13
 2567              		.cfi_def_cfa_offset 8
 2568 1e46 C3       		ret
 2569 1e47 660F1F84 		.p2align 4,,10
 2569      00000000 
 2569      00
 2570              		.p2align 3
 2571              	.L317:
 2572              		.cfi_restore_state
 2573 1e50 4801ED   		addq	%rbp, %rbp
 2574 1e53 4939ED   		cmpq	%rbp, %r13
 2575 1e56 77F8     		ja	.L317
 2576 1e58 488B3B   		movq	(%rbx), %rdi
 2577 1e5b 4889EE   		movq	%rbp, %rsi
 2578 1e5e 48894C24 		movq	%rcx, 8(%rsp)
 2578      08
 2579 1e63 891424   		movl	%edx, (%rsp)
 2580 1e66 E8000000 		call	realloc@PLT
 2580      00
 2581 1e6b 4885C0   		testq	%rax, %rax
 2582 1e6e 4889C7   		movq	%rax, %rdi
 2583 1e71 8B1424   		movl	(%rsp), %edx
 2584 1e74 488B4C24 		movq	8(%rsp), %rcx
 2584      08
 2585 1e79 0F841204 		je	.L344
 2585      0000
 2586 1e7f 488903   		movq	%rax, (%rbx)
 2587 1e82 4A8D0428 		leaq	(%rax,%r13), %rax
 2588 1e86 48896B10 		movq	%rbp, 16(%rbx)
 2589 1e8a 4801FD   		addq	%rdi, %rbp
 2590 1e8d 4839E8   		cmpq	%rbp, %rax
 2591 1e90 0F83EF03 		jnb	.L382
 2591      0000
 2592 1e96 4C01E7   		addq	%r12, %rdi
 2593 1e99 4989E8   		movq	%rbp, %r8
 2594 1e9c 4C8D5318 		leaq	24(%rbx), %r10
 2595 1ea0 4C8D4F02 		leaq	2(%rdi), %r9
 2596 1ea4 4929C0   		subq	%rax, %r8
 2597 1ea7 488D7001 		leaq	1(%rax), %rsi
 2598 1eab 4B8D0C01 		leaq	(%r9,%r8), %rcx
 2599 1eaf 4939CA   		cmpq	%rcx, %r10
 2600 1eb2 488D4B19 		leaq	25(%rbx), %rcx
 2601 1eb6 410F93C2 		setnb	%r10b
 2602 1eba 4939C9   		cmpq	%rcx, %r9
 2603 1ebd 0F93C1   		setnb	%cl
 2604 1ec0 4108CA   		orb	%cl, %r10b
 2605 1ec3 0F847B03 		je	.L328
 2605      0000
 2606 1ec9 4983F80F 		cmpq	$15, %r8
 2607 1ecd 0F867103 		jbe	.L328
 2607      0000
 2608 1ed3 4C89C6   		movq	%r8, %rsi
 2609 1ed6 31C9     		xorl	%ecx, %ecx
 2610 1ed8 48C1EE04 		shrq	$4, %rsi
 2611 1edc 4989F1   		movq	%rsi, %r9
 2612 1edf 49C1E104 		salq	$4, %r9
 2613              	.L326:
 2614 1ee3 440FB65B 		movzbl	24(%rbx), %r11d
 2614      18
 2615 1ee8 4989CA   		movq	%rcx, %r10
 2616 1eeb 4883C101 		addq	$1, %rcx
 2617 1eef 49C1E204 		salq	$4, %r10
 2618 1ef3 4839CE   		cmpq	%rcx, %rsi
 2619 1ef6 44881C24 		movb	%r11b, (%rsp)
 2620 1efa 660F6E04 		movd	(%rsp), %xmm0
 2620      24
 2621 1eff 660F60C0 		punpcklbw	%xmm0, %xmm0
 2622 1f03 660F61C0 		punpcklwd	%xmm0, %xmm0
 2623 1f07 660F70C0 		pshufd	$0, %xmm0, %xmm0
 2623      00
 2624 1f0c F3420F7F 		movdqu	%xmm0, 2(%rdi,%r10)
 2624      441702
 2625 1f13 77CE     		ja	.L326
 2626 1f15 4C01C8   		addq	%r9, %rax
 2627 1f18 4D39C8   		cmpq	%r9, %r8
 2628 1f1b 0F84FE00 		je	.L327
 2628      0000
 2629 1f21 0FB64B18 		movzbl	24(%rbx), %ecx
 2630 1f25 8808     		movb	%cl, (%rax)
 2631 1f27 488D4801 		leaq	1(%rax), %rcx
 2632 1f2b 4839CD   		cmpq	%rcx, %rbp
 2633 1f2e 0F86EB00 		jbe	.L327
 2633      0000
 2634 1f34 0FB64B18 		movzbl	24(%rbx), %ecx
 2635 1f38 884801   		movb	%cl, 1(%rax)
 2636 1f3b 488D4802 		leaq	2(%rax), %rcx
 2637 1f3f 4839CD   		cmpq	%rcx, %rbp
 2638 1f42 0F86D700 		jbe	.L327
 2638      0000
 2639 1f48 0FB64B18 		movzbl	24(%rbx), %ecx
 2640 1f4c 884802   		movb	%cl, 2(%rax)
 2641 1f4f 488D4803 		leaq	3(%rax), %rcx
 2642 1f53 4839CD   		cmpq	%rcx, %rbp
 2643 1f56 0F86C300 		jbe	.L327
 2643      0000
 2644 1f5c 0FB64B18 		movzbl	24(%rbx), %ecx
 2645 1f60 884803   		movb	%cl, 3(%rax)
 2646 1f63 488D4804 		leaq	4(%rax), %rcx
 2647 1f67 4839CD   		cmpq	%rcx, %rbp
 2648 1f6a 0F86AF00 		jbe	.L327
 2648      0000
 2649 1f70 0FB64B18 		movzbl	24(%rbx), %ecx
 2650 1f74 884804   		movb	%cl, 4(%rax)
 2651 1f77 488D4805 		leaq	5(%rax), %rcx
 2652 1f7b 4839CD   		cmpq	%rcx, %rbp
 2653 1f7e 0F869B00 		jbe	.L327
 2653      0000
 2654 1f84 0FB64B18 		movzbl	24(%rbx), %ecx
 2655 1f88 884805   		movb	%cl, 5(%rax)
 2656 1f8b 488D4806 		leaq	6(%rax), %rcx
 2657 1f8f 4839CD   		cmpq	%rcx, %rbp
 2658 1f92 0F868700 		jbe	.L327
 2658      0000
 2659 1f98 0FB64B18 		movzbl	24(%rbx), %ecx
 2660 1f9c 884806   		movb	%cl, 6(%rax)
 2661 1f9f 488D4807 		leaq	7(%rax), %rcx
 2662 1fa3 4839CD   		cmpq	%rcx, %rbp
 2663 1fa6 7677     		jbe	.L327
 2664 1fa8 0FB64B18 		movzbl	24(%rbx), %ecx
 2665 1fac 884807   		movb	%cl, 7(%rax)
 2666 1faf 488D4808 		leaq	8(%rax), %rcx
 2667 1fb3 4839CD   		cmpq	%rcx, %rbp
 2668 1fb6 7667     		jbe	.L327
 2669 1fb8 0FB64B18 		movzbl	24(%rbx), %ecx
 2670 1fbc 884808   		movb	%cl, 8(%rax)
 2671 1fbf 488D4809 		leaq	9(%rax), %rcx
 2672 1fc3 4839CD   		cmpq	%rcx, %rbp
 2673 1fc6 7657     		jbe	.L327
 2674 1fc8 0FB64B18 		movzbl	24(%rbx), %ecx
 2675 1fcc 884809   		movb	%cl, 9(%rax)
 2676 1fcf 488D480A 		leaq	10(%rax), %rcx
 2677 1fd3 4839CD   		cmpq	%rcx, %rbp
 2678 1fd6 7647     		jbe	.L327
 2679 1fd8 0FB64B18 		movzbl	24(%rbx), %ecx
 2680 1fdc 88480A   		movb	%cl, 10(%rax)
 2681 1fdf 488D480B 		leaq	11(%rax), %rcx
 2682 1fe3 4839CD   		cmpq	%rcx, %rbp
 2683 1fe6 7637     		jbe	.L327
 2684 1fe8 0FB64B18 		movzbl	24(%rbx), %ecx
 2685 1fec 88480B   		movb	%cl, 11(%rax)
 2686 1fef 488D480C 		leaq	12(%rax), %rcx
 2687 1ff3 4839CD   		cmpq	%rcx, %rbp
 2688 1ff6 7627     		jbe	.L327
 2689 1ff8 0FB64B18 		movzbl	24(%rbx), %ecx
 2690 1ffc 88480C   		movb	%cl, 12(%rax)
 2691 1fff 488D480D 		leaq	13(%rax), %rcx
 2692 2003 4839CD   		cmpq	%rcx, %rbp
 2693 2006 7617     		jbe	.L327
 2694 2008 0FB64B18 		movzbl	24(%rbx), %ecx
 2695 200c 88480D   		movb	%cl, 13(%rax)
 2696 200f 488D480E 		leaq	14(%rax), %rcx
 2697 2013 4839CD   		cmpq	%rcx, %rbp
 2698 2016 7607     		jbe	.L327
 2699 2018 0FB64B18 		movzbl	24(%rbx), %ecx
 2700 201c 88480E   		movb	%cl, 14(%rax)
 2701              	.L327:
 2702 201f 488B0B   		movq	(%rbx), %rcx
 2703 2022 488B4308 		movq	8(%rbx), %rax
 2704 2026 E95DFCFF 		jmp	.L315
 2704      FF
 2705 202b 0F1F4400 		.p2align 4,,10
 2705      00
 2706              		.p2align 3
 2707              	.L383:
 2708 2030 4883C601 		addq	$1, %rsi
 2709              	.L337:
 2710 2034 0FB64318 		movzbl	24(%rbx), %eax
 2711 2038 4839CE   		cmpq	%rcx, %rsi
 2712 203b 8846FF   		movb	%al, -1(%rsi)
 2713 203e 75F0     		jne	.L383
 2714 2040 E9DEFDFF 		jmp	.L336
 2714      FF
 2715              		.p2align 4,,10
 2716 2045 0F1F00   		.p2align 3
 2717              	.L343:
 2718 2048 4801ED   		addq	%rbp, %rbp
 2719 204b 4939ED   		cmpq	%rbp, %r13
 2720 204e 77F8     		ja	.L343
 2721 2050 488B3B   		movq	(%rbx), %rdi
 2722 2053 4889EE   		movq	%rbp, %rsi
 2723 2056 48890C24 		movq	%rcx, (%rsp)
 2724 205a 89542408 		movl	%edx, 8(%rsp)
 2725 205e E8000000 		call	realloc@PLT
 2725      00
 2726 2063 4885C0   		testq	%rax, %rax
 2727 2066 488B0C24 		movq	(%rsp), %rcx
 2728 206a 0F842102 		je	.L344
 2728      0000
 2729 2070 4A8D3428 		leaq	(%rax,%r13), %rsi
 2730 2074 48896B10 		movq	%rbp, 16(%rbx)
 2731 2078 4801C5   		addq	%rax, %rbp
 2732 207b 488903   		movq	%rax, (%rbx)
 2733 207e 8B542408 		movl	8(%rsp), %edx
 2734 2082 4839EE   		cmpq	%rbp, %rsi
 2735 2085 0F83F201 		jnb	.L354
 2735      0000
 2736 208b 4C01E0   		addq	%r12, %rax
 2737 208e 4889EF   		movq	%rbp, %rdi
 2738 2091 4C8D5318 		leaq	24(%rbx), %r10
 2739 2095 4C8D4002 		leaq	2(%rax), %r8
 2740 2099 4829F7   		subq	%rsi, %rdi
 2741 209c 488D4E01 		leaq	1(%rsi), %rcx
 2742 20a0 4D8D0C38 		leaq	(%r8,%rdi), %r9
 2743 20a4 4D39CA   		cmpq	%r9, %r10
 2744 20a7 4C8D5319 		leaq	25(%rbx), %r10
 2745 20ab 410F93C1 		setnb	%r9b
 2746 20af 4D39D0   		cmpq	%r10, %r8
 2747 20b2 410F93C0 		setnb	%r8b
 2748 20b6 4508C1   		orb	%r8b, %r9b
 2749 20b9 0F84AD01 		je	.L352
 2749      0000
 2750 20bf 4883FF0F 		cmpq	$15, %rdi
 2751 20c3 0F86A301 		jbe	.L352
 2751      0000
 2752 20c9 4989F8   		movq	%rdi, %r8
 2753 20cc 31C9     		xorl	%ecx, %ecx
 2754 20ce 49C1E804 		shrq	$4, %r8
 2755 20d2 4D89C1   		movq	%r8, %r9
 2756 20d5 49C1E104 		salq	$4, %r9
 2757              	.L350:
 2758 20d9 440FB65B 		movzbl	24(%rbx), %r11d
 2758      18
 2759 20de 4989CA   		movq	%rcx, %r10
 2760 20e1 4883C101 		addq	$1, %rcx
 2761 20e5 49C1E204 		salq	$4, %r10
 2762 20e9 4939C8   		cmpq	%rcx, %r8
 2763 20ec 44881C24 		movb	%r11b, (%rsp)
 2764 20f0 660F6E04 		movd	(%rsp), %xmm0
 2764      24
 2765 20f5 660F60C0 		punpcklbw	%xmm0, %xmm0
 2766 20f9 660F61C0 		punpcklwd	%xmm0, %xmm0
 2767 20fd 660F70C0 		pshufd	$0, %xmm0, %xmm0
 2767      00
 2768 2102 F3420F7F 		movdqu	%xmm0, 2(%rax,%r10)
 2768      441002
 2769 2109 77CE     		ja	.L350
 2770 210b 4C39CF   		cmpq	%r9, %rdi
 2771 210e 4A8D040E 		leaq	(%rsi,%r9), %rax
 2772 2112 0F844BFB 		je	.L351
 2772      FFFF
 2773 2118 0FB64B18 		movzbl	24(%rbx), %ecx
 2774 211c 8808     		movb	%cl, (%rax)
 2775 211e 488D4801 		leaq	1(%rax), %rcx
 2776 2122 4839CD   		cmpq	%rcx, %rbp
 2777 2125 0F8638FB 		jbe	.L351
 2777      FFFF
 2778 212b 0FB64B18 		movzbl	24(%rbx), %ecx
 2779 212f 884801   		movb	%cl, 1(%rax)
 2780 2132 488D4802 		leaq	2(%rax), %rcx
 2781 2136 4839CD   		cmpq	%rcx, %rbp
 2782 2139 0F8624FB 		jbe	.L351
 2782      FFFF
 2783 213f 0FB64B18 		movzbl	24(%rbx), %ecx
 2784 2143 884802   		movb	%cl, 2(%rax)
 2785 2146 488D4803 		leaq	3(%rax), %rcx
 2786 214a 4839CD   		cmpq	%rcx, %rbp
 2787 214d 0F8610FB 		jbe	.L351
 2787      FFFF
 2788 2153 0FB64B18 		movzbl	24(%rbx), %ecx
 2789 2157 884803   		movb	%cl, 3(%rax)
 2790 215a 488D4804 		leaq	4(%rax), %rcx
 2791 215e 4839CD   		cmpq	%rcx, %rbp
 2792 2161 0F86FCFA 		jbe	.L351
 2792      FFFF
 2793 2167 0FB64B18 		movzbl	24(%rbx), %ecx
 2794 216b 884804   		movb	%cl, 4(%rax)
 2795 216e 488D4805 		leaq	5(%rax), %rcx
 2796 2172 4839CD   		cmpq	%rcx, %rbp
 2797 2175 0F86E8FA 		jbe	.L351
 2797      FFFF
 2798 217b 0FB64B18 		movzbl	24(%rbx), %ecx
 2799 217f 884805   		movb	%cl, 5(%rax)
 2800 2182 488D4806 		leaq	6(%rax), %rcx
 2801 2186 4839CD   		cmpq	%rcx, %rbp
 2802 2189 0F86D4FA 		jbe	.L351
 2802      FFFF
 2803 218f 0FB64B18 		movzbl	24(%rbx), %ecx
 2804 2193 884806   		movb	%cl, 6(%rax)
 2805 2196 488D4807 		leaq	7(%rax), %rcx
 2806 219a 4839CD   		cmpq	%rcx, %rbp
 2807 219d 0F86C0FA 		jbe	.L351
 2807      FFFF
 2808 21a3 0FB64B18 		movzbl	24(%rbx), %ecx
 2809 21a7 884807   		movb	%cl, 7(%rax)
 2810 21aa 488D4808 		leaq	8(%rax), %rcx
 2811 21ae 4839CD   		cmpq	%rcx, %rbp
 2812 21b1 0F86ACFA 		jbe	.L351
 2812      FFFF
 2813 21b7 0FB64B18 		movzbl	24(%rbx), %ecx
 2814 21bb 884808   		movb	%cl, 8(%rax)
 2815 21be 488D4809 		leaq	9(%rax), %rcx
 2816 21c2 4839CD   		cmpq	%rcx, %rbp
 2817 21c5 0F8698FA 		jbe	.L351
 2817      FFFF
 2818 21cb 0FB64B18 		movzbl	24(%rbx), %ecx
 2819 21cf 884809   		movb	%cl, 9(%rax)
 2820 21d2 488D480A 		leaq	10(%rax), %rcx
 2821 21d6 4839CD   		cmpq	%rcx, %rbp
 2822 21d9 0F8684FA 		jbe	.L351
 2822      FFFF
 2823 21df 0FB64B18 		movzbl	24(%rbx), %ecx
 2824 21e3 88480A   		movb	%cl, 10(%rax)
 2825 21e6 488D480B 		leaq	11(%rax), %rcx
 2826 21ea 4839CD   		cmpq	%rcx, %rbp
 2827 21ed 0F8670FA 		jbe	.L351
 2827      FFFF
 2828 21f3 0FB64B18 		movzbl	24(%rbx), %ecx
 2829 21f7 88480B   		movb	%cl, 11(%rax)
 2830 21fa 488D480C 		leaq	12(%rax), %rcx
 2831 21fe 4839CD   		cmpq	%rcx, %rbp
 2832 2201 0F865CFA 		jbe	.L351
 2832      FFFF
 2833 2207 0FB64B18 		movzbl	24(%rbx), %ecx
 2834 220b 88480C   		movb	%cl, 12(%rax)
 2835 220e 488D480D 		leaq	13(%rax), %rcx
 2836 2212 4839CD   		cmpq	%rcx, %rbp
 2837 2215 0F8648FA 		jbe	.L351
 2837      FFFF
 2838 221b 0FB64B18 		movzbl	24(%rbx), %ecx
 2839 221f 88480D   		movb	%cl, 13(%rax)
 2840 2222 488D480E 		leaq	14(%rax), %rcx
 2841 2226 4839CD   		cmpq	%rcx, %rbp
 2842 2229 0F8634FA 		jbe	.L351
 2842      FFFF
 2843 222f 0FB64B18 		movzbl	24(%rbx), %ecx
 2844 2233 88480E   		movb	%cl, 14(%rax)
 2845 2236 E928FAFF 		jmp	.L351
 2845      FF
 2846 223b 0F1F4400 		.p2align 4,,10
 2846      00
 2847              		.p2align 3
 2848              	.L384:
 2849 2240 4883C601 		addq	$1, %rsi
 2850              	.L328:
 2851 2244 0FB64318 		movzbl	24(%rbx), %eax
 2852 2248 4839EE   		cmpq	%rbp, %rsi
 2853 224b 8846FF   		movb	%al, -1(%rsi)
 2854 224e 75F0     		jne	.L384
 2855 2250 E9CAFDFF 		jmp	.L327
 2855      FF
 2856              		.p2align 4,,10
 2857 2255 0F1F00   		.p2align 3
 2858              	.L339:
 2859 2258 4889F1   		movq	%rsi, %rcx
 2860 225b 48030F   		addq	(%rdi), %rcx
 2861 225e E9CAFBFF 		jmp	.L338
 2861      FF
 2862              		.p2align 4,,10
 2863 2263 0F1F4400 		.p2align 3
 2863      00
 2864              	.L385:
 2865 2268 4883C101 		addq	$1, %rcx
 2866              	.L352:
 2867 226c 0FB64318 		movzbl	24(%rbx), %eax
 2868 2270 4839E9   		cmpq	%rbp, %rcx
 2869 2273 8841FF   		movb	%al, -1(%rcx)
 2870 2276 75F0     		jne	.L385
 2871 2278 E9E6F9FF 		jmp	.L351
 2871      FF
 2872              	.L354:
 2873 227d 4889C1   		movq	%rax, %rcx
 2874 2280 E9E1F9FF 		jmp	.L341
 2874      FF
 2875              	.L382:
 2876 2285 488B4308 		movq	8(%rbx), %rax
 2877 2289 4889F9   		movq	%rdi, %rcx
 2878 228c E9F7F9FF 		jmp	.L315
 2878      FF
 2879              	.L344:
 2880 2291 488D3500 		leaq	.LC2(%rip), %rsi
 2880      000000
 2881 2298 4889CF   		movq	%rcx, %rdi
 2882 229b 48890C24 		movq	%rcx, (%rsp)
 2883 229f E8000000 		call	errPrefix@PLT
 2883      00
 2884 22a4 488B0C24 		movq	(%rsp), %rcx
 2885 22a8 488D3500 		leaq	.LC10(%rip), %rsi
 2885      000000
 2886 22af 4889CF   		movq	%rcx, %rdi
 2887 22b2 E8000000 		call	errPrefix@PLT
 2887      00
 2888 22b7 488B0C24 		movq	(%rsp), %rcx
 2889 22bb 488D3500 		leaq	.LC12(%rip), %rsi
 2889      000000
 2890 22c2 4889CF   		movq	%rcx, %rdi
 2891 22c5 E8000000 		call	errPrefix@PLT
 2891      00
 2892 22ca B8010000 		movl	$1, %eax
 2892      00
 2893 22cf E968FBFF 		jmp	.L376
 2893      FF
 2894              		.cfi_endproc
 2895              	.LFE62:
 2897              		.section	.rodata.str1.1
 2898              	.LC13:
 2899 00ac 62756657 		.string	"bufWriteWordBE()"
 2899      72697465 
 2899      576F7264 
 2899      42452829 
 2899      00
 2900              		.text
 2901 22d4 6666662E 		.p2align 4,,15
 2901      0F1F8400 
 2901      00000000 
 2902              		.globl	bufWriteWordBE
 2904              	bufWriteWordBE:
 2905              	.LFB63:
 2906              		.cfi_startproc
 2907 22e0 4155     		pushq	%r13
 2908              		.cfi_def_cfa_offset 16
 2909              		.cfi_offset 13, -16
 2910 22e2 4C8D6E02 		leaq	2(%rsi), %r13
 2911 22e6 4154     		pushq	%r12
 2912              		.cfi_def_cfa_offset 24
 2913              		.cfi_offset 12, -24
 2914 22e8 4989F4   		movq	%rsi, %r12
 2915 22eb 55       		pushq	%rbp
 2916              		.cfi_def_cfa_offset 32
 2917              		.cfi_offset 6, -32
 2918 22ec 53       		pushq	%rbx
 2919              		.cfi_def_cfa_offset 40
 2920              		.cfi_offset 3, -40
 2921 22ed 4889FB   		movq	%rdi, %rbx
 2922 22f0 4883EC18 		subq	$24, %rsp
 2923              		.cfi_def_cfa_offset 64
 2924 22f4 488B4708 		movq	8(%rdi), %rax
 2925 22f8 4839C6   		cmpq	%rax, %rsi
 2926 22fb 732B     		jnb	.L455
 2927 22fd 4939C5   		cmpq	%rax, %r13
 2928 2300 0F860206 		jbe	.L413
 2928      0000
 2929 2306 488B6F10 		movq	16(%rdi), %rbp
 2930 230a 4939ED   		cmpq	%rbp, %r13
 2931 230d 0F87E503 		ja	.L417
 2931      0000
 2932              	.L425:
 2933 2313 488B0B   		movq	(%rbx), %rcx
 2934              	.L415:
 2935 2316 4C896B08 		movq	%r13, 8(%rbx)
 2936 231a 4C01E1   		addq	%r12, %rcx
 2937 231d E9BB0100 		jmp	.L412
 2937      00
 2938              		.p2align 4,,10
 2939 2322 660F1F44 		.p2align 3
 2939      0000
 2940              	.L455:
 2941 2328 488B6F10 		movq	16(%rdi), %rbp
 2942 232c 4939ED   		cmpq	%rbp, %r13
 2943 232f 0F87CB01 		ja	.L391
 2943      0000
 2944 2335 488B0F   		movq	(%rdi), %rcx
 2945              	.L389:
 2946 2338 4801C8   		addq	%rcx, %rax
 2947 233b 4C01E1   		addq	%r12, %rcx
 2948 233e 4839C8   		cmpq	%rcx, %rax
 2949 2341 0F839201 		jnb	.L403
 2949      0000
 2950 2347 4C8D4318 		leaq	24(%rbx), %r8
 2951 234b 4889CF   		movq	%rcx, %rdi
 2952 234e 488D7001 		leaq	1(%rax), %rsi
 2953 2352 4829C7   		subq	%rax, %rdi
 2954 2355 4C39C1   		cmpq	%r8, %rcx
 2955 2358 4C8D4319 		leaq	25(%rbx), %r8
 2956 235c 410F96C1 		setbe	%r9b
 2957 2360 4C39C0   		cmpq	%r8, %rax
 2958 2363 410F93C0 		setnb	%r8b
 2959 2367 4508C1   		orb	%r8b, %r9b
 2960 236a 0F847403 		je	.L411
 2960      0000
 2961 2370 4883FF0F 		cmpq	$15, %rdi
 2962 2374 0F866A03 		jbe	.L411
 2962      0000
 2963 237a 4989F8   		movq	%rdi, %r8
 2964 237d 31F6     		xorl	%esi, %esi
 2965 237f 49C1E804 		shrq	$4, %r8
 2966 2383 4D89C1   		movq	%r8, %r9
 2967 2386 49C1E104 		salq	$4, %r9
 2968              	.L409:
 2969 238a 440FB65B 		movzbl	24(%rbx), %r11d
 2969      18
 2970 238f 4989F2   		movq	%rsi, %r10
 2971 2392 4883C601 		addq	$1, %rsi
 2972 2396 49C1E204 		salq	$4, %r10
 2973 239a 4939F0   		cmpq	%rsi, %r8
 2974 239d 44881C24 		movb	%r11b, (%rsp)
 2975 23a1 660F6E04 		movd	(%rsp), %xmm0
 2975      24
 2976 23a6 660F60C0 		punpcklbw	%xmm0, %xmm0
 2977 23aa 660F61C0 		punpcklwd	%xmm0, %xmm0
 2978 23ae 660F70C0 		pshufd	$0, %xmm0, %xmm0
 2978      00
 2979 23b3 F3420F7F 		movdqu	%xmm0, (%rax,%r10)
 2979      0410
 2980 23b9 77CF     		ja	.L409
 2981 23bb 4C01C8   		addq	%r9, %rax
 2982 23be 4C39CF   		cmpq	%r9, %rdi
 2983 23c1 0F840C01 		je	.L410
 2983      0000
 2984 23c7 0FB67318 		movzbl	24(%rbx), %esi
 2985 23cb 408830   		movb	%sil, (%rax)
 2986 23ce 488D7001 		leaq	1(%rax), %rsi
 2987 23d2 4839F1   		cmpq	%rsi, %rcx
 2988 23d5 0F86F800 		jbe	.L410
 2988      0000
 2989 23db 0FB67318 		movzbl	24(%rbx), %esi
 2990 23df 40887001 		movb	%sil, 1(%rax)
 2991 23e3 488D7002 		leaq	2(%rax), %rsi
 2992 23e7 4839F1   		cmpq	%rsi, %rcx
 2993 23ea 0F86E300 		jbe	.L410
 2993      0000
 2994 23f0 0FB67318 		movzbl	24(%rbx), %esi
 2995 23f4 40887002 		movb	%sil, 2(%rax)
 2996 23f8 488D7003 		leaq	3(%rax), %rsi
 2997 23fc 4839F1   		cmpq	%rsi, %rcx
 2998 23ff 0F86CE00 		jbe	.L410
 2998      0000
 2999 2405 0FB67318 		movzbl	24(%rbx), %esi
 3000 2409 40887003 		movb	%sil, 3(%rax)
 3001 240d 488D7004 		leaq	4(%rax), %rsi
 3002 2411 4839F1   		cmpq	%rsi, %rcx
 3003 2414 0F86B900 		jbe	.L410
 3003      0000
 3004 241a 0FB67318 		movzbl	24(%rbx), %esi
 3005 241e 40887004 		movb	%sil, 4(%rax)
 3006 2422 488D7005 		leaq	5(%rax), %rsi
 3007 2426 4839F1   		cmpq	%rsi, %rcx
 3008 2429 0F86A400 		jbe	.L410
 3008      0000
 3009 242f 0FB67318 		movzbl	24(%rbx), %esi
 3010 2433 40887005 		movb	%sil, 5(%rax)
 3011 2437 488D7006 		leaq	6(%rax), %rsi
 3012 243b 4839F1   		cmpq	%rsi, %rcx
 3013 243e 0F868F00 		jbe	.L410
 3013      0000
 3014 2444 0FB67318 		movzbl	24(%rbx), %esi
 3015 2448 40887006 		movb	%sil, 6(%rax)
 3016 244c 488D7007 		leaq	7(%rax), %rsi
 3017 2450 4839F1   		cmpq	%rsi, %rcx
 3018 2453 767E     		jbe	.L410
 3019 2455 0FB67318 		movzbl	24(%rbx), %esi
 3020 2459 40887007 		movb	%sil, 7(%rax)
 3021 245d 488D7008 		leaq	8(%rax), %rsi
 3022 2461 4839F1   		cmpq	%rsi, %rcx
 3023 2464 766D     		jbe	.L410
 3024 2466 0FB67318 		movzbl	24(%rbx), %esi
 3025 246a 40887008 		movb	%sil, 8(%rax)
 3026 246e 488D7009 		leaq	9(%rax), %rsi
 3027 2472 4839F1   		cmpq	%rsi, %rcx
 3028 2475 765C     		jbe	.L410
 3029 2477 0FB67318 		movzbl	24(%rbx), %esi
 3030 247b 40887009 		movb	%sil, 9(%rax)
 3031 247f 488D700A 		leaq	10(%rax), %rsi
 3032 2483 4839F1   		cmpq	%rsi, %rcx
 3033 2486 764B     		jbe	.L410
 3034 2488 0FB67318 		movzbl	24(%rbx), %esi
 3035 248c 4088700A 		movb	%sil, 10(%rax)
 3036 2490 488D700B 		leaq	11(%rax), %rsi
 3037 2494 4839F1   		cmpq	%rsi, %rcx
 3038 2497 763A     		jbe	.L410
 3039 2499 0FB67318 		movzbl	24(%rbx), %esi
 3040 249d 4088700B 		movb	%sil, 11(%rax)
 3041 24a1 488D700C 		leaq	12(%rax), %rsi
 3042 24a5 4839F1   		cmpq	%rsi, %rcx
 3043 24a8 7629     		jbe	.L410
 3044 24aa 0FB67318 		movzbl	24(%rbx), %esi
 3045 24ae 4088700C 		movb	%sil, 12(%rax)
 3046 24b2 488D700D 		leaq	13(%rax), %rsi
 3047 24b6 4839F1   		cmpq	%rsi, %rcx
 3048 24b9 7618     		jbe	.L410
 3049 24bb 0FB67318 		movzbl	24(%rbx), %esi
 3050 24bf 4088700D 		movb	%sil, 13(%rax)
 3051 24c3 488D700E 		leaq	14(%rax), %rsi
 3052 24c7 4839F1   		cmpq	%rsi, %rcx
 3053 24ca 7607     		jbe	.L410
 3054 24cc 0FB64B18 		movzbl	24(%rbx), %ecx
 3055 24d0 88480E   		movb	%cl, 14(%rax)
 3056              	.L410:
 3057 24d3 4C89E1   		movq	%r12, %rcx
 3058 24d6 48030B   		addq	(%rbx), %rcx
 3059              	.L403:
 3060 24d9 4C896B08 		movq	%r13, 8(%rbx)
 3061              	.L412:
 3062 24dd 0FB6C6   		movzbl	%dh, %eax
 3063 24e0 8801     		movb	%al, (%rcx)
 3064 24e2 488B03   		movq	(%rbx), %rax
 3065 24e5 42885420 		movb	%dl, 1(%rax,%r12)
 3065      01
 3066 24ea 31C0     		xorl	%eax, %eax
 3067              	.L393:
 3068              	.L450:
 3069 24ec 4883C418 		addq	$24, %rsp
 3070              		.cfi_remember_state
 3071              		.cfi_def_cfa_offset 40
 3072 24f0 5B       		popq	%rbx
 3073              		.cfi_def_cfa_offset 32
 3074 24f1 5D       		popq	%rbp
 3075              		.cfi_def_cfa_offset 24
 3076 24f2 415C     		popq	%r12
 3077              		.cfi_def_cfa_offset 16
 3078 24f4 415D     		popq	%r13
 3079              		.cfi_def_cfa_offset 8
 3080 24f6 C3       		ret
 3081 24f7 660F1F84 		.p2align 4,,10
 3081      00000000 
 3081      00
 3082              		.p2align 3
 3083              	.L391:
 3084              		.cfi_restore_state
 3085 2500 4801ED   		addq	%rbp, %rbp
 3086 2503 4939ED   		cmpq	%rbp, %r13
 3087 2506 77F8     		ja	.L391
 3088 2508 488B3B   		movq	(%rbx), %rdi
 3089 250b 4889EE   		movq	%rbp, %rsi
 3090 250e 48894C24 		movq	%rcx, 8(%rsp)
 3090      08
 3091 2513 891424   		movl	%edx, (%rsp)
 3092 2516 E8000000 		call	realloc@PLT
 3092      00
 3093 251b 4885C0   		testq	%rax, %rax
 3094 251e 4889C7   		movq	%rax, %rdi
 3095 2521 8B1424   		movl	(%rsp), %edx
 3096 2524 488B4C24 		movq	8(%rsp), %rcx
 3096      08
 3097 2529 0F841204 		je	.L418
 3097      0000
 3098 252f 488903   		movq	%rax, (%rbx)
 3099 2532 4A8D0428 		leaq	(%rax,%r13), %rax
 3100 2536 48896B10 		movq	%rbp, 16(%rbx)
 3101 253a 4801FD   		addq	%rdi, %rbp
 3102 253d 4839E8   		cmpq	%rbp, %rax
 3103 2540 0F83EF03 		jnb	.L456
 3103      0000
 3104 2546 4C01E7   		addq	%r12, %rdi
 3105 2549 4989E8   		movq	%rbp, %r8
 3106 254c 4C8D5318 		leaq	24(%rbx), %r10
 3107 2550 4C8D4F02 		leaq	2(%rdi), %r9
 3108 2554 4929C0   		subq	%rax, %r8
 3109 2557 488D7001 		leaq	1(%rax), %rsi
 3110 255b 4B8D0C01 		leaq	(%r9,%r8), %rcx
 3111 255f 4939CA   		cmpq	%rcx, %r10
 3112 2562 488D4B19 		leaq	25(%rbx), %rcx
 3113 2566 410F93C2 		setnb	%r10b
 3114 256a 4939C9   		cmpq	%rcx, %r9
 3115 256d 0F93C1   		setnb	%cl
 3116 2570 4108CA   		orb	%cl, %r10b
 3117 2573 0F847B03 		je	.L402
 3117      0000
 3118 2579 4983F80F 		cmpq	$15, %r8
 3119 257d 0F867103 		jbe	.L402
 3119      0000
 3120 2583 4C89C6   		movq	%r8, %rsi
 3121 2586 31C9     		xorl	%ecx, %ecx
 3122 2588 48C1EE04 		shrq	$4, %rsi
 3123 258c 4989F1   		movq	%rsi, %r9
 3124 258f 49C1E104 		salq	$4, %r9
 3125              	.L400:
 3126 2593 440FB65B 		movzbl	24(%rbx), %r11d
 3126      18
 3127 2598 4989CA   		movq	%rcx, %r10
 3128 259b 4883C101 		addq	$1, %rcx
 3129 259f 49C1E204 		salq	$4, %r10
 3130 25a3 4839CE   		cmpq	%rcx, %rsi
 3131 25a6 44881C24 		movb	%r11b, (%rsp)
 3132 25aa 660F6E04 		movd	(%rsp), %xmm0
 3132      24
 3133 25af 660F60C0 		punpcklbw	%xmm0, %xmm0
 3134 25b3 660F61C0 		punpcklwd	%xmm0, %xmm0
 3135 25b7 660F70C0 		pshufd	$0, %xmm0, %xmm0
 3135      00
 3136 25bc F3420F7F 		movdqu	%xmm0, 2(%rdi,%r10)
 3136      441702
 3137 25c3 77CE     		ja	.L400
 3138 25c5 4C01C8   		addq	%r9, %rax
 3139 25c8 4D39C8   		cmpq	%r9, %r8
 3140 25cb 0F84FE00 		je	.L401
 3140      0000
 3141 25d1 0FB64B18 		movzbl	24(%rbx), %ecx
 3142 25d5 8808     		movb	%cl, (%rax)
 3143 25d7 488D4801 		leaq	1(%rax), %rcx
 3144 25db 4839CD   		cmpq	%rcx, %rbp
 3145 25de 0F86EB00 		jbe	.L401
 3145      0000
 3146 25e4 0FB64B18 		movzbl	24(%rbx), %ecx
 3147 25e8 884801   		movb	%cl, 1(%rax)
 3148 25eb 488D4802 		leaq	2(%rax), %rcx
 3149 25ef 4839CD   		cmpq	%rcx, %rbp
 3150 25f2 0F86D700 		jbe	.L401
 3150      0000
 3151 25f8 0FB64B18 		movzbl	24(%rbx), %ecx
 3152 25fc 884802   		movb	%cl, 2(%rax)
 3153 25ff 488D4803 		leaq	3(%rax), %rcx
 3154 2603 4839CD   		cmpq	%rcx, %rbp
 3155 2606 0F86C300 		jbe	.L401
 3155      0000
 3156 260c 0FB64B18 		movzbl	24(%rbx), %ecx
 3157 2610 884803   		movb	%cl, 3(%rax)
 3158 2613 488D4804 		leaq	4(%rax), %rcx
 3159 2617 4839CD   		cmpq	%rcx, %rbp
 3160 261a 0F86AF00 		jbe	.L401
 3160      0000
 3161 2620 0FB64B18 		movzbl	24(%rbx), %ecx
 3162 2624 884804   		movb	%cl, 4(%rax)
 3163 2627 488D4805 		leaq	5(%rax), %rcx
 3164 262b 4839CD   		cmpq	%rcx, %rbp
 3165 262e 0F869B00 		jbe	.L401
 3165      0000
 3166 2634 0FB64B18 		movzbl	24(%rbx), %ecx
 3167 2638 884805   		movb	%cl, 5(%rax)
 3168 263b 488D4806 		leaq	6(%rax), %rcx
 3169 263f 4839CD   		cmpq	%rcx, %rbp
 3170 2642 0F868700 		jbe	.L401
 3170      0000
 3171 2648 0FB64B18 		movzbl	24(%rbx), %ecx
 3172 264c 884806   		movb	%cl, 6(%rax)
 3173 264f 488D4807 		leaq	7(%rax), %rcx
 3174 2653 4839CD   		cmpq	%rcx, %rbp
 3175 2656 7677     		jbe	.L401
 3176 2658 0FB64B18 		movzbl	24(%rbx), %ecx
 3177 265c 884807   		movb	%cl, 7(%rax)
 3178 265f 488D4808 		leaq	8(%rax), %rcx
 3179 2663 4839CD   		cmpq	%rcx, %rbp
 3180 2666 7667     		jbe	.L401
 3181 2668 0FB64B18 		movzbl	24(%rbx), %ecx
 3182 266c 884808   		movb	%cl, 8(%rax)
 3183 266f 488D4809 		leaq	9(%rax), %rcx
 3184 2673 4839CD   		cmpq	%rcx, %rbp
 3185 2676 7657     		jbe	.L401
 3186 2678 0FB64B18 		movzbl	24(%rbx), %ecx
 3187 267c 884809   		movb	%cl, 9(%rax)
 3188 267f 488D480A 		leaq	10(%rax), %rcx
 3189 2683 4839CD   		cmpq	%rcx, %rbp
 3190 2686 7647     		jbe	.L401
 3191 2688 0FB64B18 		movzbl	24(%rbx), %ecx
 3192 268c 88480A   		movb	%cl, 10(%rax)
 3193 268f 488D480B 		leaq	11(%rax), %rcx
 3194 2693 4839CD   		cmpq	%rcx, %rbp
 3195 2696 7637     		jbe	.L401
 3196 2698 0FB64B18 		movzbl	24(%rbx), %ecx
 3197 269c 88480B   		movb	%cl, 11(%rax)
 3198 269f 488D480C 		leaq	12(%rax), %rcx
 3199 26a3 4839CD   		cmpq	%rcx, %rbp
 3200 26a6 7627     		jbe	.L401
 3201 26a8 0FB64B18 		movzbl	24(%rbx), %ecx
 3202 26ac 88480C   		movb	%cl, 12(%rax)
 3203 26af 488D480D 		leaq	13(%rax), %rcx
 3204 26b3 4839CD   		cmpq	%rcx, %rbp
 3205 26b6 7617     		jbe	.L401
 3206 26b8 0FB64B18 		movzbl	24(%rbx), %ecx
 3207 26bc 88480D   		movb	%cl, 13(%rax)
 3208 26bf 488D480E 		leaq	14(%rax), %rcx
 3209 26c3 4839CD   		cmpq	%rcx, %rbp
 3210 26c6 7607     		jbe	.L401
 3211 26c8 0FB64B18 		movzbl	24(%rbx), %ecx
 3212 26cc 88480E   		movb	%cl, 14(%rax)
 3213              	.L401:
 3214 26cf 488B0B   		movq	(%rbx), %rcx
 3215 26d2 488B4308 		movq	8(%rbx), %rax
 3216 26d6 E95DFCFF 		jmp	.L389
 3216      FF
 3217 26db 0F1F4400 		.p2align 4,,10
 3217      00
 3218              		.p2align 3
 3219              	.L457:
 3220 26e0 4883C601 		addq	$1, %rsi
 3221              	.L411:
 3222 26e4 0FB64318 		movzbl	24(%rbx), %eax
 3223 26e8 4839CE   		cmpq	%rcx, %rsi
 3224 26eb 8846FF   		movb	%al, -1(%rsi)
 3225 26ee 75F0     		jne	.L457
 3226 26f0 E9DEFDFF 		jmp	.L410
 3226      FF
 3227              		.p2align 4,,10
 3228 26f5 0F1F00   		.p2align 3
 3229              	.L417:
 3230 26f8 4801ED   		addq	%rbp, %rbp
 3231 26fb 4939ED   		cmpq	%rbp, %r13
 3232 26fe 77F8     		ja	.L417
 3233 2700 488B3B   		movq	(%rbx), %rdi
 3234 2703 4889EE   		movq	%rbp, %rsi
 3235 2706 48890C24 		movq	%rcx, (%rsp)
 3236 270a 89542408 		movl	%edx, 8(%rsp)
 3237 270e E8000000 		call	realloc@PLT
 3237      00
 3238 2713 4885C0   		testq	%rax, %rax
 3239 2716 488B0C24 		movq	(%rsp), %rcx
 3240 271a 0F842102 		je	.L418
 3240      0000
 3241 2720 4A8D3428 		leaq	(%rax,%r13), %rsi
 3242 2724 48896B10 		movq	%rbp, 16(%rbx)
 3243 2728 4801C5   		addq	%rax, %rbp
 3244 272b 488903   		movq	%rax, (%rbx)
 3245 272e 8B542408 		movl	8(%rsp), %edx
 3246 2732 4839EE   		cmpq	%rbp, %rsi
 3247 2735 0F83F201 		jnb	.L428
 3247      0000
 3248 273b 4C01E0   		addq	%r12, %rax
 3249 273e 4889EF   		movq	%rbp, %rdi
 3250 2741 4C8D5318 		leaq	24(%rbx), %r10
 3251 2745 4C8D4002 		leaq	2(%rax), %r8
 3252 2749 4829F7   		subq	%rsi, %rdi
 3253 274c 488D4E01 		leaq	1(%rsi), %rcx
 3254 2750 4D8D0C38 		leaq	(%r8,%rdi), %r9
 3255 2754 4D39CA   		cmpq	%r9, %r10
 3256 2757 4C8D5319 		leaq	25(%rbx), %r10
 3257 275b 410F93C1 		setnb	%r9b
 3258 275f 4D39D0   		cmpq	%r10, %r8
 3259 2762 410F93C0 		setnb	%r8b
 3260 2766 4508C1   		orb	%r8b, %r9b
 3261 2769 0F84AD01 		je	.L426
 3261      0000
 3262 276f 4883FF0F 		cmpq	$15, %rdi
 3263 2773 0F86A301 		jbe	.L426
 3263      0000
 3264 2779 4989F8   		movq	%rdi, %r8
 3265 277c 31C9     		xorl	%ecx, %ecx
 3266 277e 49C1E804 		shrq	$4, %r8
 3267 2782 4D89C1   		movq	%r8, %r9
 3268 2785 49C1E104 		salq	$4, %r9
 3269              	.L424:
 3270 2789 440FB65B 		movzbl	24(%rbx), %r11d
 3270      18
 3271 278e 4989CA   		movq	%rcx, %r10
 3272 2791 4883C101 		addq	$1, %rcx
 3273 2795 49C1E204 		salq	$4, %r10
 3274 2799 4939C8   		cmpq	%rcx, %r8
 3275 279c 44881C24 		movb	%r11b, (%rsp)
 3276 27a0 660F6E04 		movd	(%rsp), %xmm0
 3276      24
 3277 27a5 660F60C0 		punpcklbw	%xmm0, %xmm0
 3278 27a9 660F61C0 		punpcklwd	%xmm0, %xmm0
 3279 27ad 660F70C0 		pshufd	$0, %xmm0, %xmm0
 3279      00
 3280 27b2 F3420F7F 		movdqu	%xmm0, 2(%rax,%r10)
 3280      441002
 3281 27b9 77CE     		ja	.L424
 3282 27bb 4C39CF   		cmpq	%r9, %rdi
 3283 27be 4A8D040E 		leaq	(%rsi,%r9), %rax
 3284 27c2 0F844BFB 		je	.L425
 3284      FFFF
 3285 27c8 0FB64B18 		movzbl	24(%rbx), %ecx
 3286 27cc 8808     		movb	%cl, (%rax)
 3287 27ce 488D4801 		leaq	1(%rax), %rcx
 3288 27d2 4839CD   		cmpq	%rcx, %rbp
 3289 27d5 0F8638FB 		jbe	.L425
 3289      FFFF
 3290 27db 0FB64B18 		movzbl	24(%rbx), %ecx
 3291 27df 884801   		movb	%cl, 1(%rax)
 3292 27e2 488D4802 		leaq	2(%rax), %rcx
 3293 27e6 4839CD   		cmpq	%rcx, %rbp
 3294 27e9 0F8624FB 		jbe	.L425
 3294      FFFF
 3295 27ef 0FB64B18 		movzbl	24(%rbx), %ecx
 3296 27f3 884802   		movb	%cl, 2(%rax)
 3297 27f6 488D4803 		leaq	3(%rax), %rcx
 3298 27fa 4839CD   		cmpq	%rcx, %rbp
 3299 27fd 0F8610FB 		jbe	.L425
 3299      FFFF
 3300 2803 0FB64B18 		movzbl	24(%rbx), %ecx
 3301 2807 884803   		movb	%cl, 3(%rax)
 3302 280a 488D4804 		leaq	4(%rax), %rcx
 3303 280e 4839CD   		cmpq	%rcx, %rbp
 3304 2811 0F86FCFA 		jbe	.L425
 3304      FFFF
 3305 2817 0FB64B18 		movzbl	24(%rbx), %ecx
 3306 281b 884804   		movb	%cl, 4(%rax)
 3307 281e 488D4805 		leaq	5(%rax), %rcx
 3308 2822 4839CD   		cmpq	%rcx, %rbp
 3309 2825 0F86E8FA 		jbe	.L425
 3309      FFFF
 3310 282b 0FB64B18 		movzbl	24(%rbx), %ecx
 3311 282f 884805   		movb	%cl, 5(%rax)
 3312 2832 488D4806 		leaq	6(%rax), %rcx
 3313 2836 4839CD   		cmpq	%rcx, %rbp
 3314 2839 0F86D4FA 		jbe	.L425
 3314      FFFF
 3315 283f 0FB64B18 		movzbl	24(%rbx), %ecx
 3316 2843 884806   		movb	%cl, 6(%rax)
 3317 2846 488D4807 		leaq	7(%rax), %rcx
 3318 284a 4839CD   		cmpq	%rcx, %rbp
 3319 284d 0F86C0FA 		jbe	.L425
 3319      FFFF
 3320 2853 0FB64B18 		movzbl	24(%rbx), %ecx
 3321 2857 884807   		movb	%cl, 7(%rax)
 3322 285a 488D4808 		leaq	8(%rax), %rcx
 3323 285e 4839CD   		cmpq	%rcx, %rbp
 3324 2861 0F86ACFA 		jbe	.L425
 3324      FFFF
 3325 2867 0FB64B18 		movzbl	24(%rbx), %ecx
 3326 286b 884808   		movb	%cl, 8(%rax)
 3327 286e 488D4809 		leaq	9(%rax), %rcx
 3328 2872 4839CD   		cmpq	%rcx, %rbp
 3329 2875 0F8698FA 		jbe	.L425
 3329      FFFF
 3330 287b 0FB64B18 		movzbl	24(%rbx), %ecx
 3331 287f 884809   		movb	%cl, 9(%rax)
 3332 2882 488D480A 		leaq	10(%rax), %rcx
 3333 2886 4839CD   		cmpq	%rcx, %rbp
 3334 2889 0F8684FA 		jbe	.L425
 3334      FFFF
 3335 288f 0FB64B18 		movzbl	24(%rbx), %ecx
 3336 2893 88480A   		movb	%cl, 10(%rax)
 3337 2896 488D480B 		leaq	11(%rax), %rcx
 3338 289a 4839CD   		cmpq	%rcx, %rbp
 3339 289d 0F8670FA 		jbe	.L425
 3339      FFFF
 3340 28a3 0FB64B18 		movzbl	24(%rbx), %ecx
 3341 28a7 88480B   		movb	%cl, 11(%rax)
 3342 28aa 488D480C 		leaq	12(%rax), %rcx
 3343 28ae 4839CD   		cmpq	%rcx, %rbp
 3344 28b1 0F865CFA 		jbe	.L425
 3344      FFFF
 3345 28b7 0FB64B18 		movzbl	24(%rbx), %ecx
 3346 28bb 88480C   		movb	%cl, 12(%rax)
 3347 28be 488D480D 		leaq	13(%rax), %rcx
 3348 28c2 4839CD   		cmpq	%rcx, %rbp
 3349 28c5 0F8648FA 		jbe	.L425
 3349      FFFF
 3350 28cb 0FB64B18 		movzbl	24(%rbx), %ecx
 3351 28cf 88480D   		movb	%cl, 13(%rax)
 3352 28d2 488D480E 		leaq	14(%rax), %rcx
 3353 28d6 4839CD   		cmpq	%rcx, %rbp
 3354 28d9 0F8634FA 		jbe	.L425
 3354      FFFF
 3355 28df 0FB64B18 		movzbl	24(%rbx), %ecx
 3356 28e3 88480E   		movb	%cl, 14(%rax)
 3357 28e6 E928FAFF 		jmp	.L425
 3357      FF
 3358 28eb 0F1F4400 		.p2align 4,,10
 3358      00
 3359              		.p2align 3
 3360              	.L458:
 3361 28f0 4883C601 		addq	$1, %rsi
 3362              	.L402:
 3363 28f4 0FB64318 		movzbl	24(%rbx), %eax
 3364 28f8 4839EE   		cmpq	%rbp, %rsi
 3365 28fb 8846FF   		movb	%al, -1(%rsi)
 3366 28fe 75F0     		jne	.L458
 3367 2900 E9CAFDFF 		jmp	.L401
 3367      FF
 3368              		.p2align 4,,10
 3369 2905 0F1F00   		.p2align 3
 3370              	.L413:
 3371 2908 4889F1   		movq	%rsi, %rcx
 3372 290b 48030F   		addq	(%rdi), %rcx
 3373 290e E9CAFBFF 		jmp	.L412
 3373      FF
 3374              		.p2align 4,,10
 3375 2913 0F1F4400 		.p2align 3
 3375      00
 3376              	.L459:
 3377 2918 4883C101 		addq	$1, %rcx
 3378              	.L426:
 3379 291c 0FB64318 		movzbl	24(%rbx), %eax
 3380 2920 4839E9   		cmpq	%rbp, %rcx
 3381 2923 8841FF   		movb	%al, -1(%rcx)
 3382 2926 75F0     		jne	.L459
 3383 2928 E9E6F9FF 		jmp	.L425
 3383      FF
 3384              	.L428:
 3385 292d 4889C1   		movq	%rax, %rcx
 3386 2930 E9E1F9FF 		jmp	.L415
 3386      FF
 3387              	.L456:
 3388 2935 488B4308 		movq	8(%rbx), %rax
 3389 2939 4889F9   		movq	%rdi, %rcx
 3390 293c E9F7F9FF 		jmp	.L389
 3390      FF
 3391              	.L418:
 3392 2941 488D3500 		leaq	.LC2(%rip), %rsi
 3392      000000
 3393 2948 4889CF   		movq	%rcx, %rdi
 3394 294b 48890C24 		movq	%rcx, (%rsp)
 3395 294f E8000000 		call	errPrefix@PLT
 3395      00
 3396 2954 488B0C24 		movq	(%rsp), %rcx
 3397 2958 488D3500 		leaq	.LC10(%rip), %rsi
 3397      000000
 3398 295f 4889CF   		movq	%rcx, %rdi
 3399 2962 E8000000 		call	errPrefix@PLT
 3399      00
 3400 2967 488B0C24 		movq	(%rsp), %rcx
 3401 296b 488D3500 		leaq	.LC13(%rip), %rsi
 3401      000000
 3402 2972 4889CF   		movq	%rcx, %rdi
 3403 2975 E8000000 		call	errPrefix@PLT
 3403      00
 3404 297a B8010000 		movl	$1, %eax
 3404      00
 3405 297f E968FBFF 		jmp	.L450
 3405      FF
 3406              		.cfi_endproc
 3407              	.LFE63:
 3409              		.section	.rodata.str1.1
 3410              	.LC14:
 3411 00bd 62756657 		.string	"bufWriteLongLE()"
 3411      72697465 
 3411      4C6F6E67 
 3411      4C452829 
 3411      00
 3412              		.text
 3413 2984 6666662E 		.p2align 4,,15
 3413      0F1F8400 
 3413      00000000 
 3414              		.globl	bufWriteLongLE
 3416              	bufWriteLongLE:
 3417              	.LFB64:
 3418              		.cfi_startproc
 3419 2990 4155     		pushq	%r13
 3420              		.cfi_def_cfa_offset 16
 3421              		.cfi_offset 13, -16
 3422 2992 4C8D6E04 		leaq	4(%rsi), %r13
 3423 2996 4154     		pushq	%r12
 3424              		.cfi_def_cfa_offset 24
 3425              		.cfi_offset 12, -24
 3426 2998 55       		pushq	%rbp
 3427              		.cfi_def_cfa_offset 32
 3428              		.cfi_offset 6, -32
 3429 2999 4889F5   		movq	%rsi, %rbp
 3430 299c 53       		pushq	%rbx
 3431              		.cfi_def_cfa_offset 40
 3432              		.cfi_offset 3, -40
 3433 299d 4889FB   		movq	%rdi, %rbx
 3434 29a0 4883EC18 		subq	$24, %rsp
 3435              		.cfi_def_cfa_offset 64
 3436 29a4 488B4708 		movq	8(%rdi), %rax
 3437 29a8 4839C6   		cmpq	%rax, %rsi
 3438 29ab 732B     		jnb	.L529
 3439 29ad 4939C5   		cmpq	%rax, %r13
 3440 29b0 0F861206 		jbe	.L487
 3440      0000
 3441 29b6 4C8B6710 		movq	16(%rdi), %r12
 3442 29ba 4D39E5   		cmpq	%r12, %r13
 3443 29bd 0F87F503 		ja	.L491
 3443      0000
 3444              	.L499:
 3445 29c3 488B0B   		movq	(%rbx), %rcx
 3446              	.L489:
 3447 29c6 4C896B08 		movq	%r13, 8(%rbx)
 3448 29ca 4801E9   		addq	%rbp, %rcx
 3449 29cd E9BB0100 		jmp	.L486
 3449      00
 3450              		.p2align 4,,10
 3451 29d2 660F1F44 		.p2align 3
 3451      0000
 3452              	.L529:
 3453 29d8 4C8B6710 		movq	16(%rdi), %r12
 3454 29dc 4D39E5   		cmpq	%r12, %r13
 3455 29df 0F87DB01 		ja	.L465
 3455      0000
 3456 29e5 488B0F   		movq	(%rdi), %rcx
 3457              	.L463:
 3458 29e8 4801C8   		addq	%rcx, %rax
 3459 29eb 4801E9   		addq	%rbp, %rcx
 3460 29ee 4839C8   		cmpq	%rcx, %rax
 3461 29f1 0F839201 		jnb	.L477
 3461      0000
 3462 29f7 4C8D4318 		leaq	24(%rbx), %r8
 3463 29fb 4889CF   		movq	%rcx, %rdi
 3464 29fe 488D7001 		leaq	1(%rax), %rsi
 3465 2a02 4829C7   		subq	%rax, %rdi
 3466 2a05 4C39C1   		cmpq	%r8, %rcx
 3467 2a08 4C8D4319 		leaq	25(%rbx), %r8
 3468 2a0c 410F96C1 		setbe	%r9b
 3469 2a10 4C39C0   		cmpq	%r8, %rax
 3470 2a13 410F93C0 		setnb	%r8b
 3471 2a17 4508C1   		orb	%r8b, %r9b
 3472 2a1a 0F848403 		je	.L485
 3472      0000
 3473 2a20 4883FF0F 		cmpq	$15, %rdi
 3474 2a24 0F867A03 		jbe	.L485
 3474      0000
 3475 2a2a 4989F8   		movq	%rdi, %r8
 3476 2a2d 31F6     		xorl	%esi, %esi
 3477 2a2f 49C1E804 		shrq	$4, %r8
 3478 2a33 4D89C1   		movq	%r8, %r9
 3479 2a36 49C1E104 		salq	$4, %r9
 3480              	.L483:
 3481 2a3a 440FB65B 		movzbl	24(%rbx), %r11d
 3481      18
 3482 2a3f 4989F2   		movq	%rsi, %r10
 3483 2a42 4883C601 		addq	$1, %rsi
 3484 2a46 49C1E204 		salq	$4, %r10
 3485 2a4a 4939F0   		cmpq	%rsi, %r8
 3486 2a4d 44881C24 		movb	%r11b, (%rsp)
 3487 2a51 660F6E04 		movd	(%rsp), %xmm0
 3487      24
 3488 2a56 660F60C0 		punpcklbw	%xmm0, %xmm0
 3489 2a5a 660F61C0 		punpcklwd	%xmm0, %xmm0
 3490 2a5e 660F70C0 		pshufd	$0, %xmm0, %xmm0
 3490      00
 3491 2a63 F3420F7F 		movdqu	%xmm0, (%rax,%r10)
 3491      0410
 3492 2a69 77CF     		ja	.L483
 3493 2a6b 4C01C8   		addq	%r9, %rax
 3494 2a6e 4C39CF   		cmpq	%r9, %rdi
 3495 2a71 0F840C01 		je	.L484
 3495      0000
 3496 2a77 0FB67318 		movzbl	24(%rbx), %esi
 3497 2a7b 408830   		movb	%sil, (%rax)
 3498 2a7e 488D7001 		leaq	1(%rax), %rsi
 3499 2a82 4839F1   		cmpq	%rsi, %rcx
 3500 2a85 0F86F800 		jbe	.L484
 3500      0000
 3501 2a8b 0FB67318 		movzbl	24(%rbx), %esi
 3502 2a8f 40887001 		movb	%sil, 1(%rax)
 3503 2a93 488D7002 		leaq	2(%rax), %rsi
 3504 2a97 4839F1   		cmpq	%rsi, %rcx
 3505 2a9a 0F86E300 		jbe	.L484
 3505      0000
 3506 2aa0 0FB67318 		movzbl	24(%rbx), %esi
 3507 2aa4 40887002 		movb	%sil, 2(%rax)
 3508 2aa8 488D7003 		leaq	3(%rax), %rsi
 3509 2aac 4839F1   		cmpq	%rsi, %rcx
 3510 2aaf 0F86CE00 		jbe	.L484
 3510      0000
 3511 2ab5 0FB67318 		movzbl	24(%rbx), %esi
 3512 2ab9 40887003 		movb	%sil, 3(%rax)
 3513 2abd 488D7004 		leaq	4(%rax), %rsi
 3514 2ac1 4839F1   		cmpq	%rsi, %rcx
 3515 2ac4 0F86B900 		jbe	.L484
 3515      0000
 3516 2aca 0FB67318 		movzbl	24(%rbx), %esi
 3517 2ace 40887004 		movb	%sil, 4(%rax)
 3518 2ad2 488D7005 		leaq	5(%rax), %rsi
 3519 2ad6 4839F1   		cmpq	%rsi, %rcx
 3520 2ad9 0F86A400 		jbe	.L484
 3520      0000
 3521 2adf 0FB67318 		movzbl	24(%rbx), %esi
 3522 2ae3 40887005 		movb	%sil, 5(%rax)
 3523 2ae7 488D7006 		leaq	6(%rax), %rsi
 3524 2aeb 4839F1   		cmpq	%rsi, %rcx
 3525 2aee 0F868F00 		jbe	.L484
 3525      0000
 3526 2af4 0FB67318 		movzbl	24(%rbx), %esi
 3527 2af8 40887006 		movb	%sil, 6(%rax)
 3528 2afc 488D7007 		leaq	7(%rax), %rsi
 3529 2b00 4839F1   		cmpq	%rsi, %rcx
 3530 2b03 767E     		jbe	.L484
 3531 2b05 0FB67318 		movzbl	24(%rbx), %esi
 3532 2b09 40887007 		movb	%sil, 7(%rax)
 3533 2b0d 488D7008 		leaq	8(%rax), %rsi
 3534 2b11 4839F1   		cmpq	%rsi, %rcx
 3535 2b14 766D     		jbe	.L484
 3536 2b16 0FB67318 		movzbl	24(%rbx), %esi
 3537 2b1a 40887008 		movb	%sil, 8(%rax)
 3538 2b1e 488D7009 		leaq	9(%rax), %rsi
 3539 2b22 4839F1   		cmpq	%rsi, %rcx
 3540 2b25 765C     		jbe	.L484
 3541 2b27 0FB67318 		movzbl	24(%rbx), %esi
 3542 2b2b 40887009 		movb	%sil, 9(%rax)
 3543 2b2f 488D700A 		leaq	10(%rax), %rsi
 3544 2b33 4839F1   		cmpq	%rsi, %rcx
 3545 2b36 764B     		jbe	.L484
 3546 2b38 0FB67318 		movzbl	24(%rbx), %esi
 3547 2b3c 4088700A 		movb	%sil, 10(%rax)
 3548 2b40 488D700B 		leaq	11(%rax), %rsi
 3549 2b44 4839F1   		cmpq	%rsi, %rcx
 3550 2b47 763A     		jbe	.L484
 3551 2b49 0FB67318 		movzbl	24(%rbx), %esi
 3552 2b4d 4088700B 		movb	%sil, 11(%rax)
 3553 2b51 488D700C 		leaq	12(%rax), %rsi
 3554 2b55 4839F1   		cmpq	%rsi, %rcx
 3555 2b58 7629     		jbe	.L484
 3556 2b5a 0FB67318 		movzbl	24(%rbx), %esi
 3557 2b5e 4088700C 		movb	%sil, 12(%rax)
 3558 2b62 488D700D 		leaq	13(%rax), %rsi
 3559 2b66 4839F1   		cmpq	%rsi, %rcx
 3560 2b69 7618     		jbe	.L484
 3561 2b6b 0FB67318 		movzbl	24(%rbx), %esi
 3562 2b6f 4088700D 		movb	%sil, 13(%rax)
 3563 2b73 488D700E 		leaq	14(%rax), %rsi
 3564 2b77 4839F1   		cmpq	%rsi, %rcx
 3565 2b7a 7607     		jbe	.L484
 3566 2b7c 0FB64B18 		movzbl	24(%rbx), %ecx
 3567 2b80 88480E   		movb	%cl, 14(%rax)
 3568              	.L484:
 3569 2b83 4889E9   		movq	%rbp, %rcx
 3570 2b86 48030B   		addq	(%rbx), %rcx
 3571              	.L477:
 3572 2b89 4C896B08 		movq	%r13, 8(%rbx)
 3573              	.L486:
 3574 2b8d 8811     		movb	%dl, (%rcx)
 3575 2b8f 488B03   		movq	(%rbx), %rax
 3576 2b92 0FB6CE   		movzbl	%dh, %ecx
 3577 2b95 884C2801 		movb	%cl, 1(%rax,%rbp)
 3578 2b99 488B03   		movq	(%rbx), %rax
 3579 2b9c 89D1     		movl	%edx, %ecx
 3580 2b9e C1E910   		shrl	$16, %ecx
 3581 2ba1 C1EA18   		shrl	$24, %edx
 3582 2ba4 884C2802 		movb	%cl, 2(%rax,%rbp)
 3583 2ba8 488B03   		movq	(%rbx), %rax
 3584 2bab 88542803 		movb	%dl, 3(%rax,%rbp)
 3585 2baf 31C0     		xorl	%eax, %eax
 3586              	.L467:
 3587              	.L524:
 3588 2bb1 4883C418 		addq	$24, %rsp
 3589              		.cfi_remember_state
 3590              		.cfi_def_cfa_offset 40
 3591 2bb5 5B       		popq	%rbx
 3592              		.cfi_def_cfa_offset 32
 3593 2bb6 5D       		popq	%rbp
 3594              		.cfi_def_cfa_offset 24
 3595 2bb7 415C     		popq	%r12
 3596              		.cfi_def_cfa_offset 16
 3597 2bb9 415D     		popq	%r13
 3598              		.cfi_def_cfa_offset 8
 3599 2bbb C3       		ret
 3600 2bbc 0F1F4000 		.p2align 4,,10
 3601              		.p2align 3
 3602              	.L465:
 3603              		.cfi_restore_state
 3604 2bc0 4D01E4   		addq	%r12, %r12
 3605 2bc3 4D39E5   		cmpq	%r12, %r13
 3606 2bc6 77F8     		ja	.L465
 3607 2bc8 488B3B   		movq	(%rbx), %rdi
 3608 2bcb 4C89E6   		movq	%r12, %rsi
 3609 2bce 48894C24 		movq	%rcx, 8(%rsp)
 3609      08
 3610 2bd3 891424   		movl	%edx, (%rsp)
 3611 2bd6 E8000000 		call	realloc@PLT
 3611      00
 3612 2bdb 4885C0   		testq	%rax, %rax
 3613 2bde 4889C7   		movq	%rax, %rdi
 3614 2be1 8B1424   		movl	(%rsp), %edx
 3615 2be4 488B4C24 		movq	8(%rsp), %rcx
 3615      08
 3616 2be9 0F841204 		je	.L492
 3616      0000
 3617 2bef 488903   		movq	%rax, (%rbx)
 3618 2bf2 4A8D0428 		leaq	(%rax,%r13), %rax
 3619 2bf6 4C896310 		movq	%r12, 16(%rbx)
 3620 2bfa 4901FC   		addq	%rdi, %r12
 3621 2bfd 4C39E0   		cmpq	%r12, %rax
 3622 2c00 0F83EF03 		jnb	.L530
 3622      0000
 3623 2c06 4801EF   		addq	%rbp, %rdi
 3624 2c09 4D89E0   		movq	%r12, %r8
 3625 2c0c 4C8D5318 		leaq	24(%rbx), %r10
 3626 2c10 4C8D4F04 		leaq	4(%rdi), %r9
 3627 2c14 4929C0   		subq	%rax, %r8
 3628 2c17 488D7001 		leaq	1(%rax), %rsi
 3629 2c1b 4B8D0C01 		leaq	(%r9,%r8), %rcx
 3630 2c1f 4939CA   		cmpq	%rcx, %r10
 3631 2c22 488D4B19 		leaq	25(%rbx), %rcx
 3632 2c26 410F93C2 		setnb	%r10b
 3633 2c2a 4939C9   		cmpq	%rcx, %r9
 3634 2c2d 0F93C1   		setnb	%cl
 3635 2c30 4108CA   		orb	%cl, %r10b
 3636 2c33 0F847B03 		je	.L476
 3636      0000
 3637 2c39 4983F80F 		cmpq	$15, %r8
 3638 2c3d 0F867103 		jbe	.L476
 3638      0000
 3639 2c43 4C89C6   		movq	%r8, %rsi
 3640 2c46 31C9     		xorl	%ecx, %ecx
 3641 2c48 48C1EE04 		shrq	$4, %rsi
 3642 2c4c 4989F1   		movq	%rsi, %r9
 3643 2c4f 49C1E104 		salq	$4, %r9
 3644              	.L474:
 3645 2c53 440FB65B 		movzbl	24(%rbx), %r11d
 3645      18
 3646 2c58 4989CA   		movq	%rcx, %r10
 3647 2c5b 4883C101 		addq	$1, %rcx
 3648 2c5f 49C1E204 		salq	$4, %r10
 3649 2c63 4839CE   		cmpq	%rcx, %rsi
 3650 2c66 44881C24 		movb	%r11b, (%rsp)
 3651 2c6a 660F6E04 		movd	(%rsp), %xmm0
 3651      24
 3652 2c6f 660F60C0 		punpcklbw	%xmm0, %xmm0
 3653 2c73 660F61C0 		punpcklwd	%xmm0, %xmm0
 3654 2c77 660F70C0 		pshufd	$0, %xmm0, %xmm0
 3654      00
 3655 2c7c F3420F7F 		movdqu	%xmm0, 4(%rdi,%r10)
 3655      441704
 3656 2c83 77CE     		ja	.L474
 3657 2c85 4C01C8   		addq	%r9, %rax
 3658 2c88 4D39C8   		cmpq	%r9, %r8
 3659 2c8b 0F84FE00 		je	.L475
 3659      0000
 3660 2c91 0FB64B18 		movzbl	24(%rbx), %ecx
 3661 2c95 8808     		movb	%cl, (%rax)
 3662 2c97 488D4801 		leaq	1(%rax), %rcx
 3663 2c9b 4939CC   		cmpq	%rcx, %r12
 3664 2c9e 0F86EB00 		jbe	.L475
 3664      0000
 3665 2ca4 0FB64B18 		movzbl	24(%rbx), %ecx
 3666 2ca8 884801   		movb	%cl, 1(%rax)
 3667 2cab 488D4802 		leaq	2(%rax), %rcx
 3668 2caf 4939CC   		cmpq	%rcx, %r12
 3669 2cb2 0F86D700 		jbe	.L475
 3669      0000
 3670 2cb8 0FB64B18 		movzbl	24(%rbx), %ecx
 3671 2cbc 884802   		movb	%cl, 2(%rax)
 3672 2cbf 488D4803 		leaq	3(%rax), %rcx
 3673 2cc3 4939CC   		cmpq	%rcx, %r12
 3674 2cc6 0F86C300 		jbe	.L475
 3674      0000
 3675 2ccc 0FB64B18 		movzbl	24(%rbx), %ecx
 3676 2cd0 884803   		movb	%cl, 3(%rax)
 3677 2cd3 488D4804 		leaq	4(%rax), %rcx
 3678 2cd7 4939CC   		cmpq	%rcx, %r12
 3679 2cda 0F86AF00 		jbe	.L475
 3679      0000
 3680 2ce0 0FB64B18 		movzbl	24(%rbx), %ecx
 3681 2ce4 884804   		movb	%cl, 4(%rax)
 3682 2ce7 488D4805 		leaq	5(%rax), %rcx
 3683 2ceb 4939CC   		cmpq	%rcx, %r12
 3684 2cee 0F869B00 		jbe	.L475
 3684      0000
 3685 2cf4 0FB64B18 		movzbl	24(%rbx), %ecx
 3686 2cf8 884805   		movb	%cl, 5(%rax)
 3687 2cfb 488D4806 		leaq	6(%rax), %rcx
 3688 2cff 4939CC   		cmpq	%rcx, %r12
 3689 2d02 0F868700 		jbe	.L475
 3689      0000
 3690 2d08 0FB64B18 		movzbl	24(%rbx), %ecx
 3691 2d0c 884806   		movb	%cl, 6(%rax)
 3692 2d0f 488D4807 		leaq	7(%rax), %rcx
 3693 2d13 4939CC   		cmpq	%rcx, %r12
 3694 2d16 7677     		jbe	.L475
 3695 2d18 0FB64B18 		movzbl	24(%rbx), %ecx
 3696 2d1c 884807   		movb	%cl, 7(%rax)
 3697 2d1f 488D4808 		leaq	8(%rax), %rcx
 3698 2d23 4939CC   		cmpq	%rcx, %r12
 3699 2d26 7667     		jbe	.L475
 3700 2d28 0FB64B18 		movzbl	24(%rbx), %ecx
 3701 2d2c 884808   		movb	%cl, 8(%rax)
 3702 2d2f 488D4809 		leaq	9(%rax), %rcx
 3703 2d33 4939CC   		cmpq	%rcx, %r12
 3704 2d36 7657     		jbe	.L475
 3705 2d38 0FB64B18 		movzbl	24(%rbx), %ecx
 3706 2d3c 884809   		movb	%cl, 9(%rax)
 3707 2d3f 488D480A 		leaq	10(%rax), %rcx
 3708 2d43 4939CC   		cmpq	%rcx, %r12
 3709 2d46 7647     		jbe	.L475
 3710 2d48 0FB64B18 		movzbl	24(%rbx), %ecx
 3711 2d4c 88480A   		movb	%cl, 10(%rax)
 3712 2d4f 488D480B 		leaq	11(%rax), %rcx
 3713 2d53 4939CC   		cmpq	%rcx, %r12
 3714 2d56 7637     		jbe	.L475
 3715 2d58 0FB64B18 		movzbl	24(%rbx), %ecx
 3716 2d5c 88480B   		movb	%cl, 11(%rax)
 3717 2d5f 488D480C 		leaq	12(%rax), %rcx
 3718 2d63 4939CC   		cmpq	%rcx, %r12
 3719 2d66 7627     		jbe	.L475
 3720 2d68 0FB64B18 		movzbl	24(%rbx), %ecx
 3721 2d6c 88480C   		movb	%cl, 12(%rax)
 3722 2d6f 488D480D 		leaq	13(%rax), %rcx
 3723 2d73 4939CC   		cmpq	%rcx, %r12
 3724 2d76 7617     		jbe	.L475
 3725 2d78 0FB64B18 		movzbl	24(%rbx), %ecx
 3726 2d7c 88480D   		movb	%cl, 13(%rax)
 3727 2d7f 488D480E 		leaq	14(%rax), %rcx
 3728 2d83 4939CC   		cmpq	%rcx, %r12
 3729 2d86 7607     		jbe	.L475
 3730 2d88 0FB64B18 		movzbl	24(%rbx), %ecx
 3731 2d8c 88480E   		movb	%cl, 14(%rax)
 3732              	.L475:
 3733 2d8f 488B0B   		movq	(%rbx), %rcx
 3734 2d92 488B4308 		movq	8(%rbx), %rax
 3735 2d96 E94DFCFF 		jmp	.L463
 3735      FF
 3736 2d9b 0F1F4400 		.p2align 4,,10
 3736      00
 3737              		.p2align 3
 3738              	.L531:
 3739 2da0 4883C601 		addq	$1, %rsi
 3740              	.L485:
 3741 2da4 0FB64318 		movzbl	24(%rbx), %eax
 3742 2da8 4839CE   		cmpq	%rcx, %rsi
 3743 2dab 8846FF   		movb	%al, -1(%rsi)
 3744 2dae 75F0     		jne	.L531
 3745 2db0 E9CEFDFF 		jmp	.L484
 3745      FF
 3746              		.p2align 4,,10
 3747 2db5 0F1F00   		.p2align 3
 3748              	.L491:
 3749 2db8 4D01E4   		addq	%r12, %r12
 3750 2dbb 4D39E5   		cmpq	%r12, %r13
 3751 2dbe 77F8     		ja	.L491
 3752 2dc0 488B3B   		movq	(%rbx), %rdi
 3753 2dc3 4C89E6   		movq	%r12, %rsi
 3754 2dc6 48890C24 		movq	%rcx, (%rsp)
 3755 2dca 89542408 		movl	%edx, 8(%rsp)
 3756 2dce E8000000 		call	realloc@PLT
 3756      00
 3757 2dd3 4885C0   		testq	%rax, %rax
 3758 2dd6 488B0C24 		movq	(%rsp), %rcx
 3759 2dda 0F842102 		je	.L492
 3759      0000
 3760 2de0 4A8D3428 		leaq	(%rax,%r13), %rsi
 3761 2de4 4C896310 		movq	%r12, 16(%rbx)
 3762 2de8 4901C4   		addq	%rax, %r12
 3763 2deb 488903   		movq	%rax, (%rbx)
 3764 2dee 8B542408 		movl	8(%rsp), %edx
 3765 2df2 4C39E6   		cmpq	%r12, %rsi
 3766 2df5 0F83F201 		jnb	.L502
 3766      0000
 3767 2dfb 4801E8   		addq	%rbp, %rax
 3768 2dfe 4C89E7   		movq	%r12, %rdi
 3769 2e01 4C8D5318 		leaq	24(%rbx), %r10
 3770 2e05 4C8D4004 		leaq	4(%rax), %r8
 3771 2e09 4829F7   		subq	%rsi, %rdi
 3772 2e0c 488D4E01 		leaq	1(%rsi), %rcx
 3773 2e10 4D8D0C38 		leaq	(%r8,%rdi), %r9
 3774 2e14 4D39CA   		cmpq	%r9, %r10
 3775 2e17 4C8D5319 		leaq	25(%rbx), %r10
 3776 2e1b 410F93C1 		setnb	%r9b
 3777 2e1f 4D39D0   		cmpq	%r10, %r8
 3778 2e22 410F93C0 		setnb	%r8b
 3779 2e26 4508C1   		orb	%r8b, %r9b
 3780 2e29 0F84AD01 		je	.L500
 3780      0000
 3781 2e2f 4883FF0F 		cmpq	$15, %rdi
 3782 2e33 0F86A301 		jbe	.L500
 3782      0000
 3783 2e39 4989F8   		movq	%rdi, %r8
 3784 2e3c 31C9     		xorl	%ecx, %ecx
 3785 2e3e 49C1E804 		shrq	$4, %r8
 3786 2e42 4D89C1   		movq	%r8, %r9
 3787 2e45 49C1E104 		salq	$4, %r9
 3788              	.L498:
 3789 2e49 440FB65B 		movzbl	24(%rbx), %r11d
 3789      18
 3790 2e4e 4989CA   		movq	%rcx, %r10
 3791 2e51 4883C101 		addq	$1, %rcx
 3792 2e55 49C1E204 		salq	$4, %r10
 3793 2e59 4939C8   		cmpq	%rcx, %r8
 3794 2e5c 44881C24 		movb	%r11b, (%rsp)
 3795 2e60 660F6E04 		movd	(%rsp), %xmm0
 3795      24
 3796 2e65 660F60C0 		punpcklbw	%xmm0, %xmm0
 3797 2e69 660F61C0 		punpcklwd	%xmm0, %xmm0
 3798 2e6d 660F70C0 		pshufd	$0, %xmm0, %xmm0
 3798      00
 3799 2e72 F3420F7F 		movdqu	%xmm0, 4(%rax,%r10)
 3799      441004
 3800 2e79 77CE     		ja	.L498
 3801 2e7b 4C39CF   		cmpq	%r9, %rdi
 3802 2e7e 4A8D040E 		leaq	(%rsi,%r9), %rax
 3803 2e82 0F843BFB 		je	.L499
 3803      FFFF
 3804 2e88 0FB64B18 		movzbl	24(%rbx), %ecx
 3805 2e8c 8808     		movb	%cl, (%rax)
 3806 2e8e 488D4801 		leaq	1(%rax), %rcx
 3807 2e92 4939CC   		cmpq	%rcx, %r12
 3808 2e95 0F8628FB 		jbe	.L499
 3808      FFFF
 3809 2e9b 0FB64B18 		movzbl	24(%rbx), %ecx
 3810 2e9f 884801   		movb	%cl, 1(%rax)
 3811 2ea2 488D4802 		leaq	2(%rax), %rcx
 3812 2ea6 4939CC   		cmpq	%rcx, %r12
 3813 2ea9 0F8614FB 		jbe	.L499
 3813      FFFF
 3814 2eaf 0FB64B18 		movzbl	24(%rbx), %ecx
 3815 2eb3 884802   		movb	%cl, 2(%rax)
 3816 2eb6 488D4803 		leaq	3(%rax), %rcx
 3817 2eba 4939CC   		cmpq	%rcx, %r12
 3818 2ebd 0F8600FB 		jbe	.L499
 3818      FFFF
 3819 2ec3 0FB64B18 		movzbl	24(%rbx), %ecx
 3820 2ec7 884803   		movb	%cl, 3(%rax)
 3821 2eca 488D4804 		leaq	4(%rax), %rcx
 3822 2ece 4939CC   		cmpq	%rcx, %r12
 3823 2ed1 0F86ECFA 		jbe	.L499
 3823      FFFF
 3824 2ed7 0FB64B18 		movzbl	24(%rbx), %ecx
 3825 2edb 884804   		movb	%cl, 4(%rax)
 3826 2ede 488D4805 		leaq	5(%rax), %rcx
 3827 2ee2 4939CC   		cmpq	%rcx, %r12
 3828 2ee5 0F86D8FA 		jbe	.L499
 3828      FFFF
 3829 2eeb 0FB64B18 		movzbl	24(%rbx), %ecx
 3830 2eef 884805   		movb	%cl, 5(%rax)
 3831 2ef2 488D4806 		leaq	6(%rax), %rcx
 3832 2ef6 4939CC   		cmpq	%rcx, %r12
 3833 2ef9 0F86C4FA 		jbe	.L499
 3833      FFFF
 3834 2eff 0FB64B18 		movzbl	24(%rbx), %ecx
 3835 2f03 884806   		movb	%cl, 6(%rax)
 3836 2f06 488D4807 		leaq	7(%rax), %rcx
 3837 2f0a 4939CC   		cmpq	%rcx, %r12
 3838 2f0d 0F86B0FA 		jbe	.L499
 3838      FFFF
 3839 2f13 0FB64B18 		movzbl	24(%rbx), %ecx
 3840 2f17 884807   		movb	%cl, 7(%rax)
 3841 2f1a 488D4808 		leaq	8(%rax), %rcx
 3842 2f1e 4939CC   		cmpq	%rcx, %r12
 3843 2f21 0F869CFA 		jbe	.L499
 3843      FFFF
 3844 2f27 0FB64B18 		movzbl	24(%rbx), %ecx
 3845 2f2b 884808   		movb	%cl, 8(%rax)
 3846 2f2e 488D4809 		leaq	9(%rax), %rcx
 3847 2f32 4939CC   		cmpq	%rcx, %r12
 3848 2f35 0F8688FA 		jbe	.L499
 3848      FFFF
 3849 2f3b 0FB64B18 		movzbl	24(%rbx), %ecx
 3850 2f3f 884809   		movb	%cl, 9(%rax)
 3851 2f42 488D480A 		leaq	10(%rax), %rcx
 3852 2f46 4939CC   		cmpq	%rcx, %r12
 3853 2f49 0F8674FA 		jbe	.L499
 3853      FFFF
 3854 2f4f 0FB64B18 		movzbl	24(%rbx), %ecx
 3855 2f53 88480A   		movb	%cl, 10(%rax)
 3856 2f56 488D480B 		leaq	11(%rax), %rcx
 3857 2f5a 4939CC   		cmpq	%rcx, %r12
 3858 2f5d 0F8660FA 		jbe	.L499
 3858      FFFF
 3859 2f63 0FB64B18 		movzbl	24(%rbx), %ecx
 3860 2f67 88480B   		movb	%cl, 11(%rax)
 3861 2f6a 488D480C 		leaq	12(%rax), %rcx
 3862 2f6e 4939CC   		cmpq	%rcx, %r12
 3863 2f71 0F864CFA 		jbe	.L499
 3863      FFFF
 3864 2f77 0FB64B18 		movzbl	24(%rbx), %ecx
 3865 2f7b 88480C   		movb	%cl, 12(%rax)
 3866 2f7e 488D480D 		leaq	13(%rax), %rcx
 3867 2f82 4939CC   		cmpq	%rcx, %r12
 3868 2f85 0F8638FA 		jbe	.L499
 3868      FFFF
 3869 2f8b 0FB64B18 		movzbl	24(%rbx), %ecx
 3870 2f8f 88480D   		movb	%cl, 13(%rax)
 3871 2f92 488D480E 		leaq	14(%rax), %rcx
 3872 2f96 4939CC   		cmpq	%rcx, %r12
 3873 2f99 0F8624FA 		jbe	.L499
 3873      FFFF
 3874 2f9f 0FB64B18 		movzbl	24(%rbx), %ecx
 3875 2fa3 88480E   		movb	%cl, 14(%rax)
 3876 2fa6 E918FAFF 		jmp	.L499
 3876      FF
 3877 2fab 0F1F4400 		.p2align 4,,10
 3877      00
 3878              		.p2align 3
 3879              	.L532:
 3880 2fb0 4883C601 		addq	$1, %rsi
 3881              	.L476:
 3882 2fb4 0FB64318 		movzbl	24(%rbx), %eax
 3883 2fb8 4C39E6   		cmpq	%r12, %rsi
 3884 2fbb 8846FF   		movb	%al, -1(%rsi)
 3885 2fbe 75F0     		jne	.L532
 3886 2fc0 E9CAFDFF 		jmp	.L475
 3886      FF
 3887              		.p2align 4,,10
 3888 2fc5 0F1F00   		.p2align 3
 3889              	.L487:
 3890 2fc8 4889F1   		movq	%rsi, %rcx
 3891 2fcb 48030F   		addq	(%rdi), %rcx
 3892 2fce E9BAFBFF 		jmp	.L486
 3892      FF
 3893              		.p2align 4,,10
 3894 2fd3 0F1F4400 		.p2align 3
 3894      00
 3895              	.L533:
 3896 2fd8 4883C101 		addq	$1, %rcx
 3897              	.L500:
 3898 2fdc 0FB64318 		movzbl	24(%rbx), %eax
 3899 2fe0 4C39E1   		cmpq	%r12, %rcx
 3900 2fe3 8841FF   		movb	%al, -1(%rcx)
 3901 2fe6 75F0     		jne	.L533
 3902 2fe8 E9D6F9FF 		jmp	.L499
 3902      FF
 3903              	.L502:
 3904 2fed 4889C1   		movq	%rax, %rcx
 3905 2ff0 E9D1F9FF 		jmp	.L489
 3905      FF
 3906              	.L530:
 3907 2ff5 488B4308 		movq	8(%rbx), %rax
 3908 2ff9 4889F9   		movq	%rdi, %rcx
 3909 2ffc E9E7F9FF 		jmp	.L463
 3909      FF
 3910              	.L492:
 3911 3001 488D3500 		leaq	.LC2(%rip), %rsi
 3911      000000
 3912 3008 4889CF   		movq	%rcx, %rdi
 3913 300b 48890C24 		movq	%rcx, (%rsp)
 3914 300f E8000000 		call	errPrefix@PLT
 3914      00
 3915 3014 488B0C24 		movq	(%rsp), %rcx
 3916 3018 488D3500 		leaq	.LC10(%rip), %rsi
 3916      000000
 3917 301f 4889CF   		movq	%rcx, %rdi
 3918 3022 E8000000 		call	errPrefix@PLT
 3918      00
 3919 3027 488B0C24 		movq	(%rsp), %rcx
 3920 302b 488D3500 		leaq	.LC14(%rip), %rsi
 3920      000000
 3921 3032 4889CF   		movq	%rcx, %rdi
 3922 3035 E8000000 		call	errPrefix@PLT
 3922      00
 3923 303a B8010000 		movl	$1, %eax
 3923      00
 3924 303f E96DFBFF 		jmp	.L524
 3924      FF
 3925              		.cfi_endproc
 3926              	.LFE64:
 3928              		.section	.rodata.str1.1
 3929              	.LC15:
 3930 00ce 62756657 		.string	"bufWriteLongBE()"
 3930      72697465 
 3930      4C6F6E67 
 3930      42452829 
 3930      00
 3931              		.text
 3932 3044 6666662E 		.p2align 4,,15
 3932      0F1F8400 
 3932      00000000 
 3933              		.globl	bufWriteLongBE
 3935              	bufWriteLongBE:
 3936              	.LFB65:
 3937              		.cfi_startproc
 3938 3050 4155     		pushq	%r13
 3939              		.cfi_def_cfa_offset 16
 3940              		.cfi_offset 13, -16
 3941 3052 4C8D6E04 		leaq	4(%rsi), %r13
 3942 3056 4154     		pushq	%r12
 3943              		.cfi_def_cfa_offset 24
 3944              		.cfi_offset 12, -24
 3945 3058 55       		pushq	%rbp
 3946              		.cfi_def_cfa_offset 32
 3947              		.cfi_offset 6, -32
 3948 3059 4889F5   		movq	%rsi, %rbp
 3949 305c 53       		pushq	%rbx
 3950              		.cfi_def_cfa_offset 40
 3951              		.cfi_offset 3, -40
 3952 305d 4889FB   		movq	%rdi, %rbx
 3953 3060 4883EC18 		subq	$24, %rsp
 3954              		.cfi_def_cfa_offset 64
 3955 3064 488B4708 		movq	8(%rdi), %rax
 3956 3068 4839C6   		cmpq	%rax, %rsi
 3957 306b 732B     		jnb	.L603
 3958 306d 4939C5   		cmpq	%rax, %r13
 3959 3070 0F861206 		jbe	.L561
 3959      0000
 3960 3076 4C8B6710 		movq	16(%rdi), %r12
 3961 307a 4D39E5   		cmpq	%r12, %r13
 3962 307d 0F87F503 		ja	.L565
 3962      0000
 3963              	.L573:
 3964 3083 488B0B   		movq	(%rbx), %rcx
 3965              	.L563:
 3966 3086 4C896B08 		movq	%r13, 8(%rbx)
 3967 308a 4801E9   		addq	%rbp, %rcx
 3968 308d E9BB0100 		jmp	.L560
 3968      00
 3969              		.p2align 4,,10
 3970 3092 660F1F44 		.p2align 3
 3970      0000
 3971              	.L603:
 3972 3098 4C8B6710 		movq	16(%rdi), %r12
 3973 309c 4D39E5   		cmpq	%r12, %r13
 3974 309f 0F87DB01 		ja	.L539
 3974      0000
 3975 30a5 488B0F   		movq	(%rdi), %rcx
 3976              	.L537:
 3977 30a8 4801C8   		addq	%rcx, %rax
 3978 30ab 4801E9   		addq	%rbp, %rcx
 3979 30ae 4839C8   		cmpq	%rcx, %rax
 3980 30b1 0F839201 		jnb	.L551
 3980      0000
 3981 30b7 4C8D4318 		leaq	24(%rbx), %r8
 3982 30bb 4889CF   		movq	%rcx, %rdi
 3983 30be 488D7001 		leaq	1(%rax), %rsi
 3984 30c2 4829C7   		subq	%rax, %rdi
 3985 30c5 4C39C1   		cmpq	%r8, %rcx
 3986 30c8 4C8D4319 		leaq	25(%rbx), %r8
 3987 30cc 410F96C1 		setbe	%r9b
 3988 30d0 4C39C0   		cmpq	%r8, %rax
 3989 30d3 410F93C0 		setnb	%r8b
 3990 30d7 4508C1   		orb	%r8b, %r9b
 3991 30da 0F848403 		je	.L559
 3991      0000
 3992 30e0 4883FF0F 		cmpq	$15, %rdi
 3993 30e4 0F867A03 		jbe	.L559
 3993      0000
 3994 30ea 4989F8   		movq	%rdi, %r8
 3995 30ed 31F6     		xorl	%esi, %esi
 3996 30ef 49C1E804 		shrq	$4, %r8
 3997 30f3 4D89C1   		movq	%r8, %r9
 3998 30f6 49C1E104 		salq	$4, %r9
 3999              	.L557:
 4000 30fa 440FB65B 		movzbl	24(%rbx), %r11d
 4000      18
 4001 30ff 4989F2   		movq	%rsi, %r10
 4002 3102 4883C601 		addq	$1, %rsi
 4003 3106 49C1E204 		salq	$4, %r10
 4004 310a 4939F0   		cmpq	%rsi, %r8
 4005 310d 44881C24 		movb	%r11b, (%rsp)
 4006 3111 660F6E04 		movd	(%rsp), %xmm0
 4006      24
 4007 3116 660F60C0 		punpcklbw	%xmm0, %xmm0
 4008 311a 660F61C0 		punpcklwd	%xmm0, %xmm0
 4009 311e 660F70C0 		pshufd	$0, %xmm0, %xmm0
 4009      00
 4010 3123 F3420F7F 		movdqu	%xmm0, (%rax,%r10)
 4010      0410
 4011 3129 77CF     		ja	.L557
 4012 312b 4C01C8   		addq	%r9, %rax
 4013 312e 4C39CF   		cmpq	%r9, %rdi
 4014 3131 0F840C01 		je	.L558
 4014      0000
 4015 3137 0FB67318 		movzbl	24(%rbx), %esi
 4016 313b 408830   		movb	%sil, (%rax)
 4017 313e 488D7001 		leaq	1(%rax), %rsi
 4018 3142 4839F1   		cmpq	%rsi, %rcx
 4019 3145 0F86F800 		jbe	.L558
 4019      0000
 4020 314b 0FB67318 		movzbl	24(%rbx), %esi
 4021 314f 40887001 		movb	%sil, 1(%rax)
 4022 3153 488D7002 		leaq	2(%rax), %rsi
 4023 3157 4839F1   		cmpq	%rsi, %rcx
 4024 315a 0F86E300 		jbe	.L558
 4024      0000
 4025 3160 0FB67318 		movzbl	24(%rbx), %esi
 4026 3164 40887002 		movb	%sil, 2(%rax)
 4027 3168 488D7003 		leaq	3(%rax), %rsi
 4028 316c 4839F1   		cmpq	%rsi, %rcx
 4029 316f 0F86CE00 		jbe	.L558
 4029      0000
 4030 3175 0FB67318 		movzbl	24(%rbx), %esi
 4031 3179 40887003 		movb	%sil, 3(%rax)
 4032 317d 488D7004 		leaq	4(%rax), %rsi
 4033 3181 4839F1   		cmpq	%rsi, %rcx
 4034 3184 0F86B900 		jbe	.L558
 4034      0000
 4035 318a 0FB67318 		movzbl	24(%rbx), %esi
 4036 318e 40887004 		movb	%sil, 4(%rax)
 4037 3192 488D7005 		leaq	5(%rax), %rsi
 4038 3196 4839F1   		cmpq	%rsi, %rcx
 4039 3199 0F86A400 		jbe	.L558
 4039      0000
 4040 319f 0FB67318 		movzbl	24(%rbx), %esi
 4041 31a3 40887005 		movb	%sil, 5(%rax)
 4042 31a7 488D7006 		leaq	6(%rax), %rsi
 4043 31ab 4839F1   		cmpq	%rsi, %rcx
 4044 31ae 0F868F00 		jbe	.L558
 4044      0000
 4045 31b4 0FB67318 		movzbl	24(%rbx), %esi
 4046 31b8 40887006 		movb	%sil, 6(%rax)
 4047 31bc 488D7007 		leaq	7(%rax), %rsi
 4048 31c0 4839F1   		cmpq	%rsi, %rcx
 4049 31c3 767E     		jbe	.L558
 4050 31c5 0FB67318 		movzbl	24(%rbx), %esi
 4051 31c9 40887007 		movb	%sil, 7(%rax)
 4052 31cd 488D7008 		leaq	8(%rax), %rsi
 4053 31d1 4839F1   		cmpq	%rsi, %rcx
 4054 31d4 766D     		jbe	.L558
 4055 31d6 0FB67318 		movzbl	24(%rbx), %esi
 4056 31da 40887008 		movb	%sil, 8(%rax)
 4057 31de 488D7009 		leaq	9(%rax), %rsi
 4058 31e2 4839F1   		cmpq	%rsi, %rcx
 4059 31e5 765C     		jbe	.L558
 4060 31e7 0FB67318 		movzbl	24(%rbx), %esi
 4061 31eb 40887009 		movb	%sil, 9(%rax)
 4062 31ef 488D700A 		leaq	10(%rax), %rsi
 4063 31f3 4839F1   		cmpq	%rsi, %rcx
 4064 31f6 764B     		jbe	.L558
 4065 31f8 0FB67318 		movzbl	24(%rbx), %esi
 4066 31fc 4088700A 		movb	%sil, 10(%rax)
 4067 3200 488D700B 		leaq	11(%rax), %rsi
 4068 3204 4839F1   		cmpq	%rsi, %rcx
 4069 3207 763A     		jbe	.L558
 4070 3209 0FB67318 		movzbl	24(%rbx), %esi
 4071 320d 4088700B 		movb	%sil, 11(%rax)
 4072 3211 488D700C 		leaq	12(%rax), %rsi
 4073 3215 4839F1   		cmpq	%rsi, %rcx
 4074 3218 7629     		jbe	.L558
 4075 321a 0FB67318 		movzbl	24(%rbx), %esi
 4076 321e 4088700C 		movb	%sil, 12(%rax)
 4077 3222 488D700D 		leaq	13(%rax), %rsi
 4078 3226 4839F1   		cmpq	%rsi, %rcx
 4079 3229 7618     		jbe	.L558
 4080 322b 0FB67318 		movzbl	24(%rbx), %esi
 4081 322f 4088700D 		movb	%sil, 13(%rax)
 4082 3233 488D700E 		leaq	14(%rax), %rsi
 4083 3237 4839F1   		cmpq	%rsi, %rcx
 4084 323a 7607     		jbe	.L558
 4085 323c 0FB64B18 		movzbl	24(%rbx), %ecx
 4086 3240 88480E   		movb	%cl, 14(%rax)
 4087              	.L558:
 4088 3243 4889E9   		movq	%rbp, %rcx
 4089 3246 48030B   		addq	(%rbx), %rcx
 4090              	.L551:
 4091 3249 4C896B08 		movq	%r13, 8(%rbx)
 4092              	.L560:
 4093 324d 89D0     		movl	%edx, %eax
 4094 324f C1E818   		shrl	$24, %eax
 4095 3252 8801     		movb	%al, (%rcx)
 4096 3254 488B03   		movq	(%rbx), %rax
 4097 3257 89D1     		movl	%edx, %ecx
 4098 3259 C1E910   		shrl	$16, %ecx
 4099 325c 884C2801 		movb	%cl, 1(%rax,%rbp)
 4100 3260 488B03   		movq	(%rbx), %rax
 4101 3263 0FB6CE   		movzbl	%dh, %ecx
 4102 3266 884C2802 		movb	%cl, 2(%rax,%rbp)
 4103 326a 488B03   		movq	(%rbx), %rax
 4104 326d 88542803 		movb	%dl, 3(%rax,%rbp)
 4105 3271 31C0     		xorl	%eax, %eax
 4106              	.L541:
 4107              	.L598:
 4108 3273 4883C418 		addq	$24, %rsp
 4109              		.cfi_remember_state
 4110              		.cfi_def_cfa_offset 40
 4111 3277 5B       		popq	%rbx
 4112              		.cfi_def_cfa_offset 32
 4113 3278 5D       		popq	%rbp
 4114              		.cfi_def_cfa_offset 24
 4115 3279 415C     		popq	%r12
 4116              		.cfi_def_cfa_offset 16
 4117 327b 415D     		popq	%r13
 4118              		.cfi_def_cfa_offset 8
 4119 327d C3       		ret
 4120 327e 6690     		.p2align 4,,10
 4121              		.p2align 3
 4122              	.L539:
 4123              		.cfi_restore_state
 4124 3280 4D01E4   		addq	%r12, %r12
 4125 3283 4D39E5   		cmpq	%r12, %r13
 4126 3286 77F8     		ja	.L539
 4127 3288 488B3B   		movq	(%rbx), %rdi
 4128 328b 4C89E6   		movq	%r12, %rsi
 4129 328e 48894C24 		movq	%rcx, 8(%rsp)
 4129      08
 4130 3293 891424   		movl	%edx, (%rsp)
 4131 3296 E8000000 		call	realloc@PLT
 4131      00
 4132 329b 4885C0   		testq	%rax, %rax
 4133 329e 4889C7   		movq	%rax, %rdi
 4134 32a1 8B1424   		movl	(%rsp), %edx
 4135 32a4 488B4C24 		movq	8(%rsp), %rcx
 4135      08
 4136 32a9 0F841204 		je	.L566
 4136      0000
 4137 32af 488903   		movq	%rax, (%rbx)
 4138 32b2 4A8D0428 		leaq	(%rax,%r13), %rax
 4139 32b6 4C896310 		movq	%r12, 16(%rbx)
 4140 32ba 4901FC   		addq	%rdi, %r12
 4141 32bd 4C39E0   		cmpq	%r12, %rax
 4142 32c0 0F83EF03 		jnb	.L604
 4142      0000
 4143 32c6 4801EF   		addq	%rbp, %rdi
 4144 32c9 4D89E0   		movq	%r12, %r8
 4145 32cc 4C8D5318 		leaq	24(%rbx), %r10
 4146 32d0 4C8D4F04 		leaq	4(%rdi), %r9
 4147 32d4 4929C0   		subq	%rax, %r8
 4148 32d7 488D7001 		leaq	1(%rax), %rsi
 4149 32db 4B8D0C01 		leaq	(%r9,%r8), %rcx
 4150 32df 4939CA   		cmpq	%rcx, %r10
 4151 32e2 488D4B19 		leaq	25(%rbx), %rcx
 4152 32e6 410F93C2 		setnb	%r10b
 4153 32ea 4939C9   		cmpq	%rcx, %r9
 4154 32ed 0F93C1   		setnb	%cl
 4155 32f0 4108CA   		orb	%cl, %r10b
 4156 32f3 0F847B03 		je	.L550
 4156      0000
 4157 32f9 4983F80F 		cmpq	$15, %r8
 4158 32fd 0F867103 		jbe	.L550
 4158      0000
 4159 3303 4C89C6   		movq	%r8, %rsi
 4160 3306 31C9     		xorl	%ecx, %ecx
 4161 3308 48C1EE04 		shrq	$4, %rsi
 4162 330c 4989F1   		movq	%rsi, %r9
 4163 330f 49C1E104 		salq	$4, %r9
 4164              	.L548:
 4165 3313 440FB65B 		movzbl	24(%rbx), %r11d
 4165      18
 4166 3318 4989CA   		movq	%rcx, %r10
 4167 331b 4883C101 		addq	$1, %rcx
 4168 331f 49C1E204 		salq	$4, %r10
 4169 3323 4839CE   		cmpq	%rcx, %rsi
 4170 3326 44881C24 		movb	%r11b, (%rsp)
 4171 332a 660F6E04 		movd	(%rsp), %xmm0
 4171      24
 4172 332f 660F60C0 		punpcklbw	%xmm0, %xmm0
 4173 3333 660F61C0 		punpcklwd	%xmm0, %xmm0
 4174 3337 660F70C0 		pshufd	$0, %xmm0, %xmm0
 4174      00
 4175 333c F3420F7F 		movdqu	%xmm0, 4(%rdi,%r10)
 4175      441704
 4176 3343 77CE     		ja	.L548
 4177 3345 4C01C8   		addq	%r9, %rax
 4178 3348 4D39C8   		cmpq	%r9, %r8
 4179 334b 0F84FE00 		je	.L549
 4179      0000
 4180 3351 0FB64B18 		movzbl	24(%rbx), %ecx
 4181 3355 8808     		movb	%cl, (%rax)
 4182 3357 488D4801 		leaq	1(%rax), %rcx
 4183 335b 4939CC   		cmpq	%rcx, %r12
 4184 335e 0F86EB00 		jbe	.L549
 4184      0000
 4185 3364 0FB64B18 		movzbl	24(%rbx), %ecx
 4186 3368 884801   		movb	%cl, 1(%rax)
 4187 336b 488D4802 		leaq	2(%rax), %rcx
 4188 336f 4939CC   		cmpq	%rcx, %r12
 4189 3372 0F86D700 		jbe	.L549
 4189      0000
 4190 3378 0FB64B18 		movzbl	24(%rbx), %ecx
 4191 337c 884802   		movb	%cl, 2(%rax)
 4192 337f 488D4803 		leaq	3(%rax), %rcx
 4193 3383 4939CC   		cmpq	%rcx, %r12
 4194 3386 0F86C300 		jbe	.L549
 4194      0000
 4195 338c 0FB64B18 		movzbl	24(%rbx), %ecx
 4196 3390 884803   		movb	%cl, 3(%rax)
 4197 3393 488D4804 		leaq	4(%rax), %rcx
 4198 3397 4939CC   		cmpq	%rcx, %r12
 4199 339a 0F86AF00 		jbe	.L549
 4199      0000
 4200 33a0 0FB64B18 		movzbl	24(%rbx), %ecx
 4201 33a4 884804   		movb	%cl, 4(%rax)
 4202 33a7 488D4805 		leaq	5(%rax), %rcx
 4203 33ab 4939CC   		cmpq	%rcx, %r12
 4204 33ae 0F869B00 		jbe	.L549
 4204      0000
 4205 33b4 0FB64B18 		movzbl	24(%rbx), %ecx
 4206 33b8 884805   		movb	%cl, 5(%rax)
 4207 33bb 488D4806 		leaq	6(%rax), %rcx
 4208 33bf 4939CC   		cmpq	%rcx, %r12
 4209 33c2 0F868700 		jbe	.L549
 4209      0000
 4210 33c8 0FB64B18 		movzbl	24(%rbx), %ecx
 4211 33cc 884806   		movb	%cl, 6(%rax)
 4212 33cf 488D4807 		leaq	7(%rax), %rcx
 4213 33d3 4939CC   		cmpq	%rcx, %r12
 4214 33d6 7677     		jbe	.L549
 4215 33d8 0FB64B18 		movzbl	24(%rbx), %ecx
 4216 33dc 884807   		movb	%cl, 7(%rax)
 4217 33df 488D4808 		leaq	8(%rax), %rcx
 4218 33e3 4939CC   		cmpq	%rcx, %r12
 4219 33e6 7667     		jbe	.L549
 4220 33e8 0FB64B18 		movzbl	24(%rbx), %ecx
 4221 33ec 884808   		movb	%cl, 8(%rax)
 4222 33ef 488D4809 		leaq	9(%rax), %rcx
 4223 33f3 4939CC   		cmpq	%rcx, %r12
 4224 33f6 7657     		jbe	.L549
 4225 33f8 0FB64B18 		movzbl	24(%rbx), %ecx
 4226 33fc 884809   		movb	%cl, 9(%rax)
 4227 33ff 488D480A 		leaq	10(%rax), %rcx
 4228 3403 4939CC   		cmpq	%rcx, %r12
 4229 3406 7647     		jbe	.L549
 4230 3408 0FB64B18 		movzbl	24(%rbx), %ecx
 4231 340c 88480A   		movb	%cl, 10(%rax)
 4232 340f 488D480B 		leaq	11(%rax), %rcx
 4233 3413 4939CC   		cmpq	%rcx, %r12
 4234 3416 7637     		jbe	.L549
 4235 3418 0FB64B18 		movzbl	24(%rbx), %ecx
 4236 341c 88480B   		movb	%cl, 11(%rax)
 4237 341f 488D480C 		leaq	12(%rax), %rcx
 4238 3423 4939CC   		cmpq	%rcx, %r12
 4239 3426 7627     		jbe	.L549
 4240 3428 0FB64B18 		movzbl	24(%rbx), %ecx
 4241 342c 88480C   		movb	%cl, 12(%rax)
 4242 342f 488D480D 		leaq	13(%rax), %rcx
 4243 3433 4939CC   		cmpq	%rcx, %r12
 4244 3436 7617     		jbe	.L549
 4245 3438 0FB64B18 		movzbl	24(%rbx), %ecx
 4246 343c 88480D   		movb	%cl, 13(%rax)
 4247 343f 488D480E 		leaq	14(%rax), %rcx
 4248 3443 4939CC   		cmpq	%rcx, %r12
 4249 3446 7607     		jbe	.L549
 4250 3448 0FB64B18 		movzbl	24(%rbx), %ecx
 4251 344c 88480E   		movb	%cl, 14(%rax)
 4252              	.L549:
 4253 344f 488B0B   		movq	(%rbx), %rcx
 4254 3452 488B4308 		movq	8(%rbx), %rax
 4255 3456 E94DFCFF 		jmp	.L537
 4255      FF
 4256 345b 0F1F4400 		.p2align 4,,10
 4256      00
 4257              		.p2align 3
 4258              	.L605:
 4259 3460 4883C601 		addq	$1, %rsi
 4260              	.L559:
 4261 3464 0FB64318 		movzbl	24(%rbx), %eax
 4262 3468 4839CE   		cmpq	%rcx, %rsi
 4263 346b 8846FF   		movb	%al, -1(%rsi)
 4264 346e 75F0     		jne	.L605
 4265 3470 E9CEFDFF 		jmp	.L558
 4265      FF
 4266              		.p2align 4,,10
 4267 3475 0F1F00   		.p2align 3
 4268              	.L565:
 4269 3478 4D01E4   		addq	%r12, %r12
 4270 347b 4D39E5   		cmpq	%r12, %r13
 4271 347e 77F8     		ja	.L565
 4272 3480 488B3B   		movq	(%rbx), %rdi
 4273 3483 4C89E6   		movq	%r12, %rsi
 4274 3486 48890C24 		movq	%rcx, (%rsp)
 4275 348a 89542408 		movl	%edx, 8(%rsp)
 4276 348e E8000000 		call	realloc@PLT
 4276      00
 4277 3493 4885C0   		testq	%rax, %rax
 4278 3496 488B0C24 		movq	(%rsp), %rcx
 4279 349a 0F842102 		je	.L566
 4279      0000
 4280 34a0 4A8D3428 		leaq	(%rax,%r13), %rsi
 4281 34a4 4C896310 		movq	%r12, 16(%rbx)
 4282 34a8 4901C4   		addq	%rax, %r12
 4283 34ab 488903   		movq	%rax, (%rbx)
 4284 34ae 8B542408 		movl	8(%rsp), %edx
 4285 34b2 4C39E6   		cmpq	%r12, %rsi
 4286 34b5 0F83F201 		jnb	.L576
 4286      0000
 4287 34bb 4801E8   		addq	%rbp, %rax
 4288 34be 4C89E7   		movq	%r12, %rdi
 4289 34c1 4C8D5318 		leaq	24(%rbx), %r10
 4290 34c5 4C8D4004 		leaq	4(%rax), %r8
 4291 34c9 4829F7   		subq	%rsi, %rdi
 4292 34cc 488D4E01 		leaq	1(%rsi), %rcx
 4293 34d0 4D8D0C38 		leaq	(%r8,%rdi), %r9
 4294 34d4 4D39CA   		cmpq	%r9, %r10
 4295 34d7 4C8D5319 		leaq	25(%rbx), %r10
 4296 34db 410F93C1 		setnb	%r9b
 4297 34df 4D39D0   		cmpq	%r10, %r8
 4298 34e2 410F93C0 		setnb	%r8b
 4299 34e6 4508C1   		orb	%r8b, %r9b
 4300 34e9 0F84AD01 		je	.L574
 4300      0000
 4301 34ef 4883FF0F 		cmpq	$15, %rdi
 4302 34f3 0F86A301 		jbe	.L574
 4302      0000
 4303 34f9 4989F8   		movq	%rdi, %r8
 4304 34fc 31C9     		xorl	%ecx, %ecx
 4305 34fe 49C1E804 		shrq	$4, %r8
 4306 3502 4D89C1   		movq	%r8, %r9
 4307 3505 49C1E104 		salq	$4, %r9
 4308              	.L572:
 4309 3509 440FB65B 		movzbl	24(%rbx), %r11d
 4309      18
 4310 350e 4989CA   		movq	%rcx, %r10
 4311 3511 4883C101 		addq	$1, %rcx
 4312 3515 49C1E204 		salq	$4, %r10
 4313 3519 4939C8   		cmpq	%rcx, %r8
 4314 351c 44881C24 		movb	%r11b, (%rsp)
 4315 3520 660F6E04 		movd	(%rsp), %xmm0
 4315      24
 4316 3525 660F60C0 		punpcklbw	%xmm0, %xmm0
 4317 3529 660F61C0 		punpcklwd	%xmm0, %xmm0
 4318 352d 660F70C0 		pshufd	$0, %xmm0, %xmm0
 4318      00
 4319 3532 F3420F7F 		movdqu	%xmm0, 4(%rax,%r10)
 4319      441004
 4320 3539 77CE     		ja	.L572
 4321 353b 4C39CF   		cmpq	%r9, %rdi
 4322 353e 4A8D040E 		leaq	(%rsi,%r9), %rax
 4323 3542 0F843BFB 		je	.L573
 4323      FFFF
 4324 3548 0FB64B18 		movzbl	24(%rbx), %ecx
 4325 354c 8808     		movb	%cl, (%rax)
 4326 354e 488D4801 		leaq	1(%rax), %rcx
 4327 3552 4939CC   		cmpq	%rcx, %r12
 4328 3555 0F8628FB 		jbe	.L573
 4328      FFFF
 4329 355b 0FB64B18 		movzbl	24(%rbx), %ecx
 4330 355f 884801   		movb	%cl, 1(%rax)
 4331 3562 488D4802 		leaq	2(%rax), %rcx
 4332 3566 4939CC   		cmpq	%rcx, %r12
 4333 3569 0F8614FB 		jbe	.L573
 4333      FFFF
 4334 356f 0FB64B18 		movzbl	24(%rbx), %ecx
 4335 3573 884802   		movb	%cl, 2(%rax)
 4336 3576 488D4803 		leaq	3(%rax), %rcx
 4337 357a 4939CC   		cmpq	%rcx, %r12
 4338 357d 0F8600FB 		jbe	.L573
 4338      FFFF
 4339 3583 0FB64B18 		movzbl	24(%rbx), %ecx
 4340 3587 884803   		movb	%cl, 3(%rax)
 4341 358a 488D4804 		leaq	4(%rax), %rcx
 4342 358e 4939CC   		cmpq	%rcx, %r12
 4343 3591 0F86ECFA 		jbe	.L573
 4343      FFFF
 4344 3597 0FB64B18 		movzbl	24(%rbx), %ecx
 4345 359b 884804   		movb	%cl, 4(%rax)
 4346 359e 488D4805 		leaq	5(%rax), %rcx
 4347 35a2 4939CC   		cmpq	%rcx, %r12
 4348 35a5 0F86D8FA 		jbe	.L573
 4348      FFFF
 4349 35ab 0FB64B18 		movzbl	24(%rbx), %ecx
 4350 35af 884805   		movb	%cl, 5(%rax)
 4351 35b2 488D4806 		leaq	6(%rax), %rcx
 4352 35b6 4939CC   		cmpq	%rcx, %r12
 4353 35b9 0F86C4FA 		jbe	.L573
 4353      FFFF
 4354 35bf 0FB64B18 		movzbl	24(%rbx), %ecx
 4355 35c3 884806   		movb	%cl, 6(%rax)
 4356 35c6 488D4807 		leaq	7(%rax), %rcx
 4357 35ca 4939CC   		cmpq	%rcx, %r12
 4358 35cd 0F86B0FA 		jbe	.L573
 4358      FFFF
 4359 35d3 0FB64B18 		movzbl	24(%rbx), %ecx
 4360 35d7 884807   		movb	%cl, 7(%rax)
 4361 35da 488D4808 		leaq	8(%rax), %rcx
 4362 35de 4939CC   		cmpq	%rcx, %r12
 4363 35e1 0F869CFA 		jbe	.L573
 4363      FFFF
 4364 35e7 0FB64B18 		movzbl	24(%rbx), %ecx
 4365 35eb 884808   		movb	%cl, 8(%rax)
 4366 35ee 488D4809 		leaq	9(%rax), %rcx
 4367 35f2 4939CC   		cmpq	%rcx, %r12
 4368 35f5 0F8688FA 		jbe	.L573
 4368      FFFF
 4369 35fb 0FB64B18 		movzbl	24(%rbx), %ecx
 4370 35ff 884809   		movb	%cl, 9(%rax)
 4371 3602 488D480A 		leaq	10(%rax), %rcx
 4372 3606 4939CC   		cmpq	%rcx, %r12
 4373 3609 0F8674FA 		jbe	.L573
 4373      FFFF
 4374 360f 0FB64B18 		movzbl	24(%rbx), %ecx
 4375 3613 88480A   		movb	%cl, 10(%rax)
 4376 3616 488D480B 		leaq	11(%rax), %rcx
 4377 361a 4939CC   		cmpq	%rcx, %r12
 4378 361d 0F8660FA 		jbe	.L573
 4378      FFFF
 4379 3623 0FB64B18 		movzbl	24(%rbx), %ecx
 4380 3627 88480B   		movb	%cl, 11(%rax)
 4381 362a 488D480C 		leaq	12(%rax), %rcx
 4382 362e 4939CC   		cmpq	%rcx, %r12
 4383 3631 0F864CFA 		jbe	.L573
 4383      FFFF
 4384 3637 0FB64B18 		movzbl	24(%rbx), %ecx
 4385 363b 88480C   		movb	%cl, 12(%rax)
 4386 363e 488D480D 		leaq	13(%rax), %rcx
 4387 3642 4939CC   		cmpq	%rcx, %r12
 4388 3645 0F8638FA 		jbe	.L573
 4388      FFFF
 4389 364b 0FB64B18 		movzbl	24(%rbx), %ecx
 4390 364f 88480D   		movb	%cl, 13(%rax)
 4391 3652 488D480E 		leaq	14(%rax), %rcx
 4392 3656 4939CC   		cmpq	%rcx, %r12
 4393 3659 0F8624FA 		jbe	.L573
 4393      FFFF
 4394 365f 0FB64B18 		movzbl	24(%rbx), %ecx
 4395 3663 88480E   		movb	%cl, 14(%rax)
 4396 3666 E918FAFF 		jmp	.L573
 4396      FF
 4397 366b 0F1F4400 		.p2align 4,,10
 4397      00
 4398              		.p2align 3
 4399              	.L606:
 4400 3670 4883C601 		addq	$1, %rsi
 4401              	.L550:
 4402 3674 0FB64318 		movzbl	24(%rbx), %eax
 4403 3678 4C39E6   		cmpq	%r12, %rsi
 4404 367b 8846FF   		movb	%al, -1(%rsi)
 4405 367e 75F0     		jne	.L606
 4406 3680 E9CAFDFF 		jmp	.L549
 4406      FF
 4407              		.p2align 4,,10
 4408 3685 0F1F00   		.p2align 3
 4409              	.L561:
 4410 3688 4889F1   		movq	%rsi, %rcx
 4411 368b 48030F   		addq	(%rdi), %rcx
 4412 368e E9BAFBFF 		jmp	.L560
 4412      FF
 4413              		.p2align 4,,10
 4414 3693 0F1F4400 		.p2align 3
 4414      00
 4415              	.L607:
 4416 3698 4883C101 		addq	$1, %rcx
 4417              	.L574:
 4418 369c 0FB64318 		movzbl	24(%rbx), %eax
 4419 36a0 4C39E1   		cmpq	%r12, %rcx
 4420 36a3 8841FF   		movb	%al, -1(%rcx)
 4421 36a6 75F0     		jne	.L607
 4422 36a8 E9D6F9FF 		jmp	.L573
 4422      FF
 4423              	.L576:
 4424 36ad 4889C1   		movq	%rax, %rcx
 4425 36b0 E9D1F9FF 		jmp	.L563
 4425      FF
 4426              	.L604:
 4427 36b5 488B4308 		movq	8(%rbx), %rax
 4428 36b9 4889F9   		movq	%rdi, %rcx
 4429 36bc E9E7F9FF 		jmp	.L537
 4429      FF
 4430              	.L566:
 4431 36c1 488D3500 		leaq	.LC2(%rip), %rsi
 4431      000000
 4432 36c8 4889CF   		movq	%rcx, %rdi
 4433 36cb 48890C24 		movq	%rcx, (%rsp)
 4434 36cf E8000000 		call	errPrefix@PLT
 4434      00
 4435 36d4 488B0C24 		movq	(%rsp), %rcx
 4436 36d8 488D3500 		leaq	.LC10(%rip), %rsi
 4436      000000
 4437 36df 4889CF   		movq	%rcx, %rdi
 4438 36e2 E8000000 		call	errPrefix@PLT
 4438      00
 4439 36e7 488B0C24 		movq	(%rsp), %rcx
 4440 36eb 488D3500 		leaq	.LC15(%rip), %rsi
 4440      000000
 4441 36f2 4889CF   		movq	%rcx, %rdi
 4442 36f5 E8000000 		call	errPrefix@PLT
 4442      00
 4443 36fa B8010000 		movl	$1, %eax
 4443      00
 4444 36ff E96FFBFF 		jmp	.L598
 4444      FF
 4445              		.cfi_endproc
 4446              	.LFE65:
 4448              		.section	.rodata.str1.1
 4449              	.LC16:
 4450 00df 62756657 		.string	"bufWriteConst()"
 4450      72697465 
 4450      436F6E73 
 4450      74282900 
 4451              		.text
 4452 3704 6666662E 		.p2align 4,,15
 4452      0F1F8400 
 4452      00000000 
 4453              		.globl	bufWriteConst
 4455              	bufWriteConst:
 4456              	.LFB66:
 4457              		.cfi_startproc
 4458 3710 4155     		pushq	%r13
 4459              		.cfi_def_cfa_offset 16
 4460              		.cfi_offset 13, -16
 4461 3712 4989F5   		movq	%rsi, %r13
 4462 3715 4154     		pushq	%r12
 4463              		.cfi_def_cfa_offset 24
 4464              		.cfi_offset 12, -24
 4465 3717 4C8D240E 		leaq	(%rsi,%rcx), %r12
 4466 371b 55       		pushq	%rbp
 4467              		.cfi_def_cfa_offset 32
 4468              		.cfi_offset 6, -32
 4469 371c 53       		pushq	%rbx
 4470              		.cfi_def_cfa_offset 40
 4471              		.cfi_offset 3, -40
 4472 371d 4889FB   		movq	%rdi, %rbx
 4473 3720 4883EC28 		subq	$40, %rsp
 4474              		.cfi_def_cfa_offset 80
 4475 3724 488B4708 		movq	8(%rdi), %rax
 4476 3728 4839C6   		cmpq	%rax, %rsi
 4477 372b 732B     		jnb	.L677
 4478 372d 4939C4   		cmpq	%rax, %r12
 4479 3730 0F862206 		jbe	.L635
 4479      0000
 4480 3736 488B6F10 		movq	16(%rdi), %rbp
 4481 373a 4939EC   		cmpq	%rbp, %r12
 4482 373d 0F87F503 		ja	.L639
 4482      0000
 4483              	.L647:
 4484 3743 488B3B   		movq	(%rbx), %rdi
 4485              	.L637:
 4486 3746 4C896308 		movq	%r12, 8(%rbx)
 4487 374a 4C01EF   		addq	%r13, %rdi
 4488 374d E9BE0100 		jmp	.L634
 4488      00
 4489              		.p2align 4,,10
 4490 3752 660F1F44 		.p2align 3
 4490      0000
 4491              	.L677:
 4492 3758 488B6F10 		movq	16(%rdi), %rbp
 4493 375c 4939EC   		cmpq	%rbp, %r12
 4494 375f 0F87CB01 		ja	.L613
 4494      0000
 4495 3765 4C8B07   		movq	(%rdi), %r8
 4496              	.L611:
 4497 3768 4C01C0   		addq	%r8, %rax
 4498 376b 4D01E8   		addq	%r13, %r8
 4499 376e 4C39C0   		cmpq	%r8, %rax
 4500 3771 0F831106 		jnb	.L649
 4500      0000
 4501 3777 4C8D4B18 		leaq	24(%rbx), %r9
 4502 377b 4C89C6   		movq	%r8, %rsi
 4503 377e 488D7801 		leaq	1(%rax), %rdi
 4504 3782 4829C6   		subq	%rax, %rsi
 4505 3785 4D39C8   		cmpq	%r9, %r8
 4506 3788 4C8D4B19 		leaq	25(%rbx), %r9
 4507 378c 410F96C2 		setbe	%r10b
 4508 3790 4C39C8   		cmpq	%r9, %rax
 4509 3793 410F93C1 		setnb	%r9b
 4510 3797 4508CA   		orb	%r9b, %r10b
 4511 379a 0F848403 		je	.L633
 4511      0000
 4512 37a0 4883FE0F 		cmpq	$15, %rsi
 4513 37a4 0F867A03 		jbe	.L633
 4513      0000
 4514 37aa 4989F1   		movq	%rsi, %r9
 4515 37ad 31FF     		xorl	%edi, %edi
 4516 37af 49C1E904 		shrq	$4, %r9
 4517 37b3 4D89CA   		movq	%r9, %r10
 4518 37b6 49C1E204 		salq	$4, %r10
 4519              	.L631:
 4520 37ba 440FB65B 		movzbl	24(%rbx), %r11d
 4520      18
 4521 37bf 44885C24 		movb	%r11b, 8(%rsp)
 4521      08
 4522 37c4 4989FB   		movq	%rdi, %r11
 4523 37c7 4883C701 		addq	$1, %rdi
 4524 37cb 660F6E44 		movd	8(%rsp), %xmm0
 4524      2408
 4525 37d1 49C1E304 		salq	$4, %r11
 4526 37d5 4939F9   		cmpq	%rdi, %r9
 4527 37d8 660F60C0 		punpcklbw	%xmm0, %xmm0
 4528 37dc 660F61C0 		punpcklwd	%xmm0, %xmm0
 4529 37e0 660F70C0 		pshufd	$0, %xmm0, %xmm0
 4529      00
 4530 37e5 F3420F7F 		movdqu	%xmm0, (%rax,%r11)
 4530      0418
 4531 37eb 77CD     		ja	.L631
 4532 37ed 4C01D0   		addq	%r10, %rax
 4533 37f0 4C39D6   		cmpq	%r10, %rsi
 4534 37f3 0F840D01 		je	.L632
 4534      0000
 4535 37f9 0FB67318 		movzbl	24(%rbx), %esi
 4536 37fd 408830   		movb	%sil, (%rax)
 4537 3800 488D7001 		leaq	1(%rax), %rsi
 4538 3804 4939F0   		cmpq	%rsi, %r8
 4539 3807 0F86F900 		jbe	.L632
 4539      0000
 4540 380d 0FB67318 		movzbl	24(%rbx), %esi
 4541 3811 40887001 		movb	%sil, 1(%rax)
 4542 3815 488D7002 		leaq	2(%rax), %rsi
 4543 3819 4939F0   		cmpq	%rsi, %r8
 4544 381c 0F86E400 		jbe	.L632
 4544      0000
 4545 3822 0FB67318 		movzbl	24(%rbx), %esi
 4546 3826 40887002 		movb	%sil, 2(%rax)
 4547 382a 488D7003 		leaq	3(%rax), %rsi
 4548 382e 4939F0   		cmpq	%rsi, %r8
 4549 3831 0F86CF00 		jbe	.L632
 4549      0000
 4550 3837 0FB67318 		movzbl	24(%rbx), %esi
 4551 383b 40887003 		movb	%sil, 3(%rax)
 4552 383f 488D7004 		leaq	4(%rax), %rsi
 4553 3843 4939F0   		cmpq	%rsi, %r8
 4554 3846 0F86BA00 		jbe	.L632
 4554      0000
 4555 384c 0FB67318 		movzbl	24(%rbx), %esi
 4556 3850 40887004 		movb	%sil, 4(%rax)
 4557 3854 488D7005 		leaq	5(%rax), %rsi
 4558 3858 4939F0   		cmpq	%rsi, %r8
 4559 385b 0F86A500 		jbe	.L632
 4559      0000
 4560 3861 0FB67318 		movzbl	24(%rbx), %esi
 4561 3865 40887005 		movb	%sil, 5(%rax)
 4562 3869 488D7006 		leaq	6(%rax), %rsi
 4563 386d 4939F0   		cmpq	%rsi, %r8
 4564 3870 0F869000 		jbe	.L632
 4564      0000
 4565 3876 0FB67318 		movzbl	24(%rbx), %esi
 4566 387a 40887006 		movb	%sil, 6(%rax)
 4567 387e 488D7007 		leaq	7(%rax), %rsi
 4568 3882 4939F0   		cmpq	%rsi, %r8
 4569 3885 767F     		jbe	.L632
 4570 3887 0FB67318 		movzbl	24(%rbx), %esi
 4571 388b 40887007 		movb	%sil, 7(%rax)
 4572 388f 488D7008 		leaq	8(%rax), %rsi
 4573 3893 4939F0   		cmpq	%rsi, %r8
 4574 3896 766E     		jbe	.L632
 4575 3898 0FB67318 		movzbl	24(%rbx), %esi
 4576 389c 40887008 		movb	%sil, 8(%rax)
 4577 38a0 488D7009 		leaq	9(%rax), %rsi
 4578 38a4 4939F0   		cmpq	%rsi, %r8
 4579 38a7 765D     		jbe	.L632
 4580 38a9 0FB67318 		movzbl	24(%rbx), %esi
 4581 38ad 40887009 		movb	%sil, 9(%rax)
 4582 38b1 488D700A 		leaq	10(%rax), %rsi
 4583 38b5 4939F0   		cmpq	%rsi, %r8
 4584 38b8 764C     		jbe	.L632
 4585 38ba 0FB67318 		movzbl	24(%rbx), %esi
 4586 38be 4088700A 		movb	%sil, 10(%rax)
 4587 38c2 488D700B 		leaq	11(%rax), %rsi
 4588 38c6 4939F0   		cmpq	%rsi, %r8
 4589 38c9 763B     		jbe	.L632
 4590 38cb 0FB67318 		movzbl	24(%rbx), %esi
 4591 38cf 4088700B 		movb	%sil, 11(%rax)
 4592 38d3 488D700C 		leaq	12(%rax), %rsi
 4593 38d7 4939F0   		cmpq	%rsi, %r8
 4594 38da 762A     		jbe	.L632
 4595 38dc 0FB67318 		movzbl	24(%rbx), %esi
 4596 38e0 4088700C 		movb	%sil, 12(%rax)
 4597 38e4 488D700D 		leaq	13(%rax), %rsi
 4598 38e8 4939F0   		cmpq	%rsi, %r8
 4599 38eb 7619     		jbe	.L632
 4600 38ed 0FB67318 		movzbl	24(%rbx), %esi
 4601 38f1 4088700D 		movb	%sil, 13(%rax)
 4602 38f5 488D700E 		leaq	14(%rax), %rsi
 4603 38f9 4939F0   		cmpq	%rsi, %r8
 4604 38fc 7608     		jbe	.L632
 4605 38fe 0FB67318 		movzbl	24(%rbx), %esi
 4606 3902 4088700E 		movb	%sil, 14(%rax)
 4607              	.L632:
 4608 3906 4C89EF   		movq	%r13, %rdi
 4609 3909 48033B   		addq	(%rbx), %rdi
 4610              	.L625:
 4611 390c 4C896308 		movq	%r12, 8(%rbx)
 4612              	.L634:
 4613 3910 0FB6F2   		movzbl	%dl, %esi
 4614 3913 4889CA   		movq	%rcx, %rdx
 4615 3916 E8000000 		call	memset@PLT
 4615      00
 4616 391b 31C0     		xorl	%eax, %eax
 4617              	.L615:
 4618              	.L672:
 4619 391d 4883C428 		addq	$40, %rsp
 4620              		.cfi_remember_state
 4621              		.cfi_def_cfa_offset 40
 4622 3921 5B       		popq	%rbx
 4623              		.cfi_def_cfa_offset 32
 4624 3922 5D       		popq	%rbp
 4625              		.cfi_def_cfa_offset 24
 4626 3923 415C     		popq	%r12
 4627              		.cfi_def_cfa_offset 16
 4628 3925 415D     		popq	%r13
 4629              		.cfi_def_cfa_offset 8
 4630 3927 C3       		ret
 4631 3928 0F1F8400 		.p2align 4,,10
 4631      00000000 
 4632              		.p2align 3
 4633              	.L613:
 4634              		.cfi_restore_state
 4635 3930 4801ED   		addq	%rbp, %rbp
 4636 3933 4939EC   		cmpq	%rbp, %r12
 4637 3936 77F8     		ja	.L613
 4638 3938 488B3B   		movq	(%rbx), %rdi
 4639 393b 4889EE   		movq	%rbp, %rsi
 4640 393e 4C894424 		movq	%r8, 24(%rsp)
 4640      18
 4641 3943 48894C24 		movq	%rcx, 16(%rsp)
 4641      10
 4642 3948 89542408 		movl	%edx, 8(%rsp)
 4643 394c E8000000 		call	realloc@PLT
 4643      00
 4644 3951 4885C0   		testq	%rax, %rax
 4645 3954 4889C6   		movq	%rax, %rsi
 4646 3957 8B542408 		movl	8(%rsp), %edx
 4647 395b 488B4C24 		movq	16(%rsp), %rcx
 4647      10
 4648 3960 4C8B4424 		movq	24(%rsp), %r8
 4648      18
 4649 3965 0F843104 		je	.L640
 4649      0000
 4650 396b 4A8D3C20 		leaq	(%rax,%r12), %rdi
 4651 396f 48896B10 		movq	%rbp, 16(%rbx)
 4652 3973 4801C5   		addq	%rax, %rbp
 4653 3976 488903   		movq	%rax, (%rbx)
 4654 3979 4839EF   		cmpq	%rbp, %rdi
 4655 397c 0F830E04 		jnb	.L678
 4655      0000
 4656 3982 488D4318 		leaq	24(%rbx), %rax
 4657 3986 4989E8   		movq	%rbp, %r8
 4658 3989 488D7701 		leaq	1(%rdi), %rsi
 4659 398d 4929F8   		subq	%rdi, %r8
 4660 3990 4839C5   		cmpq	%rax, %rbp
 4661 3993 488D4319 		leaq	25(%rbx), %rax
 4662 3997 410F96C1 		setbe	%r9b
 4663 399b 4839C7   		cmpq	%rax, %rdi
 4664 399e 0F93C0   		setnb	%al
 4665 39a1 4108C1   		orb	%al, %r9b
 4666 39a4 0F849A03 		je	.L624
 4666      0000
 4667 39aa 4983F80F 		cmpq	$15, %r8
 4668 39ae 0F869003 		jbe	.L624
 4668      0000
 4669 39b4 4C89C6   		movq	%r8, %rsi
 4670 39b7 31C0     		xorl	%eax, %eax
 4671 39b9 48C1EE04 		shrq	$4, %rsi
 4672 39bd 4989F1   		movq	%rsi, %r9
 4673 39c0 49C1E104 		salq	$4, %r9
 4674              	.L622:
 4675 39c4 440FB65B 		movzbl	24(%rbx), %r11d
 4675      18
 4676 39c9 4989C2   		movq	%rax, %r10
 4677 39cc 4883C001 		addq	$1, %rax
 4678 39d0 49C1E204 		salq	$4, %r10
 4679 39d4 4839C6   		cmpq	%rax, %rsi
 4680 39d7 44885C24 		movb	%r11b, 8(%rsp)
 4680      08
 4681 39dc 660F6E44 		movd	8(%rsp), %xmm0
 4681      2408
 4682 39e2 660F60C0 		punpcklbw	%xmm0, %xmm0
 4683 39e6 660F61C0 		punpcklwd	%xmm0, %xmm0
 4684 39ea 660F70C0 		pshufd	$0, %xmm0, %xmm0
 4684      00
 4685 39ef F3420F7F 		movdqu	%xmm0, (%rdi,%r10)
 4685      0417
 4686 39f5 77CD     		ja	.L622
 4687 39f7 4D39C8   		cmpq	%r9, %r8
 4688 39fa 4A8D040F 		leaq	(%rdi,%r9), %rax
 4689 39fe 0F840D01 		je	.L623
 4689      0000
 4690 3a04 0FB67318 		movzbl	24(%rbx), %esi
 4691 3a08 408830   		movb	%sil, (%rax)
 4692 3a0b 488D7001 		leaq	1(%rax), %rsi
 4693 3a0f 4839F5   		cmpq	%rsi, %rbp
 4694 3a12 0F86F900 		jbe	.L623
 4694      0000
 4695 3a18 0FB67318 		movzbl	24(%rbx), %esi
 4696 3a1c 40887001 		movb	%sil, 1(%rax)
 4697 3a20 488D7002 		leaq	2(%rax), %rsi
 4698 3a24 4839F5   		cmpq	%rsi, %rbp
 4699 3a27 0F86E400 		jbe	.L623
 4699      0000
 4700 3a2d 0FB67318 		movzbl	24(%rbx), %esi
 4701 3a31 40887002 		movb	%sil, 2(%rax)
 4702 3a35 488D7003 		leaq	3(%rax), %rsi
 4703 3a39 4839F5   		cmpq	%rsi, %rbp
 4704 3a3c 0F86CF00 		jbe	.L623
 4704      0000
 4705 3a42 0FB67318 		movzbl	24(%rbx), %esi
 4706 3a46 40887003 		movb	%sil, 3(%rax)
 4707 3a4a 488D7004 		leaq	4(%rax), %rsi
 4708 3a4e 4839F5   		cmpq	%rsi, %rbp
 4709 3a51 0F86BA00 		jbe	.L623
 4709      0000
 4710 3a57 0FB67318 		movzbl	24(%rbx), %esi
 4711 3a5b 40887004 		movb	%sil, 4(%rax)
 4712 3a5f 488D7005 		leaq	5(%rax), %rsi
 4713 3a63 4839F5   		cmpq	%rsi, %rbp
 4714 3a66 0F86A500 		jbe	.L623
 4714      0000
 4715 3a6c 0FB67318 		movzbl	24(%rbx), %esi
 4716 3a70 40887005 		movb	%sil, 5(%rax)
 4717 3a74 488D7006 		leaq	6(%rax), %rsi
 4718 3a78 4839F5   		cmpq	%rsi, %rbp
 4719 3a7b 0F869000 		jbe	.L623
 4719      0000
 4720 3a81 0FB67318 		movzbl	24(%rbx), %esi
 4721 3a85 40887006 		movb	%sil, 6(%rax)
 4722 3a89 488D7007 		leaq	7(%rax), %rsi
 4723 3a8d 4839F5   		cmpq	%rsi, %rbp
 4724 3a90 767F     		jbe	.L623
 4725 3a92 0FB67318 		movzbl	24(%rbx), %esi
 4726 3a96 40887007 		movb	%sil, 7(%rax)
 4727 3a9a 488D7008 		leaq	8(%rax), %rsi
 4728 3a9e 4839F5   		cmpq	%rsi, %rbp
 4729 3aa1 766E     		jbe	.L623
 4730 3aa3 0FB67318 		movzbl	24(%rbx), %esi
 4731 3aa7 40887008 		movb	%sil, 8(%rax)
 4732 3aab 488D7009 		leaq	9(%rax), %rsi
 4733 3aaf 4839F5   		cmpq	%rsi, %rbp
 4734 3ab2 765D     		jbe	.L623
 4735 3ab4 0FB67318 		movzbl	24(%rbx), %esi
 4736 3ab8 40887009 		movb	%sil, 9(%rax)
 4737 3abc 488D700A 		leaq	10(%rax), %rsi
 4738 3ac0 4839F5   		cmpq	%rsi, %rbp
 4739 3ac3 764C     		jbe	.L623
 4740 3ac5 0FB67318 		movzbl	24(%rbx), %esi
 4741 3ac9 4088700A 		movb	%sil, 10(%rax)
 4742 3acd 488D700B 		leaq	11(%rax), %rsi
 4743 3ad1 4839F5   		cmpq	%rsi, %rbp
 4744 3ad4 763B     		jbe	.L623
 4745 3ad6 0FB67318 		movzbl	24(%rbx), %esi
 4746 3ada 4088700B 		movb	%sil, 11(%rax)
 4747 3ade 488D700C 		leaq	12(%rax), %rsi
 4748 3ae2 4839F5   		cmpq	%rsi, %rbp
 4749 3ae5 762A     		jbe	.L623
 4750 3ae7 0FB67318 		movzbl	24(%rbx), %esi
 4751 3aeb 4088700C 		movb	%sil, 12(%rax)
 4752 3aef 488D700D 		leaq	13(%rax), %rsi
 4753 3af3 4839F5   		cmpq	%rsi, %rbp
 4754 3af6 7619     		jbe	.L623
 4755 3af8 0FB67318 		movzbl	24(%rbx), %esi
 4756 3afc 4088700D 		movb	%sil, 13(%rax)
 4757 3b00 488D700E 		leaq	14(%rax), %rsi
 4758 3b04 4839F5   		cmpq	%rsi, %rbp
 4759 3b07 7608     		jbe	.L623
 4760 3b09 0FB67318 		movzbl	24(%rbx), %esi
 4761 3b0d 4088700E 		movb	%sil, 14(%rax)
 4762              	.L623:
 4763 3b11 4C8B03   		movq	(%rbx), %r8
 4764 3b14 488B4308 		movq	8(%rbx), %rax
 4765 3b18 E94BFCFF 		jmp	.L611
 4765      FF
 4766 3b1d 0F1F00   		.p2align 4,,10
 4767              		.p2align 3
 4768              	.L679:
 4769 3b20 4883C701 		addq	$1, %rdi
 4770              	.L633:
 4771 3b24 0FB64318 		movzbl	24(%rbx), %eax
 4772 3b28 4C39C7   		cmpq	%r8, %rdi
 4773 3b2b 8847FF   		movb	%al, -1(%rdi)
 4774 3b2e 75F0     		jne	.L679
 4775 3b30 E9D1FDFF 		jmp	.L632
 4775      FF
 4776              		.p2align 4,,10
 4777 3b35 0F1F00   		.p2align 3
 4778              	.L639:
 4779 3b38 4801ED   		addq	%rbp, %rbp
 4780 3b3b 4939EC   		cmpq	%rbp, %r12
 4781 3b3e 77F8     		ja	.L639
 4782 3b40 488B3B   		movq	(%rbx), %rdi
 4783 3b43 4889EE   		movq	%rbp, %rsi
 4784 3b46 4C894424 		movq	%r8, 8(%rsp)
 4784      08
 4785 3b4b 48894C24 		movq	%rcx, 24(%rsp)
 4785      18
 4786 3b50 89542410 		movl	%edx, 16(%rsp)
 4787 3b54 E8000000 		call	realloc@PLT
 4787      00
 4788 3b59 4885C0   		testq	%rax, %rax
 4789 3b5c 4C8B4424 		movq	8(%rsp), %r8
 4789      08
 4790 3b61 0F843502 		je	.L640
 4790      0000
 4791 3b67 4E8D0420 		leaq	(%rax,%r12), %r8
 4792 3b6b 48896B10 		movq	%rbp, 16(%rbx)
 4793 3b6f 4801C5   		addq	%rax, %rbp
 4794 3b72 488903   		movq	%rax, (%rbx)
 4795 3b75 8B542410 		movl	16(%rsp), %edx
 4796 3b79 4939E8   		cmpq	%rbp, %r8
 4797 3b7c 488B4C24 		movq	24(%rsp), %rcx
 4797      18
 4798 3b81 0F83F601 		jnb	.L650
 4798      0000
 4799 3b87 488D4318 		leaq	24(%rbx), %rax
 4800 3b8b 4889EF   		movq	%rbp, %rdi
 4801 3b8e 498D7001 		leaq	1(%r8), %rsi
 4802 3b92 4C29C7   		subq	%r8, %rdi
 4803 3b95 4839C5   		cmpq	%rax, %rbp
 4804 3b98 488D4319 		leaq	25(%rbx), %rax
 4805 3b9c 410F96C1 		setbe	%r9b
 4806 3ba0 4939C0   		cmpq	%rax, %r8
 4807 3ba3 0F93C0   		setnb	%al
 4808 3ba6 4108C1   		orb	%al, %r9b
 4809 3ba9 0F84BD01 		je	.L648
 4809      0000
 4810 3baf 4883FF0F 		cmpq	$15, %rdi
 4811 3bb3 0F86B301 		jbe	.L648
 4811      0000
 4812 3bb9 4889FE   		movq	%rdi, %rsi
 4813 3bbc 31C0     		xorl	%eax, %eax
 4814 3bbe 48C1EE04 		shrq	$4, %rsi
 4815 3bc2 4989F1   		movq	%rsi, %r9
 4816 3bc5 49C1E104 		salq	$4, %r9
 4817              	.L646:
 4818 3bc9 440FB65B 		movzbl	24(%rbx), %r11d
 4818      18
 4819 3bce 4989C2   		movq	%rax, %r10
 4820 3bd1 4883C001 		addq	$1, %rax
 4821 3bd5 49C1E204 		salq	$4, %r10
 4822 3bd9 4839C6   		cmpq	%rax, %rsi
 4823 3bdc 44885C24 		movb	%r11b, 8(%rsp)
 4823      08
 4824 3be1 660F6E44 		movd	8(%rsp), %xmm0
 4824      2408
 4825 3be7 660F60C0 		punpcklbw	%xmm0, %xmm0
 4826 3beb 660F61C0 		punpcklwd	%xmm0, %xmm0
 4827 3bef 660F70C0 		pshufd	$0, %xmm0, %xmm0
 4827      00
 4828 3bf4 F3430F7F 		movdqu	%xmm0, (%r8,%r10)
 4828      0410
 4829 3bfa 77CD     		ja	.L646
 4830 3bfc 4C39CF   		cmpq	%r9, %rdi
 4831 3bff 4B8D0408 		leaq	(%r8,%r9), %rax
 4832 3c03 0F843AFB 		je	.L647
 4832      FFFF
 4833 3c09 0FB67318 		movzbl	24(%rbx), %esi
 4834 3c0d 408830   		movb	%sil, (%rax)
 4835 3c10 488D7001 		leaq	1(%rax), %rsi
 4836 3c14 4839F5   		cmpq	%rsi, %rbp
 4837 3c17 0F8626FB 		jbe	.L647
 4837      FFFF
 4838 3c1d 0FB67318 		movzbl	24(%rbx), %esi
 4839 3c21 40887001 		movb	%sil, 1(%rax)
 4840 3c25 488D7002 		leaq	2(%rax), %rsi
 4841 3c29 4839F5   		cmpq	%rsi, %rbp
 4842 3c2c 0F8611FB 		jbe	.L647
 4842      FFFF
 4843 3c32 0FB67318 		movzbl	24(%rbx), %esi
 4844 3c36 40887002 		movb	%sil, 2(%rax)
 4845 3c3a 488D7003 		leaq	3(%rax), %rsi
 4846 3c3e 4839F5   		cmpq	%rsi, %rbp
 4847 3c41 0F86FCFA 		jbe	.L647
 4847      FFFF
 4848 3c47 0FB67318 		movzbl	24(%rbx), %esi
 4849 3c4b 40887003 		movb	%sil, 3(%rax)
 4850 3c4f 488D7004 		leaq	4(%rax), %rsi
 4851 3c53 4839F5   		cmpq	%rsi, %rbp
 4852 3c56 0F86E7FA 		jbe	.L647
 4852      FFFF
 4853 3c5c 0FB67318 		movzbl	24(%rbx), %esi
 4854 3c60 40887004 		movb	%sil, 4(%rax)
 4855 3c64 488D7005 		leaq	5(%rax), %rsi
 4856 3c68 4839F5   		cmpq	%rsi, %rbp
 4857 3c6b 0F86D2FA 		jbe	.L647
 4857      FFFF
 4858 3c71 0FB67318 		movzbl	24(%rbx), %esi
 4859 3c75 40887005 		movb	%sil, 5(%rax)
 4860 3c79 488D7006 		leaq	6(%rax), %rsi
 4861 3c7d 4839F5   		cmpq	%rsi, %rbp
 4862 3c80 0F86BDFA 		jbe	.L647
 4862      FFFF
 4863 3c86 0FB67318 		movzbl	24(%rbx), %esi
 4864 3c8a 40887006 		movb	%sil, 6(%rax)
 4865 3c8e 488D7007 		leaq	7(%rax), %rsi
 4866 3c92 4839F5   		cmpq	%rsi, %rbp
 4867 3c95 0F86A8FA 		jbe	.L647
 4867      FFFF
 4868 3c9b 0FB67318 		movzbl	24(%rbx), %esi
 4869 3c9f 40887007 		movb	%sil, 7(%rax)
 4870 3ca3 488D7008 		leaq	8(%rax), %rsi
 4871 3ca7 4839F5   		cmpq	%rsi, %rbp
 4872 3caa 0F8693FA 		jbe	.L647
 4872      FFFF
 4873 3cb0 0FB67318 		movzbl	24(%rbx), %esi
 4874 3cb4 40887008 		movb	%sil, 8(%rax)
 4875 3cb8 488D7009 		leaq	9(%rax), %rsi
 4876 3cbc 4839F5   		cmpq	%rsi, %rbp
 4877 3cbf 0F867EFA 		jbe	.L647
 4877      FFFF
 4878 3cc5 0FB67318 		movzbl	24(%rbx), %esi
 4879 3cc9 40887009 		movb	%sil, 9(%rax)
 4880 3ccd 488D700A 		leaq	10(%rax), %rsi
 4881 3cd1 4839F5   		cmpq	%rsi, %rbp
 4882 3cd4 0F8669FA 		jbe	.L647
 4882      FFFF
 4883 3cda 0FB67318 		movzbl	24(%rbx), %esi
 4884 3cde 4088700A 		movb	%sil, 10(%rax)
 4885 3ce2 488D700B 		leaq	11(%rax), %rsi
 4886 3ce6 4839F5   		cmpq	%rsi, %rbp
 4887 3ce9 0F8654FA 		jbe	.L647
 4887      FFFF
 4888 3cef 0FB67318 		movzbl	24(%rbx), %esi
 4889 3cf3 4088700B 		movb	%sil, 11(%rax)
 4890 3cf7 488D700C 		leaq	12(%rax), %rsi
 4891 3cfb 4839F5   		cmpq	%rsi, %rbp
 4892 3cfe 0F863FFA 		jbe	.L647
 4892      FFFF
 4893 3d04 0FB67318 		movzbl	24(%rbx), %esi
 4894 3d08 4088700C 		movb	%sil, 12(%rax)
 4895 3d0c 488D700D 		leaq	13(%rax), %rsi
 4896 3d10 4839F5   		cmpq	%rsi, %rbp
 4897 3d13 0F862AFA 		jbe	.L647
 4897      FFFF
 4898 3d19 0FB67318 		movzbl	24(%rbx), %esi
 4899 3d1d 4088700D 		movb	%sil, 13(%rax)
 4900 3d21 488D700E 		leaq	14(%rax), %rsi
 4901 3d25 4839F5   		cmpq	%rsi, %rbp
 4902 3d28 0F8615FA 		jbe	.L647
 4902      FFFF
 4903 3d2e 0FB67318 		movzbl	24(%rbx), %esi
 4904 3d32 4088700E 		movb	%sil, 14(%rax)
 4905 3d36 E908FAFF 		jmp	.L647
 4905      FF
 4906 3d3b 0F1F4400 		.p2align 4,,10
 4906      00
 4907              		.p2align 3
 4908              	.L680:
 4909 3d40 4883C601 		addq	$1, %rsi
 4910              	.L624:
 4911 3d44 0FB64318 		movzbl	24(%rbx), %eax
 4912 3d48 4839EE   		cmpq	%rbp, %rsi
 4913 3d4b 8846FF   		movb	%al, -1(%rsi)
 4914 3d4e 75F0     		jne	.L680
 4915 3d50 E9BCFDFF 		jmp	.L623
 4915      FF
 4916              		.p2align 4,,10
 4917 3d55 0F1F00   		.p2align 3
 4918              	.L635:
 4919 3d58 4889F7   		movq	%rsi, %rdi
 4920 3d5b 48033B   		addq	(%rbx), %rdi
 4921 3d5e E9ADFBFF 		jmp	.L634
 4921      FF
 4922              		.p2align 4,,10
 4923 3d63 0F1F4400 		.p2align 3
 4923      00
 4924              	.L681:
 4925 3d68 4883C601 		addq	$1, %rsi
 4926              	.L648:
 4927 3d6c 0FB64318 		movzbl	24(%rbx), %eax
 4928 3d70 4839EE   		cmpq	%rbp, %rsi
 4929 3d73 8846FF   		movb	%al, -1(%rsi)
 4930 3d76 75F0     		jne	.L681
 4931 3d78 E9C6F9FF 		jmp	.L647
 4931      FF
 4932              	.L650:
 4933 3d7d 4889C7   		movq	%rax, %rdi
 4934 3d80 E9C1F9FF 		jmp	.L637
 4934      FF
 4935              		.p2align 4,,10
 4936 3d85 0F1F00   		.p2align 3
 4937              	.L649:
 4938 3d88 4C89C7   		movq	%r8, %rdi
 4939 3d8b E97CFBFF 		jmp	.L625
 4939      FF
 4940              	.L678:
 4941 3d90 488B4308 		movq	8(%rbx), %rax
 4942 3d94 4989F0   		movq	%rsi, %r8
 4943 3d97 E9CCF9FF 		jmp	.L611
 4943      FF
 4944              	.L640:
 4945 3d9c 488D3500 		leaq	.LC2(%rip), %rsi
 4945      000000
 4946 3da3 4C89C7   		movq	%r8, %rdi
 4947 3da6 4C894424 		movq	%r8, 8(%rsp)
 4947      08
 4948 3dab E8000000 		call	errPrefix@PLT
 4948      00
 4949 3db0 4C8B4424 		movq	8(%rsp), %r8
 4949      08
 4950 3db5 488D3500 		leaq	.LC10(%rip), %rsi
 4950      000000
 4951 3dbc 4C89C7   		movq	%r8, %rdi
 4952 3dbf E8000000 		call	errPrefix@PLT
 4952      00
 4953 3dc4 4C8B4424 		movq	8(%rsp), %r8
 4953      08
 4954 3dc9 488D3500 		leaq	.LC16(%rip), %rsi
 4954      000000
 4955 3dd0 4C89C7   		movq	%r8, %rdi
 4956 3dd3 E8000000 		call	errPrefix@PLT
 4956      00
 4957 3dd8 B8010000 		movl	$1, %eax
 4957      00
 4958 3ddd E93BFBFF 		jmp	.L672
 4958      FF
 4959              		.cfi_endproc
 4960              	.LFE66:
 4962 3de2 66666666 		.p2align 4,,15
 4962      662E0F1F 
 4962      84000000 
 4962      0000
 4963              		.globl	bufWriteBlock
 4965              	bufWriteBlock:
 4966              	.LFB67:
 4967              		.cfi_startproc
 4968 3df0 4156     		pushq	%r14
 4969              		.cfi_def_cfa_offset 16
 4970              		.cfi_offset 14, -16
 4971 3df2 4989D6   		movq	%rdx, %r14
 4972 3df5 4155     		pushq	%r13
 4973              		.cfi_def_cfa_offset 24
 4974              		.cfi_offset 13, -24
 4975 3df7 4989F5   		movq	%rsi, %r13
 4976 3dfa 4154     		pushq	%r12
 4977              		.cfi_def_cfa_offset 32
 4978              		.cfi_offset 12, -32
 4979 3dfc 4C8D240E 		leaq	(%rsi,%rcx), %r12
 4980 3e00 55       		pushq	%rbp
 4981              		.cfi_def_cfa_offset 40
 4982              		.cfi_offset 6, -40
 4983 3e01 53       		pushq	%rbx
 4984              		.cfi_def_cfa_offset 48
 4985              		.cfi_offset 3, -48
 4986 3e02 4889FB   		movq	%rdi, %rbx
 4987 3e05 4883EC10 		subq	$16, %rsp
 4988              		.cfi_def_cfa_offset 64
 4989 3e09 488B4708 		movq	8(%rdi), %rax
 4990 3e0d 4839C6   		cmpq	%rax, %rsi
 4991 3e10 732E     		jnb	.L751
 4992 3e12 4939C4   		cmpq	%rax, %r12
 4993 3e15 0F86DD05 		jbe	.L709
 4993      0000
 4994 3e1b 488B6F10 		movq	16(%rdi), %rbp
 4995 3e1f 4939EC   		cmpq	%rbp, %r12
 4996 3e22 0F87D003 		ja	.L713
 4996      0000
 4997              	.L721:
 4998 3e28 488B3B   		movq	(%rbx), %rdi
 4999              	.L711:
 5000 3e2b 4C896308 		movq	%r12, 8(%rbx)
 5001 3e2f 4C01EF   		addq	%r13, %rdi
 5002 3e32 E9B00100 		jmp	.L708
 5002      00
 5003 3e37 660F1F84 		.p2align 4,,10
 5003      00000000 
 5003      00
 5004              		.p2align 3
 5005              	.L751:
 5006 3e40 488B6F10 		movq	16(%rdi), %rbp
 5007 3e44 4939EC   		cmpq	%rbp, %r12
 5008 3e47 0F87BB01 		ja	.L687
 5008      0000
 5009 3e4d 4C8B07   		movq	(%rdi), %r8
 5010              	.L685:
 5011 3e50 4C01C0   		addq	%r8, %rax
 5012 3e53 4D01E8   		addq	%r13, %r8
 5013 3e56 4C39C0   		cmpq	%r8, %rax
 5014 3e59 0F83C905 		jnb	.L723
 5014      0000
 5015 3e5f 488D7318 		leaq	24(%rbx), %rsi
 5016 3e63 4C89C2   		movq	%r8, %rdx
 5017 3e66 488D7801 		leaq	1(%rax), %rdi
 5018 3e6a 4829C2   		subq	%rax, %rdx
 5019 3e6d 4939F0   		cmpq	%rsi, %r8
 5020 3e70 488D7319 		leaq	25(%rbx), %rsi
 5021 3e74 410F96C1 		setbe	%r9b
 5022 3e78 4839F0   		cmpq	%rsi, %rax
 5023 3e7b 400F93C6 		setnb	%sil
 5024 3e7f 4108F1   		orb	%sil, %r9b
 5025 3e82 0F845C03 		je	.L707
 5025      0000
 5026 3e88 4883FA0F 		cmpq	$15, %rdx
 5027 3e8c 0F865203 		jbe	.L707
 5027      0000
 5028 3e92 4889D7   		movq	%rdx, %rdi
 5029 3e95 31F6     		xorl	%esi, %esi
 5030 3e97 48C1EF04 		shrq	$4, %rdi
 5031 3e9b 4989F9   		movq	%rdi, %r9
 5032 3e9e 49C1E104 		salq	$4, %r9
 5033              	.L705:
 5034 3ea2 440FB65B 		movzbl	24(%rbx), %r11d
 5034      18
 5035 3ea7 4989F2   		movq	%rsi, %r10
 5036 3eaa 4883C601 		addq	$1, %rsi
 5037 3eae 49C1E204 		salq	$4, %r10
 5038 3eb2 4839F7   		cmpq	%rsi, %rdi
 5039 3eb5 44881C24 		movb	%r11b, (%rsp)
 5040 3eb9 660F6E04 		movd	(%rsp), %xmm0
 5040      24
 5041 3ebe 660F60C0 		punpcklbw	%xmm0, %xmm0
 5042 3ec2 660F61C0 		punpcklwd	%xmm0, %xmm0
 5043 3ec6 660F70C0 		pshufd	$0, %xmm0, %xmm0
 5043      00
 5044 3ecb F3420F7F 		movdqu	%xmm0, (%rax,%r10)
 5044      0410
 5045 3ed1 77CF     		ja	.L705
 5046 3ed3 4C01C8   		addq	%r9, %rax
 5047 3ed6 4C39CA   		cmpq	%r9, %rdx
 5048 3ed9 0F84FE00 		je	.L706
 5048      0000
 5049 3edf 0FB65318 		movzbl	24(%rbx), %edx
 5050 3ee3 8810     		movb	%dl, (%rax)
 5051 3ee5 488D5001 		leaq	1(%rax), %rdx
 5052 3ee9 4939D0   		cmpq	%rdx, %r8
 5053 3eec 0F86EB00 		jbe	.L706
 5053      0000
 5054 3ef2 0FB65318 		movzbl	24(%rbx), %edx
 5055 3ef6 885001   		movb	%dl, 1(%rax)
 5056 3ef9 488D5002 		leaq	2(%rax), %rdx
 5057 3efd 4939D0   		cmpq	%rdx, %r8
 5058 3f00 0F86D700 		jbe	.L706
 5058      0000
 5059 3f06 0FB65318 		movzbl	24(%rbx), %edx
 5060 3f0a 885002   		movb	%dl, 2(%rax)
 5061 3f0d 488D5003 		leaq	3(%rax), %rdx
 5062 3f11 4939D0   		cmpq	%rdx, %r8
 5063 3f14 0F86C300 		jbe	.L706
 5063      0000
 5064 3f1a 0FB65318 		movzbl	24(%rbx), %edx
 5065 3f1e 885003   		movb	%dl, 3(%rax)
 5066 3f21 488D5004 		leaq	4(%rax), %rdx
 5067 3f25 4939D0   		cmpq	%rdx, %r8
 5068 3f28 0F86AF00 		jbe	.L706
 5068      0000
 5069 3f2e 0FB65318 		movzbl	24(%rbx), %edx
 5070 3f32 885004   		movb	%dl, 4(%rax)
 5071 3f35 488D5005 		leaq	5(%rax), %rdx
 5072 3f39 4939D0   		cmpq	%rdx, %r8
 5073 3f3c 0F869B00 		jbe	.L706
 5073      0000
 5074 3f42 0FB65318 		movzbl	24(%rbx), %edx
 5075 3f46 885005   		movb	%dl, 5(%rax)
 5076 3f49 488D5006 		leaq	6(%rax), %rdx
 5077 3f4d 4939D0   		cmpq	%rdx, %r8
 5078 3f50 0F868700 		jbe	.L706
 5078      0000
 5079 3f56 0FB65318 		movzbl	24(%rbx), %edx
 5080 3f5a 885006   		movb	%dl, 6(%rax)
 5081 3f5d 488D5007 		leaq	7(%rax), %rdx
 5082 3f61 4939D0   		cmpq	%rdx, %r8
 5083 3f64 7677     		jbe	.L706
 5084 3f66 0FB65318 		movzbl	24(%rbx), %edx
 5085 3f6a 885007   		movb	%dl, 7(%rax)
 5086 3f6d 488D5008 		leaq	8(%rax), %rdx
 5087 3f71 4939D0   		cmpq	%rdx, %r8
 5088 3f74 7667     		jbe	.L706
 5089 3f76 0FB65318 		movzbl	24(%rbx), %edx
 5090 3f7a 885008   		movb	%dl, 8(%rax)
 5091 3f7d 488D5009 		leaq	9(%rax), %rdx
 5092 3f81 4939D0   		cmpq	%rdx, %r8
 5093 3f84 7657     		jbe	.L706
 5094 3f86 0FB65318 		movzbl	24(%rbx), %edx
 5095 3f8a 885009   		movb	%dl, 9(%rax)
 5096 3f8d 488D500A 		leaq	10(%rax), %rdx
 5097 3f91 4939D0   		cmpq	%rdx, %r8
 5098 3f94 7647     		jbe	.L706
 5099 3f96 0FB65318 		movzbl	24(%rbx), %edx
 5100 3f9a 88500A   		movb	%dl, 10(%rax)
 5101 3f9d 488D500B 		leaq	11(%rax), %rdx
 5102 3fa1 4939D0   		cmpq	%rdx, %r8
 5103 3fa4 7637     		jbe	.L706
 5104 3fa6 0FB65318 		movzbl	24(%rbx), %edx
 5105 3faa 88500B   		movb	%dl, 11(%rax)
 5106 3fad 488D500C 		leaq	12(%rax), %rdx
 5107 3fb1 4939D0   		cmpq	%rdx, %r8
 5108 3fb4 7627     		jbe	.L706
 5109 3fb6 0FB65318 		movzbl	24(%rbx), %edx
 5110 3fba 88500C   		movb	%dl, 12(%rax)
 5111 3fbd 488D500D 		leaq	13(%rax), %rdx
 5112 3fc1 4939D0   		cmpq	%rdx, %r8
 5113 3fc4 7617     		jbe	.L706
 5114 3fc6 0FB65318 		movzbl	24(%rbx), %edx
 5115 3fca 88500D   		movb	%dl, 13(%rax)
 5116 3fcd 488D500E 		leaq	14(%rax), %rdx
 5117 3fd1 4939D0   		cmpq	%rdx, %r8
 5118 3fd4 7607     		jbe	.L706
 5119 3fd6 0FB65318 		movzbl	24(%rbx), %edx
 5120 3fda 88500E   		movb	%dl, 14(%rax)
 5121              	.L706:
 5122 3fdd 4C89EF   		movq	%r13, %rdi
 5123 3fe0 48033B   		addq	(%rbx), %rdi
 5124              	.L699:
 5125 3fe3 4C896308 		movq	%r12, 8(%rbx)
 5126              	.L708:
 5127 3fe7 4889CA   		movq	%rcx, %rdx
 5128 3fea 4C89F6   		movq	%r14, %rsi
 5129 3fed E8000000 		call	memcpy@PLT
 5129      00
 5130 3ff2 31C0     		xorl	%eax, %eax
 5131              	.L689:
 5132              	.L746:
 5133 3ff4 4883C410 		addq	$16, %rsp
 5134              		.cfi_remember_state
 5135              		.cfi_def_cfa_offset 48
 5136 3ff8 5B       		popq	%rbx
 5137              		.cfi_def_cfa_offset 40
 5138 3ff9 5D       		popq	%rbp
 5139              		.cfi_def_cfa_offset 32
 5140 3ffa 415C     		popq	%r12
 5141              		.cfi_def_cfa_offset 24
 5142 3ffc 415D     		popq	%r13
 5143              		.cfi_def_cfa_offset 16
 5144 3ffe 415E     		popq	%r14
 5145              		.cfi_def_cfa_offset 8
 5146 4000 C3       		ret
 5147              		.p2align 4,,10
 5148 4001 0F1F8000 		.p2align 3
 5148      000000
 5149              	.L687:
 5150              		.cfi_restore_state
 5151 4008 4801ED   		addq	%rbp, %rbp
 5152 400b 4939EC   		cmpq	%rbp, %r12
 5153 400e 77F8     		ja	.L687
 5154 4010 488B3B   		movq	(%rbx), %rdi
 5155 4013 4889EE   		movq	%rbp, %rsi
 5156 4016 4C894424 		movq	%r8, 8(%rsp)
 5156      08
 5157 401b 48890C24 		movq	%rcx, (%rsp)
 5158 401f E8000000 		call	realloc@PLT
 5158      00
 5159 4024 4885C0   		testq	%rax, %rax
 5160 4027 4889C2   		movq	%rax, %rdx
 5161 402a 488B0C24 		movq	(%rsp), %rcx
 5162 402e 4C8B4424 		movq	8(%rsp), %r8
 5162      08
 5163 4033 0F840304 		je	.L714
 5163      0000
 5164 4039 4A8D3420 		leaq	(%rax,%r12), %rsi
 5165 403d 48896B10 		movq	%rbp, 16(%rbx)
 5166 4041 4801C5   		addq	%rax, %rbp
 5167 4044 488903   		movq	%rax, (%rbx)
 5168 4047 4839EE   		cmpq	%rbp, %rsi
 5169 404a 0F83E003 		jnb	.L752
 5169      0000
 5170 4050 488D4318 		leaq	24(%rbx), %rax
 5171 4054 4889EF   		movq	%rbp, %rdi
 5172 4057 488D5601 		leaq	1(%rsi), %rdx
 5173 405b 4829F7   		subq	%rsi, %rdi
 5174 405e 4839C5   		cmpq	%rax, %rbp
 5175 4061 488D4319 		leaq	25(%rbx), %rax
 5176 4065 410F96C0 		setbe	%r8b
 5177 4069 4839C6   		cmpq	%rax, %rsi
 5178 406c 0F93C0   		setnb	%al
 5179 406f 4108C0   		orb	%al, %r8b
 5180 4072 0F846C03 		je	.L698
 5180      0000
 5181 4078 4883FF0F 		cmpq	$15, %rdi
 5182 407c 0F866203 		jbe	.L698
 5182      0000
 5183 4082 4889FA   		movq	%rdi, %rdx
 5184 4085 31C0     		xorl	%eax, %eax
 5185 4087 48C1EA04 		shrq	$4, %rdx
 5186 408b 4989D0   		movq	%rdx, %r8
 5187 408e 49C1E004 		salq	$4, %r8
 5188              	.L696:
 5189 4092 440FB65B 		movzbl	24(%rbx), %r11d
 5189      18
 5190 4097 4989C1   		movq	%rax, %r9
 5191 409a 4883C001 		addq	$1, %rax
 5192 409e 49C1E104 		salq	$4, %r9
 5193 40a2 4839C2   		cmpq	%rax, %rdx
 5194 40a5 44881C24 		movb	%r11b, (%rsp)
 5195 40a9 660F6E04 		movd	(%rsp), %xmm0
 5195      24
 5196 40ae 660F60C0 		punpcklbw	%xmm0, %xmm0
 5197 40b2 660F61C0 		punpcklwd	%xmm0, %xmm0
 5198 40b6 660F70C0 		pshufd	$0, %xmm0, %xmm0
 5198      00
 5199 40bb F3420F7F 		movdqu	%xmm0, (%rsi,%r9)
 5199      040E
 5200 40c1 77CF     		ja	.L696
 5201 40c3 4C39C7   		cmpq	%r8, %rdi
 5202 40c6 4A8D0406 		leaq	(%rsi,%r8), %rax
 5203 40ca 0F84FE00 		je	.L697
 5203      0000
 5204 40d0 0FB65318 		movzbl	24(%rbx), %edx
 5205 40d4 8810     		movb	%dl, (%rax)
 5206 40d6 488D5001 		leaq	1(%rax), %rdx
 5207 40da 4839D5   		cmpq	%rdx, %rbp
 5208 40dd 0F86EB00 		jbe	.L697
 5208      0000
 5209 40e3 0FB65318 		movzbl	24(%rbx), %edx
 5210 40e7 885001   		movb	%dl, 1(%rax)
 5211 40ea 488D5002 		leaq	2(%rax), %rdx
 5212 40ee 4839D5   		cmpq	%rdx, %rbp
 5213 40f1 0F86D700 		jbe	.L697
 5213      0000
 5214 40f7 0FB65318 		movzbl	24(%rbx), %edx
 5215 40fb 885002   		movb	%dl, 2(%rax)
 5216 40fe 488D5003 		leaq	3(%rax), %rdx
 5217 4102 4839D5   		cmpq	%rdx, %rbp
 5218 4105 0F86C300 		jbe	.L697
 5218      0000
 5219 410b 0FB65318 		movzbl	24(%rbx), %edx
 5220 410f 885003   		movb	%dl, 3(%rax)
 5221 4112 488D5004 		leaq	4(%rax), %rdx
 5222 4116 4839D5   		cmpq	%rdx, %rbp
 5223 4119 0F86AF00 		jbe	.L697
 5223      0000
 5224 411f 0FB65318 		movzbl	24(%rbx), %edx
 5225 4123 885004   		movb	%dl, 4(%rax)
 5226 4126 488D5005 		leaq	5(%rax), %rdx
 5227 412a 4839D5   		cmpq	%rdx, %rbp
 5228 412d 0F869B00 		jbe	.L697
 5228      0000
 5229 4133 0FB65318 		movzbl	24(%rbx), %edx
 5230 4137 885005   		movb	%dl, 5(%rax)
 5231 413a 488D5006 		leaq	6(%rax), %rdx
 5232 413e 4839D5   		cmpq	%rdx, %rbp
 5233 4141 0F868700 		jbe	.L697
 5233      0000
 5234 4147 0FB65318 		movzbl	24(%rbx), %edx
 5235 414b 885006   		movb	%dl, 6(%rax)
 5236 414e 488D5007 		leaq	7(%rax), %rdx
 5237 4152 4839D5   		cmpq	%rdx, %rbp
 5238 4155 7677     		jbe	.L697
 5239 4157 0FB65318 		movzbl	24(%rbx), %edx
 5240 415b 885007   		movb	%dl, 7(%rax)
 5241 415e 488D5008 		leaq	8(%rax), %rdx
 5242 4162 4839D5   		cmpq	%rdx, %rbp
 5243 4165 7667     		jbe	.L697
 5244 4167 0FB65318 		movzbl	24(%rbx), %edx
 5245 416b 885008   		movb	%dl, 8(%rax)
 5246 416e 488D5009 		leaq	9(%rax), %rdx
 5247 4172 4839D5   		cmpq	%rdx, %rbp
 5248 4175 7657     		jbe	.L697
 5249 4177 0FB65318 		movzbl	24(%rbx), %edx
 5250 417b 885009   		movb	%dl, 9(%rax)
 5251 417e 488D500A 		leaq	10(%rax), %rdx
 5252 4182 4839D5   		cmpq	%rdx, %rbp
 5253 4185 7647     		jbe	.L697
 5254 4187 0FB65318 		movzbl	24(%rbx), %edx
 5255 418b 88500A   		movb	%dl, 10(%rax)
 5256 418e 488D500B 		leaq	11(%rax), %rdx
 5257 4192 4839D5   		cmpq	%rdx, %rbp
 5258 4195 7637     		jbe	.L697
 5259 4197 0FB65318 		movzbl	24(%rbx), %edx
 5260 419b 88500B   		movb	%dl, 11(%rax)
 5261 419e 488D500C 		leaq	12(%rax), %rdx
 5262 41a2 4839D5   		cmpq	%rdx, %rbp
 5263 41a5 7627     		jbe	.L697
 5264 41a7 0FB65318 		movzbl	24(%rbx), %edx
 5265 41ab 88500C   		movb	%dl, 12(%rax)
 5266 41ae 488D500D 		leaq	13(%rax), %rdx
 5267 41b2 4839D5   		cmpq	%rdx, %rbp
 5268 41b5 7617     		jbe	.L697
 5269 41b7 0FB65318 		movzbl	24(%rbx), %edx
 5270 41bb 88500D   		movb	%dl, 13(%rax)
 5271 41be 488D500E 		leaq	14(%rax), %rdx
 5272 41c2 4839D5   		cmpq	%rdx, %rbp
 5273 41c5 7607     		jbe	.L697
 5274 41c7 0FB65318 		movzbl	24(%rbx), %edx
 5275 41cb 88500E   		movb	%dl, 14(%rax)
 5276              	.L697:
 5277 41ce 4C8B03   		movq	(%rbx), %r8
 5278 41d1 488B4308 		movq	8(%rbx), %rax
 5279 41d5 E976FCFF 		jmp	.L685
 5279      FF
 5280 41da 660F1F44 		.p2align 4,,10
 5280      0000
 5281              		.p2align 3
 5282              	.L753:
 5283 41e0 4883C701 		addq	$1, %rdi
 5284              	.L707:
 5285 41e4 0FB64318 		movzbl	24(%rbx), %eax
 5286 41e8 4C39C7   		cmpq	%r8, %rdi
 5287 41eb 8847FF   		movb	%al, -1(%rdi)
 5288 41ee 75F0     		jne	.L753
 5289 41f0 E9E8FDFF 		jmp	.L706
 5289      FF
 5290              		.p2align 4,,10
 5291 41f5 0F1F00   		.p2align 3
 5292              	.L713:
 5293 41f8 4801ED   		addq	%rbp, %rbp
 5294 41fb 4939EC   		cmpq	%rbp, %r12
 5295 41fe 77F8     		ja	.L713
 5296 4200 488B3B   		movq	(%rbx), %rdi
 5297 4203 4889EE   		movq	%rbp, %rsi
 5298 4206 4C890424 		movq	%r8, (%rsp)
 5299 420a 48894C24 		movq	%rcx, 8(%rsp)
 5299      08
 5300 420f E8000000 		call	realloc@PLT
 5300      00
 5301 4214 4885C0   		testq	%rax, %rax
 5302 4217 4C8B0424 		movq	(%rsp), %r8
 5303 421b 0F841B02 		je	.L714
 5303      0000
 5304 4221 4A8D3420 		leaq	(%rax,%r12), %rsi
 5305 4225 48896B10 		movq	%rbp, 16(%rbx)
 5306 4229 4801C5   		addq	%rax, %rbp
 5307 422c 488903   		movq	%rax, (%rbx)
 5308 422f 488B4C24 		movq	8(%rsp), %rcx
 5308      08
 5309 4234 4839EE   		cmpq	%rbp, %rsi
 5310 4237 0F83E001 		jnb	.L724
 5310      0000
 5311 423d 488D4318 		leaq	24(%rbx), %rax
 5312 4241 4889EF   		movq	%rbp, %rdi
 5313 4244 488D5601 		leaq	1(%rsi), %rdx
 5314 4248 4829F7   		subq	%rsi, %rdi
 5315 424b 4839C5   		cmpq	%rax, %rbp
 5316 424e 488D4319 		leaq	25(%rbx), %rax
 5317 4252 410F96C0 		setbe	%r8b
 5318 4256 4839C6   		cmpq	%rax, %rsi
 5319 4259 0F93C0   		setnb	%al
 5320 425c 4108C0   		orb	%al, %r8b
 5321 425f 0F84A701 		je	.L722
 5321      0000
 5322 4265 4883FF0F 		cmpq	$15, %rdi
 5323 4269 0F869D01 		jbe	.L722
 5323      0000
 5324 426f 4889FA   		movq	%rdi, %rdx
 5325 4272 31C0     		xorl	%eax, %eax
 5326 4274 48C1EA04 		shrq	$4, %rdx
 5327 4278 4989D0   		movq	%rdx, %r8
 5328 427b 49C1E004 		salq	$4, %r8
 5329              	.L720:
 5330 427f 440FB65B 		movzbl	24(%rbx), %r11d
 5330      18
 5331 4284 4989C1   		movq	%rax, %r9
 5332 4287 4883C001 		addq	$1, %rax
 5333 428b 49C1E104 		salq	$4, %r9
 5334 428f 4839C2   		cmpq	%rax, %rdx
 5335 4292 44881C24 		movb	%r11b, (%rsp)
 5336 4296 660F6E04 		movd	(%rsp), %xmm0
 5336      24
 5337 429b 660F60C0 		punpcklbw	%xmm0, %xmm0
 5338 429f 660F61C0 		punpcklwd	%xmm0, %xmm0
 5339 42a3 660F70C0 		pshufd	$0, %xmm0, %xmm0
 5339      00
 5340 42a8 F3420F7F 		movdqu	%xmm0, (%rsi,%r9)
 5340      040E
 5341 42ae 77CF     		ja	.L720
 5342 42b0 4C39C7   		cmpq	%r8, %rdi
 5343 42b3 4A8D0406 		leaq	(%rsi,%r8), %rax
 5344 42b7 0F846BFB 		je	.L721
 5344      FFFF
 5345 42bd 0FB65318 		movzbl	24(%rbx), %edx
 5346 42c1 8810     		movb	%dl, (%rax)
 5347 42c3 488D5001 		leaq	1(%rax), %rdx
 5348 42c7 4839D5   		cmpq	%rdx, %rbp
 5349 42ca 0F8658FB 		jbe	.L721
 5349      FFFF
 5350 42d0 0FB65318 		movzbl	24(%rbx), %edx
 5351 42d4 885001   		movb	%dl, 1(%rax)
 5352 42d7 488D5002 		leaq	2(%rax), %rdx
 5353 42db 4839D5   		cmpq	%rdx, %rbp
 5354 42de 0F8644FB 		jbe	.L721
 5354      FFFF
 5355 42e4 0FB65318 		movzbl	24(%rbx), %edx
 5356 42e8 885002   		movb	%dl, 2(%rax)
 5357 42eb 488D5003 		leaq	3(%rax), %rdx
 5358 42ef 4839D5   		cmpq	%rdx, %rbp
 5359 42f2 0F8630FB 		jbe	.L721
 5359      FFFF
 5360 42f8 0FB65318 		movzbl	24(%rbx), %edx
 5361 42fc 885003   		movb	%dl, 3(%rax)
 5362 42ff 488D5004 		leaq	4(%rax), %rdx
 5363 4303 4839D5   		cmpq	%rdx, %rbp
 5364 4306 0F861CFB 		jbe	.L721
 5364      FFFF
 5365 430c 0FB65318 		movzbl	24(%rbx), %edx
 5366 4310 885004   		movb	%dl, 4(%rax)
 5367 4313 488D5005 		leaq	5(%rax), %rdx
 5368 4317 4839D5   		cmpq	%rdx, %rbp
 5369 431a 0F8608FB 		jbe	.L721
 5369      FFFF
 5370 4320 0FB65318 		movzbl	24(%rbx), %edx
 5371 4324 885005   		movb	%dl, 5(%rax)
 5372 4327 488D5006 		leaq	6(%rax), %rdx
 5373 432b 4839D5   		cmpq	%rdx, %rbp
 5374 432e 0F86F4FA 		jbe	.L721
 5374      FFFF
 5375 4334 0FB65318 		movzbl	24(%rbx), %edx
 5376 4338 885006   		movb	%dl, 6(%rax)
 5377 433b 488D5007 		leaq	7(%rax), %rdx
 5378 433f 4839D5   		cmpq	%rdx, %rbp
 5379 4342 0F86E0FA 		jbe	.L721
 5379      FFFF
 5380 4348 0FB65318 		movzbl	24(%rbx), %edx
 5381 434c 885007   		movb	%dl, 7(%rax)
 5382 434f 488D5008 		leaq	8(%rax), %rdx
 5383 4353 4839D5   		cmpq	%rdx, %rbp
 5384 4356 0F86CCFA 		jbe	.L721
 5384      FFFF
 5385 435c 0FB65318 		movzbl	24(%rbx), %edx
 5386 4360 885008   		movb	%dl, 8(%rax)
 5387 4363 488D5009 		leaq	9(%rax), %rdx
 5388 4367 4839D5   		cmpq	%rdx, %rbp
 5389 436a 0F86B8FA 		jbe	.L721
 5389      FFFF
 5390 4370 0FB65318 		movzbl	24(%rbx), %edx
 5391 4374 885009   		movb	%dl, 9(%rax)
 5392 4377 488D500A 		leaq	10(%rax), %rdx
 5393 437b 4839D5   		cmpq	%rdx, %rbp
 5394 437e 0F86A4FA 		jbe	.L721
 5394      FFFF
 5395 4384 0FB65318 		movzbl	24(%rbx), %edx
 5396 4388 88500A   		movb	%dl, 10(%rax)
 5397 438b 488D500B 		leaq	11(%rax), %rdx
 5398 438f 4839D5   		cmpq	%rdx, %rbp
 5399 4392 0F8690FA 		jbe	.L721
 5399      FFFF
 5400 4398 0FB65318 		movzbl	24(%rbx), %edx
 5401 439c 88500B   		movb	%dl, 11(%rax)
 5402 439f 488D500C 		leaq	12(%rax), %rdx
 5403 43a3 4839D5   		cmpq	%rdx, %rbp
 5404 43a6 0F867CFA 		jbe	.L721
 5404      FFFF
 5405 43ac 0FB65318 		movzbl	24(%rbx), %edx
 5406 43b0 88500C   		movb	%dl, 12(%rax)
 5407 43b3 488D500D 		leaq	13(%rax), %rdx
 5408 43b7 4839D5   		cmpq	%rdx, %rbp
 5409 43ba 0F8668FA 		jbe	.L721
 5409      FFFF
 5410 43c0 0FB65318 		movzbl	24(%rbx), %edx
 5411 43c4 88500D   		movb	%dl, 13(%rax)
 5412 43c7 488D500E 		leaq	14(%rax), %rdx
 5413 43cb 4839D5   		cmpq	%rdx, %rbp
 5414 43ce 0F8654FA 		jbe	.L721
 5414      FFFF
 5415 43d4 0FB65318 		movzbl	24(%rbx), %edx
 5416 43d8 88500E   		movb	%dl, 14(%rax)
 5417 43db E948FAFF 		jmp	.L721
 5417      FF
 5418              		.p2align 4,,10
 5419              		.p2align 3
 5420              	.L754:
 5421 43e0 4883C201 		addq	$1, %rdx
 5422              	.L698:
 5423 43e4 0FB64318 		movzbl	24(%rbx), %eax
 5424 43e8 4839EA   		cmpq	%rbp, %rdx
 5425 43eb 8842FF   		movb	%al, -1(%rdx)
 5426 43ee 75F0     		jne	.L754
 5427 43f0 E9D9FDFF 		jmp	.L697
 5427      FF
 5428              		.p2align 4,,10
 5429 43f5 0F1F00   		.p2align 3
 5430              	.L709:
 5431 43f8 4889F7   		movq	%rsi, %rdi
 5432 43fb 48033B   		addq	(%rbx), %rdi
 5433 43fe E9E4FBFF 		jmp	.L708
 5433      FF
 5434              		.p2align 4,,10
 5435 4403 0F1F4400 		.p2align 3
 5435      00
 5436              	.L755:
 5437 4408 4883C201 		addq	$1, %rdx
 5438              	.L722:
 5439 440c 0FB64318 		movzbl	24(%rbx), %eax
 5440 4410 4839EA   		cmpq	%rbp, %rdx
 5441 4413 8842FF   		movb	%al, -1(%rdx)
 5442 4416 75F0     		jne	.L755
 5443 4418 E90BFAFF 		jmp	.L721
 5443      FF
 5444              	.L724:
 5445 441d 4889C7   		movq	%rax, %rdi
 5446 4420 E906FAFF 		jmp	.L711
 5446      FF
 5447              		.p2align 4,,10
 5448 4425 0F1F00   		.p2align 3
 5449              	.L723:
 5450 4428 4C89C7   		movq	%r8, %rdi
 5451 442b E9B3FBFF 		jmp	.L699
 5451      FF
 5452              	.L752:
 5453 4430 488B4308 		movq	8(%rbx), %rax
 5454 4434 4989D0   		movq	%rdx, %r8
 5455 4437 E914FAFF 		jmp	.L685
 5455      FF
 5456              	.L714:
 5457 443c 488D3500 		leaq	.LC2(%rip), %rsi
 5457      000000
 5458 4443 4C89C7   		movq	%r8, %rdi
 5459 4446 4C890424 		movq	%r8, (%rsp)
 5460 444a E8000000 		call	errPrefix@PLT
 5460      00
 5461 444f 4C8B0424 		movq	(%rsp), %r8
 5462 4453 488D3500 		leaq	.LC10(%rip), %rsi
 5462      000000
 5463 445a 4C89C7   		movq	%r8, %rdi
 5464 445d E8000000 		call	errPrefix@PLT
 5464      00
 5465 4462 4C8B0424 		movq	(%rsp), %r8
 5466 4466 488D3500 		leaq	.LC16(%rip), %rsi
 5466      000000
 5467 446d 4C89C7   		movq	%r8, %rdi
 5468 4470 E8000000 		call	errPrefix@PLT
 5468      00
 5469 4475 B8010000 		movl	$1, %eax
 5469      00
 5470 447a E975FBFF 		jmp	.L746
 5470      FF
 5471              		.cfi_endproc
 5472              	.LFE67:
 5474              		.ident	"GCC: (Ubuntu 4.8.4-2ubuntu1~14.04.3) 4.8.4"
 5475              		.section	.note.GNU-stack,"",@progbits