   1              		.file	"testBinIO.cpp"
   2              		.text
   3              	.Ltext0:
   4              		.section	.text._ZStorSt13_Ios_OpenmodeS_,"axG",@progbits,_ZStorSt13_Ios_OpenmodeS_,comdat
   5              		.weak	_ZStorSt13_Ios_OpenmodeS_
   7              	_ZStorSt13_Ios_OpenmodeS_:
   8              	.LFB595:
   9              		.file 1 "/usr/include/c++/4.8/bits/ios_base.h"
   1:/usr/include/c++/4.8/bits/ios_base.h **** // Iostreams base classes -*- C++ -*-
   2:/usr/include/c++/4.8/bits/ios_base.h **** 
   3:/usr/include/c++/4.8/bits/ios_base.h **** // Copyright (C) 1997-2013 Free Software Foundation, Inc.
   4:/usr/include/c++/4.8/bits/ios_base.h **** //
   5:/usr/include/c++/4.8/bits/ios_base.h **** // This file is part of the GNU ISO C++ Library.  This library is free
   6:/usr/include/c++/4.8/bits/ios_base.h **** // software; you can redistribute it and/or modify it under the
   7:/usr/include/c++/4.8/bits/ios_base.h **** // terms of the GNU General Public License as published by the
   8:/usr/include/c++/4.8/bits/ios_base.h **** // Free Software Foundation; either version 3, or (at your option)
   9:/usr/include/c++/4.8/bits/ios_base.h **** // any later version.
  10:/usr/include/c++/4.8/bits/ios_base.h **** 
  11:/usr/include/c++/4.8/bits/ios_base.h **** // This library is distributed in the hope that it will be useful,
  12:/usr/include/c++/4.8/bits/ios_base.h **** // but WITHOUT ANY WARRANTY; without even the implied warranty of
  13:/usr/include/c++/4.8/bits/ios_base.h **** // MERCHANTABILITY or FITNESS FOR A PARTICULAR PURPOSE.  See the
  14:/usr/include/c++/4.8/bits/ios_base.h **** // GNU General Public License for more details.
  15:/usr/include/c++/4.8/bits/ios_base.h **** 
  16:/usr/include/c++/4.8/bits/ios_base.h **** // Under Section 7 of GPL version 3, you are granted additional
  17:/usr/include/c++/4.8/bits/ios_base.h **** // permissions described in the GCC Runtime Library Exception, version
  18:/usr/include/c++/4.8/bits/ios_base.h **** // 3.1, as published by the Free Software Foundation.
  19:/usr/include/c++/4.8/bits/ios_base.h **** 
  20:/usr/include/c++/4.8/bits/ios_base.h **** // You should have received a copy of the GNU General Public License and
  21:/usr/include/c++/4.8/bits/ios_base.h **** // a copy of the GCC Runtime Library Exception along with this program;
  22:/usr/include/c++/4.8/bits/ios_base.h **** // see the files COPYING3 and COPYING.RUNTIME respectively.  If not, see
  23:/usr/include/c++/4.8/bits/ios_base.h **** // <http://www.gnu.org/licenses/>.
  24:/usr/include/c++/4.8/bits/ios_base.h **** 
  25:/usr/include/c++/4.8/bits/ios_base.h **** /** @file bits/ios_base.h
  26:/usr/include/c++/4.8/bits/ios_base.h ****  *  This is an internal header file, included by other library headers.
  27:/usr/include/c++/4.8/bits/ios_base.h ****  *  Do not attempt to use it directly. @headername{ios}
  28:/usr/include/c++/4.8/bits/ios_base.h ****  */
  29:/usr/include/c++/4.8/bits/ios_base.h **** 
  30:/usr/include/c++/4.8/bits/ios_base.h **** //
  31:/usr/include/c++/4.8/bits/ios_base.h **** // ISO C++ 14882: 27.4  Iostreams base classes
  32:/usr/include/c++/4.8/bits/ios_base.h **** //
  33:/usr/include/c++/4.8/bits/ios_base.h **** 
  34:/usr/include/c++/4.8/bits/ios_base.h **** #ifndef _IOS_BASE_H
  35:/usr/include/c++/4.8/bits/ios_base.h **** #define _IOS_BASE_H 1
  36:/usr/include/c++/4.8/bits/ios_base.h **** 
  37:/usr/include/c++/4.8/bits/ios_base.h **** #pragma GCC system_header
  38:/usr/include/c++/4.8/bits/ios_base.h **** 
  39:/usr/include/c++/4.8/bits/ios_base.h **** #include <ext/atomicity.h>
  40:/usr/include/c++/4.8/bits/ios_base.h **** #include <bits/localefwd.h>
  41:/usr/include/c++/4.8/bits/ios_base.h **** #include <bits/locale_classes.h>
  42:/usr/include/c++/4.8/bits/ios_base.h **** 
  43:/usr/include/c++/4.8/bits/ios_base.h **** namespace std _GLIBCXX_VISIBILITY(default)
  44:/usr/include/c++/4.8/bits/ios_base.h **** {
  45:/usr/include/c++/4.8/bits/ios_base.h **** _GLIBCXX_BEGIN_NAMESPACE_VERSION
  46:/usr/include/c++/4.8/bits/ios_base.h **** 
  47:/usr/include/c++/4.8/bits/ios_base.h ****   // The following definitions of bitmask types are enums, not ints,
  48:/usr/include/c++/4.8/bits/ios_base.h ****   // as permitted (but not required) in the standard, in order to provide
  49:/usr/include/c++/4.8/bits/ios_base.h ****   // better type safety in iostream calls.  A side effect is that
  50:/usr/include/c++/4.8/bits/ios_base.h ****   // expressions involving them are no longer compile-time constants.
  51:/usr/include/c++/4.8/bits/ios_base.h ****   enum _Ios_Fmtflags 
  52:/usr/include/c++/4.8/bits/ios_base.h ****     { 
  53:/usr/include/c++/4.8/bits/ios_base.h ****       _S_boolalpha 	= 1L << 0,
  54:/usr/include/c++/4.8/bits/ios_base.h ****       _S_dec 		= 1L << 1,
  55:/usr/include/c++/4.8/bits/ios_base.h ****       _S_fixed 		= 1L << 2,
  56:/usr/include/c++/4.8/bits/ios_base.h ****       _S_hex 		= 1L << 3,
  57:/usr/include/c++/4.8/bits/ios_base.h ****       _S_internal 	= 1L << 4,
  58:/usr/include/c++/4.8/bits/ios_base.h ****       _S_left 		= 1L << 5,
  59:/usr/include/c++/4.8/bits/ios_base.h ****       _S_oct 		= 1L << 6,
  60:/usr/include/c++/4.8/bits/ios_base.h ****       _S_right 		= 1L << 7,
  61:/usr/include/c++/4.8/bits/ios_base.h ****       _S_scientific 	= 1L << 8,
  62:/usr/include/c++/4.8/bits/ios_base.h ****       _S_showbase 	= 1L << 9,
  63:/usr/include/c++/4.8/bits/ios_base.h ****       _S_showpoint 	= 1L << 10,
  64:/usr/include/c++/4.8/bits/ios_base.h ****       _S_showpos 	= 1L << 11,
  65:/usr/include/c++/4.8/bits/ios_base.h ****       _S_skipws 	= 1L << 12,
  66:/usr/include/c++/4.8/bits/ios_base.h ****       _S_unitbuf 	= 1L << 13,
  67:/usr/include/c++/4.8/bits/ios_base.h ****       _S_uppercase 	= 1L << 14,
  68:/usr/include/c++/4.8/bits/ios_base.h ****       _S_adjustfield 	= _S_left | _S_right | _S_internal,
  69:/usr/include/c++/4.8/bits/ios_base.h ****       _S_basefield 	= _S_dec | _S_oct | _S_hex,
  70:/usr/include/c++/4.8/bits/ios_base.h ****       _S_floatfield 	= _S_scientific | _S_fixed,
  71:/usr/include/c++/4.8/bits/ios_base.h ****       _S_ios_fmtflags_end = 1L << 16,
  72:/usr/include/c++/4.8/bits/ios_base.h ****       _S_ios_fmtflags_max = __INT_MAX__,
  73:/usr/include/c++/4.8/bits/ios_base.h ****       _S_ios_fmtflags_min = ~__INT_MAX__
  74:/usr/include/c++/4.8/bits/ios_base.h ****     };
  75:/usr/include/c++/4.8/bits/ios_base.h **** 
  76:/usr/include/c++/4.8/bits/ios_base.h ****   inline _GLIBCXX_CONSTEXPR _Ios_Fmtflags
  77:/usr/include/c++/4.8/bits/ios_base.h ****   operator&(_Ios_Fmtflags __a, _Ios_Fmtflags __b)
  78:/usr/include/c++/4.8/bits/ios_base.h ****   { return _Ios_Fmtflags(static_cast<int>(__a) & static_cast<int>(__b)); }
  79:/usr/include/c++/4.8/bits/ios_base.h **** 
  80:/usr/include/c++/4.8/bits/ios_base.h ****   inline _GLIBCXX_CONSTEXPR _Ios_Fmtflags
  81:/usr/include/c++/4.8/bits/ios_base.h ****   operator|(_Ios_Fmtflags __a, _Ios_Fmtflags __b)
  82:/usr/include/c++/4.8/bits/ios_base.h ****   { return _Ios_Fmtflags(static_cast<int>(__a) | static_cast<int>(__b)); }
  83:/usr/include/c++/4.8/bits/ios_base.h **** 
  84:/usr/include/c++/4.8/bits/ios_base.h ****   inline _GLIBCXX_CONSTEXPR _Ios_Fmtflags
  85:/usr/include/c++/4.8/bits/ios_base.h ****   operator^(_Ios_Fmtflags __a, _Ios_Fmtflags __b)
  86:/usr/include/c++/4.8/bits/ios_base.h ****   { return _Ios_Fmtflags(static_cast<int>(__a) ^ static_cast<int>(__b)); }
  87:/usr/include/c++/4.8/bits/ios_base.h **** 
  88:/usr/include/c++/4.8/bits/ios_base.h ****   inline _GLIBCXX_CONSTEXPR _Ios_Fmtflags
  89:/usr/include/c++/4.8/bits/ios_base.h ****   operator~(_Ios_Fmtflags __a)
  90:/usr/include/c++/4.8/bits/ios_base.h ****   { return _Ios_Fmtflags(~static_cast<int>(__a)); }
  91:/usr/include/c++/4.8/bits/ios_base.h **** 
  92:/usr/include/c++/4.8/bits/ios_base.h ****   inline const _Ios_Fmtflags&
  93:/usr/include/c++/4.8/bits/ios_base.h ****   operator|=(_Ios_Fmtflags& __a, _Ios_Fmtflags __b)
  94:/usr/include/c++/4.8/bits/ios_base.h ****   { return __a = __a | __b; }
  95:/usr/include/c++/4.8/bits/ios_base.h **** 
  96:/usr/include/c++/4.8/bits/ios_base.h ****   inline const _Ios_Fmtflags&
  97:/usr/include/c++/4.8/bits/ios_base.h ****   operator&=(_Ios_Fmtflags& __a, _Ios_Fmtflags __b)
  98:/usr/include/c++/4.8/bits/ios_base.h ****   { return __a = __a & __b; }
  99:/usr/include/c++/4.8/bits/ios_base.h **** 
 100:/usr/include/c++/4.8/bits/ios_base.h ****   inline const _Ios_Fmtflags&
 101:/usr/include/c++/4.8/bits/ios_base.h ****   operator^=(_Ios_Fmtflags& __a, _Ios_Fmtflags __b)
 102:/usr/include/c++/4.8/bits/ios_base.h ****   { return __a = __a ^ __b; }
 103:/usr/include/c++/4.8/bits/ios_base.h **** 
 104:/usr/include/c++/4.8/bits/ios_base.h **** 
 105:/usr/include/c++/4.8/bits/ios_base.h ****   enum _Ios_Openmode 
 106:/usr/include/c++/4.8/bits/ios_base.h ****     { 
 107:/usr/include/c++/4.8/bits/ios_base.h ****       _S_app 		= 1L << 0,
 108:/usr/include/c++/4.8/bits/ios_base.h ****       _S_ate 		= 1L << 1,
 109:/usr/include/c++/4.8/bits/ios_base.h ****       _S_bin 		= 1L << 2,
 110:/usr/include/c++/4.8/bits/ios_base.h ****       _S_in 		= 1L << 3,
 111:/usr/include/c++/4.8/bits/ios_base.h ****       _S_out 		= 1L << 4,
 112:/usr/include/c++/4.8/bits/ios_base.h ****       _S_trunc 		= 1L << 5,
 113:/usr/include/c++/4.8/bits/ios_base.h ****       _S_ios_openmode_end = 1L << 16,
 114:/usr/include/c++/4.8/bits/ios_base.h ****       _S_ios_openmode_max = __INT_MAX__,
 115:/usr/include/c++/4.8/bits/ios_base.h ****       _S_ios_openmode_min = ~__INT_MAX__
 116:/usr/include/c++/4.8/bits/ios_base.h ****     };
 117:/usr/include/c++/4.8/bits/ios_base.h **** 
 118:/usr/include/c++/4.8/bits/ios_base.h ****   inline _GLIBCXX_CONSTEXPR _Ios_Openmode
 119:/usr/include/c++/4.8/bits/ios_base.h ****   operator&(_Ios_Openmode __a, _Ios_Openmode __b)
 120:/usr/include/c++/4.8/bits/ios_base.h ****   { return _Ios_Openmode(static_cast<int>(__a) & static_cast<int>(__b)); }
 121:/usr/include/c++/4.8/bits/ios_base.h **** 
 122:/usr/include/c++/4.8/bits/ios_base.h ****   inline _GLIBCXX_CONSTEXPR _Ios_Openmode
 123:/usr/include/c++/4.8/bits/ios_base.h ****   operator|(_Ios_Openmode __a, _Ios_Openmode __b)
 124:/usr/include/c++/4.8/bits/ios_base.h ****   { return _Ios_Openmode(static_cast<int>(__a) | static_cast<int>(__b)); }
  10              		.loc 1 124 0
  11              		.cfi_startproc
  12 0000 55       		pushq	%rbp
  13              		.cfi_def_cfa_offset 16
  14              		.cfi_offset 6, -16
  15 0001 4889E5   		movq	%rsp, %rbp
  16              		.cfi_def_cfa_register 6
  17 0004 897DFC   		movl	%edi, -4(%rbp)
  18 0007 8975F8   		movl	%esi, -8(%rbp)
  19              		.loc 1 124 0
  20 000a 8B45F8   		movl	-8(%rbp), %eax
  21 000d 8B55FC   		movl	-4(%rbp), %edx
  22 0010 09D0     		orl	%edx, %eax
  23 0012 5D       		popq	%rbp
  24              		.cfi_def_cfa 7, 8
  25 0013 C3       		ret
  26              		.cfi_endproc
  27              	.LFE595:
  29              		.section	.rodata
  30              	.LC0:
  31 0000 44656661 		.string	"DefaultSuite"
  31      756C7453 
  31      75697465 
  31      00
  32              		.section	.text._ZN13UnitTestSuite12GetSuiteNameEv,"axG",@progbits,_ZN13UnitTestSuite12GetSuiteName
  33              		.weak	_ZN13UnitTestSuite12GetSuiteNameEv
  35              	_ZN13UnitTestSuite12GetSuiteNameEv:
  36              	.LFB1035:
  37              		.file 2 "/home/pandu/Desktop/DigitalLogicDesign/Lab/03-/makestuff/libs/libutpp/TestSuite.h"
   1:/home/pandu/Desktop/DigitalLogicDesign/Lab/03-/makestuff/libs/libutpp/TestSuite.h **** #ifndef UNITTEST_TESTSUITE_H
   2:/home/pandu/Desktop/DigitalLogicDesign/Lab/03-/makestuff/libs/libutpp/TestSuite.h **** #define UNITTEST_TESTSUITE_H
   3:/home/pandu/Desktop/DigitalLogicDesign/Lab/03-/makestuff/libs/libutpp/TestSuite.h **** 
   4:/home/pandu/Desktop/DigitalLogicDesign/Lab/03-/makestuff/libs/libutpp/TestSuite.h **** namespace UnitTestSuite {
   5:/home/pandu/Desktop/DigitalLogicDesign/Lab/03-/makestuff/libs/libutpp/TestSuite.h **** 
   6:/home/pandu/Desktop/DigitalLogicDesign/Lab/03-/makestuff/libs/libutpp/TestSuite.h ****     inline char const* GetSuiteName ()
   7:/home/pandu/Desktop/DigitalLogicDesign/Lab/03-/makestuff/libs/libutpp/TestSuite.h ****     {
  38              		.loc 2 7 0
  39              		.cfi_startproc
  40 0000 55       		pushq	%rbp
  41              		.cfi_def_cfa_offset 16
  42              		.cfi_offset 6, -16
  43 0001 4889E5   		movq	%rsp, %rbp
  44              		.cfi_def_cfa_register 6
   8:/home/pandu/Desktop/DigitalLogicDesign/Lab/03-/makestuff/libs/libutpp/TestSuite.h ****         return "DefaultSuite";
  45              		.loc 2 8 0
  46 0004 B8000000 		movl	$.LC0, %eax
  46      00
   9:/home/pandu/Desktop/DigitalLogicDesign/Lab/03-/makestuff/libs/libutpp/TestSuite.h ****     }
  47              		.loc 2 9 0
  48 0009 5D       		popq	%rbp
  49              		.cfi_def_cfa 7, 8
  50 000a C3       		ret
  51              		.cfi_endproc
  52              	.LFE1035:
  54              		.section	.text._ZN8UnitTest15MemoryOutStreamC1Ev,"axG",@progbits,_ZN8UnitTest15MemoryOutStreamC1Ev
  55              		.align 2
  56              		.weak	_ZN8UnitTest15MemoryOutStreamC1Ev
  58              	_ZN8UnitTest15MemoryOutStreamC1Ev:
  59              	.LFB1071:
  60              		.file 3 "/home/pandu/Desktop/DigitalLogicDesign/Lab/03-/makestuff/libs/libutpp/MemoryOutStream.h"
   1:/home/pandu/Desktop/DigitalLogicDesign/Lab/03-/makestuff/libs/libutpp/MemoryOutStream.h **** #ifndef UNITTEST_MEMORYOUTSTREAM_H
   2:/home/pandu/Desktop/DigitalLogicDesign/Lab/03-/makestuff/libs/libutpp/MemoryOutStream.h **** #define UNITTEST_MEMORYOUTSTREAM_H
   3:/home/pandu/Desktop/DigitalLogicDesign/Lab/03-/makestuff/libs/libutpp/MemoryOutStream.h **** 
   4:/home/pandu/Desktop/DigitalLogicDesign/Lab/03-/makestuff/libs/libutpp/MemoryOutStream.h **** #include "Config.h"
   5:/home/pandu/Desktop/DigitalLogicDesign/Lab/03-/makestuff/libs/libutpp/MemoryOutStream.h **** 
   6:/home/pandu/Desktop/DigitalLogicDesign/Lab/03-/makestuff/libs/libutpp/MemoryOutStream.h **** #ifndef UNITTEST_USE_CUSTOM_STREAMS
   7:/home/pandu/Desktop/DigitalLogicDesign/Lab/03-/makestuff/libs/libutpp/MemoryOutStream.h **** 
   8:/home/pandu/Desktop/DigitalLogicDesign/Lab/03-/makestuff/libs/libutpp/MemoryOutStream.h **** #include <sstream>
   9:/home/pandu/Desktop/DigitalLogicDesign/Lab/03-/makestuff/libs/libutpp/MemoryOutStream.h **** 
  10:/home/pandu/Desktop/DigitalLogicDesign/Lab/03-/makestuff/libs/libutpp/MemoryOutStream.h **** namespace UnitTest
  11:/home/pandu/Desktop/DigitalLogicDesign/Lab/03-/makestuff/libs/libutpp/MemoryOutStream.h **** {
  12:/home/pandu/Desktop/DigitalLogicDesign/Lab/03-/makestuff/libs/libutpp/MemoryOutStream.h **** 
  13:/home/pandu/Desktop/DigitalLogicDesign/Lab/03-/makestuff/libs/libutpp/MemoryOutStream.h **** class MemoryOutStream : public std::ostringstream
  14:/home/pandu/Desktop/DigitalLogicDesign/Lab/03-/makestuff/libs/libutpp/MemoryOutStream.h **** {
  15:/home/pandu/Desktop/DigitalLogicDesign/Lab/03-/makestuff/libs/libutpp/MemoryOutStream.h **** public:
  16:/home/pandu/Desktop/DigitalLogicDesign/Lab/03-/makestuff/libs/libutpp/MemoryOutStream.h ****     MemoryOutStream() {}
  61              		.loc 3 16 0
  62              		.cfi_startproc
  63              		.cfi_personality 0x3,__gxx_personality_v0
  64              		.cfi_lsda 0x3,.LLSDA1071
  65 0000 55       		pushq	%rbp
  66              		.cfi_def_cfa_offset 16
  67              		.cfi_offset 6, -16
  68 0001 4889E5   		movq	%rsp, %rbp
  69              		.cfi_def_cfa_register 6
  70 0004 53       		pushq	%rbx
  71 0005 4883EC18 		subq	$24, %rsp
  72              		.cfi_offset 3, -24
  73 0009 48897DE8 		movq	%rdi, -24(%rbp)
  74              	.LBB2:
  75              		.loc 3 16 0
  76 000d 488B45E8 		movq	-24(%rbp), %rax
  77 0011 4883C060 		addq	$96, %rax
  78 0015 4889C7   		movq	%rax, %rdi
  79              	.LEHB0:
  80 0018 E8000000 		call	_ZNSt9basic_iosIcSt11char_traitsIcEEC2Ev
  80      00
  81              	.LEHE0:
  82 001d B9000000 		movl	$_ZTTN8UnitTest15MemoryOutStreamE+8, %ecx
  82      00
  83 0022 488B45E8 		movq	-24(%rbp), %rax
  84 0026 BA100000 		movl	$16, %edx
  84      00
  85 002b 4889CE   		movq	%rcx, %rsi
  86 002e 4889C7   		movq	%rax, %rdi
  87              	.LEHB1:
  88 0031 E8000000 		call	_ZNSt19basic_ostringstreamIcSt11char_traitsIcESaIcEEC2ESt13_Ios_Openmode
  88      00
  89              	.LEHE1:
  90              		.loc 3 16 0 is_stmt 0 discriminator 6
  91 0036 BA000000 		movl	$_ZTVN8UnitTest15MemoryOutStreamE+24, %edx
  91      00
  92 003b 488B45E8 		movq	-24(%rbp), %rax
  93 003f 488910   		movq	%rdx, (%rax)
  94 0042 BA600000 		movl	$96, %edx
  94      00
  95 0047 488B45E8 		movq	-24(%rbp), %rax
  96 004b 4801C2   		addq	%rax, %rdx
  97 004e B8000000 		movl	$_ZTVN8UnitTest15MemoryOutStreamE+64, %eax
  97      00
  98 0053 488902   		movq	%rax, (%rdx)
  99 0056 488B45E8 		movq	-24(%rbp), %rax
 100 005a 4883C058 		addq	$88, %rax
 101 005e 4889C7   		movq	%rax, %rdi
 102              	.LEHB2:
 103 0061 E8000000 		call	_ZNSsC1Ev
 103      00
 104              	.LEHE2:
 105              	.LBE2:
 106              		.loc 3 16 0
 107 0066 EB37     		jmp	.L10
 108              	.L8:
 109 0068 4889C3   		movq	%rax, %rbx
 110              	.LBB3:
 111 006b BA000000 		movl	$_ZTTN8UnitTest15MemoryOutStreamE+8, %edx
 111      00
 112 0070 488B45E8 		movq	-24(%rbp), %rax
 113 0074 4889D6   		movq	%rdx, %rsi
 114 0077 4889C7   		movq	%rax, %rdi
 115 007a E8000000 		call	_ZNSt19basic_ostringstreamIcSt11char_traitsIcESaIcEED2Ev
 115      00
 116 007f EB03     		jmp	.L7
 117              	.L9:
 118 0081 4889C3   		movq	%rax, %rbx
 119              	.L7:
 120              		.loc 3 16 0 discriminator 19
 121 0084 488B45E8 		movq	-24(%rbp), %rax
 122 0088 4883C060 		addq	$96, %rax
 123 008c 4889C7   		movq	%rax, %rdi
 124 008f E8000000 		call	_ZNSt9basic_iosIcSt11char_traitsIcEED2Ev
 124      00
 125 0094 4889D8   		movq	%rbx, %rax
 126 0097 4889C7   		movq	%rax, %rdi
 127              	.LEHB3:
 128 009a E8000000 		call	_Unwind_Resume
 128      00
 129              	.LEHE3:
 130              	.L10:
 131              	.LBE3:
 132              		.loc 3 16 0
 133 009f 4883C418 		addq	$24, %rsp
 134 00a3 5B       		popq	%rbx
 135 00a4 5D       		popq	%rbp
 136              		.cfi_def_cfa 7, 8
 137 00a5 C3       		ret
 138              		.cfi_endproc
 139              	.LFE1071:
 140              		.globl	__gxx_personality_v0
 141              		.section	.gcc_except_table._ZN8UnitTest15MemoryOutStreamC1Ev,"aG",@progbits,_ZN8UnitTest15MemoryOu
 142              	.LLSDA1071:
 143 0000 FF       		.byte	0xff
 144 0001 FF       		.byte	0xff
 145 0002 01       		.byte	0x1
 146 0003 12       		.uleb128 .LLSDACSE1071-.LLSDACSB1071
 147              	.LLSDACSB1071:
 148 0004 18       		.uleb128 .LEHB0-.LFB1071
 149 0005 05       		.uleb128 .LEHE0-.LEHB0
 150 0006 00       		.uleb128 0
 151 0007 00       		.uleb128 0
 152 0008 31       		.uleb128 .LEHB1-.LFB1071
 153 0009 05       		.uleb128 .LEHE1-.LEHB1
 154 000a 8101     		.uleb128 .L9-.LFB1071
 155 000c 00       		.uleb128 0
 156 000d 61       		.uleb128 .LEHB2-.LFB1071
 157 000e 05       		.uleb128 .LEHE2-.LEHB2
 158 000f 68       		.uleb128 .L8-.LFB1071
 159 0010 00       		.uleb128 0
 160 0011 9A01     		.uleb128 .LEHB3-.LFB1071
 161 0013 05       		.uleb128 .LEHE3-.LEHB3
 162 0014 00       		.uleb128 0
 163 0015 00       		.uleb128 0
 164              	.LLSDACSE1071:
 165              		.section	.text._ZN8UnitTest15MemoryOutStreamC1Ev,"axG",@progbits,_ZN8UnitTest15MemoryOutStreamC1Ev
 167              		.section	.rodata
 168              	.LC1:
 169 000d 74657374 		.string	"testBinIO.cpp"
 169      42696E49 
 169      4F2E6370 
 169      7000
 170              	.LC2:
 171 001b 42696E49 		.string	"BinIO_testReadNonExistentFile"
 171      4F5F7465 
 171      73745265 
 171      61644E6F 
 171      6E457869 
 172              		.section	.text._ZN33TestBinIO_testReadNonExistentFileC2Ev,"axG",@progbits,_ZN33TestBinIO_testReadN
 173              		.align 2
 174              		.weak	_ZN33TestBinIO_testReadNonExistentFileC2Ev
 176              	_ZN33TestBinIO_testReadNonExistentFileC2Ev:
 177              	.LFB1088:
 178              		.file 4 "testBinIO.cpp"
   1:testBinIO.cpp **** /*
   2:testBinIO.cpp ****  * Copyright (C) 2009-2012 Chris McClelland
   3:testBinIO.cpp ****  *
   4:testBinIO.cpp ****  * This program is free software: you can redistribute it and/or modify
   5:testBinIO.cpp ****  * it under the terms of the GNU Lesser General Public License as published by
   6:testBinIO.cpp ****  * the Free Software Foundation, either version 3 of the License, or
   7:testBinIO.cpp ****  * (at your option) any later version.
   8:testBinIO.cpp ****  *
   9:testBinIO.cpp ****  * This program is distributed in the hope that it will be useful,
  10:testBinIO.cpp ****  * but WITHOUT ANY WARRANTY; without even the implied warranty of
  11:testBinIO.cpp ****  * MERCHANTABILITY or FITNESS FOR A PARTICULAR PURPOSE.  See the
  12:testBinIO.cpp ****  * GNU Lesser General Public License for more details.
  13:testBinIO.cpp ****  *
  14:testBinIO.cpp ****  * You should have received a copy of the GNU Lesser General Public License
  15:testBinIO.cpp ****  * along with this program.  If not, see <http://www.gnu.org/licenses/>.
  16:testBinIO.cpp ****  */
  17:testBinIO.cpp **** #include <string.h>
  18:testBinIO.cpp **** #include <fstream>
  19:testBinIO.cpp **** #include <UnitTest++.h>
  20:testBinIO.cpp **** #include "../libbuffer.h"
  21:testBinIO.cpp **** 
  22:testBinIO.cpp **** using namespace std;
  23:testBinIO.cpp **** 
  24:testBinIO.cpp **** TEST(BinIO_testReadNonExistentFile) {
 179              		.loc 4 24 0 is_stmt 1
 180              		.cfi_startproc
 181 0000 55       		pushq	%rbp
 182              		.cfi_def_cfa_offset 16
 183              		.cfi_offset 6, -16
 184 0001 4889E5   		movq	%rsp, %rbp
 185              		.cfi_def_cfa_register 6
 186 0004 4883EC10 		subq	$16, %rsp
 187 0008 48897DF8 		movq	%rdi, -8(%rbp)
 188              	.LBB4:
 189              		.loc 4 24 0
 190 000c E8000000 		call	_ZN13UnitTestSuite12GetSuiteNameEv
 190      00
 191 0011 4889C2   		movq	%rax, %rdx
 192 0014 488B45F8 		movq	-8(%rbp), %rax
 193 0018 41B81800 		movl	$24, %r8d
 193      0000
 194 001e B9000000 		movl	$.LC1, %ecx
 194      00
 195 0023 BE000000 		movl	$.LC2, %esi
 195      00
 196 0028 4889C7   		movq	%rax, %rdi
 197 002b E8000000 		call	_ZN8UnitTest4TestC2EPKcS2_S2_i
 197      00
 198 0030 488B45F8 		movq	-8(%rbp), %rax
 199 0034 48C70000 		movq	$_ZTV33TestBinIO_testReadNonExistentFile+16, (%rax)
 199      000000
 200              	.LBE4:
 201 003b C9       		leave
 202              		.cfi_def_cfa 7, 8
 203 003c C3       		ret
 204              		.cfi_endproc
 205              	.LFE1088:
 207              		.weak	_ZN33TestBinIO_testReadNonExistentFileC1Ev
 208              		.set	_ZN33TestBinIO_testReadNonExistentFileC1Ev,_ZN33TestBinIO_testReadNonExistentFileC2Ev
 209              		.globl	testBinIO_testReadNonExistentFileInstance
 210              		.bss
 211              		.align 32
 214              	testBinIO_testReadNonExistentFileInstance:
 215 0000 00000000 		.zero	56
 215      00000000 
 215      00000000 
 215      00000000 
 215      00000000 
 216              		.globl	adderBinIO_testReadNonExistentFile
 219              	adderBinIO_testReadNonExistentFile:
 220 0038 00       		.zero	1
 221              		.section	.rodata
 222              	.LC3:
 223 0039 6E6F6E45 		.string	"nonExistentFile.bin"
 223      78697374 
 223      656E7446 
 223      696C652E 
 223      62696E00 
 224 004d 000000   		.align 8
 225              	.LC4:
 226 0050 556E6861 		.string	"Unhandled exception in CHECK_EQUAL(BUF_SUCCESS, status)"
 226      6E646C65 
 226      64206578 
 226      63657074 
 226      696F6E20 
 227              		.align 8
 228              	.LC5:
 229 0088 556E6861 		.string	"Unhandled exception in CHECK_EQUAL(BUF_FOPEN, status)"
 229      6E646C65 
 229      64206578 
 229      63657074 
 229      696F6E20 
 230              		.text
 231              		.align 2
 232              		.globl	_ZNK33TestBinIO_testReadNonExistentFile7RunImplEv
 234              	_ZNK33TestBinIO_testReadNonExistentFile7RunImplEv:
 235              	.LFB1090:
 236              		.loc 4 24 0
 237              		.cfi_startproc
 238              		.cfi_personality 0x3,__gxx_personality_v0
 239              		.cfi_lsda 0x3,.LLSDA1090
 240 0000 55       		pushq	%rbp
 241              		.cfi_def_cfa_offset 16
 242              		.cfi_offset 6, -16
 243 0001 4889E5   		movq	%rsp, %rbp
 244              		.cfi_def_cfa_register 6
 245 0004 53       		pushq	%rbx
 246 0005 4883EC68 		subq	$104, %rsp
 247              		.cfi_offset 3, -24
 248 0009 48897D98 		movq	%rdi, -104(%rbp)
 249              	.LBB5:
  25:testBinIO.cpp **** 	Buffer buf;
  26:testBinIO.cpp **** 	BufferStatus status = bufInitialise(&buf, 8, 0, NULL);
 250              		.loc 4 26 0
 251 000d 488D45B0 		leaq	-80(%rbp), %rax
 252 0011 B9000000 		movl	$0, %ecx
 252      00
 253 0016 BA000000 		movl	$0, %edx
 253      00
 254 001b BE080000 		movl	$8, %esi
 254      00
 255 0020 4889C7   		movq	%rax, %rdi
 256              	.LEHB4:
 257 0023 E8000000 		call	bufInitialise
 257      00
 258              	.LEHE4:
 259 0028 8945A8   		movl	%eax, -88(%rbp)
 260              	.LEHB5:
  27:testBinIO.cpp **** 	CHECK_EQUAL(BUF_SUCCESS, status);
 261              		.loc 4 27 0
 262 002b E8000000 		call	_ZN8UnitTest11CurrentTest7DetailsEv
 262      00
 263 0030 488B08   		movq	(%rax), %rcx
 264 0033 488D45D0 		leaq	-48(%rbp), %rax
 265 0037 BA1B0000 		movl	$27, %edx
 265      00
 266 003c 4889CE   		movq	%rcx, %rsi
 267 003f 4889C7   		movq	%rax, %rdi
 268 0042 E8000000 		call	_ZN8UnitTest11TestDetailsC1ERKS0_i
 268      00
 269              		.loc 4 27 0 is_stmt 0 discriminator 1
 270 0047 C745AC00 		movl	$0, -84(%rbp)
 270      000000
 271 004e E8000000 		call	_ZN8UnitTest11CurrentTest7ResultsEv
 271      00
 272 0053 488B00   		movq	(%rax), %rax
 273 0056 488D4DD0 		leaq	-48(%rbp), %rcx
 274 005a 488D55A8 		leaq	-88(%rbp), %rdx
 275 005e 488D75AC 		leaq	-84(%rbp), %rsi
 276 0062 4889C7   		movq	%rax, %rdi
 277 0065 E8000000 		call	_ZN8UnitTest10CheckEqualI12BufferStatusS1_EEvRNS_11TestResultsERKT_RKT0_RKNS_11TestDetailsE
 277      00
 278              	.LEHE5:
 279              	.L15:
  28:testBinIO.cpp **** 	status = bufAppendFromBinaryFile(&buf, "nonExistentFile.bin", NULL);
 280              		.loc 4 28 0 is_stmt 1
 281 006a 488D45B0 		leaq	-80(%rbp), %rax
 282 006e BA000000 		movl	$0, %edx
 282      00
 283 0073 BE000000 		movl	$.LC3, %esi
 283      00
 284 0078 4889C7   		movq	%rax, %rdi
 285              	.LEHB6:
 286 007b E8000000 		call	bufAppendFromBinaryFile
 286      00
 287              	.LEHE6:
 288 0080 8945A8   		movl	%eax, -88(%rbp)
 289              	.LEHB7:
  29:testBinIO.cpp **** 	CHECK_EQUAL(BUF_FOPEN, status);
 290              		.loc 4 29 0
 291 0083 E8000000 		call	_ZN8UnitTest11CurrentTest7DetailsEv
 291      00
 292 0088 488B08   		movq	(%rax), %rcx
 293 008b 488D45D0 		leaq	-48(%rbp), %rax
 294 008f BA1D0000 		movl	$29, %edx
 294      00
 295 0094 4889CE   		movq	%rcx, %rsi
 296 0097 4889C7   		movq	%rax, %rdi
 297 009a E8000000 		call	_ZN8UnitTest11TestDetailsC1ERKS0_i
 297      00
 298              		.loc 4 29 0 is_stmt 0 discriminator 1
 299 009f C745AC02 		movl	$2, -84(%rbp)
 299      000000
 300 00a6 E8000000 		call	_ZN8UnitTest11CurrentTest7ResultsEv
 300      00
 301 00ab 488B00   		movq	(%rax), %rax
 302 00ae 488D4DD0 		leaq	-48(%rbp), %rcx
 303 00b2 488D55A8 		leaq	-88(%rbp), %rdx
 304 00b6 488D75AC 		leaq	-84(%rbp), %rsi
 305 00ba 4889C7   		movq	%rax, %rdi
 306 00bd E8000000 		call	_ZN8UnitTest10CheckEqualI12BufferStatusS1_EEvRNS_11TestResultsERKT_RKT0_RKNS_11TestDetailsE
 306      00
 307              	.LEHE7:
 308              	.L18:
  30:testBinIO.cpp **** 	bufDestroy(&buf);
 309              		.loc 4 30 0 is_stmt 1
 310 00c2 488D45B0 		leaq	-80(%rbp), %rax
 311 00c6 4889C7   		movq	%rax, %rdi
 312              	.LEHB8:
 313 00c9 E8000000 		call	bufDestroy
 313      00
 314              	.LEHE8:
 315 00ce E9BA0000 		jmp	.L23
 315      00
 316              	.L20:
 317 00d3 4889C3   		movq	%rax, %rbx
  27:testBinIO.cpp **** 	status = bufAppendFromBinaryFile(&buf, "nonExistentFile.bin", NULL);
 318              		.loc 4 27 0
 319 00d6 E8000000 		call	__cxa_end_catch
 319      00
 320 00db 4889D8   		movq	%rbx, %rax
 321 00de 4889C7   		movq	%rax, %rdi
 322              	.LEHB9:
 323 00e1 E8000000 		call	_Unwind_Resume
 323      00
 324              	.LEHE9:
 325              	.L19:
 326 00e6 4889C7   		movq	%rax, %rdi
 327 00e9 E8000000 		call	__cxa_begin_catch
 327      00
 328              	.LEHB10:
 329 00ee E8000000 		call	_ZN8UnitTest11CurrentTest7DetailsEv
 329      00
 330 00f3 488B08   		movq	(%rax), %rcx
 331 00f6 488D45D0 		leaq	-48(%rbp), %rax
 332 00fa BA1B0000 		movl	$27, %edx
 332      00
 333 00ff 4889CE   		movq	%rcx, %rsi
 334 0102 4889C7   		movq	%rax, %rdi
 335 0105 E8000000 		call	_ZN8UnitTest11TestDetailsC1ERKS0_i
 335      00
  27:testBinIO.cpp **** 	status = bufAppendFromBinaryFile(&buf, "nonExistentFile.bin", NULL);
 336              		.loc 4 27 0 is_stmt 0 discriminator 1
 337 010a E8000000 		call	_ZN8UnitTest11CurrentTest7ResultsEv
 337      00
 338 010f 488B00   		movq	(%rax), %rax
 339 0112 488D4DD0 		leaq	-48(%rbp), %rcx
 340 0116 BA000000 		movl	$.LC4, %edx
 340      00
 341 011b 4889CE   		movq	%rcx, %rsi
 342 011e 4889C7   		movq	%rax, %rdi
 343 0121 E8000000 		call	_ZN8UnitTest11TestResults13OnTestFailureERKNS_11TestDetailsEPKc
 343      00
 344              	.LEHE10:
 345              	.LEHB11:
 346 0126 E8000000 		call	__cxa_end_catch
 346      00
 347              	.LEHE11:
 348 012b E93AFFFF 		jmp	.L15
 348      FF
 349              	.L22:
 350 0130 4889C3   		movq	%rax, %rbx
  29:testBinIO.cpp **** 	CHECK_EQUAL(BUF_FOPEN, status);
 351              		.loc 4 29 0 is_stmt 1
 352 0133 E8000000 		call	__cxa_end_catch
 352      00
 353 0138 4889D8   		movq	%rbx, %rax
 354 013b 4889C7   		movq	%rax, %rdi
 355              	.LEHB12:
 356 013e E8000000 		call	_Unwind_Resume
 356      00
 357              	.LEHE12:
 358              	.L21:
 359 0143 4889C7   		movq	%rax, %rdi
 360 0146 E8000000 		call	__cxa_begin_catch
 360      00
 361              	.LEHB13:
 362 014b E8000000 		call	_ZN8UnitTest11CurrentTest7DetailsEv
 362      00
 363 0150 488B08   		movq	(%rax), %rcx
 364 0153 488D45D0 		leaq	-48(%rbp), %rax
 365 0157 BA1D0000 		movl	$29, %edx
 365      00
 366 015c 4889CE   		movq	%rcx, %rsi
 367 015f 4889C7   		movq	%rax, %rdi
 368 0162 E8000000 		call	_ZN8UnitTest11TestDetailsC1ERKS0_i
 368      00
  29:testBinIO.cpp **** 	CHECK_EQUAL(BUF_FOPEN, status);
 369              		.loc 4 29 0 is_stmt 0 discriminator 1
 370 0167 E8000000 		call	_ZN8UnitTest11CurrentTest7ResultsEv
 370      00
 371 016c 488B00   		movq	(%rax), %rax
 372 016f 488D4DD0 		leaq	-48(%rbp), %rcx
 373 0173 BA000000 		movl	$.LC5, %edx
 373      00
 374 0178 4889CE   		movq	%rcx, %rsi
 375 017b 4889C7   		movq	%rax, %rdi
 376 017e E8000000 		call	_ZN8UnitTest11TestResults13OnTestFailureERKNS_11TestDetailsEPKc
 376      00
 377              	.LEHE13:
 378              	.LEHB14:
 379 0183 E8000000 		call	__cxa_end_catch
 379      00
 380              	.LEHE14:
 381 0188 E935FFFF 		jmp	.L18
 381      FF
 382              	.L23:
 383              	.LBE5:
  31:testBinIO.cpp **** }
 384              		.loc 4 31 0 is_stmt 1
 385 018d 4883C468 		addq	$104, %rsp
 386 0191 5B       		popq	%rbx
 387 0192 5D       		popq	%rbp
 388              		.cfi_def_cfa 7, 8
 389 0193 C3       		ret
 390              		.cfi_endproc
 391              	.LFE1090:
 392              		.section	.gcc_except_table,"a",@progbits
 393              		.align 4
 394              	.LLSDA1090:
 395 0000 FF       		.byte	0xff
 396 0001 03       		.byte	0x3
 397 0002 41       		.uleb128 .LLSDATT1090-.LLSDATTD1090
 398              	.LLSDATTD1090:
 399 0003 01       		.byte	0x1
 400 0004 38       		.uleb128 .LLSDACSE1090-.LLSDACSB1090
 401              	.LLSDACSB1090:
 402 0005 23       		.uleb128 .LEHB4-.LFB1090
 403 0006 05       		.uleb128 .LEHE4-.LEHB4
 404 0007 00       		.uleb128 0
 405 0008 00       		.uleb128 0
 406 0009 2B       		.uleb128 .LEHB5-.LFB1090
 407 000a 3F       		.uleb128 .LEHE5-.LEHB5
 408 000b E601     		.uleb128 .L19-.LFB1090
 409 000d 01       		.uleb128 0x1
 410 000e 7B       		.uleb128 .LEHB6-.LFB1090
 411 000f 05       		.uleb128 .LEHE6-.LEHB6
 412 0010 00       		.uleb128 0
 413 0011 00       		.uleb128 0
 414 0012 8301     		.uleb128 .LEHB7-.LFB1090
 415 0014 3F       		.uleb128 .LEHE7-.LEHB7
 416 0015 C302     		.uleb128 .L21-.LFB1090
 417 0017 01       		.uleb128 0x1
 418 0018 C901     		.uleb128 .LEHB8-.LFB1090
 419 001a 05       		.uleb128 .LEHE8-.LEHB8
 420 001b 00       		.uleb128 0
 421 001c 00       		.uleb128 0
 422 001d E101     		.uleb128 .LEHB9-.LFB1090
 423 001f 05       		.uleb128 .LEHE9-.LEHB9
 424 0020 00       		.uleb128 0
 425 0021 00       		.uleb128 0
 426 0022 EE01     		.uleb128 .LEHB10-.LFB1090
 427 0024 38       		.uleb128 .LEHE10-.LEHB10
 428 0025 D301     		.uleb128 .L20-.LFB1090
 429 0027 00       		.uleb128 0
 430 0028 A602     		.uleb128 .LEHB11-.LFB1090
 431 002a 05       		.uleb128 .LEHE11-.LEHB11
 432 002b 00       		.uleb128 0
 433 002c 00       		.uleb128 0
 434 002d BE02     		.uleb128 .LEHB12-.LFB1090
 435 002f 05       		.uleb128 .LEHE12-.LEHB12
 436 0030 00       		.uleb128 0
 437 0031 00       		.uleb128 0
 438 0032 CB02     		.uleb128 .LEHB13-.LFB1090
 439 0034 38       		.uleb128 .LEHE13-.LEHB13
 440 0035 B002     		.uleb128 .L22-.LFB1090
 441 0037 00       		.uleb128 0
 442 0038 8303     		.uleb128 .LEHB14-.LFB1090
 443 003a 05       		.uleb128 .LEHE14-.LEHB14
 444 003b 00       		.uleb128 0
 445 003c 00       		.uleb128 0
 446              	.LLSDACSE1090:
 447 003d 01       		.byte	0x1
 448 003e 00       		.byte	0
 449 003f 00       		.align 4
 450 0040 00000000 		.long	0
 451              	
 452              	.LLSDATT1090:
 453              		.text
 455              		.section	.rodata
 456              	.LC6:
 457 00be 42696E49 		.string	"BinIO_testReadExistingFile"
 457      4F5F7465 
 457      73745265 
 457      61644578 
 457      69737469 
 458              		.section	.text._ZN30TestBinIO_testReadExistingFileC2Ev,"axG",@progbits,_ZN30TestBinIO_testReadExis
 459              		.align 2
 460              		.weak	_ZN30TestBinIO_testReadExistingFileC2Ev
 462              	_ZN30TestBinIO_testReadExistingFileC2Ev:
 463              	.LFB1092:
  32:testBinIO.cpp **** 
  33:testBinIO.cpp **** TEST(BinIO_testReadExistingFile) {
 464              		.loc 4 33 0
 465              		.cfi_startproc
 466 0000 55       		pushq	%rbp
 467              		.cfi_def_cfa_offset 16
 468              		.cfi_offset 6, -16
 469 0001 4889E5   		movq	%rsp, %rbp
 470              		.cfi_def_cfa_register 6
 471 0004 4883EC10 		subq	$16, %rsp
 472 0008 48897DF8 		movq	%rdi, -8(%rbp)
 473              	.LBB6:
 474              		.loc 4 33 0
 475 000c E8000000 		call	_ZN13UnitTestSuite12GetSuiteNameEv
 475      00
 476 0011 4889C2   		movq	%rax, %rdx
 477 0014 488B45F8 		movq	-8(%rbp), %rax
 478 0018 41B82100 		movl	$33, %r8d
 478      0000
 479 001e B9000000 		movl	$.LC1, %ecx
 479      00
 480 0023 BE000000 		movl	$.LC6, %esi
 480      00
 481 0028 4889C7   		movq	%rax, %rdi
 482 002b E8000000 		call	_ZN8UnitTest4TestC2EPKcS2_S2_i
 482      00
 483 0030 488B45F8 		movq	-8(%rbp), %rax
 484 0034 48C70000 		movq	$_ZTV30TestBinIO_testReadExistingFile+16, (%rax)
 484      000000
 485              	.LBE6:
 486 003b C9       		leave
 487              		.cfi_def_cfa 7, 8
 488 003c C3       		ret
 489              		.cfi_endproc
 490              	.LFE1092:
 492              		.weak	_ZN30TestBinIO_testReadExistingFileC1Ev
 493              		.set	_ZN30TestBinIO_testReadExistingFileC1Ev,_ZN30TestBinIO_testReadExistingFileC2Ev
 494              		.globl	testBinIO_testReadExistingFileInstance
 495              		.bss
 496 0039 00000000 		.align 32
 496      000000
 499              	testBinIO_testReadExistingFileInstance:
 500 0040 00000000 		.zero	56
 500      00000000 
 500      00000000 
 500      00000000 
 500      00000000 
 501              		.globl	adderBinIO_testReadExistingFile
 504              	adderBinIO_testReadExistingFile:
 505 0078 00       		.zero	1
 506              		.section	.rodata
 507              	.LC7:
 508 00d9 746D7046 		.string	"tmpFile.bin"
 508      696C652E 
 508      62696E00 
 509              	.LC8:
 510 00e5 4A757374 		.string	"Just some test data"
 510      20736F6D 
 510      65207465 
 510      73742064 
 510      61746100 
 511 00f9 00000000 		.align 8
 511      000000
 512              	.LC9:
 513 0100 556E6861 		.string	"Unhandled exception in CHECK_EQUAL(strlen(DATA), buf.length)"
 513      6E646C65 
 513      64206578 
 513      63657074 
 513      696F6E20 
 514 013d 000000   		.align 8
 515              	.LC10:
 516 0140 556E6861 		.string	"Unhandled exception in CHECK_ARRAY_EQUAL(DATA, buf.data)"
 516      6E646C65 
 516      64206578 
 516      63657074 
 516      696F6E20 
 517 0179 00000000 		.align 8
 517      000000
 518              	.LC11:
 519 0180 556E6861 		.string	"Unhandled exception in CHECK_EQUAL(2 * strlen(DATA), buf.length)"
 519      6E646C65 
 519      64206578 
 519      63657074 
 519      696F6E20 
 520 01c1 00000000 		.align 8
 520      000000
 521              	.LC12:
 522 01c8 556E6861 		.string	"Unhandled exception in CHECK_ARRAY_EQUAL(DATA, buf.data + strlen(DATA))"
 522      6E646C65 
 522      64206578 
 522      63657074 
 522      696F6E20 
 523              		.text
 524              		.align 2
 525              		.globl	_ZNK30TestBinIO_testReadExistingFile7RunImplEv
 527              	_ZNK30TestBinIO_testReadExistingFile7RunImplEv:
 528              	.LFB1094:
 529              		.loc 4 33 0
 530              		.cfi_startproc
 531              		.cfi_personality 0x3,__gxx_personality_v0
 532              		.cfi_lsda 0x3,.LLSDA1094
 533 0194 55       		pushq	%rbp
 534              		.cfi_def_cfa_offset 16
 535              		.cfi_offset 6, -16
 536 0195 4889E5   		movq	%rsp, %rbp
 537              		.cfi_def_cfa_register 6
 538 0198 53       		pushq	%rbx
 539 0199 4881EC88 		subq	$648, %rsp
 539      020000
 540              		.cfi_offset 3, -24
 541 01a0 4889BD78 		movq	%rdi, -648(%rbp)
 541      FDFFFF
 542              		.loc 4 33 0
 543 01a7 64488B04 		movq	%fs:40, %rax
 543      25280000 
 543      00
 544 01b0 488945E8 		movq	%rax, -24(%rbp)
 545 01b4 31C0     		xorl	%eax, %eax
 546              	.LBB7:
  34:testBinIO.cpp **** 	const char *const FILENAME = "tmpFile.bin";
 547              		.loc 4 34 0
 548 01b6 48C78598 		movq	$.LC7, -616(%rbp)
 548      FDFFFF00 
 548      000000
  35:testBinIO.cpp **** 	const char *const DATA = "Just some test data";
 549              		.loc 4 35 0
 550 01c1 48C78588 		movq	$.LC8, -632(%rbp)
 550      FDFFFF00 
 550      000000
  36:testBinIO.cpp **** 	ofstream file;
 551              		.loc 4 36 0
 552 01cc 488D85E0 		leaq	-544(%rbp), %rax
 552      FDFFFF
 553 01d3 4889C7   		movq	%rax, %rdi
 554              	.LEHB15:
 555 01d6 E8000000 		call	_ZNSt14basic_ofstreamIcSt11char_traitsIcEEC1Ev
 555      00
 556              	.LEHE15:
  37:testBinIO.cpp **** 	Buffer buf;
  38:testBinIO.cpp **** 	BufferStatus status = bufInitialise(&buf, 8, 0, NULL);
 557              		.loc 4 38 0
 558 01db 488D85A0 		leaq	-608(%rbp), %rax
 558      FDFFFF
 559 01e2 B9000000 		movl	$0, %ecx
 559      00
 560 01e7 BA000000 		movl	$0, %edx
 560      00
 561 01ec BE080000 		movl	$8, %esi
 561      00
 562 01f1 4889C7   		movq	%rax, %rdi
 563              	.LEHB16:
 564 01f4 E8000000 		call	bufInitialise
 564      00
 565              	.LEHE16:
 566 01f9 898584FD 		movl	%eax, -636(%rbp)
 566      FFFF
 567              	.LEHB17:
  39:testBinIO.cpp **** 	CHECK_EQUAL(BUF_SUCCESS, status);
 568              		.loc 4 39 0
 569 01ff E8000000 		call	_ZN8UnitTest11CurrentTest7DetailsEv
 569      00
 570              		.loc 4 39 0 is_stmt 0 discriminator 1
 571 0204 488B08   		movq	(%rax), %rcx
 572 0207 488D85C0 		leaq	-576(%rbp), %rax
 572      FDFFFF
 573 020e BA270000 		movl	$39, %edx
 573      00
 574 0213 4889CE   		movq	%rcx, %rsi
 575 0216 4889C7   		movq	%rax, %rdi
 576 0219 E8000000 		call	_ZN8UnitTest11TestDetailsC1ERKS0_i
 576      00
 577 021e C78590FD 		movl	$0, -624(%rbp)
 577      FFFF0000 
 577      0000
 578 0228 E8000000 		call	_ZN8UnitTest11CurrentTest7ResultsEv
 578      00
 579 022d 488B00   		movq	(%rax), %rax
 580 0230 488D8DC0 		leaq	-576(%rbp), %rcx
 580      FDFFFF
 581 0237 488D9584 		leaq	-636(%rbp), %rdx
 581      FDFFFF
 582 023e 488DB590 		leaq	-624(%rbp), %rsi
 582      FDFFFF
 583 0245 4889C7   		movq	%rax, %rdi
 584 0248 E8000000 		call	_ZN8UnitTest10CheckEqualI12BufferStatusS1_EEvRNS_11TestResultsERKT_RKT0_RKNS_11TestDetailsE
 584      00
 585              	.LEHE17:
 586              	.L29:
  40:testBinIO.cpp **** 	file.open(FILENAME, ios::out|ios::binary);
 587              		.loc 4 40 0 is_stmt 1
 588 024d BE040000 		movl	$4, %esi
 588      00
 589 0252 BF100000 		movl	$16, %edi
 589      00
 590 0257 E8000000 		call	_ZStorSt13_Ios_OpenmodeS_
 590      00
 591 025c 89C2     		movl	%eax, %edx
 592 025e 488D85E0 		leaq	-544(%rbp), %rax
 592      FDFFFF
 593 0265 BE000000 		movl	$.LC7, %esi
 593      00
 594 026a 4889C7   		movq	%rax, %rdi
 595              	.LEHB18:
 596 026d E8000000 		call	_ZNSt14basic_ofstreamIcSt11char_traitsIcEE4openEPKcSt13_Ios_Openmode
 596      00
  41:testBinIO.cpp **** 	file << DATA;
 597              		.loc 4 41 0
 598 0272 488D85E0 		leaq	-544(%rbp), %rax
 598      FDFFFF
 599 0279 BE000000 		movl	$.LC8, %esi
 599      00
 600 027e 4889C7   		movq	%rax, %rdi
 601 0281 E8000000 		call	_ZStlsISt11char_traitsIcEERSt13basic_ostreamIcT_ES5_PKc
 601      00
  42:testBinIO.cpp **** 	file.close();
 602              		.loc 4 42 0
 603 0286 488D85E0 		leaq	-544(%rbp), %rax
 603      FDFFFF
 604 028d 4889C7   		movq	%rax, %rdi
 605 0290 E8000000 		call	_ZNSt14basic_ofstreamIcSt11char_traitsIcEE5closeEv
 605      00
  43:testBinIO.cpp **** 	status = bufAppendFromBinaryFile(&buf, FILENAME, NULL);
 606              		.loc 4 43 0
 607 0295 488D85A0 		leaq	-608(%rbp), %rax
 607      FDFFFF
 608 029c BA000000 		movl	$0, %edx
 608      00
 609 02a1 BE000000 		movl	$.LC7, %esi
 609      00
 610 02a6 4889C7   		movq	%rax, %rdi
 611 02a9 E8000000 		call	bufAppendFromBinaryFile
 611      00
 612              	.LEHE18:
 613 02ae 898584FD 		movl	%eax, -636(%rbp)
 613      FFFF
 614              	.LEHB19:
  44:testBinIO.cpp **** 	CHECK_EQUAL(BUF_SUCCESS, status);
 615              		.loc 4 44 0
 616 02b4 E8000000 		call	_ZN8UnitTest11CurrentTest7DetailsEv
 616      00
 617              		.loc 4 44 0 is_stmt 0 discriminator 1
 618 02b9 488B08   		movq	(%rax), %rcx
 619 02bc 488D85C0 		leaq	-576(%rbp), %rax
 619      FDFFFF
 620 02c3 BA2C0000 		movl	$44, %edx
 620      00
 621 02c8 4889CE   		movq	%rcx, %rsi
 622 02cb 4889C7   		movq	%rax, %rdi
 623 02ce E8000000 		call	_ZN8UnitTest11TestDetailsC1ERKS0_i
 623      00
 624 02d3 C78590FD 		movl	$0, -624(%rbp)
 624      FFFF0000 
 624      0000
 625 02dd E8000000 		call	_ZN8UnitTest11CurrentTest7ResultsEv
 625      00
 626 02e2 488B00   		movq	(%rax), %rax
 627 02e5 488D8DC0 		leaq	-576(%rbp), %rcx
 627      FDFFFF
 628 02ec 488D9584 		leaq	-636(%rbp), %rdx
 628      FDFFFF
 629 02f3 488DB590 		leaq	-624(%rbp), %rsi
 629      FDFFFF
 630 02fa 4889C7   		movq	%rax, %rdi
 631 02fd E8000000 		call	_ZN8UnitTest10CheckEqualI12BufferStatusS1_EEvRNS_11TestResultsERKT_RKT0_RKNS_11TestDetailsE
 631      00
 632              	.LEHE19:
 633              	.L32:
 634              	.LEHB20:
  45:testBinIO.cpp **** 	CHECK_EQUAL(strlen(DATA), buf.length);
 635              		.loc 4 45 0 is_stmt 1
 636 0302 E8000000 		call	_ZN8UnitTest11CurrentTest7DetailsEv
 636      00
 637 0307 488B08   		movq	(%rax), %rcx
 638 030a 488D85C0 		leaq	-576(%rbp), %rax
 638      FDFFFF
 639 0311 BA2D0000 		movl	$45, %edx
 639      00
 640 0316 4889CE   		movq	%rcx, %rsi
 641 0319 4889C7   		movq	%rax, %rdi
 642 031c E8000000 		call	_ZN8UnitTest11TestDetailsC1ERKS0_i
 642      00
 643              		.loc 4 45 0 is_stmt 0 discriminator 1
 644 0321 48C78590 		movq	$19, -624(%rbp)
 644      FDFFFF13 
 644      000000
 645 032c E8000000 		call	_ZN8UnitTest11CurrentTest7ResultsEv
 645      00
 646 0331 488B00   		movq	(%rax), %rax
 647 0334 488D95C0 		leaq	-576(%rbp), %rdx
 647      FDFFFF
 648 033b 488D8DA0 		leaq	-608(%rbp), %rcx
 648      FDFFFF
 649 0342 488D7908 		leaq	8(%rcx), %rdi
 650 0346 488DB590 		leaq	-624(%rbp), %rsi
 650      FDFFFF
 651 034d 4889D1   		movq	%rdx, %rcx
 652 0350 4889FA   		movq	%rdi, %rdx
 653 0353 4889C7   		movq	%rax, %rdi
 654 0356 E8000000 		call	_ZN8UnitTest10CheckEqualImmEEvRNS_11TestResultsERKT_RKT0_RKNS_11TestDetailsE
 654      00
 655              	.LEHE20:
 656              	.L35:
 657              	.LEHB21:
  46:testBinIO.cpp **** 	CHECK_ARRAY_EQUAL(DATA, buf.data, (int)buf.length);
 658              		.loc 4 46 0 is_stmt 1
 659 035b E8000000 		call	_ZN8UnitTest11CurrentTest7DetailsEv
 659      00
 660 0360 488B08   		movq	(%rax), %rcx
 661 0363 488D85C0 		leaq	-576(%rbp), %rax
 661      FDFFFF
 662 036a BA2E0000 		movl	$46, %edx
 662      00
 663 036f 4889CE   		movq	%rcx, %rsi
 664 0372 4889C7   		movq	%rax, %rdi
 665 0375 E8000000 		call	_ZN8UnitTest11TestDetailsC1ERKS0_i
 665      00
 666              		.loc 4 46 0 is_stmt 0 discriminator 1
 667 037a 488B85A8 		movq	-600(%rbp), %rax
 667      FDFFFF
 668 0381 89C3     		movl	%eax, %ebx
 669 0383 E8000000 		call	_ZN8UnitTest11CurrentTest7ResultsEv
 669      00
 670 0388 488B00   		movq	(%rax), %rax
 671 038b 488D8DC0 		leaq	-576(%rbp), %rcx
 671      FDFFFF
 672 0392 488D95A0 		leaq	-608(%rbp), %rdx
 672      FDFFFF
 673 0399 488DB588 		leaq	-632(%rbp), %rsi
 673      FDFFFF
 674 03a0 4989C8   		movq	%rcx, %r8
 675 03a3 89D9     		movl	%ebx, %ecx
 676 03a5 4889C7   		movq	%rax, %rdi
 677 03a8 E8000000 		call	_ZN8UnitTest15CheckArrayEqualIPKcPhEEvRNS_11TestResultsERKT_RKT0_iRKNS_11TestDetailsE
 677      00
 678              	.LEHE21:
 679              	.L38:
  47:testBinIO.cpp **** 	status = bufAppendFromBinaryFile(&buf, FILENAME, NULL);
 680              		.loc 4 47 0 is_stmt 1
 681 03ad 488D85A0 		leaq	-608(%rbp), %rax
 681      FDFFFF
 682 03b4 BA000000 		movl	$0, %edx
 682      00
 683 03b9 BE000000 		movl	$.LC7, %esi
 683      00
 684 03be 4889C7   		movq	%rax, %rdi
 685              	.LEHB22:
 686 03c1 E8000000 		call	bufAppendFromBinaryFile
 686      00
 687              	.LEHE22:
 688 03c6 898584FD 		movl	%eax, -636(%rbp)
 688      FFFF
 689              	.LEHB23:
  48:testBinIO.cpp **** 	CHECK_EQUAL(BUF_SUCCESS, status);
 690              		.loc 4 48 0
 691 03cc E8000000 		call	_ZN8UnitTest11CurrentTest7DetailsEv
 691      00
 692              		.loc 4 48 0 is_stmt 0 discriminator 1
 693 03d1 488B08   		movq	(%rax), %rcx
 694 03d4 488D85C0 		leaq	-576(%rbp), %rax
 694      FDFFFF
 695 03db BA300000 		movl	$48, %edx
 695      00
 696 03e0 4889CE   		movq	%rcx, %rsi
 697 03e3 4889C7   		movq	%rax, %rdi
 698 03e6 E8000000 		call	_ZN8UnitTest11TestDetailsC1ERKS0_i
 698      00
 699 03eb C78590FD 		movl	$0, -624(%rbp)
 699      FFFF0000 
 699      0000
 700 03f5 E8000000 		call	_ZN8UnitTest11CurrentTest7ResultsEv
 700      00
 701 03fa 488B00   		movq	(%rax), %rax
 702 03fd 488D8DC0 		leaq	-576(%rbp), %rcx
 702      FDFFFF
 703 0404 488D9584 		leaq	-636(%rbp), %rdx
 703      FDFFFF
 704 040b 488DB590 		leaq	-624(%rbp), %rsi
 704      FDFFFF
 705 0412 4889C7   		movq	%rax, %rdi
 706 0415 E8000000 		call	_ZN8UnitTest10CheckEqualI12BufferStatusS1_EEvRNS_11TestResultsERKT_RKT0_RKNS_11TestDetailsE
 706      00
 707              	.LEHE23:
 708              	.L41:
 709              	.LEHB24:
  49:testBinIO.cpp **** 	CHECK_EQUAL(2 * strlen(DATA), buf.length);
 710              		.loc 4 49 0 is_stmt 1
 711 041a E8000000 		call	_ZN8UnitTest11CurrentTest7DetailsEv
 711      00
 712 041f 488B08   		movq	(%rax), %rcx
 713 0422 488D85C0 		leaq	-576(%rbp), %rax
 713      FDFFFF
 714 0429 BA310000 		movl	$49, %edx
 714      00
 715 042e 4889CE   		movq	%rcx, %rsi
 716 0431 4889C7   		movq	%rax, %rdi
 717 0434 E8000000 		call	_ZN8UnitTest11TestDetailsC1ERKS0_i
 717      00
 718              		.loc 4 49 0 is_stmt 0 discriminator 1
 719 0439 48C78590 		movq	$38, -624(%rbp)
 719      FDFFFF26 
 719      000000
 720 0444 E8000000 		call	_ZN8UnitTest11CurrentTest7ResultsEv
 720      00
 721 0449 488B00   		movq	(%rax), %rax
 722 044c 488D95C0 		leaq	-576(%rbp), %rdx
 722      FDFFFF
 723 0453 488D8DA0 		leaq	-608(%rbp), %rcx
 723      FDFFFF
 724 045a 488D7908 		leaq	8(%rcx), %rdi
 725 045e 488DB590 		leaq	-624(%rbp), %rsi
 725      FDFFFF
 726 0465 4889D1   		movq	%rdx, %rcx
 727 0468 4889FA   		movq	%rdi, %rdx
 728 046b 4889C7   		movq	%rax, %rdi
 729 046e E8000000 		call	_ZN8UnitTest10CheckEqualImmEEvRNS_11TestResultsERKT_RKT0_RKNS_11TestDetailsE
 729      00
 730              	.LEHE24:
 731              	.L44:
 732              	.LEHB25:
  50:testBinIO.cpp **** 	CHECK_ARRAY_EQUAL(DATA, buf.data + strlen(DATA), (int)strlen(DATA));
 733              		.loc 4 50 0 is_stmt 1
 734 0473 E8000000 		call	_ZN8UnitTest11CurrentTest7DetailsEv
 734      00
 735 0478 488B08   		movq	(%rax), %rcx
 736 047b 488D85C0 		leaq	-576(%rbp), %rax
 736      FDFFFF
 737 0482 BA320000 		movl	$50, %edx
 737      00
 738 0487 4889CE   		movq	%rcx, %rsi
 739 048a 4889C7   		movq	%rax, %rdi
 740 048d E8000000 		call	_ZN8UnitTest11TestDetailsC1ERKS0_i
 740      00
 741              		.loc 4 50 0 is_stmt 0 discriminator 1
 742 0492 488B85A0 		movq	-608(%rbp), %rax
 742      FDFFFF
 743 0499 4883C013 		addq	$19, %rax
 744 049d 48898590 		movq	%rax, -624(%rbp)
 744      FDFFFF
 745 04a4 E8000000 		call	_ZN8UnitTest11CurrentTest7ResultsEv
 745      00
 746 04a9 488B00   		movq	(%rax), %rax
 747 04ac 488D8DC0 		leaq	-576(%rbp), %rcx
 747      FDFFFF
 748 04b3 488D9590 		leaq	-624(%rbp), %rdx
 748      FDFFFF
 749 04ba 488DB588 		leaq	-632(%rbp), %rsi
 749      FDFFFF
 750 04c1 4989C8   		movq	%rcx, %r8
 751 04c4 B9130000 		movl	$19, %ecx
 751      00
 752 04c9 4889C7   		movq	%rax, %rdi
 753 04cc E8000000 		call	_ZN8UnitTest15CheckArrayEqualIPKcPhEEvRNS_11TestResultsERKT_RKT0_iRKNS_11TestDetailsE
 753      00
 754              	.LEHE25:
 755              	.L47:
  51:testBinIO.cpp **** 	bufDestroy(&buf);
 756              		.loc 4 51 0 is_stmt 1
 757 04d1 488D85A0 		leaq	-608(%rbp), %rax
 757      FDFFFF
 758 04d8 4889C7   		movq	%rax, %rdi
 759              	.LEHB26:
 760 04db E8000000 		call	bufDestroy
 760      00
 761              	.LEHE26:
 762              		.loc 4 51 0 is_stmt 0 discriminator 1
 763 04e0 488D85E0 		leaq	-544(%rbp), %rax
 763      FDFFFF
 764 04e7 4889C7   		movq	%rax, %rdi
 765              	.LEHB27:
 766 04ea E8000000 		call	_ZNSt14basic_ofstreamIcSt11char_traitsIcEED1Ev
 766      00
 767              	.LEHE27:
 768              	.LBE7:
  52:testBinIO.cpp **** }
 769              		.loc 4 52 0 is_stmt 1 discriminator 1
 770 04ef 488B45E8 		movq	-24(%rbp), %rax
 771 04f3 64483304 		xorq	%fs:40, %rax
 771      25280000 
 771      00
 772 04fc 0F84AF02 		je	.L48
 772      0000
 773 0502 E9A50200 		jmp	.L64
 773      00
 774              	.L51:
 775 0507 4889C3   		movq	%rax, %rbx
 776              	.LBB8:
  39:testBinIO.cpp **** 	file.open(FILENAME, ios::out|ios::binary);
 777              		.loc 4 39 0
 778 050a E8000000 		call	__cxa_end_catch
 778      00
 779 050f E97E0200 		jmp	.L27
 779      00
 780              	.L50:
 781 0514 4889C7   		movq	%rax, %rdi
 782 0517 E8000000 		call	__cxa_begin_catch
 782      00
 783              	.LEHB28:
 784 051c E8000000 		call	_ZN8UnitTest11CurrentTest7DetailsEv
 784      00
 785 0521 488B08   		movq	(%rax), %rcx
 786 0524 488D85C0 		leaq	-576(%rbp), %rax
 786      FDFFFF
 787 052b BA270000 		movl	$39, %edx
 787      00
 788 0530 4889CE   		movq	%rcx, %rsi
 789 0533 4889C7   		movq	%rax, %rdi
 790 0536 E8000000 		call	_ZN8UnitTest11TestDetailsC1ERKS0_i
 790      00
  39:testBinIO.cpp **** 	file.open(FILENAME, ios::out|ios::binary);
 791              		.loc 4 39 0 is_stmt 0 discriminator 1
 792 053b E8000000 		call	_ZN8UnitTest11CurrentTest7ResultsEv
 792      00
 793 0540 488B00   		movq	(%rax), %rax
 794 0543 488D8DC0 		leaq	-576(%rbp), %rcx
 794      FDFFFF
 795 054a BA000000 		movl	$.LC4, %edx
 795      00
 796 054f 4889CE   		movq	%rcx, %rsi
 797 0552 4889C7   		movq	%rax, %rdi
 798 0555 E8000000 		call	_ZN8UnitTest11TestResults13OnTestFailureERKNS_11TestDetailsEPKc
 798      00
 799              	.LEHE28:
 800              	.LEHB29:
 801 055a E8000000 		call	__cxa_end_catch
 801      00
 802              	.LEHE29:
  39:testBinIO.cpp **** 	file.open(FILENAME, ios::out|ios::binary);
 803              		.loc 4 39 0
 804 055f E9E9FCFF 		jmp	.L29
 804      FF
 805              	.L53:
 806 0564 4889C3   		movq	%rax, %rbx
  44:testBinIO.cpp **** 	CHECK_EQUAL(strlen(DATA), buf.length);
 807              		.loc 4 44 0 is_stmt 1
 808 0567 E8000000 		call	__cxa_end_catch
 808      00
 809 056c E9210200 		jmp	.L27
 809      00
 810              	.L52:
 811 0571 4889C7   		movq	%rax, %rdi
 812 0574 E8000000 		call	__cxa_begin_catch
 812      00
 813              	.LEHB30:
 814 0579 E8000000 		call	_ZN8UnitTest11CurrentTest7DetailsEv
 814      00
 815 057e 488B08   		movq	(%rax), %rcx
 816 0581 488D85C0 		leaq	-576(%rbp), %rax
 816      FDFFFF
 817 0588 BA2C0000 		movl	$44, %edx
 817      00
 818 058d 4889CE   		movq	%rcx, %rsi
 819 0590 4889C7   		movq	%rax, %rdi
 820 0593 E8000000 		call	_ZN8UnitTest11TestDetailsC1ERKS0_i
 820      00
  44:testBinIO.cpp **** 	CHECK_EQUAL(strlen(DATA), buf.length);
 821              		.loc 4 44 0 is_stmt 0 discriminator 1
 822 0598 E8000000 		call	_ZN8UnitTest11CurrentTest7ResultsEv
 822      00
 823 059d 488B00   		movq	(%rax), %rax
 824 05a0 488D8DC0 		leaq	-576(%rbp), %rcx
 824      FDFFFF
 825 05a7 BA000000 		movl	$.LC4, %edx
 825      00
 826 05ac 4889CE   		movq	%rcx, %rsi
 827 05af 4889C7   		movq	%rax, %rdi
 828 05b2 E8000000 		call	_ZN8UnitTest11TestResults13OnTestFailureERKNS_11TestDetailsEPKc
 828      00
 829              	.LEHE30:
 830              	.LEHB31:
 831 05b7 E8000000 		call	__cxa_end_catch
 831      00
 832              	.LEHE31:
  44:testBinIO.cpp **** 	CHECK_EQUAL(strlen(DATA), buf.length);
 833              		.loc 4 44 0
 834 05bc E941FDFF 		jmp	.L32
 834      FF
 835              	.L55:
 836 05c1 4889C3   		movq	%rax, %rbx
  45:testBinIO.cpp **** 	CHECK_ARRAY_EQUAL(DATA, buf.data, (int)buf.length);
 837              		.loc 4 45 0 is_stmt 1
 838 05c4 E8000000 		call	__cxa_end_catch
 838      00
 839 05c9 E9C40100 		jmp	.L27
 839      00
 840              	.L54:
 841 05ce 4889C7   		movq	%rax, %rdi
 842 05d1 E8000000 		call	__cxa_begin_catch
 842      00
 843              	.LEHB32:
 844 05d6 E8000000 		call	_ZN8UnitTest11CurrentTest7DetailsEv
 844      00
 845 05db 488B08   		movq	(%rax), %rcx
 846 05de 488D85C0 		leaq	-576(%rbp), %rax
 846      FDFFFF
 847 05e5 BA2D0000 		movl	$45, %edx
 847      00
 848 05ea 4889CE   		movq	%rcx, %rsi
 849 05ed 4889C7   		movq	%rax, %rdi
 850 05f0 E8000000 		call	_ZN8UnitTest11TestDetailsC1ERKS0_i
 850      00
  45:testBinIO.cpp **** 	CHECK_ARRAY_EQUAL(DATA, buf.data, (int)buf.length);
 851              		.loc 4 45 0 is_stmt 0 discriminator 1
 852 05f5 E8000000 		call	_ZN8UnitTest11CurrentTest7ResultsEv
 852      00
 853 05fa 488B00   		movq	(%rax), %rax
 854 05fd 488D8DC0 		leaq	-576(%rbp), %rcx
 854      FDFFFF
 855 0604 BA000000 		movl	$.LC9, %edx
 855      00
 856 0609 4889CE   		movq	%rcx, %rsi
 857 060c 4889C7   		movq	%rax, %rdi
 858 060f E8000000 		call	_ZN8UnitTest11TestResults13OnTestFailureERKNS_11TestDetailsEPKc
 858      00
 859              	.LEHE32:
 860              	.LEHB33:
 861 0614 E8000000 		call	__cxa_end_catch
 861      00
 862              	.LEHE33:
  45:testBinIO.cpp **** 	CHECK_ARRAY_EQUAL(DATA, buf.data, (int)buf.length);
 863              		.loc 4 45 0
 864 0619 E93DFDFF 		jmp	.L35
 864      FF
 865              	.L57:
 866 061e 4889C3   		movq	%rax, %rbx
  46:testBinIO.cpp **** 	status = bufAppendFromBinaryFile(&buf, FILENAME, NULL);
 867              		.loc 4 46 0 is_stmt 1
 868 0621 E8000000 		call	__cxa_end_catch
 868      00
 869 0626 E9670100 		jmp	.L27
 869      00
 870              	.L56:
 871 062b 4889C7   		movq	%rax, %rdi
 872 062e E8000000 		call	__cxa_begin_catch
 872      00
 873              	.LEHB34:
 874 0633 E8000000 		call	_ZN8UnitTest11CurrentTest7DetailsEv
 874      00
 875 0638 488B08   		movq	(%rax), %rcx
 876 063b 488D85C0 		leaq	-576(%rbp), %rax
 876      FDFFFF
 877 0642 BA2E0000 		movl	$46, %edx
 877      00
 878 0647 4889CE   		movq	%rcx, %rsi
 879 064a 4889C7   		movq	%rax, %rdi
 880 064d E8000000 		call	_ZN8UnitTest11TestDetailsC1ERKS0_i
 880      00
  46:testBinIO.cpp **** 	status = bufAppendFromBinaryFile(&buf, FILENAME, NULL);
 881              		.loc 4 46 0 is_stmt 0 discriminator 1
 882 0652 E8000000 		call	_ZN8UnitTest11CurrentTest7ResultsEv
 882      00
 883 0657 488B00   		movq	(%rax), %rax
 884 065a 488D8DC0 		leaq	-576(%rbp), %rcx
 884      FDFFFF
 885 0661 BA000000 		movl	$.LC10, %edx
 885      00
 886 0666 4889CE   		movq	%rcx, %rsi
 887 0669 4889C7   		movq	%rax, %rdi
 888 066c E8000000 		call	_ZN8UnitTest11TestResults13OnTestFailureERKNS_11TestDetailsEPKc
 888      00
 889              	.LEHE34:
 890              	.LEHB35:
 891 0671 E8000000 		call	__cxa_end_catch
 891      00
 892              	.LEHE35:
  46:testBinIO.cpp **** 	status = bufAppendFromBinaryFile(&buf, FILENAME, NULL);
 893              		.loc 4 46 0
 894 0676 E932FDFF 		jmp	.L38
 894      FF
 895              	.L59:
 896 067b 4889C3   		movq	%rax, %rbx
  48:testBinIO.cpp **** 	CHECK_EQUAL(2 * strlen(DATA), buf.length);
 897              		.loc 4 48 0 is_stmt 1
 898 067e E8000000 		call	__cxa_end_catch
 898      00
 899 0683 E90A0100 		jmp	.L27
 899      00
 900              	.L58:
 901 0688 4889C7   		movq	%rax, %rdi
 902 068b E8000000 		call	__cxa_begin_catch
 902      00
 903              	.LEHB36:
 904 0690 E8000000 		call	_ZN8UnitTest11CurrentTest7DetailsEv
 904      00
 905 0695 488B08   		movq	(%rax), %rcx
 906 0698 488D85C0 		leaq	-576(%rbp), %rax
 906      FDFFFF
 907 069f BA300000 		movl	$48, %edx
 907      00
 908 06a4 4889CE   		movq	%rcx, %rsi
 909 06a7 4889C7   		movq	%rax, %rdi
 910 06aa E8000000 		call	_ZN8UnitTest11TestDetailsC1ERKS0_i
 910      00
  48:testBinIO.cpp **** 	CHECK_EQUAL(2 * strlen(DATA), buf.length);
 911              		.loc 4 48 0 is_stmt 0 discriminator 1
 912 06af E8000000 		call	_ZN8UnitTest11CurrentTest7ResultsEv
 912      00
 913 06b4 488B00   		movq	(%rax), %rax
 914 06b7 488D8DC0 		leaq	-576(%rbp), %rcx
 914      FDFFFF
 915 06be BA000000 		movl	$.LC4, %edx
 915      00
 916 06c3 4889CE   		movq	%rcx, %rsi
 917 06c6 4889C7   		movq	%rax, %rdi
 918 06c9 E8000000 		call	_ZN8UnitTest11TestResults13OnTestFailureERKNS_11TestDetailsEPKc
 918      00
 919              	.LEHE36:
 920              	.LEHB37:
 921 06ce E8000000 		call	__cxa_end_catch
 921      00
 922              	.LEHE37:
  48:testBinIO.cpp **** 	CHECK_EQUAL(2 * strlen(DATA), buf.length);
 923              		.loc 4 48 0
 924 06d3 E942FDFF 		jmp	.L41
 924      FF
 925              	.L61:
 926 06d8 4889C3   		movq	%rax, %rbx
  49:testBinIO.cpp **** 	CHECK_ARRAY_EQUAL(DATA, buf.data + strlen(DATA), (int)strlen(DATA));
 927              		.loc 4 49 0 is_stmt 1
 928 06db E8000000 		call	__cxa_end_catch
 928      00
 929 06e0 E9AD0000 		jmp	.L27
 929      00
 930              	.L60:
 931 06e5 4889C7   		movq	%rax, %rdi
 932 06e8 E8000000 		call	__cxa_begin_catch
 932      00
 933              	.LEHB38:
 934 06ed E8000000 		call	_ZN8UnitTest11CurrentTest7DetailsEv
 934      00
 935 06f2 488B08   		movq	(%rax), %rcx
 936 06f5 488D85C0 		leaq	-576(%rbp), %rax
 936      FDFFFF
 937 06fc BA310000 		movl	$49, %edx
 937      00
 938 0701 4889CE   		movq	%rcx, %rsi
 939 0704 4889C7   		movq	%rax, %rdi
 940 0707 E8000000 		call	_ZN8UnitTest11TestDetailsC1ERKS0_i
 940      00
  49:testBinIO.cpp **** 	CHECK_ARRAY_EQUAL(DATA, buf.data + strlen(DATA), (int)strlen(DATA));
 941              		.loc 4 49 0 is_stmt 0 discriminator 1
 942 070c E8000000 		call	_ZN8UnitTest11CurrentTest7ResultsEv
 942      00
 943 0711 488B00   		movq	(%rax), %rax
 944 0714 488D8DC0 		leaq	-576(%rbp), %rcx
 944      FDFFFF
 945 071b BA000000 		movl	$.LC11, %edx
 945      00
 946 0720 4889CE   		movq	%rcx, %rsi
 947 0723 4889C7   		movq	%rax, %rdi
 948 0726 E8000000 		call	_ZN8UnitTest11TestResults13OnTestFailureERKNS_11TestDetailsEPKc
 948      00
 949              	.LEHE38:
 950              	.LEHB39:
 951 072b E8000000 		call	__cxa_end_catch
 951      00
 952              	.LEHE39:
  49:testBinIO.cpp **** 	CHECK_ARRAY_EQUAL(DATA, buf.data + strlen(DATA), (int)strlen(DATA));
 953              		.loc 4 49 0
 954 0730 E93EFDFF 		jmp	.L44
 954      FF
 955              	.L63:
 956 0735 4889C3   		movq	%rax, %rbx
  50:testBinIO.cpp **** 	bufDestroy(&buf);
 957              		.loc 4 50 0 is_stmt 1
 958 0738 E8000000 		call	__cxa_end_catch
 958      00
 959 073d EB53     		jmp	.L27
 960              	.L62:
 961 073f 4889C7   		movq	%rax, %rdi
 962 0742 E8000000 		call	__cxa_begin_catch
 962      00
 963              	.LEHB40:
 964 0747 E8000000 		call	_ZN8UnitTest11CurrentTest7DetailsEv
 964      00
 965 074c 488B08   		movq	(%rax), %rcx
 966 074f 488D85C0 		leaq	-576(%rbp), %rax
 966      FDFFFF
 967 0756 BA320000 		movl	$50, %edx
 967      00
 968 075b 4889CE   		movq	%rcx, %rsi
 969 075e 4889C7   		movq	%rax, %rdi
 970 0761 E8000000 		call	_ZN8UnitTest11TestDetailsC1ERKS0_i
 970      00
  50:testBinIO.cpp **** 	bufDestroy(&buf);
 971              		.loc 4 50 0 is_stmt 0 discriminator 1
 972 0766 E8000000 		call	_ZN8UnitTest11CurrentTest7ResultsEv
 972      00
 973 076b 488B00   		movq	(%rax), %rax
 974 076e 488D8DC0 		leaq	-576(%rbp), %rcx
 974      FDFFFF
 975 0775 BA000000 		movl	$.LC12, %edx
 975      00
 976 077a 4889CE   		movq	%rcx, %rsi
 977 077d 4889C7   		movq	%rax, %rdi
 978 0780 E8000000 		call	_ZN8UnitTest11TestResults13OnTestFailureERKNS_11TestDetailsEPKc
 978      00
 979              	.LEHE40:
 980              	.LEHB41:
 981 0785 E8000000 		call	__cxa_end_catch
 981      00
 982              	.LEHE41:
  50:testBinIO.cpp **** 	bufDestroy(&buf);
 983              		.loc 4 50 0
 984 078a E942FDFF 		jmp	.L47
 984      FF
 985              	.L49:
 986 078f 4889C3   		movq	%rax, %rbx
 987              	.L27:
  51:testBinIO.cpp **** }
 988              		.loc 4 51 0 is_stmt 1
 989 0792 488D85E0 		leaq	-544(%rbp), %rax
 989      FDFFFF
 990 0799 4889C7   		movq	%rax, %rdi
 991 079c E8000000 		call	_ZNSt14basic_ofstreamIcSt11char_traitsIcEED1Ev
 991      00
 992 07a1 4889D8   		movq	%rbx, %rax
 993 07a4 4889C7   		movq	%rax, %rdi
 994              	.LEHB42:
 995 07a7 E8000000 		call	_Unwind_Resume
 995      00
 996              	.LEHE42:
 997              	.L64:
 998              	.LBE8:
 999              		.loc 4 52 0
 1000 07ac E8000000 		call	__stack_chk_fail
 1000      00
 1001              	.L48:
 1002 07b1 4881C488 		addq	$648, %rsp
 1002      020000
 1003 07b8 5B       		popq	%rbx
 1004 07b9 5D       		popq	%rbp
 1005              		.cfi_def_cfa 7, 8
 1006 07ba C3       		ret
 1007              		.cfi_endproc
 1008              	.LFE1094:
 1009              		.section	.gcc_except_table
 1010              		.align 4
 1011              	.LLSDA1094:
 1012 0044 FF       		.byte	0xff
 1013 0045 03       		.byte	0x3
 1014 0046 AC01     		.uleb128 .LLSDATT1094-.LLSDATTD1094
 1015              	.LLSDATTD1094:
 1016 0048 01       		.byte	0x1
 1017 0049 A201     		.uleb128 .LLSDACSE1094-.LLSDACSB1094
 1018              	.LLSDACSB1094:
 1019 004b 42       		.uleb128 .LEHB15-.LFB1094
 1020 004c 05       		.uleb128 .LEHE15-.LEHB15
 1021 004d 00       		.uleb128 0
 1022 004e 00       		.uleb128 0
 1023 004f 60       		.uleb128 .LEHB16-.LFB1094
 1024 0050 05       		.uleb128 .LEHE16-.LEHB16
 1025 0051 FB0B     		.uleb128 .L49-.LFB1094
 1026 0053 00       		.uleb128 0
 1027 0054 6B       		.uleb128 .LEHB17-.LFB1094
 1028 0055 4E       		.uleb128 .LEHE17-.LEHB17
 1029 0056 8007     		.uleb128 .L50-.LFB1094
 1030 0058 01       		.uleb128 0x1
 1031 0059 D901     		.uleb128 .LEHB18-.LFB1094
 1032 005b 41       		.uleb128 .LEHE18-.LEHB18
 1033 005c FB0B     		.uleb128 .L49-.LFB1094
 1034 005e 00       		.uleb128 0
 1035 005f A002     		.uleb128 .LEHB19-.LFB1094
 1036 0061 4E       		.uleb128 .LEHE19-.LEHB19
 1037 0062 DD07     		.uleb128 .L52-.LFB1094
 1038 0064 01       		.uleb128 0x1
 1039 0065 EE02     		.uleb128 .LEHB20-.LFB1094
 1040 0067 59       		.uleb128 .LEHE20-.LEHB20
 1041 0068 BA08     		.uleb128 .L54-.LFB1094
 1042 006a 01       		.uleb128 0x1
 1043 006b C703     		.uleb128 .LEHB21-.LFB1094
 1044 006d 52       		.uleb128 .LEHE21-.LEHB21
 1045 006e 9709     		.uleb128 .L56-.LFB1094
 1046 0070 01       		.uleb128 0x1
 1047 0071 AD04     		.uleb128 .LEHB22-.LFB1094
 1048 0073 05       		.uleb128 .LEHE22-.LEHB22
 1049 0074 FB0B     		.uleb128 .L49-.LFB1094
 1050 0076 00       		.uleb128 0
 1051 0077 B804     		.uleb128 .LEHB23-.LFB1094
 1052 0079 4E       		.uleb128 .LEHE23-.LEHB23
 1053 007a F409     		.uleb128 .L58-.LFB1094
 1054 007c 01       		.uleb128 0x1
 1055 007d 8605     		.uleb128 .LEHB24-.LFB1094
 1056 007f 59       		.uleb128 .LEHE24-.LEHB24
 1057 0080 D10A     		.uleb128 .L60-.LFB1094
 1058 0082 01       		.uleb128 0x1
 1059 0083 DF05     		.uleb128 .LEHB25-.LFB1094
 1060 0085 5E       		.uleb128 .LEHE25-.LEHB25
 1061 0086 AB0B     		.uleb128 .L62-.LFB1094
 1062 0088 01       		.uleb128 0x1
 1063 0089 C706     		.uleb128 .LEHB26-.LFB1094
 1064 008b 05       		.uleb128 .LEHE26-.LEHB26
 1065 008c FB0B     		.uleb128 .L49-.LFB1094
 1066 008e 00       		.uleb128 0
 1067 008f D606     		.uleb128 .LEHB27-.LFB1094
 1068 0091 05       		.uleb128 .LEHE27-.LEHB27
 1069 0092 00       		.uleb128 0
 1070 0093 00       		.uleb128 0
 1071 0094 8807     		.uleb128 .LEHB28-.LFB1094
 1072 0096 3E       		.uleb128 .LEHE28-.LEHB28
 1073 0097 F306     		.uleb128 .L51-.LFB1094
 1074 0099 00       		.uleb128 0
 1075 009a C607     		.uleb128 .LEHB29-.LFB1094
 1076 009c 05       		.uleb128 .LEHE29-.LEHB29
 1077 009d FB0B     		.uleb128 .L49-.LFB1094
 1078 009f 00       		.uleb128 0
 1079 00a0 E507     		.uleb128 .LEHB30-.LFB1094
 1080 00a2 3E       		.uleb128 .LEHE30-.LEHB30
 1081 00a3 D007     		.uleb128 .L53-.LFB1094
 1082 00a5 00       		.uleb128 0
 1083 00a6 A308     		.uleb128 .LEHB31-.LFB1094
 1084 00a8 05       		.uleb128 .LEHE31-.LEHB31
 1085 00a9 FB0B     		.uleb128 .L49-.LFB1094
 1086 00ab 00       		.uleb128 0
 1087 00ac C208     		.uleb128 .LEHB32-.LFB1094
 1088 00ae 3E       		.uleb128 .LEHE32-.LEHB32
 1089 00af AD08     		.uleb128 .L55-.LFB1094
 1090 00b1 00       		.uleb128 0
 1091 00b2 8009     		.uleb128 .LEHB33-.LFB1094
 1092 00b4 05       		.uleb128 .LEHE33-.LEHB33
 1093 00b5 FB0B     		.uleb128 .L49-.LFB1094
 1094 00b7 00       		.uleb128 0
 1095 00b8 9F09     		.uleb128 .LEHB34-.LFB1094
 1096 00ba 3E       		.uleb128 .LEHE34-.LEHB34
 1097 00bb 8A09     		.uleb128 .L57-.LFB1094
 1098 00bd 00       		.uleb128 0
 1099 00be DD09     		.uleb128 .LEHB35-.LFB1094
 1100 00c0 05       		.uleb128 .LEHE35-.LEHB35
 1101 00c1 FB0B     		.uleb128 .L49-.LFB1094
 1102 00c3 00       		.uleb128 0
 1103 00c4 FC09     		.uleb128 .LEHB36-.LFB1094
 1104 00c6 3E       		.uleb128 .LEHE36-.LEHB36
 1105 00c7 E709     		.uleb128 .L59-.LFB1094
 1106 00c9 00       		.uleb128 0
 1107 00ca BA0A     		.uleb128 .LEHB37-.LFB1094
 1108 00cc 05       		.uleb128 .LEHE37-.LEHB37
 1109 00cd FB0B     		.uleb128 .L49-.LFB1094
 1110 00cf 00       		.uleb128 0
 1111 00d0 D90A     		.uleb128 .LEHB38-.LFB1094
 1112 00d2 3E       		.uleb128 .LEHE38-.LEHB38
 1113 00d3 C40A     		.uleb128 .L61-.LFB1094
 1114 00d5 00       		.uleb128 0
 1115 00d6 970B     		.uleb128 .LEHB39-.LFB1094
 1116 00d8 05       		.uleb128 .LEHE39-.LEHB39
 1117 00d9 FB0B     		.uleb128 .L49-.LFB1094
 1118 00db 00       		.uleb128 0
 1119 00dc B30B     		.uleb128 .LEHB40-.LFB1094
 1120 00de 3E       		.uleb128 .LEHE40-.LEHB40
 1121 00df A10B     		.uleb128 .L63-.LFB1094
 1122 00e1 00       		.uleb128 0
 1123 00e2 F10B     		.uleb128 .LEHB41-.LFB1094
 1124 00e4 05       		.uleb128 .LEHE41-.LEHB41
 1125 00e5 FB0B     		.uleb128 .L49-.LFB1094
 1126 00e7 00       		.uleb128 0
 1127 00e8 930C     		.uleb128 .LEHB42-.LFB1094
 1128 00ea 05       		.uleb128 .LEHE42-.LEHB42
 1129 00eb 00       		.uleb128 0
 1130 00ec 00       		.uleb128 0
 1131              	.LLSDACSE1094:
 1132 00ed 01       		.byte	0x1
 1133 00ee 00       		.byte	0
 1134 00ef 00       		.align 4
 1135 00f0 00000000 		.long	0
 1136              	
 1137              	.LLSDATT1094:
 1138              		.text
 1140              		.section	.rodata
 1141              	.LC13:
 1142 0210 42696E49 		.string	"BinIO_testWriteFile"
 1142      4F5F7465 
 1142      73745772 
 1142      69746546 
 1142      696C6500 
 1143              		.section	.text._ZN23TestBinIO_testWriteFileC2Ev,"axG",@progbits,_ZN23TestBinIO_testWriteFileC5Ev,c
 1144              		.align 2
 1145              		.weak	_ZN23TestBinIO_testWriteFileC2Ev
 1147              	_ZN23TestBinIO_testWriteFileC2Ev:
 1148              	.LFB1096:
  53:testBinIO.cpp **** 
  54:testBinIO.cpp **** TEST(BinIO_testWriteFile) {
 1149              		.loc 4 54 0
 1150              		.cfi_startproc
 1151 0000 55       		pushq	%rbp
 1152              		.cfi_def_cfa_offset 16
 1153              		.cfi_offset 6, -16
 1154 0001 4889E5   		movq	%rsp, %rbp
 1155              		.cfi_def_cfa_register 6
 1156 0004 4883EC10 		subq	$16, %rsp
 1157 0008 48897DF8 		movq	%rdi, -8(%rbp)
 1158              	.LBB9:
 1159              		.loc 4 54 0
 1160 000c E8000000 		call	_ZN13UnitTestSuite12GetSuiteNameEv
 1160      00
 1161 0011 4889C2   		movq	%rax, %rdx
 1162 0014 488B45F8 		movq	-8(%rbp), %rax
 1163 0018 41B83600 		movl	$54, %r8d
 1163      0000
 1164 001e B9000000 		movl	$.LC1, %ecx
 1164      00
 1165 0023 BE000000 		movl	$.LC13, %esi
 1165      00
 1166 0028 4889C7   		movq	%rax, %rdi
 1167 002b E8000000 		call	_ZN8UnitTest4TestC2EPKcS2_S2_i
 1167      00
 1168 0030 488B45F8 		movq	-8(%rbp), %rax
 1169 0034 48C70000 		movq	$_ZTV23TestBinIO_testWriteFile+16, (%rax)
 1169      000000
 1170              	.LBE9:
 1171 003b C9       		leave
 1172              		.cfi_def_cfa 7, 8
 1173 003c C3       		ret
 1174              		.cfi_endproc
 1175              	.LFE1096:
 1177              		.weak	_ZN23TestBinIO_testWriteFileC1Ev
 1178              		.set	_ZN23TestBinIO_testWriteFileC1Ev,_ZN23TestBinIO_testWriteFileC2Ev
 1179              		.globl	testBinIO_testWriteFileInstance
 1180              		.bss
 1181 0079 00000000 		.align 32
 1181      000000
 1184              	testBinIO_testWriteFileInstance:
 1185 0080 00000000 		.zero	56
 1185      00000000 
 1185      00000000 
 1185      00000000 
 1185      00000000 
 1186              		.globl	adderBinIO_testWriteFile
 1189              	adderBinIO_testWriteFile:
 1190 00b8 00       		.zero	1
 1191              		.section	.rodata
 1192              	.LC14:
 1193 0224 66696C65 		.string	"file.is_open()"
 1193      2E69735F 
 1193      6F70656E 
 1193      282900
 1194 0233 00000000 		.align 8
 1194      00
 1195              	.LC15:
 1196 0238 556E6861 		.string	"Unhandled exception in CHECK(file.is_open())"
 1196      6E646C65 
 1196      64206578 
 1196      63657074 
 1196      696F6E20 
 1197 0265 000000   		.align 8
 1198              	.LC16:
 1199 0268 556E6861 		.string	"Unhandled exception in CHECK_EQUAL(strlen(DATA), (size_t)length)"
 1199      6E646C65 
 1199      64206578 
 1199      63657074 
 1199      696F6E20 
 1200 02a9 00000000 		.align 8
 1200      000000
 1201              	.LC17:
 1202 02b0 556E6861 		.string	"Unhandled exception in CHECK_ARRAY_EQUAL(DATA, fileData)"
 1202      6E646C65 
 1202      64206578 
 1202      63657074 
 1202      696F6E20 
 1203 02e9 00000000 		.align 8
 1203      000000
 1204              	.LC18:
 1205 02f0 556E6861 		.string	"Unhandled exception in CHECK_EQUAL(9, length)"
 1205      6E646C65 
 1205      64206578 
 1205      63657074 
 1205      696F6E20 
 1206 031e 0000     		.align 8
 1207              	.LC19:
 1208 0320 556E6861 		.string	"Unhandled exception in CHECK_ARRAY_EQUAL(DATA+5, fileData)"
 1208      6E646C65 
 1208      64206578 
 1208      63657074 
 1208      696F6E20 
 1209              		.text
 1210 07bb 90       		.align 2
 1211              		.globl	_ZNK23TestBinIO_testWriteFile7RunImplEv
 1213              	_ZNK23TestBinIO_testWriteFile7RunImplEv:
 1214              	.LFB1098:
 1215              		.loc 4 54 0
 1216              		.cfi_startproc
 1217              		.cfi_personality 0x3,__gxx_personality_v0
 1218              		.cfi_lsda 0x3,.LLSDA1098
 1219 07bc 55       		pushq	%rbp
 1220              		.cfi_def_cfa_offset 16
 1221              		.cfi_offset 6, -16
 1222 07bd 4889E5   		movq	%rsp, %rbp
 1223              		.cfi_def_cfa_register 6
 1224 07c0 53       		pushq	%rbx
 1225 07c1 4881ECB8 		subq	$696, %rsp
 1225      020000
 1226              		.cfi_offset 3, -24
 1227 07c8 4889BD48 		movq	%rdi, -696(%rbp)
 1227      FDFFFF
 1228              		.loc 4 54 0
 1229 07cf 64488B04 		movq	%fs:40, %rax
 1229      25280000 
 1229      00
 1230 07d8 488945E8 		movq	%rax, -24(%rbp)
 1231 07dc 31C0     		xorl	%eax, %eax
 1232              	.LBB10:
  55:testBinIO.cpp **** 	const char *const FILENAME = "tmpFile.bin";
 1233              		.loc 4 55 0
 1234 07de 48C78578 		movq	$.LC7, -648(%rbp)
 1234      FDFFFF00 
 1234      000000
  56:testBinIO.cpp **** 	const char *const DATA = "Just some test data";
 1235              		.loc 4 56 0
 1236 07e9 48C78558 		movq	$.LC8, -680(%rbp)
 1236      FDFFFF00 
 1236      000000
  57:testBinIO.cpp **** 	ifstream file;
 1237              		.loc 4 57 0
 1238 07f4 488D85E0 		leaq	-544(%rbp), %rax
 1238      FDFFFF
 1239 07fb 4889C7   		movq	%rax, %rdi
 1240              	.LEHB43:
 1241 07fe E8000000 		call	_ZNSt14basic_ifstreamIcSt11char_traitsIcEEC1Ev
 1241      00
 1242              	.LEHE43:
  58:testBinIO.cpp **** 	streamoff length;
  59:testBinIO.cpp **** 	//ifstream::pos_type length;
  60:testBinIO.cpp **** 	char *fileData;
  61:testBinIO.cpp **** 	Buffer buf;
  62:testBinIO.cpp **** 	BufferStatus status = bufInitialise(&buf, 8, 0, NULL);
 1243              		.loc 4 62 0
 1244 0803 488D8580 		leaq	-640(%rbp), %rax
 1244      FDFFFF
 1245 080a B9000000 		movl	$0, %ecx
 1245      00
 1246 080f BA000000 		movl	$0, %edx
 1246      00
 1247 0814 BE080000 		movl	$8, %esi
 1247      00
 1248 0819 4889C7   		movq	%rax, %rdi
 1249              	.LEHB44:
 1250 081c E8000000 		call	bufInitialise
 1250      00
 1251              	.LEHE44:
 1252 0821 898554FD 		movl	%eax, -684(%rbp)
 1252      FFFF
 1253              	.LEHB45:
  63:testBinIO.cpp **** 	CHECK_EQUAL(BUF_SUCCESS, status);
 1254              		.loc 4 63 0
 1255 0827 E8000000 		call	_ZN8UnitTest11CurrentTest7DetailsEv
 1255      00
 1256              		.loc 4 63 0 is_stmt 0 discriminator 1
 1257 082c 488B08   		movq	(%rax), %rcx
 1258 082f 488D85A0 		leaq	-608(%rbp), %rax
 1258      FDFFFF
 1259 0836 BA3F0000 		movl	$63, %edx
 1259      00
 1260 083b 4889CE   		movq	%rcx, %rsi
 1261 083e 4889C7   		movq	%rax, %rdi
 1262 0841 E8000000 		call	_ZN8UnitTest11TestDetailsC1ERKS0_i
 1262      00
 1263 0846 C78570FD 		movl	$0, -656(%rbp)
 1263      FFFF0000 
 1263      0000
 1264 0850 E8000000 		call	_ZN8UnitTest11CurrentTest7ResultsEv
 1264      00
 1265 0855 488B00   		movq	(%rax), %rax
 1266 0858 488D8DA0 		leaq	-608(%rbp), %rcx
 1266      FDFFFF
 1267 085f 488D9554 		leaq	-684(%rbp), %rdx
 1267      FDFFFF
 1268 0866 488DB570 		leaq	-656(%rbp), %rsi
 1268      FDFFFF
 1269 086d 4889C7   		movq	%rax, %rdi
 1270 0870 E8000000 		call	_ZN8UnitTest10CheckEqualI12BufferStatusS1_EEvRNS_11TestResultsERKT_RKT0_RKNS_11TestDetailsE
 1270      00
 1271              	.LEHE45:
 1272              	.L73:
  64:testBinIO.cpp **** 	status = bufAppendBlock(&buf, (const uint8 *)DATA, strlen(DATA), NULL);
 1273              		.loc 4 64 0 is_stmt 1
 1274 0875 488D8580 		leaq	-640(%rbp), %rax
 1274      FDFFFF
 1275 087c B9000000 		movl	$0, %ecx
 1275      00
 1276 0881 BA130000 		movl	$19, %edx
 1276      00
 1277 0886 BE000000 		movl	$.LC8, %esi
 1277      00
 1278 088b 4889C7   		movq	%rax, %rdi
 1279              	.LEHB46:
 1280 088e E8000000 		call	bufAppendBlock
 1280      00
 1281              	.LEHE46:
 1282 0893 898554FD 		movl	%eax, -684(%rbp)
 1282      FFFF
 1283              	.LEHB47:
  65:testBinIO.cpp **** 	CHECK_EQUAL(BUF_SUCCESS, status);
 1284              		.loc 4 65 0
 1285 0899 E8000000 		call	_ZN8UnitTest11CurrentTest7DetailsEv
 1285      00
 1286              		.loc 4 65 0 is_stmt 0 discriminator 1
 1287 089e 488B08   		movq	(%rax), %rcx
 1288 08a1 488D85A0 		leaq	-608(%rbp), %rax
 1288      FDFFFF
 1289 08a8 BA410000 		movl	$65, %edx
 1289      00
 1290 08ad 4889CE   		movq	%rcx, %rsi
 1291 08b0 4889C7   		movq	%rax, %rdi
 1292 08b3 E8000000 		call	_ZN8UnitTest11TestDetailsC1ERKS0_i
 1292      00
 1293 08b8 C78570FD 		movl	$0, -656(%rbp)
 1293      FFFF0000 
 1293      0000
 1294 08c2 E8000000 		call	_ZN8UnitTest11CurrentTest7ResultsEv
 1294      00
 1295 08c7 488B00   		movq	(%rax), %rax
 1296 08ca 488D8DA0 		leaq	-608(%rbp), %rcx
 1296      FDFFFF
 1297 08d1 488D9554 		leaq	-684(%rbp), %rdx
 1297      FDFFFF
 1298 08d8 488DB570 		leaq	-656(%rbp), %rsi
 1298      FDFFFF
 1299 08df 4889C7   		movq	%rax, %rdi
 1300 08e2 E8000000 		call	_ZN8UnitTest10CheckEqualI12BufferStatusS1_EEvRNS_11TestResultsERKT_RKT0_RKNS_11TestDetailsE
 1300      00
 1301              	.LEHE47:
 1302              	.L76:
  66:testBinIO.cpp **** 
  67:testBinIO.cpp **** 	status = bufWriteBinaryFile(&buf, FILENAME, 0, buf.length, NULL);
 1303              		.loc 4 67 0 is_stmt 1
 1304 08e7 488B9588 		movq	-632(%rbp), %rdx
 1304      FDFFFF
 1305 08ee 488D8580 		leaq	-640(%rbp), %rax
 1305      FDFFFF
 1306 08f5 41B80000 		movl	$0, %r8d
 1306      0000
 1307 08fb 4889D1   		movq	%rdx, %rcx
 1308 08fe BA000000 		movl	$0, %edx
 1308      00
 1309 0903 BE000000 		movl	$.LC7, %esi
 1309      00
 1310 0908 4889C7   		movq	%rax, %rdi
 1311              	.LEHB48:
 1312 090b E8000000 		call	bufWriteBinaryFile
 1312      00
 1313              	.LEHE48:
 1314 0910 898554FD 		movl	%eax, -684(%rbp)
 1314      FFFF
 1315              	.LEHB49:
  68:testBinIO.cpp **** 	CHECK_EQUAL(BUF_SUCCESS, status);
 1316              		.loc 4 68 0
 1317 0916 E8000000 		call	_ZN8UnitTest11CurrentTest7DetailsEv
 1317      00
 1318              		.loc 4 68 0 is_stmt 0 discriminator 1
 1319 091b 488B08   		movq	(%rax), %rcx
 1320 091e 488D85A0 		leaq	-608(%rbp), %rax
 1320      FDFFFF
 1321 0925 BA440000 		movl	$68, %edx
 1321      00
 1322 092a 4889CE   		movq	%rcx, %rsi
 1323 092d 4889C7   		movq	%rax, %rdi
 1324 0930 E8000000 		call	_ZN8UnitTest11TestDetailsC1ERKS0_i
 1324      00
 1325 0935 C78570FD 		movl	$0, -656(%rbp)
 1325      FFFF0000 
 1325      0000
 1326 093f E8000000 		call	_ZN8UnitTest11CurrentTest7ResultsEv
 1326      00
 1327 0944 488B00   		movq	(%rax), %rax
 1328 0947 488D8DA0 		leaq	-608(%rbp), %rcx
 1328      FDFFFF
 1329 094e 488D9554 		leaq	-684(%rbp), %rdx
 1329      FDFFFF
 1330 0955 488DB570 		leaq	-656(%rbp), %rsi
 1330      FDFFFF
 1331 095c 4889C7   		movq	%rax, %rdi
 1332 095f E8000000 		call	_ZN8UnitTest10CheckEqualI12BufferStatusS1_EEvRNS_11TestResultsERKT_RKT0_RKNS_11TestDetailsE
 1332      00
 1333              	.LEHE49:
 1334              	.L79:
  69:testBinIO.cpp **** 	file.open(FILENAME, ios::in|ios::binary|ios::ate);
 1335              		.loc 4 69 0 is_stmt 1
 1336 0964 BE040000 		movl	$4, %esi
 1336      00
 1337 0969 BF080000 		movl	$8, %edi
 1337      00
 1338 096e E8000000 		call	_ZStorSt13_Ios_OpenmodeS_
 1338      00
 1339 0973 BE020000 		movl	$2, %esi
 1339      00
 1340 0978 89C7     		movl	%eax, %edi
 1341 097a E8000000 		call	_ZStorSt13_Ios_OpenmodeS_
 1341      00
 1342 097f 89C2     		movl	%eax, %edx
 1343 0981 488D85E0 		leaq	-544(%rbp), %rax
 1343      FDFFFF
 1344 0988 BE000000 		movl	$.LC7, %esi
 1344      00
 1345 098d 4889C7   		movq	%rax, %rdi
 1346              	.LEHB50:
 1347 0990 E8000000 		call	_ZNSt14basic_ifstreamIcSt11char_traitsIcEE4openEPKcSt13_Ios_Openmode
 1347      00
 1348              	.LEHE50:
  70:testBinIO.cpp **** 	CHECK(file.is_open());
 1349              		.loc 4 70 0
 1350 0995 488D85E0 		leaq	-544(%rbp), %rax
 1350      FDFFFF
 1351 099c 4889C7   		movq	%rax, %rdi
 1352              	.LEHB51:
 1353 099f E8000000 		call	_ZNSt14basic_ifstreamIcSt11char_traitsIcEE7is_openEv
 1353      00
 1354 09a4 0FB6C0   		movzbl	%al, %eax
 1355 09a7 89C7     		movl	%eax, %edi
 1356 09a9 E8000000 		call	_ZN8UnitTest5CheckIbEEbT_
 1356      00
 1357 09ae 83F001   		xorl	$1, %eax
 1358 09b1 84C0     		testb	%al, %al
 1359 09b3 743E     		je	.L67
 1360              		.loc 4 70 0 is_stmt 0 discriminator 1
 1361 09b5 E8000000 		call	_ZN8UnitTest11CurrentTest7DetailsEv
 1361      00
 1362 09ba 488B08   		movq	(%rax), %rcx
 1363 09bd 488D85A0 		leaq	-608(%rbp), %rax
 1363      FDFFFF
 1364 09c4 BA460000 		movl	$70, %edx
 1364      00
 1365 09c9 4889CE   		movq	%rcx, %rsi
 1366 09cc 4889C7   		movq	%rax, %rdi
 1367 09cf E8000000 		call	_ZN8UnitTest11TestDetailsC1ERKS0_i
 1367      00
 1368 09d4 E8000000 		call	_ZN8UnitTest11CurrentTest7ResultsEv
 1368      00
 1369 09d9 488B00   		movq	(%rax), %rax
 1370 09dc 488D8DA0 		leaq	-608(%rbp), %rcx
 1370      FDFFFF
 1371 09e3 BA000000 		movl	$.LC14, %edx
 1371      00
 1372 09e8 4889CE   		movq	%rcx, %rsi
 1373 09eb 4889C7   		movq	%rax, %rdi
 1374 09ee E8000000 		call	_ZN8UnitTest11TestResults13OnTestFailureERKNS_11TestDetailsEPKc
 1374      00
 1375              	.LEHE51:
 1376              	.L67:
  71:testBinIO.cpp **** 	length = file.tellg();
 1377              		.loc 4 71 0 is_stmt 1
 1378 09f3 488D85E0 		leaq	-544(%rbp), %rax
 1378      FDFFFF
 1379 09fa 4889C7   		movq	%rax, %rdi
 1380              	.LEHB52:
 1381 09fd E8000000 		call	_ZNSi5tellgEv
 1381      00
 1382              	.LEHE52:
 1383 0a02 488985C0 		movq	%rax, -576(%rbp)
 1383      FDFFFF
 1384 0a09 488995C8 		movq	%rdx, -568(%rbp)
 1384      FDFFFF
 1385 0a10 488D85C0 		leaq	-576(%rbp), %rax
 1385      FDFFFF
 1386 0a17 4889C7   		movq	%rax, %rdi
 1387 0a1a E8000000 		call	_ZNKSt4fposI11__mbstate_tEcvlEv
 1387      00
 1388 0a1f 48898560 		movq	%rax, -672(%rbp)
 1388      FDFFFF
 1389              	.LEHB53:
  72:testBinIO.cpp **** 	CHECK_EQUAL(strlen(DATA), (size_t)length);
 1390              		.loc 4 72 0
 1391 0a26 E8000000 		call	_ZN8UnitTest11CurrentTest7DetailsEv
 1391      00
 1392              		.loc 4 72 0 is_stmt 0 discriminator 1
 1393 0a2b 488B08   		movq	(%rax), %rcx
 1394 0a2e 488D85A0 		leaq	-608(%rbp), %rax
 1394      FDFFFF
 1395 0a35 BA480000 		movl	$72, %edx
 1395      00
 1396 0a3a 4889CE   		movq	%rcx, %rsi
 1397 0a3d 4889C7   		movq	%rax, %rdi
 1398 0a40 E8000000 		call	_ZN8UnitTest11TestDetailsC1ERKS0_i
 1398      00
 1399 0a45 488B8560 		movq	-672(%rbp), %rax
 1399      FDFFFF
 1400 0a4c 48898570 		movq	%rax, -656(%rbp)
 1400      FDFFFF
 1401 0a53 48C78568 		movq	$19, -664(%rbp)
 1401      FDFFFF13 
 1401      000000
 1402 0a5e E8000000 		call	_ZN8UnitTest11CurrentTest7ResultsEv
 1402      00
 1403 0a63 488B00   		movq	(%rax), %rax
 1404 0a66 488D8DA0 		leaq	-608(%rbp), %rcx
 1404      FDFFFF
 1405 0a6d 488D9570 		leaq	-656(%rbp), %rdx
 1405      FDFFFF
 1406 0a74 488DB568 		leaq	-664(%rbp), %rsi
 1406      FDFFFF
 1407 0a7b 4889C7   		movq	%rax, %rdi
 1408 0a7e E8000000 		call	_ZN8UnitTest10CheckEqualImmEEvRNS_11TestResultsERKT_RKT0_RKNS_11TestDetailsE
 1408      00
 1409              	.LEHE53:
 1410              	.L84:
  73:testBinIO.cpp **** 	fileData = new char[(unsigned int)length];
 1411              		.loc 4 73 0 is_stmt 1
 1412 0a83 488B8560 		movq	-672(%rbp), %rax
 1412      FDFFFF
 1413 0a8a 89C0     		movl	%eax, %eax
 1414 0a8c 4889C7   		movq	%rax, %rdi
 1415              	.LEHB54:
 1416 0a8f E8000000 		call	_Znam
 1416      00
 1417 0a94 48898568 		movq	%rax, -664(%rbp)
 1417      FDFFFF
  74:testBinIO.cpp **** 	file.seekg(0, ios::beg);
 1418              		.loc 4 74 0
 1419 0a9b 488D85E0 		leaq	-544(%rbp), %rax
 1419      FDFFFF
 1420 0aa2 BA000000 		movl	$0, %edx
 1420      00
 1421 0aa7 BE000000 		movl	$0, %esi
 1421      00
 1422 0aac 4889C7   		movq	%rax, %rdi
 1423 0aaf E8000000 		call	_ZNSi5seekgElSt12_Ios_Seekdir
 1423      00
  75:testBinIO.cpp **** 	file.read(fileData, (streamsize)length);
 1424              		.loc 4 75 0
 1425 0ab4 488B9560 		movq	-672(%rbp), %rdx
 1425      FDFFFF
 1426 0abb 488B8D68 		movq	-664(%rbp), %rcx
 1426      FDFFFF
 1427 0ac2 488D85E0 		leaq	-544(%rbp), %rax
 1427      FDFFFF
 1428 0ac9 4889CE   		movq	%rcx, %rsi
 1429 0acc 4889C7   		movq	%rax, %rdi
 1430 0acf E8000000 		call	_ZNSi4readEPcl
 1430      00
  76:testBinIO.cpp **** 	file.close();
 1431              		.loc 4 76 0
 1432 0ad4 488D85E0 		leaq	-544(%rbp), %rax
 1432      FDFFFF
 1433 0adb 4889C7   		movq	%rax, %rdi
 1434 0ade E8000000 		call	_ZNSt14basic_ifstreamIcSt11char_traitsIcEE5closeEv
 1434      00
 1435              	.LEHE54:
 1436              	.LEHB55:
  77:testBinIO.cpp **** 	CHECK_ARRAY_EQUAL(DATA, fileData, (int)length);
 1437              		.loc 4 77 0
 1438 0ae3 E8000000 		call	_ZN8UnitTest11CurrentTest7DetailsEv
 1438      00
 1439 0ae8 488B08   		movq	(%rax), %rcx
 1440 0aeb 488D85A0 		leaq	-608(%rbp), %rax
 1440      FDFFFF
 1441 0af2 BA4D0000 		movl	$77, %edx
 1441      00
 1442 0af7 4889CE   		movq	%rcx, %rsi
 1443 0afa 4889C7   		movq	%rax, %rdi
 1444 0afd E8000000 		call	_ZN8UnitTest11TestDetailsC1ERKS0_i
 1444      00
 1445              		.loc 4 77 0 is_stmt 0 discriminator 1
 1446 0b02 488B8560 		movq	-672(%rbp), %rax
 1446      FDFFFF
 1447 0b09 89C3     		movl	%eax, %ebx
 1448 0b0b E8000000 		call	_ZN8UnitTest11CurrentTest7ResultsEv
 1448      00
 1449 0b10 488B00   		movq	(%rax), %rax
 1450 0b13 488D8DA0 		leaq	-608(%rbp), %rcx
 1450      FDFFFF
 1451 0b1a 488D9568 		leaq	-664(%rbp), %rdx
 1451      FDFFFF
 1452 0b21 488DB558 		leaq	-680(%rbp), %rsi
 1452      FDFFFF
 1453 0b28 4989C8   		movq	%rcx, %r8
 1454 0b2b 89D9     		movl	%ebx, %ecx
 1455 0b2d 4889C7   		movq	%rax, %rdi
 1456 0b30 E8000000 		call	_ZN8UnitTest15CheckArrayEqualIPKcPcEEvRNS_11TestResultsERKT_RKT0_iRKNS_11TestDetailsE
 1456      00
 1457              	.LEHE55:
 1458              	.L87:
  78:testBinIO.cpp **** 
  79:testBinIO.cpp **** 	status = bufWriteBinaryFile(&buf, FILENAME, 5, 9, NULL);
 1459              		.loc 4 79 0 is_stmt 1
 1460 0b35 488D8580 		leaq	-640(%rbp), %rax
 1460      FDFFFF
 1461 0b3c 41B80000 		movl	$0, %r8d
 1461      0000
 1462 0b42 B9090000 		movl	$9, %ecx
 1462      00
 1463 0b47 BA050000 		movl	$5, %edx
 1463      00
 1464 0b4c BE000000 		movl	$.LC7, %esi
 1464      00
 1465 0b51 4889C7   		movq	%rax, %rdi
 1466              	.LEHB56:
 1467 0b54 E8000000 		call	bufWriteBinaryFile
 1467      00
 1468              	.LEHE56:
 1469 0b59 898554FD 		movl	%eax, -684(%rbp)
 1469      FFFF
 1470              	.LEHB57:
  80:testBinIO.cpp **** 	CHECK_EQUAL(BUF_SUCCESS, status);
 1471              		.loc 4 80 0
 1472 0b5f E8000000 		call	_ZN8UnitTest11CurrentTest7DetailsEv
 1472      00
 1473              		.loc 4 80 0 is_stmt 0 discriminator 1
 1474 0b64 488B08   		movq	(%rax), %rcx
 1475 0b67 488D85A0 		leaq	-608(%rbp), %rax
 1475      FDFFFF
 1476 0b6e BA500000 		movl	$80, %edx
 1476      00
 1477 0b73 4889CE   		movq	%rcx, %rsi
 1478 0b76 4889C7   		movq	%rax, %rdi
 1479 0b79 E8000000 		call	_ZN8UnitTest11TestDetailsC1ERKS0_i
 1479      00
 1480 0b7e C78570FD 		movl	$0, -656(%rbp)
 1480      FFFF0000 
 1480      0000
 1481 0b88 E8000000 		call	_ZN8UnitTest11CurrentTest7ResultsEv
 1481      00
 1482 0b8d 488B00   		movq	(%rax), %rax
 1483 0b90 488D8DA0 		leaq	-608(%rbp), %rcx
 1483      FDFFFF
 1484 0b97 488D9554 		leaq	-684(%rbp), %rdx
 1484      FDFFFF
 1485 0b9e 488DB570 		leaq	-656(%rbp), %rsi
 1485      FDFFFF
 1486 0ba5 4889C7   		movq	%rax, %rdi
 1487 0ba8 E8000000 		call	_ZN8UnitTest10CheckEqualI12BufferStatusS1_EEvRNS_11TestResultsERKT_RKT0_RKNS_11TestDetailsE
 1487      00
 1488              	.LEHE57:
 1489              	.L90:
  81:testBinIO.cpp **** 	file.open(FILENAME, ios::in|ios::binary|ios::ate);
 1490              		.loc 4 81 0 is_stmt 1
 1491 0bad BE040000 		movl	$4, %esi
 1491      00
 1492 0bb2 BF080000 		movl	$8, %edi
 1492      00
 1493 0bb7 E8000000 		call	_ZStorSt13_Ios_OpenmodeS_
 1493      00
 1494 0bbc BE020000 		movl	$2, %esi
 1494      00
 1495 0bc1 89C7     		movl	%eax, %edi
 1496 0bc3 E8000000 		call	_ZStorSt13_Ios_OpenmodeS_
 1496      00
 1497 0bc8 89C2     		movl	%eax, %edx
 1498 0bca 488D85E0 		leaq	-544(%rbp), %rax
 1498      FDFFFF
 1499 0bd1 BE000000 		movl	$.LC7, %esi
 1499      00
 1500 0bd6 4889C7   		movq	%rax, %rdi
 1501              	.LEHB58:
 1502 0bd9 E8000000 		call	_ZNSt14basic_ifstreamIcSt11char_traitsIcEE4openEPKcSt13_Ios_Openmode
 1502      00
 1503              	.LEHE58:
  82:testBinIO.cpp **** 	CHECK(file.is_open());
 1504              		.loc 4 82 0
 1505 0bde 488D85E0 		leaq	-544(%rbp), %rax
 1505      FDFFFF
 1506 0be5 4889C7   		movq	%rax, %rdi
 1507              	.LEHB59:
 1508 0be8 E8000000 		call	_ZNSt14basic_ifstreamIcSt11char_traitsIcEE7is_openEv
 1508      00
 1509 0bed 0FB6C0   		movzbl	%al, %eax
 1510 0bf0 89C7     		movl	%eax, %edi
 1511 0bf2 E8000000 		call	_ZN8UnitTest5CheckIbEEbT_
 1511      00
 1512 0bf7 83F001   		xorl	$1, %eax
 1513 0bfa 84C0     		testb	%al, %al
 1514 0bfc 743E     		je	.L68
 1515              		.loc 4 82 0 is_stmt 0 discriminator 1
 1516 0bfe E8000000 		call	_ZN8UnitTest11CurrentTest7DetailsEv
 1516      00
 1517 0c03 488B08   		movq	(%rax), %rcx
 1518 0c06 488D85A0 		leaq	-608(%rbp), %rax
 1518      FDFFFF
 1519 0c0d BA520000 		movl	$82, %edx
 1519      00
 1520 0c12 4889CE   		movq	%rcx, %rsi
 1521 0c15 4889C7   		movq	%rax, %rdi
 1522 0c18 E8000000 		call	_ZN8UnitTest11TestDetailsC1ERKS0_i
 1522      00
 1523 0c1d E8000000 		call	_ZN8UnitTest11CurrentTest7ResultsEv
 1523      00
 1524 0c22 488B00   		movq	(%rax), %rax
 1525 0c25 488D8DA0 		leaq	-608(%rbp), %rcx
 1525      FDFFFF
 1526 0c2c BA000000 		movl	$.LC14, %edx
 1526      00
 1527 0c31 4889CE   		movq	%rcx, %rsi
 1528 0c34 4889C7   		movq	%rax, %rdi
 1529 0c37 E8000000 		call	_ZN8UnitTest11TestResults13OnTestFailureERKNS_11TestDetailsEPKc
 1529      00
 1530              	.LEHE59:
 1531              	.L68:
  83:testBinIO.cpp **** 	length = file.tellg();
 1532              		.loc 4 83 0 is_stmt 1
 1533 0c3c 488D85E0 		leaq	-544(%rbp), %rax
 1533      FDFFFF
 1534 0c43 4889C7   		movq	%rax, %rdi
 1535              	.LEHB60:
 1536 0c46 E8000000 		call	_ZNSi5tellgEv
 1536      00
 1537              	.LEHE60:
 1538 0c4b 488985D0 		movq	%rax, -560(%rbp)
 1538      FDFFFF
 1539 0c52 488995D8 		movq	%rdx, -552(%rbp)
 1539      FDFFFF
 1540 0c59 488D85D0 		leaq	-560(%rbp), %rax
 1540      FDFFFF
 1541 0c60 4889C7   		movq	%rax, %rdi
 1542 0c63 E8000000 		call	_ZNKSt4fposI11__mbstate_tEcvlEv
 1542      00
 1543 0c68 48898560 		movq	%rax, -672(%rbp)
 1543      FDFFFF
 1544              	.LEHB61:
  84:testBinIO.cpp **** 	CHECK_EQUAL(9, length);
 1545              		.loc 4 84 0
 1546 0c6f E8000000 		call	_ZN8UnitTest11CurrentTest7DetailsEv
 1546      00
 1547              		.loc 4 84 0 is_stmt 0 discriminator 1
 1548 0c74 488B08   		movq	(%rax), %rcx
 1549 0c77 488D85A0 		leaq	-608(%rbp), %rax
 1549      FDFFFF
 1550 0c7e BA540000 		movl	$84, %edx
 1550      00
 1551 0c83 4889CE   		movq	%rcx, %rsi
 1552 0c86 4889C7   		movq	%rax, %rdi
 1553 0c89 E8000000 		call	_ZN8UnitTest11TestDetailsC1ERKS0_i
 1553      00
 1554 0c8e C78570FD 		movl	$9, -656(%rbp)
 1554      FFFF0900 
 1554      0000
 1555 0c98 E8000000 		call	_ZN8UnitTest11CurrentTest7ResultsEv
 1555      00
 1556 0c9d 488B00   		movq	(%rax), %rax
 1557 0ca0 488D8DA0 		leaq	-608(%rbp), %rcx
 1557      FDFFFF
 1558 0ca7 488D9560 		leaq	-672(%rbp), %rdx
 1558      FDFFFF
 1559 0cae 488DB570 		leaq	-656(%rbp), %rsi
 1559      FDFFFF
 1560 0cb5 4889C7   		movq	%rax, %rdi
 1561 0cb8 E8000000 		call	_ZN8UnitTest10CheckEqualIilEEvRNS_11TestResultsERKT_RKT0_RKNS_11TestDetailsE
 1561      00
 1562              	.LEHE61:
 1563              	.L95:
  85:testBinIO.cpp **** 	file.seekg(0, ios::beg);
 1564              		.loc 4 85 0 is_stmt 1
 1565 0cbd 488D85E0 		leaq	-544(%rbp), %rax
 1565      FDFFFF
 1566 0cc4 BA000000 		movl	$0, %edx
 1566      00
 1567 0cc9 BE000000 		movl	$0, %esi
 1567      00
 1568 0cce 4889C7   		movq	%rax, %rdi
 1569              	.LEHB62:
 1570 0cd1 E8000000 		call	_ZNSi5seekgElSt12_Ios_Seekdir
 1570      00
  86:testBinIO.cpp **** 	file.read(fileData, (streamsize)length);
 1571              		.loc 4 86 0
 1572 0cd6 488B9560 		movq	-672(%rbp), %rdx
 1572      FDFFFF
 1573 0cdd 488B8D68 		movq	-664(%rbp), %rcx
 1573      FDFFFF
 1574 0ce4 488D85E0 		leaq	-544(%rbp), %rax
 1574      FDFFFF
 1575 0ceb 4889CE   		movq	%rcx, %rsi
 1576 0cee 4889C7   		movq	%rax, %rdi
 1577 0cf1 E8000000 		call	_ZNSi4readEPcl
 1577      00
  87:testBinIO.cpp **** 	file.close();
 1578              		.loc 4 87 0
 1579 0cf6 488D85E0 		leaq	-544(%rbp), %rax
 1579      FDFFFF
 1580 0cfd 4889C7   		movq	%rax, %rdi
 1581 0d00 E8000000 		call	_ZNSt14basic_ifstreamIcSt11char_traitsIcEE5closeEv
 1581      00
 1582              	.LEHE62:
 1583              	.LEHB63:
  88:testBinIO.cpp **** 	CHECK_ARRAY_EQUAL(DATA+5, fileData, (int)length);
 1584              		.loc 4 88 0
 1585 0d05 E8000000 		call	_ZN8UnitTest11CurrentTest7DetailsEv
 1585      00
 1586 0d0a 488B08   		movq	(%rax), %rcx
 1587 0d0d 488D85A0 		leaq	-608(%rbp), %rax
 1587      FDFFFF
 1588 0d14 BA580000 		movl	$88, %edx
 1588      00
 1589 0d19 4889CE   		movq	%rcx, %rsi
 1590 0d1c 4889C7   		movq	%rax, %rdi
 1591 0d1f E8000000 		call	_ZN8UnitTest11TestDetailsC1ERKS0_i
 1591      00
 1592              		.loc 4 88 0 is_stmt 0 discriminator 1
 1593 0d24 488B8560 		movq	-672(%rbp), %rax
 1593      FDFFFF
 1594 0d2b 89C3     		movl	%eax, %ebx
 1595 0d2d 48C78570 		movq	$.LC8+5, -656(%rbp)
 1595      FDFFFF00 
 1595      000000
 1596 0d38 E8000000 		call	_ZN8UnitTest11CurrentTest7ResultsEv
 1596      00
 1597 0d3d 488B00   		movq	(%rax), %rax
 1598 0d40 488D8DA0 		leaq	-608(%rbp), %rcx
 1598      FDFFFF
 1599 0d47 488D9568 		leaq	-664(%rbp), %rdx
 1599      FDFFFF
 1600 0d4e 488DB570 		leaq	-656(%rbp), %rsi
 1600      FDFFFF
 1601 0d55 4989C8   		movq	%rcx, %r8
 1602 0d58 89D9     		movl	%ebx, %ecx
 1603 0d5a 4889C7   		movq	%rax, %rdi
 1604 0d5d E8000000 		call	_ZN8UnitTest15CheckArrayEqualIPKcPcEEvRNS_11TestResultsERKT_RKT0_iRKNS_11TestDetailsE
 1604      00
 1605              	.LEHE63:
 1606              	.L98:
  89:testBinIO.cpp **** 
  90:testBinIO.cpp **** 	delete[] fileData;
 1607              		.loc 4 90 0 is_stmt 1
 1608 0d62 488B8568 		movq	-664(%rbp), %rax
 1608      FDFFFF
 1609 0d69 4885C0   		testq	%rax, %rax
 1610 0d6c 740F     		je	.L69
 1611              		.loc 4 90 0 is_stmt 0 discriminator 1
 1612 0d6e 488B8568 		movq	-664(%rbp), %rax
 1612      FDFFFF
 1613 0d75 4889C7   		movq	%rax, %rdi
 1614 0d78 E8000000 		call	_ZdaPv
 1614      00
 1615              	.L69:
  91:testBinIO.cpp **** 	bufDestroy(&buf);
 1616              		.loc 4 91 0 is_stmt 1
 1617 0d7d 488D8580 		leaq	-640(%rbp), %rax
 1617      FDFFFF
 1618 0d84 4889C7   		movq	%rax, %rdi
 1619              	.LEHB64:
 1620 0d87 E8000000 		call	bufDestroy
 1620      00
 1621              	.LEHE64:
 1622              		.loc 4 91 0 is_stmt 0 discriminator 1
 1623 0d8c 488D85E0 		leaq	-544(%rbp), %rax
 1623      FDFFFF
 1624 0d93 4889C7   		movq	%rax, %rdi
 1625              	.LEHB65:
 1626 0d96 E8000000 		call	_ZNSt14basic_ifstreamIcSt11char_traitsIcEED1Ev
 1626      00
 1627              	.LEHE65:
 1628              	.LBE10:
  92:testBinIO.cpp **** }
 1629              		.loc 4 92 0 is_stmt 1 discriminator 1
 1630 0d9b 488B45E8 		movq	-24(%rbp), %rax
 1631 0d9f 64483304 		xorq	%fs:40, %rax
 1631      25280000 
 1631      00
 1632 0da8 0F84C603 		je	.L99
 1632      0000
 1633 0dae E9BC0300 		jmp	.L121
 1633      00
 1634              	.L102:
 1635 0db3 4889C3   		movq	%rax, %rbx
 1636              	.LBB11:
  63:testBinIO.cpp **** 	status = bufAppendBlock(&buf, (const uint8 *)DATA, strlen(DATA), NULL);
 1637              		.loc 4 63 0
 1638 0db6 E8000000 		call	__cxa_end_catch
 1638      00
 1639 0dbb E9950300 		jmp	.L71
 1639      00
 1640              	.L101:
 1641 0dc0 4889C7   		movq	%rax, %rdi
 1642 0dc3 E8000000 		call	__cxa_begin_catch
 1642      00
 1643              	.LEHB66:
 1644 0dc8 E8000000 		call	_ZN8UnitTest11CurrentTest7DetailsEv
 1644      00
 1645 0dcd 488B08   		movq	(%rax), %rcx
 1646 0dd0 488D85A0 		leaq	-608(%rbp), %rax
 1646      FDFFFF
 1647 0dd7 BA3F0000 		movl	$63, %edx
 1647      00
 1648 0ddc 4889CE   		movq	%rcx, %rsi
 1649 0ddf 4889C7   		movq	%rax, %rdi
 1650 0de2 E8000000 		call	_ZN8UnitTest11TestDetailsC1ERKS0_i
 1650      00
  63:testBinIO.cpp **** 	status = bufAppendBlock(&buf, (const uint8 *)DATA, strlen(DATA), NULL);
 1651              		.loc 4 63 0 is_stmt 0 discriminator 1
 1652 0de7 E8000000 		call	_ZN8UnitTest11CurrentTest7ResultsEv
 1652      00
 1653 0dec 488B00   		movq	(%rax), %rax
 1654 0def 488D8DA0 		leaq	-608(%rbp), %rcx
 1654      FDFFFF
 1655 0df6 BA000000 		movl	$.LC4, %edx
 1655      00
 1656 0dfb 4889CE   		movq	%rcx, %rsi
 1657 0dfe 4889C7   		movq	%rax, %rdi
 1658 0e01 E8000000 		call	_ZN8UnitTest11TestResults13OnTestFailureERKNS_11TestDetailsEPKc
 1658      00
 1659              	.LEHE66:
 1660              	.LEHB67:
 1661 0e06 E8000000 		call	__cxa_end_catch
 1661      00
 1662              	.LEHE67:
  63:testBinIO.cpp **** 	status = bufAppendBlock(&buf, (const uint8 *)DATA, strlen(DATA), NULL);
 1663              		.loc 4 63 0
 1664 0e0b E965FAFF 		jmp	.L73
 1664      FF
 1665              	.L104:
 1666 0e10 4889C3   		movq	%rax, %rbx
  65:testBinIO.cpp **** 
 1667              		.loc 4 65 0 is_stmt 1
 1668 0e13 E8000000 		call	__cxa_end_catch
 1668      00
 1669 0e18 E9380300 		jmp	.L71
 1669      00
 1670              	.L103:
 1671 0e1d 4889C7   		movq	%rax, %rdi
 1672 0e20 E8000000 		call	__cxa_begin_catch
 1672      00
 1673              	.LEHB68:
 1674 0e25 E8000000 		call	_ZN8UnitTest11CurrentTest7DetailsEv
 1674      00
 1675 0e2a 488B08   		movq	(%rax), %rcx
 1676 0e2d 488D85A0 		leaq	-608(%rbp), %rax
 1676      FDFFFF
 1677 0e34 BA410000 		movl	$65, %edx
 1677      00
 1678 0e39 4889CE   		movq	%rcx, %rsi
 1679 0e3c 4889C7   		movq	%rax, %rdi
 1680 0e3f E8000000 		call	_ZN8UnitTest11TestDetailsC1ERKS0_i
 1680      00
  65:testBinIO.cpp **** 
 1681              		.loc 4 65 0 is_stmt 0 discriminator 1
 1682 0e44 E8000000 		call	_ZN8UnitTest11CurrentTest7ResultsEv
 1682      00
 1683 0e49 488B00   		movq	(%rax), %rax
 1684 0e4c 488D8DA0 		leaq	-608(%rbp), %rcx
 1684      FDFFFF
 1685 0e53 BA000000 		movl	$.LC4, %edx
 1685      00
 1686 0e58 4889CE   		movq	%rcx, %rsi
 1687 0e5b 4889C7   		movq	%rax, %rdi
 1688 0e5e E8000000 		call	_ZN8UnitTest11TestResults13OnTestFailureERKNS_11TestDetailsEPKc
 1688      00
 1689              	.LEHE68:
 1690              	.LEHB69:
 1691 0e63 E8000000 		call	__cxa_end_catch
 1691      00
 1692              	.LEHE69:
  65:testBinIO.cpp **** 
 1693              		.loc 4 65 0
 1694 0e68 E97AFAFF 		jmp	.L76
 1694      FF
 1695              	.L106:
 1696 0e6d 4889C3   		movq	%rax, %rbx
  68:testBinIO.cpp **** 	file.open(FILENAME, ios::in|ios::binary|ios::ate);
 1697              		.loc 4 68 0 is_stmt 1
 1698 0e70 E8000000 		call	__cxa_end_catch
 1698      00
 1699 0e75 E9DB0200 		jmp	.L71
 1699      00
 1700              	.L105:
 1701 0e7a 4889C7   		movq	%rax, %rdi
 1702 0e7d E8000000 		call	__cxa_begin_catch
 1702      00
 1703              	.LEHB70:
 1704 0e82 E8000000 		call	_ZN8UnitTest11CurrentTest7DetailsEv
 1704      00
 1705 0e87 488B08   		movq	(%rax), %rcx
 1706 0e8a 488D85A0 		leaq	-608(%rbp), %rax
 1706      FDFFFF
 1707 0e91 BA440000 		movl	$68, %edx
 1707      00
 1708 0e96 4889CE   		movq	%rcx, %rsi
 1709 0e99 4889C7   		movq	%rax, %rdi
 1710 0e9c E8000000 		call	_ZN8UnitTest11TestDetailsC1ERKS0_i
 1710      00
  68:testBinIO.cpp **** 	file.open(FILENAME, ios::in|ios::binary|ios::ate);
 1711              		.loc 4 68 0 is_stmt 0 discriminator 1
 1712 0ea1 E8000000 		call	_ZN8UnitTest11CurrentTest7ResultsEv
 1712      00
 1713 0ea6 488B00   		movq	(%rax), %rax
 1714 0ea9 488D8DA0 		leaq	-608(%rbp), %rcx
 1714      FDFFFF
 1715 0eb0 BA000000 		movl	$.LC4, %edx
 1715      00
 1716 0eb5 4889CE   		movq	%rcx, %rsi
 1717 0eb8 4889C7   		movq	%rax, %rdi
 1718 0ebb E8000000 		call	_ZN8UnitTest11TestResults13OnTestFailureERKNS_11TestDetailsEPKc
 1718      00
 1719              	.LEHE70:
 1720              	.LEHB71:
 1721 0ec0 E8000000 		call	__cxa_end_catch
 1721      00
 1722              	.LEHE71:
  68:testBinIO.cpp **** 	file.open(FILENAME, ios::in|ios::binary|ios::ate);
 1723              		.loc 4 68 0
 1724 0ec5 E99AFAFF 		jmp	.L79
 1724      FF
 1725              	.L108:
 1726 0eca 4889C3   		movq	%rax, %rbx
  70:testBinIO.cpp **** 	length = file.tellg();
 1727              		.loc 4 70 0 is_stmt 1
 1728 0ecd E8000000 		call	__cxa_end_catch
 1728      00
 1729 0ed2 E97E0200 		jmp	.L71
 1729      00
 1730              	.L107:
 1731 0ed7 4889C7   		movq	%rax, %rdi
 1732 0eda E8000000 		call	__cxa_begin_catch
 1732      00
 1733              	.LEHB72:
 1734 0edf E8000000 		call	_ZN8UnitTest11CurrentTest7DetailsEv
 1734      00
 1735 0ee4 488B08   		movq	(%rax), %rcx
 1736 0ee7 488D85A0 		leaq	-608(%rbp), %rax
 1736      FDFFFF
 1737 0eee BA460000 		movl	$70, %edx
 1737      00
 1738 0ef3 4889CE   		movq	%rcx, %rsi
 1739 0ef6 4889C7   		movq	%rax, %rdi
 1740 0ef9 E8000000 		call	_ZN8UnitTest11TestDetailsC1ERKS0_i
 1740      00
  70:testBinIO.cpp **** 	length = file.tellg();
 1741              		.loc 4 70 0 is_stmt 0 discriminator 1
 1742 0efe E8000000 		call	_ZN8UnitTest11CurrentTest7ResultsEv
 1742      00
 1743 0f03 488B00   		movq	(%rax), %rax
 1744 0f06 488D8DA0 		leaq	-608(%rbp), %rcx
 1744      FDFFFF
 1745 0f0d BA000000 		movl	$.LC15, %edx
 1745      00
 1746 0f12 4889CE   		movq	%rcx, %rsi
 1747 0f15 4889C7   		movq	%rax, %rdi
 1748 0f18 E8000000 		call	_ZN8UnitTest11TestResults13OnTestFailureERKNS_11TestDetailsEPKc
 1748      00
 1749              	.LEHE72:
 1750              	.LEHB73:
 1751 0f1d E8000000 		call	__cxa_end_catch
 1751      00
 1752              	.LEHE73:
  70:testBinIO.cpp **** 	length = file.tellg();
 1753              		.loc 4 70 0
 1754 0f22 E9CCFAFF 		jmp	.L67
 1754      FF
 1755              	.L110:
 1756 0f27 4889C3   		movq	%rax, %rbx
  72:testBinIO.cpp **** 	fileData = new char[(unsigned int)length];
 1757              		.loc 4 72 0 is_stmt 1
 1758 0f2a E8000000 		call	__cxa_end_catch
 1758      00
 1759 0f2f E9210200 		jmp	.L71
 1759      00
 1760              	.L109:
 1761 0f34 4889C7   		movq	%rax, %rdi
 1762 0f37 E8000000 		call	__cxa_begin_catch
 1762      00
 1763              	.LEHB74:
 1764 0f3c E8000000 		call	_ZN8UnitTest11CurrentTest7DetailsEv
 1764      00
 1765 0f41 488B08   		movq	(%rax), %rcx
 1766 0f44 488D85A0 		leaq	-608(%rbp), %rax
 1766      FDFFFF
 1767 0f4b BA480000 		movl	$72, %edx
 1767      00
 1768 0f50 4889CE   		movq	%rcx, %rsi
 1769 0f53 4889C7   		movq	%rax, %rdi
 1770 0f56 E8000000 		call	_ZN8UnitTest11TestDetailsC1ERKS0_i
 1770      00
  72:testBinIO.cpp **** 	fileData = new char[(unsigned int)length];
 1771              		.loc 4 72 0 is_stmt 0 discriminator 1
 1772 0f5b E8000000 		call	_ZN8UnitTest11CurrentTest7ResultsEv
 1772      00
 1773 0f60 488B00   		movq	(%rax), %rax
 1774 0f63 488D8DA0 		leaq	-608(%rbp), %rcx
 1774      FDFFFF
 1775 0f6a BA000000 		movl	$.LC16, %edx
 1775      00
 1776 0f6f 4889CE   		movq	%rcx, %rsi
 1777 0f72 4889C7   		movq	%rax, %rdi
 1778 0f75 E8000000 		call	_ZN8UnitTest11TestResults13OnTestFailureERKNS_11TestDetailsEPKc
 1778      00
 1779              	.LEHE74:
 1780              	.LEHB75:
 1781 0f7a E8000000 		call	__cxa_end_catch
 1781      00
 1782              	.LEHE75:
  72:testBinIO.cpp **** 	fileData = new char[(unsigned int)length];
 1783              		.loc 4 72 0
 1784 0f7f E9FFFAFF 		jmp	.L84
 1784      FF
 1785              	.L112:
 1786 0f84 4889C3   		movq	%rax, %rbx
  77:testBinIO.cpp **** 
 1787              		.loc 4 77 0 is_stmt 1
 1788 0f87 E8000000 		call	__cxa_end_catch
 1788      00
 1789 0f8c E9C40100 		jmp	.L71
 1789      00
 1790              	.L111:
 1791 0f91 4889C7   		movq	%rax, %rdi
 1792 0f94 E8000000 		call	__cxa_begin_catch
 1792      00
 1793              	.LEHB76:
 1794 0f99 E8000000 		call	_ZN8UnitTest11CurrentTest7DetailsEv
 1794      00
 1795 0f9e 488B08   		movq	(%rax), %rcx
 1796 0fa1 488D85A0 		leaq	-608(%rbp), %rax
 1796      FDFFFF
 1797 0fa8 BA4D0000 		movl	$77, %edx
 1797      00
 1798 0fad 4889CE   		movq	%rcx, %rsi
 1799 0fb0 4889C7   		movq	%rax, %rdi
 1800 0fb3 E8000000 		call	_ZN8UnitTest11TestDetailsC1ERKS0_i
 1800      00
  77:testBinIO.cpp **** 
 1801              		.loc 4 77 0 is_stmt 0 discriminator 1
 1802 0fb8 E8000000 		call	_ZN8UnitTest11CurrentTest7ResultsEv
 1802      00
 1803 0fbd 488B00   		movq	(%rax), %rax
 1804 0fc0 488D8DA0 		leaq	-608(%rbp), %rcx
 1804      FDFFFF
 1805 0fc7 BA000000 		movl	$.LC17, %edx
 1805      00
 1806 0fcc 4889CE   		movq	%rcx, %rsi
 1807 0fcf 4889C7   		movq	%rax, %rdi
 1808 0fd2 E8000000 		call	_ZN8UnitTest11TestResults13OnTestFailureERKNS_11TestDetailsEPKc
 1808      00
 1809              	.LEHE76:
 1810              	.LEHB77:
 1811 0fd7 E8000000 		call	__cxa_end_catch
 1811      00
 1812              	.LEHE77:
  77:testBinIO.cpp **** 
 1813              		.loc 4 77 0
 1814 0fdc E954FBFF 		jmp	.L87
 1814      FF
 1815              	.L114:
 1816 0fe1 4889C3   		movq	%rax, %rbx
  80:testBinIO.cpp **** 	file.open(FILENAME, ios::in|ios::binary|ios::ate);
 1817              		.loc 4 80 0 is_stmt 1
 1818 0fe4 E8000000 		call	__cxa_end_catch
 1818      00
 1819 0fe9 E9670100 		jmp	.L71
 1819      00
 1820              	.L113:
 1821 0fee 4889C7   		movq	%rax, %rdi
 1822 0ff1 E8000000 		call	__cxa_begin_catch
 1822      00
 1823              	.LEHB78:
 1824 0ff6 E8000000 		call	_ZN8UnitTest11CurrentTest7DetailsEv
 1824      00
 1825 0ffb 488B08   		movq	(%rax), %rcx
 1826 0ffe 488D85A0 		leaq	-608(%rbp), %rax
 1826      FDFFFF
 1827 1005 BA500000 		movl	$80, %edx
 1827      00
 1828 100a 4889CE   		movq	%rcx, %rsi
 1829 100d 4889C7   		movq	%rax, %rdi
 1830 1010 E8000000 		call	_ZN8UnitTest11TestDetailsC1ERKS0_i
 1830      00
  80:testBinIO.cpp **** 	file.open(FILENAME, ios::in|ios::binary|ios::ate);
 1831              		.loc 4 80 0 is_stmt 0 discriminator 1
 1832 1015 E8000000 		call	_ZN8UnitTest11CurrentTest7ResultsEv
 1832      00
 1833 101a 488B00   		movq	(%rax), %rax
 1834 101d 488D8DA0 		leaq	-608(%rbp), %rcx
 1834      FDFFFF
 1835 1024 BA000000 		movl	$.LC4, %edx
 1835      00
 1836 1029 4889CE   		movq	%rcx, %rsi
 1837 102c 4889C7   		movq	%rax, %rdi
 1838 102f E8000000 		call	_ZN8UnitTest11TestResults13OnTestFailureERKNS_11TestDetailsEPKc
 1838      00
 1839              	.LEHE78:
 1840              	.LEHB79:
 1841 1034 E8000000 		call	__cxa_end_catch
 1841      00
 1842              	.LEHE79:
  80:testBinIO.cpp **** 	file.open(FILENAME, ios::in|ios::binary|ios::ate);
 1843              		.loc 4 80 0
 1844 1039 E96FFBFF 		jmp	.L90
 1844      FF
 1845              	.L116:
 1846 103e 4889C3   		movq	%rax, %rbx
  82:testBinIO.cpp **** 	length = file.tellg();
 1847              		.loc 4 82 0 is_stmt 1
 1848 1041 E8000000 		call	__cxa_end_catch
 1848      00
 1849 1046 E90A0100 		jmp	.L71
 1849      00
 1850              	.L115:
 1851 104b 4889C7   		movq	%rax, %rdi
 1852 104e E8000000 		call	__cxa_begin_catch
 1852      00
 1853              	.LEHB80:
 1854 1053 E8000000 		call	_ZN8UnitTest11CurrentTest7DetailsEv
 1854      00
 1855 1058 488B08   		movq	(%rax), %rcx
 1856 105b 488D85A0 		leaq	-608(%rbp), %rax
 1856      FDFFFF
 1857 1062 BA520000 		movl	$82, %edx
 1857      00
 1858 1067 4889CE   		movq	%rcx, %rsi
 1859 106a 4889C7   		movq	%rax, %rdi
 1860 106d E8000000 		call	_ZN8UnitTest11TestDetailsC1ERKS0_i
 1860      00
  82:testBinIO.cpp **** 	length = file.tellg();
 1861              		.loc 4 82 0 is_stmt 0 discriminator 1
 1862 1072 E8000000 		call	_ZN8UnitTest11CurrentTest7ResultsEv
 1862      00
 1863 1077 488B00   		movq	(%rax), %rax
 1864 107a 488D8DA0 		leaq	-608(%rbp), %rcx
 1864      FDFFFF
 1865 1081 BA000000 		movl	$.LC15, %edx
 1865      00
 1866 1086 4889CE   		movq	%rcx, %rsi
 1867 1089 4889C7   		movq	%rax, %rdi
 1868 108c E8000000 		call	_ZN8UnitTest11TestResults13OnTestFailureERKNS_11TestDetailsEPKc
 1868      00
 1869              	.LEHE80:
 1870              	.LEHB81:
 1871 1091 E8000000 		call	__cxa_end_catch
 1871      00
 1872              	.LEHE81:
  82:testBinIO.cpp **** 	length = file.tellg();
 1873              		.loc 4 82 0
 1874 1096 E9A1FBFF 		jmp	.L68
 1874      FF
 1875              	.L118:
 1876 109b 4889C3   		movq	%rax, %rbx
  84:testBinIO.cpp **** 	file.seekg(0, ios::beg);
 1877              		.loc 4 84 0 is_stmt 1
 1878 109e E8000000 		call	__cxa_end_catch
 1878      00
 1879 10a3 E9AD0000 		jmp	.L71
 1879      00
 1880              	.L117:
 1881 10a8 4889C7   		movq	%rax, %rdi
 1882 10ab E8000000 		call	__cxa_begin_catch
 1882      00
 1883              	.LEHB82:
 1884 10b0 E8000000 		call	_ZN8UnitTest11CurrentTest7DetailsEv
 1884      00
 1885 10b5 488B08   		movq	(%rax), %rcx
 1886 10b8 488D85A0 		leaq	-608(%rbp), %rax
 1886      FDFFFF
 1887 10bf BA540000 		movl	$84, %edx
 1887      00
 1888 10c4 4889CE   		movq	%rcx, %rsi
 1889 10c7 4889C7   		movq	%rax, %rdi
 1890 10ca E8000000 		call	_ZN8UnitTest11TestDetailsC1ERKS0_i
 1890      00
  84:testBinIO.cpp **** 	file.seekg(0, ios::beg);
 1891              		.loc 4 84 0 is_stmt 0 discriminator 1
 1892 10cf E8000000 		call	_ZN8UnitTest11CurrentTest7ResultsEv
 1892      00
 1893 10d4 488B00   		movq	(%rax), %rax
 1894 10d7 488D8DA0 		leaq	-608(%rbp), %rcx
 1894      FDFFFF
 1895 10de BA000000 		movl	$.LC18, %edx
 1895      00
 1896 10e3 4889CE   		movq	%rcx, %rsi
 1897 10e6 4889C7   		movq	%rax, %rdi
 1898 10e9 E8000000 		call	_ZN8UnitTest11TestResults13OnTestFailureERKNS_11TestDetailsEPKc
 1898      00
 1899              	.LEHE82:
 1900              	.LEHB83:
 1901 10ee E8000000 		call	__cxa_end_catch
 1901      00
 1902              	.LEHE83:
  84:testBinIO.cpp **** 	file.seekg(0, ios::beg);
 1903              		.loc 4 84 0
 1904 10f3 E9C5FBFF 		jmp	.L95
 1904      FF
 1905              	.L120:
 1906 10f8 4889C3   		movq	%rax, %rbx
  88:testBinIO.cpp **** 
 1907              		.loc 4 88 0 is_stmt 1
 1908 10fb E8000000 		call	__cxa_end_catch
 1908      00
 1909 1100 EB53     		jmp	.L71
 1910              	.L119:
 1911 1102 4889C7   		movq	%rax, %rdi
 1912 1105 E8000000 		call	__cxa_begin_catch
 1912      00
 1913              	.LEHB84:
 1914 110a E8000000 		call	_ZN8UnitTest11CurrentTest7DetailsEv
 1914      00
 1915 110f 488B08   		movq	(%rax), %rcx
 1916 1112 488D85A0 		leaq	-608(%rbp), %rax
 1916      FDFFFF
 1917 1119 BA580000 		movl	$88, %edx
 1917      00
 1918 111e 4889CE   		movq	%rcx, %rsi
 1919 1121 4889C7   		movq	%rax, %rdi
 1920 1124 E8000000 		call	_ZN8UnitTest11TestDetailsC1ERKS0_i
 1920      00
  88:testBinIO.cpp **** 
 1921              		.loc 4 88 0 is_stmt 0 discriminator 1
 1922 1129 E8000000 		call	_ZN8UnitTest11CurrentTest7ResultsEv
 1922      00
 1923 112e 488B00   		movq	(%rax), %rax
 1924 1131 488D8DA0 		leaq	-608(%rbp), %rcx
 1924      FDFFFF
 1925 1138 BA000000 		movl	$.LC19, %edx
 1925      00
 1926 113d 4889CE   		movq	%rcx, %rsi
 1927 1140 4889C7   		movq	%rax, %rdi
 1928 1143 E8000000 		call	_ZN8UnitTest11TestResults13OnTestFailureERKNS_11TestDetailsEPKc
 1928      00
 1929              	.LEHE84:
 1930              	.LEHB85:
 1931 1148 E8000000 		call	__cxa_end_catch
 1931      00
 1932              	.LEHE85:
  88:testBinIO.cpp **** 
 1933              		.loc 4 88 0
 1934 114d E910FCFF 		jmp	.L98
 1934      FF
 1935              	.L100:
 1936 1152 4889C3   		movq	%rax, %rbx
 1937              	.L71:
  91:testBinIO.cpp **** }
 1938              		.loc 4 91 0 is_stmt 1
 1939 1155 488D85E0 		leaq	-544(%rbp), %rax
 1939      FDFFFF
 1940 115c 4889C7   		movq	%rax, %rdi
 1941 115f E8000000 		call	_ZNSt14basic_ifstreamIcSt11char_traitsIcEED1Ev
 1941      00
 1942 1164 4889D8   		movq	%rbx, %rax
 1943 1167 4889C7   		movq	%rax, %rdi
 1944              	.LEHB86:
 1945 116a E8000000 		call	_Unwind_Resume
 1945      00
 1946              	.LEHE86:
 1947              	.L121:
 1948              	.LBE11:
 1949              		.loc 4 92 0
 1950 116f E8000000 		call	__stack_chk_fail
 1950      00
 1951              	.L99:
 1952 1174 4881C4B8 		addq	$696, %rsp
 1952      020000
 1953 117b 5B       		popq	%rbx
 1954 117c 5D       		popq	%rbp
 1955              		.cfi_def_cfa 7, 8
 1956 117d C3       		ret
 1957              		.cfi_endproc
 1958              	.LFE1098:
 1959              		.section	.gcc_except_table
 1960              		.align 4
 1961              	.LLSDA1098:
 1962 00f4 FF       		.byte	0xff
 1963 00f5 03       		.byte	0x3
 1964 00f6 8C02     		.uleb128 .LLSDATT1098-.LLSDATTD1098
 1965              	.LLSDATTD1098:
 1966 00f8 01       		.byte	0x1
 1967 00f9 8202     		.uleb128 .LLSDACSE1098-.LLSDACSB1098
 1968              	.LLSDACSB1098:
 1969 00fb 42       		.uleb128 .LEHB43-.LFB1098
 1970 00fc 05       		.uleb128 .LEHE43-.LEHB43
 1971 00fd 00       		.uleb128 0
 1972 00fe 00       		.uleb128 0
 1973 00ff 60       		.uleb128 .LEHB44-.LFB1098
 1974 0100 05       		.uleb128 .LEHE44-.LEHB44
 1975 0101 9613     		.uleb128 .L100-.LFB1098
 1976 0103 00       		.uleb128 0
 1977 0104 6B       		.uleb128 .LEHB45-.LFB1098
 1978 0105 4E       		.uleb128 .LEHE45-.LEHB45
 1979 0106 840C     		.uleb128 .L101-.LFB1098
 1980 0108 01       		.uleb128 0x1
 1981 0109 D201     		.uleb128 .LEHB46-.LFB1098
 1982 010b 05       		.uleb128 .LEHE46-.LEHB46
 1983 010c 9613     		.uleb128 .L100-.LFB1098
 1984 010e 00       		.uleb128 0
 1985 010f DD01     		.uleb128 .LEHB47-.LFB1098
 1986 0111 4E       		.uleb128 .LEHE47-.LEHB47
 1987 0112 E10C     		.uleb128 .L103-.LFB1098
 1988 0114 01       		.uleb128 0x1
 1989 0115 CF02     		.uleb128 .LEHB48-.LFB1098
 1990 0117 05       		.uleb128 .LEHE48-.LEHB48
 1991 0118 9613     		.uleb128 .L100-.LFB1098
 1992 011a 00       		.uleb128 0
 1993 011b DA02     		.uleb128 .LEHB49-.LFB1098
 1994 011d 4E       		.uleb128 .LEHE49-.LEHB49
 1995 011e BE0D     		.uleb128 .L105-.LFB1098
 1996 0120 01       		.uleb128 0x1
 1997 0121 D403     		.uleb128 .LEHB50-.LFB1098
 1998 0123 05       		.uleb128 .LEHE50-.LEHB50
 1999 0124 9613     		.uleb128 .L100-.LFB1098
 2000 0126 00       		.uleb128 0
 2001 0127 E303     		.uleb128 .LEHB51-.LFB1098
 2002 0129 54       		.uleb128 .LEHE51-.LEHB51
 2003 012a 9B0E     		.uleb128 .L107-.LFB1098
 2004 012c 01       		.uleb128 0x1
 2005 012d C104     		.uleb128 .LEHB52-.LFB1098
 2006 012f 05       		.uleb128 .LEHE52-.LEHB52
 2007 0130 9613     		.uleb128 .L100-.LFB1098
 2008 0132 00       		.uleb128 0
 2009 0133 EA04     		.uleb128 .LEHB53-.LFB1098
 2010 0135 5D       		.uleb128 .LEHE53-.LEHB53
 2011 0136 F80E     		.uleb128 .L109-.LFB1098
 2012 0138 01       		.uleb128 0x1
 2013 0139 D305     		.uleb128 .LEHB54-.LFB1098
 2014 013b 54       		.uleb128 .LEHE54-.LEHB54
 2015 013c 9613     		.uleb128 .L100-.LFB1098
 2016 013e 00       		.uleb128 0
 2017 013f A706     		.uleb128 .LEHB55-.LFB1098
 2018 0141 52       		.uleb128 .LEHE55-.LEHB55
 2019 0142 D50F     		.uleb128 .L111-.LFB1098
 2020 0144 01       		.uleb128 0x1
 2021 0145 9807     		.uleb128 .LEHB56-.LFB1098
 2022 0147 05       		.uleb128 .LEHE56-.LEHB56
 2023 0148 9613     		.uleb128 .L100-.LFB1098
 2024 014a 00       		.uleb128 0
 2025 014b A307     		.uleb128 .LEHB57-.LFB1098
 2026 014d 4E       		.uleb128 .LEHE57-.LEHB57
 2027 014e B210     		.uleb128 .L113-.LFB1098
 2028 0150 01       		.uleb128 0x1
 2029 0151 9D08     		.uleb128 .LEHB58-.LFB1098
 2030 0153 05       		.uleb128 .LEHE58-.LEHB58
 2031 0154 9613     		.uleb128 .L100-.LFB1098
 2032 0156 00       		.uleb128 0
 2033 0157 AC08     		.uleb128 .LEHB59-.LFB1098
 2034 0159 54       		.uleb128 .LEHE59-.LEHB59
 2035 015a 8F11     		.uleb128 .L115-.LFB1098
 2036 015c 01       		.uleb128 0x1
 2037 015d 8A09     		.uleb128 .LEHB60-.LFB1098
 2038 015f 05       		.uleb128 .LEHE60-.LEHB60
 2039 0160 9613     		.uleb128 .L100-.LFB1098
 2040 0162 00       		.uleb128 0
 2041 0163 B309     		.uleb128 .LEHB61-.LFB1098
 2042 0165 4E       		.uleb128 .LEHE61-.LEHB61
 2043 0166 EC11     		.uleb128 .L117-.LFB1098
 2044 0168 01       		.uleb128 0x1
 2045 0169 950A     		.uleb128 .LEHB62-.LFB1098
 2046 016b 34       		.uleb128 .LEHE62-.LEHB62
 2047 016c 9613     		.uleb128 .L100-.LFB1098
 2048 016e 00       		.uleb128 0
 2049 016f C90A     		.uleb128 .LEHB63-.LFB1098
 2050 0171 5D       		.uleb128 .LEHE63-.LEHB63
 2051 0172 C612     		.uleb128 .L119-.LFB1098
 2052 0174 01       		.uleb128 0x1
 2053 0175 CB0B     		.uleb128 .LEHB64-.LFB1098
 2054 0177 05       		.uleb128 .LEHE64-.LEHB64
 2055 0178 9613     		.uleb128 .L100-.LFB1098
 2056 017a 00       		.uleb128 0
 2057 017b DA0B     		.uleb128 .LEHB65-.LFB1098
 2058 017d 05       		.uleb128 .LEHE65-.LEHB65
 2059 017e 00       		.uleb128 0
 2060 017f 00       		.uleb128 0
 2061 0180 8C0C     		.uleb128 .LEHB66-.LFB1098
 2062 0182 3E       		.uleb128 .LEHE66-.LEHB66
 2063 0183 F70B     		.uleb128 .L102-.LFB1098
 2064 0185 00       		.uleb128 0
 2065 0186 CA0C     		.uleb128 .LEHB67-.LFB1098
 2066 0188 05       		.uleb128 .LEHE67-.LEHB67
 2067 0189 9613     		.uleb128 .L100-.LFB1098
 2068 018b 00       		.uleb128 0
 2069 018c E90C     		.uleb128 .LEHB68-.LFB1098
 2070 018e 3E       		.uleb128 .LEHE68-.LEHB68
 2071 018f D40C     		.uleb128 .L104-.LFB1098
 2072 0191 00       		.uleb128 0
 2073 0192 A70D     		.uleb128 .LEHB69-.LFB1098
 2074 0194 05       		.uleb128 .LEHE69-.LEHB69
 2075 0195 9613     		.uleb128 .L100-.LFB1098
 2076 0197 00       		.uleb128 0
 2077 0198 C60D     		.uleb128 .LEHB70-.LFB1098
 2078 019a 3E       		.uleb128 .LEHE70-.LEHB70
 2079 019b B10D     		.uleb128 .L106-.LFB1098
 2080 019d 00       		.uleb128 0
 2081 019e 840E     		.uleb128 .LEHB71-.LFB1098
 2082 01a0 05       		.uleb128 .LEHE71-.LEHB71
 2083 01a1 9613     		.uleb128 .L100-.LFB1098
 2084 01a3 00       		.uleb128 0
 2085 01a4 A30E     		.uleb128 .LEHB72-.LFB1098
 2086 01a6 3E       		.uleb128 .LEHE72-.LEHB72
 2087 01a7 8E0E     		.uleb128 .L108-.LFB1098
 2088 01a9 00       		.uleb128 0
 2089 01aa E10E     		.uleb128 .LEHB73-.LFB1098
 2090 01ac 05       		.uleb128 .LEHE73-.LEHB73
 2091 01ad 9613     		.uleb128 .L100-.LFB1098
 2092 01af 00       		.uleb128 0
 2093 01b0 800F     		.uleb128 .LEHB74-.LFB1098
 2094 01b2 3E       		.uleb128 .LEHE74-.LEHB74
 2095 01b3 EB0E     		.uleb128 .L110-.LFB1098
 2096 01b5 00       		.uleb128 0
 2097 01b6 BE0F     		.uleb128 .LEHB75-.LFB1098
 2098 01b8 05       		.uleb128 .LEHE75-.LEHB75
 2099 01b9 9613     		.uleb128 .L100-.LFB1098
 2100 01bb 00       		.uleb128 0
 2101 01bc DD0F     		.uleb128 .LEHB76-.LFB1098
 2102 01be 3E       		.uleb128 .LEHE76-.LEHB76
 2103 01bf C80F     		.uleb128 .L112-.LFB1098
 2104 01c1 00       		.uleb128 0
 2105 01c2 9B10     		.uleb128 .LEHB77-.LFB1098
 2106 01c4 05       		.uleb128 .LEHE77-.LEHB77
 2107 01c5 9613     		.uleb128 .L100-.LFB1098
 2108 01c7 00       		.uleb128 0
 2109 01c8 BA10     		.uleb128 .LEHB78-.LFB1098
 2110 01ca 3E       		.uleb128 .LEHE78-.LEHB78
 2111 01cb A510     		.uleb128 .L114-.LFB1098
 2112 01cd 00       		.uleb128 0
 2113 01ce F810     		.uleb128 .LEHB79-.LFB1098
 2114 01d0 05       		.uleb128 .LEHE79-.LEHB79
 2115 01d1 9613     		.uleb128 .L100-.LFB1098
 2116 01d3 00       		.uleb128 0
 2117 01d4 9711     		.uleb128 .LEHB80-.LFB1098
 2118 01d6 3E       		.uleb128 .LEHE80-.LEHB80
 2119 01d7 8211     		.uleb128 .L116-.LFB1098
 2120 01d9 00       		.uleb128 0
 2121 01da D511     		.uleb128 .LEHB81-.LFB1098
 2122 01dc 05       		.uleb128 .LEHE81-.LEHB81
 2123 01dd 9613     		.uleb128 .L100-.LFB1098
 2124 01df 00       		.uleb128 0
 2125 01e0 F411     		.uleb128 .LEHB82-.LFB1098
 2126 01e2 3E       		.uleb128 .LEHE82-.LEHB82
 2127 01e3 DF11     		.uleb128 .L118-.LFB1098
 2128 01e5 00       		.uleb128 0
 2129 01e6 B212     		.uleb128 .LEHB83-.LFB1098
 2130 01e8 05       		.uleb128 .LEHE83-.LEHB83
 2131 01e9 9613     		.uleb128 .L100-.LFB1098
 2132 01eb 00       		.uleb128 0
 2133 01ec CE12     		.uleb128 .LEHB84-.LFB1098
 2134 01ee 3E       		.uleb128 .LEHE84-.LEHB84
 2135 01ef BC12     		.uleb128 .L120-.LFB1098
 2136 01f1 00       		.uleb128 0
 2137 01f2 8C13     		.uleb128 .LEHB85-.LFB1098
 2138 01f4 05       		.uleb128 .LEHE85-.LEHB85
 2139 01f5 9613     		.uleb128 .L100-.LFB1098
 2140 01f7 00       		.uleb128 0
 2141 01f8 AE13     		.uleb128 .LEHB86-.LFB1098
 2142 01fa 05       		.uleb128 .LEHE86-.LEHB86
 2143 01fb 00       		.uleb128 0
 2144 01fc 00       		.uleb128 0
 2145              	.LLSDACSE1098:
 2146 01fd 01       		.byte	0x1
 2147 01fe 00       		.byte	0
 2148 01ff 00       		.align 4
 2149 0200 00000000 		.long	0
 2150              	
 2151              	.LLSDATT1098:
 2152              		.text
 2154              		.section	.text._ZN8UnitTest15MemoryOutStreamD1Ev,"axG",@progbits,_ZN8UnitTest15MemoryOutStreamD1Ev
 2155              		.align 2
 2156              		.weak	_ZN8UnitTest15MemoryOutStreamD1Ev
 2158              	_ZN8UnitTest15MemoryOutStreamD1Ev:
 2159              	.LFB1129:
  13:/home/pandu/Desktop/DigitalLogicDesign/Lab/03-/makestuff/libs/libutpp/MemoryOutStream.h **** {
 2160              		.loc 3 13 0
 2161              		.cfi_startproc
 2162              		.cfi_personality 0x3,__gxx_personality_v0
 2163              		.cfi_lsda 0x3,.LLSDA1129
 2164 0000 55       		pushq	%rbp
 2165              		.cfi_def_cfa_offset 16
 2166              		.cfi_offset 6, -16
 2167 0001 4889E5   		movq	%rsp, %rbp
 2168              		.cfi_def_cfa_register 6
 2169 0004 53       		pushq	%rbx
 2170 0005 4883EC18 		subq	$24, %rsp
 2171              		.cfi_offset 3, -24
 2172 0009 48897DE8 		movq	%rdi, -24(%rbp)
 2173              	.LBB12:
  13:/home/pandu/Desktop/DigitalLogicDesign/Lab/03-/makestuff/libs/libutpp/MemoryOutStream.h **** {
 2174              		.loc 3 13 0
 2175 000d BA000000 		movl	$_ZTVN8UnitTest15MemoryOutStreamE+24, %edx
 2175      00
 2176 0012 488B45E8 		movq	-24(%rbp), %rax
 2177 0016 488910   		movq	%rdx, (%rax)
 2178 0019 BA600000 		movl	$96, %edx
 2178      00
 2179 001e 488B45E8 		movq	-24(%rbp), %rax
 2180 0022 4801C2   		addq	%rax, %rdx
 2181 0025 B8000000 		movl	$_ZTVN8UnitTest15MemoryOutStreamE+64, %eax
 2181      00
 2182 002a 488902   		movq	%rax, (%rdx)
 2183 002d 488B45E8 		movq	-24(%rbp), %rax
 2184 0031 4883C058 		addq	$88, %rax
 2185 0035 4889C7   		movq	%rax, %rdi
 2186              	.LEHB87:
 2187 0038 E8000000 		call	_ZNSsD1Ev
 2187      00
 2188              	.LEHE87:
  13:/home/pandu/Desktop/DigitalLogicDesign/Lab/03-/makestuff/libs/libutpp/MemoryOutStream.h **** {
 2189              		.loc 3 13 0 is_stmt 0 discriminator 10
 2190 003d BA000000 		movl	$_ZTTN8UnitTest15MemoryOutStreamE+8, %edx
 2190      00
 2191 0042 488B45E8 		movq	-24(%rbp), %rax
 2192 0046 4889D6   		movq	%rdx, %rsi
 2193 0049 4889C7   		movq	%rax, %rdi
 2194              	.LEHB88:
 2195 004c E8000000 		call	_ZNSt19basic_ostringstreamIcSt11char_traitsIcESaIcEED2Ev
 2195      00
 2196              	.LEHE88:
  13:/home/pandu/Desktop/DigitalLogicDesign/Lab/03-/makestuff/libs/libutpp/MemoryOutStream.h **** {
 2197              		.loc 3 13 0 discriminator 14
 2198 0051 B8020000 		movl	$2, %eax
 2198      00
 2199 0056 85C0     		testl	%eax, %eax
 2200 0058 7410     		je	.L123
  13:/home/pandu/Desktop/DigitalLogicDesign/Lab/03-/makestuff/libs/libutpp/MemoryOutStream.h **** {
 2201              		.loc 3 13 0 discriminator 15
 2202 005a 488B45E8 		movq	-24(%rbp), %rax
 2203 005e 4883C060 		addq	$96, %rax
 2204 0062 4889C7   		movq	%rax, %rdi
 2205              	.LEHB89:
 2206 0065 E8000000 		call	_ZNSt9basic_iosIcSt11char_traitsIcEED2Ev
 2206      00
 2207              	.LEHE89:
 2208              	.L123:
 2209              	.LBE12:
  13:/home/pandu/Desktop/DigitalLogicDesign/Lab/03-/makestuff/libs/libutpp/MemoryOutStream.h **** {
 2210              		.loc 3 13 0 discriminator 16
 2211 006a B8000000 		movl	$0, %eax
 2211      00
 2212 006f 85C0     		testl	%eax, %eax
 2213 0071 744E     		je	.L130
  13:/home/pandu/Desktop/DigitalLogicDesign/Lab/03-/makestuff/libs/libutpp/MemoryOutStream.h **** {
 2214              		.loc 3 13 0 discriminator 1
 2215 0073 488B45E8 		movq	-24(%rbp), %rax
 2216 0077 4889C7   		movq	%rax, %rdi
 2217 007a E8000000 		call	_ZdlPv
 2217      00
 2218 007f EB40     		jmp	.L130
 2219              	.L128:
 2220 0081 4889C3   		movq	%rax, %rbx
 2221              	.LBB13:
  13:/home/pandu/Desktop/DigitalLogicDesign/Lab/03-/makestuff/libs/libutpp/MemoryOutStream.h **** {
 2222              		.loc 3 13 0
 2223 0084 BA000000 		movl	$_ZTTN8UnitTest15MemoryOutStreamE+8, %edx
 2223      00
 2224 0089 488B45E8 		movq	-24(%rbp), %rax
 2225 008d 4889D6   		movq	%rdx, %rsi
 2226 0090 4889C7   		movq	%rax, %rdi
 2227 0093 E8000000 		call	_ZNSt19basic_ostringstreamIcSt11char_traitsIcESaIcEED2Ev
 2227      00
 2228 0098 EB03     		jmp	.L126
 2229              	.L129:
 2230 009a 4889C3   		movq	%rax, %rbx
 2231              	.L126:
 2232 009d B8020000 		movl	$2, %eax
 2232      00
 2233 00a2 85C0     		testl	%eax, %eax
 2234 00a4 7410     		je	.L127
  13:/home/pandu/Desktop/DigitalLogicDesign/Lab/03-/makestuff/libs/libutpp/MemoryOutStream.h **** {
 2235              		.loc 3 13 0 discriminator 20
 2236 00a6 488B45E8 		movq	-24(%rbp), %rax
 2237 00aa 4883C060 		addq	$96, %rax
 2238 00ae 4889C7   		movq	%rax, %rdi
 2239 00b1 E8000000 		call	_ZNSt9basic_iosIcSt11char_traitsIcEED2Ev
 2239      00
 2240              	.L127:
 2241 00b6 4889D8   		movq	%rbx, %rax
 2242 00b9 4889C7   		movq	%rax, %rdi
 2243              	.LEHB90:
 2244 00bc E8000000 		call	_Unwind_Resume
 2244      00
 2245              	.LEHE90:
 2246              	.L130:
 2247              	.LBE13:
  13:/home/pandu/Desktop/DigitalLogicDesign/Lab/03-/makestuff/libs/libutpp/MemoryOutStream.h **** {
 2248              		.loc 3 13 0
 2249 00c1 4883C418 		addq	$24, %rsp
 2250 00c5 5B       		popq	%rbx
 2251 00c6 5D       		popq	%rbp
 2252              		.cfi_def_cfa 7, 8
 2253 00c7 C3       		ret
 2254              		.cfi_endproc
 2255              	.LFE1129:
 2256              		.section	.gcc_except_table
 2257              	.LLSDA1129:
 2258 0204 FF       		.byte	0xff
 2259 0205 FF       		.byte	0xff
 2260 0206 01       		.byte	0x1
 2261 0207 13       		.uleb128 .LLSDACSE1129-.LLSDACSB1129
 2262              	.LLSDACSB1129:
 2263 0208 38       		.uleb128 .LEHB87-.LFB1129
 2264 0209 05       		.uleb128 .LEHE87-.LEHB87
 2265 020a 8101     		.uleb128 .L128-.LFB1129
 2266 020c 00       		.uleb128 0
 2267 020d 4C       		.uleb128 .LEHB88-.LFB1129
 2268 020e 05       		.uleb128 .LEHE88-.LEHB88
 2269 020f 9A01     		.uleb128 .L129-.LFB1129
 2270 0211 00       		.uleb128 0
 2271 0212 65       		.uleb128 .LEHB89-.LFB1129
 2272 0213 05       		.uleb128 .LEHE89-.LEHB89
 2273 0214 00       		.uleb128 0
 2274 0215 00       		.uleb128 0
 2275 0216 BC01     		.uleb128 .LEHB90-.LFB1129
 2276 0218 05       		.uleb128 .LEHE90-.LEHB90
 2277 0219 00       		.uleb128 0
 2278 021a 00       		.uleb128 0
 2279              	.LLSDACSE1129:
 2280              		.section	.text._ZN8UnitTest15MemoryOutStreamD1Ev,"axG",@progbits,_ZN8UnitTest15MemoryOutStreamD1Ev
 2282              		.set	.LTHUNK0,_ZN8UnitTest15MemoryOutStreamD1Ev
 2283              		.weak	_ZTv0_n24_N8UnitTest15MemoryOutStreamD1Ev
 2285              	_ZTv0_n24_N8UnitTest15MemoryOutStreamD1Ev:
 2286              	.LFB1234:
  13:/home/pandu/Desktop/DigitalLogicDesign/Lab/03-/makestuff/libs/libutpp/MemoryOutStream.h **** {
 2287              		.loc 3 13 0 is_stmt 1
 2288              		.cfi_startproc
 2289 00c8 4C8B17   		movq	(%rdi), %r10
 2290 00cb 49037AE8 		addq	-24(%r10), %rdi
 2291 00cf E92CFFFF 		jmp	.LTHUNK0
 2291      FF
 2292              		.cfi_endproc
 2293              	.LFE1234:
 2295              		.section	.text._ZN8UnitTest15MemoryOutStreamD0Ev,"axG",@progbits,_ZN8UnitTest15MemoryOutStreamD0Ev
 2296              		.align 2
 2297              		.weak	_ZN8UnitTest15MemoryOutStreamD0Ev
 2299              	_ZN8UnitTest15MemoryOutStreamD0Ev:
 2300              	.LFB1130:
  13:/home/pandu/Desktop/DigitalLogicDesign/Lab/03-/makestuff/libs/libutpp/MemoryOutStream.h **** {
 2301              		.loc 3 13 0
 2302              		.cfi_startproc
 2303 0000 55       		pushq	%rbp
 2304              		.cfi_def_cfa_offset 16
 2305              		.cfi_offset 6, -16
 2306 0001 4889E5   		movq	%rsp, %rbp
 2307              		.cfi_def_cfa_register 6
 2308 0004 4883EC10 		subq	$16, %rsp
 2309 0008 48897DF8 		movq	%rdi, -8(%rbp)
  13:/home/pandu/Desktop/DigitalLogicDesign/Lab/03-/makestuff/libs/libutpp/MemoryOutStream.h **** {
 2310              		.loc 3 13 0
 2311 000c 488B45F8 		movq	-8(%rbp), %rax
 2312 0010 4889C7   		movq	%rax, %rdi
 2313 0013 E8000000 		call	_ZN8UnitTest15MemoryOutStreamD1Ev
 2313      00
 2314 0018 488B45F8 		movq	-8(%rbp), %rax
 2315 001c 4889C7   		movq	%rax, %rdi
 2316 001f E8000000 		call	_ZdlPv
 2316      00
 2317 0024 C9       		leave
 2318              		.cfi_def_cfa 7, 8
 2319 0025 C3       		ret
 2320              		.cfi_endproc
 2321              	.LFE1130:
 2323              		.set	.LTHUNK1,_ZN8UnitTest15MemoryOutStreamD0Ev
 2324              		.weak	_ZTv0_n24_N8UnitTest15MemoryOutStreamD0Ev
 2326              	_ZTv0_n24_N8UnitTest15MemoryOutStreamD0Ev:
 2327              	.LFB1235:
  13:/home/pandu/Desktop/DigitalLogicDesign/Lab/03-/makestuff/libs/libutpp/MemoryOutStream.h **** {
 2328              		.loc 3 13 0
 2329              		.cfi_startproc
 2330 0026 4C8B17   		movq	(%rdi), %r10
 2331 0029 49037AE8 		addq	-24(%r10), %rdi
 2332 002d EBD1     		jmp	.LTHUNK1
 2333              		.cfi_endproc
 2334              	.LFE1235:
 2336              		.section	.rodata
 2337              	.LC20:
 2338 035b 45787065 		.string	"Expected "
 2338      63746564 
 2338      2000
 2339              	.LC21:
 2340 0365 20627574 		.string	" but was "
 2340      20776173 
 2340      2000
 2341              		.section	.text._ZN8UnitTest10CheckEqualI12BufferStatusS1_EEvRNS_11TestResultsERKT_RKT0_RKNS_11Test
 2342              		.weak	_ZN8UnitTest10CheckEqualI12BufferStatusS1_EEvRNS_11TestResultsERKT_RKT0_RKNS_11TestDetailsE
 2344              	_ZN8UnitTest10CheckEqualI12BufferStatusS1_EEvRNS_11TestResultsERKT_RKT0_RKNS_11TestDetailsE:
 2345              	.LFB1126:
 2346              		.file 5 "/home/pandu/Desktop/DigitalLogicDesign/Lab/03-/makestuff/libs/libutpp/Checks.h"
   1:/home/pandu/Desktop/DigitalLogicDesign/Lab/03-/makestuff/libs/libutpp/Checks.h **** #ifndef UNITTEST_CHECKS_H
   2:/home/pandu/Desktop/DigitalLogicDesign/Lab/03-/makestuff/libs/libutpp/Checks.h **** #define UNITTEST_CHECKS_H
   3:/home/pandu/Desktop/DigitalLogicDesign/Lab/03-/makestuff/libs/libutpp/Checks.h **** 
   4:/home/pandu/Desktop/DigitalLogicDesign/Lab/03-/makestuff/libs/libutpp/Checks.h **** #include "Config.h"
   5:/home/pandu/Desktop/DigitalLogicDesign/Lab/03-/makestuff/libs/libutpp/Checks.h **** #include "TestResults.h"
   6:/home/pandu/Desktop/DigitalLogicDesign/Lab/03-/makestuff/libs/libutpp/Checks.h **** #include "MemoryOutStream.h"
   7:/home/pandu/Desktop/DigitalLogicDesign/Lab/03-/makestuff/libs/libutpp/Checks.h **** 
   8:/home/pandu/Desktop/DigitalLogicDesign/Lab/03-/makestuff/libs/libutpp/Checks.h **** namespace UnitTest {
   9:/home/pandu/Desktop/DigitalLogicDesign/Lab/03-/makestuff/libs/libutpp/Checks.h **** 
  10:/home/pandu/Desktop/DigitalLogicDesign/Lab/03-/makestuff/libs/libutpp/Checks.h **** 
  11:/home/pandu/Desktop/DigitalLogicDesign/Lab/03-/makestuff/libs/libutpp/Checks.h **** template< typename Value >
  12:/home/pandu/Desktop/DigitalLogicDesign/Lab/03-/makestuff/libs/libutpp/Checks.h **** bool Check(Value const value)
  13:/home/pandu/Desktop/DigitalLogicDesign/Lab/03-/makestuff/libs/libutpp/Checks.h **** {
  14:/home/pandu/Desktop/DigitalLogicDesign/Lab/03-/makestuff/libs/libutpp/Checks.h ****     return !!value; // doing double negative to avoid silly VS warnings
  15:/home/pandu/Desktop/DigitalLogicDesign/Lab/03-/makestuff/libs/libutpp/Checks.h **** }
  16:/home/pandu/Desktop/DigitalLogicDesign/Lab/03-/makestuff/libs/libutpp/Checks.h **** 
  17:/home/pandu/Desktop/DigitalLogicDesign/Lab/03-/makestuff/libs/libutpp/Checks.h **** 
  18:/home/pandu/Desktop/DigitalLogicDesign/Lab/03-/makestuff/libs/libutpp/Checks.h **** template< typename Expected, typename Actual >
  19:/home/pandu/Desktop/DigitalLogicDesign/Lab/03-/makestuff/libs/libutpp/Checks.h **** void CheckEqual(TestResults& results, Expected const& expected, Actual const& actual, TestDetails c
 2347              		.loc 5 19 0
 2348              		.cfi_startproc
 2349              		.cfi_personality 0x3,__gxx_personality_v0
 2350              		.cfi_lsda 0x3,.LLSDA1126
 2351 0000 55       		pushq	%rbp
 2352              		.cfi_def_cfa_offset 16
 2353              		.cfi_offset 6, -16
 2354 0001 4889E5   		movq	%rsp, %rbp
 2355              		.cfi_def_cfa_register 6
 2356 0004 4154     		pushq	%r12
 2357 0006 53       		pushq	%rbx
 2358 0007 4881EC90 		subq	$400, %rsp
 2358      010000
 2359              		.cfi_offset 12, -24
 2360              		.cfi_offset 3, -32
 2361 000e 4889BD78 		movq	%rdi, -392(%rbp)
 2361      FEFFFF
 2362 0015 4889B570 		movq	%rsi, -400(%rbp)
 2362      FEFFFF
 2363 001c 48899568 		movq	%rdx, -408(%rbp)
 2363      FEFFFF
 2364 0023 48898D60 		movq	%rcx, -416(%rbp)
 2364      FEFFFF
 2365              	.LBB14:
 2366              	.LBB15:
  20:/home/pandu/Desktop/DigitalLogicDesign/Lab/03-/makestuff/libs/libutpp/Checks.h **** {
  21:/home/pandu/Desktop/DigitalLogicDesign/Lab/03-/makestuff/libs/libutpp/Checks.h ****     if (!(expected == actual))
 2367              		.loc 5 21 0
 2368 002a 488B8570 		movq	-400(%rbp), %rax
 2368      FEFFFF
 2369 0031 8B10     		movl	(%rax), %edx
 2370 0033 488B8568 		movq	-408(%rbp), %rax
 2370      FEFFFF
 2371 003a 8B00     		movl	(%rax), %eax
 2372 003c 39C2     		cmpl	%eax, %edx
 2373 003e 0F84B500 		je	.L137
 2373      0000
 2374              	.LBB16:
  22:/home/pandu/Desktop/DigitalLogicDesign/Lab/03-/makestuff/libs/libutpp/Checks.h ****     {
  23:/home/pandu/Desktop/DigitalLogicDesign/Lab/03-/makestuff/libs/libutpp/Checks.h ****         UnitTest::MemoryOutStream stream;
 2375              		.loc 5 23 0
 2376 0044 488D8580 		leaq	-384(%rbp), %rax
 2376      FEFFFF
 2377 004b 4889C7   		movq	%rax, %rdi
 2378              	.LEHB91:
 2379 004e E8000000 		call	_ZN8UnitTest15MemoryOutStreamC1Ev
 2379      00
 2380              	.LEHE91:
  24:/home/pandu/Desktop/DigitalLogicDesign/Lab/03-/makestuff/libs/libutpp/Checks.h ****         stream << "Expected " << expected << " but was " << actual;
 2381              		.loc 5 24 0
 2382 0053 488B8568 		movq	-408(%rbp), %rax
 2382      FEFFFF
 2383 005a 8B00     		movl	(%rax), %eax
 2384 005c 89C3     		movl	%eax, %ebx
 2385 005e 488B8570 		movq	-400(%rbp), %rax
 2385      FEFFFF
 2386 0065 8B00     		movl	(%rax), %eax
 2387 0067 4189C4   		movl	%eax, %r12d
 2388 006a 488D8580 		leaq	-384(%rbp), %rax
 2388      FEFFFF
 2389 0071 BE000000 		movl	$.LC20, %esi
 2389      00
 2390 0076 4889C7   		movq	%rax, %rdi
 2391              	.LEHB92:
 2392 0079 E8000000 		call	_ZStlsISt11char_traitsIcEERSt13basic_ostreamIcT_ES5_PKc
 2392      00
 2393 007e 4489E6   		movl	%r12d, %esi
 2394 0081 4889C7   		movq	%rax, %rdi
 2395 0084 E8000000 		call	_ZNSolsEi
 2395      00
 2396              		.loc 5 24 0 is_stmt 0 discriminator 1
 2397 0089 BE000000 		movl	$.LC21, %esi
 2397      00
 2398 008e 4889C7   		movq	%rax, %rdi
 2399 0091 E8000000 		call	_ZStlsISt11char_traitsIcEERSt13basic_ostreamIcT_ES5_PKc
 2399      00
 2400 0096 89DE     		movl	%ebx, %esi
 2401 0098 4889C7   		movq	%rax, %rdi
 2402 009b E8000000 		call	_ZNSolsEi
 2402      00
  25:/home/pandu/Desktop/DigitalLogicDesign/Lab/03-/makestuff/libs/libutpp/Checks.h **** 
  26:/home/pandu/Desktop/DigitalLogicDesign/Lab/03-/makestuff/libs/libutpp/Checks.h ****         results.OnTestFailure(details, stream.GetText());
 2403              		.loc 5 26 0 is_stmt 1
 2404 00a0 488D8580 		leaq	-384(%rbp), %rax
 2404      FEFFFF
 2405 00a7 4889C7   		movq	%rax, %rdi
 2406 00aa E8000000 		call	_ZNK8UnitTest15MemoryOutStream7GetTextEv
 2406      00
 2407 00af 4889C2   		movq	%rax, %rdx
 2408 00b2 488B8D60 		movq	-416(%rbp), %rcx
 2408      FEFFFF
 2409 00b9 488B8578 		movq	-392(%rbp), %rax
 2409      FEFFFF
 2410 00c0 4889CE   		movq	%rcx, %rsi
 2411 00c3 4889C7   		movq	%rax, %rdi
 2412 00c6 E8000000 		call	_ZN8UnitTest11TestResults13OnTestFailureERKNS_11TestDetailsEPKc
 2412      00
 2413              	.LEHE92:
 2414              		.loc 5 26 0 is_stmt 0 discriminator 1
 2415 00cb 488D8580 		leaq	-384(%rbp), %rax
 2415      FEFFFF
 2416 00d2 4889C7   		movq	%rax, %rdi
 2417              	.LEHB93:
 2418 00d5 E8000000 		call	_ZN8UnitTest15MemoryOutStreamD1Ev
 2418      00
 2419              	.LEHE93:
 2420              	.LBE16:
 2421 00da EB1D     		jmp	.L137
 2422              	.L136:
 2423 00dc 4889C3   		movq	%rax, %rbx
 2424              	.LBB17:
 2425              		.loc 5 26 0
 2426 00df 488D8580 		leaq	-384(%rbp), %rax
 2426      FEFFFF
 2427 00e6 4889C7   		movq	%rax, %rdi
 2428 00e9 E8000000 		call	_ZN8UnitTest15MemoryOutStreamD1Ev
 2428      00
 2429 00ee 4889D8   		movq	%rbx, %rax
 2430 00f1 4889C7   		movq	%rax, %rdi
 2431              	.LEHB94:
 2432 00f4 E8000000 		call	_Unwind_Resume
 2432      00
 2433              	.LEHE94:
 2434              	.L137:
 2435              	.LBE17:
 2436              	.LBE15:
 2437              	.LBE14:
  27:/home/pandu/Desktop/DigitalLogicDesign/Lab/03-/makestuff/libs/libutpp/Checks.h ****     }
  28:/home/pandu/Desktop/DigitalLogicDesign/Lab/03-/makestuff/libs/libutpp/Checks.h **** }
 2438              		.loc 5 28 0 is_stmt 1
 2439 00f9 4881C490 		addq	$400, %rsp
 2439      010000
 2440 0100 5B       		popq	%rbx
 2441 0101 415C     		popq	%r12
 2442 0103 5D       		popq	%rbp
 2443              		.cfi_def_cfa 7, 8
 2444 0104 C3       		ret
 2445              		.cfi_endproc
 2446              	.LFE1126:
 2447              		.section	.gcc_except_table
 2448              	.LLSDA1126:
 2449 021b FF       		.byte	0xff
 2450 021c FF       		.byte	0xff
 2451 021d 01       		.byte	0x1
 2452 021e 13       		.uleb128 .LLSDACSE1126-.LLSDACSB1126
 2453              	.LLSDACSB1126:
 2454 021f 4E       		.uleb128 .LEHB91-.LFB1126
 2455 0220 05       		.uleb128 .LEHE91-.LEHB91
 2456 0221 00       		.uleb128 0
 2457 0222 00       		.uleb128 0
 2458 0223 79       		.uleb128 .LEHB92-.LFB1126
 2459 0224 52       		.uleb128 .LEHE92-.LEHB92
 2460 0225 DC01     		.uleb128 .L136-.LFB1126
 2461 0227 00       		.uleb128 0
 2462 0228 D501     		.uleb128 .LEHB93-.LFB1126
 2463 022a 05       		.uleb128 .LEHE93-.LEHB93
 2464 022b 00       		.uleb128 0
 2465 022c 00       		.uleb128 0
 2466 022d F401     		.uleb128 .LEHB94-.LFB1126
 2467 022f 05       		.uleb128 .LEHE94-.LEHB94
 2468 0230 00       		.uleb128 0
 2469 0231 00       		.uleb128 0
 2470              	.LLSDACSE1126:
 2471              		.section	.text._ZN8UnitTest10CheckEqualI12BufferStatusS1_EEvRNS_11TestResultsERKT_RKT0_RKNS_11Test
 2473              		.section	.text._ZN8UnitTest10CheckEqualImmEEvRNS_11TestResultsERKT_RKT0_RKNS_11TestDetailsE,"axG",
 2474              		.weak	_ZN8UnitTest10CheckEqualImmEEvRNS_11TestResultsERKT_RKT0_RKNS_11TestDetailsE
 2476              	_ZN8UnitTest10CheckEqualImmEEvRNS_11TestResultsERKT_RKT0_RKNS_11TestDetailsE:
 2477              	.LFB1141:
  19:/home/pandu/Desktop/DigitalLogicDesign/Lab/03-/makestuff/libs/libutpp/Checks.h **** {
 2478              		.loc 5 19 0
 2479              		.cfi_startproc
 2480              		.cfi_personality 0x3,__gxx_personality_v0
 2481              		.cfi_lsda 0x3,.LLSDA1141
 2482 0000 55       		pushq	%rbp
 2483              		.cfi_def_cfa_offset 16
 2484              		.cfi_offset 6, -16
 2485 0001 4889E5   		movq	%rsp, %rbp
 2486              		.cfi_def_cfa_register 6
 2487 0004 4154     		pushq	%r12
 2488 0006 53       		pushq	%rbx
 2489 0007 4881EC90 		subq	$400, %rsp
 2489      010000
 2490              		.cfi_offset 12, -24
 2491              		.cfi_offset 3, -32
 2492 000e 4889BD78 		movq	%rdi, -392(%rbp)
 2492      FEFFFF
 2493 0015 4889B570 		movq	%rsi, -400(%rbp)
 2493      FEFFFF
 2494 001c 48899568 		movq	%rdx, -408(%rbp)
 2494      FEFFFF
 2495 0023 48898D60 		movq	%rcx, -416(%rbp)
 2495      FEFFFF
 2496              	.LBB18:
 2497              	.LBB19:
  21:/home/pandu/Desktop/DigitalLogicDesign/Lab/03-/makestuff/libs/libutpp/Checks.h ****     {
 2498              		.loc 5 21 0
 2499 002a 488B8570 		movq	-400(%rbp), %rax
 2499      FEFFFF
 2500 0031 488B10   		movq	(%rax), %rdx
 2501 0034 488B8568 		movq	-408(%rbp), %rax
 2501      FEFFFF
 2502 003b 488B00   		movq	(%rax), %rax
 2503 003e 4839C2   		cmpq	%rax, %rdx
 2504 0041 0F84B300 		je	.L142
 2504      0000
 2505              	.LBB20:
  23:/home/pandu/Desktop/DigitalLogicDesign/Lab/03-/makestuff/libs/libutpp/Checks.h ****         stream << "Expected " << expected << " but was " << actual;
 2506              		.loc 5 23 0
 2507 0047 488D8580 		leaq	-384(%rbp), %rax
 2507      FEFFFF
 2508 004e 4889C7   		movq	%rax, %rdi
 2509              	.LEHB95:
 2510 0051 E8000000 		call	_ZN8UnitTest15MemoryOutStreamC1Ev
 2510      00
 2511              	.LEHE95:
  24:/home/pandu/Desktop/DigitalLogicDesign/Lab/03-/makestuff/libs/libutpp/Checks.h **** 
 2512              		.loc 5 24 0
 2513 0056 488B8568 		movq	-408(%rbp), %rax
 2513      FEFFFF
 2514 005d 488B18   		movq	(%rax), %rbx
 2515 0060 488B8570 		movq	-400(%rbp), %rax
 2515      FEFFFF
 2516 0067 4C8B20   		movq	(%rax), %r12
 2517 006a 488D8580 		leaq	-384(%rbp), %rax
 2517      FEFFFF
 2518 0071 BE000000 		movl	$.LC20, %esi
 2518      00
 2519 0076 4889C7   		movq	%rax, %rdi
 2520              	.LEHB96:
 2521 0079 E8000000 		call	_ZStlsISt11char_traitsIcEERSt13basic_ostreamIcT_ES5_PKc
 2521      00
 2522 007e 4C89E6   		movq	%r12, %rsi
 2523 0081 4889C7   		movq	%rax, %rdi
 2524 0084 E8000000 		call	_ZNSolsEm
 2524      00
  24:/home/pandu/Desktop/DigitalLogicDesign/Lab/03-/makestuff/libs/libutpp/Checks.h **** 
 2525              		.loc 5 24 0 is_stmt 0 discriminator 1
 2526 0089 BE000000 		movl	$.LC21, %esi
 2526      00
 2527 008e 4889C7   		movq	%rax, %rdi
 2528 0091 E8000000 		call	_ZStlsISt11char_traitsIcEERSt13basic_ostreamIcT_ES5_PKc
 2528      00
 2529 0096 4889DE   		movq	%rbx, %rsi
 2530 0099 4889C7   		movq	%rax, %rdi
 2531 009c E8000000 		call	_ZNSolsEm
 2531      00
  26:/home/pandu/Desktop/DigitalLogicDesign/Lab/03-/makestuff/libs/libutpp/Checks.h ****     }
 2532              		.loc 5 26 0 is_stmt 1
 2533 00a1 488D8580 		leaq	-384(%rbp), %rax
 2533      FEFFFF
 2534 00a8 4889C7   		movq	%rax, %rdi
 2535 00ab E8000000 		call	_ZNK8UnitTest15MemoryOutStream7GetTextEv
 2535      00
 2536 00b0 4889C2   		movq	%rax, %rdx
 2537 00b3 488B8D60 		movq	-416(%rbp), %rcx
 2537      FEFFFF
 2538 00ba 488B8578 		movq	-392(%rbp), %rax
 2538      FEFFFF
 2539 00c1 4889CE   		movq	%rcx, %rsi
 2540 00c4 4889C7   		movq	%rax, %rdi
 2541 00c7 E8000000 		call	_ZN8UnitTest11TestResults13OnTestFailureERKNS_11TestDetailsEPKc
 2541      00
 2542              	.LEHE96:
  26:/home/pandu/Desktop/DigitalLogicDesign/Lab/03-/makestuff/libs/libutpp/Checks.h ****     }
 2543              		.loc 5 26 0 is_stmt 0 discriminator 1
 2544 00cc 488D8580 		leaq	-384(%rbp), %rax
 2544      FEFFFF
 2545 00d3 4889C7   		movq	%rax, %rdi
 2546              	.LEHB97:
 2547 00d6 E8000000 		call	_ZN8UnitTest15MemoryOutStreamD1Ev
 2547      00
 2548              	.LEHE97:
 2549              	.LBE20:
 2550 00db EB1D     		jmp	.L142
 2551              	.L141:
 2552 00dd 4889C3   		movq	%rax, %rbx
 2553              	.LBB21:
  26:/home/pandu/Desktop/DigitalLogicDesign/Lab/03-/makestuff/libs/libutpp/Checks.h ****     }
 2554              		.loc 5 26 0
 2555 00e0 488D8580 		leaq	-384(%rbp), %rax
 2555      FEFFFF
 2556 00e7 4889C7   		movq	%rax, %rdi
 2557 00ea E8000000 		call	_ZN8UnitTest15MemoryOutStreamD1Ev
 2557      00
 2558 00ef 4889D8   		movq	%rbx, %rax
 2559 00f2 4889C7   		movq	%rax, %rdi
 2560              	.LEHB98:
 2561 00f5 E8000000 		call	_Unwind_Resume
 2561      00
 2562              	.LEHE98:
 2563              	.L142:
 2564              	.LBE21:
 2565              	.LBE19:
 2566              	.LBE18:
 2567              		.loc 5 28 0 is_stmt 1
 2568 00fa 4881C490 		addq	$400, %rsp
 2568      010000
 2569 0101 5B       		popq	%rbx
 2570 0102 415C     		popq	%r12
 2571 0104 5D       		popq	%rbp
 2572              		.cfi_def_cfa 7, 8
 2573 0105 C3       		ret
 2574              		.cfi_endproc
 2575              	.LFE1141:
 2576              		.section	.gcc_except_table
 2577              	.LLSDA1141:
 2578 0232 FF       		.byte	0xff
 2579 0233 FF       		.byte	0xff
 2580 0234 01       		.byte	0x1
 2581 0235 13       		.uleb128 .LLSDACSE1141-.LLSDACSB1141
 2582              	.LLSDACSB1141:
 2583 0236 51       		.uleb128 .LEHB95-.LFB1141
 2584 0237 05       		.uleb128 .LEHE95-.LEHB95
 2585 0238 00       		.uleb128 0
 2586 0239 00       		.uleb128 0
 2587 023a 79       		.uleb128 .LEHB96-.LFB1141
 2588 023b 53       		.uleb128 .LEHE96-.LEHB96
 2589 023c DD01     		.uleb128 .L141-.LFB1141
 2590 023e 00       		.uleb128 0
 2591 023f D601     		.uleb128 .LEHB97-.LFB1141
 2592 0241 05       		.uleb128 .LEHE97-.LEHB97
 2593 0242 00       		.uleb128 0
 2594 0243 00       		.uleb128 0
 2595 0244 F501     		.uleb128 .LEHB98-.LFB1141
 2596 0246 05       		.uleb128 .LEHE98-.LEHB98
 2597 0247 00       		.uleb128 0
 2598 0248 00       		.uleb128 0
 2599              	.LLSDACSE1141:
 2600              		.section	.text._ZN8UnitTest10CheckEqualImmEEvRNS_11TestResultsERKT_RKT0_RKNS_11TestDetailsE,"axG",
 2602              		.section	.rodata
 2603              	.LC22:
 2604 036f 45787065 		.string	"Expected [ "
 2604      63746564 
 2604      205B2000 
 2605              	.LC23:
 2606 037b 2000     		.string	" "
 2607              	.LC24:
 2608 037d 5D206275 		.string	"] but was [ "
 2608      74207761 
 2608      73205B20 
 2608      00
 2609              	.LC25:
 2610 038a 5D00     		.string	"]"
 2611              		.section	.text._ZN8UnitTest15CheckArrayEqualIPKcPhEEvRNS_11TestResultsERKT_RKT0_iRKNS_11TestDetail
 2612              		.weak	_ZN8UnitTest15CheckArrayEqualIPKcPhEEvRNS_11TestResultsERKT_RKT0_iRKNS_11TestDetailsE
 2614              	_ZN8UnitTest15CheckArrayEqualIPKcPhEEvRNS_11TestResultsERKT_RKT0_iRKNS_11TestDetailsE:
 2615              	.LFB1142:
  29:/home/pandu/Desktop/DigitalLogicDesign/Lab/03-/makestuff/libs/libutpp/Checks.h **** 
  30:/home/pandu/Desktop/DigitalLogicDesign/Lab/03-/makestuff/libs/libutpp/Checks.h **** void CheckEqual(TestResults& results, char const* expected, char const* actual, TestDetails const& 
  31:/home/pandu/Desktop/DigitalLogicDesign/Lab/03-/makestuff/libs/libutpp/Checks.h **** 
  32:/home/pandu/Desktop/DigitalLogicDesign/Lab/03-/makestuff/libs/libutpp/Checks.h **** void CheckEqual(TestResults& results, char* expected, char* actual, TestDetails const& details);
  33:/home/pandu/Desktop/DigitalLogicDesign/Lab/03-/makestuff/libs/libutpp/Checks.h **** 
  34:/home/pandu/Desktop/DigitalLogicDesign/Lab/03-/makestuff/libs/libutpp/Checks.h **** void CheckEqual(TestResults& results, char* expected, char const* actual, TestDetails const& detail
  35:/home/pandu/Desktop/DigitalLogicDesign/Lab/03-/makestuff/libs/libutpp/Checks.h **** 
  36:/home/pandu/Desktop/DigitalLogicDesign/Lab/03-/makestuff/libs/libutpp/Checks.h **** void CheckEqual(TestResults& results, char const* expected, char* actual, TestDetails const& detail
  37:/home/pandu/Desktop/DigitalLogicDesign/Lab/03-/makestuff/libs/libutpp/Checks.h **** 
  38:/home/pandu/Desktop/DigitalLogicDesign/Lab/03-/makestuff/libs/libutpp/Checks.h **** template< typename Expected, typename Actual, typename Tolerance >
  39:/home/pandu/Desktop/DigitalLogicDesign/Lab/03-/makestuff/libs/libutpp/Checks.h **** bool AreClose(Expected const& expected, Actual const& actual, Tolerance const& tolerance)
  40:/home/pandu/Desktop/DigitalLogicDesign/Lab/03-/makestuff/libs/libutpp/Checks.h **** {
  41:/home/pandu/Desktop/DigitalLogicDesign/Lab/03-/makestuff/libs/libutpp/Checks.h ****     return (actual >= (expected - tolerance)) && (actual <= (expected + tolerance));
  42:/home/pandu/Desktop/DigitalLogicDesign/Lab/03-/makestuff/libs/libutpp/Checks.h **** }
  43:/home/pandu/Desktop/DigitalLogicDesign/Lab/03-/makestuff/libs/libutpp/Checks.h **** 
  44:/home/pandu/Desktop/DigitalLogicDesign/Lab/03-/makestuff/libs/libutpp/Checks.h **** template< typename Expected, typename Actual, typename Tolerance >
  45:/home/pandu/Desktop/DigitalLogicDesign/Lab/03-/makestuff/libs/libutpp/Checks.h **** void CheckClose(TestResults& results, Expected const& expected, Actual const& actual, Tolerance con
  46:/home/pandu/Desktop/DigitalLogicDesign/Lab/03-/makestuff/libs/libutpp/Checks.h ****                 TestDetails const& details)
  47:/home/pandu/Desktop/DigitalLogicDesign/Lab/03-/makestuff/libs/libutpp/Checks.h **** {
  48:/home/pandu/Desktop/DigitalLogicDesign/Lab/03-/makestuff/libs/libutpp/Checks.h ****     if (!AreClose(expected, actual, tolerance))
  49:/home/pandu/Desktop/DigitalLogicDesign/Lab/03-/makestuff/libs/libutpp/Checks.h ****     { 
  50:/home/pandu/Desktop/DigitalLogicDesign/Lab/03-/makestuff/libs/libutpp/Checks.h ****         UnitTest::MemoryOutStream stream;
  51:/home/pandu/Desktop/DigitalLogicDesign/Lab/03-/makestuff/libs/libutpp/Checks.h ****         stream << "Expected " << expected << " +/- " << tolerance << " but was " << actual;
  52:/home/pandu/Desktop/DigitalLogicDesign/Lab/03-/makestuff/libs/libutpp/Checks.h **** 
  53:/home/pandu/Desktop/DigitalLogicDesign/Lab/03-/makestuff/libs/libutpp/Checks.h ****         results.OnTestFailure(details, stream.GetText());
  54:/home/pandu/Desktop/DigitalLogicDesign/Lab/03-/makestuff/libs/libutpp/Checks.h ****     }
  55:/home/pandu/Desktop/DigitalLogicDesign/Lab/03-/makestuff/libs/libutpp/Checks.h **** }
  56:/home/pandu/Desktop/DigitalLogicDesign/Lab/03-/makestuff/libs/libutpp/Checks.h **** 
  57:/home/pandu/Desktop/DigitalLogicDesign/Lab/03-/makestuff/libs/libutpp/Checks.h **** 
  58:/home/pandu/Desktop/DigitalLogicDesign/Lab/03-/makestuff/libs/libutpp/Checks.h **** template< typename Expected, typename Actual >
  59:/home/pandu/Desktop/DigitalLogicDesign/Lab/03-/makestuff/libs/libutpp/Checks.h **** void CheckArrayEqual(TestResults& results, Expected const& expected, Actual const& actual,
 2616              		.loc 5 59 0
 2617              		.cfi_startproc
 2618              		.cfi_personality 0x3,__gxx_personality_v0
 2619              		.cfi_lsda 0x3,.LLSDA1142
 2620 0000 55       		pushq	%rbp
 2621              		.cfi_def_cfa_offset 16
 2622              		.cfi_offset 6, -16
 2623 0001 4889E5   		movq	%rsp, %rbp
 2624              		.cfi_def_cfa_register 6
 2625 0004 53       		pushq	%rbx
 2626 0005 4881ECB8 		subq	$440, %rsp
 2626      010000
 2627              		.cfi_offset 3, -24
 2628 000c 4889BD68 		movq	%rdi, -408(%rbp)
 2628      FEFFFF
 2629 0013 4889B560 		movq	%rsi, -416(%rbp)
 2629      FEFFFF
 2630 001a 48899558 		movq	%rdx, -424(%rbp)
 2630      FEFFFF
 2631 0021 898D54FE 		movl	%ecx, -428(%rbp)
 2631      FFFF
 2632 0027 4C898548 		movq	%r8, -440(%rbp)
 2632      FEFFFF
 2633              	.LBB22:
  60:/home/pandu/Desktop/DigitalLogicDesign/Lab/03-/makestuff/libs/libutpp/Checks.h ****                 int const count, TestDetails const& details)
  61:/home/pandu/Desktop/DigitalLogicDesign/Lab/03-/makestuff/libs/libutpp/Checks.h **** {
  62:/home/pandu/Desktop/DigitalLogicDesign/Lab/03-/makestuff/libs/libutpp/Checks.h ****     bool equal = true;
 2634              		.loc 5 62 0
 2635 002e C68573FE 		movb	$1, -397(%rbp)
 2635      FFFF01
 2636              	.LBB23:
  63:/home/pandu/Desktop/DigitalLogicDesign/Lab/03-/makestuff/libs/libutpp/Checks.h ****     for (int i = 0; i < count; ++i)
 2637              		.loc 5 63 0
 2638 0035 C78574FE 		movl	$0, -396(%rbp)
 2638      FFFF0000 
 2638      0000
 2639 003f EB59     		jmp	.L144
 2640              	.L145:
  64:/home/pandu/Desktop/DigitalLogicDesign/Lab/03-/makestuff/libs/libutpp/Checks.h ****         equal &= (expected[i] == actual[i]);
 2641              		.loc 5 64 0 discriminator 2
 2642 0041 0FB69573 		movzbl	-397(%rbp), %edx
 2642      FEFFFF
 2643 0048 488B8560 		movq	-416(%rbp), %rax
 2643      FEFFFF
 2644 004f 488B08   		movq	(%rax), %rcx
 2645 0052 8B8574FE 		movl	-396(%rbp), %eax
 2645      FFFF
 2646 0058 4898     		cltq
 2647 005a 4801C8   		addq	%rcx, %rax
 2648 005d 0FB600   		movzbl	(%rax), %eax
 2649 0060 0FBEC8   		movsbl	%al, %ecx
 2650 0063 488B8558 		movq	-424(%rbp), %rax
 2650      FEFFFF
 2651 006a 488B30   		movq	(%rax), %rsi
 2652 006d 8B8574FE 		movl	-396(%rbp), %eax
 2652      FFFF
 2653 0073 4898     		cltq
 2654 0075 4801F0   		addq	%rsi, %rax
 2655 0078 0FB600   		movzbl	(%rax), %eax
 2656 007b 0FB6C0   		movzbl	%al, %eax
 2657 007e 39C1     		cmpl	%eax, %ecx
 2658 0080 0F94C0   		sete	%al
 2659 0083 0FB6C0   		movzbl	%al, %eax
 2660 0086 21D0     		andl	%edx, %eax
 2661 0088 85C0     		testl	%eax, %eax
 2662 008a 0F95C0   		setne	%al
 2663 008d 888573FE 		movb	%al, -397(%rbp)
 2663      FFFF
  63:/home/pandu/Desktop/DigitalLogicDesign/Lab/03-/makestuff/libs/libutpp/Checks.h ****     for (int i = 0; i < count; ++i)
 2664              		.loc 5 63 0 discriminator 2
 2665 0093 838574FE 		addl	$1, -396(%rbp)
 2665      FFFF01
 2666              	.L144:
  63:/home/pandu/Desktop/DigitalLogicDesign/Lab/03-/makestuff/libs/libutpp/Checks.h ****     for (int i = 0; i < count; ++i)
 2667              		.loc 5 63 0 is_stmt 0 discriminator 1
 2668 009a 8B8574FE 		movl	-396(%rbp), %eax
 2668      FFFF
 2669 00a0 3B8554FE 		cmpl	-428(%rbp), %eax
 2669      FFFF
 2670 00a6 7C99     		jl	.L145
 2671              	.LBE23:
 2672              	.LBB24:
  65:/home/pandu/Desktop/DigitalLogicDesign/Lab/03-/makestuff/libs/libutpp/Checks.h **** 
  66:/home/pandu/Desktop/DigitalLogicDesign/Lab/03-/makestuff/libs/libutpp/Checks.h ****     if (!equal)
 2673              		.loc 5 66 0 is_stmt 1
 2674 00a8 0FB68573 		movzbl	-397(%rbp), %eax
 2674      FEFFFF
 2675 00af 83F001   		xorl	$1, %eax
 2676 00b2 84C0     		testb	%al, %al
 2677 00b4 0F845801 		je	.L153
 2677      0000
 2678              	.LBB25:
  67:/home/pandu/Desktop/DigitalLogicDesign/Lab/03-/makestuff/libs/libutpp/Checks.h ****     {
  68:/home/pandu/Desktop/DigitalLogicDesign/Lab/03-/makestuff/libs/libutpp/Checks.h ****         UnitTest::MemoryOutStream stream;
 2679              		.loc 5 68 0
 2680 00ba 488D8580 		leaq	-384(%rbp), %rax
 2680      FEFFFF
 2681 00c1 4889C7   		movq	%rax, %rdi
 2682              	.LEHB99:
 2683 00c4 E8000000 		call	_ZN8UnitTest15MemoryOutStreamC1Ev
 2683      00
 2684              	.LEHE99:
  69:/home/pandu/Desktop/DigitalLogicDesign/Lab/03-/makestuff/libs/libutpp/Checks.h **** 
  70:/home/pandu/Desktop/DigitalLogicDesign/Lab/03-/makestuff/libs/libutpp/Checks.h **** 		stream << "Expected [ ";
 2685              		.loc 5 70 0
 2686 00c9 488D8580 		leaq	-384(%rbp), %rax
 2686      FEFFFF
 2687 00d0 BE000000 		movl	$.LC22, %esi
 2687      00
 2688 00d5 4889C7   		movq	%rax, %rdi
 2689              	.LEHB100:
 2690 00d8 E8000000 		call	_ZStlsISt11char_traitsIcEERSt13basic_ostreamIcT_ES5_PKc
 2690      00
 2691              	.LBB26:
  71:/home/pandu/Desktop/DigitalLogicDesign/Lab/03-/makestuff/libs/libutpp/Checks.h **** 
  72:/home/pandu/Desktop/DigitalLogicDesign/Lab/03-/makestuff/libs/libutpp/Checks.h **** 		for (int expectedIndex = 0; expectedIndex < count; ++expectedIndex)
 2692              		.loc 5 72 0
 2693 00dd C78578FE 		movl	$0, -392(%rbp)
 2693      FFFF0000 
 2693      0000
 2694 00e7 EB40     		jmp	.L147
 2695              	.L148:
  73:/home/pandu/Desktop/DigitalLogicDesign/Lab/03-/makestuff/libs/libutpp/Checks.h ****             stream << expected[expectedIndex] << " ";
 2696              		.loc 5 73 0
 2697 00e9 488B8560 		movq	-416(%rbp), %rax
 2697      FEFFFF
 2698 00f0 488B10   		movq	(%rax), %rdx
 2699 00f3 8B8578FE 		movl	-392(%rbp), %eax
 2699      FFFF
 2700 00f9 4898     		cltq
 2701 00fb 4801D0   		addq	%rdx, %rax
 2702 00fe 0FB600   		movzbl	(%rax), %eax
 2703 0101 0FBED0   		movsbl	%al, %edx
 2704 0104 488D8580 		leaq	-384(%rbp), %rax
 2704      FEFFFF
 2705 010b 89D6     		movl	%edx, %esi
 2706 010d 4889C7   		movq	%rax, %rdi
 2707 0110 E8000000 		call	_ZStlsISt11char_traitsIcEERSt13basic_ostreamIcT_ES5_c
 2707      00
 2708 0115 BE000000 		movl	$.LC23, %esi
 2708      00
 2709 011a 4889C7   		movq	%rax, %rdi
 2710 011d E8000000 		call	_ZStlsISt11char_traitsIcEERSt13basic_ostreamIcT_ES5_PKc
 2710      00
  72:/home/pandu/Desktop/DigitalLogicDesign/Lab/03-/makestuff/libs/libutpp/Checks.h ****             stream << expected[expectedIndex] << " ";
 2711              		.loc 5 72 0
 2712 0122 838578FE 		addl	$1, -392(%rbp)
 2712      FFFF01
 2713              	.L147:
  72:/home/pandu/Desktop/DigitalLogicDesign/Lab/03-/makestuff/libs/libutpp/Checks.h ****             stream << expected[expectedIndex] << " ";
 2714              		.loc 5 72 0 is_stmt 0 discriminator 1
 2715 0129 8B8578FE 		movl	-392(%rbp), %eax
 2715      FFFF
 2716 012f 3B8554FE 		cmpl	-428(%rbp), %eax
 2716      FFFF
 2717 0135 7CB2     		jl	.L148
 2718              	.LBE26:
  74:/home/pandu/Desktop/DigitalLogicDesign/Lab/03-/makestuff/libs/libutpp/Checks.h **** 
  75:/home/pandu/Desktop/DigitalLogicDesign/Lab/03-/makestuff/libs/libutpp/Checks.h **** 		stream << "] but was [ ";
 2719              		.loc 5 75 0 is_stmt 1
 2720 0137 488D8580 		leaq	-384(%rbp), %rax
 2720      FEFFFF
 2721 013e BE000000 		movl	$.LC24, %esi
 2721      00
 2722 0143 4889C7   		movq	%rax, %rdi
 2723 0146 E8000000 		call	_ZStlsISt11char_traitsIcEERSt13basic_ostreamIcT_ES5_PKc
 2723      00
 2724              	.LBB27:
  76:/home/pandu/Desktop/DigitalLogicDesign/Lab/03-/makestuff/libs/libutpp/Checks.h **** 
  77:/home/pandu/Desktop/DigitalLogicDesign/Lab/03-/makestuff/libs/libutpp/Checks.h **** 		for (int actualIndex = 0; actualIndex < count; ++actualIndex)
 2725              		.loc 5 77 0
 2726 014b C7857CFE 		movl	$0, -388(%rbp)
 2726      FFFF0000 
 2726      0000
 2727 0155 EB40     		jmp	.L149
 2728              	.L150:
  78:/home/pandu/Desktop/DigitalLogicDesign/Lab/03-/makestuff/libs/libutpp/Checks.h ****             stream << actual[actualIndex] << " ";
 2729              		.loc 5 78 0
 2730 0157 488B8558 		movq	-424(%rbp), %rax
 2730      FEFFFF
 2731 015e 488B10   		movq	(%rax), %rdx
 2732 0161 8B857CFE 		movl	-388(%rbp), %eax
 2732      FFFF
 2733 0167 4898     		cltq
 2734 0169 4801D0   		addq	%rdx, %rax
 2735 016c 0FB600   		movzbl	(%rax), %eax
 2736 016f 0FB6D0   		movzbl	%al, %edx
 2737 0172 488D8580 		leaq	-384(%rbp), %rax
 2737      FEFFFF
 2738 0179 89D6     		movl	%edx, %esi
 2739 017b 4889C7   		movq	%rax, %rdi
 2740 017e E8000000 		call	_ZStlsISt11char_traitsIcEERSt13basic_ostreamIcT_ES5_h
 2740      00
 2741 0183 BE000000 		movl	$.LC23, %esi
 2741      00
 2742 0188 4889C7   		movq	%rax, %rdi
 2743 018b E8000000 		call	_ZStlsISt11char_traitsIcEERSt13basic_ostreamIcT_ES5_PKc
 2743      00
  77:/home/pandu/Desktop/DigitalLogicDesign/Lab/03-/makestuff/libs/libutpp/Checks.h ****             stream << actual[actualIndex] << " ";
 2744              		.loc 5 77 0
 2745 0190 83857CFE 		addl	$1, -388(%rbp)
 2745      FFFF01
 2746              	.L149:
  77:/home/pandu/Desktop/DigitalLogicDesign/Lab/03-/makestuff/libs/libutpp/Checks.h ****             stream << actual[actualIndex] << " ";
 2747              		.loc 5 77 0 is_stmt 0 discriminator 1
 2748 0197 8B857CFE 		movl	-388(%rbp), %eax
 2748      FFFF
 2749 019d 3B8554FE 		cmpl	-428(%rbp), %eax
 2749      FFFF
 2750 01a3 7CB2     		jl	.L150
 2751              	.LBE27:
  79:/home/pandu/Desktop/DigitalLogicDesign/Lab/03-/makestuff/libs/libutpp/Checks.h **** 
  80:/home/pandu/Desktop/DigitalLogicDesign/Lab/03-/makestuff/libs/libutpp/Checks.h **** 		stream << "]";
 2752              		.loc 5 80 0 is_stmt 1
 2753 01a5 488D8580 		leaq	-384(%rbp), %rax
 2753      FEFFFF
 2754 01ac BE000000 		movl	$.LC25, %esi
 2754      00
 2755 01b1 4889C7   		movq	%rax, %rdi
 2756 01b4 E8000000 		call	_ZStlsISt11char_traitsIcEERSt13basic_ostreamIcT_ES5_PKc
 2756      00
  81:/home/pandu/Desktop/DigitalLogicDesign/Lab/03-/makestuff/libs/libutpp/Checks.h **** 
  82:/home/pandu/Desktop/DigitalLogicDesign/Lab/03-/makestuff/libs/libutpp/Checks.h ****         results.OnTestFailure(details, stream.GetText());
 2757              		.loc 5 82 0
 2758 01b9 488D8580 		leaq	-384(%rbp), %rax
 2758      FEFFFF
 2759 01c0 4889C7   		movq	%rax, %rdi
 2760 01c3 E8000000 		call	_ZNK8UnitTest15MemoryOutStream7GetTextEv
 2760      00
 2761 01c8 4889C2   		movq	%rax, %rdx
 2762 01cb 488B8D48 		movq	-440(%rbp), %rcx
 2762      FEFFFF
 2763 01d2 488B8568 		movq	-408(%rbp), %rax
 2763      FEFFFF
 2764 01d9 4889CE   		movq	%rcx, %rsi
 2765 01dc 4889C7   		movq	%rax, %rdi
 2766 01df E8000000 		call	_ZN8UnitTest11TestResults13OnTestFailureERKNS_11TestDetailsEPKc
 2766      00
 2767              	.LEHE100:
 2768              		.loc 5 82 0 is_stmt 0 discriminator 1
 2769 01e4 488D8580 		leaq	-384(%rbp), %rax
 2769      FEFFFF
 2770 01eb 4889C7   		movq	%rax, %rdi
 2771              	.LEHB101:
 2772 01ee E8000000 		call	_ZN8UnitTest15MemoryOutStreamD1Ev
 2772      00
 2773              	.LEHE101:
 2774              	.LBE25:
 2775 01f3 EB1D     		jmp	.L153
 2776              	.L152:
 2777 01f5 4889C3   		movq	%rax, %rbx
 2778              	.LBB28:
 2779              		.loc 5 82 0
 2780 01f8 488D8580 		leaq	-384(%rbp), %rax
 2780      FEFFFF
 2781 01ff 4889C7   		movq	%rax, %rdi
 2782 0202 E8000000 		call	_ZN8UnitTest15MemoryOutStreamD1Ev
 2782      00
 2783 0207 4889D8   		movq	%rbx, %rax
 2784 020a 4889C7   		movq	%rax, %rdi
 2785              	.LEHB102:
 2786 020d E8000000 		call	_Unwind_Resume
 2786      00
 2787              	.LEHE102:
 2788              	.L153:
 2789              	.LBE28:
 2790              	.LBE24:
 2791              	.LBE22:
  83:/home/pandu/Desktop/DigitalLogicDesign/Lab/03-/makestuff/libs/libutpp/Checks.h ****     }
  84:/home/pandu/Desktop/DigitalLogicDesign/Lab/03-/makestuff/libs/libutpp/Checks.h **** }
 2792              		.loc 5 84 0 is_stmt 1
 2793 0212 4881C4B8 		addq	$440, %rsp
 2793      010000
 2794 0219 5B       		popq	%rbx
 2795 021a 5D       		popq	%rbp
 2796              		.cfi_def_cfa 7, 8
 2797 021b C3       		ret
 2798              		.cfi_endproc
 2799              	.LFE1142:
 2800              		.section	.gcc_except_table
 2801              	.LLSDA1142:
 2802 0249 FF       		.byte	0xff
 2803 024a FF       		.byte	0xff
 2804 024b 01       		.byte	0x1
 2805 024c 16       		.uleb128 .LLSDACSE1142-.LLSDACSB1142
 2806              	.LLSDACSB1142:
 2807 024d C401     		.uleb128 .LEHB99-.LFB1142
 2808 024f 05       		.uleb128 .LEHE99-.LEHB99
 2809 0250 00       		.uleb128 0
 2810 0251 00       		.uleb128 0
 2811 0252 D801     		.uleb128 .LEHB100-.LFB1142
 2812 0254 8C02     		.uleb128 .LEHE100-.LEHB100
 2813 0256 F503     		.uleb128 .L152-.LFB1142
 2814 0258 00       		.uleb128 0
 2815 0259 EE03     		.uleb128 .LEHB101-.LFB1142
 2816 025b 05       		.uleb128 .LEHE101-.LEHB101
 2817 025c 00       		.uleb128 0
 2818 025d 00       		.uleb128 0
 2819 025e 8D04     		.uleb128 .LEHB102-.LFB1142
 2820 0260 05       		.uleb128 .LEHE102-.LEHB102
 2821 0261 00       		.uleb128 0
 2822 0262 00       		.uleb128 0
 2823              	.LLSDACSE1142:
 2824              		.section	.text._ZN8UnitTest15CheckArrayEqualIPKcPhEEvRNS_11TestResultsERKT_RKT0_iRKNS_11TestDetail
 2826              		.section	.text._ZN8UnitTest5CheckIbEEbT_,"axG",@progbits,_ZN8UnitTest5CheckIbEEbT_,comdat
 2827              		.weak	_ZN8UnitTest5CheckIbEEbT_
 2829              	_ZN8UnitTest5CheckIbEEbT_:
 2830              	.LFB1152:
  12:/home/pandu/Desktop/DigitalLogicDesign/Lab/03-/makestuff/libs/libutpp/Checks.h **** {
 2831              		.loc 5 12 0
 2832              		.cfi_startproc
 2833 0000 55       		pushq	%rbp
 2834              		.cfi_def_cfa_offset 16
 2835              		.cfi_offset 6, -16
 2836 0001 4889E5   		movq	%rsp, %rbp
 2837              		.cfi_def_cfa_register 6
 2838 0004 89F8     		movl	%edi, %eax
 2839 0006 8845FC   		movb	%al, -4(%rbp)
  14:/home/pandu/Desktop/DigitalLogicDesign/Lab/03-/makestuff/libs/libutpp/Checks.h **** }
 2840              		.loc 5 14 0
 2841 0009 0FB645FC 		movzbl	-4(%rbp), %eax
  15:/home/pandu/Desktop/DigitalLogicDesign/Lab/03-/makestuff/libs/libutpp/Checks.h **** 
 2842              		.loc 5 15 0
 2843 000d 5D       		popq	%rbp
 2844              		.cfi_def_cfa 7, 8
 2845 000e C3       		ret
 2846              		.cfi_endproc
 2847              	.LFE1152:
 2849              		.section	.text._ZNKSt4fposI11__mbstate_tEcvlEv,"axG",@progbits,_ZNKSt4fposI11__mbstate_tEcvlEv,com
 2850              		.align 2
 2851              		.weak	_ZNKSt4fposI11__mbstate_tEcvlEv
 2853              	_ZNKSt4fposI11__mbstate_tEcvlEv:
 2854              	.LFB1153:
 2855              		.file 6 "/usr/include/c++/4.8/bits/postypes.h"
   1:/usr/include/c++/4.8/bits/postypes.h **** // Position types -*- C++ -*-
   2:/usr/include/c++/4.8/bits/postypes.h **** 
   3:/usr/include/c++/4.8/bits/postypes.h **** // Copyright (C) 1997-2013 Free Software Foundation, Inc.
   4:/usr/include/c++/4.8/bits/postypes.h **** //
   5:/usr/include/c++/4.8/bits/postypes.h **** // This file is part of the GNU ISO C++ Library.  This library is free
   6:/usr/include/c++/4.8/bits/postypes.h **** // software; you can redistribute it and/or modify it under the
   7:/usr/include/c++/4.8/bits/postypes.h **** // terms of the GNU General Public License as published by the
   8:/usr/include/c++/4.8/bits/postypes.h **** // Free Software Foundation; either version 3, or (at your option)
   9:/usr/include/c++/4.8/bits/postypes.h **** // any later version.
  10:/usr/include/c++/4.8/bits/postypes.h **** 
  11:/usr/include/c++/4.8/bits/postypes.h **** // This library is distributed in the hope that it will be useful,
  12:/usr/include/c++/4.8/bits/postypes.h **** // but WITHOUT ANY WARRANTY; without even the implied warranty of
  13:/usr/include/c++/4.8/bits/postypes.h **** // MERCHANTABILITY or FITNESS FOR A PARTICULAR PURPOSE.  See the
  14:/usr/include/c++/4.8/bits/postypes.h **** // GNU General Public License for more details.
  15:/usr/include/c++/4.8/bits/postypes.h **** 
  16:/usr/include/c++/4.8/bits/postypes.h **** // Under Section 7 of GPL version 3, you are granted additional
  17:/usr/include/c++/4.8/bits/postypes.h **** // permissions described in the GCC Runtime Library Exception, version
  18:/usr/include/c++/4.8/bits/postypes.h **** // 3.1, as published by the Free Software Foundation.
  19:/usr/include/c++/4.8/bits/postypes.h **** 
  20:/usr/include/c++/4.8/bits/postypes.h **** // You should have received a copy of the GNU General Public License and
  21:/usr/include/c++/4.8/bits/postypes.h **** // a copy of the GCC Runtime Library Exception along with this program;
  22:/usr/include/c++/4.8/bits/postypes.h **** // see the files COPYING3 and COPYING.RUNTIME respectively.  If not, see
  23:/usr/include/c++/4.8/bits/postypes.h **** // <http://www.gnu.org/licenses/>.
  24:/usr/include/c++/4.8/bits/postypes.h **** 
  25:/usr/include/c++/4.8/bits/postypes.h **** /** @file bits/postypes.h
  26:/usr/include/c++/4.8/bits/postypes.h ****  *  This is an internal header file, included by other library headers.
  27:/usr/include/c++/4.8/bits/postypes.h ****  *  Do not attempt to use it directly. @headername{iosfwd}
  28:/usr/include/c++/4.8/bits/postypes.h ****  */
  29:/usr/include/c++/4.8/bits/postypes.h **** 
  30:/usr/include/c++/4.8/bits/postypes.h **** //
  31:/usr/include/c++/4.8/bits/postypes.h **** // ISO C++ 14882: 27.4.1 - Types
  32:/usr/include/c++/4.8/bits/postypes.h **** // ISO C++ 14882: 27.4.3 - Template class fpos
  33:/usr/include/c++/4.8/bits/postypes.h **** //
  34:/usr/include/c++/4.8/bits/postypes.h **** 
  35:/usr/include/c++/4.8/bits/postypes.h **** #ifndef _GLIBCXX_POSTYPES_H
  36:/usr/include/c++/4.8/bits/postypes.h **** #define _GLIBCXX_POSTYPES_H 1
  37:/usr/include/c++/4.8/bits/postypes.h **** 
  38:/usr/include/c++/4.8/bits/postypes.h **** #pragma GCC system_header
  39:/usr/include/c++/4.8/bits/postypes.h **** 
  40:/usr/include/c++/4.8/bits/postypes.h **** #include <cwchar> // For mbstate_t
  41:/usr/include/c++/4.8/bits/postypes.h **** 
  42:/usr/include/c++/4.8/bits/postypes.h **** // XXX If <stdint.h> is really needed, make sure to define the macros
  43:/usr/include/c++/4.8/bits/postypes.h **** // before including it, in order not to break <tr1/cstdint> (and <cstdint>
  44:/usr/include/c++/4.8/bits/postypes.h **** // in C++0x).  Reconsider all this as soon as possible...
  45:/usr/include/c++/4.8/bits/postypes.h **** #if (defined(_GLIBCXX_HAVE_INT64_T) && !defined(_GLIBCXX_HAVE_INT64_T_LONG) \
  46:/usr/include/c++/4.8/bits/postypes.h ****      && !defined(_GLIBCXX_HAVE_INT64_T_LONG_LONG))
  47:/usr/include/c++/4.8/bits/postypes.h **** 
  48:/usr/include/c++/4.8/bits/postypes.h **** #ifndef __STDC_LIMIT_MACROS
  49:/usr/include/c++/4.8/bits/postypes.h **** # define _UNDEF__STDC_LIMIT_MACROS
  50:/usr/include/c++/4.8/bits/postypes.h **** # define __STDC_LIMIT_MACROS
  51:/usr/include/c++/4.8/bits/postypes.h **** #endif
  52:/usr/include/c++/4.8/bits/postypes.h **** #ifndef __STDC_CONSTANT_MACROS
  53:/usr/include/c++/4.8/bits/postypes.h **** # define _UNDEF__STDC_CONSTANT_MACROS
  54:/usr/include/c++/4.8/bits/postypes.h **** # define __STDC_CONSTANT_MACROS
  55:/usr/include/c++/4.8/bits/postypes.h **** #endif
  56:/usr/include/c++/4.8/bits/postypes.h **** #include <stdint.h> // For int64_t
  57:/usr/include/c++/4.8/bits/postypes.h **** #ifdef _UNDEF__STDC_LIMIT_MACROS
  58:/usr/include/c++/4.8/bits/postypes.h **** # undef __STDC_LIMIT_MACROS
  59:/usr/include/c++/4.8/bits/postypes.h **** # undef _UNDEF__STDC_LIMIT_MACROS
  60:/usr/include/c++/4.8/bits/postypes.h **** #endif
  61:/usr/include/c++/4.8/bits/postypes.h **** #ifdef _UNDEF__STDC_CONSTANT_MACROS
  62:/usr/include/c++/4.8/bits/postypes.h **** # undef __STDC_CONSTANT_MACROS
  63:/usr/include/c++/4.8/bits/postypes.h **** # undef _UNDEF__STDC_CONSTANT_MACROS
  64:/usr/include/c++/4.8/bits/postypes.h **** #endif
  65:/usr/include/c++/4.8/bits/postypes.h **** 
  66:/usr/include/c++/4.8/bits/postypes.h **** #endif
  67:/usr/include/c++/4.8/bits/postypes.h **** 
  68:/usr/include/c++/4.8/bits/postypes.h **** namespace std _GLIBCXX_VISIBILITY(default)
  69:/usr/include/c++/4.8/bits/postypes.h **** {
  70:/usr/include/c++/4.8/bits/postypes.h **** _GLIBCXX_BEGIN_NAMESPACE_VERSION
  71:/usr/include/c++/4.8/bits/postypes.h **** 
  72:/usr/include/c++/4.8/bits/postypes.h ****   // The types streamoff, streampos and wstreampos and the class
  73:/usr/include/c++/4.8/bits/postypes.h ****   // template fpos<> are described in clauses 21.1.2, 21.1.3, 27.1.2,
  74:/usr/include/c++/4.8/bits/postypes.h ****   // 27.2, 27.4.1, 27.4.3 and D.6. Despite all this verbiage, the
  75:/usr/include/c++/4.8/bits/postypes.h ****   // behaviour of these types is mostly implementation defined or
  76:/usr/include/c++/4.8/bits/postypes.h ****   // unspecified. The behaviour in this implementation is as noted
  77:/usr/include/c++/4.8/bits/postypes.h ****   // below.
  78:/usr/include/c++/4.8/bits/postypes.h **** 
  79:/usr/include/c++/4.8/bits/postypes.h ****   /**
  80:/usr/include/c++/4.8/bits/postypes.h ****    *  @brief  Type used by fpos, char_traits<char>, and char_traits<wchar_t>.
  81:/usr/include/c++/4.8/bits/postypes.h ****    *
  82:/usr/include/c++/4.8/bits/postypes.h ****    *  In clauses 21.1.3.1 and 27.4.1 streamoff is described as an
  83:/usr/include/c++/4.8/bits/postypes.h ****    *  implementation defined type.
  84:/usr/include/c++/4.8/bits/postypes.h ****    *  Note: In versions of GCC up to and including GCC 3.3, streamoff
  85:/usr/include/c++/4.8/bits/postypes.h ****    *  was typedef long.
  86:/usr/include/c++/4.8/bits/postypes.h ****   */  
  87:/usr/include/c++/4.8/bits/postypes.h **** #ifdef _GLIBCXX_HAVE_INT64_T_LONG
  88:/usr/include/c++/4.8/bits/postypes.h ****   typedef long          streamoff;
  89:/usr/include/c++/4.8/bits/postypes.h **** #elif defined(_GLIBCXX_HAVE_INT64_T_LONG_LONG)
  90:/usr/include/c++/4.8/bits/postypes.h ****   typedef long long     streamoff;
  91:/usr/include/c++/4.8/bits/postypes.h **** #elif defined(_GLIBCXX_HAVE_INT64_T) 
  92:/usr/include/c++/4.8/bits/postypes.h ****   typedef int64_t       streamoff;
  93:/usr/include/c++/4.8/bits/postypes.h **** #else
  94:/usr/include/c++/4.8/bits/postypes.h ****   typedef long long     streamoff;
  95:/usr/include/c++/4.8/bits/postypes.h **** #endif
  96:/usr/include/c++/4.8/bits/postypes.h **** 
  97:/usr/include/c++/4.8/bits/postypes.h ****   /// Integral type for I/O operation counts and buffer sizes.
  98:/usr/include/c++/4.8/bits/postypes.h ****   typedef ptrdiff_t	streamsize; // Signed integral type
  99:/usr/include/c++/4.8/bits/postypes.h **** 
 100:/usr/include/c++/4.8/bits/postypes.h ****   /**
 101:/usr/include/c++/4.8/bits/postypes.h ****    *  @brief  Class representing stream positions.
 102:/usr/include/c++/4.8/bits/postypes.h ****    *
 103:/usr/include/c++/4.8/bits/postypes.h ****    *  The standard places no requirements upon the template parameter StateT.
 104:/usr/include/c++/4.8/bits/postypes.h ****    *  In this implementation StateT must be DefaultConstructible,
 105:/usr/include/c++/4.8/bits/postypes.h ****    *  CopyConstructible and Assignable.  The standard only requires that fpos
 106:/usr/include/c++/4.8/bits/postypes.h ****    *  should contain a member of type StateT. In this implementation it also
 107:/usr/include/c++/4.8/bits/postypes.h ****    *  contains an offset stored as a signed integer.
 108:/usr/include/c++/4.8/bits/postypes.h ****    *
 109:/usr/include/c++/4.8/bits/postypes.h ****    *  @param  StateT  Type passed to and returned from state().
 110:/usr/include/c++/4.8/bits/postypes.h ****    */
 111:/usr/include/c++/4.8/bits/postypes.h ****   template<typename _StateT>
 112:/usr/include/c++/4.8/bits/postypes.h ****     class fpos
 113:/usr/include/c++/4.8/bits/postypes.h ****     {
 114:/usr/include/c++/4.8/bits/postypes.h ****     private:
 115:/usr/include/c++/4.8/bits/postypes.h ****       streamoff	                _M_off;
 116:/usr/include/c++/4.8/bits/postypes.h ****       _StateT			_M_state;
 117:/usr/include/c++/4.8/bits/postypes.h **** 
 118:/usr/include/c++/4.8/bits/postypes.h ****     public:
 119:/usr/include/c++/4.8/bits/postypes.h ****       // The standard doesn't require that fpos objects can be default
 120:/usr/include/c++/4.8/bits/postypes.h ****       // constructed. This implementation provides a default
 121:/usr/include/c++/4.8/bits/postypes.h ****       // constructor that initializes the offset to 0 and default
 122:/usr/include/c++/4.8/bits/postypes.h ****       // constructs the state.
 123:/usr/include/c++/4.8/bits/postypes.h ****       fpos()
 124:/usr/include/c++/4.8/bits/postypes.h ****       : _M_off(0), _M_state() { }
 125:/usr/include/c++/4.8/bits/postypes.h **** 
 126:/usr/include/c++/4.8/bits/postypes.h ****       // The standard requires that fpos objects can be constructed
 127:/usr/include/c++/4.8/bits/postypes.h ****       // from streamoff objects using the constructor syntax, and
 128:/usr/include/c++/4.8/bits/postypes.h ****       // fails to give any meaningful semantics. In this
 129:/usr/include/c++/4.8/bits/postypes.h ****       // implementation implicit conversion is also allowed, and this
 130:/usr/include/c++/4.8/bits/postypes.h ****       // constructor stores the streamoff as the offset and default
 131:/usr/include/c++/4.8/bits/postypes.h ****       // constructs the state.
 132:/usr/include/c++/4.8/bits/postypes.h ****       /// Construct position from offset.
 133:/usr/include/c++/4.8/bits/postypes.h ****       fpos(streamoff __off)
 134:/usr/include/c++/4.8/bits/postypes.h ****       : _M_off(__off), _M_state() { }
 135:/usr/include/c++/4.8/bits/postypes.h **** 
 136:/usr/include/c++/4.8/bits/postypes.h ****       /// Convert to streamoff.
 137:/usr/include/c++/4.8/bits/postypes.h ****       operator streamoff() const { return _M_off; }
 2856              		.loc 6 137 0
 2857              		.cfi_startproc
 2858 0000 55       		pushq	%rbp
 2859              		.cfi_def_cfa_offset 16
 2860              		.cfi_offset 6, -16
 2861 0001 4889E5   		movq	%rsp, %rbp
 2862              		.cfi_def_cfa_register 6
 2863 0004 48897DF8 		movq	%rdi, -8(%rbp)
 2864              		.loc 6 137 0
 2865 0008 488B45F8 		movq	-8(%rbp), %rax
 2866 000c 488B00   		movq	(%rax), %rax
 2867 000f 5D       		popq	%rbp
 2868              		.cfi_def_cfa 7, 8
 2869 0010 C3       		ret
 2870              		.cfi_endproc
 2871              	.LFE1153:
 2873              		.section	.text._ZN8UnitTest15CheckArrayEqualIPKcPcEEvRNS_11TestResultsERKT_RKT0_iRKNS_11TestDetail
 2874              		.weak	_ZN8UnitTest15CheckArrayEqualIPKcPcEEvRNS_11TestResultsERKT_RKT0_iRKNS_11TestDetailsE
 2876              	_ZN8UnitTest15CheckArrayEqualIPKcPcEEvRNS_11TestResultsERKT_RKT0_iRKNS_11TestDetailsE:
 2877              	.LFB1155:
  59:/home/pandu/Desktop/DigitalLogicDesign/Lab/03-/makestuff/libs/libutpp/Checks.h ****                 int const count, TestDetails const& details)
 2878              		.loc 5 59 0
 2879              		.cfi_startproc
 2880              		.cfi_personality 0x3,__gxx_personality_v0
 2881              		.cfi_lsda 0x3,.LLSDA1155
 2882 0000 55       		pushq	%rbp
 2883              		.cfi_def_cfa_offset 16
 2884              		.cfi_offset 6, -16
 2885 0001 4889E5   		movq	%rsp, %rbp
 2886              		.cfi_def_cfa_register 6
 2887 0004 53       		pushq	%rbx
 2888 0005 4881ECB8 		subq	$440, %rsp
 2888      010000
 2889              		.cfi_offset 3, -24
 2890 000c 4889BD68 		movq	%rdi, -408(%rbp)
 2890      FEFFFF
 2891 0013 4889B560 		movq	%rsi, -416(%rbp)
 2891      FEFFFF
 2892 001a 48899558 		movq	%rdx, -424(%rbp)
 2892      FEFFFF
 2893 0021 898D54FE 		movl	%ecx, -428(%rbp)
 2893      FFFF
 2894 0027 4C898548 		movq	%r8, -440(%rbp)
 2894      FEFFFF
 2895              	.LBB29:
  62:/home/pandu/Desktop/DigitalLogicDesign/Lab/03-/makestuff/libs/libutpp/Checks.h ****     for (int i = 0; i < count; ++i)
 2896              		.loc 5 62 0
 2897 002e C68573FE 		movb	$1, -397(%rbp)
 2897      FFFF01
 2898              	.LBB30:
  63:/home/pandu/Desktop/DigitalLogicDesign/Lab/03-/makestuff/libs/libutpp/Checks.h ****         equal &= (expected[i] == actual[i]);
 2899              		.loc 5 63 0
 2900 0035 C78574FE 		movl	$0, -396(%rbp)
 2900      FFFF0000 
 2900      0000
 2901 003f EB53     		jmp	.L159
 2902              	.L160:
  64:/home/pandu/Desktop/DigitalLogicDesign/Lab/03-/makestuff/libs/libutpp/Checks.h **** 
 2903              		.loc 5 64 0 discriminator 2
 2904 0041 0FB69573 		movzbl	-397(%rbp), %edx
 2904      FEFFFF
 2905 0048 488B8560 		movq	-416(%rbp), %rax
 2905      FEFFFF
 2906 004f 488B08   		movq	(%rax), %rcx
 2907 0052 8B8574FE 		movl	-396(%rbp), %eax
 2907      FFFF
 2908 0058 4898     		cltq
 2909 005a 4801C8   		addq	%rcx, %rax
 2910 005d 0FB608   		movzbl	(%rax), %ecx
 2911 0060 488B8558 		movq	-424(%rbp), %rax
 2911      FEFFFF
 2912 0067 488B30   		movq	(%rax), %rsi
 2913 006a 8B8574FE 		movl	-396(%rbp), %eax
 2913      FFFF
 2914 0070 4898     		cltq
 2915 0072 4801F0   		addq	%rsi, %rax
 2916 0075 0FB600   		movzbl	(%rax), %eax
 2917 0078 38C1     		cmpb	%al, %cl
 2918 007a 0F94C0   		sete	%al
 2919 007d 0FB6C0   		movzbl	%al, %eax
 2920 0080 21D0     		andl	%edx, %eax
 2921 0082 85C0     		testl	%eax, %eax
 2922 0084 0F95C0   		setne	%al
 2923 0087 888573FE 		movb	%al, -397(%rbp)
 2923      FFFF
  63:/home/pandu/Desktop/DigitalLogicDesign/Lab/03-/makestuff/libs/libutpp/Checks.h ****         equal &= (expected[i] == actual[i]);
 2924              		.loc 5 63 0 discriminator 2
 2925 008d 838574FE 		addl	$1, -396(%rbp)
 2925      FFFF01
 2926              	.L159:
  63:/home/pandu/Desktop/DigitalLogicDesign/Lab/03-/makestuff/libs/libutpp/Checks.h ****         equal &= (expected[i] == actual[i]);
 2927              		.loc 5 63 0 is_stmt 0 discriminator 1
 2928 0094 8B8574FE 		movl	-396(%rbp), %eax
 2928      FFFF
 2929 009a 3B8554FE 		cmpl	-428(%rbp), %eax
 2929      FFFF
 2930 00a0 7C9F     		jl	.L160
 2931              	.LBE30:
 2932              	.LBB31:
  66:/home/pandu/Desktop/DigitalLogicDesign/Lab/03-/makestuff/libs/libutpp/Checks.h ****     {
 2933              		.loc 5 66 0 is_stmt 1
 2934 00a2 0FB68573 		movzbl	-397(%rbp), %eax
 2934      FEFFFF
 2935 00a9 83F001   		xorl	$1, %eax
 2936 00ac 84C0     		testb	%al, %al
 2937 00ae 0F845801 		je	.L168
 2937      0000
 2938              	.LBB32:
  68:/home/pandu/Desktop/DigitalLogicDesign/Lab/03-/makestuff/libs/libutpp/Checks.h **** 
 2939              		.loc 5 68 0
 2940 00b4 488D8580 		leaq	-384(%rbp), %rax
 2940      FEFFFF
 2941 00bb 4889C7   		movq	%rax, %rdi
 2942              	.LEHB103:
 2943 00be E8000000 		call	_ZN8UnitTest15MemoryOutStreamC1Ev
 2943      00
 2944              	.LEHE103:
  70:/home/pandu/Desktop/DigitalLogicDesign/Lab/03-/makestuff/libs/libutpp/Checks.h **** 
 2945              		.loc 5 70 0
 2946 00c3 488D8580 		leaq	-384(%rbp), %rax
 2946      FEFFFF
 2947 00ca BE000000 		movl	$.LC22, %esi
 2947      00
 2948 00cf 4889C7   		movq	%rax, %rdi
 2949              	.LEHB104:
 2950 00d2 E8000000 		call	_ZStlsISt11char_traitsIcEERSt13basic_ostreamIcT_ES5_PKc
 2950      00
 2951              	.LBB33:
  72:/home/pandu/Desktop/DigitalLogicDesign/Lab/03-/makestuff/libs/libutpp/Checks.h ****             stream << expected[expectedIndex] << " ";
 2952              		.loc 5 72 0
 2953 00d7 C78578FE 		movl	$0, -392(%rbp)
 2953      FFFF0000 
 2953      0000
 2954 00e1 EB40     		jmp	.L162
 2955              	.L163:
  73:/home/pandu/Desktop/DigitalLogicDesign/Lab/03-/makestuff/libs/libutpp/Checks.h **** 
 2956              		.loc 5 73 0
 2957 00e3 488B8560 		movq	-416(%rbp), %rax
 2957      FEFFFF
 2958 00ea 488B10   		movq	(%rax), %rdx
 2959 00ed 8B8578FE 		movl	-392(%rbp), %eax
 2959      FFFF
 2960 00f3 4898     		cltq
 2961 00f5 4801D0   		addq	%rdx, %rax
 2962 00f8 0FB600   		movzbl	(%rax), %eax
 2963 00fb 0FBED0   		movsbl	%al, %edx
 2964 00fe 488D8580 		leaq	-384(%rbp), %rax
 2964      FEFFFF
 2965 0105 89D6     		movl	%edx, %esi
 2966 0107 4889C7   		movq	%rax, %rdi
 2967 010a E8000000 		call	_ZStlsISt11char_traitsIcEERSt13basic_ostreamIcT_ES5_c
 2967      00
 2968 010f BE000000 		movl	$.LC23, %esi
 2968      00
 2969 0114 4889C7   		movq	%rax, %rdi
 2970 0117 E8000000 		call	_ZStlsISt11char_traitsIcEERSt13basic_ostreamIcT_ES5_PKc
 2970      00
  72:/home/pandu/Desktop/DigitalLogicDesign/Lab/03-/makestuff/libs/libutpp/Checks.h ****             stream << expected[expectedIndex] << " ";
 2971              		.loc 5 72 0
 2972 011c 838578FE 		addl	$1, -392(%rbp)
 2972      FFFF01
 2973              	.L162:
  72:/home/pandu/Desktop/DigitalLogicDesign/Lab/03-/makestuff/libs/libutpp/Checks.h ****             stream << expected[expectedIndex] << " ";
 2974              		.loc 5 72 0 is_stmt 0 discriminator 1
 2975 0123 8B8578FE 		movl	-392(%rbp), %eax
 2975      FFFF
 2976 0129 3B8554FE 		cmpl	-428(%rbp), %eax
 2976      FFFF
 2977 012f 7CB2     		jl	.L163
 2978              	.LBE33:
  75:/home/pandu/Desktop/DigitalLogicDesign/Lab/03-/makestuff/libs/libutpp/Checks.h **** 
 2979              		.loc 5 75 0 is_stmt 1
 2980 0131 488D8580 		leaq	-384(%rbp), %rax
 2980      FEFFFF
 2981 0138 BE000000 		movl	$.LC24, %esi
 2981      00
 2982 013d 4889C7   		movq	%rax, %rdi
 2983 0140 E8000000 		call	_ZStlsISt11char_traitsIcEERSt13basic_ostreamIcT_ES5_PKc
 2983      00
 2984              	.LBB34:
  77:/home/pandu/Desktop/DigitalLogicDesign/Lab/03-/makestuff/libs/libutpp/Checks.h ****             stream << actual[actualIndex] << " ";
 2985              		.loc 5 77 0
 2986 0145 C7857CFE 		movl	$0, -388(%rbp)
 2986      FFFF0000 
 2986      0000
 2987 014f EB40     		jmp	.L164
 2988              	.L165:
  78:/home/pandu/Desktop/DigitalLogicDesign/Lab/03-/makestuff/libs/libutpp/Checks.h **** 
 2989              		.loc 5 78 0
 2990 0151 488B8558 		movq	-424(%rbp), %rax
 2990      FEFFFF
 2991 0158 488B10   		movq	(%rax), %rdx
 2992 015b 8B857CFE 		movl	-388(%rbp), %eax
 2992      FFFF
 2993 0161 4898     		cltq
 2994 0163 4801D0   		addq	%rdx, %rax
 2995 0166 0FB600   		movzbl	(%rax), %eax
 2996 0169 0FBED0   		movsbl	%al, %edx
 2997 016c 488D8580 		leaq	-384(%rbp), %rax
 2997      FEFFFF
 2998 0173 89D6     		movl	%edx, %esi
 2999 0175 4889C7   		movq	%rax, %rdi
 3000 0178 E8000000 		call	_ZStlsISt11char_traitsIcEERSt13basic_ostreamIcT_ES5_c
 3000      00
 3001 017d BE000000 		movl	$.LC23, %esi
 3001      00
 3002 0182 4889C7   		movq	%rax, %rdi
 3003 0185 E8000000 		call	_ZStlsISt11char_traitsIcEERSt13basic_ostreamIcT_ES5_PKc
 3003      00
  77:/home/pandu/Desktop/DigitalLogicDesign/Lab/03-/makestuff/libs/libutpp/Checks.h ****             stream << actual[actualIndex] << " ";
 3004              		.loc 5 77 0
 3005 018a 83857CFE 		addl	$1, -388(%rbp)
 3005      FFFF01
 3006              	.L164:
  77:/home/pandu/Desktop/DigitalLogicDesign/Lab/03-/makestuff/libs/libutpp/Checks.h ****             stream << actual[actualIndex] << " ";
 3007              		.loc 5 77 0 is_stmt 0 discriminator 1
 3008 0191 8B857CFE 		movl	-388(%rbp), %eax
 3008      FFFF
 3009 0197 3B8554FE 		cmpl	-428(%rbp), %eax
 3009      FFFF
 3010 019d 7CB2     		jl	.L165
 3011              	.LBE34:
  80:/home/pandu/Desktop/DigitalLogicDesign/Lab/03-/makestuff/libs/libutpp/Checks.h **** 
 3012              		.loc 5 80 0 is_stmt 1
 3013 019f 488D8580 		leaq	-384(%rbp), %rax
 3013      FEFFFF
 3014 01a6 BE000000 		movl	$.LC25, %esi
 3014      00
 3015 01ab 4889C7   		movq	%rax, %rdi
 3016 01ae E8000000 		call	_ZStlsISt11char_traitsIcEERSt13basic_ostreamIcT_ES5_PKc
 3016      00
  82:/home/pandu/Desktop/DigitalLogicDesign/Lab/03-/makestuff/libs/libutpp/Checks.h ****     }
 3017              		.loc 5 82 0
 3018 01b3 488D8580 		leaq	-384(%rbp), %rax
 3018      FEFFFF
 3019 01ba 4889C7   		movq	%rax, %rdi
 3020 01bd E8000000 		call	_ZNK8UnitTest15MemoryOutStream7GetTextEv
 3020      00
 3021 01c2 4889C2   		movq	%rax, %rdx
 3022 01c5 488B8D48 		movq	-440(%rbp), %rcx
 3022      FEFFFF
 3023 01cc 488B8568 		movq	-408(%rbp), %rax
 3023      FEFFFF
 3024 01d3 4889CE   		movq	%rcx, %rsi
 3025 01d6 4889C7   		movq	%rax, %rdi
 3026 01d9 E8000000 		call	_ZN8UnitTest11TestResults13OnTestFailureERKNS_11TestDetailsEPKc
 3026      00
 3027              	.LEHE104:
  82:/home/pandu/Desktop/DigitalLogicDesign/Lab/03-/makestuff/libs/libutpp/Checks.h ****     }
 3028              		.loc 5 82 0 is_stmt 0 discriminator 1
 3029 01de 488D8580 		leaq	-384(%rbp), %rax
 3029      FEFFFF
 3030 01e5 4889C7   		movq	%rax, %rdi
 3031              	.LEHB105:
 3032 01e8 E8000000 		call	_ZN8UnitTest15MemoryOutStreamD1Ev
 3032      00
 3033              	.LEHE105:
 3034              	.LBE32:
 3035 01ed EB1D     		jmp	.L168
 3036              	.L167:
 3037 01ef 4889C3   		movq	%rax, %rbx
 3038              	.LBB35:
  82:/home/pandu/Desktop/DigitalLogicDesign/Lab/03-/makestuff/libs/libutpp/Checks.h ****     }
 3039              		.loc 5 82 0
 3040 01f2 488D8580 		leaq	-384(%rbp), %rax
 3040      FEFFFF
 3041 01f9 4889C7   		movq	%rax, %rdi
 3042 01fc E8000000 		call	_ZN8UnitTest15MemoryOutStreamD1Ev
 3042      00
 3043 0201 4889D8   		movq	%rbx, %rax
 3044 0204 4889C7   		movq	%rax, %rdi
 3045              	.LEHB106:
 3046 0207 E8000000 		call	_Unwind_Resume
 3046      00
 3047              	.LEHE106:
 3048              	.L168:
 3049              	.LBE35:
 3050              	.LBE31:
 3051              	.LBE29:
 3052              		.loc 5 84 0 is_stmt 1
 3053 020c 4881C4B8 		addq	$440, %rsp
 3053      010000
 3054 0213 5B       		popq	%rbx
 3055 0214 5D       		popq	%rbp
 3056              		.cfi_def_cfa 7, 8
 3057 0215 C3       		ret
 3058              		.cfi_endproc
 3059              	.LFE1155:
 3060              		.section	.gcc_except_table
 3061              	.LLSDA1155:
 3062 0263 FF       		.byte	0xff
 3063 0264 FF       		.byte	0xff
 3064 0265 01       		.byte	0x1
 3065 0266 16       		.uleb128 .LLSDACSE1155-.LLSDACSB1155
 3066              	.LLSDACSB1155:
 3067 0267 BE01     		.uleb128 .LEHB103-.LFB1155
 3068 0269 05       		.uleb128 .LEHE103-.LEHB103
 3069 026a 00       		.uleb128 0
 3070 026b 00       		.uleb128 0
 3071 026c D201     		.uleb128 .LEHB104-.LFB1155
 3072 026e 8C02     		.uleb128 .LEHE104-.LEHB104
 3073 0270 EF03     		.uleb128 .L167-.LFB1155
 3074 0272 00       		.uleb128 0
 3075 0273 E803     		.uleb128 .LEHB105-.LFB1155
 3076 0275 05       		.uleb128 .LEHE105-.LEHB105
 3077 0276 00       		.uleb128 0
 3078 0277 00       		.uleb128 0
 3079 0278 8704     		.uleb128 .LEHB106-.LFB1155
 3080 027a 05       		.uleb128 .LEHE106-.LEHB106
 3081 027b 00       		.uleb128 0
 3082 027c 00       		.uleb128 0
 3083              	.LLSDACSE1155:
 3084              		.section	.text._ZN8UnitTest15CheckArrayEqualIPKcPcEEvRNS_11TestResultsERKT_RKT0_iRKNS_11TestDetail
 3086              		.section	.text._ZN8UnitTest10CheckEqualIilEEvRNS_11TestResultsERKT_RKT0_RKNS_11TestDetailsE,"axG",
 3087              		.weak	_ZN8UnitTest10CheckEqualIilEEvRNS_11TestResultsERKT_RKT0_RKNS_11TestDetailsE
 3089              	_ZN8UnitTest10CheckEqualIilEEvRNS_11TestResultsERKT_RKT0_RKNS_11TestDetailsE:
 3090              	.LFB1156:
  19:/home/pandu/Desktop/DigitalLogicDesign/Lab/03-/makestuff/libs/libutpp/Checks.h **** {
 3091              		.loc 5 19 0
 3092              		.cfi_startproc
 3093              		.cfi_personality 0x3,__gxx_personality_v0
 3094              		.cfi_lsda 0x3,.LLSDA1156
 3095 0000 55       		pushq	%rbp
 3096              		.cfi_def_cfa_offset 16
 3097              		.cfi_offset 6, -16
 3098 0001 4889E5   		movq	%rsp, %rbp
 3099              		.cfi_def_cfa_register 6
 3100 0004 4154     		pushq	%r12
 3101 0006 53       		pushq	%rbx
 3102 0007 4881EC90 		subq	$400, %rsp
 3102      010000
 3103              		.cfi_offset 12, -24
 3104              		.cfi_offset 3, -32
 3105 000e 4889BD78 		movq	%rdi, -392(%rbp)
 3105      FEFFFF
 3106 0015 4889B570 		movq	%rsi, -400(%rbp)
 3106      FEFFFF
 3107 001c 48899568 		movq	%rdx, -408(%rbp)
 3107      FEFFFF
 3108 0023 48898D60 		movq	%rcx, -416(%rbp)
 3108      FEFFFF
 3109              	.LBB36:
 3110              	.LBB37:
  21:/home/pandu/Desktop/DigitalLogicDesign/Lab/03-/makestuff/libs/libutpp/Checks.h ****     {
 3111              		.loc 5 21 0
 3112 002a 488B8570 		movq	-400(%rbp), %rax
 3112      FEFFFF
 3113 0031 8B00     		movl	(%rax), %eax
 3114 0033 4863D0   		movslq	%eax, %rdx
 3115 0036 488B8568 		movq	-408(%rbp), %rax
 3115      FEFFFF
 3116 003d 488B00   		movq	(%rax), %rax
 3117 0040 4839C2   		cmpq	%rax, %rdx
 3118 0043 0F84B300 		je	.L173
 3118      0000
 3119              	.LBB38:
  23:/home/pandu/Desktop/DigitalLogicDesign/Lab/03-/makestuff/libs/libutpp/Checks.h ****         stream << "Expected " << expected << " but was " << actual;
 3120              		.loc 5 23 0
 3121 0049 488D8580 		leaq	-384(%rbp), %rax
 3121      FEFFFF
 3122 0050 4889C7   		movq	%rax, %rdi
 3123              	.LEHB107:
 3124 0053 E8000000 		call	_ZN8UnitTest15MemoryOutStreamC1Ev
 3124      00
 3125              	.LEHE107:
  24:/home/pandu/Desktop/DigitalLogicDesign/Lab/03-/makestuff/libs/libutpp/Checks.h **** 
 3126              		.loc 5 24 0
 3127 0058 488B8568 		movq	-408(%rbp), %rax
 3127      FEFFFF
 3128 005f 488B18   		movq	(%rax), %rbx
 3129 0062 488B8570 		movq	-400(%rbp), %rax
 3129      FEFFFF
 3130 0069 448B20   		movl	(%rax), %r12d
 3131 006c 488D8580 		leaq	-384(%rbp), %rax
 3131      FEFFFF
 3132 0073 BE000000 		movl	$.LC20, %esi
 3132      00
 3133 0078 4889C7   		movq	%rax, %rdi
 3134              	.LEHB108:
 3135 007b E8000000 		call	_ZStlsISt11char_traitsIcEERSt13basic_ostreamIcT_ES5_PKc
 3135      00
 3136 0080 4489E6   		movl	%r12d, %esi
 3137 0083 4889C7   		movq	%rax, %rdi
 3138 0086 E8000000 		call	_ZNSolsEi
 3138      00
  24:/home/pandu/Desktop/DigitalLogicDesign/Lab/03-/makestuff/libs/libutpp/Checks.h **** 
 3139              		.loc 5 24 0 is_stmt 0 discriminator 1
 3140 008b BE000000 		movl	$.LC21, %esi
 3140      00
 3141 0090 4889C7   		movq	%rax, %rdi
 3142 0093 E8000000 		call	_ZStlsISt11char_traitsIcEERSt13basic_ostreamIcT_ES5_PKc
 3142      00
 3143 0098 4889DE   		movq	%rbx, %rsi
 3144 009b 4889C7   		movq	%rax, %rdi
 3145 009e E8000000 		call	_ZNSolsEl
 3145      00
  26:/home/pandu/Desktop/DigitalLogicDesign/Lab/03-/makestuff/libs/libutpp/Checks.h ****     }
 3146              		.loc 5 26 0 is_stmt 1
 3147 00a3 488D8580 		leaq	-384(%rbp), %rax
 3147      FEFFFF
 3148 00aa 4889C7   		movq	%rax, %rdi
 3149 00ad E8000000 		call	_ZNK8UnitTest15MemoryOutStream7GetTextEv
 3149      00
 3150 00b2 4889C2   		movq	%rax, %rdx
 3151 00b5 488B8D60 		movq	-416(%rbp), %rcx
 3151      FEFFFF
 3152 00bc 488B8578 		movq	-392(%rbp), %rax
 3152      FEFFFF
 3153 00c3 4889CE   		movq	%rcx, %rsi
 3154 00c6 4889C7   		movq	%rax, %rdi
 3155 00c9 E8000000 		call	_ZN8UnitTest11TestResults13OnTestFailureERKNS_11TestDetailsEPKc
 3155      00
 3156              	.LEHE108:
  26:/home/pandu/Desktop/DigitalLogicDesign/Lab/03-/makestuff/libs/libutpp/Checks.h ****     }
 3157              		.loc 5 26 0 is_stmt 0 discriminator 1
 3158 00ce 488D8580 		leaq	-384(%rbp), %rax
 3158      FEFFFF
 3159 00d5 4889C7   		movq	%rax, %rdi
 3160              	.LEHB109:
 3161 00d8 E8000000 		call	_ZN8UnitTest15MemoryOutStreamD1Ev
 3161      00
 3162              	.LEHE109:
 3163              	.LBE38:
 3164 00dd EB1D     		jmp	.L173
 3165              	.L172:
 3166 00df 4889C3   		movq	%rax, %rbx
 3167              	.LBB39:
  26:/home/pandu/Desktop/DigitalLogicDesign/Lab/03-/makestuff/libs/libutpp/Checks.h ****     }
 3168              		.loc 5 26 0
 3169 00e2 488D8580 		leaq	-384(%rbp), %rax
 3169      FEFFFF
 3170 00e9 4889C7   		movq	%rax, %rdi
 3171 00ec E8000000 		call	_ZN8UnitTest15MemoryOutStreamD1Ev
 3171      00
 3172 00f1 4889D8   		movq	%rbx, %rax
 3173 00f4 4889C7   		movq	%rax, %rdi
 3174              	.LEHB110:
 3175 00f7 E8000000 		call	_Unwind_Resume
 3175      00
 3176              	.LEHE110:
 3177              	.L173:
 3178              	.LBE39:
 3179              	.LBE37:
 3180              	.LBE36:
  28:/home/pandu/Desktop/DigitalLogicDesign/Lab/03-/makestuff/libs/libutpp/Checks.h **** 
 3181              		.loc 5 28 0 is_stmt 1
 3182 00fc 4881C490 		addq	$400, %rsp
 3182      010000
 3183 0103 5B       		popq	%rbx
 3184 0104 415C     		popq	%r12
 3185 0106 5D       		popq	%rbp
 3186              		.cfi_def_cfa 7, 8
 3187 0107 C3       		ret
 3188              		.cfi_endproc
 3189              	.LFE1156:
 3190              		.section	.gcc_except_table
 3191              	.LLSDA1156:
 3192 027d FF       		.byte	0xff
 3193 027e FF       		.byte	0xff
 3194 027f 01       		.byte	0x1
 3195 0280 13       		.uleb128 .LLSDACSE1156-.LLSDACSB1156
 3196              	.LLSDACSB1156:
 3197 0281 53       		.uleb128 .LEHB107-.LFB1156
 3198 0282 05       		.uleb128 .LEHE107-.LEHB107
 3199 0283 00       		.uleb128 0
 3200 0284 00       		.uleb128 0
 3201 0285 7B       		.uleb128 .LEHB108-.LFB1156
 3202 0286 53       		.uleb128 .LEHE108-.LEHB108
 3203 0287 DF01     		.uleb128 .L172-.LFB1156
 3204 0289 00       		.uleb128 0
 3205 028a D801     		.uleb128 .LEHB109-.LFB1156
 3206 028c 05       		.uleb128 .LEHE109-.LEHB109
 3207 028d 00       		.uleb128 0
 3208 028e 00       		.uleb128 0
 3209 028f F701     		.uleb128 .LEHB110-.LFB1156
 3210 0291 05       		.uleb128 .LEHE110-.LEHB110
 3211 0292 00       		.uleb128 0
 3212 0293 00       		.uleb128 0
 3213              	.LLSDACSE1156:
 3214              		.section	.text._ZN8UnitTest10CheckEqualIilEEvRNS_11TestResultsERKT_RKT0_RKNS_11TestDetailsE,"axG",
 3216              		.weak	_ZTV23TestBinIO_testWriteFile
 3217              		.section	.rodata._ZTV23TestBinIO_testWriteFile,"aG",@progbits,_ZTV23TestBinIO_testWriteFile,comdat
 3218              		.align 32
 3221              	_ZTV23TestBinIO_testWriteFile:
 3222 0000 00000000 		.quad	0
 3222      00000000 
 3223 0008 00000000 		.quad	_ZTI23TestBinIO_testWriteFile
 3223      00000000 
 3224 0010 00000000 		.quad	_ZN23TestBinIO_testWriteFileD1Ev
 3224      00000000 
 3225 0018 00000000 		.quad	_ZN23TestBinIO_testWriteFileD0Ev
 3225      00000000 
 3226 0020 00000000 		.quad	_ZNK23TestBinIO_testWriteFile7RunImplEv
 3226      00000000 
 3227              		.section	.text._ZN23TestBinIO_testWriteFileD2Ev,"axG",@progbits,_ZN23TestBinIO_testWriteFileD5Ev,c
 3228              		.align 2
 3229              		.weak	_ZN23TestBinIO_testWriteFileD2Ev
 3231              	_ZN23TestBinIO_testWriteFileD2Ev:
 3232              	.LFB1221:
  54:testBinIO.cpp **** 	const char *const FILENAME = "tmpFile.bin";
 3233              		.loc 4 54 0
 3234              		.cfi_startproc
 3235 0000 55       		pushq	%rbp
 3236              		.cfi_def_cfa_offset 16
 3237              		.cfi_offset 6, -16
 3238 0001 4889E5   		movq	%rsp, %rbp
 3239              		.cfi_def_cfa_register 6
 3240 0004 4883EC10 		subq	$16, %rsp
 3241 0008 48897DF8 		movq	%rdi, -8(%rbp)
 3242              	.LBB40:
  54:testBinIO.cpp **** 	const char *const FILENAME = "tmpFile.bin";
 3243              		.loc 4 54 0
 3244 000c 488B45F8 		movq	-8(%rbp), %rax
 3245 0010 48C70000 		movq	$_ZTV23TestBinIO_testWriteFile+16, (%rax)
 3245      000000
 3246 0017 488B45F8 		movq	-8(%rbp), %rax
 3247 001b 4889C7   		movq	%rax, %rdi
 3248 001e E8000000 		call	_ZN8UnitTest4TestD2Ev
 3248      00
 3249              	.LBE40:
 3250 0023 B8000000 		movl	$0, %eax
 3250      00
 3251 0028 85C0     		testl	%eax, %eax
 3252 002a 740C     		je	.L174
  54:testBinIO.cpp **** 	const char *const FILENAME = "tmpFile.bin";
 3253              		.loc 4 54 0 is_stmt 0 discriminator 1
 3254 002c 488B45F8 		movq	-8(%rbp), %rax
 3255 0030 4889C7   		movq	%rax, %rdi
 3256 0033 E8000000 		call	_ZdlPv
 3256      00
 3257              	.L174:
  54:testBinIO.cpp **** 	const char *const FILENAME = "tmpFile.bin";
 3258              		.loc 4 54 0
 3259 0038 C9       		leave
 3260              		.cfi_def_cfa 7, 8
 3261 0039 C3       		ret
 3262              		.cfi_endproc
 3263              	.LFE1221:
 3265              		.weak	_ZN23TestBinIO_testWriteFileD1Ev
 3266              		.set	_ZN23TestBinIO_testWriteFileD1Ev,_ZN23TestBinIO_testWriteFileD2Ev
 3267              		.section	.text._ZN23TestBinIO_testWriteFileD0Ev,"axG",@progbits,_ZN23TestBinIO_testWriteFileD0Ev,c
 3268              		.align 2
 3269              		.weak	_ZN23TestBinIO_testWriteFileD0Ev
 3271              	_ZN23TestBinIO_testWriteFileD0Ev:
 3272              	.LFB1223:
  54:testBinIO.cpp **** 	const char *const FILENAME = "tmpFile.bin";
 3273              		.loc 4 54 0 is_stmt 1
 3274              		.cfi_startproc
 3275 0000 55       		pushq	%rbp
 3276              		.cfi_def_cfa_offset 16
 3277              		.cfi_offset 6, -16
 3278 0001 4889E5   		movq	%rsp, %rbp
 3279              		.cfi_def_cfa_register 6
 3280 0004 4883EC10 		subq	$16, %rsp
 3281 0008 48897DF8 		movq	%rdi, -8(%rbp)
  54:testBinIO.cpp **** 	const char *const FILENAME = "tmpFile.bin";
 3282              		.loc 4 54 0
 3283 000c 488B45F8 		movq	-8(%rbp), %rax
 3284 0010 4889C7   		movq	%rax, %rdi
 3285 0013 E8000000 		call	_ZN23TestBinIO_testWriteFileD1Ev
 3285      00
 3286 0018 488B45F8 		movq	-8(%rbp), %rax
 3287 001c 4889C7   		movq	%rax, %rdi
 3288 001f E8000000 		call	_ZdlPv
 3288      00
 3289 0024 C9       		leave
 3290              		.cfi_def_cfa 7, 8
 3291 0025 C3       		ret
 3292              		.cfi_endproc
 3293              	.LFE1223:
 3295              		.weak	_ZTV30TestBinIO_testReadExistingFile
 3296              		.section	.rodata._ZTV30TestBinIO_testReadExistingFile,"aG",@progbits,_ZTV30TestBinIO_testReadExist
 3297              		.align 32
 3300              	_ZTV30TestBinIO_testReadExistingFile:
 3301 0000 00000000 		.quad	0
 3301      00000000 
 3302 0008 00000000 		.quad	_ZTI30TestBinIO_testReadExistingFile
 3302      00000000 
 3303 0010 00000000 		.quad	_ZN30TestBinIO_testReadExistingFileD1Ev
 3303      00000000 
 3304 0018 00000000 		.quad	_ZN30TestBinIO_testReadExistingFileD0Ev
 3304      00000000 
 3305 0020 00000000 		.quad	_ZNK30TestBinIO_testReadExistingFile7RunImplEv
 3305      00000000 
 3306              		.section	.text._ZN30TestBinIO_testReadExistingFileD2Ev,"axG",@progbits,_ZN30TestBinIO_testReadExis
 3307              		.align 2
 3308              		.weak	_ZN30TestBinIO_testReadExistingFileD2Ev
 3310              	_ZN30TestBinIO_testReadExistingFileD2Ev:
 3311              	.LFB1225:
  33:testBinIO.cpp **** 	const char *const FILENAME = "tmpFile.bin";
 3312              		.loc 4 33 0
 3313              		.cfi_startproc
 3314 0000 55       		pushq	%rbp
 3315              		.cfi_def_cfa_offset 16
 3316              		.cfi_offset 6, -16
 3317 0001 4889E5   		movq	%rsp, %rbp
 3318              		.cfi_def_cfa_register 6
 3319 0004 4883EC10 		subq	$16, %rsp
 3320 0008 48897DF8 		movq	%rdi, -8(%rbp)
 3321              	.LBB41:
  33:testBinIO.cpp **** 	const char *const FILENAME = "tmpFile.bin";
 3322              		.loc 4 33 0
 3323 000c 488B45F8 		movq	-8(%rbp), %rax
 3324 0010 48C70000 		movq	$_ZTV30TestBinIO_testReadExistingFile+16, (%rax)
 3324      000000
 3325 0017 488B45F8 		movq	-8(%rbp), %rax
 3326 001b 4889C7   		movq	%rax, %rdi
 3327 001e E8000000 		call	_ZN8UnitTest4TestD2Ev
 3327      00
 3328              	.LBE41:
 3329 0023 B8000000 		movl	$0, %eax
 3329      00
 3330 0028 85C0     		testl	%eax, %eax
 3331 002a 740C     		je	.L179
  33:testBinIO.cpp **** 	const char *const FILENAME = "tmpFile.bin";
 3332              		.loc 4 33 0 is_stmt 0 discriminator 1
 3333 002c 488B45F8 		movq	-8(%rbp), %rax
 3334 0030 4889C7   		movq	%rax, %rdi
 3335 0033 E8000000 		call	_ZdlPv
 3335      00
 3336              	.L179:
  33:testBinIO.cpp **** 	const char *const FILENAME = "tmpFile.bin";
 3337              		.loc 4 33 0
 3338 0038 C9       		leave
 3339              		.cfi_def_cfa 7, 8
 3340 0039 C3       		ret
 3341              		.cfi_endproc
 3342              	.LFE1225:
 3344              		.weak	_ZN30TestBinIO_testReadExistingFileD1Ev
 3345              		.set	_ZN30TestBinIO_testReadExistingFileD1Ev,_ZN30TestBinIO_testReadExistingFileD2Ev
 3346              		.section	.text._ZN30TestBinIO_testReadExistingFileD0Ev,"axG",@progbits,_ZN30TestBinIO_testReadExis
 3347              		.align 2
 3348              		.weak	_ZN30TestBinIO_testReadExistingFileD0Ev
 3350              	_ZN30TestBinIO_testReadExistingFileD0Ev:
 3351              	.LFB1227:
  33:testBinIO.cpp **** 	const char *const FILENAME = "tmpFile.bin";
 3352              		.loc 4 33 0 is_stmt 1
 3353              		.cfi_startproc
 3354 0000 55       		pushq	%rbp
 3355              		.cfi_def_cfa_offset 16
 3356              		.cfi_offset 6, -16
 3357 0001 4889E5   		movq	%rsp, %rbp
 3358              		.cfi_def_cfa_register 6
 3359 0004 4883EC10 		subq	$16, %rsp
 3360 0008 48897DF8 		movq	%rdi, -8(%rbp)
  33:testBinIO.cpp **** 	const char *const FILENAME = "tmpFile.bin";
 3361              		.loc 4 33 0
 3362 000c 488B45F8 		movq	-8(%rbp), %rax
 3363 0010 4889C7   		movq	%rax, %rdi
 3364 0013 E8000000 		call	_ZN30TestBinIO_testReadExistingFileD1Ev
 3364      00
 3365 0018 488B45F8 		movq	-8(%rbp), %rax
 3366 001c 4889C7   		movq	%rax, %rdi
 3367 001f E8000000 		call	_ZdlPv
 3367      00
 3368 0024 C9       		leave
 3369              		.cfi_def_cfa 7, 8
 3370 0025 C3       		ret
 3371              		.cfi_endproc
 3372              	.LFE1227:
 3374              		.weak	_ZTV33TestBinIO_testReadNonExistentFile
 3375              		.section	.rodata._ZTV33TestBinIO_testReadNonExistentFile,"aG",@progbits,_ZTV33TestBinIO_testReadNo
 3376              		.align 32
 3379              	_ZTV33TestBinIO_testReadNonExistentFile:
 3380 0000 00000000 		.quad	0
 3380      00000000 
 3381 0008 00000000 		.quad	_ZTI33TestBinIO_testReadNonExistentFile
 3381      00000000 
 3382 0010 00000000 		.quad	_ZN33TestBinIO_testReadNonExistentFileD1Ev
 3382      00000000 
 3383 0018 00000000 		.quad	_ZN33TestBinIO_testReadNonExistentFileD0Ev
 3383      00000000 
 3384 0020 00000000 		.quad	_ZNK33TestBinIO_testReadNonExistentFile7RunImplEv
 3384      00000000 
 3385              		.section	.text._ZN33TestBinIO_testReadNonExistentFileD2Ev,"axG",@progbits,_ZN33TestBinIO_testReadN
 3386              		.align 2
 3387              		.weak	_ZN33TestBinIO_testReadNonExistentFileD2Ev
 3389              	_ZN33TestBinIO_testReadNonExistentFileD2Ev:
 3390              	.LFB1229:
  24:testBinIO.cpp **** 	Buffer buf;
 3391              		.loc 4 24 0
 3392              		.cfi_startproc
 3393 0000 55       		pushq	%rbp
 3394              		.cfi_def_cfa_offset 16
 3395              		.cfi_offset 6, -16
 3396 0001 4889E5   		movq	%rsp, %rbp
 3397              		.cfi_def_cfa_register 6
 3398 0004 4883EC10 		subq	$16, %rsp
 3399 0008 48897DF8 		movq	%rdi, -8(%rbp)
 3400              	.LBB42:
  24:testBinIO.cpp **** 	Buffer buf;
 3401              		.loc 4 24 0
 3402 000c 488B45F8 		movq	-8(%rbp), %rax
 3403 0010 48C70000 		movq	$_ZTV33TestBinIO_testReadNonExistentFile+16, (%rax)
 3403      000000
 3404 0017 488B45F8 		movq	-8(%rbp), %rax
 3405 001b 4889C7   		movq	%rax, %rdi
 3406 001e E8000000 		call	_ZN8UnitTest4TestD2Ev
 3406      00
 3407              	.LBE42:
 3408 0023 B8000000 		movl	$0, %eax
 3408      00
 3409 0028 85C0     		testl	%eax, %eax
 3410 002a 740C     		je	.L184
  24:testBinIO.cpp **** 	Buffer buf;
 3411              		.loc 4 24 0 is_stmt 0 discriminator 1
 3412 002c 488B45F8 		movq	-8(%rbp), %rax
 3413 0030 4889C7   		movq	%rax, %rdi
 3414 0033 E8000000 		call	_ZdlPv
 3414      00
 3415              	.L184:
  24:testBinIO.cpp **** 	Buffer buf;
 3416              		.loc 4 24 0
 3417 0038 C9       		leave
 3418              		.cfi_def_cfa 7, 8
 3419 0039 C3       		ret
 3420              		.cfi_endproc
 3421              	.LFE1229:
 3423              		.weak	_ZN33TestBinIO_testReadNonExistentFileD1Ev
 3424              		.set	_ZN33TestBinIO_testReadNonExistentFileD1Ev,_ZN33TestBinIO_testReadNonExistentFileD2Ev
 3425              		.section	.text._ZN33TestBinIO_testReadNonExistentFileD0Ev,"axG",@progbits,_ZN33TestBinIO_testReadN
 3426              		.align 2
 3427              		.weak	_ZN33TestBinIO_testReadNonExistentFileD0Ev
 3429              	_ZN33TestBinIO_testReadNonExistentFileD0Ev:
 3430              	.LFB1231:
  24:testBinIO.cpp **** 	Buffer buf;
 3431              		.loc 4 24 0 is_stmt 1
 3432              		.cfi_startproc
 3433 0000 55       		pushq	%rbp
 3434              		.cfi_def_cfa_offset 16
 3435              		.cfi_offset 6, -16
 3436 0001 4889E5   		movq	%rsp, %rbp
 3437              		.cfi_def_cfa_register 6
 3438 0004 4883EC10 		subq	$16, %rsp
 3439 0008 48897DF8 		movq	%rdi, -8(%rbp)
  24:testBinIO.cpp **** 	Buffer buf;
 3440              		.loc 4 24 0
 3441 000c 488B45F8 		movq	-8(%rbp), %rax
 3442 0010 4889C7   		movq	%rax, %rdi
 3443 0013 E8000000 		call	_ZN33TestBinIO_testReadNonExistentFileD1Ev
 3443      00
 3444 0018 488B45F8 		movq	-8(%rbp), %rax
 3445 001c 4889C7   		movq	%rax, %rdi
 3446 001f E8000000 		call	_ZdlPv
 3446      00
 3447 0024 C9       		leave
 3448              		.cfi_def_cfa 7, 8
 3449 0025 C3       		ret
 3450              		.cfi_endproc
 3451              	.LFE1231:
 3453              		.weak	_ZTVN8UnitTest15MemoryOutStreamE
 3454              		.section	.rodata._ZTVN8UnitTest15MemoryOutStreamE,"aG",@progbits,_ZTVN8UnitTest15MemoryOutStreamE,
 3455              		.align 32
 3458              	_ZTVN8UnitTest15MemoryOutStreamE:
 3459 0000 60000000 		.quad	96
 3459      00000000 
 3460 0008 00000000 		.quad	0
 3460      00000000 
 3461 0010 00000000 		.quad	_ZTIN8UnitTest15MemoryOutStreamE
 3461      00000000 
 3462 0018 00000000 		.quad	_ZN8UnitTest15MemoryOutStreamD1Ev
 3462      00000000 
 3463 0020 00000000 		.quad	_ZN8UnitTest15MemoryOutStreamD0Ev
 3463      00000000 
 3464 0028 A0FFFFFF 		.quad	-96
 3464      FFFFFFFF 
 3465 0030 A0FFFFFF 		.quad	-96
 3465      FFFFFFFF 
 3466 0038 00000000 		.quad	_ZTIN8UnitTest15MemoryOutStreamE
 3466      00000000 
 3467 0040 00000000 		.quad	_ZTv0_n24_N8UnitTest15MemoryOutStreamD1Ev
 3467      00000000 
 3468 0048 00000000 		.quad	_ZTv0_n24_N8UnitTest15MemoryOutStreamD0Ev
 3468      00000000 
 3469              		.weak	_ZTTN8UnitTest15MemoryOutStreamE
 3470              		.section	.rodata._ZTTN8UnitTest15MemoryOutStreamE,"aG",@progbits,_ZTVN8UnitTest15MemoryOutStreamE,
 3471              		.align 32
 3474              	_ZTTN8UnitTest15MemoryOutStreamE:
 3475 0000 00000000 		.quad	_ZTVN8UnitTest15MemoryOutStreamE+24
 3475      00000000 
 3476 0008 00000000 		.quad	_ZTCN8UnitTest15MemoryOutStreamE0_St19basic_ostringstreamIcSt11char_traitsIcESaIcEE+24
 3476      00000000 
 3477 0010 00000000 		.quad	_ZTCN8UnitTest15MemoryOutStreamE0_So+24
 3477      00000000 
 3478 0018 00000000 		.quad	_ZTCN8UnitTest15MemoryOutStreamE0_So+64
 3478      00000000 
 3479 0020 00000000 		.quad	_ZTCN8UnitTest15MemoryOutStreamE0_St19basic_ostringstreamIcSt11char_traitsIcESaIcEE+64
 3479      00000000 
 3480 0028 00000000 		.quad	_ZTVN8UnitTest15MemoryOutStreamE+64
 3480      00000000 
 3481              		.hidden	_ZTCN8UnitTest15MemoryOutStreamE0_St19basic_ostringstreamIcSt11char_traitsIcESaIcEE
 3482              		.weak	_ZTCN8UnitTest15MemoryOutStreamE0_St19basic_ostringstreamIcSt11char_traitsIcESaIcEE
 3483              		.section	.rodata._ZTCN8UnitTest15MemoryOutStreamE0_St19basic_ostringstreamIcSt11char_traitsIcESaIc
 3484              		.align 32
 3487              	_ZTCN8UnitTest15MemoryOutStreamE0_St19basic_ostringstreamIcSt11char_traitsIcESaIcEE:
 3488 0000 60000000 		.quad	96
 3488      00000000 
 3489 0008 00000000 		.quad	0
 3489      00000000 
 3490 0010 00000000 		.quad	_ZTISt19basic_ostringstreamIcSt11char_traitsIcESaIcEE
 3490      00000000 
 3491 0018 00000000 		.quad	_ZNSt19basic_ostringstreamIcSt11char_traitsIcESaIcEED1Ev
 3491      00000000 
 3492 0020 00000000 		.quad	_ZNSt19basic_ostringstreamIcSt11char_traitsIcESaIcEED0Ev
 3492      00000000 
 3493 0028 A0FFFFFF 		.quad	-96
 3493      FFFFFFFF 
 3494 0030 A0FFFFFF 		.quad	-96
 3494      FFFFFFFF 
 3495 0038 00000000 		.quad	_ZTISt19basic_ostringstreamIcSt11char_traitsIcESaIcEE
 3495      00000000 
 3496 0040 00000000 		.quad	_ZTv0_n24_NSt19basic_ostringstreamIcSt11char_traitsIcESaIcEED1Ev
 3496      00000000 
 3497 0048 00000000 		.quad	_ZTv0_n24_NSt19basic_ostringstreamIcSt11char_traitsIcESaIcEED0Ev
 3497      00000000 
 3498              		.hidden	_ZTCN8UnitTest15MemoryOutStreamE0_So
 3499              		.weak	_ZTCN8UnitTest15MemoryOutStreamE0_So
 3500              		.section	.rodata._ZTCN8UnitTest15MemoryOutStreamE0_So,"aG",@progbits,_ZTVN8UnitTest15MemoryOutStre
 3501              		.align 32
 3504              	_ZTCN8UnitTest15MemoryOutStreamE0_So:
 3505 0000 60000000 		.quad	96
 3505      00000000 
 3506 0008 00000000 		.quad	0
 3506      00000000 
 3507 0010 00000000 		.quad	_ZTISo
 3507      00000000 
 3508 0018 00000000 		.quad	_ZNSoD1Ev
 3508      00000000 
 3509 0020 00000000 		.quad	_ZNSoD0Ev
 3509      00000000 
 3510 0028 A0FFFFFF 		.quad	-96
 3510      FFFFFFFF 
 3511 0030 A0FFFFFF 		.quad	-96
 3511      FFFFFFFF 
 3512 0038 00000000 		.quad	_ZTISo
 3512      00000000 
 3513 0040 00000000 		.quad	_ZTv0_n24_NSoD1Ev
 3513      00000000 
 3514 0048 00000000 		.quad	_ZTv0_n24_NSoD0Ev
 3514      00000000 
 3515              		.weak	_ZTI23TestBinIO_testWriteFile
 3516              		.section	.rodata._ZTI23TestBinIO_testWriteFile,"aG",@progbits,_ZTI23TestBinIO_testWriteFile,comdat
 3517              		.align 16
 3520              	_ZTI23TestBinIO_testWriteFile:
 3521 0000 00000000 		.quad	_ZTVN10__cxxabiv120__si_class_type_infoE+16
 3521      00000000 
 3522 0008 00000000 		.quad	_ZTS23TestBinIO_testWriteFile
 3522      00000000 
 3523 0010 00000000 		.quad	_ZTIN8UnitTest4TestE
 3523      00000000 
 3524              		.weak	_ZTS23TestBinIO_testWriteFile
 3525              		.section	.rodata._ZTS23TestBinIO_testWriteFile,"aG",@progbits,_ZTS23TestBinIO_testWriteFile,comdat
 3526              		.align 16
 3529              	_ZTS23TestBinIO_testWriteFile:
 3530 0000 32335465 		.string	"23TestBinIO_testWriteFile"
 3530      73744269 
 3530      6E494F5F 
 3530      74657374 
 3530      57726974 
 3531              		.weak	_ZTI30TestBinIO_testReadExistingFile
 3532              		.section	.rodata._ZTI30TestBinIO_testReadExistingFile,"aG",@progbits,_ZTI30TestBinIO_testReadExist
 3533              		.align 16
 3536              	_ZTI30TestBinIO_testReadExistingFile:
 3537 0000 00000000 		.quad	_ZTVN10__cxxabiv120__si_class_type_infoE+16
 3537      00000000 
 3538 0008 00000000 		.quad	_ZTS30TestBinIO_testReadExistingFile
 3538      00000000 
 3539 0010 00000000 		.quad	_ZTIN8UnitTest4TestE
 3539      00000000 
 3540              		.weak	_ZTS30TestBinIO_testReadExistingFile
 3541              		.section	.rodata._ZTS30TestBinIO_testReadExistingFile,"aG",@progbits,_ZTS30TestBinIO_testReadExist
 3542              		.align 32
 3545              	_ZTS30TestBinIO_testReadExistingFile:
 3546 0000 33305465 		.string	"30TestBinIO_testReadExistingFile"
 3546      73744269 
 3546      6E494F5F 
 3546      74657374 
 3546      52656164 
 3547              		.weak	_ZTI33TestBinIO_testReadNonExistentFile
 3548              		.section	.rodata._ZTI33TestBinIO_testReadNonExistentFile,"aG",@progbits,_ZTI33TestBinIO_testReadNo
 3549              		.align 16
 3552              	_ZTI33TestBinIO_testReadNonExistentFile:
 3553 0000 00000000 		.quad	_ZTVN10__cxxabiv120__si_class_type_infoE+16
 3553      00000000 
 3554 0008 00000000 		.quad	_ZTS33TestBinIO_testReadNonExistentFile
 3554      00000000 
 3555 0010 00000000 		.quad	_ZTIN8UnitTest4TestE
 3555      00000000 
 3556              		.weak	_ZTS33TestBinIO_testReadNonExistentFile
 3557              		.section	.rodata._ZTS33TestBinIO_testReadNonExistentFile,"aG",@progbits,_ZTS33TestBinIO_testReadNo
 3558              		.align 32
 3561              	_ZTS33TestBinIO_testReadNonExistentFile:
 3562 0000 33335465 		.string	"33TestBinIO_testReadNonExistentFile"
 3562      73744269 
 3562      6E494F5F 
 3562      74657374 
 3562      52656164 
 3563              		.weak	_ZTSN8UnitTest15MemoryOutStreamE
 3564              		.section	.rodata._ZTSN8UnitTest15MemoryOutStreamE,"aG",@progbits,_ZTSN8UnitTest15MemoryOutStreamE,
 3565              		.align 16
 3568              	_ZTSN8UnitTest15MemoryOutStreamE:
 3569 0000 4E38556E 		.string	"N8UnitTest15MemoryOutStreamE"
 3569      69745465 
 3569      73743135 
 3569      4D656D6F 
 3569      72794F75 
 3570              		.weak	_ZTIN8UnitTest15MemoryOutStreamE
 3571              		.section	.rodata._ZTIN8UnitTest15MemoryOutStreamE,"aG",@progbits,_ZTIN8UnitTest15MemoryOutStreamE,
 3572              		.align 16
 3575              	_ZTIN8UnitTest15MemoryOutStreamE:
 3576 0000 00000000 		.quad	_ZTVN10__cxxabiv120__si_class_type_infoE+16
 3576      00000000 
 3577 0008 00000000 		.quad	_ZTSN8UnitTest15MemoryOutStreamE
 3577      00000000 
 3578 0010 00000000 		.quad	_ZTISt19basic_ostringstreamIcSt11char_traitsIcESaIcEE
 3578      00000000 
 3579              		.text
 3581              	_Z41__static_initialization_and_destruction_0ii:
 3582              	.LFB1232:
 3583              		.loc 4 92 0
 3584              		.cfi_startproc
 3585 117e 55       		pushq	%rbp
 3586              		.cfi_def_cfa_offset 16
 3587              		.cfi_offset 6, -16
 3588 117f 4889E5   		movq	%rsp, %rbp
 3589              		.cfi_def_cfa_register 6
 3590 1182 4883EC10 		subq	$16, %rsp
 3591 1186 897DFC   		movl	%edi, -4(%rbp)
 3592 1189 8975F8   		movl	%esi, -8(%rbp)
 3593              		.loc 4 92 0
 3594 118c 837DFC01 		cmpl	$1, -4(%rbp)
 3595 1190 0F85AC00 		jne	.L189
 3595      0000
 3596              		.loc 4 92 0 is_stmt 0 discriminator 1
 3597 1196 817DF8FF 		cmpl	$65535, -8(%rbp)
 3597      FF0000
 3598 119d 0F859F00 		jne	.L189
 3598      0000
  24:testBinIO.cpp **** 	Buffer buf;
 3599              		.loc 4 24 0 is_stmt 1
 3600 11a3 BF000000 		movl	$testBinIO_testReadNonExistentFileInstance, %edi
 3600      00
 3601 11a8 E8000000 		call	_ZN33TestBinIO_testReadNonExistentFileC1Ev
 3601      00
 3602 11ad BA000000 		movl	$__dso_handle, %edx
 3602      00
 3603 11b2 BE000000 		movl	$testBinIO_testReadNonExistentFileInstance, %esi
 3603      00
 3604 11b7 BF000000 		movl	$_ZN33TestBinIO_testReadNonExistentFileD1Ev, %edi
 3604      00
 3605 11bc E8000000 		call	__cxa_atexit
 3605      00
 3606 11c1 E8000000 		call	_ZN8UnitTest4Test11GetTestListEv
 3606      00
 3607 11c6 BA000000 		movl	$testBinIO_testReadNonExistentFileInstance, %edx
 3607      00
 3608 11cb 4889C6   		movq	%rax, %rsi
 3609 11ce BF000000 		movl	$adderBinIO_testReadNonExistentFile, %edi
 3609      00
 3610 11d3 E8000000 		call	_ZN8UnitTest9ListAdderC1ERNS_8TestListEPNS_4TestE
 3610      00
  33:testBinIO.cpp **** 	const char *const FILENAME = "tmpFile.bin";
 3611              		.loc 4 33 0
 3612 11d8 BF000000 		movl	$testBinIO_testReadExistingFileInstance, %edi
 3612      00
 3613 11dd E8000000 		call	_ZN30TestBinIO_testReadExistingFileC1Ev
 3613      00
 3614 11e2 BA000000 		movl	$__dso_handle, %edx
 3614      00
 3615 11e7 BE000000 		movl	$testBinIO_testReadExistingFileInstance, %esi
 3615      00
 3616 11ec BF000000 		movl	$_ZN30TestBinIO_testReadExistingFileD1Ev, %edi
 3616      00
 3617 11f1 E8000000 		call	__cxa_atexit
 3617      00
 3618 11f6 E8000000 		call	_ZN8UnitTest4Test11GetTestListEv
 3618      00
 3619 11fb BA000000 		movl	$testBinIO_testReadExistingFileInstance, %edx
 3619      00
 3620 1200 4889C6   		movq	%rax, %rsi
 3621 1203 BF000000 		movl	$adderBinIO_testReadExistingFile, %edi
 3621      00
 3622 1208 E8000000 		call	_ZN8UnitTest9ListAdderC1ERNS_8TestListEPNS_4TestE
 3622      00
  54:testBinIO.cpp **** 	const char *const FILENAME = "tmpFile.bin";
 3623              		.loc 4 54 0
 3624 120d BF000000 		movl	$testBinIO_testWriteFileInstance, %edi
 3624      00
 3625 1212 E8000000 		call	_ZN23TestBinIO_testWriteFileC1Ev
 3625      00
 3626 1217 BA000000 		movl	$__dso_handle, %edx
 3626      00
 3627 121c BE000000 		movl	$testBinIO_testWriteFileInstance, %esi
 3627      00
 3628 1221 BF000000 		movl	$_ZN23TestBinIO_testWriteFileD1Ev, %edi
 3628      00
 3629 1226 E8000000 		call	__cxa_atexit
 3629      00
 3630 122b E8000000 		call	_ZN8UnitTest4Test11GetTestListEv
 3630      00
 3631 1230 BA000000 		movl	$testBinIO_testWriteFileInstance, %edx
 3631      00
 3632 1235 4889C6   		movq	%rax, %rsi
 3633 1238 BF000000 		movl	$adderBinIO_testWriteFile, %edi
 3633      00
 3634 123d E8000000 		call	_ZN8UnitTest9ListAdderC1ERNS_8TestListEPNS_4TestE
 3634      00
 3635              	.L189:
 3636              		.loc 4 92 0
 3637 1242 C9       		leave
 3638              		.cfi_def_cfa 7, 8
 3639 1243 C3       		ret
 3640              		.cfi_endproc
 3641              	.LFE1232:
 3644              	_GLOBAL__sub_I_testBinIO_testReadNonExistentFileInstance:
 3645              	.LFB1233:
 3646              		.loc 4 92 0
 3647              		.cfi_startproc
 3648 1244 55       		pushq	%rbp
 3649              		.cfi_def_cfa_offset 16
 3650              		.cfi_offset 6, -16
 3651 1245 4889E5   		movq	%rsp, %rbp
 3652              		.cfi_def_cfa_register 6
 3653              		.loc 4 92 0
 3654 1248 BEFFFF00 		movl	$65535, %esi
 3654      00
 3655 124d BF010000 		movl	$1, %edi
 3655      00
 3656 1252 E827FFFF 		call	_Z41__static_initialization_and_destruction_0ii
 3656      FF
 3657 1257 5D       		popq	%rbp
 3658              		.cfi_def_cfa 7, 8
 3659 1258 C3       		ret
 3660              		.cfi_endproc
 3661              	.LFE1233:
 3663              		.section	.init_array,"aw"
 3664              		.align 8
 3665 0000 00000000 		.quad	_GLOBAL__sub_I_testBinIO_testReadNonExistentFileInstance
 3665      00000000 
 3666              		.section	.rodata
 3667 038c 00000000 		.align 8
 3670              	_ZZL18__gthread_active_pvE20__gthread_active_ptr:
 3671 0390 00000000 		.quad	_ZL28__gthrw___pthread_key_createPjPFvPvE
 3671      00000000 
 3672              		.weakref	_ZL28__gthrw___pthread_key_createPjPFvPvE,__pthread_key_create
 3673              		.text
 3674              	.Letext0:
 3675              		.file 7 "/usr/lib/gcc/x86_64-linux-gnu/4.8/include/stddef.h"
 3676              		.file 8 "/usr/include/stdio.h"
 3677              		.file 9 "/usr/include/libio.h"
 3678              		.file 10 "<built-in>"
 3679              		.file 11 "/usr/include/wchar.h"
 3680              		.file 12 "/usr/include/c++/4.8/cwchar"
 3681              		.file 13 "/usr/include/c++/4.8/bits/char_traits.h"
 3682              		.file 14 "/usr/include/x86_64-linux-gnu/c++/4.8/bits/c++config.h"
 3683              		.file 15 "/usr/include/c++/4.8/clocale"
 3684              		.file 16 "/usr/include/c++/4.8/bits/allocator.h"
 3685              		.file 17 "/usr/include/c++/4.8/bits/basic_string.h"
 3686              		.file 18 "/usr/include/c++/4.8/bits/basic_string.tcc"
 3687              		.file 19 "/usr/include/c++/4.8/bits/stringfwd.h"
 3688              		.file 20 "/usr/include/c++/4.8/cwctype"
 3689              		.file 21 "/usr/include/c++/4.8/cstdio"
 3690              		.file 22 "/usr/include/c++/4.8/iosfwd"
 3691              		.file 23 "/usr/include/time.h"
 3692              		.file 24 "/usr/include/c++/4.8/ext/new_allocator.h"
 3693              		.file 25 "/usr/include/c++/4.8/ext/numeric_traits.h"
 3694              		.file 26 "/usr/include/c++/4.8/debug/debug.h"
 3695              		.file 27 "/usr/include/locale.h"
 3696              		.file 28 "/usr/include/x86_64-linux-gnu/bits/types.h"
 3697              		.file 29 "/usr/include/x86_64-linux-gnu/c++/4.8/bits/atomic_word.h"
 3698              		.file 30 "/usr/include/wctype.h"
 3699              		.file 31 "/usr/include/_G_config.h"
 3700              		.file 32 "/home/pandu/Desktop/DigitalLogicDesign/Lab/03-/makestuff/libs/libutpp/TestDetails.h"
 3701              		.file 33 "/home/pandu/Desktop/DigitalLogicDesign/Lab/03-/makestuff/libs/libutpp/TestList.h"
 3702              		.file 34 "/home/pandu/Desktop/DigitalLogicDesign/Lab/03-/makestuff/libs/libutpp/TestResults.h"
 3703              		.file 35 "/home/pandu/Desktop/DigitalLogicDesign/Lab/03-/makestuff/common/makestuff.h"
 3704              		.file 36 "../libbuffer.h"
DEFINED SYMBOLS
                            *ABS*:0000000000000000 testBinIO.cpp
     /tmp/ccb7z7Vl.s:7      .text._ZStorSt13_Ios_OpenmodeS_:0000000000000000 _ZStorSt13_Ios_OpenmodeS_
     /tmp/ccb7z7Vl.s:35     .text._ZN13UnitTestSuite12GetSuiteNameEv:0000000000000000 _ZN13UnitTestSuite12GetSuiteNameEv
     /tmp/ccb7z7Vl.s:58     .text._ZN8UnitTest15MemoryOutStreamC1Ev:0000000000000000 _ZN8UnitTest15MemoryOutStreamC1Ev
     /tmp/ccb7z7Vl.s:3474   .rodata._ZTTN8UnitTest15MemoryOutStreamE:0000000000000000 _ZTTN8UnitTest15MemoryOutStreamE
     /tmp/ccb7z7Vl.s:3458   .rodata._ZTVN8UnitTest15MemoryOutStreamE:0000000000000000 _ZTVN8UnitTest15MemoryOutStreamE
     /tmp/ccb7z7Vl.s:176    .text._ZN33TestBinIO_testReadNonExistentFileC2Ev:0000000000000000 _ZN33TestBinIO_testReadNonExistentFileC2Ev
     /tmp/ccb7z7Vl.s:3379   .rodata._ZTV33TestBinIO_testReadNonExistentFile:0000000000000000 _ZTV33TestBinIO_testReadNonExistentFile
     /tmp/ccb7z7Vl.s:176    .text._ZN33TestBinIO_testReadNonExistentFileC2Ev:0000000000000000 _ZN33TestBinIO_testReadNonExistentFileC1Ev
     /tmp/ccb7z7Vl.s:214    .bss:0000000000000000 testBinIO_testReadNonExistentFileInstance
     /tmp/ccb7z7Vl.s:219    .bss:0000000000000038 adderBinIO_testReadNonExistentFile
     /tmp/ccb7z7Vl.s:234    .text:0000000000000000 _ZNK33TestBinIO_testReadNonExistentFile7RunImplEv
     /tmp/ccb7z7Vl.s:2344   .text._ZN8UnitTest10CheckEqualI12BufferStatusS1_EEvRNS_11TestResultsERKT_RKT0_RKNS_11TestDetailsE:0000000000000000 _ZN8UnitTest10CheckEqualI12BufferStatusS1_EEvRNS_11TestResultsERKT_RKT0_RKNS_11TestDetailsE
     /tmp/ccb7z7Vl.s:462    .text._ZN30TestBinIO_testReadExistingFileC2Ev:0000000000000000 _ZN30TestBinIO_testReadExistingFileC2Ev
     /tmp/ccb7z7Vl.s:3300   .rodata._ZTV30TestBinIO_testReadExistingFile:0000000000000000 _ZTV30TestBinIO_testReadExistingFile
     /tmp/ccb7z7Vl.s:462    .text._ZN30TestBinIO_testReadExistingFileC2Ev:0000000000000000 _ZN30TestBinIO_testReadExistingFileC1Ev
     /tmp/ccb7z7Vl.s:499    .bss:0000000000000040 testBinIO_testReadExistingFileInstance
     /tmp/ccb7z7Vl.s:504    .bss:0000000000000078 adderBinIO_testReadExistingFile
     /tmp/ccb7z7Vl.s:527    .text:0000000000000194 _ZNK30TestBinIO_testReadExistingFile7RunImplEv
     /tmp/ccb7z7Vl.s:2476   .text._ZN8UnitTest10CheckEqualImmEEvRNS_11TestResultsERKT_RKT0_RKNS_11TestDetailsE:0000000000000000 _ZN8UnitTest10CheckEqualImmEEvRNS_11TestResultsERKT_RKT0_RKNS_11TestDetailsE
     /tmp/ccb7z7Vl.s:2614   .text._ZN8UnitTest15CheckArrayEqualIPKcPhEEvRNS_11TestResultsERKT_RKT0_iRKNS_11TestDetailsE:0000000000000000 _ZN8UnitTest15CheckArrayEqualIPKcPhEEvRNS_11TestResultsERKT_RKT0_iRKNS_11TestDetailsE
     /tmp/ccb7z7Vl.s:1147   .text._ZN23TestBinIO_testWriteFileC2Ev:0000000000000000 _ZN23TestBinIO_testWriteFileC2Ev
     /tmp/ccb7z7Vl.s:3221   .rodata._ZTV23TestBinIO_testWriteFile:0000000000000000 _ZTV23TestBinIO_testWriteFile
     /tmp/ccb7z7Vl.s:1147   .text._ZN23TestBinIO_testWriteFileC2Ev:0000000000000000 _ZN23TestBinIO_testWriteFileC1Ev
     /tmp/ccb7z7Vl.s:1184   .bss:0000000000000080 testBinIO_testWriteFileInstance
     /tmp/ccb7z7Vl.s:1189   .bss:00000000000000b8 adderBinIO_testWriteFile
     /tmp/ccb7z7Vl.s:1213   .text:00000000000007bc _ZNK23TestBinIO_testWriteFile7RunImplEv
     /tmp/ccb7z7Vl.s:2829   .text._ZN8UnitTest5CheckIbEEbT_:0000000000000000 _ZN8UnitTest5CheckIbEEbT_
     /tmp/ccb7z7Vl.s:2853   .text._ZNKSt4fposI11__mbstate_tEcvlEv:0000000000000000 _ZNKSt4fposI11__mbstate_tEcvlEv
     /tmp/ccb7z7Vl.s:2876   .text._ZN8UnitTest15CheckArrayEqualIPKcPcEEvRNS_11TestResultsERKT_RKT0_iRKNS_11TestDetailsE:0000000000000000 _ZN8UnitTest15CheckArrayEqualIPKcPcEEvRNS_11TestResultsERKT_RKT0_iRKNS_11TestDetailsE
     /tmp/ccb7z7Vl.s:3089   .text._ZN8UnitTest10CheckEqualIilEEvRNS_11TestResultsERKT_RKT0_RKNS_11TestDetailsE:0000000000000000 _ZN8UnitTest10CheckEqualIilEEvRNS_11TestResultsERKT_RKT0_RKNS_11TestDetailsE
     /tmp/ccb7z7Vl.s:2158   .text._ZN8UnitTest15MemoryOutStreamD1Ev:0000000000000000 _ZN8UnitTest15MemoryOutStreamD1Ev
     /tmp/ccb7z7Vl.s:2285   .text._ZN8UnitTest15MemoryOutStreamD1Ev:00000000000000c8 _ZTv0_n24_N8UnitTest15MemoryOutStreamD1Ev
     /tmp/ccb7z7Vl.s:2299   .text._ZN8UnitTest15MemoryOutStreamD0Ev:0000000000000000 _ZN8UnitTest15MemoryOutStreamD0Ev
     /tmp/ccb7z7Vl.s:2326   .text._ZN8UnitTest15MemoryOutStreamD0Ev:0000000000000026 _ZTv0_n24_N8UnitTest15MemoryOutStreamD0Ev
     /tmp/ccb7z7Vl.s:3520   .rodata._ZTI23TestBinIO_testWriteFile:0000000000000000 _ZTI23TestBinIO_testWriteFile
     /tmp/ccb7z7Vl.s:3231   .text._ZN23TestBinIO_testWriteFileD2Ev:0000000000000000 _ZN23TestBinIO_testWriteFileD1Ev
     /tmp/ccb7z7Vl.s:3271   .text._ZN23TestBinIO_testWriteFileD0Ev:0000000000000000 _ZN23TestBinIO_testWriteFileD0Ev
     /tmp/ccb7z7Vl.s:3231   .text._ZN23TestBinIO_testWriteFileD2Ev:0000000000000000 _ZN23TestBinIO_testWriteFileD2Ev
     /tmp/ccb7z7Vl.s:3536   .rodata._ZTI30TestBinIO_testReadExistingFile:0000000000000000 _ZTI30TestBinIO_testReadExistingFile
     /tmp/ccb7z7Vl.s:3310   .text._ZN30TestBinIO_testReadExistingFileD2Ev:0000000000000000 _ZN30TestBinIO_testReadExistingFileD1Ev
     /tmp/ccb7z7Vl.s:3350   .text._ZN30TestBinIO_testReadExistingFileD0Ev:0000000000000000 _ZN30TestBinIO_testReadExistingFileD0Ev
     /tmp/ccb7z7Vl.s:3310   .text._ZN30TestBinIO_testReadExistingFileD2Ev:0000000000000000 _ZN30TestBinIO_testReadExistingFileD2Ev
     /tmp/ccb7z7Vl.s:3552   .rodata._ZTI33TestBinIO_testReadNonExistentFile:0000000000000000 _ZTI33TestBinIO_testReadNonExistentFile
     /tmp/ccb7z7Vl.s:3389   .text._ZN33TestBinIO_testReadNonExistentFileD2Ev:0000000000000000 _ZN33TestBinIO_testReadNonExistentFileD1Ev
     /tmp/ccb7z7Vl.s:3429   .text._ZN33TestBinIO_testReadNonExistentFileD0Ev:0000000000000000 _ZN33TestBinIO_testReadNonExistentFileD0Ev
     /tmp/ccb7z7Vl.s:3389   .text._ZN33TestBinIO_testReadNonExistentFileD2Ev:0000000000000000 _ZN33TestBinIO_testReadNonExistentFileD2Ev
     /tmp/ccb7z7Vl.s:3575   .rodata._ZTIN8UnitTest15MemoryOutStreamE:0000000000000000 _ZTIN8UnitTest15MemoryOutStreamE
     /tmp/ccb7z7Vl.s:3487   .rodata._ZTCN8UnitTest15MemoryOutStreamE0_St19basic_ostringstreamIcSt11char_traitsIcESaIcEE:0000000000000000 _ZTCN8UnitTest15MemoryOutStreamE0_St19basic_ostringstreamIcSt11char_traitsIcESaIcEE
     /tmp/ccb7z7Vl.s:3504   .rodata._ZTCN8UnitTest15MemoryOutStreamE0_So:0000000000000000 _ZTCN8UnitTest15MemoryOutStreamE0_So
     /tmp/ccb7z7Vl.s:3529   .rodata._ZTS23TestBinIO_testWriteFile:0000000000000000 _ZTS23TestBinIO_testWriteFile
     /tmp/ccb7z7Vl.s:3545   .rodata._ZTS30TestBinIO_testReadExistingFile:0000000000000000 _ZTS30TestBinIO_testReadExistingFile
     /tmp/ccb7z7Vl.s:3561   .rodata._ZTS33TestBinIO_testReadNonExistentFile:0000000000000000 _ZTS33TestBinIO_testReadNonExistentFile
     /tmp/ccb7z7Vl.s:3568   .rodata._ZTSN8UnitTest15MemoryOutStreamE:0000000000000000 _ZTSN8UnitTest15MemoryOutStreamE
     /tmp/ccb7z7Vl.s:3581   .text:000000000000117e _Z41__static_initialization_and_destruction_0ii
     /tmp/ccb7z7Vl.s:3644   .text:0000000000001244 _GLOBAL__sub_I_testBinIO_testReadNonExistentFileInstance
     /tmp/ccb7z7Vl.s:3670   .rodata:0000000000000390 _ZZL18__gthread_active_pvE20__gthread_active_ptr
                           .group:0000000000000000 _ZN33TestBinIO_testReadNonExistentFileC5Ev
                           .group:0000000000000000 _ZN30TestBinIO_testReadExistingFileC5Ev
                           .group:0000000000000000 _ZN23TestBinIO_testWriteFileC5Ev
                           .group:0000000000000000 _ZN23TestBinIO_testWriteFileD5Ev
                           .group:0000000000000000 _ZN30TestBinIO_testReadExistingFileD5Ev
                           .group:0000000000000000 _ZN33TestBinIO_testReadNonExistentFileD5Ev

UNDEFINED SYMBOLS
__gxx_personality_v0
_ZNSt9basic_iosIcSt11char_traitsIcEEC2Ev
_ZNSt19basic_ostringstreamIcSt11char_traitsIcESaIcEEC2ESt13_Ios_Openmode
_ZNSsC1Ev
_ZNSt19basic_ostringstreamIcSt11char_traitsIcESaIcEED2Ev
_ZNSt9basic_iosIcSt11char_traitsIcEED2Ev
_Unwind_Resume
_ZN8UnitTest4TestC2EPKcS2_S2_i
bufInitialise
_ZN8UnitTest11CurrentTest7DetailsEv
_ZN8UnitTest11TestDetailsC1ERKS0_i
_ZN8UnitTest11CurrentTest7ResultsEv
bufAppendFromBinaryFile
bufDestroy
__cxa_end_catch
__cxa_begin_catch
_ZN8UnitTest11TestResults13OnTestFailureERKNS_11TestDetailsEPKc
_ZNSt14basic_ofstreamIcSt11char_traitsIcEEC1Ev
_ZNSt14basic_ofstreamIcSt11char_traitsIcEE4openEPKcSt13_Ios_Openmode
_ZStlsISt11char_traitsIcEERSt13basic_ostreamIcT_ES5_PKc
_ZNSt14basic_ofstreamIcSt11char_traitsIcEE5closeEv
_ZNSt14basic_ofstreamIcSt11char_traitsIcEED1Ev
__stack_chk_fail
_ZNSt14basic_ifstreamIcSt11char_traitsIcEEC1Ev
bufAppendBlock
bufWriteBinaryFile
_ZNSt14basic_ifstreamIcSt11char_traitsIcEE4openEPKcSt13_Ios_Openmode
_ZNSt14basic_ifstreamIcSt11char_traitsIcEE7is_openEv
_ZNSi5tellgEv
_Znam
_ZNSi5seekgElSt12_Ios_Seekdir
_ZNSi4readEPcl
_ZNSt14basic_ifstreamIcSt11char_traitsIcEE5closeEv
_ZdaPv
_ZNSt14basic_ifstreamIcSt11char_traitsIcEED1Ev
_ZNSsD1Ev
_ZdlPv
_ZNSolsEi
_ZNK8UnitTest15MemoryOutStream7GetTextEv
_ZNSolsEm
_ZStlsISt11char_traitsIcEERSt13basic_ostreamIcT_ES5_c
_ZStlsISt11char_traitsIcEERSt13basic_ostreamIcT_ES5_h
_ZNSolsEl
_ZN8UnitTest4TestD2Ev
_ZTISt19basic_ostringstreamIcSt11char_traitsIcESaIcEE
_ZNSt19basic_ostringstreamIcSt11char_traitsIcESaIcEED1Ev
_ZNSt19basic_ostringstreamIcSt11char_traitsIcESaIcEED0Ev
_ZTv0_n24_NSt19basic_ostringstreamIcSt11char_traitsIcESaIcEED1Ev
_ZTv0_n24_NSt19basic_ostringstreamIcSt11char_traitsIcESaIcEED0Ev
_ZTISo
_ZNSoD1Ev
_ZNSoD0Ev
_ZTv0_n24_NSoD1Ev
_ZTv0_n24_NSoD0Ev
_ZTVN10__cxxabiv120__si_class_type_infoE
_ZTIN8UnitTest4TestE
__dso_handle
__cxa_atexit
_ZN8UnitTest4Test11GetTestListEv
_ZN8UnitTest9ListAdderC1ERNS_8TestListEPNS_4TestE
__pthread_key_create
