   1              		.file	"testConv.cpp"
   2              		.text
   3              	.Ltext0:
   4              		.section	.rodata
   5              	.LC0:
   6 0000 44656661 		.string	"DefaultSuite"
   6      756C7453 
   6      75697465 
   6      00
   7              		.section	.text._ZN13UnitTestSuite12GetSuiteNameEv,"axG",@progbits,_ZN13UnitTestSuite12GetSuiteName
   8              		.weak	_ZN13UnitTestSuite12GetSuiteNameEv
  10              	_ZN13UnitTestSuite12GetSuiteNameEv:
  11              	.LFB0:
  12              		.file 1 "/home/pandu/Desktop/DigitalLogicDesign/Lab/03-finishingup/backend/libs/libutpp/TestSuite.
   1:/home/pandu/Desktop/DigitalLogicDesign/Lab/03-finishingup/backend/libs/libutpp/TestSuite.h **** #ifndef UNITTEST_TESTSUITE_H
   2:/home/pandu/Desktop/DigitalLogicDesign/Lab/03-finishingup/backend/libs/libutpp/TestSuite.h **** #define UNITTEST_TESTSUITE_H
   3:/home/pandu/Desktop/DigitalLogicDesign/Lab/03-finishingup/backend/libs/libutpp/TestSuite.h **** 
   4:/home/pandu/Desktop/DigitalLogicDesign/Lab/03-finishingup/backend/libs/libutpp/TestSuite.h **** namespace UnitTestSuite {
   5:/home/pandu/Desktop/DigitalLogicDesign/Lab/03-finishingup/backend/libs/libutpp/TestSuite.h **** 
   6:/home/pandu/Desktop/DigitalLogicDesign/Lab/03-finishingup/backend/libs/libutpp/TestSuite.h ****     inline char const* GetSuiteName ()
   7:/home/pandu/Desktop/DigitalLogicDesign/Lab/03-finishingup/backend/libs/libutpp/TestSuite.h ****     {
  13              		.loc 1 7 0
  14              		.cfi_startproc
  15 0000 55       		pushq	%rbp
  16              		.cfi_def_cfa_offset 16
  17              		.cfi_offset 6, -16
  18 0001 4889E5   		movq	%rsp, %rbp
  19              		.cfi_def_cfa_register 6
   8:/home/pandu/Desktop/DigitalLogicDesign/Lab/03-finishingup/backend/libs/libutpp/TestSuite.h ****         return "DefaultSuite";
  20              		.loc 1 8 0
  21 0004 B8000000 		movl	$.LC0, %eax
  21      00
   9:/home/pandu/Desktop/DigitalLogicDesign/Lab/03-finishingup/backend/libs/libutpp/TestSuite.h ****     }
  22              		.loc 1 9 0
  23 0009 5D       		popq	%rbp
  24              		.cfi_def_cfa 7, 8
  25 000a C3       		ret
  26              		.cfi_endproc
  27              	.LFE0:
  29              		.section	.text._ZN8UnitTest15MemoryOutStreamC1Ev,"axG",@progbits,_ZN8UnitTest15MemoryOutStreamC1Ev
  30              		.align 2
  31              		.weak	_ZN8UnitTest15MemoryOutStreamC1Ev
  33              	_ZN8UnitTest15MemoryOutStreamC1Ev:
  34              	.LFB1007:
  35              		.file 2 "/home/pandu/Desktop/DigitalLogicDesign/Lab/03-finishingup/backend/libs/libutpp/MemoryOutS
   1:/home/pandu/Desktop/DigitalLogicDesign/Lab/03-finishingup/backend/libs/libutpp/MemoryOutStream.h **** #ifndef UNITTEST_MEMORYOUTSTREAM_H
   2:/home/pandu/Desktop/DigitalLogicDesign/Lab/03-finishingup/backend/libs/libutpp/MemoryOutStream.h **** #define UNITTEST_MEMORYOUTSTREAM_H
   3:/home/pandu/Desktop/DigitalLogicDesign/Lab/03-finishingup/backend/libs/libutpp/MemoryOutStream.h **** 
   4:/home/pandu/Desktop/DigitalLogicDesign/Lab/03-finishingup/backend/libs/libutpp/MemoryOutStream.h **** #include "Config.h"
   5:/home/pandu/Desktop/DigitalLogicDesign/Lab/03-finishingup/backend/libs/libutpp/MemoryOutStream.h **** 
   6:/home/pandu/Desktop/DigitalLogicDesign/Lab/03-finishingup/backend/libs/libutpp/MemoryOutStream.h **** #ifndef UNITTEST_USE_CUSTOM_STREAMS
   7:/home/pandu/Desktop/DigitalLogicDesign/Lab/03-finishingup/backend/libs/libutpp/MemoryOutStream.h **** 
   8:/home/pandu/Desktop/DigitalLogicDesign/Lab/03-finishingup/backend/libs/libutpp/MemoryOutStream.h **** #include <sstream>
   9:/home/pandu/Desktop/DigitalLogicDesign/Lab/03-finishingup/backend/libs/libutpp/MemoryOutStream.h **** 
  10:/home/pandu/Desktop/DigitalLogicDesign/Lab/03-finishingup/backend/libs/libutpp/MemoryOutStream.h **** namespace UnitTest
  11:/home/pandu/Desktop/DigitalLogicDesign/Lab/03-finishingup/backend/libs/libutpp/MemoryOutStream.h **** {
  12:/home/pandu/Desktop/DigitalLogicDesign/Lab/03-finishingup/backend/libs/libutpp/MemoryOutStream.h **** 
  13:/home/pandu/Desktop/DigitalLogicDesign/Lab/03-finishingup/backend/libs/libutpp/MemoryOutStream.h **** class MemoryOutStream : public std::ostringstream
  14:/home/pandu/Desktop/DigitalLogicDesign/Lab/03-finishingup/backend/libs/libutpp/MemoryOutStream.h **** {
  15:/home/pandu/Desktop/DigitalLogicDesign/Lab/03-finishingup/backend/libs/libutpp/MemoryOutStream.h **** public:
  16:/home/pandu/Desktop/DigitalLogicDesign/Lab/03-finishingup/backend/libs/libutpp/MemoryOutStream.h ****     MemoryOutStream() {}
  36              		.loc 2 16 0
  37              		.cfi_startproc
  38              		.cfi_personality 0x3,__gxx_personality_v0
  39              		.cfi_lsda 0x3,.LLSDA1007
  40 0000 55       		pushq	%rbp
  41              		.cfi_def_cfa_offset 16
  42              		.cfi_offset 6, -16
  43 0001 4889E5   		movq	%rsp, %rbp
  44              		.cfi_def_cfa_register 6
  45 0004 53       		pushq	%rbx
  46 0005 4883EC18 		subq	$24, %rsp
  47              		.cfi_offset 3, -24
  48 0009 48897DE8 		movq	%rdi, -24(%rbp)
  49              	.LBB2:
  50              		.loc 2 16 0
  51 000d 488B45E8 		movq	-24(%rbp), %rax
  52 0011 4883C060 		addq	$96, %rax
  53 0015 4889C7   		movq	%rax, %rdi
  54              	.LEHB0:
  55 0018 E8000000 		call	_ZNSt9basic_iosIcSt11char_traitsIcEEC2Ev
  55      00
  56              	.LEHE0:
  57 001d B9000000 		movl	$_ZTTN8UnitTest15MemoryOutStreamE+8, %ecx
  57      00
  58 0022 488B45E8 		movq	-24(%rbp), %rax
  59 0026 BA100000 		movl	$16, %edx
  59      00
  60 002b 4889CE   		movq	%rcx, %rsi
  61 002e 4889C7   		movq	%rax, %rdi
  62              	.LEHB1:
  63 0031 E8000000 		call	_ZNSt19basic_ostringstreamIcSt11char_traitsIcESaIcEEC2ESt13_Ios_Openmode
  63      00
  64              	.LEHE1:
  65              		.loc 2 16 0 is_stmt 0 discriminator 6
  66 0036 BA000000 		movl	$_ZTVN8UnitTest15MemoryOutStreamE+24, %edx
  66      00
  67 003b 488B45E8 		movq	-24(%rbp), %rax
  68 003f 488910   		movq	%rdx, (%rax)
  69 0042 BA600000 		movl	$96, %edx
  69      00
  70 0047 488B45E8 		movq	-24(%rbp), %rax
  71 004b 4801C2   		addq	%rax, %rdx
  72 004e B8000000 		movl	$_ZTVN8UnitTest15MemoryOutStreamE+64, %eax
  72      00
  73 0053 488902   		movq	%rax, (%rdx)
  74 0056 488B45E8 		movq	-24(%rbp), %rax
  75 005a 4883C058 		addq	$88, %rax
  76 005e 4889C7   		movq	%rax, %rdi
  77              	.LEHB2:
  78 0061 E8000000 		call	_ZNSsC1Ev
  78      00
  79              	.LEHE2:
  80              	.LBE2:
  81              		.loc 2 16 0
  82 0066 EB37     		jmp	.L8
  83              	.L6:
  84 0068 4889C3   		movq	%rax, %rbx
  85              	.LBB3:
  86 006b BA000000 		movl	$_ZTTN8UnitTest15MemoryOutStreamE+8, %edx
  86      00
  87 0070 488B45E8 		movq	-24(%rbp), %rax
  88 0074 4889D6   		movq	%rdx, %rsi
  89 0077 4889C7   		movq	%rax, %rdi
  90 007a E8000000 		call	_ZNSt19basic_ostringstreamIcSt11char_traitsIcESaIcEED2Ev
  90      00
  91 007f EB03     		jmp	.L5
  92              	.L7:
  93 0081 4889C3   		movq	%rax, %rbx
  94              	.L5:
  95              		.loc 2 16 0 discriminator 19
  96 0084 488B45E8 		movq	-24(%rbp), %rax
  97 0088 4883C060 		addq	$96, %rax
  98 008c 4889C7   		movq	%rax, %rdi
  99 008f E8000000 		call	_ZNSt9basic_iosIcSt11char_traitsIcEED2Ev
  99      00
 100 0094 4889D8   		movq	%rbx, %rax
 101 0097 4889C7   		movq	%rax, %rdi
 102              	.LEHB3:
 103 009a E8000000 		call	_Unwind_Resume
 103      00
 104              	.LEHE3:
 105              	.L8:
 106              	.LBE3:
 107              		.loc 2 16 0
 108 009f 4883C418 		addq	$24, %rsp
 109 00a3 5B       		popq	%rbx
 110 00a4 5D       		popq	%rbp
 111              		.cfi_def_cfa 7, 8
 112 00a5 C3       		ret
 113              		.cfi_endproc
 114              	.LFE1007:
 115              		.globl	__gxx_personality_v0
 116              		.section	.gcc_except_table._ZN8UnitTest15MemoryOutStreamC1Ev,"aG",@progbits,_ZN8UnitTest15MemoryOu
 117              	.LLSDA1007:
 118 0000 FF       		.byte	0xff
 119 0001 FF       		.byte	0xff
 120 0002 01       		.byte	0x1
 121 0003 12       		.uleb128 .LLSDACSE1007-.LLSDACSB1007
 122              	.LLSDACSB1007:
 123 0004 18       		.uleb128 .LEHB0-.LFB1007
 124 0005 05       		.uleb128 .LEHE0-.LEHB0
 125 0006 00       		.uleb128 0
 126 0007 00       		.uleb128 0
 127 0008 31       		.uleb128 .LEHB1-.LFB1007
 128 0009 05       		.uleb128 .LEHE1-.LEHB1
 129 000a 8101     		.uleb128 .L7-.LFB1007
 130 000c 00       		.uleb128 0
 131 000d 61       		.uleb128 .LEHB2-.LFB1007
 132 000e 05       		.uleb128 .LEHE2-.LEHB2
 133 000f 68       		.uleb128 .L6-.LFB1007
 134 0010 00       		.uleb128 0
 135 0011 9A01     		.uleb128 .LEHB3-.LFB1007
 136 0013 05       		.uleb128 .LEHE3-.LEHB3
 137 0014 00       		.uleb128 0
 138 0015 00       		.uleb128 0
 139              	.LLSDACSE1007:
 140              		.section	.text._ZN8UnitTest15MemoryOutStreamC1Ev,"axG",@progbits,_ZN8UnitTest15MemoryOutStreamC1Ev
 142              		.section	.rodata
 143              	.LC1:
 144 000d 74657374 		.string	"testConv.cpp"
 144      436F6E76 
 144      2E637070 
 144      00
 145              	.LC2:
 146 001a 436F6E76 		.string	"Conv_testGetHexNibble"
 146      5F746573 
 146      74476574 
 146      4865784E 
 146      6962626C 
 147              		.section	.text._ZN25TestConv_testGetHexNibbleC2Ev,"axG",@progbits,_ZN25TestConv_testGetHexNibbleC5
 148              		.align 2
 149              		.weak	_ZN25TestConv_testGetHexNibbleC2Ev
 151              	_ZN25TestConv_testGetHexNibbleC2Ev:
 152              	.LFB1024:
 153              		.file 3 "testConv.cpp"
   1:testConv.cpp  **** /*
   2:testConv.cpp  ****  * Copyright (C) 2009-2012 Chris McClelland
   3:testConv.cpp  ****  *
   4:testConv.cpp  ****  * This program is free software: you can redistribute it and/or modify
   5:testConv.cpp  ****  * it under the terms of the GNU Lesser General Public License as published by
   6:testConv.cpp  ****  * the Free Software Foundation, either version 3 of the License, or
   7:testConv.cpp  ****  * (at your option) any later version.
   8:testConv.cpp  ****  *
   9:testConv.cpp  ****  * This program is distributed in the hope that it will be useful,
  10:testConv.cpp  ****  * but WITHOUT ANY WARRANTY; without even the implied warranty of
  11:testConv.cpp  ****  * MERCHANTABILITY or FITNESS FOR A PARTICULAR PURPOSE.  See the
  12:testConv.cpp  ****  * GNU Lesser General Public License for more details.
  13:testConv.cpp  ****  *
  14:testConv.cpp  ****  * You should have received a copy of the GNU Lesser General Public License
  15:testConv.cpp  ****  * along with this program.  If not, see <http://www.gnu.org/licenses/>.
  16:testConv.cpp  ****  */
  17:testConv.cpp  **** #include <UnitTest++.h>
  18:testConv.cpp  **** #include "../conv.h"
  19:testConv.cpp  **** 
  20:testConv.cpp  **** TEST(Conv_testGetHexNibble) {
 154              		.loc 3 20 0 is_stmt 1
 155              		.cfi_startproc
 156 0000 55       		pushq	%rbp
 157              		.cfi_def_cfa_offset 16
 158              		.cfi_offset 6, -16
 159 0001 4889E5   		movq	%rsp, %rbp
 160              		.cfi_def_cfa_register 6
 161 0004 4883EC10 		subq	$16, %rsp
 162 0008 48897DF8 		movq	%rdi, -8(%rbp)
 163              	.LBB4:
 164              		.loc 3 20 0
 165 000c E8000000 		call	_ZN13UnitTestSuite12GetSuiteNameEv
 165      00
 166 0011 4889C2   		movq	%rax, %rdx
 167 0014 488B45F8 		movq	-8(%rbp), %rax
 168 0018 41B81400 		movl	$20, %r8d
 168      0000
 169 001e B9000000 		movl	$.LC1, %ecx
 169      00
 170 0023 BE000000 		movl	$.LC2, %esi
 170      00
 171 0028 4889C7   		movq	%rax, %rdi
 172 002b E8000000 		call	_ZN8UnitTest4TestC2EPKcS2_S2_i
 172      00
 173 0030 488B45F8 		movq	-8(%rbp), %rax
 174 0034 48C70000 		movq	$_ZTV25TestConv_testGetHexNibble+16, (%rax)
 174      000000
 175              	.LBE4:
 176 003b C9       		leave
 177              		.cfi_def_cfa 7, 8
 178 003c C3       		ret
 179              		.cfi_endproc
 180              	.LFE1024:
 182              		.weak	_ZN25TestConv_testGetHexNibbleC1Ev
 183              		.set	_ZN25TestConv_testGetHexNibbleC1Ev,_ZN25TestConv_testGetHexNibbleC2Ev
 184              		.globl	testConv_testGetHexNibbleInstance
 185              		.bss
 186              		.align 32
 189              	testConv_testGetHexNibbleInstance:
 190 0000 00000000 		.zero	56
 190      00000000 
 190      00000000 
 190      00000000 
 190      00000000 
 191              		.globl	adderConv_testGetHexNibble
 194              	adderConv_testGetHexNibble:
 195 0038 00       		.zero	1
 196              		.section	.rodata
 197              		.align 8
 198              	.LC3:
 199 0030 556E6861 		.string	"Unhandled exception in CHECK_EQUAL(false, status)"
 199      6E646C65 
 199      64206578 
 199      63657074 
 199      696F6E20 
 200 0062 00000000 		.align 8
 200      0000
 201              	.LC4:
 202 0068 556E6861 		.string	"Unhandled exception in CHECK_EQUAL(0, nibble)"
 202      6E646C65 
 202      64206578 
 202      63657074 
 202      696F6E20 
 203 0096 0000     		.align 8
 204              	.LC5:
 205 0098 556E6861 		.string	"Unhandled exception in CHECK_EQUAL(1, nibble)"
 205      6E646C65 
 205      64206578 
 205      63657074 
 205      696F6E20 
 206 00c6 0000     		.align 8
 207              	.LC6:
 208 00c8 556E6861 		.string	"Unhandled exception in CHECK_EQUAL(2, nibble)"
 208      6E646C65 
 208      64206578 
 208      63657074 
 208      696F6E20 
 209 00f6 0000     		.align 8
 210              	.LC7:
 211 00f8 556E6861 		.string	"Unhandled exception in CHECK_EQUAL(3, nibble)"
 211      6E646C65 
 211      64206578 
 211      63657074 
 211      696F6E20 
 212 0126 0000     		.align 8
 213              	.LC8:
 214 0128 556E6861 		.string	"Unhandled exception in CHECK_EQUAL(4, nibble)"
 214      6E646C65 
 214      64206578 
 214      63657074 
 214      696F6E20 
 215 0156 0000     		.align 8
 216              	.LC9:
 217 0158 556E6861 		.string	"Unhandled exception in CHECK_EQUAL(5, nibble)"
 217      6E646C65 
 217      64206578 
 217      63657074 
 217      696F6E20 
 218 0186 0000     		.align 8
 219              	.LC10:
 220 0188 556E6861 		.string	"Unhandled exception in CHECK_EQUAL(6, nibble)"
 220      6E646C65 
 220      64206578 
 220      63657074 
 220      696F6E20 
 221 01b6 0000     		.align 8
 222              	.LC11:
 223 01b8 556E6861 		.string	"Unhandled exception in CHECK_EQUAL(7, nibble)"
 223      6E646C65 
 223      64206578 
 223      63657074 
 223      696F6E20 
 224 01e6 0000     		.align 8
 225              	.LC12:
 226 01e8 556E6861 		.string	"Unhandled exception in CHECK_EQUAL(8, nibble)"
 226      6E646C65 
 226      64206578 
 226      63657074 
 226      696F6E20 
 227 0216 0000     		.align 8
 228              	.LC13:
 229 0218 556E6861 		.string	"Unhandled exception in CHECK_EQUAL(9, nibble)"
 229      6E646C65 
 229      64206578 
 229      63657074 
 229      696F6E20 
 230 0246 0000     		.align 8
 231              	.LC14:
 232 0248 556E6861 		.string	"Unhandled exception in CHECK_EQUAL(10, nibble)"
 232      6E646C65 
 232      64206578 
 232      63657074 
 232      696F6E20 
 233 0277 00       		.align 8
 234              	.LC15:
 235 0278 556E6861 		.string	"Unhandled exception in CHECK_EQUAL(11, nibble)"
 235      6E646C65 
 235      64206578 
 235      63657074 
 235      696F6E20 
 236 02a7 00       		.align 8
 237              	.LC16:
 238 02a8 556E6861 		.string	"Unhandled exception in CHECK_EQUAL(12, nibble)"
 238      6E646C65 
 238      64206578 
 238      63657074 
 238      696F6E20 
 239 02d7 00       		.align 8
 240              	.LC17:
 241 02d8 556E6861 		.string	"Unhandled exception in CHECK_EQUAL(13, nibble)"
 241      6E646C65 
 241      64206578 
 241      63657074 
 241      696F6E20 
 242 0307 00       		.align 8
 243              	.LC18:
 244 0308 556E6861 		.string	"Unhandled exception in CHECK_EQUAL(14, nibble)"
 244      6E646C65 
 244      64206578 
 244      63657074 
 244      696F6E20 
 245 0337 00       		.align 8
 246              	.LC19:
 247 0338 556E6861 		.string	"Unhandled exception in CHECK_EQUAL(15, nibble)"
 247      6E646C65 
 247      64206578 
 247      63657074 
 247      696F6E20 
 248 0367 00       		.align 8
 249              	.LC20:
 250 0368 556E6861 		.string	"Unhandled exception in CHECK_EQUAL(true, status)"
 250      6E646C65 
 250      64206578 
 250      63657074 
 250      696F6E20 
 251              		.text
 252              		.align 2
 253              		.globl	_ZNK25TestConv_testGetHexNibble7RunImplEv
 255              	_ZNK25TestConv_testGetHexNibble7RunImplEv:
 256              	.LFB1026:
 257              		.loc 3 20 0
 258              		.cfi_startproc
 259              		.cfi_personality 0x3,__gxx_personality_v0
 260              		.cfi_lsda 0x3,.LLSDA1026
 261 0000 55       		pushq	%rbp
 262              		.cfi_def_cfa_offset 16
 263              		.cfi_offset 6, -16
 264 0001 4889E5   		movq	%rsp, %rbp
 265              		.cfi_def_cfa_register 6
 266 0004 53       		pushq	%rbx
 267 0005 4883EC48 		subq	$72, %rsp
 268              		.cfi_offset 3, -24
 269 0009 48897DB8 		movq	%rdi, -72(%rbp)
 270              	.LBB5:
  21:testConv.cpp  **** 	uint8 nibble;
  22:testConv.cpp  **** 	bool status;
  23:testConv.cpp  **** 	status = getHexNibble('0', &nibble);
 271              		.loc 3 23 0
 272 000d 488D45CA 		leaq	-54(%rbp), %rax
 273 0011 4889C6   		movq	%rax, %rsi
 274 0014 BF300000 		movl	$48, %edi
 274      00
 275              	.LEHB4:
 276 0019 E8000000 		call	getHexNibble
 276      00
 277              	.LEHE4:
 278 001e 8845CB   		movb	%al, -53(%rbp)
 279              	.LEHB5:
  24:testConv.cpp  **** 	CHECK_EQUAL(false, status);
 280              		.loc 3 24 0
 281 0021 E8000000 		call	_ZN8UnitTest11CurrentTest7DetailsEv
 281      00
 282 0026 488B08   		movq	(%rax), %rcx
 283 0029 488D45D0 		leaq	-48(%rbp), %rax
 284 002d BA180000 		movl	$24, %edx
 284      00
 285 0032 4889CE   		movq	%rcx, %rsi
 286 0035 4889C7   		movq	%rax, %rdi
 287 0038 E8000000 		call	_ZN8UnitTest11TestDetailsC1ERKS0_i
 287      00
 288              		.loc 3 24 0 is_stmt 0 discriminator 1
 289 003d C645CC00 		movb	$0, -52(%rbp)
 290 0041 E8000000 		call	_ZN8UnitTest11CurrentTest7ResultsEv
 290      00
 291 0046 488B00   		movq	(%rax), %rax
 292 0049 488D4DD0 		leaq	-48(%rbp), %rcx
 293 004d 488D55CB 		leaq	-53(%rbp), %rdx
 294 0051 488D75CC 		leaq	-52(%rbp), %rsi
 295 0055 4889C7   		movq	%rax, %rdi
 296 0058 E8000000 		call	_ZN8UnitTest10CheckEqualIbbEEvRNS_11TestResultsERKT_RKT0_RKNS_11TestDetailsE
 296      00
 297              	.LEHE5:
 298              	.L13:
 299              	.LEHB6:
  25:testConv.cpp  **** 	CHECK_EQUAL(0, nibble);
 300              		.loc 3 25 0 is_stmt 1
 301 005d E8000000 		call	_ZN8UnitTest11CurrentTest7DetailsEv
 301      00
 302 0062 488B08   		movq	(%rax), %rcx
 303 0065 488D45D0 		leaq	-48(%rbp), %rax
 304 0069 BA190000 		movl	$25, %edx
 304      00
 305 006e 4889CE   		movq	%rcx, %rsi
 306 0071 4889C7   		movq	%rax, %rdi
 307 0074 E8000000 		call	_ZN8UnitTest11TestDetailsC1ERKS0_i
 307      00
 308              		.loc 3 25 0 is_stmt 0 discriminator 1
 309 0079 C745CC00 		movl	$0, -52(%rbp)
 309      000000
 310 0080 E8000000 		call	_ZN8UnitTest11CurrentTest7ResultsEv
 310      00
 311 0085 488B00   		movq	(%rax), %rax
 312 0088 488D4DD0 		leaq	-48(%rbp), %rcx
 313 008c 488D55CA 		leaq	-54(%rbp), %rdx
 314 0090 488D75CC 		leaq	-52(%rbp), %rsi
 315 0094 4889C7   		movq	%rax, %rdi
 316 0097 E8000000 		call	_ZN8UnitTest10CheckEqualIihEEvRNS_11TestResultsERKT_RKT0_RKNS_11TestDetailsE
 316      00
 317              	.LEHE6:
 318              	.L16:
  26:testConv.cpp  **** 	status = getHexNibble('1', &nibble);
 319              		.loc 3 26 0 is_stmt 1
 320 009c 488D45CA 		leaq	-54(%rbp), %rax
 321 00a0 4889C6   		movq	%rax, %rsi
 322 00a3 BF310000 		movl	$49, %edi
 322      00
 323              	.LEHB7:
 324 00a8 E8000000 		call	getHexNibble
 324      00
 325              	.LEHE7:
 326 00ad 8845CB   		movb	%al, -53(%rbp)
 327              	.LEHB8:
  27:testConv.cpp  **** 	CHECK_EQUAL(false, status);
 328              		.loc 3 27 0
 329 00b0 E8000000 		call	_ZN8UnitTest11CurrentTest7DetailsEv
 329      00
 330 00b5 488B08   		movq	(%rax), %rcx
 331 00b8 488D45D0 		leaq	-48(%rbp), %rax
 332 00bc BA1B0000 		movl	$27, %edx
 332      00
 333 00c1 4889CE   		movq	%rcx, %rsi
 334 00c4 4889C7   		movq	%rax, %rdi
 335 00c7 E8000000 		call	_ZN8UnitTest11TestDetailsC1ERKS0_i
 335      00
 336              		.loc 3 27 0 is_stmt 0 discriminator 1
 337 00cc C645CC00 		movb	$0, -52(%rbp)
 338 00d0 E8000000 		call	_ZN8UnitTest11CurrentTest7ResultsEv
 338      00
 339 00d5 488B00   		movq	(%rax), %rax
 340 00d8 488D4DD0 		leaq	-48(%rbp), %rcx
 341 00dc 488D55CB 		leaq	-53(%rbp), %rdx
 342 00e0 488D75CC 		leaq	-52(%rbp), %rsi
 343 00e4 4889C7   		movq	%rax, %rdi
 344 00e7 E8000000 		call	_ZN8UnitTest10CheckEqualIbbEEvRNS_11TestResultsERKT_RKT0_RKNS_11TestDetailsE
 344      00
 345              	.LEHE8:
 346              	.L19:
 347              	.LEHB9:
  28:testConv.cpp  **** 	CHECK_EQUAL(1, nibble);
 348              		.loc 3 28 0 is_stmt 1
 349 00ec E8000000 		call	_ZN8UnitTest11CurrentTest7DetailsEv
 349      00
 350 00f1 488B08   		movq	(%rax), %rcx
 351 00f4 488D45D0 		leaq	-48(%rbp), %rax
 352 00f8 BA1C0000 		movl	$28, %edx
 352      00
 353 00fd 4889CE   		movq	%rcx, %rsi
 354 0100 4889C7   		movq	%rax, %rdi
 355 0103 E8000000 		call	_ZN8UnitTest11TestDetailsC1ERKS0_i
 355      00
 356              		.loc 3 28 0 is_stmt 0 discriminator 1
 357 0108 C745CC01 		movl	$1, -52(%rbp)
 357      000000
 358 010f E8000000 		call	_ZN8UnitTest11CurrentTest7ResultsEv
 358      00
 359 0114 488B00   		movq	(%rax), %rax
 360 0117 488D4DD0 		leaq	-48(%rbp), %rcx
 361 011b 488D55CA 		leaq	-54(%rbp), %rdx
 362 011f 488D75CC 		leaq	-52(%rbp), %rsi
 363 0123 4889C7   		movq	%rax, %rdi
 364 0126 E8000000 		call	_ZN8UnitTest10CheckEqualIihEEvRNS_11TestResultsERKT_RKT0_RKNS_11TestDetailsE
 364      00
 365              	.LEHE9:
 366              	.L22:
  29:testConv.cpp  **** 	status = getHexNibble('2', &nibble);
 367              		.loc 3 29 0 is_stmt 1
 368 012b 488D45CA 		leaq	-54(%rbp), %rax
 369 012f 4889C6   		movq	%rax, %rsi
 370 0132 BF320000 		movl	$50, %edi
 370      00
 371              	.LEHB10:
 372 0137 E8000000 		call	getHexNibble
 372      00
 373              	.LEHE10:
 374 013c 8845CB   		movb	%al, -53(%rbp)
 375              	.LEHB11:
  30:testConv.cpp  **** 	CHECK_EQUAL(false, status);
 376              		.loc 3 30 0
 377 013f E8000000 		call	_ZN8UnitTest11CurrentTest7DetailsEv
 377      00
 378 0144 488B08   		movq	(%rax), %rcx
 379 0147 488D45D0 		leaq	-48(%rbp), %rax
 380 014b BA1E0000 		movl	$30, %edx
 380      00
 381 0150 4889CE   		movq	%rcx, %rsi
 382 0153 4889C7   		movq	%rax, %rdi
 383 0156 E8000000 		call	_ZN8UnitTest11TestDetailsC1ERKS0_i
 383      00
 384              		.loc 3 30 0 is_stmt 0 discriminator 1
 385 015b C645CC00 		movb	$0, -52(%rbp)
 386 015f E8000000 		call	_ZN8UnitTest11CurrentTest7ResultsEv
 386      00
 387 0164 488B00   		movq	(%rax), %rax
 388 0167 488D4DD0 		leaq	-48(%rbp), %rcx
 389 016b 488D55CB 		leaq	-53(%rbp), %rdx
 390 016f 488D75CC 		leaq	-52(%rbp), %rsi
 391 0173 4889C7   		movq	%rax, %rdi
 392 0176 E8000000 		call	_ZN8UnitTest10CheckEqualIbbEEvRNS_11TestResultsERKT_RKT0_RKNS_11TestDetailsE
 392      00
 393              	.LEHE11:
 394              	.L25:
 395              	.LEHB12:
  31:testConv.cpp  **** 	CHECK_EQUAL(2, nibble);
 396              		.loc 3 31 0 is_stmt 1
 397 017b E8000000 		call	_ZN8UnitTest11CurrentTest7DetailsEv
 397      00
 398 0180 488B08   		movq	(%rax), %rcx
 399 0183 488D45D0 		leaq	-48(%rbp), %rax
 400 0187 BA1F0000 		movl	$31, %edx
 400      00
 401 018c 4889CE   		movq	%rcx, %rsi
 402 018f 4889C7   		movq	%rax, %rdi
 403 0192 E8000000 		call	_ZN8UnitTest11TestDetailsC1ERKS0_i
 403      00
 404              		.loc 3 31 0 is_stmt 0 discriminator 1
 405 0197 C745CC02 		movl	$2, -52(%rbp)
 405      000000
 406 019e E8000000 		call	_ZN8UnitTest11CurrentTest7ResultsEv
 406      00
 407 01a3 488B00   		movq	(%rax), %rax
 408 01a6 488D4DD0 		leaq	-48(%rbp), %rcx
 409 01aa 488D55CA 		leaq	-54(%rbp), %rdx
 410 01ae 488D75CC 		leaq	-52(%rbp), %rsi
 411 01b2 4889C7   		movq	%rax, %rdi
 412 01b5 E8000000 		call	_ZN8UnitTest10CheckEqualIihEEvRNS_11TestResultsERKT_RKT0_RKNS_11TestDetailsE
 412      00
 413              	.LEHE12:
 414              	.L28:
  32:testConv.cpp  **** 	status = getHexNibble('3', &nibble);
 415              		.loc 3 32 0 is_stmt 1
 416 01ba 488D45CA 		leaq	-54(%rbp), %rax
 417 01be 4889C6   		movq	%rax, %rsi
 418 01c1 BF330000 		movl	$51, %edi
 418      00
 419              	.LEHB13:
 420 01c6 E8000000 		call	getHexNibble
 420      00
 421              	.LEHE13:
 422 01cb 8845CB   		movb	%al, -53(%rbp)
 423              	.LEHB14:
  33:testConv.cpp  **** 	CHECK_EQUAL(false, status);
 424              		.loc 3 33 0
 425 01ce E8000000 		call	_ZN8UnitTest11CurrentTest7DetailsEv
 425      00
 426 01d3 488B08   		movq	(%rax), %rcx
 427 01d6 488D45D0 		leaq	-48(%rbp), %rax
 428 01da BA210000 		movl	$33, %edx
 428      00
 429 01df 4889CE   		movq	%rcx, %rsi
 430 01e2 4889C7   		movq	%rax, %rdi
 431 01e5 E8000000 		call	_ZN8UnitTest11TestDetailsC1ERKS0_i
 431      00
 432              		.loc 3 33 0 is_stmt 0 discriminator 1
 433 01ea C645CC00 		movb	$0, -52(%rbp)
 434 01ee E8000000 		call	_ZN8UnitTest11CurrentTest7ResultsEv
 434      00
 435 01f3 488B00   		movq	(%rax), %rax
 436 01f6 488D4DD0 		leaq	-48(%rbp), %rcx
 437 01fa 488D55CB 		leaq	-53(%rbp), %rdx
 438 01fe 488D75CC 		leaq	-52(%rbp), %rsi
 439 0202 4889C7   		movq	%rax, %rdi
 440 0205 E8000000 		call	_ZN8UnitTest10CheckEqualIbbEEvRNS_11TestResultsERKT_RKT0_RKNS_11TestDetailsE
 440      00
 441              	.LEHE14:
 442              	.L31:
 443              	.LEHB15:
  34:testConv.cpp  **** 	CHECK_EQUAL(3, nibble);
 444              		.loc 3 34 0 is_stmt 1
 445 020a E8000000 		call	_ZN8UnitTest11CurrentTest7DetailsEv
 445      00
 446 020f 488B08   		movq	(%rax), %rcx
 447 0212 488D45D0 		leaq	-48(%rbp), %rax
 448 0216 BA220000 		movl	$34, %edx
 448      00
 449 021b 4889CE   		movq	%rcx, %rsi
 450 021e 4889C7   		movq	%rax, %rdi
 451 0221 E8000000 		call	_ZN8UnitTest11TestDetailsC1ERKS0_i
 451      00
 452              		.loc 3 34 0 is_stmt 0 discriminator 1
 453 0226 C745CC03 		movl	$3, -52(%rbp)
 453      000000
 454 022d E8000000 		call	_ZN8UnitTest11CurrentTest7ResultsEv
 454      00
 455 0232 488B00   		movq	(%rax), %rax
 456 0235 488D4DD0 		leaq	-48(%rbp), %rcx
 457 0239 488D55CA 		leaq	-54(%rbp), %rdx
 458 023d 488D75CC 		leaq	-52(%rbp), %rsi
 459 0241 4889C7   		movq	%rax, %rdi
 460 0244 E8000000 		call	_ZN8UnitTest10CheckEqualIihEEvRNS_11TestResultsERKT_RKT0_RKNS_11TestDetailsE
 460      00
 461              	.LEHE15:
 462              	.L34:
  35:testConv.cpp  **** 	status = getHexNibble('4', &nibble);
 463              		.loc 3 35 0 is_stmt 1
 464 0249 488D45CA 		leaq	-54(%rbp), %rax
 465 024d 4889C6   		movq	%rax, %rsi
 466 0250 BF340000 		movl	$52, %edi
 466      00
 467              	.LEHB16:
 468 0255 E8000000 		call	getHexNibble
 468      00
 469              	.LEHE16:
 470 025a 8845CB   		movb	%al, -53(%rbp)
 471              	.LEHB17:
  36:testConv.cpp  **** 	CHECK_EQUAL(false, status);
 472              		.loc 3 36 0
 473 025d E8000000 		call	_ZN8UnitTest11CurrentTest7DetailsEv
 473      00
 474 0262 488B08   		movq	(%rax), %rcx
 475 0265 488D45D0 		leaq	-48(%rbp), %rax
 476 0269 BA240000 		movl	$36, %edx
 476      00
 477 026e 4889CE   		movq	%rcx, %rsi
 478 0271 4889C7   		movq	%rax, %rdi
 479 0274 E8000000 		call	_ZN8UnitTest11TestDetailsC1ERKS0_i
 479      00
 480              		.loc 3 36 0 is_stmt 0 discriminator 1
 481 0279 C645CC00 		movb	$0, -52(%rbp)
 482 027d E8000000 		call	_ZN8UnitTest11CurrentTest7ResultsEv
 482      00
 483 0282 488B00   		movq	(%rax), %rax
 484 0285 488D4DD0 		leaq	-48(%rbp), %rcx
 485 0289 488D55CB 		leaq	-53(%rbp), %rdx
 486 028d 488D75CC 		leaq	-52(%rbp), %rsi
 487 0291 4889C7   		movq	%rax, %rdi
 488 0294 E8000000 		call	_ZN8UnitTest10CheckEqualIbbEEvRNS_11TestResultsERKT_RKT0_RKNS_11TestDetailsE
 488      00
 489              	.LEHE17:
 490              	.L37:
 491              	.LEHB18:
  37:testConv.cpp  **** 	CHECK_EQUAL(4, nibble);
 492              		.loc 3 37 0 is_stmt 1
 493 0299 E8000000 		call	_ZN8UnitTest11CurrentTest7DetailsEv
 493      00
 494 029e 488B08   		movq	(%rax), %rcx
 495 02a1 488D45D0 		leaq	-48(%rbp), %rax
 496 02a5 BA250000 		movl	$37, %edx
 496      00
 497 02aa 4889CE   		movq	%rcx, %rsi
 498 02ad 4889C7   		movq	%rax, %rdi
 499 02b0 E8000000 		call	_ZN8UnitTest11TestDetailsC1ERKS0_i
 499      00
 500              		.loc 3 37 0 is_stmt 0 discriminator 1
 501 02b5 C745CC04 		movl	$4, -52(%rbp)
 501      000000
 502 02bc E8000000 		call	_ZN8UnitTest11CurrentTest7ResultsEv
 502      00
 503 02c1 488B00   		movq	(%rax), %rax
 504 02c4 488D4DD0 		leaq	-48(%rbp), %rcx
 505 02c8 488D55CA 		leaq	-54(%rbp), %rdx
 506 02cc 488D75CC 		leaq	-52(%rbp), %rsi
 507 02d0 4889C7   		movq	%rax, %rdi
 508 02d3 E8000000 		call	_ZN8UnitTest10CheckEqualIihEEvRNS_11TestResultsERKT_RKT0_RKNS_11TestDetailsE
 508      00
 509              	.LEHE18:
 510              	.L40:
  38:testConv.cpp  **** 	status = getHexNibble('5', &nibble);
 511              		.loc 3 38 0 is_stmt 1
 512 02d8 488D45CA 		leaq	-54(%rbp), %rax
 513 02dc 4889C6   		movq	%rax, %rsi
 514 02df BF350000 		movl	$53, %edi
 514      00
 515              	.LEHB19:
 516 02e4 E8000000 		call	getHexNibble
 516      00
 517              	.LEHE19:
 518 02e9 8845CB   		movb	%al, -53(%rbp)
 519              	.LEHB20:
  39:testConv.cpp  **** 	CHECK_EQUAL(false, status);
 520              		.loc 3 39 0
 521 02ec E8000000 		call	_ZN8UnitTest11CurrentTest7DetailsEv
 521      00
 522 02f1 488B08   		movq	(%rax), %rcx
 523 02f4 488D45D0 		leaq	-48(%rbp), %rax
 524 02f8 BA270000 		movl	$39, %edx
 524      00
 525 02fd 4889CE   		movq	%rcx, %rsi
 526 0300 4889C7   		movq	%rax, %rdi
 527 0303 E8000000 		call	_ZN8UnitTest11TestDetailsC1ERKS0_i
 527      00
 528              		.loc 3 39 0 is_stmt 0 discriminator 1
 529 0308 C645CC00 		movb	$0, -52(%rbp)
 530 030c E8000000 		call	_ZN8UnitTest11CurrentTest7ResultsEv
 530      00
 531 0311 488B00   		movq	(%rax), %rax
 532 0314 488D4DD0 		leaq	-48(%rbp), %rcx
 533 0318 488D55CB 		leaq	-53(%rbp), %rdx
 534 031c 488D75CC 		leaq	-52(%rbp), %rsi
 535 0320 4889C7   		movq	%rax, %rdi
 536 0323 E8000000 		call	_ZN8UnitTest10CheckEqualIbbEEvRNS_11TestResultsERKT_RKT0_RKNS_11TestDetailsE
 536      00
 537              	.LEHE20:
 538              	.L43:
 539              	.LEHB21:
  40:testConv.cpp  **** 	CHECK_EQUAL(5, nibble);
 540              		.loc 3 40 0 is_stmt 1
 541 0328 E8000000 		call	_ZN8UnitTest11CurrentTest7DetailsEv
 541      00
 542 032d 488B08   		movq	(%rax), %rcx
 543 0330 488D45D0 		leaq	-48(%rbp), %rax
 544 0334 BA280000 		movl	$40, %edx
 544      00
 545 0339 4889CE   		movq	%rcx, %rsi
 546 033c 4889C7   		movq	%rax, %rdi
 547 033f E8000000 		call	_ZN8UnitTest11TestDetailsC1ERKS0_i
 547      00
 548              		.loc 3 40 0 is_stmt 0 discriminator 1
 549 0344 C745CC05 		movl	$5, -52(%rbp)
 549      000000
 550 034b E8000000 		call	_ZN8UnitTest11CurrentTest7ResultsEv
 550      00
 551 0350 488B00   		movq	(%rax), %rax
 552 0353 488D4DD0 		leaq	-48(%rbp), %rcx
 553 0357 488D55CA 		leaq	-54(%rbp), %rdx
 554 035b 488D75CC 		leaq	-52(%rbp), %rsi
 555 035f 4889C7   		movq	%rax, %rdi
 556 0362 E8000000 		call	_ZN8UnitTest10CheckEqualIihEEvRNS_11TestResultsERKT_RKT0_RKNS_11TestDetailsE
 556      00
 557              	.LEHE21:
 558              	.L46:
  41:testConv.cpp  **** 	status = getHexNibble('6', &nibble);
 559              		.loc 3 41 0 is_stmt 1
 560 0367 488D45CA 		leaq	-54(%rbp), %rax
 561 036b 4889C6   		movq	%rax, %rsi
 562 036e BF360000 		movl	$54, %edi
 562      00
 563              	.LEHB22:
 564 0373 E8000000 		call	getHexNibble
 564      00
 565              	.LEHE22:
 566 0378 8845CB   		movb	%al, -53(%rbp)
 567              	.LEHB23:
  42:testConv.cpp  **** 	CHECK_EQUAL(false, status);
 568              		.loc 3 42 0
 569 037b E8000000 		call	_ZN8UnitTest11CurrentTest7DetailsEv
 569      00
 570 0380 488B08   		movq	(%rax), %rcx
 571 0383 488D45D0 		leaq	-48(%rbp), %rax
 572 0387 BA2A0000 		movl	$42, %edx
 572      00
 573 038c 4889CE   		movq	%rcx, %rsi
 574 038f 4889C7   		movq	%rax, %rdi
 575 0392 E8000000 		call	_ZN8UnitTest11TestDetailsC1ERKS0_i
 575      00
 576              		.loc 3 42 0 is_stmt 0 discriminator 1
 577 0397 C645CC00 		movb	$0, -52(%rbp)
 578 039b E8000000 		call	_ZN8UnitTest11CurrentTest7ResultsEv
 578      00
 579 03a0 488B00   		movq	(%rax), %rax
 580 03a3 488D4DD0 		leaq	-48(%rbp), %rcx
 581 03a7 488D55CB 		leaq	-53(%rbp), %rdx
 582 03ab 488D75CC 		leaq	-52(%rbp), %rsi
 583 03af 4889C7   		movq	%rax, %rdi
 584 03b2 E8000000 		call	_ZN8UnitTest10CheckEqualIbbEEvRNS_11TestResultsERKT_RKT0_RKNS_11TestDetailsE
 584      00
 585              	.LEHE23:
 586              	.L49:
 587              	.LEHB24:
  43:testConv.cpp  **** 	CHECK_EQUAL(6, nibble);
 588              		.loc 3 43 0 is_stmt 1
 589 03b7 E8000000 		call	_ZN8UnitTest11CurrentTest7DetailsEv
 589      00
 590 03bc 488B08   		movq	(%rax), %rcx
 591 03bf 488D45D0 		leaq	-48(%rbp), %rax
 592 03c3 BA2B0000 		movl	$43, %edx
 592      00
 593 03c8 4889CE   		movq	%rcx, %rsi
 594 03cb 4889C7   		movq	%rax, %rdi
 595 03ce E8000000 		call	_ZN8UnitTest11TestDetailsC1ERKS0_i
 595      00
 596              		.loc 3 43 0 is_stmt 0 discriminator 1
 597 03d3 C745CC06 		movl	$6, -52(%rbp)
 597      000000
 598 03da E8000000 		call	_ZN8UnitTest11CurrentTest7ResultsEv
 598      00
 599 03df 488B00   		movq	(%rax), %rax
 600 03e2 488D4DD0 		leaq	-48(%rbp), %rcx
 601 03e6 488D55CA 		leaq	-54(%rbp), %rdx
 602 03ea 488D75CC 		leaq	-52(%rbp), %rsi
 603 03ee 4889C7   		movq	%rax, %rdi
 604 03f1 E8000000 		call	_ZN8UnitTest10CheckEqualIihEEvRNS_11TestResultsERKT_RKT0_RKNS_11TestDetailsE
 604      00
 605              	.LEHE24:
 606              	.L52:
  44:testConv.cpp  **** 	status = getHexNibble('7', &nibble);
 607              		.loc 3 44 0 is_stmt 1
 608 03f6 488D45CA 		leaq	-54(%rbp), %rax
 609 03fa 4889C6   		movq	%rax, %rsi
 610 03fd BF370000 		movl	$55, %edi
 610      00
 611              	.LEHB25:
 612 0402 E8000000 		call	getHexNibble
 612      00
 613              	.LEHE25:
 614 0407 8845CB   		movb	%al, -53(%rbp)
 615              	.LEHB26:
  45:testConv.cpp  **** 	CHECK_EQUAL(false, status);
 616              		.loc 3 45 0
 617 040a E8000000 		call	_ZN8UnitTest11CurrentTest7DetailsEv
 617      00
 618 040f 488B08   		movq	(%rax), %rcx
 619 0412 488D45D0 		leaq	-48(%rbp), %rax
 620 0416 BA2D0000 		movl	$45, %edx
 620      00
 621 041b 4889CE   		movq	%rcx, %rsi
 622 041e 4889C7   		movq	%rax, %rdi
 623 0421 E8000000 		call	_ZN8UnitTest11TestDetailsC1ERKS0_i
 623      00
 624              		.loc 3 45 0 is_stmt 0 discriminator 1
 625 0426 C645CC00 		movb	$0, -52(%rbp)
 626 042a E8000000 		call	_ZN8UnitTest11CurrentTest7ResultsEv
 626      00
 627 042f 488B00   		movq	(%rax), %rax
 628 0432 488D4DD0 		leaq	-48(%rbp), %rcx
 629 0436 488D55CB 		leaq	-53(%rbp), %rdx
 630 043a 488D75CC 		leaq	-52(%rbp), %rsi
 631 043e 4889C7   		movq	%rax, %rdi
 632 0441 E8000000 		call	_ZN8UnitTest10CheckEqualIbbEEvRNS_11TestResultsERKT_RKT0_RKNS_11TestDetailsE
 632      00
 633              	.LEHE26:
 634              	.L55:
 635              	.LEHB27:
  46:testConv.cpp  **** 	CHECK_EQUAL(7, nibble);
 636              		.loc 3 46 0 is_stmt 1
 637 0446 E8000000 		call	_ZN8UnitTest11CurrentTest7DetailsEv
 637      00
 638 044b 488B08   		movq	(%rax), %rcx
 639 044e 488D45D0 		leaq	-48(%rbp), %rax
 640 0452 BA2E0000 		movl	$46, %edx
 640      00
 641 0457 4889CE   		movq	%rcx, %rsi
 642 045a 4889C7   		movq	%rax, %rdi
 643 045d E8000000 		call	_ZN8UnitTest11TestDetailsC1ERKS0_i
 643      00
 644              		.loc 3 46 0 is_stmt 0 discriminator 1
 645 0462 C745CC07 		movl	$7, -52(%rbp)
 645      000000
 646 0469 E8000000 		call	_ZN8UnitTest11CurrentTest7ResultsEv
 646      00
 647 046e 488B00   		movq	(%rax), %rax
 648 0471 488D4DD0 		leaq	-48(%rbp), %rcx
 649 0475 488D55CA 		leaq	-54(%rbp), %rdx
 650 0479 488D75CC 		leaq	-52(%rbp), %rsi
 651 047d 4889C7   		movq	%rax, %rdi
 652 0480 E8000000 		call	_ZN8UnitTest10CheckEqualIihEEvRNS_11TestResultsERKT_RKT0_RKNS_11TestDetailsE
 652      00
 653              	.LEHE27:
 654              	.L58:
  47:testConv.cpp  **** 	status = getHexNibble('8', &nibble);
 655              		.loc 3 47 0 is_stmt 1
 656 0485 488D45CA 		leaq	-54(%rbp), %rax
 657 0489 4889C6   		movq	%rax, %rsi
 658 048c BF380000 		movl	$56, %edi
 658      00
 659              	.LEHB28:
 660 0491 E8000000 		call	getHexNibble
 660      00
 661              	.LEHE28:
 662 0496 8845CB   		movb	%al, -53(%rbp)
 663              	.LEHB29:
  48:testConv.cpp  **** 	CHECK_EQUAL(false, status);
 664              		.loc 3 48 0
 665 0499 E8000000 		call	_ZN8UnitTest11CurrentTest7DetailsEv
 665      00
 666 049e 488B08   		movq	(%rax), %rcx
 667 04a1 488D45D0 		leaq	-48(%rbp), %rax
 668 04a5 BA300000 		movl	$48, %edx
 668      00
 669 04aa 4889CE   		movq	%rcx, %rsi
 670 04ad 4889C7   		movq	%rax, %rdi
 671 04b0 E8000000 		call	_ZN8UnitTest11TestDetailsC1ERKS0_i
 671      00
 672              		.loc 3 48 0 is_stmt 0 discriminator 1
 673 04b5 C645CC00 		movb	$0, -52(%rbp)
 674 04b9 E8000000 		call	_ZN8UnitTest11CurrentTest7ResultsEv
 674      00
 675 04be 488B00   		movq	(%rax), %rax
 676 04c1 488D4DD0 		leaq	-48(%rbp), %rcx
 677 04c5 488D55CB 		leaq	-53(%rbp), %rdx
 678 04c9 488D75CC 		leaq	-52(%rbp), %rsi
 679 04cd 4889C7   		movq	%rax, %rdi
 680 04d0 E8000000 		call	_ZN8UnitTest10CheckEqualIbbEEvRNS_11TestResultsERKT_RKT0_RKNS_11TestDetailsE
 680      00
 681              	.LEHE29:
 682              	.L61:
 683              	.LEHB30:
  49:testConv.cpp  **** 	CHECK_EQUAL(8, nibble);
 684              		.loc 3 49 0 is_stmt 1
 685 04d5 E8000000 		call	_ZN8UnitTest11CurrentTest7DetailsEv
 685      00
 686 04da 488B08   		movq	(%rax), %rcx
 687 04dd 488D45D0 		leaq	-48(%rbp), %rax
 688 04e1 BA310000 		movl	$49, %edx
 688      00
 689 04e6 4889CE   		movq	%rcx, %rsi
 690 04e9 4889C7   		movq	%rax, %rdi
 691 04ec E8000000 		call	_ZN8UnitTest11TestDetailsC1ERKS0_i
 691      00
 692              		.loc 3 49 0 is_stmt 0 discriminator 1
 693 04f1 C745CC08 		movl	$8, -52(%rbp)
 693      000000
 694 04f8 E8000000 		call	_ZN8UnitTest11CurrentTest7ResultsEv
 694      00
 695 04fd 488B00   		movq	(%rax), %rax
 696 0500 488D4DD0 		leaq	-48(%rbp), %rcx
 697 0504 488D55CA 		leaq	-54(%rbp), %rdx
 698 0508 488D75CC 		leaq	-52(%rbp), %rsi
 699 050c 4889C7   		movq	%rax, %rdi
 700 050f E8000000 		call	_ZN8UnitTest10CheckEqualIihEEvRNS_11TestResultsERKT_RKT0_RKNS_11TestDetailsE
 700      00
 701              	.LEHE30:
 702              	.L64:
  50:testConv.cpp  **** 	status = getHexNibble('9', &nibble);
 703              		.loc 3 50 0 is_stmt 1
 704 0514 488D45CA 		leaq	-54(%rbp), %rax
 705 0518 4889C6   		movq	%rax, %rsi
 706 051b BF390000 		movl	$57, %edi
 706      00
 707              	.LEHB31:
 708 0520 E8000000 		call	getHexNibble
 708      00
 709              	.LEHE31:
 710 0525 8845CB   		movb	%al, -53(%rbp)
 711              	.LEHB32:
  51:testConv.cpp  **** 	CHECK_EQUAL(false, status);
 712              		.loc 3 51 0
 713 0528 E8000000 		call	_ZN8UnitTest11CurrentTest7DetailsEv
 713      00
 714 052d 488B08   		movq	(%rax), %rcx
 715 0530 488D45D0 		leaq	-48(%rbp), %rax
 716 0534 BA330000 		movl	$51, %edx
 716      00
 717 0539 4889CE   		movq	%rcx, %rsi
 718 053c 4889C7   		movq	%rax, %rdi
 719 053f E8000000 		call	_ZN8UnitTest11TestDetailsC1ERKS0_i
 719      00
 720              		.loc 3 51 0 is_stmt 0 discriminator 1
 721 0544 C645CC00 		movb	$0, -52(%rbp)
 722 0548 E8000000 		call	_ZN8UnitTest11CurrentTest7ResultsEv
 722      00
 723 054d 488B00   		movq	(%rax), %rax
 724 0550 488D4DD0 		leaq	-48(%rbp), %rcx
 725 0554 488D55CB 		leaq	-53(%rbp), %rdx
 726 0558 488D75CC 		leaq	-52(%rbp), %rsi
 727 055c 4889C7   		movq	%rax, %rdi
 728 055f E8000000 		call	_ZN8UnitTest10CheckEqualIbbEEvRNS_11TestResultsERKT_RKT0_RKNS_11TestDetailsE
 728      00
 729              	.LEHE32:
 730              	.L67:
 731              	.LEHB33:
  52:testConv.cpp  **** 	CHECK_EQUAL(9, nibble);
 732              		.loc 3 52 0 is_stmt 1
 733 0564 E8000000 		call	_ZN8UnitTest11CurrentTest7DetailsEv
 733      00
 734 0569 488B08   		movq	(%rax), %rcx
 735 056c 488D45D0 		leaq	-48(%rbp), %rax
 736 0570 BA340000 		movl	$52, %edx
 736      00
 737 0575 4889CE   		movq	%rcx, %rsi
 738 0578 4889C7   		movq	%rax, %rdi
 739 057b E8000000 		call	_ZN8UnitTest11TestDetailsC1ERKS0_i
 739      00
 740              		.loc 3 52 0 is_stmt 0 discriminator 1
 741 0580 C745CC09 		movl	$9, -52(%rbp)
 741      000000
 742 0587 E8000000 		call	_ZN8UnitTest11CurrentTest7ResultsEv
 742      00
 743 058c 488B00   		movq	(%rax), %rax
 744 058f 488D4DD0 		leaq	-48(%rbp), %rcx
 745 0593 488D55CA 		leaq	-54(%rbp), %rdx
 746 0597 488D75CC 		leaq	-52(%rbp), %rsi
 747 059b 4889C7   		movq	%rax, %rdi
 748 059e E8000000 		call	_ZN8UnitTest10CheckEqualIihEEvRNS_11TestResultsERKT_RKT0_RKNS_11TestDetailsE
 748      00
 749              	.LEHE33:
 750              	.L70:
  53:testConv.cpp  **** 	status = getHexNibble('A', &nibble);
 751              		.loc 3 53 0 is_stmt 1
 752 05a3 488D45CA 		leaq	-54(%rbp), %rax
 753 05a7 4889C6   		movq	%rax, %rsi
 754 05aa BF410000 		movl	$65, %edi
 754      00
 755              	.LEHB34:
 756 05af E8000000 		call	getHexNibble
 756      00
 757              	.LEHE34:
 758 05b4 8845CB   		movb	%al, -53(%rbp)
 759              	.LEHB35:
  54:testConv.cpp  **** 	CHECK_EQUAL(false, status);
 760              		.loc 3 54 0
 761 05b7 E8000000 		call	_ZN8UnitTest11CurrentTest7DetailsEv
 761      00
 762 05bc 488B08   		movq	(%rax), %rcx
 763 05bf 488D45D0 		leaq	-48(%rbp), %rax
 764 05c3 BA360000 		movl	$54, %edx
 764      00
 765 05c8 4889CE   		movq	%rcx, %rsi
 766 05cb 4889C7   		movq	%rax, %rdi
 767 05ce E8000000 		call	_ZN8UnitTest11TestDetailsC1ERKS0_i
 767      00
 768              		.loc 3 54 0 is_stmt 0 discriminator 1
 769 05d3 C645CC00 		movb	$0, -52(%rbp)
 770 05d7 E8000000 		call	_ZN8UnitTest11CurrentTest7ResultsEv
 770      00
 771 05dc 488B00   		movq	(%rax), %rax
 772 05df 488D4DD0 		leaq	-48(%rbp), %rcx
 773 05e3 488D55CB 		leaq	-53(%rbp), %rdx
 774 05e7 488D75CC 		leaq	-52(%rbp), %rsi
 775 05eb 4889C7   		movq	%rax, %rdi
 776 05ee E8000000 		call	_ZN8UnitTest10CheckEqualIbbEEvRNS_11TestResultsERKT_RKT0_RKNS_11TestDetailsE
 776      00
 777              	.LEHE35:
 778              	.L73:
 779              	.LEHB36:
  55:testConv.cpp  **** 	CHECK_EQUAL(10, nibble);
 780              		.loc 3 55 0 is_stmt 1
 781 05f3 E8000000 		call	_ZN8UnitTest11CurrentTest7DetailsEv
 781      00
 782 05f8 488B08   		movq	(%rax), %rcx
 783 05fb 488D45D0 		leaq	-48(%rbp), %rax
 784 05ff BA370000 		movl	$55, %edx
 784      00
 785 0604 4889CE   		movq	%rcx, %rsi
 786 0607 4889C7   		movq	%rax, %rdi
 787 060a E8000000 		call	_ZN8UnitTest11TestDetailsC1ERKS0_i
 787      00
 788              		.loc 3 55 0 is_stmt 0 discriminator 1
 789 060f C745CC0A 		movl	$10, -52(%rbp)
 789      000000
 790 0616 E8000000 		call	_ZN8UnitTest11CurrentTest7ResultsEv
 790      00
 791 061b 488B00   		movq	(%rax), %rax
 792 061e 488D4DD0 		leaq	-48(%rbp), %rcx
 793 0622 488D55CA 		leaq	-54(%rbp), %rdx
 794 0626 488D75CC 		leaq	-52(%rbp), %rsi
 795 062a 4889C7   		movq	%rax, %rdi
 796 062d E8000000 		call	_ZN8UnitTest10CheckEqualIihEEvRNS_11TestResultsERKT_RKT0_RKNS_11TestDetailsE
 796      00
 797              	.LEHE36:
 798              	.L76:
  56:testConv.cpp  **** 	status = getHexNibble('B', &nibble);
 799              		.loc 3 56 0 is_stmt 1
 800 0632 488D45CA 		leaq	-54(%rbp), %rax
 801 0636 4889C6   		movq	%rax, %rsi
 802 0639 BF420000 		movl	$66, %edi
 802      00
 803              	.LEHB37:
 804 063e E8000000 		call	getHexNibble
 804      00
 805              	.LEHE37:
 806 0643 8845CB   		movb	%al, -53(%rbp)
 807              	.LEHB38:
  57:testConv.cpp  **** 	CHECK_EQUAL(false, status);
 808              		.loc 3 57 0
 809 0646 E8000000 		call	_ZN8UnitTest11CurrentTest7DetailsEv
 809      00
 810 064b 488B08   		movq	(%rax), %rcx
 811 064e 488D45D0 		leaq	-48(%rbp), %rax
 812 0652 BA390000 		movl	$57, %edx
 812      00
 813 0657 4889CE   		movq	%rcx, %rsi
 814 065a 4889C7   		movq	%rax, %rdi
 815 065d E8000000 		call	_ZN8UnitTest11TestDetailsC1ERKS0_i
 815      00
 816              		.loc 3 57 0 is_stmt 0 discriminator 1
 817 0662 C645CC00 		movb	$0, -52(%rbp)
 818 0666 E8000000 		call	_ZN8UnitTest11CurrentTest7ResultsEv
 818      00
 819 066b 488B00   		movq	(%rax), %rax
 820 066e 488D4DD0 		leaq	-48(%rbp), %rcx
 821 0672 488D55CB 		leaq	-53(%rbp), %rdx
 822 0676 488D75CC 		leaq	-52(%rbp), %rsi
 823 067a 4889C7   		movq	%rax, %rdi
 824 067d E8000000 		call	_ZN8UnitTest10CheckEqualIbbEEvRNS_11TestResultsERKT_RKT0_RKNS_11TestDetailsE
 824      00
 825              	.LEHE38:
 826              	.L79:
 827              	.LEHB39:
  58:testConv.cpp  **** 	CHECK_EQUAL(11, nibble);
 828              		.loc 3 58 0 is_stmt 1
 829 0682 E8000000 		call	_ZN8UnitTest11CurrentTest7DetailsEv
 829      00
 830 0687 488B08   		movq	(%rax), %rcx
 831 068a 488D45D0 		leaq	-48(%rbp), %rax
 832 068e BA3A0000 		movl	$58, %edx
 832      00
 833 0693 4889CE   		movq	%rcx, %rsi
 834 0696 4889C7   		movq	%rax, %rdi
 835 0699 E8000000 		call	_ZN8UnitTest11TestDetailsC1ERKS0_i
 835      00
 836              		.loc 3 58 0 is_stmt 0 discriminator 1
 837 069e C745CC0B 		movl	$11, -52(%rbp)
 837      000000
 838 06a5 E8000000 		call	_ZN8UnitTest11CurrentTest7ResultsEv
 838      00
 839 06aa 488B00   		movq	(%rax), %rax
 840 06ad 488D4DD0 		leaq	-48(%rbp), %rcx
 841 06b1 488D55CA 		leaq	-54(%rbp), %rdx
 842 06b5 488D75CC 		leaq	-52(%rbp), %rsi
 843 06b9 4889C7   		movq	%rax, %rdi
 844 06bc E8000000 		call	_ZN8UnitTest10CheckEqualIihEEvRNS_11TestResultsERKT_RKT0_RKNS_11TestDetailsE
 844      00
 845              	.LEHE39:
 846              	.L82:
  59:testConv.cpp  **** 	status = getHexNibble('C', &nibble);
 847              		.loc 3 59 0 is_stmt 1
 848 06c1 488D45CA 		leaq	-54(%rbp), %rax
 849 06c5 4889C6   		movq	%rax, %rsi
 850 06c8 BF430000 		movl	$67, %edi
 850      00
 851              	.LEHB40:
 852 06cd E8000000 		call	getHexNibble
 852      00
 853              	.LEHE40:
 854 06d2 8845CB   		movb	%al, -53(%rbp)
 855              	.LEHB41:
  60:testConv.cpp  **** 	CHECK_EQUAL(false, status);
 856              		.loc 3 60 0
 857 06d5 E8000000 		call	_ZN8UnitTest11CurrentTest7DetailsEv
 857      00
 858 06da 488B08   		movq	(%rax), %rcx
 859 06dd 488D45D0 		leaq	-48(%rbp), %rax
 860 06e1 BA3C0000 		movl	$60, %edx
 860      00
 861 06e6 4889CE   		movq	%rcx, %rsi
 862 06e9 4889C7   		movq	%rax, %rdi
 863 06ec E8000000 		call	_ZN8UnitTest11TestDetailsC1ERKS0_i
 863      00
 864              		.loc 3 60 0 is_stmt 0 discriminator 1
 865 06f1 C645CC00 		movb	$0, -52(%rbp)
 866 06f5 E8000000 		call	_ZN8UnitTest11CurrentTest7ResultsEv
 866      00
 867 06fa 488B00   		movq	(%rax), %rax
 868 06fd 488D4DD0 		leaq	-48(%rbp), %rcx
 869 0701 488D55CB 		leaq	-53(%rbp), %rdx
 870 0705 488D75CC 		leaq	-52(%rbp), %rsi
 871 0709 4889C7   		movq	%rax, %rdi
 872 070c E8000000 		call	_ZN8UnitTest10CheckEqualIbbEEvRNS_11TestResultsERKT_RKT0_RKNS_11TestDetailsE
 872      00
 873              	.LEHE41:
 874              	.L85:
 875              	.LEHB42:
  61:testConv.cpp  **** 	CHECK_EQUAL(12, nibble);
 876              		.loc 3 61 0 is_stmt 1
 877 0711 E8000000 		call	_ZN8UnitTest11CurrentTest7DetailsEv
 877      00
 878 0716 488B08   		movq	(%rax), %rcx
 879 0719 488D45D0 		leaq	-48(%rbp), %rax
 880 071d BA3D0000 		movl	$61, %edx
 880      00
 881 0722 4889CE   		movq	%rcx, %rsi
 882 0725 4889C7   		movq	%rax, %rdi
 883 0728 E8000000 		call	_ZN8UnitTest11TestDetailsC1ERKS0_i
 883      00
 884              		.loc 3 61 0 is_stmt 0 discriminator 1
 885 072d C745CC0C 		movl	$12, -52(%rbp)
 885      000000
 886 0734 E8000000 		call	_ZN8UnitTest11CurrentTest7ResultsEv
 886      00
 887 0739 488B00   		movq	(%rax), %rax
 888 073c 488D4DD0 		leaq	-48(%rbp), %rcx
 889 0740 488D55CA 		leaq	-54(%rbp), %rdx
 890 0744 488D75CC 		leaq	-52(%rbp), %rsi
 891 0748 4889C7   		movq	%rax, %rdi
 892 074b E8000000 		call	_ZN8UnitTest10CheckEqualIihEEvRNS_11TestResultsERKT_RKT0_RKNS_11TestDetailsE
 892      00
 893              	.LEHE42:
 894              	.L88:
  62:testConv.cpp  **** 	status = getHexNibble('D', &nibble);
 895              		.loc 3 62 0 is_stmt 1
 896 0750 488D45CA 		leaq	-54(%rbp), %rax
 897 0754 4889C6   		movq	%rax, %rsi
 898 0757 BF440000 		movl	$68, %edi
 898      00
 899              	.LEHB43:
 900 075c E8000000 		call	getHexNibble
 900      00
 901              	.LEHE43:
 902 0761 8845CB   		movb	%al, -53(%rbp)
 903              	.LEHB44:
  63:testConv.cpp  **** 	CHECK_EQUAL(false, status);
 904              		.loc 3 63 0
 905 0764 E8000000 		call	_ZN8UnitTest11CurrentTest7DetailsEv
 905      00
 906 0769 488B08   		movq	(%rax), %rcx
 907 076c 488D45D0 		leaq	-48(%rbp), %rax
 908 0770 BA3F0000 		movl	$63, %edx
 908      00
 909 0775 4889CE   		movq	%rcx, %rsi
 910 0778 4889C7   		movq	%rax, %rdi
 911 077b E8000000 		call	_ZN8UnitTest11TestDetailsC1ERKS0_i
 911      00
 912              		.loc 3 63 0 is_stmt 0 discriminator 1
 913 0780 C645CC00 		movb	$0, -52(%rbp)
 914 0784 E8000000 		call	_ZN8UnitTest11CurrentTest7ResultsEv
 914      00
 915 0789 488B00   		movq	(%rax), %rax
 916 078c 488D4DD0 		leaq	-48(%rbp), %rcx
 917 0790 488D55CB 		leaq	-53(%rbp), %rdx
 918 0794 488D75CC 		leaq	-52(%rbp), %rsi
 919 0798 4889C7   		movq	%rax, %rdi
 920 079b E8000000 		call	_ZN8UnitTest10CheckEqualIbbEEvRNS_11TestResultsERKT_RKT0_RKNS_11TestDetailsE
 920      00
 921              	.LEHE44:
 922              	.L91:
 923              	.LEHB45:
  64:testConv.cpp  **** 	CHECK_EQUAL(13, nibble);
 924              		.loc 3 64 0 is_stmt 1
 925 07a0 E8000000 		call	_ZN8UnitTest11CurrentTest7DetailsEv
 925      00
 926 07a5 488B08   		movq	(%rax), %rcx
 927 07a8 488D45D0 		leaq	-48(%rbp), %rax
 928 07ac BA400000 		movl	$64, %edx
 928      00
 929 07b1 4889CE   		movq	%rcx, %rsi
 930 07b4 4889C7   		movq	%rax, %rdi
 931 07b7 E8000000 		call	_ZN8UnitTest11TestDetailsC1ERKS0_i
 931      00
 932              		.loc 3 64 0 is_stmt 0 discriminator 1
 933 07bc C745CC0D 		movl	$13, -52(%rbp)
 933      000000
 934 07c3 E8000000 		call	_ZN8UnitTest11CurrentTest7ResultsEv
 934      00
 935 07c8 488B00   		movq	(%rax), %rax
 936 07cb 488D4DD0 		leaq	-48(%rbp), %rcx
 937 07cf 488D55CA 		leaq	-54(%rbp), %rdx
 938 07d3 488D75CC 		leaq	-52(%rbp), %rsi
 939 07d7 4889C7   		movq	%rax, %rdi
 940 07da E8000000 		call	_ZN8UnitTest10CheckEqualIihEEvRNS_11TestResultsERKT_RKT0_RKNS_11TestDetailsE
 940      00
 941              	.LEHE45:
 942              	.L94:
  65:testConv.cpp  **** 	status = getHexNibble('E', &nibble);
 943              		.loc 3 65 0 is_stmt 1
 944 07df 488D45CA 		leaq	-54(%rbp), %rax
 945 07e3 4889C6   		movq	%rax, %rsi
 946 07e6 BF450000 		movl	$69, %edi
 946      00
 947              	.LEHB46:
 948 07eb E8000000 		call	getHexNibble
 948      00
 949              	.LEHE46:
 950 07f0 8845CB   		movb	%al, -53(%rbp)
 951              	.LEHB47:
  66:testConv.cpp  **** 	CHECK_EQUAL(false, status);
 952              		.loc 3 66 0
 953 07f3 E8000000 		call	_ZN8UnitTest11CurrentTest7DetailsEv
 953      00
 954 07f8 488B08   		movq	(%rax), %rcx
 955 07fb 488D45D0 		leaq	-48(%rbp), %rax
 956 07ff BA420000 		movl	$66, %edx
 956      00
 957 0804 4889CE   		movq	%rcx, %rsi
 958 0807 4889C7   		movq	%rax, %rdi
 959 080a E8000000 		call	_ZN8UnitTest11TestDetailsC1ERKS0_i
 959      00
 960              		.loc 3 66 0 is_stmt 0 discriminator 1
 961 080f C645CC00 		movb	$0, -52(%rbp)
 962 0813 E8000000 		call	_ZN8UnitTest11CurrentTest7ResultsEv
 962      00
 963 0818 488B00   		movq	(%rax), %rax
 964 081b 488D4DD0 		leaq	-48(%rbp), %rcx
 965 081f 488D55CB 		leaq	-53(%rbp), %rdx
 966 0823 488D75CC 		leaq	-52(%rbp), %rsi
 967 0827 4889C7   		movq	%rax, %rdi
 968 082a E8000000 		call	_ZN8UnitTest10CheckEqualIbbEEvRNS_11TestResultsERKT_RKT0_RKNS_11TestDetailsE
 968      00
 969              	.LEHE47:
 970              	.L97:
 971              	.LEHB48:
  67:testConv.cpp  **** 	CHECK_EQUAL(14, nibble);
 972              		.loc 3 67 0 is_stmt 1
 973 082f E8000000 		call	_ZN8UnitTest11CurrentTest7DetailsEv
 973      00
 974 0834 488B08   		movq	(%rax), %rcx
 975 0837 488D45D0 		leaq	-48(%rbp), %rax
 976 083b BA430000 		movl	$67, %edx
 976      00
 977 0840 4889CE   		movq	%rcx, %rsi
 978 0843 4889C7   		movq	%rax, %rdi
 979 0846 E8000000 		call	_ZN8UnitTest11TestDetailsC1ERKS0_i
 979      00
 980              		.loc 3 67 0 is_stmt 0 discriminator 1
 981 084b C745CC0E 		movl	$14, -52(%rbp)
 981      000000
 982 0852 E8000000 		call	_ZN8UnitTest11CurrentTest7ResultsEv
 982      00
 983 0857 488B00   		movq	(%rax), %rax
 984 085a 488D4DD0 		leaq	-48(%rbp), %rcx
 985 085e 488D55CA 		leaq	-54(%rbp), %rdx
 986 0862 488D75CC 		leaq	-52(%rbp), %rsi
 987 0866 4889C7   		movq	%rax, %rdi
 988 0869 E8000000 		call	_ZN8UnitTest10CheckEqualIihEEvRNS_11TestResultsERKT_RKT0_RKNS_11TestDetailsE
 988      00
 989              	.LEHE48:
 990              	.L100:
  68:testConv.cpp  **** 	status = getHexNibble('F', &nibble);
 991              		.loc 3 68 0 is_stmt 1
 992 086e 488D45CA 		leaq	-54(%rbp), %rax
 993 0872 4889C6   		movq	%rax, %rsi
 994 0875 BF460000 		movl	$70, %edi
 994      00
 995              	.LEHB49:
 996 087a E8000000 		call	getHexNibble
 996      00
 997              	.LEHE49:
 998 087f 8845CB   		movb	%al, -53(%rbp)
 999              	.LEHB50:
  69:testConv.cpp  **** 	CHECK_EQUAL(false, status);
 1000              		.loc 3 69 0
 1001 0882 E8000000 		call	_ZN8UnitTest11CurrentTest7DetailsEv
 1001      00
 1002 0887 488B08   		movq	(%rax), %rcx
 1003 088a 488D45D0 		leaq	-48(%rbp), %rax
 1004 088e BA450000 		movl	$69, %edx
 1004      00
 1005 0893 4889CE   		movq	%rcx, %rsi
 1006 0896 4889C7   		movq	%rax, %rdi
 1007 0899 E8000000 		call	_ZN8UnitTest11TestDetailsC1ERKS0_i
 1007      00
 1008              		.loc 3 69 0 is_stmt 0 discriminator 1
 1009 089e C645CC00 		movb	$0, -52(%rbp)
 1010 08a2 E8000000 		call	_ZN8UnitTest11CurrentTest7ResultsEv
 1010      00
 1011 08a7 488B00   		movq	(%rax), %rax
 1012 08aa 488D4DD0 		leaq	-48(%rbp), %rcx
 1013 08ae 488D55CB 		leaq	-53(%rbp), %rdx
 1014 08b2 488D75CC 		leaq	-52(%rbp), %rsi
 1015 08b6 4889C7   		movq	%rax, %rdi
 1016 08b9 E8000000 		call	_ZN8UnitTest10CheckEqualIbbEEvRNS_11TestResultsERKT_RKT0_RKNS_11TestDetailsE
 1016      00
 1017              	.LEHE50:
 1018              	.L103:
 1019              	.LEHB51:
  70:testConv.cpp  **** 	CHECK_EQUAL(15, nibble);
 1020              		.loc 3 70 0 is_stmt 1
 1021 08be E8000000 		call	_ZN8UnitTest11CurrentTest7DetailsEv
 1021      00
 1022 08c3 488B08   		movq	(%rax), %rcx
 1023 08c6 488D45D0 		leaq	-48(%rbp), %rax
 1024 08ca BA460000 		movl	$70, %edx
 1024      00
 1025 08cf 4889CE   		movq	%rcx, %rsi
 1026 08d2 4889C7   		movq	%rax, %rdi
 1027 08d5 E8000000 		call	_ZN8UnitTest11TestDetailsC1ERKS0_i
 1027      00
 1028              		.loc 3 70 0 is_stmt 0 discriminator 1
 1029 08da C745CC0F 		movl	$15, -52(%rbp)
 1029      000000
 1030 08e1 E8000000 		call	_ZN8UnitTest11CurrentTest7ResultsEv
 1030      00
 1031 08e6 488B00   		movq	(%rax), %rax
 1032 08e9 488D4DD0 		leaq	-48(%rbp), %rcx
 1033 08ed 488D55CA 		leaq	-54(%rbp), %rdx
 1034 08f1 488D75CC 		leaq	-52(%rbp), %rsi
 1035 08f5 4889C7   		movq	%rax, %rdi
 1036 08f8 E8000000 		call	_ZN8UnitTest10CheckEqualIihEEvRNS_11TestResultsERKT_RKT0_RKNS_11TestDetailsE
 1036      00
 1037              	.LEHE51:
 1038              	.L106:
  71:testConv.cpp  **** 	status = getHexNibble('a', &nibble);
 1039              		.loc 3 71 0 is_stmt 1
 1040 08fd 488D45CA 		leaq	-54(%rbp), %rax
 1041 0901 4889C6   		movq	%rax, %rsi
 1042 0904 BF610000 		movl	$97, %edi
 1042      00
 1043              	.LEHB52:
 1044 0909 E8000000 		call	getHexNibble
 1044      00
 1045              	.LEHE52:
 1046 090e 8845CB   		movb	%al, -53(%rbp)
 1047              	.LEHB53:
  72:testConv.cpp  **** 	CHECK_EQUAL(false, status);
 1048              		.loc 3 72 0
 1049 0911 E8000000 		call	_ZN8UnitTest11CurrentTest7DetailsEv
 1049      00
 1050 0916 488B08   		movq	(%rax), %rcx
 1051 0919 488D45D0 		leaq	-48(%rbp), %rax
 1052 091d BA480000 		movl	$72, %edx
 1052      00
 1053 0922 4889CE   		movq	%rcx, %rsi
 1054 0925 4889C7   		movq	%rax, %rdi
 1055 0928 E8000000 		call	_ZN8UnitTest11TestDetailsC1ERKS0_i
 1055      00
 1056              		.loc 3 72 0 is_stmt 0 discriminator 1
 1057 092d C645CC00 		movb	$0, -52(%rbp)
 1058 0931 E8000000 		call	_ZN8UnitTest11CurrentTest7ResultsEv
 1058      00
 1059 0936 488B00   		movq	(%rax), %rax
 1060 0939 488D4DD0 		leaq	-48(%rbp), %rcx
 1061 093d 488D55CB 		leaq	-53(%rbp), %rdx
 1062 0941 488D75CC 		leaq	-52(%rbp), %rsi
 1063 0945 4889C7   		movq	%rax, %rdi
 1064 0948 E8000000 		call	_ZN8UnitTest10CheckEqualIbbEEvRNS_11TestResultsERKT_RKT0_RKNS_11TestDetailsE
 1064      00
 1065              	.LEHE53:
 1066              	.L109:
 1067              	.LEHB54:
  73:testConv.cpp  **** 	CHECK_EQUAL(10, nibble);
 1068              		.loc 3 73 0 is_stmt 1
 1069 094d E8000000 		call	_ZN8UnitTest11CurrentTest7DetailsEv
 1069      00
 1070 0952 488B08   		movq	(%rax), %rcx
 1071 0955 488D45D0 		leaq	-48(%rbp), %rax
 1072 0959 BA490000 		movl	$73, %edx
 1072      00
 1073 095e 4889CE   		movq	%rcx, %rsi
 1074 0961 4889C7   		movq	%rax, %rdi
 1075 0964 E8000000 		call	_ZN8UnitTest11TestDetailsC1ERKS0_i
 1075      00
 1076              		.loc 3 73 0 is_stmt 0 discriminator 1
 1077 0969 C745CC0A 		movl	$10, -52(%rbp)
 1077      000000
 1078 0970 E8000000 		call	_ZN8UnitTest11CurrentTest7ResultsEv
 1078      00
 1079 0975 488B00   		movq	(%rax), %rax
 1080 0978 488D4DD0 		leaq	-48(%rbp), %rcx
 1081 097c 488D55CA 		leaq	-54(%rbp), %rdx
 1082 0980 488D75CC 		leaq	-52(%rbp), %rsi
 1083 0984 4889C7   		movq	%rax, %rdi
 1084 0987 E8000000 		call	_ZN8UnitTest10CheckEqualIihEEvRNS_11TestResultsERKT_RKT0_RKNS_11TestDetailsE
 1084      00
 1085              	.LEHE54:
 1086              	.L112:
  74:testConv.cpp  **** 	status = getHexNibble('b', &nibble);
 1087              		.loc 3 74 0 is_stmt 1
 1088 098c 488D45CA 		leaq	-54(%rbp), %rax
 1089 0990 4889C6   		movq	%rax, %rsi
 1090 0993 BF620000 		movl	$98, %edi
 1090      00
 1091              	.LEHB55:
 1092 0998 E8000000 		call	getHexNibble
 1092      00
 1093              	.LEHE55:
 1094 099d 8845CB   		movb	%al, -53(%rbp)
 1095              	.LEHB56:
  75:testConv.cpp  **** 	CHECK_EQUAL(false, status);
 1096              		.loc 3 75 0
 1097 09a0 E8000000 		call	_ZN8UnitTest11CurrentTest7DetailsEv
 1097      00
 1098 09a5 488B08   		movq	(%rax), %rcx
 1099 09a8 488D45D0 		leaq	-48(%rbp), %rax
 1100 09ac BA4B0000 		movl	$75, %edx
 1100      00
 1101 09b1 4889CE   		movq	%rcx, %rsi
 1102 09b4 4889C7   		movq	%rax, %rdi
 1103 09b7 E8000000 		call	_ZN8UnitTest11TestDetailsC1ERKS0_i
 1103      00
 1104              		.loc 3 75 0 is_stmt 0 discriminator 1
 1105 09bc C645CC00 		movb	$0, -52(%rbp)
 1106 09c0 E8000000 		call	_ZN8UnitTest11CurrentTest7ResultsEv
 1106      00
 1107 09c5 488B00   		movq	(%rax), %rax
 1108 09c8 488D4DD0 		leaq	-48(%rbp), %rcx
 1109 09cc 488D55CB 		leaq	-53(%rbp), %rdx
 1110 09d0 488D75CC 		leaq	-52(%rbp), %rsi
 1111 09d4 4889C7   		movq	%rax, %rdi
 1112 09d7 E8000000 		call	_ZN8UnitTest10CheckEqualIbbEEvRNS_11TestResultsERKT_RKT0_RKNS_11TestDetailsE
 1112      00
 1113              	.LEHE56:
 1114              	.L115:
 1115              	.LEHB57:
  76:testConv.cpp  **** 	CHECK_EQUAL(11, nibble);
 1116              		.loc 3 76 0 is_stmt 1
 1117 09dc E8000000 		call	_ZN8UnitTest11CurrentTest7DetailsEv
 1117      00
 1118 09e1 488B08   		movq	(%rax), %rcx
 1119 09e4 488D45D0 		leaq	-48(%rbp), %rax
 1120 09e8 BA4C0000 		movl	$76, %edx
 1120      00
 1121 09ed 4889CE   		movq	%rcx, %rsi
 1122 09f0 4889C7   		movq	%rax, %rdi
 1123 09f3 E8000000 		call	_ZN8UnitTest11TestDetailsC1ERKS0_i
 1123      00
 1124              		.loc 3 76 0 is_stmt 0 discriminator 1
 1125 09f8 C745CC0B 		movl	$11, -52(%rbp)
 1125      000000
 1126 09ff E8000000 		call	_ZN8UnitTest11CurrentTest7ResultsEv
 1126      00
 1127 0a04 488B00   		movq	(%rax), %rax
 1128 0a07 488D4DD0 		leaq	-48(%rbp), %rcx
 1129 0a0b 488D55CA 		leaq	-54(%rbp), %rdx
 1130 0a0f 488D75CC 		leaq	-52(%rbp), %rsi
 1131 0a13 4889C7   		movq	%rax, %rdi
 1132 0a16 E8000000 		call	_ZN8UnitTest10CheckEqualIihEEvRNS_11TestResultsERKT_RKT0_RKNS_11TestDetailsE
 1132      00
 1133              	.LEHE57:
 1134              	.L118:
  77:testConv.cpp  **** 	status = getHexNibble('c', &nibble);
 1135              		.loc 3 77 0 is_stmt 1
 1136 0a1b 488D45CA 		leaq	-54(%rbp), %rax
 1137 0a1f 4889C6   		movq	%rax, %rsi
 1138 0a22 BF630000 		movl	$99, %edi
 1138      00
 1139              	.LEHB58:
 1140 0a27 E8000000 		call	getHexNibble
 1140      00
 1141              	.LEHE58:
 1142 0a2c 8845CB   		movb	%al, -53(%rbp)
 1143              	.LEHB59:
  78:testConv.cpp  **** 	CHECK_EQUAL(false, status);
 1144              		.loc 3 78 0
 1145 0a2f E8000000 		call	_ZN8UnitTest11CurrentTest7DetailsEv
 1145      00
 1146 0a34 488B08   		movq	(%rax), %rcx
 1147 0a37 488D45D0 		leaq	-48(%rbp), %rax
 1148 0a3b BA4E0000 		movl	$78, %edx
 1148      00
 1149 0a40 4889CE   		movq	%rcx, %rsi
 1150 0a43 4889C7   		movq	%rax, %rdi
 1151 0a46 E8000000 		call	_ZN8UnitTest11TestDetailsC1ERKS0_i
 1151      00
 1152              		.loc 3 78 0 is_stmt 0 discriminator 1
 1153 0a4b C645CC00 		movb	$0, -52(%rbp)
 1154 0a4f E8000000 		call	_ZN8UnitTest11CurrentTest7ResultsEv
 1154      00
 1155 0a54 488B00   		movq	(%rax), %rax
 1156 0a57 488D4DD0 		leaq	-48(%rbp), %rcx
 1157 0a5b 488D55CB 		leaq	-53(%rbp), %rdx
 1158 0a5f 488D75CC 		leaq	-52(%rbp), %rsi
 1159 0a63 4889C7   		movq	%rax, %rdi
 1160 0a66 E8000000 		call	_ZN8UnitTest10CheckEqualIbbEEvRNS_11TestResultsERKT_RKT0_RKNS_11TestDetailsE
 1160      00
 1161              	.LEHE59:
 1162              	.L121:
 1163              	.LEHB60:
  79:testConv.cpp  **** 	CHECK_EQUAL(12, nibble);
 1164              		.loc 3 79 0 is_stmt 1
 1165 0a6b E8000000 		call	_ZN8UnitTest11CurrentTest7DetailsEv
 1165      00
 1166 0a70 488B08   		movq	(%rax), %rcx
 1167 0a73 488D45D0 		leaq	-48(%rbp), %rax
 1168 0a77 BA4F0000 		movl	$79, %edx
 1168      00
 1169 0a7c 4889CE   		movq	%rcx, %rsi
 1170 0a7f 4889C7   		movq	%rax, %rdi
 1171 0a82 E8000000 		call	_ZN8UnitTest11TestDetailsC1ERKS0_i
 1171      00
 1172              		.loc 3 79 0 is_stmt 0 discriminator 1
 1173 0a87 C745CC0C 		movl	$12, -52(%rbp)
 1173      000000
 1174 0a8e E8000000 		call	_ZN8UnitTest11CurrentTest7ResultsEv
 1174      00
 1175 0a93 488B00   		movq	(%rax), %rax
 1176 0a96 488D4DD0 		leaq	-48(%rbp), %rcx
 1177 0a9a 488D55CA 		leaq	-54(%rbp), %rdx
 1178 0a9e 488D75CC 		leaq	-52(%rbp), %rsi
 1179 0aa2 4889C7   		movq	%rax, %rdi
 1180 0aa5 E8000000 		call	_ZN8UnitTest10CheckEqualIihEEvRNS_11TestResultsERKT_RKT0_RKNS_11TestDetailsE
 1180      00
 1181              	.LEHE60:
 1182              	.L124:
  80:testConv.cpp  **** 	status = getHexNibble('d', &nibble);
 1183              		.loc 3 80 0 is_stmt 1
 1184 0aaa 488D45CA 		leaq	-54(%rbp), %rax
 1185 0aae 4889C6   		movq	%rax, %rsi
 1186 0ab1 BF640000 		movl	$100, %edi
 1186      00
 1187              	.LEHB61:
 1188 0ab6 E8000000 		call	getHexNibble
 1188      00
 1189              	.LEHE61:
 1190 0abb 8845CB   		movb	%al, -53(%rbp)
 1191              	.LEHB62:
  81:testConv.cpp  **** 	CHECK_EQUAL(false, status);
 1192              		.loc 3 81 0
 1193 0abe E8000000 		call	_ZN8UnitTest11CurrentTest7DetailsEv
 1193      00
 1194 0ac3 488B08   		movq	(%rax), %rcx
 1195 0ac6 488D45D0 		leaq	-48(%rbp), %rax
 1196 0aca BA510000 		movl	$81, %edx
 1196      00
 1197 0acf 4889CE   		movq	%rcx, %rsi
 1198 0ad2 4889C7   		movq	%rax, %rdi
 1199 0ad5 E8000000 		call	_ZN8UnitTest11TestDetailsC1ERKS0_i
 1199      00
 1200              		.loc 3 81 0 is_stmt 0 discriminator 1
 1201 0ada C645CC00 		movb	$0, -52(%rbp)
 1202 0ade E8000000 		call	_ZN8UnitTest11CurrentTest7ResultsEv
 1202      00
 1203 0ae3 488B00   		movq	(%rax), %rax
 1204 0ae6 488D4DD0 		leaq	-48(%rbp), %rcx
 1205 0aea 488D55CB 		leaq	-53(%rbp), %rdx
 1206 0aee 488D75CC 		leaq	-52(%rbp), %rsi
 1207 0af2 4889C7   		movq	%rax, %rdi
 1208 0af5 E8000000 		call	_ZN8UnitTest10CheckEqualIbbEEvRNS_11TestResultsERKT_RKT0_RKNS_11TestDetailsE
 1208      00
 1209              	.LEHE62:
 1210              	.L127:
 1211              	.LEHB63:
  82:testConv.cpp  **** 	CHECK_EQUAL(13, nibble);
 1212              		.loc 3 82 0 is_stmt 1
 1213 0afa E8000000 		call	_ZN8UnitTest11CurrentTest7DetailsEv
 1213      00
 1214 0aff 488B08   		movq	(%rax), %rcx
 1215 0b02 488D45D0 		leaq	-48(%rbp), %rax
 1216 0b06 BA520000 		movl	$82, %edx
 1216      00
 1217 0b0b 4889CE   		movq	%rcx, %rsi
 1218 0b0e 4889C7   		movq	%rax, %rdi
 1219 0b11 E8000000 		call	_ZN8UnitTest11TestDetailsC1ERKS0_i
 1219      00
 1220              		.loc 3 82 0 is_stmt 0 discriminator 1
 1221 0b16 C745CC0D 		movl	$13, -52(%rbp)
 1221      000000
 1222 0b1d E8000000 		call	_ZN8UnitTest11CurrentTest7ResultsEv
 1222      00
 1223 0b22 488B00   		movq	(%rax), %rax
 1224 0b25 488D4DD0 		leaq	-48(%rbp), %rcx
 1225 0b29 488D55CA 		leaq	-54(%rbp), %rdx
 1226 0b2d 488D75CC 		leaq	-52(%rbp), %rsi
 1227 0b31 4889C7   		movq	%rax, %rdi
 1228 0b34 E8000000 		call	_ZN8UnitTest10CheckEqualIihEEvRNS_11TestResultsERKT_RKT0_RKNS_11TestDetailsE
 1228      00
 1229              	.LEHE63:
 1230              	.L130:
  83:testConv.cpp  **** 	status = getHexNibble('e', &nibble);
 1231              		.loc 3 83 0 is_stmt 1
 1232 0b39 488D45CA 		leaq	-54(%rbp), %rax
 1233 0b3d 4889C6   		movq	%rax, %rsi
 1234 0b40 BF650000 		movl	$101, %edi
 1234      00
 1235              	.LEHB64:
 1236 0b45 E8000000 		call	getHexNibble
 1236      00
 1237              	.LEHE64:
 1238 0b4a 8845CB   		movb	%al, -53(%rbp)
 1239              	.LEHB65:
  84:testConv.cpp  **** 	CHECK_EQUAL(false, status);
 1240              		.loc 3 84 0
 1241 0b4d E8000000 		call	_ZN8UnitTest11CurrentTest7DetailsEv
 1241      00
 1242 0b52 488B08   		movq	(%rax), %rcx
 1243 0b55 488D45D0 		leaq	-48(%rbp), %rax
 1244 0b59 BA540000 		movl	$84, %edx
 1244      00
 1245 0b5e 4889CE   		movq	%rcx, %rsi
 1246 0b61 4889C7   		movq	%rax, %rdi
 1247 0b64 E8000000 		call	_ZN8UnitTest11TestDetailsC1ERKS0_i
 1247      00
 1248              		.loc 3 84 0 is_stmt 0 discriminator 1
 1249 0b69 C645CC00 		movb	$0, -52(%rbp)
 1250 0b6d E8000000 		call	_ZN8UnitTest11CurrentTest7ResultsEv
 1250      00
 1251 0b72 488B00   		movq	(%rax), %rax
 1252 0b75 488D4DD0 		leaq	-48(%rbp), %rcx
 1253 0b79 488D55CB 		leaq	-53(%rbp), %rdx
 1254 0b7d 488D75CC 		leaq	-52(%rbp), %rsi
 1255 0b81 4889C7   		movq	%rax, %rdi
 1256 0b84 E8000000 		call	_ZN8UnitTest10CheckEqualIbbEEvRNS_11TestResultsERKT_RKT0_RKNS_11TestDetailsE
 1256      00
 1257              	.LEHE65:
 1258              	.L133:
 1259              	.LEHB66:
  85:testConv.cpp  **** 	CHECK_EQUAL(14, nibble);
 1260              		.loc 3 85 0 is_stmt 1
 1261 0b89 E8000000 		call	_ZN8UnitTest11CurrentTest7DetailsEv
 1261      00
 1262 0b8e 488B08   		movq	(%rax), %rcx
 1263 0b91 488D45D0 		leaq	-48(%rbp), %rax
 1264 0b95 BA550000 		movl	$85, %edx
 1264      00
 1265 0b9a 4889CE   		movq	%rcx, %rsi
 1266 0b9d 4889C7   		movq	%rax, %rdi
 1267 0ba0 E8000000 		call	_ZN8UnitTest11TestDetailsC1ERKS0_i
 1267      00
 1268              		.loc 3 85 0 is_stmt 0 discriminator 1
 1269 0ba5 C745CC0E 		movl	$14, -52(%rbp)
 1269      000000
 1270 0bac E8000000 		call	_ZN8UnitTest11CurrentTest7ResultsEv
 1270      00
 1271 0bb1 488B00   		movq	(%rax), %rax
 1272 0bb4 488D4DD0 		leaq	-48(%rbp), %rcx
 1273 0bb8 488D55CA 		leaq	-54(%rbp), %rdx
 1274 0bbc 488D75CC 		leaq	-52(%rbp), %rsi
 1275 0bc0 4889C7   		movq	%rax, %rdi
 1276 0bc3 E8000000 		call	_ZN8UnitTest10CheckEqualIihEEvRNS_11TestResultsERKT_RKT0_RKNS_11TestDetailsE
 1276      00
 1277              	.LEHE66:
 1278              	.L136:
  86:testConv.cpp  **** 	status = getHexNibble('f', &nibble);
 1279              		.loc 3 86 0 is_stmt 1
 1280 0bc8 488D45CA 		leaq	-54(%rbp), %rax
 1281 0bcc 4889C6   		movq	%rax, %rsi
 1282 0bcf BF660000 		movl	$102, %edi
 1282      00
 1283              	.LEHB67:
 1284 0bd4 E8000000 		call	getHexNibble
 1284      00
 1285              	.LEHE67:
 1286 0bd9 8845CB   		movb	%al, -53(%rbp)
 1287              	.LEHB68:
  87:testConv.cpp  **** 	CHECK_EQUAL(false, status);
 1288              		.loc 3 87 0
 1289 0bdc E8000000 		call	_ZN8UnitTest11CurrentTest7DetailsEv
 1289      00
 1290 0be1 488B08   		movq	(%rax), %rcx
 1291 0be4 488D45D0 		leaq	-48(%rbp), %rax
 1292 0be8 BA570000 		movl	$87, %edx
 1292      00
 1293 0bed 4889CE   		movq	%rcx, %rsi
 1294 0bf0 4889C7   		movq	%rax, %rdi
 1295 0bf3 E8000000 		call	_ZN8UnitTest11TestDetailsC1ERKS0_i
 1295      00
 1296              		.loc 3 87 0 is_stmt 0 discriminator 1
 1297 0bf8 C645CC00 		movb	$0, -52(%rbp)
 1298 0bfc E8000000 		call	_ZN8UnitTest11CurrentTest7ResultsEv
 1298      00
 1299 0c01 488B00   		movq	(%rax), %rax
 1300 0c04 488D4DD0 		leaq	-48(%rbp), %rcx
 1301 0c08 488D55CB 		leaq	-53(%rbp), %rdx
 1302 0c0c 488D75CC 		leaq	-52(%rbp), %rsi
 1303 0c10 4889C7   		movq	%rax, %rdi
 1304 0c13 E8000000 		call	_ZN8UnitTest10CheckEqualIbbEEvRNS_11TestResultsERKT_RKT0_RKNS_11TestDetailsE
 1304      00
 1305              	.LEHE68:
 1306              	.L139:
 1307              	.LEHB69:
  88:testConv.cpp  **** 	CHECK_EQUAL(15, nibble);
 1308              		.loc 3 88 0 is_stmt 1
 1309 0c18 E8000000 		call	_ZN8UnitTest11CurrentTest7DetailsEv
 1309      00
 1310 0c1d 488B08   		movq	(%rax), %rcx
 1311 0c20 488D45D0 		leaq	-48(%rbp), %rax
 1312 0c24 BA580000 		movl	$88, %edx
 1312      00
 1313 0c29 4889CE   		movq	%rcx, %rsi
 1314 0c2c 4889C7   		movq	%rax, %rdi
 1315 0c2f E8000000 		call	_ZN8UnitTest11TestDetailsC1ERKS0_i
 1315      00
 1316              		.loc 3 88 0 is_stmt 0 discriminator 1
 1317 0c34 C745CC0F 		movl	$15, -52(%rbp)
 1317      000000
 1318 0c3b E8000000 		call	_ZN8UnitTest11CurrentTest7ResultsEv
 1318      00
 1319 0c40 488B00   		movq	(%rax), %rax
 1320 0c43 488D4DD0 		leaq	-48(%rbp), %rcx
 1321 0c47 488D55CA 		leaq	-54(%rbp), %rdx
 1322 0c4b 488D75CC 		leaq	-52(%rbp), %rsi
 1323 0c4f 4889C7   		movq	%rax, %rdi
 1324 0c52 E8000000 		call	_ZN8UnitTest10CheckEqualIihEEvRNS_11TestResultsERKT_RKT0_RKNS_11TestDetailsE
 1324      00
 1325              	.LEHE69:
 1326              	.L142:
  89:testConv.cpp  **** 	status = getHexNibble('.', &nibble);
 1327              		.loc 3 89 0 is_stmt 1
 1328 0c57 488D45CA 		leaq	-54(%rbp), %rax
 1329 0c5b 4889C6   		movq	%rax, %rsi
 1330 0c5e BF2E0000 		movl	$46, %edi
 1330      00
 1331              	.LEHB70:
 1332 0c63 E8000000 		call	getHexNibble
 1332      00
 1333              	.LEHE70:
 1334 0c68 8845CB   		movb	%al, -53(%rbp)
 1335              	.LEHB71:
  90:testConv.cpp  **** 	CHECK_EQUAL(true, status);
 1336              		.loc 3 90 0
 1337 0c6b E8000000 		call	_ZN8UnitTest11CurrentTest7DetailsEv
 1337      00
 1338 0c70 488B08   		movq	(%rax), %rcx
 1339 0c73 488D45D0 		leaq	-48(%rbp), %rax
 1340 0c77 BA5A0000 		movl	$90, %edx
 1340      00
 1341 0c7c 4889CE   		movq	%rcx, %rsi
 1342 0c7f 4889C7   		movq	%rax, %rdi
 1343 0c82 E8000000 		call	_ZN8UnitTest11TestDetailsC1ERKS0_i
 1343      00
 1344              		.loc 3 90 0 is_stmt 0 discriminator 1
 1345 0c87 C645CC01 		movb	$1, -52(%rbp)
 1346 0c8b E8000000 		call	_ZN8UnitTest11CurrentTest7ResultsEv
 1346      00
 1347 0c90 488B00   		movq	(%rax), %rax
 1348 0c93 488D4DD0 		leaq	-48(%rbp), %rcx
 1349 0c97 488D55CB 		leaq	-53(%rbp), %rdx
 1350 0c9b 488D75CC 		leaq	-52(%rbp), %rsi
 1351 0c9f 4889C7   		movq	%rax, %rdi
 1352 0ca2 E8000000 		call	_ZN8UnitTest10CheckEqualIbbEEvRNS_11TestResultsERKT_RKT0_RKNS_11TestDetailsE
 1352      00
 1353              	.LEHE71:
 1354              	.LBE5:
  91:testConv.cpp  **** }
 1355              		.loc 3 91 0 is_stmt 1
 1356 0ca7 E9541000 		jmp	.L236
 1356      00
 1357              	.L147:
 1358 0cac 4889C3   		movq	%rax, %rbx
 1359              	.LBB6:
  24:testConv.cpp  **** 	CHECK_EQUAL(0, nibble);
 1360              		.loc 3 24 0
 1361 0caf E8000000 		call	__cxa_end_catch
 1361      00
 1362 0cb4 4889D8   		movq	%rbx, %rax
 1363 0cb7 4889C7   		movq	%rax, %rdi
 1364              	.LEHB72:
 1365 0cba E8000000 		call	_Unwind_Resume
 1365      00
 1366              	.LEHE72:
 1367              	.L146:
 1368 0cbf 4889C7   		movq	%rax, %rdi
 1369 0cc2 E8000000 		call	__cxa_begin_catch
 1369      00
 1370              	.LEHB73:
 1371 0cc7 E8000000 		call	_ZN8UnitTest11CurrentTest7DetailsEv
 1371      00
 1372 0ccc 488B08   		movq	(%rax), %rcx
 1373 0ccf 488D45D0 		leaq	-48(%rbp), %rax
 1374 0cd3 BA180000 		movl	$24, %edx
 1374      00
 1375 0cd8 4889CE   		movq	%rcx, %rsi
 1376 0cdb 4889C7   		movq	%rax, %rdi
 1377 0cde E8000000 		call	_ZN8UnitTest11TestDetailsC1ERKS0_i
 1377      00
  24:testConv.cpp  **** 	CHECK_EQUAL(0, nibble);
 1378              		.loc 3 24 0 is_stmt 0 discriminator 1
 1379 0ce3 E8000000 		call	_ZN8UnitTest11CurrentTest7ResultsEv
 1379      00
 1380 0ce8 488B00   		movq	(%rax), %rax
 1381 0ceb 488D4DD0 		leaq	-48(%rbp), %rcx
 1382 0cef BA000000 		movl	$.LC3, %edx
 1382      00
 1383 0cf4 4889CE   		movq	%rcx, %rsi
 1384 0cf7 4889C7   		movq	%rax, %rdi
 1385 0cfa E8000000 		call	_ZN8UnitTest11TestResults13OnTestFailureERKNS_11TestDetailsEPKc
 1385      00
 1386              	.LEHE73:
 1387              	.LEHB74:
 1388 0cff E8000000 		call	__cxa_end_catch
 1388      00
 1389              	.LEHE74:
 1390 0d04 E954F3FF 		jmp	.L13
 1390      FF
 1391              	.L149:
 1392 0d09 4889C3   		movq	%rax, %rbx
  25:testConv.cpp  **** 	status = getHexNibble('1', &nibble);
 1393              		.loc 3 25 0 is_stmt 1
 1394 0d0c E8000000 		call	__cxa_end_catch
 1394      00
 1395 0d11 4889D8   		movq	%rbx, %rax
 1396 0d14 4889C7   		movq	%rax, %rdi
 1397              	.LEHB75:
 1398 0d17 E8000000 		call	_Unwind_Resume
 1398      00
 1399              	.LEHE75:
 1400              	.L148:
 1401 0d1c 4889C7   		movq	%rax, %rdi
 1402 0d1f E8000000 		call	__cxa_begin_catch
 1402      00
 1403              	.LEHB76:
 1404 0d24 E8000000 		call	_ZN8UnitTest11CurrentTest7DetailsEv
 1404      00
 1405 0d29 488B08   		movq	(%rax), %rcx
 1406 0d2c 488D45D0 		leaq	-48(%rbp), %rax
 1407 0d30 BA190000 		movl	$25, %edx
 1407      00
 1408 0d35 4889CE   		movq	%rcx, %rsi
 1409 0d38 4889C7   		movq	%rax, %rdi
 1410 0d3b E8000000 		call	_ZN8UnitTest11TestDetailsC1ERKS0_i
 1410      00
  25:testConv.cpp  **** 	status = getHexNibble('1', &nibble);
 1411              		.loc 3 25 0 is_stmt 0 discriminator 1
 1412 0d40 E8000000 		call	_ZN8UnitTest11CurrentTest7ResultsEv
 1412      00
 1413 0d45 488B00   		movq	(%rax), %rax
 1414 0d48 488D4DD0 		leaq	-48(%rbp), %rcx
 1415 0d4c BA000000 		movl	$.LC4, %edx
 1415      00
 1416 0d51 4889CE   		movq	%rcx, %rsi
 1417 0d54 4889C7   		movq	%rax, %rdi
 1418 0d57 E8000000 		call	_ZN8UnitTest11TestResults13OnTestFailureERKNS_11TestDetailsEPKc
 1418      00
 1419              	.LEHE76:
 1420              	.LEHB77:
 1421 0d5c E8000000 		call	__cxa_end_catch
 1421      00
 1422              	.LEHE77:
 1423 0d61 E936F3FF 		jmp	.L16
 1423      FF
 1424              	.L151:
 1425 0d66 4889C3   		movq	%rax, %rbx
  27:testConv.cpp  **** 	CHECK_EQUAL(1, nibble);
 1426              		.loc 3 27 0 is_stmt 1
 1427 0d69 E8000000 		call	__cxa_end_catch
 1427      00
 1428 0d6e 4889D8   		movq	%rbx, %rax
 1429 0d71 4889C7   		movq	%rax, %rdi
 1430              	.LEHB78:
 1431 0d74 E8000000 		call	_Unwind_Resume
 1431      00
 1432              	.LEHE78:
 1433              	.L150:
 1434 0d79 4889C7   		movq	%rax, %rdi
 1435 0d7c E8000000 		call	__cxa_begin_catch
 1435      00
 1436              	.LEHB79:
 1437 0d81 E8000000 		call	_ZN8UnitTest11CurrentTest7DetailsEv
 1437      00
 1438 0d86 488B08   		movq	(%rax), %rcx
 1439 0d89 488D45D0 		leaq	-48(%rbp), %rax
 1440 0d8d BA1B0000 		movl	$27, %edx
 1440      00
 1441 0d92 4889CE   		movq	%rcx, %rsi
 1442 0d95 4889C7   		movq	%rax, %rdi
 1443 0d98 E8000000 		call	_ZN8UnitTest11TestDetailsC1ERKS0_i
 1443      00
  27:testConv.cpp  **** 	CHECK_EQUAL(1, nibble);
 1444              		.loc 3 27 0 is_stmt 0 discriminator 1
 1445 0d9d E8000000 		call	_ZN8UnitTest11CurrentTest7ResultsEv
 1445      00
 1446 0da2 488B00   		movq	(%rax), %rax
 1447 0da5 488D4DD0 		leaq	-48(%rbp), %rcx
 1448 0da9 BA000000 		movl	$.LC3, %edx
 1448      00
 1449 0dae 4889CE   		movq	%rcx, %rsi
 1450 0db1 4889C7   		movq	%rax, %rdi
 1451 0db4 E8000000 		call	_ZN8UnitTest11TestResults13OnTestFailureERKNS_11TestDetailsEPKc
 1451      00
 1452              	.LEHE79:
 1453              	.LEHB80:
 1454 0db9 E8000000 		call	__cxa_end_catch
 1454      00
 1455              	.LEHE80:
 1456 0dbe E929F3FF 		jmp	.L19
 1456      FF
 1457              	.L153:
 1458 0dc3 4889C3   		movq	%rax, %rbx
  28:testConv.cpp  **** 	status = getHexNibble('2', &nibble);
 1459              		.loc 3 28 0 is_stmt 1
 1460 0dc6 E8000000 		call	__cxa_end_catch
 1460      00
 1461 0dcb 4889D8   		movq	%rbx, %rax
 1462 0dce 4889C7   		movq	%rax, %rdi
 1463              	.LEHB81:
 1464 0dd1 E8000000 		call	_Unwind_Resume
 1464      00
 1465              	.LEHE81:
 1466              	.L152:
 1467 0dd6 4889C7   		movq	%rax, %rdi
 1468 0dd9 E8000000 		call	__cxa_begin_catch
 1468      00
 1469              	.LEHB82:
 1470 0dde E8000000 		call	_ZN8UnitTest11CurrentTest7DetailsEv
 1470      00
 1471 0de3 488B08   		movq	(%rax), %rcx
 1472 0de6 488D45D0 		leaq	-48(%rbp), %rax
 1473 0dea BA1C0000 		movl	$28, %edx
 1473      00
 1474 0def 4889CE   		movq	%rcx, %rsi
 1475 0df2 4889C7   		movq	%rax, %rdi
 1476 0df5 E8000000 		call	_ZN8UnitTest11TestDetailsC1ERKS0_i
 1476      00
  28:testConv.cpp  **** 	status = getHexNibble('2', &nibble);
 1477              		.loc 3 28 0 is_stmt 0 discriminator 1
 1478 0dfa E8000000 		call	_ZN8UnitTest11CurrentTest7ResultsEv
 1478      00
 1479 0dff 488B00   		movq	(%rax), %rax
 1480 0e02 488D4DD0 		leaq	-48(%rbp), %rcx
 1481 0e06 BA000000 		movl	$.LC5, %edx
 1481      00
 1482 0e0b 4889CE   		movq	%rcx, %rsi
 1483 0e0e 4889C7   		movq	%rax, %rdi
 1484 0e11 E8000000 		call	_ZN8UnitTest11TestResults13OnTestFailureERKNS_11TestDetailsEPKc
 1484      00
 1485              	.LEHE82:
 1486              	.LEHB83:
 1487 0e16 E8000000 		call	__cxa_end_catch
 1487      00
 1488              	.LEHE83:
 1489 0e1b E90BF3FF 		jmp	.L22
 1489      FF
 1490              	.L155:
 1491 0e20 4889C3   		movq	%rax, %rbx
  30:testConv.cpp  **** 	CHECK_EQUAL(2, nibble);
 1492              		.loc 3 30 0 is_stmt 1
 1493 0e23 E8000000 		call	__cxa_end_catch
 1493      00
 1494 0e28 4889D8   		movq	%rbx, %rax
 1495 0e2b 4889C7   		movq	%rax, %rdi
 1496              	.LEHB84:
 1497 0e2e E8000000 		call	_Unwind_Resume
 1497      00
 1498              	.LEHE84:
 1499              	.L154:
 1500 0e33 4889C7   		movq	%rax, %rdi
 1501 0e36 E8000000 		call	__cxa_begin_catch
 1501      00
 1502              	.LEHB85:
 1503 0e3b E8000000 		call	_ZN8UnitTest11CurrentTest7DetailsEv
 1503      00
 1504 0e40 488B08   		movq	(%rax), %rcx
 1505 0e43 488D45D0 		leaq	-48(%rbp), %rax
 1506 0e47 BA1E0000 		movl	$30, %edx
 1506      00
 1507 0e4c 4889CE   		movq	%rcx, %rsi
 1508 0e4f 4889C7   		movq	%rax, %rdi
 1509 0e52 E8000000 		call	_ZN8UnitTest11TestDetailsC1ERKS0_i
 1509      00
  30:testConv.cpp  **** 	CHECK_EQUAL(2, nibble);
 1510              		.loc 3 30 0 is_stmt 0 discriminator 1
 1511 0e57 E8000000 		call	_ZN8UnitTest11CurrentTest7ResultsEv
 1511      00
 1512 0e5c 488B00   		movq	(%rax), %rax
 1513 0e5f 488D4DD0 		leaq	-48(%rbp), %rcx
 1514 0e63 BA000000 		movl	$.LC3, %edx
 1514      00
 1515 0e68 4889CE   		movq	%rcx, %rsi
 1516 0e6b 4889C7   		movq	%rax, %rdi
 1517 0e6e E8000000 		call	_ZN8UnitTest11TestResults13OnTestFailureERKNS_11TestDetailsEPKc
 1517      00
 1518              	.LEHE85:
 1519              	.LEHB86:
 1520 0e73 E8000000 		call	__cxa_end_catch
 1520      00
 1521              	.LEHE86:
 1522 0e78 E9FEF2FF 		jmp	.L25
 1522      FF
 1523              	.L157:
 1524 0e7d 4889C3   		movq	%rax, %rbx
  31:testConv.cpp  **** 	status = getHexNibble('3', &nibble);
 1525              		.loc 3 31 0 is_stmt 1
 1526 0e80 E8000000 		call	__cxa_end_catch
 1526      00
 1527 0e85 4889D8   		movq	%rbx, %rax
 1528 0e88 4889C7   		movq	%rax, %rdi
 1529              	.LEHB87:
 1530 0e8b E8000000 		call	_Unwind_Resume
 1530      00
 1531              	.LEHE87:
 1532              	.L156:
 1533 0e90 4889C7   		movq	%rax, %rdi
 1534 0e93 E8000000 		call	__cxa_begin_catch
 1534      00
 1535              	.LEHB88:
 1536 0e98 E8000000 		call	_ZN8UnitTest11CurrentTest7DetailsEv
 1536      00
 1537 0e9d 488B08   		movq	(%rax), %rcx
 1538 0ea0 488D45D0 		leaq	-48(%rbp), %rax
 1539 0ea4 BA1F0000 		movl	$31, %edx
 1539      00
 1540 0ea9 4889CE   		movq	%rcx, %rsi
 1541 0eac 4889C7   		movq	%rax, %rdi
 1542 0eaf E8000000 		call	_ZN8UnitTest11TestDetailsC1ERKS0_i
 1542      00
  31:testConv.cpp  **** 	status = getHexNibble('3', &nibble);
 1543              		.loc 3 31 0 is_stmt 0 discriminator 1
 1544 0eb4 E8000000 		call	_ZN8UnitTest11CurrentTest7ResultsEv
 1544      00
 1545 0eb9 488B00   		movq	(%rax), %rax
 1546 0ebc 488D4DD0 		leaq	-48(%rbp), %rcx
 1547 0ec0 BA000000 		movl	$.LC6, %edx
 1547      00
 1548 0ec5 4889CE   		movq	%rcx, %rsi
 1549 0ec8 4889C7   		movq	%rax, %rdi
 1550 0ecb E8000000 		call	_ZN8UnitTest11TestResults13OnTestFailureERKNS_11TestDetailsEPKc
 1550      00
 1551              	.LEHE88:
 1552              	.LEHB89:
 1553 0ed0 E8000000 		call	__cxa_end_catch
 1553      00
 1554              	.LEHE89:
 1555 0ed5 E9E0F2FF 		jmp	.L28
 1555      FF
 1556              	.L159:
 1557 0eda 4889C3   		movq	%rax, %rbx
  33:testConv.cpp  **** 	CHECK_EQUAL(3, nibble);
 1558              		.loc 3 33 0 is_stmt 1
 1559 0edd E8000000 		call	__cxa_end_catch
 1559      00
 1560 0ee2 4889D8   		movq	%rbx, %rax
 1561 0ee5 4889C7   		movq	%rax, %rdi
 1562              	.LEHB90:
 1563 0ee8 E8000000 		call	_Unwind_Resume
 1563      00
 1564              	.LEHE90:
 1565              	.L158:
 1566 0eed 4889C7   		movq	%rax, %rdi
 1567 0ef0 E8000000 		call	__cxa_begin_catch
 1567      00
 1568              	.LEHB91:
 1569 0ef5 E8000000 		call	_ZN8UnitTest11CurrentTest7DetailsEv
 1569      00
 1570 0efa 488B08   		movq	(%rax), %rcx
 1571 0efd 488D45D0 		leaq	-48(%rbp), %rax
 1572 0f01 BA210000 		movl	$33, %edx
 1572      00
 1573 0f06 4889CE   		movq	%rcx, %rsi
 1574 0f09 4889C7   		movq	%rax, %rdi
 1575 0f0c E8000000 		call	_ZN8UnitTest11TestDetailsC1ERKS0_i
 1575      00
  33:testConv.cpp  **** 	CHECK_EQUAL(3, nibble);
 1576              		.loc 3 33 0 is_stmt 0 discriminator 1
 1577 0f11 E8000000 		call	_ZN8UnitTest11CurrentTest7ResultsEv
 1577      00
 1578 0f16 488B00   		movq	(%rax), %rax
 1579 0f19 488D4DD0 		leaq	-48(%rbp), %rcx
 1580 0f1d BA000000 		movl	$.LC3, %edx
 1580      00
 1581 0f22 4889CE   		movq	%rcx, %rsi
 1582 0f25 4889C7   		movq	%rax, %rdi
 1583 0f28 E8000000 		call	_ZN8UnitTest11TestResults13OnTestFailureERKNS_11TestDetailsEPKc
 1583      00
 1584              	.LEHE91:
 1585              	.LEHB92:
 1586 0f2d E8000000 		call	__cxa_end_catch
 1586      00
 1587              	.LEHE92:
 1588 0f32 E9D3F2FF 		jmp	.L31
 1588      FF
 1589              	.L161:
 1590 0f37 4889C3   		movq	%rax, %rbx
  34:testConv.cpp  **** 	status = getHexNibble('4', &nibble);
 1591              		.loc 3 34 0 is_stmt 1
 1592 0f3a E8000000 		call	__cxa_end_catch
 1592      00
 1593 0f3f 4889D8   		movq	%rbx, %rax
 1594 0f42 4889C7   		movq	%rax, %rdi
 1595              	.LEHB93:
 1596 0f45 E8000000 		call	_Unwind_Resume
 1596      00
 1597              	.LEHE93:
 1598              	.L160:
 1599 0f4a 4889C7   		movq	%rax, %rdi
 1600 0f4d E8000000 		call	__cxa_begin_catch
 1600      00
 1601              	.LEHB94:
 1602 0f52 E8000000 		call	_ZN8UnitTest11CurrentTest7DetailsEv
 1602      00
 1603 0f57 488B08   		movq	(%rax), %rcx
 1604 0f5a 488D45D0 		leaq	-48(%rbp), %rax
 1605 0f5e BA220000 		movl	$34, %edx
 1605      00
 1606 0f63 4889CE   		movq	%rcx, %rsi
 1607 0f66 4889C7   		movq	%rax, %rdi
 1608 0f69 E8000000 		call	_ZN8UnitTest11TestDetailsC1ERKS0_i
 1608      00
  34:testConv.cpp  **** 	status = getHexNibble('4', &nibble);
 1609              		.loc 3 34 0 is_stmt 0 discriminator 1
 1610 0f6e E8000000 		call	_ZN8UnitTest11CurrentTest7ResultsEv
 1610      00
 1611 0f73 488B00   		movq	(%rax), %rax
 1612 0f76 488D4DD0 		leaq	-48(%rbp), %rcx
 1613 0f7a BA000000 		movl	$.LC7, %edx
 1613      00
 1614 0f7f 4889CE   		movq	%rcx, %rsi
 1615 0f82 4889C7   		movq	%rax, %rdi
 1616 0f85 E8000000 		call	_ZN8UnitTest11TestResults13OnTestFailureERKNS_11TestDetailsEPKc
 1616      00
 1617              	.LEHE94:
 1618              	.LEHB95:
 1619 0f8a E8000000 		call	__cxa_end_catch
 1619      00
 1620              	.LEHE95:
 1621 0f8f E9B5F2FF 		jmp	.L34
 1621      FF
 1622              	.L163:
 1623 0f94 4889C3   		movq	%rax, %rbx
  36:testConv.cpp  **** 	CHECK_EQUAL(4, nibble);
 1624              		.loc 3 36 0 is_stmt 1
 1625 0f97 E8000000 		call	__cxa_end_catch
 1625      00
 1626 0f9c 4889D8   		movq	%rbx, %rax
 1627 0f9f 4889C7   		movq	%rax, %rdi
 1628              	.LEHB96:
 1629 0fa2 E8000000 		call	_Unwind_Resume
 1629      00
 1630              	.LEHE96:
 1631              	.L162:
 1632 0fa7 4889C7   		movq	%rax, %rdi
 1633 0faa E8000000 		call	__cxa_begin_catch
 1633      00
 1634              	.LEHB97:
 1635 0faf E8000000 		call	_ZN8UnitTest11CurrentTest7DetailsEv
 1635      00
 1636 0fb4 488B08   		movq	(%rax), %rcx
 1637 0fb7 488D45D0 		leaq	-48(%rbp), %rax
 1638 0fbb BA240000 		movl	$36, %edx
 1638      00
 1639 0fc0 4889CE   		movq	%rcx, %rsi
 1640 0fc3 4889C7   		movq	%rax, %rdi
 1641 0fc6 E8000000 		call	_ZN8UnitTest11TestDetailsC1ERKS0_i
 1641      00
  36:testConv.cpp  **** 	CHECK_EQUAL(4, nibble);
 1642              		.loc 3 36 0 is_stmt 0 discriminator 1
 1643 0fcb E8000000 		call	_ZN8UnitTest11CurrentTest7ResultsEv
 1643      00
 1644 0fd0 488B00   		movq	(%rax), %rax
 1645 0fd3 488D4DD0 		leaq	-48(%rbp), %rcx
 1646 0fd7 BA000000 		movl	$.LC3, %edx
 1646      00
 1647 0fdc 4889CE   		movq	%rcx, %rsi
 1648 0fdf 4889C7   		movq	%rax, %rdi
 1649 0fe2 E8000000 		call	_ZN8UnitTest11TestResults13OnTestFailureERKNS_11TestDetailsEPKc
 1649      00
 1650              	.LEHE97:
 1651              	.LEHB98:
 1652 0fe7 E8000000 		call	__cxa_end_catch
 1652      00
 1653              	.LEHE98:
 1654 0fec E9A8F2FF 		jmp	.L37
 1654      FF
 1655              	.L165:
 1656 0ff1 4889C3   		movq	%rax, %rbx
  37:testConv.cpp  **** 	status = getHexNibble('5', &nibble);
 1657              		.loc 3 37 0 is_stmt 1
 1658 0ff4 E8000000 		call	__cxa_end_catch
 1658      00
 1659 0ff9 4889D8   		movq	%rbx, %rax
 1660 0ffc 4889C7   		movq	%rax, %rdi
 1661              	.LEHB99:
 1662 0fff E8000000 		call	_Unwind_Resume
 1662      00
 1663              	.LEHE99:
 1664              	.L164:
 1665 1004 4889C7   		movq	%rax, %rdi
 1666 1007 E8000000 		call	__cxa_begin_catch
 1666      00
 1667              	.LEHB100:
 1668 100c E8000000 		call	_ZN8UnitTest11CurrentTest7DetailsEv
 1668      00
 1669 1011 488B08   		movq	(%rax), %rcx
 1670 1014 488D45D0 		leaq	-48(%rbp), %rax
 1671 1018 BA250000 		movl	$37, %edx
 1671      00
 1672 101d 4889CE   		movq	%rcx, %rsi
 1673 1020 4889C7   		movq	%rax, %rdi
 1674 1023 E8000000 		call	_ZN8UnitTest11TestDetailsC1ERKS0_i
 1674      00
  37:testConv.cpp  **** 	status = getHexNibble('5', &nibble);
 1675              		.loc 3 37 0 is_stmt 0 discriminator 1
 1676 1028 E8000000 		call	_ZN8UnitTest11CurrentTest7ResultsEv
 1676      00
 1677 102d 488B00   		movq	(%rax), %rax
 1678 1030 488D4DD0 		leaq	-48(%rbp), %rcx
 1679 1034 BA000000 		movl	$.LC8, %edx
 1679      00
 1680 1039 4889CE   		movq	%rcx, %rsi
 1681 103c 4889C7   		movq	%rax, %rdi
 1682 103f E8000000 		call	_ZN8UnitTest11TestResults13OnTestFailureERKNS_11TestDetailsEPKc
 1682      00
 1683              	.LEHE100:
 1684              	.LEHB101:
 1685 1044 E8000000 		call	__cxa_end_catch
 1685      00
 1686              	.LEHE101:
 1687 1049 E98AF2FF 		jmp	.L40
 1687      FF
 1688              	.L167:
 1689 104e 4889C3   		movq	%rax, %rbx
  39:testConv.cpp  **** 	CHECK_EQUAL(5, nibble);
 1690              		.loc 3 39 0 is_stmt 1
 1691 1051 E8000000 		call	__cxa_end_catch
 1691      00
 1692 1056 4889D8   		movq	%rbx, %rax
 1693 1059 4889C7   		movq	%rax, %rdi
 1694              	.LEHB102:
 1695 105c E8000000 		call	_Unwind_Resume
 1695      00
 1696              	.LEHE102:
 1697              	.L166:
 1698 1061 4889C7   		movq	%rax, %rdi
 1699 1064 E8000000 		call	__cxa_begin_catch
 1699      00
 1700              	.LEHB103:
 1701 1069 E8000000 		call	_ZN8UnitTest11CurrentTest7DetailsEv
 1701      00
 1702 106e 488B08   		movq	(%rax), %rcx
 1703 1071 488D45D0 		leaq	-48(%rbp), %rax
 1704 1075 BA270000 		movl	$39, %edx
 1704      00
 1705 107a 4889CE   		movq	%rcx, %rsi
 1706 107d 4889C7   		movq	%rax, %rdi
 1707 1080 E8000000 		call	_ZN8UnitTest11TestDetailsC1ERKS0_i
 1707      00
  39:testConv.cpp  **** 	CHECK_EQUAL(5, nibble);
 1708              		.loc 3 39 0 is_stmt 0 discriminator 1
 1709 1085 E8000000 		call	_ZN8UnitTest11CurrentTest7ResultsEv
 1709      00
 1710 108a 488B00   		movq	(%rax), %rax
 1711 108d 488D4DD0 		leaq	-48(%rbp), %rcx
 1712 1091 BA000000 		movl	$.LC3, %edx
 1712      00
 1713 1096 4889CE   		movq	%rcx, %rsi
 1714 1099 4889C7   		movq	%rax, %rdi
 1715 109c E8000000 		call	_ZN8UnitTest11TestResults13OnTestFailureERKNS_11TestDetailsEPKc
 1715      00
 1716              	.LEHE103:
 1717              	.LEHB104:
 1718 10a1 E8000000 		call	__cxa_end_catch
 1718      00
 1719              	.LEHE104:
 1720 10a6 E97DF2FF 		jmp	.L43
 1720      FF
 1721              	.L169:
 1722 10ab 4889C3   		movq	%rax, %rbx
  40:testConv.cpp  **** 	status = getHexNibble('6', &nibble);
 1723              		.loc 3 40 0 is_stmt 1
 1724 10ae E8000000 		call	__cxa_end_catch
 1724      00
 1725 10b3 4889D8   		movq	%rbx, %rax
 1726 10b6 4889C7   		movq	%rax, %rdi
 1727              	.LEHB105:
 1728 10b9 E8000000 		call	_Unwind_Resume
 1728      00
 1729              	.LEHE105:
 1730              	.L168:
 1731 10be 4889C7   		movq	%rax, %rdi
 1732 10c1 E8000000 		call	__cxa_begin_catch
 1732      00
 1733              	.LEHB106:
 1734 10c6 E8000000 		call	_ZN8UnitTest11CurrentTest7DetailsEv
 1734      00
 1735 10cb 488B08   		movq	(%rax), %rcx
 1736 10ce 488D45D0 		leaq	-48(%rbp), %rax
 1737 10d2 BA280000 		movl	$40, %edx
 1737      00
 1738 10d7 4889CE   		movq	%rcx, %rsi
 1739 10da 4889C7   		movq	%rax, %rdi
 1740 10dd E8000000 		call	_ZN8UnitTest11TestDetailsC1ERKS0_i
 1740      00
  40:testConv.cpp  **** 	status = getHexNibble('6', &nibble);
 1741              		.loc 3 40 0 is_stmt 0 discriminator 1
 1742 10e2 E8000000 		call	_ZN8UnitTest11CurrentTest7ResultsEv
 1742      00
 1743 10e7 488B00   		movq	(%rax), %rax
 1744 10ea 488D4DD0 		leaq	-48(%rbp), %rcx
 1745 10ee BA000000 		movl	$.LC9, %edx
 1745      00
 1746 10f3 4889CE   		movq	%rcx, %rsi
 1747 10f6 4889C7   		movq	%rax, %rdi
 1748 10f9 E8000000 		call	_ZN8UnitTest11TestResults13OnTestFailureERKNS_11TestDetailsEPKc
 1748      00
 1749              	.LEHE106:
 1750              	.LEHB107:
 1751 10fe E8000000 		call	__cxa_end_catch
 1751      00
 1752              	.LEHE107:
 1753 1103 E95FF2FF 		jmp	.L46
 1753      FF
 1754              	.L171:
 1755 1108 4889C3   		movq	%rax, %rbx
  42:testConv.cpp  **** 	CHECK_EQUAL(6, nibble);
 1756              		.loc 3 42 0 is_stmt 1
 1757 110b E8000000 		call	__cxa_end_catch
 1757      00
 1758 1110 4889D8   		movq	%rbx, %rax
 1759 1113 4889C7   		movq	%rax, %rdi
 1760              	.LEHB108:
 1761 1116 E8000000 		call	_Unwind_Resume
 1761      00
 1762              	.LEHE108:
 1763              	.L170:
 1764 111b 4889C7   		movq	%rax, %rdi
 1765 111e E8000000 		call	__cxa_begin_catch
 1765      00
 1766              	.LEHB109:
 1767 1123 E8000000 		call	_ZN8UnitTest11CurrentTest7DetailsEv
 1767      00
 1768 1128 488B08   		movq	(%rax), %rcx
 1769 112b 488D45D0 		leaq	-48(%rbp), %rax
 1770 112f BA2A0000 		movl	$42, %edx
 1770      00
 1771 1134 4889CE   		movq	%rcx, %rsi
 1772 1137 4889C7   		movq	%rax, %rdi
 1773 113a E8000000 		call	_ZN8UnitTest11TestDetailsC1ERKS0_i
 1773      00
  42:testConv.cpp  **** 	CHECK_EQUAL(6, nibble);
 1774              		.loc 3 42 0 is_stmt 0 discriminator 1
 1775 113f E8000000 		call	_ZN8UnitTest11CurrentTest7ResultsEv
 1775      00
 1776 1144 488B00   		movq	(%rax), %rax
 1777 1147 488D4DD0 		leaq	-48(%rbp), %rcx
 1778 114b BA000000 		movl	$.LC3, %edx
 1778      00
 1779 1150 4889CE   		movq	%rcx, %rsi
 1780 1153 4889C7   		movq	%rax, %rdi
 1781 1156 E8000000 		call	_ZN8UnitTest11TestResults13OnTestFailureERKNS_11TestDetailsEPKc
 1781      00
 1782              	.LEHE109:
 1783              	.LEHB110:
 1784 115b E8000000 		call	__cxa_end_catch
 1784      00
 1785              	.LEHE110:
 1786 1160 E952F2FF 		jmp	.L49
 1786      FF
 1787              	.L173:
 1788 1165 4889C3   		movq	%rax, %rbx
  43:testConv.cpp  **** 	status = getHexNibble('7', &nibble);
 1789              		.loc 3 43 0 is_stmt 1
 1790 1168 E8000000 		call	__cxa_end_catch
 1790      00
 1791 116d 4889D8   		movq	%rbx, %rax
 1792 1170 4889C7   		movq	%rax, %rdi
 1793              	.LEHB111:
 1794 1173 E8000000 		call	_Unwind_Resume
 1794      00
 1795              	.LEHE111:
 1796              	.L172:
 1797 1178 4889C7   		movq	%rax, %rdi
 1798 117b E8000000 		call	__cxa_begin_catch
 1798      00
 1799              	.LEHB112:
 1800 1180 E8000000 		call	_ZN8UnitTest11CurrentTest7DetailsEv
 1800      00
 1801 1185 488B08   		movq	(%rax), %rcx
 1802 1188 488D45D0 		leaq	-48(%rbp), %rax
 1803 118c BA2B0000 		movl	$43, %edx
 1803      00
 1804 1191 4889CE   		movq	%rcx, %rsi
 1805 1194 4889C7   		movq	%rax, %rdi
 1806 1197 E8000000 		call	_ZN8UnitTest11TestDetailsC1ERKS0_i
 1806      00
  43:testConv.cpp  **** 	status = getHexNibble('7', &nibble);
 1807              		.loc 3 43 0 is_stmt 0 discriminator 1
 1808 119c E8000000 		call	_ZN8UnitTest11CurrentTest7ResultsEv
 1808      00
 1809 11a1 488B00   		movq	(%rax), %rax
 1810 11a4 488D4DD0 		leaq	-48(%rbp), %rcx
 1811 11a8 BA000000 		movl	$.LC10, %edx
 1811      00
 1812 11ad 4889CE   		movq	%rcx, %rsi
 1813 11b0 4889C7   		movq	%rax, %rdi
 1814 11b3 E8000000 		call	_ZN8UnitTest11TestResults13OnTestFailureERKNS_11TestDetailsEPKc
 1814      00
 1815              	.LEHE112:
 1816              	.LEHB113:
 1817 11b8 E8000000 		call	__cxa_end_catch
 1817      00
 1818              	.LEHE113:
 1819 11bd E934F2FF 		jmp	.L52
 1819      FF
 1820              	.L175:
 1821 11c2 4889C3   		movq	%rax, %rbx
  45:testConv.cpp  **** 	CHECK_EQUAL(7, nibble);
 1822              		.loc 3 45 0 is_stmt 1
 1823 11c5 E8000000 		call	__cxa_end_catch
 1823      00
 1824 11ca 4889D8   		movq	%rbx, %rax
 1825 11cd 4889C7   		movq	%rax, %rdi
 1826              	.LEHB114:
 1827 11d0 E8000000 		call	_Unwind_Resume
 1827      00
 1828              	.LEHE114:
 1829              	.L174:
 1830 11d5 4889C7   		movq	%rax, %rdi
 1831 11d8 E8000000 		call	__cxa_begin_catch
 1831      00
 1832              	.LEHB115:
 1833 11dd E8000000 		call	_ZN8UnitTest11CurrentTest7DetailsEv
 1833      00
 1834 11e2 488B08   		movq	(%rax), %rcx
 1835 11e5 488D45D0 		leaq	-48(%rbp), %rax
 1836 11e9 BA2D0000 		movl	$45, %edx
 1836      00
 1837 11ee 4889CE   		movq	%rcx, %rsi
 1838 11f1 4889C7   		movq	%rax, %rdi
 1839 11f4 E8000000 		call	_ZN8UnitTest11TestDetailsC1ERKS0_i
 1839      00
  45:testConv.cpp  **** 	CHECK_EQUAL(7, nibble);
 1840              		.loc 3 45 0 is_stmt 0 discriminator 1
 1841 11f9 E8000000 		call	_ZN8UnitTest11CurrentTest7ResultsEv
 1841      00
 1842 11fe 488B00   		movq	(%rax), %rax
 1843 1201 488D4DD0 		leaq	-48(%rbp), %rcx
 1844 1205 BA000000 		movl	$.LC3, %edx
 1844      00
 1845 120a 4889CE   		movq	%rcx, %rsi
 1846 120d 4889C7   		movq	%rax, %rdi
 1847 1210 E8000000 		call	_ZN8UnitTest11TestResults13OnTestFailureERKNS_11TestDetailsEPKc
 1847      00
 1848              	.LEHE115:
 1849              	.LEHB116:
 1850 1215 E8000000 		call	__cxa_end_catch
 1850      00
 1851              	.LEHE116:
 1852 121a E927F2FF 		jmp	.L55
 1852      FF
 1853              	.L177:
 1854 121f 4889C3   		movq	%rax, %rbx
  46:testConv.cpp  **** 	status = getHexNibble('8', &nibble);
 1855              		.loc 3 46 0 is_stmt 1
 1856 1222 E8000000 		call	__cxa_end_catch
 1856      00
 1857 1227 4889D8   		movq	%rbx, %rax
 1858 122a 4889C7   		movq	%rax, %rdi
 1859              	.LEHB117:
 1860 122d E8000000 		call	_Unwind_Resume
 1860      00
 1861              	.LEHE117:
 1862              	.L176:
 1863 1232 4889C7   		movq	%rax, %rdi
 1864 1235 E8000000 		call	__cxa_begin_catch
 1864      00
 1865              	.LEHB118:
 1866 123a E8000000 		call	_ZN8UnitTest11CurrentTest7DetailsEv
 1866      00
 1867 123f 488B08   		movq	(%rax), %rcx
 1868 1242 488D45D0 		leaq	-48(%rbp), %rax
 1869 1246 BA2E0000 		movl	$46, %edx
 1869      00
 1870 124b 4889CE   		movq	%rcx, %rsi
 1871 124e 4889C7   		movq	%rax, %rdi
 1872 1251 E8000000 		call	_ZN8UnitTest11TestDetailsC1ERKS0_i
 1872      00
  46:testConv.cpp  **** 	status = getHexNibble('8', &nibble);
 1873              		.loc 3 46 0 is_stmt 0 discriminator 1
 1874 1256 E8000000 		call	_ZN8UnitTest11CurrentTest7ResultsEv
 1874      00
 1875 125b 488B00   		movq	(%rax), %rax
 1876 125e 488D4DD0 		leaq	-48(%rbp), %rcx
 1877 1262 BA000000 		movl	$.LC11, %edx
 1877      00
 1878 1267 4889CE   		movq	%rcx, %rsi
 1879 126a 4889C7   		movq	%rax, %rdi
 1880 126d E8000000 		call	_ZN8UnitTest11TestResults13OnTestFailureERKNS_11TestDetailsEPKc
 1880      00
 1881              	.LEHE118:
 1882              	.LEHB119:
 1883 1272 E8000000 		call	__cxa_end_catch
 1883      00
 1884              	.LEHE119:
 1885 1277 E909F2FF 		jmp	.L58
 1885      FF
 1886              	.L179:
 1887 127c 4889C3   		movq	%rax, %rbx
  48:testConv.cpp  **** 	CHECK_EQUAL(8, nibble);
 1888              		.loc 3 48 0 is_stmt 1
 1889 127f E8000000 		call	__cxa_end_catch
 1889      00
 1890 1284 4889D8   		movq	%rbx, %rax
 1891 1287 4889C7   		movq	%rax, %rdi
 1892              	.LEHB120:
 1893 128a E8000000 		call	_Unwind_Resume
 1893      00
 1894              	.LEHE120:
 1895              	.L178:
 1896 128f 4889C7   		movq	%rax, %rdi
 1897 1292 E8000000 		call	__cxa_begin_catch
 1897      00
 1898              	.LEHB121:
 1899 1297 E8000000 		call	_ZN8UnitTest11CurrentTest7DetailsEv
 1899      00
 1900 129c 488B08   		movq	(%rax), %rcx
 1901 129f 488D45D0 		leaq	-48(%rbp), %rax
 1902 12a3 BA300000 		movl	$48, %edx
 1902      00
 1903 12a8 4889CE   		movq	%rcx, %rsi
 1904 12ab 4889C7   		movq	%rax, %rdi
 1905 12ae E8000000 		call	_ZN8UnitTest11TestDetailsC1ERKS0_i
 1905      00
  48:testConv.cpp  **** 	CHECK_EQUAL(8, nibble);
 1906              		.loc 3 48 0 is_stmt 0 discriminator 1
 1907 12b3 E8000000 		call	_ZN8UnitTest11CurrentTest7ResultsEv
 1907      00
 1908 12b8 488B00   		movq	(%rax), %rax
 1909 12bb 488D4DD0 		leaq	-48(%rbp), %rcx
 1910 12bf BA000000 		movl	$.LC3, %edx
 1910      00
 1911 12c4 4889CE   		movq	%rcx, %rsi
 1912 12c7 4889C7   		movq	%rax, %rdi
 1913 12ca E8000000 		call	_ZN8UnitTest11TestResults13OnTestFailureERKNS_11TestDetailsEPKc
 1913      00
 1914              	.LEHE121:
 1915              	.LEHB122:
 1916 12cf E8000000 		call	__cxa_end_catch
 1916      00
 1917              	.LEHE122:
 1918 12d4 E9FCF1FF 		jmp	.L61
 1918      FF
 1919              	.L181:
 1920 12d9 4889C3   		movq	%rax, %rbx
  49:testConv.cpp  **** 	status = getHexNibble('9', &nibble);
 1921              		.loc 3 49 0 is_stmt 1
 1922 12dc E8000000 		call	__cxa_end_catch
 1922      00
 1923 12e1 4889D8   		movq	%rbx, %rax
 1924 12e4 4889C7   		movq	%rax, %rdi
 1925              	.LEHB123:
 1926 12e7 E8000000 		call	_Unwind_Resume
 1926      00
 1927              	.LEHE123:
 1928              	.L180:
 1929 12ec 4889C7   		movq	%rax, %rdi
 1930 12ef E8000000 		call	__cxa_begin_catch
 1930      00
 1931              	.LEHB124:
 1932 12f4 E8000000 		call	_ZN8UnitTest11CurrentTest7DetailsEv
 1932      00
 1933 12f9 488B08   		movq	(%rax), %rcx
 1934 12fc 488D45D0 		leaq	-48(%rbp), %rax
 1935 1300 BA310000 		movl	$49, %edx
 1935      00
 1936 1305 4889CE   		movq	%rcx, %rsi
 1937 1308 4889C7   		movq	%rax, %rdi
 1938 130b E8000000 		call	_ZN8UnitTest11TestDetailsC1ERKS0_i
 1938      00
  49:testConv.cpp  **** 	status = getHexNibble('9', &nibble);
 1939              		.loc 3 49 0 is_stmt 0 discriminator 1
 1940 1310 E8000000 		call	_ZN8UnitTest11CurrentTest7ResultsEv
 1940      00
 1941 1315 488B00   		movq	(%rax), %rax
 1942 1318 488D4DD0 		leaq	-48(%rbp), %rcx
 1943 131c BA000000 		movl	$.LC12, %edx
 1943      00
 1944 1321 4889CE   		movq	%rcx, %rsi
 1945 1324 4889C7   		movq	%rax, %rdi
 1946 1327 E8000000 		call	_ZN8UnitTest11TestResults13OnTestFailureERKNS_11TestDetailsEPKc
 1946      00
 1947              	.LEHE124:
 1948              	.LEHB125:
 1949 132c E8000000 		call	__cxa_end_catch
 1949      00
 1950              	.LEHE125:
 1951 1331 E9DEF1FF 		jmp	.L64
 1951      FF
 1952              	.L183:
 1953 1336 4889C3   		movq	%rax, %rbx
  51:testConv.cpp  **** 	CHECK_EQUAL(9, nibble);
 1954              		.loc 3 51 0 is_stmt 1
 1955 1339 E8000000 		call	__cxa_end_catch
 1955      00
 1956 133e 4889D8   		movq	%rbx, %rax
 1957 1341 4889C7   		movq	%rax, %rdi
 1958              	.LEHB126:
 1959 1344 E8000000 		call	_Unwind_Resume
 1959      00
 1960              	.LEHE126:
 1961              	.L182:
 1962 1349 4889C7   		movq	%rax, %rdi
 1963 134c E8000000 		call	__cxa_begin_catch
 1963      00
 1964              	.LEHB127:
 1965 1351 E8000000 		call	_ZN8UnitTest11CurrentTest7DetailsEv
 1965      00
 1966 1356 488B08   		movq	(%rax), %rcx
 1967 1359 488D45D0 		leaq	-48(%rbp), %rax
 1968 135d BA330000 		movl	$51, %edx
 1968      00
 1969 1362 4889CE   		movq	%rcx, %rsi
 1970 1365 4889C7   		movq	%rax, %rdi
 1971 1368 E8000000 		call	_ZN8UnitTest11TestDetailsC1ERKS0_i
 1971      00
  51:testConv.cpp  **** 	CHECK_EQUAL(9, nibble);
 1972              		.loc 3 51 0 is_stmt 0 discriminator 1
 1973 136d E8000000 		call	_ZN8UnitTest11CurrentTest7ResultsEv
 1973      00
 1974 1372 488B00   		movq	(%rax), %rax
 1975 1375 488D4DD0 		leaq	-48(%rbp), %rcx
 1976 1379 BA000000 		movl	$.LC3, %edx
 1976      00
 1977 137e 4889CE   		movq	%rcx, %rsi
 1978 1381 4889C7   		movq	%rax, %rdi
 1979 1384 E8000000 		call	_ZN8UnitTest11TestResults13OnTestFailureERKNS_11TestDetailsEPKc
 1979      00
 1980              	.LEHE127:
 1981              	.LEHB128:
 1982 1389 E8000000 		call	__cxa_end_catch
 1982      00
 1983              	.LEHE128:
 1984 138e E9D1F1FF 		jmp	.L67
 1984      FF
 1985              	.L185:
 1986 1393 4889C3   		movq	%rax, %rbx
  52:testConv.cpp  **** 	status = getHexNibble('A', &nibble);
 1987              		.loc 3 52 0 is_stmt 1
 1988 1396 E8000000 		call	__cxa_end_catch
 1988      00
 1989 139b 4889D8   		movq	%rbx, %rax
 1990 139e 4889C7   		movq	%rax, %rdi
 1991              	.LEHB129:
 1992 13a1 E8000000 		call	_Unwind_Resume
 1992      00
 1993              	.LEHE129:
 1994              	.L184:
 1995 13a6 4889C7   		movq	%rax, %rdi
 1996 13a9 E8000000 		call	__cxa_begin_catch
 1996      00
 1997              	.LEHB130:
 1998 13ae E8000000 		call	_ZN8UnitTest11CurrentTest7DetailsEv
 1998      00
 1999 13b3 488B08   		movq	(%rax), %rcx
 2000 13b6 488D45D0 		leaq	-48(%rbp), %rax
 2001 13ba BA340000 		movl	$52, %edx
 2001      00
 2002 13bf 4889CE   		movq	%rcx, %rsi
 2003 13c2 4889C7   		movq	%rax, %rdi
 2004 13c5 E8000000 		call	_ZN8UnitTest11TestDetailsC1ERKS0_i
 2004      00
  52:testConv.cpp  **** 	status = getHexNibble('A', &nibble);
 2005              		.loc 3 52 0 is_stmt 0 discriminator 1
 2006 13ca E8000000 		call	_ZN8UnitTest11CurrentTest7ResultsEv
 2006      00
 2007 13cf 488B00   		movq	(%rax), %rax
 2008 13d2 488D4DD0 		leaq	-48(%rbp), %rcx
 2009 13d6 BA000000 		movl	$.LC13, %edx
 2009      00
 2010 13db 4889CE   		movq	%rcx, %rsi
 2011 13de 4889C7   		movq	%rax, %rdi
 2012 13e1 E8000000 		call	_ZN8UnitTest11TestResults13OnTestFailureERKNS_11TestDetailsEPKc
 2012      00
 2013              	.LEHE130:
 2014              	.LEHB131:
 2015 13e6 E8000000 		call	__cxa_end_catch
 2015      00
 2016              	.LEHE131:
 2017 13eb E9B3F1FF 		jmp	.L70
 2017      FF
 2018              	.L187:
 2019 13f0 4889C3   		movq	%rax, %rbx
  54:testConv.cpp  **** 	CHECK_EQUAL(10, nibble);
 2020              		.loc 3 54 0 is_stmt 1
 2021 13f3 E8000000 		call	__cxa_end_catch
 2021      00
 2022 13f8 4889D8   		movq	%rbx, %rax
 2023 13fb 4889C7   		movq	%rax, %rdi
 2024              	.LEHB132:
 2025 13fe E8000000 		call	_Unwind_Resume
 2025      00
 2026              	.LEHE132:
 2027              	.L186:
 2028 1403 4889C7   		movq	%rax, %rdi
 2029 1406 E8000000 		call	__cxa_begin_catch
 2029      00
 2030              	.LEHB133:
 2031 140b E8000000 		call	_ZN8UnitTest11CurrentTest7DetailsEv
 2031      00
 2032 1410 488B08   		movq	(%rax), %rcx
 2033 1413 488D45D0 		leaq	-48(%rbp), %rax
 2034 1417 BA360000 		movl	$54, %edx
 2034      00
 2035 141c 4889CE   		movq	%rcx, %rsi
 2036 141f 4889C7   		movq	%rax, %rdi
 2037 1422 E8000000 		call	_ZN8UnitTest11TestDetailsC1ERKS0_i
 2037      00
  54:testConv.cpp  **** 	CHECK_EQUAL(10, nibble);
 2038              		.loc 3 54 0 is_stmt 0 discriminator 1
 2039 1427 E8000000 		call	_ZN8UnitTest11CurrentTest7ResultsEv
 2039      00
 2040 142c 488B00   		movq	(%rax), %rax
 2041 142f 488D4DD0 		leaq	-48(%rbp), %rcx
 2042 1433 BA000000 		movl	$.LC3, %edx
 2042      00
 2043 1438 4889CE   		movq	%rcx, %rsi
 2044 143b 4889C7   		movq	%rax, %rdi
 2045 143e E8000000 		call	_ZN8UnitTest11TestResults13OnTestFailureERKNS_11TestDetailsEPKc
 2045      00
 2046              	.LEHE133:
 2047              	.LEHB134:
 2048 1443 E8000000 		call	__cxa_end_catch
 2048      00
 2049              	.LEHE134:
 2050 1448 E9A6F1FF 		jmp	.L73
 2050      FF
 2051              	.L189:
 2052 144d 4889C3   		movq	%rax, %rbx
  55:testConv.cpp  **** 	status = getHexNibble('B', &nibble);
 2053              		.loc 3 55 0 is_stmt 1
 2054 1450 E8000000 		call	__cxa_end_catch
 2054      00
 2055 1455 4889D8   		movq	%rbx, %rax
 2056 1458 4889C7   		movq	%rax, %rdi
 2057              	.LEHB135:
 2058 145b E8000000 		call	_Unwind_Resume
 2058      00
 2059              	.LEHE135:
 2060              	.L188:
 2061 1460 4889C7   		movq	%rax, %rdi
 2062 1463 E8000000 		call	__cxa_begin_catch
 2062      00
 2063              	.LEHB136:
 2064 1468 E8000000 		call	_ZN8UnitTest11CurrentTest7DetailsEv
 2064      00
 2065 146d 488B08   		movq	(%rax), %rcx
 2066 1470 488D45D0 		leaq	-48(%rbp), %rax
 2067 1474 BA370000 		movl	$55, %edx
 2067      00
 2068 1479 4889CE   		movq	%rcx, %rsi
 2069 147c 4889C7   		movq	%rax, %rdi
 2070 147f E8000000 		call	_ZN8UnitTest11TestDetailsC1ERKS0_i
 2070      00
  55:testConv.cpp  **** 	status = getHexNibble('B', &nibble);
 2071              		.loc 3 55 0 is_stmt 0 discriminator 1
 2072 1484 E8000000 		call	_ZN8UnitTest11CurrentTest7ResultsEv
 2072      00
 2073 1489 488B00   		movq	(%rax), %rax
 2074 148c 488D4DD0 		leaq	-48(%rbp), %rcx
 2075 1490 BA000000 		movl	$.LC14, %edx
 2075      00
 2076 1495 4889CE   		movq	%rcx, %rsi
 2077 1498 4889C7   		movq	%rax, %rdi
 2078 149b E8000000 		call	_ZN8UnitTest11TestResults13OnTestFailureERKNS_11TestDetailsEPKc
 2078      00
 2079              	.LEHE136:
 2080              	.LEHB137:
 2081 14a0 E8000000 		call	__cxa_end_catch
 2081      00
 2082              	.LEHE137:
 2083 14a5 E988F1FF 		jmp	.L76
 2083      FF
 2084              	.L191:
 2085 14aa 4889C3   		movq	%rax, %rbx
  57:testConv.cpp  **** 	CHECK_EQUAL(11, nibble);
 2086              		.loc 3 57 0 is_stmt 1
 2087 14ad E8000000 		call	__cxa_end_catch
 2087      00
 2088 14b2 4889D8   		movq	%rbx, %rax
 2089 14b5 4889C7   		movq	%rax, %rdi
 2090              	.LEHB138:
 2091 14b8 E8000000 		call	_Unwind_Resume
 2091      00
 2092              	.LEHE138:
 2093              	.L190:
 2094 14bd 4889C7   		movq	%rax, %rdi
 2095 14c0 E8000000 		call	__cxa_begin_catch
 2095      00
 2096              	.LEHB139:
 2097 14c5 E8000000 		call	_ZN8UnitTest11CurrentTest7DetailsEv
 2097      00
 2098 14ca 488B08   		movq	(%rax), %rcx
 2099 14cd 488D45D0 		leaq	-48(%rbp), %rax
 2100 14d1 BA390000 		movl	$57, %edx
 2100      00
 2101 14d6 4889CE   		movq	%rcx, %rsi
 2102 14d9 4889C7   		movq	%rax, %rdi
 2103 14dc E8000000 		call	_ZN8UnitTest11TestDetailsC1ERKS0_i
 2103      00
  57:testConv.cpp  **** 	CHECK_EQUAL(11, nibble);
 2104              		.loc 3 57 0 is_stmt 0 discriminator 1
 2105 14e1 E8000000 		call	_ZN8UnitTest11CurrentTest7ResultsEv
 2105      00
 2106 14e6 488B00   		movq	(%rax), %rax
 2107 14e9 488D4DD0 		leaq	-48(%rbp), %rcx
 2108 14ed BA000000 		movl	$.LC3, %edx
 2108      00
 2109 14f2 4889CE   		movq	%rcx, %rsi
 2110 14f5 4889C7   		movq	%rax, %rdi
 2111 14f8 E8000000 		call	_ZN8UnitTest11TestResults13OnTestFailureERKNS_11TestDetailsEPKc
 2111      00
 2112              	.LEHE139:
 2113              	.LEHB140:
 2114 14fd E8000000 		call	__cxa_end_catch
 2114      00
 2115              	.LEHE140:
 2116 1502 E97BF1FF 		jmp	.L79
 2116      FF
 2117              	.L193:
 2118 1507 4889C3   		movq	%rax, %rbx
  58:testConv.cpp  **** 	status = getHexNibble('C', &nibble);
 2119              		.loc 3 58 0 is_stmt 1
 2120 150a E8000000 		call	__cxa_end_catch
 2120      00
 2121 150f 4889D8   		movq	%rbx, %rax
 2122 1512 4889C7   		movq	%rax, %rdi
 2123              	.LEHB141:
 2124 1515 E8000000 		call	_Unwind_Resume
 2124      00
 2125              	.LEHE141:
 2126              	.L192:
 2127 151a 4889C7   		movq	%rax, %rdi
 2128 151d E8000000 		call	__cxa_begin_catch
 2128      00
 2129              	.LEHB142:
 2130 1522 E8000000 		call	_ZN8UnitTest11CurrentTest7DetailsEv
 2130      00
 2131 1527 488B08   		movq	(%rax), %rcx
 2132 152a 488D45D0 		leaq	-48(%rbp), %rax
 2133 152e BA3A0000 		movl	$58, %edx
 2133      00
 2134 1533 4889CE   		movq	%rcx, %rsi
 2135 1536 4889C7   		movq	%rax, %rdi
 2136 1539 E8000000 		call	_ZN8UnitTest11TestDetailsC1ERKS0_i
 2136      00
  58:testConv.cpp  **** 	status = getHexNibble('C', &nibble);
 2137              		.loc 3 58 0 is_stmt 0 discriminator 1
 2138 153e E8000000 		call	_ZN8UnitTest11CurrentTest7ResultsEv
 2138      00
 2139 1543 488B00   		movq	(%rax), %rax
 2140 1546 488D4DD0 		leaq	-48(%rbp), %rcx
 2141 154a BA000000 		movl	$.LC15, %edx
 2141      00
 2142 154f 4889CE   		movq	%rcx, %rsi
 2143 1552 4889C7   		movq	%rax, %rdi
 2144 1555 E8000000 		call	_ZN8UnitTest11TestResults13OnTestFailureERKNS_11TestDetailsEPKc
 2144      00
 2145              	.LEHE142:
 2146              	.LEHB143:
 2147 155a E8000000 		call	__cxa_end_catch
 2147      00
 2148              	.LEHE143:
 2149 155f E95DF1FF 		jmp	.L82
 2149      FF
 2150              	.L195:
 2151 1564 4889C3   		movq	%rax, %rbx
  60:testConv.cpp  **** 	CHECK_EQUAL(12, nibble);
 2152              		.loc 3 60 0 is_stmt 1
 2153 1567 E8000000 		call	__cxa_end_catch
 2153      00
 2154 156c 4889D8   		movq	%rbx, %rax
 2155 156f 4889C7   		movq	%rax, %rdi
 2156              	.LEHB144:
 2157 1572 E8000000 		call	_Unwind_Resume
 2157      00
 2158              	.LEHE144:
 2159              	.L194:
 2160 1577 4889C7   		movq	%rax, %rdi
 2161 157a E8000000 		call	__cxa_begin_catch
 2161      00
 2162              	.LEHB145:
 2163 157f E8000000 		call	_ZN8UnitTest11CurrentTest7DetailsEv
 2163      00
 2164 1584 488B08   		movq	(%rax), %rcx
 2165 1587 488D45D0 		leaq	-48(%rbp), %rax
 2166 158b BA3C0000 		movl	$60, %edx
 2166      00
 2167 1590 4889CE   		movq	%rcx, %rsi
 2168 1593 4889C7   		movq	%rax, %rdi
 2169 1596 E8000000 		call	_ZN8UnitTest11TestDetailsC1ERKS0_i
 2169      00
  60:testConv.cpp  **** 	CHECK_EQUAL(12, nibble);
 2170              		.loc 3 60 0 is_stmt 0 discriminator 1
 2171 159b E8000000 		call	_ZN8UnitTest11CurrentTest7ResultsEv
 2171      00
 2172 15a0 488B00   		movq	(%rax), %rax
 2173 15a3 488D4DD0 		leaq	-48(%rbp), %rcx
 2174 15a7 BA000000 		movl	$.LC3, %edx
 2174      00
 2175 15ac 4889CE   		movq	%rcx, %rsi
 2176 15af 4889C7   		movq	%rax, %rdi
 2177 15b2 E8000000 		call	_ZN8UnitTest11TestResults13OnTestFailureERKNS_11TestDetailsEPKc
 2177      00
 2178              	.LEHE145:
 2179              	.LEHB146:
 2180 15b7 E8000000 		call	__cxa_end_catch
 2180      00
 2181              	.LEHE146:
 2182 15bc E950F1FF 		jmp	.L85
 2182      FF
 2183              	.L197:
 2184 15c1 4889C3   		movq	%rax, %rbx
  61:testConv.cpp  **** 	status = getHexNibble('D', &nibble);
 2185              		.loc 3 61 0 is_stmt 1
 2186 15c4 E8000000 		call	__cxa_end_catch
 2186      00
 2187 15c9 4889D8   		movq	%rbx, %rax
 2188 15cc 4889C7   		movq	%rax, %rdi
 2189              	.LEHB147:
 2190 15cf E8000000 		call	_Unwind_Resume
 2190      00
 2191              	.LEHE147:
 2192              	.L196:
 2193 15d4 4889C7   		movq	%rax, %rdi
 2194 15d7 E8000000 		call	__cxa_begin_catch
 2194      00
 2195              	.LEHB148:
 2196 15dc E8000000 		call	_ZN8UnitTest11CurrentTest7DetailsEv
 2196      00
 2197 15e1 488B08   		movq	(%rax), %rcx
 2198 15e4 488D45D0 		leaq	-48(%rbp), %rax
 2199 15e8 BA3D0000 		movl	$61, %edx
 2199      00
 2200 15ed 4889CE   		movq	%rcx, %rsi
 2201 15f0 4889C7   		movq	%rax, %rdi
 2202 15f3 E8000000 		call	_ZN8UnitTest11TestDetailsC1ERKS0_i
 2202      00
  61:testConv.cpp  **** 	status = getHexNibble('D', &nibble);
 2203              		.loc 3 61 0 is_stmt 0 discriminator 1
 2204 15f8 E8000000 		call	_ZN8UnitTest11CurrentTest7ResultsEv
 2204      00
 2205 15fd 488B00   		movq	(%rax), %rax
 2206 1600 488D4DD0 		leaq	-48(%rbp), %rcx
 2207 1604 BA000000 		movl	$.LC16, %edx
 2207      00
 2208 1609 4889CE   		movq	%rcx, %rsi
 2209 160c 4889C7   		movq	%rax, %rdi
 2210 160f E8000000 		call	_ZN8UnitTest11TestResults13OnTestFailureERKNS_11TestDetailsEPKc
 2210      00
 2211              	.LEHE148:
 2212              	.LEHB149:
 2213 1614 E8000000 		call	__cxa_end_catch
 2213      00
 2214              	.LEHE149:
 2215 1619 E932F1FF 		jmp	.L88
 2215      FF
 2216              	.L199:
 2217 161e 4889C3   		movq	%rax, %rbx
  63:testConv.cpp  **** 	CHECK_EQUAL(13, nibble);
 2218              		.loc 3 63 0 is_stmt 1
 2219 1621 E8000000 		call	__cxa_end_catch
 2219      00
 2220 1626 4889D8   		movq	%rbx, %rax
 2221 1629 4889C7   		movq	%rax, %rdi
 2222              	.LEHB150:
 2223 162c E8000000 		call	_Unwind_Resume
 2223      00
 2224              	.LEHE150:
 2225              	.L198:
 2226 1631 4889C7   		movq	%rax, %rdi
 2227 1634 E8000000 		call	__cxa_begin_catch
 2227      00
 2228              	.LEHB151:
 2229 1639 E8000000 		call	_ZN8UnitTest11CurrentTest7DetailsEv
 2229      00
 2230 163e 488B08   		movq	(%rax), %rcx
 2231 1641 488D45D0 		leaq	-48(%rbp), %rax
 2232 1645 BA3F0000 		movl	$63, %edx
 2232      00
 2233 164a 4889CE   		movq	%rcx, %rsi
 2234 164d 4889C7   		movq	%rax, %rdi
 2235 1650 E8000000 		call	_ZN8UnitTest11TestDetailsC1ERKS0_i
 2235      00
  63:testConv.cpp  **** 	CHECK_EQUAL(13, nibble);
 2236              		.loc 3 63 0 is_stmt 0 discriminator 1
 2237 1655 E8000000 		call	_ZN8UnitTest11CurrentTest7ResultsEv
 2237      00
 2238 165a 488B00   		movq	(%rax), %rax
 2239 165d 488D4DD0 		leaq	-48(%rbp), %rcx
 2240 1661 BA000000 		movl	$.LC3, %edx
 2240      00
 2241 1666 4889CE   		movq	%rcx, %rsi
 2242 1669 4889C7   		movq	%rax, %rdi
 2243 166c E8000000 		call	_ZN8UnitTest11TestResults13OnTestFailureERKNS_11TestDetailsEPKc
 2243      00
 2244              	.LEHE151:
 2245              	.LEHB152:
 2246 1671 E8000000 		call	__cxa_end_catch
 2246      00
 2247              	.LEHE152:
 2248 1676 E925F1FF 		jmp	.L91
 2248      FF
 2249              	.L201:
 2250 167b 4889C3   		movq	%rax, %rbx
  64:testConv.cpp  **** 	status = getHexNibble('E', &nibble);
 2251              		.loc 3 64 0 is_stmt 1
 2252 167e E8000000 		call	__cxa_end_catch
 2252      00
 2253 1683 4889D8   		movq	%rbx, %rax
 2254 1686 4889C7   		movq	%rax, %rdi
 2255              	.LEHB153:
 2256 1689 E8000000 		call	_Unwind_Resume
 2256      00
 2257              	.LEHE153:
 2258              	.L200:
 2259 168e 4889C7   		movq	%rax, %rdi
 2260 1691 E8000000 		call	__cxa_begin_catch
 2260      00
 2261              	.LEHB154:
 2262 1696 E8000000 		call	_ZN8UnitTest11CurrentTest7DetailsEv
 2262      00
 2263 169b 488B08   		movq	(%rax), %rcx
 2264 169e 488D45D0 		leaq	-48(%rbp), %rax
 2265 16a2 BA400000 		movl	$64, %edx
 2265      00
 2266 16a7 4889CE   		movq	%rcx, %rsi
 2267 16aa 4889C7   		movq	%rax, %rdi
 2268 16ad E8000000 		call	_ZN8UnitTest11TestDetailsC1ERKS0_i
 2268      00
  64:testConv.cpp  **** 	status = getHexNibble('E', &nibble);
 2269              		.loc 3 64 0 is_stmt 0 discriminator 1
 2270 16b2 E8000000 		call	_ZN8UnitTest11CurrentTest7ResultsEv
 2270      00
 2271 16b7 488B00   		movq	(%rax), %rax
 2272 16ba 488D4DD0 		leaq	-48(%rbp), %rcx
 2273 16be BA000000 		movl	$.LC17, %edx
 2273      00
 2274 16c3 4889CE   		movq	%rcx, %rsi
 2275 16c6 4889C7   		movq	%rax, %rdi
 2276 16c9 E8000000 		call	_ZN8UnitTest11TestResults13OnTestFailureERKNS_11TestDetailsEPKc
 2276      00
 2277              	.LEHE154:
 2278              	.LEHB155:
 2279 16ce E8000000 		call	__cxa_end_catch
 2279      00
 2280              	.LEHE155:
 2281 16d3 E907F1FF 		jmp	.L94
 2281      FF
 2282              	.L203:
 2283 16d8 4889C3   		movq	%rax, %rbx
  66:testConv.cpp  **** 	CHECK_EQUAL(14, nibble);
 2284              		.loc 3 66 0 is_stmt 1
 2285 16db E8000000 		call	__cxa_end_catch
 2285      00
 2286 16e0 4889D8   		movq	%rbx, %rax
 2287 16e3 4889C7   		movq	%rax, %rdi
 2288              	.LEHB156:
 2289 16e6 E8000000 		call	_Unwind_Resume
 2289      00
 2290              	.LEHE156:
 2291              	.L202:
 2292 16eb 4889C7   		movq	%rax, %rdi
 2293 16ee E8000000 		call	__cxa_begin_catch
 2293      00
 2294              	.LEHB157:
 2295 16f3 E8000000 		call	_ZN8UnitTest11CurrentTest7DetailsEv
 2295      00
 2296 16f8 488B08   		movq	(%rax), %rcx
 2297 16fb 488D45D0 		leaq	-48(%rbp), %rax
 2298 16ff BA420000 		movl	$66, %edx
 2298      00
 2299 1704 4889CE   		movq	%rcx, %rsi
 2300 1707 4889C7   		movq	%rax, %rdi
 2301 170a E8000000 		call	_ZN8UnitTest11TestDetailsC1ERKS0_i
 2301      00
  66:testConv.cpp  **** 	CHECK_EQUAL(14, nibble);
 2302              		.loc 3 66 0 is_stmt 0 discriminator 1
 2303 170f E8000000 		call	_ZN8UnitTest11CurrentTest7ResultsEv
 2303      00
 2304 1714 488B00   		movq	(%rax), %rax
 2305 1717 488D4DD0 		leaq	-48(%rbp), %rcx
 2306 171b BA000000 		movl	$.LC3, %edx
 2306      00
 2307 1720 4889CE   		movq	%rcx, %rsi
 2308 1723 4889C7   		movq	%rax, %rdi
 2309 1726 E8000000 		call	_ZN8UnitTest11TestResults13OnTestFailureERKNS_11TestDetailsEPKc
 2309      00
 2310              	.LEHE157:
 2311              	.LEHB158:
 2312 172b E8000000 		call	__cxa_end_catch
 2312      00
 2313              	.LEHE158:
 2314 1730 E9FAF0FF 		jmp	.L97
 2314      FF
 2315              	.L205:
 2316 1735 4889C3   		movq	%rax, %rbx
  67:testConv.cpp  **** 	status = getHexNibble('F', &nibble);
 2317              		.loc 3 67 0 is_stmt 1
 2318 1738 E8000000 		call	__cxa_end_catch
 2318      00
 2319 173d 4889D8   		movq	%rbx, %rax
 2320 1740 4889C7   		movq	%rax, %rdi
 2321              	.LEHB159:
 2322 1743 E8000000 		call	_Unwind_Resume
 2322      00
 2323              	.LEHE159:
 2324              	.L204:
 2325 1748 4889C7   		movq	%rax, %rdi
 2326 174b E8000000 		call	__cxa_begin_catch
 2326      00
 2327              	.LEHB160:
 2328 1750 E8000000 		call	_ZN8UnitTest11CurrentTest7DetailsEv
 2328      00
 2329 1755 488B08   		movq	(%rax), %rcx
 2330 1758 488D45D0 		leaq	-48(%rbp), %rax
 2331 175c BA430000 		movl	$67, %edx
 2331      00
 2332 1761 4889CE   		movq	%rcx, %rsi
 2333 1764 4889C7   		movq	%rax, %rdi
 2334 1767 E8000000 		call	_ZN8UnitTest11TestDetailsC1ERKS0_i
 2334      00
  67:testConv.cpp  **** 	status = getHexNibble('F', &nibble);
 2335              		.loc 3 67 0 is_stmt 0 discriminator 1
 2336 176c E8000000 		call	_ZN8UnitTest11CurrentTest7ResultsEv
 2336      00
 2337 1771 488B00   		movq	(%rax), %rax
 2338 1774 488D4DD0 		leaq	-48(%rbp), %rcx
 2339 1778 BA000000 		movl	$.LC18, %edx
 2339      00
 2340 177d 4889CE   		movq	%rcx, %rsi
 2341 1780 4889C7   		movq	%rax, %rdi
 2342 1783 E8000000 		call	_ZN8UnitTest11TestResults13OnTestFailureERKNS_11TestDetailsEPKc
 2342      00
 2343              	.LEHE160:
 2344              	.LEHB161:
 2345 1788 E8000000 		call	__cxa_end_catch
 2345      00
 2346              	.LEHE161:
 2347 178d E9DCF0FF 		jmp	.L100
 2347      FF
 2348              	.L207:
 2349 1792 4889C3   		movq	%rax, %rbx
  69:testConv.cpp  **** 	CHECK_EQUAL(15, nibble);
 2350              		.loc 3 69 0 is_stmt 1
 2351 1795 E8000000 		call	__cxa_end_catch
 2351      00
 2352 179a 4889D8   		movq	%rbx, %rax
 2353 179d 4889C7   		movq	%rax, %rdi
 2354              	.LEHB162:
 2355 17a0 E8000000 		call	_Unwind_Resume
 2355      00
 2356              	.LEHE162:
 2357              	.L206:
 2358 17a5 4889C7   		movq	%rax, %rdi
 2359 17a8 E8000000 		call	__cxa_begin_catch
 2359      00
 2360              	.LEHB163:
 2361 17ad E8000000 		call	_ZN8UnitTest11CurrentTest7DetailsEv
 2361      00
 2362 17b2 488B08   		movq	(%rax), %rcx
 2363 17b5 488D45D0 		leaq	-48(%rbp), %rax
 2364 17b9 BA450000 		movl	$69, %edx
 2364      00
 2365 17be 4889CE   		movq	%rcx, %rsi
 2366 17c1 4889C7   		movq	%rax, %rdi
 2367 17c4 E8000000 		call	_ZN8UnitTest11TestDetailsC1ERKS0_i
 2367      00
  69:testConv.cpp  **** 	CHECK_EQUAL(15, nibble);
 2368              		.loc 3 69 0 is_stmt 0 discriminator 1
 2369 17c9 E8000000 		call	_ZN8UnitTest11CurrentTest7ResultsEv
 2369      00
 2370 17ce 488B00   		movq	(%rax), %rax
 2371 17d1 488D4DD0 		leaq	-48(%rbp), %rcx
 2372 17d5 BA000000 		movl	$.LC3, %edx
 2372      00
 2373 17da 4889CE   		movq	%rcx, %rsi
 2374 17dd 4889C7   		movq	%rax, %rdi
 2375 17e0 E8000000 		call	_ZN8UnitTest11TestResults13OnTestFailureERKNS_11TestDetailsEPKc
 2375      00
 2376              	.LEHE163:
 2377              	.LEHB164:
 2378 17e5 E8000000 		call	__cxa_end_catch
 2378      00
 2379              	.LEHE164:
 2380 17ea E9CFF0FF 		jmp	.L103
 2380      FF
 2381              	.L209:
 2382 17ef 4889C3   		movq	%rax, %rbx
  70:testConv.cpp  **** 	status = getHexNibble('a', &nibble);
 2383              		.loc 3 70 0 is_stmt 1
 2384 17f2 E8000000 		call	__cxa_end_catch
 2384      00
 2385 17f7 4889D8   		movq	%rbx, %rax
 2386 17fa 4889C7   		movq	%rax, %rdi
 2387              	.LEHB165:
 2388 17fd E8000000 		call	_Unwind_Resume
 2388      00
 2389              	.LEHE165:
 2390              	.L208:
 2391 1802 4889C7   		movq	%rax, %rdi
 2392 1805 E8000000 		call	__cxa_begin_catch
 2392      00
 2393              	.LEHB166:
 2394 180a E8000000 		call	_ZN8UnitTest11CurrentTest7DetailsEv
 2394      00
 2395 180f 488B08   		movq	(%rax), %rcx
 2396 1812 488D45D0 		leaq	-48(%rbp), %rax
 2397 1816 BA460000 		movl	$70, %edx
 2397      00
 2398 181b 4889CE   		movq	%rcx, %rsi
 2399 181e 4889C7   		movq	%rax, %rdi
 2400 1821 E8000000 		call	_ZN8UnitTest11TestDetailsC1ERKS0_i
 2400      00
  70:testConv.cpp  **** 	status = getHexNibble('a', &nibble);
 2401              		.loc 3 70 0 is_stmt 0 discriminator 1
 2402 1826 E8000000 		call	_ZN8UnitTest11CurrentTest7ResultsEv
 2402      00
 2403 182b 488B00   		movq	(%rax), %rax
 2404 182e 488D4DD0 		leaq	-48(%rbp), %rcx
 2405 1832 BA000000 		movl	$.LC19, %edx
 2405      00
 2406 1837 4889CE   		movq	%rcx, %rsi
 2407 183a 4889C7   		movq	%rax, %rdi
 2408 183d E8000000 		call	_ZN8UnitTest11TestResults13OnTestFailureERKNS_11TestDetailsEPKc
 2408      00
 2409              	.LEHE166:
 2410              	.LEHB167:
 2411 1842 E8000000 		call	__cxa_end_catch
 2411      00
 2412              	.LEHE167:
 2413 1847 E9B1F0FF 		jmp	.L106
 2413      FF
 2414              	.L211:
 2415 184c 4889C3   		movq	%rax, %rbx
  72:testConv.cpp  **** 	CHECK_EQUAL(10, nibble);
 2416              		.loc 3 72 0 is_stmt 1
 2417 184f E8000000 		call	__cxa_end_catch
 2417      00
 2418 1854 4889D8   		movq	%rbx, %rax
 2419 1857 4889C7   		movq	%rax, %rdi
 2420              	.LEHB168:
 2421 185a E8000000 		call	_Unwind_Resume
 2421      00
 2422              	.LEHE168:
 2423              	.L210:
 2424 185f 4889C7   		movq	%rax, %rdi
 2425 1862 E8000000 		call	__cxa_begin_catch
 2425      00
 2426              	.LEHB169:
 2427 1867 E8000000 		call	_ZN8UnitTest11CurrentTest7DetailsEv
 2427      00
 2428 186c 488B08   		movq	(%rax), %rcx
 2429 186f 488D45D0 		leaq	-48(%rbp), %rax
 2430 1873 BA480000 		movl	$72, %edx
 2430      00
 2431 1878 4889CE   		movq	%rcx, %rsi
 2432 187b 4889C7   		movq	%rax, %rdi
 2433 187e E8000000 		call	_ZN8UnitTest11TestDetailsC1ERKS0_i
 2433      00
  72:testConv.cpp  **** 	CHECK_EQUAL(10, nibble);
 2434              		.loc 3 72 0 is_stmt 0 discriminator 1
 2435 1883 E8000000 		call	_ZN8UnitTest11CurrentTest7ResultsEv
 2435      00
 2436 1888 488B00   		movq	(%rax), %rax
 2437 188b 488D4DD0 		leaq	-48(%rbp), %rcx
 2438 188f BA000000 		movl	$.LC3, %edx
 2438      00
 2439 1894 4889CE   		movq	%rcx, %rsi
 2440 1897 4889C7   		movq	%rax, %rdi
 2441 189a E8000000 		call	_ZN8UnitTest11TestResults13OnTestFailureERKNS_11TestDetailsEPKc
 2441      00
 2442              	.LEHE169:
 2443              	.LEHB170:
 2444 189f E8000000 		call	__cxa_end_catch
 2444      00
 2445              	.LEHE170:
 2446 18a4 E9A4F0FF 		jmp	.L109
 2446      FF
 2447              	.L213:
 2448 18a9 4889C3   		movq	%rax, %rbx
  73:testConv.cpp  **** 	status = getHexNibble('b', &nibble);
 2449              		.loc 3 73 0 is_stmt 1
 2450 18ac E8000000 		call	__cxa_end_catch
 2450      00
 2451 18b1 4889D8   		movq	%rbx, %rax
 2452 18b4 4889C7   		movq	%rax, %rdi
 2453              	.LEHB171:
 2454 18b7 E8000000 		call	_Unwind_Resume
 2454      00
 2455              	.LEHE171:
 2456              	.L212:
 2457 18bc 4889C7   		movq	%rax, %rdi
 2458 18bf E8000000 		call	__cxa_begin_catch
 2458      00
 2459              	.LEHB172:
 2460 18c4 E8000000 		call	_ZN8UnitTest11CurrentTest7DetailsEv
 2460      00
 2461 18c9 488B08   		movq	(%rax), %rcx
 2462 18cc 488D45D0 		leaq	-48(%rbp), %rax
 2463 18d0 BA490000 		movl	$73, %edx
 2463      00
 2464 18d5 4889CE   		movq	%rcx, %rsi
 2465 18d8 4889C7   		movq	%rax, %rdi
 2466 18db E8000000 		call	_ZN8UnitTest11TestDetailsC1ERKS0_i
 2466      00
  73:testConv.cpp  **** 	status = getHexNibble('b', &nibble);
 2467              		.loc 3 73 0 is_stmt 0 discriminator 1
 2468 18e0 E8000000 		call	_ZN8UnitTest11CurrentTest7ResultsEv
 2468      00
 2469 18e5 488B00   		movq	(%rax), %rax
 2470 18e8 488D4DD0 		leaq	-48(%rbp), %rcx
 2471 18ec BA000000 		movl	$.LC14, %edx
 2471      00
 2472 18f1 4889CE   		movq	%rcx, %rsi
 2473 18f4 4889C7   		movq	%rax, %rdi
 2474 18f7 E8000000 		call	_ZN8UnitTest11TestResults13OnTestFailureERKNS_11TestDetailsEPKc
 2474      00
 2475              	.LEHE172:
 2476              	.LEHB173:
 2477 18fc E8000000 		call	__cxa_end_catch
 2477      00
 2478              	.LEHE173:
 2479 1901 E986F0FF 		jmp	.L112
 2479      FF
 2480              	.L215:
 2481 1906 4889C3   		movq	%rax, %rbx
  75:testConv.cpp  **** 	CHECK_EQUAL(11, nibble);
 2482              		.loc 3 75 0 is_stmt 1
 2483 1909 E8000000 		call	__cxa_end_catch
 2483      00
 2484 190e 4889D8   		movq	%rbx, %rax
 2485 1911 4889C7   		movq	%rax, %rdi
 2486              	.LEHB174:
 2487 1914 E8000000 		call	_Unwind_Resume
 2487      00
 2488              	.LEHE174:
 2489              	.L214:
 2490 1919 4889C7   		movq	%rax, %rdi
 2491 191c E8000000 		call	__cxa_begin_catch
 2491      00
 2492              	.LEHB175:
 2493 1921 E8000000 		call	_ZN8UnitTest11CurrentTest7DetailsEv
 2493      00
 2494 1926 488B08   		movq	(%rax), %rcx
 2495 1929 488D45D0 		leaq	-48(%rbp), %rax
 2496 192d BA4B0000 		movl	$75, %edx
 2496      00
 2497 1932 4889CE   		movq	%rcx, %rsi
 2498 1935 4889C7   		movq	%rax, %rdi
 2499 1938 E8000000 		call	_ZN8UnitTest11TestDetailsC1ERKS0_i
 2499      00
  75:testConv.cpp  **** 	CHECK_EQUAL(11, nibble);
 2500              		.loc 3 75 0 is_stmt 0 discriminator 1
 2501 193d E8000000 		call	_ZN8UnitTest11CurrentTest7ResultsEv
 2501      00
 2502 1942 488B00   		movq	(%rax), %rax
 2503 1945 488D4DD0 		leaq	-48(%rbp), %rcx
 2504 1949 BA000000 		movl	$.LC3, %edx
 2504      00
 2505 194e 4889CE   		movq	%rcx, %rsi
 2506 1951 4889C7   		movq	%rax, %rdi
 2507 1954 E8000000 		call	_ZN8UnitTest11TestResults13OnTestFailureERKNS_11TestDetailsEPKc
 2507      00
 2508              	.LEHE175:
 2509              	.LEHB176:
 2510 1959 E8000000 		call	__cxa_end_catch
 2510      00
 2511              	.LEHE176:
 2512 195e E979F0FF 		jmp	.L115
 2512      FF
 2513              	.L217:
 2514 1963 4889C3   		movq	%rax, %rbx
  76:testConv.cpp  **** 	status = getHexNibble('c', &nibble);
 2515              		.loc 3 76 0 is_stmt 1
 2516 1966 E8000000 		call	__cxa_end_catch
 2516      00
 2517 196b 4889D8   		movq	%rbx, %rax
 2518 196e 4889C7   		movq	%rax, %rdi
 2519              	.LEHB177:
 2520 1971 E8000000 		call	_Unwind_Resume
 2520      00
 2521              	.LEHE177:
 2522              	.L216:
 2523 1976 4889C7   		movq	%rax, %rdi
 2524 1979 E8000000 		call	__cxa_begin_catch
 2524      00
 2525              	.LEHB178:
 2526 197e E8000000 		call	_ZN8UnitTest11CurrentTest7DetailsEv
 2526      00
 2527 1983 488B08   		movq	(%rax), %rcx
 2528 1986 488D45D0 		leaq	-48(%rbp), %rax
 2529 198a BA4C0000 		movl	$76, %edx
 2529      00
 2530 198f 4889CE   		movq	%rcx, %rsi
 2531 1992 4889C7   		movq	%rax, %rdi
 2532 1995 E8000000 		call	_ZN8UnitTest11TestDetailsC1ERKS0_i
 2532      00
  76:testConv.cpp  **** 	status = getHexNibble('c', &nibble);
 2533              		.loc 3 76 0 is_stmt 0 discriminator 1
 2534 199a E8000000 		call	_ZN8UnitTest11CurrentTest7ResultsEv
 2534      00
 2535 199f 488B00   		movq	(%rax), %rax
 2536 19a2 488D4DD0 		leaq	-48(%rbp), %rcx
 2537 19a6 BA000000 		movl	$.LC15, %edx
 2537      00
 2538 19ab 4889CE   		movq	%rcx, %rsi
 2539 19ae 4889C7   		movq	%rax, %rdi
 2540 19b1 E8000000 		call	_ZN8UnitTest11TestResults13OnTestFailureERKNS_11TestDetailsEPKc
 2540      00
 2541              	.LEHE178:
 2542              	.LEHB179:
 2543 19b6 E8000000 		call	__cxa_end_catch
 2543      00
 2544              	.LEHE179:
 2545 19bb E95BF0FF 		jmp	.L118
 2545      FF
 2546              	.L219:
 2547 19c0 4889C3   		movq	%rax, %rbx
  78:testConv.cpp  **** 	CHECK_EQUAL(12, nibble);
 2548              		.loc 3 78 0 is_stmt 1
 2549 19c3 E8000000 		call	__cxa_end_catch
 2549      00
 2550 19c8 4889D8   		movq	%rbx, %rax
 2551 19cb 4889C7   		movq	%rax, %rdi
 2552              	.LEHB180:
 2553 19ce E8000000 		call	_Unwind_Resume
 2553      00
 2554              	.LEHE180:
 2555              	.L218:
 2556 19d3 4889C7   		movq	%rax, %rdi
 2557 19d6 E8000000 		call	__cxa_begin_catch
 2557      00
 2558              	.LEHB181:
 2559 19db E8000000 		call	_ZN8UnitTest11CurrentTest7DetailsEv
 2559      00
 2560 19e0 488B08   		movq	(%rax), %rcx
 2561 19e3 488D45D0 		leaq	-48(%rbp), %rax
 2562 19e7 BA4E0000 		movl	$78, %edx
 2562      00
 2563 19ec 4889CE   		movq	%rcx, %rsi
 2564 19ef 4889C7   		movq	%rax, %rdi
 2565 19f2 E8000000 		call	_ZN8UnitTest11TestDetailsC1ERKS0_i
 2565      00
  78:testConv.cpp  **** 	CHECK_EQUAL(12, nibble);
 2566              		.loc 3 78 0 is_stmt 0 discriminator 1
 2567 19f7 E8000000 		call	_ZN8UnitTest11CurrentTest7ResultsEv
 2567      00
 2568 19fc 488B00   		movq	(%rax), %rax
 2569 19ff 488D4DD0 		leaq	-48(%rbp), %rcx
 2570 1a03 BA000000 		movl	$.LC3, %edx
 2570      00
 2571 1a08 4889CE   		movq	%rcx, %rsi
 2572 1a0b 4889C7   		movq	%rax, %rdi
 2573 1a0e E8000000 		call	_ZN8UnitTest11TestResults13OnTestFailureERKNS_11TestDetailsEPKc
 2573      00
 2574              	.LEHE181:
 2575              	.LEHB182:
 2576 1a13 E8000000 		call	__cxa_end_catch
 2576      00
 2577              	.LEHE182:
 2578 1a18 E94EF0FF 		jmp	.L121
 2578      FF
 2579              	.L221:
 2580 1a1d 4889C3   		movq	%rax, %rbx
  79:testConv.cpp  **** 	status = getHexNibble('d', &nibble);
 2581              		.loc 3 79 0 is_stmt 1
 2582 1a20 E8000000 		call	__cxa_end_catch
 2582      00
 2583 1a25 4889D8   		movq	%rbx, %rax
 2584 1a28 4889C7   		movq	%rax, %rdi
 2585              	.LEHB183:
 2586 1a2b E8000000 		call	_Unwind_Resume
 2586      00
 2587              	.LEHE183:
 2588              	.L220:
 2589 1a30 4889C7   		movq	%rax, %rdi
 2590 1a33 E8000000 		call	__cxa_begin_catch
 2590      00
 2591              	.LEHB184:
 2592 1a38 E8000000 		call	_ZN8UnitTest11CurrentTest7DetailsEv
 2592      00
 2593 1a3d 488B08   		movq	(%rax), %rcx
 2594 1a40 488D45D0 		leaq	-48(%rbp), %rax
 2595 1a44 BA4F0000 		movl	$79, %edx
 2595      00
 2596 1a49 4889CE   		movq	%rcx, %rsi
 2597 1a4c 4889C7   		movq	%rax, %rdi
 2598 1a4f E8000000 		call	_ZN8UnitTest11TestDetailsC1ERKS0_i
 2598      00
  79:testConv.cpp  **** 	status = getHexNibble('d', &nibble);
 2599              		.loc 3 79 0 is_stmt 0 discriminator 1
 2600 1a54 E8000000 		call	_ZN8UnitTest11CurrentTest7ResultsEv
 2600      00
 2601 1a59 488B00   		movq	(%rax), %rax
 2602 1a5c 488D4DD0 		leaq	-48(%rbp), %rcx
 2603 1a60 BA000000 		movl	$.LC16, %edx
 2603      00
 2604 1a65 4889CE   		movq	%rcx, %rsi
 2605 1a68 4889C7   		movq	%rax, %rdi
 2606 1a6b E8000000 		call	_ZN8UnitTest11TestResults13OnTestFailureERKNS_11TestDetailsEPKc
 2606      00
 2607              	.LEHE184:
 2608              	.LEHB185:
 2609 1a70 E8000000 		call	__cxa_end_catch
 2609      00
 2610              	.LEHE185:
 2611 1a75 E930F0FF 		jmp	.L124
 2611      FF
 2612              	.L223:
 2613 1a7a 4889C3   		movq	%rax, %rbx
  81:testConv.cpp  **** 	CHECK_EQUAL(13, nibble);
 2614              		.loc 3 81 0 is_stmt 1
 2615 1a7d E8000000 		call	__cxa_end_catch
 2615      00
 2616 1a82 4889D8   		movq	%rbx, %rax
 2617 1a85 4889C7   		movq	%rax, %rdi
 2618              	.LEHB186:
 2619 1a88 E8000000 		call	_Unwind_Resume
 2619      00
 2620              	.LEHE186:
 2621              	.L222:
 2622 1a8d 4889C7   		movq	%rax, %rdi
 2623 1a90 E8000000 		call	__cxa_begin_catch
 2623      00
 2624              	.LEHB187:
 2625 1a95 E8000000 		call	_ZN8UnitTest11CurrentTest7DetailsEv
 2625      00
 2626 1a9a 488B08   		movq	(%rax), %rcx
 2627 1a9d 488D45D0 		leaq	-48(%rbp), %rax
 2628 1aa1 BA510000 		movl	$81, %edx
 2628      00
 2629 1aa6 4889CE   		movq	%rcx, %rsi
 2630 1aa9 4889C7   		movq	%rax, %rdi
 2631 1aac E8000000 		call	_ZN8UnitTest11TestDetailsC1ERKS0_i
 2631      00
  81:testConv.cpp  **** 	CHECK_EQUAL(13, nibble);
 2632              		.loc 3 81 0 is_stmt 0 discriminator 1
 2633 1ab1 E8000000 		call	_ZN8UnitTest11CurrentTest7ResultsEv
 2633      00
 2634 1ab6 488B00   		movq	(%rax), %rax
 2635 1ab9 488D4DD0 		leaq	-48(%rbp), %rcx
 2636 1abd BA000000 		movl	$.LC3, %edx
 2636      00
 2637 1ac2 4889CE   		movq	%rcx, %rsi
 2638 1ac5 4889C7   		movq	%rax, %rdi
 2639 1ac8 E8000000 		call	_ZN8UnitTest11TestResults13OnTestFailureERKNS_11TestDetailsEPKc
 2639      00
 2640              	.LEHE187:
 2641              	.LEHB188:
 2642 1acd E8000000 		call	__cxa_end_catch
 2642      00
 2643              	.LEHE188:
 2644 1ad2 E923F0FF 		jmp	.L127
 2644      FF
 2645              	.L225:
 2646 1ad7 4889C3   		movq	%rax, %rbx
  82:testConv.cpp  **** 	status = getHexNibble('e', &nibble);
 2647              		.loc 3 82 0 is_stmt 1
 2648 1ada E8000000 		call	__cxa_end_catch
 2648      00
 2649 1adf 4889D8   		movq	%rbx, %rax
 2650 1ae2 4889C7   		movq	%rax, %rdi
 2651              	.LEHB189:
 2652 1ae5 E8000000 		call	_Unwind_Resume
 2652      00
 2653              	.LEHE189:
 2654              	.L224:
 2655 1aea 4889C7   		movq	%rax, %rdi
 2656 1aed E8000000 		call	__cxa_begin_catch
 2656      00
 2657              	.LEHB190:
 2658 1af2 E8000000 		call	_ZN8UnitTest11CurrentTest7DetailsEv
 2658      00
 2659 1af7 488B08   		movq	(%rax), %rcx
 2660 1afa 488D45D0 		leaq	-48(%rbp), %rax
 2661 1afe BA520000 		movl	$82, %edx
 2661      00
 2662 1b03 4889CE   		movq	%rcx, %rsi
 2663 1b06 4889C7   		movq	%rax, %rdi
 2664 1b09 E8000000 		call	_ZN8UnitTest11TestDetailsC1ERKS0_i
 2664      00
  82:testConv.cpp  **** 	status = getHexNibble('e', &nibble);
 2665              		.loc 3 82 0 is_stmt 0 discriminator 1
 2666 1b0e E8000000 		call	_ZN8UnitTest11CurrentTest7ResultsEv
 2666      00
 2667 1b13 488B00   		movq	(%rax), %rax
 2668 1b16 488D4DD0 		leaq	-48(%rbp), %rcx
 2669 1b1a BA000000 		movl	$.LC17, %edx
 2669      00
 2670 1b1f 4889CE   		movq	%rcx, %rsi
 2671 1b22 4889C7   		movq	%rax, %rdi
 2672 1b25 E8000000 		call	_ZN8UnitTest11TestResults13OnTestFailureERKNS_11TestDetailsEPKc
 2672      00
 2673              	.LEHE190:
 2674              	.LEHB191:
 2675 1b2a E8000000 		call	__cxa_end_catch
 2675      00
 2676              	.LEHE191:
 2677 1b2f E905F0FF 		jmp	.L130
 2677      FF
 2678              	.L227:
 2679 1b34 4889C3   		movq	%rax, %rbx
  84:testConv.cpp  **** 	CHECK_EQUAL(14, nibble);
 2680              		.loc 3 84 0 is_stmt 1
 2681 1b37 E8000000 		call	__cxa_end_catch
 2681      00
 2682 1b3c 4889D8   		movq	%rbx, %rax
 2683 1b3f 4889C7   		movq	%rax, %rdi
 2684              	.LEHB192:
 2685 1b42 E8000000 		call	_Unwind_Resume
 2685      00
 2686              	.LEHE192:
 2687              	.L226:
 2688 1b47 4889C7   		movq	%rax, %rdi
 2689 1b4a E8000000 		call	__cxa_begin_catch
 2689      00
 2690              	.LEHB193:
 2691 1b4f E8000000 		call	_ZN8UnitTest11CurrentTest7DetailsEv
 2691      00
 2692 1b54 488B08   		movq	(%rax), %rcx
 2693 1b57 488D45D0 		leaq	-48(%rbp), %rax
 2694 1b5b BA540000 		movl	$84, %edx
 2694      00
 2695 1b60 4889CE   		movq	%rcx, %rsi
 2696 1b63 4889C7   		movq	%rax, %rdi
 2697 1b66 E8000000 		call	_ZN8UnitTest11TestDetailsC1ERKS0_i
 2697      00
  84:testConv.cpp  **** 	CHECK_EQUAL(14, nibble);
 2698              		.loc 3 84 0 is_stmt 0 discriminator 1
 2699 1b6b E8000000 		call	_ZN8UnitTest11CurrentTest7ResultsEv
 2699      00
 2700 1b70 488B00   		movq	(%rax), %rax
 2701 1b73 488D4DD0 		leaq	-48(%rbp), %rcx
 2702 1b77 BA000000 		movl	$.LC3, %edx
 2702      00
 2703 1b7c 4889CE   		movq	%rcx, %rsi
 2704 1b7f 4889C7   		movq	%rax, %rdi
 2705 1b82 E8000000 		call	_ZN8UnitTest11TestResults13OnTestFailureERKNS_11TestDetailsEPKc
 2705      00
 2706              	.LEHE193:
 2707              	.LEHB194:
 2708 1b87 E8000000 		call	__cxa_end_catch
 2708      00
 2709              	.LEHE194:
 2710 1b8c E9F8EFFF 		jmp	.L133
 2710      FF
 2711              	.L229:
 2712 1b91 4889C3   		movq	%rax, %rbx
  85:testConv.cpp  **** 	status = getHexNibble('f', &nibble);
 2713              		.loc 3 85 0 is_stmt 1
 2714 1b94 E8000000 		call	__cxa_end_catch
 2714      00
 2715 1b99 4889D8   		movq	%rbx, %rax
 2716 1b9c 4889C7   		movq	%rax, %rdi
 2717              	.LEHB195:
 2718 1b9f E8000000 		call	_Unwind_Resume
 2718      00
 2719              	.LEHE195:
 2720              	.L228:
 2721 1ba4 4889C7   		movq	%rax, %rdi
 2722 1ba7 E8000000 		call	__cxa_begin_catch
 2722      00
 2723              	.LEHB196:
 2724 1bac E8000000 		call	_ZN8UnitTest11CurrentTest7DetailsEv
 2724      00
 2725 1bb1 488B08   		movq	(%rax), %rcx
 2726 1bb4 488D45D0 		leaq	-48(%rbp), %rax
 2727 1bb8 BA550000 		movl	$85, %edx
 2727      00
 2728 1bbd 4889CE   		movq	%rcx, %rsi
 2729 1bc0 4889C7   		movq	%rax, %rdi
 2730 1bc3 E8000000 		call	_ZN8UnitTest11TestDetailsC1ERKS0_i
 2730      00
  85:testConv.cpp  **** 	status = getHexNibble('f', &nibble);
 2731              		.loc 3 85 0 is_stmt 0 discriminator 1
 2732 1bc8 E8000000 		call	_ZN8UnitTest11CurrentTest7ResultsEv
 2732      00
 2733 1bcd 488B00   		movq	(%rax), %rax
 2734 1bd0 488D4DD0 		leaq	-48(%rbp), %rcx
 2735 1bd4 BA000000 		movl	$.LC18, %edx
 2735      00
 2736 1bd9 4889CE   		movq	%rcx, %rsi
 2737 1bdc 4889C7   		movq	%rax, %rdi
 2738 1bdf E8000000 		call	_ZN8UnitTest11TestResults13OnTestFailureERKNS_11TestDetailsEPKc
 2738      00
 2739              	.LEHE196:
 2740              	.LEHB197:
 2741 1be4 E8000000 		call	__cxa_end_catch
 2741      00
 2742              	.LEHE197:
 2743 1be9 E9DAEFFF 		jmp	.L136
 2743      FF
 2744              	.L231:
 2745 1bee 4889C3   		movq	%rax, %rbx
  87:testConv.cpp  **** 	CHECK_EQUAL(15, nibble);
 2746              		.loc 3 87 0 is_stmt 1
 2747 1bf1 E8000000 		call	__cxa_end_catch
 2747      00
 2748 1bf6 4889D8   		movq	%rbx, %rax
 2749 1bf9 4889C7   		movq	%rax, %rdi
 2750              	.LEHB198:
 2751 1bfc E8000000 		call	_Unwind_Resume
 2751      00
 2752              	.LEHE198:
 2753              	.L230:
 2754 1c01 4889C7   		movq	%rax, %rdi
 2755 1c04 E8000000 		call	__cxa_begin_catch
 2755      00
 2756              	.LEHB199:
 2757 1c09 E8000000 		call	_ZN8UnitTest11CurrentTest7DetailsEv
 2757      00
 2758 1c0e 488B08   		movq	(%rax), %rcx
 2759 1c11 488D45D0 		leaq	-48(%rbp), %rax
 2760 1c15 BA570000 		movl	$87, %edx
 2760      00
 2761 1c1a 4889CE   		movq	%rcx, %rsi
 2762 1c1d 4889C7   		movq	%rax, %rdi
 2763 1c20 E8000000 		call	_ZN8UnitTest11TestDetailsC1ERKS0_i
 2763      00
  87:testConv.cpp  **** 	CHECK_EQUAL(15, nibble);
 2764              		.loc 3 87 0 is_stmt 0 discriminator 1
 2765 1c25 E8000000 		call	_ZN8UnitTest11CurrentTest7ResultsEv
 2765      00
 2766 1c2a 488B00   		movq	(%rax), %rax
 2767 1c2d 488D4DD0 		leaq	-48(%rbp), %rcx
 2768 1c31 BA000000 		movl	$.LC3, %edx
 2768      00
 2769 1c36 4889CE   		movq	%rcx, %rsi
 2770 1c39 4889C7   		movq	%rax, %rdi
 2771 1c3c E8000000 		call	_ZN8UnitTest11TestResults13OnTestFailureERKNS_11TestDetailsEPKc
 2771      00
 2772              	.LEHE199:
 2773              	.LEHB200:
 2774 1c41 E8000000 		call	__cxa_end_catch
 2774      00
 2775              	.LEHE200:
 2776 1c46 E9CDEFFF 		jmp	.L139
 2776      FF
 2777              	.L233:
 2778 1c4b 4889C3   		movq	%rax, %rbx
  88:testConv.cpp  **** 	status = getHexNibble('.', &nibble);
 2779              		.loc 3 88 0 is_stmt 1
 2780 1c4e E8000000 		call	__cxa_end_catch
 2780      00
 2781 1c53 4889D8   		movq	%rbx, %rax
 2782 1c56 4889C7   		movq	%rax, %rdi
 2783              	.LEHB201:
 2784 1c59 E8000000 		call	_Unwind_Resume
 2784      00
 2785              	.LEHE201:
 2786              	.L232:
 2787 1c5e 4889C7   		movq	%rax, %rdi
 2788 1c61 E8000000 		call	__cxa_begin_catch
 2788      00
 2789              	.LEHB202:
 2790 1c66 E8000000 		call	_ZN8UnitTest11CurrentTest7DetailsEv
 2790      00
 2791 1c6b 488B08   		movq	(%rax), %rcx
 2792 1c6e 488D45D0 		leaq	-48(%rbp), %rax
 2793 1c72 BA580000 		movl	$88, %edx
 2793      00
 2794 1c77 4889CE   		movq	%rcx, %rsi
 2795 1c7a 4889C7   		movq	%rax, %rdi
 2796 1c7d E8000000 		call	_ZN8UnitTest11TestDetailsC1ERKS0_i
 2796      00
  88:testConv.cpp  **** 	status = getHexNibble('.', &nibble);
 2797              		.loc 3 88 0 is_stmt 0 discriminator 1
 2798 1c82 E8000000 		call	_ZN8UnitTest11CurrentTest7ResultsEv
 2798      00
 2799 1c87 488B00   		movq	(%rax), %rax
 2800 1c8a 488D4DD0 		leaq	-48(%rbp), %rcx
 2801 1c8e BA000000 		movl	$.LC19, %edx
 2801      00
 2802 1c93 4889CE   		movq	%rcx, %rsi
 2803 1c96 4889C7   		movq	%rax, %rdi
 2804 1c99 E8000000 		call	_ZN8UnitTest11TestResults13OnTestFailureERKNS_11TestDetailsEPKc
 2804      00
 2805              	.LEHE202:
 2806              	.LEHB203:
 2807 1c9e E8000000 		call	__cxa_end_catch
 2807      00
 2808              	.LEHE203:
 2809 1ca3 E9AFEFFF 		jmp	.L142
 2809      FF
 2810              	.L235:
 2811 1ca8 4889C3   		movq	%rax, %rbx
  90:testConv.cpp  **** }
 2812              		.loc 3 90 0 is_stmt 1
 2813 1cab E8000000 		call	__cxa_end_catch
 2813      00
 2814 1cb0 4889D8   		movq	%rbx, %rax
 2815 1cb3 4889C7   		movq	%rax, %rdi
 2816              	.LEHB204:
 2817 1cb6 E8000000 		call	_Unwind_Resume
 2817      00
 2818              	.LEHE204:
 2819              	.L234:
 2820 1cbb 4889C7   		movq	%rax, %rdi
 2821 1cbe E8000000 		call	__cxa_begin_catch
 2821      00
 2822              	.LEHB205:
 2823 1cc3 E8000000 		call	_ZN8UnitTest11CurrentTest7DetailsEv
 2823      00
 2824 1cc8 488B08   		movq	(%rax), %rcx
 2825 1ccb 488D45D0 		leaq	-48(%rbp), %rax
 2826 1ccf BA5A0000 		movl	$90, %edx
 2826      00
 2827 1cd4 4889CE   		movq	%rcx, %rsi
 2828 1cd7 4889C7   		movq	%rax, %rdi
 2829 1cda E8000000 		call	_ZN8UnitTest11TestDetailsC1ERKS0_i
 2829      00
  90:testConv.cpp  **** }
 2830              		.loc 3 90 0 is_stmt 0 discriminator 1
 2831 1cdf E8000000 		call	_ZN8UnitTest11CurrentTest7ResultsEv
 2831      00
 2832 1ce4 488B00   		movq	(%rax), %rax
 2833 1ce7 488D4DD0 		leaq	-48(%rbp), %rcx
 2834 1ceb BA000000 		movl	$.LC20, %edx
 2834      00
 2835 1cf0 4889CE   		movq	%rcx, %rsi
 2836 1cf3 4889C7   		movq	%rax, %rdi
 2837 1cf6 E8000000 		call	_ZN8UnitTest11TestResults13OnTestFailureERKNS_11TestDetailsEPKc
 2837      00
 2838              	.LEHE205:
 2839              	.LEHB206:
 2840 1cfb E8000000 		call	__cxa_end_catch
 2840      00
 2841              	.LEHE206:
 2842              	.L236:
 2843              	.LBE6:
 2844              		.loc 3 91 0 is_stmt 1
 2845 1d00 90       		nop
 2846 1d01 4883C448 		addq	$72, %rsp
 2847 1d05 5B       		popq	%rbx
 2848 1d06 5D       		popq	%rbp
 2849              		.cfi_def_cfa 7, 8
 2850 1d07 C3       		ret
 2851              		.cfi_endproc
 2852              	.LFE1026:
 2853              		.section	.gcc_except_table,"a",@progbits
 2854              		.align 4
 2855              	.LLSDA1026:
 2856 0000 FF       		.byte	0xff
 2857 0001 03       		.byte	0x3
 2858 0002 D808     		.uleb128 .LLSDATT1026-.LLSDATTD1026
 2859              	.LLSDATTD1026:
 2860 0004 01       		.byte	0x1
 2861 0005 CE08     		.uleb128 .LLSDACSE1026-.LLSDACSB1026
 2862              	.LLSDACSB1026:
 2863 0007 19       		.uleb128 .LEHB4-.LFB1026
 2864 0008 05       		.uleb128 .LEHE4-.LEHB4
 2865 0009 00       		.uleb128 0
 2866 000a 00       		.uleb128 0
 2867 000b 21       		.uleb128 .LEHB5-.LFB1026
 2868 000c 3C       		.uleb128 .LEHE5-.LEHB5
 2869 000d BF19     		.uleb128 .L146-.LFB1026
 2870 000f 01       		.uleb128 0x1
 2871 0010 5D       		.uleb128 .LEHB6-.LFB1026
 2872 0011 3F       		.uleb128 .LEHE6-.LEHB6
 2873 0012 9C1A     		.uleb128 .L148-.LFB1026
 2874 0014 01       		.uleb128 0x1
 2875 0015 A801     		.uleb128 .LEHB7-.LFB1026
 2876 0017 05       		.uleb128 .LEHE7-.LEHB7
 2877 0018 00       		.uleb128 0
 2878 0019 00       		.uleb128 0
 2879 001a B001     		.uleb128 .LEHB8-.LFB1026
 2880 001c 3C       		.uleb128 .LEHE8-.LEHB8
 2881 001d F91A     		.uleb128 .L150-.LFB1026
 2882 001f 01       		.uleb128 0x1
 2883 0020 EC01     		.uleb128 .LEHB9-.LFB1026
 2884 0022 3F       		.uleb128 .LEHE9-.LEHB9
 2885 0023 D61B     		.uleb128 .L152-.LFB1026
 2886 0025 01       		.uleb128 0x1
 2887 0026 B702     		.uleb128 .LEHB10-.LFB1026
 2888 0028 05       		.uleb128 .LEHE10-.LEHB10
 2889 0029 00       		.uleb128 0
 2890 002a 00       		.uleb128 0
 2891 002b BF02     		.uleb128 .LEHB11-.LFB1026
 2892 002d 3C       		.uleb128 .LEHE11-.LEHB11
 2893 002e B31C     		.uleb128 .L154-.LFB1026
 2894 0030 01       		.uleb128 0x1
 2895 0031 FB02     		.uleb128 .LEHB12-.LFB1026
 2896 0033 3F       		.uleb128 .LEHE12-.LEHB12
 2897 0034 901D     		.uleb128 .L156-.LFB1026
 2898 0036 01       		.uleb128 0x1
 2899 0037 C603     		.uleb128 .LEHB13-.LFB1026
 2900 0039 05       		.uleb128 .LEHE13-.LEHB13
 2901 003a 00       		.uleb128 0
 2902 003b 00       		.uleb128 0
 2903 003c CE03     		.uleb128 .LEHB14-.LFB1026
 2904 003e 3C       		.uleb128 .LEHE14-.LEHB14
 2905 003f ED1D     		.uleb128 .L158-.LFB1026
 2906 0041 01       		.uleb128 0x1
 2907 0042 8A04     		.uleb128 .LEHB15-.LFB1026
 2908 0044 3F       		.uleb128 .LEHE15-.LEHB15
 2909 0045 CA1E     		.uleb128 .L160-.LFB1026
 2910 0047 01       		.uleb128 0x1
 2911 0048 D504     		.uleb128 .LEHB16-.LFB1026
 2912 004a 05       		.uleb128 .LEHE16-.LEHB16
 2913 004b 00       		.uleb128 0
 2914 004c 00       		.uleb128 0
 2915 004d DD04     		.uleb128 .LEHB17-.LFB1026
 2916 004f 3C       		.uleb128 .LEHE17-.LEHB17
 2917 0050 A71F     		.uleb128 .L162-.LFB1026
 2918 0052 01       		.uleb128 0x1
 2919 0053 9905     		.uleb128 .LEHB18-.LFB1026
 2920 0055 3F       		.uleb128 .LEHE18-.LEHB18
 2921 0056 8420     		.uleb128 .L164-.LFB1026
 2922 0058 01       		.uleb128 0x1
 2923 0059 E405     		.uleb128 .LEHB19-.LFB1026
 2924 005b 05       		.uleb128 .LEHE19-.LEHB19
 2925 005c 00       		.uleb128 0
 2926 005d 00       		.uleb128 0
 2927 005e EC05     		.uleb128 .LEHB20-.LFB1026
 2928 0060 3C       		.uleb128 .LEHE20-.LEHB20
 2929 0061 E120     		.uleb128 .L166-.LFB1026
 2930 0063 01       		.uleb128 0x1
 2931 0064 A806     		.uleb128 .LEHB21-.LFB1026
 2932 0066 3F       		.uleb128 .LEHE21-.LEHB21
 2933 0067 BE21     		.uleb128 .L168-.LFB1026
 2934 0069 01       		.uleb128 0x1
 2935 006a F306     		.uleb128 .LEHB22-.LFB1026
 2936 006c 05       		.uleb128 .LEHE22-.LEHB22
 2937 006d 00       		.uleb128 0
 2938 006e 00       		.uleb128 0
 2939 006f FB06     		.uleb128 .LEHB23-.LFB1026
 2940 0071 3C       		.uleb128 .LEHE23-.LEHB23
 2941 0072 9B22     		.uleb128 .L170-.LFB1026
 2942 0074 01       		.uleb128 0x1
 2943 0075 B707     		.uleb128 .LEHB24-.LFB1026
 2944 0077 3F       		.uleb128 .LEHE24-.LEHB24
 2945 0078 F822     		.uleb128 .L172-.LFB1026
 2946 007a 01       		.uleb128 0x1
 2947 007b 8208     		.uleb128 .LEHB25-.LFB1026
 2948 007d 05       		.uleb128 .LEHE25-.LEHB25
 2949 007e 00       		.uleb128 0
 2950 007f 00       		.uleb128 0
 2951 0080 8A08     		.uleb128 .LEHB26-.LFB1026
 2952 0082 3C       		.uleb128 .LEHE26-.LEHB26
 2953 0083 D523     		.uleb128 .L174-.LFB1026
 2954 0085 01       		.uleb128 0x1
 2955 0086 C608     		.uleb128 .LEHB27-.LFB1026
 2956 0088 3F       		.uleb128 .LEHE27-.LEHB27
 2957 0089 B224     		.uleb128 .L176-.LFB1026
 2958 008b 01       		.uleb128 0x1
 2959 008c 9109     		.uleb128 .LEHB28-.LFB1026
 2960 008e 05       		.uleb128 .LEHE28-.LEHB28
 2961 008f 00       		.uleb128 0
 2962 0090 00       		.uleb128 0
 2963 0091 9909     		.uleb128 .LEHB29-.LFB1026
 2964 0093 3C       		.uleb128 .LEHE29-.LEHB29
 2965 0094 8F25     		.uleb128 .L178-.LFB1026
 2966 0096 01       		.uleb128 0x1
 2967 0097 D509     		.uleb128 .LEHB30-.LFB1026
 2968 0099 3F       		.uleb128 .LEHE30-.LEHB30
 2969 009a EC25     		.uleb128 .L180-.LFB1026
 2970 009c 01       		.uleb128 0x1
 2971 009d A00A     		.uleb128 .LEHB31-.LFB1026
 2972 009f 05       		.uleb128 .LEHE31-.LEHB31
 2973 00a0 00       		.uleb128 0
 2974 00a1 00       		.uleb128 0
 2975 00a2 A80A     		.uleb128 .LEHB32-.LFB1026
 2976 00a4 3C       		.uleb128 .LEHE32-.LEHB32
 2977 00a5 C926     		.uleb128 .L182-.LFB1026
 2978 00a7 01       		.uleb128 0x1
 2979 00a8 E40A     		.uleb128 .LEHB33-.LFB1026
 2980 00aa 3F       		.uleb128 .LEHE33-.LEHB33
 2981 00ab A627     		.uleb128 .L184-.LFB1026
 2982 00ad 01       		.uleb128 0x1
 2983 00ae AF0B     		.uleb128 .LEHB34-.LFB1026
 2984 00b0 05       		.uleb128 .LEHE34-.LEHB34
 2985 00b1 00       		.uleb128 0
 2986 00b2 00       		.uleb128 0
 2987 00b3 B70B     		.uleb128 .LEHB35-.LFB1026
 2988 00b5 3C       		.uleb128 .LEHE35-.LEHB35
 2989 00b6 8328     		.uleb128 .L186-.LFB1026
 2990 00b8 01       		.uleb128 0x1
 2991 00b9 F30B     		.uleb128 .LEHB36-.LFB1026
 2992 00bb 3F       		.uleb128 .LEHE36-.LEHB36
 2993 00bc E028     		.uleb128 .L188-.LFB1026
 2994 00be 01       		.uleb128 0x1
 2995 00bf BE0C     		.uleb128 .LEHB37-.LFB1026
 2996 00c1 05       		.uleb128 .LEHE37-.LEHB37
 2997 00c2 00       		.uleb128 0
 2998 00c3 00       		.uleb128 0
 2999 00c4 C60C     		.uleb128 .LEHB38-.LFB1026
 3000 00c6 3C       		.uleb128 .LEHE38-.LEHB38
 3001 00c7 BD29     		.uleb128 .L190-.LFB1026
 3002 00c9 01       		.uleb128 0x1
 3003 00ca 820D     		.uleb128 .LEHB39-.LFB1026
 3004 00cc 3F       		.uleb128 .LEHE39-.LEHB39
 3005 00cd 9A2A     		.uleb128 .L192-.LFB1026
 3006 00cf 01       		.uleb128 0x1
 3007 00d0 CD0D     		.uleb128 .LEHB40-.LFB1026
 3008 00d2 05       		.uleb128 .LEHE40-.LEHB40
 3009 00d3 00       		.uleb128 0
 3010 00d4 00       		.uleb128 0
 3011 00d5 D50D     		.uleb128 .LEHB41-.LFB1026
 3012 00d7 3C       		.uleb128 .LEHE41-.LEHB41
 3013 00d8 F72A     		.uleb128 .L194-.LFB1026
 3014 00da 01       		.uleb128 0x1
 3015 00db 910E     		.uleb128 .LEHB42-.LFB1026
 3016 00dd 3F       		.uleb128 .LEHE42-.LEHB42
 3017 00de D42B     		.uleb128 .L196-.LFB1026
 3018 00e0 01       		.uleb128 0x1
 3019 00e1 DC0E     		.uleb128 .LEHB43-.LFB1026
 3020 00e3 05       		.uleb128 .LEHE43-.LEHB43
 3021 00e4 00       		.uleb128 0
 3022 00e5 00       		.uleb128 0
 3023 00e6 E40E     		.uleb128 .LEHB44-.LFB1026
 3024 00e8 3C       		.uleb128 .LEHE44-.LEHB44
 3025 00e9 B12C     		.uleb128 .L198-.LFB1026
 3026 00eb 01       		.uleb128 0x1
 3027 00ec A00F     		.uleb128 .LEHB45-.LFB1026
 3028 00ee 3F       		.uleb128 .LEHE45-.LEHB45
 3029 00ef 8E2D     		.uleb128 .L200-.LFB1026
 3030 00f1 01       		.uleb128 0x1
 3031 00f2 EB0F     		.uleb128 .LEHB46-.LFB1026
 3032 00f4 05       		.uleb128 .LEHE46-.LEHB46
 3033 00f5 00       		.uleb128 0
 3034 00f6 00       		.uleb128 0
 3035 00f7 F30F     		.uleb128 .LEHB47-.LFB1026
 3036 00f9 3C       		.uleb128 .LEHE47-.LEHB47
 3037 00fa EB2D     		.uleb128 .L202-.LFB1026
 3038 00fc 01       		.uleb128 0x1
 3039 00fd AF10     		.uleb128 .LEHB48-.LFB1026
 3040 00ff 3F       		.uleb128 .LEHE48-.LEHB48
 3041 0100 C82E     		.uleb128 .L204-.LFB1026
 3042 0102 01       		.uleb128 0x1
 3043 0103 FA10     		.uleb128 .LEHB49-.LFB1026
 3044 0105 05       		.uleb128 .LEHE49-.LEHB49
 3045 0106 00       		.uleb128 0
 3046 0107 00       		.uleb128 0
 3047 0108 8211     		.uleb128 .LEHB50-.LFB1026
 3048 010a 3C       		.uleb128 .LEHE50-.LEHB50
 3049 010b A52F     		.uleb128 .L206-.LFB1026
 3050 010d 01       		.uleb128 0x1
 3051 010e BE11     		.uleb128 .LEHB51-.LFB1026
 3052 0110 3F       		.uleb128 .LEHE51-.LEHB51
 3053 0111 8230     		.uleb128 .L208-.LFB1026
 3054 0113 01       		.uleb128 0x1
 3055 0114 8912     		.uleb128 .LEHB52-.LFB1026
 3056 0116 05       		.uleb128 .LEHE52-.LEHB52
 3057 0117 00       		.uleb128 0
 3058 0118 00       		.uleb128 0
 3059 0119 9112     		.uleb128 .LEHB53-.LFB1026
 3060 011b 3C       		.uleb128 .LEHE53-.LEHB53
 3061 011c DF30     		.uleb128 .L210-.LFB1026
 3062 011e 01       		.uleb128 0x1
 3063 011f CD12     		.uleb128 .LEHB54-.LFB1026
 3064 0121 3F       		.uleb128 .LEHE54-.LEHB54
 3065 0122 BC31     		.uleb128 .L212-.LFB1026
 3066 0124 01       		.uleb128 0x1
 3067 0125 9813     		.uleb128 .LEHB55-.LFB1026
 3068 0127 05       		.uleb128 .LEHE55-.LEHB55
 3069 0128 00       		.uleb128 0
 3070 0129 00       		.uleb128 0
 3071 012a A013     		.uleb128 .LEHB56-.LFB1026
 3072 012c 3C       		.uleb128 .LEHE56-.LEHB56
 3073 012d 9932     		.uleb128 .L214-.LFB1026
 3074 012f 01       		.uleb128 0x1
 3075 0130 DC13     		.uleb128 .LEHB57-.LFB1026
 3076 0132 3F       		.uleb128 .LEHE57-.LEHB57
 3077 0133 F632     		.uleb128 .L216-.LFB1026
 3078 0135 01       		.uleb128 0x1
 3079 0136 A714     		.uleb128 .LEHB58-.LFB1026
 3080 0138 05       		.uleb128 .LEHE58-.LEHB58
 3081 0139 00       		.uleb128 0
 3082 013a 00       		.uleb128 0
 3083 013b AF14     		.uleb128 .LEHB59-.LFB1026
 3084 013d 3C       		.uleb128 .LEHE59-.LEHB59
 3085 013e D333     		.uleb128 .L218-.LFB1026
 3086 0140 01       		.uleb128 0x1
 3087 0141 EB14     		.uleb128 .LEHB60-.LFB1026
 3088 0143 3F       		.uleb128 .LEHE60-.LEHB60
 3089 0144 B034     		.uleb128 .L220-.LFB1026
 3090 0146 01       		.uleb128 0x1
 3091 0147 B615     		.uleb128 .LEHB61-.LFB1026
 3092 0149 05       		.uleb128 .LEHE61-.LEHB61
 3093 014a 00       		.uleb128 0
 3094 014b 00       		.uleb128 0
 3095 014c BE15     		.uleb128 .LEHB62-.LFB1026
 3096 014e 3C       		.uleb128 .LEHE62-.LEHB62
 3097 014f 8D35     		.uleb128 .L222-.LFB1026
 3098 0151 01       		.uleb128 0x1
 3099 0152 FA15     		.uleb128 .LEHB63-.LFB1026
 3100 0154 3F       		.uleb128 .LEHE63-.LEHB63
 3101 0155 EA35     		.uleb128 .L224-.LFB1026
 3102 0157 01       		.uleb128 0x1
 3103 0158 C516     		.uleb128 .LEHB64-.LFB1026
 3104 015a 05       		.uleb128 .LEHE64-.LEHB64
 3105 015b 00       		.uleb128 0
 3106 015c 00       		.uleb128 0
 3107 015d CD16     		.uleb128 .LEHB65-.LFB1026
 3108 015f 3C       		.uleb128 .LEHE65-.LEHB65
 3109 0160 C736     		.uleb128 .L226-.LFB1026
 3110 0162 01       		.uleb128 0x1
 3111 0163 8917     		.uleb128 .LEHB66-.LFB1026
 3112 0165 3F       		.uleb128 .LEHE66-.LEHB66
 3113 0166 A437     		.uleb128 .L228-.LFB1026
 3114 0168 01       		.uleb128 0x1
 3115 0169 D417     		.uleb128 .LEHB67-.LFB1026
 3116 016b 05       		.uleb128 .LEHE67-.LEHB67
 3117 016c 00       		.uleb128 0
 3118 016d 00       		.uleb128 0
 3119 016e DC17     		.uleb128 .LEHB68-.LFB1026
 3120 0170 3C       		.uleb128 .LEHE68-.LEHB68
 3121 0171 8138     		.uleb128 .L230-.LFB1026
 3122 0173 01       		.uleb128 0x1
 3123 0174 9818     		.uleb128 .LEHB69-.LFB1026
 3124 0176 3F       		.uleb128 .LEHE69-.LEHB69
 3125 0177 DE38     		.uleb128 .L232-.LFB1026
 3126 0179 01       		.uleb128 0x1
 3127 017a E318     		.uleb128 .LEHB70-.LFB1026
 3128 017c 05       		.uleb128 .LEHE70-.LEHB70
 3129 017d 00       		.uleb128 0
 3130 017e 00       		.uleb128 0
 3131 017f EB18     		.uleb128 .LEHB71-.LFB1026
 3132 0181 3C       		.uleb128 .LEHE71-.LEHB71
 3133 0182 BB39     		.uleb128 .L234-.LFB1026
 3134 0184 01       		.uleb128 0x1
 3135 0185 BA19     		.uleb128 .LEHB72-.LFB1026
 3136 0187 05       		.uleb128 .LEHE72-.LEHB72
 3137 0188 00       		.uleb128 0
 3138 0189 00       		.uleb128 0
 3139 018a C719     		.uleb128 .LEHB73-.LFB1026
 3140 018c 38       		.uleb128 .LEHE73-.LEHB73
 3141 018d AC19     		.uleb128 .L147-.LFB1026
 3142 018f 00       		.uleb128 0
 3143 0190 FF19     		.uleb128 .LEHB74-.LFB1026
 3144 0192 05       		.uleb128 .LEHE74-.LEHB74
 3145 0193 00       		.uleb128 0
 3146 0194 00       		.uleb128 0
 3147 0195 971A     		.uleb128 .LEHB75-.LFB1026
 3148 0197 05       		.uleb128 .LEHE75-.LEHB75
 3149 0198 00       		.uleb128 0
 3150 0199 00       		.uleb128 0
 3151 019a A41A     		.uleb128 .LEHB76-.LFB1026
 3152 019c 38       		.uleb128 .LEHE76-.LEHB76
 3153 019d 891A     		.uleb128 .L149-.LFB1026
 3154 019f 00       		.uleb128 0
 3155 01a0 DC1A     		.uleb128 .LEHB77-.LFB1026
 3156 01a2 05       		.uleb128 .LEHE77-.LEHB77
 3157 01a3 00       		.uleb128 0
 3158 01a4 00       		.uleb128 0
 3159 01a5 F41A     		.uleb128 .LEHB78-.LFB1026
 3160 01a7 05       		.uleb128 .LEHE78-.LEHB78
 3161 01a8 00       		.uleb128 0
 3162 01a9 00       		.uleb128 0
 3163 01aa 811B     		.uleb128 .LEHB79-.LFB1026
 3164 01ac 38       		.uleb128 .LEHE79-.LEHB79
 3165 01ad E61A     		.uleb128 .L151-.LFB1026
 3166 01af 00       		.uleb128 0
 3167 01b0 B91B     		.uleb128 .LEHB80-.LFB1026
 3168 01b2 05       		.uleb128 .LEHE80-.LEHB80
 3169 01b3 00       		.uleb128 0
 3170 01b4 00       		.uleb128 0
 3171 01b5 D11B     		.uleb128 .LEHB81-.LFB1026
 3172 01b7 05       		.uleb128 .LEHE81-.LEHB81
 3173 01b8 00       		.uleb128 0
 3174 01b9 00       		.uleb128 0
 3175 01ba DE1B     		.uleb128 .LEHB82-.LFB1026
 3176 01bc 38       		.uleb128 .LEHE82-.LEHB82
 3177 01bd C31B     		.uleb128 .L153-.LFB1026
 3178 01bf 00       		.uleb128 0
 3179 01c0 961C     		.uleb128 .LEHB83-.LFB1026
 3180 01c2 05       		.uleb128 .LEHE83-.LEHB83
 3181 01c3 00       		.uleb128 0
 3182 01c4 00       		.uleb128 0
 3183 01c5 AE1C     		.uleb128 .LEHB84-.LFB1026
 3184 01c7 05       		.uleb128 .LEHE84-.LEHB84
 3185 01c8 00       		.uleb128 0
 3186 01c9 00       		.uleb128 0
 3187 01ca BB1C     		.uleb128 .LEHB85-.LFB1026
 3188 01cc 38       		.uleb128 .LEHE85-.LEHB85
 3189 01cd A01C     		.uleb128 .L155-.LFB1026
 3190 01cf 00       		.uleb128 0
 3191 01d0 F31C     		.uleb128 .LEHB86-.LFB1026
 3192 01d2 05       		.uleb128 .LEHE86-.LEHB86
 3193 01d3 00       		.uleb128 0
 3194 01d4 00       		.uleb128 0
 3195 01d5 8B1D     		.uleb128 .LEHB87-.LFB1026
 3196 01d7 05       		.uleb128 .LEHE87-.LEHB87
 3197 01d8 00       		.uleb128 0
 3198 01d9 00       		.uleb128 0
 3199 01da 981D     		.uleb128 .LEHB88-.LFB1026
 3200 01dc 38       		.uleb128 .LEHE88-.LEHB88
 3201 01dd FD1C     		.uleb128 .L157-.LFB1026
 3202 01df 00       		.uleb128 0
 3203 01e0 D01D     		.uleb128 .LEHB89-.LFB1026
 3204 01e2 05       		.uleb128 .LEHE89-.LEHB89
 3205 01e3 00       		.uleb128 0
 3206 01e4 00       		.uleb128 0
 3207 01e5 E81D     		.uleb128 .LEHB90-.LFB1026
 3208 01e7 05       		.uleb128 .LEHE90-.LEHB90
 3209 01e8 00       		.uleb128 0
 3210 01e9 00       		.uleb128 0
 3211 01ea F51D     		.uleb128 .LEHB91-.LFB1026
 3212 01ec 38       		.uleb128 .LEHE91-.LEHB91
 3213 01ed DA1D     		.uleb128 .L159-.LFB1026
 3214 01ef 00       		.uleb128 0
 3215 01f0 AD1E     		.uleb128 .LEHB92-.LFB1026
 3216 01f2 05       		.uleb128 .LEHE92-.LEHB92
 3217 01f3 00       		.uleb128 0
 3218 01f4 00       		.uleb128 0
 3219 01f5 C51E     		.uleb128 .LEHB93-.LFB1026
 3220 01f7 05       		.uleb128 .LEHE93-.LEHB93
 3221 01f8 00       		.uleb128 0
 3222 01f9 00       		.uleb128 0
 3223 01fa D21E     		.uleb128 .LEHB94-.LFB1026
 3224 01fc 38       		.uleb128 .LEHE94-.LEHB94
 3225 01fd B71E     		.uleb128 .L161-.LFB1026
 3226 01ff 00       		.uleb128 0
 3227 0200 8A1F     		.uleb128 .LEHB95-.LFB1026
 3228 0202 05       		.uleb128 .LEHE95-.LEHB95
 3229 0203 00       		.uleb128 0
 3230 0204 00       		.uleb128 0
 3231 0205 A21F     		.uleb128 .LEHB96-.LFB1026
 3232 0207 05       		.uleb128 .LEHE96-.LEHB96
 3233 0208 00       		.uleb128 0
 3234 0209 00       		.uleb128 0
 3235 020a AF1F     		.uleb128 .LEHB97-.LFB1026
 3236 020c 38       		.uleb128 .LEHE97-.LEHB97
 3237 020d 941F     		.uleb128 .L163-.LFB1026
 3238 020f 00       		.uleb128 0
 3239 0210 E71F     		.uleb128 .LEHB98-.LFB1026
 3240 0212 05       		.uleb128 .LEHE98-.LEHB98
 3241 0213 00       		.uleb128 0
 3242 0214 00       		.uleb128 0
 3243 0215 FF1F     		.uleb128 .LEHB99-.LFB1026
 3244 0217 05       		.uleb128 .LEHE99-.LEHB99
 3245 0218 00       		.uleb128 0
 3246 0219 00       		.uleb128 0
 3247 021a 8C20     		.uleb128 .LEHB100-.LFB1026
 3248 021c 38       		.uleb128 .LEHE100-.LEHB100
 3249 021d F11F     		.uleb128 .L165-.LFB1026
 3250 021f 00       		.uleb128 0
 3251 0220 C420     		.uleb128 .LEHB101-.LFB1026
 3252 0222 05       		.uleb128 .LEHE101-.LEHB101
 3253 0223 00       		.uleb128 0
 3254 0224 00       		.uleb128 0
 3255 0225 DC20     		.uleb128 .LEHB102-.LFB1026
 3256 0227 05       		.uleb128 .LEHE102-.LEHB102
 3257 0228 00       		.uleb128 0
 3258 0229 00       		.uleb128 0
 3259 022a E920     		.uleb128 .LEHB103-.LFB1026
 3260 022c 38       		.uleb128 .LEHE103-.LEHB103
 3261 022d CE20     		.uleb128 .L167-.LFB1026
 3262 022f 00       		.uleb128 0
 3263 0230 A121     		.uleb128 .LEHB104-.LFB1026
 3264 0232 05       		.uleb128 .LEHE104-.LEHB104
 3265 0233 00       		.uleb128 0
 3266 0234 00       		.uleb128 0
 3267 0235 B921     		.uleb128 .LEHB105-.LFB1026
 3268 0237 05       		.uleb128 .LEHE105-.LEHB105
 3269 0238 00       		.uleb128 0
 3270 0239 00       		.uleb128 0
 3271 023a C621     		.uleb128 .LEHB106-.LFB1026
 3272 023c 38       		.uleb128 .LEHE106-.LEHB106
 3273 023d AB21     		.uleb128 .L169-.LFB1026
 3274 023f 00       		.uleb128 0
 3275 0240 FE21     		.uleb128 .LEHB107-.LFB1026
 3276 0242 05       		.uleb128 .LEHE107-.LEHB107
 3277 0243 00       		.uleb128 0
 3278 0244 00       		.uleb128 0
 3279 0245 9622     		.uleb128 .LEHB108-.LFB1026
 3280 0247 05       		.uleb128 .LEHE108-.LEHB108
 3281 0248 00       		.uleb128 0
 3282 0249 00       		.uleb128 0
 3283 024a A322     		.uleb128 .LEHB109-.LFB1026
 3284 024c 38       		.uleb128 .LEHE109-.LEHB109
 3285 024d 8822     		.uleb128 .L171-.LFB1026
 3286 024f 00       		.uleb128 0
 3287 0250 DB22     		.uleb128 .LEHB110-.LFB1026
 3288 0252 05       		.uleb128 .LEHE110-.LEHB110
 3289 0253 00       		.uleb128 0
 3290 0254 00       		.uleb128 0
 3291 0255 F322     		.uleb128 .LEHB111-.LFB1026
 3292 0257 05       		.uleb128 .LEHE111-.LEHB111
 3293 0258 00       		.uleb128 0
 3294 0259 00       		.uleb128 0
 3295 025a 8023     		.uleb128 .LEHB112-.LFB1026
 3296 025c 38       		.uleb128 .LEHE112-.LEHB112
 3297 025d E522     		.uleb128 .L173-.LFB1026
 3298 025f 00       		.uleb128 0
 3299 0260 B823     		.uleb128 .LEHB113-.LFB1026
 3300 0262 05       		.uleb128 .LEHE113-.LEHB113
 3301 0263 00       		.uleb128 0
 3302 0264 00       		.uleb128 0
 3303 0265 D023     		.uleb128 .LEHB114-.LFB1026
 3304 0267 05       		.uleb128 .LEHE114-.LEHB114
 3305 0268 00       		.uleb128 0
 3306 0269 00       		.uleb128 0
 3307 026a DD23     		.uleb128 .LEHB115-.LFB1026
 3308 026c 38       		.uleb128 .LEHE115-.LEHB115
 3309 026d C223     		.uleb128 .L175-.LFB1026
 3310 026f 00       		.uleb128 0
 3311 0270 9524     		.uleb128 .LEHB116-.LFB1026
 3312 0272 05       		.uleb128 .LEHE116-.LEHB116
 3313 0273 00       		.uleb128 0
 3314 0274 00       		.uleb128 0
 3315 0275 AD24     		.uleb128 .LEHB117-.LFB1026
 3316 0277 05       		.uleb128 .LEHE117-.LEHB117
 3317 0278 00       		.uleb128 0
 3318 0279 00       		.uleb128 0
 3319 027a BA24     		.uleb128 .LEHB118-.LFB1026
 3320 027c 38       		.uleb128 .LEHE118-.LEHB118
 3321 027d 9F24     		.uleb128 .L177-.LFB1026
 3322 027f 00       		.uleb128 0
 3323 0280 F224     		.uleb128 .LEHB119-.LFB1026
 3324 0282 05       		.uleb128 .LEHE119-.LEHB119
 3325 0283 00       		.uleb128 0
 3326 0284 00       		.uleb128 0
 3327 0285 8A25     		.uleb128 .LEHB120-.LFB1026
 3328 0287 05       		.uleb128 .LEHE120-.LEHB120
 3329 0288 00       		.uleb128 0
 3330 0289 00       		.uleb128 0
 3331 028a 9725     		.uleb128 .LEHB121-.LFB1026
 3332 028c 38       		.uleb128 .LEHE121-.LEHB121
 3333 028d FC24     		.uleb128 .L179-.LFB1026
 3334 028f 00       		.uleb128 0
 3335 0290 CF25     		.uleb128 .LEHB122-.LFB1026
 3336 0292 05       		.uleb128 .LEHE122-.LEHB122
 3337 0293 00       		.uleb128 0
 3338 0294 00       		.uleb128 0
 3339 0295 E725     		.uleb128 .LEHB123-.LFB1026
 3340 0297 05       		.uleb128 .LEHE123-.LEHB123
 3341 0298 00       		.uleb128 0
 3342 0299 00       		.uleb128 0
 3343 029a F425     		.uleb128 .LEHB124-.LFB1026
 3344 029c 38       		.uleb128 .LEHE124-.LEHB124
 3345 029d D925     		.uleb128 .L181-.LFB1026
 3346 029f 00       		.uleb128 0
 3347 02a0 AC26     		.uleb128 .LEHB125-.LFB1026
 3348 02a2 05       		.uleb128 .LEHE125-.LEHB125
 3349 02a3 00       		.uleb128 0
 3350 02a4 00       		.uleb128 0
 3351 02a5 C426     		.uleb128 .LEHB126-.LFB1026
 3352 02a7 05       		.uleb128 .LEHE126-.LEHB126
 3353 02a8 00       		.uleb128 0
 3354 02a9 00       		.uleb128 0
 3355 02aa D126     		.uleb128 .LEHB127-.LFB1026
 3356 02ac 38       		.uleb128 .LEHE127-.LEHB127
 3357 02ad B626     		.uleb128 .L183-.LFB1026
 3358 02af 00       		.uleb128 0
 3359 02b0 8927     		.uleb128 .LEHB128-.LFB1026
 3360 02b2 05       		.uleb128 .LEHE128-.LEHB128
 3361 02b3 00       		.uleb128 0
 3362 02b4 00       		.uleb128 0
 3363 02b5 A127     		.uleb128 .LEHB129-.LFB1026
 3364 02b7 05       		.uleb128 .LEHE129-.LEHB129
 3365 02b8 00       		.uleb128 0
 3366 02b9 00       		.uleb128 0
 3367 02ba AE27     		.uleb128 .LEHB130-.LFB1026
 3368 02bc 38       		.uleb128 .LEHE130-.LEHB130
 3369 02bd 9327     		.uleb128 .L185-.LFB1026
 3370 02bf 00       		.uleb128 0
 3371 02c0 E627     		.uleb128 .LEHB131-.LFB1026
 3372 02c2 05       		.uleb128 .LEHE131-.LEHB131
 3373 02c3 00       		.uleb128 0
 3374 02c4 00       		.uleb128 0
 3375 02c5 FE27     		.uleb128 .LEHB132-.LFB1026
 3376 02c7 05       		.uleb128 .LEHE132-.LEHB132
 3377 02c8 00       		.uleb128 0
 3378 02c9 00       		.uleb128 0
 3379 02ca 8B28     		.uleb128 .LEHB133-.LFB1026
 3380 02cc 38       		.uleb128 .LEHE133-.LEHB133
 3381 02cd F027     		.uleb128 .L187-.LFB1026
 3382 02cf 00       		.uleb128 0
 3383 02d0 C328     		.uleb128 .LEHB134-.LFB1026
 3384 02d2 05       		.uleb128 .LEHE134-.LEHB134
 3385 02d3 00       		.uleb128 0
 3386 02d4 00       		.uleb128 0
 3387 02d5 DB28     		.uleb128 .LEHB135-.LFB1026
 3388 02d7 05       		.uleb128 .LEHE135-.LEHB135
 3389 02d8 00       		.uleb128 0
 3390 02d9 00       		.uleb128 0
 3391 02da E828     		.uleb128 .LEHB136-.LFB1026
 3392 02dc 38       		.uleb128 .LEHE136-.LEHB136
 3393 02dd CD28     		.uleb128 .L189-.LFB1026
 3394 02df 00       		.uleb128 0
 3395 02e0 A029     		.uleb128 .LEHB137-.LFB1026
 3396 02e2 05       		.uleb128 .LEHE137-.LEHB137
 3397 02e3 00       		.uleb128 0
 3398 02e4 00       		.uleb128 0
 3399 02e5 B829     		.uleb128 .LEHB138-.LFB1026
 3400 02e7 05       		.uleb128 .LEHE138-.LEHB138
 3401 02e8 00       		.uleb128 0
 3402 02e9 00       		.uleb128 0
 3403 02ea C529     		.uleb128 .LEHB139-.LFB1026
 3404 02ec 38       		.uleb128 .LEHE139-.LEHB139
 3405 02ed AA29     		.uleb128 .L191-.LFB1026
 3406 02ef 00       		.uleb128 0
 3407 02f0 FD29     		.uleb128 .LEHB140-.LFB1026
 3408 02f2 05       		.uleb128 .LEHE140-.LEHB140
 3409 02f3 00       		.uleb128 0
 3410 02f4 00       		.uleb128 0
 3411 02f5 952A     		.uleb128 .LEHB141-.LFB1026
 3412 02f7 05       		.uleb128 .LEHE141-.LEHB141
 3413 02f8 00       		.uleb128 0
 3414 02f9 00       		.uleb128 0
 3415 02fa A22A     		.uleb128 .LEHB142-.LFB1026
 3416 02fc 38       		.uleb128 .LEHE142-.LEHB142
 3417 02fd 872A     		.uleb128 .L193-.LFB1026
 3418 02ff 00       		.uleb128 0
 3419 0300 DA2A     		.uleb128 .LEHB143-.LFB1026
 3420 0302 05       		.uleb128 .LEHE143-.LEHB143
 3421 0303 00       		.uleb128 0
 3422 0304 00       		.uleb128 0
 3423 0305 F22A     		.uleb128 .LEHB144-.LFB1026
 3424 0307 05       		.uleb128 .LEHE144-.LEHB144
 3425 0308 00       		.uleb128 0
 3426 0309 00       		.uleb128 0
 3427 030a FF2A     		.uleb128 .LEHB145-.LFB1026
 3428 030c 38       		.uleb128 .LEHE145-.LEHB145
 3429 030d E42A     		.uleb128 .L195-.LFB1026
 3430 030f 00       		.uleb128 0
 3431 0310 B72B     		.uleb128 .LEHB146-.LFB1026
 3432 0312 05       		.uleb128 .LEHE146-.LEHB146
 3433 0313 00       		.uleb128 0
 3434 0314 00       		.uleb128 0
 3435 0315 CF2B     		.uleb128 .LEHB147-.LFB1026
 3436 0317 05       		.uleb128 .LEHE147-.LEHB147
 3437 0318 00       		.uleb128 0
 3438 0319 00       		.uleb128 0
 3439 031a DC2B     		.uleb128 .LEHB148-.LFB1026
 3440 031c 38       		.uleb128 .LEHE148-.LEHB148
 3441 031d C12B     		.uleb128 .L197-.LFB1026
 3442 031f 00       		.uleb128 0
 3443 0320 942C     		.uleb128 .LEHB149-.LFB1026
 3444 0322 05       		.uleb128 .LEHE149-.LEHB149
 3445 0323 00       		.uleb128 0
 3446 0324 00       		.uleb128 0
 3447 0325 AC2C     		.uleb128 .LEHB150-.LFB1026
 3448 0327 05       		.uleb128 .LEHE150-.LEHB150
 3449 0328 00       		.uleb128 0
 3450 0329 00       		.uleb128 0
 3451 032a B92C     		.uleb128 .LEHB151-.LFB1026
 3452 032c 38       		.uleb128 .LEHE151-.LEHB151
 3453 032d 9E2C     		.uleb128 .L199-.LFB1026
 3454 032f 00       		.uleb128 0
 3455 0330 F12C     		.uleb128 .LEHB152-.LFB1026
 3456 0332 05       		.uleb128 .LEHE152-.LEHB152
 3457 0333 00       		.uleb128 0
 3458 0334 00       		.uleb128 0
 3459 0335 892D     		.uleb128 .LEHB153-.LFB1026
 3460 0337 05       		.uleb128 .LEHE153-.LEHB153
 3461 0338 00       		.uleb128 0
 3462 0339 00       		.uleb128 0
 3463 033a 962D     		.uleb128 .LEHB154-.LFB1026
 3464 033c 38       		.uleb128 .LEHE154-.LEHB154
 3465 033d FB2C     		.uleb128 .L201-.LFB1026
 3466 033f 00       		.uleb128 0
 3467 0340 CE2D     		.uleb128 .LEHB155-.LFB1026
 3468 0342 05       		.uleb128 .LEHE155-.LEHB155
 3469 0343 00       		.uleb128 0
 3470 0344 00       		.uleb128 0
 3471 0345 E62D     		.uleb128 .LEHB156-.LFB1026
 3472 0347 05       		.uleb128 .LEHE156-.LEHB156
 3473 0348 00       		.uleb128 0
 3474 0349 00       		.uleb128 0
 3475 034a F32D     		.uleb128 .LEHB157-.LFB1026
 3476 034c 38       		.uleb128 .LEHE157-.LEHB157
 3477 034d D82D     		.uleb128 .L203-.LFB1026
 3478 034f 00       		.uleb128 0
 3479 0350 AB2E     		.uleb128 .LEHB158-.LFB1026
 3480 0352 05       		.uleb128 .LEHE158-.LEHB158
 3481 0353 00       		.uleb128 0
 3482 0354 00       		.uleb128 0
 3483 0355 C32E     		.uleb128 .LEHB159-.LFB1026
 3484 0357 05       		.uleb128 .LEHE159-.LEHB159
 3485 0358 00       		.uleb128 0
 3486 0359 00       		.uleb128 0
 3487 035a D02E     		.uleb128 .LEHB160-.LFB1026
 3488 035c 38       		.uleb128 .LEHE160-.LEHB160
 3489 035d B52E     		.uleb128 .L205-.LFB1026
 3490 035f 00       		.uleb128 0
 3491 0360 882F     		.uleb128 .LEHB161-.LFB1026
 3492 0362 05       		.uleb128 .LEHE161-.LEHB161
 3493 0363 00       		.uleb128 0
 3494 0364 00       		.uleb128 0
 3495 0365 A02F     		.uleb128 .LEHB162-.LFB1026
 3496 0367 05       		.uleb128 .LEHE162-.LEHB162
 3497 0368 00       		.uleb128 0
 3498 0369 00       		.uleb128 0
 3499 036a AD2F     		.uleb128 .LEHB163-.LFB1026
 3500 036c 38       		.uleb128 .LEHE163-.LEHB163
 3501 036d 922F     		.uleb128 .L207-.LFB1026
 3502 036f 00       		.uleb128 0
 3503 0370 E52F     		.uleb128 .LEHB164-.LFB1026
 3504 0372 05       		.uleb128 .LEHE164-.LEHB164
 3505 0373 00       		.uleb128 0
 3506 0374 00       		.uleb128 0
 3507 0375 FD2F     		.uleb128 .LEHB165-.LFB1026
 3508 0377 05       		.uleb128 .LEHE165-.LEHB165
 3509 0378 00       		.uleb128 0
 3510 0379 00       		.uleb128 0
 3511 037a 8A30     		.uleb128 .LEHB166-.LFB1026
 3512 037c 38       		.uleb128 .LEHE166-.LEHB166
 3513 037d EF2F     		.uleb128 .L209-.LFB1026
 3514 037f 00       		.uleb128 0
 3515 0380 C230     		.uleb128 .LEHB167-.LFB1026
 3516 0382 05       		.uleb128 .LEHE167-.LEHB167
 3517 0383 00       		.uleb128 0
 3518 0384 00       		.uleb128 0
 3519 0385 DA30     		.uleb128 .LEHB168-.LFB1026
 3520 0387 05       		.uleb128 .LEHE168-.LEHB168
 3521 0388 00       		.uleb128 0
 3522 0389 00       		.uleb128 0
 3523 038a E730     		.uleb128 .LEHB169-.LFB1026
 3524 038c 38       		.uleb128 .LEHE169-.LEHB169
 3525 038d CC30     		.uleb128 .L211-.LFB1026
 3526 038f 00       		.uleb128 0
 3527 0390 9F31     		.uleb128 .LEHB170-.LFB1026
 3528 0392 05       		.uleb128 .LEHE170-.LEHB170
 3529 0393 00       		.uleb128 0
 3530 0394 00       		.uleb128 0
 3531 0395 B731     		.uleb128 .LEHB171-.LFB1026
 3532 0397 05       		.uleb128 .LEHE171-.LEHB171
 3533 0398 00       		.uleb128 0
 3534 0399 00       		.uleb128 0
 3535 039a C431     		.uleb128 .LEHB172-.LFB1026
 3536 039c 38       		.uleb128 .LEHE172-.LEHB172
 3537 039d A931     		.uleb128 .L213-.LFB1026
 3538 039f 00       		.uleb128 0
 3539 03a0 FC31     		.uleb128 .LEHB173-.LFB1026
 3540 03a2 05       		.uleb128 .LEHE173-.LEHB173
 3541 03a3 00       		.uleb128 0
 3542 03a4 00       		.uleb128 0
 3543 03a5 9432     		.uleb128 .LEHB174-.LFB1026
 3544 03a7 05       		.uleb128 .LEHE174-.LEHB174
 3545 03a8 00       		.uleb128 0
 3546 03a9 00       		.uleb128 0
 3547 03aa A132     		.uleb128 .LEHB175-.LFB1026
 3548 03ac 38       		.uleb128 .LEHE175-.LEHB175
 3549 03ad 8632     		.uleb128 .L215-.LFB1026
 3550 03af 00       		.uleb128 0
 3551 03b0 D932     		.uleb128 .LEHB176-.LFB1026
 3552 03b2 05       		.uleb128 .LEHE176-.LEHB176
 3553 03b3 00       		.uleb128 0
 3554 03b4 00       		.uleb128 0
 3555 03b5 F132     		.uleb128 .LEHB177-.LFB1026
 3556 03b7 05       		.uleb128 .LEHE177-.LEHB177
 3557 03b8 00       		.uleb128 0
 3558 03b9 00       		.uleb128 0
 3559 03ba FE32     		.uleb128 .LEHB178-.LFB1026
 3560 03bc 38       		.uleb128 .LEHE178-.LEHB178
 3561 03bd E332     		.uleb128 .L217-.LFB1026
 3562 03bf 00       		.uleb128 0
 3563 03c0 B633     		.uleb128 .LEHB179-.LFB1026
 3564 03c2 05       		.uleb128 .LEHE179-.LEHB179
 3565 03c3 00       		.uleb128 0
 3566 03c4 00       		.uleb128 0
 3567 03c5 CE33     		.uleb128 .LEHB180-.LFB1026
 3568 03c7 05       		.uleb128 .LEHE180-.LEHB180
 3569 03c8 00       		.uleb128 0
 3570 03c9 00       		.uleb128 0
 3571 03ca DB33     		.uleb128 .LEHB181-.LFB1026
 3572 03cc 38       		.uleb128 .LEHE181-.LEHB181
 3573 03cd C033     		.uleb128 .L219-.LFB1026
 3574 03cf 00       		.uleb128 0
 3575 03d0 9334     		.uleb128 .LEHB182-.LFB1026
 3576 03d2 05       		.uleb128 .LEHE182-.LEHB182
 3577 03d3 00       		.uleb128 0
 3578 03d4 00       		.uleb128 0
 3579 03d5 AB34     		.uleb128 .LEHB183-.LFB1026
 3580 03d7 05       		.uleb128 .LEHE183-.LEHB183
 3581 03d8 00       		.uleb128 0
 3582 03d9 00       		.uleb128 0
 3583 03da B834     		.uleb128 .LEHB184-.LFB1026
 3584 03dc 38       		.uleb128 .LEHE184-.LEHB184
 3585 03dd 9D34     		.uleb128 .L221-.LFB1026
 3586 03df 00       		.uleb128 0
 3587 03e0 F034     		.uleb128 .LEHB185-.LFB1026
 3588 03e2 05       		.uleb128 .LEHE185-.LEHB185
 3589 03e3 00       		.uleb128 0
 3590 03e4 00       		.uleb128 0
 3591 03e5 8835     		.uleb128 .LEHB186-.LFB1026
 3592 03e7 05       		.uleb128 .LEHE186-.LEHB186
 3593 03e8 00       		.uleb128 0
 3594 03e9 00       		.uleb128 0
 3595 03ea 9535     		.uleb128 .LEHB187-.LFB1026
 3596 03ec 38       		.uleb128 .LEHE187-.LEHB187
 3597 03ed FA34     		.uleb128 .L223-.LFB1026
 3598 03ef 00       		.uleb128 0
 3599 03f0 CD35     		.uleb128 .LEHB188-.LFB1026
 3600 03f2 05       		.uleb128 .LEHE188-.LEHB188
 3601 03f3 00       		.uleb128 0
 3602 03f4 00       		.uleb128 0
 3603 03f5 E535     		.uleb128 .LEHB189-.LFB1026
 3604 03f7 05       		.uleb128 .LEHE189-.LEHB189
 3605 03f8 00       		.uleb128 0
 3606 03f9 00       		.uleb128 0
 3607 03fa F235     		.uleb128 .LEHB190-.LFB1026
 3608 03fc 38       		.uleb128 .LEHE190-.LEHB190
 3609 03fd D735     		.uleb128 .L225-.LFB1026
 3610 03ff 00       		.uleb128 0
 3611 0400 AA36     		.uleb128 .LEHB191-.LFB1026
 3612 0402 05       		.uleb128 .LEHE191-.LEHB191
 3613 0403 00       		.uleb128 0
 3614 0404 00       		.uleb128 0
 3615 0405 C236     		.uleb128 .LEHB192-.LFB1026
 3616 0407 05       		.uleb128 .LEHE192-.LEHB192
 3617 0408 00       		.uleb128 0
 3618 0409 00       		.uleb128 0
 3619 040a CF36     		.uleb128 .LEHB193-.LFB1026
 3620 040c 38       		.uleb128 .LEHE193-.LEHB193
 3621 040d B436     		.uleb128 .L227-.LFB1026
 3622 040f 00       		.uleb128 0
 3623 0410 8737     		.uleb128 .LEHB194-.LFB1026
 3624 0412 05       		.uleb128 .LEHE194-.LEHB194
 3625 0413 00       		.uleb128 0
 3626 0414 00       		.uleb128 0
 3627 0415 9F37     		.uleb128 .LEHB195-.LFB1026
 3628 0417 05       		.uleb128 .LEHE195-.LEHB195
 3629 0418 00       		.uleb128 0
 3630 0419 00       		.uleb128 0
 3631 041a AC37     		.uleb128 .LEHB196-.LFB1026
 3632 041c 38       		.uleb128 .LEHE196-.LEHB196
 3633 041d 9137     		.uleb128 .L229-.LFB1026
 3634 041f 00       		.uleb128 0
 3635 0420 E437     		.uleb128 .LEHB197-.LFB1026
 3636 0422 05       		.uleb128 .LEHE197-.LEHB197
 3637 0423 00       		.uleb128 0
 3638 0424 00       		.uleb128 0
 3639 0425 FC37     		.uleb128 .LEHB198-.LFB1026
 3640 0427 05       		.uleb128 .LEHE198-.LEHB198
 3641 0428 00       		.uleb128 0
 3642 0429 00       		.uleb128 0
 3643 042a 8938     		.uleb128 .LEHB199-.LFB1026
 3644 042c 38       		.uleb128 .LEHE199-.LEHB199
 3645 042d EE37     		.uleb128 .L231-.LFB1026
 3646 042f 00       		.uleb128 0
 3647 0430 C138     		.uleb128 .LEHB200-.LFB1026
 3648 0432 05       		.uleb128 .LEHE200-.LEHB200
 3649 0433 00       		.uleb128 0
 3650 0434 00       		.uleb128 0
 3651 0435 D938     		.uleb128 .LEHB201-.LFB1026
 3652 0437 05       		.uleb128 .LEHE201-.LEHB201
 3653 0438 00       		.uleb128 0
 3654 0439 00       		.uleb128 0
 3655 043a E638     		.uleb128 .LEHB202-.LFB1026
 3656 043c 38       		.uleb128 .LEHE202-.LEHB202
 3657 043d CB38     		.uleb128 .L233-.LFB1026
 3658 043f 00       		.uleb128 0
 3659 0440 9E39     		.uleb128 .LEHB203-.LFB1026
 3660 0442 05       		.uleb128 .LEHE203-.LEHB203
 3661 0443 00       		.uleb128 0
 3662 0444 00       		.uleb128 0
 3663 0445 B639     		.uleb128 .LEHB204-.LFB1026
 3664 0447 05       		.uleb128 .LEHE204-.LEHB204
 3665 0448 00       		.uleb128 0
 3666 0449 00       		.uleb128 0
 3667 044a C339     		.uleb128 .LEHB205-.LFB1026
 3668 044c 38       		.uleb128 .LEHE205-.LEHB205
 3669 044d A839     		.uleb128 .L235-.LFB1026
 3670 044f 00       		.uleb128 0
 3671 0450 FB39     		.uleb128 .LEHB206-.LFB1026
 3672 0452 05       		.uleb128 .LEHE206-.LEHB206
 3673 0453 00       		.uleb128 0
 3674 0454 00       		.uleb128 0
 3675              	.LLSDACSE1026:
 3676 0455 01       		.byte	0x1
 3677 0456 00       		.byte	0
 3678 0457 00       		.align 4
 3679 0458 00000000 		.long	0
 3680              	
 3681              	.LLSDATT1026:
 3682              		.text
 3684              		.section	.rodata
 3685              	.LC21:
 3686 0399 436F6E76 		.string	"Conv_testGetHexByte"
 3686      5F746573 
 3686      74476574 
 3686      48657842 
 3686      79746500 
 3687              		.section	.text._ZN23TestConv_testGetHexByteC2Ev,"axG",@progbits,_ZN23TestConv_testGetHexByteC5Ev,c
 3688              		.align 2
 3689              		.weak	_ZN23TestConv_testGetHexByteC2Ev
 3691              	_ZN23TestConv_testGetHexByteC2Ev:
 3692              	.LFB1028:
  92:testConv.cpp  **** 
  93:testConv.cpp  **** TEST(Conv_testGetHexByte) {
 3693              		.loc 3 93 0
 3694              		.cfi_startproc
 3695 0000 55       		pushq	%rbp
 3696              		.cfi_def_cfa_offset 16
 3697              		.cfi_offset 6, -16
 3698 0001 4889E5   		movq	%rsp, %rbp
 3699              		.cfi_def_cfa_register 6
 3700 0004 4883EC10 		subq	$16, %rsp
 3701 0008 48897DF8 		movq	%rdi, -8(%rbp)
 3702              	.LBB7:
 3703              		.loc 3 93 0
 3704 000c E8000000 		call	_ZN13UnitTestSuite12GetSuiteNameEv
 3704      00
 3705 0011 4889C2   		movq	%rax, %rdx
 3706 0014 488B45F8 		movq	-8(%rbp), %rax
 3707 0018 41B85D00 		movl	$93, %r8d
 3707      0000
 3708 001e B9000000 		movl	$.LC1, %ecx
 3708      00
 3709 0023 BE000000 		movl	$.LC21, %esi
 3709      00
 3710 0028 4889C7   		movq	%rax, %rdi
 3711 002b E8000000 		call	_ZN8UnitTest4TestC2EPKcS2_S2_i
 3711      00
 3712 0030 488B45F8 		movq	-8(%rbp), %rax
 3713 0034 48C70000 		movq	$_ZTV23TestConv_testGetHexByte+16, (%rax)
 3713      000000
 3714              	.LBE7:
 3715 003b C9       		leave
 3716              		.cfi_def_cfa 7, 8
 3717 003c C3       		ret
 3718              		.cfi_endproc
 3719              	.LFE1028:
 3721              		.weak	_ZN23TestConv_testGetHexByteC1Ev
 3722              		.set	_ZN23TestConv_testGetHexByteC1Ev,_ZN23TestConv_testGetHexByteC2Ev
 3723              		.globl	testConv_testGetHexByteInstance
 3724              		.bss
 3725 0039 00000000 		.align 32
 3725      000000
 3728              	testConv_testGetHexByteInstance:
 3729 0040 00000000 		.zero	56
 3729      00000000 
 3729      00000000 
 3729      00000000 
 3729      00000000 
 3730              		.globl	adderConv_testGetHexByte
 3733              	adderConv_testGetHexByte:
 3734 0078 00       		.zero	1
 3735              		.section	.rodata
 3736              	.LC22:
 3737 03ad 303000   		.string	"00"
 3738              	.LC23:
 3739 03b0 413500   		.string	"A5"
 3740              	.LC24:
 3741 03b3 464600   		.string	"FF"
 3742              	.LC25:
 3743 03b6 474600   		.string	"GF"
 3744              	.LC26:
 3745 03b9 464700   		.string	"FG"
 3746 03bc 00000000 		.align 8
 3747              	.LC27:
 3748 03c0 556E6861 		.string	"Unhandled exception in CHECK_EQUAL(0x00, byte)"
 3748      6E646C65 
 3748      64206578 
 3748      63657074 
 3748      696F6E20 
 3749 03ef 00       		.align 8
 3750              	.LC28:
 3751 03f0 556E6861 		.string	"Unhandled exception in CHECK_EQUAL(0xA5, byte)"
 3751      6E646C65 
 3751      64206578 
 3751      63657074 
 3751      696F6E20 
 3752 041f 00       		.align 8
 3753              	.LC29:
 3754 0420 556E6861 		.string	"Unhandled exception in CHECK_EQUAL(0xFF, byte)"
 3754      6E646C65 
 3754      64206578 
 3754      63657074 
 3754      696F6E20 
 3755              		.text
 3756              		.align 2
 3757              		.globl	_ZNK23TestConv_testGetHexByte7RunImplEv
 3759              	_ZNK23TestConv_testGetHexByte7RunImplEv:
 3760              	.LFB1030:
 3761              		.loc 3 93 0
 3762              		.cfi_startproc
 3763              		.cfi_personality 0x3,__gxx_personality_v0
 3764              		.cfi_lsda 0x3,.LLSDA1030
 3765 1d08 55       		pushq	%rbp
 3766              		.cfi_def_cfa_offset 16
 3767              		.cfi_offset 6, -16
 3768 1d09 4889E5   		movq	%rsp, %rbp
 3769              		.cfi_def_cfa_register 6
 3770 1d0c 53       		pushq	%rbx
 3771 1d0d 4883EC48 		subq	$72, %rsp
 3772              		.cfi_offset 3, -24
 3773 1d11 48897DB8 		movq	%rdi, -72(%rbp)
 3774              	.LBB8:
  94:testConv.cpp  **** 	uint8 byte;
  95:testConv.cpp  **** 	bool status;
  96:testConv.cpp  **** 	status = getHexByte("00", &byte);
 3775              		.loc 3 96 0
 3776 1d15 488D45CA 		leaq	-54(%rbp), %rax
 3777 1d19 4889C6   		movq	%rax, %rsi
 3778 1d1c BF000000 		movl	$.LC22, %edi
 3778      00
 3779              	.LEHB207:
 3780 1d21 E8000000 		call	getHexByte
 3780      00
 3781              	.LEHE207:
 3782 1d26 8845CB   		movb	%al, -53(%rbp)
 3783              	.LEHB208:
  97:testConv.cpp  **** 	CHECK_EQUAL(false, status);
 3784              		.loc 3 97 0
 3785 1d29 E8000000 		call	_ZN8UnitTest11CurrentTest7DetailsEv
 3785      00
 3786 1d2e 488B08   		movq	(%rax), %rcx
 3787 1d31 488D45D0 		leaq	-48(%rbp), %rax
 3788 1d35 BA610000 		movl	$97, %edx
 3788      00
 3789 1d3a 4889CE   		movq	%rcx, %rsi
 3790 1d3d 4889C7   		movq	%rax, %rdi
 3791 1d40 E8000000 		call	_ZN8UnitTest11TestDetailsC1ERKS0_i
 3791      00
 3792              		.loc 3 97 0 is_stmt 0 discriminator 1
 3793 1d45 C645CC00 		movb	$0, -52(%rbp)
 3794 1d49 E8000000 		call	_ZN8UnitTest11CurrentTest7ResultsEv
 3794      00
 3795 1d4e 488B00   		movq	(%rax), %rax
 3796 1d51 488D4DD0 		leaq	-48(%rbp), %rcx
 3797 1d55 488D55CB 		leaq	-53(%rbp), %rdx
 3798 1d59 488D75CC 		leaq	-52(%rbp), %rsi
 3799 1d5d 4889C7   		movq	%rax, %rdi
 3800 1d60 E8000000 		call	_ZN8UnitTest10CheckEqualIbbEEvRNS_11TestResultsERKT_RKT0_RKNS_11TestDetailsE
 3800      00
 3801              	.LEHE208:
 3802              	.L241:
 3803              	.LEHB209:
  98:testConv.cpp  **** 	CHECK_EQUAL(0x00, byte);
 3804              		.loc 3 98 0 is_stmt 1
 3805 1d65 E8000000 		call	_ZN8UnitTest11CurrentTest7DetailsEv
 3805      00
 3806 1d6a 488B08   		movq	(%rax), %rcx
 3807 1d6d 488D45D0 		leaq	-48(%rbp), %rax
 3808 1d71 BA620000 		movl	$98, %edx
 3808      00
 3809 1d76 4889CE   		movq	%rcx, %rsi
 3810 1d79 4889C7   		movq	%rax, %rdi
 3811 1d7c E8000000 		call	_ZN8UnitTest11TestDetailsC1ERKS0_i
 3811      00
 3812              		.loc 3 98 0 is_stmt 0 discriminator 1
 3813 1d81 C745CC00 		movl	$0, -52(%rbp)
 3813      000000
 3814 1d88 E8000000 		call	_ZN8UnitTest11CurrentTest7ResultsEv
 3814      00
 3815 1d8d 488B00   		movq	(%rax), %rax
 3816 1d90 488D4DD0 		leaq	-48(%rbp), %rcx
 3817 1d94 488D55CA 		leaq	-54(%rbp), %rdx
 3818 1d98 488D75CC 		leaq	-52(%rbp), %rsi
 3819 1d9c 4889C7   		movq	%rax, %rdi
 3820 1d9f E8000000 		call	_ZN8UnitTest10CheckEqualIihEEvRNS_11TestResultsERKT_RKT0_RKNS_11TestDetailsE
 3820      00
 3821              	.LEHE209:
 3822              	.L244:
  99:testConv.cpp  **** 	status = getHexByte("A5", &byte);
 3823              		.loc 3 99 0 is_stmt 1
 3824 1da4 488D45CA 		leaq	-54(%rbp), %rax
 3825 1da8 4889C6   		movq	%rax, %rsi
 3826 1dab BF000000 		movl	$.LC23, %edi
 3826      00
 3827              	.LEHB210:
 3828 1db0 E8000000 		call	getHexByte
 3828      00
 3829              	.LEHE210:
 3830 1db5 8845CB   		movb	%al, -53(%rbp)
 3831              	.LEHB211:
 100:testConv.cpp  **** 	CHECK_EQUAL(false, status);
 3832              		.loc 3 100 0
 3833 1db8 E8000000 		call	_ZN8UnitTest11CurrentTest7DetailsEv
 3833      00
 3834 1dbd 488B08   		movq	(%rax), %rcx
 3835 1dc0 488D45D0 		leaq	-48(%rbp), %rax
 3836 1dc4 BA640000 		movl	$100, %edx
 3836      00
 3837 1dc9 4889CE   		movq	%rcx, %rsi
 3838 1dcc 4889C7   		movq	%rax, %rdi
 3839 1dcf E8000000 		call	_ZN8UnitTest11TestDetailsC1ERKS0_i
 3839      00
 3840              		.loc 3 100 0 is_stmt 0 discriminator 1
 3841 1dd4 C645CC00 		movb	$0, -52(%rbp)
 3842 1dd8 E8000000 		call	_ZN8UnitTest11CurrentTest7ResultsEv
 3842      00
 3843 1ddd 488B00   		movq	(%rax), %rax
 3844 1de0 488D4DD0 		leaq	-48(%rbp), %rcx
 3845 1de4 488D55CB 		leaq	-53(%rbp), %rdx
 3846 1de8 488D75CC 		leaq	-52(%rbp), %rsi
 3847 1dec 4889C7   		movq	%rax, %rdi
 3848 1def E8000000 		call	_ZN8UnitTest10CheckEqualIbbEEvRNS_11TestResultsERKT_RKT0_RKNS_11TestDetailsE
 3848      00
 3849              	.LEHE211:
 3850              	.L247:
 3851              	.LEHB212:
 101:testConv.cpp  **** 	CHECK_EQUAL(0xA5, byte);
 3852              		.loc 3 101 0 is_stmt 1
 3853 1df4 E8000000 		call	_ZN8UnitTest11CurrentTest7DetailsEv
 3853      00
 3854 1df9 488B08   		movq	(%rax), %rcx
 3855 1dfc 488D45D0 		leaq	-48(%rbp), %rax
 3856 1e00 BA650000 		movl	$101, %edx
 3856      00
 3857 1e05 4889CE   		movq	%rcx, %rsi
 3858 1e08 4889C7   		movq	%rax, %rdi
 3859 1e0b E8000000 		call	_ZN8UnitTest11TestDetailsC1ERKS0_i
 3859      00
 3860              		.loc 3 101 0 is_stmt 0 discriminator 1
 3861 1e10 C745CCA5 		movl	$165, -52(%rbp)
 3861      000000
 3862 1e17 E8000000 		call	_ZN8UnitTest11CurrentTest7ResultsEv
 3862      00
 3863 1e1c 488B00   		movq	(%rax), %rax
 3864 1e1f 488D4DD0 		leaq	-48(%rbp), %rcx
 3865 1e23 488D55CA 		leaq	-54(%rbp), %rdx
 3866 1e27 488D75CC 		leaq	-52(%rbp), %rsi
 3867 1e2b 4889C7   		movq	%rax, %rdi
 3868 1e2e E8000000 		call	_ZN8UnitTest10CheckEqualIihEEvRNS_11TestResultsERKT_RKT0_RKNS_11TestDetailsE
 3868      00
 3869              	.LEHE212:
 3870              	.L250:
 102:testConv.cpp  **** 	status = getHexByte("FF", &byte);
 3871              		.loc 3 102 0 is_stmt 1
 3872 1e33 488D45CA 		leaq	-54(%rbp), %rax
 3873 1e37 4889C6   		movq	%rax, %rsi
 3874 1e3a BF000000 		movl	$.LC24, %edi
 3874      00
 3875              	.LEHB213:
 3876 1e3f E8000000 		call	getHexByte
 3876      00
 3877              	.LEHE213:
 3878 1e44 8845CB   		movb	%al, -53(%rbp)
 3879              	.LEHB214:
 103:testConv.cpp  **** 	CHECK_EQUAL(false, status);
 3880              		.loc 3 103 0
 3881 1e47 E8000000 		call	_ZN8UnitTest11CurrentTest7DetailsEv
 3881      00
 3882 1e4c 488B08   		movq	(%rax), %rcx
 3883 1e4f 488D45D0 		leaq	-48(%rbp), %rax
 3884 1e53 BA670000 		movl	$103, %edx
 3884      00
 3885 1e58 4889CE   		movq	%rcx, %rsi
 3886 1e5b 4889C7   		movq	%rax, %rdi
 3887 1e5e E8000000 		call	_ZN8UnitTest11TestDetailsC1ERKS0_i
 3887      00
 3888              		.loc 3 103 0 is_stmt 0 discriminator 1
 3889 1e63 C645CC00 		movb	$0, -52(%rbp)
 3890 1e67 E8000000 		call	_ZN8UnitTest11CurrentTest7ResultsEv
 3890      00
 3891 1e6c 488B00   		movq	(%rax), %rax
 3892 1e6f 488D4DD0 		leaq	-48(%rbp), %rcx
 3893 1e73 488D55CB 		leaq	-53(%rbp), %rdx
 3894 1e77 488D75CC 		leaq	-52(%rbp), %rsi
 3895 1e7b 4889C7   		movq	%rax, %rdi
 3896 1e7e E8000000 		call	_ZN8UnitTest10CheckEqualIbbEEvRNS_11TestResultsERKT_RKT0_RKNS_11TestDetailsE
 3896      00
 3897              	.LEHE214:
 3898              	.L253:
 3899              	.LEHB215:
 104:testConv.cpp  **** 	CHECK_EQUAL(0xFF, byte);
 3900              		.loc 3 104 0 is_stmt 1
 3901 1e83 E8000000 		call	_ZN8UnitTest11CurrentTest7DetailsEv
 3901      00
 3902 1e88 488B08   		movq	(%rax), %rcx
 3903 1e8b 488D45D0 		leaq	-48(%rbp), %rax
 3904 1e8f BA680000 		movl	$104, %edx
 3904      00
 3905 1e94 4889CE   		movq	%rcx, %rsi
 3906 1e97 4889C7   		movq	%rax, %rdi
 3907 1e9a E8000000 		call	_ZN8UnitTest11TestDetailsC1ERKS0_i
 3907      00
 3908              		.loc 3 104 0 is_stmt 0 discriminator 1
 3909 1e9f C745CCFF 		movl	$255, -52(%rbp)
 3909      000000
 3910 1ea6 E8000000 		call	_ZN8UnitTest11CurrentTest7ResultsEv
 3910      00
 3911 1eab 488B00   		movq	(%rax), %rax
 3912 1eae 488D4DD0 		leaq	-48(%rbp), %rcx
 3913 1eb2 488D55CA 		leaq	-54(%rbp), %rdx
 3914 1eb6 488D75CC 		leaq	-52(%rbp), %rsi
 3915 1eba 4889C7   		movq	%rax, %rdi
 3916 1ebd E8000000 		call	_ZN8UnitTest10CheckEqualIihEEvRNS_11TestResultsERKT_RKT0_RKNS_11TestDetailsE
 3916      00
 3917              	.LEHE215:
 3918              	.L256:
 105:testConv.cpp  **** 	status = getHexByte("GF", &byte);
 3919              		.loc 3 105 0 is_stmt 1
 3920 1ec2 488D45CA 		leaq	-54(%rbp), %rax
 3921 1ec6 4889C6   		movq	%rax, %rsi
 3922 1ec9 BF000000 		movl	$.LC25, %edi
 3922      00
 3923              	.LEHB216:
 3924 1ece E8000000 		call	getHexByte
 3924      00
 3925              	.LEHE216:
 3926 1ed3 8845CB   		movb	%al, -53(%rbp)
 3927              	.LEHB217:
 106:testConv.cpp  **** 	CHECK_EQUAL(true, status);
 3928              		.loc 3 106 0
 3929 1ed6 E8000000 		call	_ZN8UnitTest11CurrentTest7DetailsEv
 3929      00
 3930 1edb 488B08   		movq	(%rax), %rcx
 3931 1ede 488D45D0 		leaq	-48(%rbp), %rax
 3932 1ee2 BA6A0000 		movl	$106, %edx
 3932      00
 3933 1ee7 4889CE   		movq	%rcx, %rsi
 3934 1eea 4889C7   		movq	%rax, %rdi
 3935 1eed E8000000 		call	_ZN8UnitTest11TestDetailsC1ERKS0_i
 3935      00
 3936              		.loc 3 106 0 is_stmt 0 discriminator 1
 3937 1ef2 C645CC01 		movb	$1, -52(%rbp)
 3938 1ef6 E8000000 		call	_ZN8UnitTest11CurrentTest7ResultsEv
 3938      00
 3939 1efb 488B00   		movq	(%rax), %rax
 3940 1efe 488D4DD0 		leaq	-48(%rbp), %rcx
 3941 1f02 488D55CB 		leaq	-53(%rbp), %rdx
 3942 1f06 488D75CC 		leaq	-52(%rbp), %rsi
 3943 1f0a 4889C7   		movq	%rax, %rdi
 3944 1f0d E8000000 		call	_ZN8UnitTest10CheckEqualIbbEEvRNS_11TestResultsERKT_RKT0_RKNS_11TestDetailsE
 3944      00
 3945              	.LEHE217:
 3946              	.L259:
 107:testConv.cpp  **** 	status = getHexByte("FG", &byte);
 3947              		.loc 3 107 0 is_stmt 1
 3948 1f12 488D45CA 		leaq	-54(%rbp), %rax
 3949 1f16 4889C6   		movq	%rax, %rsi
 3950 1f19 BF000000 		movl	$.LC26, %edi
 3950      00
 3951              	.LEHB218:
 3952 1f1e E8000000 		call	getHexByte
 3952      00
 3953              	.LEHE218:
 3954 1f23 8845CB   		movb	%al, -53(%rbp)
 3955              	.LEHB219:
 108:testConv.cpp  **** 	CHECK_EQUAL(true, status);
 3956              		.loc 3 108 0
 3957 1f26 E8000000 		call	_ZN8UnitTest11CurrentTest7DetailsEv
 3957      00
 3958 1f2b 488B08   		movq	(%rax), %rcx
 3959 1f2e 488D45D0 		leaq	-48(%rbp), %rax
 3960 1f32 BA6C0000 		movl	$108, %edx
 3960      00
 3961 1f37 4889CE   		movq	%rcx, %rsi
 3962 1f3a 4889C7   		movq	%rax, %rdi
 3963 1f3d E8000000 		call	_ZN8UnitTest11TestDetailsC1ERKS0_i
 3963      00
 3964              		.loc 3 108 0 is_stmt 0 discriminator 1
 3965 1f42 C645CC01 		movb	$1, -52(%rbp)
 3966 1f46 E8000000 		call	_ZN8UnitTest11CurrentTest7ResultsEv
 3966      00
 3967 1f4b 488B00   		movq	(%rax), %rax
 3968 1f4e 488D4DD0 		leaq	-48(%rbp), %rcx
 3969 1f52 488D55CB 		leaq	-53(%rbp), %rdx
 3970 1f56 488D75CC 		leaq	-52(%rbp), %rsi
 3971 1f5a 4889C7   		movq	%rax, %rdi
 3972 1f5d E8000000 		call	_ZN8UnitTest10CheckEqualIbbEEvRNS_11TestResultsERKT_RKT0_RKNS_11TestDetailsE
 3972      00
 3973              	.LEHE219:
 3974              	.LBE8:
 109:testConv.cpp  **** }
 3975              		.loc 3 109 0 is_stmt 1
 3976 1f62 E9E30200 		jmp	.L279
 3976      00
 3977              	.L264:
 3978 1f67 4889C3   		movq	%rax, %rbx
 3979              	.LBB9:
  97:testConv.cpp  **** 	CHECK_EQUAL(0x00, byte);
 3980              		.loc 3 97 0
 3981 1f6a E8000000 		call	__cxa_end_catch
 3981      00
 3982 1f6f 4889D8   		movq	%rbx, %rax
 3983 1f72 4889C7   		movq	%rax, %rdi
 3984              	.LEHB220:
 3985 1f75 E8000000 		call	_Unwind_Resume
 3985      00
 3986              	.LEHE220:
 3987              	.L263:
 3988 1f7a 4889C7   		movq	%rax, %rdi
 3989 1f7d E8000000 		call	__cxa_begin_catch
 3989      00
 3990              	.LEHB221:
 3991 1f82 E8000000 		call	_ZN8UnitTest11CurrentTest7DetailsEv
 3991      00
 3992 1f87 488B08   		movq	(%rax), %rcx
 3993 1f8a 488D45D0 		leaq	-48(%rbp), %rax
 3994 1f8e BA610000 		movl	$97, %edx
 3994      00
 3995 1f93 4889CE   		movq	%rcx, %rsi
 3996 1f96 4889C7   		movq	%rax, %rdi
 3997 1f99 E8000000 		call	_ZN8UnitTest11TestDetailsC1ERKS0_i
 3997      00
  97:testConv.cpp  **** 	CHECK_EQUAL(0x00, byte);
 3998              		.loc 3 97 0 is_stmt 0 discriminator 1
 3999 1f9e E8000000 		call	_ZN8UnitTest11CurrentTest7ResultsEv
 3999      00
 4000 1fa3 488B00   		movq	(%rax), %rax
 4001 1fa6 488D4DD0 		leaq	-48(%rbp), %rcx
 4002 1faa BA000000 		movl	$.LC3, %edx
 4002      00
 4003 1faf 4889CE   		movq	%rcx, %rsi
 4004 1fb2 4889C7   		movq	%rax, %rdi
 4005 1fb5 E8000000 		call	_ZN8UnitTest11TestResults13OnTestFailureERKNS_11TestDetailsEPKc
 4005      00
 4006              	.LEHE221:
 4007              	.LEHB222:
 4008 1fba E8000000 		call	__cxa_end_catch
 4008      00
 4009              	.LEHE222:
 4010 1fbf E9A1FDFF 		jmp	.L241
 4010      FF
 4011              	.L266:
 4012 1fc4 4889C3   		movq	%rax, %rbx
  98:testConv.cpp  **** 	status = getHexByte("A5", &byte);
 4013              		.loc 3 98 0 is_stmt 1
 4014 1fc7 E8000000 		call	__cxa_end_catch
 4014      00
 4015 1fcc 4889D8   		movq	%rbx, %rax
 4016 1fcf 4889C7   		movq	%rax, %rdi
 4017              	.LEHB223:
 4018 1fd2 E8000000 		call	_Unwind_Resume
 4018      00
 4019              	.LEHE223:
 4020              	.L265:
 4021 1fd7 4889C7   		movq	%rax, %rdi
 4022 1fda E8000000 		call	__cxa_begin_catch
 4022      00
 4023              	.LEHB224:
 4024 1fdf E8000000 		call	_ZN8UnitTest11CurrentTest7DetailsEv
 4024      00
 4025 1fe4 488B08   		movq	(%rax), %rcx
 4026 1fe7 488D45D0 		leaq	-48(%rbp), %rax
 4027 1feb BA620000 		movl	$98, %edx
 4027      00
 4028 1ff0 4889CE   		movq	%rcx, %rsi
 4029 1ff3 4889C7   		movq	%rax, %rdi
 4030 1ff6 E8000000 		call	_ZN8UnitTest11TestDetailsC1ERKS0_i
 4030      00
  98:testConv.cpp  **** 	status = getHexByte("A5", &byte);
 4031              		.loc 3 98 0 is_stmt 0 discriminator 1
 4032 1ffb E8000000 		call	_ZN8UnitTest11CurrentTest7ResultsEv
 4032      00
 4033 2000 488B00   		movq	(%rax), %rax
 4034 2003 488D4DD0 		leaq	-48(%rbp), %rcx
 4035 2007 BA000000 		movl	$.LC27, %edx
 4035      00
 4036 200c 4889CE   		movq	%rcx, %rsi
 4037 200f 4889C7   		movq	%rax, %rdi
 4038 2012 E8000000 		call	_ZN8UnitTest11TestResults13OnTestFailureERKNS_11TestDetailsEPKc
 4038      00
 4039              	.LEHE224:
 4040              	.LEHB225:
 4041 2017 E8000000 		call	__cxa_end_catch
 4041      00
 4042              	.LEHE225:
 4043 201c E983FDFF 		jmp	.L244
 4043      FF
 4044              	.L268:
 4045 2021 4889C3   		movq	%rax, %rbx
 100:testConv.cpp  **** 	CHECK_EQUAL(0xA5, byte);
 4046              		.loc 3 100 0 is_stmt 1
 4047 2024 E8000000 		call	__cxa_end_catch
 4047      00
 4048 2029 4889D8   		movq	%rbx, %rax
 4049 202c 4889C7   		movq	%rax, %rdi
 4050              	.LEHB226:
 4051 202f E8000000 		call	_Unwind_Resume
 4051      00
 4052              	.LEHE226:
 4053              	.L267:
 4054 2034 4889C7   		movq	%rax, %rdi
 4055 2037 E8000000 		call	__cxa_begin_catch
 4055      00
 4056              	.LEHB227:
 4057 203c E8000000 		call	_ZN8UnitTest11CurrentTest7DetailsEv
 4057      00
 4058 2041 488B08   		movq	(%rax), %rcx
 4059 2044 488D45D0 		leaq	-48(%rbp), %rax
 4060 2048 BA640000 		movl	$100, %edx
 4060      00
 4061 204d 4889CE   		movq	%rcx, %rsi
 4062 2050 4889C7   		movq	%rax, %rdi
 4063 2053 E8000000 		call	_ZN8UnitTest11TestDetailsC1ERKS0_i
 4063      00
 100:testConv.cpp  **** 	CHECK_EQUAL(0xA5, byte);
 4064              		.loc 3 100 0 is_stmt 0 discriminator 1
 4065 2058 E8000000 		call	_ZN8UnitTest11CurrentTest7ResultsEv
 4065      00
 4066 205d 488B00   		movq	(%rax), %rax
 4067 2060 488D4DD0 		leaq	-48(%rbp), %rcx
 4068 2064 BA000000 		movl	$.LC3, %edx
 4068      00
 4069 2069 4889CE   		movq	%rcx, %rsi
 4070 206c 4889C7   		movq	%rax, %rdi
 4071 206f E8000000 		call	_ZN8UnitTest11TestResults13OnTestFailureERKNS_11TestDetailsEPKc
 4071      00
 4072              	.LEHE227:
 4073              	.LEHB228:
 4074 2074 E8000000 		call	__cxa_end_catch
 4074      00
 4075              	.LEHE228:
 4076 2079 E976FDFF 		jmp	.L247
 4076      FF
 4077              	.L270:
 4078 207e 4889C3   		movq	%rax, %rbx
 101:testConv.cpp  **** 	status = getHexByte("FF", &byte);
 4079              		.loc 3 101 0 is_stmt 1
 4080 2081 E8000000 		call	__cxa_end_catch
 4080      00
 4081 2086 4889D8   		movq	%rbx, %rax
 4082 2089 4889C7   		movq	%rax, %rdi
 4083              	.LEHB229:
 4084 208c E8000000 		call	_Unwind_Resume
 4084      00
 4085              	.LEHE229:
 4086              	.L269:
 4087 2091 4889C7   		movq	%rax, %rdi
 4088 2094 E8000000 		call	__cxa_begin_catch
 4088      00
 4089              	.LEHB230:
 4090 2099 E8000000 		call	_ZN8UnitTest11CurrentTest7DetailsEv
 4090      00
 4091 209e 488B08   		movq	(%rax), %rcx
 4092 20a1 488D45D0 		leaq	-48(%rbp), %rax
 4093 20a5 BA650000 		movl	$101, %edx
 4093      00
 4094 20aa 4889CE   		movq	%rcx, %rsi
 4095 20ad 4889C7   		movq	%rax, %rdi
 4096 20b0 E8000000 		call	_ZN8UnitTest11TestDetailsC1ERKS0_i
 4096      00
 101:testConv.cpp  **** 	status = getHexByte("FF", &byte);
 4097              		.loc 3 101 0 is_stmt 0 discriminator 1
 4098 20b5 E8000000 		call	_ZN8UnitTest11CurrentTest7ResultsEv
 4098      00
 4099 20ba 488B00   		movq	(%rax), %rax
 4100 20bd 488D4DD0 		leaq	-48(%rbp), %rcx
 4101 20c1 BA000000 		movl	$.LC28, %edx
 4101      00
 4102 20c6 4889CE   		movq	%rcx, %rsi
 4103 20c9 4889C7   		movq	%rax, %rdi
 4104 20cc E8000000 		call	_ZN8UnitTest11TestResults13OnTestFailureERKNS_11TestDetailsEPKc
 4104      00
 4105              	.LEHE230:
 4106              	.LEHB231:
 4107 20d1 E8000000 		call	__cxa_end_catch
 4107      00
 4108              	.LEHE231:
 4109 20d6 E958FDFF 		jmp	.L250
 4109      FF
 4110              	.L272:
 4111 20db 4889C3   		movq	%rax, %rbx
 103:testConv.cpp  **** 	CHECK_EQUAL(0xFF, byte);
 4112              		.loc 3 103 0 is_stmt 1
 4113 20de E8000000 		call	__cxa_end_catch
 4113      00
 4114 20e3 4889D8   		movq	%rbx, %rax
 4115 20e6 4889C7   		movq	%rax, %rdi
 4116              	.LEHB232:
 4117 20e9 E8000000 		call	_Unwind_Resume
 4117      00
 4118              	.LEHE232:
 4119              	.L271:
 4120 20ee 4889C7   		movq	%rax, %rdi
 4121 20f1 E8000000 		call	__cxa_begin_catch
 4121      00
 4122              	.LEHB233:
 4123 20f6 E8000000 		call	_ZN8UnitTest11CurrentTest7DetailsEv
 4123      00
 4124 20fb 488B08   		movq	(%rax), %rcx
 4125 20fe 488D45D0 		leaq	-48(%rbp), %rax
 4126 2102 BA670000 		movl	$103, %edx
 4126      00
 4127 2107 4889CE   		movq	%rcx, %rsi
 4128 210a 4889C7   		movq	%rax, %rdi
 4129 210d E8000000 		call	_ZN8UnitTest11TestDetailsC1ERKS0_i
 4129      00
 103:testConv.cpp  **** 	CHECK_EQUAL(0xFF, byte);
 4130              		.loc 3 103 0 is_stmt 0 discriminator 1
 4131 2112 E8000000 		call	_ZN8UnitTest11CurrentTest7ResultsEv
 4131      00
 4132 2117 488B00   		movq	(%rax), %rax
 4133 211a 488D4DD0 		leaq	-48(%rbp), %rcx
 4134 211e BA000000 		movl	$.LC3, %edx
 4134      00
 4135 2123 4889CE   		movq	%rcx, %rsi
 4136 2126 4889C7   		movq	%rax, %rdi
 4137 2129 E8000000 		call	_ZN8UnitTest11TestResults13OnTestFailureERKNS_11TestDetailsEPKc
 4137      00
 4138              	.LEHE233:
 4139              	.LEHB234:
 4140 212e E8000000 		call	__cxa_end_catch
 4140      00
 4141              	.LEHE234:
 4142 2133 E94BFDFF 		jmp	.L253
 4142      FF
 4143              	.L274:
 4144 2138 4889C3   		movq	%rax, %rbx
 104:testConv.cpp  **** 	status = getHexByte("GF", &byte);
 4145              		.loc 3 104 0 is_stmt 1
 4146 213b E8000000 		call	__cxa_end_catch
 4146      00
 4147 2140 4889D8   		movq	%rbx, %rax
 4148 2143 4889C7   		movq	%rax, %rdi
 4149              	.LEHB235:
 4150 2146 E8000000 		call	_Unwind_Resume
 4150      00
 4151              	.LEHE235:
 4152              	.L273:
 4153 214b 4889C7   		movq	%rax, %rdi
 4154 214e E8000000 		call	__cxa_begin_catch
 4154      00
 4155              	.LEHB236:
 4156 2153 E8000000 		call	_ZN8UnitTest11CurrentTest7DetailsEv
 4156      00
 4157 2158 488B08   		movq	(%rax), %rcx
 4158 215b 488D45D0 		leaq	-48(%rbp), %rax
 4159 215f BA680000 		movl	$104, %edx
 4159      00
 4160 2164 4889CE   		movq	%rcx, %rsi
 4161 2167 4889C7   		movq	%rax, %rdi
 4162 216a E8000000 		call	_ZN8UnitTest11TestDetailsC1ERKS0_i
 4162      00
 104:testConv.cpp  **** 	status = getHexByte("GF", &byte);
 4163              		.loc 3 104 0 is_stmt 0 discriminator 1
 4164 216f E8000000 		call	_ZN8UnitTest11CurrentTest7ResultsEv
 4164      00
 4165 2174 488B00   		movq	(%rax), %rax
 4166 2177 488D4DD0 		leaq	-48(%rbp), %rcx
 4167 217b BA000000 		movl	$.LC29, %edx
 4167      00
 4168 2180 4889CE   		movq	%rcx, %rsi
 4169 2183 4889C7   		movq	%rax, %rdi
 4170 2186 E8000000 		call	_ZN8UnitTest11TestResults13OnTestFailureERKNS_11TestDetailsEPKc
 4170      00
 4171              	.LEHE236:
 4172              	.LEHB237:
 4173 218b E8000000 		call	__cxa_end_catch
 4173      00
 4174              	.LEHE237:
 4175 2190 E92DFDFF 		jmp	.L256
 4175      FF
 4176              	.L276:
 4177 2195 4889C3   		movq	%rax, %rbx
 106:testConv.cpp  **** 	status = getHexByte("FG", &byte);
 4178              		.loc 3 106 0 is_stmt 1
 4179 2198 E8000000 		call	__cxa_end_catch
 4179      00
 4180 219d 4889D8   		movq	%rbx, %rax
 4181 21a0 4889C7   		movq	%rax, %rdi
 4182              	.LEHB238:
 4183 21a3 E8000000 		call	_Unwind_Resume
 4183      00
 4184              	.LEHE238:
 4185              	.L275:
 4186 21a8 4889C7   		movq	%rax, %rdi
 4187 21ab E8000000 		call	__cxa_begin_catch
 4187      00
 4188              	.LEHB239:
 4189 21b0 E8000000 		call	_ZN8UnitTest11CurrentTest7DetailsEv
 4189      00
 4190 21b5 488B08   		movq	(%rax), %rcx
 4191 21b8 488D45D0 		leaq	-48(%rbp), %rax
 4192 21bc BA6A0000 		movl	$106, %edx
 4192      00
 4193 21c1 4889CE   		movq	%rcx, %rsi
 4194 21c4 4889C7   		movq	%rax, %rdi
 4195 21c7 E8000000 		call	_ZN8UnitTest11TestDetailsC1ERKS0_i
 4195      00
 106:testConv.cpp  **** 	status = getHexByte("FG", &byte);
 4196              		.loc 3 106 0 is_stmt 0 discriminator 1
 4197 21cc E8000000 		call	_ZN8UnitTest11CurrentTest7ResultsEv
 4197      00
 4198 21d1 488B00   		movq	(%rax), %rax
 4199 21d4 488D4DD0 		leaq	-48(%rbp), %rcx
 4200 21d8 BA000000 		movl	$.LC20, %edx
 4200      00
 4201 21dd 4889CE   		movq	%rcx, %rsi
 4202 21e0 4889C7   		movq	%rax, %rdi
 4203 21e3 E8000000 		call	_ZN8UnitTest11TestResults13OnTestFailureERKNS_11TestDetailsEPKc
 4203      00
 4204              	.LEHE239:
 4205              	.LEHB240:
 4206 21e8 E8000000 		call	__cxa_end_catch
 4206      00
 4207              	.LEHE240:
 4208 21ed E920FDFF 		jmp	.L259
 4208      FF
 4209              	.L278:
 4210 21f2 4889C3   		movq	%rax, %rbx
 108:testConv.cpp  **** }
 4211              		.loc 3 108 0 is_stmt 1
 4212 21f5 E8000000 		call	__cxa_end_catch
 4212      00
 4213 21fa 4889D8   		movq	%rbx, %rax
 4214 21fd 4889C7   		movq	%rax, %rdi
 4215              	.LEHB241:
 4216 2200 E8000000 		call	_Unwind_Resume
 4216      00
 4217              	.LEHE241:
 4218              	.L277:
 4219 2205 4889C7   		movq	%rax, %rdi
 4220 2208 E8000000 		call	__cxa_begin_catch
 4220      00
 4221              	.LEHB242:
 4222 220d E8000000 		call	_ZN8UnitTest11CurrentTest7DetailsEv
 4222      00
 4223 2212 488B08   		movq	(%rax), %rcx
 4224 2215 488D45D0 		leaq	-48(%rbp), %rax
 4225 2219 BA6C0000 		movl	$108, %edx
 4225      00
 4226 221e 4889CE   		movq	%rcx, %rsi
 4227 2221 4889C7   		movq	%rax, %rdi
 4228 2224 E8000000 		call	_ZN8UnitTest11TestDetailsC1ERKS0_i
 4228      00
 108:testConv.cpp  **** }
 4229              		.loc 3 108 0 is_stmt 0 discriminator 1
 4230 2229 E8000000 		call	_ZN8UnitTest11CurrentTest7ResultsEv
 4230      00
 4231 222e 488B00   		movq	(%rax), %rax
 4232 2231 488D4DD0 		leaq	-48(%rbp), %rcx
 4233 2235 BA000000 		movl	$.LC20, %edx
 4233      00
 4234 223a 4889CE   		movq	%rcx, %rsi
 4235 223d 4889C7   		movq	%rax, %rdi
 4236 2240 E8000000 		call	_ZN8UnitTest11TestResults13OnTestFailureERKNS_11TestDetailsEPKc
 4236      00
 4237              	.LEHE242:
 4238              	.LEHB243:
 4239 2245 E8000000 		call	__cxa_end_catch
 4239      00
 4240              	.LEHE243:
 4241              	.L279:
 4242              	.LBE9:
 4243              		.loc 3 109 0 is_stmt 1
 4244 224a 90       		nop
 4245 224b 4883C448 		addq	$72, %rsp
 4246 224f 5B       		popq	%rbx
 4247 2250 5D       		popq	%rbp
 4248              		.cfi_def_cfa 7, 8
 4249 2251 C3       		ret
 4250              		.cfi_endproc
 4251              	.LFE1030:
 4252              		.section	.gcc_except_table
 4253              		.align 4
 4254              	.LLSDA1030:
 4255 045c FF       		.byte	0xff
 4256 045d 03       		.byte	0x3
 4257 045e D001     		.uleb128 .LLSDATT1030-.LLSDATTD1030
 4258              	.LLSDATTD1030:
 4259 0460 01       		.byte	0x1
 4260 0461 C601     		.uleb128 .LLSDACSE1030-.LLSDACSB1030
 4261              	.LLSDACSB1030:
 4262 0463 19       		.uleb128 .LEHB207-.LFB1030
 4263 0464 05       		.uleb128 .LEHE207-.LEHB207
 4264 0465 00       		.uleb128 0
 4265 0466 00       		.uleb128 0
 4266 0467 21       		.uleb128 .LEHB208-.LFB1030
 4267 0468 3C       		.uleb128 .LEHE208-.LEHB208
 4268 0469 F204     		.uleb128 .L263-.LFB1030
 4269 046b 01       		.uleb128 0x1
 4270 046c 5D       		.uleb128 .LEHB209-.LFB1030
 4271 046d 3F       		.uleb128 .LEHE209-.LEHB209
 4272 046e CF05     		.uleb128 .L265-.LFB1030
 4273 0470 01       		.uleb128 0x1
 4274 0471 A801     		.uleb128 .LEHB210-.LFB1030
 4275 0473 05       		.uleb128 .LEHE210-.LEHB210
 4276 0474 00       		.uleb128 0
 4277 0475 00       		.uleb128 0
 4278 0476 B001     		.uleb128 .LEHB211-.LFB1030
 4279 0478 3C       		.uleb128 .LEHE211-.LEHB211
 4280 0479 AC06     		.uleb128 .L267-.LFB1030
 4281 047b 01       		.uleb128 0x1
 4282 047c EC01     		.uleb128 .LEHB212-.LFB1030
 4283 047e 3F       		.uleb128 .LEHE212-.LEHB212
 4284 047f 8907     		.uleb128 .L269-.LFB1030
 4285 0481 01       		.uleb128 0x1
 4286 0482 B702     		.uleb128 .LEHB213-.LFB1030
 4287 0484 05       		.uleb128 .LEHE213-.LEHB213
 4288 0485 00       		.uleb128 0
 4289 0486 00       		.uleb128 0
 4290 0487 BF02     		.uleb128 .LEHB214-.LFB1030
 4291 0489 3C       		.uleb128 .LEHE214-.LEHB214
 4292 048a E607     		.uleb128 .L271-.LFB1030
 4293 048c 01       		.uleb128 0x1
 4294 048d FB02     		.uleb128 .LEHB215-.LFB1030
 4295 048f 3F       		.uleb128 .LEHE215-.LEHB215
 4296 0490 C308     		.uleb128 .L273-.LFB1030
 4297 0492 01       		.uleb128 0x1
 4298 0493 C603     		.uleb128 .LEHB216-.LFB1030
 4299 0495 05       		.uleb128 .LEHE216-.LEHB216
 4300 0496 00       		.uleb128 0
 4301 0497 00       		.uleb128 0
 4302 0498 CE03     		.uleb128 .LEHB217-.LFB1030
 4303 049a 3C       		.uleb128 .LEHE217-.LEHB217
 4304 049b A009     		.uleb128 .L275-.LFB1030
 4305 049d 01       		.uleb128 0x1
 4306 049e 9604     		.uleb128 .LEHB218-.LFB1030
 4307 04a0 05       		.uleb128 .LEHE218-.LEHB218
 4308 04a1 00       		.uleb128 0
 4309 04a2 00       		.uleb128 0
 4310 04a3 9E04     		.uleb128 .LEHB219-.LFB1030
 4311 04a5 3C       		.uleb128 .LEHE219-.LEHB219
 4312 04a6 FD09     		.uleb128 .L277-.LFB1030
 4313 04a8 01       		.uleb128 0x1
 4314 04a9 ED04     		.uleb128 .LEHB220-.LFB1030
 4315 04ab 05       		.uleb128 .LEHE220-.LEHB220
 4316 04ac 00       		.uleb128 0
 4317 04ad 00       		.uleb128 0
 4318 04ae FA04     		.uleb128 .LEHB221-.LFB1030
 4319 04b0 38       		.uleb128 .LEHE221-.LEHB221
 4320 04b1 DF04     		.uleb128 .L264-.LFB1030
 4321 04b3 00       		.uleb128 0
 4322 04b4 B205     		.uleb128 .LEHB222-.LFB1030
 4323 04b6 05       		.uleb128 .LEHE222-.LEHB222
 4324 04b7 00       		.uleb128 0
 4325 04b8 00       		.uleb128 0
 4326 04b9 CA05     		.uleb128 .LEHB223-.LFB1030
 4327 04bb 05       		.uleb128 .LEHE223-.LEHB223
 4328 04bc 00       		.uleb128 0
 4329 04bd 00       		.uleb128 0
 4330 04be D705     		.uleb128 .LEHB224-.LFB1030
 4331 04c0 38       		.uleb128 .LEHE224-.LEHB224
 4332 04c1 BC05     		.uleb128 .L266-.LFB1030
 4333 04c3 00       		.uleb128 0
 4334 04c4 8F06     		.uleb128 .LEHB225-.LFB1030
 4335 04c6 05       		.uleb128 .LEHE225-.LEHB225
 4336 04c7 00       		.uleb128 0
 4337 04c8 00       		.uleb128 0
 4338 04c9 A706     		.uleb128 .LEHB226-.LFB1030
 4339 04cb 05       		.uleb128 .LEHE226-.LEHB226
 4340 04cc 00       		.uleb128 0
 4341 04cd 00       		.uleb128 0
 4342 04ce B406     		.uleb128 .LEHB227-.LFB1030
 4343 04d0 38       		.uleb128 .LEHE227-.LEHB227
 4344 04d1 9906     		.uleb128 .L268-.LFB1030
 4345 04d3 00       		.uleb128 0
 4346 04d4 EC06     		.uleb128 .LEHB228-.LFB1030
 4347 04d6 05       		.uleb128 .LEHE228-.LEHB228
 4348 04d7 00       		.uleb128 0
 4349 04d8 00       		.uleb128 0
 4350 04d9 8407     		.uleb128 .LEHB229-.LFB1030
 4351 04db 05       		.uleb128 .LEHE229-.LEHB229
 4352 04dc 00       		.uleb128 0
 4353 04dd 00       		.uleb128 0
 4354 04de 9107     		.uleb128 .LEHB230-.LFB1030
 4355 04e0 38       		.uleb128 .LEHE230-.LEHB230
 4356 04e1 F606     		.uleb128 .L270-.LFB1030
 4357 04e3 00       		.uleb128 0
 4358 04e4 C907     		.uleb128 .LEHB231-.LFB1030
 4359 04e6 05       		.uleb128 .LEHE231-.LEHB231
 4360 04e7 00       		.uleb128 0
 4361 04e8 00       		.uleb128 0
 4362 04e9 E107     		.uleb128 .LEHB232-.LFB1030
 4363 04eb 05       		.uleb128 .LEHE232-.LEHB232
 4364 04ec 00       		.uleb128 0
 4365 04ed 00       		.uleb128 0
 4366 04ee EE07     		.uleb128 .LEHB233-.LFB1030
 4367 04f0 38       		.uleb128 .LEHE233-.LEHB233
 4368 04f1 D307     		.uleb128 .L272-.LFB1030
 4369 04f3 00       		.uleb128 0
 4370 04f4 A608     		.uleb128 .LEHB234-.LFB1030
 4371 04f6 05       		.uleb128 .LEHE234-.LEHB234
 4372 04f7 00       		.uleb128 0
 4373 04f8 00       		.uleb128 0
 4374 04f9 BE08     		.uleb128 .LEHB235-.LFB1030
 4375 04fb 05       		.uleb128 .LEHE235-.LEHB235
 4376 04fc 00       		.uleb128 0
 4377 04fd 00       		.uleb128 0
 4378 04fe CB08     		.uleb128 .LEHB236-.LFB1030
 4379 0500 38       		.uleb128 .LEHE236-.LEHB236
 4380 0501 B008     		.uleb128 .L274-.LFB1030
 4381 0503 00       		.uleb128 0
 4382 0504 8309     		.uleb128 .LEHB237-.LFB1030
 4383 0506 05       		.uleb128 .LEHE237-.LEHB237
 4384 0507 00       		.uleb128 0
 4385 0508 00       		.uleb128 0
 4386 0509 9B09     		.uleb128 .LEHB238-.LFB1030
 4387 050b 05       		.uleb128 .LEHE238-.LEHB238
 4388 050c 00       		.uleb128 0
 4389 050d 00       		.uleb128 0
 4390 050e A809     		.uleb128 .LEHB239-.LFB1030
 4391 0510 38       		.uleb128 .LEHE239-.LEHB239
 4392 0511 8D09     		.uleb128 .L276-.LFB1030
 4393 0513 00       		.uleb128 0
 4394 0514 E009     		.uleb128 .LEHB240-.LFB1030
 4395 0516 05       		.uleb128 .LEHE240-.LEHB240
 4396 0517 00       		.uleb128 0
 4397 0518 00       		.uleb128 0
 4398 0519 F809     		.uleb128 .LEHB241-.LFB1030
 4399 051b 05       		.uleb128 .LEHE241-.LEHB241
 4400 051c 00       		.uleb128 0
 4401 051d 00       		.uleb128 0
 4402 051e 850A     		.uleb128 .LEHB242-.LFB1030
 4403 0520 38       		.uleb128 .LEHE242-.LEHB242
 4404 0521 EA09     		.uleb128 .L278-.LFB1030
 4405 0523 00       		.uleb128 0
 4406 0524 BD0A     		.uleb128 .LEHB243-.LFB1030
 4407 0526 05       		.uleb128 .LEHE243-.LEHB243
 4408 0527 00       		.uleb128 0
 4409 0528 00       		.uleb128 0
 4410              	.LLSDACSE1030:
 4411 0529 01       		.byte	0x1
 4412 052a 00       		.byte	0
 4413 052b 00       		.align 4
 4414 052c 00000000 		.long	0
 4415              	
 4416              	.LLSDATT1030:
 4417              		.text
 4419              		.section	.rodata
 4420              	.LC30:
 4421 044f 436F6E76 		.string	"Conv_testGetHexUpperNibble"
 4421      5F746573 
 4421      74476574 
 4421      48657855 
 4421      70706572 
 4422              		.section	.text._ZN30TestConv_testGetHexUpperNibbleC2Ev,"axG",@progbits,_ZN30TestConv_testGetHexUpp
 4423              		.align 2
 4424              		.weak	_ZN30TestConv_testGetHexUpperNibbleC2Ev
 4426              	_ZN30TestConv_testGetHexUpperNibbleC2Ev:
 4427              	.LFB1032:
 110:testConv.cpp  **** 
 111:testConv.cpp  **** TEST(Conv_testGetHexUpperNibble) {
 4428              		.loc 3 111 0
 4429              		.cfi_startproc
 4430 0000 55       		pushq	%rbp
 4431              		.cfi_def_cfa_offset 16
 4432              		.cfi_offset 6, -16
 4433 0001 4889E5   		movq	%rsp, %rbp
 4434              		.cfi_def_cfa_register 6
 4435 0004 4883EC10 		subq	$16, %rsp
 4436 0008 48897DF8 		movq	%rdi, -8(%rbp)
 4437              	.LBB10:
 4438              		.loc 3 111 0
 4439 000c E8000000 		call	_ZN13UnitTestSuite12GetSuiteNameEv
 4439      00
 4440 0011 4889C2   		movq	%rax, %rdx
 4441 0014 488B45F8 		movq	-8(%rbp), %rax
 4442 0018 41B86F00 		movl	$111, %r8d
 4442      0000
 4443 001e B9000000 		movl	$.LC1, %ecx
 4443      00
 4444 0023 BE000000 		movl	$.LC30, %esi
 4444      00
 4445 0028 4889C7   		movq	%rax, %rdi
 4446 002b E8000000 		call	_ZN8UnitTest4TestC2EPKcS2_S2_i
 4446      00
 4447 0030 488B45F8 		movq	-8(%rbp), %rax
 4448 0034 48C70000 		movq	$_ZTV30TestConv_testGetHexUpperNibble+16, (%rax)
 4448      000000
 4449              	.LBE10:
 4450 003b C9       		leave
 4451              		.cfi_def_cfa 7, 8
 4452 003c C3       		ret
 4453              		.cfi_endproc
 4454              	.LFE1032:
 4456              		.weak	_ZN30TestConv_testGetHexUpperNibbleC1Ev
 4457              		.set	_ZN30TestConv_testGetHexUpperNibbleC1Ev,_ZN30TestConv_testGetHexUpperNibbleC2Ev
 4458              		.globl	testConv_testGetHexUpperNibbleInstance
 4459              		.bss
 4460 0079 00000000 		.align 32
 4460      000000
 4463              	testConv_testGetHexUpperNibbleInstance:
 4464 0080 00000000 		.zero	56
 4464      00000000 
 4464      00000000 
 4464      00000000 
 4464      00000000 
 4465              		.globl	adderConv_testGetHexUpperNibble
 4468              	adderConv_testGetHexUpperNibble:
 4469 00b8 00       		.zero	1
 4470              		.section	.rodata
 4471 046a 00000000 		.align 8
 4471      0000
 4472              	.LC31:
 4473 0470 556E6861 		.string	"Unhandled exception in CHECK_EQUAL('0', getHexUpperNibble(0x0F))"
 4473      6E646C65 
 4473      64206578 
 4473      63657074 
 4473      696F6E20 
 4474 04b1 00000000 		.align 8
 4474      000000
 4475              	.LC32:
 4476 04b8 556E6861 		.string	"Unhandled exception in CHECK_EQUAL('1', getHexUpperNibble(0x1F))"
 4476      6E646C65 
 4476      64206578 
 4476      63657074 
 4476      696F6E20 
 4477 04f9 00000000 		.align 8
 4477      000000
 4478              	.LC33:
 4479 0500 556E6861 		.string	"Unhandled exception in CHECK_EQUAL('2', getHexUpperNibble(0x2F))"
 4479      6E646C65 
 4479      64206578 
 4479      63657074 
 4479      696F6E20 
 4480 0541 00000000 		.align 8
 4480      000000
 4481              	.LC34:
 4482 0548 556E6861 		.string	"Unhandled exception in CHECK_EQUAL('3', getHexUpperNibble(0x3F))"
 4482      6E646C65 
 4482      64206578 
 4482      63657074 
 4482      696F6E20 
 4483 0589 00000000 		.align 8
 4483      000000
 4484              	.LC35:
 4485 0590 556E6861 		.string	"Unhandled exception in CHECK_EQUAL('4', getHexUpperNibble(0x4F))"
 4485      6E646C65 
 4485      64206578 
 4485      63657074 
 4485      696F6E20 
 4486 05d1 00000000 		.align 8
 4486      000000
 4487              	.LC36:
 4488 05d8 556E6861 		.string	"Unhandled exception in CHECK_EQUAL('5', getHexUpperNibble(0x5F))"
 4488      6E646C65 
 4488      64206578 
 4488      63657074 
 4488      696F6E20 
 4489 0619 00000000 		.align 8
 4489      000000
 4490              	.LC37:
 4491 0620 556E6861 		.string	"Unhandled exception in CHECK_EQUAL('6', getHexUpperNibble(0x6F))"
 4491      6E646C65 
 4491      64206578 
 4491      63657074 
 4491      696F6E20 
 4492 0661 00000000 		.align 8
 4492      000000
 4493              	.LC38:
 4494 0668 556E6861 		.string	"Unhandled exception in CHECK_EQUAL('7', getHexUpperNibble(0x7F))"
 4494      6E646C65 
 4494      64206578 
 4494      63657074 
 4494      696F6E20 
 4495 06a9 00000000 		.align 8
 4495      000000
 4496              	.LC39:
 4497 06b0 556E6861 		.string	"Unhandled exception in CHECK_EQUAL('8', getHexUpperNibble(0x8F))"
 4497      6E646C65 
 4497      64206578 
 4497      63657074 
 4497      696F6E20 
 4498 06f1 00000000 		.align 8
 4498      000000
 4499              	.LC40:
 4500 06f8 556E6861 		.string	"Unhandled exception in CHECK_EQUAL('9', getHexUpperNibble(0x9F))"
 4500      6E646C65 
 4500      64206578 
 4500      63657074 
 4500      696F6E20 
 4501 0739 00000000 		.align 8
 4501      000000
 4502              	.LC41:
 4503 0740 556E6861 		.string	"Unhandled exception in CHECK_EQUAL('A', getHexUpperNibble(0xAF))"
 4503      6E646C65 
 4503      64206578 
 4503      63657074 
 4503      696F6E20 
 4504 0781 00000000 		.align 8
 4504      000000
 4505              	.LC42:
 4506 0788 556E6861 		.string	"Unhandled exception in CHECK_EQUAL('B', getHexUpperNibble(0xBF))"
 4506      6E646C65 
 4506      64206578 
 4506      63657074 
 4506      696F6E20 
 4507 07c9 00000000 		.align 8
 4507      000000
 4508              	.LC43:
 4509 07d0 556E6861 		.string	"Unhandled exception in CHECK_EQUAL('C', getHexUpperNibble(0xCF))"
 4509      6E646C65 
 4509      64206578 
 4509      63657074 
 4509      696F6E20 
 4510 0811 00000000 		.align 8
 4510      000000
 4511              	.LC44:
 4512 0818 556E6861 		.string	"Unhandled exception in CHECK_EQUAL('D', getHexUpperNibble(0xDF))"
 4512      6E646C65 
 4512      64206578 
 4512      63657074 
 4512      696F6E20 
 4513 0859 00000000 		.align 8
 4513      000000
 4514              	.LC45:
 4515 0860 556E6861 		.string	"Unhandled exception in CHECK_EQUAL('E', getHexUpperNibble(0xEF))"
 4515      6E646C65 
 4515      64206578 
 4515      63657074 
 4515      696F6E20 
 4516 08a1 00000000 		.align 8
 4516      000000
 4517              	.LC46:
 4518 08a8 556E6861 		.string	"Unhandled exception in CHECK_EQUAL('F', getHexUpperNibble(0xFF))"
 4518      6E646C65 
 4518      64206578 
 4518      63657074 
 4518      696F6E20 
 4519              		.text
 4520              		.align 2
 4521              		.globl	_ZNK30TestConv_testGetHexUpperNibble7RunImplEv
 4523              	_ZNK30TestConv_testGetHexUpperNibble7RunImplEv:
 4524              	.LFB1034:
 4525              		.loc 3 111 0
 4526              		.cfi_startproc
 4527              		.cfi_personality 0x3,__gxx_personality_v0
 4528              		.cfi_lsda 0x3,.LLSDA1034
 4529 2252 55       		pushq	%rbp
 4530              		.cfi_def_cfa_offset 16
 4531              		.cfi_offset 6, -16
 4532 2253 4889E5   		movq	%rsp, %rbp
 4533              		.cfi_def_cfa_register 6
 4534 2256 53       		pushq	%rbx
 4535 2257 4883EC48 		subq	$72, %rsp
 4536              		.cfi_offset 3, -24
 4537 225b 48897DB8 		movq	%rdi, -72(%rbp)
 4538              	.LEHB244:
 112:testConv.cpp  **** 	CHECK_EQUAL('0', getHexUpperNibble(0x0F));
 4539              		.loc 3 112 0
 4540 225f E8000000 		call	_ZN8UnitTest11CurrentTest7DetailsEv
 4540      00
 4541 2264 488B08   		movq	(%rax), %rcx
 4542 2267 488D45D0 		leaq	-48(%rbp), %rax
 4543 226b BA700000 		movl	$112, %edx
 4543      00
 4544 2270 4889CE   		movq	%rcx, %rsi
 4545 2273 4889C7   		movq	%rax, %rdi
 4546 2276 E8000000 		call	_ZN8UnitTest11TestDetailsC1ERKS0_i
 4546      00
 4547              		.loc 3 112 0 is_stmt 0 discriminator 1
 4548 227b BF0F0000 		movl	$15, %edi
 4548      00
 4549 2280 E8000000 		call	getHexUpperNibble
 4549      00
 4550 2285 8845CF   		movb	%al, -49(%rbp)
 4551 2288 C645CE30 		movb	$48, -50(%rbp)
 4552 228c E8000000 		call	_ZN8UnitTest11CurrentTest7ResultsEv
 4552      00
 4553 2291 488B00   		movq	(%rax), %rax
 4554 2294 488D4DD0 		leaq	-48(%rbp), %rcx
 4555 2298 488D55CF 		leaq	-49(%rbp), %rdx
 4556 229c 488D75CE 		leaq	-50(%rbp), %rsi
 4557 22a0 4889C7   		movq	%rax, %rdi
 4558 22a3 E8000000 		call	_ZN8UnitTest10CheckEqualIccEEvRNS_11TestResultsERKT_RKT0_RKNS_11TestDetailsE
 4558      00
 4559              	.LEHE244:
 4560              	.L284:
 4561              	.LEHB245:
 113:testConv.cpp  **** 	CHECK_EQUAL('1', getHexUpperNibble(0x1F));
 4562              		.loc 3 113 0 is_stmt 1
 4563 22a8 E8000000 		call	_ZN8UnitTest11CurrentTest7DetailsEv
 4563      00
 4564 22ad 488B08   		movq	(%rax), %rcx
 4565 22b0 488D45D0 		leaq	-48(%rbp), %rax
 4566 22b4 BA710000 		movl	$113, %edx
 4566      00
 4567 22b9 4889CE   		movq	%rcx, %rsi
 4568 22bc 4889C7   		movq	%rax, %rdi
 4569 22bf E8000000 		call	_ZN8UnitTest11TestDetailsC1ERKS0_i
 4569      00
 4570              		.loc 3 113 0 is_stmt 0 discriminator 1
 4571 22c4 BF1F0000 		movl	$31, %edi
 4571      00
 4572 22c9 E8000000 		call	getHexUpperNibble
 4572      00
 4573 22ce 8845CF   		movb	%al, -49(%rbp)
 4574 22d1 C645CE31 		movb	$49, -50(%rbp)
 4575 22d5 E8000000 		call	_ZN8UnitTest11CurrentTest7ResultsEv
 4575      00
 4576 22da 488B00   		movq	(%rax), %rax
 4577 22dd 488D4DD0 		leaq	-48(%rbp), %rcx
 4578 22e1 488D55CF 		leaq	-49(%rbp), %rdx
 4579 22e5 488D75CE 		leaq	-50(%rbp), %rsi
 4580 22e9 4889C7   		movq	%rax, %rdi
 4581 22ec E8000000 		call	_ZN8UnitTest10CheckEqualIccEEvRNS_11TestResultsERKT_RKT0_RKNS_11TestDetailsE
 4581      00
 4582              	.LEHE245:
 4583              	.L287:
 4584              	.LEHB246:
 114:testConv.cpp  **** 	CHECK_EQUAL('2', getHexUpperNibble(0x2F));
 4585              		.loc 3 114 0 is_stmt 1
 4586 22f1 E8000000 		call	_ZN8UnitTest11CurrentTest7DetailsEv
 4586      00
 4587 22f6 488B08   		movq	(%rax), %rcx
 4588 22f9 488D45D0 		leaq	-48(%rbp), %rax
 4589 22fd BA720000 		movl	$114, %edx
 4589      00
 4590 2302 4889CE   		movq	%rcx, %rsi
 4591 2305 4889C7   		movq	%rax, %rdi
 4592 2308 E8000000 		call	_ZN8UnitTest11TestDetailsC1ERKS0_i
 4592      00
 4593              		.loc 3 114 0 is_stmt 0 discriminator 1
 4594 230d BF2F0000 		movl	$47, %edi
 4594      00
 4595 2312 E8000000 		call	getHexUpperNibble
 4595      00
 4596 2317 8845CF   		movb	%al, -49(%rbp)
 4597 231a C645CE32 		movb	$50, -50(%rbp)
 4598 231e E8000000 		call	_ZN8UnitTest11CurrentTest7ResultsEv
 4598      00
 4599 2323 488B00   		movq	(%rax), %rax
 4600 2326 488D4DD0 		leaq	-48(%rbp), %rcx
 4601 232a 488D55CF 		leaq	-49(%rbp), %rdx
 4602 232e 488D75CE 		leaq	-50(%rbp), %rsi
 4603 2332 4889C7   		movq	%rax, %rdi
 4604 2335 E8000000 		call	_ZN8UnitTest10CheckEqualIccEEvRNS_11TestResultsERKT_RKT0_RKNS_11TestDetailsE
 4604      00
 4605              	.LEHE246:
 4606              	.L290:
 4607              	.LEHB247:
 115:testConv.cpp  **** 	CHECK_EQUAL('3', getHexUpperNibble(0x3F));
 4608              		.loc 3 115 0 is_stmt 1
 4609 233a E8000000 		call	_ZN8UnitTest11CurrentTest7DetailsEv
 4609      00
 4610 233f 488B08   		movq	(%rax), %rcx
 4611 2342 488D45D0 		leaq	-48(%rbp), %rax
 4612 2346 BA730000 		movl	$115, %edx
 4612      00
 4613 234b 4889CE   		movq	%rcx, %rsi
 4614 234e 4889C7   		movq	%rax, %rdi
 4615 2351 E8000000 		call	_ZN8UnitTest11TestDetailsC1ERKS0_i
 4615      00
 4616              		.loc 3 115 0 is_stmt 0 discriminator 1
 4617 2356 BF3F0000 		movl	$63, %edi
 4617      00
 4618 235b E8000000 		call	getHexUpperNibble
 4618      00
 4619 2360 8845CF   		movb	%al, -49(%rbp)
 4620 2363 C645CE33 		movb	$51, -50(%rbp)
 4621 2367 E8000000 		call	_ZN8UnitTest11CurrentTest7ResultsEv
 4621      00
 4622 236c 488B00   		movq	(%rax), %rax
 4623 236f 488D4DD0 		leaq	-48(%rbp), %rcx
 4624 2373 488D55CF 		leaq	-49(%rbp), %rdx
 4625 2377 488D75CE 		leaq	-50(%rbp), %rsi
 4626 237b 4889C7   		movq	%rax, %rdi
 4627 237e E8000000 		call	_ZN8UnitTest10CheckEqualIccEEvRNS_11TestResultsERKT_RKT0_RKNS_11TestDetailsE
 4627      00
 4628              	.LEHE247:
 4629              	.L293:
 4630              	.LEHB248:
 116:testConv.cpp  **** 	CHECK_EQUAL('4', getHexUpperNibble(0x4F));
 4631              		.loc 3 116 0 is_stmt 1
 4632 2383 E8000000 		call	_ZN8UnitTest11CurrentTest7DetailsEv
 4632      00
 4633 2388 488B08   		movq	(%rax), %rcx
 4634 238b 488D45D0 		leaq	-48(%rbp), %rax
 4635 238f BA740000 		movl	$116, %edx
 4635      00
 4636 2394 4889CE   		movq	%rcx, %rsi
 4637 2397 4889C7   		movq	%rax, %rdi
 4638 239a E8000000 		call	_ZN8UnitTest11TestDetailsC1ERKS0_i
 4638      00
 4639              		.loc 3 116 0 is_stmt 0 discriminator 1
 4640 239f BF4F0000 		movl	$79, %edi
 4640      00
 4641 23a4 E8000000 		call	getHexUpperNibble
 4641      00
 4642 23a9 8845CF   		movb	%al, -49(%rbp)
 4643 23ac C645CE34 		movb	$52, -50(%rbp)
 4644 23b0 E8000000 		call	_ZN8UnitTest11CurrentTest7ResultsEv
 4644      00
 4645 23b5 488B00   		movq	(%rax), %rax
 4646 23b8 488D4DD0 		leaq	-48(%rbp), %rcx
 4647 23bc 488D55CF 		leaq	-49(%rbp), %rdx
 4648 23c0 488D75CE 		leaq	-50(%rbp), %rsi
 4649 23c4 4889C7   		movq	%rax, %rdi
 4650 23c7 E8000000 		call	_ZN8UnitTest10CheckEqualIccEEvRNS_11TestResultsERKT_RKT0_RKNS_11TestDetailsE
 4650      00
 4651              	.LEHE248:
 4652              	.L296:
 4653              	.LEHB249:
 117:testConv.cpp  **** 	CHECK_EQUAL('5', getHexUpperNibble(0x5F));
 4654              		.loc 3 117 0 is_stmt 1
 4655 23cc E8000000 		call	_ZN8UnitTest11CurrentTest7DetailsEv
 4655      00
 4656 23d1 488B08   		movq	(%rax), %rcx
 4657 23d4 488D45D0 		leaq	-48(%rbp), %rax
 4658 23d8 BA750000 		movl	$117, %edx
 4658      00
 4659 23dd 4889CE   		movq	%rcx, %rsi
 4660 23e0 4889C7   		movq	%rax, %rdi
 4661 23e3 E8000000 		call	_ZN8UnitTest11TestDetailsC1ERKS0_i
 4661      00
 4662              		.loc 3 117 0 is_stmt 0 discriminator 1
 4663 23e8 BF5F0000 		movl	$95, %edi
 4663      00
 4664 23ed E8000000 		call	getHexUpperNibble
 4664      00
 4665 23f2 8845CF   		movb	%al, -49(%rbp)
 4666 23f5 C645CE35 		movb	$53, -50(%rbp)
 4667 23f9 E8000000 		call	_ZN8UnitTest11CurrentTest7ResultsEv
 4667      00
 4668 23fe 488B00   		movq	(%rax), %rax
 4669 2401 488D4DD0 		leaq	-48(%rbp), %rcx
 4670 2405 488D55CF 		leaq	-49(%rbp), %rdx
 4671 2409 488D75CE 		leaq	-50(%rbp), %rsi
 4672 240d 4889C7   		movq	%rax, %rdi
 4673 2410 E8000000 		call	_ZN8UnitTest10CheckEqualIccEEvRNS_11TestResultsERKT_RKT0_RKNS_11TestDetailsE
 4673      00
 4674              	.LEHE249:
 4675              	.L299:
 4676              	.LEHB250:
 118:testConv.cpp  **** 	CHECK_EQUAL('6', getHexUpperNibble(0x6F));
 4677              		.loc 3 118 0 is_stmt 1
 4678 2415 E8000000 		call	_ZN8UnitTest11CurrentTest7DetailsEv
 4678      00
 4679 241a 488B08   		movq	(%rax), %rcx
 4680 241d 488D45D0 		leaq	-48(%rbp), %rax
 4681 2421 BA760000 		movl	$118, %edx
 4681      00
 4682 2426 4889CE   		movq	%rcx, %rsi
 4683 2429 4889C7   		movq	%rax, %rdi
 4684 242c E8000000 		call	_ZN8UnitTest11TestDetailsC1ERKS0_i
 4684      00
 4685              		.loc 3 118 0 is_stmt 0 discriminator 1
 4686 2431 BF6F0000 		movl	$111, %edi
 4686      00
 4687 2436 E8000000 		call	getHexUpperNibble
 4687      00
 4688 243b 8845CF   		movb	%al, -49(%rbp)
 4689 243e C645CE36 		movb	$54, -50(%rbp)
 4690 2442 E8000000 		call	_ZN8UnitTest11CurrentTest7ResultsEv
 4690      00
 4691 2447 488B00   		movq	(%rax), %rax
 4692 244a 488D4DD0 		leaq	-48(%rbp), %rcx
 4693 244e 488D55CF 		leaq	-49(%rbp), %rdx
 4694 2452 488D75CE 		leaq	-50(%rbp), %rsi
 4695 2456 4889C7   		movq	%rax, %rdi
 4696 2459 E8000000 		call	_ZN8UnitTest10CheckEqualIccEEvRNS_11TestResultsERKT_RKT0_RKNS_11TestDetailsE
 4696      00
 4697              	.LEHE250:
 4698              	.L302:
 4699              	.LEHB251:
 119:testConv.cpp  **** 	CHECK_EQUAL('7', getHexUpperNibble(0x7F));
 4700              		.loc 3 119 0 is_stmt 1
 4701 245e E8000000 		call	_ZN8UnitTest11CurrentTest7DetailsEv
 4701      00
 4702 2463 488B08   		movq	(%rax), %rcx
 4703 2466 488D45D0 		leaq	-48(%rbp), %rax
 4704 246a BA770000 		movl	$119, %edx
 4704      00
 4705 246f 4889CE   		movq	%rcx, %rsi
 4706 2472 4889C7   		movq	%rax, %rdi
 4707 2475 E8000000 		call	_ZN8UnitTest11TestDetailsC1ERKS0_i
 4707      00
 4708              		.loc 3 119 0 is_stmt 0 discriminator 1
 4709 247a BF7F0000 		movl	$127, %edi
 4709      00
 4710 247f E8000000 		call	getHexUpperNibble
 4710      00
 4711 2484 8845CF   		movb	%al, -49(%rbp)
 4712 2487 C645CE37 		movb	$55, -50(%rbp)
 4713 248b E8000000 		call	_ZN8UnitTest11CurrentTest7ResultsEv
 4713      00
 4714 2490 488B00   		movq	(%rax), %rax
 4715 2493 488D4DD0 		leaq	-48(%rbp), %rcx
 4716 2497 488D55CF 		leaq	-49(%rbp), %rdx
 4717 249b 488D75CE 		leaq	-50(%rbp), %rsi
 4718 249f 4889C7   		movq	%rax, %rdi
 4719 24a2 E8000000 		call	_ZN8UnitTest10CheckEqualIccEEvRNS_11TestResultsERKT_RKT0_RKNS_11TestDetailsE
 4719      00
 4720              	.LEHE251:
 4721              	.L305:
 4722              	.LEHB252:
 120:testConv.cpp  **** 	CHECK_EQUAL('8', getHexUpperNibble(0x8F));
 4723              		.loc 3 120 0 is_stmt 1
 4724 24a7 E8000000 		call	_ZN8UnitTest11CurrentTest7DetailsEv
 4724      00
 4725 24ac 488B08   		movq	(%rax), %rcx
 4726 24af 488D45D0 		leaq	-48(%rbp), %rax
 4727 24b3 BA780000 		movl	$120, %edx
 4727      00
 4728 24b8 4889CE   		movq	%rcx, %rsi
 4729 24bb 4889C7   		movq	%rax, %rdi
 4730 24be E8000000 		call	_ZN8UnitTest11TestDetailsC1ERKS0_i
 4730      00
 4731              		.loc 3 120 0 is_stmt 0 discriminator 1
 4732 24c3 BF8F0000 		movl	$143, %edi
 4732      00
 4733 24c8 E8000000 		call	getHexUpperNibble
 4733      00
 4734 24cd 8845CF   		movb	%al, -49(%rbp)
 4735 24d0 C645CE38 		movb	$56, -50(%rbp)
 4736 24d4 E8000000 		call	_ZN8UnitTest11CurrentTest7ResultsEv
 4736      00
 4737 24d9 488B00   		movq	(%rax), %rax
 4738 24dc 488D4DD0 		leaq	-48(%rbp), %rcx
 4739 24e0 488D55CF 		leaq	-49(%rbp), %rdx
 4740 24e4 488D75CE 		leaq	-50(%rbp), %rsi
 4741 24e8 4889C7   		movq	%rax, %rdi
 4742 24eb E8000000 		call	_ZN8UnitTest10CheckEqualIccEEvRNS_11TestResultsERKT_RKT0_RKNS_11TestDetailsE
 4742      00
 4743              	.LEHE252:
 4744              	.L308:
 4745              	.LEHB253:
 121:testConv.cpp  **** 	CHECK_EQUAL('9', getHexUpperNibble(0x9F));
 4746              		.loc 3 121 0 is_stmt 1
 4747 24f0 E8000000 		call	_ZN8UnitTest11CurrentTest7DetailsEv
 4747      00
 4748 24f5 488B08   		movq	(%rax), %rcx
 4749 24f8 488D45D0 		leaq	-48(%rbp), %rax
 4750 24fc BA790000 		movl	$121, %edx
 4750      00
 4751 2501 4889CE   		movq	%rcx, %rsi
 4752 2504 4889C7   		movq	%rax, %rdi
 4753 2507 E8000000 		call	_ZN8UnitTest11TestDetailsC1ERKS0_i
 4753      00
 4754              		.loc 3 121 0 is_stmt 0 discriminator 1
 4755 250c BF9F0000 		movl	$159, %edi
 4755      00
 4756 2511 E8000000 		call	getHexUpperNibble
 4756      00
 4757 2516 8845CF   		movb	%al, -49(%rbp)
 4758 2519 C645CE39 		movb	$57, -50(%rbp)
 4759 251d E8000000 		call	_ZN8UnitTest11CurrentTest7ResultsEv
 4759      00
 4760 2522 488B00   		movq	(%rax), %rax
 4761 2525 488D4DD0 		leaq	-48(%rbp), %rcx
 4762 2529 488D55CF 		leaq	-49(%rbp), %rdx
 4763 252d 488D75CE 		leaq	-50(%rbp), %rsi
 4764 2531 4889C7   		movq	%rax, %rdi
 4765 2534 E8000000 		call	_ZN8UnitTest10CheckEqualIccEEvRNS_11TestResultsERKT_RKT0_RKNS_11TestDetailsE
 4765      00
 4766              	.LEHE253:
 4767              	.L311:
 4768              	.LEHB254:
 122:testConv.cpp  **** 	CHECK_EQUAL('A', getHexUpperNibble(0xAF));
 4769              		.loc 3 122 0 is_stmt 1
 4770 2539 E8000000 		call	_ZN8UnitTest11CurrentTest7DetailsEv
 4770      00
 4771 253e 488B08   		movq	(%rax), %rcx
 4772 2541 488D45D0 		leaq	-48(%rbp), %rax
 4773 2545 BA7A0000 		movl	$122, %edx
 4773      00
 4774 254a 4889CE   		movq	%rcx, %rsi
 4775 254d 4889C7   		movq	%rax, %rdi
 4776 2550 E8000000 		call	_ZN8UnitTest11TestDetailsC1ERKS0_i
 4776      00
 4777              		.loc 3 122 0 is_stmt 0 discriminator 1
 4778 2555 BFAF0000 		movl	$175, %edi
 4778      00
 4779 255a E8000000 		call	getHexUpperNibble
 4779      00
 4780 255f 8845CF   		movb	%al, -49(%rbp)
 4781 2562 C645CE41 		movb	$65, -50(%rbp)
 4782 2566 E8000000 		call	_ZN8UnitTest11CurrentTest7ResultsEv
 4782      00
 4783 256b 488B00   		movq	(%rax), %rax
 4784 256e 488D4DD0 		leaq	-48(%rbp), %rcx
 4785 2572 488D55CF 		leaq	-49(%rbp), %rdx
 4786 2576 488D75CE 		leaq	-50(%rbp), %rsi
 4787 257a 4889C7   		movq	%rax, %rdi
 4788 257d E8000000 		call	_ZN8UnitTest10CheckEqualIccEEvRNS_11TestResultsERKT_RKT0_RKNS_11TestDetailsE
 4788      00
 4789              	.LEHE254:
 4790              	.L314:
 4791              	.LEHB255:
 123:testConv.cpp  **** 	CHECK_EQUAL('B', getHexUpperNibble(0xBF));
 4792              		.loc 3 123 0 is_stmt 1
 4793 2582 E8000000 		call	_ZN8UnitTest11CurrentTest7DetailsEv
 4793      00
 4794 2587 488B08   		movq	(%rax), %rcx
 4795 258a 488D45D0 		leaq	-48(%rbp), %rax
 4796 258e BA7B0000 		movl	$123, %edx
 4796      00
 4797 2593 4889CE   		movq	%rcx, %rsi
 4798 2596 4889C7   		movq	%rax, %rdi
 4799 2599 E8000000 		call	_ZN8UnitTest11TestDetailsC1ERKS0_i
 4799      00
 4800              		.loc 3 123 0 is_stmt 0 discriminator 1
 4801 259e BFBF0000 		movl	$191, %edi
 4801      00
 4802 25a3 E8000000 		call	getHexUpperNibble
 4802      00
 4803 25a8 8845CF   		movb	%al, -49(%rbp)
 4804 25ab C645CE42 		movb	$66, -50(%rbp)
 4805 25af E8000000 		call	_ZN8UnitTest11CurrentTest7ResultsEv
 4805      00
 4806 25b4 488B00   		movq	(%rax), %rax
 4807 25b7 488D4DD0 		leaq	-48(%rbp), %rcx
 4808 25bb 488D55CF 		leaq	-49(%rbp), %rdx
 4809 25bf 488D75CE 		leaq	-50(%rbp), %rsi
 4810 25c3 4889C7   		movq	%rax, %rdi
 4811 25c6 E8000000 		call	_ZN8UnitTest10CheckEqualIccEEvRNS_11TestResultsERKT_RKT0_RKNS_11TestDetailsE
 4811      00
 4812              	.LEHE255:
 4813              	.L317:
 4814              	.LEHB256:
 124:testConv.cpp  **** 	CHECK_EQUAL('C', getHexUpperNibble(0xCF));
 4815              		.loc 3 124 0 is_stmt 1
 4816 25cb E8000000 		call	_ZN8UnitTest11CurrentTest7DetailsEv
 4816      00
 4817 25d0 488B08   		movq	(%rax), %rcx
 4818 25d3 488D45D0 		leaq	-48(%rbp), %rax
 4819 25d7 BA7C0000 		movl	$124, %edx
 4819      00
 4820 25dc 4889CE   		movq	%rcx, %rsi
 4821 25df 4889C7   		movq	%rax, %rdi
 4822 25e2 E8000000 		call	_ZN8UnitTest11TestDetailsC1ERKS0_i
 4822      00
 4823              		.loc 3 124 0 is_stmt 0 discriminator 1
 4824 25e7 BFCF0000 		movl	$207, %edi
 4824      00
 4825 25ec E8000000 		call	getHexUpperNibble
 4825      00
 4826 25f1 8845CF   		movb	%al, -49(%rbp)
 4827 25f4 C645CE43 		movb	$67, -50(%rbp)
 4828 25f8 E8000000 		call	_ZN8UnitTest11CurrentTest7ResultsEv
 4828      00
 4829 25fd 488B00   		movq	(%rax), %rax
 4830 2600 488D4DD0 		leaq	-48(%rbp), %rcx
 4831 2604 488D55CF 		leaq	-49(%rbp), %rdx
 4832 2608 488D75CE 		leaq	-50(%rbp), %rsi
 4833 260c 4889C7   		movq	%rax, %rdi
 4834 260f E8000000 		call	_ZN8UnitTest10CheckEqualIccEEvRNS_11TestResultsERKT_RKT0_RKNS_11TestDetailsE
 4834      00
 4835              	.LEHE256:
 4836              	.L320:
 4837              	.LEHB257:
 125:testConv.cpp  **** 	CHECK_EQUAL('D', getHexUpperNibble(0xDF));
 4838              		.loc 3 125 0 is_stmt 1
 4839 2614 E8000000 		call	_ZN8UnitTest11CurrentTest7DetailsEv
 4839      00
 4840 2619 488B08   		movq	(%rax), %rcx
 4841 261c 488D45D0 		leaq	-48(%rbp), %rax
 4842 2620 BA7D0000 		movl	$125, %edx
 4842      00
 4843 2625 4889CE   		movq	%rcx, %rsi
 4844 2628 4889C7   		movq	%rax, %rdi
 4845 262b E8000000 		call	_ZN8UnitTest11TestDetailsC1ERKS0_i
 4845      00
 4846              		.loc 3 125 0 is_stmt 0 discriminator 1
 4847 2630 BFDF0000 		movl	$223, %edi
 4847      00
 4848 2635 E8000000 		call	getHexUpperNibble
 4848      00
 4849 263a 8845CF   		movb	%al, -49(%rbp)
 4850 263d C645CE44 		movb	$68, -50(%rbp)
 4851 2641 E8000000 		call	_ZN8UnitTest11CurrentTest7ResultsEv
 4851      00
 4852 2646 488B00   		movq	(%rax), %rax
 4853 2649 488D4DD0 		leaq	-48(%rbp), %rcx
 4854 264d 488D55CF 		leaq	-49(%rbp), %rdx
 4855 2651 488D75CE 		leaq	-50(%rbp), %rsi
 4856 2655 4889C7   		movq	%rax, %rdi
 4857 2658 E8000000 		call	_ZN8UnitTest10CheckEqualIccEEvRNS_11TestResultsERKT_RKT0_RKNS_11TestDetailsE
 4857      00
 4858              	.LEHE257:
 4859              	.L323:
 4860              	.LEHB258:
 126:testConv.cpp  **** 	CHECK_EQUAL('E', getHexUpperNibble(0xEF));
 4861              		.loc 3 126 0 is_stmt 1
 4862 265d E8000000 		call	_ZN8UnitTest11CurrentTest7DetailsEv
 4862      00
 4863 2662 488B08   		movq	(%rax), %rcx
 4864 2665 488D45D0 		leaq	-48(%rbp), %rax
 4865 2669 BA7E0000 		movl	$126, %edx
 4865      00
 4866 266e 4889CE   		movq	%rcx, %rsi
 4867 2671 4889C7   		movq	%rax, %rdi
 4868 2674 E8000000 		call	_ZN8UnitTest11TestDetailsC1ERKS0_i
 4868      00
 4869              		.loc 3 126 0 is_stmt 0 discriminator 1
 4870 2679 BFEF0000 		movl	$239, %edi
 4870      00
 4871 267e E8000000 		call	getHexUpperNibble
 4871      00
 4872 2683 8845CF   		movb	%al, -49(%rbp)
 4873 2686 C645CE45 		movb	$69, -50(%rbp)
 4874 268a E8000000 		call	_ZN8UnitTest11CurrentTest7ResultsEv
 4874      00
 4875 268f 488B00   		movq	(%rax), %rax
 4876 2692 488D4DD0 		leaq	-48(%rbp), %rcx
 4877 2696 488D55CF 		leaq	-49(%rbp), %rdx
 4878 269a 488D75CE 		leaq	-50(%rbp), %rsi
 4879 269e 4889C7   		movq	%rax, %rdi
 4880 26a1 E8000000 		call	_ZN8UnitTest10CheckEqualIccEEvRNS_11TestResultsERKT_RKT0_RKNS_11TestDetailsE
 4880      00
 4881              	.LEHE258:
 4882              	.L326:
 4883              	.LEHB259:
 127:testConv.cpp  **** 	CHECK_EQUAL('F', getHexUpperNibble(0xFF));
 4884              		.loc 3 127 0 is_stmt 1
 4885 26a6 E8000000 		call	_ZN8UnitTest11CurrentTest7DetailsEv
 4885      00
 4886 26ab 488B08   		movq	(%rax), %rcx
 4887 26ae 488D45D0 		leaq	-48(%rbp), %rax
 4888 26b2 BA7F0000 		movl	$127, %edx
 4888      00
 4889 26b7 4889CE   		movq	%rcx, %rsi
 4890 26ba 4889C7   		movq	%rax, %rdi
 4891 26bd E8000000 		call	_ZN8UnitTest11TestDetailsC1ERKS0_i
 4891      00
 4892              		.loc 3 127 0 is_stmt 0 discriminator 1
 4893 26c2 BFFF0000 		movl	$255, %edi
 4893      00
 4894 26c7 E8000000 		call	getHexUpperNibble
 4894      00
 4895 26cc 8845CF   		movb	%al, -49(%rbp)
 4896 26cf C645CE46 		movb	$70, -50(%rbp)
 4897 26d3 E8000000 		call	_ZN8UnitTest11CurrentTest7ResultsEv
 4897      00
 4898 26d8 488B00   		movq	(%rax), %rax
 4899 26db 488D4DD0 		leaq	-48(%rbp), %rcx
 4900 26df 488D55CF 		leaq	-49(%rbp), %rdx
 4901 26e3 488D75CE 		leaq	-50(%rbp), %rsi
 4902 26e7 4889C7   		movq	%rax, %rdi
 4903 26ea E8000000 		call	_ZN8UnitTest10CheckEqualIccEEvRNS_11TestResultsERKT_RKT0_RKNS_11TestDetailsE
 4903      00
 4904              	.LEHE259:
 128:testConv.cpp  **** }
 4905              		.loc 3 128 0 is_stmt 1
 4906 26ef E9CB0500 		jmp	.L362
 4906      00
 4907              	.L331:
 4908 26f4 4889C3   		movq	%rax, %rbx
 112:testConv.cpp  **** 	CHECK_EQUAL('1', getHexUpperNibble(0x1F));
 4909              		.loc 3 112 0
 4910 26f7 E8000000 		call	__cxa_end_catch
 4910      00
 4911 26fc 4889D8   		movq	%rbx, %rax
 4912 26ff 4889C7   		movq	%rax, %rdi
 4913              	.LEHB260:
 4914 2702 E8000000 		call	_Unwind_Resume
 4914      00
 4915              	.LEHE260:
 4916              	.L330:
 4917 2707 4889C7   		movq	%rax, %rdi
 4918 270a E8000000 		call	__cxa_begin_catch
 4918      00
 4919              	.LEHB261:
 4920 270f E8000000 		call	_ZN8UnitTest11CurrentTest7DetailsEv
 4920      00
 4921 2714 488B08   		movq	(%rax), %rcx
 4922 2717 488D45D0 		leaq	-48(%rbp), %rax
 4923 271b BA700000 		movl	$112, %edx
 4923      00
 4924 2720 4889CE   		movq	%rcx, %rsi
 4925 2723 4889C7   		movq	%rax, %rdi
 4926 2726 E8000000 		call	_ZN8UnitTest11TestDetailsC1ERKS0_i
 4926      00
 112:testConv.cpp  **** 	CHECK_EQUAL('1', getHexUpperNibble(0x1F));
 4927              		.loc 3 112 0 is_stmt 0 discriminator 1
 4928 272b E8000000 		call	_ZN8UnitTest11CurrentTest7ResultsEv
 4928      00
 4929 2730 488B00   		movq	(%rax), %rax
 4930 2733 488D4DD0 		leaq	-48(%rbp), %rcx
 4931 2737 BA000000 		movl	$.LC31, %edx
 4931      00
 4932 273c 4889CE   		movq	%rcx, %rsi
 4933 273f 4889C7   		movq	%rax, %rdi
 4934 2742 E8000000 		call	_ZN8UnitTest11TestResults13OnTestFailureERKNS_11TestDetailsEPKc
 4934      00
 4935              	.LEHE261:
 4936              	.LEHB262:
 4937 2747 E8000000 		call	__cxa_end_catch
 4937      00
 4938              	.LEHE262:
 4939 274c E957FBFF 		jmp	.L284
 4939      FF
 4940              	.L333:
 4941 2751 4889C3   		movq	%rax, %rbx
 113:testConv.cpp  **** 	CHECK_EQUAL('2', getHexUpperNibble(0x2F));
 4942              		.loc 3 113 0 is_stmt 1
 4943 2754 E8000000 		call	__cxa_end_catch
 4943      00
 4944 2759 4889D8   		movq	%rbx, %rax
 4945 275c 4889C7   		movq	%rax, %rdi
 4946              	.LEHB263:
 4947 275f E8000000 		call	_Unwind_Resume
 4947      00
 4948              	.LEHE263:
 4949              	.L332:
 4950 2764 4889C7   		movq	%rax, %rdi
 4951 2767 E8000000 		call	__cxa_begin_catch
 4951      00
 4952              	.LEHB264:
 4953 276c E8000000 		call	_ZN8UnitTest11CurrentTest7DetailsEv
 4953      00
 4954 2771 488B08   		movq	(%rax), %rcx
 4955 2774 488D45D0 		leaq	-48(%rbp), %rax
 4956 2778 BA710000 		movl	$113, %edx
 4956      00
 4957 277d 4889CE   		movq	%rcx, %rsi
 4958 2780 4889C7   		movq	%rax, %rdi
 4959 2783 E8000000 		call	_ZN8UnitTest11TestDetailsC1ERKS0_i
 4959      00
 113:testConv.cpp  **** 	CHECK_EQUAL('2', getHexUpperNibble(0x2F));
 4960              		.loc 3 113 0 is_stmt 0 discriminator 1
 4961 2788 E8000000 		call	_ZN8UnitTest11CurrentTest7ResultsEv
 4961      00
 4962 278d 488B00   		movq	(%rax), %rax
 4963 2790 488D4DD0 		leaq	-48(%rbp), %rcx
 4964 2794 BA000000 		movl	$.LC32, %edx
 4964      00
 4965 2799 4889CE   		movq	%rcx, %rsi
 4966 279c 4889C7   		movq	%rax, %rdi
 4967 279f E8000000 		call	_ZN8UnitTest11TestResults13OnTestFailureERKNS_11TestDetailsEPKc
 4967      00
 4968              	.LEHE264:
 4969              	.LEHB265:
 4970 27a4 E8000000 		call	__cxa_end_catch
 4970      00
 4971              	.LEHE265:
 4972 27a9 E943FBFF 		jmp	.L287
 4972      FF
 4973              	.L335:
 4974 27ae 4889C3   		movq	%rax, %rbx
 114:testConv.cpp  **** 	CHECK_EQUAL('3', getHexUpperNibble(0x3F));
 4975              		.loc 3 114 0 is_stmt 1
 4976 27b1 E8000000 		call	__cxa_end_catch
 4976      00
 4977 27b6 4889D8   		movq	%rbx, %rax
 4978 27b9 4889C7   		movq	%rax, %rdi
 4979              	.LEHB266:
 4980 27bc E8000000 		call	_Unwind_Resume
 4980      00
 4981              	.LEHE266:
 4982              	.L334:
 4983 27c1 4889C7   		movq	%rax, %rdi
 4984 27c4 E8000000 		call	__cxa_begin_catch
 4984      00
 4985              	.LEHB267:
 4986 27c9 E8000000 		call	_ZN8UnitTest11CurrentTest7DetailsEv
 4986      00
 4987 27ce 488B08   		movq	(%rax), %rcx
 4988 27d1 488D45D0 		leaq	-48(%rbp), %rax
 4989 27d5 BA720000 		movl	$114, %edx
 4989      00
 4990 27da 4889CE   		movq	%rcx, %rsi
 4991 27dd 4889C7   		movq	%rax, %rdi
 4992 27e0 E8000000 		call	_ZN8UnitTest11TestDetailsC1ERKS0_i
 4992      00
 114:testConv.cpp  **** 	CHECK_EQUAL('3', getHexUpperNibble(0x3F));
 4993              		.loc 3 114 0 is_stmt 0 discriminator 1
 4994 27e5 E8000000 		call	_ZN8UnitTest11CurrentTest7ResultsEv
 4994      00
 4995 27ea 488B00   		movq	(%rax), %rax
 4996 27ed 488D4DD0 		leaq	-48(%rbp), %rcx
 4997 27f1 BA000000 		movl	$.LC33, %edx
 4997      00
 4998 27f6 4889CE   		movq	%rcx, %rsi
 4999 27f9 4889C7   		movq	%rax, %rdi
 5000 27fc E8000000 		call	_ZN8UnitTest11TestResults13OnTestFailureERKNS_11TestDetailsEPKc
 5000      00
 5001              	.LEHE267:
 5002              	.LEHB268:
 5003 2801 E8000000 		call	__cxa_end_catch
 5003      00
 5004              	.LEHE268:
 5005 2806 E92FFBFF 		jmp	.L290
 5005      FF
 5006              	.L337:
 5007 280b 4889C3   		movq	%rax, %rbx
 115:testConv.cpp  **** 	CHECK_EQUAL('4', getHexUpperNibble(0x4F));
 5008              		.loc 3 115 0 is_stmt 1
 5009 280e E8000000 		call	__cxa_end_catch
 5009      00
 5010 2813 4889D8   		movq	%rbx, %rax
 5011 2816 4889C7   		movq	%rax, %rdi
 5012              	.LEHB269:
 5013 2819 E8000000 		call	_Unwind_Resume
 5013      00
 5014              	.LEHE269:
 5015              	.L336:
 5016 281e 4889C7   		movq	%rax, %rdi
 5017 2821 E8000000 		call	__cxa_begin_catch
 5017      00
 5018              	.LEHB270:
 5019 2826 E8000000 		call	_ZN8UnitTest11CurrentTest7DetailsEv
 5019      00
 5020 282b 488B08   		movq	(%rax), %rcx
 5021 282e 488D45D0 		leaq	-48(%rbp), %rax
 5022 2832 BA730000 		movl	$115, %edx
 5022      00
 5023 2837 4889CE   		movq	%rcx, %rsi
 5024 283a 4889C7   		movq	%rax, %rdi
 5025 283d E8000000 		call	_ZN8UnitTest11TestDetailsC1ERKS0_i
 5025      00
 115:testConv.cpp  **** 	CHECK_EQUAL('4', getHexUpperNibble(0x4F));
 5026              		.loc 3 115 0 is_stmt 0 discriminator 1
 5027 2842 E8000000 		call	_ZN8UnitTest11CurrentTest7ResultsEv
 5027      00
 5028 2847 488B00   		movq	(%rax), %rax
 5029 284a 488D4DD0 		leaq	-48(%rbp), %rcx
 5030 284e BA000000 		movl	$.LC34, %edx
 5030      00
 5031 2853 4889CE   		movq	%rcx, %rsi
 5032 2856 4889C7   		movq	%rax, %rdi
 5033 2859 E8000000 		call	_ZN8UnitTest11TestResults13OnTestFailureERKNS_11TestDetailsEPKc
 5033      00
 5034              	.LEHE270:
 5035              	.LEHB271:
 5036 285e E8000000 		call	__cxa_end_catch
 5036      00
 5037              	.LEHE271:
 5038 2863 E91BFBFF 		jmp	.L293
 5038      FF
 5039              	.L339:
 5040 2868 4889C3   		movq	%rax, %rbx
 116:testConv.cpp  **** 	CHECK_EQUAL('5', getHexUpperNibble(0x5F));
 5041              		.loc 3 116 0 is_stmt 1
 5042 286b E8000000 		call	__cxa_end_catch
 5042      00
 5043 2870 4889D8   		movq	%rbx, %rax
 5044 2873 4889C7   		movq	%rax, %rdi
 5045              	.LEHB272:
 5046 2876 E8000000 		call	_Unwind_Resume
 5046      00
 5047              	.LEHE272:
 5048              	.L338:
 5049 287b 4889C7   		movq	%rax, %rdi
 5050 287e E8000000 		call	__cxa_begin_catch
 5050      00
 5051              	.LEHB273:
 5052 2883 E8000000 		call	_ZN8UnitTest11CurrentTest7DetailsEv
 5052      00
 5053 2888 488B08   		movq	(%rax), %rcx
 5054 288b 488D45D0 		leaq	-48(%rbp), %rax
 5055 288f BA740000 		movl	$116, %edx
 5055      00
 5056 2894 4889CE   		movq	%rcx, %rsi
 5057 2897 4889C7   		movq	%rax, %rdi
 5058 289a E8000000 		call	_ZN8UnitTest11TestDetailsC1ERKS0_i
 5058      00
 116:testConv.cpp  **** 	CHECK_EQUAL('5', getHexUpperNibble(0x5F));
 5059              		.loc 3 116 0 is_stmt 0 discriminator 1
 5060 289f E8000000 		call	_ZN8UnitTest11CurrentTest7ResultsEv
 5060      00
 5061 28a4 488B00   		movq	(%rax), %rax
 5062 28a7 488D4DD0 		leaq	-48(%rbp), %rcx
 5063 28ab BA000000 		movl	$.LC35, %edx
 5063      00
 5064 28b0 4889CE   		movq	%rcx, %rsi
 5065 28b3 4889C7   		movq	%rax, %rdi
 5066 28b6 E8000000 		call	_ZN8UnitTest11TestResults13OnTestFailureERKNS_11TestDetailsEPKc
 5066      00
 5067              	.LEHE273:
 5068              	.LEHB274:
 5069 28bb E8000000 		call	__cxa_end_catch
 5069      00
 5070              	.LEHE274:
 5071 28c0 E907FBFF 		jmp	.L296
 5071      FF
 5072              	.L341:
 5073 28c5 4889C3   		movq	%rax, %rbx
 117:testConv.cpp  **** 	CHECK_EQUAL('6', getHexUpperNibble(0x6F));
 5074              		.loc 3 117 0 is_stmt 1
 5075 28c8 E8000000 		call	__cxa_end_catch
 5075      00
 5076 28cd 4889D8   		movq	%rbx, %rax
 5077 28d0 4889C7   		movq	%rax, %rdi
 5078              	.LEHB275:
 5079 28d3 E8000000 		call	_Unwind_Resume
 5079      00
 5080              	.LEHE275:
 5081              	.L340:
 5082 28d8 4889C7   		movq	%rax, %rdi
 5083 28db E8000000 		call	__cxa_begin_catch
 5083      00
 5084              	.LEHB276:
 5085 28e0 E8000000 		call	_ZN8UnitTest11CurrentTest7DetailsEv
 5085      00
 5086 28e5 488B08   		movq	(%rax), %rcx
 5087 28e8 488D45D0 		leaq	-48(%rbp), %rax
 5088 28ec BA750000 		movl	$117, %edx
 5088      00
 5089 28f1 4889CE   		movq	%rcx, %rsi
 5090 28f4 4889C7   		movq	%rax, %rdi
 5091 28f7 E8000000 		call	_ZN8UnitTest11TestDetailsC1ERKS0_i
 5091      00
 117:testConv.cpp  **** 	CHECK_EQUAL('6', getHexUpperNibble(0x6F));
 5092              		.loc 3 117 0 is_stmt 0 discriminator 1
 5093 28fc E8000000 		call	_ZN8UnitTest11CurrentTest7ResultsEv
 5093      00
 5094 2901 488B00   		movq	(%rax), %rax
 5095 2904 488D4DD0 		leaq	-48(%rbp), %rcx
 5096 2908 BA000000 		movl	$.LC36, %edx
 5096      00
 5097 290d 4889CE   		movq	%rcx, %rsi
 5098 2910 4889C7   		movq	%rax, %rdi
 5099 2913 E8000000 		call	_ZN8UnitTest11TestResults13OnTestFailureERKNS_11TestDetailsEPKc
 5099      00
 5100              	.LEHE276:
 5101              	.LEHB277:
 5102 2918 E8000000 		call	__cxa_end_catch
 5102      00
 5103              	.LEHE277:
 5104 291d E9F3FAFF 		jmp	.L299
 5104      FF
 5105              	.L343:
 5106 2922 4889C3   		movq	%rax, %rbx
 118:testConv.cpp  **** 	CHECK_EQUAL('7', getHexUpperNibble(0x7F));
 5107              		.loc 3 118 0 is_stmt 1
 5108 2925 E8000000 		call	__cxa_end_catch
 5108      00
 5109 292a 4889D8   		movq	%rbx, %rax
 5110 292d 4889C7   		movq	%rax, %rdi
 5111              	.LEHB278:
 5112 2930 E8000000 		call	_Unwind_Resume
 5112      00
 5113              	.LEHE278:
 5114              	.L342:
 5115 2935 4889C7   		movq	%rax, %rdi
 5116 2938 E8000000 		call	__cxa_begin_catch
 5116      00
 5117              	.LEHB279:
 5118 293d E8000000 		call	_ZN8UnitTest11CurrentTest7DetailsEv
 5118      00
 5119 2942 488B08   		movq	(%rax), %rcx
 5120 2945 488D45D0 		leaq	-48(%rbp), %rax
 5121 2949 BA760000 		movl	$118, %edx
 5121      00
 5122 294e 4889CE   		movq	%rcx, %rsi
 5123 2951 4889C7   		movq	%rax, %rdi
 5124 2954 E8000000 		call	_ZN8UnitTest11TestDetailsC1ERKS0_i
 5124      00
 118:testConv.cpp  **** 	CHECK_EQUAL('7', getHexUpperNibble(0x7F));
 5125              		.loc 3 118 0 is_stmt 0 discriminator 1
 5126 2959 E8000000 		call	_ZN8UnitTest11CurrentTest7ResultsEv
 5126      00
 5127 295e 488B00   		movq	(%rax), %rax
 5128 2961 488D4DD0 		leaq	-48(%rbp), %rcx
 5129 2965 BA000000 		movl	$.LC37, %edx
 5129      00
 5130 296a 4889CE   		movq	%rcx, %rsi
 5131 296d 4889C7   		movq	%rax, %rdi
 5132 2970 E8000000 		call	_ZN8UnitTest11TestResults13OnTestFailureERKNS_11TestDetailsEPKc
 5132      00
 5133              	.LEHE279:
 5134              	.LEHB280:
 5135 2975 E8000000 		call	__cxa_end_catch
 5135      00
 5136              	.LEHE280:
 5137 297a E9DFFAFF 		jmp	.L302
 5137      FF
 5138              	.L345:
 5139 297f 4889C3   		movq	%rax, %rbx
 119:testConv.cpp  **** 	CHECK_EQUAL('8', getHexUpperNibble(0x8F));
 5140              		.loc 3 119 0 is_stmt 1
 5141 2982 E8000000 		call	__cxa_end_catch
 5141      00
 5142 2987 4889D8   		movq	%rbx, %rax
 5143 298a 4889C7   		movq	%rax, %rdi
 5144              	.LEHB281:
 5145 298d E8000000 		call	_Unwind_Resume
 5145      00
 5146              	.LEHE281:
 5147              	.L344:
 5148 2992 4889C7   		movq	%rax, %rdi
 5149 2995 E8000000 		call	__cxa_begin_catch
 5149      00
 5150              	.LEHB282:
 5151 299a E8000000 		call	_ZN8UnitTest11CurrentTest7DetailsEv
 5151      00
 5152 299f 488B08   		movq	(%rax), %rcx
 5153 29a2 488D45D0 		leaq	-48(%rbp), %rax
 5154 29a6 BA770000 		movl	$119, %edx
 5154      00
 5155 29ab 4889CE   		movq	%rcx, %rsi
 5156 29ae 4889C7   		movq	%rax, %rdi
 5157 29b1 E8000000 		call	_ZN8UnitTest11TestDetailsC1ERKS0_i
 5157      00
 119:testConv.cpp  **** 	CHECK_EQUAL('8', getHexUpperNibble(0x8F));
 5158              		.loc 3 119 0 is_stmt 0 discriminator 1
 5159 29b6 E8000000 		call	_ZN8UnitTest11CurrentTest7ResultsEv
 5159      00
 5160 29bb 488B00   		movq	(%rax), %rax
 5161 29be 488D4DD0 		leaq	-48(%rbp), %rcx
 5162 29c2 BA000000 		movl	$.LC38, %edx
 5162      00
 5163 29c7 4889CE   		movq	%rcx, %rsi
 5164 29ca 4889C7   		movq	%rax, %rdi
 5165 29cd E8000000 		call	_ZN8UnitTest11TestResults13OnTestFailureERKNS_11TestDetailsEPKc
 5165      00
 5166              	.LEHE282:
 5167              	.LEHB283:
 5168 29d2 E8000000 		call	__cxa_end_catch
 5168      00
 5169              	.LEHE283:
 5170 29d7 E9CBFAFF 		jmp	.L305
 5170      FF
 5171              	.L347:
 5172 29dc 4889C3   		movq	%rax, %rbx
 120:testConv.cpp  **** 	CHECK_EQUAL('9', getHexUpperNibble(0x9F));
 5173              		.loc 3 120 0 is_stmt 1
 5174 29df E8000000 		call	__cxa_end_catch
 5174      00
 5175 29e4 4889D8   		movq	%rbx, %rax
 5176 29e7 4889C7   		movq	%rax, %rdi
 5177              	.LEHB284:
 5178 29ea E8000000 		call	_Unwind_Resume
 5178      00
 5179              	.LEHE284:
 5180              	.L346:
 5181 29ef 4889C7   		movq	%rax, %rdi
 5182 29f2 E8000000 		call	__cxa_begin_catch
 5182      00
 5183              	.LEHB285:
 5184 29f7 E8000000 		call	_ZN8UnitTest11CurrentTest7DetailsEv
 5184      00
 5185 29fc 488B08   		movq	(%rax), %rcx
 5186 29ff 488D45D0 		leaq	-48(%rbp), %rax
 5187 2a03 BA780000 		movl	$120, %edx
 5187      00
 5188 2a08 4889CE   		movq	%rcx, %rsi
 5189 2a0b 4889C7   		movq	%rax, %rdi
 5190 2a0e E8000000 		call	_ZN8UnitTest11TestDetailsC1ERKS0_i
 5190      00
 120:testConv.cpp  **** 	CHECK_EQUAL('9', getHexUpperNibble(0x9F));
 5191              		.loc 3 120 0 is_stmt 0 discriminator 1
 5192 2a13 E8000000 		call	_ZN8UnitTest11CurrentTest7ResultsEv
 5192      00
 5193 2a18 488B00   		movq	(%rax), %rax
 5194 2a1b 488D4DD0 		leaq	-48(%rbp), %rcx
 5195 2a1f BA000000 		movl	$.LC39, %edx
 5195      00
 5196 2a24 4889CE   		movq	%rcx, %rsi
 5197 2a27 4889C7   		movq	%rax, %rdi
 5198 2a2a E8000000 		call	_ZN8UnitTest11TestResults13OnTestFailureERKNS_11TestDetailsEPKc
 5198      00
 5199              	.LEHE285:
 5200              	.LEHB286:
 5201 2a2f E8000000 		call	__cxa_end_catch
 5201      00
 5202              	.LEHE286:
 5203 2a34 E9B7FAFF 		jmp	.L308
 5203      FF
 5204              	.L349:
 5205 2a39 4889C3   		movq	%rax, %rbx
 121:testConv.cpp  **** 	CHECK_EQUAL('A', getHexUpperNibble(0xAF));
 5206              		.loc 3 121 0 is_stmt 1
 5207 2a3c E8000000 		call	__cxa_end_catch
 5207      00
 5208 2a41 4889D8   		movq	%rbx, %rax
 5209 2a44 4889C7   		movq	%rax, %rdi
 5210              	.LEHB287:
 5211 2a47 E8000000 		call	_Unwind_Resume
 5211      00
 5212              	.LEHE287:
 5213              	.L348:
 5214 2a4c 4889C7   		movq	%rax, %rdi
 5215 2a4f E8000000 		call	__cxa_begin_catch
 5215      00
 5216              	.LEHB288:
 5217 2a54 E8000000 		call	_ZN8UnitTest11CurrentTest7DetailsEv
 5217      00
 5218 2a59 488B08   		movq	(%rax), %rcx
 5219 2a5c 488D45D0 		leaq	-48(%rbp), %rax
 5220 2a60 BA790000 		movl	$121, %edx
 5220      00
 5221 2a65 4889CE   		movq	%rcx, %rsi
 5222 2a68 4889C7   		movq	%rax, %rdi
 5223 2a6b E8000000 		call	_ZN8UnitTest11TestDetailsC1ERKS0_i
 5223      00
 121:testConv.cpp  **** 	CHECK_EQUAL('A', getHexUpperNibble(0xAF));
 5224              		.loc 3 121 0 is_stmt 0 discriminator 1
 5225 2a70 E8000000 		call	_ZN8UnitTest11CurrentTest7ResultsEv
 5225      00
 5226 2a75 488B00   		movq	(%rax), %rax
 5227 2a78 488D4DD0 		leaq	-48(%rbp), %rcx
 5228 2a7c BA000000 		movl	$.LC40, %edx
 5228      00
 5229 2a81 4889CE   		movq	%rcx, %rsi
 5230 2a84 4889C7   		movq	%rax, %rdi
 5231 2a87 E8000000 		call	_ZN8UnitTest11TestResults13OnTestFailureERKNS_11TestDetailsEPKc
 5231      00
 5232              	.LEHE288:
 5233              	.LEHB289:
 5234 2a8c E8000000 		call	__cxa_end_catch
 5234      00
 5235              	.LEHE289:
 5236 2a91 E9A3FAFF 		jmp	.L311
 5236      FF
 5237              	.L351:
 5238 2a96 4889C3   		movq	%rax, %rbx
 122:testConv.cpp  **** 	CHECK_EQUAL('B', getHexUpperNibble(0xBF));
 5239              		.loc 3 122 0 is_stmt 1
 5240 2a99 E8000000 		call	__cxa_end_catch
 5240      00
 5241 2a9e 4889D8   		movq	%rbx, %rax
 5242 2aa1 4889C7   		movq	%rax, %rdi
 5243              	.LEHB290:
 5244 2aa4 E8000000 		call	_Unwind_Resume
 5244      00
 5245              	.LEHE290:
 5246              	.L350:
 5247 2aa9 4889C7   		movq	%rax, %rdi
 5248 2aac E8000000 		call	__cxa_begin_catch
 5248      00
 5249              	.LEHB291:
 5250 2ab1 E8000000 		call	_ZN8UnitTest11CurrentTest7DetailsEv
 5250      00
 5251 2ab6 488B08   		movq	(%rax), %rcx
 5252 2ab9 488D45D0 		leaq	-48(%rbp), %rax
 5253 2abd BA7A0000 		movl	$122, %edx
 5253      00
 5254 2ac2 4889CE   		movq	%rcx, %rsi
 5255 2ac5 4889C7   		movq	%rax, %rdi
 5256 2ac8 E8000000 		call	_ZN8UnitTest11TestDetailsC1ERKS0_i
 5256      00
 122:testConv.cpp  **** 	CHECK_EQUAL('B', getHexUpperNibble(0xBF));
 5257              		.loc 3 122 0 is_stmt 0 discriminator 1
 5258 2acd E8000000 		call	_ZN8UnitTest11CurrentTest7ResultsEv
 5258      00
 5259 2ad2 488B00   		movq	(%rax), %rax
 5260 2ad5 488D4DD0 		leaq	-48(%rbp), %rcx
 5261 2ad9 BA000000 		movl	$.LC41, %edx
 5261      00
 5262 2ade 4889CE   		movq	%rcx, %rsi
 5263 2ae1 4889C7   		movq	%rax, %rdi
 5264 2ae4 E8000000 		call	_ZN8UnitTest11TestResults13OnTestFailureERKNS_11TestDetailsEPKc
 5264      00
 5265              	.LEHE291:
 5266              	.LEHB292:
 5267 2ae9 E8000000 		call	__cxa_end_catch
 5267      00
 5268              	.LEHE292:
 5269 2aee E98FFAFF 		jmp	.L314
 5269      FF
 5270              	.L353:
 5271 2af3 4889C3   		movq	%rax, %rbx
 123:testConv.cpp  **** 	CHECK_EQUAL('C', getHexUpperNibble(0xCF));
 5272              		.loc 3 123 0 is_stmt 1
 5273 2af6 E8000000 		call	__cxa_end_catch
 5273      00
 5274 2afb 4889D8   		movq	%rbx, %rax
 5275 2afe 4889C7   		movq	%rax, %rdi
 5276              	.LEHB293:
 5277 2b01 E8000000 		call	_Unwind_Resume
 5277      00
 5278              	.LEHE293:
 5279              	.L352:
 5280 2b06 4889C7   		movq	%rax, %rdi
 5281 2b09 E8000000 		call	__cxa_begin_catch
 5281      00
 5282              	.LEHB294:
 5283 2b0e E8000000 		call	_ZN8UnitTest11CurrentTest7DetailsEv
 5283      00
 5284 2b13 488B08   		movq	(%rax), %rcx
 5285 2b16 488D45D0 		leaq	-48(%rbp), %rax
 5286 2b1a BA7B0000 		movl	$123, %edx
 5286      00
 5287 2b1f 4889CE   		movq	%rcx, %rsi
 5288 2b22 4889C7   		movq	%rax, %rdi
 5289 2b25 E8000000 		call	_ZN8UnitTest11TestDetailsC1ERKS0_i
 5289      00
 123:testConv.cpp  **** 	CHECK_EQUAL('C', getHexUpperNibble(0xCF));
 5290              		.loc 3 123 0 is_stmt 0 discriminator 1
 5291 2b2a E8000000 		call	_ZN8UnitTest11CurrentTest7ResultsEv
 5291      00
 5292 2b2f 488B00   		movq	(%rax), %rax
 5293 2b32 488D4DD0 		leaq	-48(%rbp), %rcx
 5294 2b36 BA000000 		movl	$.LC42, %edx
 5294      00
 5295 2b3b 4889CE   		movq	%rcx, %rsi
 5296 2b3e 4889C7   		movq	%rax, %rdi
 5297 2b41 E8000000 		call	_ZN8UnitTest11TestResults13OnTestFailureERKNS_11TestDetailsEPKc
 5297      00
 5298              	.LEHE294:
 5299              	.LEHB295:
 5300 2b46 E8000000 		call	__cxa_end_catch
 5300      00
 5301              	.LEHE295:
 5302 2b4b E97BFAFF 		jmp	.L317
 5302      FF
 5303              	.L355:
 5304 2b50 4889C3   		movq	%rax, %rbx
 124:testConv.cpp  **** 	CHECK_EQUAL('D', getHexUpperNibble(0xDF));
 5305              		.loc 3 124 0 is_stmt 1
 5306 2b53 E8000000 		call	__cxa_end_catch
 5306      00
 5307 2b58 4889D8   		movq	%rbx, %rax
 5308 2b5b 4889C7   		movq	%rax, %rdi
 5309              	.LEHB296:
 5310 2b5e E8000000 		call	_Unwind_Resume
 5310      00
 5311              	.LEHE296:
 5312              	.L354:
 5313 2b63 4889C7   		movq	%rax, %rdi
 5314 2b66 E8000000 		call	__cxa_begin_catch
 5314      00
 5315              	.LEHB297:
 5316 2b6b E8000000 		call	_ZN8UnitTest11CurrentTest7DetailsEv
 5316      00
 5317 2b70 488B08   		movq	(%rax), %rcx
 5318 2b73 488D45D0 		leaq	-48(%rbp), %rax
 5319 2b77 BA7C0000 		movl	$124, %edx
 5319      00
 5320 2b7c 4889CE   		movq	%rcx, %rsi
 5321 2b7f 4889C7   		movq	%rax, %rdi
 5322 2b82 E8000000 		call	_ZN8UnitTest11TestDetailsC1ERKS0_i
 5322      00
 124:testConv.cpp  **** 	CHECK_EQUAL('D', getHexUpperNibble(0xDF));
 5323              		.loc 3 124 0 is_stmt 0 discriminator 1
 5324 2b87 E8000000 		call	_ZN8UnitTest11CurrentTest7ResultsEv
 5324      00
 5325 2b8c 488B00   		movq	(%rax), %rax
 5326 2b8f 488D4DD0 		leaq	-48(%rbp), %rcx
 5327 2b93 BA000000 		movl	$.LC43, %edx
 5327      00
 5328 2b98 4889CE   		movq	%rcx, %rsi
 5329 2b9b 4889C7   		movq	%rax, %rdi
 5330 2b9e E8000000 		call	_ZN8UnitTest11TestResults13OnTestFailureERKNS_11TestDetailsEPKc
 5330      00
 5331              	.LEHE297:
 5332              	.LEHB298:
 5333 2ba3 E8000000 		call	__cxa_end_catch
 5333      00
 5334              	.LEHE298:
 5335 2ba8 E967FAFF 		jmp	.L320
 5335      FF
 5336              	.L357:
 5337 2bad 4889C3   		movq	%rax, %rbx
 125:testConv.cpp  **** 	CHECK_EQUAL('E', getHexUpperNibble(0xEF));
 5338              		.loc 3 125 0 is_stmt 1
 5339 2bb0 E8000000 		call	__cxa_end_catch
 5339      00
 5340 2bb5 4889D8   		movq	%rbx, %rax
 5341 2bb8 4889C7   		movq	%rax, %rdi
 5342              	.LEHB299:
 5343 2bbb E8000000 		call	_Unwind_Resume
 5343      00
 5344              	.LEHE299:
 5345              	.L356:
 5346 2bc0 4889C7   		movq	%rax, %rdi
 5347 2bc3 E8000000 		call	__cxa_begin_catch
 5347      00
 5348              	.LEHB300:
 5349 2bc8 E8000000 		call	_ZN8UnitTest11CurrentTest7DetailsEv
 5349      00
 5350 2bcd 488B08   		movq	(%rax), %rcx
 5351 2bd0 488D45D0 		leaq	-48(%rbp), %rax
 5352 2bd4 BA7D0000 		movl	$125, %edx
 5352      00
 5353 2bd9 4889CE   		movq	%rcx, %rsi
 5354 2bdc 4889C7   		movq	%rax, %rdi
 5355 2bdf E8000000 		call	_ZN8UnitTest11TestDetailsC1ERKS0_i
 5355      00
 125:testConv.cpp  **** 	CHECK_EQUAL('E', getHexUpperNibble(0xEF));
 5356              		.loc 3 125 0 is_stmt 0 discriminator 1
 5357 2be4 E8000000 		call	_ZN8UnitTest11CurrentTest7ResultsEv
 5357      00
 5358 2be9 488B00   		movq	(%rax), %rax
 5359 2bec 488D4DD0 		leaq	-48(%rbp), %rcx
 5360 2bf0 BA000000 		movl	$.LC44, %edx
 5360      00
 5361 2bf5 4889CE   		movq	%rcx, %rsi
 5362 2bf8 4889C7   		movq	%rax, %rdi
 5363 2bfb E8000000 		call	_ZN8UnitTest11TestResults13OnTestFailureERKNS_11TestDetailsEPKc
 5363      00
 5364              	.LEHE300:
 5365              	.LEHB301:
 5366 2c00 E8000000 		call	__cxa_end_catch
 5366      00
 5367              	.LEHE301:
 5368 2c05 E953FAFF 		jmp	.L323
 5368      FF
 5369              	.L359:
 5370 2c0a 4889C3   		movq	%rax, %rbx
 126:testConv.cpp  **** 	CHECK_EQUAL('F', getHexUpperNibble(0xFF));
 5371              		.loc 3 126 0 is_stmt 1
 5372 2c0d E8000000 		call	__cxa_end_catch
 5372      00
 5373 2c12 4889D8   		movq	%rbx, %rax
 5374 2c15 4889C7   		movq	%rax, %rdi
 5375              	.LEHB302:
 5376 2c18 E8000000 		call	_Unwind_Resume
 5376      00
 5377              	.LEHE302:
 5378              	.L358:
 5379 2c1d 4889C7   		movq	%rax, %rdi
 5380 2c20 E8000000 		call	__cxa_begin_catch
 5380      00
 5381              	.LEHB303:
 5382 2c25 E8000000 		call	_ZN8UnitTest11CurrentTest7DetailsEv
 5382      00
 5383 2c2a 488B08   		movq	(%rax), %rcx
 5384 2c2d 488D45D0 		leaq	-48(%rbp), %rax
 5385 2c31 BA7E0000 		movl	$126, %edx
 5385      00
 5386 2c36 4889CE   		movq	%rcx, %rsi
 5387 2c39 4889C7   		movq	%rax, %rdi
 5388 2c3c E8000000 		call	_ZN8UnitTest11TestDetailsC1ERKS0_i
 5388      00
 126:testConv.cpp  **** 	CHECK_EQUAL('F', getHexUpperNibble(0xFF));
 5389              		.loc 3 126 0 is_stmt 0 discriminator 1
 5390 2c41 E8000000 		call	_ZN8UnitTest11CurrentTest7ResultsEv
 5390      00
 5391 2c46 488B00   		movq	(%rax), %rax
 5392 2c49 488D4DD0 		leaq	-48(%rbp), %rcx
 5393 2c4d BA000000 		movl	$.LC45, %edx
 5393      00
 5394 2c52 4889CE   		movq	%rcx, %rsi
 5395 2c55 4889C7   		movq	%rax, %rdi
 5396 2c58 E8000000 		call	_ZN8UnitTest11TestResults13OnTestFailureERKNS_11TestDetailsEPKc
 5396      00
 5397              	.LEHE303:
 5398              	.LEHB304:
 5399 2c5d E8000000 		call	__cxa_end_catch
 5399      00
 5400              	.LEHE304:
 5401 2c62 E93FFAFF 		jmp	.L326
 5401      FF
 5402              	.L361:
 5403 2c67 4889C3   		movq	%rax, %rbx
 127:testConv.cpp  **** }
 5404              		.loc 3 127 0 is_stmt 1
 5405 2c6a E8000000 		call	__cxa_end_catch
 5405      00
 5406 2c6f 4889D8   		movq	%rbx, %rax
 5407 2c72 4889C7   		movq	%rax, %rdi
 5408              	.LEHB305:
 5409 2c75 E8000000 		call	_Unwind_Resume
 5409      00
 5410              	.LEHE305:
 5411              	.L360:
 5412 2c7a 4889C7   		movq	%rax, %rdi
 5413 2c7d E8000000 		call	__cxa_begin_catch
 5413      00
 5414              	.LEHB306:
 5415 2c82 E8000000 		call	_ZN8UnitTest11CurrentTest7DetailsEv
 5415      00
 5416 2c87 488B08   		movq	(%rax), %rcx
 5417 2c8a 488D45D0 		leaq	-48(%rbp), %rax
 5418 2c8e BA7F0000 		movl	$127, %edx
 5418      00
 5419 2c93 4889CE   		movq	%rcx, %rsi
 5420 2c96 4889C7   		movq	%rax, %rdi
 5421 2c99 E8000000 		call	_ZN8UnitTest11TestDetailsC1ERKS0_i
 5421      00
 127:testConv.cpp  **** }
 5422              		.loc 3 127 0 is_stmt 0 discriminator 1
 5423 2c9e E8000000 		call	_ZN8UnitTest11CurrentTest7ResultsEv
 5423      00
 5424 2ca3 488B00   		movq	(%rax), %rax
 5425 2ca6 488D4DD0 		leaq	-48(%rbp), %rcx
 5426 2caa BA000000 		movl	$.LC46, %edx
 5426      00
 5427 2caf 4889CE   		movq	%rcx, %rsi
 5428 2cb2 4889C7   		movq	%rax, %rdi
 5429 2cb5 E8000000 		call	_ZN8UnitTest11TestResults13OnTestFailureERKNS_11TestDetailsEPKc
 5429      00
 5430              	.LEHE306:
 5431              	.LEHB307:
 5432 2cba E8000000 		call	__cxa_end_catch
 5432      00
 5433              	.LEHE307:
 5434              	.L362:
 5435              		.loc 3 128 0 is_stmt 1
 5436 2cbf 90       		nop
 5437 2cc0 4883C448 		addq	$72, %rsp
 5438 2cc4 5B       		popq	%rbx
 5439 2cc5 5D       		popq	%rbp
 5440              		.cfi_def_cfa 7, 8
 5441 2cc6 C3       		ret
 5442              		.cfi_endproc
 5443              	.LFE1034:
 5444              		.section	.gcc_except_table
 5445              		.align 4
 5446              	.LLSDA1034:
 5447 0530 FF       		.byte	0xff
 5448 0531 03       		.byte	0x3
 5449 0532 E802     		.uleb128 .LLSDATT1034-.LLSDATTD1034
 5450              	.LLSDATTD1034:
 5451 0534 01       		.byte	0x1
 5452 0535 DE02     		.uleb128 .LLSDACSE1034-.LLSDACSB1034
 5453              	.LLSDACSB1034:
 5454 0537 0D       		.uleb128 .LEHB244-.LFB1034
 5455 0538 49       		.uleb128 .LEHE244-.LEHB244
 5456 0539 B509     		.uleb128 .L330-.LFB1034
 5457 053b 01       		.uleb128 0x1
 5458 053c 56       		.uleb128 .LEHB245-.LFB1034
 5459 053d 49       		.uleb128 .LEHE245-.LEHB245
 5460 053e 920A     		.uleb128 .L332-.LFB1034
 5461 0540 01       		.uleb128 0x1
 5462 0541 9F01     		.uleb128 .LEHB246-.LFB1034
 5463 0543 49       		.uleb128 .LEHE246-.LEHB246
 5464 0544 EF0A     		.uleb128 .L334-.LFB1034
 5465 0546 01       		.uleb128 0x1
 5466 0547 E801     		.uleb128 .LEHB247-.LFB1034
 5467 0549 49       		.uleb128 .LEHE247-.LEHB247
 5468 054a CC0B     		.uleb128 .L336-.LFB1034
 5469 054c 01       		.uleb128 0x1
 5470 054d B102     		.uleb128 .LEHB248-.LFB1034
 5471 054f 49       		.uleb128 .LEHE248-.LEHB248
 5472 0550 A90C     		.uleb128 .L338-.LFB1034
 5473 0552 01       		.uleb128 0x1
 5474 0553 FA02     		.uleb128 .LEHB249-.LFB1034
 5475 0555 49       		.uleb128 .LEHE249-.LEHB249
 5476 0556 860D     		.uleb128 .L340-.LFB1034
 5477 0558 01       		.uleb128 0x1
 5478 0559 C303     		.uleb128 .LEHB250-.LFB1034
 5479 055b 49       		.uleb128 .LEHE250-.LEHB250
 5480 055c E30D     		.uleb128 .L342-.LFB1034
 5481 055e 01       		.uleb128 0x1
 5482 055f 8C04     		.uleb128 .LEHB251-.LFB1034
 5483 0561 49       		.uleb128 .LEHE251-.LEHB251
 5484 0562 C00E     		.uleb128 .L344-.LFB1034
 5485 0564 01       		.uleb128 0x1
 5486 0565 D504     		.uleb128 .LEHB252-.LFB1034
 5487 0567 49       		.uleb128 .LEHE252-.LEHB252
 5488 0568 9D0F     		.uleb128 .L346-.LFB1034
 5489 056a 01       		.uleb128 0x1
 5490 056b 9E05     		.uleb128 .LEHB253-.LFB1034
 5491 056d 49       		.uleb128 .LEHE253-.LEHB253
 5492 056e FA0F     		.uleb128 .L348-.LFB1034
 5493 0570 01       		.uleb128 0x1
 5494 0571 E705     		.uleb128 .LEHB254-.LFB1034
 5495 0573 49       		.uleb128 .LEHE254-.LEHB254
 5496 0574 D710     		.uleb128 .L350-.LFB1034
 5497 0576 01       		.uleb128 0x1
 5498 0577 B006     		.uleb128 .LEHB255-.LFB1034
 5499 0579 49       		.uleb128 .LEHE255-.LEHB255
 5500 057a B411     		.uleb128 .L352-.LFB1034
 5501 057c 01       		.uleb128 0x1
 5502 057d F906     		.uleb128 .LEHB256-.LFB1034
 5503 057f 49       		.uleb128 .LEHE256-.LEHB256
 5504 0580 9112     		.uleb128 .L354-.LFB1034
 5505 0582 01       		.uleb128 0x1
 5506 0583 C207     		.uleb128 .LEHB257-.LFB1034
 5507 0585 49       		.uleb128 .LEHE257-.LEHB257
 5508 0586 EE12     		.uleb128 .L356-.LFB1034
 5509 0588 01       		.uleb128 0x1
 5510 0589 8B08     		.uleb128 .LEHB258-.LFB1034
 5511 058b 49       		.uleb128 .LEHE258-.LEHB258
 5512 058c CB13     		.uleb128 .L358-.LFB1034
 5513 058e 01       		.uleb128 0x1
 5514 058f D408     		.uleb128 .LEHB259-.LFB1034
 5515 0591 49       		.uleb128 .LEHE259-.LEHB259
 5516 0592 A814     		.uleb128 .L360-.LFB1034
 5517 0594 01       		.uleb128 0x1
 5518 0595 B009     		.uleb128 .LEHB260-.LFB1034
 5519 0597 05       		.uleb128 .LEHE260-.LEHB260
 5520 0598 00       		.uleb128 0
 5521 0599 00       		.uleb128 0
 5522 059a BD09     		.uleb128 .LEHB261-.LFB1034
 5523 059c 38       		.uleb128 .LEHE261-.LEHB261
 5524 059d A209     		.uleb128 .L331-.LFB1034
 5525 059f 00       		.uleb128 0
 5526 05a0 F509     		.uleb128 .LEHB262-.LFB1034
 5527 05a2 05       		.uleb128 .LEHE262-.LEHB262
 5528 05a3 00       		.uleb128 0
 5529 05a4 00       		.uleb128 0
 5530 05a5 8D0A     		.uleb128 .LEHB263-.LFB1034
 5531 05a7 05       		.uleb128 .LEHE263-.LEHB263
 5532 05a8 00       		.uleb128 0
 5533 05a9 00       		.uleb128 0
 5534 05aa 9A0A     		.uleb128 .LEHB264-.LFB1034
 5535 05ac 38       		.uleb128 .LEHE264-.LEHB264
 5536 05ad FF09     		.uleb128 .L333-.LFB1034
 5537 05af 00       		.uleb128 0
 5538 05b0 D20A     		.uleb128 .LEHB265-.LFB1034
 5539 05b2 05       		.uleb128 .LEHE265-.LEHB265
 5540 05b3 00       		.uleb128 0
 5541 05b4 00       		.uleb128 0
 5542 05b5 EA0A     		.uleb128 .LEHB266-.LFB1034
 5543 05b7 05       		.uleb128 .LEHE266-.LEHB266
 5544 05b8 00       		.uleb128 0
 5545 05b9 00       		.uleb128 0
 5546 05ba F70A     		.uleb128 .LEHB267-.LFB1034
 5547 05bc 38       		.uleb128 .LEHE267-.LEHB267
 5548 05bd DC0A     		.uleb128 .L335-.LFB1034
 5549 05bf 00       		.uleb128 0
 5550 05c0 AF0B     		.uleb128 .LEHB268-.LFB1034
 5551 05c2 05       		.uleb128 .LEHE268-.LEHB268
 5552 05c3 00       		.uleb128 0
 5553 05c4 00       		.uleb128 0
 5554 05c5 C70B     		.uleb128 .LEHB269-.LFB1034
 5555 05c7 05       		.uleb128 .LEHE269-.LEHB269
 5556 05c8 00       		.uleb128 0
 5557 05c9 00       		.uleb128 0
 5558 05ca D40B     		.uleb128 .LEHB270-.LFB1034
 5559 05cc 38       		.uleb128 .LEHE270-.LEHB270
 5560 05cd B90B     		.uleb128 .L337-.LFB1034
 5561 05cf 00       		.uleb128 0
 5562 05d0 8C0C     		.uleb128 .LEHB271-.LFB1034
 5563 05d2 05       		.uleb128 .LEHE271-.LEHB271
 5564 05d3 00       		.uleb128 0
 5565 05d4 00       		.uleb128 0
 5566 05d5 A40C     		.uleb128 .LEHB272-.LFB1034
 5567 05d7 05       		.uleb128 .LEHE272-.LEHB272
 5568 05d8 00       		.uleb128 0
 5569 05d9 00       		.uleb128 0
 5570 05da B10C     		.uleb128 .LEHB273-.LFB1034
 5571 05dc 38       		.uleb128 .LEHE273-.LEHB273
 5572 05dd 960C     		.uleb128 .L339-.LFB1034
 5573 05df 00       		.uleb128 0
 5574 05e0 E90C     		.uleb128 .LEHB274-.LFB1034
 5575 05e2 05       		.uleb128 .LEHE274-.LEHB274
 5576 05e3 00       		.uleb128 0
 5577 05e4 00       		.uleb128 0
 5578 05e5 810D     		.uleb128 .LEHB275-.LFB1034
 5579 05e7 05       		.uleb128 .LEHE275-.LEHB275
 5580 05e8 00       		.uleb128 0
 5581 05e9 00       		.uleb128 0
 5582 05ea 8E0D     		.uleb128 .LEHB276-.LFB1034
 5583 05ec 38       		.uleb128 .LEHE276-.LEHB276
 5584 05ed F30C     		.uleb128 .L341-.LFB1034
 5585 05ef 00       		.uleb128 0
 5586 05f0 C60D     		.uleb128 .LEHB277-.LFB1034
 5587 05f2 05       		.uleb128 .LEHE277-.LEHB277
 5588 05f3 00       		.uleb128 0
 5589 05f4 00       		.uleb128 0
 5590 05f5 DE0D     		.uleb128 .LEHB278-.LFB1034
 5591 05f7 05       		.uleb128 .LEHE278-.LEHB278
 5592 05f8 00       		.uleb128 0
 5593 05f9 00       		.uleb128 0
 5594 05fa EB0D     		.uleb128 .LEHB279-.LFB1034
 5595 05fc 38       		.uleb128 .LEHE279-.LEHB279
 5596 05fd D00D     		.uleb128 .L343-.LFB1034
 5597 05ff 00       		.uleb128 0
 5598 0600 A30E     		.uleb128 .LEHB280-.LFB1034
 5599 0602 05       		.uleb128 .LEHE280-.LEHB280
 5600 0603 00       		.uleb128 0
 5601 0604 00       		.uleb128 0
 5602 0605 BB0E     		.uleb128 .LEHB281-.LFB1034
 5603 0607 05       		.uleb128 .LEHE281-.LEHB281
 5604 0608 00       		.uleb128 0
 5605 0609 00       		.uleb128 0
 5606 060a C80E     		.uleb128 .LEHB282-.LFB1034
 5607 060c 38       		.uleb128 .LEHE282-.LEHB282
 5608 060d AD0E     		.uleb128 .L345-.LFB1034
 5609 060f 00       		.uleb128 0
 5610 0610 800F     		.uleb128 .LEHB283-.LFB1034
 5611 0612 05       		.uleb128 .LEHE283-.LEHB283
 5612 0613 00       		.uleb128 0
 5613 0614 00       		.uleb128 0
 5614 0615 980F     		.uleb128 .LEHB284-.LFB1034
 5615 0617 05       		.uleb128 .LEHE284-.LEHB284
 5616 0618 00       		.uleb128 0
 5617 0619 00       		.uleb128 0
 5618 061a A50F     		.uleb128 .LEHB285-.LFB1034
 5619 061c 38       		.uleb128 .LEHE285-.LEHB285
 5620 061d 8A0F     		.uleb128 .L347-.LFB1034
 5621 061f 00       		.uleb128 0
 5622 0620 DD0F     		.uleb128 .LEHB286-.LFB1034
 5623 0622 05       		.uleb128 .LEHE286-.LEHB286
 5624 0623 00       		.uleb128 0
 5625 0624 00       		.uleb128 0
 5626 0625 F50F     		.uleb128 .LEHB287-.LFB1034
 5627 0627 05       		.uleb128 .LEHE287-.LEHB287
 5628 0628 00       		.uleb128 0
 5629 0629 00       		.uleb128 0
 5630 062a 8210     		.uleb128 .LEHB288-.LFB1034
 5631 062c 38       		.uleb128 .LEHE288-.LEHB288
 5632 062d E70F     		.uleb128 .L349-.LFB1034
 5633 062f 00       		.uleb128 0
 5634 0630 BA10     		.uleb128 .LEHB289-.LFB1034
 5635 0632 05       		.uleb128 .LEHE289-.LEHB289
 5636 0633 00       		.uleb128 0
 5637 0634 00       		.uleb128 0
 5638 0635 D210     		.uleb128 .LEHB290-.LFB1034
 5639 0637 05       		.uleb128 .LEHE290-.LEHB290
 5640 0638 00       		.uleb128 0
 5641 0639 00       		.uleb128 0
 5642 063a DF10     		.uleb128 .LEHB291-.LFB1034
 5643 063c 38       		.uleb128 .LEHE291-.LEHB291
 5644 063d C410     		.uleb128 .L351-.LFB1034
 5645 063f 00       		.uleb128 0
 5646 0640 9711     		.uleb128 .LEHB292-.LFB1034
 5647 0642 05       		.uleb128 .LEHE292-.LEHB292
 5648 0643 00       		.uleb128 0
 5649 0644 00       		.uleb128 0
 5650 0645 AF11     		.uleb128 .LEHB293-.LFB1034
 5651 0647 05       		.uleb128 .LEHE293-.LEHB293
 5652 0648 00       		.uleb128 0
 5653 0649 00       		.uleb128 0
 5654 064a BC11     		.uleb128 .LEHB294-.LFB1034
 5655 064c 38       		.uleb128 .LEHE294-.LEHB294
 5656 064d A111     		.uleb128 .L353-.LFB1034
 5657 064f 00       		.uleb128 0
 5658 0650 F411     		.uleb128 .LEHB295-.LFB1034
 5659 0652 05       		.uleb128 .LEHE295-.LEHB295
 5660 0653 00       		.uleb128 0
 5661 0654 00       		.uleb128 0
 5662 0655 8C12     		.uleb128 .LEHB296-.LFB1034
 5663 0657 05       		.uleb128 .LEHE296-.LEHB296
 5664 0658 00       		.uleb128 0
 5665 0659 00       		.uleb128 0
 5666 065a 9912     		.uleb128 .LEHB297-.LFB1034
 5667 065c 38       		.uleb128 .LEHE297-.LEHB297
 5668 065d FE11     		.uleb128 .L355-.LFB1034
 5669 065f 00       		.uleb128 0
 5670 0660 D112     		.uleb128 .LEHB298-.LFB1034
 5671 0662 05       		.uleb128 .LEHE298-.LEHB298
 5672 0663 00       		.uleb128 0
 5673 0664 00       		.uleb128 0
 5674 0665 E912     		.uleb128 .LEHB299-.LFB1034
 5675 0667 05       		.uleb128 .LEHE299-.LEHB299
 5676 0668 00       		.uleb128 0
 5677 0669 00       		.uleb128 0
 5678 066a F612     		.uleb128 .LEHB300-.LFB1034
 5679 066c 38       		.uleb128 .LEHE300-.LEHB300
 5680 066d DB12     		.uleb128 .L357-.LFB1034
 5681 066f 00       		.uleb128 0
 5682 0670 AE13     		.uleb128 .LEHB301-.LFB1034
 5683 0672 05       		.uleb128 .LEHE301-.LEHB301
 5684 0673 00       		.uleb128 0
 5685 0674 00       		.uleb128 0
 5686 0675 C613     		.uleb128 .LEHB302-.LFB1034
 5687 0677 05       		.uleb128 .LEHE302-.LEHB302
 5688 0678 00       		.uleb128 0
 5689 0679 00       		.uleb128 0
 5690 067a D313     		.uleb128 .LEHB303-.LFB1034
 5691 067c 38       		.uleb128 .LEHE303-.LEHB303
 5692 067d B813     		.uleb128 .L359-.LFB1034
 5693 067f 00       		.uleb128 0
 5694 0680 8B14     		.uleb128 .LEHB304-.LFB1034
 5695 0682 05       		.uleb128 .LEHE304-.LEHB304
 5696 0683 00       		.uleb128 0
 5697 0684 00       		.uleb128 0
 5698 0685 A314     		.uleb128 .LEHB305-.LFB1034
 5699 0687 05       		.uleb128 .LEHE305-.LEHB305
 5700 0688 00       		.uleb128 0
 5701 0689 00       		.uleb128 0
 5702 068a B014     		.uleb128 .LEHB306-.LFB1034
 5703 068c 38       		.uleb128 .LEHE306-.LEHB306
 5704 068d 9514     		.uleb128 .L361-.LFB1034
 5705 068f 00       		.uleb128 0
 5706 0690 E814     		.uleb128 .LEHB307-.LFB1034
 5707 0692 05       		.uleb128 .LEHE307-.LEHB307
 5708 0693 00       		.uleb128 0
 5709 0694 00       		.uleb128 0
 5710              	.LLSDACSE1034:
 5711 0695 01       		.byte	0x1
 5712 0696 00       		.byte	0
 5713 0697 00       		.align 4
 5714 0698 00000000 		.long	0
 5715              	
 5716              	.LLSDATT1034:
 5717              		.text
 5719              		.section	.rodata
 5720              	.LC47:
 5721 08e9 436F6E76 		.string	"Conv_testGetHexLowerNibble"
 5721      5F746573 
 5721      74476574 
 5721      4865784C 
 5721      6F776572 
 5722              		.section	.text._ZN30TestConv_testGetHexLowerNibbleC2Ev,"axG",@progbits,_ZN30TestConv_testGetHexLow
 5723              		.align 2
 5724              		.weak	_ZN30TestConv_testGetHexLowerNibbleC2Ev
 5726              	_ZN30TestConv_testGetHexLowerNibbleC2Ev:
 5727              	.LFB1036:
 129:testConv.cpp  **** 
 130:testConv.cpp  **** TEST(Conv_testGetHexLowerNibble) {
 5728              		.loc 3 130 0
 5729              		.cfi_startproc
 5730 0000 55       		pushq	%rbp
 5731              		.cfi_def_cfa_offset 16
 5732              		.cfi_offset 6, -16
 5733 0001 4889E5   		movq	%rsp, %rbp
 5734              		.cfi_def_cfa_register 6
 5735 0004 4883EC10 		subq	$16, %rsp
 5736 0008 48897DF8 		movq	%rdi, -8(%rbp)
 5737              	.LBB11:
 5738              		.loc 3 130 0
 5739 000c E8000000 		call	_ZN13UnitTestSuite12GetSuiteNameEv
 5739      00
 5740 0011 4889C2   		movq	%rax, %rdx
 5741 0014 488B45F8 		movq	-8(%rbp), %rax
 5742 0018 41B88200 		movl	$130, %r8d
 5742      0000
 5743 001e B9000000 		movl	$.LC1, %ecx
 5743      00
 5744 0023 BE000000 		movl	$.LC47, %esi
 5744      00
 5745 0028 4889C7   		movq	%rax, %rdi
 5746 002b E8000000 		call	_ZN8UnitTest4TestC2EPKcS2_S2_i
 5746      00
 5747 0030 488B45F8 		movq	-8(%rbp), %rax
 5748 0034 48C70000 		movq	$_ZTV30TestConv_testGetHexLowerNibble+16, (%rax)
 5748      000000
 5749              	.LBE11:
 5750 003b C9       		leave
 5751              		.cfi_def_cfa 7, 8
 5752 003c C3       		ret
 5753              		.cfi_endproc
 5754              	.LFE1036:
 5756              		.weak	_ZN30TestConv_testGetHexLowerNibbleC1Ev
 5757              		.set	_ZN30TestConv_testGetHexLowerNibbleC1Ev,_ZN30TestConv_testGetHexLowerNibbleC2Ev
 5758              		.globl	testConv_testGetHexLowerNibbleInstance
 5759              		.bss
 5760 00b9 00000000 		.align 32
 5760      000000
 5763              	testConv_testGetHexLowerNibbleInstance:
 5764 00c0 00000000 		.zero	56
 5764      00000000 
 5764      00000000 
 5764      00000000 
 5764      00000000 
 5765              		.globl	adderConv_testGetHexLowerNibble
 5768              	adderConv_testGetHexLowerNibble:
 5769 00f8 00       		.zero	1
 5770              		.section	.rodata
 5771 0904 00000000 		.align 8
 5772              	.LC48:
 5773 0908 556E6861 		.string	"Unhandled exception in CHECK_EQUAL('0', getHexLowerNibble(0xF0))"
 5773      6E646C65 
 5773      64206578 
 5773      63657074 
 5773      696F6E20 
 5774 0949 00000000 		.align 8
 5774      000000
 5775              	.LC49:
 5776 0950 556E6861 		.string	"Unhandled exception in CHECK_EQUAL('1', getHexLowerNibble(0xF1))"
 5776      6E646C65 
 5776      64206578 
 5776      63657074 
 5776      696F6E20 
 5777 0991 00000000 		.align 8
 5777      000000
 5778              	.LC50:
 5779 0998 556E6861 		.string	"Unhandled exception in CHECK_EQUAL('2', getHexLowerNibble(0xF2))"
 5779      6E646C65 
 5779      64206578 
 5779      63657074 
 5779      696F6E20 
 5780 09d9 00000000 		.align 8
 5780      000000
 5781              	.LC51:
 5782 09e0 556E6861 		.string	"Unhandled exception in CHECK_EQUAL('3', getHexLowerNibble(0xF3))"
 5782      6E646C65 
 5782      64206578 
 5782      63657074 
 5782      696F6E20 
 5783 0a21 00000000 		.align 8
 5783      000000
 5784              	.LC52:
 5785 0a28 556E6861 		.string	"Unhandled exception in CHECK_EQUAL('4', getHexLowerNibble(0xF4))"
 5785      6E646C65 
 5785      64206578 
 5785      63657074 
 5785      696F6E20 
 5786 0a69 00000000 		.align 8
 5786      000000
 5787              	.LC53:
 5788 0a70 556E6861 		.string	"Unhandled exception in CHECK_EQUAL('5', getHexLowerNibble(0xF5))"
 5788      6E646C65 
 5788      64206578 
 5788      63657074 
 5788      696F6E20 
 5789 0ab1 00000000 		.align 8
 5789      000000
 5790              	.LC54:
 5791 0ab8 556E6861 		.string	"Unhandled exception in CHECK_EQUAL('6', getHexLowerNibble(0xF6))"
 5791      6E646C65 
 5791      64206578 
 5791      63657074 
 5791      696F6E20 
 5792 0af9 00000000 		.align 8
 5792      000000
 5793              	.LC55:
 5794 0b00 556E6861 		.string	"Unhandled exception in CHECK_EQUAL('7', getHexLowerNibble(0xF7))"
 5794      6E646C65 
 5794      64206578 
 5794      63657074 
 5794      696F6E20 
 5795 0b41 00000000 		.align 8
 5795      000000
 5796              	.LC56:
 5797 0b48 556E6861 		.string	"Unhandled exception in CHECK_EQUAL('8', getHexLowerNibble(0xF8))"
 5797      6E646C65 
 5797      64206578 
 5797      63657074 
 5797      696F6E20 
 5798 0b89 00000000 		.align 8
 5798      000000
 5799              	.LC57:
 5800 0b90 556E6861 		.string	"Unhandled exception in CHECK_EQUAL('9', getHexLowerNibble(0xF9))"
 5800      6E646C65 
 5800      64206578 
 5800      63657074 
 5800      696F6E20 
 5801 0bd1 00000000 		.align 8
 5801      000000
 5802              	.LC58:
 5803 0bd8 556E6861 		.string	"Unhandled exception in CHECK_EQUAL('A', getHexLowerNibble(0xFA))"
 5803      6E646C65 
 5803      64206578 
 5803      63657074 
 5803      696F6E20 
 5804 0c19 00000000 		.align 8
 5804      000000
 5805              	.LC59:
 5806 0c20 556E6861 		.string	"Unhandled exception in CHECK_EQUAL('B', getHexLowerNibble(0xFB))"
 5806      6E646C65 
 5806      64206578 
 5806      63657074 
 5806      696F6E20 
 5807 0c61 00000000 		.align 8
 5807      000000
 5808              	.LC60:
 5809 0c68 556E6861 		.string	"Unhandled exception in CHECK_EQUAL('C', getHexLowerNibble(0xFC))"
 5809      6E646C65 
 5809      64206578 
 5809      63657074 
 5809      696F6E20 
 5810 0ca9 00000000 		.align 8
 5810      000000
 5811              	.LC61:
 5812 0cb0 556E6861 		.string	"Unhandled exception in CHECK_EQUAL('D', getHexLowerNibble(0xFD))"
 5812      6E646C65 
 5812      64206578 
 5812      63657074 
 5812      696F6E20 
 5813 0cf1 00000000 		.align 8
 5813      000000
 5814              	.LC62:
 5815 0cf8 556E6861 		.string	"Unhandled exception in CHECK_EQUAL('E', getHexLowerNibble(0xFE))"
 5815      6E646C65 
 5815      64206578 
 5815      63657074 
 5815      696F6E20 
 5816 0d39 00000000 		.align 8
 5816      000000
 5817              	.LC63:
 5818 0d40 556E6861 		.string	"Unhandled exception in CHECK_EQUAL('F', getHexLowerNibble(0xFF))"
 5818      6E646C65 
 5818      64206578 
 5818      63657074 
 5818      696F6E20 
 5819              		.text
 5820 2cc7 90       		.align 2
 5821              		.globl	_ZNK30TestConv_testGetHexLowerNibble7RunImplEv
 5823              	_ZNK30TestConv_testGetHexLowerNibble7RunImplEv:
 5824              	.LFB1038:
 5825              		.loc 3 130 0
 5826              		.cfi_startproc
 5827              		.cfi_personality 0x3,__gxx_personality_v0
 5828              		.cfi_lsda 0x3,.LLSDA1038
 5829 2cc8 55       		pushq	%rbp
 5830              		.cfi_def_cfa_offset 16
 5831              		.cfi_offset 6, -16
 5832 2cc9 4889E5   		movq	%rsp, %rbp
 5833              		.cfi_def_cfa_register 6
 5834 2ccc 53       		pushq	%rbx
 5835 2ccd 4883EC48 		subq	$72, %rsp
 5836              		.cfi_offset 3, -24
 5837 2cd1 48897DB8 		movq	%rdi, -72(%rbp)
 5838              	.LEHB308:
 131:testConv.cpp  **** 	CHECK_EQUAL('0', getHexLowerNibble(0xF0));
 5839              		.loc 3 131 0
 5840 2cd5 E8000000 		call	_ZN8UnitTest11CurrentTest7DetailsEv
 5840      00
 5841 2cda 488B08   		movq	(%rax), %rcx
 5842 2cdd 488D45D0 		leaq	-48(%rbp), %rax
 5843 2ce1 BA830000 		movl	$131, %edx
 5843      00
 5844 2ce6 4889CE   		movq	%rcx, %rsi
 5845 2ce9 4889C7   		movq	%rax, %rdi
 5846 2cec E8000000 		call	_ZN8UnitTest11TestDetailsC1ERKS0_i
 5846      00
 5847              		.loc 3 131 0 is_stmt 0 discriminator 1
 5848 2cf1 BFF00000 		movl	$240, %edi
 5848      00
 5849 2cf6 E8000000 		call	getHexLowerNibble
 5849      00
 5850 2cfb 8845CF   		movb	%al, -49(%rbp)
 5851 2cfe C645CE30 		movb	$48, -50(%rbp)
 5852 2d02 E8000000 		call	_ZN8UnitTest11CurrentTest7ResultsEv
 5852      00
 5853 2d07 488B00   		movq	(%rax), %rax
 5854 2d0a 488D4DD0 		leaq	-48(%rbp), %rcx
 5855 2d0e 488D55CF 		leaq	-49(%rbp), %rdx
 5856 2d12 488D75CE 		leaq	-50(%rbp), %rsi
 5857 2d16 4889C7   		movq	%rax, %rdi
 5858 2d19 E8000000 		call	_ZN8UnitTest10CheckEqualIccEEvRNS_11TestResultsERKT_RKT0_RKNS_11TestDetailsE
 5858      00
 5859              	.LEHE308:
 5860              	.L367:
 5861              	.LEHB309:
 132:testConv.cpp  **** 	CHECK_EQUAL('1', getHexLowerNibble(0xF1));
 5862              		.loc 3 132 0 is_stmt 1
 5863 2d1e E8000000 		call	_ZN8UnitTest11CurrentTest7DetailsEv
 5863      00
 5864 2d23 488B08   		movq	(%rax), %rcx
 5865 2d26 488D45D0 		leaq	-48(%rbp), %rax
 5866 2d2a BA840000 		movl	$132, %edx
 5866      00
 5867 2d2f 4889CE   		movq	%rcx, %rsi
 5868 2d32 4889C7   		movq	%rax, %rdi
 5869 2d35 E8000000 		call	_ZN8UnitTest11TestDetailsC1ERKS0_i
 5869      00
 5870              		.loc 3 132 0 is_stmt 0 discriminator 1
 5871 2d3a BFF10000 		movl	$241, %edi
 5871      00
 5872 2d3f E8000000 		call	getHexLowerNibble
 5872      00
 5873 2d44 8845CF   		movb	%al, -49(%rbp)
 5874 2d47 C645CE31 		movb	$49, -50(%rbp)
 5875 2d4b E8000000 		call	_ZN8UnitTest11CurrentTest7ResultsEv
 5875      00
 5876 2d50 488B00   		movq	(%rax), %rax
 5877 2d53 488D4DD0 		leaq	-48(%rbp), %rcx
 5878 2d57 488D55CF 		leaq	-49(%rbp), %rdx
 5879 2d5b 488D75CE 		leaq	-50(%rbp), %rsi
 5880 2d5f 4889C7   		movq	%rax, %rdi
 5881 2d62 E8000000 		call	_ZN8UnitTest10CheckEqualIccEEvRNS_11TestResultsERKT_RKT0_RKNS_11TestDetailsE
 5881      00
 5882              	.LEHE309:
 5883              	.L370:
 5884              	.LEHB310:
 133:testConv.cpp  **** 	CHECK_EQUAL('2', getHexLowerNibble(0xF2));
 5885              		.loc 3 133 0 is_stmt 1
 5886 2d67 E8000000 		call	_ZN8UnitTest11CurrentTest7DetailsEv
 5886      00
 5887 2d6c 488B08   		movq	(%rax), %rcx
 5888 2d6f 488D45D0 		leaq	-48(%rbp), %rax
 5889 2d73 BA850000 		movl	$133, %edx
 5889      00
 5890 2d78 4889CE   		movq	%rcx, %rsi
 5891 2d7b 4889C7   		movq	%rax, %rdi
 5892 2d7e E8000000 		call	_ZN8UnitTest11TestDetailsC1ERKS0_i
 5892      00
 5893              		.loc 3 133 0 is_stmt 0 discriminator 1
 5894 2d83 BFF20000 		movl	$242, %edi
 5894      00
 5895 2d88 E8000000 		call	getHexLowerNibble
 5895      00
 5896 2d8d 8845CF   		movb	%al, -49(%rbp)
 5897 2d90 C645CE32 		movb	$50, -50(%rbp)
 5898 2d94 E8000000 		call	_ZN8UnitTest11CurrentTest7ResultsEv
 5898      00
 5899 2d99 488B00   		movq	(%rax), %rax
 5900 2d9c 488D4DD0 		leaq	-48(%rbp), %rcx
 5901 2da0 488D55CF 		leaq	-49(%rbp), %rdx
 5902 2da4 488D75CE 		leaq	-50(%rbp), %rsi
 5903 2da8 4889C7   		movq	%rax, %rdi
 5904 2dab E8000000 		call	_ZN8UnitTest10CheckEqualIccEEvRNS_11TestResultsERKT_RKT0_RKNS_11TestDetailsE
 5904      00
 5905              	.LEHE310:
 5906              	.L373:
 5907              	.LEHB311:
 134:testConv.cpp  **** 	CHECK_EQUAL('3', getHexLowerNibble(0xF3));
 5908              		.loc 3 134 0 is_stmt 1
 5909 2db0 E8000000 		call	_ZN8UnitTest11CurrentTest7DetailsEv
 5909      00
 5910 2db5 488B08   		movq	(%rax), %rcx
 5911 2db8 488D45D0 		leaq	-48(%rbp), %rax
 5912 2dbc BA860000 		movl	$134, %edx
 5912      00
 5913 2dc1 4889CE   		movq	%rcx, %rsi
 5914 2dc4 4889C7   		movq	%rax, %rdi
 5915 2dc7 E8000000 		call	_ZN8UnitTest11TestDetailsC1ERKS0_i
 5915      00
 5916              		.loc 3 134 0 is_stmt 0 discriminator 1
 5917 2dcc BFF30000 		movl	$243, %edi
 5917      00
 5918 2dd1 E8000000 		call	getHexLowerNibble
 5918      00
 5919 2dd6 8845CF   		movb	%al, -49(%rbp)
 5920 2dd9 C645CE33 		movb	$51, -50(%rbp)
 5921 2ddd E8000000 		call	_ZN8UnitTest11CurrentTest7ResultsEv
 5921      00
 5922 2de2 488B00   		movq	(%rax), %rax
 5923 2de5 488D4DD0 		leaq	-48(%rbp), %rcx
 5924 2de9 488D55CF 		leaq	-49(%rbp), %rdx
 5925 2ded 488D75CE 		leaq	-50(%rbp), %rsi
 5926 2df1 4889C7   		movq	%rax, %rdi
 5927 2df4 E8000000 		call	_ZN8UnitTest10CheckEqualIccEEvRNS_11TestResultsERKT_RKT0_RKNS_11TestDetailsE
 5927      00
 5928              	.LEHE311:
 5929              	.L376:
 5930              	.LEHB312:
 135:testConv.cpp  **** 	CHECK_EQUAL('4', getHexLowerNibble(0xF4));
 5931              		.loc 3 135 0 is_stmt 1
 5932 2df9 E8000000 		call	_ZN8UnitTest11CurrentTest7DetailsEv
 5932      00
 5933 2dfe 488B08   		movq	(%rax), %rcx
 5934 2e01 488D45D0 		leaq	-48(%rbp), %rax
 5935 2e05 BA870000 		movl	$135, %edx
 5935      00
 5936 2e0a 4889CE   		movq	%rcx, %rsi
 5937 2e0d 4889C7   		movq	%rax, %rdi
 5938 2e10 E8000000 		call	_ZN8UnitTest11TestDetailsC1ERKS0_i
 5938      00
 5939              		.loc 3 135 0 is_stmt 0 discriminator 1
 5940 2e15 BFF40000 		movl	$244, %edi
 5940      00
 5941 2e1a E8000000 		call	getHexLowerNibble
 5941      00
 5942 2e1f 8845CF   		movb	%al, -49(%rbp)
 5943 2e22 C645CE34 		movb	$52, -50(%rbp)
 5944 2e26 E8000000 		call	_ZN8UnitTest11CurrentTest7ResultsEv
 5944      00
 5945 2e2b 488B00   		movq	(%rax), %rax
 5946 2e2e 488D4DD0 		leaq	-48(%rbp), %rcx
 5947 2e32 488D55CF 		leaq	-49(%rbp), %rdx
 5948 2e36 488D75CE 		leaq	-50(%rbp), %rsi
 5949 2e3a 4889C7   		movq	%rax, %rdi
 5950 2e3d E8000000 		call	_ZN8UnitTest10CheckEqualIccEEvRNS_11TestResultsERKT_RKT0_RKNS_11TestDetailsE
 5950      00
 5951              	.LEHE312:
 5952              	.L379:
 5953              	.LEHB313:
 136:testConv.cpp  **** 	CHECK_EQUAL('5', getHexLowerNibble(0xF5));
 5954              		.loc 3 136 0 is_stmt 1
 5955 2e42 E8000000 		call	_ZN8UnitTest11CurrentTest7DetailsEv
 5955      00
 5956 2e47 488B08   		movq	(%rax), %rcx
 5957 2e4a 488D45D0 		leaq	-48(%rbp), %rax
 5958 2e4e BA880000 		movl	$136, %edx
 5958      00
 5959 2e53 4889CE   		movq	%rcx, %rsi
 5960 2e56 4889C7   		movq	%rax, %rdi
 5961 2e59 E8000000 		call	_ZN8UnitTest11TestDetailsC1ERKS0_i
 5961      00
 5962              		.loc 3 136 0 is_stmt 0 discriminator 1
 5963 2e5e BFF50000 		movl	$245, %edi
 5963      00
 5964 2e63 E8000000 		call	getHexLowerNibble
 5964      00
 5965 2e68 8845CF   		movb	%al, -49(%rbp)
 5966 2e6b C645CE35 		movb	$53, -50(%rbp)
 5967 2e6f E8000000 		call	_ZN8UnitTest11CurrentTest7ResultsEv
 5967      00
 5968 2e74 488B00   		movq	(%rax), %rax
 5969 2e77 488D4DD0 		leaq	-48(%rbp), %rcx
 5970 2e7b 488D55CF 		leaq	-49(%rbp), %rdx
 5971 2e7f 488D75CE 		leaq	-50(%rbp), %rsi
 5972 2e83 4889C7   		movq	%rax, %rdi
 5973 2e86 E8000000 		call	_ZN8UnitTest10CheckEqualIccEEvRNS_11TestResultsERKT_RKT0_RKNS_11TestDetailsE
 5973      00
 5974              	.LEHE313:
 5975              	.L382:
 5976              	.LEHB314:
 137:testConv.cpp  **** 	CHECK_EQUAL('6', getHexLowerNibble(0xF6));
 5977              		.loc 3 137 0 is_stmt 1
 5978 2e8b E8000000 		call	_ZN8UnitTest11CurrentTest7DetailsEv
 5978      00
 5979 2e90 488B08   		movq	(%rax), %rcx
 5980 2e93 488D45D0 		leaq	-48(%rbp), %rax
 5981 2e97 BA890000 		movl	$137, %edx
 5981      00
 5982 2e9c 4889CE   		movq	%rcx, %rsi
 5983 2e9f 4889C7   		movq	%rax, %rdi
 5984 2ea2 E8000000 		call	_ZN8UnitTest11TestDetailsC1ERKS0_i
 5984      00
 5985              		.loc 3 137 0 is_stmt 0 discriminator 1
 5986 2ea7 BFF60000 		movl	$246, %edi
 5986      00
 5987 2eac E8000000 		call	getHexLowerNibble
 5987      00
 5988 2eb1 8845CF   		movb	%al, -49(%rbp)
 5989 2eb4 C645CE36 		movb	$54, -50(%rbp)
 5990 2eb8 E8000000 		call	_ZN8UnitTest11CurrentTest7ResultsEv
 5990      00
 5991 2ebd 488B00   		movq	(%rax), %rax
 5992 2ec0 488D4DD0 		leaq	-48(%rbp), %rcx
 5993 2ec4 488D55CF 		leaq	-49(%rbp), %rdx
 5994 2ec8 488D75CE 		leaq	-50(%rbp), %rsi
 5995 2ecc 4889C7   		movq	%rax, %rdi
 5996 2ecf E8000000 		call	_ZN8UnitTest10CheckEqualIccEEvRNS_11TestResultsERKT_RKT0_RKNS_11TestDetailsE
 5996      00
 5997              	.LEHE314:
 5998              	.L385:
 5999              	.LEHB315:
 138:testConv.cpp  **** 	CHECK_EQUAL('7', getHexLowerNibble(0xF7));
 6000              		.loc 3 138 0 is_stmt 1
 6001 2ed4 E8000000 		call	_ZN8UnitTest11CurrentTest7DetailsEv
 6001      00
 6002 2ed9 488B08   		movq	(%rax), %rcx
 6003 2edc 488D45D0 		leaq	-48(%rbp), %rax
 6004 2ee0 BA8A0000 		movl	$138, %edx
 6004      00
 6005 2ee5 4889CE   		movq	%rcx, %rsi
 6006 2ee8 4889C7   		movq	%rax, %rdi
 6007 2eeb E8000000 		call	_ZN8UnitTest11TestDetailsC1ERKS0_i
 6007      00
 6008              		.loc 3 138 0 is_stmt 0 discriminator 1
 6009 2ef0 BFF70000 		movl	$247, %edi
 6009      00
 6010 2ef5 E8000000 		call	getHexLowerNibble
 6010      00
 6011 2efa 8845CF   		movb	%al, -49(%rbp)
 6012 2efd C645CE37 		movb	$55, -50(%rbp)
 6013 2f01 E8000000 		call	_ZN8UnitTest11CurrentTest7ResultsEv
 6013      00
 6014 2f06 488B00   		movq	(%rax), %rax
 6015 2f09 488D4DD0 		leaq	-48(%rbp), %rcx
 6016 2f0d 488D55CF 		leaq	-49(%rbp), %rdx
 6017 2f11 488D75CE 		leaq	-50(%rbp), %rsi
 6018 2f15 4889C7   		movq	%rax, %rdi
 6019 2f18 E8000000 		call	_ZN8UnitTest10CheckEqualIccEEvRNS_11TestResultsERKT_RKT0_RKNS_11TestDetailsE
 6019      00
 6020              	.LEHE315:
 6021              	.L388:
 6022              	.LEHB316:
 139:testConv.cpp  **** 	CHECK_EQUAL('8', getHexLowerNibble(0xF8));
 6023              		.loc 3 139 0 is_stmt 1
 6024 2f1d E8000000 		call	_ZN8UnitTest11CurrentTest7DetailsEv
 6024      00
 6025 2f22 488B08   		movq	(%rax), %rcx
 6026 2f25 488D45D0 		leaq	-48(%rbp), %rax
 6027 2f29 BA8B0000 		movl	$139, %edx
 6027      00
 6028 2f2e 4889CE   		movq	%rcx, %rsi
 6029 2f31 4889C7   		movq	%rax, %rdi
 6030 2f34 E8000000 		call	_ZN8UnitTest11TestDetailsC1ERKS0_i
 6030      00
 6031              		.loc 3 139 0 is_stmt 0 discriminator 1
 6032 2f39 BFF80000 		movl	$248, %edi
 6032      00
 6033 2f3e E8000000 		call	getHexLowerNibble
 6033      00
 6034 2f43 8845CF   		movb	%al, -49(%rbp)
 6035 2f46 C645CE38 		movb	$56, -50(%rbp)
 6036 2f4a E8000000 		call	_ZN8UnitTest11CurrentTest7ResultsEv
 6036      00
 6037 2f4f 488B00   		movq	(%rax), %rax
 6038 2f52 488D4DD0 		leaq	-48(%rbp), %rcx
 6039 2f56 488D55CF 		leaq	-49(%rbp), %rdx
 6040 2f5a 488D75CE 		leaq	-50(%rbp), %rsi
 6041 2f5e 4889C7   		movq	%rax, %rdi
 6042 2f61 E8000000 		call	_ZN8UnitTest10CheckEqualIccEEvRNS_11TestResultsERKT_RKT0_RKNS_11TestDetailsE
 6042      00
 6043              	.LEHE316:
 6044              	.L391:
 6045              	.LEHB317:
 140:testConv.cpp  **** 	CHECK_EQUAL('9', getHexLowerNibble(0xF9));
 6046              		.loc 3 140 0 is_stmt 1
 6047 2f66 E8000000 		call	_ZN8UnitTest11CurrentTest7DetailsEv
 6047      00
 6048 2f6b 488B08   		movq	(%rax), %rcx
 6049 2f6e 488D45D0 		leaq	-48(%rbp), %rax
 6050 2f72 BA8C0000 		movl	$140, %edx
 6050      00
 6051 2f77 4889CE   		movq	%rcx, %rsi
 6052 2f7a 4889C7   		movq	%rax, %rdi
 6053 2f7d E8000000 		call	_ZN8UnitTest11TestDetailsC1ERKS0_i
 6053      00
 6054              		.loc 3 140 0 is_stmt 0 discriminator 1
 6055 2f82 BFF90000 		movl	$249, %edi
 6055      00
 6056 2f87 E8000000 		call	getHexLowerNibble
 6056      00
 6057 2f8c 8845CF   		movb	%al, -49(%rbp)
 6058 2f8f C645CE39 		movb	$57, -50(%rbp)
 6059 2f93 E8000000 		call	_ZN8UnitTest11CurrentTest7ResultsEv
 6059      00
 6060 2f98 488B00   		movq	(%rax), %rax
 6061 2f9b 488D4DD0 		leaq	-48(%rbp), %rcx
 6062 2f9f 488D55CF 		leaq	-49(%rbp), %rdx
 6063 2fa3 488D75CE 		leaq	-50(%rbp), %rsi
 6064 2fa7 4889C7   		movq	%rax, %rdi
 6065 2faa E8000000 		call	_ZN8UnitTest10CheckEqualIccEEvRNS_11TestResultsERKT_RKT0_RKNS_11TestDetailsE
 6065      00
 6066              	.LEHE317:
 6067              	.L394:
 6068              	.LEHB318:
 141:testConv.cpp  **** 	CHECK_EQUAL('A', getHexLowerNibble(0xFA));
 6069              		.loc 3 141 0 is_stmt 1
 6070 2faf E8000000 		call	_ZN8UnitTest11CurrentTest7DetailsEv
 6070      00
 6071 2fb4 488B08   		movq	(%rax), %rcx
 6072 2fb7 488D45D0 		leaq	-48(%rbp), %rax
 6073 2fbb BA8D0000 		movl	$141, %edx
 6073      00
 6074 2fc0 4889CE   		movq	%rcx, %rsi
 6075 2fc3 4889C7   		movq	%rax, %rdi
 6076 2fc6 E8000000 		call	_ZN8UnitTest11TestDetailsC1ERKS0_i
 6076      00
 6077              		.loc 3 141 0 is_stmt 0 discriminator 1
 6078 2fcb BFFA0000 		movl	$250, %edi
 6078      00
 6079 2fd0 E8000000 		call	getHexLowerNibble
 6079      00
 6080 2fd5 8845CF   		movb	%al, -49(%rbp)
 6081 2fd8 C645CE41 		movb	$65, -50(%rbp)
 6082 2fdc E8000000 		call	_ZN8UnitTest11CurrentTest7ResultsEv
 6082      00
 6083 2fe1 488B00   		movq	(%rax), %rax
 6084 2fe4 488D4DD0 		leaq	-48(%rbp), %rcx
 6085 2fe8 488D55CF 		leaq	-49(%rbp), %rdx
 6086 2fec 488D75CE 		leaq	-50(%rbp), %rsi
 6087 2ff0 4889C7   		movq	%rax, %rdi
 6088 2ff3 E8000000 		call	_ZN8UnitTest10CheckEqualIccEEvRNS_11TestResultsERKT_RKT0_RKNS_11TestDetailsE
 6088      00
 6089              	.LEHE318:
 6090              	.L397:
 6091              	.LEHB319:
 142:testConv.cpp  **** 	CHECK_EQUAL('B', getHexLowerNibble(0xFB));
 6092              		.loc 3 142 0 is_stmt 1
 6093 2ff8 E8000000 		call	_ZN8UnitTest11CurrentTest7DetailsEv
 6093      00
 6094 2ffd 488B08   		movq	(%rax), %rcx
 6095 3000 488D45D0 		leaq	-48(%rbp), %rax
 6096 3004 BA8E0000 		movl	$142, %edx
 6096      00
 6097 3009 4889CE   		movq	%rcx, %rsi
 6098 300c 4889C7   		movq	%rax, %rdi
 6099 300f E8000000 		call	_ZN8UnitTest11TestDetailsC1ERKS0_i
 6099      00
 6100              		.loc 3 142 0 is_stmt 0 discriminator 1
 6101 3014 BFFB0000 		movl	$251, %edi
 6101      00
 6102 3019 E8000000 		call	getHexLowerNibble
 6102      00
 6103 301e 8845CF   		movb	%al, -49(%rbp)
 6104 3021 C645CE42 		movb	$66, -50(%rbp)
 6105 3025 E8000000 		call	_ZN8UnitTest11CurrentTest7ResultsEv
 6105      00
 6106 302a 488B00   		movq	(%rax), %rax
 6107 302d 488D4DD0 		leaq	-48(%rbp), %rcx
 6108 3031 488D55CF 		leaq	-49(%rbp), %rdx
 6109 3035 488D75CE 		leaq	-50(%rbp), %rsi
 6110 3039 4889C7   		movq	%rax, %rdi
 6111 303c E8000000 		call	_ZN8UnitTest10CheckEqualIccEEvRNS_11TestResultsERKT_RKT0_RKNS_11TestDetailsE
 6111      00
 6112              	.LEHE319:
 6113              	.L400:
 6114              	.LEHB320:
 143:testConv.cpp  **** 	CHECK_EQUAL('C', getHexLowerNibble(0xFC));
 6115              		.loc 3 143 0 is_stmt 1
 6116 3041 E8000000 		call	_ZN8UnitTest11CurrentTest7DetailsEv
 6116      00
 6117 3046 488B08   		movq	(%rax), %rcx
 6118 3049 488D45D0 		leaq	-48(%rbp), %rax
 6119 304d BA8F0000 		movl	$143, %edx
 6119      00
 6120 3052 4889CE   		movq	%rcx, %rsi
 6121 3055 4889C7   		movq	%rax, %rdi
 6122 3058 E8000000 		call	_ZN8UnitTest11TestDetailsC1ERKS0_i
 6122      00
 6123              		.loc 3 143 0 is_stmt 0 discriminator 1
 6124 305d BFFC0000 		movl	$252, %edi
 6124      00
 6125 3062 E8000000 		call	getHexLowerNibble
 6125      00
 6126 3067 8845CF   		movb	%al, -49(%rbp)
 6127 306a C645CE43 		movb	$67, -50(%rbp)
 6128 306e E8000000 		call	_ZN8UnitTest11CurrentTest7ResultsEv
 6128      00
 6129 3073 488B00   		movq	(%rax), %rax
 6130 3076 488D4DD0 		leaq	-48(%rbp), %rcx
 6131 307a 488D55CF 		leaq	-49(%rbp), %rdx
 6132 307e 488D75CE 		leaq	-50(%rbp), %rsi
 6133 3082 4889C7   		movq	%rax, %rdi
 6134 3085 E8000000 		call	_ZN8UnitTest10CheckEqualIccEEvRNS_11TestResultsERKT_RKT0_RKNS_11TestDetailsE
 6134      00
 6135              	.LEHE320:
 6136              	.L403:
 6137              	.LEHB321:
 144:testConv.cpp  **** 	CHECK_EQUAL('D', getHexLowerNibble(0xFD));
 6138              		.loc 3 144 0 is_stmt 1
 6139 308a E8000000 		call	_ZN8UnitTest11CurrentTest7DetailsEv
 6139      00
 6140 308f 488B08   		movq	(%rax), %rcx
 6141 3092 488D45D0 		leaq	-48(%rbp), %rax
 6142 3096 BA900000 		movl	$144, %edx
 6142      00
 6143 309b 4889CE   		movq	%rcx, %rsi
 6144 309e 4889C7   		movq	%rax, %rdi
 6145 30a1 E8000000 		call	_ZN8UnitTest11TestDetailsC1ERKS0_i
 6145      00
 6146              		.loc 3 144 0 is_stmt 0 discriminator 1
 6147 30a6 BFFD0000 		movl	$253, %edi
 6147      00
 6148 30ab E8000000 		call	getHexLowerNibble
 6148      00
 6149 30b0 8845CF   		movb	%al, -49(%rbp)
 6150 30b3 C645CE44 		movb	$68, -50(%rbp)
 6151 30b7 E8000000 		call	_ZN8UnitTest11CurrentTest7ResultsEv
 6151      00
 6152 30bc 488B00   		movq	(%rax), %rax
 6153 30bf 488D4DD0 		leaq	-48(%rbp), %rcx
 6154 30c3 488D55CF 		leaq	-49(%rbp), %rdx
 6155 30c7 488D75CE 		leaq	-50(%rbp), %rsi
 6156 30cb 4889C7   		movq	%rax, %rdi
 6157 30ce E8000000 		call	_ZN8UnitTest10CheckEqualIccEEvRNS_11TestResultsERKT_RKT0_RKNS_11TestDetailsE
 6157      00
 6158              	.LEHE321:
 6159              	.L406:
 6160              	.LEHB322:
 145:testConv.cpp  **** 	CHECK_EQUAL('E', getHexLowerNibble(0xFE));
 6161              		.loc 3 145 0 is_stmt 1
 6162 30d3 E8000000 		call	_ZN8UnitTest11CurrentTest7DetailsEv
 6162      00
 6163 30d8 488B08   		movq	(%rax), %rcx
 6164 30db 488D45D0 		leaq	-48(%rbp), %rax
 6165 30df BA910000 		movl	$145, %edx
 6165      00
 6166 30e4 4889CE   		movq	%rcx, %rsi
 6167 30e7 4889C7   		movq	%rax, %rdi
 6168 30ea E8000000 		call	_ZN8UnitTest11TestDetailsC1ERKS0_i
 6168      00
 6169              		.loc 3 145 0 is_stmt 0 discriminator 1
 6170 30ef BFFE0000 		movl	$254, %edi
 6170      00
 6171 30f4 E8000000 		call	getHexLowerNibble
 6171      00
 6172 30f9 8845CF   		movb	%al, -49(%rbp)
 6173 30fc C645CE45 		movb	$69, -50(%rbp)
 6174 3100 E8000000 		call	_ZN8UnitTest11CurrentTest7ResultsEv
 6174      00
 6175 3105 488B00   		movq	(%rax), %rax
 6176 3108 488D4DD0 		leaq	-48(%rbp), %rcx
 6177 310c 488D55CF 		leaq	-49(%rbp), %rdx
 6178 3110 488D75CE 		leaq	-50(%rbp), %rsi
 6179 3114 4889C7   		movq	%rax, %rdi
 6180 3117 E8000000 		call	_ZN8UnitTest10CheckEqualIccEEvRNS_11TestResultsERKT_RKT0_RKNS_11TestDetailsE
 6180      00
 6181              	.LEHE322:
 6182              	.L409:
 6183              	.LEHB323:
 146:testConv.cpp  **** 	CHECK_EQUAL('F', getHexLowerNibble(0xFF));
 6184              		.loc 3 146 0 is_stmt 1
 6185 311c E8000000 		call	_ZN8UnitTest11CurrentTest7DetailsEv
 6185      00
 6186 3121 488B08   		movq	(%rax), %rcx
 6187 3124 488D45D0 		leaq	-48(%rbp), %rax
 6188 3128 BA920000 		movl	$146, %edx
 6188      00
 6189 312d 4889CE   		movq	%rcx, %rsi
 6190 3130 4889C7   		movq	%rax, %rdi
 6191 3133 E8000000 		call	_ZN8UnitTest11TestDetailsC1ERKS0_i
 6191      00
 6192              		.loc 3 146 0 is_stmt 0 discriminator 1
 6193 3138 BFFF0000 		movl	$255, %edi
 6193      00
 6194 313d E8000000 		call	getHexLowerNibble
 6194      00
 6195 3142 8845CF   		movb	%al, -49(%rbp)
 6196 3145 C645CE46 		movb	$70, -50(%rbp)
 6197 3149 E8000000 		call	_ZN8UnitTest11CurrentTest7ResultsEv
 6197      00
 6198 314e 488B00   		movq	(%rax), %rax
 6199 3151 488D4DD0 		leaq	-48(%rbp), %rcx
 6200 3155 488D55CF 		leaq	-49(%rbp), %rdx
 6201 3159 488D75CE 		leaq	-50(%rbp), %rsi
 6202 315d 4889C7   		movq	%rax, %rdi
 6203 3160 E8000000 		call	_ZN8UnitTest10CheckEqualIccEEvRNS_11TestResultsERKT_RKT0_RKNS_11TestDetailsE
 6203      00
 6204              	.LEHE323:
 147:testConv.cpp  **** }
 6205              		.loc 3 147 0 is_stmt 1
 6206 3165 E9CB0500 		jmp	.L445
 6206      00
 6207              	.L414:
 6208 316a 4889C3   		movq	%rax, %rbx
 131:testConv.cpp  **** 	CHECK_EQUAL('1', getHexLowerNibble(0xF1));
 6209              		.loc 3 131 0
 6210 316d E8000000 		call	__cxa_end_catch
 6210      00
 6211 3172 4889D8   		movq	%rbx, %rax
 6212 3175 4889C7   		movq	%rax, %rdi
 6213              	.LEHB324:
 6214 3178 E8000000 		call	_Unwind_Resume
 6214      00
 6215              	.LEHE324:
 6216              	.L413:
 6217 317d 4889C7   		movq	%rax, %rdi
 6218 3180 E8000000 		call	__cxa_begin_catch
 6218      00
 6219              	.LEHB325:
 6220 3185 E8000000 		call	_ZN8UnitTest11CurrentTest7DetailsEv
 6220      00
 6221 318a 488B08   		movq	(%rax), %rcx
 6222 318d 488D45D0 		leaq	-48(%rbp), %rax
 6223 3191 BA830000 		movl	$131, %edx
 6223      00
 6224 3196 4889CE   		movq	%rcx, %rsi
 6225 3199 4889C7   		movq	%rax, %rdi
 6226 319c E8000000 		call	_ZN8UnitTest11TestDetailsC1ERKS0_i
 6226      00
 131:testConv.cpp  **** 	CHECK_EQUAL('1', getHexLowerNibble(0xF1));
 6227              		.loc 3 131 0 is_stmt 0 discriminator 1
 6228 31a1 E8000000 		call	_ZN8UnitTest11CurrentTest7ResultsEv
 6228      00
 6229 31a6 488B00   		movq	(%rax), %rax
 6230 31a9 488D4DD0 		leaq	-48(%rbp), %rcx
 6231 31ad BA000000 		movl	$.LC48, %edx
 6231      00
 6232 31b2 4889CE   		movq	%rcx, %rsi
 6233 31b5 4889C7   		movq	%rax, %rdi
 6234 31b8 E8000000 		call	_ZN8UnitTest11TestResults13OnTestFailureERKNS_11TestDetailsEPKc
 6234      00
 6235              	.LEHE325:
 6236              	.LEHB326:
 6237 31bd E8000000 		call	__cxa_end_catch
 6237      00
 6238              	.LEHE326:
 6239 31c2 E957FBFF 		jmp	.L367
 6239      FF
 6240              	.L416:
 6241 31c7 4889C3   		movq	%rax, %rbx
 132:testConv.cpp  **** 	CHECK_EQUAL('2', getHexLowerNibble(0xF2));
 6242              		.loc 3 132 0 is_stmt 1
 6243 31ca E8000000 		call	__cxa_end_catch
 6243      00
 6244 31cf 4889D8   		movq	%rbx, %rax
 6245 31d2 4889C7   		movq	%rax, %rdi
 6246              	.LEHB327:
 6247 31d5 E8000000 		call	_Unwind_Resume
 6247      00
 6248              	.LEHE327:
 6249              	.L415:
 6250 31da 4889C7   		movq	%rax, %rdi
 6251 31dd E8000000 		call	__cxa_begin_catch
 6251      00
 6252              	.LEHB328:
 6253 31e2 E8000000 		call	_ZN8UnitTest11CurrentTest7DetailsEv
 6253      00
 6254 31e7 488B08   		movq	(%rax), %rcx
 6255 31ea 488D45D0 		leaq	-48(%rbp), %rax
 6256 31ee BA840000 		movl	$132, %edx
 6256      00
 6257 31f3 4889CE   		movq	%rcx, %rsi
 6258 31f6 4889C7   		movq	%rax, %rdi
 6259 31f9 E8000000 		call	_ZN8UnitTest11TestDetailsC1ERKS0_i
 6259      00
 132:testConv.cpp  **** 	CHECK_EQUAL('2', getHexLowerNibble(0xF2));
 6260              		.loc 3 132 0 is_stmt 0 discriminator 1
 6261 31fe E8000000 		call	_ZN8UnitTest11CurrentTest7ResultsEv
 6261      00
 6262 3203 488B00   		movq	(%rax), %rax
 6263 3206 488D4DD0 		leaq	-48(%rbp), %rcx
 6264 320a BA000000 		movl	$.LC49, %edx
 6264      00
 6265 320f 4889CE   		movq	%rcx, %rsi
 6266 3212 4889C7   		movq	%rax, %rdi
 6267 3215 E8000000 		call	_ZN8UnitTest11TestResults13OnTestFailureERKNS_11TestDetailsEPKc
 6267      00
 6268              	.LEHE328:
 6269              	.LEHB329:
 6270 321a E8000000 		call	__cxa_end_catch
 6270      00
 6271              	.LEHE329:
 6272 321f E943FBFF 		jmp	.L370
 6272      FF
 6273              	.L418:
 6274 3224 4889C3   		movq	%rax, %rbx
 133:testConv.cpp  **** 	CHECK_EQUAL('3', getHexLowerNibble(0xF3));
 6275              		.loc 3 133 0 is_stmt 1
 6276 3227 E8000000 		call	__cxa_end_catch
 6276      00
 6277 322c 4889D8   		movq	%rbx, %rax
 6278 322f 4889C7   		movq	%rax, %rdi
 6279              	.LEHB330:
 6280 3232 E8000000 		call	_Unwind_Resume
 6280      00
 6281              	.LEHE330:
 6282              	.L417:
 6283 3237 4889C7   		movq	%rax, %rdi
 6284 323a E8000000 		call	__cxa_begin_catch
 6284      00
 6285              	.LEHB331:
 6286 323f E8000000 		call	_ZN8UnitTest11CurrentTest7DetailsEv
 6286      00
 6287 3244 488B08   		movq	(%rax), %rcx
 6288 3247 488D45D0 		leaq	-48(%rbp), %rax
 6289 324b BA850000 		movl	$133, %edx
 6289      00
 6290 3250 4889CE   		movq	%rcx, %rsi
 6291 3253 4889C7   		movq	%rax, %rdi
 6292 3256 E8000000 		call	_ZN8UnitTest11TestDetailsC1ERKS0_i
 6292      00
 133:testConv.cpp  **** 	CHECK_EQUAL('3', getHexLowerNibble(0xF3));
 6293              		.loc 3 133 0 is_stmt 0 discriminator 1
 6294 325b E8000000 		call	_ZN8UnitTest11CurrentTest7ResultsEv
 6294      00
 6295 3260 488B00   		movq	(%rax), %rax
 6296 3263 488D4DD0 		leaq	-48(%rbp), %rcx
 6297 3267 BA000000 		movl	$.LC50, %edx
 6297      00
 6298 326c 4889CE   		movq	%rcx, %rsi
 6299 326f 4889C7   		movq	%rax, %rdi
 6300 3272 E8000000 		call	_ZN8UnitTest11TestResults13OnTestFailureERKNS_11TestDetailsEPKc
 6300      00
 6301              	.LEHE331:
 6302              	.LEHB332:
 6303 3277 E8000000 		call	__cxa_end_catch
 6303      00
 6304              	.LEHE332:
 6305 327c E92FFBFF 		jmp	.L373
 6305      FF
 6306              	.L420:
 6307 3281 4889C3   		movq	%rax, %rbx
 134:testConv.cpp  **** 	CHECK_EQUAL('4', getHexLowerNibble(0xF4));
 6308              		.loc 3 134 0 is_stmt 1
 6309 3284 E8000000 		call	__cxa_end_catch
 6309      00
 6310 3289 4889D8   		movq	%rbx, %rax
 6311 328c 4889C7   		movq	%rax, %rdi
 6312              	.LEHB333:
 6313 328f E8000000 		call	_Unwind_Resume
 6313      00
 6314              	.LEHE333:
 6315              	.L419:
 6316 3294 4889C7   		movq	%rax, %rdi
 6317 3297 E8000000 		call	__cxa_begin_catch
 6317      00
 6318              	.LEHB334:
 6319 329c E8000000 		call	_ZN8UnitTest11CurrentTest7DetailsEv
 6319      00
 6320 32a1 488B08   		movq	(%rax), %rcx
 6321 32a4 488D45D0 		leaq	-48(%rbp), %rax
 6322 32a8 BA860000 		movl	$134, %edx
 6322      00
 6323 32ad 4889CE   		movq	%rcx, %rsi
 6324 32b0 4889C7   		movq	%rax, %rdi
 6325 32b3 E8000000 		call	_ZN8UnitTest11TestDetailsC1ERKS0_i
 6325      00
 134:testConv.cpp  **** 	CHECK_EQUAL('4', getHexLowerNibble(0xF4));
 6326              		.loc 3 134 0 is_stmt 0 discriminator 1
 6327 32b8 E8000000 		call	_ZN8UnitTest11CurrentTest7ResultsEv
 6327      00
 6328 32bd 488B00   		movq	(%rax), %rax
 6329 32c0 488D4DD0 		leaq	-48(%rbp), %rcx
 6330 32c4 BA000000 		movl	$.LC51, %edx
 6330      00
 6331 32c9 4889CE   		movq	%rcx, %rsi
 6332 32cc 4889C7   		movq	%rax, %rdi
 6333 32cf E8000000 		call	_ZN8UnitTest11TestResults13OnTestFailureERKNS_11TestDetailsEPKc
 6333      00
 6334              	.LEHE334:
 6335              	.LEHB335:
 6336 32d4 E8000000 		call	__cxa_end_catch
 6336      00
 6337              	.LEHE335:
 6338 32d9 E91BFBFF 		jmp	.L376
 6338      FF
 6339              	.L422:
 6340 32de 4889C3   		movq	%rax, %rbx
 135:testConv.cpp  **** 	CHECK_EQUAL('5', getHexLowerNibble(0xF5));
 6341              		.loc 3 135 0 is_stmt 1
 6342 32e1 E8000000 		call	__cxa_end_catch
 6342      00
 6343 32e6 4889D8   		movq	%rbx, %rax
 6344 32e9 4889C7   		movq	%rax, %rdi
 6345              	.LEHB336:
 6346 32ec E8000000 		call	_Unwind_Resume
 6346      00
 6347              	.LEHE336:
 6348              	.L421:
 6349 32f1 4889C7   		movq	%rax, %rdi
 6350 32f4 E8000000 		call	__cxa_begin_catch
 6350      00
 6351              	.LEHB337:
 6352 32f9 E8000000 		call	_ZN8UnitTest11CurrentTest7DetailsEv
 6352      00
 6353 32fe 488B08   		movq	(%rax), %rcx
 6354 3301 488D45D0 		leaq	-48(%rbp), %rax
 6355 3305 BA870000 		movl	$135, %edx
 6355      00
 6356 330a 4889CE   		movq	%rcx, %rsi
 6357 330d 4889C7   		movq	%rax, %rdi
 6358 3310 E8000000 		call	_ZN8UnitTest11TestDetailsC1ERKS0_i
 6358      00
 135:testConv.cpp  **** 	CHECK_EQUAL('5', getHexLowerNibble(0xF5));
 6359              		.loc 3 135 0 is_stmt 0 discriminator 1
 6360 3315 E8000000 		call	_ZN8UnitTest11CurrentTest7ResultsEv
 6360      00
 6361 331a 488B00   		movq	(%rax), %rax
 6362 331d 488D4DD0 		leaq	-48(%rbp), %rcx
 6363 3321 BA000000 		movl	$.LC52, %edx
 6363      00
 6364 3326 4889CE   		movq	%rcx, %rsi
 6365 3329 4889C7   		movq	%rax, %rdi
 6366 332c E8000000 		call	_ZN8UnitTest11TestResults13OnTestFailureERKNS_11TestDetailsEPKc
 6366      00
 6367              	.LEHE337:
 6368              	.LEHB338:
 6369 3331 E8000000 		call	__cxa_end_catch
 6369      00
 6370              	.LEHE338:
 6371 3336 E907FBFF 		jmp	.L379
 6371      FF
 6372              	.L424:
 6373 333b 4889C3   		movq	%rax, %rbx
 136:testConv.cpp  **** 	CHECK_EQUAL('6', getHexLowerNibble(0xF6));
 6374              		.loc 3 136 0 is_stmt 1
 6375 333e E8000000 		call	__cxa_end_catch
 6375      00
 6376 3343 4889D8   		movq	%rbx, %rax
 6377 3346 4889C7   		movq	%rax, %rdi
 6378              	.LEHB339:
 6379 3349 E8000000 		call	_Unwind_Resume
 6379      00
 6380              	.LEHE339:
 6381              	.L423:
 6382 334e 4889C7   		movq	%rax, %rdi
 6383 3351 E8000000 		call	__cxa_begin_catch
 6383      00
 6384              	.LEHB340:
 6385 3356 E8000000 		call	_ZN8UnitTest11CurrentTest7DetailsEv
 6385      00
 6386 335b 488B08   		movq	(%rax), %rcx
 6387 335e 488D45D0 		leaq	-48(%rbp), %rax
 6388 3362 BA880000 		movl	$136, %edx
 6388      00
 6389 3367 4889CE   		movq	%rcx, %rsi
 6390 336a 4889C7   		movq	%rax, %rdi
 6391 336d E8000000 		call	_ZN8UnitTest11TestDetailsC1ERKS0_i
 6391      00
 136:testConv.cpp  **** 	CHECK_EQUAL('6', getHexLowerNibble(0xF6));
 6392              		.loc 3 136 0 is_stmt 0 discriminator 1
 6393 3372 E8000000 		call	_ZN8UnitTest11CurrentTest7ResultsEv
 6393      00
 6394 3377 488B00   		movq	(%rax), %rax
 6395 337a 488D4DD0 		leaq	-48(%rbp), %rcx
 6396 337e BA000000 		movl	$.LC53, %edx
 6396      00
 6397 3383 4889CE   		movq	%rcx, %rsi
 6398 3386 4889C7   		movq	%rax, %rdi
 6399 3389 E8000000 		call	_ZN8UnitTest11TestResults13OnTestFailureERKNS_11TestDetailsEPKc
 6399      00
 6400              	.LEHE340:
 6401              	.LEHB341:
 6402 338e E8000000 		call	__cxa_end_catch
 6402      00
 6403              	.LEHE341:
 6404 3393 E9F3FAFF 		jmp	.L382
 6404      FF
 6405              	.L426:
 6406 3398 4889C3   		movq	%rax, %rbx
 137:testConv.cpp  **** 	CHECK_EQUAL('7', getHexLowerNibble(0xF7));
 6407              		.loc 3 137 0 is_stmt 1
 6408 339b E8000000 		call	__cxa_end_catch
 6408      00
 6409 33a0 4889D8   		movq	%rbx, %rax
 6410 33a3 4889C7   		movq	%rax, %rdi
 6411              	.LEHB342:
 6412 33a6 E8000000 		call	_Unwind_Resume
 6412      00
 6413              	.LEHE342:
 6414              	.L425:
 6415 33ab 4889C7   		movq	%rax, %rdi
 6416 33ae E8000000 		call	__cxa_begin_catch
 6416      00
 6417              	.LEHB343:
 6418 33b3 E8000000 		call	_ZN8UnitTest11CurrentTest7DetailsEv
 6418      00
 6419 33b8 488B08   		movq	(%rax), %rcx
 6420 33bb 488D45D0 		leaq	-48(%rbp), %rax
 6421 33bf BA890000 		movl	$137, %edx
 6421      00
 6422 33c4 4889CE   		movq	%rcx, %rsi
 6423 33c7 4889C7   		movq	%rax, %rdi
 6424 33ca E8000000 		call	_ZN8UnitTest11TestDetailsC1ERKS0_i
 6424      00
 137:testConv.cpp  **** 	CHECK_EQUAL('7', getHexLowerNibble(0xF7));
 6425              		.loc 3 137 0 is_stmt 0 discriminator 1
 6426 33cf E8000000 		call	_ZN8UnitTest11CurrentTest7ResultsEv
 6426      00
 6427 33d4 488B00   		movq	(%rax), %rax
 6428 33d7 488D4DD0 		leaq	-48(%rbp), %rcx
 6429 33db BA000000 		movl	$.LC54, %edx
 6429      00
 6430 33e0 4889CE   		movq	%rcx, %rsi
 6431 33e3 4889C7   		movq	%rax, %rdi
 6432 33e6 E8000000 		call	_ZN8UnitTest11TestResults13OnTestFailureERKNS_11TestDetailsEPKc
 6432      00
 6433              	.LEHE343:
 6434              	.LEHB344:
 6435 33eb E8000000 		call	__cxa_end_catch
 6435      00
 6436              	.LEHE344:
 6437 33f0 E9DFFAFF 		jmp	.L385
 6437      FF
 6438              	.L428:
 6439 33f5 4889C3   		movq	%rax, %rbx
 138:testConv.cpp  **** 	CHECK_EQUAL('8', getHexLowerNibble(0xF8));
 6440              		.loc 3 138 0 is_stmt 1
 6441 33f8 E8000000 		call	__cxa_end_catch
 6441      00
 6442 33fd 4889D8   		movq	%rbx, %rax
 6443 3400 4889C7   		movq	%rax, %rdi
 6444              	.LEHB345:
 6445 3403 E8000000 		call	_Unwind_Resume
 6445      00
 6446              	.LEHE345:
 6447              	.L427:
 6448 3408 4889C7   		movq	%rax, %rdi
 6449 340b E8000000 		call	__cxa_begin_catch
 6449      00
 6450              	.LEHB346:
 6451 3410 E8000000 		call	_ZN8UnitTest11CurrentTest7DetailsEv
 6451      00
 6452 3415 488B08   		movq	(%rax), %rcx
 6453 3418 488D45D0 		leaq	-48(%rbp), %rax
 6454 341c BA8A0000 		movl	$138, %edx
 6454      00
 6455 3421 4889CE   		movq	%rcx, %rsi
 6456 3424 4889C7   		movq	%rax, %rdi
 6457 3427 E8000000 		call	_ZN8UnitTest11TestDetailsC1ERKS0_i
 6457      00
 138:testConv.cpp  **** 	CHECK_EQUAL('8', getHexLowerNibble(0xF8));
 6458              		.loc 3 138 0 is_stmt 0 discriminator 1
 6459 342c E8000000 		call	_ZN8UnitTest11CurrentTest7ResultsEv
 6459      00
 6460 3431 488B00   		movq	(%rax), %rax
 6461 3434 488D4DD0 		leaq	-48(%rbp), %rcx
 6462 3438 BA000000 		movl	$.LC55, %edx
 6462      00
 6463 343d 4889CE   		movq	%rcx, %rsi
 6464 3440 4889C7   		movq	%rax, %rdi
 6465 3443 E8000000 		call	_ZN8UnitTest11TestResults13OnTestFailureERKNS_11TestDetailsEPKc
 6465      00
 6466              	.LEHE346:
 6467              	.LEHB347:
 6468 3448 E8000000 		call	__cxa_end_catch
 6468      00
 6469              	.LEHE347:
 6470 344d E9CBFAFF 		jmp	.L388
 6470      FF
 6471              	.L430:
 6472 3452 4889C3   		movq	%rax, %rbx
 139:testConv.cpp  **** 	CHECK_EQUAL('9', getHexLowerNibble(0xF9));
 6473              		.loc 3 139 0 is_stmt 1
 6474 3455 E8000000 		call	__cxa_end_catch
 6474      00
 6475 345a 4889D8   		movq	%rbx, %rax
 6476 345d 4889C7   		movq	%rax, %rdi
 6477              	.LEHB348:
 6478 3460 E8000000 		call	_Unwind_Resume
 6478      00
 6479              	.LEHE348:
 6480              	.L429:
 6481 3465 4889C7   		movq	%rax, %rdi
 6482 3468 E8000000 		call	__cxa_begin_catch
 6482      00
 6483              	.LEHB349:
 6484 346d E8000000 		call	_ZN8UnitTest11CurrentTest7DetailsEv
 6484      00
 6485 3472 488B08   		movq	(%rax), %rcx
 6486 3475 488D45D0 		leaq	-48(%rbp), %rax
 6487 3479 BA8B0000 		movl	$139, %edx
 6487      00
 6488 347e 4889CE   		movq	%rcx, %rsi
 6489 3481 4889C7   		movq	%rax, %rdi
 6490 3484 E8000000 		call	_ZN8UnitTest11TestDetailsC1ERKS0_i
 6490      00
 139:testConv.cpp  **** 	CHECK_EQUAL('9', getHexLowerNibble(0xF9));
 6491              		.loc 3 139 0 is_stmt 0 discriminator 1
 6492 3489 E8000000 		call	_ZN8UnitTest11CurrentTest7ResultsEv
 6492      00
 6493 348e 488B00   		movq	(%rax), %rax
 6494 3491 488D4DD0 		leaq	-48(%rbp), %rcx
 6495 3495 BA000000 		movl	$.LC56, %edx
 6495      00
 6496 349a 4889CE   		movq	%rcx, %rsi
 6497 349d 4889C7   		movq	%rax, %rdi
 6498 34a0 E8000000 		call	_ZN8UnitTest11TestResults13OnTestFailureERKNS_11TestDetailsEPKc
 6498      00
 6499              	.LEHE349:
 6500              	.LEHB350:
 6501 34a5 E8000000 		call	__cxa_end_catch
 6501      00
 6502              	.LEHE350:
 6503 34aa E9B7FAFF 		jmp	.L391
 6503      FF
 6504              	.L432:
 6505 34af 4889C3   		movq	%rax, %rbx
 140:testConv.cpp  **** 	CHECK_EQUAL('A', getHexLowerNibble(0xFA));
 6506              		.loc 3 140 0 is_stmt 1
 6507 34b2 E8000000 		call	__cxa_end_catch
 6507      00
 6508 34b7 4889D8   		movq	%rbx, %rax
 6509 34ba 4889C7   		movq	%rax, %rdi
 6510              	.LEHB351:
 6511 34bd E8000000 		call	_Unwind_Resume
 6511      00
 6512              	.LEHE351:
 6513              	.L431:
 6514 34c2 4889C7   		movq	%rax, %rdi
 6515 34c5 E8000000 		call	__cxa_begin_catch
 6515      00
 6516              	.LEHB352:
 6517 34ca E8000000 		call	_ZN8UnitTest11CurrentTest7DetailsEv
 6517      00
 6518 34cf 488B08   		movq	(%rax), %rcx
 6519 34d2 488D45D0 		leaq	-48(%rbp), %rax
 6520 34d6 BA8C0000 		movl	$140, %edx
 6520      00
 6521 34db 4889CE   		movq	%rcx, %rsi
 6522 34de 4889C7   		movq	%rax, %rdi
 6523 34e1 E8000000 		call	_ZN8UnitTest11TestDetailsC1ERKS0_i
 6523      00
 140:testConv.cpp  **** 	CHECK_EQUAL('A', getHexLowerNibble(0xFA));
 6524              		.loc 3 140 0 is_stmt 0 discriminator 1
 6525 34e6 E8000000 		call	_ZN8UnitTest11CurrentTest7ResultsEv
 6525      00
 6526 34eb 488B00   		movq	(%rax), %rax
 6527 34ee 488D4DD0 		leaq	-48(%rbp), %rcx
 6528 34f2 BA000000 		movl	$.LC57, %edx
 6528      00
 6529 34f7 4889CE   		movq	%rcx, %rsi
 6530 34fa 4889C7   		movq	%rax, %rdi
 6531 34fd E8000000 		call	_ZN8UnitTest11TestResults13OnTestFailureERKNS_11TestDetailsEPKc
 6531      00
 6532              	.LEHE352:
 6533              	.LEHB353:
 6534 3502 E8000000 		call	__cxa_end_catch
 6534      00
 6535              	.LEHE353:
 6536 3507 E9A3FAFF 		jmp	.L394
 6536      FF
 6537              	.L434:
 6538 350c 4889C3   		movq	%rax, %rbx
 141:testConv.cpp  **** 	CHECK_EQUAL('B', getHexLowerNibble(0xFB));
 6539              		.loc 3 141 0 is_stmt 1
 6540 350f E8000000 		call	__cxa_end_catch
 6540      00
 6541 3514 4889D8   		movq	%rbx, %rax
 6542 3517 4889C7   		movq	%rax, %rdi
 6543              	.LEHB354:
 6544 351a E8000000 		call	_Unwind_Resume
 6544      00
 6545              	.LEHE354:
 6546              	.L433:
 6547 351f 4889C7   		movq	%rax, %rdi
 6548 3522 E8000000 		call	__cxa_begin_catch
 6548      00
 6549              	.LEHB355:
 6550 3527 E8000000 		call	_ZN8UnitTest11CurrentTest7DetailsEv
 6550      00
 6551 352c 488B08   		movq	(%rax), %rcx
 6552 352f 488D45D0 		leaq	-48(%rbp), %rax
 6553 3533 BA8D0000 		movl	$141, %edx
 6553      00
 6554 3538 4889CE   		movq	%rcx, %rsi
 6555 353b 4889C7   		movq	%rax, %rdi
 6556 353e E8000000 		call	_ZN8UnitTest11TestDetailsC1ERKS0_i
 6556      00
 141:testConv.cpp  **** 	CHECK_EQUAL('B', getHexLowerNibble(0xFB));
 6557              		.loc 3 141 0 is_stmt 0 discriminator 1
 6558 3543 E8000000 		call	_ZN8UnitTest11CurrentTest7ResultsEv
 6558      00
 6559 3548 488B00   		movq	(%rax), %rax
 6560 354b 488D4DD0 		leaq	-48(%rbp), %rcx
 6561 354f BA000000 		movl	$.LC58, %edx
 6561      00
 6562 3554 4889CE   		movq	%rcx, %rsi
 6563 3557 4889C7   		movq	%rax, %rdi
 6564 355a E8000000 		call	_ZN8UnitTest11TestResults13OnTestFailureERKNS_11TestDetailsEPKc
 6564      00
 6565              	.LEHE355:
 6566              	.LEHB356:
 6567 355f E8000000 		call	__cxa_end_catch
 6567      00
 6568              	.LEHE356:
 6569 3564 E98FFAFF 		jmp	.L397
 6569      FF
 6570              	.L436:
 6571 3569 4889C3   		movq	%rax, %rbx
 142:testConv.cpp  **** 	CHECK_EQUAL('C', getHexLowerNibble(0xFC));
 6572              		.loc 3 142 0 is_stmt 1
 6573 356c E8000000 		call	__cxa_end_catch
 6573      00
 6574 3571 4889D8   		movq	%rbx, %rax
 6575 3574 4889C7   		movq	%rax, %rdi
 6576              	.LEHB357:
 6577 3577 E8000000 		call	_Unwind_Resume
 6577      00
 6578              	.LEHE357:
 6579              	.L435:
 6580 357c 4889C7   		movq	%rax, %rdi
 6581 357f E8000000 		call	__cxa_begin_catch
 6581      00
 6582              	.LEHB358:
 6583 3584 E8000000 		call	_ZN8UnitTest11CurrentTest7DetailsEv
 6583      00
 6584 3589 488B08   		movq	(%rax), %rcx
 6585 358c 488D45D0 		leaq	-48(%rbp), %rax
 6586 3590 BA8E0000 		movl	$142, %edx
 6586      00
 6587 3595 4889CE   		movq	%rcx, %rsi
 6588 3598 4889C7   		movq	%rax, %rdi
 6589 359b E8000000 		call	_ZN8UnitTest11TestDetailsC1ERKS0_i
 6589      00
 142:testConv.cpp  **** 	CHECK_EQUAL('C', getHexLowerNibble(0xFC));
 6590              		.loc 3 142 0 is_stmt 0 discriminator 1
 6591 35a0 E8000000 		call	_ZN8UnitTest11CurrentTest7ResultsEv
 6591      00
 6592 35a5 488B00   		movq	(%rax), %rax
 6593 35a8 488D4DD0 		leaq	-48(%rbp), %rcx
 6594 35ac BA000000 		movl	$.LC59, %edx
 6594      00
 6595 35b1 4889CE   		movq	%rcx, %rsi
 6596 35b4 4889C7   		movq	%rax, %rdi
 6597 35b7 E8000000 		call	_ZN8UnitTest11TestResults13OnTestFailureERKNS_11TestDetailsEPKc
 6597      00
 6598              	.LEHE358:
 6599              	.LEHB359:
 6600 35bc E8000000 		call	__cxa_end_catch
 6600      00
 6601              	.LEHE359:
 6602 35c1 E97BFAFF 		jmp	.L400
 6602      FF
 6603              	.L438:
 6604 35c6 4889C3   		movq	%rax, %rbx
 143:testConv.cpp  **** 	CHECK_EQUAL('D', getHexLowerNibble(0xFD));
 6605              		.loc 3 143 0 is_stmt 1
 6606 35c9 E8000000 		call	__cxa_end_catch
 6606      00
 6607 35ce 4889D8   		movq	%rbx, %rax
 6608 35d1 4889C7   		movq	%rax, %rdi
 6609              	.LEHB360:
 6610 35d4 E8000000 		call	_Unwind_Resume
 6610      00
 6611              	.LEHE360:
 6612              	.L437:
 6613 35d9 4889C7   		movq	%rax, %rdi
 6614 35dc E8000000 		call	__cxa_begin_catch
 6614      00
 6615              	.LEHB361:
 6616 35e1 E8000000 		call	_ZN8UnitTest11CurrentTest7DetailsEv
 6616      00
 6617 35e6 488B08   		movq	(%rax), %rcx
 6618 35e9 488D45D0 		leaq	-48(%rbp), %rax
 6619 35ed BA8F0000 		movl	$143, %edx
 6619      00
 6620 35f2 4889CE   		movq	%rcx, %rsi
 6621 35f5 4889C7   		movq	%rax, %rdi
 6622 35f8 E8000000 		call	_ZN8UnitTest11TestDetailsC1ERKS0_i
 6622      00
 143:testConv.cpp  **** 	CHECK_EQUAL('D', getHexLowerNibble(0xFD));
 6623              		.loc 3 143 0 is_stmt 0 discriminator 1
 6624 35fd E8000000 		call	_ZN8UnitTest11CurrentTest7ResultsEv
 6624      00
 6625 3602 488B00   		movq	(%rax), %rax
 6626 3605 488D4DD0 		leaq	-48(%rbp), %rcx
 6627 3609 BA000000 		movl	$.LC60, %edx
 6627      00
 6628 360e 4889CE   		movq	%rcx, %rsi
 6629 3611 4889C7   		movq	%rax, %rdi
 6630 3614 E8000000 		call	_ZN8UnitTest11TestResults13OnTestFailureERKNS_11TestDetailsEPKc
 6630      00
 6631              	.LEHE361:
 6632              	.LEHB362:
 6633 3619 E8000000 		call	__cxa_end_catch
 6633      00
 6634              	.LEHE362:
 6635 361e E967FAFF 		jmp	.L403
 6635      FF
 6636              	.L440:
 6637 3623 4889C3   		movq	%rax, %rbx
 144:testConv.cpp  **** 	CHECK_EQUAL('E', getHexLowerNibble(0xFE));
 6638              		.loc 3 144 0 is_stmt 1
 6639 3626 E8000000 		call	__cxa_end_catch
 6639      00
 6640 362b 4889D8   		movq	%rbx, %rax
 6641 362e 4889C7   		movq	%rax, %rdi
 6642              	.LEHB363:
 6643 3631 E8000000 		call	_Unwind_Resume
 6643      00
 6644              	.LEHE363:
 6645              	.L439:
 6646 3636 4889C7   		movq	%rax, %rdi
 6647 3639 E8000000 		call	__cxa_begin_catch
 6647      00
 6648              	.LEHB364:
 6649 363e E8000000 		call	_ZN8UnitTest11CurrentTest7DetailsEv
 6649      00
 6650 3643 488B08   		movq	(%rax), %rcx
 6651 3646 488D45D0 		leaq	-48(%rbp), %rax
 6652 364a BA900000 		movl	$144, %edx
 6652      00
 6653 364f 4889CE   		movq	%rcx, %rsi
 6654 3652 4889C7   		movq	%rax, %rdi
 6655 3655 E8000000 		call	_ZN8UnitTest11TestDetailsC1ERKS0_i
 6655      00
 144:testConv.cpp  **** 	CHECK_EQUAL('E', getHexLowerNibble(0xFE));
 6656              		.loc 3 144 0 is_stmt 0 discriminator 1
 6657 365a E8000000 		call	_ZN8UnitTest11CurrentTest7ResultsEv
 6657      00
 6658 365f 488B00   		movq	(%rax), %rax
 6659 3662 488D4DD0 		leaq	-48(%rbp), %rcx
 6660 3666 BA000000 		movl	$.LC61, %edx
 6660      00
 6661 366b 4889CE   		movq	%rcx, %rsi
 6662 366e 4889C7   		movq	%rax, %rdi
 6663 3671 E8000000 		call	_ZN8UnitTest11TestResults13OnTestFailureERKNS_11TestDetailsEPKc
 6663      00
 6664              	.LEHE364:
 6665              	.LEHB365:
 6666 3676 E8000000 		call	__cxa_end_catch
 6666      00
 6667              	.LEHE365:
 6668 367b E953FAFF 		jmp	.L406
 6668      FF
 6669              	.L442:
 6670 3680 4889C3   		movq	%rax, %rbx
 145:testConv.cpp  **** 	CHECK_EQUAL('F', getHexLowerNibble(0xFF));
 6671              		.loc 3 145 0 is_stmt 1
 6672 3683 E8000000 		call	__cxa_end_catch
 6672      00
 6673 3688 4889D8   		movq	%rbx, %rax
 6674 368b 4889C7   		movq	%rax, %rdi
 6675              	.LEHB366:
 6676 368e E8000000 		call	_Unwind_Resume
 6676      00
 6677              	.LEHE366:
 6678              	.L441:
 6679 3693 4889C7   		movq	%rax, %rdi
 6680 3696 E8000000 		call	__cxa_begin_catch
 6680      00
 6681              	.LEHB367:
 6682 369b E8000000 		call	_ZN8UnitTest11CurrentTest7DetailsEv
 6682      00
 6683 36a0 488B08   		movq	(%rax), %rcx
 6684 36a3 488D45D0 		leaq	-48(%rbp), %rax
 6685 36a7 BA910000 		movl	$145, %edx
 6685      00
 6686 36ac 4889CE   		movq	%rcx, %rsi
 6687 36af 4889C7   		movq	%rax, %rdi
 6688 36b2 E8000000 		call	_ZN8UnitTest11TestDetailsC1ERKS0_i
 6688      00
 145:testConv.cpp  **** 	CHECK_EQUAL('F', getHexLowerNibble(0xFF));
 6689              		.loc 3 145 0 is_stmt 0 discriminator 1
 6690 36b7 E8000000 		call	_ZN8UnitTest11CurrentTest7ResultsEv
 6690      00
 6691 36bc 488B00   		movq	(%rax), %rax
 6692 36bf 488D4DD0 		leaq	-48(%rbp), %rcx
 6693 36c3 BA000000 		movl	$.LC62, %edx
 6693      00
 6694 36c8 4889CE   		movq	%rcx, %rsi
 6695 36cb 4889C7   		movq	%rax, %rdi
 6696 36ce E8000000 		call	_ZN8UnitTest11TestResults13OnTestFailureERKNS_11TestDetailsEPKc
 6696      00
 6697              	.LEHE367:
 6698              	.LEHB368:
 6699 36d3 E8000000 		call	__cxa_end_catch
 6699      00
 6700              	.LEHE368:
 6701 36d8 E93FFAFF 		jmp	.L409
 6701      FF
 6702              	.L444:
 6703 36dd 4889C3   		movq	%rax, %rbx
 146:testConv.cpp  **** }
 6704              		.loc 3 146 0 is_stmt 1
 6705 36e0 E8000000 		call	__cxa_end_catch
 6705      00
 6706 36e5 4889D8   		movq	%rbx, %rax
 6707 36e8 4889C7   		movq	%rax, %rdi
 6708              	.LEHB369:
 6709 36eb E8000000 		call	_Unwind_Resume
 6709      00
 6710              	.LEHE369:
 6711              	.L443:
 6712 36f0 4889C7   		movq	%rax, %rdi
 6713 36f3 E8000000 		call	__cxa_begin_catch
 6713      00
 6714              	.LEHB370:
 6715 36f8 E8000000 		call	_ZN8UnitTest11CurrentTest7DetailsEv
 6715      00
 6716 36fd 488B08   		movq	(%rax), %rcx
 6717 3700 488D45D0 		leaq	-48(%rbp), %rax
 6718 3704 BA920000 		movl	$146, %edx
 6718      00
 6719 3709 4889CE   		movq	%rcx, %rsi
 6720 370c 4889C7   		movq	%rax, %rdi
 6721 370f E8000000 		call	_ZN8UnitTest11TestDetailsC1ERKS0_i
 6721      00
 146:testConv.cpp  **** }
 6722              		.loc 3 146 0 is_stmt 0 discriminator 1
 6723 3714 E8000000 		call	_ZN8UnitTest11CurrentTest7ResultsEv
 6723      00
 6724 3719 488B00   		movq	(%rax), %rax
 6725 371c 488D4DD0 		leaq	-48(%rbp), %rcx
 6726 3720 BA000000 		movl	$.LC63, %edx
 6726      00
 6727 3725 4889CE   		movq	%rcx, %rsi
 6728 3728 4889C7   		movq	%rax, %rdi
 6729 372b E8000000 		call	_ZN8UnitTest11TestResults13OnTestFailureERKNS_11TestDetailsEPKc
 6729      00
 6730              	.LEHE370:
 6731              	.LEHB371:
 6732 3730 E8000000 		call	__cxa_end_catch
 6732      00
 6733              	.LEHE371:
 6734              	.L445:
 6735              		.loc 3 147 0 is_stmt 1
 6736 3735 90       		nop
 6737 3736 4883C448 		addq	$72, %rsp
 6738 373a 5B       		popq	%rbx
 6739 373b 5D       		popq	%rbp
 6740              		.cfi_def_cfa 7, 8
 6741 373c C3       		ret
 6742              		.cfi_endproc
 6743              	.LFE1038:
 6744              		.section	.gcc_except_table
 6745              		.align 4
 6746              	.LLSDA1038:
 6747 069c FF       		.byte	0xff
 6748 069d 03       		.byte	0x3
 6749 069e E802     		.uleb128 .LLSDATT1038-.LLSDATTD1038
 6750              	.LLSDATTD1038:
 6751 06a0 01       		.byte	0x1
 6752 06a1 DE02     		.uleb128 .LLSDACSE1038-.LLSDACSB1038
 6753              	.LLSDACSB1038:
 6754 06a3 0D       		.uleb128 .LEHB308-.LFB1038
 6755 06a4 49       		.uleb128 .LEHE308-.LEHB308
 6756 06a5 B509     		.uleb128 .L413-.LFB1038
 6757 06a7 01       		.uleb128 0x1
 6758 06a8 56       		.uleb128 .LEHB309-.LFB1038
 6759 06a9 49       		.uleb128 .LEHE309-.LEHB309
 6760 06aa 920A     		.uleb128 .L415-.LFB1038
 6761 06ac 01       		.uleb128 0x1
 6762 06ad 9F01     		.uleb128 .LEHB310-.LFB1038
 6763 06af 49       		.uleb128 .LEHE310-.LEHB310
 6764 06b0 EF0A     		.uleb128 .L417-.LFB1038
 6765 06b2 01       		.uleb128 0x1
 6766 06b3 E801     		.uleb128 .LEHB311-.LFB1038
 6767 06b5 49       		.uleb128 .LEHE311-.LEHB311
 6768 06b6 CC0B     		.uleb128 .L419-.LFB1038
 6769 06b8 01       		.uleb128 0x1
 6770 06b9 B102     		.uleb128 .LEHB312-.LFB1038
 6771 06bb 49       		.uleb128 .LEHE312-.LEHB312
 6772 06bc A90C     		.uleb128 .L421-.LFB1038
 6773 06be 01       		.uleb128 0x1
 6774 06bf FA02     		.uleb128 .LEHB313-.LFB1038
 6775 06c1 49       		.uleb128 .LEHE313-.LEHB313
 6776 06c2 860D     		.uleb128 .L423-.LFB1038
 6777 06c4 01       		.uleb128 0x1
 6778 06c5 C303     		.uleb128 .LEHB314-.LFB1038
 6779 06c7 49       		.uleb128 .LEHE314-.LEHB314
 6780 06c8 E30D     		.uleb128 .L425-.LFB1038
 6781 06ca 01       		.uleb128 0x1
 6782 06cb 8C04     		.uleb128 .LEHB315-.LFB1038
 6783 06cd 49       		.uleb128 .LEHE315-.LEHB315
 6784 06ce C00E     		.uleb128 .L427-.LFB1038
 6785 06d0 01       		.uleb128 0x1
 6786 06d1 D504     		.uleb128 .LEHB316-.LFB1038
 6787 06d3 49       		.uleb128 .LEHE316-.LEHB316
 6788 06d4 9D0F     		.uleb128 .L429-.LFB1038
 6789 06d6 01       		.uleb128 0x1
 6790 06d7 9E05     		.uleb128 .LEHB317-.LFB1038
 6791 06d9 49       		.uleb128 .LEHE317-.LEHB317
 6792 06da FA0F     		.uleb128 .L431-.LFB1038
 6793 06dc 01       		.uleb128 0x1
 6794 06dd E705     		.uleb128 .LEHB318-.LFB1038
 6795 06df 49       		.uleb128 .LEHE318-.LEHB318
 6796 06e0 D710     		.uleb128 .L433-.LFB1038
 6797 06e2 01       		.uleb128 0x1
 6798 06e3 B006     		.uleb128 .LEHB319-.LFB1038
 6799 06e5 49       		.uleb128 .LEHE319-.LEHB319
 6800 06e6 B411     		.uleb128 .L435-.LFB1038
 6801 06e8 01       		.uleb128 0x1
 6802 06e9 F906     		.uleb128 .LEHB320-.LFB1038
 6803 06eb 49       		.uleb128 .LEHE320-.LEHB320
 6804 06ec 9112     		.uleb128 .L437-.LFB1038
 6805 06ee 01       		.uleb128 0x1
 6806 06ef C207     		.uleb128 .LEHB321-.LFB1038
 6807 06f1 49       		.uleb128 .LEHE321-.LEHB321
 6808 06f2 EE12     		.uleb128 .L439-.LFB1038
 6809 06f4 01       		.uleb128 0x1
 6810 06f5 8B08     		.uleb128 .LEHB322-.LFB1038
 6811 06f7 49       		.uleb128 .LEHE322-.LEHB322
 6812 06f8 CB13     		.uleb128 .L441-.LFB1038
 6813 06fa 01       		.uleb128 0x1
 6814 06fb D408     		.uleb128 .LEHB323-.LFB1038
 6815 06fd 49       		.uleb128 .LEHE323-.LEHB323
 6816 06fe A814     		.uleb128 .L443-.LFB1038
 6817 0700 01       		.uleb128 0x1
 6818 0701 B009     		.uleb128 .LEHB324-.LFB1038
 6819 0703 05       		.uleb128 .LEHE324-.LEHB324
 6820 0704 00       		.uleb128 0
 6821 0705 00       		.uleb128 0
 6822 0706 BD09     		.uleb128 .LEHB325-.LFB1038
 6823 0708 38       		.uleb128 .LEHE325-.LEHB325
 6824 0709 A209     		.uleb128 .L414-.LFB1038
 6825 070b 00       		.uleb128 0
 6826 070c F509     		.uleb128 .LEHB326-.LFB1038
 6827 070e 05       		.uleb128 .LEHE326-.LEHB326
 6828 070f 00       		.uleb128 0
 6829 0710 00       		.uleb128 0
 6830 0711 8D0A     		.uleb128 .LEHB327-.LFB1038
 6831 0713 05       		.uleb128 .LEHE327-.LEHB327
 6832 0714 00       		.uleb128 0
 6833 0715 00       		.uleb128 0
 6834 0716 9A0A     		.uleb128 .LEHB328-.LFB1038
 6835 0718 38       		.uleb128 .LEHE328-.LEHB328
 6836 0719 FF09     		.uleb128 .L416-.LFB1038
 6837 071b 00       		.uleb128 0
 6838 071c D20A     		.uleb128 .LEHB329-.LFB1038
 6839 071e 05       		.uleb128 .LEHE329-.LEHB329
 6840 071f 00       		.uleb128 0
 6841 0720 00       		.uleb128 0
 6842 0721 EA0A     		.uleb128 .LEHB330-.LFB1038
 6843 0723 05       		.uleb128 .LEHE330-.LEHB330
 6844 0724 00       		.uleb128 0
 6845 0725 00       		.uleb128 0
 6846 0726 F70A     		.uleb128 .LEHB331-.LFB1038
 6847 0728 38       		.uleb128 .LEHE331-.LEHB331
 6848 0729 DC0A     		.uleb128 .L418-.LFB1038
 6849 072b 00       		.uleb128 0
 6850 072c AF0B     		.uleb128 .LEHB332-.LFB1038
 6851 072e 05       		.uleb128 .LEHE332-.LEHB332
 6852 072f 00       		.uleb128 0
 6853 0730 00       		.uleb128 0
 6854 0731 C70B     		.uleb128 .LEHB333-.LFB1038
 6855 0733 05       		.uleb128 .LEHE333-.LEHB333
 6856 0734 00       		.uleb128 0
 6857 0735 00       		.uleb128 0
 6858 0736 D40B     		.uleb128 .LEHB334-.LFB1038
 6859 0738 38       		.uleb128 .LEHE334-.LEHB334
 6860 0739 B90B     		.uleb128 .L420-.LFB1038
 6861 073b 00       		.uleb128 0
 6862 073c 8C0C     		.uleb128 .LEHB335-.LFB1038
 6863 073e 05       		.uleb128 .LEHE335-.LEHB335
 6864 073f 00       		.uleb128 0
 6865 0740 00       		.uleb128 0
 6866 0741 A40C     		.uleb128 .LEHB336-.LFB1038
 6867 0743 05       		.uleb128 .LEHE336-.LEHB336
 6868 0744 00       		.uleb128 0
 6869 0745 00       		.uleb128 0
 6870 0746 B10C     		.uleb128 .LEHB337-.LFB1038
 6871 0748 38       		.uleb128 .LEHE337-.LEHB337
 6872 0749 960C     		.uleb128 .L422-.LFB1038
 6873 074b 00       		.uleb128 0
 6874 074c E90C     		.uleb128 .LEHB338-.LFB1038
 6875 074e 05       		.uleb128 .LEHE338-.LEHB338
 6876 074f 00       		.uleb128 0
 6877 0750 00       		.uleb128 0
 6878 0751 810D     		.uleb128 .LEHB339-.LFB1038
 6879 0753 05       		.uleb128 .LEHE339-.LEHB339
 6880 0754 00       		.uleb128 0
 6881 0755 00       		.uleb128 0
 6882 0756 8E0D     		.uleb128 .LEHB340-.LFB1038
 6883 0758 38       		.uleb128 .LEHE340-.LEHB340
 6884 0759 F30C     		.uleb128 .L424-.LFB1038
 6885 075b 00       		.uleb128 0
 6886 075c C60D     		.uleb128 .LEHB341-.LFB1038
 6887 075e 05       		.uleb128 .LEHE341-.LEHB341
 6888 075f 00       		.uleb128 0
 6889 0760 00       		.uleb128 0
 6890 0761 DE0D     		.uleb128 .LEHB342-.LFB1038
 6891 0763 05       		.uleb128 .LEHE342-.LEHB342
 6892 0764 00       		.uleb128 0
 6893 0765 00       		.uleb128 0
 6894 0766 EB0D     		.uleb128 .LEHB343-.LFB1038
 6895 0768 38       		.uleb128 .LEHE343-.LEHB343
 6896 0769 D00D     		.uleb128 .L426-.LFB1038
 6897 076b 00       		.uleb128 0
 6898 076c A30E     		.uleb128 .LEHB344-.LFB1038
 6899 076e 05       		.uleb128 .LEHE344-.LEHB344
 6900 076f 00       		.uleb128 0
 6901 0770 00       		.uleb128 0
 6902 0771 BB0E     		.uleb128 .LEHB345-.LFB1038
 6903 0773 05       		.uleb128 .LEHE345-.LEHB345
 6904 0774 00       		.uleb128 0
 6905 0775 00       		.uleb128 0
 6906 0776 C80E     		.uleb128 .LEHB346-.LFB1038
 6907 0778 38       		.uleb128 .LEHE346-.LEHB346
 6908 0779 AD0E     		.uleb128 .L428-.LFB1038
 6909 077b 00       		.uleb128 0
 6910 077c 800F     		.uleb128 .LEHB347-.LFB1038
 6911 077e 05       		.uleb128 .LEHE347-.LEHB347
 6912 077f 00       		.uleb128 0
 6913 0780 00       		.uleb128 0
 6914 0781 980F     		.uleb128 .LEHB348-.LFB1038
 6915 0783 05       		.uleb128 .LEHE348-.LEHB348
 6916 0784 00       		.uleb128 0
 6917 0785 00       		.uleb128 0
 6918 0786 A50F     		.uleb128 .LEHB349-.LFB1038
 6919 0788 38       		.uleb128 .LEHE349-.LEHB349
 6920 0789 8A0F     		.uleb128 .L430-.LFB1038
 6921 078b 00       		.uleb128 0
 6922 078c DD0F     		.uleb128 .LEHB350-.LFB1038
 6923 078e 05       		.uleb128 .LEHE350-.LEHB350
 6924 078f 00       		.uleb128 0
 6925 0790 00       		.uleb128 0
 6926 0791 F50F     		.uleb128 .LEHB351-.LFB1038
 6927 0793 05       		.uleb128 .LEHE351-.LEHB351
 6928 0794 00       		.uleb128 0
 6929 0795 00       		.uleb128 0
 6930 0796 8210     		.uleb128 .LEHB352-.LFB1038
 6931 0798 38       		.uleb128 .LEHE352-.LEHB352
 6932 0799 E70F     		.uleb128 .L432-.LFB1038
 6933 079b 00       		.uleb128 0
 6934 079c BA10     		.uleb128 .LEHB353-.LFB1038
 6935 079e 05       		.uleb128 .LEHE353-.LEHB353
 6936 079f 00       		.uleb128 0
 6937 07a0 00       		.uleb128 0
 6938 07a1 D210     		.uleb128 .LEHB354-.LFB1038
 6939 07a3 05       		.uleb128 .LEHE354-.LEHB354
 6940 07a4 00       		.uleb128 0
 6941 07a5 00       		.uleb128 0
 6942 07a6 DF10     		.uleb128 .LEHB355-.LFB1038
 6943 07a8 38       		.uleb128 .LEHE355-.LEHB355
 6944 07a9 C410     		.uleb128 .L434-.LFB1038
 6945 07ab 00       		.uleb128 0
 6946 07ac 9711     		.uleb128 .LEHB356-.LFB1038
 6947 07ae 05       		.uleb128 .LEHE356-.LEHB356
 6948 07af 00       		.uleb128 0
 6949 07b0 00       		.uleb128 0
 6950 07b1 AF11     		.uleb128 .LEHB357-.LFB1038
 6951 07b3 05       		.uleb128 .LEHE357-.LEHB357
 6952 07b4 00       		.uleb128 0
 6953 07b5 00       		.uleb128 0
 6954 07b6 BC11     		.uleb128 .LEHB358-.LFB1038
 6955 07b8 38       		.uleb128 .LEHE358-.LEHB358
 6956 07b9 A111     		.uleb128 .L436-.LFB1038
 6957 07bb 00       		.uleb128 0
 6958 07bc F411     		.uleb128 .LEHB359-.LFB1038
 6959 07be 05       		.uleb128 .LEHE359-.LEHB359
 6960 07bf 00       		.uleb128 0
 6961 07c0 00       		.uleb128 0
 6962 07c1 8C12     		.uleb128 .LEHB360-.LFB1038
 6963 07c3 05       		.uleb128 .LEHE360-.LEHB360
 6964 07c4 00       		.uleb128 0
 6965 07c5 00       		.uleb128 0
 6966 07c6 9912     		.uleb128 .LEHB361-.LFB1038
 6967 07c8 38       		.uleb128 .LEHE361-.LEHB361
 6968 07c9 FE11     		.uleb128 .L438-.LFB1038
 6969 07cb 00       		.uleb128 0
 6970 07cc D112     		.uleb128 .LEHB362-.LFB1038
 6971 07ce 05       		.uleb128 .LEHE362-.LEHB362
 6972 07cf 00       		.uleb128 0
 6973 07d0 00       		.uleb128 0
 6974 07d1 E912     		.uleb128 .LEHB363-.LFB1038
 6975 07d3 05       		.uleb128 .LEHE363-.LEHB363
 6976 07d4 00       		.uleb128 0
 6977 07d5 00       		.uleb128 0
 6978 07d6 F612     		.uleb128 .LEHB364-.LFB1038
 6979 07d8 38       		.uleb128 .LEHE364-.LEHB364
 6980 07d9 DB12     		.uleb128 .L440-.LFB1038
 6981 07db 00       		.uleb128 0
 6982 07dc AE13     		.uleb128 .LEHB365-.LFB1038
 6983 07de 05       		.uleb128 .LEHE365-.LEHB365
 6984 07df 00       		.uleb128 0
 6985 07e0 00       		.uleb128 0
 6986 07e1 C613     		.uleb128 .LEHB366-.LFB1038
 6987 07e3 05       		.uleb128 .LEHE366-.LEHB366
 6988 07e4 00       		.uleb128 0
 6989 07e5 00       		.uleb128 0
 6990 07e6 D313     		.uleb128 .LEHB367-.LFB1038
 6991 07e8 38       		.uleb128 .LEHE367-.LEHB367
 6992 07e9 B813     		.uleb128 .L442-.LFB1038
 6993 07eb 00       		.uleb128 0
 6994 07ec 8B14     		.uleb128 .LEHB368-.LFB1038
 6995 07ee 05       		.uleb128 .LEHE368-.LEHB368
 6996 07ef 00       		.uleb128 0
 6997 07f0 00       		.uleb128 0
 6998 07f1 A314     		.uleb128 .LEHB369-.LFB1038
 6999 07f3 05       		.uleb128 .LEHE369-.LEHB369
 7000 07f4 00       		.uleb128 0
 7001 07f5 00       		.uleb128 0
 7002 07f6 B014     		.uleb128 .LEHB370-.LFB1038
 7003 07f8 38       		.uleb128 .LEHE370-.LEHB370
 7004 07f9 9514     		.uleb128 .L444-.LFB1038
 7005 07fb 00       		.uleb128 0
 7006 07fc E814     		.uleb128 .LEHB371-.LFB1038
 7007 07fe 05       		.uleb128 .LEHE371-.LEHB371
 7008 07ff 00       		.uleb128 0
 7009 0800 00       		.uleb128 0
 7010              	.LLSDACSE1038:
 7011 0801 01       		.byte	0x1
 7012 0802 00       		.byte	0
 7013 0803 00       		.align 4
 7014 0804 00000000 		.long	0
 7015              	
 7016              	.LLSDATT1038:
 7017              		.text
 7019              		.section	.text._ZN8UnitTest15MemoryOutStreamD1Ev,"axG",@progbits,_ZN8UnitTest15MemoryOutStreamD1Ev
 7020              		.align 2
 7021              		.weak	_ZN8UnitTest15MemoryOutStreamD1Ev
 7023              	_ZN8UnitTest15MemoryOutStreamD1Ev:
 7024              	.LFB1069:
  13:/home/pandu/Desktop/DigitalLogicDesign/Lab/03-finishingup/backend/libs/libutpp/MemoryOutStream.h **** {
 7025              		.loc 2 13 0
 7026              		.cfi_startproc
 7027              		.cfi_personality 0x3,__gxx_personality_v0
 7028              		.cfi_lsda 0x3,.LLSDA1069
 7029 0000 55       		pushq	%rbp
 7030              		.cfi_def_cfa_offset 16
 7031              		.cfi_offset 6, -16
 7032 0001 4889E5   		movq	%rsp, %rbp
 7033              		.cfi_def_cfa_register 6
 7034 0004 53       		pushq	%rbx
 7035 0005 4883EC18 		subq	$24, %rsp
 7036              		.cfi_offset 3, -24
 7037 0009 48897DE8 		movq	%rdi, -24(%rbp)
 7038              	.LBB12:
  13:/home/pandu/Desktop/DigitalLogicDesign/Lab/03-finishingup/backend/libs/libutpp/MemoryOutStream.h **** {
 7039              		.loc 2 13 0
 7040 000d BA000000 		movl	$_ZTVN8UnitTest15MemoryOutStreamE+24, %edx
 7040      00
 7041 0012 488B45E8 		movq	-24(%rbp), %rax
 7042 0016 488910   		movq	%rdx, (%rax)
 7043 0019 BA600000 		movl	$96, %edx
 7043      00
 7044 001e 488B45E8 		movq	-24(%rbp), %rax
 7045 0022 4801C2   		addq	%rax, %rdx
 7046 0025 B8000000 		movl	$_ZTVN8UnitTest15MemoryOutStreamE+64, %eax
 7046      00
 7047 002a 488902   		movq	%rax, (%rdx)
 7048 002d 488B45E8 		movq	-24(%rbp), %rax
 7049 0031 4883C058 		addq	$88, %rax
 7050 0035 4889C7   		movq	%rax, %rdi
 7051              	.LEHB372:
 7052 0038 E8000000 		call	_ZNSsD1Ev
 7052      00
 7053              	.LEHE372:
  13:/home/pandu/Desktop/DigitalLogicDesign/Lab/03-finishingup/backend/libs/libutpp/MemoryOutStream.h **** {
 7054              		.loc 2 13 0 is_stmt 0 discriminator 10
 7055 003d BA000000 		movl	$_ZTTN8UnitTest15MemoryOutStreamE+8, %edx
 7055      00
 7056 0042 488B45E8 		movq	-24(%rbp), %rax
 7057 0046 4889D6   		movq	%rdx, %rsi
 7058 0049 4889C7   		movq	%rax, %rdi
 7059              	.LEHB373:
 7060 004c E8000000 		call	_ZNSt19basic_ostringstreamIcSt11char_traitsIcESaIcEED2Ev
 7060      00
 7061              	.LEHE373:
  13:/home/pandu/Desktop/DigitalLogicDesign/Lab/03-finishingup/backend/libs/libutpp/MemoryOutStream.h **** {
 7062              		.loc 2 13 0 discriminator 14
 7063 0051 B8020000 		movl	$2, %eax
 7063      00
 7064 0056 85C0     		testl	%eax, %eax
 7065 0058 7410     		je	.L447
  13:/home/pandu/Desktop/DigitalLogicDesign/Lab/03-finishingup/backend/libs/libutpp/MemoryOutStream.h **** {
 7066              		.loc 2 13 0 discriminator 15
 7067 005a 488B45E8 		movq	-24(%rbp), %rax
 7068 005e 4883C060 		addq	$96, %rax
 7069 0062 4889C7   		movq	%rax, %rdi
 7070              	.LEHB374:
 7071 0065 E8000000 		call	_ZNSt9basic_iosIcSt11char_traitsIcEED2Ev
 7071      00
 7072              	.LEHE374:
 7073              	.L447:
 7074              	.LBE12:
  13:/home/pandu/Desktop/DigitalLogicDesign/Lab/03-finishingup/backend/libs/libutpp/MemoryOutStream.h **** {
 7075              		.loc 2 13 0 discriminator 16
 7076 006a B8000000 		movl	$0, %eax
 7076      00
 7077 006f 85C0     		testl	%eax, %eax
 7078 0071 744E     		je	.L454
  13:/home/pandu/Desktop/DigitalLogicDesign/Lab/03-finishingup/backend/libs/libutpp/MemoryOutStream.h **** {
 7079              		.loc 2 13 0 discriminator 1
 7080 0073 488B45E8 		movq	-24(%rbp), %rax
 7081 0077 4889C7   		movq	%rax, %rdi
 7082 007a E8000000 		call	_ZdlPv
 7082      00
 7083 007f EB40     		jmp	.L454
 7084              	.L452:
 7085 0081 4889C3   		movq	%rax, %rbx
 7086              	.LBB13:
  13:/home/pandu/Desktop/DigitalLogicDesign/Lab/03-finishingup/backend/libs/libutpp/MemoryOutStream.h **** {
 7087              		.loc 2 13 0
 7088 0084 BA000000 		movl	$_ZTTN8UnitTest15MemoryOutStreamE+8, %edx
 7088      00
 7089 0089 488B45E8 		movq	-24(%rbp), %rax
 7090 008d 4889D6   		movq	%rdx, %rsi
 7091 0090 4889C7   		movq	%rax, %rdi
 7092 0093 E8000000 		call	_ZNSt19basic_ostringstreamIcSt11char_traitsIcESaIcEED2Ev
 7092      00
 7093 0098 EB03     		jmp	.L450
 7094              	.L453:
 7095 009a 4889C3   		movq	%rax, %rbx
 7096              	.L450:
 7097 009d B8020000 		movl	$2, %eax
 7097      00
 7098 00a2 85C0     		testl	%eax, %eax
 7099 00a4 7410     		je	.L451
  13:/home/pandu/Desktop/DigitalLogicDesign/Lab/03-finishingup/backend/libs/libutpp/MemoryOutStream.h **** {
 7100              		.loc 2 13 0 discriminator 20
 7101 00a6 488B45E8 		movq	-24(%rbp), %rax
 7102 00aa 4883C060 		addq	$96, %rax
 7103 00ae 4889C7   		movq	%rax, %rdi
 7104 00b1 E8000000 		call	_ZNSt9basic_iosIcSt11char_traitsIcEED2Ev
 7104      00
 7105              	.L451:
 7106 00b6 4889D8   		movq	%rbx, %rax
 7107 00b9 4889C7   		movq	%rax, %rdi
 7108              	.LEHB375:
 7109 00bc E8000000 		call	_Unwind_Resume
 7109      00
 7110              	.LEHE375:
 7111              	.L454:
 7112              	.LBE13:
  13:/home/pandu/Desktop/DigitalLogicDesign/Lab/03-finishingup/backend/libs/libutpp/MemoryOutStream.h **** {
 7113              		.loc 2 13 0
 7114 00c1 4883C418 		addq	$24, %rsp
 7115 00c5 5B       		popq	%rbx
 7116 00c6 5D       		popq	%rbp
 7117              		.cfi_def_cfa 7, 8
 7118 00c7 C3       		ret
 7119              		.cfi_endproc
 7120              	.LFE1069:
 7121              		.section	.gcc_except_table
 7122              	.LLSDA1069:
 7123 0808 FF       		.byte	0xff
 7124 0809 FF       		.byte	0xff
 7125 080a 01       		.byte	0x1
 7126 080b 13       		.uleb128 .LLSDACSE1069-.LLSDACSB1069
 7127              	.LLSDACSB1069:
 7128 080c 38       		.uleb128 .LEHB372-.LFB1069
 7129 080d 05       		.uleb128 .LEHE372-.LEHB372
 7130 080e 8101     		.uleb128 .L452-.LFB1069
 7131 0810 00       		.uleb128 0
 7132 0811 4C       		.uleb128 .LEHB373-.LFB1069
 7133 0812 05       		.uleb128 .LEHE373-.LEHB373
 7134 0813 9A01     		.uleb128 .L453-.LFB1069
 7135 0815 00       		.uleb128 0
 7136 0816 65       		.uleb128 .LEHB374-.LFB1069
 7137 0817 05       		.uleb128 .LEHE374-.LEHB374
 7138 0818 00       		.uleb128 0
 7139 0819 00       		.uleb128 0
 7140 081a BC01     		.uleb128 .LEHB375-.LFB1069
 7141 081c 05       		.uleb128 .LEHE375-.LEHB375
 7142 081d 00       		.uleb128 0
 7143 081e 00       		.uleb128 0
 7144              	.LLSDACSE1069:
 7145              		.section	.text._ZN8UnitTest15MemoryOutStreamD1Ev,"axG",@progbits,_ZN8UnitTest15MemoryOutStreamD1Ev
 7147              		.set	.LTHUNK0,_ZN8UnitTest15MemoryOutStreamD1Ev
 7148              		.weak	_ZTv0_n24_N8UnitTest15MemoryOutStreamD1Ev
 7150              	_ZTv0_n24_N8UnitTest15MemoryOutStreamD1Ev:
 7151              	.LFB1142:
  13:/home/pandu/Desktop/DigitalLogicDesign/Lab/03-finishingup/backend/libs/libutpp/MemoryOutStream.h **** {
 7152              		.loc 2 13 0 is_stmt 1
 7153              		.cfi_startproc
 7154 00c8 4C8B17   		movq	(%rdi), %r10
 7155 00cb 49037AE8 		addq	-24(%r10), %rdi
 7156 00cf E92CFFFF 		jmp	.LTHUNK0
 7156      FF
 7157              		.cfi_endproc
 7158              	.LFE1142:
 7160              		.section	.text._ZN8UnitTest15MemoryOutStreamD0Ev,"axG",@progbits,_ZN8UnitTest15MemoryOutStreamD0Ev
 7161              		.align 2
 7162              		.weak	_ZN8UnitTest15MemoryOutStreamD0Ev
 7164              	_ZN8UnitTest15MemoryOutStreamD0Ev:
 7165              	.LFB1070:
  13:/home/pandu/Desktop/DigitalLogicDesign/Lab/03-finishingup/backend/libs/libutpp/MemoryOutStream.h **** {
 7166              		.loc 2 13 0
 7167              		.cfi_startproc
 7168 0000 55       		pushq	%rbp
 7169              		.cfi_def_cfa_offset 16
 7170              		.cfi_offset 6, -16
 7171 0001 4889E5   		movq	%rsp, %rbp
 7172              		.cfi_def_cfa_register 6
 7173 0004 4883EC10 		subq	$16, %rsp
 7174 0008 48897DF8 		movq	%rdi, -8(%rbp)
  13:/home/pandu/Desktop/DigitalLogicDesign/Lab/03-finishingup/backend/libs/libutpp/MemoryOutStream.h **** {
 7175              		.loc 2 13 0
 7176 000c 488B45F8 		movq	-8(%rbp), %rax
 7177 0010 4889C7   		movq	%rax, %rdi
 7178 0013 E8000000 		call	_ZN8UnitTest15MemoryOutStreamD1Ev
 7178      00
 7179 0018 488B45F8 		movq	-8(%rbp), %rax
 7180 001c 4889C7   		movq	%rax, %rdi
 7181 001f E8000000 		call	_ZdlPv
 7181      00
 7182 0024 C9       		leave
 7183              		.cfi_def_cfa 7, 8
 7184 0025 C3       		ret
 7185              		.cfi_endproc
 7186              	.LFE1070:
 7188              		.set	.LTHUNK1,_ZN8UnitTest15MemoryOutStreamD0Ev
 7189              		.weak	_ZTv0_n24_N8UnitTest15MemoryOutStreamD0Ev
 7191              	_ZTv0_n24_N8UnitTest15MemoryOutStreamD0Ev:
 7192              	.LFB1143:
  13:/home/pandu/Desktop/DigitalLogicDesign/Lab/03-finishingup/backend/libs/libutpp/MemoryOutStream.h **** {
 7193              		.loc 2 13 0
 7194              		.cfi_startproc
 7195 0026 4C8B17   		movq	(%rdi), %r10
 7196 0029 49037AE8 		addq	-24(%r10), %rdi
 7197 002d EBD1     		jmp	.LTHUNK1
 7198              		.cfi_endproc
 7199              	.LFE1143:
 7201              		.section	.rodata
 7202              	.LC64:
 7203 0d81 45787065 		.string	"Expected "
 7203      63746564 
 7203      2000
 7204              	.LC65:
 7205 0d8b 20627574 		.string	" but was "
 7205      20776173 
 7205      2000
 7206              		.section	.text._ZN8UnitTest10CheckEqualIbbEEvRNS_11TestResultsERKT_RKT0_RKNS_11TestDetailsE,"axG",
 7207              		.weak	_ZN8UnitTest10CheckEqualIbbEEvRNS_11TestResultsERKT_RKT0_RKNS_11TestDetailsE
 7209              	_ZN8UnitTest10CheckEqualIbbEEvRNS_11TestResultsERKT_RKT0_RKNS_11TestDetailsE:
 7210              	.LFB1066:
 7211              		.file 4 "/home/pandu/Desktop/DigitalLogicDesign/Lab/03-finishingup/backend/libs/libutpp/Checks.h"
   1:/home/pandu/Desktop/DigitalLogicDesign/Lab/03-finishingup/backend/libs/libutpp/Checks.h **** #ifndef UNITTEST_CHECKS_H
   2:/home/pandu/Desktop/DigitalLogicDesign/Lab/03-finishingup/backend/libs/libutpp/Checks.h **** #define UNITTEST_CHECKS_H
   3:/home/pandu/Desktop/DigitalLogicDesign/Lab/03-finishingup/backend/libs/libutpp/Checks.h **** 
   4:/home/pandu/Desktop/DigitalLogicDesign/Lab/03-finishingup/backend/libs/libutpp/Checks.h **** #include "Config.h"
   5:/home/pandu/Desktop/DigitalLogicDesign/Lab/03-finishingup/backend/libs/libutpp/Checks.h **** #include "TestResults.h"
   6:/home/pandu/Desktop/DigitalLogicDesign/Lab/03-finishingup/backend/libs/libutpp/Checks.h **** #include "MemoryOutStream.h"
   7:/home/pandu/Desktop/DigitalLogicDesign/Lab/03-finishingup/backend/libs/libutpp/Checks.h **** 
   8:/home/pandu/Desktop/DigitalLogicDesign/Lab/03-finishingup/backend/libs/libutpp/Checks.h **** namespace UnitTest {
   9:/home/pandu/Desktop/DigitalLogicDesign/Lab/03-finishingup/backend/libs/libutpp/Checks.h **** 
  10:/home/pandu/Desktop/DigitalLogicDesign/Lab/03-finishingup/backend/libs/libutpp/Checks.h **** 
  11:/home/pandu/Desktop/DigitalLogicDesign/Lab/03-finishingup/backend/libs/libutpp/Checks.h **** template< typename Value >
  12:/home/pandu/Desktop/DigitalLogicDesign/Lab/03-finishingup/backend/libs/libutpp/Checks.h **** bool Check(Value const value)
  13:/home/pandu/Desktop/DigitalLogicDesign/Lab/03-finishingup/backend/libs/libutpp/Checks.h **** {
  14:/home/pandu/Desktop/DigitalLogicDesign/Lab/03-finishingup/backend/libs/libutpp/Checks.h ****     return !!value; // doing double negative to avoid silly VS warnings
  15:/home/pandu/Desktop/DigitalLogicDesign/Lab/03-finishingup/backend/libs/libutpp/Checks.h **** }
  16:/home/pandu/Desktop/DigitalLogicDesign/Lab/03-finishingup/backend/libs/libutpp/Checks.h **** 
  17:/home/pandu/Desktop/DigitalLogicDesign/Lab/03-finishingup/backend/libs/libutpp/Checks.h **** 
  18:/home/pandu/Desktop/DigitalLogicDesign/Lab/03-finishingup/backend/libs/libutpp/Checks.h **** template< typename Expected, typename Actual >
  19:/home/pandu/Desktop/DigitalLogicDesign/Lab/03-finishingup/backend/libs/libutpp/Checks.h **** void CheckEqual(TestResults& results, Expected const& expected, Actual const& actual, TestDetails c
 7212              		.loc 4 19 0
 7213              		.cfi_startproc
 7214              		.cfi_personality 0x3,__gxx_personality_v0
 7215              		.cfi_lsda 0x3,.LLSDA1066
 7216 0000 55       		pushq	%rbp
 7217              		.cfi_def_cfa_offset 16
 7218              		.cfi_offset 6, -16
 7219 0001 4889E5   		movq	%rsp, %rbp
 7220              		.cfi_def_cfa_register 6
 7221 0004 4154     		pushq	%r12
 7222 0006 53       		pushq	%rbx
 7223 0007 4881EC90 		subq	$400, %rsp
 7223      010000
 7224              		.cfi_offset 12, -24
 7225              		.cfi_offset 3, -32
 7226 000e 4889BD78 		movq	%rdi, -392(%rbp)
 7226      FEFFFF
 7227 0015 4889B570 		movq	%rsi, -400(%rbp)
 7227      FEFFFF
 7228 001c 48899568 		movq	%rdx, -408(%rbp)
 7228      FEFFFF
 7229 0023 48898D60 		movq	%rcx, -416(%rbp)
 7229      FEFFFF
 7230              	.LBB14:
 7231              	.LBB15:
  20:/home/pandu/Desktop/DigitalLogicDesign/Lab/03-finishingup/backend/libs/libutpp/Checks.h **** {
  21:/home/pandu/Desktop/DigitalLogicDesign/Lab/03-finishingup/backend/libs/libutpp/Checks.h ****     if (!(expected == actual))
 7232              		.loc 4 21 0
 7233 002a 488B8570 		movq	-400(%rbp), %rax
 7233      FEFFFF
 7234 0031 0FB610   		movzbl	(%rax), %edx
 7235 0034 488B8568 		movq	-408(%rbp), %rax
 7235      FEFFFF
 7236 003b 0FB600   		movzbl	(%rax), %eax
 7237 003e 38C2     		cmpb	%al, %dl
 7238 0040 0F84B900 		je	.L461
 7238      0000
 7239              	.LBB16:
  22:/home/pandu/Desktop/DigitalLogicDesign/Lab/03-finishingup/backend/libs/libutpp/Checks.h ****     {
  23:/home/pandu/Desktop/DigitalLogicDesign/Lab/03-finishingup/backend/libs/libutpp/Checks.h ****         UnitTest::MemoryOutStream stream;
 7240              		.loc 4 23 0
 7241 0046 488D8580 		leaq	-384(%rbp), %rax
 7241      FEFFFF
 7242 004d 4889C7   		movq	%rax, %rdi
 7243              	.LEHB376:
 7244 0050 E8000000 		call	_ZN8UnitTest15MemoryOutStreamC1Ev
 7244      00
 7245              	.LEHE376:
  24:/home/pandu/Desktop/DigitalLogicDesign/Lab/03-finishingup/backend/libs/libutpp/Checks.h ****         stream << "Expected " << expected << " but was " << actual;
 7246              		.loc 4 24 0
 7247 0055 488B8568 		movq	-408(%rbp), %rax
 7247      FEFFFF
 7248 005c 0FB600   		movzbl	(%rax), %eax
 7249 005f 0FB6D8   		movzbl	%al, %ebx
 7250 0062 488B8570 		movq	-400(%rbp), %rax
 7250      FEFFFF
 7251 0069 0FB600   		movzbl	(%rax), %eax
 7252 006c 440FB6E0 		movzbl	%al, %r12d
 7253 0070 488D8580 		leaq	-384(%rbp), %rax
 7253      FEFFFF
 7254 0077 BE000000 		movl	$.LC64, %esi
 7254      00
 7255 007c 4889C7   		movq	%rax, %rdi
 7256              	.LEHB377:
 7257 007f E8000000 		call	_ZStlsISt11char_traitsIcEERSt13basic_ostreamIcT_ES5_PKc
 7257      00
 7258 0084 4489E6   		movl	%r12d, %esi
 7259 0087 4889C7   		movq	%rax, %rdi
 7260 008a E8000000 		call	_ZNSolsEb
 7260      00
 7261              		.loc 4 24 0 is_stmt 0 discriminator 1
 7262 008f BE000000 		movl	$.LC65, %esi
 7262      00
 7263 0094 4889C7   		movq	%rax, %rdi
 7264 0097 E8000000 		call	_ZStlsISt11char_traitsIcEERSt13basic_ostreamIcT_ES5_PKc
 7264      00
 7265 009c 89DE     		movl	%ebx, %esi
 7266 009e 4889C7   		movq	%rax, %rdi
 7267 00a1 E8000000 		call	_ZNSolsEb
 7267      00
  25:/home/pandu/Desktop/DigitalLogicDesign/Lab/03-finishingup/backend/libs/libutpp/Checks.h **** 
  26:/home/pandu/Desktop/DigitalLogicDesign/Lab/03-finishingup/backend/libs/libutpp/Checks.h ****         results.OnTestFailure(details, stream.GetText());
 7268              		.loc 4 26 0 is_stmt 1
 7269 00a6 488D8580 		leaq	-384(%rbp), %rax
 7269      FEFFFF
 7270 00ad 4889C7   		movq	%rax, %rdi
 7271 00b0 E8000000 		call	_ZNK8UnitTest15MemoryOutStream7GetTextEv
 7271      00
 7272 00b5 4889C2   		movq	%rax, %rdx
 7273 00b8 488B8D60 		movq	-416(%rbp), %rcx
 7273      FEFFFF
 7274 00bf 488B8578 		movq	-392(%rbp), %rax
 7274      FEFFFF
 7275 00c6 4889CE   		movq	%rcx, %rsi
 7276 00c9 4889C7   		movq	%rax, %rdi
 7277 00cc E8000000 		call	_ZN8UnitTest11TestResults13OnTestFailureERKNS_11TestDetailsEPKc
 7277      00
 7278              	.LEHE377:
 7279              		.loc 4 26 0 is_stmt 0 discriminator 1
 7280 00d1 488D8580 		leaq	-384(%rbp), %rax
 7280      FEFFFF
 7281 00d8 4889C7   		movq	%rax, %rdi
 7282              	.LEHB378:
 7283 00db E8000000 		call	_ZN8UnitTest15MemoryOutStreamD1Ev
 7283      00
 7284              	.LEHE378:
 7285              	.LBE16:
 7286 00e0 EB1D     		jmp	.L461
 7287              	.L460:
 7288 00e2 4889C3   		movq	%rax, %rbx
 7289              	.LBB17:
 7290              		.loc 4 26 0
 7291 00e5 488D8580 		leaq	-384(%rbp), %rax
 7291      FEFFFF
 7292 00ec 4889C7   		movq	%rax, %rdi
 7293 00ef E8000000 		call	_ZN8UnitTest15MemoryOutStreamD1Ev
 7293      00
 7294 00f4 4889D8   		movq	%rbx, %rax
 7295 00f7 4889C7   		movq	%rax, %rdi
 7296              	.LEHB379:
 7297 00fa E8000000 		call	_Unwind_Resume
 7297      00
 7298              	.LEHE379:
 7299              	.L461:
 7300              	.LBE17:
 7301              	.LBE15:
 7302              	.LBE14:
  27:/home/pandu/Desktop/DigitalLogicDesign/Lab/03-finishingup/backend/libs/libutpp/Checks.h ****     }
  28:/home/pandu/Desktop/DigitalLogicDesign/Lab/03-finishingup/backend/libs/libutpp/Checks.h **** }
 7303              		.loc 4 28 0 is_stmt 1
 7304 00ff 4881C490 		addq	$400, %rsp
 7304      010000
 7305 0106 5B       		popq	%rbx
 7306 0107 415C     		popq	%r12
 7307 0109 5D       		popq	%rbp
 7308              		.cfi_def_cfa 7, 8
 7309 010a C3       		ret
 7310              		.cfi_endproc
 7311              	.LFE1066:
 7312              		.section	.gcc_except_table
 7313              	.LLSDA1066:
 7314 081f FF       		.byte	0xff
 7315 0820 FF       		.byte	0xff
 7316 0821 01       		.byte	0x1
 7317 0822 13       		.uleb128 .LLSDACSE1066-.LLSDACSB1066
 7318              	.LLSDACSB1066:
 7319 0823 50       		.uleb128 .LEHB376-.LFB1066
 7320 0824 05       		.uleb128 .LEHE376-.LEHB376
 7321 0825 00       		.uleb128 0
 7322 0826 00       		.uleb128 0
 7323 0827 7F       		.uleb128 .LEHB377-.LFB1066
 7324 0828 52       		.uleb128 .LEHE377-.LEHB377
 7325 0829 E201     		.uleb128 .L460-.LFB1066
 7326 082b 00       		.uleb128 0
 7327 082c DB01     		.uleb128 .LEHB378-.LFB1066
 7328 082e 05       		.uleb128 .LEHE378-.LEHB378
 7329 082f 00       		.uleb128 0
 7330 0830 00       		.uleb128 0
 7331 0831 FA01     		.uleb128 .LEHB379-.LFB1066
 7332 0833 05       		.uleb128 .LEHE379-.LEHB379
 7333 0834 00       		.uleb128 0
 7334 0835 00       		.uleb128 0
 7335              	.LLSDACSE1066:
 7336              		.section	.text._ZN8UnitTest10CheckEqualIbbEEvRNS_11TestResultsERKT_RKT0_RKNS_11TestDetailsE,"axG",
 7338              		.section	.text._ZN8UnitTest10CheckEqualIihEEvRNS_11TestResultsERKT_RKT0_RKNS_11TestDetailsE,"axG",
 7339              		.weak	_ZN8UnitTest10CheckEqualIihEEvRNS_11TestResultsERKT_RKT0_RKNS_11TestDetailsE
 7341              	_ZN8UnitTest10CheckEqualIihEEvRNS_11TestResultsERKT_RKT0_RKNS_11TestDetailsE:
 7342              	.LFB1071:
  19:/home/pandu/Desktop/DigitalLogicDesign/Lab/03-finishingup/backend/libs/libutpp/Checks.h **** {
 7343              		.loc 4 19 0
 7344              		.cfi_startproc
 7345              		.cfi_personality 0x3,__gxx_personality_v0
 7346              		.cfi_lsda 0x3,.LLSDA1071
 7347 0000 55       		pushq	%rbp
 7348              		.cfi_def_cfa_offset 16
 7349              		.cfi_offset 6, -16
 7350 0001 4889E5   		movq	%rsp, %rbp
 7351              		.cfi_def_cfa_register 6
 7352 0004 4154     		pushq	%r12
 7353 0006 53       		pushq	%rbx
 7354 0007 4881EC90 		subq	$400, %rsp
 7354      010000
 7355              		.cfi_offset 12, -24
 7356              		.cfi_offset 3, -32
 7357 000e 4889BD78 		movq	%rdi, -392(%rbp)
 7357      FEFFFF
 7358 0015 4889B570 		movq	%rsi, -400(%rbp)
 7358      FEFFFF
 7359 001c 48899568 		movq	%rdx, -408(%rbp)
 7359      FEFFFF
 7360 0023 48898D60 		movq	%rcx, -416(%rbp)
 7360      FEFFFF
 7361              	.LBB18:
 7362              	.LBB19:
  21:/home/pandu/Desktop/DigitalLogicDesign/Lab/03-finishingup/backend/libs/libutpp/Checks.h ****     {
 7363              		.loc 4 21 0
 7364 002a 488B8570 		movq	-400(%rbp), %rax
 7364      FEFFFF
 7365 0031 8B10     		movl	(%rax), %edx
 7366 0033 488B8568 		movq	-408(%rbp), %rax
 7366      FEFFFF
 7367 003a 0FB600   		movzbl	(%rax), %eax
 7368 003d 0FB6C0   		movzbl	%al, %eax
 7369 0040 39C2     		cmpl	%eax, %edx
 7370 0042 0F84B500 		je	.L466
 7370      0000
 7371              	.LBB20:
  23:/home/pandu/Desktop/DigitalLogicDesign/Lab/03-finishingup/backend/libs/libutpp/Checks.h ****         stream << "Expected " << expected << " but was " << actual;
 7372              		.loc 4 23 0
 7373 0048 488D8580 		leaq	-384(%rbp), %rax
 7373      FEFFFF
 7374 004f 4889C7   		movq	%rax, %rdi
 7375              	.LEHB380:
 7376 0052 E8000000 		call	_ZN8UnitTest15MemoryOutStreamC1Ev
 7376      00
 7377              	.LEHE380:
  24:/home/pandu/Desktop/DigitalLogicDesign/Lab/03-finishingup/backend/libs/libutpp/Checks.h **** 
 7378              		.loc 4 24 0
 7379 0057 488B8568 		movq	-408(%rbp), %rax
 7379      FEFFFF
 7380 005e 0FB600   		movzbl	(%rax), %eax
 7381 0061 0FB6D8   		movzbl	%al, %ebx
 7382 0064 488B8570 		movq	-400(%rbp), %rax
 7382      FEFFFF
 7383 006b 448B20   		movl	(%rax), %r12d
 7384 006e 488D8580 		leaq	-384(%rbp), %rax
 7384      FEFFFF
 7385 0075 BE000000 		movl	$.LC64, %esi
 7385      00
 7386 007a 4889C7   		movq	%rax, %rdi
 7387              	.LEHB381:
 7388 007d E8000000 		call	_ZStlsISt11char_traitsIcEERSt13basic_ostreamIcT_ES5_PKc
 7388      00
 7389 0082 4489E6   		movl	%r12d, %esi
 7390 0085 4889C7   		movq	%rax, %rdi
 7391 0088 E8000000 		call	_ZNSolsEi
 7391      00
  24:/home/pandu/Desktop/DigitalLogicDesign/Lab/03-finishingup/backend/libs/libutpp/Checks.h **** 
 7392              		.loc 4 24 0 is_stmt 0 discriminator 1
 7393 008d BE000000 		movl	$.LC65, %esi
 7393      00
 7394 0092 4889C7   		movq	%rax, %rdi
 7395 0095 E8000000 		call	_ZStlsISt11char_traitsIcEERSt13basic_ostreamIcT_ES5_PKc
 7395      00
 7396 009a 89DE     		movl	%ebx, %esi
 7397 009c 4889C7   		movq	%rax, %rdi
 7398 009f E8000000 		call	_ZStlsISt11char_traitsIcEERSt13basic_ostreamIcT_ES5_h
 7398      00
  26:/home/pandu/Desktop/DigitalLogicDesign/Lab/03-finishingup/backend/libs/libutpp/Checks.h ****     }
 7399              		.loc 4 26 0 is_stmt 1
 7400 00a4 488D8580 		leaq	-384(%rbp), %rax
 7400      FEFFFF
 7401 00ab 4889C7   		movq	%rax, %rdi
 7402 00ae E8000000 		call	_ZNK8UnitTest15MemoryOutStream7GetTextEv
 7402      00
 7403 00b3 4889C2   		movq	%rax, %rdx
 7404 00b6 488B8D60 		movq	-416(%rbp), %rcx
 7404      FEFFFF
 7405 00bd 488B8578 		movq	-392(%rbp), %rax
 7405      FEFFFF
 7406 00c4 4889CE   		movq	%rcx, %rsi
 7407 00c7 4889C7   		movq	%rax, %rdi
 7408 00ca E8000000 		call	_ZN8UnitTest11TestResults13OnTestFailureERKNS_11TestDetailsEPKc
 7408      00
 7409              	.LEHE381:
  26:/home/pandu/Desktop/DigitalLogicDesign/Lab/03-finishingup/backend/libs/libutpp/Checks.h ****     }
 7410              		.loc 4 26 0 is_stmt 0 discriminator 1
 7411 00cf 488D8580 		leaq	-384(%rbp), %rax
 7411      FEFFFF
 7412 00d6 4889C7   		movq	%rax, %rdi
 7413              	.LEHB382:
 7414 00d9 E8000000 		call	_ZN8UnitTest15MemoryOutStreamD1Ev
 7414      00
 7415              	.LEHE382:
 7416              	.LBE20:
 7417 00de EB1D     		jmp	.L466
 7418              	.L465:
 7419 00e0 4889C3   		movq	%rax, %rbx
 7420              	.LBB21:
  26:/home/pandu/Desktop/DigitalLogicDesign/Lab/03-finishingup/backend/libs/libutpp/Checks.h ****     }
 7421              		.loc 4 26 0
 7422 00e3 488D8580 		leaq	-384(%rbp), %rax
 7422      FEFFFF
 7423 00ea 4889C7   		movq	%rax, %rdi
 7424 00ed E8000000 		call	_ZN8UnitTest15MemoryOutStreamD1Ev
 7424      00
 7425 00f2 4889D8   		movq	%rbx, %rax
 7426 00f5 4889C7   		movq	%rax, %rdi
 7427              	.LEHB383:
 7428 00f8 E8000000 		call	_Unwind_Resume
 7428      00
 7429              	.LEHE383:
 7430              	.L466:
 7431              	.LBE21:
 7432              	.LBE19:
 7433              	.LBE18:
 7434              		.loc 4 28 0 is_stmt 1
 7435 00fd 4881C490 		addq	$400, %rsp
 7435      010000
 7436 0104 5B       		popq	%rbx
 7437 0105 415C     		popq	%r12
 7438 0107 5D       		popq	%rbp
 7439              		.cfi_def_cfa 7, 8
 7440 0108 C3       		ret
 7441              		.cfi_endproc
 7442              	.LFE1071:
 7443              		.section	.gcc_except_table
 7444              	.LLSDA1071:
 7445 0836 FF       		.byte	0xff
 7446 0837 FF       		.byte	0xff
 7447 0838 01       		.byte	0x1
 7448 0839 13       		.uleb128 .LLSDACSE1071-.LLSDACSB1071
 7449              	.LLSDACSB1071:
 7450 083a 52       		.uleb128 .LEHB380-.LFB1071
 7451 083b 05       		.uleb128 .LEHE380-.LEHB380
 7452 083c 00       		.uleb128 0
 7453 083d 00       		.uleb128 0
 7454 083e 7D       		.uleb128 .LEHB381-.LFB1071
 7455 083f 52       		.uleb128 .LEHE381-.LEHB381
 7456 0840 E001     		.uleb128 .L465-.LFB1071
 7457 0842 00       		.uleb128 0
 7458 0843 D901     		.uleb128 .LEHB382-.LFB1071
 7459 0845 05       		.uleb128 .LEHE382-.LEHB382
 7460 0846 00       		.uleb128 0
 7461 0847 00       		.uleb128 0
 7462 0848 F801     		.uleb128 .LEHB383-.LFB1071
 7463 084a 05       		.uleb128 .LEHE383-.LEHB383
 7464 084b 00       		.uleb128 0
 7465 084c 00       		.uleb128 0
 7466              	.LLSDACSE1071:
 7467              		.section	.text._ZN8UnitTest10CheckEqualIihEEvRNS_11TestResultsERKT_RKT0_RKNS_11TestDetailsE,"axG",
 7469              		.section	.text._ZN8UnitTest10CheckEqualIccEEvRNS_11TestResultsERKT_RKT0_RKNS_11TestDetailsE,"axG",
 7470              		.weak	_ZN8UnitTest10CheckEqualIccEEvRNS_11TestResultsERKT_RKT0_RKNS_11TestDetailsE
 7472              	_ZN8UnitTest10CheckEqualIccEEvRNS_11TestResultsERKT_RKT0_RKNS_11TestDetailsE:
 7473              	.LFB1072:
  19:/home/pandu/Desktop/DigitalLogicDesign/Lab/03-finishingup/backend/libs/libutpp/Checks.h **** {
 7474              		.loc 4 19 0
 7475              		.cfi_startproc
 7476              		.cfi_personality 0x3,__gxx_personality_v0
 7477              		.cfi_lsda 0x3,.LLSDA1072
 7478 0000 55       		pushq	%rbp
 7479              		.cfi_def_cfa_offset 16
 7480              		.cfi_offset 6, -16
 7481 0001 4889E5   		movq	%rsp, %rbp
 7482              		.cfi_def_cfa_register 6
 7483 0004 4154     		pushq	%r12
 7484 0006 53       		pushq	%rbx
 7485 0007 4881EC90 		subq	$400, %rsp
 7485      010000
 7486              		.cfi_offset 12, -24
 7487              		.cfi_offset 3, -32
 7488 000e 4889BD78 		movq	%rdi, -392(%rbp)
 7488      FEFFFF
 7489 0015 4889B570 		movq	%rsi, -400(%rbp)
 7489      FEFFFF
 7490 001c 48899568 		movq	%rdx, -408(%rbp)
 7490      FEFFFF
 7491 0023 48898D60 		movq	%rcx, -416(%rbp)
 7491      FEFFFF
 7492              	.LBB22:
 7493              	.LBB23:
  21:/home/pandu/Desktop/DigitalLogicDesign/Lab/03-finishingup/backend/libs/libutpp/Checks.h ****     {
 7494              		.loc 4 21 0
 7495 002a 488B8570 		movq	-400(%rbp), %rax
 7495      FEFFFF
 7496 0031 0FB610   		movzbl	(%rax), %edx
 7497 0034 488B8568 		movq	-408(%rbp), %rax
 7497      FEFFFF
 7498 003b 0FB600   		movzbl	(%rax), %eax
 7499 003e 38C2     		cmpb	%al, %dl
 7500 0040 0F84B900 		je	.L471
 7500      0000
 7501              	.LBB24:
  23:/home/pandu/Desktop/DigitalLogicDesign/Lab/03-finishingup/backend/libs/libutpp/Checks.h ****         stream << "Expected " << expected << " but was " << actual;
 7502              		.loc 4 23 0
 7503 0046 488D8580 		leaq	-384(%rbp), %rax
 7503      FEFFFF
 7504 004d 4889C7   		movq	%rax, %rdi
 7505              	.LEHB384:
 7506 0050 E8000000 		call	_ZN8UnitTest15MemoryOutStreamC1Ev
 7506      00
 7507              	.LEHE384:
  24:/home/pandu/Desktop/DigitalLogicDesign/Lab/03-finishingup/backend/libs/libutpp/Checks.h **** 
 7508              		.loc 4 24 0
 7509 0055 488B8568 		movq	-408(%rbp), %rax
 7509      FEFFFF
 7510 005c 0FB600   		movzbl	(%rax), %eax
 7511 005f 0FBED8   		movsbl	%al, %ebx
 7512 0062 488B8570 		movq	-400(%rbp), %rax
 7512      FEFFFF
 7513 0069 0FB600   		movzbl	(%rax), %eax
 7514 006c 440FBEE0 		movsbl	%al, %r12d
 7515 0070 488D8580 		leaq	-384(%rbp), %rax
 7515      FEFFFF
 7516 0077 BE000000 		movl	$.LC64, %esi
 7516      00
 7517 007c 4889C7   		movq	%rax, %rdi
 7518              	.LEHB385:
 7519 007f E8000000 		call	_ZStlsISt11char_traitsIcEERSt13basic_ostreamIcT_ES5_PKc
 7519      00
 7520 0084 4489E6   		movl	%r12d, %esi
 7521 0087 4889C7   		movq	%rax, %rdi
 7522 008a E8000000 		call	_ZStlsISt11char_traitsIcEERSt13basic_ostreamIcT_ES5_c
 7522      00
  24:/home/pandu/Desktop/DigitalLogicDesign/Lab/03-finishingup/backend/libs/libutpp/Checks.h **** 
 7523              		.loc 4 24 0 is_stmt 0 discriminator 1
 7524 008f BE000000 		movl	$.LC65, %esi
 7524      00
 7525 0094 4889C7   		movq	%rax, %rdi
 7526 0097 E8000000 		call	_ZStlsISt11char_traitsIcEERSt13basic_ostreamIcT_ES5_PKc
 7526      00
 7527 009c 89DE     		movl	%ebx, %esi
 7528 009e 4889C7   		movq	%rax, %rdi
 7529 00a1 E8000000 		call	_ZStlsISt11char_traitsIcEERSt13basic_ostreamIcT_ES5_c
 7529      00
  26:/home/pandu/Desktop/DigitalLogicDesign/Lab/03-finishingup/backend/libs/libutpp/Checks.h ****     }
 7530              		.loc 4 26 0 is_stmt 1
 7531 00a6 488D8580 		leaq	-384(%rbp), %rax
 7531      FEFFFF
 7532 00ad 4889C7   		movq	%rax, %rdi
 7533 00b0 E8000000 		call	_ZNK8UnitTest15MemoryOutStream7GetTextEv
 7533      00
 7534 00b5 4889C2   		movq	%rax, %rdx
 7535 00b8 488B8D60 		movq	-416(%rbp), %rcx
 7535      FEFFFF
 7536 00bf 488B8578 		movq	-392(%rbp), %rax
 7536      FEFFFF
 7537 00c6 4889CE   		movq	%rcx, %rsi
 7538 00c9 4889C7   		movq	%rax, %rdi
 7539 00cc E8000000 		call	_ZN8UnitTest11TestResults13OnTestFailureERKNS_11TestDetailsEPKc
 7539      00
 7540              	.LEHE385:
  26:/home/pandu/Desktop/DigitalLogicDesign/Lab/03-finishingup/backend/libs/libutpp/Checks.h ****     }
 7541              		.loc 4 26 0 is_stmt 0 discriminator 1
 7542 00d1 488D8580 		leaq	-384(%rbp), %rax
 7542      FEFFFF
 7543 00d8 4889C7   		movq	%rax, %rdi
 7544              	.LEHB386:
 7545 00db E8000000 		call	_ZN8UnitTest15MemoryOutStreamD1Ev
 7545      00
 7546              	.LEHE386:
 7547              	.LBE24:
 7548 00e0 EB1D     		jmp	.L471
 7549              	.L470:
 7550 00e2 4889C3   		movq	%rax, %rbx
 7551              	.LBB25:
  26:/home/pandu/Desktop/DigitalLogicDesign/Lab/03-finishingup/backend/libs/libutpp/Checks.h ****     }
 7552              		.loc 4 26 0
 7553 00e5 488D8580 		leaq	-384(%rbp), %rax
 7553      FEFFFF
 7554 00ec 4889C7   		movq	%rax, %rdi
 7555 00ef E8000000 		call	_ZN8UnitTest15MemoryOutStreamD1Ev
 7555      00
 7556 00f4 4889D8   		movq	%rbx, %rax
 7557 00f7 4889C7   		movq	%rax, %rdi
 7558              	.LEHB387:
 7559 00fa E8000000 		call	_Unwind_Resume
 7559      00
 7560              	.LEHE387:
 7561              	.L471:
 7562              	.LBE25:
 7563              	.LBE23:
 7564              	.LBE22:
 7565              		.loc 4 28 0 is_stmt 1
 7566 00ff 4881C490 		addq	$400, %rsp
 7566      010000
 7567 0106 5B       		popq	%rbx
 7568 0107 415C     		popq	%r12
 7569 0109 5D       		popq	%rbp
 7570              		.cfi_def_cfa 7, 8
 7571 010a C3       		ret
 7572              		.cfi_endproc
 7573              	.LFE1072:
 7574              		.section	.gcc_except_table
 7575              	.LLSDA1072:
 7576 084d FF       		.byte	0xff
 7577 084e FF       		.byte	0xff
 7578 084f 01       		.byte	0x1
 7579 0850 13       		.uleb128 .LLSDACSE1072-.LLSDACSB1072
 7580              	.LLSDACSB1072:
 7581 0851 50       		.uleb128 .LEHB384-.LFB1072
 7582 0852 05       		.uleb128 .LEHE384-.LEHB384
 7583 0853 00       		.uleb128 0
 7584 0854 00       		.uleb128 0
 7585 0855 7F       		.uleb128 .LEHB385-.LFB1072
 7586 0856 52       		.uleb128 .LEHE385-.LEHB385
 7587 0857 E201     		.uleb128 .L470-.LFB1072
 7588 0859 00       		.uleb128 0
 7589 085a DB01     		.uleb128 .LEHB386-.LFB1072
 7590 085c 05       		.uleb128 .LEHE386-.LEHB386
 7591 085d 00       		.uleb128 0
 7592 085e 00       		.uleb128 0
 7593 085f FA01     		.uleb128 .LEHB387-.LFB1072
 7594 0861 05       		.uleb128 .LEHE387-.LEHB387
 7595 0862 00       		.uleb128 0
 7596 0863 00       		.uleb128 0
 7597              	.LLSDACSE1072:
 7598              		.section	.text._ZN8UnitTest10CheckEqualIccEEvRNS_11TestResultsERKT_RKT0_RKNS_11TestDetailsE,"axG",
 7600              		.weak	_ZTV30TestConv_testGetHexLowerNibble
 7601              		.section	.rodata._ZTV30TestConv_testGetHexLowerNibble,"aG",@progbits,_ZTV30TestConv_testGetHexLowe
 7602              		.align 32
 7605              	_ZTV30TestConv_testGetHexLowerNibble:
 7606 0000 00000000 		.quad	0
 7606      00000000 
 7607 0008 00000000 		.quad	_ZTI30TestConv_testGetHexLowerNibble
 7607      00000000 
 7608 0010 00000000 		.quad	_ZN30TestConv_testGetHexLowerNibbleD1Ev
 7608      00000000 
 7609 0018 00000000 		.quad	_ZN30TestConv_testGetHexLowerNibbleD0Ev
 7609      00000000 
 7610 0020 00000000 		.quad	_ZNK30TestConv_testGetHexLowerNibble7RunImplEv
 7610      00000000 
 7611              		.section	.text._ZN30TestConv_testGetHexLowerNibbleD2Ev,"axG",@progbits,_ZN30TestConv_testGetHexLow
 7612              		.align 2
 7613              		.weak	_ZN30TestConv_testGetHexLowerNibbleD2Ev
 7615              	_ZN30TestConv_testGetHexLowerNibbleD2Ev:
 7616              	.LFB1125:
 130:testConv.cpp  **** 	CHECK_EQUAL('0', getHexLowerNibble(0xF0));
 7617              		.loc 3 130 0
 7618              		.cfi_startproc
 7619 0000 55       		pushq	%rbp
 7620              		.cfi_def_cfa_offset 16
 7621              		.cfi_offset 6, -16
 7622 0001 4889E5   		movq	%rsp, %rbp
 7623              		.cfi_def_cfa_register 6
 7624 0004 4883EC10 		subq	$16, %rsp
 7625 0008 48897DF8 		movq	%rdi, -8(%rbp)
 7626              	.LBB26:
 130:testConv.cpp  **** 	CHECK_EQUAL('0', getHexLowerNibble(0xF0));
 7627              		.loc 3 130 0
 7628 000c 488B45F8 		movq	-8(%rbp), %rax
 7629 0010 48C70000 		movq	$_ZTV30TestConv_testGetHexLowerNibble+16, (%rax)
 7629      000000
 7630 0017 488B45F8 		movq	-8(%rbp), %rax
 7631 001b 4889C7   		movq	%rax, %rdi
 7632 001e E8000000 		call	_ZN8UnitTest4TestD2Ev
 7632      00
 7633              	.LBE26:
 7634 0023 B8000000 		movl	$0, %eax
 7634      00
 7635 0028 85C0     		testl	%eax, %eax
 7636 002a 740C     		je	.L472
 130:testConv.cpp  **** 	CHECK_EQUAL('0', getHexLowerNibble(0xF0));
 7637              		.loc 3 130 0 is_stmt 0 discriminator 1
 7638 002c 488B45F8 		movq	-8(%rbp), %rax
 7639 0030 4889C7   		movq	%rax, %rdi
 7640 0033 E8000000 		call	_ZdlPv
 7640      00
 7641              	.L472:
 130:testConv.cpp  **** 	CHECK_EQUAL('0', getHexLowerNibble(0xF0));
 7642              		.loc 3 130 0
 7643 0038 C9       		leave
 7644              		.cfi_def_cfa 7, 8
 7645 0039 C3       		ret
 7646              		.cfi_endproc
 7647              	.LFE1125:
 7649              		.weak	_ZN30TestConv_testGetHexLowerNibbleD1Ev
 7650              		.set	_ZN30TestConv_testGetHexLowerNibbleD1Ev,_ZN30TestConv_testGetHexLowerNibbleD2Ev
 7651              		.section	.text._ZN30TestConv_testGetHexLowerNibbleD0Ev,"axG",@progbits,_ZN30TestConv_testGetHexLow
 7652              		.align 2
 7653              		.weak	_ZN30TestConv_testGetHexLowerNibbleD0Ev
 7655              	_ZN30TestConv_testGetHexLowerNibbleD0Ev:
 7656              	.LFB1127:
 130:testConv.cpp  **** 	CHECK_EQUAL('0', getHexLowerNibble(0xF0));
 7657              		.loc 3 130 0 is_stmt 1
 7658              		.cfi_startproc
 7659 0000 55       		pushq	%rbp
 7660              		.cfi_def_cfa_offset 16
 7661              		.cfi_offset 6, -16
 7662 0001 4889E5   		movq	%rsp, %rbp
 7663              		.cfi_def_cfa_register 6
 7664 0004 4883EC10 		subq	$16, %rsp
 7665 0008 48897DF8 		movq	%rdi, -8(%rbp)
 130:testConv.cpp  **** 	CHECK_EQUAL('0', getHexLowerNibble(0xF0));
 7666              		.loc 3 130 0
 7667 000c 488B45F8 		movq	-8(%rbp), %rax
 7668 0010 4889C7   		movq	%rax, %rdi
 7669 0013 E8000000 		call	_ZN30TestConv_testGetHexLowerNibbleD1Ev
 7669      00
 7670 0018 488B45F8 		movq	-8(%rbp), %rax
 7671 001c 4889C7   		movq	%rax, %rdi
 7672 001f E8000000 		call	_ZdlPv
 7672      00
 7673 0024 C9       		leave
 7674              		.cfi_def_cfa 7, 8
 7675 0025 C3       		ret
 7676              		.cfi_endproc
 7677              	.LFE1127:
 7679              		.weak	_ZTV30TestConv_testGetHexUpperNibble
 7680              		.section	.rodata._ZTV30TestConv_testGetHexUpperNibble,"aG",@progbits,_ZTV30TestConv_testGetHexUppe
 7681              		.align 32
 7684              	_ZTV30TestConv_testGetHexUpperNibble:
 7685 0000 00000000 		.quad	0
 7685      00000000 
 7686 0008 00000000 		.quad	_ZTI30TestConv_testGetHexUpperNibble
 7686      00000000 
 7687 0010 00000000 		.quad	_ZN30TestConv_testGetHexUpperNibbleD1Ev
 7687      00000000 
 7688 0018 00000000 		.quad	_ZN30TestConv_testGetHexUpperNibbleD0Ev
 7688      00000000 
 7689 0020 00000000 		.quad	_ZNK30TestConv_testGetHexUpperNibble7RunImplEv
 7689      00000000 
 7690              		.section	.text._ZN30TestConv_testGetHexUpperNibbleD2Ev,"axG",@progbits,_ZN30TestConv_testGetHexUpp
 7691              		.align 2
 7692              		.weak	_ZN30TestConv_testGetHexUpperNibbleD2Ev
 7694              	_ZN30TestConv_testGetHexUpperNibbleD2Ev:
 7695              	.LFB1129:
 111:testConv.cpp  **** 	CHECK_EQUAL('0', getHexUpperNibble(0x0F));
 7696              		.loc 3 111 0
 7697              		.cfi_startproc
 7698 0000 55       		pushq	%rbp
 7699              		.cfi_def_cfa_offset 16
 7700              		.cfi_offset 6, -16
 7701 0001 4889E5   		movq	%rsp, %rbp
 7702              		.cfi_def_cfa_register 6
 7703 0004 4883EC10 		subq	$16, %rsp
 7704 0008 48897DF8 		movq	%rdi, -8(%rbp)
 7705              	.LBB27:
 111:testConv.cpp  **** 	CHECK_EQUAL('0', getHexUpperNibble(0x0F));
 7706              		.loc 3 111 0
 7707 000c 488B45F8 		movq	-8(%rbp), %rax
 7708 0010 48C70000 		movq	$_ZTV30TestConv_testGetHexUpperNibble+16, (%rax)
 7708      000000
 7709 0017 488B45F8 		movq	-8(%rbp), %rax
 7710 001b 4889C7   		movq	%rax, %rdi
 7711 001e E8000000 		call	_ZN8UnitTest4TestD2Ev
 7711      00
 7712              	.LBE27:
 7713 0023 B8000000 		movl	$0, %eax
 7713      00
 7714 0028 85C0     		testl	%eax, %eax
 7715 002a 740C     		je	.L477
 111:testConv.cpp  **** 	CHECK_EQUAL('0', getHexUpperNibble(0x0F));
 7716              		.loc 3 111 0 is_stmt 0 discriminator 1
 7717 002c 488B45F8 		movq	-8(%rbp), %rax
 7718 0030 4889C7   		movq	%rax, %rdi
 7719 0033 E8000000 		call	_ZdlPv
 7719      00
 7720              	.L477:
 111:testConv.cpp  **** 	CHECK_EQUAL('0', getHexUpperNibble(0x0F));
 7721              		.loc 3 111 0
 7722 0038 C9       		leave
 7723              		.cfi_def_cfa 7, 8
 7724 0039 C3       		ret
 7725              		.cfi_endproc
 7726              	.LFE1129:
 7728              		.weak	_ZN30TestConv_testGetHexUpperNibbleD1Ev
 7729              		.set	_ZN30TestConv_testGetHexUpperNibbleD1Ev,_ZN30TestConv_testGetHexUpperNibbleD2Ev
 7730              		.section	.text._ZN30TestConv_testGetHexUpperNibbleD0Ev,"axG",@progbits,_ZN30TestConv_testGetHexUpp
 7731              		.align 2
 7732              		.weak	_ZN30TestConv_testGetHexUpperNibbleD0Ev
 7734              	_ZN30TestConv_testGetHexUpperNibbleD0Ev:
 7735              	.LFB1131:
 111:testConv.cpp  **** 	CHECK_EQUAL('0', getHexUpperNibble(0x0F));
 7736              		.loc 3 111 0 is_stmt 1
 7737              		.cfi_startproc
 7738 0000 55       		pushq	%rbp
 7739              		.cfi_def_cfa_offset 16
 7740              		.cfi_offset 6, -16
 7741 0001 4889E5   		movq	%rsp, %rbp
 7742              		.cfi_def_cfa_register 6
 7743 0004 4883EC10 		subq	$16, %rsp
 7744 0008 48897DF8 		movq	%rdi, -8(%rbp)
 111:testConv.cpp  **** 	CHECK_EQUAL('0', getHexUpperNibble(0x0F));
 7745              		.loc 3 111 0
 7746 000c 488B45F8 		movq	-8(%rbp), %rax
 7747 0010 4889C7   		movq	%rax, %rdi
 7748 0013 E8000000 		call	_ZN30TestConv_testGetHexUpperNibbleD1Ev
 7748      00
 7749 0018 488B45F8 		movq	-8(%rbp), %rax
 7750 001c 4889C7   		movq	%rax, %rdi
 7751 001f E8000000 		call	_ZdlPv
 7751      00
 7752 0024 C9       		leave
 7753              		.cfi_def_cfa 7, 8
 7754 0025 C3       		ret
 7755              		.cfi_endproc
 7756              	.LFE1131:
 7758              		.weak	_ZTV23TestConv_testGetHexByte
 7759              		.section	.rodata._ZTV23TestConv_testGetHexByte,"aG",@progbits,_ZTV23TestConv_testGetHexByte,comdat
 7760              		.align 32
 7763              	_ZTV23TestConv_testGetHexByte:
 7764 0000 00000000 		.quad	0
 7764      00000000 
 7765 0008 00000000 		.quad	_ZTI23TestConv_testGetHexByte
 7765      00000000 
 7766 0010 00000000 		.quad	_ZN23TestConv_testGetHexByteD1Ev
 7766      00000000 
 7767 0018 00000000 		.quad	_ZN23TestConv_testGetHexByteD0Ev
 7767      00000000 
 7768 0020 00000000 		.quad	_ZNK23TestConv_testGetHexByte7RunImplEv
 7768      00000000 
 7769              		.section	.text._ZN23TestConv_testGetHexByteD2Ev,"axG",@progbits,_ZN23TestConv_testGetHexByteD5Ev,c
 7770              		.align 2
 7771              		.weak	_ZN23TestConv_testGetHexByteD2Ev
 7773              	_ZN23TestConv_testGetHexByteD2Ev:
 7774              	.LFB1133:
  93:testConv.cpp  **** 	uint8 byte;
 7775              		.loc 3 93 0
 7776              		.cfi_startproc
 7777 0000 55       		pushq	%rbp
 7778              		.cfi_def_cfa_offset 16
 7779              		.cfi_offset 6, -16
 7780 0001 4889E5   		movq	%rsp, %rbp
 7781              		.cfi_def_cfa_register 6
 7782 0004 4883EC10 		subq	$16, %rsp
 7783 0008 48897DF8 		movq	%rdi, -8(%rbp)
 7784              	.LBB28:
  93:testConv.cpp  **** 	uint8 byte;
 7785              		.loc 3 93 0
 7786 000c 488B45F8 		movq	-8(%rbp), %rax
 7787 0010 48C70000 		movq	$_ZTV23TestConv_testGetHexByte+16, (%rax)
 7787      000000
 7788 0017 488B45F8 		movq	-8(%rbp), %rax
 7789 001b 4889C7   		movq	%rax, %rdi
 7790 001e E8000000 		call	_ZN8UnitTest4TestD2Ev
 7790      00
 7791              	.LBE28:
 7792 0023 B8000000 		movl	$0, %eax
 7792      00
 7793 0028 85C0     		testl	%eax, %eax
 7794 002a 740C     		je	.L482
  93:testConv.cpp  **** 	uint8 byte;
 7795              		.loc 3 93 0 is_stmt 0 discriminator 1
 7796 002c 488B45F8 		movq	-8(%rbp), %rax
 7797 0030 4889C7   		movq	%rax, %rdi
 7798 0033 E8000000 		call	_ZdlPv
 7798      00
 7799              	.L482:
  93:testConv.cpp  **** 	uint8 byte;
 7800              		.loc 3 93 0
 7801 0038 C9       		leave
 7802              		.cfi_def_cfa 7, 8
 7803 0039 C3       		ret
 7804              		.cfi_endproc
 7805              	.LFE1133:
 7807              		.weak	_ZN23TestConv_testGetHexByteD1Ev
 7808              		.set	_ZN23TestConv_testGetHexByteD1Ev,_ZN23TestConv_testGetHexByteD2Ev
 7809              		.section	.text._ZN23TestConv_testGetHexByteD0Ev,"axG",@progbits,_ZN23TestConv_testGetHexByteD0Ev,c
 7810              		.align 2
 7811              		.weak	_ZN23TestConv_testGetHexByteD0Ev
 7813              	_ZN23TestConv_testGetHexByteD0Ev:
 7814              	.LFB1135:
  93:testConv.cpp  **** 	uint8 byte;
 7815              		.loc 3 93 0 is_stmt 1
 7816              		.cfi_startproc
 7817 0000 55       		pushq	%rbp
 7818              		.cfi_def_cfa_offset 16
 7819              		.cfi_offset 6, -16
 7820 0001 4889E5   		movq	%rsp, %rbp
 7821              		.cfi_def_cfa_register 6
 7822 0004 4883EC10 		subq	$16, %rsp
 7823 0008 48897DF8 		movq	%rdi, -8(%rbp)
  93:testConv.cpp  **** 	uint8 byte;
 7824              		.loc 3 93 0
 7825 000c 488B45F8 		movq	-8(%rbp), %rax
 7826 0010 4889C7   		movq	%rax, %rdi
 7827 0013 E8000000 		call	_ZN23TestConv_testGetHexByteD1Ev
 7827      00
 7828 0018 488B45F8 		movq	-8(%rbp), %rax
 7829 001c 4889C7   		movq	%rax, %rdi
 7830 001f E8000000 		call	_ZdlPv
 7830      00
 7831 0024 C9       		leave
 7832              		.cfi_def_cfa 7, 8
 7833 0025 C3       		ret
 7834              		.cfi_endproc
 7835              	.LFE1135:
 7837              		.weak	_ZTV25TestConv_testGetHexNibble
 7838              		.section	.rodata._ZTV25TestConv_testGetHexNibble,"aG",@progbits,_ZTV25TestConv_testGetHexNibble,co
 7839              		.align 32
 7842              	_ZTV25TestConv_testGetHexNibble:
 7843 0000 00000000 		.quad	0
 7843      00000000 
 7844 0008 00000000 		.quad	_ZTI25TestConv_testGetHexNibble
 7844      00000000 
 7845 0010 00000000 		.quad	_ZN25TestConv_testGetHexNibbleD1Ev
 7845      00000000 
 7846 0018 00000000 		.quad	_ZN25TestConv_testGetHexNibbleD0Ev
 7846      00000000 
 7847 0020 00000000 		.quad	_ZNK25TestConv_testGetHexNibble7RunImplEv
 7847      00000000 
 7848              		.section	.text._ZN25TestConv_testGetHexNibbleD2Ev,"axG",@progbits,_ZN25TestConv_testGetHexNibbleD5
 7849              		.align 2
 7850              		.weak	_ZN25TestConv_testGetHexNibbleD2Ev
 7852              	_ZN25TestConv_testGetHexNibbleD2Ev:
 7853              	.LFB1137:
  20:testConv.cpp  **** 	uint8 nibble;
 7854              		.loc 3 20 0
 7855              		.cfi_startproc
 7856 0000 55       		pushq	%rbp
 7857              		.cfi_def_cfa_offset 16
 7858              		.cfi_offset 6, -16
 7859 0001 4889E5   		movq	%rsp, %rbp
 7860              		.cfi_def_cfa_register 6
 7861 0004 4883EC10 		subq	$16, %rsp
 7862 0008 48897DF8 		movq	%rdi, -8(%rbp)
 7863              	.LBB29:
  20:testConv.cpp  **** 	uint8 nibble;
 7864              		.loc 3 20 0
 7865 000c 488B45F8 		movq	-8(%rbp), %rax
 7866 0010 48C70000 		movq	$_ZTV25TestConv_testGetHexNibble+16, (%rax)
 7866      000000
 7867 0017 488B45F8 		movq	-8(%rbp), %rax
 7868 001b 4889C7   		movq	%rax, %rdi
 7869 001e E8000000 		call	_ZN8UnitTest4TestD2Ev
 7869      00
 7870              	.LBE29:
 7871 0023 B8000000 		movl	$0, %eax
 7871      00
 7872 0028 85C0     		testl	%eax, %eax
 7873 002a 740C     		je	.L487
  20:testConv.cpp  **** 	uint8 nibble;
 7874              		.loc 3 20 0 is_stmt 0 discriminator 1
 7875 002c 488B45F8 		movq	-8(%rbp), %rax
 7876 0030 4889C7   		movq	%rax, %rdi
 7877 0033 E8000000 		call	_ZdlPv
 7877      00
 7878              	.L487:
  20:testConv.cpp  **** 	uint8 nibble;
 7879              		.loc 3 20 0
 7880 0038 C9       		leave
 7881              		.cfi_def_cfa 7, 8
 7882 0039 C3       		ret
 7883              		.cfi_endproc
 7884              	.LFE1137:
 7886              		.weak	_ZN25TestConv_testGetHexNibbleD1Ev
 7887              		.set	_ZN25TestConv_testGetHexNibbleD1Ev,_ZN25TestConv_testGetHexNibbleD2Ev
 7888              		.section	.text._ZN25TestConv_testGetHexNibbleD0Ev,"axG",@progbits,_ZN25TestConv_testGetHexNibbleD0
 7889              		.align 2
 7890              		.weak	_ZN25TestConv_testGetHexNibbleD0Ev
 7892              	_ZN25TestConv_testGetHexNibbleD0Ev:
 7893              	.LFB1139:
  20:testConv.cpp  **** 	uint8 nibble;
 7894              		.loc 3 20 0 is_stmt 1
 7895              		.cfi_startproc
 7896 0000 55       		pushq	%rbp
 7897              		.cfi_def_cfa_offset 16
 7898              		.cfi_offset 6, -16
 7899 0001 4889E5   		movq	%rsp, %rbp
 7900              		.cfi_def_cfa_register 6
 7901 0004 4883EC10 		subq	$16, %rsp
 7902 0008 48897DF8 		movq	%rdi, -8(%rbp)
  20:testConv.cpp  **** 	uint8 nibble;
 7903              		.loc 3 20 0
 7904 000c 488B45F8 		movq	-8(%rbp), %rax
 7905 0010 4889C7   		movq	%rax, %rdi
 7906 0013 E8000000 		call	_ZN25TestConv_testGetHexNibbleD1Ev
 7906      00
 7907 0018 488B45F8 		movq	-8(%rbp), %rax
 7908 001c 4889C7   		movq	%rax, %rdi
 7909 001f E8000000 		call	_ZdlPv
 7909      00
 7910 0024 C9       		leave
 7911              		.cfi_def_cfa 7, 8
 7912 0025 C3       		ret
 7913              		.cfi_endproc
 7914              	.LFE1139:
 7916              		.weak	_ZTVN8UnitTest15MemoryOutStreamE
 7917              		.section	.rodata._ZTVN8UnitTest15MemoryOutStreamE,"aG",@progbits,_ZTVN8UnitTest15MemoryOutStreamE,
 7918              		.align 32
 7921              	_ZTVN8UnitTest15MemoryOutStreamE:
 7922 0000 60000000 		.quad	96
 7922      00000000 
 7923 0008 00000000 		.quad	0
 7923      00000000 
 7924 0010 00000000 		.quad	_ZTIN8UnitTest15MemoryOutStreamE
 7924      00000000 
 7925 0018 00000000 		.quad	_ZN8UnitTest15MemoryOutStreamD1Ev
 7925      00000000 
 7926 0020 00000000 		.quad	_ZN8UnitTest15MemoryOutStreamD0Ev
 7926      00000000 
 7927 0028 A0FFFFFF 		.quad	-96
 7927      FFFFFFFF 
 7928 0030 A0FFFFFF 		.quad	-96
 7928      FFFFFFFF 
 7929 0038 00000000 		.quad	_ZTIN8UnitTest15MemoryOutStreamE
 7929      00000000 
 7930 0040 00000000 		.quad	_ZTv0_n24_N8UnitTest15MemoryOutStreamD1Ev
 7930      00000000 
 7931 0048 00000000 		.quad	_ZTv0_n24_N8UnitTest15MemoryOutStreamD0Ev
 7931      00000000 
 7932              		.weak	_ZTTN8UnitTest15MemoryOutStreamE
 7933              		.section	.rodata._ZTTN8UnitTest15MemoryOutStreamE,"aG",@progbits,_ZTVN8UnitTest15MemoryOutStreamE,
 7934              		.align 32
 7937              	_ZTTN8UnitTest15MemoryOutStreamE:
 7938 0000 00000000 		.quad	_ZTVN8UnitTest15MemoryOutStreamE+24
 7938      00000000 
 7939 0008 00000000 		.quad	_ZTCN8UnitTest15MemoryOutStreamE0_St19basic_ostringstreamIcSt11char_traitsIcESaIcEE+24
 7939      00000000 
 7940 0010 00000000 		.quad	_ZTCN8UnitTest15MemoryOutStreamE0_So+24
 7940      00000000 
 7941 0018 00000000 		.quad	_ZTCN8UnitTest15MemoryOutStreamE0_So+64
 7941      00000000 
 7942 0020 00000000 		.quad	_ZTCN8UnitTest15MemoryOutStreamE0_St19basic_ostringstreamIcSt11char_traitsIcESaIcEE+64
 7942      00000000 
 7943 0028 00000000 		.quad	_ZTVN8UnitTest15MemoryOutStreamE+64
 7943      00000000 
 7944              		.hidden	_ZTCN8UnitTest15MemoryOutStreamE0_St19basic_ostringstreamIcSt11char_traitsIcESaIcEE
 7945              		.weak	_ZTCN8UnitTest15MemoryOutStreamE0_St19basic_ostringstreamIcSt11char_traitsIcESaIcEE
 7946              		.section	.rodata._ZTCN8UnitTest15MemoryOutStreamE0_St19basic_ostringstreamIcSt11char_traitsIcESaIc
 7947              		.align 32
 7950              	_ZTCN8UnitTest15MemoryOutStreamE0_St19basic_ostringstreamIcSt11char_traitsIcESaIcEE:
 7951 0000 60000000 		.quad	96
 7951      00000000 
 7952 0008 00000000 		.quad	0
 7952      00000000 
 7953 0010 00000000 		.quad	_ZTISt19basic_ostringstreamIcSt11char_traitsIcESaIcEE
 7953      00000000 
 7954 0018 00000000 		.quad	_ZNSt19basic_ostringstreamIcSt11char_traitsIcESaIcEED1Ev
 7954      00000000 
 7955 0020 00000000 		.quad	_ZNSt19basic_ostringstreamIcSt11char_traitsIcESaIcEED0Ev
 7955      00000000 
 7956 0028 A0FFFFFF 		.quad	-96
 7956      FFFFFFFF 
 7957 0030 A0FFFFFF 		.quad	-96
 7957      FFFFFFFF 
 7958 0038 00000000 		.quad	_ZTISt19basic_ostringstreamIcSt11char_traitsIcESaIcEE
 7958      00000000 
 7959 0040 00000000 		.quad	_ZTv0_n24_NSt19basic_ostringstreamIcSt11char_traitsIcESaIcEED1Ev
 7959      00000000 
 7960 0048 00000000 		.quad	_ZTv0_n24_NSt19basic_ostringstreamIcSt11char_traitsIcESaIcEED0Ev
 7960      00000000 
 7961              		.hidden	_ZTCN8UnitTest15MemoryOutStreamE0_So
 7962              		.weak	_ZTCN8UnitTest15MemoryOutStreamE0_So
 7963              		.section	.rodata._ZTCN8UnitTest15MemoryOutStreamE0_So,"aG",@progbits,_ZTVN8UnitTest15MemoryOutStre
 7964              		.align 32
 7967              	_ZTCN8UnitTest15MemoryOutStreamE0_So:
 7968 0000 60000000 		.quad	96
 7968      00000000 
 7969 0008 00000000 		.quad	0
 7969      00000000 
 7970 0010 00000000 		.quad	_ZTISo
 7970      00000000 
 7971 0018 00000000 		.quad	_ZNSoD1Ev
 7971      00000000 
 7972 0020 00000000 		.quad	_ZNSoD0Ev
 7972      00000000 
 7973 0028 A0FFFFFF 		.quad	-96
 7973      FFFFFFFF 
 7974 0030 A0FFFFFF 		.quad	-96
 7974      FFFFFFFF 
 7975 0038 00000000 		.quad	_ZTISo
 7975      00000000 
 7976 0040 00000000 		.quad	_ZTv0_n24_NSoD1Ev
 7976      00000000 
 7977 0048 00000000 		.quad	_ZTv0_n24_NSoD0Ev
 7977      00000000 
 7978              		.weak	_ZTI30TestConv_testGetHexLowerNibble
 7979              		.section	.rodata._ZTI30TestConv_testGetHexLowerNibble,"aG",@progbits,_ZTI30TestConv_testGetHexLowe
 7980              		.align 16
 7983              	_ZTI30TestConv_testGetHexLowerNibble:
 7984 0000 00000000 		.quad	_ZTVN10__cxxabiv120__si_class_type_infoE+16
 7984      00000000 
 7985 0008 00000000 		.quad	_ZTS30TestConv_testGetHexLowerNibble
 7985      00000000 
 7986 0010 00000000 		.quad	_ZTIN8UnitTest4TestE
 7986      00000000 
 7987              		.weak	_ZTS30TestConv_testGetHexLowerNibble
 7988              		.section	.rodata._ZTS30TestConv_testGetHexLowerNibble,"aG",@progbits,_ZTS30TestConv_testGetHexLowe
 7989              		.align 32
 7992              	_ZTS30TestConv_testGetHexLowerNibble:
 7993 0000 33305465 		.string	"30TestConv_testGetHexLowerNibble"
 7993      7374436F 
 7993      6E765F74 
 7993      65737447 
 7993      65744865 
 7994              		.weak	_ZTI30TestConv_testGetHexUpperNibble
 7995              		.section	.rodata._ZTI30TestConv_testGetHexUpperNibble,"aG",@progbits,_ZTI30TestConv_testGetHexUppe
 7996              		.align 16
 7999              	_ZTI30TestConv_testGetHexUpperNibble:
 8000 0000 00000000 		.quad	_ZTVN10__cxxabiv120__si_class_type_infoE+16
 8000      00000000 
 8001 0008 00000000 		.quad	_ZTS30TestConv_testGetHexUpperNibble
 8001      00000000 
 8002 0010 00000000 		.quad	_ZTIN8UnitTest4TestE
 8002      00000000 
 8003              		.weak	_ZTS30TestConv_testGetHexUpperNibble
 8004              		.section	.rodata._ZTS30TestConv_testGetHexUpperNibble,"aG",@progbits,_ZTS30TestConv_testGetHexUppe
 8005              		.align 32
 8008              	_ZTS30TestConv_testGetHexUpperNibble:
 8009 0000 33305465 		.string	"30TestConv_testGetHexUpperNibble"
 8009      7374436F 
 8009      6E765F74 
 8009      65737447 
 8009      65744865 
 8010              		.weak	_ZTI23TestConv_testGetHexByte
 8011              		.section	.rodata._ZTI23TestConv_testGetHexByte,"aG",@progbits,_ZTI23TestConv_testGetHexByte,comdat
 8012              		.align 16
 8015              	_ZTI23TestConv_testGetHexByte:
 8016 0000 00000000 		.quad	_ZTVN10__cxxabiv120__si_class_type_infoE+16
 8016      00000000 
 8017 0008 00000000 		.quad	_ZTS23TestConv_testGetHexByte
 8017      00000000 
 8018 0010 00000000 		.quad	_ZTIN8UnitTest4TestE
 8018      00000000 
 8019              		.weak	_ZTS23TestConv_testGetHexByte
 8020              		.section	.rodata._ZTS23TestConv_testGetHexByte,"aG",@progbits,_ZTS23TestConv_testGetHexByte,comdat
 8021              		.align 16
 8024              	_ZTS23TestConv_testGetHexByte:
 8025 0000 32335465 		.string	"23TestConv_testGetHexByte"
 8025      7374436F 
 8025      6E765F74 
 8025      65737447 
 8025      65744865 
 8026              		.weak	_ZTI25TestConv_testGetHexNibble
 8027              		.section	.rodata._ZTI25TestConv_testGetHexNibble,"aG",@progbits,_ZTI25TestConv_testGetHexNibble,co
 8028              		.align 16
 8031              	_ZTI25TestConv_testGetHexNibble:
 8032 0000 00000000 		.quad	_ZTVN10__cxxabiv120__si_class_type_infoE+16
 8032      00000000 
 8033 0008 00000000 		.quad	_ZTS25TestConv_testGetHexNibble
 8033      00000000 
 8034 0010 00000000 		.quad	_ZTIN8UnitTest4TestE
 8034      00000000 
 8035              		.weak	_ZTS25TestConv_testGetHexNibble
 8036              		.section	.rodata._ZTS25TestConv_testGetHexNibble,"aG",@progbits,_ZTS25TestConv_testGetHexNibble,co
 8037              		.align 16
 8040              	_ZTS25TestConv_testGetHexNibble:
 8041 0000 32355465 		.string	"25TestConv_testGetHexNibble"
 8041      7374436F 
 8041      6E765F74 
 8041      65737447 
 8041      65744865 
 8042              		.weak	_ZTSN8UnitTest15MemoryOutStreamE
 8043              		.section	.rodata._ZTSN8UnitTest15MemoryOutStreamE,"aG",@progbits,_ZTSN8UnitTest15MemoryOutStreamE,
 8044              		.align 16
 8047              	_ZTSN8UnitTest15MemoryOutStreamE:
 8048 0000 4E38556E 		.string	"N8UnitTest15MemoryOutStreamE"
 8048      69745465 
 8048      73743135 
 8048      4D656D6F 
 8048      72794F75 
 8049              		.weak	_ZTIN8UnitTest15MemoryOutStreamE
 8050              		.section	.rodata._ZTIN8UnitTest15MemoryOutStreamE,"aG",@progbits,_ZTIN8UnitTest15MemoryOutStreamE,
 8051              		.align 16
 8054              	_ZTIN8UnitTest15MemoryOutStreamE:
 8055 0000 00000000 		.quad	_ZTVN10__cxxabiv120__si_class_type_infoE+16
 8055      00000000 
 8056 0008 00000000 		.quad	_ZTSN8UnitTest15MemoryOutStreamE
 8056      00000000 
 8057 0010 00000000 		.quad	_ZTISt19basic_ostringstreamIcSt11char_traitsIcESaIcEE
 8057      00000000 
 8058              		.text
 8060              	_Z41__static_initialization_and_destruction_0ii:
 8061              	.LFB1140:
 8062              		.loc 3 147 0
 8063              		.cfi_startproc
 8064 373d 55       		pushq	%rbp
 8065              		.cfi_def_cfa_offset 16
 8066              		.cfi_offset 6, -16
 8067 373e 4889E5   		movq	%rsp, %rbp
 8068              		.cfi_def_cfa_register 6
 8069 3741 4883EC10 		subq	$16, %rsp
 8070 3745 897DFC   		movl	%edi, -4(%rbp)
 8071 3748 8975F8   		movl	%esi, -8(%rbp)
 8072              		.loc 3 147 0
 8073 374b 837DFC01 		cmpl	$1, -4(%rbp)
 8074 374f 0F85E100 		jne	.L492
 8074      0000
 8075              		.loc 3 147 0 is_stmt 0 discriminator 1
 8076 3755 817DF8FF 		cmpl	$65535, -8(%rbp)
 8076      FF0000
 8077 375c 0F85D400 		jne	.L492
 8077      0000
  20:testConv.cpp  **** 	uint8 nibble;
 8078              		.loc 3 20 0 is_stmt 1
 8079 3762 BF000000 		movl	$testConv_testGetHexNibbleInstance, %edi
 8079      00
 8080 3767 E8000000 		call	_ZN25TestConv_testGetHexNibbleC1Ev
 8080      00
 8081 376c BA000000 		movl	$__dso_handle, %edx
 8081      00
 8082 3771 BE000000 		movl	$testConv_testGetHexNibbleInstance, %esi
 8082      00
 8083 3776 BF000000 		movl	$_ZN25TestConv_testGetHexNibbleD1Ev, %edi
 8083      00
 8084 377b E8000000 		call	__cxa_atexit
 8084      00
 8085 3780 E8000000 		call	_ZN8UnitTest4Test11GetTestListEv
 8085      00
 8086 3785 BA000000 		movl	$testConv_testGetHexNibbleInstance, %edx
 8086      00
 8087 378a 4889C6   		movq	%rax, %rsi
 8088 378d BF000000 		movl	$adderConv_testGetHexNibble, %edi
 8088      00
 8089 3792 E8000000 		call	_ZN8UnitTest9ListAdderC1ERNS_8TestListEPNS_4TestE
 8089      00
  93:testConv.cpp  **** 	uint8 byte;
 8090              		.loc 3 93 0
 8091 3797 BF000000 		movl	$testConv_testGetHexByteInstance, %edi
 8091      00
 8092 379c E8000000 		call	_ZN23TestConv_testGetHexByteC1Ev
 8092      00
 8093 37a1 BA000000 		movl	$__dso_handle, %edx
 8093      00
 8094 37a6 BE000000 		movl	$testConv_testGetHexByteInstance, %esi
 8094      00
 8095 37ab BF000000 		movl	$_ZN23TestConv_testGetHexByteD1Ev, %edi
 8095      00
 8096 37b0 E8000000 		call	__cxa_atexit
 8096      00
 8097 37b5 E8000000 		call	_ZN8UnitTest4Test11GetTestListEv
 8097      00
 8098 37ba BA000000 		movl	$testConv_testGetHexByteInstance, %edx
 8098      00
 8099 37bf 4889C6   		movq	%rax, %rsi
 8100 37c2 BF000000 		movl	$adderConv_testGetHexByte, %edi
 8100      00
 8101 37c7 E8000000 		call	_ZN8UnitTest9ListAdderC1ERNS_8TestListEPNS_4TestE
 8101      00
 111:testConv.cpp  **** 	CHECK_EQUAL('0', getHexUpperNibble(0x0F));
 8102              		.loc 3 111 0
 8103 37cc BF000000 		movl	$testConv_testGetHexUpperNibbleInstance, %edi
 8103      00
 8104 37d1 E8000000 		call	_ZN30TestConv_testGetHexUpperNibbleC1Ev
 8104      00
 8105 37d6 BA000000 		movl	$__dso_handle, %edx
 8105      00
 8106 37db BE000000 		movl	$testConv_testGetHexUpperNibbleInstance, %esi
 8106      00
 8107 37e0 BF000000 		movl	$_ZN30TestConv_testGetHexUpperNibbleD1Ev, %edi
 8107      00
 8108 37e5 E8000000 		call	__cxa_atexit
 8108      00
 8109 37ea E8000000 		call	_ZN8UnitTest4Test11GetTestListEv
 8109      00
 8110 37ef BA000000 		movl	$testConv_testGetHexUpperNibbleInstance, %edx
 8110      00
 8111 37f4 4889C6   		movq	%rax, %rsi
 8112 37f7 BF000000 		movl	$adderConv_testGetHexUpperNibble, %edi
 8112      00
 8113 37fc E8000000 		call	_ZN8UnitTest9ListAdderC1ERNS_8TestListEPNS_4TestE
 8113      00
 130:testConv.cpp  **** 	CHECK_EQUAL('0', getHexLowerNibble(0xF0));
 8114              		.loc 3 130 0
 8115 3801 BF000000 		movl	$testConv_testGetHexLowerNibbleInstance, %edi
 8115      00
 8116 3806 E8000000 		call	_ZN30TestConv_testGetHexLowerNibbleC1Ev
 8116      00
 8117 380b BA000000 		movl	$__dso_handle, %edx
 8117      00
 8118 3810 BE000000 		movl	$testConv_testGetHexLowerNibbleInstance, %esi
 8118      00
 8119 3815 BF000000 		movl	$_ZN30TestConv_testGetHexLowerNibbleD1Ev, %edi
 8119      00
 8120 381a E8000000 		call	__cxa_atexit
 8120      00
 8121 381f E8000000 		call	_ZN8UnitTest4Test11GetTestListEv
 8121      00
 8122 3824 BA000000 		movl	$testConv_testGetHexLowerNibbleInstance, %edx
 8122      00
 8123 3829 4889C6   		movq	%rax, %rsi
 8124 382c BF000000 		movl	$adderConv_testGetHexLowerNibble, %edi
 8124      00
 8125 3831 E8000000 		call	_ZN8UnitTest9ListAdderC1ERNS_8TestListEPNS_4TestE
 8125      00
 8126              	.L492:
 8127              		.loc 3 147 0
 8128 3836 C9       		leave
 8129              		.cfi_def_cfa 7, 8
 8130 3837 C3       		ret
 8131              		.cfi_endproc
 8132              	.LFE1140:
 8135              	_GLOBAL__sub_I_testConv_testGetHexNibbleInstance:
 8136              	.LFB1141:
 8137              		.loc 3 147 0
 8138              		.cfi_startproc
 8139 3838 55       		pushq	%rbp
 8140              		.cfi_def_cfa_offset 16
 8141              		.cfi_offset 6, -16
 8142 3839 4889E5   		movq	%rsp, %rbp
 8143              		.cfi_def_cfa_register 6
 8144              		.loc 3 147 0
 8145 383c BEFFFF00 		movl	$65535, %esi
 8145      00
 8146 3841 BF010000 		movl	$1, %edi
 8146      00
 8147 3846 E8F2FEFF 		call	_Z41__static_initialization_and_destruction_0ii
 8147      FF
 8148 384b 5D       		popq	%rbp
 8149              		.cfi_def_cfa 7, 8
 8150 384c C3       		ret
 8151              		.cfi_endproc
 8152              	.LFE1141:
 8154              		.section	.init_array,"aw"
 8155              		.align 8
 8156 0000 00000000 		.quad	_GLOBAL__sub_I_testConv_testGetHexNibbleInstance
 8156      00000000 
 8157              		.section	.rodata
 8158 0d95 000000   		.align 8
 8161              	_ZZL18__gthread_active_pvE20__gthread_active_ptr:
 8162 0d98 00000000 		.quad	_ZL28__gthrw___pthread_key_createPjPFvPvE
 8162      00000000 
 8163              		.weakref	_ZL28__gthrw___pthread_key_createPjPFvPvE,__pthread_key_create
 8164              		.text
 8165              	.Letext0:
 8166              		.file 5 "/home/pandu/Desktop/DigitalLogicDesign/Lab/03-finishingup/backend/libs/libutpp/TestDetail
 8167              		.file 6 "/home/pandu/Desktop/DigitalLogicDesign/Lab/03-finishingup/backend/libs/libutpp/TestList.h
 8168              		.file 7 "/home/pandu/Desktop/DigitalLogicDesign/Lab/03-finishingup/backend/libs/libutpp/TestResult
 8169              		.file 8 "<built-in>"
 8170              		.file 9 "/usr/include/stdio.h"
 8171              		.file 10 "/usr/lib/gcc/x86_64-linux-gnu/4.8/include/stddef.h"
 8172              		.file 11 "/usr/include/wchar.h"
 8173              		.file 12 "/usr/include/c++/4.8/cwchar"
 8174              		.file 13 "/usr/include/c++/4.8/bits/char_traits.h"
 8175              		.file 14 "/usr/include/x86_64-linux-gnu/c++/4.8/bits/c++config.h"
 8176              		.file 15 "/usr/include/c++/4.8/clocale"
 8177              		.file 16 "/usr/include/c++/4.8/bits/allocator.h"
 8178              		.file 17 "/usr/include/c++/4.8/bits/basic_string.h"
 8179              		.file 18 "/usr/include/c++/4.8/bits/basic_string.tcc"
 8180              		.file 19 "/usr/include/c++/4.8/bits/stringfwd.h"
 8181              		.file 20 "/usr/include/c++/4.8/cwctype"
 8182              		.file 21 "/usr/include/time.h"
 8183              		.file 22 "/usr/include/c++/4.8/ext/new_allocator.h"
 8184              		.file 23 "/usr/include/c++/4.8/ext/numeric_traits.h"
 8185              		.file 24 "/usr/include/c++/4.8/debug/debug.h"
 8186              		.file 25 "/usr/include/locale.h"
 8187              		.file 26 "/usr/include/x86_64-linux-gnu/bits/types.h"
 8188              		.file 27 "/usr/include/x86_64-linux-gnu/c++/4.8/bits/atomic_word.h"
 8189              		.file 28 "/usr/include/wctype.h"
 8190              		.file 29 "/home/pandu/Desktop/DigitalLogicDesign/Lab/03-finishingup/backend/common/makestuff.h"
DEFINED SYMBOLS
                            *ABS*:0000000000000000 testConv.cpp
     /tmp/ccnYZv5a.s:10     .text._ZN13UnitTestSuite12GetSuiteNameEv:0000000000000000 _ZN13UnitTestSuite12GetSuiteNameEv
     /tmp/ccnYZv5a.s:33     .text._ZN8UnitTest15MemoryOutStreamC1Ev:0000000000000000 _ZN8UnitTest15MemoryOutStreamC1Ev
     /tmp/ccnYZv5a.s:7937   .rodata._ZTTN8UnitTest15MemoryOutStreamE:0000000000000000 _ZTTN8UnitTest15MemoryOutStreamE
     /tmp/ccnYZv5a.s:7921   .rodata._ZTVN8UnitTest15MemoryOutStreamE:0000000000000000 _ZTVN8UnitTest15MemoryOutStreamE
     /tmp/ccnYZv5a.s:151    .text._ZN25TestConv_testGetHexNibbleC2Ev:0000000000000000 _ZN25TestConv_testGetHexNibbleC2Ev
     /tmp/ccnYZv5a.s:7842   .rodata._ZTV25TestConv_testGetHexNibble:0000000000000000 _ZTV25TestConv_testGetHexNibble
     /tmp/ccnYZv5a.s:151    .text._ZN25TestConv_testGetHexNibbleC2Ev:0000000000000000 _ZN25TestConv_testGetHexNibbleC1Ev
     /tmp/ccnYZv5a.s:189    .bss:0000000000000000 testConv_testGetHexNibbleInstance
     /tmp/ccnYZv5a.s:194    .bss:0000000000000038 adderConv_testGetHexNibble
     /tmp/ccnYZv5a.s:255    .text:0000000000000000 _ZNK25TestConv_testGetHexNibble7RunImplEv
     /tmp/ccnYZv5a.s:7209   .text._ZN8UnitTest10CheckEqualIbbEEvRNS_11TestResultsERKT_RKT0_RKNS_11TestDetailsE:0000000000000000 _ZN8UnitTest10CheckEqualIbbEEvRNS_11TestResultsERKT_RKT0_RKNS_11TestDetailsE
     /tmp/ccnYZv5a.s:7341   .text._ZN8UnitTest10CheckEqualIihEEvRNS_11TestResultsERKT_RKT0_RKNS_11TestDetailsE:0000000000000000 _ZN8UnitTest10CheckEqualIihEEvRNS_11TestResultsERKT_RKT0_RKNS_11TestDetailsE
     /tmp/ccnYZv5a.s:3691   .text._ZN23TestConv_testGetHexByteC2Ev:0000000000000000 _ZN23TestConv_testGetHexByteC2Ev
     /tmp/ccnYZv5a.s:7763   .rodata._ZTV23TestConv_testGetHexByte:0000000000000000 _ZTV23TestConv_testGetHexByte
     /tmp/ccnYZv5a.s:3691   .text._ZN23TestConv_testGetHexByteC2Ev:0000000000000000 _ZN23TestConv_testGetHexByteC1Ev
     /tmp/ccnYZv5a.s:3728   .bss:0000000000000040 testConv_testGetHexByteInstance
     /tmp/ccnYZv5a.s:3733   .bss:0000000000000078 adderConv_testGetHexByte
     /tmp/ccnYZv5a.s:3759   .text:0000000000001d08 _ZNK23TestConv_testGetHexByte7RunImplEv
     /tmp/ccnYZv5a.s:4426   .text._ZN30TestConv_testGetHexUpperNibbleC2Ev:0000000000000000 _ZN30TestConv_testGetHexUpperNibbleC2Ev
     /tmp/ccnYZv5a.s:7684   .rodata._ZTV30TestConv_testGetHexUpperNibble:0000000000000000 _ZTV30TestConv_testGetHexUpperNibble
     /tmp/ccnYZv5a.s:4426   .text._ZN30TestConv_testGetHexUpperNibbleC2Ev:0000000000000000 _ZN30TestConv_testGetHexUpperNibbleC1Ev
     /tmp/ccnYZv5a.s:4463   .bss:0000000000000080 testConv_testGetHexUpperNibbleInstance
     /tmp/ccnYZv5a.s:4468   .bss:00000000000000b8 adderConv_testGetHexUpperNibble
     /tmp/ccnYZv5a.s:4523   .text:0000000000002252 _ZNK30TestConv_testGetHexUpperNibble7RunImplEv
     /tmp/ccnYZv5a.s:7472   .text._ZN8UnitTest10CheckEqualIccEEvRNS_11TestResultsERKT_RKT0_RKNS_11TestDetailsE:0000000000000000 _ZN8UnitTest10CheckEqualIccEEvRNS_11TestResultsERKT_RKT0_RKNS_11TestDetailsE
     /tmp/ccnYZv5a.s:5726   .text._ZN30TestConv_testGetHexLowerNibbleC2Ev:0000000000000000 _ZN30TestConv_testGetHexLowerNibbleC2Ev
     /tmp/ccnYZv5a.s:7605   .rodata._ZTV30TestConv_testGetHexLowerNibble:0000000000000000 _ZTV30TestConv_testGetHexLowerNibble
     /tmp/ccnYZv5a.s:5726   .text._ZN30TestConv_testGetHexLowerNibbleC2Ev:0000000000000000 _ZN30TestConv_testGetHexLowerNibbleC1Ev
     /tmp/ccnYZv5a.s:5763   .bss:00000000000000c0 testConv_testGetHexLowerNibbleInstance
     /tmp/ccnYZv5a.s:5768   .bss:00000000000000f8 adderConv_testGetHexLowerNibble
     /tmp/ccnYZv5a.s:5823   .text:0000000000002cc8 _ZNK30TestConv_testGetHexLowerNibble7RunImplEv
     /tmp/ccnYZv5a.s:7023   .text._ZN8UnitTest15MemoryOutStreamD1Ev:0000000000000000 _ZN8UnitTest15MemoryOutStreamD1Ev
     /tmp/ccnYZv5a.s:7150   .text._ZN8UnitTest15MemoryOutStreamD1Ev:00000000000000c8 _ZTv0_n24_N8UnitTest15MemoryOutStreamD1Ev
     /tmp/ccnYZv5a.s:7164   .text._ZN8UnitTest15MemoryOutStreamD0Ev:0000000000000000 _ZN8UnitTest15MemoryOutStreamD0Ev
     /tmp/ccnYZv5a.s:7191   .text._ZN8UnitTest15MemoryOutStreamD0Ev:0000000000000026 _ZTv0_n24_N8UnitTest15MemoryOutStreamD0Ev
     /tmp/ccnYZv5a.s:7983   .rodata._ZTI30TestConv_testGetHexLowerNibble:0000000000000000 _ZTI30TestConv_testGetHexLowerNibble
     /tmp/ccnYZv5a.s:7615   .text._ZN30TestConv_testGetHexLowerNibbleD2Ev:0000000000000000 _ZN30TestConv_testGetHexLowerNibbleD1Ev
     /tmp/ccnYZv5a.s:7655   .text._ZN30TestConv_testGetHexLowerNibbleD0Ev:0000000000000000 _ZN30TestConv_testGetHexLowerNibbleD0Ev
     /tmp/ccnYZv5a.s:7615   .text._ZN30TestConv_testGetHexLowerNibbleD2Ev:0000000000000000 _ZN30TestConv_testGetHexLowerNibbleD2Ev
     /tmp/ccnYZv5a.s:7999   .rodata._ZTI30TestConv_testGetHexUpperNibble:0000000000000000 _ZTI30TestConv_testGetHexUpperNibble
     /tmp/ccnYZv5a.s:7694   .text._ZN30TestConv_testGetHexUpperNibbleD2Ev:0000000000000000 _ZN30TestConv_testGetHexUpperNibbleD1Ev
     /tmp/ccnYZv5a.s:7734   .text._ZN30TestConv_testGetHexUpperNibbleD0Ev:0000000000000000 _ZN30TestConv_testGetHexUpperNibbleD0Ev
     /tmp/ccnYZv5a.s:7694   .text._ZN30TestConv_testGetHexUpperNibbleD2Ev:0000000000000000 _ZN30TestConv_testGetHexUpperNibbleD2Ev
     /tmp/ccnYZv5a.s:8015   .rodata._ZTI23TestConv_testGetHexByte:0000000000000000 _ZTI23TestConv_testGetHexByte
     /tmp/ccnYZv5a.s:7773   .text._ZN23TestConv_testGetHexByteD2Ev:0000000000000000 _ZN23TestConv_testGetHexByteD1Ev
     /tmp/ccnYZv5a.s:7813   .text._ZN23TestConv_testGetHexByteD0Ev:0000000000000000 _ZN23TestConv_testGetHexByteD0Ev
     /tmp/ccnYZv5a.s:7773   .text._ZN23TestConv_testGetHexByteD2Ev:0000000000000000 _ZN23TestConv_testGetHexByteD2Ev
     /tmp/ccnYZv5a.s:8031   .rodata._ZTI25TestConv_testGetHexNibble:0000000000000000 _ZTI25TestConv_testGetHexNibble
     /tmp/ccnYZv5a.s:7852   .text._ZN25TestConv_testGetHexNibbleD2Ev:0000000000000000 _ZN25TestConv_testGetHexNibbleD1Ev
     /tmp/ccnYZv5a.s:7892   .text._ZN25TestConv_testGetHexNibbleD0Ev:0000000000000000 _ZN25TestConv_testGetHexNibbleD0Ev
     /tmp/ccnYZv5a.s:7852   .text._ZN25TestConv_testGetHexNibbleD2Ev:0000000000000000 _ZN25TestConv_testGetHexNibbleD2Ev
     /tmp/ccnYZv5a.s:8054   .rodata._ZTIN8UnitTest15MemoryOutStreamE:0000000000000000 _ZTIN8UnitTest15MemoryOutStreamE
     /tmp/ccnYZv5a.s:7950   .rodata._ZTCN8UnitTest15MemoryOutStreamE0_St19basic_ostringstreamIcSt11char_traitsIcESaIcEE:0000000000000000 _ZTCN8UnitTest15MemoryOutStreamE0_St19basic_ostringstreamIcSt11char_traitsIcESaIcEE
     /tmp/ccnYZv5a.s:7967   .rodata._ZTCN8UnitTest15MemoryOutStreamE0_So:0000000000000000 _ZTCN8UnitTest15MemoryOutStreamE0_So
     /tmp/ccnYZv5a.s:7992   .rodata._ZTS30TestConv_testGetHexLowerNibble:0000000000000000 _ZTS30TestConv_testGetHexLowerNibble
     /tmp/ccnYZv5a.s:8008   .rodata._ZTS30TestConv_testGetHexUpperNibble:0000000000000000 _ZTS30TestConv_testGetHexUpperNibble
     /tmp/ccnYZv5a.s:8024   .rodata._ZTS23TestConv_testGetHexByte:0000000000000000 _ZTS23TestConv_testGetHexByte
     /tmp/ccnYZv5a.s:8040   .rodata._ZTS25TestConv_testGetHexNibble:0000000000000000 _ZTS25TestConv_testGetHexNibble
     /tmp/ccnYZv5a.s:8047   .rodata._ZTSN8UnitTest15MemoryOutStreamE:0000000000000000 _ZTSN8UnitTest15MemoryOutStreamE
     /tmp/ccnYZv5a.s:8060   .text:000000000000373d _Z41__static_initialization_and_destruction_0ii
     /tmp/ccnYZv5a.s:8135   .text:0000000000003838 _GLOBAL__sub_I_testConv_testGetHexNibbleInstance
     /tmp/ccnYZv5a.s:8161   .rodata:0000000000000d98 _ZZL18__gthread_active_pvE20__gthread_active_ptr
                           .group:0000000000000000 _ZN25TestConv_testGetHexNibbleC5Ev
                           .group:0000000000000000 _ZN23TestConv_testGetHexByteC5Ev
                           .group:0000000000000000 _ZN30TestConv_testGetHexUpperNibbleC5Ev
                           .group:0000000000000000 _ZN30TestConv_testGetHexLowerNibbleC5Ev
                           .group:0000000000000000 _ZN30TestConv_testGetHexLowerNibbleD5Ev
                           .group:0000000000000000 _ZN30TestConv_testGetHexUpperNibbleD5Ev
                           .group:0000000000000000 _ZN23TestConv_testGetHexByteD5Ev
                           .group:0000000000000000 _ZN25TestConv_testGetHexNibbleD5Ev

UNDEFINED SYMBOLS
__gxx_personality_v0
_ZNSt9basic_iosIcSt11char_traitsIcEEC2Ev
_ZNSt19basic_ostringstreamIcSt11char_traitsIcESaIcEEC2ESt13_Ios_Openmode
_ZNSsC1Ev
_ZNSt19basic_ostringstreamIcSt11char_traitsIcESaIcEED2Ev
_ZNSt9basic_iosIcSt11char_traitsIcEED2Ev
_Unwind_Resume
_ZN8UnitTest4TestC2EPKcS2_S2_i
getHexNibble
_ZN8UnitTest11CurrentTest7DetailsEv
_ZN8UnitTest11TestDetailsC1ERKS0_i
_ZN8UnitTest11CurrentTest7ResultsEv
__cxa_end_catch
__cxa_begin_catch
_ZN8UnitTest11TestResults13OnTestFailureERKNS_11TestDetailsEPKc
getHexByte
getHexUpperNibble
getHexLowerNibble
_ZNSsD1Ev
_ZdlPv
_ZStlsISt11char_traitsIcEERSt13basic_ostreamIcT_ES5_PKc
_ZNSolsEb
_ZNK8UnitTest15MemoryOutStream7GetTextEv
_ZNSolsEi
_ZStlsISt11char_traitsIcEERSt13basic_ostreamIcT_ES5_h
_ZStlsISt11char_traitsIcEERSt13basic_ostreamIcT_ES5_c
_ZN8UnitTest4TestD2Ev
_ZTISt19basic_ostringstreamIcSt11char_traitsIcESaIcEE
_ZNSt19basic_ostringstreamIcSt11char_traitsIcESaIcEED1Ev
_ZNSt19basic_ostringstreamIcSt11char_traitsIcESaIcEED0Ev
_ZTv0_n24_NSt19basic_ostringstreamIcSt11char_traitsIcESaIcEED1Ev
_ZTv0_n24_NSt19basic_ostringstreamIcSt11char_traitsIcESaIcEED0Ev
_ZTISo
_ZNSoD1Ev
_ZNSoD0Ev
_ZTv0_n24_NSoD1Ev
_ZTv0_n24_NSoD0Ev
_ZTVN10__cxxabiv120__si_class_type_infoE
_ZTIN8UnitTest4TestE
__dso_handle
__cxa_atexit
_ZN8UnitTest4Test11GetTestListEv
_ZN8UnitTest9ListAdderC1ERNS_8TestListEPNS_4TestE
__pthread_key_create
