   1              		.file	"testCore.cpp"
   2              		.text
   3              		.p2align 4,,15
   4              		.globl	createInt
   6              	createInt:
   7              	.LFB1101:
   8              		.cfi_startproc
   9 0000 53       		pushq	%rbx
  10              		.cfi_def_cfa_offset 16
  11              		.cfi_offset 3, -16
  12 0001 8B1D0000 		movl	_ZL7m_count(%rip), %ebx
  12      0000
  13 0007 31C0     		xorl	%eax, %eax
  14 0009 83FB08   		cmpl	$8, %ebx
  15 000c 7721     		ja	.L2
  16 000e BF040000 		movl	$4, %edi
  16      00
  17 0013 E8000000 		call	malloc
  17      00
  18 0018 4885C0   		testq	%rax, %rax
  19 001b 740B     		je	.L3
  20 001d 8D5301   		leal	1(%rbx), %edx
  21 0020 8918     		movl	%ebx, (%rax)
  22 0022 89150000 		movl	%edx, _ZL7m_count(%rip)
  22      0000
  23              	.L3:
  24 0028 83050000 		addl	$1, _ZL11m_allocFree(%rip)
  24      000001
  25              	.L2:
  26 002f 5B       		popq	%rbx
  27              		.cfi_def_cfa_offset 8
  28 0030 C3       		ret
  29              		.cfi_endproc
  30              	.LFE1101:
  32 0031 66666666 		.p2align 4,,15
  32      66662E0F 
  32      1F840000 
  32      000000
  33              		.globl	destroyInt
  35              	destroyInt:
  36              	.LFB1102:
  37              		.cfi_startproc
  38 0040 4885FF   		testq	%rdi, %rdi
  39 0043 7413     		je	.L10
  40 0045 832D0000 		subl	$1, _ZL11m_allocFree(%rip)
  40      000001
  41 004c E9000000 		jmp	free
  41      00
  42              		.p2align 4,,10
  43 0051 0F1F8000 		.p2align 3
  43      000000
  44              	.L10:
  45 0058 F3C3     		rep ret
  46              		.cfi_endproc
  47              	.LFE1102:
  49              		.section	.text._ZN31TestQueue_testAllocFreeMatchingD2Ev,"axG",@progbits,_ZN31TestQueue_testAllocFr
  50              		.align 2
  51              		.p2align 4,,15
  52              		.weak	_ZN31TestQueue_testAllocFreeMatchingD2Ev
  54              	_ZN31TestQueue_testAllocFreeMatchingD2Ev:
  55              	.LFB1223:
  56              		.cfi_startproc
  57 0000 48C70700 		movq	$_ZTV31TestQueue_testAllocFreeMatching+16, (%rdi)
  57      000000
  58 0007 E9000000 		jmp	_ZN8UnitTest4TestD2Ev
  58      00
  59              		.cfi_endproc
  60              	.LFE1223:
  62              		.weak	_ZN31TestQueue_testAllocFreeMatchingD1Ev
  63              		.set	_ZN31TestQueue_testAllocFreeMatchingD1Ev,_ZN31TestQueue_testAllocFreeMatchingD2Ev
  64              		.section	.text._ZN31TestQueue_testAllocFreeMatchingD0Ev,"axG",@progbits,_ZN31TestQueue_testAllocFr
  65              		.align 2
  66              		.p2align 4,,15
  67              		.weak	_ZN31TestQueue_testAllocFreeMatchingD0Ev
  69              	_ZN31TestQueue_testAllocFreeMatchingD0Ev:
  70              	.LFB1225:
  71              		.cfi_startproc
  72 0000 53       		pushq	%rbx
  73              		.cfi_def_cfa_offset 16
  74              		.cfi_offset 3, -16
  75 0001 4889FB   		movq	%rdi, %rbx
  76 0004 48C70700 		movq	$_ZTV31TestQueue_testAllocFreeMatching+16, (%rdi)
  76      000000
  77 000b E8000000 		call	_ZN8UnitTest4TestD2Ev
  77      00
  78 0010 4889DF   		movq	%rbx, %rdi
  79 0013 5B       		popq	%rbx
  80              		.cfi_def_cfa_offset 8
  81 0014 E9000000 		jmp	_ZdlPv
  81      00
  82              		.cfi_endproc
  83              	.LFE1225:
  85              		.section	.text._ZN24TestQueue_testReallocOOMD2Ev,"axG",@progbits,_ZN24TestQueue_testReallocOOMD5Ev
  86              		.align 2
  87              		.p2align 4,,15
  88              		.weak	_ZN24TestQueue_testReallocOOMD2Ev
  90              	_ZN24TestQueue_testReallocOOMD2Ev:
  91              	.LFB1227:
  92              		.cfi_startproc
  93 0000 48C70700 		movq	$_ZTV24TestQueue_testReallocOOM+16, (%rdi)
  93      000000
  94 0007 E9000000 		jmp	_ZN8UnitTest4TestD2Ev
  94      00
  95              		.cfi_endproc
  96              	.LFE1227:
  98              		.weak	_ZN24TestQueue_testReallocOOMD1Ev
  99              		.set	_ZN24TestQueue_testReallocOOMD1Ev,_ZN24TestQueue_testReallocOOMD2Ev
 100              		.section	.text._ZN24TestQueue_testReallocOOMD0Ev,"axG",@progbits,_ZN24TestQueue_testReallocOOMD0Ev
 101              		.align 2
 102              		.p2align 4,,15
 103              		.weak	_ZN24TestQueue_testReallocOOMD0Ev
 105              	_ZN24TestQueue_testReallocOOMD0Ev:
 106              	.LFB1229:
 107              		.cfi_startproc
 108 0000 53       		pushq	%rbx
 109              		.cfi_def_cfa_offset 16
 110              		.cfi_offset 3, -16
 111 0001 4889FB   		movq	%rdi, %rbx
 112 0004 48C70700 		movq	$_ZTV24TestQueue_testReallocOOM+16, (%rdi)
 112      000000
 113 000b E8000000 		call	_ZN8UnitTest4TestD2Ev
 113      00
 114 0010 4889DF   		movq	%rbx, %rdi
 115 0013 5B       		popq	%rbx
 116              		.cfi_def_cfa_offset 8
 117 0014 E9000000 		jmp	_ZdlPv
 117      00
 118              		.cfi_endproc
 119              	.LFE1229:
 121              		.section	.text._ZN22TestQueue_testAllocOOMD2Ev,"axG",@progbits,_ZN22TestQueue_testAllocOOMD5Ev,com
 122              		.align 2
 123              		.p2align 4,,15
 124              		.weak	_ZN22TestQueue_testAllocOOMD2Ev
 126              	_ZN22TestQueue_testAllocOOMD2Ev:
 127              	.LFB1231:
 128              		.cfi_startproc
 129 0000 48C70700 		movq	$_ZTV22TestQueue_testAllocOOM+16, (%rdi)
 129      000000
 130 0007 E9000000 		jmp	_ZN8UnitTest4TestD2Ev
 130      00
 131              		.cfi_endproc
 132              	.LFE1231:
 134              		.weak	_ZN22TestQueue_testAllocOOMD1Ev
 135              		.set	_ZN22TestQueue_testAllocOOMD1Ev,_ZN22TestQueue_testAllocOOMD2Ev
 136              		.section	.text._ZN22TestQueue_testAllocOOMD0Ev,"axG",@progbits,_ZN22TestQueue_testAllocOOMD0Ev,com
 137              		.align 2
 138              		.p2align 4,,15
 139              		.weak	_ZN22TestQueue_testAllocOOMD0Ev
 141              	_ZN22TestQueue_testAllocOOMD0Ev:
 142              	.LFB1233:
 143              		.cfi_startproc
 144 0000 53       		pushq	%rbx
 145              		.cfi_def_cfa_offset 16
 146              		.cfi_offset 3, -16
 147 0001 4889FB   		movq	%rdi, %rbx
 148 0004 48C70700 		movq	$_ZTV22TestQueue_testAllocOOM+16, (%rdi)
 148      000000
 149 000b E8000000 		call	_ZN8UnitTest4TestD2Ev
 149      00
 150 0010 4889DF   		movq	%rbx, %rdi
 151 0013 5B       		popq	%rbx
 152              		.cfi_def_cfa_offset 8
 153 0014 E9000000 		jmp	_ZdlPv
 153      00
 154              		.cfi_endproc
 155              	.LFE1233:
 157              		.section	.text._ZN21TestQueue_testReallocD2Ev,"axG",@progbits,_ZN21TestQueue_testReallocD5Ev,comda
 158              		.align 2
 159              		.p2align 4,,15
 160              		.weak	_ZN21TestQueue_testReallocD2Ev
 162              	_ZN21TestQueue_testReallocD2Ev:
 163              	.LFB1235:
 164              		.cfi_startproc
 165 0000 48C70700 		movq	$_ZTV21TestQueue_testRealloc+16, (%rdi)
 165      000000
 166 0007 E9000000 		jmp	_ZN8UnitTest4TestD2Ev
 166      00
 167              		.cfi_endproc
 168              	.LFE1235:
 170              		.weak	_ZN21TestQueue_testReallocD1Ev
 171              		.set	_ZN21TestQueue_testReallocD1Ev,_ZN21TestQueue_testReallocD2Ev
 172              		.section	.text._ZN21TestQueue_testReallocD0Ev,"axG",@progbits,_ZN21TestQueue_testReallocD0Ev,comda
 173              		.align 2
 174              		.p2align 4,,15
 175              		.weak	_ZN21TestQueue_testReallocD0Ev
 177              	_ZN21TestQueue_testReallocD0Ev:
 178              	.LFB1237:
 179              		.cfi_startproc
 180 0000 53       		pushq	%rbx
 181              		.cfi_def_cfa_offset 16
 182              		.cfi_offset 3, -16
 183 0001 4889FB   		movq	%rdi, %rbx
 184 0004 48C70700 		movq	$_ZTV21TestQueue_testRealloc+16, (%rdi)
 184      000000
 185 000b E8000000 		call	_ZN8UnitTest4TestD2Ev
 185      00
 186 0010 4889DF   		movq	%rbx, %rdi
 187 0013 5B       		popq	%rbx
 188              		.cfi_def_cfa_offset 8
 189 0014 E9000000 		jmp	_ZdlPv
 189      00
 190              		.cfi_endproc
 191              	.LFE1237:
 193              		.section	.text._ZN21TestQueue_testPutTakeD2Ev,"axG",@progbits,_ZN21TestQueue_testPutTakeD5Ev,comda
 194              		.align 2
 195              		.p2align 4,,15
 196              		.weak	_ZN21TestQueue_testPutTakeD2Ev
 198              	_ZN21TestQueue_testPutTakeD2Ev:
 199              	.LFB1239:
 200              		.cfi_startproc
 201 0000 48C70700 		movq	$_ZTV21TestQueue_testPutTake+16, (%rdi)
 201      000000
 202 0007 E9000000 		jmp	_ZN8UnitTest4TestD2Ev
 202      00
 203              		.cfi_endproc
 204              	.LFE1239:
 206              		.weak	_ZN21TestQueue_testPutTakeD1Ev
 207              		.set	_ZN21TestQueue_testPutTakeD1Ev,_ZN21TestQueue_testPutTakeD2Ev
 208              		.section	.text._ZN21TestQueue_testPutTakeD0Ev,"axG",@progbits,_ZN21TestQueue_testPutTakeD0Ev,comda
 209              		.align 2
 210              		.p2align 4,,15
 211              		.weak	_ZN21TestQueue_testPutTakeD0Ev
 213              	_ZN21TestQueue_testPutTakeD0Ev:
 214              	.LFB1241:
 215              		.cfi_startproc
 216 0000 53       		pushq	%rbx
 217              		.cfi_def_cfa_offset 16
 218              		.cfi_offset 3, -16
 219 0001 4889FB   		movq	%rdi, %rbx
 220 0004 48C70700 		movq	$_ZTV21TestQueue_testPutTake+16, (%rdi)
 220      000000
 221 000b E8000000 		call	_ZN8UnitTest4TestD2Ev
 221      00
 222 0010 4889DF   		movq	%rbx, %rdi
 223 0013 5B       		popq	%rbx
 224              		.cfi_def_cfa_offset 8
 225 0014 E9000000 		jmp	_ZdlPv
 225      00
 226              		.cfi_endproc
 227              	.LFE1241:
 229              		.section	.text._ZN21TestQueue_testPutWrapD2Ev,"axG",@progbits,_ZN21TestQueue_testPutWrapD5Ev,comda
 230              		.align 2
 231              		.p2align 4,,15
 232              		.weak	_ZN21TestQueue_testPutWrapD2Ev
 234              	_ZN21TestQueue_testPutWrapD2Ev:
 235              	.LFB1243:
 236              		.cfi_startproc
 237 0000 48C70700 		movq	$_ZTV21TestQueue_testPutWrap+16, (%rdi)
 237      000000
 238 0007 E9000000 		jmp	_ZN8UnitTest4TestD2Ev
 238      00
 239              		.cfi_endproc
 240              	.LFE1243:
 242              		.weak	_ZN21TestQueue_testPutWrapD1Ev
 243              		.set	_ZN21TestQueue_testPutWrapD1Ev,_ZN21TestQueue_testPutWrapD2Ev
 244              		.section	.text._ZN21TestQueue_testPutWrapD0Ev,"axG",@progbits,_ZN21TestQueue_testPutWrapD0Ev,comda
 245              		.align 2
 246              		.p2align 4,,15
 247              		.weak	_ZN21TestQueue_testPutWrapD0Ev
 249              	_ZN21TestQueue_testPutWrapD0Ev:
 250              	.LFB1245:
 251              		.cfi_startproc
 252 0000 53       		pushq	%rbx
 253              		.cfi_def_cfa_offset 16
 254              		.cfi_offset 3, -16
 255 0001 4889FB   		movq	%rdi, %rbx
 256 0004 48C70700 		movq	$_ZTV21TestQueue_testPutWrap+16, (%rdi)
 256      000000
 257 000b E8000000 		call	_ZN8UnitTest4TestD2Ev
 257      00
 258 0010 4889DF   		movq	%rbx, %rdi
 259 0013 5B       		popq	%rbx
 260              		.cfi_def_cfa_offset 8
 261 0014 E9000000 		jmp	_ZdlPv
 261      00
 262              		.cfi_endproc
 263              	.LFE1245:
 265              		.section	.text._ZN23TestQueue_testPutNoWrapD2Ev,"axG",@progbits,_ZN23TestQueue_testPutNoWrapD5Ev,c
 266              		.align 2
 267              		.p2align 4,,15
 268              		.weak	_ZN23TestQueue_testPutNoWrapD2Ev
 270              	_ZN23TestQueue_testPutNoWrapD2Ev:
 271              	.LFB1247:
 272              		.cfi_startproc
 273 0000 48C70700 		movq	$_ZTV23TestQueue_testPutNoWrap+16, (%rdi)
 273      000000
 274 0007 E9000000 		jmp	_ZN8UnitTest4TestD2Ev
 274      00
 275              		.cfi_endproc
 276              	.LFE1247:
 278              		.weak	_ZN23TestQueue_testPutNoWrapD1Ev
 279              		.set	_ZN23TestQueue_testPutNoWrapD1Ev,_ZN23TestQueue_testPutNoWrapD2Ev
 280              		.section	.text._ZN23TestQueue_testPutNoWrapD0Ev,"axG",@progbits,_ZN23TestQueue_testPutNoWrapD0Ev,c
 281              		.align 2
 282              		.p2align 4,,15
 283              		.weak	_ZN23TestQueue_testPutNoWrapD0Ev
 285              	_ZN23TestQueue_testPutNoWrapD0Ev:
 286              	.LFB1249:
 287              		.cfi_startproc
 288 0000 53       		pushq	%rbx
 289              		.cfi_def_cfa_offset 16
 290              		.cfi_offset 3, -16
 291 0001 4889FB   		movq	%rdi, %rbx
 292 0004 48C70700 		movq	$_ZTV23TestQueue_testPutNoWrap+16, (%rdi)
 292      000000
 293 000b E8000000 		call	_ZN8UnitTest4TestD2Ev
 293      00
 294 0010 4889DF   		movq	%rbx, %rdi
 295 0013 5B       		popq	%rbx
 296              		.cfi_def_cfa_offset 8
 297 0014 E9000000 		jmp	_ZdlPv
 297      00
 298              		.cfi_endproc
 299              	.LFE1249:
 301              		.section	.text._ZN18TestQueue_testInitD2Ev,"axG",@progbits,_ZN18TestQueue_testInitD5Ev,comdat
 302              		.align 2
 303              		.p2align 4,,15
 304              		.weak	_ZN18TestQueue_testInitD2Ev
 306              	_ZN18TestQueue_testInitD2Ev:
 307              	.LFB1251:
 308              		.cfi_startproc
 309 0000 48C70700 		movq	$_ZTV18TestQueue_testInit+16, (%rdi)
 309      000000
 310 0007 E9000000 		jmp	_ZN8UnitTest4TestD2Ev
 310      00
 311              		.cfi_endproc
 312              	.LFE1251:
 314              		.weak	_ZN18TestQueue_testInitD1Ev
 315              		.set	_ZN18TestQueue_testInitD1Ev,_ZN18TestQueue_testInitD2Ev
 316              		.section	.text._ZN18TestQueue_testInitD0Ev,"axG",@progbits,_ZN18TestQueue_testInitD0Ev,comdat
 317              		.align 2
 318              		.p2align 4,,15
 319              		.weak	_ZN18TestQueue_testInitD0Ev
 321              	_ZN18TestQueue_testInitD0Ev:
 322              	.LFB1253:
 323              		.cfi_startproc
 324 0000 53       		pushq	%rbx
 325              		.cfi_def_cfa_offset 16
 326              		.cfi_offset 3, -16
 327 0001 4889FB   		movq	%rdi, %rbx
 328 0004 48C70700 		movq	$_ZTV18TestQueue_testInit+16, (%rdi)
 328      000000
 329 000b E8000000 		call	_ZN8UnitTest4TestD2Ev
 329      00
 330 0010 4889DF   		movq	%rbx, %rdi
 331 0013 5B       		popq	%rbx
 332              		.cfi_def_cfa_offset 8
 333 0014 E9000000 		jmp	_ZdlPv
 333      00
 334              		.cfi_endproc
 335              	.LFE1253:
 337              		.section	.text.unlikely,"ax",@progbits
 339              	_ZStlsISt11char_traitsIcEERSt13basic_ostreamIcT_ES5_PKc.part.1:
 340              	.LFB1257:
 341              		.cfi_startproc
 342 0000 50       		pushq	%rax
 343              		.cfi_def_cfa_offset 16
 344 0001 488B07   		movq	(%rdi), %rax
 345 0004 480378E8 		addq	-24(%rax), %rdi
 346 0008 8B7720   		movl	32(%rdi), %esi
 347 000b 83CE01   		orl	$1, %esi
 348 000e E8000000 		call	_ZNSt9basic_iosIcSt11char_traitsIcEE5clearESt12_Ios_Iostate
 348      00
 349 0013 5A       		popq	%rdx
 350              		.cfi_def_cfa_offset 8
 351 0014 C3       		ret
 352              		.cfi_endproc
 353              	.LFE1257:
 355              		.section	.text._ZNSt15basic_stringbufIcSt11char_traitsIcESaIcEED2Ev,"axG",@progbits,_ZNSt15basic_s
 356              		.align 2
 357              		.p2align 4,,15
 358              		.weak	_ZNSt15basic_stringbufIcSt11char_traitsIcESaIcEED2Ev
 360              	_ZNSt15basic_stringbufIcSt11char_traitsIcESaIcEED2Ev:
 361              	.LFB1146:
 362              		.cfi_startproc
 363 0000 53       		pushq	%rbx
 364              		.cfi_def_cfa_offset 16
 365              		.cfi_offset 3, -16
 366 0001 4889FB   		movq	%rdi, %rbx
 367 0004 4883EC10 		subq	$16, %rsp
 368              		.cfi_def_cfa_offset 32
 369 0008 488B4748 		movq	72(%rdi), %rax
 370 000c 48C70700 		movq	$_ZTVSt15basic_stringbufIcSt11char_traitsIcESaIcEE+16, (%rdi)
 370      000000
 371 0013 488D78E8 		leaq	-24(%rax), %rdi
 372 0017 4881FF00 		cmpq	$_ZNSs4_Rep20_S_empty_rep_storageE, %rdi
 372      000000
 373 001e 7516     		jne	.L45
 374              	.L40:
 375 0020 488D7B38 		leaq	56(%rbx), %rdi
 376 0024 48C70300 		movq	$_ZTVSt15basic_streambufIcSt11char_traitsIcEE+16, (%rbx)
 376      000000
 377 002b E8000000 		call	_ZNSt6localeD1Ev
 377      00
 378 0030 4883C410 		addq	$16, %rsp
 379              		.cfi_remember_state
 380              		.cfi_def_cfa_offset 16
 381 0034 5B       		popq	%rbx
 382              		.cfi_def_cfa_offset 8
 383 0035 C3       		ret
 384              	.L45:
 385              		.cfi_restore_state
 386 0036 B9000000 		movl	$_ZL28__gthrw___pthread_key_createPjPFvPvE, %ecx
 386      00
 387 003b 488D5710 		leaq	16(%rdi), %rdx
 388 003f 4885C9   		testq	%rcx, %rcx
 389 0042 7417     		je	.L41
 390 0044 83C8FF   		orl	$-1, %eax
 391 0047 F00FC102 		lock xaddl	%eax, (%rdx)
 392              	.L42:
 393 004b 85C0     		testl	%eax, %eax
 394 004d 7FD1     		jg	.L40
 395 004f 488D7424 		leaq	15(%rsp), %rsi
 395      0F
 396 0054 E8000000 		call	_ZNSs4_Rep10_M_destroyERKSaIcE
 396      00
 397 0059 EBC5     		jmp	.L40
 398              	.L41:
 399 005b 8B50F8   		movl	-8(%rax), %edx
 400 005e 8D4AFF   		leal	-1(%rdx), %ecx
 401 0061 8948F8   		movl	%ecx, -8(%rax)
 402 0064 89D0     		movl	%edx, %eax
 403 0066 EBE3     		jmp	.L42
 404              		.cfi_endproc
 405              	.LFE1146:
 407              		.weak	_ZNSt15basic_stringbufIcSt11char_traitsIcESaIcEED1Ev
 408              		.set	_ZNSt15basic_stringbufIcSt11char_traitsIcESaIcEED1Ev,_ZNSt15basic_stringbufIcSt11char_traitsI
 409              		.section	.text._ZNSt15basic_stringbufIcSt11char_traitsIcESaIcEED0Ev,"axG",@progbits,_ZNSt15basic_s
 410              		.align 2
 411              		.p2align 4,,15
 412              		.weak	_ZNSt15basic_stringbufIcSt11char_traitsIcESaIcEED0Ev
 414              	_ZNSt15basic_stringbufIcSt11char_traitsIcESaIcEED0Ev:
 415              	.LFB1148:
 416              		.cfi_startproc
 417 0000 53       		pushq	%rbx
 418              		.cfi_def_cfa_offset 16
 419              		.cfi_offset 3, -16
 420 0001 4889FB   		movq	%rdi, %rbx
 421 0004 4883EC10 		subq	$16, %rsp
 422              		.cfi_def_cfa_offset 32
 423 0008 488B4748 		movq	72(%rdi), %rax
 424 000c 48C70700 		movq	$_ZTVSt15basic_stringbufIcSt11char_traitsIcESaIcEE+16, (%rdi)
 424      000000
 425 0013 488D78E8 		leaq	-24(%rax), %rdi
 426 0017 4881FF00 		cmpq	$_ZNSs4_Rep20_S_empty_rep_storageE, %rdi
 426      000000
 427 001e 751E     		jne	.L53
 428              	.L48:
 429 0020 488D7B38 		leaq	56(%rbx), %rdi
 430 0024 48C70300 		movq	$_ZTVSt15basic_streambufIcSt11char_traitsIcEE+16, (%rbx)
 430      000000
 431 002b E8000000 		call	_ZNSt6localeD1Ev
 431      00
 432 0030 4889DF   		movq	%rbx, %rdi
 433 0033 E8000000 		call	_ZdlPv
 433      00
 434 0038 4883C410 		addq	$16, %rsp
 435              		.cfi_remember_state
 436              		.cfi_def_cfa_offset 16
 437 003c 5B       		popq	%rbx
 438              		.cfi_def_cfa_offset 8
 439 003d C3       		ret
 440              	.L53:
 441              		.cfi_restore_state
 442 003e B9000000 		movl	$_ZL28__gthrw___pthread_key_createPjPFvPvE, %ecx
 442      00
 443 0043 488D5710 		leaq	16(%rdi), %rdx
 444 0047 4885C9   		testq	%rcx, %rcx
 445 004a 7417     		je	.L49
 446 004c 83C8FF   		orl	$-1, %eax
 447 004f F00FC102 		lock xaddl	%eax, (%rdx)
 448              	.L50:
 449 0053 85C0     		testl	%eax, %eax
 450 0055 7FC9     		jg	.L48
 451 0057 488D7424 		leaq	15(%rsp), %rsi
 451      0F
 452 005c E8000000 		call	_ZNSs4_Rep10_M_destroyERKSaIcE
 452      00
 453 0061 EBBD     		jmp	.L48
 454              	.L49:
 455 0063 8B50F8   		movl	-8(%rax), %edx
 456 0066 8D4AFF   		leal	-1(%rdx), %ecx
 457 0069 8948F8   		movl	%ecx, -8(%rax)
 458 006c 89D0     		movl	%edx, %eax
 459 006e EBE3     		jmp	.L50
 460              		.cfi_endproc
 461              	.LFE1148:
 463              		.section	.text._ZN8UnitTest15MemoryOutStreamD1Ev,"axG",@progbits,_ZN8UnitTest15MemoryOutStreamD1Ev
 464              		.align 2
 465              		.p2align 4,,15
 466              		.weak	_ZN8UnitTest15MemoryOutStreamD1Ev
 468              	_ZN8UnitTest15MemoryOutStreamD1Ev:
 469              	.LFB1167:
 470              		.cfi_startproc
 471 0000 53       		pushq	%rbx
 472              		.cfi_def_cfa_offset 16
 473              		.cfi_offset 3, -16
 474 0001 4889FB   		movq	%rdi, %rbx
 475 0004 4883EC10 		subq	$16, %rsp
 476              		.cfi_def_cfa_offset 32
 477 0008 488B4758 		movq	88(%rdi), %rax
 478 000c 48C70700 		movq	$_ZTVN8UnitTest15MemoryOutStreamE+24, (%rdi)
 478      000000
 479 0013 48C74760 		movq	$_ZTVN8UnitTest15MemoryOutStreamE+64, 96(%rdi)
 479      00000000 
 480 001b 488D78E8 		leaq	-24(%rax), %rdi
 481 001f 4881FF00 		cmpq	$_ZNSs4_Rep20_S_empty_rep_storageE, %rdi
 481      000000
 482 0026 7557     		jne	.L66
 483              	.L56:
 484 0028 488B4350 		movq	80(%rbx), %rax
 485 002c 48C70300 		movq	$_ZTCN8UnitTest15MemoryOutStreamE0_St19basic_ostringstreamIcSt11char_traitsIcESaIcEE+24, (%rb
 485      000000
 486 0033 48C74360 		movq	$_ZTCN8UnitTest15MemoryOutStreamE0_St19basic_ostringstreamIcSt11char_traitsIcESaIcEE+64, 96(%
 486      00000000 
 487 003b 48C74308 		movq	$_ZTVSt15basic_stringbufIcSt11char_traitsIcESaIcEE+16, 8(%rbx)
 487      00000000 
 488 0043 488D78E8 		leaq	-24(%rax), %rdi
 489 0047 4881FF00 		cmpq	$_ZNSs4_Rep20_S_empty_rep_storageE, %rdi
 489      000000
 490 004e 7554     		jne	.L67
 491              	.L61:
 492 0050 488D7B40 		leaq	64(%rbx), %rdi
 493 0054 48C74308 		movq	$_ZTVSt15basic_streambufIcSt11char_traitsIcEE+16, 8(%rbx)
 493      00000000 
 494 005c E8000000 		call	_ZNSt6localeD1Ev
 494      00
 495 0061 488D7B60 		leaq	96(%rbx), %rdi
 496 0065 48C70300 		movq	$_ZTCN8UnitTest15MemoryOutStreamE0_So+24, (%rbx)
 496      000000
 497 006c 48C74360 		movq	$_ZTVSt9basic_iosIcSt11char_traitsIcEE+16, 96(%rbx)
 497      00000000 
 498 0074 E8000000 		call	_ZNSt8ios_baseD2Ev
 498      00
 499 0079 4883C410 		addq	$16, %rsp
 500              		.cfi_remember_state
 501              		.cfi_def_cfa_offset 16
 502 007d 5B       		popq	%rbx
 503              		.cfi_def_cfa_offset 8
 504 007e C3       		ret
 505              	.L66:
 506              		.cfi_restore_state
 507 007f B9000000 		movl	$_ZL28__gthrw___pthread_key_createPjPFvPvE, %ecx
 507      00
 508 0084 488D5710 		leaq	16(%rdi), %rdx
 509 0088 4885C9   		testq	%rcx, %rcx
 510 008b 743C     		je	.L57
 511 008d 83C8FF   		orl	$-1, %eax
 512 0090 F00FC102 		lock xaddl	%eax, (%rdx)
 513              	.L58:
 514 0094 85C0     		testl	%eax, %eax
 515 0096 7F90     		jg	.L56
 516 0098 488D7424 		leaq	15(%rsp), %rsi
 516      0F
 517 009d E8000000 		call	_ZNSs4_Rep10_M_destroyERKSaIcE
 517      00
 518 00a2 EB84     		jmp	.L56
 519              	.L67:
 520 00a4 B9000000 		movl	$_ZL28__gthrw___pthread_key_createPjPFvPvE, %ecx
 520      00
 521 00a9 488D5710 		leaq	16(%rdi), %rdx
 522 00ad 4885C9   		testq	%rcx, %rcx
 523 00b0 7424     		je	.L62
 524 00b2 83C8FF   		orl	$-1, %eax
 525 00b5 F00FC102 		lock xaddl	%eax, (%rdx)
 526              	.L63:
 527 00b9 85C0     		testl	%eax, %eax
 528 00bb 7F93     		jg	.L61
 529 00bd 488D7424 		leaq	15(%rsp), %rsi
 529      0F
 530 00c2 E8000000 		call	_ZNSs4_Rep10_M_destroyERKSaIcE
 530      00
 531 00c7 EB87     		jmp	.L61
 532              	.L57:
 533 00c9 8B50F8   		movl	-8(%rax), %edx
 534 00cc 8D4AFF   		leal	-1(%rdx), %ecx
 535 00cf 8948F8   		movl	%ecx, -8(%rax)
 536 00d2 89D0     		movl	%edx, %eax
 537 00d4 EBBE     		jmp	.L58
 538              	.L62:
 539 00d6 8B50F8   		movl	-8(%rax), %edx
 540 00d9 8D4AFF   		leal	-1(%rdx), %ecx
 541 00dc 8948F8   		movl	%ecx, -8(%rax)
 542 00df 89D0     		movl	%edx, %eax
 543 00e1 EBD6     		jmp	.L63
 544              		.cfi_endproc
 545              	.LFE1167:
 547              		.set	.LTHUNK0,_ZN8UnitTest15MemoryOutStreamD1Ev
 548 00e3 66666666 		.p2align 4,,15
 548      2E0F1F84 
 548      00000000 
 548      00
 549              		.weak	_ZTv0_n24_N8UnitTest15MemoryOutStreamD1Ev
 551              	_ZTv0_n24_N8UnitTest15MemoryOutStreamD1Ev:
 552              	.LFB1266:
 553              		.cfi_startproc
 554 00f0 4C8B17   		movq	(%rdi), %r10
 555 00f3 49037AE8 		addq	-24(%r10), %rdi
 556 00f7 E904FFFF 		jmp	.LTHUNK0
 556      FF
 557              		.cfi_endproc
 558              	.LFE1266:
 560              		.section	.text._ZN8UnitTest15MemoryOutStreamD0Ev,"axG",@progbits,_ZN8UnitTest15MemoryOutStreamD0Ev
 561              		.align 2
 562              		.p2align 4,,15
 563              		.weak	_ZN8UnitTest15MemoryOutStreamD0Ev
 565              	_ZN8UnitTest15MemoryOutStreamD0Ev:
 566              	.LFB1168:
 567              		.cfi_startproc
 568 0000 53       		pushq	%rbx
 569              		.cfi_def_cfa_offset 16
 570              		.cfi_offset 3, -16
 571 0001 4889FB   		movq	%rdi, %rbx
 572 0004 4883EC10 		subq	$16, %rsp
 573              		.cfi_def_cfa_offset 32
 574 0008 488B4758 		movq	88(%rdi), %rax
 575 000c 48C70700 		movq	$_ZTVN8UnitTest15MemoryOutStreamE+24, (%rdi)
 575      000000
 576 0013 48C74760 		movq	$_ZTVN8UnitTest15MemoryOutStreamE+64, 96(%rdi)
 576      00000000 
 577 001b 488D78E8 		leaq	-24(%rax), %rdi
 578 001f 4881FF00 		cmpq	$_ZNSs4_Rep20_S_empty_rep_storageE, %rdi
 578      000000
 579 0026 755F     		jne	.L80
 580              	.L70:
 581 0028 488B4350 		movq	80(%rbx), %rax
 582 002c 48C70300 		movq	$_ZTCN8UnitTest15MemoryOutStreamE0_St19basic_ostringstreamIcSt11char_traitsIcESaIcEE+24, (%rb
 582      000000
 583 0033 48C74360 		movq	$_ZTCN8UnitTest15MemoryOutStreamE0_St19basic_ostringstreamIcSt11char_traitsIcESaIcEE+64, 96(%
 583      00000000 
 584 003b 48C74308 		movq	$_ZTVSt15basic_stringbufIcSt11char_traitsIcESaIcEE+16, 8(%rbx)
 584      00000000 
 585 0043 488D78E8 		leaq	-24(%rax), %rdi
 586 0047 4881FF00 		cmpq	$_ZNSs4_Rep20_S_empty_rep_storageE, %rdi
 586      000000
 587 004e 755F     		jne	.L81
 588              	.L75:
 589 0050 488D7B40 		leaq	64(%rbx), %rdi
 590 0054 48C74308 		movq	$_ZTVSt15basic_streambufIcSt11char_traitsIcEE+16, 8(%rbx)
 590      00000000 
 591 005c E8000000 		call	_ZNSt6localeD1Ev
 591      00
 592 0061 488D7B60 		leaq	96(%rbx), %rdi
 593 0065 48C70300 		movq	$_ZTCN8UnitTest15MemoryOutStreamE0_So+24, (%rbx)
 593      000000
 594 006c 48C74360 		movq	$_ZTVSt9basic_iosIcSt11char_traitsIcEE+16, 96(%rbx)
 594      00000000 
 595 0074 E8000000 		call	_ZNSt8ios_baseD2Ev
 595      00
 596 0079 4889DF   		movq	%rbx, %rdi
 597 007c E8000000 		call	_ZdlPv
 597      00
 598 0081 4883C410 		addq	$16, %rsp
 599              		.cfi_remember_state
 600              		.cfi_def_cfa_offset 16
 601 0085 5B       		popq	%rbx
 602              		.cfi_def_cfa_offset 8
 603 0086 C3       		ret
 604              	.L80:
 605              		.cfi_restore_state
 606 0087 B9000000 		movl	$_ZL28__gthrw___pthread_key_createPjPFvPvE, %ecx
 606      00
 607 008c 488D5710 		leaq	16(%rdi), %rdx
 608 0090 4885C9   		testq	%rcx, %rcx
 609 0093 7442     		je	.L71
 610 0095 83C8FF   		orl	$-1, %eax
 611 0098 F00FC102 		lock xaddl	%eax, (%rdx)
 612              	.L72:
 613 009c 85C0     		testl	%eax, %eax
 614 009e 7F88     		jg	.L70
 615 00a0 488D7424 		leaq	15(%rsp), %rsi
 615      0F
 616 00a5 E8000000 		call	_ZNSs4_Rep10_M_destroyERKSaIcE
 616      00
 617 00aa E979FFFF 		jmp	.L70
 617      FF
 618              	.L81:
 619 00af B9000000 		movl	$_ZL28__gthrw___pthread_key_createPjPFvPvE, %ecx
 619      00
 620 00b4 488D5710 		leaq	16(%rdi), %rdx
 621 00b8 4885C9   		testq	%rcx, %rcx
 622 00bb 7427     		je	.L76
 623 00bd 83C8FF   		orl	$-1, %eax
 624 00c0 F00FC102 		lock xaddl	%eax, (%rdx)
 625              	.L77:
 626 00c4 85C0     		testl	%eax, %eax
 627 00c6 7F88     		jg	.L75
 628 00c8 488D7424 		leaq	15(%rsp), %rsi
 628      0F
 629 00cd E8000000 		call	_ZNSs4_Rep10_M_destroyERKSaIcE
 629      00
 630 00d2 E979FFFF 		jmp	.L75
 630      FF
 631              	.L71:
 632 00d7 8B50F8   		movl	-8(%rax), %edx
 633 00da 8D4AFF   		leal	-1(%rdx), %ecx
 634 00dd 8948F8   		movl	%ecx, -8(%rax)
 635 00e0 89D0     		movl	%edx, %eax
 636 00e2 EBB8     		jmp	.L72
 637              	.L76:
 638 00e4 8B50F8   		movl	-8(%rax), %edx
 639 00e7 8D4AFF   		leal	-1(%rdx), %ecx
 640 00ea 8948F8   		movl	%ecx, -8(%rax)
 641 00ed 89D0     		movl	%edx, %eax
 642 00ef EBD3     		jmp	.L77
 643              		.cfi_endproc
 644              	.LFE1168:
 646              		.set	.LTHUNK1,_ZN8UnitTest15MemoryOutStreamD0Ev
 647 00f1 66666666 		.p2align 4,,15
 647      66662E0F 
 647      1F840000 
 647      000000
 648              		.weak	_ZTv0_n24_N8UnitTest15MemoryOutStreamD0Ev
 650              	_ZTv0_n24_N8UnitTest15MemoryOutStreamD0Ev:
 651              	.LFB1267:
 652              		.cfi_startproc
 653 0100 4C8B17   		movq	(%rdi), %r10
 654 0103 49037AE8 		addq	-24(%r10), %rdi
 655 0107 E9F4FEFF 		jmp	.LTHUNK1
 655      FF
 656              		.cfi_endproc
 657              	.LFE1267:
 659              		.section	.rodata.str1.1,"aMS",@progbits,1
 660              	.LC0:
 661 0000 45787065 		.string	"Expected "
 661      63746564 
 661      2000
 662              	.LC1:
 663 000a 20627574 		.string	" but was "
 663      20776173 
 663      2000
 664              		.section	.rodata.str1.8,"aMS",@progbits,1
 665              		.align 8
 666              	.LC2:
 667 0000 556E6861 		.string	"Unhandled exception in CHECK_EQUAL(0, m_allocFree)"
 667      6E646C65 
 667      64206578 
 667      63657074 
 667      696F6E20 
 668              		.text
 669              		.align 2
 670 005a 660F1F44 		.p2align 4,,15
 670      0000
 671              		.globl	_ZNK31TestQueue_testAllocFreeMatching7RunImplEv
 673              	_ZNK31TestQueue_testAllocFreeMatching7RunImplEv:
 674              	.LFB1136:
 675              		.cfi_startproc
 676              		.cfi_personality 0x3,__gxx_personality_v0
 677              		.cfi_lsda 0x3,.LLSDA1136
 678 0060 4155     		pushq	%r13
 679              		.cfi_def_cfa_offset 16
 680              		.cfi_offset 13, -16
 681 0062 4154     		pushq	%r12
 682              		.cfi_def_cfa_offset 24
 683              		.cfi_offset 12, -24
 684 0064 55       		pushq	%rbp
 685              		.cfi_def_cfa_offset 32
 686              		.cfi_offset 6, -32
 687 0065 53       		pushq	%rbx
 688              		.cfi_def_cfa_offset 40
 689              		.cfi_offset 3, -40
 690 0066 4881ECA8 		subq	$424, %rsp
 690      010000
 691              		.cfi_def_cfa_offset 464
 692              	.LEHB0:
 693 006d E8000000 		call	_ZN8UnitTest11CurrentTest7DetailsEv
 693      00
 694 0072 488D5C24 		leaq	16(%rsp), %rbx
 694      10
 695 0077 488B30   		movq	(%rax), %rsi
 696 007a BA810100 		movl	$385, %edx
 696      00
 697 007f 4889DF   		movq	%rbx, %rdi
 698 0082 E8000000 		call	_ZN8UnitTest11TestDetailsC1ERKS0_i
 698      00
 699 0087 E8000000 		call	_ZN8UnitTest11CurrentTest7ResultsEv
 699      00
 700              	.LEHE0:
 701 008c 4C8B20   		movq	(%rax), %r12
 702 008f 8B050000 		movl	_ZL11m_allocFree(%rip), %eax
 702      0000
 703 0095 85C0     		testl	%eax, %eax
 704 0097 0F842102 		je	.L82
 704      0000
 705 009d 488DAC24 		leaq	144(%rsp), %rbp
 705      90000000 
 706 00a5 4889EF   		movq	%rbp, %rdi
 707 00a8 E8000000 		call	_ZNSt8ios_baseC2Ev
 707      00
 708 00ad 31F6     		xorl	%esi, %esi
 709 00af 4889EF   		movq	%rbp, %rdi
 710 00b2 48C78424 		movq	$0, 360(%rsp)
 710      68010000 
 710      00000000 
 711 00be C6842470 		movb	$0, 368(%rsp)
 711      01000000 
 712 00c6 C6842471 		movb	$0, 369(%rsp)
 712      01000000 
 713 00ce 48C78424 		movq	$0, 376(%rsp)
 713      78010000 
 713      00000000 
 714 00da 48C78424 		movq	$0, 384(%rsp)
 714      80010000 
 714      00000000 
 715 00e6 48C78424 		movq	$0, 392(%rsp)
 715      88010000 
 715      00000000 
 716 00f2 48C78424 		movq	$0, 400(%rsp)
 716      90010000 
 716      00000000 
 717 00fe 48C74424 		movq	$_ZTCN8UnitTest15MemoryOutStreamE0_So+24, 48(%rsp)
 717      30000000 
 717      00
 718 0107 48C78424 		movq	$_ZTCN8UnitTest15MemoryOutStreamE0_So+64, 144(%rsp)
 718      90000000 
 718      00000000 
 719              	.LEHB1:
 720 0113 E8000000 		call	_ZNSt9basic_iosIcSt11char_traitsIcEE4initEPSt15basic_streambufIcS1_E
 720      00
 721              	.LEHE1:
 722 0118 488D7C24 		leaq	112(%rsp), %rdi
 722      70
 723 011d 48C74424 		movq	$_ZTCN8UnitTest15MemoryOutStreamE0_St19basic_ostringstreamIcSt11char_traitsIcESaIcEE+24, 48(%
 723      30000000 
 723      00
 724 0126 48C78424 		movq	$_ZTCN8UnitTest15MemoryOutStreamE0_St19basic_ostringstreamIcSt11char_traitsIcESaIcEE+64, 144(
 724      90000000 
 724      00000000 
 725 0132 48C74424 		movq	$_ZTVSt15basic_streambufIcSt11char_traitsIcEE+16, 56(%rsp)
 725      38000000 
 725      00
 726 013b 48C74424 		movq	$0, 64(%rsp)
 726      40000000 
 726      00
 727 0144 48C74424 		movq	$0, 72(%rsp)
 727      48000000 
 727      00
 728 014d 48C74424 		movq	$0, 80(%rsp)
 728      50000000 
 728      00
 729 0156 48C74424 		movq	$0, 88(%rsp)
 729      58000000 
 729      00
 730 015f 48C74424 		movq	$0, 96(%rsp)
 730      60000000 
 730      00
 731 0168 48C74424 		movq	$0, 104(%rsp)
 731      68000000 
 731      00
 732 0171 E8000000 		call	_ZNSt6localeC1Ev
 732      00
 733 0176 488B4424 		movq	48(%rsp), %rax
 733      30
 734 017b 488D7C24 		leaq	48(%rsp), %rdi
 734      30
 735 0180 488D7424 		leaq	56(%rsp), %rsi
 735      38
 736 0185 48C74424 		movq	$_ZTVSt15basic_stringbufIcSt11char_traitsIcESaIcEE+16, 56(%rsp)
 736      38000000 
 736      00
 737 018e C7442478 		movl	$16, 120(%rsp)
 737      10000000 
 738 0196 48C78424 		movq	$_ZNSs4_Rep20_S_empty_rep_storageE+24, 128(%rsp)
 738      80000000 
 738      00000000 
 739 01a2 480378E8 		addq	-24(%rax), %rdi
 740              	.LEHB2:
 741 01a6 E8000000 		call	_ZNSt9basic_iosIcSt11char_traitsIcEE4initEPSt15basic_streambufIcS1_E
 741      00
 742              	.LEHE2:
 743 01ab 488D7C24 		leaq	48(%rsp), %rdi
 743      30
 744 01b0 BA090000 		movl	$9, %edx
 744      00
 745 01b5 BE000000 		movl	$.LC0, %esi
 745      00
 746 01ba 48C74424 		movq	$_ZTVN8UnitTest15MemoryOutStreamE+24, 48(%rsp)
 746      30000000 
 746      00
 747 01c3 48C78424 		movq	$_ZTVN8UnitTest15MemoryOutStreamE+64, 144(%rsp)
 747      90000000 
 747      00000000 
 748 01cf 48C78424 		movq	$_ZNSs4_Rep20_S_empty_rep_storageE+24, 136(%rsp)
 748      88000000 
 748      00000000 
 749 01db 448B2D00 		movl	_ZL11m_allocFree(%rip), %r13d
 749      000000
 750              	.LEHB3:
 751 01e2 E8000000 		call	_ZSt16__ostream_insertIcSt11char_traitsIcEERSt13basic_ostreamIT_T0_ES6_PKS3_l
 751      00
 752 01e7 488D7C24 		leaq	48(%rsp), %rdi
 752      30
 753 01ec 31F6     		xorl	%esi, %esi
 754 01ee E8000000 		call	_ZNSolsEi
 754      00
 755 01f3 BA090000 		movl	$9, %edx
 755      00
 756 01f8 BE000000 		movl	$.LC1, %esi
 756      00
 757 01fd 4889C7   		movq	%rax, %rdi
 758 0200 4889C5   		movq	%rax, %rbp
 759 0203 E8000000 		call	_ZSt16__ostream_insertIcSt11char_traitsIcEERSt13basic_ostreamIT_T0_ES6_PKS3_l
 759      00
 760 0208 4489EE   		movl	%r13d, %esi
 761 020b 4889EF   		movq	%rbp, %rdi
 762 020e E8000000 		call	_ZNSolsEi
 762      00
 763 0213 488D7C24 		leaq	48(%rsp), %rdi
 763      30
 764 0218 E8000000 		call	_ZNK8UnitTest15MemoryOutStream7GetTextEv
 764      00
 765 021d 4889C2   		movq	%rax, %rdx
 766 0220 4889DE   		movq	%rbx, %rsi
 767 0223 4C89E7   		movq	%r12, %rdi
 768 0226 E8000000 		call	_ZN8UnitTest11TestResults13OnTestFailureERKNS_11TestDetailsEPKc
 768      00
 769              	.LEHE3:
 770 022b 488B8424 		movq	136(%rsp), %rax
 770      88000000 
 771 0233 48C74424 		movq	$_ZTVN8UnitTest15MemoryOutStreamE+24, 48(%rsp)
 771      30000000 
 771      00
 772 023c 48C78424 		movq	$_ZTVN8UnitTest15MemoryOutStreamE+64, 144(%rsp)
 772      90000000 
 772      00000000 
 773 0248 488D78E8 		leaq	-24(%rax), %rdi
 774 024c 4881FF00 		cmpq	$_ZNSs4_Rep20_S_empty_rep_storageE, %rdi
 774      000000
 775 0253 7577     		jne	.L110
 776              	.L90:
 777 0255 488B8424 		movq	128(%rsp), %rax
 777      80000000 
 778 025d 48C74424 		movq	$_ZTCN8UnitTest15MemoryOutStreamE0_St19basic_ostringstreamIcSt11char_traitsIcESaIcEE+24, 48(%
 778      30000000 
 778      00
 779 0266 48C78424 		movq	$_ZTCN8UnitTest15MemoryOutStreamE0_St19basic_ostringstreamIcSt11char_traitsIcESaIcEE+64, 144(
 779      90000000 
 779      00000000 
 780 0272 48C74424 		movq	$_ZTVSt15basic_stringbufIcSt11char_traitsIcESaIcEE+16, 56(%rsp)
 780      38000000 
 780      00
 781 027b 488D78E8 		leaq	-24(%rax), %rdi
 782 027f 4881FF00 		cmpq	$_ZNSs4_Rep20_S_empty_rep_storageE, %rdi
 782      000000
 783 0286 7574     		jne	.L111
 784              	.L95:
 785 0288 488D7C24 		leaq	112(%rsp), %rdi
 785      70
 786 028d 48C74424 		movq	$_ZTVSt15basic_streambufIcSt11char_traitsIcEE+16, 56(%rsp)
 786      38000000 
 786      00
 787 0296 E8000000 		call	_ZNSt6localeD1Ev
 787      00
 788 029b 488D4424 		leaq	48(%rsp), %rax
 788      30
 789 02a0 48C74424 		movq	$_ZTCN8UnitTest15MemoryOutStreamE0_So+24, 48(%rsp)
 789      30000000 
 789      00
 790 02a9 48C78424 		movq	$_ZTVSt9basic_iosIcSt11char_traitsIcEE+16, 144(%rsp)
 790      90000000 
 790      00000000 
 791 02b5 488D7860 		leaq	96(%rax), %rdi
 792              	.LEHB4:
 793 02b9 E8000000 		call	_ZNSt8ios_baseD2Ev
 793      00
 794              	.LEHE4:
 795              	.L82:
 796 02be 4881C4A8 		addq	$424, %rsp
 796      010000
 797              		.cfi_remember_state
 798              		.cfi_def_cfa_offset 40
 799 02c5 5B       		popq	%rbx
 800              		.cfi_def_cfa_offset 32
 801 02c6 5D       		popq	%rbp
 802              		.cfi_def_cfa_offset 24
 803 02c7 415C     		popq	%r12
 804              		.cfi_def_cfa_offset 16
 805 02c9 415D     		popq	%r13
 806              		.cfi_def_cfa_offset 8
 807 02cb C3       		ret
 808              	.L110:
 809              		.cfi_restore_state
 810 02cc B9000000 		movl	$_ZL28__gthrw___pthread_key_createPjPFvPvE, %ecx
 810      00
 811 02d1 488D5710 		leaq	16(%rdi), %rdx
 812 02d5 4885C9   		testq	%rcx, %rcx
 813 02d8 0F84F900 		je	.L91
 813      0000
 814 02de 83C8FF   		orl	$-1, %eax
 815 02e1 F00FC102 		lock xaddl	%eax, (%rdx)
 816              	.L92:
 817 02e5 85C0     		testl	%eax, %eax
 818 02e7 0F8F68FF 		jg	.L90
 818      FFFF
 819 02ed 488D7424 		leaq	15(%rsp), %rsi
 819      0F
 820 02f2 E8000000 		call	_ZNSs4_Rep10_M_destroyERKSaIcE
 820      00
 821 02f7 E959FFFF 		jmp	.L90
 821      FF
 822              	.L111:
 823 02fc B9000000 		movl	$_ZL28__gthrw___pthread_key_createPjPFvPvE, %ecx
 823      00
 824 0301 488D5710 		leaq	16(%rdi), %rdx
 825 0305 4885C9   		testq	%rcx, %rcx
 826 0308 745F     		je	.L96
 827 030a 83C8FF   		orl	$-1, %eax
 828 030d F00FC102 		lock xaddl	%eax, (%rdx)
 829              	.L97:
 830 0311 85C0     		testl	%eax, %eax
 831 0313 0F8F6FFF 		jg	.L95
 831      FFFF
 832 0319 488D7424 		leaq	15(%rsp), %rsi
 832      0F
 833 031e E8000000 		call	_ZNSs4_Rep10_M_destroyERKSaIcE
 833      00
 834 0323 E960FFFF 		jmp	.L95
 834      FF
 835              	.L102:
 836              	.L88:
 837 0328 4889C7   		movq	%rax, %rdi
 838 032b E8000000 		call	__cxa_begin_catch
 838      00
 839              		.p2align 4,,5
 840              	.LEHB5:
 841 0330 E8000000 		call	_ZN8UnitTest11CurrentTest7DetailsEv
 841      00
 842 0335 488D5C24 		leaq	16(%rsp), %rbx
 842      10
 843 033a 488B30   		movq	(%rax), %rsi
 844 033d BA810100 		movl	$385, %edx
 844      00
 845 0342 4889DF   		movq	%rbx, %rdi
 846 0345 E8000000 		call	_ZN8UnitTest11TestDetailsC1ERKS0_i
 846      00
 847 034a E8000000 		call	_ZN8UnitTest11CurrentTest7ResultsEv
 847      00
 848 034f 488B38   		movq	(%rax), %rdi
 849 0352 BA000000 		movl	$.LC2, %edx
 849      00
 850 0357 4889DE   		movq	%rbx, %rsi
 851 035a E8000000 		call	_ZN8UnitTest11TestResults13OnTestFailureERKNS_11TestDetailsEPKc
 851      00
 852              	.LEHE5:
 853              	.LEHB6:
 854 035f E8000000 		call	__cxa_end_catch
 854      00
 855              	.LEHE6:
 856 0364 E955FFFF 		jmp	.L82
 856      FF
 857              	.L96:
 858 0369 8B50F8   		movl	-8(%rax), %edx
 859 036c 8D4AFF   		leal	-1(%rdx), %ecx
 860 036f 8948F8   		movl	%ecx, -8(%rax)
 861 0372 89D0     		movl	%edx, %eax
 862 0374 EB9B     		jmp	.L97
 863              	.L103:
 864 0376 4889C3   		movq	%rax, %rbx
 865 0379 E8000000 		call	__cxa_end_catch
 865      00
 866 037e 4889DF   		movq	%rbx, %rdi
 867              	.LEHB7:
 868 0381 E8000000 		call	_Unwind_Resume
 868      00
 869              	.LEHE7:
 870              	.L106:
 871 0386 488D7C24 		leaq	56(%rsp), %rdi
 871      38
 872 038b 4889C3   		movq	%rax, %rbx
 873 038e E8000000 		call	_ZNSt15basic_stringbufIcSt11char_traitsIcESaIcEED1Ev
 873      00
 874 0393 48C74424 		movq	$_ZTCN8UnitTest15MemoryOutStreamE0_So+24, 48(%rsp)
 874      30000000 
 874      00
 875              	.L86:
 876 039c 488DBC24 		leaq	144(%rsp), %rdi
 876      90000000 
 877 03a4 48C78424 		movq	$_ZTVSt9basic_iosIcSt11char_traitsIcEE+16, 144(%rsp)
 877      90000000 
 877      00000000 
 878 03b0 E8000000 		call	_ZNSt8ios_baseD2Ev
 878      00
 879 03b5 4889D8   		movq	%rbx, %rax
 880 03b8 E96BFFFF 		jmp	.L88
 880      FF
 881              	.L104:
 882 03bd 488D7C24 		leaq	48(%rsp), %rdi
 882      30
 883 03c2 4889C3   		movq	%rax, %rbx
 884 03c5 E8000000 		call	_ZN8UnitTest15MemoryOutStreamD1Ev
 884      00
 885 03ca 4889D8   		movq	%rbx, %rax
 886 03cd E956FFFF 		jmp	.L88
 886      FF
 887              	.L105:
 888 03d2 4889C3   		movq	%rax, %rbx
 889 03d5 EBC5     		jmp	.L86
 890              	.L91:
 891 03d7 8B50F8   		movl	-8(%rax), %edx
 892 03da 8D4AFF   		leal	-1(%rdx), %ecx
 893 03dd 8948F8   		movl	%ecx, -8(%rax)
 894 03e0 89D0     		movl	%edx, %eax
 895 03e2 E9FEFEFF 		jmp	.L92
 895      FF
 896              		.cfi_endproc
 897              	.LFE1136:
 898              		.globl	__gxx_personality_v0
 899              		.section	.gcc_except_table,"a",@progbits
 900              		.align 4
 901              	.LLSDA1136:
 902 0000 FF       		.byte	0xff
 903 0001 03       		.byte	0x3
 904 0002 39       		.uleb128 .LLSDATT1136-.LLSDATTD1136
 905              	.LLSDATTD1136:
 906 0003 01       		.byte	0x1
 907 0004 2D       		.uleb128 .LLSDACSE1136-.LLSDACSB1136
 908              	.LLSDACSB1136:
 909 0005 0D       		.uleb128 .LEHB0-.LFB1136
 910 0006 1F       		.uleb128 .LEHE0-.LEHB0
 911 0007 C805     		.uleb128 .L102-.LFB1136
 912 0009 01       		.uleb128 0x1
 913 000a B301     		.uleb128 .LEHB1-.LFB1136
 914 000c 05       		.uleb128 .LEHE1-.LEHB1
 915 000d F206     		.uleb128 .L105-.LFB1136
 916 000f 03       		.uleb128 0x3
 917 0010 C602     		.uleb128 .LEHB2-.LFB1136
 918 0012 05       		.uleb128 .LEHE2-.LEHB2
 919 0013 A606     		.uleb128 .L106-.LFB1136
 920 0015 03       		.uleb128 0x3
 921 0016 8203     		.uleb128 .LEHB3-.LFB1136
 922 0018 49       		.uleb128 .LEHE3-.LEHB3
 923 0019 DD06     		.uleb128 .L104-.LFB1136
 924 001b 03       		.uleb128 0x3
 925 001c D904     		.uleb128 .LEHB4-.LFB1136
 926 001e 05       		.uleb128 .LEHE4-.LEHB4
 927 001f C805     		.uleb128 .L102-.LFB1136
 928 0021 01       		.uleb128 0x1
 929 0022 D005     		.uleb128 .LEHB5-.LFB1136
 930 0024 2F       		.uleb128 .LEHE5-.LEHB5
 931 0025 9606     		.uleb128 .L103-.LFB1136
 932 0027 00       		.uleb128 0
 933 0028 FF05     		.uleb128 .LEHB6-.LFB1136
 934 002a 05       		.uleb128 .LEHE6-.LEHB6
 935 002b 00       		.uleb128 0
 936 002c 00       		.uleb128 0
 937 002d A106     		.uleb128 .LEHB7-.LFB1136
 938 002f 05       		.uleb128 .LEHE7-.LEHB7
 939 0030 00       		.uleb128 0
 940 0031 00       		.uleb128 0
 941              	.LLSDACSE1136:
 942 0032 01       		.byte	0x1
 943 0033 00       		.byte	0
 944 0034 00       		.byte	0
 945 0035 7D       		.byte	0x7d
 946 0036 0000     		.align 4
 947 0038 00000000 		.long	0
 948              	
 949              	.LLSDATT1136:
 950              		.text
 952              		.section	.text._ZN8UnitTest10CheckEqualI9USBStatusS1_EEvRNS_11TestResultsERKT_RKT0_RKNS_11TestDeta
 953              		.p2align 4,,15
 954              		.weak	_ZN8UnitTest10CheckEqualI9USBStatusS1_EEvRNS_11TestResultsERKT_RKT0_RKNS_11TestDetailsE
 956              	_ZN8UnitTest10CheckEqualI9USBStatusS1_EEvRNS_11TestResultsERKT_RKT0_RKNS_11TestDetailsE:
 957              	.LFB1164:
 958              		.cfi_startproc
 959              		.cfi_personality 0x3,__gxx_personality_v0
 960              		.cfi_lsda 0x3,.LLSDA1164
 961 0000 4156     		pushq	%r14
 962              		.cfi_def_cfa_offset 16
 963              		.cfi_offset 14, -16
 964 0002 4155     		pushq	%r13
 965              		.cfi_def_cfa_offset 24
 966              		.cfi_offset 13, -24
 967 0004 4154     		pushq	%r12
 968              		.cfi_def_cfa_offset 32
 969              		.cfi_offset 12, -32
 970 0006 55       		pushq	%rbp
 971              		.cfi_def_cfa_offset 40
 972              		.cfi_offset 6, -40
 973 0007 4889D5   		movq	%rdx, %rbp
 974 000a 53       		pushq	%rbx
 975              		.cfi_def_cfa_offset 48
 976              		.cfi_offset 3, -48
 977 000b 4889F3   		movq	%rsi, %rbx
 978 000e 4881EC80 		subq	$384, %rsp
 978      010000
 979              		.cfi_def_cfa_offset 432
 980 0015 8B02     		movl	(%rdx), %eax
 981 0017 3906     		cmpl	%eax, (%rsi)
 982 0019 0F84FF01 		je	.L112
 982      0000
 983 001f 4C8D6424 		leaq	112(%rsp), %r12
 983      70
 984 0024 4989FD   		movq	%rdi, %r13
 985 0027 4989CE   		movq	%rcx, %r14
 986 002a 4C89E7   		movq	%r12, %rdi
 987 002d E8000000 		call	_ZNSt8ios_baseC2Ev
 987      00
 988 0032 31F6     		xorl	%esi, %esi
 989 0034 4C89E7   		movq	%r12, %rdi
 990 0037 48C78424 		movq	$0, 328(%rsp)
 990      48010000 
 990      00000000 
 991 0043 C6842450 		movb	$0, 336(%rsp)
 991      01000000 
 992 004b C6842451 		movb	$0, 337(%rsp)
 992      01000000 
 993 0053 48C78424 		movq	$0, 344(%rsp)
 993      58010000 
 993      00000000 
 994 005f 48C78424 		movq	$0, 352(%rsp)
 994      60010000 
 994      00000000 
 995 006b 48C78424 		movq	$0, 360(%rsp)
 995      68010000 
 995      00000000 
 996 0077 48C78424 		movq	$0, 368(%rsp)
 996      70010000 
 996      00000000 
 997 0083 48C74424 		movq	$_ZTCN8UnitTest15MemoryOutStreamE0_So+24, 16(%rsp)
 997      10000000 
 997      00
 998 008c 48C74424 		movq	$_ZTCN8UnitTest15MemoryOutStreamE0_So+64, 112(%rsp)
 998      70000000 
 998      00
 999              	.LEHB8:
 1000 0095 E8000000 		call	_ZNSt9basic_iosIcSt11char_traitsIcEE4initEPSt15basic_streambufIcS1_E
 1000      00
 1001              	.LEHE8:
 1002 009a 488D7C24 		leaq	80(%rsp), %rdi
 1002      50
 1003 009f 48C74424 		movq	$_ZTCN8UnitTest15MemoryOutStreamE0_St19basic_ostringstreamIcSt11char_traitsIcESaIcEE+24, 16(%
 1003      10000000 
 1003      00
 1004 00a8 48C74424 		movq	$_ZTCN8UnitTest15MemoryOutStreamE0_St19basic_ostringstreamIcSt11char_traitsIcESaIcEE+64, 112(
 1004      70000000 
 1004      00
 1005 00b1 48C74424 		movq	$_ZTVSt15basic_streambufIcSt11char_traitsIcEE+16, 24(%rsp)
 1005      18000000 
 1005      00
 1006 00ba 48C74424 		movq	$0, 32(%rsp)
 1006      20000000 
 1006      00
 1007 00c3 48C74424 		movq	$0, 40(%rsp)
 1007      28000000 
 1007      00
 1008 00cc 48C74424 		movq	$0, 48(%rsp)
 1008      30000000 
 1008      00
 1009 00d5 48C74424 		movq	$0, 56(%rsp)
 1009      38000000 
 1009      00
 1010 00de 48C74424 		movq	$0, 64(%rsp)
 1010      40000000 
 1010      00
 1011 00e7 48C74424 		movq	$0, 72(%rsp)
 1011      48000000 
 1011      00
 1012 00f0 E8000000 		call	_ZNSt6localeC1Ev
 1012      00
 1013 00f5 488B4424 		movq	16(%rsp), %rax
 1013      10
 1014 00fa 488D7C24 		leaq	16(%rsp), %rdi
 1014      10
 1015 00ff 488D7424 		leaq	24(%rsp), %rsi
 1015      18
 1016 0104 48C74424 		movq	$_ZTVSt15basic_stringbufIcSt11char_traitsIcESaIcEE+16, 24(%rsp)
 1016      18000000 
 1016      00
 1017 010d C7442458 		movl	$16, 88(%rsp)
 1017      10000000 
 1018 0115 48C74424 		movq	$_ZNSs4_Rep20_S_empty_rep_storageE+24, 96(%rsp)
 1018      60000000 
 1018      00
 1019 011e 480378E8 		addq	-24(%rax), %rdi
 1020              	.LEHB9:
 1021 0122 E8000000 		call	_ZNSt9basic_iosIcSt11char_traitsIcEE4initEPSt15basic_streambufIcS1_E
 1021      00
 1022              	.LEHE9:
 1023 0127 488D7C24 		leaq	16(%rsp), %rdi
 1023      10
 1024 012c BA090000 		movl	$9, %edx
 1024      00
 1025 0131 BE000000 		movl	$.LC0, %esi
 1025      00
 1026 0136 48C74424 		movq	$_ZTVN8UnitTest15MemoryOutStreamE+24, 16(%rsp)
 1026      10000000 
 1026      00
 1027 013f 48C74424 		movq	$_ZTVN8UnitTest15MemoryOutStreamE+64, 112(%rsp)
 1027      70000000 
 1027      00
 1028 0148 48C74424 		movq	$_ZNSs4_Rep20_S_empty_rep_storageE+24, 104(%rsp)
 1028      68000000 
 1028      00
 1029 0151 8B6D00   		movl	0(%rbp), %ebp
 1030 0154 8B1B     		movl	(%rbx), %ebx
 1031              	.LEHB10:
 1032 0156 E8000000 		call	_ZSt16__ostream_insertIcSt11char_traitsIcEERSt13basic_ostreamIT_T0_ES6_PKS3_l
 1032      00
 1033 015b 488D7C24 		leaq	16(%rsp), %rdi
 1033      10
 1034 0160 89DE     		movl	%ebx, %esi
 1035 0162 E8000000 		call	_ZNSolsEi
 1035      00
 1036 0167 BA090000 		movl	$9, %edx
 1036      00
 1037 016c BE000000 		movl	$.LC1, %esi
 1037      00
 1038 0171 4889C7   		movq	%rax, %rdi
 1039 0174 4889C3   		movq	%rax, %rbx
 1040 0177 E8000000 		call	_ZSt16__ostream_insertIcSt11char_traitsIcEERSt13basic_ostreamIT_T0_ES6_PKS3_l
 1040      00
 1041 017c 89EE     		movl	%ebp, %esi
 1042 017e 4889DF   		movq	%rbx, %rdi
 1043 0181 E8000000 		call	_ZNSolsEi
 1043      00
 1044 0186 488D7C24 		leaq	16(%rsp), %rdi
 1044      10
 1045 018b E8000000 		call	_ZNK8UnitTest15MemoryOutStream7GetTextEv
 1045      00
 1046 0190 4889C2   		movq	%rax, %rdx
 1047 0193 4C89F6   		movq	%r14, %rsi
 1048 0196 4C89EF   		movq	%r13, %rdi
 1049 0199 E8000000 		call	_ZN8UnitTest11TestResults13OnTestFailureERKNS_11TestDetailsEPKc
 1049      00
 1050              	.LEHE10:
 1051 019e 488B4424 		movq	104(%rsp), %rax
 1051      68
 1052 01a3 48C74424 		movq	$_ZTVN8UnitTest15MemoryOutStreamE+24, 16(%rsp)
 1052      10000000 
 1052      00
 1053 01ac 48C74424 		movq	$_ZTVN8UnitTest15MemoryOutStreamE+64, 112(%rsp)
 1053      70000000 
 1053      00
 1054 01b5 488D78E8 		leaq	-24(%rax), %rdi
 1055 01b9 4881FF00 		cmpq	$_ZNSs4_Rep20_S_empty_rep_storageE, %rdi
 1055      000000
 1056 01c0 756C     		jne	.L135
 1057              	.L119:
 1058 01c2 488B4424 		movq	96(%rsp), %rax
 1058      60
 1059 01c7 48C74424 		movq	$_ZTCN8UnitTest15MemoryOutStreamE0_St19basic_ostringstreamIcSt11char_traitsIcESaIcEE+24, 16(%
 1059      10000000 
 1059      00
 1060 01d0 48C74424 		movq	$_ZTCN8UnitTest15MemoryOutStreamE0_St19basic_ostringstreamIcSt11char_traitsIcESaIcEE+64, 112(
 1060      70000000 
 1060      00
 1061 01d9 48C74424 		movq	$_ZTVSt15basic_stringbufIcSt11char_traitsIcESaIcEE+16, 24(%rsp)
 1061      18000000 
 1061      00
 1062 01e2 488D78E8 		leaq	-24(%rax), %rdi
 1063 01e6 4881FF00 		cmpq	$_ZNSs4_Rep20_S_empty_rep_storageE, %rdi
 1063      000000
 1064 01ed 756B     		jne	.L136
 1065              	.L124:
 1066 01ef 488D7C24 		leaq	80(%rsp), %rdi
 1066      50
 1067 01f4 48C74424 		movq	$_ZTVSt15basic_streambufIcSt11char_traitsIcEE+16, 24(%rsp)
 1067      18000000 
 1067      00
 1068 01fd E8000000 		call	_ZNSt6localeD1Ev
 1068      00
 1069 0202 488D7C24 		leaq	112(%rsp), %rdi
 1069      70
 1070 0207 48C74424 		movq	$_ZTCN8UnitTest15MemoryOutStreamE0_So+24, 16(%rsp)
 1070      10000000 
 1070      00
 1071 0210 48C74424 		movq	$_ZTVSt9basic_iosIcSt11char_traitsIcEE+16, 112(%rsp)
 1071      70000000 
 1071      00
 1072              	.LEHB11:
 1073 0219 E8000000 		call	_ZNSt8ios_baseD2Ev
 1073      00
 1074              	.LEHE11:
 1075              	.L112:
 1076 021e 4881C480 		addq	$384, %rsp
 1076      010000
 1077              		.cfi_remember_state
 1078              		.cfi_def_cfa_offset 48
 1079 0225 5B       		popq	%rbx
 1080              		.cfi_def_cfa_offset 40
 1081 0226 5D       		popq	%rbp
 1082              		.cfi_def_cfa_offset 32
 1083 0227 415C     		popq	%r12
 1084              		.cfi_def_cfa_offset 24
 1085 0229 415D     		popq	%r13
 1086              		.cfi_def_cfa_offset 16
 1087 022b 415E     		popq	%r14
 1088              		.cfi_def_cfa_offset 8
 1089 022d C3       		ret
 1090              	.L135:
 1091              		.cfi_restore_state
 1092 022e B9000000 		movl	$_ZL28__gthrw___pthread_key_createPjPFvPvE, %ecx
 1092      00
 1093 0233 488D5710 		leaq	16(%rdi), %rdx
 1094 0237 4885C9   		testq	%rcx, %rcx
 1095 023a 747D     		je	.L120
 1096 023c 83C8FF   		orl	$-1, %eax
 1097 023f F00FC102 		lock xaddl	%eax, (%rdx)
 1098              	.L121:
 1099 0243 85C0     		testl	%eax, %eax
 1100 0245 0F8F77FF 		jg	.L119
 1100      FFFF
 1101 024b 488D7424 		leaq	15(%rsp), %rsi
 1101      0F
 1102 0250 E8000000 		call	_ZNSs4_Rep10_M_destroyERKSaIcE
 1102      00
 1103 0255 E968FFFF 		jmp	.L119
 1103      FF
 1104              	.L136:
 1105 025a B9000000 		movl	$_ZL28__gthrw___pthread_key_createPjPFvPvE, %ecx
 1105      00
 1106 025f 488D5710 		leaq	16(%rdi), %rdx
 1107 0263 4885C9   		testq	%rcx, %rcx
 1108 0266 7479     		je	.L125
 1109 0268 83C8FF   		orl	$-1, %eax
 1110 026b F00FC102 		lock xaddl	%eax, (%rdx)
 1111              	.L126:
 1112 026f 85C0     		testl	%eax, %eax
 1113 0271 0F8F78FF 		jg	.L124
 1113      FFFF
 1114 0277 488D7424 		leaq	15(%rsp), %rsi
 1114      0F
 1115 027c E8000000 		call	_ZNSs4_Rep10_M_destroyERKSaIcE
 1115      00
 1116 0281 E969FFFF 		jmp	.L124
 1116      FF
 1117              	.L129:
 1118 0286 488D7C24 		leaq	16(%rsp), %rdi
 1118      10
 1119 028b 4889C3   		movq	%rax, %rbx
 1120 028e E8000000 		call	_ZN8UnitTest15MemoryOutStreamD1Ev
 1120      00
 1121 0293 4889DF   		movq	%rbx, %rdi
 1122              	.LEHB12:
 1123 0296 E8000000 		call	_Unwind_Resume
 1123      00
 1124              	.LEHE12:
 1125              	.L130:
 1126 029b 4889C3   		movq	%rax, %rbx
 1127              	.L116:
 1128 029e 488D7C24 		leaq	112(%rsp), %rdi
 1128      70
 1129 02a3 48C74424 		movq	$_ZTVSt9basic_iosIcSt11char_traitsIcEE+16, 112(%rsp)
 1129      70000000 
 1129      00
 1130 02ac E8000000 		call	_ZNSt8ios_baseD2Ev
 1130      00
 1131 02b1 4889DF   		movq	%rbx, %rdi
 1132              	.LEHB13:
 1133 02b4 E8000000 		call	_Unwind_Resume
 1133      00
 1134              	.LEHE13:
 1135              	.L120:
 1136 02b9 8B50F8   		movl	-8(%rax), %edx
 1137 02bc 8D4AFF   		leal	-1(%rdx), %ecx
 1138 02bf 8948F8   		movl	%ecx, -8(%rax)
 1139 02c2 89D0     		movl	%edx, %eax
 1140 02c4 E97AFFFF 		jmp	.L121
 1140      FF
 1141              	.L131:
 1142 02c9 488D7C24 		leaq	24(%rsp), %rdi
 1142      18
 1143 02ce 4889C3   		movq	%rax, %rbx
 1144 02d1 E8000000 		call	_ZNSt15basic_stringbufIcSt11char_traitsIcESaIcEED1Ev
 1144      00
 1145 02d6 48C74424 		movq	$_ZTCN8UnitTest15MemoryOutStreamE0_So+24, 16(%rsp)
 1145      10000000 
 1145      00
 1146 02df EBBD     		jmp	.L116
 1147              	.L125:
 1148 02e1 8B50F8   		movl	-8(%rax), %edx
 1149 02e4 8D4AFF   		leal	-1(%rdx), %ecx
 1150 02e7 8948F8   		movl	%ecx, -8(%rax)
 1151 02ea 89D0     		movl	%edx, %eax
 1152 02ec EB81     		jmp	.L126
 1153              		.cfi_endproc
 1154              	.LFE1164:
 1155              		.section	.gcc_except_table
 1156              	.LLSDA1164:
 1157 003c FF       		.byte	0xff
 1158 003d FF       		.byte	0xff
 1159 003e 01       		.byte	0x1
 1160 003f 21       		.uleb128 .LLSDACSE1164-.LLSDACSB1164
 1161              	.LLSDACSB1164:
 1162 0040 9501     		.uleb128 .LEHB8-.LFB1164
 1163 0042 05       		.uleb128 .LEHE8-.LEHB8
 1164 0043 9B05     		.uleb128 .L130-.LFB1164
 1165 0045 00       		.uleb128 0
 1166 0046 A202     		.uleb128 .LEHB9-.LFB1164
 1167 0048 05       		.uleb128 .LEHE9-.LEHB9
 1168 0049 C905     		.uleb128 .L131-.LFB1164
 1169 004b 00       		.uleb128 0
 1170 004c D602     		.uleb128 .LEHB10-.LFB1164
 1171 004e 48       		.uleb128 .LEHE10-.LEHB10
 1172 004f 8605     		.uleb128 .L129-.LFB1164
 1173 0051 00       		.uleb128 0
 1174 0052 9904     		.uleb128 .LEHB11-.LFB1164
 1175 0054 05       		.uleb128 .LEHE11-.LEHB11
 1176 0055 00       		.uleb128 0
 1177 0056 00       		.uleb128 0
 1178 0057 9605     		.uleb128 .LEHB12-.LFB1164
 1179 0059 05       		.uleb128 .LEHE12-.LEHB12
 1180 005a 00       		.uleb128 0
 1181 005b 00       		.uleb128 0
 1182 005c B405     		.uleb128 .LEHB13-.LFB1164
 1183 005e 05       		.uleb128 .LEHE13-.LEHB13
 1184 005f 00       		.uleb128 0
 1185 0060 00       		.uleb128 0
 1186              	.LLSDACSE1164:
 1187              		.section	.text._ZN8UnitTest10CheckEqualI9USBStatusS1_EEvRNS_11TestResultsERKT_RKT0_RKNS_11TestDeta
 1189              		.section	.rodata.str1.8
 1190 0033 00000000 		.align 8
 1190      00
 1191              	.LC3:
 1192 0038 556E6861 		.string	"Unhandled exception in CHECK_EQUAL(USB_ALLOC_ERR, status)"
 1192      6E646C65 
 1192      64206578 
 1192      63657074 
 1192      696F6E20 
 1193              		.text
 1194 03e7 90       		.align 2
 1195 03e8 0F1F8400 		.p2align 4,,15
 1195      00000000 
 1196              		.globl	_ZNK22TestQueue_testAllocOOM7RunImplEv
 1198              	_ZNK22TestQueue_testAllocOOM7RunImplEv:
 1199              	.LFB1128:
 1200              		.cfi_startproc
 1201              		.cfi_personality 0x3,__gxx_personality_v0
 1202              		.cfi_lsda 0x3,.LLSDA1128
 1203 03f0 53       		pushq	%rbx
 1204              		.cfi_def_cfa_offset 16
 1205              		.cfi_offset 3, -16
 1206 03f1 B9000000 		movl	$destroyInt, %ecx
 1206      00
 1207 03f6 BA000000 		movl	$createInt, %edx
 1207      00
 1208 03fb BE090000 		movl	$9, %esi
 1208      00
 1209 0400 4883EC70 		subq	$112, %rsp
 1210              		.cfi_def_cfa_offset 128
 1211 0404 C7050000 		movl	$1, _ZL7m_count(%rip)
 1211      00000100 
 1211      0000
 1212 040e 488D7C24 		leaq	48(%rsp), %rdi
 1212      30
 1213              	.LEHB14:
 1214 0413 E8000000 		call	queueInit
 1214      00
 1215              	.LEHE14:
 1216 0418 8944240C 		movl	%eax, 12(%rsp)
 1217              	.LEHB15:
 1218 041c E8000000 		call	_ZN8UnitTest11CurrentTest7DetailsEv
 1218      00
 1219 0421 488D5C24 		leaq	16(%rsp), %rbx
 1219      10
 1220 0426 488B30   		movq	(%rax), %rsi
 1221 0429 BA510100 		movl	$337, %edx
 1221      00
 1222 042e 4889DF   		movq	%rbx, %rdi
 1223 0431 E8000000 		call	_ZN8UnitTest11TestDetailsC1ERKS0_i
 1223      00
 1224 0436 C704240C 		movl	$12, (%rsp)
 1224      000000
 1225 043d E8000000 		call	_ZN8UnitTest11CurrentTest7ResultsEv
 1225      00
 1226 0442 488B38   		movq	(%rax), %rdi
 1227 0445 488D5424 		leaq	12(%rsp), %rdx
 1227      0C
 1228 044a 4889D9   		movq	%rbx, %rcx
 1229 044d 4889E6   		movq	%rsp, %rsi
 1230 0450 E8000000 		call	_ZN8UnitTest10CheckEqualI9USBStatusS1_EEvRNS_11TestResultsERKT_RKT0_RKNS_11TestDetailsE
 1230      00
 1231              	.LEHE15:
 1232              	.L140:
 1233 0455 488D7C24 		leaq	48(%rsp), %rdi
 1233      30
 1234              	.LEHB16:
 1235 045a E8000000 		call	queueDestroy
 1235      00
 1236              	.LEHE16:
 1237 045f 4883C470 		addq	$112, %rsp
 1238              		.cfi_remember_state
 1239              		.cfi_def_cfa_offset 16
 1240 0463 5B       		popq	%rbx
 1241              		.cfi_def_cfa_offset 8
 1242 0464 C3       		ret
 1243              	.L141:
 1244              		.cfi_restore_state
 1245 0465 4889C7   		movq	%rax, %rdi
 1246 0468 E8000000 		call	__cxa_begin_catch
 1246      00
 1247              	.LEHB17:
 1248 046d E8000000 		call	_ZN8UnitTest11CurrentTest7DetailsEv
 1248      00
 1249 0472 488D5C24 		leaq	16(%rsp), %rbx
 1249      10
 1250 0477 488B30   		movq	(%rax), %rsi
 1251 047a BA510100 		movl	$337, %edx
 1251      00
 1252 047f 4889DF   		movq	%rbx, %rdi
 1253 0482 E8000000 		call	_ZN8UnitTest11TestDetailsC1ERKS0_i
 1253      00
 1254 0487 E8000000 		call	_ZN8UnitTest11CurrentTest7ResultsEv
 1254      00
 1255 048c 488B38   		movq	(%rax), %rdi
 1256 048f BA000000 		movl	$.LC3, %edx
 1256      00
 1257 0494 4889DE   		movq	%rbx, %rsi
 1258 0497 E8000000 		call	_ZN8UnitTest11TestResults13OnTestFailureERKNS_11TestDetailsEPKc
 1258      00
 1259              	.LEHE17:
 1260              	.LEHB18:
 1261 049c E8000000 		call	__cxa_end_catch
 1261      00
 1262              	.LEHE18:
 1263 04a1 EBB2     		jmp	.L140
 1264              	.L142:
 1265 04a3 4889C3   		movq	%rax, %rbx
 1266              		.p2align 4,,5
 1267 04a6 E8000000 		call	__cxa_end_catch
 1267      00
 1268 04ab 4889DF   		movq	%rbx, %rdi
 1269              	.LEHB19:
 1270 04ae E8000000 		call	_Unwind_Resume
 1270      00
 1271              	.LEHE19:
 1272              		.cfi_endproc
 1273              	.LFE1128:
 1274              		.section	.gcc_except_table
 1275 0061 000000   		.align 4
 1276              	.LLSDA1128:
 1277 0064 FF       		.byte	0xff
 1278 0065 03       		.byte	0x3
 1279 0066 25       		.uleb128 .LLSDATT1128-.LLSDATTD1128
 1280              	.LLSDATTD1128:
 1281 0067 01       		.byte	0x1
 1282 0068 1B       		.uleb128 .LLSDACSE1128-.LLSDACSB1128
 1283              	.LLSDACSB1128:
 1284 0069 23       		.uleb128 .LEHB14-.LFB1128
 1285 006a 05       		.uleb128 .LEHE14-.LEHB14
 1286 006b 00       		.uleb128 0
 1287 006c 00       		.uleb128 0
 1288 006d 2C       		.uleb128 .LEHB15-.LFB1128
 1289 006e 39       		.uleb128 .LEHE15-.LEHB15
 1290 006f 75       		.uleb128 .L141-.LFB1128
 1291 0070 01       		.uleb128 0x1
 1292 0071 6A       		.uleb128 .LEHB16-.LFB1128
 1293 0072 05       		.uleb128 .LEHE16-.LEHB16
 1294 0073 00       		.uleb128 0
 1295 0074 00       		.uleb128 0
 1296 0075 7D       		.uleb128 .LEHB17-.LFB1128
 1297 0076 2F       		.uleb128 .LEHE17-.LEHB17
 1298 0077 B301     		.uleb128 .L142-.LFB1128
 1299 0079 00       		.uleb128 0
 1300 007a AC01     		.uleb128 .LEHB18-.LFB1128
 1301 007c 05       		.uleb128 .LEHE18-.LEHB18
 1302 007d 00       		.uleb128 0
 1303 007e 00       		.uleb128 0
 1304 007f BE01     		.uleb128 .LEHB19-.LFB1128
 1305 0081 05       		.uleb128 .LEHE19-.LEHB19
 1306 0082 00       		.uleb128 0
 1307 0083 00       		.uleb128 0
 1308              	.LLSDACSE1128:
 1309 0084 01       		.byte	0x1
 1310 0085 00       		.byte	0
 1311 0086 0000     		.align 4
 1312 0088 00000000 		.long	0
 1313              	
 1314              	.LLSDATT1128:
 1315              		.text
 1317              		.section	.rodata.str1.8
 1318 0072 00000000 		.align 8
 1318      0000
 1319              	.LC4:
 1320 0078 556E6861 		.string	"Unhandled exception in CHECK_EQUAL(USB_SUCCESS, status)"
 1320      6E646C65 
 1320      64206578 
 1320      63657074 
 1320      696F6E20 
 1321              		.text
 1322 04b3 90       		.align 2
 1323 04b4 6666662E 		.p2align 4,,15
 1323      0F1F8400 
 1323      00000000 
 1324              		.globl	_ZNK24TestQueue_testReallocOOM7RunImplEv
 1326              	_ZNK24TestQueue_testReallocOOM7RunImplEv:
 1327              	.LFB1132:
 1328              		.cfi_startproc
 1329              		.cfi_personality 0x3,__gxx_personality_v0
 1330              		.cfi_lsda 0x3,.LLSDA1132
 1331 04c0 55       		pushq	%rbp
 1332              		.cfi_def_cfa_offset 16
 1333              		.cfi_offset 6, -16
 1334 04c1 B9000000 		movl	$destroyInt, %ecx
 1334      00
 1335 04c6 BA000000 		movl	$createInt, %edx
 1335      00
 1336 04cb BE080000 		movl	$8, %esi
 1336      00
 1337 04d0 53       		pushq	%rbx
 1338              		.cfi_def_cfa_offset 24
 1339              		.cfi_offset 3, -24
 1340 04d1 4881EC88 		subq	$136, %rsp
 1340      000000
 1341              		.cfi_def_cfa_offset 160
 1342 04d8 C7050000 		movl	$1, _ZL7m_count(%rip)
 1342      00000100 
 1342      0000
 1343 04e2 488D7C24 		leaq	64(%rsp), %rdi
 1343      40
 1344              	.LEHB20:
 1345 04e7 E8000000 		call	queueInit
 1345      00
 1346              	.LEHE20:
 1347 04ec 8944240C 		movl	%eax, 12(%rsp)
 1348              	.LEHB21:
 1349 04f0 E8000000 		call	_ZN8UnitTest11CurrentTest7DetailsEv
 1349      00
 1350 04f5 488D5C24 		leaq	32(%rsp), %rbx
 1350      20
 1351 04fa 488B30   		movq	(%rax), %rsi
 1352 04fd BA5D0100 		movl	$349, %edx
 1352      00
 1353 0502 4889DF   		movq	%rbx, %rdi
 1354 0505 E8000000 		call	_ZN8UnitTest11TestDetailsC1ERKS0_i
 1354      00
 1355 050a C7442410 		movl	$0, 16(%rsp)
 1355      00000000 
 1356 0512 E8000000 		call	_ZN8UnitTest11CurrentTest7ResultsEv
 1356      00
 1357 0517 488D6C24 		leaq	16(%rsp), %rbp
 1357      10
 1358 051c 488B38   		movq	(%rax), %rdi
 1359 051f 488D5424 		leaq	12(%rsp), %rdx
 1359      0C
 1360 0524 4889D9   		movq	%rbx, %rcx
 1361 0527 4889EE   		movq	%rbp, %rsi
 1362 052a E8000000 		call	_ZN8UnitTest10CheckEqualI9USBStatusS1_EEvRNS_11TestResultsERKT_RKT0_RKNS_11TestDetailsE
 1362      00
 1363              	.LEHE21:
 1364              	.L148:
 1365 052f 488D7C24 		leaq	64(%rsp), %rdi
 1365      40
 1366 0534 4889EE   		movq	%rbp, %rsi
 1367              	.LEHB22:
 1368 0537 E8000000 		call	queuePut
 1368      00
 1369              	.LEHE22:
 1370 053c 8944240C 		movl	%eax, 12(%rsp)
 1371              	.LEHB23:
 1372 0540 E8000000 		call	_ZN8UnitTest11CurrentTest7DetailsEv
 1372      00
 1373 0545 488B30   		movq	(%rax), %rsi
 1374 0548 BA610100 		movl	$353, %edx
 1374      00
 1375 054d 4889DF   		movq	%rbx, %rdi
 1376 0550 E8000000 		call	_ZN8UnitTest11TestDetailsC1ERKS0_i
 1376      00
 1377 0555 C7042400 		movl	$0, (%rsp)
 1377      000000
 1378 055c E8000000 		call	_ZN8UnitTest11CurrentTest7ResultsEv
 1378      00
 1379 0561 488B38   		movq	(%rax), %rdi
 1380 0564 488D5424 		leaq	12(%rsp), %rdx
 1380      0C
 1381 0569 4889D9   		movq	%rbx, %rcx
 1382 056c 4889E6   		movq	%rsp, %rsi
 1383 056f E8000000 		call	_ZN8UnitTest10CheckEqualI9USBStatusS1_EEvRNS_11TestResultsERKT_RKT0_RKNS_11TestDetailsE
 1383      00
 1384              	.LEHE23:
 1385              	.L151:
 1386 0574 488D7C24 		leaq	64(%rsp), %rdi
 1386      40
 1387              	.LEHB24:
 1388 0579 E8000000 		call	queueCommitPut
 1388      00
 1389 057e 488D7C24 		leaq	64(%rsp), %rdi
 1389      40
 1390 0583 4889EE   		movq	%rbp, %rsi
 1391 0586 E8000000 		call	queuePut
 1391      00
 1392              	.LEHE24:
 1393 058b 8944240C 		movl	%eax, 12(%rsp)
 1394              	.LEHB25:
 1395 058f E8000000 		call	_ZN8UnitTest11CurrentTest7DetailsEv
 1395      00
 1396 0594 488B30   		movq	(%rax), %rsi
 1397 0597 BA640100 		movl	$356, %edx
 1397      00
 1398 059c 4889DF   		movq	%rbx, %rdi
 1399 059f E8000000 		call	_ZN8UnitTest11TestDetailsC1ERKS0_i
 1399      00
 1400 05a4 C7042400 		movl	$0, (%rsp)
 1400      000000
 1401 05ab E8000000 		call	_ZN8UnitTest11CurrentTest7ResultsEv
 1401      00
 1402 05b0 488B38   		movq	(%rax), %rdi
 1403 05b3 488D5424 		leaq	12(%rsp), %rdx
 1403      0C
 1404 05b8 4889D9   		movq	%rbx, %rcx
 1405 05bb 4889E6   		movq	%rsp, %rsi
 1406 05be E8000000 		call	_ZN8UnitTest10CheckEqualI9USBStatusS1_EEvRNS_11TestResultsERKT_RKT0_RKNS_11TestDetailsE
 1406      00
 1407              	.LEHE25:
 1408              	.L154:
 1409 05c3 488D7C24 		leaq	64(%rsp), %rdi
 1409      40
 1410              	.LEHB26:
 1411 05c8 E8000000 		call	queueCommitPut
 1411      00
 1412 05cd 488D7C24 		leaq	64(%rsp), %rdi
 1412      40
 1413 05d2 4889EE   		movq	%rbp, %rsi
 1414 05d5 E8000000 		call	queuePut
 1414      00
 1415              	.LEHE26:
 1416 05da 8944240C 		movl	%eax, 12(%rsp)
 1417              	.LEHB27:
 1418 05de E8000000 		call	_ZN8UnitTest11CurrentTest7DetailsEv
 1418      00
 1419 05e3 488B30   		movq	(%rax), %rsi
 1420 05e6 BA670100 		movl	$359, %edx
 1420      00
 1421 05eb 4889DF   		movq	%rbx, %rdi
 1422 05ee E8000000 		call	_ZN8UnitTest11TestDetailsC1ERKS0_i
 1422      00
 1423 05f3 C7042400 		movl	$0, (%rsp)
 1423      000000
 1424 05fa E8000000 		call	_ZN8UnitTest11CurrentTest7ResultsEv
 1424      00
 1425 05ff 488B38   		movq	(%rax), %rdi
 1426 0602 488D5424 		leaq	12(%rsp), %rdx
 1426      0C
 1427 0607 4889D9   		movq	%rbx, %rcx
 1428 060a 4889E6   		movq	%rsp, %rsi
 1429 060d E8000000 		call	_ZN8UnitTest10CheckEqualI9USBStatusS1_EEvRNS_11TestResultsERKT_RKT0_RKNS_11TestDetailsE
 1429      00
 1430              	.LEHE27:
 1431              	.L157:
 1432 0612 488D7C24 		leaq	64(%rsp), %rdi
 1432      40
 1433              	.LEHB28:
 1434 0617 E8000000 		call	queueCommitPut
 1434      00
 1435 061c 488D7C24 		leaq	64(%rsp), %rdi
 1435      40
 1436 0621 4889EE   		movq	%rbp, %rsi
 1437 0624 E8000000 		call	queuePut
 1437      00
 1438              	.LEHE28:
 1439 0629 8944240C 		movl	%eax, 12(%rsp)
 1440              	.LEHB29:
 1441 062d E8000000 		call	_ZN8UnitTest11CurrentTest7DetailsEv
 1441      00
 1442 0632 488B30   		movq	(%rax), %rsi
 1443 0635 BA6A0100 		movl	$362, %edx
 1443      00
 1444 063a 4889DF   		movq	%rbx, %rdi
 1445 063d E8000000 		call	_ZN8UnitTest11TestDetailsC1ERKS0_i
 1445      00
 1446 0642 C7042400 		movl	$0, (%rsp)
 1446      000000
 1447 0649 E8000000 		call	_ZN8UnitTest11CurrentTest7ResultsEv
 1447      00
 1448 064e 488B38   		movq	(%rax), %rdi
 1449 0651 488D5424 		leaq	12(%rsp), %rdx
 1449      0C
 1450 0656 4889D9   		movq	%rbx, %rcx
 1451 0659 4889E6   		movq	%rsp, %rsi
 1452 065c E8000000 		call	_ZN8UnitTest10CheckEqualI9USBStatusS1_EEvRNS_11TestResultsERKT_RKT0_RKNS_11TestDetailsE
 1452      00
 1453              	.LEHE29:
 1454              	.L160:
 1455 0661 488D7C24 		leaq	64(%rsp), %rdi
 1455      40
 1456              	.LEHB30:
 1457 0666 E8000000 		call	queueCommitPut
 1457      00
 1458 066b 488D7C24 		leaq	64(%rsp), %rdi
 1458      40
 1459 0670 4889EE   		movq	%rbp, %rsi
 1460 0673 E8000000 		call	queuePut
 1460      00
 1461              	.LEHE30:
 1462 0678 8944240C 		movl	%eax, 12(%rsp)
 1463              	.LEHB31:
 1464 067c E8000000 		call	_ZN8UnitTest11CurrentTest7DetailsEv
 1464      00
 1465 0681 488B30   		movq	(%rax), %rsi
 1466 0684 BA6D0100 		movl	$365, %edx
 1466      00
 1467 0689 4889DF   		movq	%rbx, %rdi
 1468 068c E8000000 		call	_ZN8UnitTest11TestDetailsC1ERKS0_i
 1468      00
 1469 0691 C7042400 		movl	$0, (%rsp)
 1469      000000
 1470 0698 E8000000 		call	_ZN8UnitTest11CurrentTest7ResultsEv
 1470      00
 1471 069d 488B38   		movq	(%rax), %rdi
 1472 06a0 488D5424 		leaq	12(%rsp), %rdx
 1472      0C
 1473 06a5 4889D9   		movq	%rbx, %rcx
 1474 06a8 4889E6   		movq	%rsp, %rsi
 1475 06ab E8000000 		call	_ZN8UnitTest10CheckEqualI9USBStatusS1_EEvRNS_11TestResultsERKT_RKT0_RKNS_11TestDetailsE
 1475      00
 1476              	.LEHE31:
 1477              	.L163:
 1478 06b0 488D7C24 		leaq	64(%rsp), %rdi
 1478      40
 1479              	.LEHB32:
 1480 06b5 E8000000 		call	queueCommitPut
 1480      00
 1481 06ba 488D7C24 		leaq	64(%rsp), %rdi
 1481      40
 1482 06bf 4889EE   		movq	%rbp, %rsi
 1483 06c2 E8000000 		call	queuePut
 1483      00
 1484              	.LEHE32:
 1485 06c7 8944240C 		movl	%eax, 12(%rsp)
 1486              	.LEHB33:
 1487 06cb E8000000 		call	_ZN8UnitTest11CurrentTest7DetailsEv
 1487      00
 1488 06d0 488B30   		movq	(%rax), %rsi
 1489 06d3 BA700100 		movl	$368, %edx
 1489      00
 1490 06d8 4889DF   		movq	%rbx, %rdi
 1491 06db E8000000 		call	_ZN8UnitTest11TestDetailsC1ERKS0_i
 1491      00
 1492 06e0 C7042400 		movl	$0, (%rsp)
 1492      000000
 1493 06e7 E8000000 		call	_ZN8UnitTest11CurrentTest7ResultsEv
 1493      00
 1494 06ec 488B38   		movq	(%rax), %rdi
 1495 06ef 488D5424 		leaq	12(%rsp), %rdx
 1495      0C
 1496 06f4 4889D9   		movq	%rbx, %rcx
 1497 06f7 4889E6   		movq	%rsp, %rsi
 1498 06fa E8000000 		call	_ZN8UnitTest10CheckEqualI9USBStatusS1_EEvRNS_11TestResultsERKT_RKT0_RKNS_11TestDetailsE
 1498      00
 1499              	.LEHE33:
 1500              	.L166:
 1501 06ff 488D7C24 		leaq	64(%rsp), %rdi
 1501      40
 1502              	.LEHB34:
 1503 0704 E8000000 		call	queueCommitPut
 1503      00
 1504 0709 488D7C24 		leaq	64(%rsp), %rdi
 1504      40
 1505 070e 4889EE   		movq	%rbp, %rsi
 1506 0711 E8000000 		call	queuePut
 1506      00
 1507              	.LEHE34:
 1508 0716 8944240C 		movl	%eax, 12(%rsp)
 1509              	.LEHB35:
 1510 071a E8000000 		call	_ZN8UnitTest11CurrentTest7DetailsEv
 1510      00
 1511 071f 488B30   		movq	(%rax), %rsi
 1512 0722 BA730100 		movl	$371, %edx
 1512      00
 1513 0727 4889DF   		movq	%rbx, %rdi
 1514 072a E8000000 		call	_ZN8UnitTest11TestDetailsC1ERKS0_i
 1514      00
 1515 072f C7042400 		movl	$0, (%rsp)
 1515      000000
 1516 0736 E8000000 		call	_ZN8UnitTest11CurrentTest7ResultsEv
 1516      00
 1517 073b 488B38   		movq	(%rax), %rdi
 1518 073e 488D5424 		leaq	12(%rsp), %rdx
 1518      0C
 1519 0743 4889D9   		movq	%rbx, %rcx
 1520 0746 4889E6   		movq	%rsp, %rsi
 1521 0749 E8000000 		call	_ZN8UnitTest10CheckEqualI9USBStatusS1_EEvRNS_11TestResultsERKT_RKT0_RKNS_11TestDetailsE
 1521      00
 1522              	.LEHE35:
 1523              	.L169:
 1524 074e 488D7C24 		leaq	64(%rsp), %rdi
 1524      40
 1525              	.LEHB36:
 1526 0753 E8000000 		call	queueCommitPut
 1526      00
 1527 0758 488D7C24 		leaq	64(%rsp), %rdi
 1527      40
 1528 075d 4889EE   		movq	%rbp, %rsi
 1529 0760 E8000000 		call	queuePut
 1529      00
 1530              	.LEHE36:
 1531 0765 8944240C 		movl	%eax, 12(%rsp)
 1532              	.LEHB37:
 1533 0769 E8000000 		call	_ZN8UnitTest11CurrentTest7DetailsEv
 1533      00
 1534 076e 488B30   		movq	(%rax), %rsi
 1535 0771 BA760100 		movl	$374, %edx
 1535      00
 1536 0776 4889DF   		movq	%rbx, %rdi
 1537 0779 E8000000 		call	_ZN8UnitTest11TestDetailsC1ERKS0_i
 1537      00
 1538 077e C7042400 		movl	$0, (%rsp)
 1538      000000
 1539 0785 E8000000 		call	_ZN8UnitTest11CurrentTest7ResultsEv
 1539      00
 1540 078a 488B38   		movq	(%rax), %rdi
 1541 078d 488D5424 		leaq	12(%rsp), %rdx
 1541      0C
 1542 0792 4889D9   		movq	%rbx, %rcx
 1543 0795 4889E6   		movq	%rsp, %rsi
 1544 0798 E8000000 		call	_ZN8UnitTest10CheckEqualI9USBStatusS1_EEvRNS_11TestResultsERKT_RKT0_RKNS_11TestDetailsE
 1544      00
 1545              	.LEHE37:
 1546              	.L172:
 1547 079d 488D7C24 		leaq	64(%rsp), %rdi
 1547      40
 1548              	.LEHB38:
 1549 07a2 E8000000 		call	queueCommitPut
 1549      00
 1550 07a7 488D7C24 		leaq	64(%rsp), %rdi
 1550      40
 1551 07ac 4889EE   		movq	%rbp, %rsi
 1552 07af E8000000 		call	queuePut
 1552      00
 1553              	.LEHE38:
 1554 07b4 8944240C 		movl	%eax, 12(%rsp)
 1555              	.LEHB39:
 1556 07b8 E8000000 		call	_ZN8UnitTest11CurrentTest7DetailsEv
 1556      00
 1557 07bd 488B30   		movq	(%rax), %rsi
 1558 07c0 BA7B0100 		movl	$379, %edx
 1558      00
 1559 07c5 4889DF   		movq	%rbx, %rdi
 1560 07c8 E8000000 		call	_ZN8UnitTest11TestDetailsC1ERKS0_i
 1560      00
 1561 07cd C704240C 		movl	$12, (%rsp)
 1561      000000
 1562 07d4 E8000000 		call	_ZN8UnitTest11CurrentTest7ResultsEv
 1562      00
 1563 07d9 488B38   		movq	(%rax), %rdi
 1564 07dc 488D5424 		leaq	12(%rsp), %rdx
 1564      0C
 1565 07e1 4889D9   		movq	%rbx, %rcx
 1566 07e4 4889E6   		movq	%rsp, %rsi
 1567 07e7 E8000000 		call	_ZN8UnitTest10CheckEqualI9USBStatusS1_EEvRNS_11TestResultsERKT_RKT0_RKNS_11TestDetailsE
 1567      00
 1568              	.LEHE39:
 1569              	.L175:
 1570 07ec 488D7C24 		leaq	64(%rsp), %rdi
 1570      40
 1571              	.LEHB40:
 1572 07f1 E8000000 		call	queueDestroy
 1572      00
 1573              	.LEHE40:
 1574 07f6 4881C488 		addq	$136, %rsp
 1574      000000
 1575              		.cfi_remember_state
 1576              		.cfi_def_cfa_offset 24
 1577 07fd 5B       		popq	%rbx
 1578              		.cfi_def_cfa_offset 16
 1579 07fe 5D       		popq	%rbp
 1580              		.cfi_def_cfa_offset 8
 1581 07ff C3       		ret
 1582              	.L176:
 1583              		.cfi_restore_state
 1584 0800 4889C7   		movq	%rax, %rdi
 1585 0803 E8000000 		call	__cxa_begin_catch
 1585      00
 1586              	.LEHB41:
 1587 0808 E8000000 		call	_ZN8UnitTest11CurrentTest7DetailsEv
 1587      00
 1588 080d 488D5C24 		leaq	32(%rsp), %rbx
 1588      20
 1589 0812 488B30   		movq	(%rax), %rsi
 1590 0815 BA5D0100 		movl	$349, %edx
 1590      00
 1591 081a 4889DF   		movq	%rbx, %rdi
 1592 081d E8000000 		call	_ZN8UnitTest11TestDetailsC1ERKS0_i
 1592      00
 1593 0822 E8000000 		call	_ZN8UnitTest11CurrentTest7ResultsEv
 1593      00
 1594 0827 488B38   		movq	(%rax), %rdi
 1595 082a BA000000 		movl	$.LC4, %edx
 1595      00
 1596 082f 4889DE   		movq	%rbx, %rsi
 1597 0832 E8000000 		call	_ZN8UnitTest11TestResults13OnTestFailureERKNS_11TestDetailsEPKc
 1597      00
 1598              	.LEHE41:
 1599              	.LEHB42:
 1600 0837 E8000000 		call	__cxa_end_catch
 1600      00
 1601              	.LEHE42:
 1602 083c 488D6C24 		leaq	16(%rsp), %rbp
 1602      10
 1603 0841 E9E9FCFF 		jmp	.L148
 1603      FF
 1604              	.L194:
 1605 0846 4889C7   		movq	%rax, %rdi
 1606 0849 E8000000 		call	__cxa_begin_catch
 1606      00
 1607              	.LEHB43:
 1608 084e E8000000 		call	_ZN8UnitTest11CurrentTest7DetailsEv
 1608      00
 1609 0853 488B30   		movq	(%rax), %rsi
 1610 0856 BA7B0100 		movl	$379, %edx
 1610      00
 1611 085b 4889DF   		movq	%rbx, %rdi
 1612 085e E8000000 		call	_ZN8UnitTest11TestDetailsC1ERKS0_i
 1612      00
 1613 0863 E8000000 		call	_ZN8UnitTest11CurrentTest7ResultsEv
 1613      00
 1614 0868 488B38   		movq	(%rax), %rdi
 1615 086b BA000000 		movl	$.LC3, %edx
 1615      00
 1616 0870 4889DE   		movq	%rbx, %rsi
 1617 0873 E8000000 		call	_ZN8UnitTest11TestResults13OnTestFailureERKNS_11TestDetailsEPKc
 1617      00
 1618              	.LEHE43:
 1619              	.LEHB44:
 1620 0878 E8000000 		call	__cxa_end_catch
 1620      00
 1621              	.LEHE44:
 1622 087d E96AFFFF 		jmp	.L175
 1622      FF
 1623              	.L177:
 1624 0882 4889C3   		movq	%rax, %rbx
 1625              		.p2align 4,,5
 1626 0885 E8000000 		call	__cxa_end_catch
 1626      00
 1627 088a 4889DF   		movq	%rbx, %rdi
 1628              	.LEHB45:
 1629 088d E8000000 		call	_Unwind_Resume
 1629      00
 1630              	.LEHE45:
 1631              	.L195:
 1632 0892 4889C3   		movq	%rax, %rbx
 1633 0895 E8000000 		call	__cxa_end_catch
 1633      00
 1634 089a 4889DF   		movq	%rbx, %rdi
 1635              	.LEHB46:
 1636 089d E8000000 		call	_Unwind_Resume
 1636      00
 1637              	.LEHE46:
 1638              	.L192:
 1639 08a2 4889C7   		movq	%rax, %rdi
 1640 08a5 E8000000 		call	__cxa_begin_catch
 1640      00
 1641              	.LEHB47:
 1642 08aa E8000000 		call	_ZN8UnitTest11CurrentTest7DetailsEv
 1642      00
 1643 08af 488B30   		movq	(%rax), %rsi
 1644 08b2 BA760100 		movl	$374, %edx
 1644      00
 1645 08b7 4889DF   		movq	%rbx, %rdi
 1646 08ba E8000000 		call	_ZN8UnitTest11TestDetailsC1ERKS0_i
 1646      00
 1647 08bf E8000000 		call	_ZN8UnitTest11CurrentTest7ResultsEv
 1647      00
 1648 08c4 488B38   		movq	(%rax), %rdi
 1649 08c7 BA000000 		movl	$.LC4, %edx
 1649      00
 1650 08cc 4889DE   		movq	%rbx, %rsi
 1651 08cf E8000000 		call	_ZN8UnitTest11TestResults13OnTestFailureERKNS_11TestDetailsEPKc
 1651      00
 1652              	.LEHE47:
 1653              	.LEHB48:
 1654 08d4 E8000000 		call	__cxa_end_catch
 1654      00
 1655              	.LEHE48:
 1656 08d9 E9BFFEFF 		jmp	.L172
 1656      FF
 1657              	.L190:
 1658 08de 4889C7   		movq	%rax, %rdi
 1659              		.p2align 4,,5
 1660 08e1 E8000000 		call	__cxa_begin_catch
 1660      00
 1661              		.p2align 4,,5
 1662              	.LEHB49:
 1663 08e6 E8000000 		call	_ZN8UnitTest11CurrentTest7DetailsEv
 1663      00
 1664 08eb 488B30   		movq	(%rax), %rsi
 1665 08ee BA730100 		movl	$371, %edx
 1665      00
 1666 08f3 4889DF   		movq	%rbx, %rdi
 1667 08f6 E8000000 		call	_ZN8UnitTest11TestDetailsC1ERKS0_i
 1667      00
 1668 08fb E8000000 		call	_ZN8UnitTest11CurrentTest7ResultsEv
 1668      00
 1669 0900 488B38   		movq	(%rax), %rdi
 1670 0903 BA000000 		movl	$.LC4, %edx
 1670      00
 1671 0908 4889DE   		movq	%rbx, %rsi
 1672 090b E8000000 		call	_ZN8UnitTest11TestResults13OnTestFailureERKNS_11TestDetailsEPKc
 1672      00
 1673              	.LEHE49:
 1674              	.LEHB50:
 1675 0910 E8000000 		call	__cxa_end_catch
 1675      00
 1676              	.LEHE50:
 1677 0915 E934FEFF 		jmp	.L169
 1677      FF
 1678              	.L193:
 1679 091a 4889C3   		movq	%rax, %rbx
 1680 091d 0F1F00   		.p2align 4,,5
 1681 0920 E8000000 		call	__cxa_end_catch
 1681      00
 1682 0925 4889DF   		movq	%rbx, %rdi
 1683              	.LEHB51:
 1684 0928 E8000000 		call	_Unwind_Resume
 1684      00
 1685              	.LEHE51:
 1686              	.L191:
 1687 092d 4889C3   		movq	%rax, %rbx
 1688 0930 E8000000 		call	__cxa_end_catch
 1688      00
 1689 0935 4889DF   		movq	%rbx, %rdi
 1690              	.LEHB52:
 1691 0938 E8000000 		call	_Unwind_Resume
 1691      00
 1692              	.LEHE52:
 1693              	.L188:
 1694 093d 4889C7   		movq	%rax, %rdi
 1695 0940 E8000000 		call	__cxa_begin_catch
 1695      00
 1696              	.LEHB53:
 1697 0945 E8000000 		call	_ZN8UnitTest11CurrentTest7DetailsEv
 1697      00
 1698 094a 488B30   		movq	(%rax), %rsi
 1699 094d BA700100 		movl	$368, %edx
 1699      00
 1700 0952 4889DF   		movq	%rbx, %rdi
 1701 0955 E8000000 		call	_ZN8UnitTest11TestDetailsC1ERKS0_i
 1701      00
 1702 095a E8000000 		call	_ZN8UnitTest11CurrentTest7ResultsEv
 1702      00
 1703 095f 488B38   		movq	(%rax), %rdi
 1704 0962 BA000000 		movl	$.LC4, %edx
 1704      00
 1705 0967 4889DE   		movq	%rbx, %rsi
 1706 096a E8000000 		call	_ZN8UnitTest11TestResults13OnTestFailureERKNS_11TestDetailsEPKc
 1706      00
 1707              	.LEHE53:
 1708              	.LEHB54:
 1709 096f E8000000 		call	__cxa_end_catch
 1709      00
 1710              	.LEHE54:
 1711 0974 E986FDFF 		jmp	.L166
 1711      FF
 1712              	.L186:
 1713 0979 4889C7   		movq	%rax, %rdi
 1714 097c 0F1F4000 		.p2align 4,,5
 1715 0980 E8000000 		call	__cxa_begin_catch
 1715      00
 1716              		.p2align 4,,5
 1717              	.LEHB55:
 1718 0985 E8000000 		call	_ZN8UnitTest11CurrentTest7DetailsEv
 1718      00
 1719 098a 488B30   		movq	(%rax), %rsi
 1720 098d BA6D0100 		movl	$365, %edx
 1720      00
 1721 0992 4889DF   		movq	%rbx, %rdi
 1722 0995 E8000000 		call	_ZN8UnitTest11TestDetailsC1ERKS0_i
 1722      00
 1723 099a E8000000 		call	_ZN8UnitTest11CurrentTest7ResultsEv
 1723      00
 1724 099f 488B38   		movq	(%rax), %rdi
 1725 09a2 BA000000 		movl	$.LC4, %edx
 1725      00
 1726 09a7 4889DE   		movq	%rbx, %rsi
 1727 09aa E8000000 		call	_ZN8UnitTest11TestResults13OnTestFailureERKNS_11TestDetailsEPKc
 1727      00
 1728              	.LEHE55:
 1729              	.LEHB56:
 1730 09af E8000000 		call	__cxa_end_catch
 1730      00
 1731              	.LEHE56:
 1732 09b4 E9F7FCFF 		jmp	.L163
 1732      FF
 1733              	.L189:
 1734 09b9 4889C3   		movq	%rax, %rbx
 1735 09bc 0F1F4000 		.p2align 4,,5
 1736 09c0 E8000000 		call	__cxa_end_catch
 1736      00
 1737 09c5 4889DF   		movq	%rbx, %rdi
 1738              	.LEHB57:
 1739 09c8 E8000000 		call	_Unwind_Resume
 1739      00
 1740              	.LEHE57:
 1741              	.L187:
 1742 09cd 4889C3   		movq	%rax, %rbx
 1743 09d0 E8000000 		call	__cxa_end_catch
 1743      00
 1744 09d5 4889DF   		movq	%rbx, %rdi
 1745              	.LEHB58:
 1746 09d8 E8000000 		call	_Unwind_Resume
 1746      00
 1747              	.LEHE58:
 1748              	.L184:
 1749 09dd 4889C7   		movq	%rax, %rdi
 1750 09e0 E8000000 		call	__cxa_begin_catch
 1750      00
 1751              	.LEHB59:
 1752 09e5 E8000000 		call	_ZN8UnitTest11CurrentTest7DetailsEv
 1752      00
 1753 09ea 488B30   		movq	(%rax), %rsi
 1754 09ed BA6A0100 		movl	$362, %edx
 1754      00
 1755 09f2 4889DF   		movq	%rbx, %rdi
 1756 09f5 E8000000 		call	_ZN8UnitTest11TestDetailsC1ERKS0_i
 1756      00
 1757 09fa E8000000 		call	_ZN8UnitTest11CurrentTest7ResultsEv
 1757      00
 1758 09ff 488B38   		movq	(%rax), %rdi
 1759 0a02 BA000000 		movl	$.LC4, %edx
 1759      00
 1760 0a07 4889DE   		movq	%rbx, %rsi
 1761 0a0a E8000000 		call	_ZN8UnitTest11TestResults13OnTestFailureERKNS_11TestDetailsEPKc
 1761      00
 1762              	.LEHE59:
 1763              	.LEHB60:
 1764 0a0f E8000000 		call	__cxa_end_catch
 1764      00
 1765              	.LEHE60:
 1766 0a14 E948FCFF 		jmp	.L160
 1766      FF
 1767              	.L182:
 1768 0a19 4889C7   		movq	%rax, %rdi
 1769 0a1c 0F1F4000 		.p2align 4,,5
 1770 0a20 E8000000 		call	__cxa_begin_catch
 1770      00
 1771              		.p2align 4,,5
 1772              	.LEHB61:
 1773 0a25 E8000000 		call	_ZN8UnitTest11CurrentTest7DetailsEv
 1773      00
 1774 0a2a 488B30   		movq	(%rax), %rsi
 1775 0a2d BA670100 		movl	$359, %edx
 1775      00
 1776 0a32 4889DF   		movq	%rbx, %rdi
 1777 0a35 E8000000 		call	_ZN8UnitTest11TestDetailsC1ERKS0_i
 1777      00
 1778 0a3a E8000000 		call	_ZN8UnitTest11CurrentTest7ResultsEv
 1778      00
 1779 0a3f 488B38   		movq	(%rax), %rdi
 1780 0a42 BA000000 		movl	$.LC4, %edx
 1780      00
 1781 0a47 4889DE   		movq	%rbx, %rsi
 1782 0a4a E8000000 		call	_ZN8UnitTest11TestResults13OnTestFailureERKNS_11TestDetailsEPKc
 1782      00
 1783              	.LEHE61:
 1784              	.LEHB62:
 1785 0a4f E8000000 		call	__cxa_end_catch
 1785      00
 1786              	.LEHE62:
 1787 0a54 E9B9FBFF 		jmp	.L157
 1787      FF
 1788              	.L185:
 1789 0a59 4889C3   		movq	%rax, %rbx
 1790 0a5c 0F1F4000 		.p2align 4,,5
 1791 0a60 E8000000 		call	__cxa_end_catch
 1791      00
 1792 0a65 4889DF   		movq	%rbx, %rdi
 1793              	.LEHB63:
 1794 0a68 E8000000 		call	_Unwind_Resume
 1794      00
 1795              	.LEHE63:
 1796              	.L183:
 1797 0a6d 4889C3   		movq	%rax, %rbx
 1798 0a70 E8000000 		call	__cxa_end_catch
 1798      00
 1799 0a75 4889DF   		movq	%rbx, %rdi
 1800              	.LEHB64:
 1801 0a78 E8000000 		call	_Unwind_Resume
 1801      00
 1802              	.LEHE64:
 1803              	.L180:
 1804 0a7d 4889C7   		movq	%rax, %rdi
 1805 0a80 E8000000 		call	__cxa_begin_catch
 1805      00
 1806              	.LEHB65:
 1807 0a85 E8000000 		call	_ZN8UnitTest11CurrentTest7DetailsEv
 1807      00
 1808 0a8a 488B30   		movq	(%rax), %rsi
 1809 0a8d BA640100 		movl	$356, %edx
 1809      00
 1810 0a92 4889DF   		movq	%rbx, %rdi
 1811 0a95 E8000000 		call	_ZN8UnitTest11TestDetailsC1ERKS0_i
 1811      00
 1812 0a9a E8000000 		call	_ZN8UnitTest11CurrentTest7ResultsEv
 1812      00
 1813 0a9f 488B38   		movq	(%rax), %rdi
 1814 0aa2 BA000000 		movl	$.LC4, %edx
 1814      00
 1815 0aa7 4889DE   		movq	%rbx, %rsi
 1816 0aaa E8000000 		call	_ZN8UnitTest11TestResults13OnTestFailureERKNS_11TestDetailsEPKc
 1816      00
 1817              	.LEHE65:
 1818              	.LEHB66:
 1819 0aaf E8000000 		call	__cxa_end_catch
 1819      00
 1820              	.LEHE66:
 1821 0ab4 E90AFBFF 		jmp	.L154
 1821      FF
 1822              	.L178:
 1823 0ab9 4889C7   		movq	%rax, %rdi
 1824 0abc 0F1F4000 		.p2align 4,,5
 1825 0ac0 E8000000 		call	__cxa_begin_catch
 1825      00
 1826              		.p2align 4,,5
 1827              	.LEHB67:
 1828 0ac5 E8000000 		call	_ZN8UnitTest11CurrentTest7DetailsEv
 1828      00
 1829 0aca 488B30   		movq	(%rax), %rsi
 1830 0acd BA610100 		movl	$353, %edx
 1830      00
 1831 0ad2 4889DF   		movq	%rbx, %rdi
 1832 0ad5 E8000000 		call	_ZN8UnitTest11TestDetailsC1ERKS0_i
 1832      00
 1833 0ada E8000000 		call	_ZN8UnitTest11CurrentTest7ResultsEv
 1833      00
 1834 0adf 488B38   		movq	(%rax), %rdi
 1835 0ae2 BA000000 		movl	$.LC4, %edx
 1835      00
 1836 0ae7 4889DE   		movq	%rbx, %rsi
 1837 0aea E8000000 		call	_ZN8UnitTest11TestResults13OnTestFailureERKNS_11TestDetailsEPKc
 1837      00
 1838              	.LEHE67:
 1839              	.LEHB68:
 1840 0aef E8000000 		call	__cxa_end_catch
 1840      00
 1841              	.LEHE68:
 1842 0af4 E97BFAFF 		jmp	.L151
 1842      FF
 1843              	.L181:
 1844 0af9 4889C3   		movq	%rax, %rbx
 1845 0afc 0F1F4000 		.p2align 4,,5
 1846 0b00 E8000000 		call	__cxa_end_catch
 1846      00
 1847 0b05 4889DF   		movq	%rbx, %rdi
 1848              	.LEHB69:
 1849 0b08 E8000000 		call	_Unwind_Resume
 1849      00
 1850              	.LEHE69:
 1851              	.L179:
 1852 0b0d 4889C3   		movq	%rax, %rbx
 1853 0b10 E8000000 		call	__cxa_end_catch
 1853      00
 1854 0b15 4889DF   		movq	%rbx, %rdi
 1855              	.LEHB70:
 1856 0b18 E8000000 		call	_Unwind_Resume
 1856      00
 1857              	.LEHE70:
 1858              		.cfi_endproc
 1859              	.LFE1132:
 1860              		.section	.gcc_except_table
 1861              		.align 4
 1862              	.LLSDA1132:
 1863 008c FF       		.byte	0xff
 1864 008d 03       		.byte	0x3
 1865 008e 9C02     		.uleb128 .LLSDATT1132-.LLSDATTD1132
 1866              	.LLSDATTD1132:
 1867 0090 01       		.byte	0x1
 1868 0091 9002     		.uleb128 .LLSDACSE1132-.LLSDACSB1132
 1869              	.LLSDACSB1132:
 1870 0093 27       		.uleb128 .LEHB20-.LFB1132
 1871 0094 05       		.uleb128 .LEHE20-.LEHB20
 1872 0095 00       		.uleb128 0
 1873 0096 00       		.uleb128 0
 1874 0097 30       		.uleb128 .LEHB21-.LFB1132
 1875 0098 3F       		.uleb128 .LEHE21-.LEHB21
 1876 0099 C006     		.uleb128 .L176-.LFB1132
 1877 009b 01       		.uleb128 0x1
 1878 009c 77       		.uleb128 .LEHB22-.LFB1132
 1879 009d 05       		.uleb128 .LEHE22-.LEHB22
 1880 009e 00       		.uleb128 0
 1881 009f 00       		.uleb128 0
 1882 00a0 8001     		.uleb128 .LEHB23-.LFB1132
 1883 00a2 34       		.uleb128 .LEHE23-.LEHB23
 1884 00a3 F90B     		.uleb128 .L178-.LFB1132
 1885 00a5 01       		.uleb128 0x1
 1886 00a6 B901     		.uleb128 .LEHB24-.LFB1132
 1887 00a8 12       		.uleb128 .LEHE24-.LEHB24
 1888 00a9 00       		.uleb128 0
 1889 00aa 00       		.uleb128 0
 1890 00ab CF01     		.uleb128 .LEHB25-.LFB1132
 1891 00ad 34       		.uleb128 .LEHE25-.LEHB25
 1892 00ae BD0B     		.uleb128 .L180-.LFB1132
 1893 00b0 01       		.uleb128 0x1
 1894 00b1 8802     		.uleb128 .LEHB26-.LFB1132
 1895 00b3 12       		.uleb128 .LEHE26-.LEHB26
 1896 00b4 00       		.uleb128 0
 1897 00b5 00       		.uleb128 0
 1898 00b6 9E02     		.uleb128 .LEHB27-.LFB1132
 1899 00b8 34       		.uleb128 .LEHE27-.LEHB27
 1900 00b9 D90A     		.uleb128 .L182-.LFB1132
 1901 00bb 01       		.uleb128 0x1
 1902 00bc D702     		.uleb128 .LEHB28-.LFB1132
 1903 00be 12       		.uleb128 .LEHE28-.LEHB28
 1904 00bf 00       		.uleb128 0
 1905 00c0 00       		.uleb128 0
 1906 00c1 ED02     		.uleb128 .LEHB29-.LFB1132
 1907 00c3 34       		.uleb128 .LEHE29-.LEHB29
 1908 00c4 9D0A     		.uleb128 .L184-.LFB1132
 1909 00c6 01       		.uleb128 0x1
 1910 00c7 A603     		.uleb128 .LEHB30-.LFB1132
 1911 00c9 12       		.uleb128 .LEHE30-.LEHB30
 1912 00ca 00       		.uleb128 0
 1913 00cb 00       		.uleb128 0
 1914 00cc BC03     		.uleb128 .LEHB31-.LFB1132
 1915 00ce 34       		.uleb128 .LEHE31-.LEHB31
 1916 00cf B909     		.uleb128 .L186-.LFB1132
 1917 00d1 01       		.uleb128 0x1
 1918 00d2 F503     		.uleb128 .LEHB32-.LFB1132
 1919 00d4 12       		.uleb128 .LEHE32-.LEHB32
 1920 00d5 00       		.uleb128 0
 1921 00d6 00       		.uleb128 0
 1922 00d7 8B04     		.uleb128 .LEHB33-.LFB1132
 1923 00d9 34       		.uleb128 .LEHE33-.LEHB33
 1924 00da FD08     		.uleb128 .L188-.LFB1132
 1925 00dc 01       		.uleb128 0x1
 1926 00dd C404     		.uleb128 .LEHB34-.LFB1132
 1927 00df 12       		.uleb128 .LEHE34-.LEHB34
 1928 00e0 00       		.uleb128 0
 1929 00e1 00       		.uleb128 0
 1930 00e2 DA04     		.uleb128 .LEHB35-.LFB1132
 1931 00e4 34       		.uleb128 .LEHE35-.LEHB35
 1932 00e5 9E08     		.uleb128 .L190-.LFB1132
 1933 00e7 01       		.uleb128 0x1
 1934 00e8 9305     		.uleb128 .LEHB36-.LFB1132
 1935 00ea 12       		.uleb128 .LEHE36-.LEHB36
 1936 00eb 00       		.uleb128 0
 1937 00ec 00       		.uleb128 0
 1938 00ed A905     		.uleb128 .LEHB37-.LFB1132
 1939 00ef 34       		.uleb128 .LEHE37-.LEHB37
 1940 00f0 E207     		.uleb128 .L192-.LFB1132
 1941 00f2 01       		.uleb128 0x1
 1942 00f3 E205     		.uleb128 .LEHB38-.LFB1132
 1943 00f5 12       		.uleb128 .LEHE38-.LEHB38
 1944 00f6 00       		.uleb128 0
 1945 00f7 00       		.uleb128 0
 1946 00f8 F805     		.uleb128 .LEHB39-.LFB1132
 1947 00fa 34       		.uleb128 .LEHE39-.LEHB39
 1948 00fb 8607     		.uleb128 .L194-.LFB1132
 1949 00fd 01       		.uleb128 0x1
 1950 00fe B106     		.uleb128 .LEHB40-.LFB1132
 1951 0100 05       		.uleb128 .LEHE40-.LEHB40
 1952 0101 00       		.uleb128 0
 1953 0102 00       		.uleb128 0
 1954 0103 C806     		.uleb128 .LEHB41-.LFB1132
 1955 0105 2F       		.uleb128 .LEHE41-.LEHB41
 1956 0106 C207     		.uleb128 .L177-.LFB1132
 1957 0108 00       		.uleb128 0
 1958 0109 F706     		.uleb128 .LEHB42-.LFB1132
 1959 010b 05       		.uleb128 .LEHE42-.LEHB42
 1960 010c 00       		.uleb128 0
 1961 010d 00       		.uleb128 0
 1962 010e 8E07     		.uleb128 .LEHB43-.LFB1132
 1963 0110 2A       		.uleb128 .LEHE43-.LEHB43
 1964 0111 D207     		.uleb128 .L195-.LFB1132
 1965 0113 00       		.uleb128 0
 1966 0114 B807     		.uleb128 .LEHB44-.LFB1132
 1967 0116 05       		.uleb128 .LEHE44-.LEHB44
 1968 0117 00       		.uleb128 0
 1969 0118 00       		.uleb128 0
 1970 0119 CD07     		.uleb128 .LEHB45-.LFB1132
 1971 011b 05       		.uleb128 .LEHE45-.LEHB45
 1972 011c 00       		.uleb128 0
 1973 011d 00       		.uleb128 0
 1974 011e DD07     		.uleb128 .LEHB46-.LFB1132
 1975 0120 05       		.uleb128 .LEHE46-.LEHB46
 1976 0121 00       		.uleb128 0
 1977 0122 00       		.uleb128 0
 1978 0123 EA07     		.uleb128 .LEHB47-.LFB1132
 1979 0125 2A       		.uleb128 .LEHE47-.LEHB47
 1980 0126 DA08     		.uleb128 .L193-.LFB1132
 1981 0128 00       		.uleb128 0
 1982 0129 9408     		.uleb128 .LEHB48-.LFB1132
 1983 012b 05       		.uleb128 .LEHE48-.LEHB48
 1984 012c 00       		.uleb128 0
 1985 012d 00       		.uleb128 0
 1986 012e A608     		.uleb128 .LEHB49-.LFB1132
 1987 0130 2A       		.uleb128 .LEHE49-.LEHB49
 1988 0131 ED08     		.uleb128 .L191-.LFB1132
 1989 0133 00       		.uleb128 0
 1990 0134 D008     		.uleb128 .LEHB50-.LFB1132
 1991 0136 05       		.uleb128 .LEHE50-.LEHB50
 1992 0137 00       		.uleb128 0
 1993 0138 00       		.uleb128 0
 1994 0139 E808     		.uleb128 .LEHB51-.LFB1132
 1995 013b 05       		.uleb128 .LEHE51-.LEHB51
 1996 013c 00       		.uleb128 0
 1997 013d 00       		.uleb128 0
 1998 013e F808     		.uleb128 .LEHB52-.LFB1132
 1999 0140 05       		.uleb128 .LEHE52-.LEHB52
 2000 0141 00       		.uleb128 0
 2001 0142 00       		.uleb128 0
 2002 0143 8509     		.uleb128 .LEHB53-.LFB1132
 2003 0145 2A       		.uleb128 .LEHE53-.LEHB53
 2004 0146 F909     		.uleb128 .L189-.LFB1132
 2005 0148 00       		.uleb128 0
 2006 0149 AF09     		.uleb128 .LEHB54-.LFB1132
 2007 014b 05       		.uleb128 .LEHE54-.LEHB54
 2008 014c 00       		.uleb128 0
 2009 014d 00       		.uleb128 0
 2010 014e C509     		.uleb128 .LEHB55-.LFB1132
 2011 0150 2A       		.uleb128 .LEHE55-.LEHB55
 2012 0151 8D0A     		.uleb128 .L187-.LFB1132
 2013 0153 00       		.uleb128 0
 2014 0154 EF09     		.uleb128 .LEHB56-.LFB1132
 2015 0156 05       		.uleb128 .LEHE56-.LEHB56
 2016 0157 00       		.uleb128 0
 2017 0158 00       		.uleb128 0
 2018 0159 880A     		.uleb128 .LEHB57-.LFB1132
 2019 015b 05       		.uleb128 .LEHE57-.LEHB57
 2020 015c 00       		.uleb128 0
 2021 015d 00       		.uleb128 0
 2022 015e 980A     		.uleb128 .LEHB58-.LFB1132
 2023 0160 05       		.uleb128 .LEHE58-.LEHB58
 2024 0161 00       		.uleb128 0
 2025 0162 00       		.uleb128 0
 2026 0163 A50A     		.uleb128 .LEHB59-.LFB1132
 2027 0165 2A       		.uleb128 .LEHE59-.LEHB59
 2028 0166 990B     		.uleb128 .L185-.LFB1132
 2029 0168 00       		.uleb128 0
 2030 0169 CF0A     		.uleb128 .LEHB60-.LFB1132
 2031 016b 05       		.uleb128 .LEHE60-.LEHB60
 2032 016c 00       		.uleb128 0
 2033 016d 00       		.uleb128 0
 2034 016e E50A     		.uleb128 .LEHB61-.LFB1132
 2035 0170 2A       		.uleb128 .LEHE61-.LEHB61
 2036 0171 AD0B     		.uleb128 .L183-.LFB1132
 2037 0173 00       		.uleb128 0
 2038 0174 8F0B     		.uleb128 .LEHB62-.LFB1132
 2039 0176 05       		.uleb128 .LEHE62-.LEHB62
 2040 0177 00       		.uleb128 0
 2041 0178 00       		.uleb128 0
 2042 0179 A80B     		.uleb128 .LEHB63-.LFB1132
 2043 017b 05       		.uleb128 .LEHE63-.LEHB63
 2044 017c 00       		.uleb128 0
 2045 017d 00       		.uleb128 0
 2046 017e B80B     		.uleb128 .LEHB64-.LFB1132
 2047 0180 05       		.uleb128 .LEHE64-.LEHB64
 2048 0181 00       		.uleb128 0
 2049 0182 00       		.uleb128 0
 2050 0183 C50B     		.uleb128 .LEHB65-.LFB1132
 2051 0185 2A       		.uleb128 .LEHE65-.LEHB65
 2052 0186 B90C     		.uleb128 .L181-.LFB1132
 2053 0188 00       		.uleb128 0
 2054 0189 EF0B     		.uleb128 .LEHB66-.LFB1132
 2055 018b 05       		.uleb128 .LEHE66-.LEHB66
 2056 018c 00       		.uleb128 0
 2057 018d 00       		.uleb128 0
 2058 018e 850C     		.uleb128 .LEHB67-.LFB1132
 2059 0190 2A       		.uleb128 .LEHE67-.LEHB67
 2060 0191 CD0C     		.uleb128 .L179-.LFB1132
 2061 0193 00       		.uleb128 0
 2062 0194 AF0C     		.uleb128 .LEHB68-.LFB1132
 2063 0196 05       		.uleb128 .LEHE68-.LEHB68
 2064 0197 00       		.uleb128 0
 2065 0198 00       		.uleb128 0
 2066 0199 C80C     		.uleb128 .LEHB69-.LFB1132
 2067 019b 05       		.uleb128 .LEHE69-.LEHB69
 2068 019c 00       		.uleb128 0
 2069 019d 00       		.uleb128 0
 2070 019e D80C     		.uleb128 .LEHB70-.LFB1132
 2071 01a0 05       		.uleb128 .LEHE70-.LEHB70
 2072 01a1 00       		.uleb128 0
 2073 01a2 00       		.uleb128 0
 2074              	.LLSDACSE1132:
 2075 01a3 01       		.byte	0x1
 2076 01a4 00       		.byte	0
 2077 01a5 000000   		.align 4
 2078 01a8 00000000 		.long	0
 2079              	
 2080              	.LLSDATT1132:
 2081              		.text
 2083              		.section	.text._ZN8UnitTest10CheckEqualImmEEvRNS_11TestResultsERKT_RKT0_RKNS_11TestDetailsE,"axG",
 2084              		.p2align 4,,15
 2085              		.weak	_ZN8UnitTest10CheckEqualImmEEvRNS_11TestResultsERKT_RKT0_RKNS_11TestDetailsE
 2087              	_ZN8UnitTest10CheckEqualImmEEvRNS_11TestResultsERKT_RKT0_RKNS_11TestDetailsE:
 2088              	.LFB1169:
 2089              		.cfi_startproc
 2090              		.cfi_personality 0x3,__gxx_personality_v0
 2091              		.cfi_lsda 0x3,.LLSDA1169
 2092 0000 4156     		pushq	%r14
 2093              		.cfi_def_cfa_offset 16
 2094              		.cfi_offset 14, -16
 2095 0002 4155     		pushq	%r13
 2096              		.cfi_def_cfa_offset 24
 2097              		.cfi_offset 13, -24
 2098 0004 4154     		pushq	%r12
 2099              		.cfi_def_cfa_offset 32
 2100              		.cfi_offset 12, -32
 2101 0006 55       		pushq	%rbp
 2102              		.cfi_def_cfa_offset 40
 2103              		.cfi_offset 6, -40
 2104 0007 4889D5   		movq	%rdx, %rbp
 2105 000a 53       		pushq	%rbx
 2106              		.cfi_def_cfa_offset 48
 2107              		.cfi_offset 3, -48
 2108 000b 4889F3   		movq	%rsi, %rbx
 2109 000e 4881EC80 		subq	$384, %rsp
 2109      010000
 2110              		.cfi_def_cfa_offset 432
 2111 0015 488B02   		movq	(%rdx), %rax
 2112 0018 483906   		cmpq	%rax, (%rsi)
 2113 001b 0F840302 		je	.L198
 2113      0000
 2114 0021 4C8D6424 		leaq	112(%rsp), %r12
 2114      70
 2115 0026 4989FD   		movq	%rdi, %r13
 2116 0029 4989CE   		movq	%rcx, %r14
 2117 002c 4C89E7   		movq	%r12, %rdi
 2118 002f E8000000 		call	_ZNSt8ios_baseC2Ev
 2118      00
 2119 0034 31F6     		xorl	%esi, %esi
 2120 0036 4C89E7   		movq	%r12, %rdi
 2121 0039 48C78424 		movq	$0, 328(%rsp)
 2121      48010000 
 2121      00000000 
 2122 0045 C6842450 		movb	$0, 336(%rsp)
 2122      01000000 
 2123 004d C6842451 		movb	$0, 337(%rsp)
 2123      01000000 
 2124 0055 48C78424 		movq	$0, 344(%rsp)
 2124      58010000 
 2124      00000000 
 2125 0061 48C78424 		movq	$0, 352(%rsp)
 2125      60010000 
 2125      00000000 
 2126 006d 48C78424 		movq	$0, 360(%rsp)
 2126      68010000 
 2126      00000000 
 2127 0079 48C78424 		movq	$0, 368(%rsp)
 2127      70010000 
 2127      00000000 
 2128 0085 48C74424 		movq	$_ZTCN8UnitTest15MemoryOutStreamE0_So+24, 16(%rsp)
 2128      10000000 
 2128      00
 2129 008e 48C74424 		movq	$_ZTCN8UnitTest15MemoryOutStreamE0_So+64, 112(%rsp)
 2129      70000000 
 2129      00
 2130              	.LEHB71:
 2131 0097 E8000000 		call	_ZNSt9basic_iosIcSt11char_traitsIcEE4initEPSt15basic_streambufIcS1_E
 2131      00
 2132              	.LEHE71:
 2133 009c 488D7C24 		leaq	80(%rsp), %rdi
 2133      50
 2134 00a1 48C74424 		movq	$_ZTCN8UnitTest15MemoryOutStreamE0_St19basic_ostringstreamIcSt11char_traitsIcESaIcEE+24, 16(%
 2134      10000000 
 2134      00
 2135 00aa 48C74424 		movq	$_ZTCN8UnitTest15MemoryOutStreamE0_St19basic_ostringstreamIcSt11char_traitsIcESaIcEE+64, 112(
 2135      70000000 
 2135      00
 2136 00b3 48C74424 		movq	$_ZTVSt15basic_streambufIcSt11char_traitsIcEE+16, 24(%rsp)
 2136      18000000 
 2136      00
 2137 00bc 48C74424 		movq	$0, 32(%rsp)
 2137      20000000 
 2137      00
 2138 00c5 48C74424 		movq	$0, 40(%rsp)
 2138      28000000 
 2138      00
 2139 00ce 48C74424 		movq	$0, 48(%rsp)
 2139      30000000 
 2139      00
 2140 00d7 48C74424 		movq	$0, 56(%rsp)
 2140      38000000 
 2140      00
 2141 00e0 48C74424 		movq	$0, 64(%rsp)
 2141      40000000 
 2141      00
 2142 00e9 48C74424 		movq	$0, 72(%rsp)
 2142      48000000 
 2142      00
 2143 00f2 E8000000 		call	_ZNSt6localeC1Ev
 2143      00
 2144 00f7 488B4424 		movq	16(%rsp), %rax
 2144      10
 2145 00fc 488D7C24 		leaq	16(%rsp), %rdi
 2145      10
 2146 0101 488D7424 		leaq	24(%rsp), %rsi
 2146      18
 2147 0106 48C74424 		movq	$_ZTVSt15basic_stringbufIcSt11char_traitsIcESaIcEE+16, 24(%rsp)
 2147      18000000 
 2147      00
 2148 010f C7442458 		movl	$16, 88(%rsp)
 2148      10000000 
 2149 0117 48C74424 		movq	$_ZNSs4_Rep20_S_empty_rep_storageE+24, 96(%rsp)
 2149      60000000 
 2149      00
 2150 0120 480378E8 		addq	-24(%rax), %rdi
 2151              	.LEHB72:
 2152 0124 E8000000 		call	_ZNSt9basic_iosIcSt11char_traitsIcEE4initEPSt15basic_streambufIcS1_E
 2152      00
 2153              	.LEHE72:
 2154 0129 488D7C24 		leaq	16(%rsp), %rdi
 2154      10
 2155 012e BA090000 		movl	$9, %edx
 2155      00
 2156 0133 BE000000 		movl	$.LC0, %esi
 2156      00
 2157 0138 48C74424 		movq	$_ZTVN8UnitTest15MemoryOutStreamE+24, 16(%rsp)
 2157      10000000 
 2157      00
 2158 0141 48C74424 		movq	$_ZTVN8UnitTest15MemoryOutStreamE+64, 112(%rsp)
 2158      70000000 
 2158      00
 2159 014a 48C74424 		movq	$_ZNSs4_Rep20_S_empty_rep_storageE+24, 104(%rsp)
 2159      68000000 
 2159      00
 2160 0153 488B6D00 		movq	0(%rbp), %rbp
 2161 0157 488B1B   		movq	(%rbx), %rbx
 2162              	.LEHB73:
 2163 015a E8000000 		call	_ZSt16__ostream_insertIcSt11char_traitsIcEERSt13basic_ostreamIT_T0_ES6_PKS3_l
 2163      00
 2164 015f 488D7C24 		leaq	16(%rsp), %rdi
 2164      10
 2165 0164 4889DE   		movq	%rbx, %rsi
 2166 0167 E8000000 		call	_ZNSo9_M_insertImEERSoT_
 2166      00
 2167 016c BA090000 		movl	$9, %edx
 2167      00
 2168 0171 BE000000 		movl	$.LC1, %esi
 2168      00
 2169 0176 4889C7   		movq	%rax, %rdi
 2170 0179 4889C3   		movq	%rax, %rbx
 2171 017c E8000000 		call	_ZSt16__ostream_insertIcSt11char_traitsIcEERSt13basic_ostreamIT_T0_ES6_PKS3_l
 2171      00
 2172 0181 4889EE   		movq	%rbp, %rsi
 2173 0184 4889DF   		movq	%rbx, %rdi
 2174 0187 E8000000 		call	_ZNSo9_M_insertImEERSoT_
 2174      00
 2175 018c 488D7C24 		leaq	16(%rsp), %rdi
 2175      10
 2176 0191 E8000000 		call	_ZNK8UnitTest15MemoryOutStream7GetTextEv
 2176      00
 2177 0196 4889C2   		movq	%rax, %rdx
 2178 0199 4C89F6   		movq	%r14, %rsi
 2179 019c 4C89EF   		movq	%r13, %rdi
 2180 019f E8000000 		call	_ZN8UnitTest11TestResults13OnTestFailureERKNS_11TestDetailsEPKc
 2180      00
 2181              	.LEHE73:
 2182 01a4 488B4424 		movq	104(%rsp), %rax
 2182      68
 2183 01a9 48C74424 		movq	$_ZTVN8UnitTest15MemoryOutStreamE+24, 16(%rsp)
 2183      10000000 
 2183      00
 2184 01b2 48C74424 		movq	$_ZTVN8UnitTest15MemoryOutStreamE+64, 112(%rsp)
 2184      70000000 
 2184      00
 2185 01bb 488D78E8 		leaq	-24(%rax), %rdi
 2186 01bf 4881FF00 		cmpq	$_ZNSs4_Rep20_S_empty_rep_storageE, %rdi
 2186      000000
 2187 01c6 756C     		jne	.L221
 2188              	.L205:
 2189 01c8 488B4424 		movq	96(%rsp), %rax
 2189      60
 2190 01cd 48C74424 		movq	$_ZTCN8UnitTest15MemoryOutStreamE0_St19basic_ostringstreamIcSt11char_traitsIcESaIcEE+24, 16(%
 2190      10000000 
 2190      00
 2191 01d6 48C74424 		movq	$_ZTCN8UnitTest15MemoryOutStreamE0_St19basic_ostringstreamIcSt11char_traitsIcESaIcEE+64, 112(
 2191      70000000 
 2191      00
 2192 01df 48C74424 		movq	$_ZTVSt15basic_stringbufIcSt11char_traitsIcESaIcEE+16, 24(%rsp)
 2192      18000000 
 2192      00
 2193 01e8 488D78E8 		leaq	-24(%rax), %rdi
 2194 01ec 4881FF00 		cmpq	$_ZNSs4_Rep20_S_empty_rep_storageE, %rdi
 2194      000000
 2195 01f3 756B     		jne	.L222
 2196              	.L210:
 2197 01f5 488D7C24 		leaq	80(%rsp), %rdi
 2197      50
 2198 01fa 48C74424 		movq	$_ZTVSt15basic_streambufIcSt11char_traitsIcEE+16, 24(%rsp)
 2198      18000000 
 2198      00
 2199 0203 E8000000 		call	_ZNSt6localeD1Ev
 2199      00
 2200 0208 488D7C24 		leaq	112(%rsp), %rdi
 2200      70
 2201 020d 48C74424 		movq	$_ZTCN8UnitTest15MemoryOutStreamE0_So+24, 16(%rsp)
 2201      10000000 
 2201      00
 2202 0216 48C74424 		movq	$_ZTVSt9basic_iosIcSt11char_traitsIcEE+16, 112(%rsp)
 2202      70000000 
 2202      00
 2203              	.LEHB74:
 2204 021f E8000000 		call	_ZNSt8ios_baseD2Ev
 2204      00
 2205              	.LEHE74:
 2206              	.L198:
 2207 0224 4881C480 		addq	$384, %rsp
 2207      010000
 2208              		.cfi_remember_state
 2209              		.cfi_def_cfa_offset 48
 2210 022b 5B       		popq	%rbx
 2211              		.cfi_def_cfa_offset 40
 2212 022c 5D       		popq	%rbp
 2213              		.cfi_def_cfa_offset 32
 2214 022d 415C     		popq	%r12
 2215              		.cfi_def_cfa_offset 24
 2216 022f 415D     		popq	%r13
 2217              		.cfi_def_cfa_offset 16
 2218 0231 415E     		popq	%r14
 2219              		.cfi_def_cfa_offset 8
 2220 0233 C3       		ret
 2221              	.L221:
 2222              		.cfi_restore_state
 2223 0234 B9000000 		movl	$_ZL28__gthrw___pthread_key_createPjPFvPvE, %ecx
 2223      00
 2224 0239 488D5710 		leaq	16(%rdi), %rdx
 2225 023d 4885C9   		testq	%rcx, %rcx
 2226 0240 747D     		je	.L206
 2227 0242 83C8FF   		orl	$-1, %eax
 2228 0245 F00FC102 		lock xaddl	%eax, (%rdx)
 2229              	.L207:
 2230 0249 85C0     		testl	%eax, %eax
 2231 024b 0F8F77FF 		jg	.L205
 2231      FFFF
 2232 0251 488D7424 		leaq	15(%rsp), %rsi
 2232      0F
 2233 0256 E8000000 		call	_ZNSs4_Rep10_M_destroyERKSaIcE
 2233      00
 2234 025b E968FFFF 		jmp	.L205
 2234      FF
 2235              	.L222:
 2236 0260 B9000000 		movl	$_ZL28__gthrw___pthread_key_createPjPFvPvE, %ecx
 2236      00
 2237 0265 488D5710 		leaq	16(%rdi), %rdx
 2238 0269 4885C9   		testq	%rcx, %rcx
 2239 026c 7479     		je	.L211
 2240 026e 83C8FF   		orl	$-1, %eax
 2241 0271 F00FC102 		lock xaddl	%eax, (%rdx)
 2242              	.L212:
 2243 0275 85C0     		testl	%eax, %eax
 2244 0277 0F8F78FF 		jg	.L210
 2244      FFFF
 2245 027d 488D7424 		leaq	15(%rsp), %rsi
 2245      0F
 2246 0282 E8000000 		call	_ZNSs4_Rep10_M_destroyERKSaIcE
 2246      00
 2247 0287 E969FFFF 		jmp	.L210
 2247      FF
 2248              	.L215:
 2249 028c 488D7C24 		leaq	16(%rsp), %rdi
 2249      10
 2250 0291 4889C3   		movq	%rax, %rbx
 2251 0294 E8000000 		call	_ZN8UnitTest15MemoryOutStreamD1Ev
 2251      00
 2252 0299 4889DF   		movq	%rbx, %rdi
 2253              	.LEHB75:
 2254 029c E8000000 		call	_Unwind_Resume
 2254      00
 2255              	.LEHE75:
 2256              	.L216:
 2257 02a1 4889C3   		movq	%rax, %rbx
 2258              	.L202:
 2259 02a4 488D7C24 		leaq	112(%rsp), %rdi
 2259      70
 2260 02a9 48C74424 		movq	$_ZTVSt9basic_iosIcSt11char_traitsIcEE+16, 112(%rsp)
 2260      70000000 
 2260      00
 2261 02b2 E8000000 		call	_ZNSt8ios_baseD2Ev
 2261      00
 2262 02b7 4889DF   		movq	%rbx, %rdi
 2263              	.LEHB76:
 2264 02ba E8000000 		call	_Unwind_Resume
 2264      00
 2265              	.LEHE76:
 2266              	.L206:
 2267 02bf 8B50F8   		movl	-8(%rax), %edx
 2268 02c2 8D4AFF   		leal	-1(%rdx), %ecx
 2269 02c5 8948F8   		movl	%ecx, -8(%rax)
 2270 02c8 89D0     		movl	%edx, %eax
 2271 02ca E97AFFFF 		jmp	.L207
 2271      FF
 2272              	.L217:
 2273 02cf 488D7C24 		leaq	24(%rsp), %rdi
 2273      18
 2274 02d4 4889C3   		movq	%rax, %rbx
 2275 02d7 E8000000 		call	_ZNSt15basic_stringbufIcSt11char_traitsIcESaIcEED1Ev
 2275      00
 2276 02dc 48C74424 		movq	$_ZTCN8UnitTest15MemoryOutStreamE0_So+24, 16(%rsp)
 2276      10000000 
 2276      00
 2277 02e5 EBBD     		jmp	.L202
 2278              	.L211:
 2279 02e7 8B50F8   		movl	-8(%rax), %edx
 2280 02ea 8D4AFF   		leal	-1(%rdx), %ecx
 2281 02ed 8948F8   		movl	%ecx, -8(%rax)
 2282 02f0 89D0     		movl	%edx, %eax
 2283 02f2 EB81     		jmp	.L212
 2284              		.cfi_endproc
 2285              	.LFE1169:
 2286              		.section	.gcc_except_table
 2287              	.LLSDA1169:
 2288 01ac FF       		.byte	0xff
 2289 01ad FF       		.byte	0xff
 2290 01ae 01       		.byte	0x1
 2291 01af 21       		.uleb128 .LLSDACSE1169-.LLSDACSB1169
 2292              	.LLSDACSB1169:
 2293 01b0 9701     		.uleb128 .LEHB71-.LFB1169
 2294 01b2 05       		.uleb128 .LEHE71-.LEHB71
 2295 01b3 A105     		.uleb128 .L216-.LFB1169
 2296 01b5 00       		.uleb128 0
 2297 01b6 A402     		.uleb128 .LEHB72-.LFB1169
 2298 01b8 05       		.uleb128 .LEHE72-.LEHB72
 2299 01b9 CF05     		.uleb128 .L217-.LFB1169
 2300 01bb 00       		.uleb128 0
 2301 01bc DA02     		.uleb128 .LEHB73-.LFB1169
 2302 01be 4A       		.uleb128 .LEHE73-.LEHB73
 2303 01bf 8C05     		.uleb128 .L215-.LFB1169
 2304 01c1 00       		.uleb128 0
 2305 01c2 9F04     		.uleb128 .LEHB74-.LFB1169
 2306 01c4 05       		.uleb128 .LEHE74-.LEHB74
 2307 01c5 00       		.uleb128 0
 2308 01c6 00       		.uleb128 0
 2309 01c7 9C05     		.uleb128 .LEHB75-.LFB1169
 2310 01c9 05       		.uleb128 .LEHE75-.LEHB75
 2311 01ca 00       		.uleb128 0
 2312 01cb 00       		.uleb128 0
 2313 01cc BA05     		.uleb128 .LEHB76-.LFB1169
 2314 01ce 05       		.uleb128 .LEHE76-.LEHB76
 2315 01cf 00       		.uleb128 0
 2316 01d0 00       		.uleb128 0
 2317              	.LLSDACSE1169:
 2318              		.section	.text._ZN8UnitTest10CheckEqualImmEEvRNS_11TestResultsERKT_RKT0_RKNS_11TestDetailsE,"axG",
 2320              		.section	.text._ZN8UnitTest10CheckEqualImjEEvRNS_11TestResultsERKT_RKT0_RKNS_11TestDetailsE,"axG",
 2321              		.p2align 4,,15
 2322              		.weak	_ZN8UnitTest10CheckEqualImjEEvRNS_11TestResultsERKT_RKT0_RKNS_11TestDetailsE
 2324              	_ZN8UnitTest10CheckEqualImjEEvRNS_11TestResultsERKT_RKT0_RKNS_11TestDetailsE:
 2325              	.LFB1170:
 2326              		.cfi_startproc
 2327              		.cfi_personality 0x3,__gxx_personality_v0
 2328              		.cfi_lsda 0x3,.LLSDA1170
 2329 0000 4156     		pushq	%r14
 2330              		.cfi_def_cfa_offset 16
 2331              		.cfi_offset 14, -16
 2332 0002 4155     		pushq	%r13
 2333              		.cfi_def_cfa_offset 24
 2334              		.cfi_offset 13, -24
 2335 0004 4154     		pushq	%r12
 2336              		.cfi_def_cfa_offset 32
 2337              		.cfi_offset 12, -32
 2338 0006 55       		pushq	%rbp
 2339              		.cfi_def_cfa_offset 40
 2340              		.cfi_offset 6, -40
 2341 0007 4889D5   		movq	%rdx, %rbp
 2342 000a 53       		pushq	%rbx
 2343              		.cfi_def_cfa_offset 48
 2344              		.cfi_offset 3, -48
 2345 000b 4889F3   		movq	%rsi, %rbx
 2346 000e 4881EC80 		subq	$384, %rsp
 2346      010000
 2347              		.cfi_def_cfa_offset 432
 2348 0015 8B02     		movl	(%rdx), %eax
 2349 0017 483906   		cmpq	%rax, (%rsi)
 2350 001a 0F840102 		je	.L223
 2350      0000
 2351 0020 4C8D7424 		leaq	112(%rsp), %r14
 2351      70
 2352 0025 4989FC   		movq	%rdi, %r12
 2353 0028 4989CD   		movq	%rcx, %r13
 2354 002b 4C89F7   		movq	%r14, %rdi
 2355 002e E8000000 		call	_ZNSt8ios_baseC2Ev
 2355      00
 2356 0033 31F6     		xorl	%esi, %esi
 2357 0035 4C89F7   		movq	%r14, %rdi
 2358 0038 48C78424 		movq	$0, 328(%rsp)
 2358      48010000 
 2358      00000000 
 2359 0044 C6842450 		movb	$0, 336(%rsp)
 2359      01000000 
 2360 004c C6842451 		movb	$0, 337(%rsp)
 2360      01000000 
 2361 0054 48C78424 		movq	$0, 344(%rsp)
 2361      58010000 
 2361      00000000 
 2362 0060 48C78424 		movq	$0, 352(%rsp)
 2362      60010000 
 2362      00000000 
 2363 006c 48C78424 		movq	$0, 360(%rsp)
 2363      68010000 
 2363      00000000 
 2364 0078 48C78424 		movq	$0, 368(%rsp)
 2364      70010000 
 2364      00000000 
 2365 0084 48C74424 		movq	$_ZTCN8UnitTest15MemoryOutStreamE0_So+24, 16(%rsp)
 2365      10000000 
 2365      00
 2366 008d 48C74424 		movq	$_ZTCN8UnitTest15MemoryOutStreamE0_So+64, 112(%rsp)
 2366      70000000 
 2366      00
 2367              	.LEHB77:
 2368 0096 E8000000 		call	_ZNSt9basic_iosIcSt11char_traitsIcEE4initEPSt15basic_streambufIcS1_E
 2368      00
 2369              	.LEHE77:
 2370 009b 488D7C24 		leaq	80(%rsp), %rdi
 2370      50
 2371 00a0 48C74424 		movq	$_ZTCN8UnitTest15MemoryOutStreamE0_St19basic_ostringstreamIcSt11char_traitsIcESaIcEE+24, 16(%
 2371      10000000 
 2371      00
 2372 00a9 48C74424 		movq	$_ZTCN8UnitTest15MemoryOutStreamE0_St19basic_ostringstreamIcSt11char_traitsIcESaIcEE+64, 112(
 2372      70000000 
 2372      00
 2373 00b2 48C74424 		movq	$_ZTVSt15basic_streambufIcSt11char_traitsIcEE+16, 24(%rsp)
 2373      18000000 
 2373      00
 2374 00bb 48C74424 		movq	$0, 32(%rsp)
 2374      20000000 
 2374      00
 2375 00c4 48C74424 		movq	$0, 40(%rsp)
 2375      28000000 
 2375      00
 2376 00cd 48C74424 		movq	$0, 48(%rsp)
 2376      30000000 
 2376      00
 2377 00d6 48C74424 		movq	$0, 56(%rsp)
 2377      38000000 
 2377      00
 2378 00df 48C74424 		movq	$0, 64(%rsp)
 2378      40000000 
 2378      00
 2379 00e8 48C74424 		movq	$0, 72(%rsp)
 2379      48000000 
 2379      00
 2380 00f1 E8000000 		call	_ZNSt6localeC1Ev
 2380      00
 2381 00f6 488B4424 		movq	16(%rsp), %rax
 2381      10
 2382 00fb 488D7C24 		leaq	16(%rsp), %rdi
 2382      10
 2383 0100 488D7424 		leaq	24(%rsp), %rsi
 2383      18
 2384 0105 48C74424 		movq	$_ZTVSt15basic_stringbufIcSt11char_traitsIcESaIcEE+16, 24(%rsp)
 2384      18000000 
 2384      00
 2385 010e C7442458 		movl	$16, 88(%rsp)
 2385      10000000 
 2386 0116 48C74424 		movq	$_ZNSs4_Rep20_S_empty_rep_storageE+24, 96(%rsp)
 2386      60000000 
 2386      00
 2387 011f 480378E8 		addq	-24(%rax), %rdi
 2388              	.LEHB78:
 2389 0123 E8000000 		call	_ZNSt9basic_iosIcSt11char_traitsIcEE4initEPSt15basic_streambufIcS1_E
 2389      00
 2390              	.LEHE78:
 2391 0128 488D7C24 		leaq	16(%rsp), %rdi
 2391      10
 2392 012d BA090000 		movl	$9, %edx
 2392      00
 2393 0132 BE000000 		movl	$.LC0, %esi
 2393      00
 2394 0137 48C74424 		movq	$_ZTVN8UnitTest15MemoryOutStreamE+24, 16(%rsp)
 2394      10000000 
 2394      00
 2395 0140 48C74424 		movq	$_ZTVN8UnitTest15MemoryOutStreamE+64, 112(%rsp)
 2395      70000000 
 2395      00
 2396 0149 48C74424 		movq	$_ZNSs4_Rep20_S_empty_rep_storageE+24, 104(%rsp)
 2396      68000000 
 2396      00
 2397 0152 8B6D00   		movl	0(%rbp), %ebp
 2398 0155 488B1B   		movq	(%rbx), %rbx
 2399              	.LEHB79:
 2400 0158 E8000000 		call	_ZSt16__ostream_insertIcSt11char_traitsIcEERSt13basic_ostreamIT_T0_ES6_PKS3_l
 2400      00
 2401 015d 488D7C24 		leaq	16(%rsp), %rdi
 2401      10
 2402 0162 4889DE   		movq	%rbx, %rsi
 2403 0165 E8000000 		call	_ZNSo9_M_insertImEERSoT_
 2403      00
 2404 016a BA090000 		movl	$9, %edx
 2404      00
 2405 016f BE000000 		movl	$.LC1, %esi
 2405      00
 2406 0174 4889C7   		movq	%rax, %rdi
 2407 0177 4889C3   		movq	%rax, %rbx
 2408 017a E8000000 		call	_ZSt16__ostream_insertIcSt11char_traitsIcEERSt13basic_ostreamIT_T0_ES6_PKS3_l
 2408      00
 2409 017f 89EE     		movl	%ebp, %esi
 2410 0181 4889DF   		movq	%rbx, %rdi
 2411 0184 E8000000 		call	_ZNSo9_M_insertImEERSoT_
 2411      00
 2412 0189 488D7C24 		leaq	16(%rsp), %rdi
 2412      10
 2413 018e E8000000 		call	_ZNK8UnitTest15MemoryOutStream7GetTextEv
 2413      00
 2414 0193 4889C2   		movq	%rax, %rdx
 2415 0196 4C89EE   		movq	%r13, %rsi
 2416 0199 4C89E7   		movq	%r12, %rdi
 2417 019c E8000000 		call	_ZN8UnitTest11TestResults13OnTestFailureERKNS_11TestDetailsEPKc
 2417      00
 2418              	.LEHE79:
 2419 01a1 488B4424 		movq	104(%rsp), %rax
 2419      68
 2420 01a6 48C74424 		movq	$_ZTVN8UnitTest15MemoryOutStreamE+24, 16(%rsp)
 2420      10000000 
 2420      00
 2421 01af 48C74424 		movq	$_ZTVN8UnitTest15MemoryOutStreamE+64, 112(%rsp)
 2421      70000000 
 2421      00
 2422 01b8 488D78E8 		leaq	-24(%rax), %rdi
 2423 01bc 4881FF00 		cmpq	$_ZNSs4_Rep20_S_empty_rep_storageE, %rdi
 2423      000000
 2424 01c3 756C     		jne	.L246
 2425              	.L230:
 2426 01c5 488B4424 		movq	96(%rsp), %rax
 2426      60
 2427 01ca 48C74424 		movq	$_ZTCN8UnitTest15MemoryOutStreamE0_St19basic_ostringstreamIcSt11char_traitsIcESaIcEE+24, 16(%
 2427      10000000 
 2427      00
 2428 01d3 48C74424 		movq	$_ZTCN8UnitTest15MemoryOutStreamE0_St19basic_ostringstreamIcSt11char_traitsIcESaIcEE+64, 112(
 2428      70000000 
 2428      00
 2429 01dc 48C74424 		movq	$_ZTVSt15basic_stringbufIcSt11char_traitsIcESaIcEE+16, 24(%rsp)
 2429      18000000 
 2429      00
 2430 01e5 488D78E8 		leaq	-24(%rax), %rdi
 2431 01e9 4881FF00 		cmpq	$_ZNSs4_Rep20_S_empty_rep_storageE, %rdi
 2431      000000
 2432 01f0 756B     		jne	.L247
 2433              	.L235:
 2434 01f2 488D7C24 		leaq	80(%rsp), %rdi
 2434      50
 2435 01f7 48C74424 		movq	$_ZTVSt15basic_streambufIcSt11char_traitsIcEE+16, 24(%rsp)
 2435      18000000 
 2435      00
 2436 0200 E8000000 		call	_ZNSt6localeD1Ev
 2436      00
 2437 0205 488D7C24 		leaq	112(%rsp), %rdi
 2437      70
 2438 020a 48C74424 		movq	$_ZTCN8UnitTest15MemoryOutStreamE0_So+24, 16(%rsp)
 2438      10000000 
 2438      00
 2439 0213 48C74424 		movq	$_ZTVSt9basic_iosIcSt11char_traitsIcEE+16, 112(%rsp)
 2439      70000000 
 2439      00
 2440              	.LEHB80:
 2441 021c E8000000 		call	_ZNSt8ios_baseD2Ev
 2441      00
 2442              	.LEHE80:
 2443              	.L223:
 2444 0221 4881C480 		addq	$384, %rsp
 2444      010000
 2445              		.cfi_remember_state
 2446              		.cfi_def_cfa_offset 48
 2447 0228 5B       		popq	%rbx
 2448              		.cfi_def_cfa_offset 40
 2449 0229 5D       		popq	%rbp
 2450              		.cfi_def_cfa_offset 32
 2451 022a 415C     		popq	%r12
 2452              		.cfi_def_cfa_offset 24
 2453 022c 415D     		popq	%r13
 2454              		.cfi_def_cfa_offset 16
 2455 022e 415E     		popq	%r14
 2456              		.cfi_def_cfa_offset 8
 2457 0230 C3       		ret
 2458              	.L246:
 2459              		.cfi_restore_state
 2460 0231 B9000000 		movl	$_ZL28__gthrw___pthread_key_createPjPFvPvE, %ecx
 2460      00
 2461 0236 488D5710 		leaq	16(%rdi), %rdx
 2462 023a 4885C9   		testq	%rcx, %rcx
 2463 023d 747D     		je	.L231
 2464 023f 83C8FF   		orl	$-1, %eax
 2465 0242 F00FC102 		lock xaddl	%eax, (%rdx)
 2466              	.L232:
 2467 0246 85C0     		testl	%eax, %eax
 2468 0248 0F8F77FF 		jg	.L230
 2468      FFFF
 2469 024e 488D7424 		leaq	15(%rsp), %rsi
 2469      0F
 2470 0253 E8000000 		call	_ZNSs4_Rep10_M_destroyERKSaIcE
 2470      00
 2471 0258 E968FFFF 		jmp	.L230
 2471      FF
 2472              	.L247:
 2473 025d B9000000 		movl	$_ZL28__gthrw___pthread_key_createPjPFvPvE, %ecx
 2473      00
 2474 0262 488D5710 		leaq	16(%rdi), %rdx
 2475 0266 4885C9   		testq	%rcx, %rcx
 2476 0269 7479     		je	.L236
 2477 026b 83C8FF   		orl	$-1, %eax
 2478 026e F00FC102 		lock xaddl	%eax, (%rdx)
 2479              	.L237:
 2480 0272 85C0     		testl	%eax, %eax
 2481 0274 0F8F78FF 		jg	.L235
 2481      FFFF
 2482 027a 488D7424 		leaq	15(%rsp), %rsi
 2482      0F
 2483 027f E8000000 		call	_ZNSs4_Rep10_M_destroyERKSaIcE
 2483      00
 2484 0284 E969FFFF 		jmp	.L235
 2484      FF
 2485              	.L240:
 2486 0289 488D7C24 		leaq	16(%rsp), %rdi
 2486      10
 2487 028e 4889C3   		movq	%rax, %rbx
 2488 0291 E8000000 		call	_ZN8UnitTest15MemoryOutStreamD1Ev
 2488      00
 2489 0296 4889DF   		movq	%rbx, %rdi
 2490              	.LEHB81:
 2491 0299 E8000000 		call	_Unwind_Resume
 2491      00
 2492              	.LEHE81:
 2493              	.L241:
 2494 029e 4889C3   		movq	%rax, %rbx
 2495              	.L227:
 2496 02a1 488D7C24 		leaq	112(%rsp), %rdi
 2496      70
 2497 02a6 48C74424 		movq	$_ZTVSt9basic_iosIcSt11char_traitsIcEE+16, 112(%rsp)
 2497      70000000 
 2497      00
 2498 02af E8000000 		call	_ZNSt8ios_baseD2Ev
 2498      00
 2499 02b4 4889DF   		movq	%rbx, %rdi
 2500              	.LEHB82:
 2501 02b7 E8000000 		call	_Unwind_Resume
 2501      00
 2502              	.LEHE82:
 2503              	.L231:
 2504 02bc 8B50F8   		movl	-8(%rax), %edx
 2505 02bf 8D4AFF   		leal	-1(%rdx), %ecx
 2506 02c2 8948F8   		movl	%ecx, -8(%rax)
 2507 02c5 89D0     		movl	%edx, %eax
 2508 02c7 E97AFFFF 		jmp	.L232
 2508      FF
 2509              	.L242:
 2510 02cc 488D7C24 		leaq	24(%rsp), %rdi
 2510      18
 2511 02d1 4889C3   		movq	%rax, %rbx
 2512 02d4 E8000000 		call	_ZNSt15basic_stringbufIcSt11char_traitsIcESaIcEED1Ev
 2512      00
 2513 02d9 48C74424 		movq	$_ZTCN8UnitTest15MemoryOutStreamE0_So+24, 16(%rsp)
 2513      10000000 
 2513      00
 2514 02e2 EBBD     		jmp	.L227
 2515              	.L236:
 2516 02e4 8B50F8   		movl	-8(%rax), %edx
 2517 02e7 8D4AFF   		leal	-1(%rdx), %ecx
 2518 02ea 8948F8   		movl	%ecx, -8(%rax)
 2519 02ed 89D0     		movl	%edx, %eax
 2520 02ef EB81     		jmp	.L237
 2521              		.cfi_endproc
 2522              	.LFE1170:
 2523              		.section	.gcc_except_table
 2524              	.LLSDA1170:
 2525 01d1 FF       		.byte	0xff
 2526 01d2 FF       		.byte	0xff
 2527 01d3 01       		.byte	0x1
 2528 01d4 21       		.uleb128 .LLSDACSE1170-.LLSDACSB1170
 2529              	.LLSDACSB1170:
 2530 01d5 9601     		.uleb128 .LEHB77-.LFB1170
 2531 01d7 05       		.uleb128 .LEHE77-.LEHB77
 2532 01d8 9E05     		.uleb128 .L241-.LFB1170
 2533 01da 00       		.uleb128 0
 2534 01db A302     		.uleb128 .LEHB78-.LFB1170
 2535 01dd 05       		.uleb128 .LEHE78-.LEHB78
 2536 01de CC05     		.uleb128 .L242-.LFB1170
 2537 01e0 00       		.uleb128 0
 2538 01e1 D802     		.uleb128 .LEHB79-.LFB1170
 2539 01e3 49       		.uleb128 .LEHE79-.LEHB79
 2540 01e4 8905     		.uleb128 .L240-.LFB1170
 2541 01e6 00       		.uleb128 0
 2542 01e7 9C04     		.uleb128 .LEHB80-.LFB1170
 2543 01e9 05       		.uleb128 .LEHE80-.LEHB80
 2544 01ea 00       		.uleb128 0
 2545 01eb 00       		.uleb128 0
 2546 01ec 9905     		.uleb128 .LEHB81-.LFB1170
 2547 01ee 05       		.uleb128 .LEHE81-.LEHB81
 2548 01ef 00       		.uleb128 0
 2549 01f0 00       		.uleb128 0
 2550 01f1 B705     		.uleb128 .LEHB82-.LFB1170
 2551 01f3 05       		.uleb128 .LEHE82-.LEHB82
 2552 01f4 00       		.uleb128 0
 2553 01f5 00       		.uleb128 0
 2554              	.LLSDACSE1170:
 2555              		.section	.text._ZN8UnitTest10CheckEqualImjEEvRNS_11TestResultsERKT_RKT0_RKNS_11TestDetailsE,"axG",
 2557              		.section	.rodata.str1.8
 2558              		.align 8
 2559              	.LC5:
 2560 00b0 556E6861 		.string	"Unhandled exception in CHECK_EQUAL(4UL, queue.capacity)"
 2560      6E646C65 
 2560      64206578 
 2560      63657074 
 2560      696F6E20 
 2561              		.align 8
 2562              	.LC6:
 2563 00e8 556E6861 		.string	"Unhandled exception in CHECK_EQUAL(0UL, queue.putIndex)"
 2563      6E646C65 
 2563      64206578 
 2563      63657074 
 2563      696F6E20 
 2564              		.align 8
 2565              	.LC7:
 2566 0120 556E6861 		.string	"Unhandled exception in CHECK_EQUAL(0UL, queue.takeIndex)"
 2566      6E646C65 
 2566      64206578 
 2566      63657074 
 2566      696F6E20 
 2567 0159 00000000 		.align 8
 2567      000000
 2568              	.LC8:
 2569 0160 556E6861 		.string	"Unhandled exception in CHECK_EQUAL(0UL, queue.numItems)"
 2569      6E646C65 
 2569      64206578 
 2569      63657074 
 2569      696F6E20 
 2570              		.align 8
 2571              	.LC9:
 2572 0198 556E6861 		.string	"Unhandled exception in CHECK_EQUAL(1UL, deref(queue.itemArray[0]))"
 2572      6E646C65 
 2572      64206578 
 2572      63657074 
 2572      696F6E20 
 2573 01db 00000000 		.align 8
 2573      00
 2574              	.LC10:
 2575 01e0 556E6861 		.string	"Unhandled exception in CHECK_EQUAL(2UL, deref(queue.itemArray[1]))"
 2575      6E646C65 
 2575      64206578 
 2575      63657074 
 2575      696F6E20 
 2576 0223 00000000 		.align 8
 2576      00
 2577              	.LC11:
 2578 0228 556E6861 		.string	"Unhandled exception in CHECK_EQUAL(3UL, deref(queue.itemArray[2]))"
 2578      6E646C65 
 2578      64206578 
 2578      63657074 
 2578      696F6E20 
 2579 026b 00000000 		.align 8
 2579      00
 2580              	.LC12:
 2581 0270 556E6861 		.string	"Unhandled exception in CHECK_EQUAL(4UL, deref(queue.itemArray[3]))"
 2581      6E646C65 
 2581      64206578 
 2581      63657074 
 2581      696F6E20 
 2582              		.text
 2583 0b1d 90       		.align 2
 2584 0b1e 6690     		.p2align 4,,15
 2585              		.globl	_ZNK18TestQueue_testInit7RunImplEv
 2587              	_ZNK18TestQueue_testInit7RunImplEv:
 2588              	.LFB1107:
 2589              		.cfi_startproc
 2590              		.cfi_personality 0x3,__gxx_personality_v0
 2591              		.cfi_lsda 0x3,.LLSDA1107
 2592 0b20 53       		pushq	%rbx
 2593              		.cfi_def_cfa_offset 16
 2594              		.cfi_offset 3, -16
 2595 0b21 B9000000 		movl	$destroyInt, %ecx
 2595      00
 2596 0b26 BA000000 		movl	$createInt, %edx
 2596      00
 2597 0b2b BE040000 		movl	$4, %esi
 2597      00
 2598 0b30 4883C480 		addq	$-128, %rsp
 2599              		.cfi_def_cfa_offset 144
 2600 0b34 C7050000 		movl	$1, _ZL7m_count(%rip)
 2600      00000100 
 2600      0000
 2601 0b3e 488D7C24 		leaq	64(%rsp), %rdi
 2601      40
 2602              	.LEHB83:
 2603 0b43 E8000000 		call	queueInit
 2603      00
 2604              	.LEHE83:
 2605 0b48 8944240C 		movl	%eax, 12(%rsp)
 2606              	.LEHB84:
 2607 0b4c E8000000 		call	_ZN8UnitTest11CurrentTest7DetailsEv
 2607      00
 2608 0b51 488D5C24 		leaq	32(%rsp), %rbx
 2608      20
 2609 0b56 488B30   		movq	(%rax), %rsi
 2610 0b59 BA3B0000 		movl	$59, %edx
 2610      00
 2611 0b5e 4889DF   		movq	%rbx, %rdi
 2612 0b61 E8000000 		call	_ZN8UnitTest11TestDetailsC1ERKS0_i
 2612      00
 2613 0b66 C7442410 		movl	$0, 16(%rsp)
 2613      00000000 
 2614 0b6e E8000000 		call	_ZN8UnitTest11CurrentTest7ResultsEv
 2614      00
 2615 0b73 488B38   		movq	(%rax), %rdi
 2616 0b76 488D5424 		leaq	12(%rsp), %rdx
 2616      0C
 2617 0b7b 488D7424 		leaq	16(%rsp), %rsi
 2617      10
 2618 0b80 4889D9   		movq	%rbx, %rcx
 2619 0b83 E8000000 		call	_ZN8UnitTest10CheckEqualI9USBStatusS1_EEvRNS_11TestResultsERKT_RKT0_RKNS_11TestDetailsE
 2619      00
 2620              	.LEHE84:
 2621              	.L251:
 2622              	.LEHB85:
 2623 0b88 E8000000 		call	_ZN8UnitTest11CurrentTest7DetailsEv
 2623      00
 2624 0b8d 488B30   		movq	(%rax), %rsi
 2625 0b90 BA3E0000 		movl	$62, %edx
 2625      00
 2626 0b95 4889DF   		movq	%rbx, %rdi
 2627 0b98 E8000000 		call	_ZN8UnitTest11TestDetailsC1ERKS0_i
 2627      00
 2628 0b9d 48C74424 		movq	$4, 16(%rsp)
 2628      10040000 
 2628      00
 2629 0ba6 E8000000 		call	_ZN8UnitTest11CurrentTest7ResultsEv
 2629      00
 2630 0bab 488B38   		movq	(%rax), %rdi
 2631 0bae 488D5424 		leaq	72(%rsp), %rdx
 2631      48
 2632 0bb3 488D7424 		leaq	16(%rsp), %rsi
 2632      10
 2633 0bb8 4889D9   		movq	%rbx, %rcx
 2634 0bbb E8000000 		call	_ZN8UnitTest10CheckEqualImmEEvRNS_11TestResultsERKT_RKT0_RKNS_11TestDetailsE
 2634      00
 2635              	.LEHE85:
 2636              	.L254:
 2637              	.LEHB86:
 2638 0bc0 E8000000 		call	_ZN8UnitTest11CurrentTest7DetailsEv
 2638      00
 2639 0bc5 488B30   		movq	(%rax), %rsi
 2640 0bc8 BA3F0000 		movl	$63, %edx
 2640      00
 2641 0bcd 4889DF   		movq	%rbx, %rdi
 2642 0bd0 E8000000 		call	_ZN8UnitTest11TestDetailsC1ERKS0_i
 2642      00
 2643 0bd5 48C74424 		movq	$0, 16(%rsp)
 2643      10000000 
 2643      00
 2644 0bde E8000000 		call	_ZN8UnitTest11CurrentTest7ResultsEv
 2644      00
 2645 0be3 488B38   		movq	(%rax), %rdi
 2646 0be6 488D5424 		leaq	80(%rsp), %rdx
 2646      50
 2647 0beb 488D7424 		leaq	16(%rsp), %rsi
 2647      10
 2648 0bf0 4889D9   		movq	%rbx, %rcx
 2649 0bf3 E8000000 		call	_ZN8UnitTest10CheckEqualImmEEvRNS_11TestResultsERKT_RKT0_RKNS_11TestDetailsE
 2649      00
 2650              	.LEHE86:
 2651              	.L257:
 2652              	.LEHB87:
 2653 0bf8 E8000000 		call	_ZN8UnitTest11CurrentTest7DetailsEv
 2653      00
 2654 0bfd 488B30   		movq	(%rax), %rsi
 2655 0c00 BA400000 		movl	$64, %edx
 2655      00
 2656 0c05 4889DF   		movq	%rbx, %rdi
 2657 0c08 E8000000 		call	_ZN8UnitTest11TestDetailsC1ERKS0_i
 2657      00
 2658 0c0d 48C74424 		movq	$0, 16(%rsp)
 2658      10000000 
 2658      00
 2659 0c16 E8000000 		call	_ZN8UnitTest11CurrentTest7ResultsEv
 2659      00
 2660 0c1b 488B38   		movq	(%rax), %rdi
 2661 0c1e 488D5424 		leaq	88(%rsp), %rdx
 2661      58
 2662 0c23 488D7424 		leaq	16(%rsp), %rsi
 2662      10
 2663 0c28 4889D9   		movq	%rbx, %rcx
 2664 0c2b E8000000 		call	_ZN8UnitTest10CheckEqualImmEEvRNS_11TestResultsERKT_RKT0_RKNS_11TestDetailsE
 2664      00
 2665              	.LEHE87:
 2666              	.L260:
 2667              	.LEHB88:
 2668 0c30 E8000000 		call	_ZN8UnitTest11CurrentTest7DetailsEv
 2668      00
 2669 0c35 488B30   		movq	(%rax), %rsi
 2670 0c38 BA410000 		movl	$65, %edx
 2670      00
 2671 0c3d 4889DF   		movq	%rbx, %rdi
 2672 0c40 E8000000 		call	_ZN8UnitTest11TestDetailsC1ERKS0_i
 2672      00
 2673 0c45 48C74424 		movq	$0, 16(%rsp)
 2673      10000000 
 2673      00
 2674 0c4e E8000000 		call	_ZN8UnitTest11CurrentTest7ResultsEv
 2674      00
 2675 0c53 488B38   		movq	(%rax), %rdi
 2676 0c56 488D5424 		leaq	96(%rsp), %rdx
 2676      60
 2677 0c5b 488D7424 		leaq	16(%rsp), %rsi
 2677      10
 2678 0c60 4889D9   		movq	%rbx, %rcx
 2679 0c63 E8000000 		call	_ZN8UnitTest10CheckEqualImmEEvRNS_11TestResultsERKT_RKT0_RKNS_11TestDetailsE
 2679      00
 2680              	.LEHE88:
 2681              	.L263:
 2682              	.LEHB89:
 2683 0c68 E8000000 		call	_ZN8UnitTest11CurrentTest7DetailsEv
 2683      00
 2684 0c6d 488B30   		movq	(%rax), %rsi
 2685 0c70 BA440000 		movl	$68, %edx
 2685      00
 2686 0c75 4889DF   		movq	%rbx, %rdi
 2687 0c78 E8000000 		call	_ZN8UnitTest11TestDetailsC1ERKS0_i
 2687      00
 2688 0c7d 488B4424 		movq	64(%rsp), %rax
 2688      40
 2689 0c82 488B00   		movq	(%rax), %rax
 2690 0c85 8B00     		movl	(%rax), %eax
 2691 0c87 48C74424 		movq	$1, 16(%rsp)
 2691      10010000 
 2691      00
 2692 0c90 890424   		movl	%eax, (%rsp)
 2693 0c93 E8000000 		call	_ZN8UnitTest11CurrentTest7ResultsEv
 2693      00
 2694 0c98 488B38   		movq	(%rax), %rdi
 2695 0c9b 488D7424 		leaq	16(%rsp), %rsi
 2695      10
 2696 0ca0 4889D9   		movq	%rbx, %rcx
 2697 0ca3 4889E2   		movq	%rsp, %rdx
 2698 0ca6 E8000000 		call	_ZN8UnitTest10CheckEqualImjEEvRNS_11TestResultsERKT_RKT0_RKNS_11TestDetailsE
 2698      00
 2699              	.LEHE89:
 2700              	.L266:
 2701              	.LEHB90:
 2702 0cab E8000000 		call	_ZN8UnitTest11CurrentTest7DetailsEv
 2702      00
 2703 0cb0 488B30   		movq	(%rax), %rsi
 2704 0cb3 BA450000 		movl	$69, %edx
 2704      00
 2705 0cb8 4889DF   		movq	%rbx, %rdi
 2706 0cbb E8000000 		call	_ZN8UnitTest11TestDetailsC1ERKS0_i
 2706      00
 2707 0cc0 488B4424 		movq	64(%rsp), %rax
 2707      40
 2708 0cc5 488B4008 		movq	8(%rax), %rax
 2709 0cc9 8B00     		movl	(%rax), %eax
 2710 0ccb 48C74424 		movq	$2, 16(%rsp)
 2710      10020000 
 2710      00
 2711 0cd4 890424   		movl	%eax, (%rsp)
 2712 0cd7 E8000000 		call	_ZN8UnitTest11CurrentTest7ResultsEv
 2712      00
 2713 0cdc 488B38   		movq	(%rax), %rdi
 2714 0cdf 488D7424 		leaq	16(%rsp), %rsi
 2714      10
 2715 0ce4 4889D9   		movq	%rbx, %rcx
 2716 0ce7 4889E2   		movq	%rsp, %rdx
 2717 0cea E8000000 		call	_ZN8UnitTest10CheckEqualImjEEvRNS_11TestResultsERKT_RKT0_RKNS_11TestDetailsE
 2717      00
 2718              	.LEHE90:
 2719              	.L269:
 2720              	.LEHB91:
 2721 0cef E8000000 		call	_ZN8UnitTest11CurrentTest7DetailsEv
 2721      00
 2722 0cf4 488B30   		movq	(%rax), %rsi
 2723 0cf7 BA460000 		movl	$70, %edx
 2723      00
 2724 0cfc 4889DF   		movq	%rbx, %rdi
 2725 0cff E8000000 		call	_ZN8UnitTest11TestDetailsC1ERKS0_i
 2725      00
 2726 0d04 488B4424 		movq	64(%rsp), %rax
 2726      40
 2727 0d09 488B4010 		movq	16(%rax), %rax
 2728 0d0d 8B00     		movl	(%rax), %eax
 2729 0d0f 48C74424 		movq	$3, 16(%rsp)
 2729      10030000 
 2729      00
 2730 0d18 890424   		movl	%eax, (%rsp)
 2731 0d1b E8000000 		call	_ZN8UnitTest11CurrentTest7ResultsEv
 2731      00
 2732 0d20 488B38   		movq	(%rax), %rdi
 2733 0d23 488D7424 		leaq	16(%rsp), %rsi
 2733      10
 2734 0d28 4889D9   		movq	%rbx, %rcx
 2735 0d2b 4889E2   		movq	%rsp, %rdx
 2736 0d2e E8000000 		call	_ZN8UnitTest10CheckEqualImjEEvRNS_11TestResultsERKT_RKT0_RKNS_11TestDetailsE
 2736      00
 2737              	.LEHE91:
 2738              	.L272:
 2739              	.LEHB92:
 2740 0d33 E8000000 		call	_ZN8UnitTest11CurrentTest7DetailsEv
 2740      00
 2741 0d38 488B30   		movq	(%rax), %rsi
 2742 0d3b BA470000 		movl	$71, %edx
 2742      00
 2743 0d40 4889DF   		movq	%rbx, %rdi
 2744 0d43 E8000000 		call	_ZN8UnitTest11TestDetailsC1ERKS0_i
 2744      00
 2745 0d48 488B4424 		movq	64(%rsp), %rax
 2745      40
 2746 0d4d 488B4018 		movq	24(%rax), %rax
 2747 0d51 8B00     		movl	(%rax), %eax
 2748 0d53 48C74424 		movq	$4, 16(%rsp)
 2748      10040000 
 2748      00
 2749 0d5c 890424   		movl	%eax, (%rsp)
 2750 0d5f E8000000 		call	_ZN8UnitTest11CurrentTest7ResultsEv
 2750      00
 2751 0d64 488B38   		movq	(%rax), %rdi
 2752 0d67 488D7424 		leaq	16(%rsp), %rsi
 2752      10
 2753 0d6c 4889D9   		movq	%rbx, %rcx
 2754 0d6f 4889E2   		movq	%rsp, %rdx
 2755 0d72 E8000000 		call	_ZN8UnitTest10CheckEqualImjEEvRNS_11TestResultsERKT_RKT0_RKNS_11TestDetailsE
 2755      00
 2756              	.LEHE92:
 2757              	.L275:
 2758 0d77 488D7C24 		leaq	64(%rsp), %rdi
 2758      40
 2759              	.LEHB93:
 2760 0d7c E8000000 		call	queueDestroy
 2760      00
 2761              	.LEHE93:
 2762 0d81 4883EC80 		subq	$-128, %rsp
 2763              		.cfi_remember_state
 2764              		.cfi_def_cfa_offset 16
 2765 0d85 5B       		popq	%rbx
 2766              		.cfi_def_cfa_offset 8
 2767 0d86 C3       		ret
 2768              	.L276:
 2769              		.cfi_restore_state
 2770 0d87 4889C7   		movq	%rax, %rdi
 2771 0d8a E8000000 		call	__cxa_begin_catch
 2771      00
 2772              	.LEHB94:
 2773 0d8f E8000000 		call	_ZN8UnitTest11CurrentTest7DetailsEv
 2773      00
 2774 0d94 488D5C24 		leaq	32(%rsp), %rbx
 2774      20
 2775 0d99 488B30   		movq	(%rax), %rsi
 2776 0d9c BA3B0000 		movl	$59, %edx
 2776      00
 2777 0da1 4889DF   		movq	%rbx, %rdi
 2778 0da4 E8000000 		call	_ZN8UnitTest11TestDetailsC1ERKS0_i
 2778      00
 2779 0da9 E8000000 		call	_ZN8UnitTest11CurrentTest7ResultsEv
 2779      00
 2780 0dae 488B38   		movq	(%rax), %rdi
 2781 0db1 BA000000 		movl	$.LC4, %edx
 2781      00
 2782 0db6 4889DE   		movq	%rbx, %rsi
 2783 0db9 E8000000 		call	_ZN8UnitTest11TestResults13OnTestFailureERKNS_11TestDetailsEPKc
 2783      00
 2784              	.LEHE94:
 2785              	.LEHB95:
 2786 0dbe E8000000 		call	__cxa_end_catch
 2786      00
 2787              	.LEHE95:
 2788 0dc3 E9C0FDFF 		jmp	.L251
 2788      FF
 2789              	.L292:
 2790 0dc8 4889C7   		movq	%rax, %rdi
 2791 0dcb 0F1F4400 		.p2align 4,,5
 2791      00
 2792 0dd0 E8000000 		call	__cxa_begin_catch
 2792      00
 2793              		.p2align 4,,5
 2794              	.LEHB96:
 2795 0dd5 E8000000 		call	_ZN8UnitTest11CurrentTest7DetailsEv
 2795      00
 2796 0dda 488B30   		movq	(%rax), %rsi
 2797 0ddd BA470000 		movl	$71, %edx
 2797      00
 2798 0de2 4889DF   		movq	%rbx, %rdi
 2799 0de5 E8000000 		call	_ZN8UnitTest11TestDetailsC1ERKS0_i
 2799      00
 2800 0dea E8000000 		call	_ZN8UnitTest11CurrentTest7ResultsEv
 2800      00
 2801 0def 488B38   		movq	(%rax), %rdi
 2802 0df2 BA000000 		movl	$.LC12, %edx
 2802      00
 2803 0df7 4889DE   		movq	%rbx, %rsi
 2804 0dfa E8000000 		call	_ZN8UnitTest11TestResults13OnTestFailureERKNS_11TestDetailsEPKc
 2804      00
 2805              	.LEHE96:
 2806              	.LEHB97:
 2807 0dff E8000000 		call	__cxa_end_catch
 2807      00
 2808              	.LEHE97:
 2809 0e04 E96EFFFF 		jmp	.L275
 2809      FF
 2810              	.L284:
 2811 0e09 4889C7   		movq	%rax, %rdi
 2812 0e0c 0F1F4000 		.p2align 4,,5
 2813 0e10 E8000000 		call	__cxa_begin_catch
 2813      00
 2814              		.p2align 4,,5
 2815              	.LEHB98:
 2816 0e15 E8000000 		call	_ZN8UnitTest11CurrentTest7DetailsEv
 2816      00
 2817 0e1a 488B30   		movq	(%rax), %rsi
 2818 0e1d BA410000 		movl	$65, %edx
 2818      00
 2819 0e22 4889DF   		movq	%rbx, %rdi
 2820 0e25 E8000000 		call	_ZN8UnitTest11TestDetailsC1ERKS0_i
 2820      00
 2821 0e2a E8000000 		call	_ZN8UnitTest11CurrentTest7ResultsEv
 2821      00
 2822 0e2f 488B38   		movq	(%rax), %rdi
 2823 0e32 BA000000 		movl	$.LC8, %edx
 2823      00
 2824 0e37 4889DE   		movq	%rbx, %rsi
 2825 0e3a E8000000 		call	_ZN8UnitTest11TestResults13OnTestFailureERKNS_11TestDetailsEPKc
 2825      00
 2826              	.LEHE98:
 2827              	.LEHB99:
 2828 0e3f E8000000 		call	__cxa_end_catch
 2828      00
 2829              	.LEHE99:
 2830 0e44 E91FFEFF 		jmp	.L263
 2830      FF
 2831              	.L288:
 2832 0e49 4889C7   		movq	%rax, %rdi
 2833 0e4c 0F1F4000 		.p2align 4,,5
 2834 0e50 E8000000 		call	__cxa_begin_catch
 2834      00
 2835              		.p2align 4,,5
 2836              	.LEHB100:
 2837 0e55 E8000000 		call	_ZN8UnitTest11CurrentTest7DetailsEv
 2837      00
 2838 0e5a 488B30   		movq	(%rax), %rsi
 2839 0e5d BA450000 		movl	$69, %edx
 2839      00
 2840 0e62 4889DF   		movq	%rbx, %rdi
 2841 0e65 E8000000 		call	_ZN8UnitTest11TestDetailsC1ERKS0_i
 2841      00
 2842 0e6a E8000000 		call	_ZN8UnitTest11CurrentTest7ResultsEv
 2842      00
 2843 0e6f 488B38   		movq	(%rax), %rdi
 2844 0e72 BA000000 		movl	$.LC10, %edx
 2844      00
 2845 0e77 4889DE   		movq	%rbx, %rsi
 2846 0e7a E8000000 		call	_ZN8UnitTest11TestResults13OnTestFailureERKNS_11TestDetailsEPKc
 2846      00
 2847              	.LEHE100:
 2848              	.LEHB101:
 2849 0e7f E8000000 		call	__cxa_end_catch
 2849      00
 2850              	.LEHE101:
 2851 0e84 E966FEFF 		jmp	.L269
 2851      FF
 2852              	.L280:
 2853 0e89 4889C7   		movq	%rax, %rdi
 2854 0e8c 0F1F4000 		.p2align 4,,5
 2855 0e90 E8000000 		call	__cxa_begin_catch
 2855      00
 2856              		.p2align 4,,5
 2857              	.LEHB102:
 2858 0e95 E8000000 		call	_ZN8UnitTest11CurrentTest7DetailsEv
 2858      00
 2859 0e9a 488B30   		movq	(%rax), %rsi
 2860 0e9d BA3F0000 		movl	$63, %edx
 2860      00
 2861 0ea2 4889DF   		movq	%rbx, %rdi
 2862 0ea5 E8000000 		call	_ZN8UnitTest11TestDetailsC1ERKS0_i
 2862      00
 2863 0eaa E8000000 		call	_ZN8UnitTest11CurrentTest7ResultsEv
 2863      00
 2864 0eaf 488B38   		movq	(%rax), %rdi
 2865 0eb2 BA000000 		movl	$.LC6, %edx
 2865      00
 2866 0eb7 4889DE   		movq	%rbx, %rsi
 2867 0eba E8000000 		call	_ZN8UnitTest11TestResults13OnTestFailureERKNS_11TestDetailsEPKc
 2867      00
 2868              	.LEHE102:
 2869              	.LEHB103:
 2870 0ebf E8000000 		call	__cxa_end_catch
 2870      00
 2871              	.LEHE103:
 2872 0ec4 E92FFDFF 		jmp	.L257
 2872      FF
 2873              	.L290:
 2874 0ec9 4889C7   		movq	%rax, %rdi
 2875 0ecc 0F1F4000 		.p2align 4,,5
 2876 0ed0 E8000000 		call	__cxa_begin_catch
 2876      00
 2877              		.p2align 4,,5
 2878              	.LEHB104:
 2879 0ed5 E8000000 		call	_ZN8UnitTest11CurrentTest7DetailsEv
 2879      00
 2880 0eda 488B30   		movq	(%rax), %rsi
 2881 0edd BA460000 		movl	$70, %edx
 2881      00
 2882 0ee2 4889DF   		movq	%rbx, %rdi
 2883 0ee5 E8000000 		call	_ZN8UnitTest11TestDetailsC1ERKS0_i
 2883      00
 2884 0eea E8000000 		call	_ZN8UnitTest11CurrentTest7ResultsEv
 2884      00
 2885 0eef 488B38   		movq	(%rax), %rdi
 2886 0ef2 BA000000 		movl	$.LC11, %edx
 2886      00
 2887 0ef7 4889DE   		movq	%rbx, %rsi
 2888 0efa E8000000 		call	_ZN8UnitTest11TestResults13OnTestFailureERKNS_11TestDetailsEPKc
 2888      00
 2889              	.LEHE104:
 2890              	.LEHB105:
 2891 0eff E8000000 		call	__cxa_end_catch
 2891      00
 2892              	.LEHE105:
 2893 0f04 E92AFEFF 		jmp	.L272
 2893      FF
 2894              	.L282:
 2895 0f09 4889C7   		movq	%rax, %rdi
 2896 0f0c 0F1F4000 		.p2align 4,,5
 2897 0f10 E8000000 		call	__cxa_begin_catch
 2897      00
 2898              		.p2align 4,,5
 2899              	.LEHB106:
 2900 0f15 E8000000 		call	_ZN8UnitTest11CurrentTest7DetailsEv
 2900      00
 2901 0f1a 488B30   		movq	(%rax), %rsi
 2902 0f1d BA400000 		movl	$64, %edx
 2902      00
 2903 0f22 4889DF   		movq	%rbx, %rdi
 2904 0f25 E8000000 		call	_ZN8UnitTest11TestDetailsC1ERKS0_i
 2904      00
 2905 0f2a E8000000 		call	_ZN8UnitTest11CurrentTest7ResultsEv
 2905      00
 2906 0f2f 488B38   		movq	(%rax), %rdi
 2907 0f32 BA000000 		movl	$.LC7, %edx
 2907      00
 2908 0f37 4889DE   		movq	%rbx, %rsi
 2909 0f3a E8000000 		call	_ZN8UnitTest11TestResults13OnTestFailureERKNS_11TestDetailsEPKc
 2909      00
 2910              	.LEHE106:
 2911              	.LEHB107:
 2912 0f3f E8000000 		call	__cxa_end_catch
 2912      00
 2913              	.LEHE107:
 2914 0f44 E9E7FCFF 		jmp	.L260
 2914      FF
 2915              	.L286:
 2916 0f49 4889C7   		movq	%rax, %rdi
 2917 0f4c 0F1F4000 		.p2align 4,,5
 2918 0f50 E8000000 		call	__cxa_begin_catch
 2918      00
 2919              		.p2align 4,,5
 2920              	.LEHB108:
 2921 0f55 E8000000 		call	_ZN8UnitTest11CurrentTest7DetailsEv
 2921      00
 2922 0f5a 488B30   		movq	(%rax), %rsi
 2923 0f5d BA440000 		movl	$68, %edx
 2923      00
 2924 0f62 4889DF   		movq	%rbx, %rdi
 2925 0f65 E8000000 		call	_ZN8UnitTest11TestDetailsC1ERKS0_i
 2925      00
 2926 0f6a E8000000 		call	_ZN8UnitTest11CurrentTest7ResultsEv
 2926      00
 2927 0f6f 488B38   		movq	(%rax), %rdi
 2928 0f72 BA000000 		movl	$.LC9, %edx
 2928      00
 2929 0f77 4889DE   		movq	%rbx, %rsi
 2930 0f7a E8000000 		call	_ZN8UnitTest11TestResults13OnTestFailureERKNS_11TestDetailsEPKc
 2930      00
 2931              	.LEHE108:
 2932              	.LEHB109:
 2933 0f7f E8000000 		call	__cxa_end_catch
 2933      00
 2934              	.LEHE109:
 2935 0f84 E922FDFF 		jmp	.L266
 2935      FF
 2936              	.L278:
 2937 0f89 4889C7   		movq	%rax, %rdi
 2938 0f8c 0F1F4000 		.p2align 4,,5
 2939 0f90 E8000000 		call	__cxa_begin_catch
 2939      00
 2940              		.p2align 4,,5
 2941              	.LEHB110:
 2942 0f95 E8000000 		call	_ZN8UnitTest11CurrentTest7DetailsEv
 2942      00
 2943 0f9a 488B30   		movq	(%rax), %rsi
 2944 0f9d BA3E0000 		movl	$62, %edx
 2944      00
 2945 0fa2 4889DF   		movq	%rbx, %rdi
 2946 0fa5 E8000000 		call	_ZN8UnitTest11TestDetailsC1ERKS0_i
 2946      00
 2947 0faa E8000000 		call	_ZN8UnitTest11CurrentTest7ResultsEv
 2947      00
 2948 0faf 488B38   		movq	(%rax), %rdi
 2949 0fb2 BA000000 		movl	$.LC5, %edx
 2949      00
 2950 0fb7 4889DE   		movq	%rbx, %rsi
 2951 0fba E8000000 		call	_ZN8UnitTest11TestResults13OnTestFailureERKNS_11TestDetailsEPKc
 2951      00
 2952              	.LEHE110:
 2953              	.LEHB111:
 2954 0fbf E8000000 		call	__cxa_end_catch
 2954      00
 2955              	.LEHE111:
 2956 0fc4 E9F7FBFF 		jmp	.L254
 2956      FF
 2957              	.L277:
 2958 0fc9 4889C3   		movq	%rax, %rbx
 2959 0fcc 0F1F4000 		.p2align 4,,5
 2960 0fd0 E8000000 		call	__cxa_end_catch
 2960      00
 2961 0fd5 4889DF   		movq	%rbx, %rdi
 2962              	.LEHB112:
 2963 0fd8 E8000000 		call	_Unwind_Resume
 2963      00
 2964              	.LEHE112:
 2965              	.L293:
 2966 0fdd 4889C3   		movq	%rax, %rbx
 2967 0fe0 E8000000 		call	__cxa_end_catch
 2967      00
 2968 0fe5 4889DF   		movq	%rbx, %rdi
 2969              	.LEHB113:
 2970 0fe8 E8000000 		call	_Unwind_Resume
 2970      00
 2971              	.LEHE113:
 2972              	.L291:
 2973 0fed 4889C3   		movq	%rax, %rbx
 2974 0ff0 E8000000 		call	__cxa_end_catch
 2974      00
 2975 0ff5 4889DF   		movq	%rbx, %rdi
 2976              	.LEHB114:
 2977 0ff8 E8000000 		call	_Unwind_Resume
 2977      00
 2978              	.LEHE114:
 2979              	.L289:
 2980 0ffd 4889C3   		movq	%rax, %rbx
 2981 1000 E8000000 		call	__cxa_end_catch
 2981      00
 2982 1005 4889DF   		movq	%rbx, %rdi
 2983              	.LEHB115:
 2984 1008 E8000000 		call	_Unwind_Resume
 2984      00
 2985              	.LEHE115:
 2986              	.L287:
 2987 100d 4889C3   		movq	%rax, %rbx
 2988 1010 E8000000 		call	__cxa_end_catch
 2988      00
 2989 1015 4889DF   		movq	%rbx, %rdi
 2990              	.LEHB116:
 2991 1018 E8000000 		call	_Unwind_Resume
 2991      00
 2992              	.LEHE116:
 2993              	.L285:
 2994 101d 4889C3   		movq	%rax, %rbx
 2995 1020 E8000000 		call	__cxa_end_catch
 2995      00
 2996 1025 4889DF   		movq	%rbx, %rdi
 2997              	.LEHB117:
 2998 1028 E8000000 		call	_Unwind_Resume
 2998      00
 2999              	.LEHE117:
 3000              	.L283:
 3001 102d 4889C3   		movq	%rax, %rbx
 3002 1030 E8000000 		call	__cxa_end_catch
 3002      00
 3003 1035 4889DF   		movq	%rbx, %rdi
 3004              	.LEHB118:
 3005 1038 E8000000 		call	_Unwind_Resume
 3005      00
 3006              	.LEHE118:
 3007              	.L281:
 3008 103d 4889C3   		movq	%rax, %rbx
 3009 1040 E8000000 		call	__cxa_end_catch
 3009      00
 3010 1045 4889DF   		movq	%rbx, %rdi
 3011              	.LEHB119:
 3012 1048 E8000000 		call	_Unwind_Resume
 3012      00
 3013              	.LEHE119:
 3014              	.L279:
 3015 104d 4889C3   		movq	%rax, %rbx
 3016 1050 E8000000 		call	__cxa_end_catch
 3016      00
 3017 1055 4889DF   		movq	%rbx, %rdi
 3018              	.LEHB120:
 3019 1058 E8000000 		call	_Unwind_Resume
 3019      00
 3020              	.LEHE120:
 3021              		.cfi_endproc
 3022              	.LFE1107:
 3023              		.section	.gcc_except_table
 3024 01f6 0000     		.align 4
 3025              	.LLSDA1107:
 3026 01f8 FF       		.byte	0xff
 3027 01f9 03       		.byte	0x3
 3028 01fa D801     		.uleb128 .LLSDATT1107-.LLSDATTD1107
 3029              	.LLSDATTD1107:
 3030 01fc 01       		.byte	0x1
 3031 01fd CD01     		.uleb128 .LLSDACSE1107-.LLSDACSB1107
 3032              	.LLSDACSB1107:
 3033 01ff 23       		.uleb128 .LEHB83-.LFB1107
 3034 0200 05       		.uleb128 .LEHE83-.LEHB83
 3035 0201 00       		.uleb128 0
 3036 0202 00       		.uleb128 0
 3037 0203 2C       		.uleb128 .LEHB84-.LFB1107
 3038 0204 3C       		.uleb128 .LEHE84-.LEHB84
 3039 0205 E704     		.uleb128 .L276-.LFB1107
 3040 0207 01       		.uleb128 0x1
 3041 0208 68       		.uleb128 .LEHB85-.LFB1107
 3042 0209 38       		.uleb128 .LEHE85-.LEHB85
 3043 020a E908     		.uleb128 .L278-.LFB1107
 3044 020c 01       		.uleb128 0x1
 3045 020d A001     		.uleb128 .LEHB86-.LFB1107
 3046 020f 38       		.uleb128 .LEHE86-.LEHB86
 3047 0210 E906     		.uleb128 .L280-.LFB1107
 3048 0212 01       		.uleb128 0x1
 3049 0213 D801     		.uleb128 .LEHB87-.LFB1107
 3050 0215 38       		.uleb128 .LEHE87-.LEHB87
 3051 0216 E907     		.uleb128 .L282-.LFB1107
 3052 0218 01       		.uleb128 0x1
 3053 0219 9002     		.uleb128 .LEHB88-.LFB1107
 3054 021b 38       		.uleb128 .LEHE88-.LEHB88
 3055 021c E905     		.uleb128 .L284-.LFB1107
 3056 021e 01       		.uleb128 0x1
 3057 021f C802     		.uleb128 .LEHB89-.LFB1107
 3058 0221 43       		.uleb128 .LEHE89-.LEHB89
 3059 0222 A908     		.uleb128 .L286-.LFB1107
 3060 0224 01       		.uleb128 0x1
 3061 0225 8B03     		.uleb128 .LEHB90-.LFB1107
 3062 0227 44       		.uleb128 .LEHE90-.LEHB90
 3063 0228 A906     		.uleb128 .L288-.LFB1107
 3064 022a 01       		.uleb128 0x1
 3065 022b CF03     		.uleb128 .LEHB91-.LFB1107
 3066 022d 44       		.uleb128 .LEHE91-.LEHB91
 3067 022e A907     		.uleb128 .L290-.LFB1107
 3068 0230 01       		.uleb128 0x1
 3069 0231 9304     		.uleb128 .LEHB92-.LFB1107
 3070 0233 44       		.uleb128 .LEHE92-.LEHB92
 3071 0234 A805     		.uleb128 .L292-.LFB1107
 3072 0236 01       		.uleb128 0x1
 3073 0237 DC04     		.uleb128 .LEHB93-.LFB1107
 3074 0239 05       		.uleb128 .LEHE93-.LEHB93
 3075 023a 00       		.uleb128 0
 3076 023b 00       		.uleb128 0
 3077 023c EF04     		.uleb128 .LEHB94-.LFB1107
 3078 023e 2F       		.uleb128 .LEHE94-.LEHB94
 3079 023f A909     		.uleb128 .L277-.LFB1107
 3080 0241 00       		.uleb128 0
 3081 0242 9E05     		.uleb128 .LEHB95-.LFB1107
 3082 0244 05       		.uleb128 .LEHE95-.LEHB95
 3083 0245 00       		.uleb128 0
 3084 0246 00       		.uleb128 0
 3085 0247 B505     		.uleb128 .LEHB96-.LFB1107
 3086 0249 2A       		.uleb128 .LEHE96-.LEHB96
 3087 024a BD09     		.uleb128 .L293-.LFB1107
 3088 024c 00       		.uleb128 0
 3089 024d DF05     		.uleb128 .LEHB97-.LFB1107
 3090 024f 05       		.uleb128 .LEHE97-.LEHB97
 3091 0250 00       		.uleb128 0
 3092 0251 00       		.uleb128 0
 3093 0252 F505     		.uleb128 .LEHB98-.LFB1107
 3094 0254 2A       		.uleb128 .LEHE98-.LEHB98
 3095 0255 FD09     		.uleb128 .L285-.LFB1107
 3096 0257 00       		.uleb128 0
 3097 0258 9F06     		.uleb128 .LEHB99-.LFB1107
 3098 025a 05       		.uleb128 .LEHE99-.LEHB99
 3099 025b 00       		.uleb128 0
 3100 025c 00       		.uleb128 0
 3101 025d B506     		.uleb128 .LEHB100-.LFB1107
 3102 025f 2A       		.uleb128 .LEHE100-.LEHB100
 3103 0260 DD09     		.uleb128 .L289-.LFB1107
 3104 0262 00       		.uleb128 0
 3105 0263 DF06     		.uleb128 .LEHB101-.LFB1107
 3106 0265 05       		.uleb128 .LEHE101-.LEHB101
 3107 0266 00       		.uleb128 0
 3108 0267 00       		.uleb128 0
 3109 0268 F506     		.uleb128 .LEHB102-.LFB1107
 3110 026a 2A       		.uleb128 .LEHE102-.LEHB102
 3111 026b 9D0A     		.uleb128 .L281-.LFB1107
 3112 026d 00       		.uleb128 0
 3113 026e 9F07     		.uleb128 .LEHB103-.LFB1107
 3114 0270 05       		.uleb128 .LEHE103-.LEHB103
 3115 0271 00       		.uleb128 0
 3116 0272 00       		.uleb128 0
 3117 0273 B507     		.uleb128 .LEHB104-.LFB1107
 3118 0275 2A       		.uleb128 .LEHE104-.LEHB104
 3119 0276 CD09     		.uleb128 .L291-.LFB1107
 3120 0278 00       		.uleb128 0
 3121 0279 DF07     		.uleb128 .LEHB105-.LFB1107
 3122 027b 05       		.uleb128 .LEHE105-.LEHB105
 3123 027c 00       		.uleb128 0
 3124 027d 00       		.uleb128 0
 3125 027e F507     		.uleb128 .LEHB106-.LFB1107
 3126 0280 2A       		.uleb128 .LEHE106-.LEHB106
 3127 0281 8D0A     		.uleb128 .L283-.LFB1107
 3128 0283 00       		.uleb128 0
 3129 0284 9F08     		.uleb128 .LEHB107-.LFB1107
 3130 0286 05       		.uleb128 .LEHE107-.LEHB107
 3131 0287 00       		.uleb128 0
 3132 0288 00       		.uleb128 0
 3133 0289 B508     		.uleb128 .LEHB108-.LFB1107
 3134 028b 2A       		.uleb128 .LEHE108-.LEHB108
 3135 028c ED09     		.uleb128 .L287-.LFB1107
 3136 028e 00       		.uleb128 0
 3137 028f DF08     		.uleb128 .LEHB109-.LFB1107
 3138 0291 05       		.uleb128 .LEHE109-.LEHB109
 3139 0292 00       		.uleb128 0
 3140 0293 00       		.uleb128 0
 3141 0294 F508     		.uleb128 .LEHB110-.LFB1107
 3142 0296 2A       		.uleb128 .LEHE110-.LEHB110
 3143 0297 AD0A     		.uleb128 .L279-.LFB1107
 3144 0299 00       		.uleb128 0
 3145 029a 9F09     		.uleb128 .LEHB111-.LFB1107
 3146 029c 05       		.uleb128 .LEHE111-.LEHB111
 3147 029d 00       		.uleb128 0
 3148 029e 00       		.uleb128 0
 3149 029f B809     		.uleb128 .LEHB112-.LFB1107
 3150 02a1 05       		.uleb128 .LEHE112-.LEHB112
 3151 02a2 00       		.uleb128 0
 3152 02a3 00       		.uleb128 0
 3153 02a4 C809     		.uleb128 .LEHB113-.LFB1107
 3154 02a6 05       		.uleb128 .LEHE113-.LEHB113
 3155 02a7 00       		.uleb128 0
 3156 02a8 00       		.uleb128 0
 3157 02a9 D809     		.uleb128 .LEHB114-.LFB1107
 3158 02ab 05       		.uleb128 .LEHE114-.LEHB114
 3159 02ac 00       		.uleb128 0
 3160 02ad 00       		.uleb128 0
 3161 02ae E809     		.uleb128 .LEHB115-.LFB1107
 3162 02b0 05       		.uleb128 .LEHE115-.LEHB115
 3163 02b1 00       		.uleb128 0
 3164 02b2 00       		.uleb128 0
 3165 02b3 F809     		.uleb128 .LEHB116-.LFB1107
 3166 02b5 05       		.uleb128 .LEHE116-.LEHB116
 3167 02b6 00       		.uleb128 0
 3168 02b7 00       		.uleb128 0
 3169 02b8 880A     		.uleb128 .LEHB117-.LFB1107
 3170 02ba 05       		.uleb128 .LEHE117-.LEHB117
 3171 02bb 00       		.uleb128 0
 3172 02bc 00       		.uleb128 0
 3173 02bd 980A     		.uleb128 .LEHB118-.LFB1107
 3174 02bf 05       		.uleb128 .LEHE118-.LEHB118
 3175 02c0 00       		.uleb128 0
 3176 02c1 00       		.uleb128 0
 3177 02c2 A80A     		.uleb128 .LEHB119-.LFB1107
 3178 02c4 05       		.uleb128 .LEHE119-.LEHB119
 3179 02c5 00       		.uleb128 0
 3180 02c6 00       		.uleb128 0
 3181 02c7 B80A     		.uleb128 .LEHB120-.LFB1107
 3182 02c9 05       		.uleb128 .LEHE120-.LEHB120
 3183 02ca 00       		.uleb128 0
 3184 02cb 00       		.uleb128 0
 3185              	.LLSDACSE1107:
 3186 02cc 01       		.byte	0x1
 3187 02cd 00       		.byte	0
 3188 02ce 0000     		.align 4
 3189 02d0 00000000 		.long	0
 3190              	
 3191              	.LLSDATT1107:
 3192              		.text
 3194              		.section	.rodata.str1.8
 3195 02b3 00000000 		.align 8
 3195      00
 3196              	.LC13:
 3197 02b8 556E6861 		.string	"Unhandled exception in CHECK_EQUAL(1UL, *item)"
 3197      6E646C65 
 3197      64206578 
 3197      63657074 
 3197      696F6E20 
 3198 02e7 00       		.align 8
 3199              	.LC14:
 3200 02e8 556E6861 		.string	"Unhandled exception in CHECK_EQUAL(2UL, *item)"
 3200      6E646C65 
 3200      64206578 
 3200      63657074 
 3200      696F6E20 
 3201 0317 00       		.align 8
 3202              	.LC15:
 3203 0318 556E6861 		.string	"Unhandled exception in CHECK_EQUAL(3UL, *item)"
 3203      6E646C65 
 3203      64206578 
 3203      63657074 
 3203      696F6E20 
 3204 0347 00       		.align 8
 3205              	.LC16:
 3206 0348 556E6861 		.string	"Unhandled exception in CHECK_EQUAL(3UL, queue.putIndex)"
 3206      6E646C65 
 3206      64206578 
 3206      63657074 
 3206      696F6E20 
 3207              		.align 8
 3208              	.LC17:
 3209 0380 556E6861 		.string	"Unhandled exception in CHECK_EQUAL(3UL, queue.numItems)"
 3209      6E646C65 
 3209      64206578 
 3209      63657074 
 3209      696F6E20 
 3210              		.align 8
 3211              	.LC18:
 3212 03b8 556E6861 		.string	"Unhandled exception in CHECK_EQUAL(5UL, deref(queue.itemArray[0]))"
 3212      6E646C65 
 3212      64206578 
 3212      63657074 
 3212      696F6E20 
 3213 03fb 00000000 		.align 8
 3213      00
 3214              	.LC19:
 3215 0400 556E6861 		.string	"Unhandled exception in CHECK_EQUAL(6UL, deref(queue.itemArray[1]))"
 3215      6E646C65 
 3215      64206578 
 3215      63657074 
 3215      696F6E20 
 3216 0443 00000000 		.align 8
 3216      00
 3217              	.LC20:
 3218 0448 556E6861 		.string	"Unhandled exception in CHECK_EQUAL(7UL, deref(queue.itemArray[2]))"
 3218      6E646C65 
 3218      64206578 
 3218      63657074 
 3218      696F6E20 
 3219              		.text
 3220 105d 90       		.align 2
 3221 105e 6690     		.p2align 4,,15
 3222              		.globl	_ZNK23TestQueue_testPutNoWrap7RunImplEv
 3224              	_ZNK23TestQueue_testPutNoWrap7RunImplEv:
 3225              	.LFB1111:
 3226              		.cfi_startproc
 3227              		.cfi_personality 0x3,__gxx_personality_v0
 3228              		.cfi_lsda 0x3,.LLSDA1111
 3229 1060 55       		pushq	%rbp
 3230              		.cfi_def_cfa_offset 16
 3231              		.cfi_offset 6, -16
 3232 1061 B9000000 		movl	$destroyInt, %ecx
 3232      00
 3233 1066 BA000000 		movl	$createInt, %edx
 3233      00
 3234 106b BE040000 		movl	$4, %esi
 3234      00
 3235 1070 53       		pushq	%rbx
 3236              		.cfi_def_cfa_offset 24
 3237              		.cfi_offset 3, -24
 3238 1071 4881EC98 		subq	$152, %rsp
 3238      000000
 3239              		.cfi_def_cfa_offset 176
 3240 1078 C7050000 		movl	$1, _ZL7m_count(%rip)
 3240      00000100 
 3240      0000
 3241 1082 488D7C24 		leaq	80(%rsp), %rdi
 3241      50
 3242              	.LEHB121:
 3243 1087 E8000000 		call	queueInit
 3243      00
 3244              	.LEHE121:
 3245 108c 8944240C 		movl	%eax, 12(%rsp)
 3246              	.LEHB122:
 3247 1090 E8000000 		call	_ZN8UnitTest11CurrentTest7DetailsEv
 3247      00
 3248 1095 488D5C24 		leaq	48(%rsp), %rbx
 3248      30
 3249 109a 488B30   		movq	(%rax), %rsi
 3250 109d BA540000 		movl	$84, %edx
 3250      00
 3251 10a2 4889DF   		movq	%rbx, %rdi
 3252 10a5 E8000000 		call	_ZN8UnitTest11TestDetailsC1ERKS0_i
 3252      00
 3253 10aa C7442420 		movl	$0, 32(%rsp)
 3253      00000000 
 3254 10b2 E8000000 		call	_ZN8UnitTest11CurrentTest7ResultsEv
 3254      00
 3255 10b7 488B38   		movq	(%rax), %rdi
 3256 10ba 488D5424 		leaq	12(%rsp), %rdx
 3256      0C
 3257 10bf 488D7424 		leaq	32(%rsp), %rsi
 3257      20
 3258 10c4 4889D9   		movq	%rbx, %rcx
 3259 10c7 E8000000 		call	_ZN8UnitTest10CheckEqualI9USBStatusS1_EEvRNS_11TestResultsERKT_RKT0_RKNS_11TestDetailsE
 3259      00
 3260              	.LEHE122:
 3261              	.L299:
 3262 10cc 488D7424 		leaq	16(%rsp), %rsi
 3262      10
 3263 10d1 488D7C24 		leaq	80(%rsp), %rdi
 3263      50
 3264              	.LEHB123:
 3265 10d6 E8000000 		call	queuePut
 3265      00
 3266              	.LEHE123:
 3267 10db 8944240C 		movl	%eax, 12(%rsp)
 3268              	.LEHB124:
 3269 10df E8000000 		call	_ZN8UnitTest11CurrentTest7DetailsEv
 3269      00
 3270 10e4 488B30   		movq	(%rax), %rsi
 3271 10e7 BA580000 		movl	$88, %edx
 3271      00
 3272 10ec 4889DF   		movq	%rbx, %rdi
 3273 10ef E8000000 		call	_ZN8UnitTest11TestDetailsC1ERKS0_i
 3273      00
 3274 10f4 C7442420 		movl	$0, 32(%rsp)
 3274      00000000 
 3275 10fc E8000000 		call	_ZN8UnitTest11CurrentTest7ResultsEv
 3275      00
 3276 1101 488B38   		movq	(%rax), %rdi
 3277 1104 488D5424 		leaq	12(%rsp), %rdx
 3277      0C
 3278 1109 488D7424 		leaq	32(%rsp), %rsi
 3278      20
 3279 110e 4889D9   		movq	%rbx, %rcx
 3280 1111 E8000000 		call	_ZN8UnitTest10CheckEqualI9USBStatusS1_EEvRNS_11TestResultsERKT_RKT0_RKNS_11TestDetailsE
 3280      00
 3281              	.LEHE124:
 3282              	.L302:
 3283              	.LEHB125:
 3284 1116 E8000000 		call	_ZN8UnitTest11CurrentTest7DetailsEv
 3284      00
 3285 111b 488B30   		movq	(%rax), %rsi
 3286 111e BA590000 		movl	$89, %edx
 3286      00
 3287 1123 4889DF   		movq	%rbx, %rdi
 3288 1126 E8000000 		call	_ZN8UnitTest11TestDetailsC1ERKS0_i
 3288      00
 3289 112b 488B6C24 		movq	16(%rsp), %rbp
 3289      10
 3290 1130 48C74424 		movq	$1, 32(%rsp)
 3290      20010000 
 3290      00
 3291 1139 E8000000 		call	_ZN8UnitTest11CurrentTest7ResultsEv
 3291      00
 3292 113e 488B38   		movq	(%rax), %rdi
 3293 1141 488D7424 		leaq	32(%rsp), %rsi
 3293      20
 3294 1146 4889D9   		movq	%rbx, %rcx
 3295 1149 4889EA   		movq	%rbp, %rdx
 3296 114c E8000000 		call	_ZN8UnitTest10CheckEqualImjEEvRNS_11TestResultsERKT_RKT0_RKNS_11TestDetailsE
 3296      00
 3297              	.LEHE125:
 3298              	.L305:
 3299 1151 488B4424 		movq	16(%rsp), %rax
 3299      10
 3300 1156 488D7C24 		leaq	80(%rsp), %rdi
 3300      50
 3301 115b C7000500 		movl	$5, (%rax)
 3301      0000
 3302              	.LEHB126:
 3303 1161 E8000000 		call	queueCommitPut
 3303      00
 3304 1166 488D7424 		leaq	16(%rsp), %rsi
 3304      10
 3305 116b 488D7C24 		leaq	80(%rsp), %rdi
 3305      50
 3306 1170 E8000000 		call	queuePut
 3306      00
 3307              	.LEHE126:
 3308 1175 8944240C 		movl	%eax, 12(%rsp)
 3309              	.LEHB127:
 3310 1179 E8000000 		call	_ZN8UnitTest11CurrentTest7DetailsEv
 3310      00
 3311 117e 488B30   		movq	(%rax), %rsi
 3312 1181 BA5D0000 		movl	$93, %edx
 3312      00
 3313 1186 4889DF   		movq	%rbx, %rdi
 3314 1189 E8000000 		call	_ZN8UnitTest11TestDetailsC1ERKS0_i
 3314      00
 3315 118e C7442420 		movl	$0, 32(%rsp)
 3315      00000000 
 3316 1196 E8000000 		call	_ZN8UnitTest11CurrentTest7ResultsEv
 3316      00
 3317 119b 488B38   		movq	(%rax), %rdi
 3318 119e 488D5424 		leaq	12(%rsp), %rdx
 3318      0C
 3319 11a3 488D7424 		leaq	32(%rsp), %rsi
 3319      20
 3320 11a8 4889D9   		movq	%rbx, %rcx
 3321 11ab E8000000 		call	_ZN8UnitTest10CheckEqualI9USBStatusS1_EEvRNS_11TestResultsERKT_RKT0_RKNS_11TestDetailsE
 3321      00
 3322              	.LEHE127:
 3323              	.L308:
 3324              	.LEHB128:
 3325 11b0 E8000000 		call	_ZN8UnitTest11CurrentTest7DetailsEv
 3325      00
 3326 11b5 488B30   		movq	(%rax), %rsi
 3327 11b8 BA5E0000 		movl	$94, %edx
 3327      00
 3328 11bd 4889DF   		movq	%rbx, %rdi
 3329 11c0 E8000000 		call	_ZN8UnitTest11TestDetailsC1ERKS0_i
 3329      00
 3330 11c5 488B6C24 		movq	16(%rsp), %rbp
 3330      10
 3331 11ca 48C74424 		movq	$2, 32(%rsp)
 3331      20020000 
 3331      00
 3332 11d3 E8000000 		call	_ZN8UnitTest11CurrentTest7ResultsEv
 3332      00
 3333 11d8 488B38   		movq	(%rax), %rdi
 3334 11db 488D7424 		leaq	32(%rsp), %rsi
 3334      20
 3335 11e0 4889D9   		movq	%rbx, %rcx
 3336 11e3 4889EA   		movq	%rbp, %rdx
 3337 11e6 E8000000 		call	_ZN8UnitTest10CheckEqualImjEEvRNS_11TestResultsERKT_RKT0_RKNS_11TestDetailsE
 3337      00
 3338              	.LEHE128:
 3339              	.L311:
 3340 11eb 488B4424 		movq	16(%rsp), %rax
 3340      10
 3341 11f0 488D7C24 		leaq	80(%rsp), %rdi
 3341      50
 3342 11f5 C7000600 		movl	$6, (%rax)
 3342      0000
 3343              	.LEHB129:
 3344 11fb E8000000 		call	queueCommitPut
 3344      00
 3345 1200 488D7424 		leaq	16(%rsp), %rsi
 3345      10
 3346 1205 488D7C24 		leaq	80(%rsp), %rdi
 3346      50
 3347 120a E8000000 		call	queuePut
 3347      00
 3348              	.LEHE129:
 3349 120f 8944240C 		movl	%eax, 12(%rsp)
 3350              	.LEHB130:
 3351 1213 E8000000 		call	_ZN8UnitTest11CurrentTest7DetailsEv
 3351      00
 3352 1218 488B30   		movq	(%rax), %rsi
 3353 121b BA620000 		movl	$98, %edx
 3353      00
 3354 1220 4889DF   		movq	%rbx, %rdi
 3355 1223 E8000000 		call	_ZN8UnitTest11TestDetailsC1ERKS0_i
 3355      00
 3356 1228 C7442420 		movl	$0, 32(%rsp)
 3356      00000000 
 3357 1230 E8000000 		call	_ZN8UnitTest11CurrentTest7ResultsEv
 3357      00
 3358 1235 488B38   		movq	(%rax), %rdi
 3359 1238 488D5424 		leaq	12(%rsp), %rdx
 3359      0C
 3360 123d 488D7424 		leaq	32(%rsp), %rsi
 3360      20
 3361 1242 4889D9   		movq	%rbx, %rcx
 3362 1245 E8000000 		call	_ZN8UnitTest10CheckEqualI9USBStatusS1_EEvRNS_11TestResultsERKT_RKT0_RKNS_11TestDetailsE
 3362      00
 3363              	.LEHE130:
 3364              	.L314:
 3365              	.LEHB131:
 3366 124a E8000000 		call	_ZN8UnitTest11CurrentTest7DetailsEv
 3366      00
 3367 124f 488B30   		movq	(%rax), %rsi
 3368 1252 BA630000 		movl	$99, %edx
 3368      00
 3369 1257 4889DF   		movq	%rbx, %rdi
 3370 125a E8000000 		call	_ZN8UnitTest11TestDetailsC1ERKS0_i
 3370      00
 3371 125f 488B6C24 		movq	16(%rsp), %rbp
 3371      10
 3372 1264 48C74424 		movq	$3, 32(%rsp)
 3372      20030000 
 3372      00
 3373 126d E8000000 		call	_ZN8UnitTest11CurrentTest7ResultsEv
 3373      00
 3374 1272 488B38   		movq	(%rax), %rdi
 3375 1275 488D7424 		leaq	32(%rsp), %rsi
 3375      20
 3376 127a 4889D9   		movq	%rbx, %rcx
 3377 127d 4889EA   		movq	%rbp, %rdx
 3378 1280 E8000000 		call	_ZN8UnitTest10CheckEqualImjEEvRNS_11TestResultsERKT_RKT0_RKNS_11TestDetailsE
 3378      00
 3379              	.LEHE131:
 3380              	.L317:
 3381 1285 488B4424 		movq	16(%rsp), %rax
 3381      10
 3382 128a 488D7C24 		leaq	80(%rsp), %rdi
 3382      50
 3383 128f C7000700 		movl	$7, (%rax)
 3383      0000
 3384              	.LEHB132:
 3385 1295 E8000000 		call	queueCommitPut
 3385      00
 3386              	.LEHE132:
 3387              	.LEHB133:
 3388 129a E8000000 		call	_ZN8UnitTest11CurrentTest7DetailsEv
 3388      00
 3389 129f 488B30   		movq	(%rax), %rsi
 3390 12a2 BA680000 		movl	$104, %edx
 3390      00
 3391 12a7 4889DF   		movq	%rbx, %rdi
 3392 12aa E8000000 		call	_ZN8UnitTest11TestDetailsC1ERKS0_i
 3392      00
 3393 12af 48C74424 		movq	$4, 32(%rsp)
 3393      20040000 
 3393      00
 3394 12b8 E8000000 		call	_ZN8UnitTest11CurrentTest7ResultsEv
 3394      00
 3395 12bd 488B38   		movq	(%rax), %rdi
 3396 12c0 488D5424 		leaq	88(%rsp), %rdx
 3396      58
 3397 12c5 488D7424 		leaq	32(%rsp), %rsi
 3397      20
 3398 12ca 4889D9   		movq	%rbx, %rcx
 3399 12cd E8000000 		call	_ZN8UnitTest10CheckEqualImmEEvRNS_11TestResultsERKT_RKT0_RKNS_11TestDetailsE
 3399      00
 3400              	.LEHE133:
 3401              	.L320:
 3402              	.LEHB134:
 3403 12d2 E8000000 		call	_ZN8UnitTest11CurrentTest7DetailsEv
 3403      00
 3404 12d7 488B30   		movq	(%rax), %rsi
 3405 12da BA690000 		movl	$105, %edx
 3405      00
 3406 12df 4889DF   		movq	%rbx, %rdi
 3407 12e2 E8000000 		call	_ZN8UnitTest11TestDetailsC1ERKS0_i
 3407      00
 3408 12e7 48C74424 		movq	$3, 32(%rsp)
 3408      20030000 
 3408      00
 3409 12f0 E8000000 		call	_ZN8UnitTest11CurrentTest7ResultsEv
 3409      00
 3410 12f5 488B38   		movq	(%rax), %rdi
 3411 12f8 488D5424 		leaq	96(%rsp), %rdx
 3411      60
 3412 12fd 488D7424 		leaq	32(%rsp), %rsi
 3412      20
 3413 1302 4889D9   		movq	%rbx, %rcx
 3414 1305 E8000000 		call	_ZN8UnitTest10CheckEqualImmEEvRNS_11TestResultsERKT_RKT0_RKNS_11TestDetailsE
 3414      00
 3415              	.LEHE134:
 3416              	.L323:
 3417              	.LEHB135:
 3418 130a E8000000 		call	_ZN8UnitTest11CurrentTest7DetailsEv
 3418      00
 3419 130f 488B30   		movq	(%rax), %rsi
 3420 1312 BA6A0000 		movl	$106, %edx
 3420      00
 3421 1317 4889DF   		movq	%rbx, %rdi
 3422 131a E8000000 		call	_ZN8UnitTest11TestDetailsC1ERKS0_i
 3422      00
 3423 131f 48C74424 		movq	$0, 32(%rsp)
 3423      20000000 
 3423      00
 3424 1328 E8000000 		call	_ZN8UnitTest11CurrentTest7ResultsEv
 3424      00
 3425 132d 488B38   		movq	(%rax), %rdi
 3426 1330 488D5424 		leaq	104(%rsp), %rdx
 3426      68
 3427 1335 488D7424 		leaq	32(%rsp), %rsi
 3427      20
 3428 133a 4889D9   		movq	%rbx, %rcx
 3429 133d E8000000 		call	_ZN8UnitTest10CheckEqualImmEEvRNS_11TestResultsERKT_RKT0_RKNS_11TestDetailsE
 3429      00
 3430              	.LEHE135:
 3431              	.L326:
 3432              	.LEHB136:
 3433 1342 E8000000 		call	_ZN8UnitTest11CurrentTest7DetailsEv
 3433      00
 3434 1347 488B30   		movq	(%rax), %rsi
 3435 134a BA6B0000 		movl	$107, %edx
 3435      00
 3436 134f 4889DF   		movq	%rbx, %rdi
 3437 1352 E8000000 		call	_ZN8UnitTest11TestDetailsC1ERKS0_i
 3437      00
 3438 1357 48C74424 		movq	$3, 32(%rsp)
 3438      20030000 
 3438      00
 3439 1360 E8000000 		call	_ZN8UnitTest11CurrentTest7ResultsEv
 3439      00
 3440 1365 488B38   		movq	(%rax), %rdi
 3441 1368 488D5424 		leaq	112(%rsp), %rdx
 3441      70
 3442 136d 488D7424 		leaq	32(%rsp), %rsi
 3442      20
 3443 1372 4889D9   		movq	%rbx, %rcx
 3444 1375 E8000000 		call	_ZN8UnitTest10CheckEqualImmEEvRNS_11TestResultsERKT_RKT0_RKNS_11TestDetailsE
 3444      00
 3445              	.LEHE136:
 3446              	.L329:
 3447              	.LEHB137:
 3448 137a E8000000 		call	_ZN8UnitTest11CurrentTest7DetailsEv
 3448      00
 3449 137f 488B30   		movq	(%rax), %rsi
 3450 1382 BA6E0000 		movl	$110, %edx
 3450      00
 3451 1387 4889DF   		movq	%rbx, %rdi
 3452 138a E8000000 		call	_ZN8UnitTest11TestDetailsC1ERKS0_i
 3452      00
 3453 138f 488B4424 		movq	80(%rsp), %rax
 3453      50
 3454 1394 488B00   		movq	(%rax), %rax
 3455 1397 8B00     		movl	(%rax), %eax
 3456 1399 48C74424 		movq	$5, 32(%rsp)
 3456      20050000 
 3456      00
 3457 13a2 890424   		movl	%eax, (%rsp)
 3458 13a5 E8000000 		call	_ZN8UnitTest11CurrentTest7ResultsEv
 3458      00
 3459 13aa 488B38   		movq	(%rax), %rdi
 3460 13ad 488D7424 		leaq	32(%rsp), %rsi
 3460      20
 3461 13b2 4889D9   		movq	%rbx, %rcx
 3462 13b5 4889E2   		movq	%rsp, %rdx
 3463 13b8 E8000000 		call	_ZN8UnitTest10CheckEqualImjEEvRNS_11TestResultsERKT_RKT0_RKNS_11TestDetailsE
 3463      00
 3464              	.LEHE137:
 3465              	.L332:
 3466              	.LEHB138:
 3467 13bd E8000000 		call	_ZN8UnitTest11CurrentTest7DetailsEv
 3467      00
 3468 13c2 488B30   		movq	(%rax), %rsi
 3469 13c5 BA6F0000 		movl	$111, %edx
 3469      00
 3470 13ca 4889DF   		movq	%rbx, %rdi
 3471 13cd E8000000 		call	_ZN8UnitTest11TestDetailsC1ERKS0_i
 3471      00
 3472 13d2 488B4424 		movq	80(%rsp), %rax
 3472      50
 3473 13d7 488B4008 		movq	8(%rax), %rax
 3474 13db 8B00     		movl	(%rax), %eax
 3475 13dd 48C74424 		movq	$6, 32(%rsp)
 3475      20060000 
 3475      00
 3476 13e6 890424   		movl	%eax, (%rsp)
 3477 13e9 E8000000 		call	_ZN8UnitTest11CurrentTest7ResultsEv
 3477      00
 3478 13ee 488B38   		movq	(%rax), %rdi
 3479 13f1 488D7424 		leaq	32(%rsp), %rsi
 3479      20
 3480 13f6 4889D9   		movq	%rbx, %rcx
 3481 13f9 4889E2   		movq	%rsp, %rdx
 3482 13fc E8000000 		call	_ZN8UnitTest10CheckEqualImjEEvRNS_11TestResultsERKT_RKT0_RKNS_11TestDetailsE
 3482      00
 3483              	.LEHE138:
 3484              	.L335:
 3485              	.LEHB139:
 3486 1401 E8000000 		call	_ZN8UnitTest11CurrentTest7DetailsEv
 3486      00
 3487 1406 488B30   		movq	(%rax), %rsi
 3488 1409 BA700000 		movl	$112, %edx
 3488      00
 3489 140e 4889DF   		movq	%rbx, %rdi
 3490 1411 E8000000 		call	_ZN8UnitTest11TestDetailsC1ERKS0_i
 3490      00
 3491 1416 488B4424 		movq	80(%rsp), %rax
 3491      50
 3492 141b 488B4010 		movq	16(%rax), %rax
 3493 141f 8B00     		movl	(%rax), %eax
 3494 1421 48C74424 		movq	$7, 32(%rsp)
 3494      20070000 
 3494      00
 3495 142a 890424   		movl	%eax, (%rsp)
 3496 142d E8000000 		call	_ZN8UnitTest11CurrentTest7ResultsEv
 3496      00
 3497 1432 488B38   		movq	(%rax), %rdi
 3498 1435 488D7424 		leaq	32(%rsp), %rsi
 3498      20
 3499 143a 4889D9   		movq	%rbx, %rcx
 3500 143d 4889E2   		movq	%rsp, %rdx
 3501 1440 E8000000 		call	_ZN8UnitTest10CheckEqualImjEEvRNS_11TestResultsERKT_RKT0_RKNS_11TestDetailsE
 3501      00
 3502              	.LEHE139:
 3503              	.L338:
 3504              	.LEHB140:
 3505 1445 E8000000 		call	_ZN8UnitTest11CurrentTest7DetailsEv
 3505      00
 3506 144a 488B30   		movq	(%rax), %rsi
 3507 144d BA710000 		movl	$113, %edx
 3507      00
 3508 1452 4889DF   		movq	%rbx, %rdi
 3509 1455 E8000000 		call	_ZN8UnitTest11TestDetailsC1ERKS0_i
 3509      00
 3510 145a 488B4424 		movq	80(%rsp), %rax
 3510      50
 3511 145f 488B4018 		movq	24(%rax), %rax
 3512 1463 8B00     		movl	(%rax), %eax
 3513 1465 48C74424 		movq	$4, 32(%rsp)
 3513      20040000 
 3513      00
 3514 146e 890424   		movl	%eax, (%rsp)
 3515 1471 E8000000 		call	_ZN8UnitTest11CurrentTest7ResultsEv
 3515      00
 3516 1476 488B38   		movq	(%rax), %rdi
 3517 1479 488D7424 		leaq	32(%rsp), %rsi
 3517      20
 3518 147e 4889D9   		movq	%rbx, %rcx
 3519 1481 4889E2   		movq	%rsp, %rdx
 3520 1484 E8000000 		call	_ZN8UnitTest10CheckEqualImjEEvRNS_11TestResultsERKT_RKT0_RKNS_11TestDetailsE
 3520      00
 3521              	.LEHE140:
 3522              	.L341:
 3523 1489 488D7C24 		leaq	80(%rsp), %rdi
 3523      50
 3524              	.LEHB141:
 3525 148e E8000000 		call	queueDestroy
 3525      00
 3526              	.LEHE141:
 3527 1493 4881C498 		addq	$152, %rsp
 3527      000000
 3528              		.cfi_remember_state
 3529              		.cfi_def_cfa_offset 24
 3530 149a 5B       		popq	%rbx
 3531              		.cfi_def_cfa_offset 16
 3532 149b 5D       		popq	%rbp
 3533              		.cfi_def_cfa_offset 8
 3534 149c C3       		ret
 3535              	.L342:
 3536              		.cfi_restore_state
 3537 149d 4889C7   		movq	%rax, %rdi
 3538 14a0 E8000000 		call	__cxa_begin_catch
 3538      00
 3539              	.LEHB142:
 3540 14a5 E8000000 		call	_ZN8UnitTest11CurrentTest7DetailsEv
 3540      00
 3541 14aa 488D5C24 		leaq	48(%rsp), %rbx
 3541      30
 3542 14af 488B30   		movq	(%rax), %rsi
 3543 14b2 BA540000 		movl	$84, %edx
 3543      00
 3544 14b7 4889DF   		movq	%rbx, %rdi
 3545 14ba E8000000 		call	_ZN8UnitTest11TestDetailsC1ERKS0_i
 3545      00
 3546 14bf E8000000 		call	_ZN8UnitTest11CurrentTest7ResultsEv
 3546      00
 3547 14c4 488B38   		movq	(%rax), %rdi
 3548 14c7 BA000000 		movl	$.LC4, %edx
 3548      00
 3549 14cc 4889DE   		movq	%rbx, %rsi
 3550 14cf E8000000 		call	_ZN8UnitTest11TestResults13OnTestFailureERKNS_11TestDetailsEPKc
 3550      00
 3551              	.LEHE142:
 3552              	.LEHB143:
 3553 14d4 E8000000 		call	__cxa_end_catch
 3553      00
 3554              	.LEHE143:
 3555 14d9 E9EEFBFF 		jmp	.L299
 3555      FF
 3556              	.L370:
 3557 14de 4889C7   		movq	%rax, %rdi
 3558              		.p2align 4,,5
 3559 14e1 E8000000 		call	__cxa_begin_catch
 3559      00
 3560              		.p2align 4,,5
 3561              	.LEHB144:
 3562 14e6 E8000000 		call	_ZN8UnitTest11CurrentTest7DetailsEv
 3562      00
 3563 14eb 488B30   		movq	(%rax), %rsi
 3564 14ee BA710000 		movl	$113, %edx
 3564      00
 3565 14f3 4889DF   		movq	%rbx, %rdi
 3566 14f6 E8000000 		call	_ZN8UnitTest11TestDetailsC1ERKS0_i
 3566      00
 3567 14fb E8000000 		call	_ZN8UnitTest11CurrentTest7ResultsEv
 3567      00
 3568 1500 488B38   		movq	(%rax), %rdi
 3569 1503 BA000000 		movl	$.LC12, %edx
 3569      00
 3570 1508 4889DE   		movq	%rbx, %rsi
 3571 150b E8000000 		call	_ZN8UnitTest11TestResults13OnTestFailureERKNS_11TestDetailsEPKc
 3571      00
 3572              	.LEHE144:
 3573              	.LEHB145:
 3574 1510 E8000000 		call	__cxa_end_catch
 3574      00
 3575              	.LEHE145:
 3576 1515 E96FFFFF 		jmp	.L341
 3576      FF
 3577              	.L368:
 3578 151a 4889C7   		movq	%rax, %rdi
 3579 151d 0F1F00   		.p2align 4,,5
 3580 1520 E8000000 		call	__cxa_begin_catch
 3580      00
 3581              		.p2align 4,,5
 3582              	.LEHB146:
 3583 1525 E8000000 		call	_ZN8UnitTest11CurrentTest7DetailsEv
 3583      00
 3584 152a 488B30   		movq	(%rax), %rsi
 3585 152d BA700000 		movl	$112, %edx
 3585      00
 3586 1532 4889DF   		movq	%rbx, %rdi
 3587 1535 E8000000 		call	_ZN8UnitTest11TestDetailsC1ERKS0_i
 3587      00
 3588 153a E8000000 		call	_ZN8UnitTest11CurrentTest7ResultsEv
 3588      00
 3589 153f 488B38   		movq	(%rax), %rdi
 3590 1542 BA000000 		movl	$.LC20, %edx
 3590      00
 3591 1547 4889DE   		movq	%rbx, %rsi
 3592 154a E8000000 		call	_ZN8UnitTest11TestResults13OnTestFailureERKNS_11TestDetailsEPKc
 3592      00
 3593              	.LEHE146:
 3594              	.LEHB147:
 3595 154f E8000000 		call	__cxa_end_catch
 3595      00
 3596              	.LEHE147:
 3597 1554 E9ECFEFF 		jmp	.L338
 3597      FF
 3598              	.L343:
 3599 1559 4889C3   		movq	%rax, %rbx
 3600 155c 0F1F4000 		.p2align 4,,5
 3601 1560 E8000000 		call	__cxa_end_catch
 3601      00
 3602 1565 4889DF   		movq	%rbx, %rdi
 3603              	.LEHB148:
 3604 1568 E8000000 		call	_Unwind_Resume
 3604      00
 3605              	.LEHE148:
 3606              	.L371:
 3607 156d 4889C3   		movq	%rax, %rbx
 3608 1570 E8000000 		call	__cxa_end_catch
 3608      00
 3609 1575 4889DF   		movq	%rbx, %rdi
 3610              	.LEHB149:
 3611 1578 E8000000 		call	_Unwind_Resume
 3611      00
 3612              	.LEHE149:
 3613              	.L369:
 3614 157d 4889C3   		movq	%rax, %rbx
 3615 1580 E8000000 		call	__cxa_end_catch
 3615      00
 3616 1585 4889DF   		movq	%rbx, %rdi
 3617              	.LEHB150:
 3618 1588 E8000000 		call	_Unwind_Resume
 3618      00
 3619              	.LEHE150:
 3620              	.L366:
 3621 158d 4889C7   		movq	%rax, %rdi
 3622 1590 E8000000 		call	__cxa_begin_catch
 3622      00
 3623              	.LEHB151:
 3624 1595 E8000000 		call	_ZN8UnitTest11CurrentTest7DetailsEv
 3624      00
 3625 159a 488B30   		movq	(%rax), %rsi
 3626 159d BA6F0000 		movl	$111, %edx
 3626      00
 3627 15a2 4889DF   		movq	%rbx, %rdi
 3628 15a5 E8000000 		call	_ZN8UnitTest11TestDetailsC1ERKS0_i
 3628      00
 3629 15aa E8000000 		call	_ZN8UnitTest11CurrentTest7ResultsEv
 3629      00
 3630 15af 488B38   		movq	(%rax), %rdi
 3631 15b2 BA000000 		movl	$.LC19, %edx
 3631      00
 3632 15b7 4889DE   		movq	%rbx, %rsi
 3633 15ba E8000000 		call	_ZN8UnitTest11TestResults13OnTestFailureERKNS_11TestDetailsEPKc
 3633      00
 3634              	.LEHE151:
 3635              	.LEHB152:
 3636 15bf E8000000 		call	__cxa_end_catch
 3636      00
 3637              	.LEHE152:
 3638 15c4 E938FEFF 		jmp	.L335
 3638      FF
 3639              	.L364:
 3640 15c9 4889C7   		movq	%rax, %rdi
 3641 15cc 0F1F4000 		.p2align 4,,5
 3642 15d0 E8000000 		call	__cxa_begin_catch
 3642      00
 3643              		.p2align 4,,5
 3644              	.LEHB153:
 3645 15d5 E8000000 		call	_ZN8UnitTest11CurrentTest7DetailsEv
 3645      00
 3646 15da 488B30   		movq	(%rax), %rsi
 3647 15dd BA6E0000 		movl	$110, %edx
 3647      00
 3648 15e2 4889DF   		movq	%rbx, %rdi
 3649 15e5 E8000000 		call	_ZN8UnitTest11TestDetailsC1ERKS0_i
 3649      00
 3650 15ea E8000000 		call	_ZN8UnitTest11CurrentTest7ResultsEv
 3650      00
 3651 15ef 488B38   		movq	(%rax), %rdi
 3652 15f2 BA000000 		movl	$.LC18, %edx
 3652      00
 3653 15f7 4889DE   		movq	%rbx, %rsi
 3654 15fa E8000000 		call	_ZN8UnitTest11TestResults13OnTestFailureERKNS_11TestDetailsEPKc
 3654      00
 3655              	.LEHE153:
 3656              	.LEHB154:
 3657 15ff E8000000 		call	__cxa_end_catch
 3657      00
 3658              	.LEHE154:
 3659 1604 E9B4FDFF 		jmp	.L332
 3659      FF
 3660              	.L367:
 3661 1609 4889C3   		movq	%rax, %rbx
 3662 160c 0F1F4000 		.p2align 4,,5
 3663 1610 E8000000 		call	__cxa_end_catch
 3663      00
 3664 1615 4889DF   		movq	%rbx, %rdi
 3665              	.LEHB155:
 3666 1618 E8000000 		call	_Unwind_Resume
 3666      00
 3667              	.LEHE155:
 3668              	.L365:
 3669 161d 4889C3   		movq	%rax, %rbx
 3670 1620 E8000000 		call	__cxa_end_catch
 3670      00
 3671 1625 4889DF   		movq	%rbx, %rdi
 3672              	.LEHB156:
 3673 1628 E8000000 		call	_Unwind_Resume
 3673      00
 3674              	.LEHE156:
 3675              	.L362:
 3676 162d 4889C7   		movq	%rax, %rdi
 3677 1630 E8000000 		call	__cxa_begin_catch
 3677      00
 3678              	.LEHB157:
 3679 1635 E8000000 		call	_ZN8UnitTest11CurrentTest7DetailsEv
 3679      00
 3680 163a 488B30   		movq	(%rax), %rsi
 3681 163d BA6B0000 		movl	$107, %edx
 3681      00
 3682 1642 4889DF   		movq	%rbx, %rdi
 3683 1645 E8000000 		call	_ZN8UnitTest11TestDetailsC1ERKS0_i
 3683      00
 3684 164a E8000000 		call	_ZN8UnitTest11CurrentTest7ResultsEv
 3684      00
 3685 164f 488B38   		movq	(%rax), %rdi
 3686 1652 BA000000 		movl	$.LC17, %edx
 3686      00
 3687 1657 4889DE   		movq	%rbx, %rsi
 3688 165a E8000000 		call	_ZN8UnitTest11TestResults13OnTestFailureERKNS_11TestDetailsEPKc
 3688      00
 3689              	.LEHE157:
 3690              	.LEHB158:
 3691 165f E8000000 		call	__cxa_end_catch
 3691      00
 3692              	.LEHE158:
 3693 1664 E911FDFF 		jmp	.L329
 3693      FF
 3694              	.L360:
 3695 1669 4889C7   		movq	%rax, %rdi
 3696 166c 0F1F4000 		.p2align 4,,5
 3697 1670 E8000000 		call	__cxa_begin_catch
 3697      00
 3698              		.p2align 4,,5
 3699              	.LEHB159:
 3700 1675 E8000000 		call	_ZN8UnitTest11CurrentTest7DetailsEv
 3700      00
 3701 167a 488B30   		movq	(%rax), %rsi
 3702 167d BA6A0000 		movl	$106, %edx
 3702      00
 3703 1682 4889DF   		movq	%rbx, %rdi
 3704 1685 E8000000 		call	_ZN8UnitTest11TestDetailsC1ERKS0_i
 3704      00
 3705 168a E8000000 		call	_ZN8UnitTest11CurrentTest7ResultsEv
 3705      00
 3706 168f 488B38   		movq	(%rax), %rdi
 3707 1692 BA000000 		movl	$.LC7, %edx
 3707      00
 3708 1697 4889DE   		movq	%rbx, %rsi
 3709 169a E8000000 		call	_ZN8UnitTest11TestResults13OnTestFailureERKNS_11TestDetailsEPKc
 3709      00
 3710              	.LEHE159:
 3711              	.LEHB160:
 3712 169f E8000000 		call	__cxa_end_catch
 3712      00
 3713              	.LEHE160:
 3714 16a4 E999FCFF 		jmp	.L326
 3714      FF
 3715              	.L363:
 3716 16a9 4889C3   		movq	%rax, %rbx
 3717 16ac 0F1F4000 		.p2align 4,,5
 3718 16b0 E8000000 		call	__cxa_end_catch
 3718      00
 3719 16b5 4889DF   		movq	%rbx, %rdi
 3720              	.LEHB161:
 3721 16b8 E8000000 		call	_Unwind_Resume
 3721      00
 3722              	.LEHE161:
 3723              	.L361:
 3724 16bd 4889C3   		movq	%rax, %rbx
 3725 16c0 E8000000 		call	__cxa_end_catch
 3725      00
 3726 16c5 4889DF   		movq	%rbx, %rdi
 3727              	.LEHB162:
 3728 16c8 E8000000 		call	_Unwind_Resume
 3728      00
 3729              	.LEHE162:
 3730              	.L358:
 3731 16cd 4889C7   		movq	%rax, %rdi
 3732 16d0 E8000000 		call	__cxa_begin_catch
 3732      00
 3733              	.LEHB163:
 3734 16d5 E8000000 		call	_ZN8UnitTest11CurrentTest7DetailsEv
 3734      00
 3735 16da 488B30   		movq	(%rax), %rsi
 3736 16dd BA690000 		movl	$105, %edx
 3736      00
 3737 16e2 4889DF   		movq	%rbx, %rdi
 3738 16e5 E8000000 		call	_ZN8UnitTest11TestDetailsC1ERKS0_i
 3738      00
 3739 16ea E8000000 		call	_ZN8UnitTest11CurrentTest7ResultsEv
 3739      00
 3740 16ef 488B38   		movq	(%rax), %rdi
 3741 16f2 BA000000 		movl	$.LC16, %edx
 3741      00
 3742 16f7 4889DE   		movq	%rbx, %rsi
 3743 16fa E8000000 		call	_ZN8UnitTest11TestResults13OnTestFailureERKNS_11TestDetailsEPKc
 3743      00
 3744              	.LEHE163:
 3745              	.LEHB164:
 3746 16ff E8000000 		call	__cxa_end_catch
 3746      00
 3747              	.LEHE164:
 3748 1704 E901FCFF 		jmp	.L323
 3748      FF
 3749              	.L356:
 3750 1709 4889C7   		movq	%rax, %rdi
 3751 170c 0F1F4000 		.p2align 4,,5
 3752 1710 E8000000 		call	__cxa_begin_catch
 3752      00
 3753              		.p2align 4,,5
 3754              	.LEHB165:
 3755 1715 E8000000 		call	_ZN8UnitTest11CurrentTest7DetailsEv
 3755      00
 3756 171a 488B30   		movq	(%rax), %rsi
 3757 171d BA680000 		movl	$104, %edx
 3757      00
 3758 1722 4889DF   		movq	%rbx, %rdi
 3759 1725 E8000000 		call	_ZN8UnitTest11TestDetailsC1ERKS0_i
 3759      00
 3760 172a E8000000 		call	_ZN8UnitTest11CurrentTest7ResultsEv
 3760      00
 3761 172f 488B38   		movq	(%rax), %rdi
 3762 1732 BA000000 		movl	$.LC5, %edx
 3762      00
 3763 1737 4889DE   		movq	%rbx, %rsi
 3764 173a E8000000 		call	_ZN8UnitTest11TestResults13OnTestFailureERKNS_11TestDetailsEPKc
 3764      00
 3765              	.LEHE165:
 3766              	.LEHB166:
 3767 173f E8000000 		call	__cxa_end_catch
 3767      00
 3768              	.LEHE166:
 3769 1744 E989FBFF 		jmp	.L320
 3769      FF
 3770              	.L359:
 3771 1749 4889C3   		movq	%rax, %rbx
 3772 174c 0F1F4000 		.p2align 4,,5
 3773 1750 E8000000 		call	__cxa_end_catch
 3773      00
 3774 1755 4889DF   		movq	%rbx, %rdi
 3775              	.LEHB167:
 3776 1758 E8000000 		call	_Unwind_Resume
 3776      00
 3777              	.LEHE167:
 3778              	.L357:
 3779 175d 4889C3   		movq	%rax, %rbx
 3780 1760 E8000000 		call	__cxa_end_catch
 3780      00
 3781 1765 4889DF   		movq	%rbx, %rdi
 3782              	.LEHB168:
 3783 1768 E8000000 		call	_Unwind_Resume
 3783      00
 3784              	.LEHE168:
 3785              	.L354:
 3786 176d 4889C7   		movq	%rax, %rdi
 3787 1770 E8000000 		call	__cxa_begin_catch
 3787      00
 3788              	.LEHB169:
 3789 1775 E8000000 		call	_ZN8UnitTest11CurrentTest7DetailsEv
 3789      00
 3790 177a 488B30   		movq	(%rax), %rsi
 3791 177d BA630000 		movl	$99, %edx
 3791      00
 3792 1782 4889DF   		movq	%rbx, %rdi
 3793 1785 E8000000 		call	_ZN8UnitTest11TestDetailsC1ERKS0_i
 3793      00
 3794 178a E8000000 		call	_ZN8UnitTest11CurrentTest7ResultsEv
 3794      00
 3795 178f 488B38   		movq	(%rax), %rdi
 3796 1792 BA000000 		movl	$.LC15, %edx
 3796      00
 3797 1797 4889DE   		movq	%rbx, %rsi
 3798 179a E8000000 		call	_ZN8UnitTest11TestResults13OnTestFailureERKNS_11TestDetailsEPKc
 3798      00
 3799              	.LEHE169:
 3800              	.LEHB170:
 3801 179f E8000000 		call	__cxa_end_catch
 3801      00
 3802              	.LEHE170:
 3803 17a4 E9DCFAFF 		jmp	.L317
 3803      FF
 3804              	.L352:
 3805 17a9 4889C7   		movq	%rax, %rdi
 3806 17ac 0F1F4000 		.p2align 4,,5
 3807 17b0 E8000000 		call	__cxa_begin_catch
 3807      00
 3808              		.p2align 4,,5
 3809              	.LEHB171:
 3810 17b5 E8000000 		call	_ZN8UnitTest11CurrentTest7DetailsEv
 3810      00
 3811 17ba 488B30   		movq	(%rax), %rsi
 3812 17bd BA620000 		movl	$98, %edx
 3812      00
 3813 17c2 4889DF   		movq	%rbx, %rdi
 3814 17c5 E8000000 		call	_ZN8UnitTest11TestDetailsC1ERKS0_i
 3814      00
 3815 17ca E8000000 		call	_ZN8UnitTest11CurrentTest7ResultsEv
 3815      00
 3816 17cf 488B38   		movq	(%rax), %rdi
 3817 17d2 BA000000 		movl	$.LC4, %edx
 3817      00
 3818 17d7 4889DE   		movq	%rbx, %rsi
 3819 17da E8000000 		call	_ZN8UnitTest11TestResults13OnTestFailureERKNS_11TestDetailsEPKc
 3819      00
 3820              	.LEHE171:
 3821              	.LEHB172:
 3822 17df E8000000 		call	__cxa_end_catch
 3822      00
 3823              	.LEHE172:
 3824 17e4 E961FAFF 		jmp	.L314
 3824      FF
 3825              	.L355:
 3826 17e9 4889C3   		movq	%rax, %rbx
 3827 17ec 0F1F4000 		.p2align 4,,5
 3828 17f0 E8000000 		call	__cxa_end_catch
 3828      00
 3829 17f5 4889DF   		movq	%rbx, %rdi
 3830              	.LEHB173:
 3831 17f8 E8000000 		call	_Unwind_Resume
 3831      00
 3832              	.LEHE173:
 3833              	.L353:
 3834 17fd 4889C3   		movq	%rax, %rbx
 3835 1800 E8000000 		call	__cxa_end_catch
 3835      00
 3836 1805 4889DF   		movq	%rbx, %rdi
 3837              	.LEHB174:
 3838 1808 E8000000 		call	_Unwind_Resume
 3838      00
 3839              	.LEHE174:
 3840              	.L350:
 3841 180d 4889C7   		movq	%rax, %rdi
 3842 1810 E8000000 		call	__cxa_begin_catch
 3842      00
 3843              	.LEHB175:
 3844 1815 E8000000 		call	_ZN8UnitTest11CurrentTest7DetailsEv
 3844      00
 3845 181a 488B30   		movq	(%rax), %rsi
 3846 181d BA5E0000 		movl	$94, %edx
 3846      00
 3847 1822 4889DF   		movq	%rbx, %rdi
 3848 1825 E8000000 		call	_ZN8UnitTest11TestDetailsC1ERKS0_i
 3848      00
 3849 182a E8000000 		call	_ZN8UnitTest11CurrentTest7ResultsEv
 3849      00
 3850 182f 488B38   		movq	(%rax), %rdi
 3851 1832 BA000000 		movl	$.LC14, %edx
 3851      00
 3852 1837 4889DE   		movq	%rbx, %rsi
 3853 183a E8000000 		call	_ZN8UnitTest11TestResults13OnTestFailureERKNS_11TestDetailsEPKc
 3853      00
 3854              	.LEHE175:
 3855              	.LEHB176:
 3856 183f E8000000 		call	__cxa_end_catch
 3856      00
 3857              	.LEHE176:
 3858 1844 E9A2F9FF 		jmp	.L311
 3858      FF
 3859              	.L348:
 3860 1849 4889C7   		movq	%rax, %rdi
 3861 184c 0F1F4000 		.p2align 4,,5
 3862 1850 E8000000 		call	__cxa_begin_catch
 3862      00
 3863              		.p2align 4,,5
 3864              	.LEHB177:
 3865 1855 E8000000 		call	_ZN8UnitTest11CurrentTest7DetailsEv
 3865      00
 3866 185a 488B30   		movq	(%rax), %rsi
 3867 185d BA5D0000 		movl	$93, %edx
 3867      00
 3868 1862 4889DF   		movq	%rbx, %rdi
 3869 1865 E8000000 		call	_ZN8UnitTest11TestDetailsC1ERKS0_i
 3869      00
 3870 186a E8000000 		call	_ZN8UnitTest11CurrentTest7ResultsEv
 3870      00
 3871 186f 488B38   		movq	(%rax), %rdi
 3872 1872 BA000000 		movl	$.LC4, %edx
 3872      00
 3873 1877 4889DE   		movq	%rbx, %rsi
 3874 187a E8000000 		call	_ZN8UnitTest11TestResults13OnTestFailureERKNS_11TestDetailsEPKc
 3874      00
 3875              	.LEHE177:
 3876              	.LEHB178:
 3877 187f E8000000 		call	__cxa_end_catch
 3877      00
 3878              	.LEHE178:
 3879 1884 E927F9FF 		jmp	.L308
 3879      FF
 3880              	.L351:
 3881 1889 4889C3   		movq	%rax, %rbx
 3882 188c 0F1F4000 		.p2align 4,,5
 3883 1890 E8000000 		call	__cxa_end_catch
 3883      00
 3884 1895 4889DF   		movq	%rbx, %rdi
 3885              	.LEHB179:
 3886 1898 E8000000 		call	_Unwind_Resume
 3886      00
 3887              	.LEHE179:
 3888              	.L349:
 3889 189d 4889C3   		movq	%rax, %rbx
 3890 18a0 E8000000 		call	__cxa_end_catch
 3890      00
 3891 18a5 4889DF   		movq	%rbx, %rdi
 3892              	.LEHB180:
 3893 18a8 E8000000 		call	_Unwind_Resume
 3893      00
 3894              	.LEHE180:
 3895              	.L346:
 3896 18ad 4889C7   		movq	%rax, %rdi
 3897 18b0 E8000000 		call	__cxa_begin_catch
 3897      00
 3898              	.LEHB181:
 3899 18b5 E8000000 		call	_ZN8UnitTest11CurrentTest7DetailsEv
 3899      00
 3900 18ba 488B30   		movq	(%rax), %rsi
 3901 18bd BA590000 		movl	$89, %edx
 3901      00
 3902 18c2 4889DF   		movq	%rbx, %rdi
 3903 18c5 E8000000 		call	_ZN8UnitTest11TestDetailsC1ERKS0_i
 3903      00
 3904 18ca E8000000 		call	_ZN8UnitTest11CurrentTest7ResultsEv
 3904      00
 3905 18cf 488B38   		movq	(%rax), %rdi
 3906 18d2 BA000000 		movl	$.LC13, %edx
 3906      00
 3907 18d7 4889DE   		movq	%rbx, %rsi
 3908 18da E8000000 		call	_ZN8UnitTest11TestResults13OnTestFailureERKNS_11TestDetailsEPKc
 3908      00
 3909              	.LEHE181:
 3910              	.LEHB182:
 3911 18df E8000000 		call	__cxa_end_catch
 3911      00
 3912              	.LEHE182:
 3913 18e4 E968F8FF 		jmp	.L305
 3913      FF
 3914              	.L344:
 3915 18e9 4889C7   		movq	%rax, %rdi
 3916 18ec 0F1F4000 		.p2align 4,,5
 3917 18f0 E8000000 		call	__cxa_begin_catch
 3917      00
 3918              		.p2align 4,,5
 3919              	.LEHB183:
 3920 18f5 E8000000 		call	_ZN8UnitTest11CurrentTest7DetailsEv
 3920      00
 3921 18fa 488B30   		movq	(%rax), %rsi
 3922 18fd BA580000 		movl	$88, %edx
 3922      00
 3923 1902 4889DF   		movq	%rbx, %rdi
 3924 1905 E8000000 		call	_ZN8UnitTest11TestDetailsC1ERKS0_i
 3924      00
 3925 190a E8000000 		call	_ZN8UnitTest11CurrentTest7ResultsEv
 3925      00
 3926 190f 488B38   		movq	(%rax), %rdi
 3927 1912 BA000000 		movl	$.LC4, %edx
 3927      00
 3928 1917 4889DE   		movq	%rbx, %rsi
 3929 191a E8000000 		call	_ZN8UnitTest11TestResults13OnTestFailureERKNS_11TestDetailsEPKc
 3929      00
 3930              	.LEHE183:
 3931              	.LEHB184:
 3932 191f E8000000 		call	__cxa_end_catch
 3932      00
 3933              	.LEHE184:
 3934 1924 E9EDF7FF 		jmp	.L302
 3934      FF
 3935              	.L347:
 3936 1929 4889C3   		movq	%rax, %rbx
 3937 192c 0F1F4000 		.p2align 4,,5
 3938 1930 E8000000 		call	__cxa_end_catch
 3938      00
 3939 1935 4889DF   		movq	%rbx, %rdi
 3940              	.LEHB185:
 3941 1938 E8000000 		call	_Unwind_Resume
 3941      00
 3942              	.LEHE185:
 3943              	.L345:
 3944 193d 4889C3   		movq	%rax, %rbx
 3945 1940 E8000000 		call	__cxa_end_catch
 3945      00
 3946 1945 4889DF   		movq	%rbx, %rdi
 3947              	.LEHB186:
 3948 1948 E8000000 		call	_Unwind_Resume
 3948      00
 3949              	.LEHE186:
 3950              		.cfi_endproc
 3951              	.LFE1111:
 3952              		.section	.gcc_except_table
 3953              		.align 4
 3954              	.LLSDA1111:
 3955 02d4 FF       		.byte	0xff
 3956 02d5 03       		.byte	0x3
 3957 02d6 F002     		.uleb128 .LLSDATT1111-.LLSDATTD1111
 3958              	.LLSDATTD1111:
 3959 02d8 01       		.byte	0x1
 3960 02d9 E402     		.uleb128 .LLSDACSE1111-.LLSDACSB1111
 3961              	.LLSDACSB1111:
 3962 02db 27       		.uleb128 .LEHB121-.LFB1111
 3963 02dc 05       		.uleb128 .LEHE121-.LEHB121
 3964 02dd 00       		.uleb128 0
 3965 02de 00       		.uleb128 0
 3966 02df 30       		.uleb128 .LEHB122-.LFB1111
 3967 02e0 3C       		.uleb128 .LEHE122-.LEHB122
 3968 02e1 BD08     		.uleb128 .L342-.LFB1111
 3969 02e3 01       		.uleb128 0x1
 3970 02e4 76       		.uleb128 .LEHB123-.LFB1111
 3971 02e5 05       		.uleb128 .LEHE123-.LEHB123
 3972 02e6 00       		.uleb128 0
 3973 02e7 00       		.uleb128 0
 3974 02e8 7F       		.uleb128 .LEHB124-.LFB1111
 3975 02e9 37       		.uleb128 .LEHE124-.LEHB124
 3976 02ea 8911     		.uleb128 .L344-.LFB1111
 3977 02ec 01       		.uleb128 0x1
 3978 02ed B601     		.uleb128 .LEHB125-.LFB1111
 3979 02ef 3B       		.uleb128 .LEHE125-.LEHB125
 3980 02f0 CD10     		.uleb128 .L346-.LFB1111
 3981 02f2 01       		.uleb128 0x1
 3982 02f3 8102     		.uleb128 .LEHB126-.LFB1111
 3983 02f5 14       		.uleb128 .LEHE126-.LEHB126
 3984 02f6 00       		.uleb128 0
 3985 02f7 00       		.uleb128 0
 3986 02f8 9902     		.uleb128 .LEHB127-.LFB1111
 3987 02fa 37       		.uleb128 .LEHE127-.LEHB127
 3988 02fb E90F     		.uleb128 .L348-.LFB1111
 3989 02fd 01       		.uleb128 0x1
 3990 02fe D002     		.uleb128 .LEHB128-.LFB1111
 3991 0300 3B       		.uleb128 .LEHE128-.LEHB128
 3992 0301 AD0F     		.uleb128 .L350-.LFB1111
 3993 0303 01       		.uleb128 0x1
 3994 0304 9B03     		.uleb128 .LEHB129-.LFB1111
 3995 0306 14       		.uleb128 .LEHE129-.LEHB129
 3996 0307 00       		.uleb128 0
 3997 0308 00       		.uleb128 0
 3998 0309 B303     		.uleb128 .LEHB130-.LFB1111
 3999 030b 37       		.uleb128 .LEHE130-.LEHB130
 4000 030c C90E     		.uleb128 .L352-.LFB1111
 4001 030e 01       		.uleb128 0x1
 4002 030f EA03     		.uleb128 .LEHB131-.LFB1111
 4003 0311 3B       		.uleb128 .LEHE131-.LEHB131
 4004 0312 8D0E     		.uleb128 .L354-.LFB1111
 4005 0314 01       		.uleb128 0x1
 4006 0315 B504     		.uleb128 .LEHB132-.LFB1111
 4007 0317 05       		.uleb128 .LEHE132-.LEHB132
 4008 0318 00       		.uleb128 0
 4009 0319 00       		.uleb128 0
 4010 031a BA04     		.uleb128 .LEHB133-.LFB1111
 4011 031c 38       		.uleb128 .LEHE133-.LEHB133
 4012 031d A90D     		.uleb128 .L356-.LFB1111
 4013 031f 01       		.uleb128 0x1
 4014 0320 F204     		.uleb128 .LEHB134-.LFB1111
 4015 0322 38       		.uleb128 .LEHE134-.LEHB134
 4016 0323 ED0C     		.uleb128 .L358-.LFB1111
 4017 0325 01       		.uleb128 0x1
 4018 0326 AA05     		.uleb128 .LEHB135-.LFB1111
 4019 0328 38       		.uleb128 .LEHE135-.LEHB135
 4020 0329 890C     		.uleb128 .L360-.LFB1111
 4021 032b 01       		.uleb128 0x1
 4022 032c E205     		.uleb128 .LEHB136-.LFB1111
 4023 032e 38       		.uleb128 .LEHE136-.LEHB136
 4024 032f CD0B     		.uleb128 .L362-.LFB1111
 4025 0331 01       		.uleb128 0x1
 4026 0332 9A06     		.uleb128 .LEHB137-.LFB1111
 4027 0334 43       		.uleb128 .LEHE137-.LEHB137
 4028 0335 E90A     		.uleb128 .L364-.LFB1111
 4029 0337 01       		.uleb128 0x1
 4030 0338 DD06     		.uleb128 .LEHB138-.LFB1111
 4031 033a 44       		.uleb128 .LEHE138-.LEHB138
 4032 033b AD0A     		.uleb128 .L366-.LFB1111
 4033 033d 01       		.uleb128 0x1
 4034 033e A107     		.uleb128 .LEHB139-.LFB1111
 4035 0340 44       		.uleb128 .LEHE139-.LEHB139
 4036 0341 BA09     		.uleb128 .L368-.LFB1111
 4037 0343 01       		.uleb128 0x1
 4038 0344 E507     		.uleb128 .LEHB140-.LFB1111
 4039 0346 44       		.uleb128 .LEHE140-.LEHB140
 4040 0347 FE08     		.uleb128 .L370-.LFB1111
 4041 0349 01       		.uleb128 0x1
 4042 034a AE08     		.uleb128 .LEHB141-.LFB1111
 4043 034c 05       		.uleb128 .LEHE141-.LEHB141
 4044 034d 00       		.uleb128 0
 4045 034e 00       		.uleb128 0
 4046 034f C508     		.uleb128 .LEHB142-.LFB1111
 4047 0351 2F       		.uleb128 .LEHE142-.LEHB142
 4048 0352 F909     		.uleb128 .L343-.LFB1111
 4049 0354 00       		.uleb128 0
 4050 0355 F408     		.uleb128 .LEHB143-.LFB1111
 4051 0357 05       		.uleb128 .LEHE143-.LEHB143
 4052 0358 00       		.uleb128 0
 4053 0359 00       		.uleb128 0
 4054 035a 8609     		.uleb128 .LEHB144-.LFB1111
 4055 035c 2A       		.uleb128 .LEHE144-.LEHB144
 4056 035d 8D0A     		.uleb128 .L371-.LFB1111
 4057 035f 00       		.uleb128 0
 4058 0360 B009     		.uleb128 .LEHB145-.LFB1111
 4059 0362 05       		.uleb128 .LEHE145-.LEHB145
 4060 0363 00       		.uleb128 0
 4061 0364 00       		.uleb128 0
 4062 0365 C509     		.uleb128 .LEHB146-.LFB1111
 4063 0367 2A       		.uleb128 .LEHE146-.LEHB146
 4064 0368 9D0A     		.uleb128 .L369-.LFB1111
 4065 036a 00       		.uleb128 0
 4066 036b EF09     		.uleb128 .LEHB147-.LFB1111
 4067 036d 05       		.uleb128 .LEHE147-.LEHB147
 4068 036e 00       		.uleb128 0
 4069 036f 00       		.uleb128 0
 4070 0370 880A     		.uleb128 .LEHB148-.LFB1111
 4071 0372 05       		.uleb128 .LEHE148-.LEHB148
 4072 0373 00       		.uleb128 0
 4073 0374 00       		.uleb128 0
 4074 0375 980A     		.uleb128 .LEHB149-.LFB1111
 4075 0377 05       		.uleb128 .LEHE149-.LEHB149
 4076 0378 00       		.uleb128 0
 4077 0379 00       		.uleb128 0
 4078 037a A80A     		.uleb128 .LEHB150-.LFB1111
 4079 037c 05       		.uleb128 .LEHE150-.LEHB150
 4080 037d 00       		.uleb128 0
 4081 037e 00       		.uleb128 0
 4082 037f B50A     		.uleb128 .LEHB151-.LFB1111
 4083 0381 2A       		.uleb128 .LEHE151-.LEHB151
 4084 0382 A90B     		.uleb128 .L367-.LFB1111
 4085 0384 00       		.uleb128 0
 4086 0385 DF0A     		.uleb128 .LEHB152-.LFB1111
 4087 0387 05       		.uleb128 .LEHE152-.LEHB152
 4088 0388 00       		.uleb128 0
 4089 0389 00       		.uleb128 0
 4090 038a F50A     		.uleb128 .LEHB153-.LFB1111
 4091 038c 2A       		.uleb128 .LEHE153-.LEHB153
 4092 038d BD0B     		.uleb128 .L365-.LFB1111
 4093 038f 00       		.uleb128 0
 4094 0390 9F0B     		.uleb128 .LEHB154-.LFB1111
 4095 0392 05       		.uleb128 .LEHE154-.LEHB154
 4096 0393 00       		.uleb128 0
 4097 0394 00       		.uleb128 0
 4098 0395 B80B     		.uleb128 .LEHB155-.LFB1111
 4099 0397 05       		.uleb128 .LEHE155-.LEHB155
 4100 0398 00       		.uleb128 0
 4101 0399 00       		.uleb128 0
 4102 039a C80B     		.uleb128 .LEHB156-.LFB1111
 4103 039c 05       		.uleb128 .LEHE156-.LEHB156
 4104 039d 00       		.uleb128 0
 4105 039e 00       		.uleb128 0
 4106 039f D50B     		.uleb128 .LEHB157-.LFB1111
 4107 03a1 2A       		.uleb128 .LEHE157-.LEHB157
 4108 03a2 C90C     		.uleb128 .L363-.LFB1111
 4109 03a4 00       		.uleb128 0
 4110 03a5 FF0B     		.uleb128 .LEHB158-.LFB1111
 4111 03a7 05       		.uleb128 .LEHE158-.LEHB158
 4112 03a8 00       		.uleb128 0
 4113 03a9 00       		.uleb128 0
 4114 03aa 950C     		.uleb128 .LEHB159-.LFB1111
 4115 03ac 2A       		.uleb128 .LEHE159-.LEHB159
 4116 03ad DD0C     		.uleb128 .L361-.LFB1111
 4117 03af 00       		.uleb128 0
 4118 03b0 BF0C     		.uleb128 .LEHB160-.LFB1111
 4119 03b2 05       		.uleb128 .LEHE160-.LEHB160
 4120 03b3 00       		.uleb128 0
 4121 03b4 00       		.uleb128 0
 4122 03b5 D80C     		.uleb128 .LEHB161-.LFB1111
 4123 03b7 05       		.uleb128 .LEHE161-.LEHB161
 4124 03b8 00       		.uleb128 0
 4125 03b9 00       		.uleb128 0
 4126 03ba E80C     		.uleb128 .LEHB162-.LFB1111
 4127 03bc 05       		.uleb128 .LEHE162-.LEHB162
 4128 03bd 00       		.uleb128 0
 4129 03be 00       		.uleb128 0
 4130 03bf F50C     		.uleb128 .LEHB163-.LFB1111
 4131 03c1 2A       		.uleb128 .LEHE163-.LEHB163
 4132 03c2 E90D     		.uleb128 .L359-.LFB1111
 4133 03c4 00       		.uleb128 0
 4134 03c5 9F0D     		.uleb128 .LEHB164-.LFB1111
 4135 03c7 05       		.uleb128 .LEHE164-.LEHB164
 4136 03c8 00       		.uleb128 0
 4137 03c9 00       		.uleb128 0
 4138 03ca B50D     		.uleb128 .LEHB165-.LFB1111
 4139 03cc 2A       		.uleb128 .LEHE165-.LEHB165
 4140 03cd FD0D     		.uleb128 .L357-.LFB1111
 4141 03cf 00       		.uleb128 0
 4142 03d0 DF0D     		.uleb128 .LEHB166-.LFB1111
 4143 03d2 05       		.uleb128 .LEHE166-.LEHB166
 4144 03d3 00       		.uleb128 0
 4145 03d4 00       		.uleb128 0
 4146 03d5 F80D     		.uleb128 .LEHB167-.LFB1111
 4147 03d7 05       		.uleb128 .LEHE167-.LEHB167
 4148 03d8 00       		.uleb128 0
 4149 03d9 00       		.uleb128 0
 4150 03da 880E     		.uleb128 .LEHB168-.LFB1111
 4151 03dc 05       		.uleb128 .LEHE168-.LEHB168
 4152 03dd 00       		.uleb128 0
 4153 03de 00       		.uleb128 0
 4154 03df 950E     		.uleb128 .LEHB169-.LFB1111
 4155 03e1 2A       		.uleb128 .LEHE169-.LEHB169
 4156 03e2 890F     		.uleb128 .L355-.LFB1111
 4157 03e4 00       		.uleb128 0
 4158 03e5 BF0E     		.uleb128 .LEHB170-.LFB1111
 4159 03e7 05       		.uleb128 .LEHE170-.LEHB170
 4160 03e8 00       		.uleb128 0
 4161 03e9 00       		.uleb128 0
 4162 03ea D50E     		.uleb128 .LEHB171-.LFB1111
 4163 03ec 2A       		.uleb128 .LEHE171-.LEHB171
 4164 03ed 9D0F     		.uleb128 .L353-.LFB1111
 4165 03ef 00       		.uleb128 0
 4166 03f0 FF0E     		.uleb128 .LEHB172-.LFB1111
 4167 03f2 05       		.uleb128 .LEHE172-.LEHB172
 4168 03f3 00       		.uleb128 0
 4169 03f4 00       		.uleb128 0
 4170 03f5 980F     		.uleb128 .LEHB173-.LFB1111
 4171 03f7 05       		.uleb128 .LEHE173-.LEHB173
 4172 03f8 00       		.uleb128 0
 4173 03f9 00       		.uleb128 0
 4174 03fa A80F     		.uleb128 .LEHB174-.LFB1111
 4175 03fc 05       		.uleb128 .LEHE174-.LEHB174
 4176 03fd 00       		.uleb128 0
 4177 03fe 00       		.uleb128 0
 4178 03ff B50F     		.uleb128 .LEHB175-.LFB1111
 4179 0401 2A       		.uleb128 .LEHE175-.LEHB175
 4180 0402 A910     		.uleb128 .L351-.LFB1111
 4181 0404 00       		.uleb128 0
 4182 0405 DF0F     		.uleb128 .LEHB176-.LFB1111
 4183 0407 05       		.uleb128 .LEHE176-.LEHB176
 4184 0408 00       		.uleb128 0
 4185 0409 00       		.uleb128 0
 4186 040a F50F     		.uleb128 .LEHB177-.LFB1111
 4187 040c 2A       		.uleb128 .LEHE177-.LEHB177
 4188 040d BD10     		.uleb128 .L349-.LFB1111
 4189 040f 00       		.uleb128 0
 4190 0410 9F10     		.uleb128 .LEHB178-.LFB1111
 4191 0412 05       		.uleb128 .LEHE178-.LEHB178
 4192 0413 00       		.uleb128 0
 4193 0414 00       		.uleb128 0
 4194 0415 B810     		.uleb128 .LEHB179-.LFB1111
 4195 0417 05       		.uleb128 .LEHE179-.LEHB179
 4196 0418 00       		.uleb128 0
 4197 0419 00       		.uleb128 0
 4198 041a C810     		.uleb128 .LEHB180-.LFB1111
 4199 041c 05       		.uleb128 .LEHE180-.LEHB180
 4200 041d 00       		.uleb128 0
 4201 041e 00       		.uleb128 0
 4202 041f D510     		.uleb128 .LEHB181-.LFB1111
 4203 0421 2A       		.uleb128 .LEHE181-.LEHB181
 4204 0422 C911     		.uleb128 .L347-.LFB1111
 4205 0424 00       		.uleb128 0
 4206 0425 FF10     		.uleb128 .LEHB182-.LFB1111
 4207 0427 05       		.uleb128 .LEHE182-.LEHB182
 4208 0428 00       		.uleb128 0
 4209 0429 00       		.uleb128 0
 4210 042a 9511     		.uleb128 .LEHB183-.LFB1111
 4211 042c 2A       		.uleb128 .LEHE183-.LEHB183
 4212 042d DD11     		.uleb128 .L345-.LFB1111
 4213 042f 00       		.uleb128 0
 4214 0430 BF11     		.uleb128 .LEHB184-.LFB1111
 4215 0432 05       		.uleb128 .LEHE184-.LEHB184
 4216 0433 00       		.uleb128 0
 4217 0434 00       		.uleb128 0
 4218 0435 D811     		.uleb128 .LEHB185-.LFB1111
 4219 0437 05       		.uleb128 .LEHE185-.LEHB185
 4220 0438 00       		.uleb128 0
 4221 0439 00       		.uleb128 0
 4222 043a E811     		.uleb128 .LEHB186-.LFB1111
 4223 043c 05       		.uleb128 .LEHE186-.LEHB186
 4224 043d 00       		.uleb128 0
 4225 043e 00       		.uleb128 0
 4226              	.LLSDACSE1111:
 4227 043f 01       		.byte	0x1
 4228 0440 00       		.byte	0
 4229 0441 000000   		.align 4
 4230 0444 00000000 		.long	0
 4231              	
 4232              	.LLSDATT1111:
 4233              		.text
 4235              		.section	.rodata.str1.8
 4236 048b 00000000 		.align 8
 4236      00
 4237              	.LC21:
 4238 0490 556E6861 		.string	"Unhandled exception in CHECK_EQUAL(4UL, *item)"
 4238      6E646C65 
 4238      64206578 
 4238      63657074 
 4238      696F6E20 
 4239 04bf 00       		.align 8
 4240              	.LC22:
 4241 04c0 556E6861 		.string	"Unhandled exception in CHECK_EQUAL(4UL, queue.numItems)"
 4241      6E646C65 
 4241      64206578 
 4241      63657074 
 4241      696F6E20 
 4242              		.align 8
 4243              	.LC23:
 4244 04f8 556E6861 		.string	"Unhandled exception in CHECK_EQUAL(8UL, deref(queue.itemArray[3]))"
 4244      6E646C65 
 4244      64206578 
 4244      63657074 
 4244      696F6E20 
 4245              		.text
 4246 194d 90       		.align 2
 4247 194e 6690     		.p2align 4,,15
 4248              		.globl	_ZNK21TestQueue_testPutWrap7RunImplEv
 4250              	_ZNK21TestQueue_testPutWrap7RunImplEv:
 4251              	.LFB1115:
 4252              		.cfi_startproc
 4253              		.cfi_personality 0x3,__gxx_personality_v0
 4254              		.cfi_lsda 0x3,.LLSDA1115
 4255 1950 55       		pushq	%rbp
 4256              		.cfi_def_cfa_offset 16
 4257              		.cfi_offset 6, -16
 4258 1951 B9000000 		movl	$destroyInt, %ecx
 4258      00
 4259 1956 BA000000 		movl	$createInt, %edx
 4259      00
 4260 195b BE040000 		movl	$4, %esi
 4260      00
 4261 1960 53       		pushq	%rbx
 4262              		.cfi_def_cfa_offset 24
 4263              		.cfi_offset 3, -24
 4264 1961 4881EC98 		subq	$152, %rsp
 4264      000000
 4265              		.cfi_def_cfa_offset 176
 4266 1968 C7050000 		movl	$1, _ZL7m_count(%rip)
 4266      00000100 
 4266      0000
 4267 1972 488D7C24 		leaq	80(%rsp), %rdi
 4267      50
 4268              	.LEHB187:
 4269 1977 E8000000 		call	queueInit
 4269      00
 4270              	.LEHE187:
 4271 197c 8944240C 		movl	%eax, 12(%rsp)
 4272              	.LEHB188:
 4273 1980 E8000000 		call	_ZN8UnitTest11CurrentTest7DetailsEv
 4273      00
 4274 1985 488D5C24 		leaq	48(%rsp), %rbx
 4274      30
 4275 198a 488B30   		movq	(%rax), %rsi
 4276 198d BA7E0000 		movl	$126, %edx
 4276      00
 4277 1992 4889DF   		movq	%rbx, %rdi
 4278 1995 E8000000 		call	_ZN8UnitTest11TestDetailsC1ERKS0_i
 4278      00
 4279 199a C7442420 		movl	$0, 32(%rsp)
 4279      00000000 
 4280 19a2 E8000000 		call	_ZN8UnitTest11CurrentTest7ResultsEv
 4280      00
 4281 19a7 488B38   		movq	(%rax), %rdi
 4282 19aa 488D5424 		leaq	12(%rsp), %rdx
 4282      0C
 4283 19af 488D7424 		leaq	32(%rsp), %rsi
 4283      20
 4284 19b4 4889D9   		movq	%rbx, %rcx
 4285 19b7 E8000000 		call	_ZN8UnitTest10CheckEqualI9USBStatusS1_EEvRNS_11TestResultsERKT_RKT0_RKNS_11TestDetailsE
 4285      00
 4286              	.LEHE188:
 4287              	.L377:
 4288 19bc 488D7424 		leaq	16(%rsp), %rsi
 4288      10
 4289 19c1 488D7C24 		leaq	80(%rsp), %rdi
 4289      50
 4290              	.LEHB189:
 4291 19c6 E8000000 		call	queuePut
 4291      00
 4292              	.LEHE189:
 4293 19cb 8944240C 		movl	%eax, 12(%rsp)
 4294              	.LEHB190:
 4295 19cf E8000000 		call	_ZN8UnitTest11CurrentTest7DetailsEv
 4295      00
 4296 19d4 488B30   		movq	(%rax), %rsi
 4297 19d7 BA820000 		movl	$130, %edx
 4297      00
 4298 19dc 4889DF   		movq	%rbx, %rdi
 4299 19df E8000000 		call	_ZN8UnitTest11TestDetailsC1ERKS0_i
 4299      00
 4300 19e4 C7442420 		movl	$0, 32(%rsp)
 4300      00000000 
 4301 19ec E8000000 		call	_ZN8UnitTest11CurrentTest7ResultsEv
 4301      00
 4302 19f1 488B38   		movq	(%rax), %rdi
 4303 19f4 488D5424 		leaq	12(%rsp), %rdx
 4303      0C
 4304 19f9 488D7424 		leaq	32(%rsp), %rsi
 4304      20
 4305 19fe 4889D9   		movq	%rbx, %rcx
 4306 1a01 E8000000 		call	_ZN8UnitTest10CheckEqualI9USBStatusS1_EEvRNS_11TestResultsERKT_RKT0_RKNS_11TestDetailsE
 4306      00
 4307              	.LEHE190:
 4308              	.L380:
 4309              	.LEHB191:
 4310 1a06 E8000000 		call	_ZN8UnitTest11CurrentTest7DetailsEv
 4310      00
 4311 1a0b 488B30   		movq	(%rax), %rsi
 4312 1a0e BA830000 		movl	$131, %edx
 4312      00
 4313 1a13 4889DF   		movq	%rbx, %rdi
 4314 1a16 E8000000 		call	_ZN8UnitTest11TestDetailsC1ERKS0_i
 4314      00
 4315 1a1b 488B6C24 		movq	16(%rsp), %rbp
 4315      10
 4316 1a20 48C74424 		movq	$1, 32(%rsp)
 4316      20010000 
 4316      00
 4317 1a29 E8000000 		call	_ZN8UnitTest11CurrentTest7ResultsEv
 4317      00
 4318 1a2e 488B38   		movq	(%rax), %rdi
 4319 1a31 488D7424 		leaq	32(%rsp), %rsi
 4319      20
 4320 1a36 4889D9   		movq	%rbx, %rcx
 4321 1a39 4889EA   		movq	%rbp, %rdx
 4322 1a3c E8000000 		call	_ZN8UnitTest10CheckEqualImjEEvRNS_11TestResultsERKT_RKT0_RKNS_11TestDetailsE
 4322      00
 4323              	.LEHE191:
 4324              	.L383:
 4325 1a41 488B4424 		movq	16(%rsp), %rax
 4325      10
 4326 1a46 488D7C24 		leaq	80(%rsp), %rdi
 4326      50
 4327 1a4b C7000500 		movl	$5, (%rax)
 4327      0000
 4328              	.LEHB192:
 4329 1a51 E8000000 		call	queueCommitPut
 4329      00
 4330 1a56 488D7424 		leaq	16(%rsp), %rsi
 4330      10
 4331 1a5b 488D7C24 		leaq	80(%rsp), %rdi
 4331      50
 4332 1a60 E8000000 		call	queuePut
 4332      00
 4333              	.LEHE192:
 4334 1a65 8944240C 		movl	%eax, 12(%rsp)
 4335              	.LEHB193:
 4336 1a69 E8000000 		call	_ZN8UnitTest11CurrentTest7DetailsEv
 4336      00
 4337 1a6e 488B30   		movq	(%rax), %rsi
 4338 1a71 BA870000 		movl	$135, %edx
 4338      00
 4339 1a76 4889DF   		movq	%rbx, %rdi
 4340 1a79 E8000000 		call	_ZN8UnitTest11TestDetailsC1ERKS0_i
 4340      00
 4341 1a7e C7442420 		movl	$0, 32(%rsp)
 4341      00000000 
 4342 1a86 E8000000 		call	_ZN8UnitTest11CurrentTest7ResultsEv
 4342      00
 4343 1a8b 488B38   		movq	(%rax), %rdi
 4344 1a8e 488D5424 		leaq	12(%rsp), %rdx
 4344      0C
 4345 1a93 488D7424 		leaq	32(%rsp), %rsi
 4345      20
 4346 1a98 4889D9   		movq	%rbx, %rcx
 4347 1a9b E8000000 		call	_ZN8UnitTest10CheckEqualI9USBStatusS1_EEvRNS_11TestResultsERKT_RKT0_RKNS_11TestDetailsE
 4347      00
 4348              	.LEHE193:
 4349              	.L386:
 4350              	.LEHB194:
 4351 1aa0 E8000000 		call	_ZN8UnitTest11CurrentTest7DetailsEv
 4351      00
 4352 1aa5 488B30   		movq	(%rax), %rsi
 4353 1aa8 BA880000 		movl	$136, %edx
 4353      00
 4354 1aad 4889DF   		movq	%rbx, %rdi
 4355 1ab0 E8000000 		call	_ZN8UnitTest11TestDetailsC1ERKS0_i
 4355      00
 4356 1ab5 488B6C24 		movq	16(%rsp), %rbp
 4356      10
 4357 1aba 48C74424 		movq	$2, 32(%rsp)
 4357      20020000 
 4357      00
 4358 1ac3 E8000000 		call	_ZN8UnitTest11CurrentTest7ResultsEv
 4358      00
 4359 1ac8 488B38   		movq	(%rax), %rdi
 4360 1acb 488D7424 		leaq	32(%rsp), %rsi
 4360      20
 4361 1ad0 4889D9   		movq	%rbx, %rcx
 4362 1ad3 4889EA   		movq	%rbp, %rdx
 4363 1ad6 E8000000 		call	_ZN8UnitTest10CheckEqualImjEEvRNS_11TestResultsERKT_RKT0_RKNS_11TestDetailsE
 4363      00
 4364              	.LEHE194:
 4365              	.L389:
 4366 1adb 488B4424 		movq	16(%rsp), %rax
 4366      10
 4367 1ae0 488D7C24 		leaq	80(%rsp), %rdi
 4367      50
 4368 1ae5 C7000600 		movl	$6, (%rax)
 4368      0000
 4369              	.LEHB195:
 4370 1aeb E8000000 		call	queueCommitPut
 4370      00
 4371 1af0 488D7424 		leaq	16(%rsp), %rsi
 4371      10
 4372 1af5 488D7C24 		leaq	80(%rsp), %rdi
 4372      50
 4373 1afa E8000000 		call	queuePut
 4373      00
 4374              	.LEHE195:
 4375 1aff 8944240C 		movl	%eax, 12(%rsp)
 4376              	.LEHB196:
 4377 1b03 E8000000 		call	_ZN8UnitTest11CurrentTest7DetailsEv
 4377      00
 4378 1b08 488B30   		movq	(%rax), %rsi
 4379 1b0b BA8C0000 		movl	$140, %edx
 4379      00
 4380 1b10 4889DF   		movq	%rbx, %rdi
 4381 1b13 E8000000 		call	_ZN8UnitTest11TestDetailsC1ERKS0_i
 4381      00
 4382 1b18 C7442420 		movl	$0, 32(%rsp)
 4382      00000000 
 4383 1b20 E8000000 		call	_ZN8UnitTest11CurrentTest7ResultsEv
 4383      00
 4384 1b25 488B38   		movq	(%rax), %rdi
 4385 1b28 488D5424 		leaq	12(%rsp), %rdx
 4385      0C
 4386 1b2d 488D7424 		leaq	32(%rsp), %rsi
 4386      20
 4387 1b32 4889D9   		movq	%rbx, %rcx
 4388 1b35 E8000000 		call	_ZN8UnitTest10CheckEqualI9USBStatusS1_EEvRNS_11TestResultsERKT_RKT0_RKNS_11TestDetailsE
 4388      00
 4389              	.LEHE196:
 4390              	.L392:
 4391              	.LEHB197:
 4392 1b3a E8000000 		call	_ZN8UnitTest11CurrentTest7DetailsEv
 4392      00
 4393 1b3f 488B30   		movq	(%rax), %rsi
 4394 1b42 BA8D0000 		movl	$141, %edx
 4394      00
 4395 1b47 4889DF   		movq	%rbx, %rdi
 4396 1b4a E8000000 		call	_ZN8UnitTest11TestDetailsC1ERKS0_i
 4396      00
 4397 1b4f 488B6C24 		movq	16(%rsp), %rbp
 4397      10
 4398 1b54 48C74424 		movq	$3, 32(%rsp)
 4398      20030000 
 4398      00
 4399 1b5d E8000000 		call	_ZN8UnitTest11CurrentTest7ResultsEv
 4399      00
 4400 1b62 488B38   		movq	(%rax), %rdi
 4401 1b65 488D7424 		leaq	32(%rsp), %rsi
 4401      20
 4402 1b6a 4889D9   		movq	%rbx, %rcx
 4403 1b6d 4889EA   		movq	%rbp, %rdx
 4404 1b70 E8000000 		call	_ZN8UnitTest10CheckEqualImjEEvRNS_11TestResultsERKT_RKT0_RKNS_11TestDetailsE
 4404      00
 4405              	.LEHE197:
 4406              	.L395:
 4407 1b75 488B4424 		movq	16(%rsp), %rax
 4407      10
 4408 1b7a 488D7C24 		leaq	80(%rsp), %rdi
 4408      50
 4409 1b7f C7000700 		movl	$7, (%rax)
 4409      0000
 4410              	.LEHB198:
 4411 1b85 E8000000 		call	queueCommitPut
 4411      00
 4412 1b8a 488D7424 		leaq	16(%rsp), %rsi
 4412      10
 4413 1b8f 488D7C24 		leaq	80(%rsp), %rdi
 4413      50
 4414 1b94 E8000000 		call	queuePut
 4414      00
 4415              	.LEHE198:
 4416 1b99 8944240C 		movl	%eax, 12(%rsp)
 4417              	.LEHB199:
 4418 1b9d E8000000 		call	_ZN8UnitTest11CurrentTest7DetailsEv
 4418      00
 4419 1ba2 488B30   		movq	(%rax), %rsi
 4420 1ba5 BA910000 		movl	$145, %edx
 4420      00
 4421 1baa 4889DF   		movq	%rbx, %rdi
 4422 1bad E8000000 		call	_ZN8UnitTest11TestDetailsC1ERKS0_i
 4422      00
 4423 1bb2 C7442420 		movl	$0, 32(%rsp)
 4423      00000000 
 4424 1bba E8000000 		call	_ZN8UnitTest11CurrentTest7ResultsEv
 4424      00
 4425 1bbf 488B38   		movq	(%rax), %rdi
 4426 1bc2 488D5424 		leaq	12(%rsp), %rdx
 4426      0C
 4427 1bc7 488D7424 		leaq	32(%rsp), %rsi
 4427      20
 4428 1bcc 4889D9   		movq	%rbx, %rcx
 4429 1bcf E8000000 		call	_ZN8UnitTest10CheckEqualI9USBStatusS1_EEvRNS_11TestResultsERKT_RKT0_RKNS_11TestDetailsE
 4429      00
 4430              	.LEHE199:
 4431              	.L398:
 4432              	.LEHB200:
 4433 1bd4 E8000000 		call	_ZN8UnitTest11CurrentTest7DetailsEv
 4433      00
 4434 1bd9 488B30   		movq	(%rax), %rsi
 4435 1bdc BA920000 		movl	$146, %edx
 4435      00
 4436 1be1 4889DF   		movq	%rbx, %rdi
 4437 1be4 E8000000 		call	_ZN8UnitTest11TestDetailsC1ERKS0_i
 4437      00
 4438 1be9 488B6C24 		movq	16(%rsp), %rbp
 4438      10
 4439 1bee 48C74424 		movq	$4, 32(%rsp)
 4439      20040000 
 4439      00
 4440 1bf7 E8000000 		call	_ZN8UnitTest11CurrentTest7ResultsEv
 4440      00
 4441 1bfc 488B38   		movq	(%rax), %rdi
 4442 1bff 488D7424 		leaq	32(%rsp), %rsi
 4442      20
 4443 1c04 4889D9   		movq	%rbx, %rcx
 4444 1c07 4889EA   		movq	%rbp, %rdx
 4445 1c0a E8000000 		call	_ZN8UnitTest10CheckEqualImjEEvRNS_11TestResultsERKT_RKT0_RKNS_11TestDetailsE
 4445      00
 4446              	.LEHE200:
 4447              	.L401:
 4448 1c0f 488B4424 		movq	16(%rsp), %rax
 4448      10
 4449 1c14 488D7C24 		leaq	80(%rsp), %rdi
 4449      50
 4450 1c19 C7000800 		movl	$8, (%rax)
 4450      0000
 4451              	.LEHB201:
 4452 1c1f E8000000 		call	queueCommitPut
 4452      00
 4453              	.LEHE201:
 4454              	.LEHB202:
 4455 1c24 E8000000 		call	_ZN8UnitTest11CurrentTest7DetailsEv
 4455      00
 4456 1c29 488B30   		movq	(%rax), %rsi
 4457 1c2c BA970000 		movl	$151, %edx
 4457      00
 4458 1c31 4889DF   		movq	%rbx, %rdi
 4459 1c34 E8000000 		call	_ZN8UnitTest11TestDetailsC1ERKS0_i
 4459      00
 4460 1c39 48C74424 		movq	$4, 32(%rsp)
 4460      20040000 
 4460      00
 4461 1c42 E8000000 		call	_ZN8UnitTest11CurrentTest7ResultsEv
 4461      00
 4462 1c47 488B38   		movq	(%rax), %rdi
 4463 1c4a 488D5424 		leaq	88(%rsp), %rdx
 4463      58
 4464 1c4f 488D7424 		leaq	32(%rsp), %rsi
 4464      20
 4465 1c54 4889D9   		movq	%rbx, %rcx
 4466 1c57 E8000000 		call	_ZN8UnitTest10CheckEqualImmEEvRNS_11TestResultsERKT_RKT0_RKNS_11TestDetailsE
 4466      00
 4467              	.LEHE202:
 4468              	.L404:
 4469              	.LEHB203:
 4470 1c5c E8000000 		call	_ZN8UnitTest11CurrentTest7DetailsEv
 4470      00
 4471 1c61 488B30   		movq	(%rax), %rsi
 4472 1c64 BA980000 		movl	$152, %edx
 4472      00
 4473 1c69 4889DF   		movq	%rbx, %rdi
 4474 1c6c E8000000 		call	_ZN8UnitTest11TestDetailsC1ERKS0_i
 4474      00
 4475 1c71 48C74424 		movq	$0, 32(%rsp)
 4475      20000000 
 4475      00
 4476 1c7a E8000000 		call	_ZN8UnitTest11CurrentTest7ResultsEv
 4476      00
 4477 1c7f 488B38   		movq	(%rax), %rdi
 4478 1c82 488D5424 		leaq	96(%rsp), %rdx
 4478      60
 4479 1c87 488D7424 		leaq	32(%rsp), %rsi
 4479      20
 4480 1c8c 4889D9   		movq	%rbx, %rcx
 4481 1c8f E8000000 		call	_ZN8UnitTest10CheckEqualImmEEvRNS_11TestResultsERKT_RKT0_RKNS_11TestDetailsE
 4481      00
 4482              	.LEHE203:
 4483              	.L407:
 4484              	.LEHB204:
 4485 1c94 E8000000 		call	_ZN8UnitTest11CurrentTest7DetailsEv
 4485      00
 4486 1c99 488B30   		movq	(%rax), %rsi
 4487 1c9c BA990000 		movl	$153, %edx
 4487      00
 4488 1ca1 4889DF   		movq	%rbx, %rdi
 4489 1ca4 E8000000 		call	_ZN8UnitTest11TestDetailsC1ERKS0_i
 4489      00
 4490 1ca9 48C74424 		movq	$0, 32(%rsp)
 4490      20000000 
 4490      00
 4491 1cb2 E8000000 		call	_ZN8UnitTest11CurrentTest7ResultsEv
 4491      00
 4492 1cb7 488B38   		movq	(%rax), %rdi
 4493 1cba 488D5424 		leaq	104(%rsp), %rdx
 4493      68
 4494 1cbf 488D7424 		leaq	32(%rsp), %rsi
 4494      20
 4495 1cc4 4889D9   		movq	%rbx, %rcx
 4496 1cc7 E8000000 		call	_ZN8UnitTest10CheckEqualImmEEvRNS_11TestResultsERKT_RKT0_RKNS_11TestDetailsE
 4496      00
 4497              	.LEHE204:
 4498              	.L410:
 4499              	.LEHB205:
 4500 1ccc E8000000 		call	_ZN8UnitTest11CurrentTest7DetailsEv
 4500      00
 4501 1cd1 488B30   		movq	(%rax), %rsi
 4502 1cd4 BA9A0000 		movl	$154, %edx
 4502      00
 4503 1cd9 4889DF   		movq	%rbx, %rdi
 4504 1cdc E8000000 		call	_ZN8UnitTest11TestDetailsC1ERKS0_i
 4504      00
 4505 1ce1 48C74424 		movq	$4, 32(%rsp)
 4505      20040000 
 4505      00
 4506 1cea E8000000 		call	_ZN8UnitTest11CurrentTest7ResultsEv
 4506      00
 4507 1cef 488B38   		movq	(%rax), %rdi
 4508 1cf2 488D5424 		leaq	112(%rsp), %rdx
 4508      70
 4509 1cf7 488D7424 		leaq	32(%rsp), %rsi
 4509      20
 4510 1cfc 4889D9   		movq	%rbx, %rcx
 4511 1cff E8000000 		call	_ZN8UnitTest10CheckEqualImmEEvRNS_11TestResultsERKT_RKT0_RKNS_11TestDetailsE
 4511      00
 4512              	.LEHE205:
 4513              	.L413:
 4514              	.LEHB206:
 4515 1d04 E8000000 		call	_ZN8UnitTest11CurrentTest7DetailsEv
 4515      00
 4516 1d09 488B30   		movq	(%rax), %rsi
 4517 1d0c BA9D0000 		movl	$157, %edx
 4517      00
 4518 1d11 4889DF   		movq	%rbx, %rdi
 4519 1d14 E8000000 		call	_ZN8UnitTest11TestDetailsC1ERKS0_i
 4519      00
 4520 1d19 488B4424 		movq	80(%rsp), %rax
 4520      50
 4521 1d1e 488B00   		movq	(%rax), %rax
 4522 1d21 8B00     		movl	(%rax), %eax
 4523 1d23 48C74424 		movq	$5, 32(%rsp)
 4523      20050000 
 4523      00
 4524 1d2c 890424   		movl	%eax, (%rsp)
 4525 1d2f E8000000 		call	_ZN8UnitTest11CurrentTest7ResultsEv
 4525      00
 4526 1d34 488B38   		movq	(%rax), %rdi
 4527 1d37 488D7424 		leaq	32(%rsp), %rsi
 4527      20
 4528 1d3c 4889D9   		movq	%rbx, %rcx
 4529 1d3f 4889E2   		movq	%rsp, %rdx
 4530 1d42 E8000000 		call	_ZN8UnitTest10CheckEqualImjEEvRNS_11TestResultsERKT_RKT0_RKNS_11TestDetailsE
 4530      00
 4531              	.LEHE206:
 4532              	.L416:
 4533              	.LEHB207:
 4534 1d47 E8000000 		call	_ZN8UnitTest11CurrentTest7DetailsEv
 4534      00
 4535 1d4c 488B30   		movq	(%rax), %rsi
 4536 1d4f BA9E0000 		movl	$158, %edx
 4536      00
 4537 1d54 4889DF   		movq	%rbx, %rdi
 4538 1d57 E8000000 		call	_ZN8UnitTest11TestDetailsC1ERKS0_i
 4538      00
 4539 1d5c 488B4424 		movq	80(%rsp), %rax
 4539      50
 4540 1d61 488B4008 		movq	8(%rax), %rax
 4541 1d65 8B00     		movl	(%rax), %eax
 4542 1d67 48C74424 		movq	$6, 32(%rsp)
 4542      20060000 
 4542      00
 4543 1d70 890424   		movl	%eax, (%rsp)
 4544 1d73 E8000000 		call	_ZN8UnitTest11CurrentTest7ResultsEv
 4544      00
 4545 1d78 488B38   		movq	(%rax), %rdi
 4546 1d7b 488D7424 		leaq	32(%rsp), %rsi
 4546      20
 4547 1d80 4889D9   		movq	%rbx, %rcx
 4548 1d83 4889E2   		movq	%rsp, %rdx
 4549 1d86 E8000000 		call	_ZN8UnitTest10CheckEqualImjEEvRNS_11TestResultsERKT_RKT0_RKNS_11TestDetailsE
 4549      00
 4550              	.LEHE207:
 4551              	.L419:
 4552              	.LEHB208:
 4553 1d8b E8000000 		call	_ZN8UnitTest11CurrentTest7DetailsEv
 4553      00
 4554 1d90 488B30   		movq	(%rax), %rsi
 4555 1d93 BA9F0000 		movl	$159, %edx
 4555      00
 4556 1d98 4889DF   		movq	%rbx, %rdi
 4557 1d9b E8000000 		call	_ZN8UnitTest11TestDetailsC1ERKS0_i
 4557      00
 4558 1da0 488B4424 		movq	80(%rsp), %rax
 4558      50
 4559 1da5 488B4010 		movq	16(%rax), %rax
 4560 1da9 8B00     		movl	(%rax), %eax
 4561 1dab 48C74424 		movq	$7, 32(%rsp)
 4561      20070000 
 4561      00
 4562 1db4 890424   		movl	%eax, (%rsp)
 4563 1db7 E8000000 		call	_ZN8UnitTest11CurrentTest7ResultsEv
 4563      00
 4564 1dbc 488B38   		movq	(%rax), %rdi
 4565 1dbf 488D7424 		leaq	32(%rsp), %rsi
 4565      20
 4566 1dc4 4889D9   		movq	%rbx, %rcx
 4567 1dc7 4889E2   		movq	%rsp, %rdx
 4568 1dca E8000000 		call	_ZN8UnitTest10CheckEqualImjEEvRNS_11TestResultsERKT_RKT0_RKNS_11TestDetailsE
 4568      00
 4569              	.LEHE208:
 4570              	.L422:
 4571              	.LEHB209:
 4572 1dcf E8000000 		call	_ZN8UnitTest11CurrentTest7DetailsEv
 4572      00
 4573 1dd4 488B30   		movq	(%rax), %rsi
 4574 1dd7 BAA00000 		movl	$160, %edx
 4574      00
 4575 1ddc 4889DF   		movq	%rbx, %rdi
 4576 1ddf E8000000 		call	_ZN8UnitTest11TestDetailsC1ERKS0_i
 4576      00
 4577 1de4 488B4424 		movq	80(%rsp), %rax
 4577      50
 4578 1de9 488B4018 		movq	24(%rax), %rax
 4579 1ded 8B00     		movl	(%rax), %eax
 4580 1def 48C74424 		movq	$8, 32(%rsp)
 4580      20080000 
 4580      00
 4581 1df8 890424   		movl	%eax, (%rsp)
 4582 1dfb E8000000 		call	_ZN8UnitTest11CurrentTest7ResultsEv
 4582      00
 4583 1e00 488B38   		movq	(%rax), %rdi
 4584 1e03 488D7424 		leaq	32(%rsp), %rsi
 4584      20
 4585 1e08 4889D9   		movq	%rbx, %rcx
 4586 1e0b 4889E2   		movq	%rsp, %rdx
 4587 1e0e E8000000 		call	_ZN8UnitTest10CheckEqualImjEEvRNS_11TestResultsERKT_RKT0_RKNS_11TestDetailsE
 4587      00
 4588              	.LEHE209:
 4589              	.L425:
 4590 1e13 488D7C24 		leaq	80(%rsp), %rdi
 4590      50
 4591              	.LEHB210:
 4592 1e18 E8000000 		call	queueDestroy
 4592      00
 4593              	.LEHE210:
 4594 1e1d 4881C498 		addq	$152, %rsp
 4594      000000
 4595              		.cfi_remember_state
 4596              		.cfi_def_cfa_offset 24
 4597 1e24 5B       		popq	%rbx
 4598              		.cfi_def_cfa_offset 16
 4599 1e25 5D       		popq	%rbp
 4600              		.cfi_def_cfa_offset 8
 4601 1e26 C3       		ret
 4602              	.L426:
 4603              		.cfi_restore_state
 4604 1e27 4889C7   		movq	%rax, %rdi
 4605 1e2a E8000000 		call	__cxa_begin_catch
 4605      00
 4606              	.LEHB211:
 4607 1e2f E8000000 		call	_ZN8UnitTest11CurrentTest7DetailsEv
 4607      00
 4608 1e34 488D5C24 		leaq	48(%rsp), %rbx
 4608      30
 4609 1e39 488B30   		movq	(%rax), %rsi
 4610 1e3c BA7E0000 		movl	$126, %edx
 4610      00
 4611 1e41 4889DF   		movq	%rbx, %rdi
 4612 1e44 E8000000 		call	_ZN8UnitTest11TestDetailsC1ERKS0_i
 4612      00
 4613 1e49 E8000000 		call	_ZN8UnitTest11CurrentTest7ResultsEv
 4613      00
 4614 1e4e 488B38   		movq	(%rax), %rdi
 4615 1e51 BA000000 		movl	$.LC4, %edx
 4615      00
 4616 1e56 4889DE   		movq	%rbx, %rsi
 4617 1e59 E8000000 		call	_ZN8UnitTest11TestResults13OnTestFailureERKNS_11TestDetailsEPKc
 4617      00
 4618              	.LEHE211:
 4619              	.LEHB212:
 4620 1e5e E8000000 		call	__cxa_end_catch
 4620      00
 4621              	.LEHE212:
 4622 1e63 E954FBFF 		jmp	.L377
 4622      FF
 4623              	.L458:
 4624 1e68 4889C7   		movq	%rax, %rdi
 4625 1e6b 0F1F4400 		.p2align 4,,5
 4625      00
 4626 1e70 E8000000 		call	__cxa_begin_catch
 4626      00
 4627              		.p2align 4,,5
 4628              	.LEHB213:
 4629 1e75 E8000000 		call	_ZN8UnitTest11CurrentTest7DetailsEv
 4629      00
 4630 1e7a 488B30   		movq	(%rax), %rsi
 4631 1e7d BAA00000 		movl	$160, %edx
 4631      00
 4632 1e82 4889DF   		movq	%rbx, %rdi
 4633 1e85 E8000000 		call	_ZN8UnitTest11TestDetailsC1ERKS0_i
 4633      00
 4634 1e8a E8000000 		call	_ZN8UnitTest11CurrentTest7ResultsEv
 4634      00
 4635 1e8f 488B38   		movq	(%rax), %rdi
 4636 1e92 BA000000 		movl	$.LC23, %edx
 4636      00
 4637 1e97 4889DE   		movq	%rbx, %rsi
 4638 1e9a E8000000 		call	_ZN8UnitTest11TestResults13OnTestFailureERKNS_11TestDetailsEPKc
 4638      00
 4639              	.LEHE213:
 4640              	.LEHB214:
 4641 1e9f E8000000 		call	__cxa_end_catch
 4641      00
 4642              	.LEHE214:
 4643 1ea4 E96AFFFF 		jmp	.L425
 4643      FF
 4644              	.L442:
 4645 1ea9 4889C7   		movq	%rax, %rdi
 4646 1eac 0F1F4000 		.p2align 4,,5
 4647 1eb0 E8000000 		call	__cxa_begin_catch
 4647      00
 4648              		.p2align 4,,5
 4649              	.LEHB215:
 4650 1eb5 E8000000 		call	_ZN8UnitTest11CurrentTest7DetailsEv
 4650      00
 4651 1eba 488B30   		movq	(%rax), %rsi
 4652 1ebd BA920000 		movl	$146, %edx
 4652      00
 4653 1ec2 4889DF   		movq	%rbx, %rdi
 4654 1ec5 E8000000 		call	_ZN8UnitTest11TestDetailsC1ERKS0_i
 4654      00
 4655 1eca E8000000 		call	_ZN8UnitTest11CurrentTest7ResultsEv
 4655      00
 4656 1ecf 488B38   		movq	(%rax), %rdi
 4657 1ed2 BA000000 		movl	$.LC21, %edx
 4657      00
 4658 1ed7 4889DE   		movq	%rbx, %rsi
 4659 1eda E8000000 		call	_ZN8UnitTest11TestResults13OnTestFailureERKNS_11TestDetailsEPKc
 4659      00
 4660              	.LEHE215:
 4661              	.LEHB216:
 4662 1edf E8000000 		call	__cxa_end_catch
 4662      00
 4663              	.LEHE216:
 4664 1ee4 E926FDFF 		jmp	.L401
 4664      FF
 4665              	.L450:
 4666 1ee9 4889C7   		movq	%rax, %rdi
 4667 1eec 0F1F4000 		.p2align 4,,5
 4668 1ef0 E8000000 		call	__cxa_begin_catch
 4668      00
 4669              		.p2align 4,,5
 4670              	.LEHB217:
 4671 1ef5 E8000000 		call	_ZN8UnitTest11CurrentTest7DetailsEv
 4671      00
 4672 1efa 488B30   		movq	(%rax), %rsi
 4673 1efd BA9A0000 		movl	$154, %edx
 4673      00
 4674 1f02 4889DF   		movq	%rbx, %rdi
 4675 1f05 E8000000 		call	_ZN8UnitTest11TestDetailsC1ERKS0_i
 4675      00
 4676 1f0a E8000000 		call	_ZN8UnitTest11CurrentTest7ResultsEv
 4676      00
 4677 1f0f 488B38   		movq	(%rax), %rdi
 4678 1f12 BA000000 		movl	$.LC22, %edx
 4678      00
 4679 1f17 4889DE   		movq	%rbx, %rsi
 4680 1f1a E8000000 		call	_ZN8UnitTest11TestResults13OnTestFailureERKNS_11TestDetailsEPKc
 4680      00
 4681              	.LEHE217:
 4682              	.LEHB218:
 4683 1f1f E8000000 		call	__cxa_end_catch
 4683      00
 4684              	.LEHE218:
 4685 1f24 E9DBFDFF 		jmp	.L413
 4685      FF
 4686              	.L434:
 4687 1f29 4889C7   		movq	%rax, %rdi
 4688 1f2c 0F1F4000 		.p2align 4,,5
 4689 1f30 E8000000 		call	__cxa_begin_catch
 4689      00
 4690              		.p2align 4,,5
 4691              	.LEHB219:
 4692 1f35 E8000000 		call	_ZN8UnitTest11CurrentTest7DetailsEv
 4692      00
 4693 1f3a 488B30   		movq	(%rax), %rsi
 4694 1f3d BA880000 		movl	$136, %edx
 4694      00
 4695 1f42 4889DF   		movq	%rbx, %rdi
 4696 1f45 E8000000 		call	_ZN8UnitTest11TestDetailsC1ERKS0_i
 4696      00
 4697 1f4a E8000000 		call	_ZN8UnitTest11CurrentTest7ResultsEv
 4697      00
 4698 1f4f 488B38   		movq	(%rax), %rdi
 4699 1f52 BA000000 		movl	$.LC14, %edx
 4699      00
 4700 1f57 4889DE   		movq	%rbx, %rsi
 4701 1f5a E8000000 		call	_ZN8UnitTest11TestResults13OnTestFailureERKNS_11TestDetailsEPKc
 4701      00
 4702              	.LEHE219:
 4703              	.LEHB220:
 4704 1f5f E8000000 		call	__cxa_end_catch
 4704      00
 4705              	.LEHE220:
 4706 1f64 E972FBFF 		jmp	.L389
 4706      FF
 4707              	.L454:
 4708 1f69 4889C7   		movq	%rax, %rdi
 4709 1f6c 0F1F4000 		.p2align 4,,5
 4710 1f70 E8000000 		call	__cxa_begin_catch
 4710      00
 4711              		.p2align 4,,5
 4712              	.LEHB221:
 4713 1f75 E8000000 		call	_ZN8UnitTest11CurrentTest7DetailsEv
 4713      00
 4714 1f7a 488B30   		movq	(%rax), %rsi
 4715 1f7d BA9E0000 		movl	$158, %edx
 4715      00
 4716 1f82 4889DF   		movq	%rbx, %rdi
 4717 1f85 E8000000 		call	_ZN8UnitTest11TestDetailsC1ERKS0_i
 4717      00
 4718 1f8a E8000000 		call	_ZN8UnitTest11CurrentTest7ResultsEv
 4718      00
 4719 1f8f 488B38   		movq	(%rax), %rdi
 4720 1f92 BA000000 		movl	$.LC19, %edx
 4720      00
 4721 1f97 4889DE   		movq	%rbx, %rsi
 4722 1f9a E8000000 		call	_ZN8UnitTest11TestResults13OnTestFailureERKNS_11TestDetailsEPKc
 4722      00
 4723              	.LEHE221:
 4724              	.LEHB222:
 4725 1f9f E8000000 		call	__cxa_end_catch
 4725      00
 4726              	.LEHE222:
 4727 1fa4 E9E2FDFF 		jmp	.L419
 4727      FF
 4728              	.L438:
 4729 1fa9 4889C7   		movq	%rax, %rdi
 4730 1fac 0F1F4000 		.p2align 4,,5
 4731 1fb0 E8000000 		call	__cxa_begin_catch
 4731      00
 4732              		.p2align 4,,5
 4733              	.LEHB223:
 4734 1fb5 E8000000 		call	_ZN8UnitTest11CurrentTest7DetailsEv
 4734      00
 4735 1fba 488B30   		movq	(%rax), %rsi
 4736 1fbd BA8D0000 		movl	$141, %edx
 4736      00
 4737 1fc2 4889DF   		movq	%rbx, %rdi
 4738 1fc5 E8000000 		call	_ZN8UnitTest11TestDetailsC1ERKS0_i
 4738      00
 4739 1fca E8000000 		call	_ZN8UnitTest11CurrentTest7ResultsEv
 4739      00
 4740 1fcf 488B38   		movq	(%rax), %rdi
 4741 1fd2 BA000000 		movl	$.LC15, %edx
 4741      00
 4742 1fd7 4889DE   		movq	%rbx, %rsi
 4743 1fda E8000000 		call	_ZN8UnitTest11TestResults13OnTestFailureERKNS_11TestDetailsEPKc
 4743      00
 4744              	.LEHE223:
 4745              	.LEHB224:
 4746 1fdf E8000000 		call	__cxa_end_catch
 4746      00
 4747              	.LEHE224:
 4748 1fe4 E98CFBFF 		jmp	.L395
 4748      FF
 4749              	.L446:
 4750 1fe9 4889C7   		movq	%rax, %rdi
 4751 1fec 0F1F4000 		.p2align 4,,5
 4752 1ff0 E8000000 		call	__cxa_begin_catch
 4752      00
 4753              		.p2align 4,,5
 4754              	.LEHB225:
 4755 1ff5 E8000000 		call	_ZN8UnitTest11CurrentTest7DetailsEv
 4755      00
 4756 1ffa 488B30   		movq	(%rax), %rsi
 4757 1ffd BA980000 		movl	$152, %edx
 4757      00
 4758 2002 4889DF   		movq	%rbx, %rdi
 4759 2005 E8000000 		call	_ZN8UnitTest11TestDetailsC1ERKS0_i
 4759      00
 4760 200a E8000000 		call	_ZN8UnitTest11CurrentTest7ResultsEv
 4760      00
 4761 200f 488B38   		movq	(%rax), %rdi
 4762 2012 BA000000 		movl	$.LC6, %edx
 4762      00
 4763 2017 4889DE   		movq	%rbx, %rsi
 4764 201a E8000000 		call	_ZN8UnitTest11TestResults13OnTestFailureERKNS_11TestDetailsEPKc
 4764      00
 4765              	.LEHE225:
 4766              	.LEHB226:
 4767 201f E8000000 		call	__cxa_end_catch
 4767      00
 4768              	.LEHE226:
 4769 2024 E96BFCFF 		jmp	.L407
 4769      FF
 4770              	.L430:
 4771 2029 4889C7   		movq	%rax, %rdi
 4772 202c 0F1F4000 		.p2align 4,,5
 4773 2030 E8000000 		call	__cxa_begin_catch
 4773      00
 4774              		.p2align 4,,5
 4775              	.LEHB227:
 4776 2035 E8000000 		call	_ZN8UnitTest11CurrentTest7DetailsEv
 4776      00
 4777 203a 488B30   		movq	(%rax), %rsi
 4778 203d BA830000 		movl	$131, %edx
 4778      00
 4779 2042 4889DF   		movq	%rbx, %rdi
 4780 2045 E8000000 		call	_ZN8UnitTest11TestDetailsC1ERKS0_i
 4780      00
 4781 204a E8000000 		call	_ZN8UnitTest11CurrentTest7ResultsEv
 4781      00
 4782 204f 488B38   		movq	(%rax), %rdi
 4783 2052 BA000000 		movl	$.LC13, %edx
 4783      00
 4784 2057 4889DE   		movq	%rbx, %rsi
 4785 205a E8000000 		call	_ZN8UnitTest11TestResults13OnTestFailureERKNS_11TestDetailsEPKc
 4785      00
 4786              	.LEHE227:
 4787              	.LEHB228:
 4788 205f E8000000 		call	__cxa_end_catch
 4788      00
 4789              	.LEHE228:
 4790 2064 E9D8F9FF 		jmp	.L383
 4790      FF
 4791              	.L456:
 4792 2069 4889C7   		movq	%rax, %rdi
 4793 206c 0F1F4000 		.p2align 4,,5
 4794 2070 E8000000 		call	__cxa_begin_catch
 4794      00
 4795              		.p2align 4,,5
 4796              	.LEHB229:
 4797 2075 E8000000 		call	_ZN8UnitTest11CurrentTest7DetailsEv
 4797      00
 4798 207a 488B30   		movq	(%rax), %rsi
 4799 207d BA9F0000 		movl	$159, %edx
 4799      00
 4800 2082 4889DF   		movq	%rbx, %rdi
 4801 2085 E8000000 		call	_ZN8UnitTest11TestDetailsC1ERKS0_i
 4801      00
 4802 208a E8000000 		call	_ZN8UnitTest11CurrentTest7ResultsEv
 4802      00
 4803 208f 488B38   		movq	(%rax), %rdi
 4804 2092 BA000000 		movl	$.LC20, %edx
 4804      00
 4805 2097 4889DE   		movq	%rbx, %rsi
 4806 209a E8000000 		call	_ZN8UnitTest11TestResults13OnTestFailureERKNS_11TestDetailsEPKc
 4806      00
 4807              	.LEHE229:
 4808              	.LEHB230:
 4809 209f E8000000 		call	__cxa_end_catch
 4809      00
 4810              	.LEHE230:
 4811 20a4 E926FDFF 		jmp	.L422
 4811      FF
 4812              	.L440:
 4813 20a9 4889C7   		movq	%rax, %rdi
 4814 20ac 0F1F4000 		.p2align 4,,5
 4815 20b0 E8000000 		call	__cxa_begin_catch
 4815      00
 4816              		.p2align 4,,5
 4817              	.LEHB231:
 4818 20b5 E8000000 		call	_ZN8UnitTest11CurrentTest7DetailsEv
 4818      00
 4819 20ba 488B30   		movq	(%rax), %rsi
 4820 20bd BA910000 		movl	$145, %edx
 4820      00
 4821 20c2 4889DF   		movq	%rbx, %rdi
 4822 20c5 E8000000 		call	_ZN8UnitTest11TestDetailsC1ERKS0_i
 4822      00
 4823 20ca E8000000 		call	_ZN8UnitTest11CurrentTest7ResultsEv
 4823      00
 4824 20cf 488B38   		movq	(%rax), %rdi
 4825 20d2 BA000000 		movl	$.LC4, %edx
 4825      00
 4826 20d7 4889DE   		movq	%rbx, %rsi
 4827 20da E8000000 		call	_ZN8UnitTest11TestResults13OnTestFailureERKNS_11TestDetailsEPKc
 4827      00
 4828              	.LEHE231:
 4829              	.LEHB232:
 4830 20df E8000000 		call	__cxa_end_catch
 4830      00
 4831              	.LEHE232:
 4832 20e4 E9EBFAFF 		jmp	.L398
 4832      FF
 4833              	.L448:
 4834 20e9 4889C7   		movq	%rax, %rdi
 4835 20ec 0F1F4000 		.p2align 4,,5
 4836 20f0 E8000000 		call	__cxa_begin_catch
 4836      00
 4837              		.p2align 4,,5
 4838              	.LEHB233:
 4839 20f5 E8000000 		call	_ZN8UnitTest11CurrentTest7DetailsEv
 4839      00
 4840 20fa 488B30   		movq	(%rax), %rsi
 4841 20fd BA990000 		movl	$153, %edx
 4841      00
 4842 2102 4889DF   		movq	%rbx, %rdi
 4843 2105 E8000000 		call	_ZN8UnitTest11TestDetailsC1ERKS0_i
 4843      00
 4844 210a E8000000 		call	_ZN8UnitTest11CurrentTest7ResultsEv
 4844      00
 4845 210f 488B38   		movq	(%rax), %rdi
 4846 2112 BA000000 		movl	$.LC7, %edx
 4846      00
 4847 2117 4889DE   		movq	%rbx, %rsi
 4848 211a E8000000 		call	_ZN8UnitTest11TestResults13OnTestFailureERKNS_11TestDetailsEPKc
 4848      00
 4849              	.LEHE233:
 4850              	.LEHB234:
 4851 211f E8000000 		call	__cxa_end_catch
 4851      00
 4852              	.LEHE234:
 4853 2124 E9A3FBFF 		jmp	.L410
 4853      FF
 4854              	.L432:
 4855 2129 4889C7   		movq	%rax, %rdi
 4856 212c 0F1F4000 		.p2align 4,,5
 4857 2130 E8000000 		call	__cxa_begin_catch
 4857      00
 4858              		.p2align 4,,5
 4859              	.LEHB235:
 4860 2135 E8000000 		call	_ZN8UnitTest11CurrentTest7DetailsEv
 4860      00
 4861 213a 488B30   		movq	(%rax), %rsi
 4862 213d BA870000 		movl	$135, %edx
 4862      00
 4863 2142 4889DF   		movq	%rbx, %rdi
 4864 2145 E8000000 		call	_ZN8UnitTest11TestDetailsC1ERKS0_i
 4864      00
 4865 214a E8000000 		call	_ZN8UnitTest11CurrentTest7ResultsEv
 4865      00
 4866 214f 488B38   		movq	(%rax), %rdi
 4867 2152 BA000000 		movl	$.LC4, %edx
 4867      00
 4868 2157 4889DE   		movq	%rbx, %rsi
 4869 215a E8000000 		call	_ZN8UnitTest11TestResults13OnTestFailureERKNS_11TestDetailsEPKc
 4869      00
 4870              	.LEHE235:
 4871              	.LEHB236:
 4872 215f E8000000 		call	__cxa_end_catch
 4872      00
 4873              	.LEHE236:
 4874 2164 E937F9FF 		jmp	.L386
 4874      FF
 4875              	.L452:
 4876 2169 4889C7   		movq	%rax, %rdi
 4877 216c 0F1F4000 		.p2align 4,,5
 4878 2170 E8000000 		call	__cxa_begin_catch
 4878      00
 4879              		.p2align 4,,5
 4880              	.LEHB237:
 4881 2175 E8000000 		call	_ZN8UnitTest11CurrentTest7DetailsEv
 4881      00
 4882 217a 488B30   		movq	(%rax), %rsi
 4883 217d BA9D0000 		movl	$157, %edx
 4883      00
 4884 2182 4889DF   		movq	%rbx, %rdi
 4885 2185 E8000000 		call	_ZN8UnitTest11TestDetailsC1ERKS0_i
 4885      00
 4886 218a E8000000 		call	_ZN8UnitTest11CurrentTest7ResultsEv
 4886      00
 4887 218f 488B38   		movq	(%rax), %rdi
 4888 2192 BA000000 		movl	$.LC18, %edx
 4888      00
 4889 2197 4889DE   		movq	%rbx, %rsi
 4890 219a E8000000 		call	_ZN8UnitTest11TestResults13OnTestFailureERKNS_11TestDetailsEPKc
 4890      00
 4891              	.LEHE237:
 4892              	.LEHB238:
 4893 219f E8000000 		call	__cxa_end_catch
 4893      00
 4894              	.LEHE238:
 4895 21a4 E99EFBFF 		jmp	.L416
 4895      FF
 4896              	.L436:
 4897 21a9 4889C7   		movq	%rax, %rdi
 4898 21ac 0F1F4000 		.p2align 4,,5
 4899 21b0 E8000000 		call	__cxa_begin_catch
 4899      00
 4900              		.p2align 4,,5
 4901              	.LEHB239:
 4902 21b5 E8000000 		call	_ZN8UnitTest11CurrentTest7DetailsEv
 4902      00
 4903 21ba 488B30   		movq	(%rax), %rsi
 4904 21bd BA8C0000 		movl	$140, %edx
 4904      00
 4905 21c2 4889DF   		movq	%rbx, %rdi
 4906 21c5 E8000000 		call	_ZN8UnitTest11TestDetailsC1ERKS0_i
 4906      00
 4907 21ca E8000000 		call	_ZN8UnitTest11CurrentTest7ResultsEv
 4907      00
 4908 21cf 488B38   		movq	(%rax), %rdi
 4909 21d2 BA000000 		movl	$.LC4, %edx
 4909      00
 4910 21d7 4889DE   		movq	%rbx, %rsi
 4911 21da E8000000 		call	_ZN8UnitTest11TestResults13OnTestFailureERKNS_11TestDetailsEPKc
 4911      00
 4912              	.LEHE239:
 4913              	.LEHB240:
 4914 21df E8000000 		call	__cxa_end_catch
 4914      00
 4915              	.LEHE240:
 4916 21e4 E951F9FF 		jmp	.L392
 4916      FF
 4917              	.L444:
 4918 21e9 4889C7   		movq	%rax, %rdi
 4919 21ec 0F1F4000 		.p2align 4,,5
 4920 21f0 E8000000 		call	__cxa_begin_catch
 4920      00
 4921              		.p2align 4,,5
 4922              	.LEHB241:
 4923 21f5 E8000000 		call	_ZN8UnitTest11CurrentTest7DetailsEv
 4923      00
 4924 21fa 488B30   		movq	(%rax), %rsi
 4925 21fd BA970000 		movl	$151, %edx
 4925      00
 4926 2202 4889DF   		movq	%rbx, %rdi
 4927 2205 E8000000 		call	_ZN8UnitTest11TestDetailsC1ERKS0_i
 4927      00
 4928 220a E8000000 		call	_ZN8UnitTest11CurrentTest7ResultsEv
 4928      00
 4929 220f 488B38   		movq	(%rax), %rdi
 4930 2212 BA000000 		movl	$.LC5, %edx
 4930      00
 4931 2217 4889DE   		movq	%rbx, %rsi
 4932 221a E8000000 		call	_ZN8UnitTest11TestResults13OnTestFailureERKNS_11TestDetailsEPKc
 4932      00
 4933              	.LEHE241:
 4934              	.LEHB242:
 4935 221f E8000000 		call	__cxa_end_catch
 4935      00
 4936              	.LEHE242:
 4937 2224 E933FAFF 		jmp	.L404
 4937      FF
 4938              	.L428:
 4939 2229 4889C7   		movq	%rax, %rdi
 4940 222c 0F1F4000 		.p2align 4,,5
 4941 2230 E8000000 		call	__cxa_begin_catch
 4941      00
 4942              		.p2align 4,,5
 4943              	.LEHB243:
 4944 2235 E8000000 		call	_ZN8UnitTest11CurrentTest7DetailsEv
 4944      00
 4945 223a 488B30   		movq	(%rax), %rsi
 4946 223d BA820000 		movl	$130, %edx
 4946      00
 4947 2242 4889DF   		movq	%rbx, %rdi
 4948 2245 E8000000 		call	_ZN8UnitTest11TestDetailsC1ERKS0_i
 4948      00
 4949 224a E8000000 		call	_ZN8UnitTest11CurrentTest7ResultsEv
 4949      00
 4950 224f 488B38   		movq	(%rax), %rdi
 4951 2252 BA000000 		movl	$.LC4, %edx
 4951      00
 4952 2257 4889DE   		movq	%rbx, %rsi
 4953 225a E8000000 		call	_ZN8UnitTest11TestResults13OnTestFailureERKNS_11TestDetailsEPKc
 4953      00
 4954              	.LEHE243:
 4955              	.LEHB244:
 4956 225f E8000000 		call	__cxa_end_catch
 4956      00
 4957              	.LEHE244:
 4958 2264 E99DF7FF 		jmp	.L380
 4958      FF
 4959              	.L427:
 4960 2269 4889C3   		movq	%rax, %rbx
 4961 226c 0F1F4000 		.p2align 4,,5
 4962 2270 E8000000 		call	__cxa_end_catch
 4962      00
 4963 2275 4889DF   		movq	%rbx, %rdi
 4964              	.LEHB245:
 4965 2278 E8000000 		call	_Unwind_Resume
 4965      00
 4966              	.LEHE245:
 4967              	.L459:
 4968 227d 4889C3   		movq	%rax, %rbx
 4969 2280 E8000000 		call	__cxa_end_catch
 4969      00
 4970 2285 4889DF   		movq	%rbx, %rdi
 4971              	.LEHB246:
 4972 2288 E8000000 		call	_Unwind_Resume
 4972      00
 4973              	.LEHE246:
 4974              	.L457:
 4975 228d 4889C3   		movq	%rax, %rbx
 4976 2290 E8000000 		call	__cxa_end_catch
 4976      00
 4977 2295 4889DF   		movq	%rbx, %rdi
 4978              	.LEHB247:
 4979 2298 E8000000 		call	_Unwind_Resume
 4979      00
 4980              	.LEHE247:
 4981              	.L455:
 4982 229d 4889C3   		movq	%rax, %rbx
 4983 22a0 E8000000 		call	__cxa_end_catch
 4983      00
 4984 22a5 4889DF   		movq	%rbx, %rdi
 4985              	.LEHB248:
 4986 22a8 E8000000 		call	_Unwind_Resume
 4986      00
 4987              	.LEHE248:
 4988              	.L453:
 4989 22ad 4889C3   		movq	%rax, %rbx
 4990 22b0 E8000000 		call	__cxa_end_catch
 4990      00
 4991 22b5 4889DF   		movq	%rbx, %rdi
 4992              	.LEHB249:
 4993 22b8 E8000000 		call	_Unwind_Resume
 4993      00
 4994              	.LEHE249:
 4995              	.L451:
 4996 22bd 4889C3   		movq	%rax, %rbx
 4997 22c0 E8000000 		call	__cxa_end_catch
 4997      00
 4998 22c5 4889DF   		movq	%rbx, %rdi
 4999              	.LEHB250:
 5000 22c8 E8000000 		call	_Unwind_Resume
 5000      00
 5001              	.LEHE250:
 5002              	.L449:
 5003 22cd 4889C3   		movq	%rax, %rbx
 5004 22d0 E8000000 		call	__cxa_end_catch
 5004      00
 5005 22d5 4889DF   		movq	%rbx, %rdi
 5006              	.LEHB251:
 5007 22d8 E8000000 		call	_Unwind_Resume
 5007      00
 5008              	.LEHE251:
 5009              	.L447:
 5010 22dd 4889C3   		movq	%rax, %rbx
 5011 22e0 E8000000 		call	__cxa_end_catch
 5011      00
 5012 22e5 4889DF   		movq	%rbx, %rdi
 5013              	.LEHB252:
 5014 22e8 E8000000 		call	_Unwind_Resume
 5014      00
 5015              	.LEHE252:
 5016              	.L445:
 5017 22ed 4889C3   		movq	%rax, %rbx
 5018 22f0 E8000000 		call	__cxa_end_catch
 5018      00
 5019 22f5 4889DF   		movq	%rbx, %rdi
 5020              	.LEHB253:
 5021 22f8 E8000000 		call	_Unwind_Resume
 5021      00
 5022              	.LEHE253:
 5023              	.L443:
 5024 22fd 4889C3   		movq	%rax, %rbx
 5025 2300 E8000000 		call	__cxa_end_catch
 5025      00
 5026 2305 4889DF   		movq	%rbx, %rdi
 5027              	.LEHB254:
 5028 2308 E8000000 		call	_Unwind_Resume
 5028      00
 5029              	.LEHE254:
 5030              	.L441:
 5031 230d 4889C3   		movq	%rax, %rbx
 5032 2310 E8000000 		call	__cxa_end_catch
 5032      00
 5033 2315 4889DF   		movq	%rbx, %rdi
 5034              	.LEHB255:
 5035 2318 E8000000 		call	_Unwind_Resume
 5035      00
 5036              	.LEHE255:
 5037              	.L439:
 5038 231d 4889C3   		movq	%rax, %rbx
 5039 2320 E8000000 		call	__cxa_end_catch
 5039      00
 5040 2325 4889DF   		movq	%rbx, %rdi
 5041              	.LEHB256:
 5042 2328 E8000000 		call	_Unwind_Resume
 5042      00
 5043              	.LEHE256:
 5044              	.L437:
 5045 232d 4889C3   		movq	%rax, %rbx
 5046 2330 E8000000 		call	__cxa_end_catch
 5046      00
 5047 2335 4889DF   		movq	%rbx, %rdi
 5048              	.LEHB257:
 5049 2338 E8000000 		call	_Unwind_Resume
 5049      00
 5050              	.LEHE257:
 5051              	.L435:
 5052 233d 4889C3   		movq	%rax, %rbx
 5053 2340 E8000000 		call	__cxa_end_catch
 5053      00
 5054 2345 4889DF   		movq	%rbx, %rdi
 5055              	.LEHB258:
 5056 2348 E8000000 		call	_Unwind_Resume
 5056      00
 5057              	.LEHE258:
 5058              	.L433:
 5059 234d 4889C3   		movq	%rax, %rbx
 5060 2350 E8000000 		call	__cxa_end_catch
 5060      00
 5061 2355 4889DF   		movq	%rbx, %rdi
 5062              	.LEHB259:
 5063 2358 E8000000 		call	_Unwind_Resume
 5063      00
 5064              	.LEHE259:
 5065              	.L431:
 5066 235d 4889C3   		movq	%rax, %rbx
 5067 2360 E8000000 		call	__cxa_end_catch
 5067      00
 5068 2365 4889DF   		movq	%rbx, %rdi
 5069              	.LEHB260:
 5070 2368 E8000000 		call	_Unwind_Resume
 5070      00
 5071              	.LEHE260:
 5072              	.L429:
 5073 236d 4889C3   		movq	%rax, %rbx
 5074 2370 E8000000 		call	__cxa_end_catch
 5074      00
 5075 2375 4889DF   		movq	%rbx, %rdi
 5076              	.LEHB261:
 5077 2378 E8000000 		call	_Unwind_Resume
 5077      00
 5078              	.LEHE261:
 5079              		.cfi_endproc
 5080              	.LFE1115:
 5081              		.section	.gcc_except_table
 5082              		.align 4
 5083              	.LLSDA1115:
 5084 0448 FF       		.byte	0xff
 5085 0449 03       		.byte	0x3
 5086 044a A003     		.uleb128 .LLSDATT1115-.LLSDATTD1115
 5087              	.LLSDATTD1115:
 5088 044c 01       		.byte	0x1
 5089 044d 9503     		.uleb128 .LLSDACSE1115-.LLSDACSB1115
 5090              	.LLSDACSB1115:
 5091 044f 27       		.uleb128 .LEHB187-.LFB1115
 5092 0450 05       		.uleb128 .LEHE187-.LEHB187
 5093 0451 00       		.uleb128 0
 5094 0452 00       		.uleb128 0
 5095 0453 30       		.uleb128 .LEHB188-.LFB1115
 5096 0454 3C       		.uleb128 .LEHE188-.LEHB188
 5097 0455 D709     		.uleb128 .L426-.LFB1115
 5098 0457 01       		.uleb128 0x1
 5099 0458 76       		.uleb128 .LEHB189-.LFB1115
 5100 0459 05       		.uleb128 .LEHE189-.LEHB189
 5101 045a 00       		.uleb128 0
 5102 045b 00       		.uleb128 0
 5103 045c 7F       		.uleb128 .LEHB190-.LFB1115
 5104 045d 37       		.uleb128 .LEHE190-.LEHB190
 5105 045e D911     		.uleb128 .L428-.LFB1115
 5106 0460 01       		.uleb128 0x1
 5107 0461 B601     		.uleb128 .LEHB191-.LFB1115
 5108 0463 3B       		.uleb128 .LEHE191-.LEHB191
 5109 0464 D90D     		.uleb128 .L430-.LFB1115
 5110 0466 01       		.uleb128 0x1
 5111 0467 8102     		.uleb128 .LEHB192-.LFB1115
 5112 0469 14       		.uleb128 .LEHE192-.LEHB192
 5113 046a 00       		.uleb128 0
 5114 046b 00       		.uleb128 0
 5115 046c 9902     		.uleb128 .LEHB193-.LFB1115
 5116 046e 37       		.uleb128 .LEHE193-.LEHB193
 5117 046f D90F     		.uleb128 .L432-.LFB1115
 5118 0471 01       		.uleb128 0x1
 5119 0472 D002     		.uleb128 .LEHB194-.LFB1115
 5120 0474 3B       		.uleb128 .LEHE194-.LEHB194
 5121 0475 D90B     		.uleb128 .L434-.LFB1115
 5122 0477 01       		.uleb128 0x1
 5123 0478 9B03     		.uleb128 .LEHB195-.LFB1115
 5124 047a 14       		.uleb128 .LEHE195-.LEHB195
 5125 047b 00       		.uleb128 0
 5126 047c 00       		.uleb128 0
 5127 047d B303     		.uleb128 .LEHB196-.LFB1115
 5128 047f 37       		.uleb128 .LEHE196-.LEHB196
 5129 0480 D910     		.uleb128 .L436-.LFB1115
 5130 0482 01       		.uleb128 0x1
 5131 0483 EA03     		.uleb128 .LEHB197-.LFB1115
 5132 0485 3B       		.uleb128 .LEHE197-.LEHB197
 5133 0486 D90C     		.uleb128 .L438-.LFB1115
 5134 0488 01       		.uleb128 0x1
 5135 0489 B504     		.uleb128 .LEHB198-.LFB1115
 5136 048b 14       		.uleb128 .LEHE198-.LEHB198
 5137 048c 00       		.uleb128 0
 5138 048d 00       		.uleb128 0
 5139 048e CD04     		.uleb128 .LEHB199-.LFB1115
 5140 0490 37       		.uleb128 .LEHE199-.LEHB199
 5141 0491 D90E     		.uleb128 .L440-.LFB1115
 5142 0493 01       		.uleb128 0x1
 5143 0494 8405     		.uleb128 .LEHB200-.LFB1115
 5144 0496 3B       		.uleb128 .LEHE200-.LEHB200
 5145 0497 D90A     		.uleb128 .L442-.LFB1115
 5146 0499 01       		.uleb128 0x1
 5147 049a CF05     		.uleb128 .LEHB201-.LFB1115
 5148 049c 05       		.uleb128 .LEHE201-.LEHB201
 5149 049d 00       		.uleb128 0
 5150 049e 00       		.uleb128 0
 5151 049f D405     		.uleb128 .LEHB202-.LFB1115
 5152 04a1 38       		.uleb128 .LEHE202-.LEHB202
 5153 04a2 9911     		.uleb128 .L444-.LFB1115
 5154 04a4 01       		.uleb128 0x1
 5155 04a5 8C06     		.uleb128 .LEHB203-.LFB1115
 5156 04a7 38       		.uleb128 .LEHE203-.LEHB203
 5157 04a8 990D     		.uleb128 .L446-.LFB1115
 5158 04aa 01       		.uleb128 0x1
 5159 04ab C406     		.uleb128 .LEHB204-.LFB1115
 5160 04ad 38       		.uleb128 .LEHE204-.LEHB204
 5161 04ae 990F     		.uleb128 .L448-.LFB1115
 5162 04b0 01       		.uleb128 0x1
 5163 04b1 FC06     		.uleb128 .LEHB205-.LFB1115
 5164 04b3 38       		.uleb128 .LEHE205-.LEHB205
 5165 04b4 990B     		.uleb128 .L450-.LFB1115
 5166 04b6 01       		.uleb128 0x1
 5167 04b7 B407     		.uleb128 .LEHB206-.LFB1115
 5168 04b9 43       		.uleb128 .LEHE206-.LEHB206
 5169 04ba 9910     		.uleb128 .L452-.LFB1115
 5170 04bc 01       		.uleb128 0x1
 5171 04bd F707     		.uleb128 .LEHB207-.LFB1115
 5172 04bf 44       		.uleb128 .LEHE207-.LEHB207
 5173 04c0 990C     		.uleb128 .L454-.LFB1115
 5174 04c2 01       		.uleb128 0x1
 5175 04c3 BB08     		.uleb128 .LEHB208-.LFB1115
 5176 04c5 44       		.uleb128 .LEHE208-.LEHB208
 5177 04c6 990E     		.uleb128 .L456-.LFB1115
 5178 04c8 01       		.uleb128 0x1
 5179 04c9 FF08     		.uleb128 .LEHB209-.LFB1115
 5180 04cb 44       		.uleb128 .LEHE209-.LEHB209
 5181 04cc 980A     		.uleb128 .L458-.LFB1115
 5182 04ce 01       		.uleb128 0x1
 5183 04cf C809     		.uleb128 .LEHB210-.LFB1115
 5184 04d1 05       		.uleb128 .LEHE210-.LEHB210
 5185 04d2 00       		.uleb128 0
 5186 04d3 00       		.uleb128 0
 5187 04d4 DF09     		.uleb128 .LEHB211-.LFB1115
 5188 04d6 2F       		.uleb128 .LEHE211-.LEHB211
 5189 04d7 9912     		.uleb128 .L427-.LFB1115
 5190 04d9 00       		.uleb128 0
 5191 04da 8E0A     		.uleb128 .LEHB212-.LFB1115
 5192 04dc 05       		.uleb128 .LEHE212-.LEHB212
 5193 04dd 00       		.uleb128 0
 5194 04de 00       		.uleb128 0
 5195 04df A50A     		.uleb128 .LEHB213-.LFB1115
 5196 04e1 2A       		.uleb128 .LEHE213-.LEHB213
 5197 04e2 AD12     		.uleb128 .L459-.LFB1115
 5198 04e4 00       		.uleb128 0
 5199 04e5 CF0A     		.uleb128 .LEHB214-.LFB1115
 5200 04e7 05       		.uleb128 .LEHE214-.LEHB214
 5201 04e8 00       		.uleb128 0
 5202 04e9 00       		.uleb128 0
 5203 04ea E50A     		.uleb128 .LEHB215-.LFB1115
 5204 04ec 2A       		.uleb128 .LEHE215-.LEHB215
 5205 04ed AD13     		.uleb128 .L443-.LFB1115
 5206 04ef 00       		.uleb128 0
 5207 04f0 8F0B     		.uleb128 .LEHB216-.LFB1115
 5208 04f2 05       		.uleb128 .LEHE216-.LEHB216
 5209 04f3 00       		.uleb128 0
 5210 04f4 00       		.uleb128 0
 5211 04f5 A50B     		.uleb128 .LEHB217-.LFB1115
 5212 04f7 2A       		.uleb128 .LEHE217-.LEHB217
 5213 04f8 ED12     		.uleb128 .L451-.LFB1115
