   1              		.file	"testCore.cpp"
   2              		.text
   3              		.p2align 4,,15
   4              		.globl	createInt
   6              	createInt:
   7              	.LFB1101:
   8              		.cfi_startproc
   9 0000 53       		pushq	%rbx
  10              		.cfi_def_cfa_offset 16
  11              		.cfi_offset 3, -16
  12 0001 8B1D0000 		movl	_ZL7m_count(%rip), %ebx
  12      0000
  13 0007 31C0     		xorl	%eax, %eax
  14 0009 83FB08   		cmpl	$8, %ebx
  15 000c 7721     		ja	.L2
  16 000e BF040000 		movl	$4, %edi
  16      00
  17 0013 E8000000 		call	malloc
  17      00
  18 0018 4885C0   		testq	%rax, %rax
  19 001b 740B     		je	.L3
  20 001d 8D5301   		leal	1(%rbx), %edx
  21 0020 8918     		movl	%ebx, (%rax)
  22 0022 89150000 		movl	%edx, _ZL7m_count(%rip)
  22      0000
  23              	.L3:
  24 0028 83050000 		addl	$1, _ZL11m_allocFree(%rip)
  24      000001
  25              	.L2:
  26 002f 5B       		popq	%rbx
  27              		.cfi_def_cfa_offset 8
  28 0030 C3       		ret
  29              		.cfi_endproc
  30              	.LFE1101:
  32 0031 66666666 		.p2align 4,,15
  32      66662E0F 
  32      1F840000 
  32      000000
  33              		.globl	destroyInt
  35              	destroyInt:
  36              	.LFB1102:
  37              		.cfi_startproc
  38 0040 4885FF   		testq	%rdi, %rdi
  39 0043 7413     		je	.L10
  40 0045 832D0000 		subl	$1, _ZL11m_allocFree(%rip)
  40      000001
  41 004c E9000000 		jmp	free
  41      00
  42              		.p2align 4,,10
  43 0051 0F1F8000 		.p2align 3
  43      000000
  44              	.L10:
  45 0058 F3C3     		rep ret
  46              		.cfi_endproc
  47              	.LFE1102:
  49              		.section	.text._ZN31TestQueue_testAllocFreeMatchingD2Ev,"axG",@progbits,_ZN31TestQueue_testAllocFr
  50              		.align 2
  51              		.p2align 4,,15
  52              		.weak	_ZN31TestQueue_testAllocFreeMatchingD2Ev
  54              	_ZN31TestQueue_testAllocFreeMatchingD2Ev:
  55              	.LFB1223:
  56              		.cfi_startproc
  57 0000 48C70700 		movq	$_ZTV31TestQueue_testAllocFreeMatching+16, (%rdi)
  57      000000
  58 0007 E9000000 		jmp	_ZN8UnitTest4TestD2Ev
  58      00
  59              		.cfi_endproc
  60              	.LFE1223:
  62              		.weak	_ZN31TestQueue_testAllocFreeMatchingD1Ev
  63              		.set	_ZN31TestQueue_testAllocFreeMatchingD1Ev,_ZN31TestQueue_testAllocFreeMatchingD2Ev
  64              		.section	.text._ZN31TestQueue_testAllocFreeMatchingD0Ev,"axG",@progbits,_ZN31TestQueue_testAllocFr
  65              		.align 2
  66              		.p2align 4,,15
  67              		.weak	_ZN31TestQueue_testAllocFreeMatchingD0Ev
  69              	_ZN31TestQueue_testAllocFreeMatchingD0Ev:
  70              	.LFB1225:
  71              		.cfi_startproc
  72 0000 53       		pushq	%rbx
  73              		.cfi_def_cfa_offset 16
  74              		.cfi_offset 3, -16
  75 0001 4889FB   		movq	%rdi, %rbx
  76 0004 48C70700 		movq	$_ZTV31TestQueue_testAllocFreeMatching+16, (%rdi)
  76      000000
  77 000b E8000000 		call	_ZN8UnitTest4TestD2Ev
  77      00
  78 0010 4889DF   		movq	%rbx, %rdi
  79 0013 5B       		popq	%rbx
  80              		.cfi_def_cfa_offset 8
  81 0014 E9000000 		jmp	_ZdlPv
  81      00
  82              		.cfi_endproc
  83              	.LFE1225:
  85              		.section	.text._ZN24TestQueue_testReallocOOMD2Ev,"axG",@progbits,_ZN24TestQueue_testReallocOOMD5Ev
  86              		.align 2
  87              		.p2align 4,,15
  88              		.weak	_ZN24TestQueue_testReallocOOMD2Ev
  90              	_ZN24TestQueue_testReallocOOMD2Ev:
  91              	.LFB1227:
  92              		.cfi_startproc
  93 0000 48C70700 		movq	$_ZTV24TestQueue_testReallocOOM+16, (%rdi)
  93      000000
  94 0007 E9000000 		jmp	_ZN8UnitTest4TestD2Ev
  94      00
  95              		.cfi_endproc
  96              	.LFE1227:
  98              		.weak	_ZN24TestQueue_testReallocOOMD1Ev
  99              		.set	_ZN24TestQueue_testReallocOOMD1Ev,_ZN24TestQueue_testReallocOOMD2Ev
 100              		.section	.text._ZN24TestQueue_testReallocOOMD0Ev,"axG",@progbits,_ZN24TestQueue_testReallocOOMD0Ev
 101              		.align 2
 102              		.p2align 4,,15
 103              		.weak	_ZN24TestQueue_testReallocOOMD0Ev
 105              	_ZN24TestQueue_testReallocOOMD0Ev:
 106              	.LFB1229:
 107              		.cfi_startproc
 108 0000 53       		pushq	%rbx
 109              		.cfi_def_cfa_offset 16
 110              		.cfi_offset 3, -16
 111 0001 4889FB   		movq	%rdi, %rbx
 112 0004 48C70700 		movq	$_ZTV24TestQueue_testReallocOOM+16, (%rdi)
 112      000000
 113 000b E8000000 		call	_ZN8UnitTest4TestD2Ev
 113      00
 114 0010 4889DF   		movq	%rbx, %rdi
 115 0013 5B       		popq	%rbx
 116              		.cfi_def_cfa_offset 8
 117 0014 E9000000 		jmp	_ZdlPv
 117      00
 118              		.cfi_endproc
 119              	.LFE1229:
 121              		.section	.text._ZN22TestQueue_testAllocOOMD2Ev,"axG",@progbits,_ZN22TestQueue_testAllocOOMD5Ev,com
 122              		.align 2
 123              		.p2align 4,,15
 124              		.weak	_ZN22TestQueue_testAllocOOMD2Ev
 126              	_ZN22TestQueue_testAllocOOMD2Ev:
 127              	.LFB1231:
 128              		.cfi_startproc
 129 0000 48C70700 		movq	$_ZTV22TestQueue_testAllocOOM+16, (%rdi)
 129      000000
 130 0007 E9000000 		jmp	_ZN8UnitTest4TestD2Ev
 130      00
 131              		.cfi_endproc
 132              	.LFE1231:
 134              		.weak	_ZN22TestQueue_testAllocOOMD1Ev
 135              		.set	_ZN22TestQueue_testAllocOOMD1Ev,_ZN22TestQueue_testAllocOOMD2Ev
 136              		.section	.text._ZN22TestQueue_testAllocOOMD0Ev,"axG",@progbits,_ZN22TestQueue_testAllocOOMD0Ev,com
 137              		.align 2
 138              		.p2align 4,,15
 139              		.weak	_ZN22TestQueue_testAllocOOMD0Ev
 141              	_ZN22TestQueue_testAllocOOMD0Ev:
 142              	.LFB1233:
 143              		.cfi_startproc
 144 0000 53       		pushq	%rbx
 145              		.cfi_def_cfa_offset 16
 146              		.cfi_offset 3, -16
 147 0001 4889FB   		movq	%rdi, %rbx
 148 0004 48C70700 		movq	$_ZTV22TestQueue_testAllocOOM+16, (%rdi)
 148      000000
 149 000b E8000000 		call	_ZN8UnitTest4TestD2Ev
 149      00
 150 0010 4889DF   		movq	%rbx, %rdi
 151 0013 5B       		popq	%rbx
 152              		.cfi_def_cfa_offset 8
 153 0014 E9000000 		jmp	_ZdlPv
 153      00
 154              		.cfi_endproc
 155              	.LFE1233:
 157              		.section	.text._ZN21TestQueue_testReallocD2Ev,"axG",@progbits,_ZN21TestQueue_testReallocD5Ev,comda
 158              		.align 2
 159              		.p2align 4,,15
 160              		.weak	_ZN21TestQueue_testReallocD2Ev
 162              	_ZN21TestQueue_testReallocD2Ev:
 163              	.LFB1235:
 164              		.cfi_startproc
 165 0000 48C70700 		movq	$_ZTV21TestQueue_testRealloc+16, (%rdi)
 165      000000
 166 0007 E9000000 		jmp	_ZN8UnitTest4TestD2Ev
 166      00
 167              		.cfi_endproc
 168              	.LFE1235:
 170              		.weak	_ZN21TestQueue_testReallocD1Ev
 171              		.set	_ZN21TestQueue_testReallocD1Ev,_ZN21TestQueue_testReallocD2Ev
 172              		.section	.text._ZN21TestQueue_testReallocD0Ev,"axG",@progbits,_ZN21TestQueue_testReallocD0Ev,comda
 173              		.align 2
 174              		.p2align 4,,15
 175              		.weak	_ZN21TestQueue_testReallocD0Ev
 177              	_ZN21TestQueue_testReallocD0Ev:
 178              	.LFB1237:
 179              		.cfi_startproc
 180 0000 53       		pushq	%rbx
 181              		.cfi_def_cfa_offset 16
 182              		.cfi_offset 3, -16
 183 0001 4889FB   		movq	%rdi, %rbx
 184 0004 48C70700 		movq	$_ZTV21TestQueue_testRealloc+16, (%rdi)
 184      000000
 185 000b E8000000 		call	_ZN8UnitTest4TestD2Ev
 185      00
 186 0010 4889DF   		movq	%rbx, %rdi
 187 0013 5B       		popq	%rbx
 188              		.cfi_def_cfa_offset 8
 189 0014 E9000000 		jmp	_ZdlPv
 189      00
 190              		.cfi_endproc
 191              	.LFE1237:
 193              		.section	.text._ZN21TestQueue_testPutTakeD2Ev,"axG",@progbits,_ZN21TestQueue_testPutTakeD5Ev,comda
 194              		.align 2
 195              		.p2align 4,,15
 196              		.weak	_ZN21TestQueue_testPutTakeD2Ev
 198              	_ZN21TestQueue_testPutTakeD2Ev:
 199              	.LFB1239:
 200              		.cfi_startproc
 201 0000 48C70700 		movq	$_ZTV21TestQueue_testPutTake+16, (%rdi)
 201      000000
 202 0007 E9000000 		jmp	_ZN8UnitTest4TestD2Ev
 202      00
 203              		.cfi_endproc
 204              	.LFE1239:
 206              		.weak	_ZN21TestQueue_testPutTakeD1Ev
 207              		.set	_ZN21TestQueue_testPutTakeD1Ev,_ZN21TestQueue_testPutTakeD2Ev
 208              		.section	.text._ZN21TestQueue_testPutTakeD0Ev,"axG",@progbits,_ZN21TestQueue_testPutTakeD0Ev,comda
 209              		.align 2
 210              		.p2align 4,,15
 211              		.weak	_ZN21TestQueue_testPutTakeD0Ev
 213              	_ZN21TestQueue_testPutTakeD0Ev:
 214              	.LFB1241:
 215              		.cfi_startproc
 216 0000 53       		pushq	%rbx
 217              		.cfi_def_cfa_offset 16
 218              		.cfi_offset 3, -16
 219 0001 4889FB   		movq	%rdi, %rbx
 220 0004 48C70700 		movq	$_ZTV21TestQueue_testPutTake+16, (%rdi)
 220      000000
 221 000b E8000000 		call	_ZN8UnitTest4TestD2Ev
 221      00
 222 0010 4889DF   		movq	%rbx, %rdi
 223 0013 5B       		popq	%rbx
 224              		.cfi_def_cfa_offset 8
 225 0014 E9000000 		jmp	_ZdlPv
 225      00
 226              		.cfi_endproc
 227              	.LFE1241:
 229              		.section	.text._ZN21TestQueue_testPutWrapD2Ev,"axG",@progbits,_ZN21TestQueue_testPutWrapD5Ev,comda
 230              		.align 2
 231              		.p2align 4,,15
 232              		.weak	_ZN21TestQueue_testPutWrapD2Ev
 234              	_ZN21TestQueue_testPutWrapD2Ev:
 235              	.LFB1243:
 236              		.cfi_startproc
 237 0000 48C70700 		movq	$_ZTV21TestQueue_testPutWrap+16, (%rdi)
 237      000000
 238 0007 E9000000 		jmp	_ZN8UnitTest4TestD2Ev
 238      00
 239              		.cfi_endproc
 240              	.LFE1243:
 242              		.weak	_ZN21TestQueue_testPutWrapD1Ev
 243              		.set	_ZN21TestQueue_testPutWrapD1Ev,_ZN21TestQueue_testPutWrapD2Ev
 244              		.section	.text._ZN21TestQueue_testPutWrapD0Ev,"axG",@progbits,_ZN21TestQueue_testPutWrapD0Ev,comda
 245              		.align 2
 246              		.p2align 4,,15
 247              		.weak	_ZN21TestQueue_testPutWrapD0Ev
 249              	_ZN21TestQueue_testPutWrapD0Ev:
 250              	.LFB1245:
 251              		.cfi_startproc
 252 0000 53       		pushq	%rbx
 253              		.cfi_def_cfa_offset 16
 254              		.cfi_offset 3, -16
 255 0001 4889FB   		movq	%rdi, %rbx
 256 0004 48C70700 		movq	$_ZTV21TestQueue_testPutWrap+16, (%rdi)
 256      000000
 257 000b E8000000 		call	_ZN8UnitTest4TestD2Ev
 257      00
 258 0010 4889DF   		movq	%rbx, %rdi
 259 0013 5B       		popq	%rbx
 260              		.cfi_def_cfa_offset 8
 261 0014 E9000000 		jmp	_ZdlPv
 261      00
 262              		.cfi_endproc
 263              	.LFE1245:
 265              		.section	.text._ZN23TestQueue_testPutNoWrapD2Ev,"axG",@progbits,_ZN23TestQueue_testPutNoWrapD5Ev,c
 266              		.align 2
 267              		.p2align 4,,15
 268              		.weak	_ZN23TestQueue_testPutNoWrapD2Ev
 270              	_ZN23TestQueue_testPutNoWrapD2Ev:
 271              	.LFB1247:
 272              		.cfi_startproc
 273 0000 48C70700 		movq	$_ZTV23TestQueue_testPutNoWrap+16, (%rdi)
 273      000000
 274 0007 E9000000 		jmp	_ZN8UnitTest4TestD2Ev
 274      00
 275              		.cfi_endproc
 276              	.LFE1247:
 278              		.weak	_ZN23TestQueue_testPutNoWrapD1Ev
 279              		.set	_ZN23TestQueue_testPutNoWrapD1Ev,_ZN23TestQueue_testPutNoWrapD2Ev
 280              		.section	.text._ZN23TestQueue_testPutNoWrapD0Ev,"axG",@progbits,_ZN23TestQueue_testPutNoWrapD0Ev,c
 281              		.align 2
 282              		.p2align 4,,15
 283              		.weak	_ZN23TestQueue_testPutNoWrapD0Ev
 285              	_ZN23TestQueue_testPutNoWrapD0Ev:
 286              	.LFB1249:
 287              		.cfi_startproc
 288 0000 53       		pushq	%rbx
 289              		.cfi_def_cfa_offset 16
 290              		.cfi_offset 3, -16
 291 0001 4889FB   		movq	%rdi, %rbx
 292 0004 48C70700 		movq	$_ZTV23TestQueue_testPutNoWrap+16, (%rdi)
 292      000000
 293 000b E8000000 		call	_ZN8UnitTest4TestD2Ev
 293      00
 294 0010 4889DF   		movq	%rbx, %rdi
 295 0013 5B       		popq	%rbx
 296              		.cfi_def_cfa_offset 8
 297 0014 E9000000 		jmp	_ZdlPv
 297      00
 298              		.cfi_endproc
 299              	.LFE1249:
 301              		.section	.text._ZN18TestQueue_testInitD2Ev,"axG",@progbits,_ZN18TestQueue_testInitD5Ev,comdat
 302              		.align 2
 303              		.p2align 4,,15
 304              		.weak	_ZN18TestQueue_testInitD2Ev
 306              	_ZN18TestQueue_testInitD2Ev:
 307              	.LFB1251:
 308              		.cfi_startproc
 309 0000 48C70700 		movq	$_ZTV18TestQueue_testInit+16, (%rdi)
 309      000000
 310 0007 E9000000 		jmp	_ZN8UnitTest4TestD2Ev
 310      00
 311              		.cfi_endproc
 312              	.LFE1251:
 314              		.weak	_ZN18TestQueue_testInitD1Ev
 315              		.set	_ZN18TestQueue_testInitD1Ev,_ZN18TestQueue_testInitD2Ev
 316              		.section	.text._ZN18TestQueue_testInitD0Ev,"axG",@progbits,_ZN18TestQueue_testInitD0Ev,comdat
 317              		.align 2
 318              		.p2align 4,,15
 319              		.weak	_ZN18TestQueue_testInitD0Ev
 321              	_ZN18TestQueue_testInitD0Ev:
 322              	.LFB1253:
 323              		.cfi_startproc
 324 0000 53       		pushq	%rbx
 325              		.cfi_def_cfa_offset 16
 326              		.cfi_offset 3, -16
 327 0001 4889FB   		movq	%rdi, %rbx
 328 0004 48C70700 		movq	$_ZTV18TestQueue_testInit+16, (%rdi)
 328      000000
 329 000b E8000000 		call	_ZN8UnitTest4TestD2Ev
 329      00
 330 0010 4889DF   		movq	%rbx, %rdi
 331 0013 5B       		popq	%rbx
 332              		.cfi_def_cfa_offset 8
 333 0014 E9000000 		jmp	_ZdlPv
 333      00
 334              		.cfi_endproc
 335              	.LFE1253:
 337              		.section	.text.unlikely,"ax",@progbits
 339              	_ZStlsISt11char_traitsIcEERSt13basic_ostreamIcT_ES5_PKc.part.1:
 340              	.LFB1257:
 341              		.cfi_startproc
 342 0000 50       		pushq	%rax
 343              		.cfi_def_cfa_offset 16
 344 0001 488B07   		movq	(%rdi), %rax
 345 0004 480378E8 		addq	-24(%rax), %rdi
 346 0008 8B7720   		movl	32(%rdi), %esi
 347 000b 83CE01   		orl	$1, %esi
 348 000e E8000000 		call	_ZNSt9basic_iosIcSt11char_traitsIcEE5clearESt12_Ios_Iostate
 348      00
 349 0013 5A       		popq	%rdx
 350              		.cfi_def_cfa_offset 8
 351 0014 C3       		ret
 352              		.cfi_endproc
 353              	.LFE1257:
 355              		.section	.text._ZNSt15basic_stringbufIcSt11char_traitsIcESaIcEED2Ev,"axG",@progbits,_ZNSt15basic_s
 356              		.align 2
 357              		.p2align 4,,15
 358              		.weak	_ZNSt15basic_stringbufIcSt11char_traitsIcESaIcEED2Ev
 360              	_ZNSt15basic_stringbufIcSt11char_traitsIcESaIcEED2Ev:
 361              	.LFB1146:
 362              		.cfi_startproc
 363 0000 53       		pushq	%rbx
 364              		.cfi_def_cfa_offset 16
 365              		.cfi_offset 3, -16
 366 0001 4889FB   		movq	%rdi, %rbx
 367 0004 4883EC10 		subq	$16, %rsp
 368              		.cfi_def_cfa_offset 32
 369 0008 488B4748 		movq	72(%rdi), %rax
 370 000c 48C70700 		movq	$_ZTVSt15basic_stringbufIcSt11char_traitsIcESaIcEE+16, (%rdi)
 370      000000
 371 0013 488D78E8 		leaq	-24(%rax), %rdi
 372 0017 4881FF00 		cmpq	$_ZNSs4_Rep20_S_empty_rep_storageE, %rdi
 372      000000
 373 001e 7516     		jne	.L45
 374              	.L40:
 375 0020 488D7B38 		leaq	56(%rbx), %rdi
 376 0024 48C70300 		movq	$_ZTVSt15basic_streambufIcSt11char_traitsIcEE+16, (%rbx)
 376      000000
 377 002b E8000000 		call	_ZNSt6localeD1Ev
 377      00
 378 0030 4883C410 		addq	$16, %rsp
 379              		.cfi_remember_state
 380              		.cfi_def_cfa_offset 16
 381 0034 5B       		popq	%rbx
 382              		.cfi_def_cfa_offset 8
 383 0035 C3       		ret
 384              	.L45:
 385              		.cfi_restore_state
 386 0036 B9000000 		movl	$_ZL28__gthrw___pthread_key_createPjPFvPvE, %ecx
 386      00
 387 003b 488D5710 		leaq	16(%rdi), %rdx
 388 003f 4885C9   		testq	%rcx, %rcx
 389 0042 7417     		je	.L41
 390 0044 83C8FF   		orl	$-1, %eax
 391 0047 F00FC102 		lock xaddl	%eax, (%rdx)
 392              	.L42:
 393 004b 85C0     		testl	%eax, %eax
 394 004d 7FD1     		jg	.L40
 395 004f 488D7424 		leaq	15(%rsp), %rsi
 395      0F
 396 0054 E8000000 		call	_ZNSs4_Rep10_M_destroyERKSaIcE
 396      00
 397 0059 EBC5     		jmp	.L40
 398              	.L41:
 399 005b 8B50F8   		movl	-8(%rax), %edx
 400 005e 8D4AFF   		leal	-1(%rdx), %ecx
 401 0061 8948F8   		movl	%ecx, -8(%rax)
 402 0064 89D0     		movl	%edx, %eax
 403 0066 EBE3     		jmp	.L42
 404              		.cfi_endproc
 405              	.LFE1146:
 407              		.weak	_ZNSt15basic_stringbufIcSt11char_traitsIcESaIcEED1Ev
 408              		.set	_ZNSt15basic_stringbufIcSt11char_traitsIcESaIcEED1Ev,_ZNSt15basic_stringbufIcSt11char_traitsI
 409              		.section	.text._ZNSt15basic_stringbufIcSt11char_traitsIcESaIcEED0Ev,"axG",@progbits,_ZNSt15basic_s
 410              		.align 2
 411              		.p2align 4,,15
 412              		.weak	_ZNSt15basic_stringbufIcSt11char_traitsIcESaIcEED0Ev
 414              	_ZNSt15basic_stringbufIcSt11char_traitsIcESaIcEED0Ev:
 415              	.LFB1148:
 416              		.cfi_startproc
 417 0000 53       		pushq	%rbx
 418              		.cfi_def_cfa_offset 16
 419              		.cfi_offset 3, -16
 420 0001 4889FB   		movq	%rdi, %rbx
 421 0004 4883EC10 		subq	$16, %rsp
 422              		.cfi_def_cfa_offset 32
 423 0008 488B4748 		movq	72(%rdi), %rax
 424 000c 48C70700 		movq	$_ZTVSt15basic_stringbufIcSt11char_traitsIcESaIcEE+16, (%rdi)
 424      000000
 425 0013 488D78E8 		leaq	-24(%rax), %rdi
 426 0017 4881FF00 		cmpq	$_ZNSs4_Rep20_S_empty_rep_storageE, %rdi
 426      000000
 427 001e 751E     		jne	.L53
 428              	.L48:
 429 0020 488D7B38 		leaq	56(%rbx), %rdi
 430 0024 48C70300 		movq	$_ZTVSt15basic_streambufIcSt11char_traitsIcEE+16, (%rbx)
 430      000000
 431 002b E8000000 		call	_ZNSt6localeD1Ev
 431      00
 432 0030 4889DF   		movq	%rbx, %rdi
 433 0033 E8000000 		call	_ZdlPv
 433      00
 434 0038 4883C410 		addq	$16, %rsp
 435              		.cfi_remember_state
 436              		.cfi_def_cfa_offset 16
 437 003c 5B       		popq	%rbx
 438              		.cfi_def_cfa_offset 8
 439 003d C3       		ret
 440              	.L53:
 441              		.cfi_restore_state
 442 003e B9000000 		movl	$_ZL28__gthrw___pthread_key_createPjPFvPvE, %ecx
 442      00
 443 0043 488D5710 		leaq	16(%rdi), %rdx
 444 0047 4885C9   		testq	%rcx, %rcx
 445 004a 7417     		je	.L49
 446 004c 83C8FF   		orl	$-1, %eax
 447 004f F00FC102 		lock xaddl	%eax, (%rdx)
 448              	.L50:
 449 0053 85C0     		testl	%eax, %eax
 450 0055 7FC9     		jg	.L48
 451 0057 488D7424 		leaq	15(%rsp), %rsi
 451      0F
 452 005c E8000000 		call	_ZNSs4_Rep10_M_destroyERKSaIcE
 452      00
 453 0061 EBBD     		jmp	.L48
 454              	.L49:
 455 0063 8B50F8   		movl	-8(%rax), %edx
 456 0066 8D4AFF   		leal	-1(%rdx), %ecx
 457 0069 8948F8   		movl	%ecx, -8(%rax)
 458 006c 89D0     		movl	%edx, %eax
 459 006e EBE3     		jmp	.L50
 460              		.cfi_endproc
 461              	.LFE1148:
 463              		.section	.text._ZN8UnitTest15MemoryOutStreamD1Ev,"axG",@progbits,_ZN8UnitTest15MemoryOutStreamD1Ev
 464              		.align 2
 465              		.p2align 4,,15
 466              		.weak	_ZN8UnitTest15MemoryOutStreamD1Ev
 468              	_ZN8UnitTest15MemoryOutStreamD1Ev:
 469              	.LFB1167:
 470              		.cfi_startproc
 471 0000 53       		pushq	%rbx
 472              		.cfi_def_cfa_offset 16
 473              		.cfi_offset 3, -16
 474 0001 4889FB   		movq	%rdi, %rbx
 475 0004 4883EC10 		subq	$16, %rsp
 476              		.cfi_def_cfa_offset 32
 477 0008 488B4758 		movq	88(%rdi), %rax
 478 000c 48C70700 		movq	$_ZTVN8UnitTest15MemoryOutStreamE+24, (%rdi)
 478      000000
 479 0013 48C74760 		movq	$_ZTVN8UnitTest15MemoryOutStreamE+64, 96(%rdi)
 479      00000000 
 480 001b 488D78E8 		leaq	-24(%rax), %rdi
 481 001f 4881FF00 		cmpq	$_ZNSs4_Rep20_S_empty_rep_storageE, %rdi
 481      000000
 482 0026 7557     		jne	.L66
 483              	.L56:
 484 0028 488B4350 		movq	80(%rbx), %rax
 485 002c 48C70300 		movq	$_ZTCN8UnitTest15MemoryOutStreamE0_St19basic_ostringstreamIcSt11char_traitsIcESaIcEE+24, (%rb
 485      000000
 486 0033 48C74360 		movq	$_ZTCN8UnitTest15MemoryOutStreamE0_St19basic_ostringstreamIcSt11char_traitsIcESaIcEE+64, 96(%
 486      00000000 
 487 003b 48C74308 		movq	$_ZTVSt15basic_stringbufIcSt11char_traitsIcESaIcEE+16, 8(%rbx)
 487      00000000 
 488 0043 488D78E8 		leaq	-24(%rax), %rdi
 489 0047 4881FF00 		cmpq	$_ZNSs4_Rep20_S_empty_rep_storageE, %rdi
 489      000000
 490 004e 7554     		jne	.L67
 491              	.L61:
 492 0050 488D7B40 		leaq	64(%rbx), %rdi
 493 0054 48C74308 		movq	$_ZTVSt15basic_streambufIcSt11char_traitsIcEE+16, 8(%rbx)
 493      00000000 
 494 005c E8000000 		call	_ZNSt6localeD1Ev
 494      00
 495 0061 488D7B60 		leaq	96(%rbx), %rdi
 496 0065 48C70300 		movq	$_ZTCN8UnitTest15MemoryOutStreamE0_So+24, (%rbx)
 496      000000
 497 006c 48C74360 		movq	$_ZTVSt9basic_iosIcSt11char_traitsIcEE+16, 96(%rbx)
 497      00000000 
 498 0074 E8000000 		call	_ZNSt8ios_baseD2Ev
 498      00
 499 0079 4883C410 		addq	$16, %rsp
 500              		.cfi_remember_state
 501              		.cfi_def_cfa_offset 16
 502 007d 5B       		popq	%rbx
 503              		.cfi_def_cfa_offset 8
 504 007e C3       		ret
 505              	.L66:
 506              		.cfi_restore_state
 507 007f B9000000 		movl	$_ZL28__gthrw___pthread_key_createPjPFvPvE, %ecx
 507      00
 508 0084 488D5710 		leaq	16(%rdi), %rdx
 509 0088 4885C9   		testq	%rcx, %rcx
 510 008b 743C     		je	.L57
 511 008d 83C8FF   		orl	$-1, %eax
 512 0090 F00FC102 		lock xaddl	%eax, (%rdx)
 513              	.L58:
 514 0094 85C0     		testl	%eax, %eax
 515 0096 7F90     		jg	.L56
 516 0098 488D7424 		leaq	15(%rsp), %rsi
 516      0F
 517 009d E8000000 		call	_ZNSs4_Rep10_M_destroyERKSaIcE
 517      00
 518 00a2 EB84     		jmp	.L56
 519              	.L67:
 520 00a4 B9000000 		movl	$_ZL28__gthrw___pthread_key_createPjPFvPvE, %ecx
 520      00
 521 00a9 488D5710 		leaq	16(%rdi), %rdx
 522 00ad 4885C9   		testq	%rcx, %rcx
 523 00b0 7424     		je	.L62
 524 00b2 83C8FF   		orl	$-1, %eax
 525 00b5 F00FC102 		lock xaddl	%eax, (%rdx)
 526              	.L63:
 527 00b9 85C0     		testl	%eax, %eax
 528 00bb 7F93     		jg	.L61
 529 00bd 488D7424 		leaq	15(%rsp), %rsi
 529      0F
 530 00c2 E8000000 		call	_ZNSs4_Rep10_M_destroyERKSaIcE
 530      00
 531 00c7 EB87     		jmp	.L61
 532              	.L57:
 533 00c9 8B50F8   		movl	-8(%rax), %edx
 534 00cc 8D4AFF   		leal	-1(%rdx), %ecx
 535 00cf 8948F8   		movl	%ecx, -8(%rax)
 536 00d2 89D0     		movl	%edx, %eax
 537 00d4 EBBE     		jmp	.L58
 538              	.L62:
 539 00d6 8B50F8   		movl	-8(%rax), %edx
 540 00d9 8D4AFF   		leal	-1(%rdx), %ecx
 541 00dc 8948F8   		movl	%ecx, -8(%rax)
 542 00df 89D0     		movl	%edx, %eax
 543 00e1 EBD6     		jmp	.L63
 544              		.cfi_endproc
 545              	.LFE1167:
 547              		.set	.LTHUNK0,_ZN8UnitTest15MemoryOutStreamD1Ev
 548 00e3 66666666 		.p2align 4,,15
 548      2E0F1F84 
 548      00000000 
 548      00
 549              		.weak	_ZTv0_n24_N8UnitTest15MemoryOutStreamD1Ev
 551              	_ZTv0_n24_N8UnitTest15MemoryOutStreamD1Ev:
 552              	.LFB1266:
 553              		.cfi_startproc
 554 00f0 4C8B17   		movq	(%rdi), %r10
 555 00f3 49037AE8 		addq	-24(%r10), %rdi
 556 00f7 E904FFFF 		jmp	.LTHUNK0
 556      FF
 557              		.cfi_endproc
 558              	.LFE1266:
 560              		.section	.text._ZN8UnitTest15MemoryOutStreamD0Ev,"axG",@progbits,_ZN8UnitTest15MemoryOutStreamD0Ev
 561              		.align 2
 562              		.p2align 4,,15
 563              		.weak	_ZN8UnitTest15MemoryOutStreamD0Ev
 565              	_ZN8UnitTest15MemoryOutStreamD0Ev:
 566              	.LFB1168:
 567              		.cfi_startproc
 568 0000 53       		pushq	%rbx
 569              		.cfi_def_cfa_offset 16
 570              		.cfi_offset 3, -16
 571 0001 4889FB   		movq	%rdi, %rbx
 572 0004 4883EC10 		subq	$16, %rsp
 573              		.cfi_def_cfa_offset 32
 574 0008 488B4758 		movq	88(%rdi), %rax
 575 000c 48C70700 		movq	$_ZTVN8UnitTest15MemoryOutStreamE+24, (%rdi)
 575      000000
 576 0013 48C74760 		movq	$_ZTVN8UnitTest15MemoryOutStreamE+64, 96(%rdi)
 576      00000000 
 577 001b 488D78E8 		leaq	-24(%rax), %rdi
 578 001f 4881FF00 		cmpq	$_ZNSs4_Rep20_S_empty_rep_storageE, %rdi
 578      000000
 579 0026 755F     		jne	.L80
 580              	.L70:
 581 0028 488B4350 		movq	80(%rbx), %rax
 582 002c 48C70300 		movq	$_ZTCN8UnitTest15MemoryOutStreamE0_St19basic_ostringstreamIcSt11char_traitsIcESaIcEE+24, (%rb
 582      000000
 583 0033 48C74360 		movq	$_ZTCN8UnitTest15MemoryOutStreamE0_St19basic_ostringstreamIcSt11char_traitsIcESaIcEE+64, 96(%
 583      00000000 
 584 003b 48C74308 		movq	$_ZTVSt15basic_stringbufIcSt11char_traitsIcESaIcEE+16, 8(%rbx)
 584      00000000 
 585 0043 488D78E8 		leaq	-24(%rax), %rdi
 586 0047 4881FF00 		cmpq	$_ZNSs4_Rep20_S_empty_rep_storageE, %rdi
 586      000000
 587 004e 755F     		jne	.L81
 588              	.L75:
 589 0050 488D7B40 		leaq	64(%rbx), %rdi
 590 0054 48C74308 		movq	$_ZTVSt15basic_streambufIcSt11char_traitsIcEE+16, 8(%rbx)
 590      00000000 
 591 005c E8000000 		call	_ZNSt6localeD1Ev
 591      00
 592 0061 488D7B60 		leaq	96(%rbx), %rdi
 593 0065 48C70300 		movq	$_ZTCN8UnitTest15MemoryOutStreamE0_So+24, (%rbx)
 593      000000
 594 006c 48C74360 		movq	$_ZTVSt9basic_iosIcSt11char_traitsIcEE+16, 96(%rbx)
 594      00000000 
 595 0074 E8000000 		call	_ZNSt8ios_baseD2Ev
 595      00
 596 0079 4889DF   		movq	%rbx, %rdi
 597 007c E8000000 		call	_ZdlPv
 597      00
 598 0081 4883C410 		addq	$16, %rsp
 599              		.cfi_remember_state
 600              		.cfi_def_cfa_offset 16
 601 0085 5B       		popq	%rbx
 602              		.cfi_def_cfa_offset 8
 603 0086 C3       		ret
 604              	.L80:
 605              		.cfi_restore_state
 606 0087 B9000000 		movl	$_ZL28__gthrw___pthread_key_createPjPFvPvE, %ecx
 606      00
 607 008c 488D5710 		leaq	16(%rdi), %rdx
 608 0090 4885C9   		testq	%rcx, %rcx
 609 0093 7442     		je	.L71
 610 0095 83C8FF   		orl	$-1, %eax
 611 0098 F00FC102 		lock xaddl	%eax, (%rdx)
 612              	.L72:
 613 009c 85C0     		testl	%eax, %eax
 614 009e 7F88     		jg	.L70
 615 00a0 488D7424 		leaq	15(%rsp), %rsi
 615      0F
 616 00a5 E8000000 		call	_ZNSs4_Rep10_M_destroyERKSaIcE
 616      00
 617 00aa E979FFFF 		jmp	.L70
 617      FF
 618              	.L81:
 619 00af B9000000 		movl	$_ZL28__gthrw___pthread_key_createPjPFvPvE, %ecx
 619      00
 620 00b4 488D5710 		leaq	16(%rdi), %rdx
 621 00b8 4885C9   		testq	%rcx, %rcx
 622 00bb 7427     		je	.L76
 623 00bd 83C8FF   		orl	$-1, %eax
 624 00c0 F00FC102 		lock xaddl	%eax, (%rdx)
 625              	.L77:
 626 00c4 85C0     		testl	%eax, %eax
 627 00c6 7F88     		jg	.L75
 628 00c8 488D7424 		leaq	15(%rsp), %rsi
 628      0F
 629 00cd E8000000 		call	_ZNSs4_Rep10_M_destroyERKSaIcE
 629      00
 630 00d2 E979FFFF 		jmp	.L75
 630      FF
 631              	.L71:
 632 00d7 8B50F8   		movl	-8(%rax), %edx
 633 00da 8D4AFF   		leal	-1(%rdx), %ecx
 634 00dd 8948F8   		movl	%ecx, -8(%rax)
 635 00e0 89D0     		movl	%edx, %eax
 636 00e2 EBB8     		jmp	.L72
 637              	.L76:
 638 00e4 8B50F8   		movl	-8(%rax), %edx
 639 00e7 8D4AFF   		leal	-1(%rdx), %ecx
 640 00ea 8948F8   		movl	%ecx, -8(%rax)
 641 00ed 89D0     		movl	%edx, %eax
 642 00ef EBD3     		jmp	.L77
 643              		.cfi_endproc
 644              	.LFE1168:
 646              		.set	.LTHUNK1,_ZN8UnitTest15MemoryOutStreamD0Ev
 647 00f1 66666666 		.p2align 4,,15
 647      66662E0F 
 647      1F840000 
 647      000000
 648              		.weak	_ZTv0_n24_N8UnitTest15MemoryOutStreamD0Ev
 650              	_ZTv0_n24_N8UnitTest15MemoryOutStreamD0Ev:
 651              	.LFB1267:
 652              		.cfi_startproc
 653 0100 4C8B17   		movq	(%rdi), %r10
 654 0103 49037AE8 		addq	-24(%r10), %rdi
 655 0107 E9F4FEFF 		jmp	.LTHUNK1
 655      FF
 656              		.cfi_endproc
 657              	.LFE1267:
 659              		.section	.rodata.str1.1,"aMS",@progbits,1
 660              	.LC0:
 661 0000 45787065 		.string	"Expected "
 661      63746564 
 661      2000
 662              	.LC1:
 663 000a 20627574 		.string	" but was "
 663      20776173 
 663      2000
 664              		.section	.rodata.str1.8,"aMS",@progbits,1
 665              		.align 8
 666              	.LC2:
 667 0000 556E6861 		.string	"Unhandled exception in CHECK_EQUAL(0, m_allocFree)"
 667      6E646C65 
 667      64206578 
 667      63657074 
 667      696F6E20 
 668              		.text
 669              		.align 2
 670 005a 660F1F44 		.p2align 4,,15
 670      0000
 671              		.globl	_ZNK31TestQueue_testAllocFreeMatching7RunImplEv
 673              	_ZNK31TestQueue_testAllocFreeMatching7RunImplEv:
 674              	.LFB1136:
 675              		.cfi_startproc
 676              		.cfi_personality 0x3,__gxx_personality_v0
 677              		.cfi_lsda 0x3,.LLSDA1136
 678 0060 4155     		pushq	%r13
 679              		.cfi_def_cfa_offset 16
 680              		.cfi_offset 13, -16
 681 0062 4154     		pushq	%r12
 682              		.cfi_def_cfa_offset 24
 683              		.cfi_offset 12, -24
 684 0064 55       		pushq	%rbp
 685              		.cfi_def_cfa_offset 32
 686              		.cfi_offset 6, -32
 687 0065 53       		pushq	%rbx
 688              		.cfi_def_cfa_offset 40
 689              		.cfi_offset 3, -40
 690 0066 4881ECA8 		subq	$424, %rsp
 690      010000
 691              		.cfi_def_cfa_offset 464
 692              	.LEHB0:
 693 006d E8000000 		call	_ZN8UnitTest11CurrentTest7DetailsEv
 693      00
 694 0072 488D5C24 		leaq	16(%rsp), %rbx
 694      10
 695 0077 488B30   		movq	(%rax), %rsi
 696 007a BA810100 		movl	$385, %edx
 696      00
 697 007f 4889DF   		movq	%rbx, %rdi
 698 0082 E8000000 		call	_ZN8UnitTest11TestDetailsC1ERKS0_i
 698      00
 699 0087 E8000000 		call	_ZN8UnitTest11CurrentTest7ResultsEv
 699      00
 700              	.LEHE0:
 701 008c 4C8B20   		movq	(%rax), %r12
 702 008f 8B050000 		movl	_ZL11m_allocFree(%rip), %eax
 702      0000
 703 0095 85C0     		testl	%eax, %eax
 704 0097 0F842102 		je	.L82
 704      0000
 705 009d 488DAC24 		leaq	144(%rsp), %rbp
 705      90000000 
 706 00a5 4889EF   		movq	%rbp, %rdi
 707 00a8 E8000000 		call	_ZNSt8ios_baseC2Ev
 707      00
 708 00ad 31F6     		xorl	%esi, %esi
 709 00af 4889EF   		movq	%rbp, %rdi
 710 00b2 48C78424 		movq	$0, 360(%rsp)
 710      68010000 
 710      00000000 
 711 00be C6842470 		movb	$0, 368(%rsp)
 711      01000000 
 712 00c6 C6842471 		movb	$0, 369(%rsp)
 712      01000000 
 713 00ce 48C78424 		movq	$0, 376(%rsp)
 713      78010000 
 713      00000000 
 714 00da 48C78424 		movq	$0, 384(%rsp)
 714      80010000 
 714      00000000 
 715 00e6 48C78424 		movq	$0, 392(%rsp)
 715      88010000 
 715      00000000 
 716 00f2 48C78424 		movq	$0, 400(%rsp)
 716      90010000 
 716      00000000 
 717 00fe 48C74424 		movq	$_ZTCN8UnitTest15MemoryOutStreamE0_So+24, 48(%rsp)
 717      30000000 
 717      00
 718 0107 48C78424 		movq	$_ZTCN8UnitTest15MemoryOutStreamE0_So+64, 144(%rsp)
 718      90000000 
 718      00000000 
 719              	.LEHB1:
 720 0113 E8000000 		call	_ZNSt9basic_iosIcSt11char_traitsIcEE4initEPSt15basic_streambufIcS1_E
 720      00
 721              	.LEHE1:
 722 0118 488D7C24 		leaq	112(%rsp), %rdi
 722      70
 723 011d 48C74424 		movq	$_ZTCN8UnitTest15MemoryOutStreamE0_St19basic_ostringstreamIcSt11char_traitsIcESaIcEE+24, 48(%
 723      30000000 
 723      00
 724 0126 48C78424 		movq	$_ZTCN8UnitTest15MemoryOutStreamE0_St19basic_ostringstreamIcSt11char_traitsIcESaIcEE+64, 144(
 724      90000000 
 724      00000000 
 725 0132 48C74424 		movq	$_ZTVSt15basic_streambufIcSt11char_traitsIcEE+16, 56(%rsp)
 725      38000000 
 725      00
 726 013b 48C74424 		movq	$0, 64(%rsp)
 726      40000000 
 726      00
 727 0144 48C74424 		movq	$0, 72(%rsp)
 727      48000000 
 727      00
 728 014d 48C74424 		movq	$0, 80(%rsp)
 728      50000000 
 728      00
 729 0156 48C74424 		movq	$0, 88(%rsp)
 729      58000000 
 729      00
 730 015f 48C74424 		movq	$0, 96(%rsp)
 730      60000000 
 730      00
 731 0168 48C74424 		movq	$0, 104(%rsp)
 731      68000000 
 731      00
 732 0171 E8000000 		call	_ZNSt6localeC1Ev
 732      00
 733 0176 488B4424 		movq	48(%rsp), %rax
 733      30
 734 017b 488D7C24 		leaq	48(%rsp), %rdi
 734      30
 735 0180 488D7424 		leaq	56(%rsp), %rsi
 735      38
 736 0185 48C74424 		movq	$_ZTVSt15basic_stringbufIcSt11char_traitsIcESaIcEE+16, 56(%rsp)
 736      38000000 
 736      00
 737 018e C7442478 		movl	$16, 120(%rsp)
 737      10000000 
 738 0196 48C78424 		movq	$_ZNSs4_Rep20_S_empty_rep_storageE+24, 128(%rsp)
 738      80000000 
 738      00000000 
 739 01a2 480378E8 		addq	-24(%rax), %rdi
 740              	.LEHB2:
 741 01a6 E8000000 		call	_ZNSt9basic_iosIcSt11char_traitsIcEE4initEPSt15basic_streambufIcS1_E
 741      00
 742              	.LEHE2:
 743 01ab 488D7C24 		leaq	48(%rsp), %rdi
 743      30
 744 01b0 BA090000 		movl	$9, %edx
 744      00
 745 01b5 BE000000 		movl	$.LC0, %esi
 745      00
 746 01ba 48C74424 		movq	$_ZTVN8UnitTest15MemoryOutStreamE+24, 48(%rsp)
 746      30000000 
 746      00
 747 01c3 48C78424 		movq	$_ZTVN8UnitTest15MemoryOutStreamE+64, 144(%rsp)
 747      90000000 
 747      00000000 
 748 01cf 48C78424 		movq	$_ZNSs4_Rep20_S_empty_rep_storageE+24, 136(%rsp)
 748      88000000 
 748      00000000 
 749 01db 448B2D00 		movl	_ZL11m_allocFree(%rip), %r13d
 749      000000
 750              	.LEHB3:
 751 01e2 E8000000 		call	_ZSt16__ostream_insertIcSt11char_traitsIcEERSt13basic_ostreamIT_T0_ES6_PKS3_l
 751      00
 752 01e7 488D7C24 		leaq	48(%rsp), %rdi
 752      30
 753 01ec 31F6     		xorl	%esi, %esi
 754 01ee E8000000 		call	_ZNSolsEi
 754      00
 755 01f3 BA090000 		movl	$9, %edx
 755      00
 756 01f8 BE000000 		movl	$.LC1, %esi
 756      00
 757 01fd 4889C7   		movq	%rax, %rdi
 758 0200 4889C5   		movq	%rax, %rbp
 759 0203 E8000000 		call	_ZSt16__ostream_insertIcSt11char_traitsIcEERSt13basic_ostreamIT_T0_ES6_PKS3_l
 759      00
 760 0208 4489EE   		movl	%r13d, %esi
 761 020b 4889EF   		movq	%rbp, %rdi
 762 020e E8000000 		call	_ZNSolsEi
 762      00
 763 0213 488D7C24 		leaq	48(%rsp), %rdi
 763      30
 764 0218 E8000000 		call	_ZNK8UnitTest15MemoryOutStream7GetTextEv
 764      00
 765 021d 4889C2   		movq	%rax, %rdx
 766 0220 4889DE   		movq	%rbx, %rsi
 767 0223 4C89E7   		movq	%r12, %rdi
 768 0226 E8000000 		call	_ZN8UnitTest11TestResults13OnTestFailureERKNS_11TestDetailsEPKc
 768      00
 769              	.LEHE3:
 770 022b 488B8424 		movq	136(%rsp), %rax
 770      88000000 
 771 0233 48C74424 		movq	$_ZTVN8UnitTest15MemoryOutStreamE+24, 48(%rsp)
 771      30000000 
 771      00
 772 023c 48C78424 		movq	$_ZTVN8UnitTest15MemoryOutStreamE+64, 144(%rsp)
 772      90000000 
 772      00000000 
 773 0248 488D78E8 		leaq	-24(%rax), %rdi
 774 024c 4881FF00 		cmpq	$_ZNSs4_Rep20_S_empty_rep_storageE, %rdi
 774      000000
 775 0253 7577     		jne	.L110
 776              	.L90:
 777 0255 488B8424 		movq	128(%rsp), %rax
 777      80000000 
 778 025d 48C74424 		movq	$_ZTCN8UnitTest15MemoryOutStreamE0_St19basic_ostringstreamIcSt11char_traitsIcESaIcEE+24, 48(%
 778      30000000 
 778      00
 779 0266 48C78424 		movq	$_ZTCN8UnitTest15MemoryOutStreamE0_St19basic_ostringstreamIcSt11char_traitsIcESaIcEE+64, 144(
 779      90000000 
 779      00000000 
 780 0272 48C74424 		movq	$_ZTVSt15basic_stringbufIcSt11char_traitsIcESaIcEE+16, 56(%rsp)
 780      38000000 
 780      00
 781 027b 488D78E8 		leaq	-24(%rax), %rdi
 782 027f 4881FF00 		cmpq	$_ZNSs4_Rep20_S_empty_rep_storageE, %rdi
 782      000000
 783 0286 7574     		jne	.L111
 784              	.L95:
 785 0288 488D7C24 		leaq	112(%rsp), %rdi
 785      70
 786 028d 48C74424 		movq	$_ZTVSt15basic_streambufIcSt11char_traitsIcEE+16, 56(%rsp)
 786      38000000 
 786      00
 787 0296 E8000000 		call	_ZNSt6localeD1Ev
 787      00
 788 029b 488D4424 		leaq	48(%rsp), %rax
 788      30
 789 02a0 48C74424 		movq	$_ZTCN8UnitTest15MemoryOutStreamE0_So+24, 48(%rsp)
 789      30000000 
 789      00
 790 02a9 48C78424 		movq	$_ZTVSt9basic_iosIcSt11char_traitsIcEE+16, 144(%rsp)
 790      90000000 
 790      00000000 
 791 02b5 488D7860 		leaq	96(%rax), %rdi
 792              	.LEHB4:
 793 02b9 E8000000 		call	_ZNSt8ios_baseD2Ev
 793      00
 794              	.LEHE4:
 795              	.L82:
 796 02be 4881C4A8 		addq	$424, %rsp
 796      010000
 797              		.cfi_remember_state
 798              		.cfi_def_cfa_offset 40
 799 02c5 5B       		popq	%rbx
 800              		.cfi_def_cfa_offset 32
 801 02c6 5D       		popq	%rbp
 802              		.cfi_def_cfa_offset 24
 803 02c7 415C     		popq	%r12
 804              		.cfi_def_cfa_offset 16
 805 02c9 415D     		popq	%r13
 806              		.cfi_def_cfa_offset 8
 807 02cb C3       		ret
 808              	.L110:
 809              		.cfi_restore_state
 810 02cc B9000000 		movl	$_ZL28__gthrw___pthread_key_createPjPFvPvE, %ecx
 810      00
 811 02d1 488D5710 		leaq	16(%rdi), %rdx
 812 02d5 4885C9   		testq	%rcx, %rcx
 813 02d8 0F84F900 		je	.L91
 813      0000
 814 02de 83C8FF   		orl	$-1, %eax
 815 02e1 F00FC102 		lock xaddl	%eax, (%rdx)
 816              	.L92:
 817 02e5 85C0     		testl	%eax, %eax
 818 02e7 0F8F68FF 		jg	.L90
 818      FFFF
 819 02ed 488D7424 		leaq	15(%rsp), %rsi
 819      0F
 820 02f2 E8000000 		call	_ZNSs4_Rep10_M_destroyERKSaIcE
 820      00
 821 02f7 E959FFFF 		jmp	.L90
 821      FF
 822              	.L111:
 823 02fc B9000000 		movl	$_ZL28__gthrw___pthread_key_createPjPFvPvE, %ecx
 823      00
 824 0301 488D5710 		leaq	16(%rdi), %rdx
 825 0305 4885C9   		testq	%rcx, %rcx
 826 0308 745F     		je	.L96
 827 030a 83C8FF   		orl	$-1, %eax
 828 030d F00FC102 		lock xaddl	%eax, (%rdx)
 829              	.L97:
 830 0311 85C0     		testl	%eax, %eax
 831 0313 0F8F6FFF 		jg	.L95
 831      FFFF
 832 0319 488D7424 		leaq	15(%rsp), %rsi
 832      0F
 833 031e E8000000 		call	_ZNSs4_Rep10_M_destroyERKSaIcE
 833      00
 834 0323 E960FFFF 		jmp	.L95
 834      FF
 835              	.L102:
 836              	.L88:
 837 0328 4889C7   		movq	%rax, %rdi
 838 032b E8000000 		call	__cxa_begin_catch
 838      00
 839              		.p2align 4,,5
 840              	.LEHB5:
 841 0330 E8000000 		call	_ZN8UnitTest11CurrentTest7DetailsEv
 841      00
 842 0335 488D5C24 		leaq	16(%rsp), %rbx
 842      10
 843 033a 488B30   		movq	(%rax), %rsi
 844 033d BA810100 		movl	$385, %edx
 844      00
 845 0342 4889DF   		movq	%rbx, %rdi
 846 0345 E8000000 		call	_ZN8UnitTest11TestDetailsC1ERKS0_i
 846      00
 847 034a E8000000 		call	_ZN8UnitTest11CurrentTest7ResultsEv
 847      00
 848 034f 488B38   		movq	(%rax), %rdi
 849 0352 BA000000 		movl	$.LC2, %edx
 849      00
 850 0357 4889DE   		movq	%rbx, %rsi
 851 035a E8000000 		call	_ZN8UnitTest11TestResults13OnTestFailureERKNS_11TestDetailsEPKc
 851      00
 852              	.LEHE5:
 853              	.LEHB6:
 854 035f E8000000 		call	__cxa_end_catch
 854      00
 855              	.LEHE6:
 856 0364 E955FFFF 		jmp	.L82
 856      FF
 857              	.L96:
 858 0369 8B50F8   		movl	-8(%rax), %edx
 859 036c 8D4AFF   		leal	-1(%rdx), %ecx
 860 036f 8948F8   		movl	%ecx, -8(%rax)
 861 0372 89D0     		movl	%edx, %eax
 862 0374 EB9B     		jmp	.L97
 863              	.L103:
 864 0376 4889C3   		movq	%rax, %rbx
 865 0379 E8000000 		call	__cxa_end_catch
 865      00
 866 037e 4889DF   		movq	%rbx, %rdi
 867              	.LEHB7:
 868 0381 E8000000 		call	_Unwind_Resume
 868      00
 869              	.LEHE7:
 870              	.L106:
 871 0386 488D7C24 		leaq	56(%rsp), %rdi
 871      38
 872 038b 4889C3   		movq	%rax, %rbx
 873 038e E8000000 		call	_ZNSt15basic_stringbufIcSt11char_traitsIcESaIcEED1Ev
 873      00
 874 0393 48C74424 		movq	$_ZTCN8UnitTest15MemoryOutStreamE0_So+24, 48(%rsp)
 874      30000000 
 874      00
 875              	.L86:
 876 039c 488DBC24 		leaq	144(%rsp), %rdi
 876      90000000 
 877 03a4 48C78424 		movq	$_ZTVSt9basic_iosIcSt11char_traitsIcEE+16, 144(%rsp)
 877      90000000 
 877      00000000 
 878 03b0 E8000000 		call	_ZNSt8ios_baseD2Ev
 878      00
 879 03b5 4889D8   		movq	%rbx, %rax
 880 03b8 E96BFFFF 		jmp	.L88
 880      FF
 881              	.L104:
 882 03bd 488D7C24 		leaq	48(%rsp), %rdi
 882      30
 883 03c2 4889C3   		movq	%rax, %rbx
 884 03c5 E8000000 		call	_ZN8UnitTest15MemoryOutStreamD1Ev
 884      00
 885 03ca 4889D8   		movq	%rbx, %rax
 886 03cd E956FFFF 		jmp	.L88
 886      FF
 887              	.L105:
 888 03d2 4889C3   		movq	%rax, %rbx
 889 03d5 EBC5     		jmp	.L86
 890              	.L91:
 891 03d7 8B50F8   		movl	-8(%rax), %edx
 892 03da 8D4AFF   		leal	-1(%rdx), %ecx
 893 03dd 8948F8   		movl	%ecx, -8(%rax)
 894 03e0 89D0     		movl	%edx, %eax
 895 03e2 E9FEFEFF 		jmp	.L92
 895      FF
 896              		.cfi_endproc
 897              	.LFE1136:
 898              		.globl	__gxx_personality_v0
 899              		.section	.gcc_except_table,"a",@progbits
 900              		.align 4
 901              	.LLSDA1136:
 902 0000 FF       		.byte	0xff
 903 0001 03       		.byte	0x3
 904 0002 39       		.uleb128 .LLSDATT1136-.LLSDATTD1136
 905              	.LLSDATTD1136:
 906 0003 01       		.byte	0x1
 907 0004 2D       		.uleb128 .LLSDACSE1136-.LLSDACSB1136
 908              	.LLSDACSB1136:
 909 0005 0D       		.uleb128 .LEHB0-.LFB1136
 910 0006 1F       		.uleb128 .LEHE0-.LEHB0
 911 0007 C805     		.uleb128 .L102-.LFB1136
 912 0009 01       		.uleb128 0x1
 913 000a B301     		.uleb128 .LEHB1-.LFB1136
 914 000c 05       		.uleb128 .LEHE1-.LEHB1
 915 000d F206     		.uleb128 .L105-.LFB1136
 916 000f 03       		.uleb128 0x3
 917 0010 C602     		.uleb128 .LEHB2-.LFB1136
 918 0012 05       		.uleb128 .LEHE2-.LEHB2
 919 0013 A606     		.uleb128 .L106-.LFB1136
 920 0015 03       		.uleb128 0x3
 921 0016 8203     		.uleb128 .LEHB3-.LFB1136
 922 0018 49       		.uleb128 .LEHE3-.LEHB3
 923 0019 DD06     		.uleb128 .L104-.LFB1136
 924 001b 03       		.uleb128 0x3
 925 001c D904     		.uleb128 .LEHB4-.LFB1136
 926 001e 05       		.uleb128 .LEHE4-.LEHB4
 927 001f C805     		.uleb128 .L102-.LFB1136
 928 0021 01       		.uleb128 0x1
 929 0022 D005     		.uleb128 .LEHB5-.LFB1136
 930 0024 2F       		.uleb128 .LEHE5-.LEHB5
 931 0025 9606     		.uleb128 .L103-.LFB1136
 932 0027 00       		.uleb128 0
 933 0028 FF05     		.uleb128 .LEHB6-.LFB1136
 934 002a 05       		.uleb128 .LEHE6-.LEHB6
 935 002b 00       		.uleb128 0
 936 002c 00       		.uleb128 0
 937 002d A106     		.uleb128 .LEHB7-.LFB1136
 938 002f 05       		.uleb128 .LEHE7-.LEHB7
 939 0030 00       		.uleb128 0
 940 0031 00       		.uleb128 0
 941              	.LLSDACSE1136:
 942 0032 01       		.byte	0x1
 943 0033 00       		.byte	0
 944 0034 00       		.byte	0
 945 0035 7D       		.byte	0x7d
 946 0036 0000     		.align 4
 947 0038 00000000 		.long	0
 948              	
 949              	.LLSDATT1136:
 950              		.text
 952              		.section	.text._ZN8UnitTest10CheckEqualI9USBStatusS1_EEvRNS_11TestResultsERKT_RKT0_RKNS_11TestDeta
 953              		.p2align 4,,15
 954              		.weak	_ZN8UnitTest10CheckEqualI9USBStatusS1_EEvRNS_11TestResultsERKT_RKT0_RKNS_11TestDetailsE
 956              	_ZN8UnitTest10CheckEqualI9USBStatusS1_EEvRNS_11TestResultsERKT_RKT0_RKNS_11TestDetailsE:
 957              	.LFB1164:
 958              		.cfi_startproc
 959              		.cfi_personality 0x3,__gxx_personality_v0
 960              		.cfi_lsda 0x3,.LLSDA1164
 961 0000 4156     		pushq	%r14
 962              		.cfi_def_cfa_offset 16
 963              		.cfi_offset 14, -16
 964 0002 4155     		pushq	%r13
 965              		.cfi_def_cfa_offset 24
 966              		.cfi_offset 13, -24
 967 0004 4154     		pushq	%r12
 968              		.cfi_def_cfa_offset 32
 969              		.cfi_offset 12, -32
 970 0006 55       		pushq	%rbp
 971              		.cfi_def_cfa_offset 40
 972              		.cfi_offset 6, -40
 973 0007 4889D5   		movq	%rdx, %rbp
 974 000a 53       		pushq	%rbx
 975              		.cfi_def_cfa_offset 48
 976              		.cfi_offset 3, -48
 977 000b 4889F3   		movq	%rsi, %rbx
 978 000e 4881EC80 		subq	$384, %rsp
 978      010000
 979              		.cfi_def_cfa_offset 432
 980 0015 8B02     		movl	(%rdx), %eax
 981 0017 3906     		cmpl	%eax, (%rsi)
 982 0019 0F84FF01 		je	.L112
 982      0000
 983 001f 4C8D6424 		leaq	112(%rsp), %r12
 983      70
 984 0024 4989FD   		movq	%rdi, %r13
 985 0027 4989CE   		movq	%rcx, %r14
 986 002a 4C89E7   		movq	%r12, %rdi
 987 002d E8000000 		call	_ZNSt8ios_baseC2Ev
 987      00
 988 0032 31F6     		xorl	%esi, %esi
 989 0034 4C89E7   		movq	%r12, %rdi
 990 0037 48C78424 		movq	$0, 328(%rsp)
 990      48010000 
 990      00000000 
 991 0043 C6842450 		movb	$0, 336(%rsp)
 991      01000000 
 992 004b C6842451 		movb	$0, 337(%rsp)
 992      01000000 
 993 0053 48C78424 		movq	$0, 344(%rsp)
 993      58010000 
 993      00000000 
 994 005f 48C78424 		movq	$0, 352(%rsp)
 994      60010000 
 994      00000000 
 995 006b 48C78424 		movq	$0, 360(%rsp)
 995      68010000 
 995      00000000 
 996 0077 48C78424 		movq	$0, 368(%rsp)
 996      70010000 
 996      00000000 
 997 0083 48C74424 		movq	$_ZTCN8UnitTest15MemoryOutStreamE0_So+24, 16(%rsp)
 997      10000000 
 997      00
 998 008c 48C74424 		movq	$_ZTCN8UnitTest15MemoryOutStreamE0_So+64, 112(%rsp)
 998      70000000 
 998      00
 999              	.LEHB8:
 1000 0095 E8000000 		call	_ZNSt9basic_iosIcSt11char_traitsIcEE4initEPSt15basic_streambufIcS1_E
 1000      00
 1001              	.LEHE8:
 1002 009a 488D7C24 		leaq	80(%rsp), %rdi
 1002      50
 1003 009f 48C74424 		movq	$_ZTCN8UnitTest15MemoryOutStreamE0_St19basic_ostringstreamIcSt11char_traitsIcESaIcEE+24, 16(%
 1003      10000000 
 1003      00
 1004 00a8 48C74424 		movq	$_ZTCN8UnitTest15MemoryOutStreamE0_St19basic_ostringstreamIcSt11char_traitsIcESaIcEE+64, 112(
 1004      70000000 
 1004      00
 1005 00b1 48C74424 		movq	$_ZTVSt15basic_streambufIcSt11char_traitsIcEE+16, 24(%rsp)
 1005      18000000 
 1005      00
 1006 00ba 48C74424 		movq	$0, 32(%rsp)
 1006      20000000 
 1006      00
 1007 00c3 48C74424 		movq	$0, 40(%rsp)
 1007      28000000 
 1007      00
 1008 00cc 48C74424 		movq	$0, 48(%rsp)
 1008      30000000 
 1008      00
 1009 00d5 48C74424 		movq	$0, 56(%rsp)
 1009      38000000 
 1009      00
 1010 00de 48C74424 		movq	$0, 64(%rsp)
 1010      40000000 
 1010      00
 1011 00e7 48C74424 		movq	$0, 72(%rsp)
 1011      48000000 
 1011      00
 1012 00f0 E8000000 		call	_ZNSt6localeC1Ev
 1012      00
 1013 00f5 488B4424 		movq	16(%rsp), %rax
 1013      10
 1014 00fa 488D7C24 		leaq	16(%rsp), %rdi
 1014      10
 1015 00ff 488D7424 		leaq	24(%rsp), %rsi
 1015      18
 1016 0104 48C74424 		movq	$_ZTVSt15basic_stringbufIcSt11char_traitsIcESaIcEE+16, 24(%rsp)
 1016      18000000 
 1016      00
 1017 010d C7442458 		movl	$16, 88(%rsp)
 1017      10000000 
 1018 0115 48C74424 		movq	$_ZNSs4_Rep20_S_empty_rep_storageE+24, 96(%rsp)
 1018      60000000 
 1018      00
 1019 011e 480378E8 		addq	-24(%rax), %rdi
 1020              	.LEHB9:
 1021 0122 E8000000 		call	_ZNSt9basic_iosIcSt11char_traitsIcEE4initEPSt15basic_streambufIcS1_E
 1021      00
 1022              	.LEHE9:
 1023 0127 488D7C24 		leaq	16(%rsp), %rdi
 1023      10
 1024 012c BA090000 		movl	$9, %edx
 1024      00
 1025 0131 BE000000 		movl	$.LC0, %esi
 1025      00
 1026 0136 48C74424 		movq	$_ZTVN8UnitTest15MemoryOutStreamE+24, 16(%rsp)
 1026      10000000 
 1026      00
 1027 013f 48C74424 		movq	$_ZTVN8UnitTest15MemoryOutStreamE+64, 112(%rsp)
 1027      70000000 
 1027      00
 1028 0148 48C74424 		movq	$_ZNSs4_Rep20_S_empty_rep_storageE+24, 104(%rsp)
 1028      68000000 
 1028      00
 1029 0151 8B6D00   		movl	0(%rbp), %ebp
 1030 0154 8B1B     		movl	(%rbx), %ebx
 1031              	.LEHB10:
 1032 0156 E8000000 		call	_ZSt16__ostream_insertIcSt11char_traitsIcEERSt13basic_ostreamIT_T0_ES6_PKS3_l
 1032      00
 1033 015b 488D7C24 		leaq	16(%rsp), %rdi
 1033      10
 1034 0160 89DE     		movl	%ebx, %esi
 1035 0162 E8000000 		call	_ZNSolsEi
 1035      00
 1036 0167 BA090000 		movl	$9, %edx
 1036      00
 1037 016c BE000000 		movl	$.LC1, %esi
 1037      00
 1038 0171 4889C7   		movq	%rax, %rdi
 1039 0174 4889C3   		movq	%rax, %rbx
 1040 0177 E8000000 		call	_ZSt16__ostream_insertIcSt11char_traitsIcEERSt13basic_ostreamIT_T0_ES6_PKS3_l
 1040      00
 1041 017c 89EE     		movl	%ebp, %esi
 1042 017e 4889DF   		movq	%rbx, %rdi
 1043 0181 E8000000 		call	_ZNSolsEi
 1043      00
 1044 0186 488D7C24 		leaq	16(%rsp), %rdi
 1044      10
 1045 018b E8000000 		call	_ZNK8UnitTest15MemoryOutStream7GetTextEv
 1045      00
 1046 0190 4889C2   		movq	%rax, %rdx
 1047 0193 4C89F6   		movq	%r14, %rsi
 1048 0196 4C89EF   		movq	%r13, %rdi
 1049 0199 E8000000 		call	_ZN8UnitTest11TestResults13OnTestFailureERKNS_11TestDetailsEPKc
 1049      00
 1050              	.LEHE10:
 1051 019e 488B4424 		movq	104(%rsp), %rax
 1051      68
 1052 01a3 48C74424 		movq	$_ZTVN8UnitTest15MemoryOutStreamE+24, 16(%rsp)
 1052      10000000 
 1052      00
 1053 01ac 48C74424 		movq	$_ZTVN8UnitTest15MemoryOutStreamE+64, 112(%rsp)
 1053      70000000 
 1053      00
 1054 01b5 488D78E8 		leaq	-24(%rax), %rdi
 1055 01b9 4881FF00 		cmpq	$_ZNSs4_Rep20_S_empty_rep_storageE, %rdi
 1055      000000
 1056 01c0 756C     		jne	.L135
 1057              	.L119:
 1058 01c2 488B4424 		movq	96(%rsp), %rax
 1058      60
 1059 01c7 48C74424 		movq	$_ZTCN8UnitTest15MemoryOutStreamE0_St19basic_ostringstreamIcSt11char_traitsIcESaIcEE+24, 16(%
 1059      10000000 
 1059      00
 1060 01d0 48C74424 		movq	$_ZTCN8UnitTest15MemoryOutStreamE0_St19basic_ostringstreamIcSt11char_traitsIcESaIcEE+64, 112(
 1060      70000000 
 1060      00
 1061 01d9 48C74424 		movq	$_ZTVSt15basic_stringbufIcSt11char_traitsIcESaIcEE+16, 24(%rsp)
 1061      18000000 
 1061      00
 1062 01e2 488D78E8 		leaq	-24(%rax), %rdi
 1063 01e6 4881FF00 		cmpq	$_ZNSs4_Rep20_S_empty_rep_storageE, %rdi
 1063      000000
 1064 01ed 756B     		jne	.L136
 1065              	.L124:
 1066 01ef 488D7C24 		leaq	80(%rsp), %rdi
 1066      50
 1067 01f4 48C74424 		movq	$_ZTVSt15basic_streambufIcSt11char_traitsIcEE+16, 24(%rsp)
 1067      18000000 
 1067      00
 1068 01fd E8000000 		call	_ZNSt6localeD1Ev
 1068      00
 1069 0202 488D7C24 		leaq	112(%rsp), %rdi
 1069      70
 1070 0207 48C74424 		movq	$_ZTCN8UnitTest15MemoryOutStreamE0_So+24, 16(%rsp)
 1070      10000000 
 1070      00
 1071 0210 48C74424 		movq	$_ZTVSt9basic_iosIcSt11char_traitsIcEE+16, 112(%rsp)
 1071      70000000 
 1071      00
 1072              	.LEHB11:
 1073 0219 E8000000 		call	_ZNSt8ios_baseD2Ev
 1073      00
 1074              	.LEHE11:
 1075              	.L112:
 1076 021e 4881C480 		addq	$384, %rsp
 1076      010000
 1077              		.cfi_remember_state
 1078              		.cfi_def_cfa_offset 48
 1079 0225 5B       		popq	%rbx
 1080              		.cfi_def_cfa_offset 40
 1081 0226 5D       		popq	%rbp
 1082              		.cfi_def_cfa_offset 32
 1083 0227 415C     		popq	%r12
 1084              		.cfi_def_cfa_offset 24
 1085 0229 415D     		popq	%r13
 1086              		.cfi_def_cfa_offset 16
 1087 022b 415E     		popq	%r14
 1088              		.cfi_def_cfa_offset 8
 1089 022d C3       		ret
 1090              	.L135:
 1091              		.cfi_restore_state
 1092 022e B9000000 		movl	$_ZL28__gthrw___pthread_key_createPjPFvPvE, %ecx
 1092      00
 1093 0233 488D5710 		leaq	16(%rdi), %rdx
 1094 0237 4885C9   		testq	%rcx, %rcx
 1095 023a 747D     		je	.L120
 1096 023c 83C8FF   		orl	$-1, %eax
 1097 023f F00FC102 		lock xaddl	%eax, (%rdx)
 1098              	.L121:
 1099 0243 85C0     		testl	%eax, %eax
 1100 0245 0F8F77FF 		jg	.L119
 1100      FFFF
 1101 024b 488D7424 		leaq	15(%rsp), %rsi
 1101      0F
 1102 0250 E8000000 		call	_ZNSs4_Rep10_M_destroyERKSaIcE
 1102      00
 1103 0255 E968FFFF 		jmp	.L119
 1103      FF
 1104              	.L136:
 1105 025a B9000000 		movl	$_ZL28__gthrw___pthread_key_createPjPFvPvE, %ecx
 1105      00
 1106 025f 488D5710 		leaq	16(%rdi), %rdx
 1107 0263 4885C9   		testq	%rcx, %rcx
 1108 0266 7479     		je	.L125
 1109 0268 83C8FF   		orl	$-1, %eax
 1110 026b F00FC102 		lock xaddl	%eax, (%rdx)
 1111              	.L126:
 1112 026f 85C0     		testl	%eax, %eax
 1113 0271 0F8F78FF 		jg	.L124
 1113      FFFF
 1114 0277 488D7424 		leaq	15(%rsp), %rsi
 1114      0F
 1115 027c E8000000 		call	_ZNSs4_Rep10_M_destroyERKSaIcE
 1115      00
 1116 0281 E969FFFF 		jmp	.L124
 1116      FF
 1117              	.L129:
 1118 0286 488D7C24 		leaq	16(%rsp), %rdi
 1118      10
 1119 028b 4889C3   		movq	%rax, %rbx
 1120 028e E8000000 		call	_ZN8UnitTest15MemoryOutStreamD1Ev
 1120      00
 1121 0293 4889DF   		movq	%rbx, %rdi
 1122              	.LEHB12:
 1123 0296 E8000000 		call	_Unwind_Resume
 1123      00
 1124              	.LEHE12:
 1125              	.L130:
 1126 029b 4889C3   		movq	%rax, %rbx
 1127              	.L116:
 1128 029e 488D7C24 		leaq	112(%rsp), %rdi
 1128      70
 1129 02a3 48C74424 		movq	$_ZTVSt9basic_iosIcSt11char_traitsIcEE+16, 112(%rsp)
 1129      70000000 
 1129      00
 1130 02ac E8000000 		call	_ZNSt8ios_baseD2Ev
 1130      00
 1131 02b1 4889DF   		movq	%rbx, %rdi
 1132              	.LEHB13:
 1133 02b4 E8000000 		call	_Unwind_Resume
 1133      00
 1134              	.LEHE13:
 1135              	.L120:
 1136 02b9 8B50F8   		movl	-8(%rax), %edx
 1137 02bc 8D4AFF   		leal	-1(%rdx), %ecx
 1138 02bf 8948F8   		movl	%ecx, -8(%rax)
 1139 02c2 89D0     		movl	%edx, %eax
 1140 02c4 E97AFFFF 		jmp	.L121
 1140      FF
 1141              	.L131:
 1142 02c9 488D7C24 		leaq	24(%rsp), %rdi
 1142      18
 1143 02ce 4889C3   		movq	%rax, %rbx
 1144 02d1 E8000000 		call	_ZNSt15basic_stringbufIcSt11char_traitsIcESaIcEED1Ev
 1144      00
 1145 02d6 48C74424 		movq	$_ZTCN8UnitTest15MemoryOutStreamE0_So+24, 16(%rsp)
 1145      10000000 
 1145      00
 1146 02df EBBD     		jmp	.L116
 1147              	.L125:
 1148 02e1 8B50F8   		movl	-8(%rax), %edx
 1149 02e4 8D4AFF   		leal	-1(%rdx), %ecx
 1150 02e7 8948F8   		movl	%ecx, -8(%rax)
 1151 02ea 89D0     		movl	%edx, %eax
 1152 02ec EB81     		jmp	.L126
 1153              		.cfi_endproc
 1154              	.LFE1164:
 1155              		.section	.gcc_except_table
 1156              	.LLSDA1164:
 1157 003c FF       		.byte	0xff
 1158 003d FF       		.byte	0xff
 1159 003e 01       		.byte	0x1
 1160 003f 21       		.uleb128 .LLSDACSE1164-.LLSDACSB1164
 1161              	.LLSDACSB1164:
 1162 0040 9501     		.uleb128 .LEHB8-.LFB1164
 1163 0042 05       		.uleb128 .LEHE8-.LEHB8
 1164 0043 9B05     		.uleb128 .L130-.LFB1164
 1165 0045 00       		.uleb128 0
 1166 0046 A202     		.uleb128 .LEHB9-.LFB1164
 1167 0048 05       		.uleb128 .LEHE9-.LEHB9
 1168 0049 C905     		.uleb128 .L131-.LFB1164
 1169 004b 00       		.uleb128 0
 1170 004c D602     		.uleb128 .LEHB10-.LFB1164
 1171 004e 48       		.uleb128 .LEHE10-.LEHB10
 1172 004f 8605     		.uleb128 .L129-.LFB1164
 1173 0051 00       		.uleb128 0
 1174 0052 9904     		.uleb128 .LEHB11-.LFB1164
 1175 0054 05       		.uleb128 .LEHE11-.LEHB11
 1176 0055 00       		.uleb128 0
 1177 0056 00       		.uleb128 0
 1178 0057 9605     		.uleb128 .LEHB12-.LFB1164
 1179 0059 05       		.uleb128 .LEHE12-.LEHB12
 1180 005a 00       		.uleb128 0
 1181 005b 00       		.uleb128 0
 1182 005c B405     		.uleb128 .LEHB13-.LFB1164
 1183 005e 05       		.uleb128 .LEHE13-.LEHB13
 1184 005f 00       		.uleb128 0
 1185 0060 00       		.uleb128 0
 1186              	.LLSDACSE1164:
 1187              		.section	.text._ZN8UnitTest10CheckEqualI9USBStatusS1_EEvRNS_11TestResultsERKT_RKT0_RKNS_11TestDeta
 1189              		.section	.rodata.str1.8
 1190 0033 00000000 		.align 8
 1190      00
 1191              	.LC3:
 1192 0038 556E6861 		.string	"Unhandled exception in CHECK_EQUAL(USB_ALLOC_ERR, status)"
 1192      6E646C65 
 1192      64206578 
 1192      63657074 
 1192      696F6E20 
 1193              		.text
 1194 03e7 90       		.align 2
 1195 03e8 0F1F8400 		.p2align 4,,15
 1195      00000000 
 1196              		.globl	_ZNK22TestQueue_testAllocOOM7RunImplEv
 1198              	_ZNK22TestQueue_testAllocOOM7RunImplEv:
 1199              	.LFB1128:
 1200              		.cfi_startproc
 1201              		.cfi_personality 0x3,__gxx_personality_v0
 1202              		.cfi_lsda 0x3,.LLSDA1128
 1203 03f0 53       		pushq	%rbx
 1204              		.cfi_def_cfa_offset 16
 1205              		.cfi_offset 3, -16
 1206 03f1 B9000000 		movl	$destroyInt, %ecx
 1206      00
 1207 03f6 BA000000 		movl	$createInt, %edx
 1207      00
 1208 03fb BE090000 		movl	$9, %esi
 1208      00
 1209 0400 4883EC70 		subq	$112, %rsp
 1210              		.cfi_def_cfa_offset 128
 1211 0404 C7050000 		movl	$1, _ZL7m_count(%rip)
 1211      00000100 
 1211      0000
 1212 040e 488D7C24 		leaq	48(%rsp), %rdi
 1212      30
 1213              	.LEHB14:
 1214 0413 E8000000 		call	queueInit
 1214      00
 1215              	.LEHE14:
 1216 0418 8944240C 		movl	%eax, 12(%rsp)
 1217              	.LEHB15:
 1218 041c E8000000 		call	_ZN8UnitTest11CurrentTest7DetailsEv
 1218      00
 1219 0421 488D5C24 		leaq	16(%rsp), %rbx
 1219      10
 1220 0426 488B30   		movq	(%rax), %rsi
 1221 0429 BA510100 		movl	$337, %edx
 1221      00
 1222 042e 4889DF   		movq	%rbx, %rdi
 1223 0431 E8000000 		call	_ZN8UnitTest11TestDetailsC1ERKS0_i
 1223      00
 1224 0436 C704240C 		movl	$12, (%rsp)
 1224      000000
 1225 043d E8000000 		call	_ZN8UnitTest11CurrentTest7ResultsEv
 1225      00
 1226 0442 488B38   		movq	(%rax), %rdi
 1227 0445 488D5424 		leaq	12(%rsp), %rdx
 1227      0C
 1228 044a 4889D9   		movq	%rbx, %rcx
 1229 044d 4889E6   		movq	%rsp, %rsi
 1230 0450 E8000000 		call	_ZN8UnitTest10CheckEqualI9USBStatusS1_EEvRNS_11TestResultsERKT_RKT0_RKNS_11TestDetailsE
 1230      00
 1231              	.LEHE15:
 1232              	.L140:
 1233 0455 488D7C24 		leaq	48(%rsp), %rdi
 1233      30
 1234              	.LEHB16:
 1235 045a E8000000 		call	queueDestroy
 1235      00
 1236              	.LEHE16:
 1237 045f 4883C470 		addq	$112, %rsp
 1238              		.cfi_remember_state
 1239              		.cfi_def_cfa_offset 16
 1240 0463 5B       		popq	%rbx
 1241              		.cfi_def_cfa_offset 8
 1242 0464 C3       		ret
 1243              	.L141:
 1244              		.cfi_restore_state
 1245 0465 4889C7   		movq	%rax, %rdi
 1246 0468 E8000000 		call	__cxa_begin_catch
 1246      00
 1247              	.LEHB17:
 1248 046d E8000000 		call	_ZN8UnitTest11CurrentTest7DetailsEv
 1248      00
 1249 0472 488D5C24 		leaq	16(%rsp), %rbx
 1249      10
 1250 0477 488B30   		movq	(%rax), %rsi
 1251 047a BA510100 		movl	$337, %edx
 1251      00
 1252 047f 4889DF   		movq	%rbx, %rdi
 1253 0482 E8000000 		call	_ZN8UnitTest11TestDetailsC1ERKS0_i
 1253      00
 1254 0487 E8000000 		call	_ZN8UnitTest11CurrentTest7ResultsEv
 1254      00
 1255 048c 488B38   		movq	(%rax), %rdi
 1256 048f BA000000 		movl	$.LC3, %edx
 1256      00
 1257 0494 4889DE   		movq	%rbx, %rsi
 1258 0497 E8000000 		call	_ZN8UnitTest11TestResults13OnTestFailureERKNS_11TestDetailsEPKc
 1258      00
 1259              	.LEHE17:
 1260              	.LEHB18:
 1261 049c E8000000 		call	__cxa_end_catch
 1261      00
 1262              	.LEHE18:
 1263 04a1 EBB2     		jmp	.L140
 1264              	.L142:
 1265 04a3 4889C3   		movq	%rax, %rbx
 1266              		.p2align 4,,5
 1267 04a6 E8000000 		call	__cxa_end_catch
 1267      00
 1268 04ab 4889DF   		movq	%rbx, %rdi
 1269              	.LEHB19:
 1270 04ae E8000000 		call	_Unwind_Resume
 1270      00
 1271              	.LEHE19:
 1272              		.cfi_endproc
 1273              	.LFE1128:
 1274              		.section	.gcc_except_table
 1275 0061 000000   		.align 4
 1276              	.LLSDA1128:
 1277 0064 FF       		.byte	0xff
 1278 0065 03       		.byte	0x3
 1279 0066 25       		.uleb128 .LLSDATT1128-.LLSDATTD1128
 1280              	.LLSDATTD1128:
 1281 0067 01       		.byte	0x1
 1282 0068 1B       		.uleb128 .LLSDACSE1128-.LLSDACSB1128
 1283              	.LLSDACSB1128:
 1284 0069 23       		.uleb128 .LEHB14-.LFB1128
 1285 006a 05       		.uleb128 .LEHE14-.LEHB14
 1286 006b 00       		.uleb128 0
 1287 006c 00       		.uleb128 0
 1288 006d 2C       		.uleb128 .LEHB15-.LFB1128
 1289 006e 39       		.uleb128 .LEHE15-.LEHB15
 1290 006f 75       		.uleb128 .L141-.LFB1128
 1291 0070 01       		.uleb128 0x1
 1292 0071 6A       		.uleb128 .LEHB16-.LFB1128
 1293 0072 05       		.uleb128 .LEHE16-.LEHB16
 1294 0073 00       		.uleb128 0
 1295 0074 00       		.uleb128 0
 1296 0075 7D       		.uleb128 .LEHB17-.LFB1128
 1297 0076 2F       		.uleb128 .LEHE17-.LEHB17
 1298 0077 B301     		.uleb128 .L142-.LFB1128
 1299 0079 00       		.uleb128 0
 1300 007a AC01     		.uleb128 .LEHB18-.LFB1128
 1301 007c 05       		.uleb128 .LEHE18-.LEHB18
 1302 007d 00       		.uleb128 0
 1303 007e 00       		.uleb128 0
 1304 007f BE01     		.uleb128 .LEHB19-.LFB1128
 1305 0081 05       		.uleb128 .LEHE19-.LEHB19
 1306 0082 00       		.uleb128 0
 1307 0083 00       		.uleb128 0
 1308              	.LLSDACSE1128:
 1309 0084 01       		.byte	0x1
 1310 0085 00       		.byte	0
 1311 0086 0000     		.align 4
 1312 0088 00000000 		.long	0
 1313              	
 1314              	.LLSDATT1128:
 1315              		.text
 1317              		.section	.rodata.str1.8
 1318 0072 00000000 		.align 8
 1318      0000
 1319              	.LC4:
 1320 0078 556E6861 		.string	"Unhandled exception in CHECK_EQUAL(USB_SUCCESS, status)"
 1320      6E646C65 
 1320      64206578 
 1320      63657074 
 1320      696F6E20 
 1321              		.text
 1322 04b3 90       		.align 2
 1323 04b4 6666662E 		.p2align 4,,15
 1323      0F1F8400 
 1323      00000000 
 1324              		.globl	_ZNK24TestQueue_testReallocOOM7RunImplEv
 1326              	_ZNK24TestQueue_testReallocOOM7RunImplEv:
 1327              	.LFB1132:
 1328              		.cfi_startproc
 1329              		.cfi_personality 0x3,__gxx_personality_v0
 1330              		.cfi_lsda 0x3,.LLSDA1132
 1331 04c0 55       		pushq	%rbp
 1332              		.cfi_def_cfa_offset 16
 1333              		.cfi_offset 6, -16
 1334 04c1 B9000000 		movl	$destroyInt, %ecx
 1334      00
 1335 04c6 BA000000 		movl	$createInt, %edx
 1335      00
 1336 04cb BE080000 		movl	$8, %esi
 1336      00
 1337 04d0 53       		pushq	%rbx
 1338              		.cfi_def_cfa_offset 24
 1339              		.cfi_offset 3, -24
 1340 04d1 4881EC88 		subq	$136, %rsp
 1340      000000
 1341              		.cfi_def_cfa_offset 160
 1342 04d8 C7050000 		movl	$1, _ZL7m_count(%rip)
 1342      00000100 
 1342      0000
 1343 04e2 488D7C24 		leaq	64(%rsp), %rdi
 1343      40
 1344              	.LEHB20:
 1345 04e7 E8000000 		call	queueInit
 1345      00
 1346              	.LEHE20:
 1347 04ec 8944240C 		movl	%eax, 12(%rsp)
 1348              	.LEHB21:
 1349 04f0 E8000000 		call	_ZN8UnitTest11CurrentTest7DetailsEv
 1349      00
 1350 04f5 488D5C24 		leaq	32(%rsp), %rbx
 1350      20
 1351 04fa 488B30   		movq	(%rax), %rsi
 1352 04fd BA5D0100 		movl	$349, %edx
 1352      00
 1353 0502 4889DF   		movq	%rbx, %rdi
 1354 0505 E8000000 		call	_ZN8UnitTest11TestDetailsC1ERKS0_i
 1354      00
 1355 050a C7442410 		movl	$0, 16(%rsp)
 1355      00000000 
 1356 0512 E8000000 		call	_ZN8UnitTest11CurrentTest7ResultsEv
 1356      00
 1357 0517 488D6C24 		leaq	16(%rsp), %rbp
 1357      10
 1358 051c 488B38   		movq	(%rax), %rdi
 1359 051f 488D5424 		leaq	12(%rsp), %rdx
 1359      0C
 1360 0524 4889D9   		movq	%rbx, %rcx
 1361 0527 4889EE   		movq	%rbp, %rsi
 1362 052a E8000000 		call	_ZN8UnitTest10CheckEqualI9USBStatusS1_EEvRNS_11TestResultsERKT_RKT0_RKNS_11TestDetailsE
 1362      00
 1363              	.LEHE21:
 1364              	.L148:
 1365 052f 488D7C24 		leaq	64(%rsp), %rdi
 1365      40
 1366 0534 4889EE   		movq	%rbp, %rsi
 1367              	.LEHB22:
 1368 0537 E8000000 		call	queuePut
 1368      00
 1369              	.LEHE22:
 1370 053c 8944240C 		movl	%eax, 12(%rsp)
 1371              	.LEHB23:
 1372 0540 E8000000 		call	_ZN8UnitTest11CurrentTest7DetailsEv
 1372      00
 1373 0545 488B30   		movq	(%rax), %rsi
 1374 0548 BA610100 		movl	$353, %edx
 1374      00
 1375 054d 4889DF   		movq	%rbx, %rdi
 1376 0550 E8000000 		call	_ZN8UnitTest11TestDetailsC1ERKS0_i
 1376      00
 1377 0555 C7042400 		movl	$0, (%rsp)
 1377      000000
 1378 055c E8000000 		call	_ZN8UnitTest11CurrentTest7ResultsEv
 1378      00
 1379 0561 488B38   		movq	(%rax), %rdi
 1380 0564 488D5424 		leaq	12(%rsp), %rdx
 1380      0C
 1381 0569 4889D9   		movq	%rbx, %rcx
 1382 056c 4889E6   		movq	%rsp, %rsi
 1383 056f E8000000 		call	_ZN8UnitTest10CheckEqualI9USBStatusS1_EEvRNS_11TestResultsERKT_RKT0_RKNS_11TestDetailsE
 1383      00
 1384              	.LEHE23:
 1385              	.L151:
 1386 0574 488D7C24 		leaq	64(%rsp), %rdi
 1386      40
 1387              	.LEHB24:
 1388 0579 E8000000 		call	queueCommitPut
 1388      00
 1389 057e 488D7C24 		leaq	64(%rsp), %rdi
 1389      40
 1390 0583 4889EE   		movq	%rbp, %rsi
 1391 0586 E8000000 		call	queuePut
 1391      00
 1392              	.LEHE24:
 1393 058b 8944240C 		movl	%eax, 12(%rsp)
 1394              	.LEHB25:
 1395 058f E8000000 		call	_ZN8UnitTest11CurrentTest7DetailsEv
 1395      00
 1396 0594 488B30   		movq	(%rax), %rsi
 1397 0597 BA640100 		movl	$356, %edx
 1397      00
 1398 059c 4889DF   		movq	%rbx, %rdi
 1399 059f E8000000 		call	_ZN8UnitTest11TestDetailsC1ERKS0_i
 1399      00
 1400 05a4 C7042400 		movl	$0, (%rsp)
 1400      000000
 1401 05ab E8000000 		call	_ZN8UnitTest11CurrentTest7ResultsEv
 1401      00
 1402 05b0 488B38   		movq	(%rax), %rdi
 1403 05b3 488D5424 		leaq	12(%rsp), %rdx
 1403      0C
 1404 05b8 4889D9   		movq	%rbx, %rcx
 1405 05bb 4889E6   		movq	%rsp, %rsi
 1406 05be E8000000 		call	_ZN8UnitTest10CheckEqualI9USBStatusS1_EEvRNS_11TestResultsERKT_RKT0_RKNS_11TestDetailsE
 1406      00
 1407              	.LEHE25:
 1408              	.L154:
 1409 05c3 488D7C24 		leaq	64(%rsp), %rdi
 1409      40
 1410              	.LEHB26:
 1411 05c8 E8000000 		call	queueCommitPut
 1411      00
 1412 05cd 488D7C24 		leaq	64(%rsp), %rdi
 1412      40
 1413 05d2 4889EE   		movq	%rbp, %rsi
 1414 05d5 E8000000 		call	queuePut
 1414      00
 1415              	.LEHE26:
 1416 05da 8944240C 		movl	%eax, 12(%rsp)
 1417              	.LEHB27:
 1418 05de E8000000 		call	_ZN8UnitTest11CurrentTest7DetailsEv
 1418      00
 1419 05e3 488B30   		movq	(%rax), %rsi
 1420 05e6 BA670100 		movl	$359, %edx
 1420      00
 1421 05eb 4889DF   		movq	%rbx, %rdi
 1422 05ee E8000000 		call	_ZN8UnitTest11TestDetailsC1ERKS0_i
 1422      00
 1423 05f3 C7042400 		movl	$0, (%rsp)
 1423      000000
 1424 05fa E8000000 		call	_ZN8UnitTest11CurrentTest7ResultsEv
 1424      00
 1425 05ff 488B38   		movq	(%rax), %rdi
 1426 0602 488D5424 		leaq	12(%rsp), %rdx
 1426      0C
 1427 0607 4889D9   		movq	%rbx, %rcx
 1428 060a 4889E6   		movq	%rsp, %rsi
 1429 060d E8000000 		call	_ZN8UnitTest10CheckEqualI9USBStatusS1_EEvRNS_11TestResultsERKT_RKT0_RKNS_11TestDetailsE
 1429      00
 1430              	.LEHE27:
 1431              	.L157:
 1432 0612 488D7C24 		leaq	64(%rsp), %rdi
 1432      40
 1433              	.LEHB28:
 1434 0617 E8000000 		call	queueCommitPut
 1434      00
 1435 061c 488D7C24 		leaq	64(%rsp), %rdi
 1435      40
 1436 0621 4889EE   		movq	%rbp, %rsi
 1437 0624 E8000000 		call	queuePut
 1437      00
 1438              	.LEHE28:
 1439 0629 8944240C 		movl	%eax, 12(%rsp)
 1440              	.LEHB29:
 1441 062d E8000000 		call	_ZN8UnitTest11CurrentTest7DetailsEv
 1441      00
 1442 0632 488B30   		movq	(%rax), %rsi
 1443 0635 BA6A0100 		movl	$362, %edx
 1443      00
 1444 063a 4889DF   		movq	%rbx, %rdi
 1445 063d E8000000 		call	_ZN8UnitTest11TestDetailsC1ERKS0_i
 1445      00
 1446 0642 C7042400 		movl	$0, (%rsp)
 1446      000000
 1447 0649 E8000000 		call	_ZN8UnitTest11CurrentTest7ResultsEv
 1447      00
 1448 064e 488B38   		movq	(%rax), %rdi
 1449 0651 488D5424 		leaq	12(%rsp), %rdx
 1449      0C
 1450 0656 4889D9   		movq	%rbx, %rcx
 1451 0659 4889E6   		movq	%rsp, %rsi
 1452 065c E8000000 		call	_ZN8UnitTest10CheckEqualI9USBStatusS1_EEvRNS_11TestResultsERKT_RKT0_RKNS_11TestDetailsE
 1452      00
 1453              	.LEHE29:
 1454              	.L160:
 1455 0661 488D7C24 		leaq	64(%rsp), %rdi
 1455      40
 1456              	.LEHB30:
 1457 0666 E8000000 		call	queueCommitPut
 1457      00
 1458 066b 488D7C24 		leaq	64(%rsp), %rdi
 1458      40
 1459 0670 4889EE   		movq	%rbp, %rsi
 1460 0673 E8000000 		call	queuePut
 1460      00
 1461              	.LEHE30:
 1462 0678 8944240C 		movl	%eax, 12(%rsp)
 1463              	.LEHB31:
 1464 067c E8000000 		call	_ZN8UnitTest11CurrentTest7DetailsEv
 1464      00
 1465 0681 488B30   		movq	(%rax), %rsi
 1466 0684 BA6D0100 		movl	$365, %edx
 1466      00
 1467 0689 4889DF   		movq	%rbx, %rdi
 1468 068c E8000000 		call	_ZN8UnitTest11TestDetailsC1ERKS0_i
 1468      00
 1469 0691 C7042400 		movl	$0, (%rsp)
 1469      000000
 1470 0698 E8000000 		call	_ZN8UnitTest11CurrentTest7ResultsEv
 1470      00
 1471 069d 488B38   		movq	(%rax), %rdi
 1472 06a0 488D5424 		leaq	12(%rsp), %rdx
 1472      0C
 1473 06a5 4889D9   		movq	%rbx, %rcx
 1474 06a8 4889E6   		movq	%rsp, %rsi
 1475 06ab E8000000 		call	_ZN8UnitTest10CheckEqualI9USBStatusS1_EEvRNS_11TestResultsERKT_RKT0_RKNS_11TestDetailsE
 1475      00
 1476              	.LEHE31:
 1477              	.L163:
 1478 06b0 488D7C24 		leaq	64(%rsp), %rdi
 1478      40
 1479              	.LEHB32:
 1480 06b5 E8000000 		call	queueCommitPut
 1480      00
 1481 06ba 488D7C24 		leaq	64(%rsp), %rdi
 1481      40
 1482 06bf 4889EE   		movq	%rbp, %rsi
 1483 06c2 E8000000 		call	queuePut
 1483      00
 1484              	.LEHE32:
 1485 06c7 8944240C 		movl	%eax, 12(%rsp)
 1486              	.LEHB33:
 1487 06cb E8000000 		call	_ZN8UnitTest11CurrentTest7DetailsEv
 1487      00
 1488 06d0 488B30   		movq	(%rax), %rsi
 1489 06d3 BA700100 		movl	$368, %edx
 1489      00
 1490 06d8 4889DF   		movq	%rbx, %rdi
 1491 06db E8000000 		call	_ZN8UnitTest11TestDetailsC1ERKS0_i
 1491      00
 1492 06e0 C7042400 		movl	$0, (%rsp)
 1492      000000
 1493 06e7 E8000000 		call	_ZN8UnitTest11CurrentTest7ResultsEv
 1493      00
 1494 06ec 488B38   		movq	(%rax), %rdi
 1495 06ef 488D5424 		leaq	12(%rsp), %rdx
 1495      0C
 1496 06f4 4889D9   		movq	%rbx, %rcx
 1497 06f7 4889E6   		movq	%rsp, %rsi
 1498 06fa E8000000 		call	_ZN8UnitTest10CheckEqualI9USBStatusS1_EEvRNS_11TestResultsERKT_RKT0_RKNS_11TestDetailsE
 1498      00
 1499              	.LEHE33:
 1500              	.L166:
 1501 06ff 488D7C24 		leaq	64(%rsp), %rdi
 1501      40
 1502              	.LEHB34:
 1503 0704 E8000000 		call	queueCommitPut
 1503      00
 1504 0709 488D7C24 		leaq	64(%rsp), %rdi
 1504      40
 1505 070e 4889EE   		movq	%rbp, %rsi
 1506 0711 E8000000 		call	queuePut
 1506      00
 1507              	.LEHE34:
 1508 0716 8944240C 		movl	%eax, 12(%rsp)
 1509              	.LEHB35:
 1510 071a E8000000 		call	_ZN8UnitTest11CurrentTest7DetailsEv
 1510      00
 1511 071f 488B30   		movq	(%rax), %rsi
 1512 0722 BA730100 		movl	$371, %edx
 1512      00
 1513 0727 4889DF   		movq	%rbx, %rdi
 1514 072a E8000000 		call	_ZN8UnitTest11TestDetailsC1ERKS0_i
 1514      00
 1515 072f C7042400 		movl	$0, (%rsp)
 1515      000000
 1516 0736 E8000000 		call	_ZN8UnitTest11CurrentTest7ResultsEv
 1516      00
 1517 073b 488B38   		movq	(%rax), %rdi
 1518 073e 488D5424 		leaq	12(%rsp), %rdx
 1518      0C
 1519 0743 4889D9   		movq	%rbx, %rcx
 1520 0746 4889E6   		movq	%rsp, %rsi
 1521 0749 E8000000 		call	_ZN8UnitTest10CheckEqualI9USBStatusS1_EEvRNS_11TestResultsERKT_RKT0_RKNS_11TestDetailsE
 1521      00
 1522              	.LEHE35:
 1523              	.L169:
 1524 074e 488D7C24 		leaq	64(%rsp), %rdi
 1524      40
 1525              	.LEHB36:
 1526 0753 E8000000 		call	queueCommitPut
 1526      00
 1527 0758 488D7C24 		leaq	64(%rsp), %rdi
 1527      40
 1528 075d 4889EE   		movq	%rbp, %rsi
 1529 0760 E8000000 		call	queuePut
 1529      00
 1530              	.LEHE36:
 1531 0765 8944240C 		movl	%eax, 12(%rsp)
 1532              	.LEHB37:
 1533 0769 E8000000 		call	_ZN8UnitTest11CurrentTest7DetailsEv
 1533      00
 1534 076e 488B30   		movq	(%rax), %rsi
 1535 0771 BA760100 		movl	$374, %edx
 1535      00
 1536 0776 4889DF   		movq	%rbx, %rdi
 1537 0779 E8000000 		call	_ZN8UnitTest11TestDetailsC1ERKS0_i
 1537      00
 1538 077e C7042400 		movl	$0, (%rsp)
 1538      000000
 1539 0785 E8000000 		call	_ZN8UnitTest11CurrentTest7ResultsEv
 1539      00
 1540 078a 488B38   		movq	(%rax), %rdi
 1541 078d 488D5424 		leaq	12(%rsp), %rdx
 1541      0C
 1542 0792 4889D9   		movq	%rbx, %rcx
 1543 0795 4889E6   		movq	%rsp, %rsi
 1544 0798 E8000000 		call	_ZN8UnitTest10CheckEqualI9USBStatusS1_EEvRNS_11TestResultsERKT_RKT0_RKNS_11TestDetailsE
 1544      00
 1545              	.LEHE37:
 1546              	.L172:
 1547 079d 488D7C24 		leaq	64(%rsp), %rdi
 1547      40
 1548              	.LEHB38:
 1549 07a2 E8000000 		call	queueCommitPut
 1549      00
 1550 07a7 488D7C24 		leaq	64(%rsp), %rdi
 1550      40
 1551 07ac 4889EE   		movq	%rbp, %rsi
 1552 07af E8000000 		call	queuePut
 1552      00
 1553              	.LEHE38:
 1554 07b4 8944240C 		movl	%eax, 12(%rsp)
 1555              	.LEHB39:
 1556 07b8 E8000000 		call	_ZN8UnitTest11CurrentTest7DetailsEv
 1556      00
 1557 07bd 488B30   		movq	(%rax), %rsi
 1558 07c0 BA7B0100 		movl	$379, %edx
 1558      00
 1559 07c5 4889DF   		movq	%rbx, %rdi
 1560 07c8 E8000000 		call	_ZN8UnitTest11TestDetailsC1ERKS0_i
 1560      00
 1561 07cd C704240C 		movl	$12, (%rsp)
 1561      000000
 1562 07d4 E8000000 		call	_ZN8UnitTest11CurrentTest7ResultsEv
 1562      00
 1563 07d9 488B38   		movq	(%rax), %rdi
 1564 07dc 488D5424 		leaq	12(%rsp), %rdx
 1564      0C
 1565 07e1 4889D9   		movq	%rbx, %rcx
 1566 07e4 4889E6   		movq	%rsp, %rsi
 1567 07e7 E8000000 		call	_ZN8UnitTest10CheckEqualI9USBStatusS1_EEvRNS_11TestResultsERKT_RKT0_RKNS_11TestDetailsE
 1567      00
 1568              	.LEHE39:
 1569              	.L175:
 1570 07ec 488D7C24 		leaq	64(%rsp), %rdi
 1570      40
 1571              	.LEHB40:
 1572 07f1 E8000000 		call	queueDestroy
 1572      00
 1573              	.LEHE40:
 1574 07f6 4881C488 		addq	$136, %rsp
 1574      000000
 1575              		.cfi_remember_state
 1576              		.cfi_def_cfa_offset 24
 1577 07fd 5B       		popq	%rbx
 1578              		.cfi_def_cfa_offset 16
 1579 07fe 5D       		popq	%rbp
 1580              		.cfi_def_cfa_offset 8
 1581 07ff C3       		ret
 1582              	.L176:
 1583              		.cfi_restore_state
 1584 0800 4889C7   		movq	%rax, %rdi
 1585 0803 E8000000 		call	__cxa_begin_catch
 1585      00
 1586              	.LEHB41:
 1587 0808 E8000000 		call	_ZN8UnitTest11CurrentTest7DetailsEv
 1587      00
 1588 080d 488D5C24 		leaq	32(%rsp), %rbx
 1588      20
 1589 0812 488B30   		movq	(%rax), %rsi
 1590 0815 BA5D0100 		movl	$349, %edx
 1590      00
 1591 081a 4889DF   		movq	%rbx, %rdi
 1592 081d E8000000 		call	_ZN8UnitTest11TestDetailsC1ERKS0_i
 1592      00
 1593 0822 E8000000 		call	_ZN8UnitTest11CurrentTest7ResultsEv
 1593      00
 1594 0827 488B38   		movq	(%rax), %rdi
 1595 082a BA000000 		movl	$.LC4, %edx
 1595      00
 1596 082f 4889DE   		movq	%rbx, %rsi
 1597 0832 E8000000 		call	_ZN8UnitTest11TestResults13OnTestFailureERKNS_11TestDetailsEPKc
 1597      00
 1598              	.LEHE41:
 1599              	.LEHB42:
 1600 0837 E8000000 		call	__cxa_end_catch
 1600      00
 1601              	.LEHE42:
 1602 083c 488D6C24 		leaq	16(%rsp), %rbp
 1602      10
 1603 0841 E9E9FCFF 		jmp	.L148
 1603      FF
 1604              	.L194:
 1605 0846 4889C7   		movq	%rax, %rdi
 1606 0849 E8000000 		call	__cxa_begin_catch
 1606      00
 1607              	.LEHB43:
 1608 084e E8000000 		call	_ZN8UnitTest11CurrentTest7DetailsEv
 1608      00
 1609 0853 488B30   		movq	(%rax), %rsi
 1610 0856 BA7B0100 		movl	$379, %edx
 1610      00
 1611 085b 4889DF   		movq	%rbx, %rdi
 1612 085e E8000000 		call	_ZN8UnitTest11TestDetailsC1ERKS0_i
 1612      00
 1613 0863 E8000000 		call	_ZN8UnitTest11CurrentTest7ResultsEv
 1613      00
 1614 0868 488B38   		movq	(%rax), %rdi
 1615 086b BA000000 		movl	$.LC3, %edx
 1615      00
 1616 0870 4889DE   		movq	%rbx, %rsi
 1617 0873 E8000000 		call	_ZN8UnitTest11TestResults13OnTestFailureERKNS_11TestDetailsEPKc
 1617      00
 1618              	.LEHE43:
 1619              	.LEHB44:
 1620 0878 E8000000 		call	__cxa_end_catch
 1620      00
 1621              	.LEHE44:
 1622 087d E96AFFFF 		jmp	.L175
 1622      FF
 1623              	.L177:
 1624 0882 4889C3   		movq	%rax, %rbx
 1625              		.p2align 4,,5
 1626 0885 E8000000 		call	__cxa_end_catch
 1626      00
 1627 088a 4889DF   		movq	%rbx, %rdi
 1628              	.LEHB45:
 1629 088d E8000000 		call	_Unwind_Resume
 1629      00
 1630              	.LEHE45:
 1631              	.L195:
 1632 0892 4889C3   		movq	%rax, %rbx
 1633 0895 E8000000 		call	__cxa_end_catch
 1633      00
 1634 089a 4889DF   		movq	%rbx, %rdi
 1635              	.LEHB46:
 1636 089d E8000000 		call	_Unwind_Resume
 1636      00
 1637              	.LEHE46:
 1638              	.L192:
 1639 08a2 4889C7   		movq	%rax, %rdi
 1640 08a5 E8000000 		call	__cxa_begin_catch
 1640      00
 1641              	.LEHB47:
 1642 08aa E8000000 		call	_ZN8UnitTest11CurrentTest7DetailsEv
 1642      00
 1643 08af 488B30   		movq	(%rax), %rsi
 1644 08b2 BA760100 		movl	$374, %edx
 1644      00
 1645 08b7 4889DF   		movq	%rbx, %rdi
 1646 08ba E8000000 		call	_ZN8UnitTest11TestDetailsC1ERKS0_i
 1646      00
 1647 08bf E8000000 		call	_ZN8UnitTest11CurrentTest7ResultsEv
 1647      00
 1648 08c4 488B38   		movq	(%rax), %rdi
 1649 08c7 BA000000 		movl	$.LC4, %edx
 1649      00
 1650 08cc 4889DE   		movq	%rbx, %rsi
 1651 08cf E8000000 		call	_ZN8UnitTest11TestResults13OnTestFailureERKNS_11TestDetailsEPKc
 1651      00
 1652              	.LEHE47:
 1653              	.LEHB48:
 1654 08d4 E8000000 		call	__cxa_end_catch
 1654      00
 1655              	.LEHE48:
 1656 08d9 E9BFFEFF 		jmp	.L172
 1656      FF
 1657              	.L190:
 1658 08de 4889C7   		movq	%rax, %rdi
 1659              		.p2align 4,,5
 1660 08e1 E8000000 		call	__cxa_begin_catch
 1660      00
 1661              		.p2align 4,,5
 1662              	.LEHB49:
 1663 08e6 E8000000 		call	_ZN8UnitTest11CurrentTest7DetailsEv
 1663      00
 1664 08eb 488B30   		movq	(%rax), %rsi
 1665 08ee BA730100 		movl	$371, %edx
 1665      00
 1666 08f3 4889DF   		movq	%rbx, %rdi
 1667 08f6 E8000000 		call	_ZN8UnitTest11TestDetailsC1ERKS0_i
 1667      00
 1668 08fb E8000000 		call	_ZN8UnitTest11CurrentTest7ResultsEv
 1668      00
 1669 0900 488B38   		movq	(%rax), %rdi
 1670 0903 BA000000 		movl	$.LC4, %edx
 1670      00
 1671 0908 4889DE   		movq	%rbx, %rsi
 1672 090b E8000000 		call	_ZN8UnitTest11TestResults13OnTestFailureERKNS_11TestDetailsEPKc
 1672      00
 1673              	.LEHE49:
 1674              	.LEHB50:
 1675 0910 E8000000 		call	__cxa_end_catch
 1675      00
 1676              	.LEHE50:
 1677 0915 E934FEFF 		jmp	.L169
 1677      FF
 1678              	.L193:
 1679 091a 4889C3   		movq	%rax, %rbx
 1680 091d 0F1F00   		.p2align 4,,5
 1681 0920 E8000000 		call	__cxa_end_catch
 1681      00
 1682 0925 4889DF   		movq	%rbx, %rdi
 1683              	.LEHB51:
 1684 0928 E8000000 		call	_Unwind_Resume
 1684      00
 1685              	.LEHE51:
 1686              	.L191:
 1687 092d 4889C3   		movq	%rax, %rbx
 1688 0930 E8000000 		call	__cxa_end_catch
 1688      00
 1689 0935 4889DF   		movq	%rbx, %rdi
 1690              	.LEHB52:
 1691 0938 E8000000 		call	_Unwind_Resume
 1691      00
 1692              	.LEHE52:
 1693              	.L188:
 1694 093d 4889C7   		movq	%rax, %rdi
 1695 0940 E8000000 		call	__cxa_begin_catch
 1695      00
 1696              	.LEHB53:
 1697 0945 E8000000 		call	_ZN8UnitTest11CurrentTest7DetailsEv
 1697      00
 1698 094a 488B30   		movq	(%rax), %rsi
 1699 094d BA700100 		movl	$368, %edx
 1699      00
 1700 0952 4889DF   		movq	%rbx, %rdi
 1701 0955 E8000000 		call	_ZN8UnitTest11TestDetailsC1ERKS0_i
 1701      00
 1702 095a E8000000 		call	_ZN8UnitTest11CurrentTest7ResultsEv
 1702      00
 1703 095f 488B38   		movq	(%rax), %rdi
 1704 0962 BA000000 		movl	$.LC4, %edx
 1704      00
 1705 0967 4889DE   		movq	%rbx, %rsi
 1706 096a E8000000 		call	_ZN8UnitTest11TestResults13OnTestFailureERKNS_11TestDetailsEPKc
 1706      00
 1707              	.LEHE53:
 1708              	.LEHB54:
 1709 096f E8000000 		call	__cxa_end_catch
 1709      00
 1710              	.LEHE54:
 1711 0974 E986FDFF 		jmp	.L166
 1711      FF
 1712              	.L186:
 1713 0979 4889C7   		movq	%rax, %rdi
 1714 097c 0F1F4000 		.p2align 4,,5
 1715 0980 E8000000 		call	__cxa_begin_catch
 1715      00
 1716              		.p2align 4,,5
 1717              	.LEHB55:
 1718 0985 E8000000 		call	_ZN8UnitTest11CurrentTest7DetailsEv
 1718      00
 1719 098a 488B30   		movq	(%rax), %rsi
 1720 098d BA6D0100 		movl	$365, %edx
 1720      00
 1721 0992 4889DF   		movq	%rbx, %rdi
 1722 0995 E8000000 		call	_ZN8UnitTest11TestDetailsC1ERKS0_i
 1722      00
 1723 099a E8000000 		call	_ZN8UnitTest11CurrentTest7ResultsEv
 1723      00
 1724 099f 488B38   		movq	(%rax), %rdi
 1725 09a2 BA000000 		movl	$.LC4, %edx
 1725      00
 1726 09a7 4889DE   		movq	%rbx, %rsi
 1727 09aa E8000000 		call	_ZN8UnitTest11TestResults13OnTestFailureERKNS_11TestDetailsEPKc
 1727      00
 1728              	.LEHE55:
 1729              	.LEHB56:
 1730 09af E8000000 		call	__cxa_end_catch
 1730      00
 1731              	.LEHE56:
 1732 09b4 E9F7FCFF 		jmp	.L163
 1732      FF
 1733              	.L189:
 1734 09b9 4889C3   		movq	%rax, %rbx
 1735 09bc 0F1F4000 		.p2align 4,,5
 1736 09c0 E8000000 		call	__cxa_end_catch
 1736      00
 1737 09c5 4889DF   		movq	%rbx, %rdi
 1738              	.LEHB57:
 1739 09c8 E8000000 		call	_Unwind_Resume
 1739      00
 1740              	.LEHE57:
 1741              	.L187:
 1742 09cd 4889C3   		movq	%rax, %rbx
 1743 09d0 E8000000 		call	__cxa_end_catch
 1743      00
 1744 09d5 4889DF   		movq	%rbx, %rdi
 1745              	.LEHB58:
 1746 09d8 E8000000 		call	_Unwind_Resume
 1746      00
 1747              	.LEHE58:
 1748              	.L184:
 1749 09dd 4889C7   		movq	%rax, %rdi
 1750 09e0 E8000000 		call	__cxa_begin_catch
 1750      00
 1751              	.LEHB59:
 1752 09e5 E8000000 		call	_ZN8UnitTest11CurrentTest7DetailsEv
 1752      00
 1753 09ea 488B30   		movq	(%rax), %rsi
 1754 09ed BA6A0100 		movl	$362, %edx
 1754      00
 1755 09f2 4889DF   		movq	%rbx, %rdi
 1756 09f5 E8000000 		call	_ZN8UnitTest11TestDetailsC1ERKS0_i
 1756      00
 1757 09fa E8000000 		call	_ZN8UnitTest11CurrentTest7ResultsEv
 1757      00
 1758 09ff 488B38   		movq	(%rax), %rdi
 1759 0a02 BA000000 		movl	$.LC4, %edx
 1759      00
 1760 0a07 4889DE   		movq	%rbx, %rsi
 1761 0a0a E8000000 		call	_ZN8UnitTest11TestResults13OnTestFailureERKNS_11TestDetailsEPKc
 1761      00
 1762              	.LEHE59:
 1763              	.LEHB60:
 1764 0a0f E8000000 		call	__cxa_end_catch
 1764      00
 1765              	.LEHE60:
 1766 0a14 E948FCFF 		jmp	.L160
 1766      FF
 1767              	.L182:
 1768 0a19 4889C7   		movq	%rax, %rdi
 1769 0a1c 0F1F4000 		.p2align 4,,5
 1770 0a20 E8000000 		call	__cxa_begin_catch
 1770      00
 1771              		.p2align 4,,5
 1772              	.LEHB61:
 1773 0a25 E8000000 		call	_ZN8UnitTest11CurrentTest7DetailsEv
 1773      00
 1774 0a2a 488B30   		movq	(%rax), %rsi
 1775 0a2d BA670100 		movl	$359, %edx
 1775      00
 1776 0a32 4889DF   		movq	%rbx, %rdi
 1777 0a35 E8000000 		call	_ZN8UnitTest11TestDetailsC1ERKS0_i
 1777      00
 1778 0a3a E8000000 		call	_ZN8UnitTest11CurrentTest7ResultsEv
 1778      00
 1779 0a3f 488B38   		movq	(%rax), %rdi
 1780 0a42 BA000000 		movl	$.LC4, %edx
 1780      00
 1781 0a47 4889DE   		movq	%rbx, %rsi
 1782 0a4a E8000000 		call	_ZN8UnitTest11TestResults13OnTestFailureERKNS_11TestDetailsEPKc
 1782      00
 1783              	.LEHE61:
 1784              	.LEHB62:
 1785 0a4f E8000000 		call	__cxa_end_catch
 1785      00
 1786              	.LEHE62:
 1787 0a54 E9B9FBFF 		jmp	.L157
 1787      FF
 1788              	.L185:
 1789 0a59 4889C3   		movq	%rax, %rbx
 1790 0a5c 0F1F4000 		.p2align 4,,5
 1791 0a60 E8000000 		call	__cxa_end_catch
 1791      00
 1792 0a65 4889DF   		movq	%rbx, %rdi
 1793              	.LEHB63:
 1794 0a68 E8000000 		call	_Unwind_Resume
 1794      00
 1795              	.LEHE63:
 1796              	.L183:
 1797 0a6d 4889C3   		movq	%rax, %rbx
 1798 0a70 E8000000 		call	__cxa_end_catch
 1798      00
 1799 0a75 4889DF   		movq	%rbx, %rdi
 1800              	.LEHB64:
 1801 0a78 E8000000 		call	_Unwind_Resume
 1801      00
 1802              	.LEHE64:
 1803              	.L180:
 1804 0a7d 4889C7   		movq	%rax, %rdi
 1805 0a80 E8000000 		call	__cxa_begin_catch
 1805      00
 1806              	.LEHB65:
 1807 0a85 E8000000 		call	_ZN8UnitTest11CurrentTest7DetailsEv
 1807      00
 1808 0a8a 488B30   		movq	(%rax), %rsi
 1809 0a8d BA640100 		movl	$356, %edx
 1809      00
 1810 0a92 4889DF   		movq	%rbx, %rdi
 1811 0a95 E8000000 		call	_ZN8UnitTest11TestDetailsC1ERKS0_i
 1811      00
 1812 0a9a E8000000 		call	_ZN8UnitTest11CurrentTest7ResultsEv
 1812      00
 1813 0a9f 488B38   		movq	(%rax), %rdi
 1814 0aa2 BA000000 		movl	$.LC4, %edx
 1814      00
 1815 0aa7 4889DE   		movq	%rbx, %rsi
 1816 0aaa E8000000 		call	_ZN8UnitTest11TestResults13OnTestFailureERKNS_11TestDetailsEPKc
 1816      00
 1817              	.LEHE65:
 1818              	.LEHB66:
 1819 0aaf E8000000 		call	__cxa_end_catch
 1819      00
 1820              	.LEHE66:
 1821 0ab4 E90AFBFF 		jmp	.L154
 1821      FF
 1822              	.L178:
 1823 0ab9 4889C7   		movq	%rax, %rdi
 1824 0abc 0F1F4000 		.p2align 4,,5
 1825 0ac0 E8000000 		call	__cxa_begin_catch
 1825      00
 1826              		.p2align 4,,5
 1827              	.LEHB67:
 1828 0ac5 E8000000 		call	_ZN8UnitTest11CurrentTest7DetailsEv
 1828      00
 1829 0aca 488B30   		movq	(%rax), %rsi
 1830 0acd BA610100 		movl	$353, %edx
 1830      00
 1831 0ad2 4889DF   		movq	%rbx, %rdi
 1832 0ad5 E8000000 		call	_ZN8UnitTest11TestDetailsC1ERKS0_i
 1832      00
 1833 0ada E8000000 		call	_ZN8UnitTest11CurrentTest7ResultsEv
 1833      00
 1834 0adf 488B38   		movq	(%rax), %rdi
 1835 0ae2 BA000000 		movl	$.LC4, %edx
 1835      00
 1836 0ae7 4889DE   		movq	%rbx, %rsi
 1837 0aea E8000000 		call	_ZN8UnitTest11TestResults13OnTestFailureERKNS_11TestDetailsEPKc
 1837      00
 1838              	.LEHE67:
 1839              	.LEHB68:
 1840 0aef E8000000 		call	__cxa_end_catch
 1840      00
 1841              	.LEHE68:
 1842 0af4 E97BFAFF 		jmp	.L151
 1842      FF
 1843              	.L181:
 1844 0af9 4889C3   		movq	%rax, %rbx
 1845 0afc 0F1F4000 		.p2align 4,,5
 1846 0b00 E8000000 		call	__cxa_end_catch
 1846      00
 1847 0b05 4889DF   		movq	%rbx, %rdi
 1848              	.LEHB69:
 1849 0b08 E8000000 		call	_Unwind_Resume
 1849      00
 1850              	.LEHE69:
 1851              	.L179:
 1852 0b0d 4889C3   		movq	%rax, %rbx
 1853 0b10 E8000000 		call	__cxa_end_catch
 1853      00
 1854 0b15 4889DF   		movq	%rbx, %rdi
 1855              	.LEHB70:
 1856 0b18 E8000000 		call	_Unwind_Resume
 1856      00
 1857              	.LEHE70:
 1858              		.cfi_endproc
 1859              	.LFE1132:
 1860              		.section	.gcc_except_table
 1861              		.align 4
 1862              	.LLSDA1132:
 1863 008c FF       		.byte	0xff
 1864 008d 03       		.byte	0x3
 1865 008e 9C02     		.uleb128 .LLSDATT1132-.LLSDATTD1132
 1866              	.LLSDATTD1132:
 1867 0090 01       		.byte	0x1
 1868 0091 9002     		.uleb128 .LLSDACSE1132-.LLSDACSB1132
 1869              	.LLSDACSB1132:
 1870 0093 27       		.uleb128 .LEHB20-.LFB1132
 1871 0094 05       		.uleb128 .LEHE20-.LEHB20
 1872 0095 00       		.uleb128 0
 1873 0096 00       		.uleb128 0
 1874 0097 30       		.uleb128 .LEHB21-.LFB1132
 1875 0098 3F       		.uleb128 .LEHE21-.LEHB21
 1876 0099 C006     		.uleb128 .L176-.LFB1132
 1877 009b 01       		.uleb128 0x1
 1878 009c 77       		.uleb128 .LEHB22-.LFB1132
 1879 009d 05       		.uleb128 .LEHE22-.LEHB22
 1880 009e 00       		.uleb128 0
 1881 009f 00       		.uleb128 0
 1882 00a0 8001     		.uleb128 .LEHB23-.LFB1132
 1883 00a2 34       		.uleb128 .LEHE23-.LEHB23
 1884 00a3 F90B     		.uleb128 .L178-.LFB1132
 1885 00a5 01       		.uleb128 0x1
 1886 00a6 B901     		.uleb128 .LEHB24-.LFB1132
 1887 00a8 12       		.uleb128 .LEHE24-.LEHB24
 1888 00a9 00       		.uleb128 0
 1889 00aa 00       		.uleb128 0
 1890 00ab CF01     		.uleb128 .LEHB25-.LFB1132
 1891 00ad 34       		.uleb128 .LEHE25-.LEHB25
 1892 00ae BD0B     		.uleb128 .L180-.LFB1132
 1893 00b0 01       		.uleb128 0x1
 1894 00b1 8802     		.uleb128 .LEHB26-.LFB1132
 1895 00b3 12       		.uleb128 .LEHE26-.LEHB26
 1896 00b4 00       		.uleb128 0
 1897 00b5 00       		.uleb128 0
 1898 00b6 9E02     		.uleb128 .LEHB27-.LFB1132
 1899 00b8 34       		.uleb128 .LEHE27-.LEHB27
 1900 00b9 D90A     		.uleb128 .L182-.LFB1132
 1901 00bb 01       		.uleb128 0x1
 1902 00bc D702     		.uleb128 .LEHB28-.LFB1132
 1903 00be 12       		.uleb128 .LEHE28-.LEHB28
 1904 00bf 00       		.uleb128 0
 1905 00c0 00       		.uleb128 0
 1906 00c1 ED02     		.uleb128 .LEHB29-.LFB1132
 1907 00c3 34       		.uleb128 .LEHE29-.LEHB29
 1908 00c4 9D0A     		.uleb128 .L184-.LFB1132
 1909 00c6 01       		.uleb128 0x1
 1910 00c7 A603     		.uleb128 .LEHB30-.LFB1132
 1911 00c9 12       		.uleb128 .LEHE30-.LEHB30
 1912 00ca 00       		.uleb128 0
 1913 00cb 00       		.uleb128 0
 1914 00cc BC03     		.uleb128 .LEHB31-.LFB1132
 1915 00ce 34       		.uleb128 .LEHE31-.LEHB31
 1916 00cf B909     		.uleb128 .L186-.LFB1132
 1917 00d1 01       		.uleb128 0x1
 1918 00d2 F503     		.uleb128 .LEHB32-.LFB1132
 1919 00d4 12       		.uleb128 .LEHE32-.LEHB32
 1920 00d5 00       		.uleb128 0
 1921 00d6 00       		.uleb128 0
 1922 00d7 8B04     		.uleb128 .LEHB33-.LFB1132
 1923 00d9 34       		.uleb128 .LEHE33-.LEHB33
 1924 00da FD08     		.uleb128 .L188-.LFB1132
 1925 00dc 01       		.uleb128 0x1
 1926 00dd C404     		.uleb128 .LEHB34-.LFB1132
 1927 00df 12       		.uleb128 .LEHE34-.LEHB34
 1928 00e0 00       		.uleb128 0
 1929 00e1 00       		.uleb128 0
 1930 00e2 DA04     		.uleb128 .LEHB35-.LFB1132
 1931 00e4 34       		.uleb128 .LEHE35-.LEHB35
 1932 00e5 9E08     		.uleb128 .L190-.LFB1132
 1933 00e7 01       		.uleb128 0x1
 1934 00e8 9305     		.uleb128 .LEHB36-.LFB1132
 1935 00ea 12       		.uleb128 .LEHE36-.LEHB36
 1936 00eb 00       		.uleb128 0
 1937 00ec 00       		.uleb128 0
 1938 00ed A905     		.uleb128 .LEHB37-.LFB1132
 1939 00ef 34       		.uleb128 .LEHE37-.LEHB37
 1940 00f0 E207     		.uleb128 .L192-.LFB1132
 1941 00f2 01       		.uleb128 0x1
 1942 00f3 E205     		.uleb128 .LEHB38-.LFB1132
 1943 00f5 12       		.uleb128 .LEHE38-.LEHB38
 1944 00f6 00       		.uleb128 0
 1945 00f7 00       		.uleb128 0
 1946 00f8 F805     		.uleb128 .LEHB39-.LFB1132
 1947 00fa 34       		.uleb128 .LEHE39-.LEHB39
 1948 00fb 8607     		.uleb128 .L194-.LFB1132
 1949 00fd 01       		.uleb128 0x1
 1950 00fe B106     		.uleb128 .LEHB40-.LFB1132
 1951 0100 05       		.uleb128 .LEHE40-.LEHB40
 1952 0101 00       		.uleb128 0
 1953 0102 00       		.uleb128 0
 1954 0103 C806     		.uleb128 .LEHB41-.LFB1132
 1955 0105 2F       		.uleb128 .LEHE41-.LEHB41
 1956 0106 C207     		.uleb128 .L177-.LFB1132
 1957 0108 00       		.uleb128 0
 1958 0109 F706     		.uleb128 .LEHB42-.LFB1132
 1959 010b 05       		.uleb128 .LEHE42-.LEHB42
 1960 010c 00       		.uleb128 0
 1961 010d 00       		.uleb128 0
 1962 010e 8E07     		.uleb128 .LEHB43-.LFB1132
 1963 0110 2A       		.uleb128 .LEHE43-.LEHB43
 1964 0111 D207     		.uleb128 .L195-.LFB1132
 1965 0113 00       		.uleb128 0
 1966 0114 B807     		.uleb128 .LEHB44-.LFB1132
 1967 0116 05       		.uleb128 .LEHE44-.LEHB44
 1968 0117 00       		.uleb128 0
 1969 0118 00       		.uleb128 0
 1970 0119 CD07     		.uleb128 .LEHB45-.LFB1132
 1971 011b 05       		.uleb128 .LEHE45-.LEHB45
 1972 011c 00       		.uleb128 0
 1973 011d 00       		.uleb128 0
 1974 011e DD07     		.uleb128 .LEHB46-.LFB1132
 1975 0120 05       		.uleb128 .LEHE46-.LEHB46
 1976 0121 00       		.uleb128 0
 1977 0122 00       		.uleb128 0
 1978 0123 EA07     		.uleb128 .LEHB47-.LFB1132
 1979 0125 2A       		.uleb128 .LEHE47-.LEHB47
 1980 0126 DA08     		.uleb128 .L193-.LFB1132
 1981 0128 00       		.uleb128 0
 1982 0129 9408     		.uleb128 .LEHB48-.LFB1132
 1983 012b 05       		.uleb128 .LEHE48-.LEHB48
 1984 012c 00       		.uleb128 0
 1985 012d 00       		.uleb128 0
 1986 012e A608     		.uleb128 .LEHB49-.LFB1132
 1987 0130 2A       		.uleb128 .LEHE49-.LEHB49
 1988 0131 ED08     		.uleb128 .L191-.LFB1132
 1989 0133 00       		.uleb128 0
 1990 0134 D008     		.uleb128 .LEHB50-.LFB1132
 1991 0136 05       		.uleb128 .LEHE50-.LEHB50
 1992 0137 00       		.uleb128 0
 1993 0138 00       		.uleb128 0
 1994 0139 E808     		.uleb128 .LEHB51-.LFB1132
 1995 013b 05       		.uleb128 .LEHE51-.LEHB51
 1996 013c 00       		.uleb128 0
 1997 013d 00       		.uleb128 0
 1998 013e F808     		.uleb128 .LEHB52-.LFB1132
 1999 0140 05       		.uleb128 .LEHE52-.LEHB52
 2000 0141 00       		.uleb128 0
 2001 0142 00       		.uleb128 0
 2002 0143 8509     		.uleb128 .LEHB53-.LFB1132
 2003 0145 2A       		.uleb128 .LEHE53-.LEHB53
 2004 0146 F909     		.uleb128 .L189-.LFB1132
 2005 0148 00       		.uleb128 0
 2006 0149 AF09     		.uleb128 .LEHB54-.LFB1132
 2007 014b 05       		.uleb128 .LEHE54-.LEHB54
 2008 014c 00       		.uleb128 0
 2009 014d 00       		.uleb128 0
 2010 014e C509     		.uleb128 .LEHB55-.LFB1132
 2011 0150 2A       		.uleb128 .LEHE55-.LEHB55
 2012 0151 8D0A     		.uleb128 .L187-.LFB1132
 2013 0153 00       		.uleb128 0
 2014 0154 EF09     		.uleb128 .LEHB56-.LFB1132
 2015 0156 05       		.uleb128 .LEHE56-.LEHB56
 2016 0157 00       		.uleb128 0
 2017 0158 00       		.uleb128 0
 2018 0159 880A     		.uleb128 .LEHB57-.LFB1132
 2019 015b 05       		.uleb128 .LEHE57-.LEHB57
 2020 015c 00       		.uleb128 0
 2021 015d 00       		.uleb128 0
 2022 015e 980A     		.uleb128 .LEHB58-.LFB1132
 2023 0160 05       		.uleb128 .LEHE58-.LEHB58
 2024 0161 00       		.uleb128 0
 2025 0162 00       		.uleb128 0
 2026 0163 A50A     		.uleb128 .LEHB59-.LFB1132
 2027 0165 2A       		.uleb128 .LEHE59-.LEHB59
 2028 0166 990B     		.uleb128 .L185-.LFB1132
 2029 0168 00       		.uleb128 0
 2030 0169 CF0A     		.uleb128 .LEHB60-.LFB1132
 2031 016b 05       		.uleb128 .LEHE60-.LEHB60
 2032 016c 00       		.uleb128 0
 2033 016d 00       		.uleb128 0
 2034 016e E50A     		.uleb128 .LEHB61-.LFB1132
 2035 0170 2A       		.uleb128 .LEHE61-.LEHB61
 2036 0171 AD0B     		.uleb128 .L183-.LFB1132
 2037 0173 00       		.uleb128 0
 2038 0174 8F0B     		.uleb128 .LEHB62-.LFB1132
 2039 0176 05       		.uleb128 .LEHE62-.LEHB62
 2040 0177 00       		.uleb128 0
 2041 0178 00       		.uleb128 0
 2042 0179 A80B     		.uleb128 .LEHB63-.LFB1132
 2043 017b 05       		.uleb128 .LEHE63-.LEHB63
 2044 017c 00       		.uleb128 0
 2045 017d 00       		.uleb128 0
 2046 017e B80B     		.uleb128 .LEHB64-.LFB1132
 2047 0180 05       		.uleb128 .LEHE64-.LEHB64
 2048 0181 00       		.uleb128 0
 2049 0182 00       		.uleb128 0
 2050 0183 C50B     		.uleb128 .LEHB65-.LFB1132
 2051 0185 2A       		.uleb128 .LEHE65-.LEHB65
 2052 0186 B90C     		.uleb128 .L181-.LFB1132
 2053 0188 00       		.uleb128 0
 2054 0189 EF0B     		.uleb128 .LEHB66-.LFB1132
 2055 018b 05       		.uleb128 .LEHE66-.LEHB66
 2056 018c 00       		.uleb128 0
 2057 018d 00       		.uleb128 0
 2058 018e 850C     		.uleb128 .LEHB67-.LFB1132
 2059 0190 2A       		.uleb128 .LEHE67-.LEHB67
 2060 0191 CD0C     		.uleb128 .L179-.LFB1132
 2061 0193 00       		.uleb128 0
 2062 0194 AF0C     		.uleb128 .LEHB68-.LFB1132
 2063 0196 05       		.uleb128 .LEHE68-.LEHB68
 2064 0197 00       		.uleb128 0
 2065 0198 00       		.uleb128 0
 2066 0199 C80C     		.uleb128 .LEHB69-.LFB1132
 2067 019b 05       		.uleb128 .LEHE69-.LEHB69
 2068 019c 00       		.uleb128 0
 2069 019d 00       		.uleb128 0
 2070 019e D80C     		.uleb128 .LEHB70-.LFB1132
 2071 01a0 05       		.uleb128 .LEHE70-.LEHB70
 2072 01a1 00       		.uleb128 0
 2073 01a2 00       		.uleb128 0
 2074              	.LLSDACSE1132:
 2075 01a3 01       		.byte	0x1
 2076 01a4 00       		.byte	0
 2077 01a5 000000   		.align 4
 2078 01a8 00000000 		.long	0
 2079              	
 2080              	.LLSDATT1132:
 2081              		.text
 2083              		.section	.text._ZN8UnitTest10CheckEqualImmEEvRNS_11TestResultsERKT_RKT0_RKNS_11TestDetailsE,"axG",
 2084              		.p2align 4,,15
 2085              		.weak	_ZN8UnitTest10CheckEqualImmEEvRNS_11TestResultsERKT_RKT0_RKNS_11TestDetailsE
 2087              	_ZN8UnitTest10CheckEqualImmEEvRNS_11TestResultsERKT_RKT0_RKNS_11TestDetailsE:
 2088              	.LFB1169:
 2089              		.cfi_startproc
 2090              		.cfi_personality 0x3,__gxx_personality_v0
 2091              		.cfi_lsda 0x3,.LLSDA1169
 2092 0000 4156     		pushq	%r14
 2093              		.cfi_def_cfa_offset 16
 2094              		.cfi_offset 14, -16
 2095 0002 4155     		pushq	%r13
 2096              		.cfi_def_cfa_offset 24
 2097              		.cfi_offset 13, -24
 2098 0004 4154     		pushq	%r12
 2099              		.cfi_def_cfa_offset 32
 2100              		.cfi_offset 12, -32
 2101 0006 55       		pushq	%rbp
 2102              		.cfi_def_cfa_offset 40
 2103              		.cfi_offset 6, -40
 2104 0007 4889D5   		movq	%rdx, %rbp
 2105 000a 53       		pushq	%rbx
 2106              		.cfi_def_cfa_offset 48
 2107              		.cfi_offset 3, -48
 2108 000b 4889F3   		movq	%rsi, %rbx
 2109 000e 4881EC80 		subq	$384, %rsp
 2109      010000
 2110              		.cfi_def_cfa_offset 432
 2111 0015 488B02   		movq	(%rdx), %rax
 2112 0018 483906   		cmpq	%rax, (%rsi)
 2113 001b 0F840302 		je	.L198
 2113      0000
 2114 0021 4C8D6424 		leaq	112(%rsp), %r12
 2114      70
 2115 0026 4989FD   		movq	%rdi, %r13
 2116 0029 4989CE   		movq	%rcx, %r14
 2117 002c 4C89E7   		movq	%r12, %rdi
 2118 002f E8000000 		call	_ZNSt8ios_baseC2Ev
 2118      00
 2119 0034 31F6     		xorl	%esi, %esi
 2120 0036 4C89E7   		movq	%r12, %rdi
 2121 0039 48C78424 		movq	$0, 328(%rsp)
 2121      48010000 
 2121      00000000 
 2122 0045 C6842450 		movb	$0, 336(%rsp)
 2122      01000000 
 2123 004d C6842451 		movb	$0, 337(%rsp)
 2123      01000000 
 2124 0055 48C78424 		movq	$0, 344(%rsp)
 2124      58010000 
 2124      00000000 
 2125 0061 48C78424 		movq	$0, 352(%rsp)
 2125      60010000 
 2125      00000000 
 2126 006d 48C78424 		movq	$0, 360(%rsp)
 2126      68010000 
 2126      00000000 
 2127 0079 48C78424 		movq	$0, 368(%rsp)
 2127      70010000 
 2127      00000000 
 2128 0085 48C74424 		movq	$_ZTCN8UnitTest15MemoryOutStreamE0_So+24, 16(%rsp)
 2128      10000000 
 2128      00
 2129 008e 48C74424 		movq	$_ZTCN8UnitTest15MemoryOutStreamE0_So+64, 112(%rsp)
 2129      70000000 
 2129      00
 2130              	.LEHB71:
 2131 0097 E8000000 		call	_ZNSt9basic_iosIcSt11char_traitsIcEE4initEPSt15basic_streambufIcS1_E
 2131      00
 2132              	.LEHE71:
 2133 009c 488D7C24 		leaq	80(%rsp), %rdi
 2133      50
 2134 00a1 48C74424 		movq	$_ZTCN8UnitTest15MemoryOutStreamE0_St19basic_ostringstreamIcSt11char_traitsIcESaIcEE+24, 16(%
 2134      10000000 
 2134      00
 2135 00aa 48C74424 		movq	$_ZTCN8UnitTest15MemoryOutStreamE0_St19basic_ostringstreamIcSt11char_traitsIcESaIcEE+64, 112(
 2135      70000000 
 2135      00
 2136 00b3 48C74424 		movq	$_ZTVSt15basic_streambufIcSt11char_traitsIcEE+16, 24(%rsp)
 2136      18000000 
 2136      00
 2137 00bc 48C74424 		movq	$0, 32(%rsp)
 2137      20000000 
 2137      00
 2138 00c5 48C74424 		movq	$0, 40(%rsp)
 2138      28000000 
 2138      00
 2139 00ce 48C74424 		movq	$0, 48(%rsp)
 2139      30000000 
 2139      00
 2140 00d7 48C74424 		movq	$0, 56(%rsp)
 2140      38000000 
 2140      00
 2141 00e0 48C74424 		movq	$0, 64(%rsp)
 2141      40000000 
 2141      00
 2142 00e9 48C74424 		movq	$0, 72(%rsp)
 2142      48000000 
 2142      00
 2143 00f2 E8000000 		call	_ZNSt6localeC1Ev
 2143      00
 2144 00f7 488B4424 		movq	16(%rsp), %rax
 2144      10
 2145 00fc 488D7C24 		leaq	16(%rsp), %rdi
 2145      10
 2146 0101 488D7424 		leaq	24(%rsp), %rsi
 2146      18
 2147 0106 48C74424 		movq	$_ZTVSt15basic_stringbufIcSt11char_traitsIcESaIcEE+16, 24(%rsp)
 2147      18000000 
 2147      00
 2148 010f C7442458 		movl	$16, 88(%rsp)
 2148      10000000 
 2149 0117 48C74424 		movq	$_ZNSs4_Rep20_S_empty_rep_storageE+24, 96(%rsp)
 2149      60000000 
 2149      00
 2150 0120 480378E8 		addq	-24(%rax), %rdi
 2151              	.LEHB72:
 2152 0124 E8000000 		call	_ZNSt9basic_iosIcSt11char_traitsIcEE4initEPSt15basic_streambufIcS1_E
 2152      00
 2153              	.LEHE72:
 2154 0129 488D7C24 		leaq	16(%rsp), %rdi
 2154      10
 2155 012e BA090000 		movl	$9, %edx
 2155      00
 2156 0133 BE000000 		movl	$.LC0, %esi
 2156      00
 2157 0138 48C74424 		movq	$_ZTVN8UnitTest15MemoryOutStreamE+24, 16(%rsp)
 2157      10000000 
 2157      00
 2158 0141 48C74424 		movq	$_ZTVN8UnitTest15MemoryOutStreamE+64, 112(%rsp)
 2158      70000000 
 2158      00
 2159 014a 48C74424 		movq	$_ZNSs4_Rep20_S_empty_rep_storageE+24, 104(%rsp)
 2159      68000000 
 2159      00
 2160 0153 488B6D00 		movq	0(%rbp), %rbp
 2161 0157 488B1B   		movq	(%rbx), %rbx
 2162              	.LEHB73:
 2163 015a E8000000 		call	_ZSt16__ostream_insertIcSt11char_traitsIcEERSt13basic_ostreamIT_T0_ES6_PKS3_l
 2163      00
 2164 015f 488D7C24 		leaq	16(%rsp), %rdi
 2164      10
 2165 0164 4889DE   		movq	%rbx, %rsi
 2166 0167 E8000000 		call	_ZNSo9_M_insertImEERSoT_
 2166      00
 2167 016c BA090000 		movl	$9, %edx
 2167      00
 2168 0171 BE000000 		movl	$.LC1, %esi
 2168      00
 2169 0176 4889C7   		movq	%rax, %rdi
 2170 0179 4889C3   		movq	%rax, %rbx
 2171 017c E8000000 		call	_ZSt16__ostream_insertIcSt11char_traitsIcEERSt13basic_ostreamIT_T0_ES6_PKS3_l
 2171      00
 2172 0181 4889EE   		movq	%rbp, %rsi
 2173 0184 4889DF   		movq	%rbx, %rdi
 2174 0187 E8000000 		call	_ZNSo9_M_insertImEERSoT_
 2174      00
 2175 018c 488D7C24 		leaq	16(%rsp), %rdi
 2175      10
 2176 0191 E8000000 		call	_ZNK8UnitTest15MemoryOutStream7GetTextEv
 2176      00
 2177 0196 4889C2   		movq	%rax, %rdx
 2178 0199 4C89F6   		movq	%r14, %rsi
 2179 019c 4C89EF   		movq	%r13, %rdi
 2180 019f E8000000 		call	_ZN8UnitTest11TestResults13OnTestFailureERKNS_11TestDetailsEPKc
 2180      00
 2181              	.LEHE73:
 2182 01a4 488B4424 		movq	104(%rsp), %rax
 2182      68
 2183 01a9 48C74424 		movq	$_ZTVN8UnitTest15MemoryOutStreamE+24, 16(%rsp)
 2183      10000000 
 2183      00
 2184 01b2 48C74424 		movq	$_ZTVN8UnitTest15MemoryOutStreamE+64, 112(%rsp)
 2184      70000000 
 2184      00
 2185 01bb 488D78E8 		leaq	-24(%rax), %rdi
 2186 01bf 4881FF00 		cmpq	$_ZNSs4_Rep20_S_empty_rep_storageE, %rdi
 2186      000000
 2187 01c6 756C     		jne	.L221
 2188              	.L205:
 2189 01c8 488B4424 		movq	96(%rsp), %rax
 2189      60
 2190 01cd 48C74424 		movq	$_ZTCN8UnitTest15MemoryOutStreamE0_St19basic_ostringstreamIcSt11char_traitsIcESaIcEE+24, 16(%
 2190      10000000 
 2190      00
 2191 01d6 48C74424 		movq	$_ZTCN8UnitTest15MemoryOutStreamE0_St19basic_ostringstreamIcSt11char_traitsIcESaIcEE+64, 112(
 2191      70000000 
 2191      00
 2192 01df 48C74424 		movq	$_ZTVSt15basic_stringbufIcSt11char_traitsIcESaIcEE+16, 24(%rsp)
 2192      18000000 
 2192      00
 2193 01e8 488D78E8 		leaq	-24(%rax), %rdi
 2194 01ec 4881FF00 		cmpq	$_ZNSs4_Rep20_S_empty_rep_storageE, %rdi
 2194      000000
 2195 01f3 756B     		jne	.L222
 2196              	.L210:
 2197 01f5 488D7C24 		leaq	80(%rsp), %rdi
 2197      50
 2198 01fa 48C74424 		movq	$_ZTVSt15basic_streambufIcSt11char_traitsIcEE+16, 24(%rsp)
 2198      18000000 
 2198      00
 2199 0203 E8000000 		call	_ZNSt6localeD1Ev
 2199      00
 2200 0208 488D7C24 		leaq	112(%rsp), %rdi
 2200      70
 2201 020d 48C74424 		movq	$_ZTCN8UnitTest15MemoryOutStreamE0_So+24, 16(%rsp)
 2201      10000000 
 2201      00
 2202 0216 48C74424 		movq	$_ZTVSt9basic_iosIcSt11char_traitsIcEE+16, 112(%rsp)
 2202      70000000 
 2202      00
 2203              	.LEHB74:
 2204 021f E8000000 		call	_ZNSt8ios_baseD2Ev
 2204      00
 2205              	.LEHE74:
 2206              	.L198:
 2207 0224 4881C480 		addq	$384, %rsp
 2207      010000
 2208              		.cfi_remember_state
 2209              		.cfi_def_cfa_offset 48
 2210 022b 5B       		popq	%rbx
 2211              		.cfi_def_cfa_offset 40
 2212 022c 5D       		popq	%rbp
 2213              		.cfi_def_cfa_offset 32
 2214 022d 415C     		popq	%r12
 2215              		.cfi_def_cfa_offset 24
 2216 022f 415D     		popq	%r13
 2217              		.cfi_def_cfa_offset 16
 2218 0231 415E     		popq	%r14
 2219              		.cfi_def_cfa_offset 8
 2220 0233 C3       		ret
 2221              	.L221:
 2222              		.cfi_restore_state
 2223 0234 B9000000 		movl	$_ZL28__gthrw___pthread_key_createPjPFvPvE, %ecx
 2223      00
 2224 0239 488D5710 		leaq	16(%rdi), %rdx
 2225 023d 4885C9   		testq	%rcx, %rcx
 2226 0240 747D     		je	.L206
 2227 0242 83C8FF   		orl	$-1, %eax
 2228 0245 F00FC102 		lock xaddl	%eax, (%rdx)
 2229              	.L207:
 2230 0249 85C0     		testl	%eax, %eax
 2231 024b 0F8F77FF 		jg	.L205
 2231      FFFF
 2232 0251 488D7424 		leaq	15(%rsp), %rsi
 2232      0F
 2233 0256 E8000000 		call	_ZNSs4_Rep10_M_destroyERKSaIcE
 2233      00
 2234 025b E968FFFF 		jmp	.L205
 2234      FF
 2235              	.L222:
 2236 0260 B9000000 		movl	$_ZL28__gthrw___pthread_key_createPjPFvPvE, %ecx
 2236      00
 2237 0265 488D5710 		leaq	16(%rdi), %rdx
 2238 0269 4885C9   		testq	%rcx, %rcx
 2239 026c 7479     		je	.L211
 2240 026e 83C8FF   		orl	$-1, %eax
 2241 0271 F00FC102 		lock xaddl	%eax, (%rdx)
 2242              	.L212:
 2243 0275 85C0     		testl	%eax, %eax
 2244 0277 0F8F78FF 		jg	.L210
 2244      FFFF
 2245 027d 488D7424 		leaq	15(%rsp), %rsi
 2245      0F
 2246 0282 E8000000 		call	_ZNSs4_Rep10_M_destroyERKSaIcE
 2246      00
 2247 0287 E969FFFF 		jmp	.L210
 2247      FF
 2248              	.L215:
 2249 028c 488D7C24 		leaq	16(%rsp), %rdi
 2249      10
 2250 0291 4889C3   		movq	%rax, %rbx
 2251 0294 E8000000 		call	_ZN8UnitTest15MemoryOutStreamD1Ev
 2251      00
 2252 0299 4889DF   		movq	%rbx, %rdi
 2253              	.LEHB75:
 2254 029c E8000000 		call	_Unwind_Resume
 2254      00
 2255              	.LEHE75:
 2256              	.L216:
 2257 02a1 4889C3   		movq	%rax, %rbx
 2258              	.L202:
 2259 02a4 488D7C24 		leaq	112(%rsp), %rdi
 2259      70
 2260 02a9 48C74424 		movq	$_ZTVSt9basic_iosIcSt11char_traitsIcEE+16, 112(%rsp)
 2260      70000000 
 2260      00
 2261 02b2 E8000000 		call	_ZNSt8ios_baseD2Ev
 2261      00
 2262 02b7 4889DF   		movq	%rbx, %rdi
 2263              	.LEHB76:
 2264 02ba E8000000 		call	_Unwind_Resume
 2264      00
 2265              	.LEHE76:
 2266              	.L206:
 2267 02bf 8B50F8   		movl	-8(%rax), %edx
 2268 02c2 8D4AFF   		leal	-1(%rdx), %ecx
 2269 02c5 8948F8   		movl	%ecx, -8(%rax)
 2270 02c8 89D0     		movl	%edx, %eax
 2271 02ca E97AFFFF 		jmp	.L207
 2271      FF
 2272              	.L217:
 2273 02cf 488D7C24 		leaq	24(%rsp), %rdi
 2273      18
 2274 02d4 4889C3   		movq	%rax, %rbx
 2275 02d7 E8000000 		call	_ZNSt15basic_stringbufIcSt11char_traitsIcESaIcEED1Ev
 2275      00
 2276 02dc 48C74424 		movq	$_ZTCN8UnitTest15MemoryOutStreamE0_So+24, 16(%rsp)
 2276      10000000 
 2276      00
 2277 02e5 EBBD     		jmp	.L202
 2278              	.L211:
 2279 02e7 8B50F8   		movl	-8(%rax), %edx
 2280 02ea 8D4AFF   		leal	-1(%rdx), %ecx
 2281 02ed 8948F8   		movl	%ecx, -8(%rax)
 2282 02f0 89D0     		movl	%edx, %eax
 2283 02f2 EB81     		jmp	.L212
 2284              		.cfi_endproc
 2285              	.LFE1169:
 2286              		.section	.gcc_except_table
 2287              	.LLSDA1169:
 2288 01ac FF       		.byte	0xff
 2289 01ad FF       		.byte	0xff
 2290 01ae 01       		.byte	0x1
 2291 01af 21       		.uleb128 .LLSDACSE1169-.LLSDACSB1169
 2292              	.LLSDACSB1169:
 2293 01b0 9701     		.uleb128 .LEHB71-.LFB1169
 2294 01b2 05       		.uleb128 .LEHE71-.LEHB71
 2295 01b3 A105     		.uleb128 .L216-.LFB1169
 2296 01b5 00       		.uleb128 0
 2297 01b6 A402     		.uleb128 .LEHB72-.LFB1169
 2298 01b8 05       		.uleb128 .LEHE72-.LEHB72
 2299 01b9 CF05     		.uleb128 .L217-.LFB1169
 2300 01bb 00       		.uleb128 0
 2301 01bc DA02     		.uleb128 .LEHB73-.LFB1169
 2302 01be 4A       		.uleb128 .LEHE73-.LEHB73
 2303 01bf 8C05     		.uleb128 .L215-.LFB1169
 2304 01c1 00       		.uleb128 0
 2305 01c2 9F04     		.uleb128 .LEHB74-.LFB1169
 2306 01c4 05       		.uleb128 .LEHE74-.LEHB74
 2307 01c5 00       		.uleb128 0
 2308 01c6 00       		.uleb128 0
 2309 01c7 9C05     		.uleb128 .LEHB75-.LFB1169
 2310 01c9 05       		.uleb128 .LEHE75-.LEHB75
 2311 01ca 00       		.uleb128 0
 2312 01cb 00       		.uleb128 0
 2313 01cc BA05     		.uleb128 .LEHB76-.LFB1169
 2314 01ce 05       		.uleb128 .LEHE76-.LEHB76
 2315 01cf 00       		.uleb128 0
 2316 01d0 00       		.uleb128 0
 2317              	.LLSDACSE1169:
 2318              		.section	.text._ZN8UnitTest10CheckEqualImmEEvRNS_11TestResultsERKT_RKT0_RKNS_11TestDetailsE,"axG",
 2320              		.section	.text._ZN8UnitTest10CheckEqualImjEEvRNS_11TestResultsERKT_RKT0_RKNS_11TestDetailsE,"axG",
 2321              		.p2align 4,,15
 2322              		.weak	_ZN8UnitTest10CheckEqualImjEEvRNS_11TestResultsERKT_RKT0_RKNS_11TestDetailsE
 2324              	_ZN8UnitTest10CheckEqualImjEEvRNS_11TestResultsERKT_RKT0_RKNS_11TestDetailsE:
 2325              	.LFB1170:
 2326              		.cfi_startproc
 2327              		.cfi_personality 0x3,__gxx_personality_v0
 2328              		.cfi_lsda 0x3,.LLSDA1170
 2329 0000 4156     		pushq	%r14
 2330              		.cfi_def_cfa_offset 16
 2331              		.cfi_offset 14, -16
 2332 0002 4155     		pushq	%r13
 2333              		.cfi_def_cfa_offset 24
 2334              		.cfi_offset 13, -24
 2335 0004 4154     		pushq	%r12
 2336              		.cfi_def_cfa_offset 32
 2337              		.cfi_offset 12, -32
 2338 0006 55       		pushq	%rbp
 2339              		.cfi_def_cfa_offset 40
 2340              		.cfi_offset 6, -40
 2341 0007 4889D5   		movq	%rdx, %rbp
 2342 000a 53       		pushq	%rbx
 2343              		.cfi_def_cfa_offset 48
 2344              		.cfi_offset 3, -48
 2345 000b 4889F3   		movq	%rsi, %rbx
 2346 000e 4881EC80 		subq	$384, %rsp
 2346      010000
 2347              		.cfi_def_cfa_offset 432
 2348 0015 8B02     		movl	(%rdx), %eax
 2349 0017 483906   		cmpq	%rax, (%rsi)
 2350 001a 0F840102 		je	.L223
 2350      0000
 2351 0020 4C8D7424 		leaq	112(%rsp), %r14
 2351      70
 2352 0025 4989FC   		movq	%rdi, %r12
 2353 0028 4989CD   		movq	%rcx, %r13
 2354 002b 4C89F7   		movq	%r14, %rdi
 2355 002e E8000000 		call	_ZNSt8ios_baseC2Ev
 2355      00
 2356 0033 31F6     		xorl	%esi, %esi
 2357 0035 4C89F7   		movq	%r14, %rdi
 2358 0038 48C78424 		movq	$0, 328(%rsp)
 2358      48010000 
 2358      00000000 
 2359 0044 C6842450 		movb	$0, 336(%rsp)
 2359      01000000 
 2360 004c C6842451 		movb	$0, 337(%rsp)
 2360      01000000 
 2361 0054 48C78424 		movq	$0, 344(%rsp)
 2361      58010000 
 2361      00000000 
 2362 0060 48C78424 		movq	$0, 352(%rsp)
 2362      60010000 
 2362      00000000 
 2363 006c 48C78424 		movq	$0, 360(%rsp)
 2363      68010000 
 2363      00000000 
 2364 0078 48C78424 		movq	$0, 368(%rsp)
 2364      70010000 
 2364      00000000 
 2365 0084 48C74424 		movq	$_ZTCN8UnitTest15MemoryOutStreamE0_So+24, 16(%rsp)
 2365      10000000 
 2365      00
 2366 008d 48C74424 		movq	$_ZTCN8UnitTest15MemoryOutStreamE0_So+64, 112(%rsp)
 2366      70000000 
 2366      00
 2367              	.LEHB77:
 2368 0096 E8000000 		call	_ZNSt9basic_iosIcSt11char_traitsIcEE4initEPSt15basic_streambufIcS1_E
 2368      00
 2369              	.LEHE77:
 2370 009b 488D7C24 		leaq	80(%rsp), %rdi
 2370      50
 2371 00a0 48C74424 		movq	$_ZTCN8UnitTest15MemoryOutStreamE0_St19basic_ostringstreamIcSt11char_traitsIcESaIcEE+24, 16(%
 2371      10000000 
 2371      00
 2372 00a9 48C74424 		movq	$_ZTCN8UnitTest15MemoryOutStreamE0_St19basic_ostringstreamIcSt11char_traitsIcESaIcEE+64, 112(
 2372      70000000 
 2372      00
 2373 00b2 48C74424 		movq	$_ZTVSt15basic_streambufIcSt11char_traitsIcEE+16, 24(%rsp)
 2373      18000000 
 2373      00
 2374 00bb 48C74424 		movq	$0, 32(%rsp)
 2374      20000000 
 2374      00
 2375 00c4 48C74424 		movq	$0, 40(%rsp)
 2375      28000000 
 2375      00
 2376 00cd 48C74424 		movq	$0, 48(%rsp)
 2376      30000000 
 2376      00
 2377 00d6 48C74424 		movq	$0, 56(%rsp)
 2377      38000000 
 2377      00
 2378 00df 48C74424 		movq	$0, 64(%rsp)
 2378      40000000 
 2378      00
 2379 00e8 48C74424 		movq	$0, 72(%rsp)
 2379      48000000 
 2379      00
 2380 00f1 E8000000 		call	_ZNSt6localeC1Ev
 2380      00
 2381 00f6 488B4424 		movq	16(%rsp), %rax
 2381      10
 2382 00fb 488D7C24 		leaq	16(%rsp), %rdi
 2382      10
 2383 0100 488D7424 		leaq	24(%rsp), %rsi
 2383      18
 2384 0105 48C74424 		movq	$_ZTVSt15basic_stringbufIcSt11char_traitsIcESaIcEE+16, 24(%rsp)
 2384      18000000 
 2384      00
 2385 010e C7442458 		movl	$16, 88(%rsp)
 2385      10000000 
 2386 0116 48C74424 		movq	$_ZNSs4_Rep20_S_empty_rep_storageE+24, 96(%rsp)
 2386      60000000 
 2386      00
 2387 011f 480378E8 		addq	-24(%rax), %rdi
 2388              	.LEHB78:
 2389 0123 E8000000 		call	_ZNSt9basic_iosIcSt11char_traitsIcEE4initEPSt15basic_streambufIcS1_E
 2389      00
 2390              	.LEHE78:
 2391 0128 488D7C24 		leaq	16(%rsp), %rdi
 2391      10
 2392 012d BA090000 		movl	$9, %edx
 2392      00
 2393 0132 BE000000 		movl	$.LC0, %esi
 2393      00
 2394 0137 48C74424 		movq	$_ZTVN8UnitTest15MemoryOutStreamE+24, 16(%rsp)
 2394      10000000 
 2394      00
 2395 0140 48C74424 		movq	$_ZTVN8UnitTest15MemoryOutStreamE+64, 112(%rsp)
 2395      70000000 
 2395      00
 2396 0149 48C74424 		movq	$_ZNSs4_Rep20_S_empty_rep_storageE+24, 104(%rsp)
 2396      68000000 
 2396      00
 2397 0152 8B6D00   		movl	0(%rbp), %ebp
 2398 0155 488B1B   		movq	(%rbx), %rbx
 2399              	.LEHB79:
 2400 0158 E8000000 		call	_ZSt16__ostream_insertIcSt11char_traitsIcEERSt13basic_ostreamIT_T0_ES6_PKS3_l
 2400      00
 2401 015d 488D7C24 		leaq	16(%rsp), %rdi
 2401      10
 2402 0162 4889DE   		movq	%rbx, %rsi
 2403 0165 E8000000 		call	_ZNSo9_M_insertImEERSoT_
 2403      00
 2404 016a BA090000 		movl	$9, %edx
 2404      00
 2405 016f BE000000 		movl	$.LC1, %esi
 2405      00
 2406 0174 4889C7   		movq	%rax, %rdi
 2407 0177 4889C3   		movq	%rax, %rbx
 2408 017a E8000000 		call	_ZSt16__ostream_insertIcSt11char_traitsIcEERSt13basic_ostreamIT_T0_ES6_PKS3_l
 2408      00
 2409 017f 89EE     		movl	%ebp, %esi
 2410 0181 4889DF   		movq	%rbx, %rdi
 2411 0184 E8000000 		call	_ZNSo9_M_insertImEERSoT_
 2411      00
 2412 0189 488D7C24 		leaq	16(%rsp), %rdi
 2412      10
 2413 018e E8000000 		call	_ZNK8UnitTest15MemoryOutStream7GetTextEv
 2413      00
 2414 0193 4889C2   		movq	%rax, %rdx
 2415 0196 4C89EE   		movq	%r13, %rsi
 2416 0199 4C89E7   		movq	%r12, %rdi
 2417 019c E8000000 		call	_ZN8UnitTest11TestResults13OnTestFailureERKNS_11TestDetailsEPKc
 2417      00
 2418              	.LEHE79:
 2419 01a1 488B4424 		movq	104(%rsp), %rax
 2419      68
 2420 01a6 48C74424 		movq	$_ZTVN8UnitTest15MemoryOutStreamE+24, 16(%rsp)
 2420      10000000 
 2420      00
 2421 01af 48C74424 		movq	$_ZTVN8UnitTest15MemoryOutStreamE+64, 112(%rsp)
 2421      70000000 
 2421      00
 2422 01b8 488D78E8 		leaq	-24(%rax), %rdi
 2423 01bc 4881FF00 		cmpq	$_ZNSs4_Rep20_S_empty_rep_storageE, %rdi
 2423      000000
 2424 01c3 756C     		jne	.L246
 2425              	.L230:
 2426 01c5 488B4424 		movq	96(%rsp), %rax
 2426      60
 2427 01ca 48C74424 		movq	$_ZTCN8UnitTest15MemoryOutStreamE0_St19basic_ostringstreamIcSt11char_traitsIcESaIcEE+24, 16(%
 2427      10000000 
 2427      00
 2428 01d3 48C74424 		movq	$_ZTCN8UnitTest15MemoryOutStreamE0_St19basic_ostringstreamIcSt11char_traitsIcESaIcEE+64, 112(
 2428      70000000 
 2428      00
 2429 01dc 48C74424 		movq	$_ZTVSt15basic_stringbufIcSt11char_traitsIcESaIcEE+16, 24(%rsp)
 2429      18000000 
 2429      00
 2430 01e5 488D78E8 		leaq	-24(%rax), %rdi
 2431 01e9 4881FF00 		cmpq	$_ZNSs4_Rep20_S_empty_rep_storageE, %rdi
 2431      000000
 2432 01f0 756B     		jne	.L247
 2433              	.L235:
 2434 01f2 488D7C24 		leaq	80(%rsp), %rdi
 2434      50
 2435 01f7 48C74424 		movq	$_ZTVSt15basic_streambufIcSt11char_traitsIcEE+16, 24(%rsp)
 2435      18000000 
 2435      00
 2436 0200 E8000000 		call	_ZNSt6localeD1Ev
 2436      00
 2437 0205 488D7C24 		leaq	112(%rsp), %rdi
 2437      70
 2438 020a 48C74424 		movq	$_ZTCN8UnitTest15MemoryOutStreamE0_So+24, 16(%rsp)
 2438      10000000 
 2438      00
 2439 0213 48C74424 		movq	$_ZTVSt9basic_iosIcSt11char_traitsIcEE+16, 112(%rsp)
 2439      70000000 
 2439      00
 2440              	.LEHB80:
 2441 021c E8000000 		call	_ZNSt8ios_baseD2Ev
 2441      00
 2442              	.LEHE80:
 2443              	.L223:
 2444 0221 4881C480 		addq	$384, %rsp
 2444      010000
 2445              		.cfi_remember_state
 2446              		.cfi_def_cfa_offset 48
 2447 0228 5B       		popq	%rbx
 2448              		.cfi_def_cfa_offset 40
 2449 0229 5D       		popq	%rbp
 2450              		.cfi_def_cfa_offset 32
 2451 022a 415C     		popq	%r12
 2452              		.cfi_def_cfa_offset 24
 2453 022c 415D     		popq	%r13
 2454              		.cfi_def_cfa_offset 16
 2455 022e 415E     		popq	%r14
 2456              		.cfi_def_cfa_offset 8
 2457 0230 C3       		ret
 2458              	.L246:
 2459              		.cfi_restore_state
 2460 0231 B9000000 		movl	$_ZL28__gthrw___pthread_key_createPjPFvPvE, %ecx
 2460      00
 2461 0236 488D5710 		leaq	16(%rdi), %rdx
 2462 023a 4885C9   		testq	%rcx, %rcx
 2463 023d 747D     		je	.L231
 2464 023f 83C8FF   		orl	$-1, %eax
 2465 0242 F00FC102 		lock xaddl	%eax, (%rdx)
 2466              	.L232:
 2467 0246 85C0     		testl	%eax, %eax
 2468 0248 0F8F77FF 		jg	.L230
 2468      FFFF
 2469 024e 488D7424 		leaq	15(%rsp), %rsi
 2469      0F
 2470 0253 E8000000 		call	_ZNSs4_Rep10_M_destroyERKSaIcE
 2470      00
 2471 0258 E968FFFF 		jmp	.L230
 2471      FF
 2472              	.L247:
 2473 025d B9000000 		movl	$_ZL28__gthrw___pthread_key_createPjPFvPvE, %ecx
 2473      00
 2474 0262 488D5710 		leaq	16(%rdi), %rdx
 2475 0266 4885C9   		testq	%rcx, %rcx
 2476 0269 7479     		je	.L236
 2477 026b 83C8FF   		orl	$-1, %eax
 2478 026e F00FC102 		lock xaddl	%eax, (%rdx)
 2479              	.L237:
 2480 0272 85C0     		testl	%eax, %eax
 2481 0274 0F8F78FF 		jg	.L235
 2481      FFFF
 2482 027a 488D7424 		leaq	15(%rsp), %rsi
 2482      0F
 2483 027f E8000000 		call	_ZNSs4_Rep10_M_destroyERKSaIcE
 2483      00
 2484 0284 E969FFFF 		jmp	.L235
 2484      FF
 2485              	.L240:
 2486 0289 488D7C24 		leaq	16(%rsp), %rdi
 2486      10
 2487 028e 4889C3   		movq	%rax, %rbx
 2488 0291 E8000000 		call	_ZN8UnitTest15MemoryOutStreamD1Ev
 2488      00
 2489 0296 4889DF   		movq	%rbx, %rdi
 2490              	.LEHB81:
 2491 0299 E8000000 		call	_Unwind_Resume
 2491      00
 2492              	.LEHE81:
 2493              	.L241:
 2494 029e 4889C3   		movq	%rax, %rbx
 2495              	.L227:
 2496 02a1 488D7C24 		leaq	112(%rsp), %rdi
 2496      70
 2497 02a6 48C74424 		movq	$_ZTVSt9basic_iosIcSt11char_traitsIcEE+16, 112(%rsp)
 2497      70000000 
 2497      00
 2498 02af E8000000 		call	_ZNSt8ios_baseD2Ev
 2498      00
 2499 02b4 4889DF   		movq	%rbx, %rdi
 2500              	.LEHB82:
 2501 02b7 E8000000 		call	_Unwind_Resume
 2501      00
 2502              	.LEHE82:
 2503              	.L231:
 2504 02bc 8B50F8   		movl	-8(%rax), %edx
 2505 02bf 8D4AFF   		leal	-1(%rdx), %ecx
 2506 02c2 8948F8   		movl	%ecx, -8(%rax)
 2507 02c5 89D0     		movl	%edx, %eax
 2508 02c7 E97AFFFF 		jmp	.L232
 2508      FF
 2509              	.L242:
 2510 02cc 488D7C24 		leaq	24(%rsp), %rdi
 2510      18
 2511 02d1 4889C3   		movq	%rax, %rbx
 2512 02d4 E8000000 		call	_ZNSt15basic_stringbufIcSt11char_traitsIcESaIcEED1Ev
 2512      00
 2513 02d9 48C74424 		movq	$_ZTCN8UnitTest15MemoryOutStreamE0_So+24, 16(%rsp)
 2513      10000000 
 2513      00
 2514 02e2 EBBD     		jmp	.L227
 2515              	.L236:
 2516 02e4 8B50F8   		movl	-8(%rax), %edx
 2517 02e7 8D4AFF   		leal	-1(%rdx), %ecx
 2518 02ea 8948F8   		movl	%ecx, -8(%rax)
 2519 02ed 89D0     		movl	%edx, %eax
 2520 02ef EB81     		jmp	.L237
 2521              		.cfi_endproc
 2522              	.LFE1170:
 2523              		.section	.gcc_except_table
 2524              	.LLSDA1170:
 2525 01d1 FF       		.byte	0xff
 2526 01d2 FF       		.byte	0xff
 2527 01d3 01       		.byte	0x1
 2528 01d4 21       		.uleb128 .LLSDACSE1170-.LLSDACSB1170
 2529              	.LLSDACSB1170:
 2530 01d5 9601     		.uleb128 .LEHB77-.LFB1170
 2531 01d7 05       		.uleb128 .LEHE77-.LEHB77
 2532 01d8 9E05     		.uleb128 .L241-.LFB1170
 2533 01da 00       		.uleb128 0
 2534 01db A302     		.uleb128 .LEHB78-.LFB1170
 2535 01dd 05       		.uleb128 .LEHE78-.LEHB78
 2536 01de CC05     		.uleb128 .L242-.LFB1170
 2537 01e0 00       		.uleb128 0
 2538 01e1 D802     		.uleb128 .LEHB79-.LFB1170
 2539 01e3 49       		.uleb128 .LEHE79-.LEHB79
 2540 01e4 8905     		.uleb128 .L240-.LFB1170
 2541 01e6 00       		.uleb128 0
 2542 01e7 9C04     		.uleb128 .LEHB80-.LFB1170
 2543 01e9 05       		.uleb128 .LEHE80-.LEHB80
 2544 01ea 00       		.uleb128 0
 2545 01eb 00       		.uleb128 0
 2546 01ec 9905     		.uleb128 .LEHB81-.LFB1170
 2547 01ee 05       		.uleb128 .LEHE81-.LEHB81
 2548 01ef 00       		.uleb128 0
 2549 01f0 00       		.uleb128 0
 2550 01f1 B705     		.uleb128 .LEHB82-.LFB1170
 2551 01f3 05       		.uleb128 .LEHE82-.LEHB82
 2552 01f4 00       		.uleb128 0
 2553 01f5 00       		.uleb128 0
 2554              	.LLSDACSE1170:
 2555              		.section	.text._ZN8UnitTest10CheckEqualImjEEvRNS_11TestResultsERKT_RKT0_RKNS_11TestDetailsE,"axG",
 2557              		.section	.rodata.str1.8
 2558              		.align 8
 2559              	.LC5:
 2560 00b0 556E6861 		.string	"Unhandled exception in CHECK_EQUAL(4UL, queue.capacity)"
 2560      6E646C65 
 2560      64206578 
 2560      63657074 
 2560      696F6E20 
 2561              		.align 8
 2562              	.LC6:
 2563 00e8 556E6861 		.string	"Unhandled exception in CHECK_EQUAL(0UL, queue.putIndex)"
 2563      6E646C65 
 2563      64206578 
 2563      63657074 
 2563      696F6E20 
 2564              		.align 8
 2565              	.LC7:
 2566 0120 556E6861 		.string	"Unhandled exception in CHECK_EQUAL(0UL, queue.takeIndex)"
 2566      6E646C65 
 2566      64206578 
 2566      63657074 
 2566      696F6E20 
 2567 0159 00000000 		.align 8
 2567      000000
 2568              	.LC8:
 2569 0160 556E6861 		.string	"Unhandled exception in CHECK_EQUAL(0UL, queue.numItems)"
 2569      6E646C65 
 2569      64206578 
 2569      63657074 
 2569      696F6E20 
 2570              		.align 8
 2571              	.LC9:
 2572 0198 556E6861 		.string	"Unhandled exception in CHECK_EQUAL(1UL, deref(queue.itemArray[0]))"
 2572      6E646C65 
 2572      64206578 
 2572      63657074 
 2572      696F6E20 
 2573 01db 00000000 		.align 8
 2573      00
 2574              	.LC10:
 2575 01e0 556E6861 		.string	"Unhandled exception in CHECK_EQUAL(2UL, deref(queue.itemArray[1]))"
 2575      6E646C65 
 2575      64206578 
 2575      63657074 
 2575      696F6E20 
 2576 0223 00000000 		.align 8
 2576      00
 2577              	.LC11:
 2578 0228 556E6861 		.string	"Unhandled exception in CHECK_EQUAL(3UL, deref(queue.itemArray[2]))"
 2578      6E646C65 
 2578      64206578 
 2578      63657074 
 2578      696F6E20 
 2579 026b 00000000 		.align 8
 2579      00
 2580              	.LC12:
 2581 0270 556E6861 		.string	"Unhandled exception in CHECK_EQUAL(4UL, deref(queue.itemArray[3]))"
 2581      6E646C65 
 2581      64206578 
 2581      63657074 
 2581      696F6E20 
 2582              		.text
 2583 0b1d 90       		.align 2
 2584 0b1e 6690     		.p2align 4,,15
 2585              		.globl	_ZNK18TestQueue_testInit7RunImplEv
 2587              	_ZNK18TestQueue_testInit7RunImplEv:
 2588              	.LFB1107:
 2589              		.cfi_startproc
 2590              		.cfi_personality 0x3,__gxx_personality_v0
 2591              		.cfi_lsda 0x3,.LLSDA1107
 2592 0b20 53       		pushq	%rbx
 2593              		.cfi_def_cfa_offset 16
 2594              		.cfi_offset 3, -16
 2595 0b21 B9000000 		movl	$destroyInt, %ecx
 2595      00
 2596 0b26 BA000000 		movl	$createInt, %edx
 2596      00
 2597 0b2b BE040000 		movl	$4, %esi
 2597      00
 2598 0b30 4883C480 		addq	$-128, %rsp
 2599              		.cfi_def_cfa_offset 144
 2600 0b34 C7050000 		movl	$1, _ZL7m_count(%rip)
 2600      00000100 
 2600      0000
 2601 0b3e 488D7C24 		leaq	64(%rsp), %rdi
 2601      40
 2602              	.LEHB83:
 2603 0b43 E8000000 		call	queueInit
 2603      00
 2604              	.LEHE83:
 2605 0b48 8944240C 		movl	%eax, 12(%rsp)
 2606              	.LEHB84:
 2607 0b4c E8000000 		call	_ZN8UnitTest11CurrentTest7DetailsEv
 2607      00
 2608 0b51 488D5C24 		leaq	32(%rsp), %rbx
 2608      20
 2609 0b56 488B30   		movq	(%rax), %rsi
 2610 0b59 BA3B0000 		movl	$59, %edx
 2610      00
 2611 0b5e 4889DF   		movq	%rbx, %rdi
 2612 0b61 E8000000 		call	_ZN8UnitTest11TestDetailsC1ERKS0_i
 2612      00
 2613 0b66 C7442410 		movl	$0, 16(%rsp)
 2613      00000000 
 2614 0b6e E8000000 		call	_ZN8UnitTest11CurrentTest7ResultsEv
 2614      00
 2615 0b73 488B38   		movq	(%rax), %rdi
 2616 0b76 488D5424 		leaq	12(%rsp), %rdx
 2616      0C
 2617 0b7b 488D7424 		leaq	16(%rsp), %rsi
 2617      10
 2618 0b80 4889D9   		movq	%rbx, %rcx
 2619 0b83 E8000000 		call	_ZN8UnitTest10CheckEqualI9USBStatusS1_EEvRNS_11TestResultsERKT_RKT0_RKNS_11TestDetailsE
 2619      00
 2620              	.LEHE84:
 2621              	.L251:
 2622              	.LEHB85:
 2623 0b88 E8000000 		call	_ZN8UnitTest11CurrentTest7DetailsEv
 2623      00
 2624 0b8d 488B30   		movq	(%rax), %rsi
 2625 0b90 BA3E0000 		movl	$62, %edx
 2625      00
 2626 0b95 4889DF   		movq	%rbx, %rdi
 2627 0b98 E8000000 		call	_ZN8UnitTest11TestDetailsC1ERKS0_i
 2627      00
 2628 0b9d 48C74424 		movq	$4, 16(%rsp)
 2628      10040000 
 2628      00
 2629 0ba6 E8000000 		call	_ZN8UnitTest11CurrentTest7ResultsEv
 2629      00
 2630 0bab 488B38   		movq	(%rax), %rdi
 2631 0bae 488D5424 		leaq	72(%rsp), %rdx
 2631      48
 2632 0bb3 488D7424 		leaq	16(%rsp), %rsi
 2632      10
 2633 0bb8 4889D9   		movq	%rbx, %rcx
 2634 0bbb E8000000 		call	_ZN8UnitTest10CheckEqualImmEEvRNS_11TestResultsERKT_RKT0_RKNS_11TestDetailsE
 2634      00
 2635              	.LEHE85:
 2636              	.L254:
 2637              	.LEHB86:
 2638 0bc0 E8000000 		call	_ZN8UnitTest11CurrentTest7DetailsEv
 2638      00
 2639 0bc5 488B30   		movq	(%rax), %rsi
 2640 0bc8 BA3F0000 		movl	$63, %edx
 2640      00
 2641 0bcd 4889DF   		movq	%rbx, %rdi
 2642 0bd0 E8000000 		call	_ZN8UnitTest11TestDetailsC1ERKS0_i
 2642      00
 2643 0bd5 48C74424 		movq	$0, 16(%rsp)
 2643      10000000 
 2643      00
 2644 0bde E8000000 		call	_ZN8UnitTest11CurrentTest7ResultsEv
 2644      00
 2645 0be3 488B38   		movq	(%rax), %rdi
 2646 0be6 488D5424 		leaq	80(%rsp), %rdx
 2646      50
 2647 0beb 488D7424 		leaq	16(%rsp), %rsi
 2647      10
 2648 0bf0 4889D9   		movq	%rbx, %rcx
 2649 0bf3 E8000000 		call	_ZN8UnitTest10CheckEqualImmEEvRNS_11TestResultsERKT_RKT0_RKNS_11TestDetailsE
 2649      00
 2650              	.LEHE86:
 2651              	.L257:
 2652              	.LEHB87:
 2653 0bf8 E8000000 		call	_ZN8UnitTest11CurrentTest7DetailsEv
 2653      00
 2654 0bfd 488B30   		movq	(%rax), %rsi
 2655 0c00 BA400000 		movl	$64, %edx
 2655      00
 2656 0c05 4889DF   		movq	%rbx, %rdi
 2657 0c08 E8000000 		call	_ZN8UnitTest11TestDetailsC1ERKS0_i
 2657      00
 2658 0c0d 48C74424 		movq	$0, 16(%rsp)
 2658      10000000 
 2658      00
 2659 0c16 E8000000 		call	_ZN8UnitTest11CurrentTest7ResultsEv
 2659      00
 2660 0c1b 488B38   		movq	(%rax), %rdi
 2661 0c1e 488D5424 		leaq	88(%rsp), %rdx
 2661      58
 2662 0c23 488D7424 		leaq	16(%rsp), %rsi
 2662      10
 2663 0c28 4889D9   		movq	%rbx, %rcx
 2664 0c2b E8000000 		call	_ZN8UnitTest10CheckEqualImmEEvRNS_11TestResultsERKT_RKT0_RKNS_11TestDetailsE
 2664      00
 2665              	.LEHE87:
 2666              	.L260:
 2667              	.LEHB88:
 2668 0c30 E8000000 		call	_ZN8UnitTest11CurrentTest7DetailsEv
 2668      00
 2669 0c35 488B30   		movq	(%rax), %rsi
 2670 0c38 BA410000 		movl	$65, %edx
 2670      00
 2671 0c3d 4889DF   		movq	%rbx, %rdi
 2672 0c40 E8000000 		call	_ZN8UnitTest11TestDetailsC1ERKS0_i
 2672      00
 2673 0c45 48C74424 		movq	$0, 16(%rsp)
 2673      10000000 
 2673      00
 2674 0c4e E8000000 		call	_ZN8UnitTest11CurrentTest7ResultsEv
 2674      00
 2675 0c53 488B38   		movq	(%rax), %rdi
 2676 0c56 488D5424 		leaq	96(%rsp), %rdx
 2676      60
 2677 0c5b 488D7424 		leaq	16(%rsp), %rsi
 2677      10
 2678 0c60 4889D9   		movq	%rbx, %rcx
 2679 0c63 E8000000 		call	_ZN8UnitTest10CheckEqualImmEEvRNS_11TestResultsERKT_RKT0_RKNS_11TestDetailsE
 2679      00
 2680              	.LEHE88:
 2681              	.L263:
 2682              	.LEHB89:
 2683 0c68 E8000000 		call	_ZN8UnitTest11CurrentTest7DetailsEv
 2683      00
 2684 0c6d 488B30   		movq	(%rax), %rsi
 2685 0c70 BA440000 		movl	$68, %edx
 2685      00
 2686 0c75 4889DF   		movq	%rbx, %rdi
 2687 0c78 E8000000 		call	_ZN8UnitTest11TestDetailsC1ERKS0_i
 2687      00
 2688 0c7d 488B4424 		movq	64(%rsp), %rax
 2688      40
 2689 0c82 488B00   		movq	(%rax), %rax
 2690 0c85 8B00     		movl	(%rax), %eax
 2691 0c87 48C74424 		movq	$1, 16(%rsp)
 2691      10010000 
 2691      00
 2692 0c90 890424   		movl	%eax, (%rsp)
 2693 0c93 E8000000 		call	_ZN8UnitTest11CurrentTest7ResultsEv
 2693      00
 2694 0c98 488B38   		movq	(%rax), %rdi
 2695 0c9b 488D7424 		leaq	16(%rsp), %rsi
 2695      10
 2696 0ca0 4889D9   		movq	%rbx, %rcx
 2697 0ca3 4889E2   		movq	%rsp, %rdx
 2698 0ca6 E8000000 		call	_ZN8UnitTest10CheckEqualImjEEvRNS_11TestResultsERKT_RKT0_RKNS_11TestDetailsE
 2698      00
 2699              	.LEHE89:
 2700              	.L266:
 2701              	.LEHB90:
 2702 0cab E8000000 		call	_ZN8UnitTest11CurrentTest7DetailsEv
 2702      00
 2703 0cb0 488B30   		movq	(%rax), %rsi
 2704 0cb3 BA450000 		movl	$69, %edx
 2704      00
 2705 0cb8 4889DF   		movq	%rbx, %rdi
 2706 0cbb E8000000 		call	_ZN8UnitTest11TestDetailsC1ERKS0_i
 2706      00
 2707 0cc0 488B4424 		movq	64(%rsp), %rax
 2707      40
 2708 0cc5 488B4008 		movq	8(%rax), %rax
 2709 0cc9 8B00     		movl	(%rax), %eax
 2710 0ccb 48C74424 		movq	$2, 16(%rsp)
 2710      10020000 
 2710      00
 2711 0cd4 890424   		movl	%eax, (%rsp)
 2712 0cd7 E8000000 		call	_ZN8UnitTest11CurrentTest7ResultsEv
 2712      00
 2713 0cdc 488B38   		movq	(%rax), %rdi
 2714 0cdf 488D7424 		leaq	16(%rsp), %rsi
 2714      10
 2715 0ce4 4889D9   		movq	%rbx, %rcx
 2716 0ce7 4889E2   		movq	%rsp, %rdx
 2717 0cea E8000000 		call	_ZN8UnitTest10CheckEqualImjEEvRNS_11TestResultsERKT_RKT0_RKNS_11TestDetailsE
 2717      00
 2718              	.LEHE90:
 2719              	.L269:
 2720              	.LEHB91:
 2721 0cef E8000000 		call	_ZN8UnitTest11CurrentTest7DetailsEv
 2721      00
 2722 0cf4 488B30   		movq	(%rax), %rsi
 2723 0cf7 BA460000 		movl	$70, %edx
 2723      00
 2724 0cfc 4889DF   		movq	%rbx, %rdi
 2725 0cff E8000000 		call	_ZN8UnitTest11TestDetailsC1ERKS0_i
 2725      00
 2726 0d04 488B4424 		movq	64(%rsp), %rax
 2726      40
 2727 0d09 488B4010 		movq	16(%rax), %rax
 2728 0d0d 8B00     		movl	(%rax), %eax
 2729 0d0f 48C74424 		movq	$3, 16(%rsp)
 2729      10030000 
 2729      00
 2730 0d18 890424   		movl	%eax, (%rsp)
 2731 0d1b E8000000 		call	_ZN8UnitTest11CurrentTest7ResultsEv
 2731      00
 2732 0d20 488B38   		movq	(%rax), %rdi
 2733 0d23 488D7424 		leaq	16(%rsp), %rsi
 2733      10
 2734 0d28 4889D9   		movq	%rbx, %rcx
 2735 0d2b 4889E2   		movq	%rsp, %rdx
 2736 0d2e E8000000 		call	_ZN8UnitTest10CheckEqualImjEEvRNS_11TestResultsERKT_RKT0_RKNS_11TestDetailsE
 2736      00
 2737              	.LEHE91:
 2738              	.L272:
 2739              	.LEHB92:
 2740 0d33 E8000000 		call	_ZN8UnitTest11CurrentTest7DetailsEv
 2740      00
 2741 0d38 488B30   		movq	(%rax), %rsi
 2742 0d3b BA470000 		movl	$71, %edx
 2742      00
 2743 0d40 4889DF   		movq	%rbx, %rdi
 2744 0d43 E8000000 		call	_ZN8UnitTest11TestDetailsC1ERKS0_i
 2744      00
 2745 0d48 488B4424 		movq	64(%rsp), %rax
 2745      40
 2746 0d4d 488B4018 		movq	24(%rax), %rax
 2747 0d51 8B00     		movl	(%rax), %eax
 2748 0d53 48C74424 		movq	$4, 16(%rsp)
 2748      10040000 
 2748      00
 2749 0d5c 890424   		movl	%eax, (%rsp)
 2750 0d5f E8000000 		call	_ZN8UnitTest11CurrentTest7ResultsEv
 2750      00
 2751 0d64 488B38   		movq	(%rax), %rdi
 2752 0d67 488D7424 		leaq	16(%rsp), %rsi
 2752      10
 2753 0d6c 4889D9   		movq	%rbx, %rcx
 2754 0d6f 4889E2   		movq	%rsp, %rdx
 2755 0d72 E8000000 		call	_ZN8UnitTest10CheckEqualImjEEvRNS_11TestResultsERKT_RKT0_RKNS_11TestDetailsE
 2755      00
 2756              	.LEHE92:
 2757              	.L275:
 2758 0d77 488D7C24 		leaq	64(%rsp), %rdi
 2758      40
 2759              	.LEHB93:
 2760 0d7c E8000000 		call	queueDestroy
 2760      00
 2761              	.LEHE93:
 2762 0d81 4883EC80 		subq	$-128, %rsp
 2763              		.cfi_remember_state
 2764              		.cfi_def_cfa_offset 16
 2765 0d85 5B       		popq	%rbx
 2766              		.cfi_def_cfa_offset 8
 2767 0d86 C3       		ret
 2768              	.L276:
 2769              		.cfi_restore_state
 2770 0d87 4889C7   		movq	%rax, %rdi
 2771 0d8a E8000000 		call	__cxa_begin_catch
 2771      00
 2772              	.LEHB94:
 2773 0d8f E8000000 		call	_ZN8UnitTest11CurrentTest7DetailsEv
 2773      00
 2774 0d94 488D5C24 		leaq	32(%rsp), %rbx
 2774      20
 2775 0d99 488B30   		movq	(%rax), %rsi
 2776 0d9c BA3B0000 		movl	$59, %edx
 2776      00
 2777 0da1 4889DF   		movq	%rbx, %rdi
 2778 0da4 E8000000 		call	_ZN8UnitTest11TestDetailsC1ERKS0_i
 2778      00
 2779 0da9 E8000000 		call	_ZN8UnitTest11CurrentTest7ResultsEv
 2779      00
 2780 0dae 488B38   		movq	(%rax), %rdi
 2781 0db1 BA000000 		movl	$.LC4, %edx
 2781      00
 2782 0db6 4889DE   		movq	%rbx, %rsi
 2783 0db9 E8000000 		call	_ZN8UnitTest11TestResults13OnTestFailureERKNS_11TestDetailsEPKc
 2783      00
 2784              	.LEHE94:
 2785              	.LEHB95:
 2786 0dbe E8000000 		call	__cxa_end_catch
 2786      00
 2787              	.LEHE95:
 2788 0dc3 E9C0FDFF 		jmp	.L251
 2788      FF
 2789              	.L292:
 2790 0dc8 4889C7   		movq	%rax, %rdi
 2791 0dcb 0F1F4400 		.p2align 4,,5
 2791      00
 2792 0dd0 E8000000 		call	__cxa_begin_catch
 2792      00
 2793              		.p2align 4,,5
 2794              	.LEHB96:
 2795 0dd5 E8000000 		call	_ZN8UnitTest11CurrentTest7DetailsEv
 2795      00
 2796 0dda 488B30   		movq	(%rax), %rsi
 2797 0ddd BA470000 		movl	$71, %edx
 2797      00
 2798 0de2 4889DF   		movq	%rbx, %rdi
 2799 0de5 E8000000 		call	_ZN8UnitTest11TestDetailsC1ERKS0_i
 2799      00
 2800 0dea E8000000 		call	_ZN8UnitTest11CurrentTest7ResultsEv
 2800      00
 2801 0def 488B38   		movq	(%rax), %rdi
 2802 0df2 BA000000 		movl	$.LC12, %edx
 2802      00
 2803 0df7 4889DE   		movq	%rbx, %rsi
 2804 0dfa E8000000 		call	_ZN8UnitTest11TestResults13OnTestFailureERKNS_11TestDetailsEPKc
 2804      00
 2805              	.LEHE96:
 2806              	.LEHB97:
 2807 0dff E8000000 		call	__cxa_end_catch
 2807      00
 2808              	.LEHE97:
 2809 0e04 E96EFFFF 		jmp	.L275
 2809      FF
 2810              	.L284:
 2811 0e09 4889C7   		movq	%rax, %rdi
 2812 0e0c 0F1F4000 		.p2align 4,,5
 2813 0e10 E8000000 		call	__cxa_begin_catch
 2813      00
 2814              		.p2align 4,,5
 2815              	.LEHB98:
 2816 0e15 E8000000 		call	_ZN8UnitTest11CurrentTest7DetailsEv
 2816      00
 2817 0e1a 488B30   		movq	(%rax), %rsi
 2818 0e1d BA410000 		movl	$65, %edx
 2818      00
 2819 0e22 4889DF   		movq	%rbx, %rdi
 2820 0e25 E8000000 		call	_ZN8UnitTest11TestDetailsC1ERKS0_i
 2820      00
 2821 0e2a E8000000 		call	_ZN8UnitTest11CurrentTest7ResultsEv
 2821      00
 2822 0e2f 488B38   		movq	(%rax), %rdi
 2823 0e32 BA000000 		movl	$.LC8, %edx
 2823      00
 2824 0e37 4889DE   		movq	%rbx, %rsi
 2825 0e3a E8000000 		call	_ZN8UnitTest11TestResults13OnTestFailureERKNS_11TestDetailsEPKc
 2825      00
 2826              	.LEHE98:
 2827              	.LEHB99:
 2828 0e3f E8000000 		call	__cxa_end_catch
 2828      00
 2829              	.LEHE99:
 2830 0e44 E91FFEFF 		jmp	.L263
 2830      FF
 2831              	.L288:
 2832 0e49 4889C7   		movq	%rax, %rdi
 2833 0e4c 0F1F4000 		.p2align 4,,5
 2834 0e50 E8000000 		call	__cxa_begin_catch
 2834      00
 2835              		.p2align 4,,5
 2836              	.LEHB100:
 2837 0e55 E8000000 		call	_ZN8UnitTest11CurrentTest7DetailsEv
 2837      00
 2838 0e5a 488B30   		movq	(%rax), %rsi
 2839 0e5d BA450000 		movl	$69, %edx
 2839      00
 2840 0e62 4889DF   		movq	%rbx, %rdi
 2841 0e65 E8000000 		call	_ZN8UnitTest11TestDetailsC1ERKS0_i
 2841      00
 2842 0e6a E8000000 		call	_ZN8UnitTest11CurrentTest7ResultsEv
 2842      00
 2843 0e6f 488B38   		movq	(%rax), %rdi
 2844 0e72 BA000000 		movl	$.LC10, %edx
 2844      00
 2845 0e77 4889DE   		movq	%rbx, %rsi
 2846 0e7a E8000000 		call	_ZN8UnitTest11TestResults13OnTestFailureERKNS_11TestDetailsEPKc
 2846      00
 2847              	.LEHE100:
 2848              	.LEHB101:
 2849 0e7f E8000000 		call	__cxa_end_catch
 2849      00
 2850              	.LEHE101:
 2851 0e84 E966FEFF 		jmp	.L269
 2851      FF
 2852              	.L280:
 2853 0e89 4889C7   		movq	%rax, %rdi
 2854 0e8c 0F1F4000 		.p2align 4,,5
 2855 0e90 E8000000 		call	__cxa_begin_catch
 2855      00
 2856              		.p2align 4,,5
 2857              	.LEHB102:
 2858 0e95 E8000000 		call	_ZN8UnitTest11CurrentTest7DetailsEv
 2858      00
 2859 0e9a 488B30   		movq	(%rax), %rsi
 2860 0e9d BA3F0000 		movl	$63, %edx
 2860      00
 2861 0ea2 4889DF   		movq	%rbx, %rdi
 2862 0ea5 E8000000 		call	_ZN8UnitTest11TestDetailsC1ERKS0_i
 2862      00
 2863 0eaa E8000000 		call	_ZN8UnitTest11CurrentTest7ResultsEv
 2863      00
 2864 0eaf 488B38   		movq	(%rax), %rdi
 2865 0eb2 BA000000 		movl	$.LC6, %edx
 2865      00
 2866 0eb7 4889DE   		movq	%rbx, %rsi
 2867 0eba E8000000 		call	_ZN8UnitTest11TestResults13OnTestFailureERKNS_11TestDetailsEPKc
 2867      00
 2868              	.LEHE102:
 2869              	.LEHB103:
 2870 0ebf E8000000 		call	__cxa_end_catch
 2870      00
 2871              	.LEHE103:
 2872 0ec4 E92FFDFF 		jmp	.L257
 2872      FF
 2873              	.L290:
 2874 0ec9 4889C7   		movq	%rax, %rdi
 2875 0ecc 0F1F4000 		.p2align 4,,5
 2876 0ed0 E8000000 		call	__cxa_begin_catch
 2876      00
 2877              		.p2align 4,,5
 2878              	.LEHB104:
 2879 0ed5 E8000000 		call	_ZN8UnitTest11CurrentTest7DetailsEv
 2879      00
 2880 0eda 488B30   		movq	(%rax), %rsi
 2881 0edd BA460000 		movl	$70, %edx
 2881      00
 2882 0ee2 4889DF   		movq	%rbx, %rdi
 2883 0ee5 E8000000 		call	_ZN8UnitTest11TestDetailsC1ERKS0_i
 2883      00
 2884 0eea E8000000 		call	_ZN8UnitTest11CurrentTest7ResultsEv
 2884      00
 2885 0eef 488B38   		movq	(%rax), %rdi
 2886 0ef2 BA000000 		movl	$.LC11, %edx
 2886      00
 2887 0ef7 4889DE   		movq	%rbx, %rsi
 2888 0efa E8000000 		call	_ZN8UnitTest11TestResults13OnTestFailureERKNS_11TestDetailsEPKc
 2888      00
 2889              	.LEHE104:
 2890              	.LEHB105:
 2891 0eff E8000000 		call	__cxa_end_catch
 2891      00
 2892              	.LEHE105:
 2893 0f04 E92AFEFF 		jmp	.L272
 2893      FF
 2894              	.L282:
 2895 0f09 4889C7   		movq	%rax, %rdi
 2896 0f0c 0F1F4000 		.p2align 4,,5
 2897 0f10 E8000000 		call	__cxa_begin_catch
 2897      00
 2898              		.p2align 4,,5
 2899              	.LEHB106:
 2900 0f15 E8000000 		call	_ZN8UnitTest11CurrentTest7DetailsEv
 2900      00
 2901 0f1a 488B30   		movq	(%rax), %rsi
 2902 0f1d BA400000 		movl	$64, %edx
 2902      00
 2903 0f22 4889DF   		movq	%rbx, %rdi
 2904 0f25 E8000000 		call	_ZN8UnitTest11TestDetailsC1ERKS0_i
 2904      00
 2905 0f2a E8000000 		call	_ZN8UnitTest11CurrentTest7ResultsEv
 2905      00
 2906 0f2f 488B38   		movq	(%rax), %rdi
 2907 0f32 BA000000 		movl	$.LC7, %edx
 2907      00
 2908 0f37 4889DE   		movq	%rbx, %rsi
 2909 0f3a E8000000 		call	_ZN8UnitTest11TestResults13OnTestFailureERKNS_11TestDetailsEPKc
 2909      00
 2910              	.LEHE106:
 2911              	.LEHB107:
 2912 0f3f E8000000 		call	__cxa_end_catch
 2912      00
 2913              	.LEHE107:
 2914 0f44 E9E7FCFF 		jmp	.L260
 2914      FF
 2915              	.L286:
 2916 0f49 4889C7   		movq	%rax, %rdi
 2917 0f4c 0F1F4000 		.p2align 4,,5
 2918 0f50 E8000000 		call	__cxa_begin_catch
 2918      00
 2919              		.p2align 4,,5
 2920              	.LEHB108:
 2921 0f55 E8000000 		call	_ZN8UnitTest11CurrentTest7DetailsEv
 2921      00
 2922 0f5a 488B30   		movq	(%rax), %rsi
 2923 0f5d BA440000 		movl	$68, %edx
 2923      00
 2924 0f62 4889DF   		movq	%rbx, %rdi
 2925 0f65 E8000000 		call	_ZN8UnitTest11TestDetailsC1ERKS0_i
 2925      00
 2926 0f6a E8000000 		call	_ZN8UnitTest11CurrentTest7ResultsEv
 2926      00
 2927 0f6f 488B38   		movq	(%rax), %rdi
 2928 0f72 BA000000 		movl	$.LC9, %edx
 2928      00
 2929 0f77 4889DE   		movq	%rbx, %rsi
 2930 0f7a E8000000 		call	_ZN8UnitTest11TestResults13OnTestFailureERKNS_11TestDetailsEPKc
 2930      00
 2931              	.LEHE108:
 2932              	.LEHB109:
 2933 0f7f E8000000 		call	__cxa_end_catch
 2933      00
 2934              	.LEHE109:
 2935 0f84 E922FDFF 		jmp	.L266
 2935      FF
 2936              	.L278:
 2937 0f89 4889C7   		movq	%rax, %rdi
 2938 0f8c 0F1F4000 		.p2align 4,,5
 2939 0f90 E8000000 		call	__cxa_begin_catch
 2939      00
 2940              		.p2align 4,,5
 2941              	.LEHB110:
 2942 0f95 E8000000 		call	_ZN8UnitTest11CurrentTest7DetailsEv
 2942      00
 2943 0f9a 488B30   		movq	(%rax), %rsi
 2944 0f9d BA3E0000 		movl	$62, %edx
 2944      00
 2945 0fa2 4889DF   		movq	%rbx, %rdi
 2946 0fa5 E8000000 		call	_ZN8UnitTest11TestDetailsC1ERKS0_i
 2946      00
 2947 0faa E8000000 		call	_ZN8UnitTest11CurrentTest7ResultsEv
 2947      00
 2948 0faf 488B38   		movq	(%rax), %rdi
 2949 0fb2 BA000000 		movl	$.LC5, %edx
 2949      00
 2950 0fb7 4889DE   		movq	%rbx, %rsi
 2951 0fba E8000000 		call	_ZN8UnitTest11TestResults13OnTestFailureERKNS_11TestDetailsEPKc
 2951      00
 2952              	.LEHE110:
 2953              	.LEHB111:
 2954 0fbf E8000000 		call	__cxa_end_catch
 2954      00
 2955              	.LEHE111:
 2956 0fc4 E9F7FBFF 		jmp	.L254
 2956      FF
 2957              	.L277:
 2958 0fc9 4889C3   		movq	%rax, %rbx
 2959 0fcc 0F1F4000 		.p2align 4,,5
 2960 0fd0 E8000000 		call	__cxa_end_catch
 2960      00
 2961 0fd5 4889DF   		movq	%rbx, %rdi
 2962              	.LEHB112:
 2963 0fd8 E8000000 		call	_Unwind_Resume
 2963      00
 2964              	.LEHE112:
 2965              	.L293:
 2966 0fdd 4889C3   		movq	%rax, %rbx
 2967 0fe0 E8000000 		call	__cxa_end_catch
 2967      00
 2968 0fe5 4889DF   		movq	%rbx, %rdi
 2969              	.LEHB113:
 2970 0fe8 E8000000 		call	_Unwind_Resume
 2970      00
 2971              	.LEHE113:
 2972              	.L291:
 2973 0fed 4889C3   		movq	%rax, %rbx
 2974 0ff0 E8000000 		call	__cxa_end_catch
 2974      00
 2975 0ff5 4889DF   		movq	%rbx, %rdi
 2976              	.LEHB114:
 2977 0ff8 E8000000 		call	_Unwind_Resume
 2977      00
 2978              	.LEHE114:
 2979              	.L289:
 2980 0ffd 4889C3   		movq	%rax, %rbx
 2981 1000 E8000000 		call	__cxa_end_catch
 2981      00
 2982 1005 4889DF   		movq	%rbx, %rdi
 2983              	.LEHB115:
 2984 1008 E8000000 		call	_Unwind_Resume
 2984      00
 2985              	.LEHE115:
 2986              	.L287:
 2987 100d 4889C3   		movq	%rax, %rbx
 2988 1010 E8000000 		call	__cxa_end_catch
 2988      00
 2989 1015 4889DF   		movq	%rbx, %rdi
 2990              	.LEHB116:
 2991 1018 E8000000 		call	_Unwind_Resume
 2991      00
 2992              	.LEHE116:
 2993              	.L285:
 2994 101d 4889C3   		movq	%rax, %rbx
 2995 1020 E8000000 		call	__cxa_end_catch
 2995      00
 2996 1025 4889DF   		movq	%rbx, %rdi
 2997              	.LEHB117:
 2998 1028 E8000000 		call	_Unwind_Resume
 2998      00
 2999              	.LEHE117:
 3000              	.L283:
 3001 102d 4889C3   		movq	%rax, %rbx
 3002 1030 E8000000 		call	__cxa_end_catch
 3002      00
 3003 1035 4889DF   		movq	%rbx, %rdi
 3004              	.LEHB118:
 3005 1038 E8000000 		call	_Unwind_Resume
 3005      00
 3006              	.LEHE118:
 3007              	.L281:
 3008 103d 4889C3   		movq	%rax, %rbx
 3009 1040 E8000000 		call	__cxa_end_catch
 3009      00
 3010 1045 4889DF   		movq	%rbx, %rdi
 3011              	.LEHB119:
 3012 1048 E8000000 		call	_Unwind_Resume
 3012      00
 3013              	.LEHE119:
 3014              	.L279:
 3015 104d 4889C3   		movq	%rax, %rbx
 3016 1050 E8000000 		call	__cxa_end_catch
 3016      00
 3017 1055 4889DF   		movq	%rbx, %rdi
 3018              	.LEHB120:
 3019 1058 E8000000 		call	_Unwind_Resume
 3019      00
 3020              	.LEHE120:
 3021              		.cfi_endproc
 3022              	.LFE1107:
 3023              		.section	.gcc_except_table
 3024 01f6 0000     		.align 4
 3025              	.LLSDA1107:
 3026 01f8 FF       		.byte	0xff
 3027 01f9 03       		.byte	0x3
 3028 01fa D801     		.uleb128 .LLSDATT1107-.LLSDATTD1107
 3029              	.LLSDATTD1107:
 3030 01fc 01       		.byte	0x1
 3031 01fd CD01     		.uleb128 .LLSDACSE1107-.LLSDACSB1107
 3032              	.LLSDACSB1107:
 3033 01ff 23       		.uleb128 .LEHB83-.LFB1107
 3034 0200 05       		.uleb128 .LEHE83-.LEHB83
 3035 0201 00       		.uleb128 0
 3036 0202 00       		.uleb128 0
 3037 0203 2C       		.uleb128 .LEHB84-.LFB1107
 3038 0204 3C       		.uleb128 .LEHE84-.LEHB84
 3039 0205 E704     		.uleb128 .L276-.LFB1107
 3040 0207 01       		.uleb128 0x1
 3041 0208 68       		.uleb128 .LEHB85-.LFB1107
 3042 0209 38       		.uleb128 .LEHE85-.LEHB85
 3043 020a E908     		.uleb128 .L278-.LFB1107
 3044 020c 01       		.uleb128 0x1
 3045 020d A001     		.uleb128 .LEHB86-.LFB1107
 3046 020f 38       		.uleb128 .LEHE86-.LEHB86
 3047 0210 E906     		.uleb128 .L280-.LFB1107
 3048 0212 01       		.uleb128 0x1
 3049 0213 D801     		.uleb128 .LEHB87-.LFB1107
 3050 0215 38       		.uleb128 .LEHE87-.LEHB87
 3051 0216 E907     		.uleb128 .L282-.LFB1107
 3052 0218 01       		.uleb128 0x1
 3053 0219 9002     		.uleb128 .LEHB88-.LFB1107
 3054 021b 38       		.uleb128 .LEHE88-.LEHB88
 3055 021c E905     		.uleb128 .L284-.LFB1107
 3056 021e 01       		.uleb128 0x1
 3057 021f C802     		.uleb128 .LEHB89-.LFB1107
 3058 0221 43       		.uleb128 .LEHE89-.LEHB89
 3059 0222 A908     		.uleb128 .L286-.LFB1107
 3060 0224 01       		.uleb128 0x1
 3061 0225 8B03     		.uleb128 .LEHB90-.LFB1107
 3062 0227 44       		.uleb128 .LEHE90-.LEHB90
 3063 0228 A906     		.uleb128 .L288-.LFB1107
 3064 022a 01       		.uleb128 0x1
 3065 022b CF03     		.uleb128 .LEHB91-.LFB1107
 3066 022d 44       		.uleb128 .LEHE91-.LEHB91
 3067 022e A907     		.uleb128 .L290-.LFB1107
 3068 0230 01       		.uleb128 0x1
 3069 0231 9304     		.uleb128 .LEHB92-.LFB1107
 3070 0233 44       		.uleb128 .LEHE92-.LEHB92
 3071 0234 A805     		.uleb128 .L292-.LFB1107
 3072 0236 01       		.uleb128 0x1
 3073 0237 DC04     		.uleb128 .LEHB93-.LFB1107
 3074 0239 05       		.uleb128 .LEHE93-.LEHB93
 3075 023a 00       		.uleb128 0
 3076 023b 00       		.uleb128 0
 3077 023c EF04     		.uleb128 .LEHB94-.LFB1107
 3078 023e 2F       		.uleb128 .LEHE94-.LEHB94
 3079 023f A909     		.uleb128 .L277-.LFB1107
 3080 0241 00       		.uleb128 0
 3081 0242 9E05     		.uleb128 .LEHB95-.LFB1107
 3082 0244 05       		.uleb128 .LEHE95-.LEHB95
 3083 0245 00       		.uleb128 0
 3084 0246 00       		.uleb128 0
 3085 0247 B505     		.uleb128 .LEHB96-.LFB1107
 3086 0249 2A       		.uleb128 .LEHE96-.LEHB96
 3087 024a BD09     		.uleb128 .L293-.LFB1107
 3088 024c 00       		.uleb128 0
 3089 024d DF05     		.uleb128 .LEHB97-.LFB1107
 3090 024f 05       		.uleb128 .LEHE97-.LEHB97
 3091 0250 00       		.uleb128 0
 3092 0251 00       		.uleb128 0
 3093 0252 F505     		.uleb128 .LEHB98-.LFB1107
 3094 0254 2A       		.uleb128 .LEHE98-.LEHB98
 3095 0255 FD09     		.uleb128 .L285-.LFB1107
 3096 0257 00       		.uleb128 0
 3097 0258 9F06     		.uleb128 .LEHB99-.LFB1107
 3098 025a 05       		.uleb128 .LEHE99-.LEHB99
 3099 025b 00       		.uleb128 0
 3100 025c 00       		.uleb128 0
 3101 025d B506     		.uleb128 .LEHB100-.LFB1107
 3102 025f 2A       		.uleb128 .LEHE100-.LEHB100
 3103 0260 DD09     		.uleb128 .L289-.LFB1107
 3104 0262 00       		.uleb128 0
 3105 0263 DF06     		.uleb128 .LEHB101-.LFB1107
 3106 0265 05       		.uleb128 .LEHE101-.LEHB101
 3107 0266 00       		.uleb128 0
 3108 0267 00       		.uleb128 0
 3109 0268 F506     		.uleb128 .LEHB102-.LFB1107
 3110 026a 2A       		.uleb128 .LEHE102-.LEHB102
 3111 026b 9D0A     		.uleb128 .L281-.LFB1107
 3112 026d 00       		.uleb128 0
 3113 026e 9F07     		.uleb128 .LEHB103-.LFB1107
 3114 0270 05       		.uleb128 .LEHE103-.LEHB103
 3115 0271 00       		.uleb128 0
 3116 0272 00       		.uleb128 0
 3117 0273 B507     		.uleb128 .LEHB104-.LFB1107
 3118 0275 2A       		.uleb128 .LEHE104-.LEHB104
 3119 0276 CD09     		.uleb128 .L291-.LFB1107
 3120 0278 00       		.uleb128 0
 3121 0279 DF07     		.uleb128 .LEHB105-.LFB1107
 3122 027b 05       		.uleb128 .LEHE105-.LEHB105
 3123 027c 00       		.uleb128 0
 3124 027d 00       		.uleb128 0
 3125 027e F507     		.uleb128 .LEHB106-.LFB1107
 3126 0280 2A       		.uleb128 .LEHE106-.LEHB106
 3127 0281 8D0A     		.uleb128 .L283-.LFB1107
 3128 0283 00       		.uleb128 0
 3129 0284 9F08     		.uleb128 .LEHB107-.LFB1107
 3130 0286 05       		.uleb128 .LEHE107-.LEHB107
 3131 0287 00       		.uleb128 0
 3132 0288 00       		.uleb128 0
 3133 0289 B508     		.uleb128 .LEHB108-.LFB1107
 3134 028b 2A       		.uleb128 .LEHE108-.LEHB108
 3135 028c ED09     		.uleb128 .L287-.LFB1107
 3136 028e 00       		.uleb128 0
 3137 028f DF08     		.uleb128 .LEHB109-.LFB1107
 3138 0291 05       		.uleb128 .LEHE109-.LEHB109
 3139 0292 00       		.uleb128 0
 3140 0293 00       		.uleb128 0
 3141 0294 F508     		.uleb128 .LEHB110-.LFB1107
 3142 0296 2A       		.uleb128 .LEHE110-.LEHB110
 3143 0297 AD0A     		.uleb128 .L279-.LFB1107
 3144 0299 00       		.uleb128 0
 3145 029a 9F09     		.uleb128 .LEHB111-.LFB1107
 3146 029c 05       		.uleb128 .LEHE111-.LEHB111
 3147 029d 00       		.uleb128 0
 3148 029e 00       		.uleb128 0
 3149 029f B809     		.uleb128 .LEHB112-.LFB1107
 3150 02a1 05       		.uleb128 .LEHE112-.LEHB112
 3151 02a2 00       		.uleb128 0
 3152 02a3 00       		.uleb128 0
 3153 02a4 C809     		.uleb128 .LEHB113-.LFB1107
 3154 02a6 05       		.uleb128 .LEHE113-.LEHB113
 3155 02a7 00       		.uleb128 0
 3156 02a8 00       		.uleb128 0
 3157 02a9 D809     		.uleb128 .LEHB114-.LFB1107
 3158 02ab 05       		.uleb128 .LEHE114-.LEHB114
 3159 02ac 00       		.uleb128 0
 3160 02ad 00       		.uleb128 0
 3161 02ae E809     		.uleb128 .LEHB115-.LFB1107
 3162 02b0 05       		.uleb128 .LEHE115-.LEHB115
 3163 02b1 00       		.uleb128 0
 3164 02b2 00       		.uleb128 0
 3165 02b3 F809     		.uleb128 .LEHB116-.LFB1107
 3166 02b5 05       		.uleb128 .LEHE116-.LEHB116
 3167 02b6 00       		.uleb128 0
 3168 02b7 00       		.uleb128 0
 3169 02b8 880A     		.uleb128 .LEHB117-.LFB1107
 3170 02ba 05       		.uleb128 .LEHE117-.LEHB117
 3171 02bb 00       		.uleb128 0
 3172 02bc 00       		.uleb128 0
 3173 02bd 980A     		.uleb128 .LEHB118-.LFB1107
 3174 02bf 05       		.uleb128 .LEHE118-.LEHB118
 3175 02c0 00       		.uleb128 0
 3176 02c1 00       		.uleb128 0
 3177 02c2 A80A     		.uleb128 .LEHB119-.LFB1107
 3178 02c4 05       		.uleb128 .LEHE119-.LEHB119
 3179 02c5 00       		.uleb128 0
 3180 02c6 00       		.uleb128 0
 3181 02c7 B80A     		.uleb128 .LEHB120-.LFB1107
 3182 02c9 05       		.uleb128 .LEHE120-.LEHB120
 3183 02ca 00       		.uleb128 0
 3184 02cb 00       		.uleb128 0
 3185              	.LLSDACSE1107:
 3186 02cc 01       		.byte	0x1
 3187 02cd 00       		.byte	0
 3188 02ce 0000     		.align 4
 3189 02d0 00000000 		.long	0
 3190              	
 3191              	.LLSDATT1107:
 3192              		.text
 3194              		.section	.rodata.str1.8
 3195 02b3 00000000 		.align 8
 3195      00
 3196              	.LC13:
 3197 02b8 556E6861 		.string	"Unhandled exception in CHECK_EQUAL(1UL, *item)"
 3197      6E646C65 
 3197      64206578 
 3197      63657074 
 3197      696F6E20 
 3198 02e7 00       		.align 8
 3199              	.LC14:
 3200 02e8 556E6861 		.string	"Unhandled exception in CHECK_EQUAL(2UL, *item)"
 3200      6E646C65 
 3200      64206578 
 3200      63657074 
 3200      696F6E20 
 3201 0317 00       		.align 8
 3202              	.LC15:
 3203 0318 556E6861 		.string	"Unhandled exception in CHECK_EQUAL(3UL, *item)"
 3203      6E646C65 
 3203      64206578 
 3203      63657074 
 3203      696F6E20 
 3204 0347 00       		.align 8
 3205              	.LC16:
 3206 0348 556E6861 		.string	"Unhandled exception in CHECK_EQUAL(3UL, queue.putIndex)"
 3206      6E646C65 
 3206      64206578 
 3206      63657074 
 3206      696F6E20 
 3207              		.align 8
 3208              	.LC17:
 3209 0380 556E6861 		.string	"Unhandled exception in CHECK_EQUAL(3UL, queue.numItems)"
 3209      6E646C65 
 3209      64206578 
 3209      63657074 
 3209      696F6E20 
 3210              		.align 8
 3211              	.LC18:
 3212 03b8 556E6861 		.string	"Unhandled exception in CHECK_EQUAL(5UL, deref(queue.itemArray[0]))"
 3212      6E646C65 
 3212      64206578 
 3212      63657074 
 3212      696F6E20 
 3213 03fb 00000000 		.align 8
 3213      00
 3214              	.LC19:
 3215 0400 556E6861 		.string	"Unhandled exception in CHECK_EQUAL(6UL, deref(queue.itemArray[1]))"
 3215      6E646C65 
 3215      64206578 
 3215      63657074 
 3215      696F6E20 
 3216 0443 00000000 		.align 8
 3216      00
 3217              	.LC20:
 3218 0448 556E6861 		.string	"Unhandled exception in CHECK_EQUAL(7UL, deref(queue.itemArray[2]))"
 3218      6E646C65 
 3218      64206578 
 3218      63657074 
 3218      696F6E20 
 3219              		.text
 3220 105d 90       		.align 2
 3221 105e 6690     		.p2align 4,,15
 3222              		.globl	_ZNK23TestQueue_testPutNoWrap7RunImplEv
 3224              	_ZNK23TestQueue_testPutNoWrap7RunImplEv:
 3225              	.LFB1111:
 3226              		.cfi_startproc
 3227              		.cfi_personality 0x3,__gxx_personality_v0
 3228              		.cfi_lsda 0x3,.LLSDA1111
 3229 1060 55       		pushq	%rbp
 3230              		.cfi_def_cfa_offset 16
 3231              		.cfi_offset 6, -16
 3232 1061 B9000000 		movl	$destroyInt, %ecx
 3232      00
 3233 1066 BA000000 		movl	$createInt, %edx
 3233      00
 3234 106b BE040000 		movl	$4, %esi
 3234      00
 3235 1070 53       		pushq	%rbx
 3236              		.cfi_def_cfa_offset 24
 3237              		.cfi_offset 3, -24
 3238 1071 4881EC98 		subq	$152, %rsp
 3238      000000
 3239              		.cfi_def_cfa_offset 176
 3240 1078 C7050000 		movl	$1, _ZL7m_count(%rip)
 3240      00000100 
 3240      0000
 3241 1082 488D7C24 		leaq	80(%rsp), %rdi
 3241      50
 3242              	.LEHB121:
 3243 1087 E8000000 		call	queueInit
 3243      00
 3244              	.LEHE121:
 3245 108c 8944240C 		movl	%eax, 12(%rsp)
 3246              	.LEHB122:
 3247 1090 E8000000 		call	_ZN8UnitTest11CurrentTest7DetailsEv
 3247      00
 3248 1095 488D5C24 		leaq	48(%rsp), %rbx
 3248      30
 3249 109a 488B30   		movq	(%rax), %rsi
 3250 109d BA540000 		movl	$84, %edx
 3250      00
 3251 10a2 4889DF   		movq	%rbx, %rdi
 3252 10a5 E8000000 		call	_ZN8UnitTest11TestDetailsC1ERKS0_i
 3252      00
 3253 10aa C7442420 		movl	$0, 32(%rsp)
 3253      00000000 
 3254 10b2 E8000000 		call	_ZN8UnitTest11CurrentTest7ResultsEv
 3254      00
 3255 10b7 488B38   		movq	(%rax), %rdi
 3256 10ba 488D5424 		leaq	12(%rsp), %rdx
 3256      0C
 3257 10bf 488D7424 		leaq	32(%rsp), %rsi
 3257      20
 3258 10c4 4889D9   		movq	%rbx, %rcx
 3259 10c7 E8000000 		call	_ZN8UnitTest10CheckEqualI9USBStatusS1_EEvRNS_11TestResultsERKT_RKT0_RKNS_11TestDetailsE
 3259      00
 3260              	.LEHE122:
 3261              	.L299:
 3262 10cc 488D7424 		leaq	16(%rsp), %rsi
 3262      10
 3263 10d1 488D7C24 		leaq	80(%rsp), %rdi
 3263      50
 3264              	.LEHB123:
 3265 10d6 E8000000 		call	queuePut
 3265      00
 3266              	.LEHE123:
 3267 10db 8944240C 		movl	%eax, 12(%rsp)
 3268              	.LEHB124:
 3269 10df E8000000 		call	_ZN8UnitTest11CurrentTest7DetailsEv
 3269      00
 3270 10e4 488B30   		movq	(%rax), %rsi
 3271 10e7 BA580000 		movl	$88, %edx
 3271      00
 3272 10ec 4889DF   		movq	%rbx, %rdi
 3273 10ef E8000000 		call	_ZN8UnitTest11TestDetailsC1ERKS0_i
 3273      00
 3274 10f4 C7442420 		movl	$0, 32(%rsp)
 3274      00000000 
 3275 10fc E8000000 		call	_ZN8UnitTest11CurrentTest7ResultsEv
 3275      00
 3276 1101 488B38   		movq	(%rax), %rdi
 3277 1104 488D5424 		leaq	12(%rsp), %rdx
 3277      0C
 3278 1109 488D7424 		leaq	32(%rsp), %rsi
 3278      20
 3279 110e 4889D9   		movq	%rbx, %rcx
 3280 1111 E8000000 		call	_ZN8UnitTest10CheckEqualI9USBStatusS1_EEvRNS_11TestResultsERKT_RKT0_RKNS_11TestDetailsE
 3280      00
 3281              	.LEHE124:
 3282              	.L302:
 3283              	.LEHB125:
 3284 1116 E8000000 		call	_ZN8UnitTest11CurrentTest7DetailsEv
 3284      00
 3285 111b 488B30   		movq	(%rax), %rsi
 3286 111e BA590000 		movl	$89, %edx
 3286      00
 3287 1123 4889DF   		movq	%rbx, %rdi
 3288 1126 E8000000 		call	_ZN8UnitTest11TestDetailsC1ERKS0_i
 3288      00
 3289 112b 488B6C24 		movq	16(%rsp), %rbp
 3289      10
 3290 1130 48C74424 		movq	$1, 32(%rsp)
 3290      20010000 
 3290      00
 3291 1139 E8000000 		call	_ZN8UnitTest11CurrentTest7ResultsEv
 3291      00
 3292 113e 488B38   		movq	(%rax), %rdi
 3293 1141 488D7424 		leaq	32(%rsp), %rsi
 3293      20
 3294 1146 4889D9   		movq	%rbx, %rcx
 3295 1149 4889EA   		movq	%rbp, %rdx
 3296 114c E8000000 		call	_ZN8UnitTest10CheckEqualImjEEvRNS_11TestResultsERKT_RKT0_RKNS_11TestDetailsE
 3296      00
 3297              	.LEHE125:
 3298              	.L305:
 3299 1151 488B4424 		movq	16(%rsp), %rax
 3299      10
 3300 1156 488D7C24 		leaq	80(%rsp), %rdi
 3300      50
 3301 115b C7000500 		movl	$5, (%rax)
 3301      0000
 3302              	.LEHB126:
 3303 1161 E8000000 		call	queueCommitPut
 3303      00
 3304 1166 488D7424 		leaq	16(%rsp), %rsi
 3304      10
 3305 116b 488D7C24 		leaq	80(%rsp), %rdi
 3305      50
 3306 1170 E8000000 		call	queuePut
 3306      00
 3307              	.LEHE126:
 3308 1175 8944240C 		movl	%eax, 12(%rsp)
 3309              	.LEHB127:
 3310 1179 E8000000 		call	_ZN8UnitTest11CurrentTest7DetailsEv
 3310      00
 3311 117e 488B30   		movq	(%rax), %rsi
 3312 1181 BA5D0000 		movl	$93, %edx
 3312      00
 3313 1186 4889DF   		movq	%rbx, %rdi
 3314 1189 E8000000 		call	_ZN8UnitTest11TestDetailsC1ERKS0_i
 3314      00
 3315 118e C7442420 		movl	$0, 32(%rsp)
 3315      00000000 
 3316 1196 E8000000 		call	_ZN8UnitTest11CurrentTest7ResultsEv
 3316      00
 3317 119b 488B38   		movq	(%rax), %rdi
 3318 119e 488D5424 		leaq	12(%rsp), %rdx
 3318      0C
 3319 11a3 488D7424 		leaq	32(%rsp), %rsi
 3319      20
 3320 11a8 4889D9   		movq	%rbx, %rcx
 3321 11ab E8000000 		call	_ZN8UnitTest10CheckEqualI9USBStatusS1_EEvRNS_11TestResultsERKT_RKT0_RKNS_11TestDetailsE
 3321      00
 3322              	.LEHE127:
 3323              	.L308:
 3324              	.LEHB128:
 3325 11b0 E8000000 		call	_ZN8UnitTest11CurrentTest7DetailsEv
 3325      00
 3326 11b5 488B30   		movq	(%rax), %rsi
 3327 11b8 BA5E0000 		movl	$94, %edx
 3327      00
 3328 11bd 4889DF   		movq	%rbx, %rdi
 3329 11c0 E8000000 		call	_ZN8UnitTest11TestDetailsC1ERKS0_i
 3329      00
 3330 11c5 488B6C24 		movq	16(%rsp), %rbp
 3330      10
 3331 11ca 48C74424 		movq	$2, 32(%rsp)
 3331      20020000 
 3331      00
 3332 11d3 E8000000 		call	_ZN8UnitTest11CurrentTest7ResultsEv
 3332      00
 3333 11d8 488B38   		movq	(%rax), %rdi
 3334 11db 488D7424 		leaq	32(%rsp), %rsi
 3334      20
 3335 11e0 4889D9   		movq	%rbx, %rcx
 3336 11e3 4889EA   		movq	%rbp, %rdx
 3337 11e6 E8000000 		call	_ZN8UnitTest10CheckEqualImjEEvRNS_11TestResultsERKT_RKT0_RKNS_11TestDetailsE
 3337      00
 3338              	.LEHE128:
 3339              	.L311:
 3340 11eb 488B4424 		movq	16(%rsp), %rax
 3340      10
 3341 11f0 488D7C24 		leaq	80(%rsp), %rdi
 3341      50
 3342 11f5 C7000600 		movl	$6, (%rax)
 3342      0000
 3343              	.LEHB129:
 3344 11fb E8000000 		call	queueCommitPut
 3344      00
 3345 1200 488D7424 		leaq	16(%rsp), %rsi
 3345      10
 3346 1205 488D7C24 		leaq	80(%rsp), %rdi
 3346      50
 3347 120a E8000000 		call	queuePut
 3347      00
 3348              	.LEHE129:
 3349 120f 8944240C 		movl	%eax, 12(%rsp)
 3350              	.LEHB130:
 3351 1213 E8000000 		call	_ZN8UnitTest11CurrentTest7DetailsEv
 3351      00
 3352 1218 488B30   		movq	(%rax), %rsi
 3353 121b BA620000 		movl	$98, %edx
 3353      00
 3354 1220 4889DF   		movq	%rbx, %rdi
 3355 1223 E8000000 		call	_ZN8UnitTest11TestDetailsC1ERKS0_i
 3355      00
 3356 1228 C7442420 		movl	$0, 32(%rsp)
 3356      00000000 
 3357 1230 E8000000 		call	_ZN8UnitTest11CurrentTest7ResultsEv
 3357      00
 3358 1235 488B38   		movq	(%rax), %rdi
 3359 1238 488D5424 		leaq	12(%rsp), %rdx
 3359      0C
 3360 123d 488D7424 		leaq	32(%rsp), %rsi
 3360      20
 3361 1242 4889D9   		movq	%rbx, %rcx
 3362 1245 E8000000 		call	_ZN8UnitTest10CheckEqualI9USBStatusS1_EEvRNS_11TestResultsERKT_RKT0_RKNS_11TestDetailsE
 3362      00
 3363              	.LEHE130:
 3364              	.L314:
 3365              	.LEHB131:
 3366 124a E8000000 		call	_ZN8UnitTest11CurrentTest7DetailsEv
 3366      00
 3367 124f 488B30   		movq	(%rax), %rsi
 3368 1252 BA630000 		movl	$99, %edx
 3368      00
 3369 1257 4889DF   		movq	%rbx, %rdi
 3370 125a E8000000 		call	_ZN8UnitTest11TestDetailsC1ERKS0_i
 3370      00
 3371 125f 488B6C24 		movq	16(%rsp), %rbp
 3371      10
 3372 1264 48C74424 		movq	$3, 32(%rsp)
 3372      20030000 
 3372      00
 3373 126d E8000000 		call	_ZN8UnitTest11CurrentTest7ResultsEv
 3373      00
 3374 1272 488B38   		movq	(%rax), %rdi
 3375 1275 488D7424 		leaq	32(%rsp), %rsi
 3375      20
 3376 127a 4889D9   		movq	%rbx, %rcx
 3377 127d 4889EA   		movq	%rbp, %rdx
 3378 1280 E8000000 		call	_ZN8UnitTest10CheckEqualImjEEvRNS_11TestResultsERKT_RKT0_RKNS_11TestDetailsE
 3378      00
 3379              	.LEHE131:
 3380              	.L317:
 3381 1285 488B4424 		movq	16(%rsp), %rax
 3381      10
 3382 128a 488D7C24 		leaq	80(%rsp), %rdi
 3382      50
 3383 128f C7000700 		movl	$7, (%rax)
 3383      0000
 3384              	.LEHB132:
 3385 1295 E8000000 		call	queueCommitPut
 3385      00
 3386              	.LEHE132:
 3387              	.LEHB133:
 3388 129a E8000000 		call	_ZN8UnitTest11CurrentTest7DetailsEv
 3388      00
 3389 129f 488B30   		movq	(%rax), %rsi
 3390 12a2 BA680000 		movl	$104, %edx
 3390      00
 3391 12a7 4889DF   		movq	%rbx, %rdi
 3392 12aa E8000000 		call	_ZN8UnitTest11TestDetailsC1ERKS0_i
 3392      00
 3393 12af 48C74424 		movq	$4, 32(%rsp)
 3393      20040000 
 3393      00
 3394 12b8 E8000000 		call	_ZN8UnitTest11CurrentTest7ResultsEv
 3394      00
 3395 12bd 488B38   		movq	(%rax), %rdi
 3396 12c0 488D5424 		leaq	88(%rsp), %rdx
 3396      58
 3397 12c5 488D7424 		leaq	32(%rsp), %rsi
 3397      20
 3398 12ca 4889D9   		movq	%rbx, %rcx
 3399 12cd E8000000 		call	_ZN8UnitTest10CheckEqualImmEEvRNS_11TestResultsERKT_RKT0_RKNS_11TestDetailsE
 3399      00
 3400              	.LEHE133:
 3401              	.L320:
 3402              	.LEHB134:
 3403 12d2 E8000000 		call	_ZN8UnitTest11CurrentTest7DetailsEv
 3403      00
 3404 12d7 488B30   		movq	(%rax), %rsi
 3405 12da BA690000 		movl	$105, %edx
 3405      00
 3406 12df 4889DF   		movq	%rbx, %rdi
 3407 12e2 E8000000 		call	_ZN8UnitTest11TestDetailsC1ERKS0_i
 3407      00
 3408 12e7 48C74424 		movq	$3, 32(%rsp)
 3408      20030000 
 3408      00
 3409 12f0 E8000000 		call	_ZN8UnitTest11CurrentTest7ResultsEv
 3409      00
 3410 12f5 488B38   		movq	(%rax), %rdi
 3411 12f8 488D5424 		leaq	96(%rsp), %rdx
 3411      60
 3412 12fd 488D7424 		leaq	32(%rsp), %rsi
 3412      20
 3413 1302 4889D9   		movq	%rbx, %rcx
 3414 1305 E8000000 		call	_ZN8UnitTest10CheckEqualImmEEvRNS_11TestResultsERKT_RKT0_RKNS_11TestDetailsE
 3414      00
 3415              	.LEHE134:
 3416              	.L323:
 3417              	.LEHB135:
 3418 130a E8000000 		call	_ZN8UnitTest11CurrentTest7DetailsEv
 3418      00
 3419 130f 488B30   		movq	(%rax), %rsi
 3420 1312 BA6A0000 		movl	$106, %edx
 3420      00
 3421 1317 4889DF   		movq	%rbx, %rdi
 3422 131a E8000000 		call	_ZN8UnitTest11TestDetailsC1ERKS0_i
 3422      00
 3423 131f 48C74424 		movq	$0, 32(%rsp)
 3423      20000000 
 3423      00
 3424 1328 E8000000 		call	_ZN8UnitTest11CurrentTest7ResultsEv
 3424      00
 3425 132d 488B38   		movq	(%rax), %rdi
 3426 1330 488D5424 		leaq	104(%rsp), %rdx
 3426      68
 3427 1335 488D7424 		leaq	32(%rsp), %rsi
 3427      20
 3428 133a 4889D9   		movq	%rbx, %rcx
 3429 133d E8000000 		call	_ZN8UnitTest10CheckEqualImmEEvRNS_11TestResultsERKT_RKT0_RKNS_11TestDetailsE
 3429      00
 3430              	.LEHE135:
 3431              	.L326:
 3432              	.LEHB136:
 3433 1342 E8000000 		call	_ZN8UnitTest11CurrentTest7DetailsEv
 3433      00
 3434 1347 488B30   		movq	(%rax), %rsi
 3435 134a BA6B0000 		movl	$107, %edx
 3435      00
 3436 134f 4889DF   		movq	%rbx, %rdi
 3437 1352 E8000000 		call	_ZN8UnitTest11TestDetailsC1ERKS0_i
 3437      00
 3438 1357 48C74424 		movq	$3, 32(%rsp)
 3438      20030000 
 3438      00
 3439 1360 E8000000 		call	_ZN8UnitTest11CurrentTest7ResultsEv
 3439      00
 3440 1365 488B38   		movq	(%rax), %rdi
 3441 1368 488D5424 		leaq	112(%rsp), %rdx
 3441      70
 3442 136d 488D7424 		leaq	32(%rsp), %rsi
 3442      20
 3443 1372 4889D9   		movq	%rbx, %rcx
 3444 1375 E8000000 		call	_ZN8UnitTest10CheckEqualImmEEvRNS_11TestResultsERKT_RKT0_RKNS_11TestDetailsE
 3444      00
 3445              	.LEHE136:
 3446              	.L329:
 3447              	.LEHB137:
 3448 137a E8000000 		call	_ZN8UnitTest11CurrentTest7DetailsEv
 3448      00
 3449 137f 488B30   		movq	(%rax), %rsi
 3450 1382 BA6E0000 		movl	$110, %edx
 3450      00
 3451 1387 4889DF   		movq	%rbx, %rdi
 3452 138a E8000000 		call	_ZN8UnitTest11TestDetailsC1ERKS0_i
 3452      00
 3453 138f 488B4424 		movq	80(%rsp), %rax
 3453      50
 3454 1394 488B00   		movq	(%rax), %rax
 3455 1397 8B00     		movl	(%rax), %eax
 3456 1399 48C74424 		movq	$5, 32(%rsp)
 3456      20050000 
 3456      00
 3457 13a2 890424   		movl	%eax, (%rsp)
 3458 13a5 E8000000 		call	_ZN8UnitTest11CurrentTest7ResultsEv
 3458      00
 3459 13aa 488B38   		movq	(%rax), %rdi
 3460 13ad 488D7424 		leaq	32(%rsp), %rsi
 3460      20
 3461 13b2 4889D9   		movq	%rbx, %rcx
 3462 13b5 4889E2   		movq	%rsp, %rdx
 3463 13b8 E8000000 		call	_ZN8UnitTest10CheckEqualImjEEvRNS_11TestResultsERKT_RKT0_RKNS_11TestDetailsE
 3463      00
 3464              	.LEHE137:
 3465              	.L332:
 3466              	.LEHB138:
 3467 13bd E8000000 		call	_ZN8UnitTest11CurrentTest7DetailsEv
 3467      00
 3468 13c2 488B30   		movq	(%rax), %rsi
 3469 13c5 BA6F0000 		movl	$111, %edx
 3469      00
 3470 13ca 4889DF   		movq	%rbx, %rdi
 3471 13cd E8000000 		call	_ZN8UnitTest11TestDetailsC1ERKS0_i
 3471      00
 3472 13d2 488B4424 		movq	80(%rsp), %rax
 3472      50
 3473 13d7 488B4008 		movq	8(%rax), %rax
 3474 13db 8B00     		movl	(%rax), %eax
 3475 13dd 48C74424 		movq	$6, 32(%rsp)
 3475      20060000 
 3475      00
 3476 13e6 890424   		movl	%eax, (%rsp)
 3477 13e9 E8000000 		call	_ZN8UnitTest11CurrentTest7ResultsEv
 3477      00
 3478 13ee 488B38   		movq	(%rax), %rdi
 3479 13f1 488D7424 		leaq	32(%rsp), %rsi
 3479      20
 3480 13f6 4889D9   		movq	%rbx, %rcx
 3481 13f9 4889E2   		movq	%rsp, %rdx
 3482 13fc E8000000 		call	_ZN8UnitTest10CheckEqualImjEEvRNS_11TestResultsERKT_RKT0_RKNS_11TestDetailsE
 3482      00
 3483              	.LEHE138:
 3484              	.L335:
 3485              	.LEHB139:
 3486 1401 E8000000 		call	_ZN8UnitTest11CurrentTest7DetailsEv
 3486      00
 3487 1406 488B30   		movq	(%rax), %rsi
 3488 1409 BA700000 		movl	$112, %edx
 3488      00
 3489 140e 4889DF   		movq	%rbx, %rdi
 3490 1411 E8000000 		call	_ZN8UnitTest11TestDetailsC1ERKS0_i
 3490      00
 3491 1416 488B4424 		movq	80(%rsp), %rax
 3491      50
 3492 141b 488B4010 		movq	16(%rax), %rax
 3493 141f 8B00     		movl	(%rax), %eax
 3494 1421 48C74424 		movq	$7, 32(%rsp)
 3494      20070000 
 3494      00
 3495 142a 890424   		movl	%eax, (%rsp)
 3496 142d E8000000 		call	_ZN8UnitTest11CurrentTest7ResultsEv
 3496      00
 3497 1432 488B38   		movq	(%rax), %rdi
 3498 1435 488D7424 		leaq	32(%rsp), %rsi
 3498      20
 3499 143a 4889D9   		movq	%rbx, %rcx
 3500 143d 4889E2   		movq	%rsp, %rdx
 3501 1440 E8000000 		call	_ZN8UnitTest10CheckEqualImjEEvRNS_11TestResultsERKT_RKT0_RKNS_11TestDetailsE
 3501      00
 3502              	.LEHE139:
 3503              	.L338:
 3504              	.LEHB140:
 3505 1445 E8000000 		call	_ZN8UnitTest11CurrentTest7DetailsEv
 3505      00
 3506 144a 488B30   		movq	(%rax), %rsi
 3507 144d BA710000 		movl	$113, %edx
 3507      00
 3508 1452 4889DF   		movq	%rbx, %rdi
 3509 1455 E8000000 		call	_ZN8UnitTest11TestDetailsC1ERKS0_i
 3509      00
 3510 145a 488B4424 		movq	80(%rsp), %rax
 3510      50
 3511 145f 488B4018 		movq	24(%rax), %rax
 3512 1463 8B00     		movl	(%rax), %eax
 3513 1465 48C74424 		movq	$4, 32(%rsp)
 3513      20040000 
 3513      00
 3514 146e 890424   		movl	%eax, (%rsp)
 3515 1471 E8000000 		call	_ZN8UnitTest11CurrentTest7ResultsEv
 3515      00
 3516 1476 488B38   		movq	(%rax), %rdi
 3517 1479 488D7424 		leaq	32(%rsp), %rsi
 3517      20
 3518 147e 4889D9   		movq	%rbx, %rcx
 3519 1481 4889E2   		movq	%rsp, %rdx
 3520 1484 E8000000 		call	_ZN8UnitTest10CheckEqualImjEEvRNS_11TestResultsERKT_RKT0_RKNS_11TestDetailsE
 3520      00
 3521              	.LEHE140:
 3522              	.L341:
 3523 1489 488D7C24 		leaq	80(%rsp), %rdi
 3523      50
 3524              	.LEHB141:
 3525 148e E8000000 		call	queueDestroy
 3525      00
 3526              	.LEHE141:
 3527 1493 4881C498 		addq	$152, %rsp
 3527      000000
 3528              		.cfi_remember_state
 3529              		.cfi_def_cfa_offset 24
 3530 149a 5B       		popq	%rbx
 3531              		.cfi_def_cfa_offset 16
 3532 149b 5D       		popq	%rbp
 3533              		.cfi_def_cfa_offset 8
 3534 149c C3       		ret
 3535              	.L342:
 3536              		.cfi_restore_state
 3537 149d 4889C7   		movq	%rax, %rdi
 3538 14a0 E8000000 		call	__cxa_begin_catch
 3538      00
 3539              	.LEHB142:
 3540 14a5 E8000000 		call	_ZN8UnitTest11CurrentTest7DetailsEv
 3540      00
 3541 14aa 488D5C24 		leaq	48(%rsp), %rbx
 3541      30
 3542 14af 488B30   		movq	(%rax), %rsi
 3543 14b2 BA540000 		movl	$84, %edx
 3543      00
 3544 14b7 4889DF   		movq	%rbx, %rdi
 3545 14ba E8000000 		call	_ZN8UnitTest11TestDetailsC1ERKS0_i
 3545      00
 3546 14bf E8000000 		call	_ZN8UnitTest11CurrentTest7ResultsEv
 3546      00
 3547 14c4 488B38   		movq	(%rax), %rdi
 3548 14c7 BA000000 		movl	$.LC4, %edx
 3548      00
 3549 14cc 4889DE   		movq	%rbx, %rsi
 3550 14cf E8000000 		call	_ZN8UnitTest11TestResults13OnTestFailureERKNS_11TestDetailsEPKc
 3550      00
 3551              	.LEHE142:
 3552              	.LEHB143:
 3553 14d4 E8000000 		call	__cxa_end_catch
 3553      00
 3554              	.LEHE143:
 3555 14d9 E9EEFBFF 		jmp	.L299
 3555      FF
 3556              	.L370:
 3557 14de 4889C7   		movq	%rax, %rdi
 3558              		.p2align 4,,5
 3559 14e1 E8000000 		call	__cxa_begin_catch
 3559      00
 3560              		.p2align 4,,5
 3561              	.LEHB144:
 3562 14e6 E8000000 		call	_ZN8UnitTest11CurrentTest7DetailsEv
 3562      00
 3563 14eb 488B30   		movq	(%rax), %rsi
 3564 14ee BA710000 		movl	$113, %edx
 3564      00
 3565 14f3 4889DF   		movq	%rbx, %rdi
 3566 14f6 E8000000 		call	_ZN8UnitTest11TestDetailsC1ERKS0_i
 3566      00
 3567 14fb E8000000 		call	_ZN8UnitTest11CurrentTest7ResultsEv
 3567      00
 3568 1500 488B38   		movq	(%rax), %rdi
 3569 1503 BA000000 		movl	$.LC12, %edx
 3569      00
 3570 1508 4889DE   		movq	%rbx, %rsi
 3571 150b E8000000 		call	_ZN8UnitTest11TestResults13OnTestFailureERKNS_11TestDetailsEPKc
 3571      00
 3572              	.LEHE144:
 3573              	.LEHB145:
 3574 1510 E8000000 		call	__cxa_end_catch
 3574      00
 3575              	.LEHE145:
 3576 1515 E96FFFFF 		jmp	.L341
 3576      FF
 3577              	.L368:
 3578 151a 4889C7   		movq	%rax, %rdi
 3579 151d 0F1F00   		.p2align 4,,5
 3580 1520 E8000000 		call	__cxa_begin_catch
 3580      00
 3581              		.p2align 4,,5
 3582              	.LEHB146:
 3583 1525 E8000000 		call	_ZN8UnitTest11CurrentTest7DetailsEv
 3583      00
 3584 152a 488B30   		movq	(%rax), %rsi
 3585 152d BA700000 		movl	$112, %edx
 3585      00
 3586 1532 4889DF   		movq	%rbx, %rdi
 3587 1535 E8000000 		call	_ZN8UnitTest11TestDetailsC1ERKS0_i
 3587      00
 3588 153a E8000000 		call	_ZN8UnitTest11CurrentTest7ResultsEv
 3588      00
 3589 153f 488B38   		movq	(%rax), %rdi
 3590 1542 BA000000 		movl	$.LC20, %edx
 3590      00
 3591 1547 4889DE   		movq	%rbx, %rsi
 3592 154a E8000000 		call	_ZN8UnitTest11TestResults13OnTestFailureERKNS_11TestDetailsEPKc
 3592      00
 3593              	.LEHE146:
 3594              	.LEHB147:
 3595 154f E8000000 		call	__cxa_end_catch
 3595      00
 3596              	.LEHE147:
 3597 1554 E9ECFEFF 		jmp	.L338
 3597      FF
 3598              	.L343:
 3599 1559 4889C3   		movq	%rax, %rbx
 3600 155c 0F1F4000 		.p2align 4,,5
 3601 1560 E8000000 		call	__cxa_end_catch
 3601      00
 3602 1565 4889DF   		movq	%rbx, %rdi
 3603              	.LEHB148:
 3604 1568 E8000000 		call	_Unwind_Resume
 3604      00
 3605              	.LEHE148:
 3606              	.L371:
 3607 156d 4889C3   		movq	%rax, %rbx
 3608 1570 E8000000 		call	__cxa_end_catch
 3608      00
 3609 1575 4889DF   		movq	%rbx, %rdi
 3610              	.LEHB149:
 3611 1578 E8000000 		call	_Unwind_Resume
 3611      00
 3612              	.LEHE149:
 3613              	.L369:
 3614 157d 4889C3   		movq	%rax, %rbx
 3615 1580 E8000000 		call	__cxa_end_catch
 3615      00
 3616 1585 4889DF   		movq	%rbx, %rdi
 3617              	.LEHB150:
 3618 1588 E8000000 		call	_Unwind_Resume
 3618      00
 3619              	.LEHE150:
 3620              	.L366:
 3621 158d 4889C7   		movq	%rax, %rdi
 3622 1590 E8000000 		call	__cxa_begin_catch
 3622      00
 3623              	.LEHB151:
 3624 1595 E8000000 		call	_ZN8UnitTest11CurrentTest7DetailsEv
 3624      00
 3625 159a 488B30   		movq	(%rax), %rsi
 3626 159d BA6F0000 		movl	$111, %edx
 3626      00
 3627 15a2 4889DF   		movq	%rbx, %rdi
 3628 15a5 E8000000 		call	_ZN8UnitTest11TestDetailsC1ERKS0_i
 3628      00
 3629 15aa E8000000 		call	_ZN8UnitTest11CurrentTest7ResultsEv
 3629      00
 3630 15af 488B38   		movq	(%rax), %rdi
 3631 15b2 BA000000 		movl	$.LC19, %edx
 3631      00
 3632 15b7 4889DE   		movq	%rbx, %rsi
 3633 15ba E8000000 		call	_ZN8UnitTest11TestResults13OnTestFailureERKNS_11TestDetailsEPKc
 3633      00
 3634              	.LEHE151:
 3635              	.LEHB152:
 3636 15bf E8000000 		call	__cxa_end_catch
 3636      00
 3637              	.LEHE152:
 3638 15c4 E938FEFF 		jmp	.L335
 3638      FF
 3639              	.L364:
 3640 15c9 4889C7   		movq	%rax, %rdi
 3641 15cc 0F1F4000 		.p2align 4,,5
 3642 15d0 E8000000 		call	__cxa_begin_catch
 3642      00
 3643              		.p2align 4,,5
 3644              	.LEHB153:
 3645 15d5 E8000000 		call	_ZN8UnitTest11CurrentTest7DetailsEv
 3645      00
 3646 15da 488B30   		movq	(%rax), %rsi
 3647 15dd BA6E0000 		movl	$110, %edx
 3647      00
 3648 15e2 4889DF   		movq	%rbx, %rdi
 3649 15e5 E8000000 		call	_ZN8UnitTest11TestDetailsC1ERKS0_i
 3649      00
 3650 15ea E8000000 		call	_ZN8UnitTest11CurrentTest7ResultsEv
 3650      00
 3651 15ef 488B38   		movq	(%rax), %rdi
 3652 15f2 BA000000 		movl	$.LC18, %edx
 3652      00
 3653 15f7 4889DE   		movq	%rbx, %rsi
 3654 15fa E8000000 		call	_ZN8UnitTest11TestResults13OnTestFailureERKNS_11TestDetailsEPKc
 3654      00
 3655              	.LEHE153:
 3656              	.LEHB154:
 3657 15ff E8000000 		call	__cxa_end_catch
 3657      00
 3658              	.LEHE154:
 3659 1604 E9B4FDFF 		jmp	.L332
 3659      FF
 3660              	.L367:
 3661 1609 4889C3   		movq	%rax, %rbx
 3662 160c 0F1F4000 		.p2align 4,,5
 3663 1610 E8000000 		call	__cxa_end_catch
 3663      00
 3664 1615 4889DF   		movq	%rbx, %rdi
 3665              	.LEHB155:
 3666 1618 E8000000 		call	_Unwind_Resume
 3666      00
 3667              	.LEHE155:
 3668              	.L365:
 3669 161d 4889C3   		movq	%rax, %rbx
 3670 1620 E8000000 		call	__cxa_end_catch
 3670      00
 3671 1625 4889DF   		movq	%rbx, %rdi
 3672              	.LEHB156:
 3673 1628 E8000000 		call	_Unwind_Resume
 3673      00
 3674              	.LEHE156:
 3675              	.L362:
 3676 162d 4889C7   		movq	%rax, %rdi
 3677 1630 E8000000 		call	__cxa_begin_catch
 3677      00
 3678              	.LEHB157:
 3679 1635 E8000000 		call	_ZN8UnitTest11CurrentTest7DetailsEv
 3679      00
 3680 163a 488B30   		movq	(%rax), %rsi
 3681 163d BA6B0000 		movl	$107, %edx
 3681      00
 3682 1642 4889DF   		movq	%rbx, %rdi
 3683 1645 E8000000 		call	_ZN8UnitTest11TestDetailsC1ERKS0_i
 3683      00
 3684 164a E8000000 		call	_ZN8UnitTest11CurrentTest7ResultsEv
 3684      00
 3685 164f 488B38   		movq	(%rax), %rdi
 3686 1652 BA000000 		movl	$.LC17, %edx
 3686      00
 3687 1657 4889DE   		movq	%rbx, %rsi
 3688 165a E8000000 		call	_ZN8UnitTest11TestResults13OnTestFailureERKNS_11TestDetailsEPKc
 3688      00
 3689              	.LEHE157:
 3690              	.LEHB158:
 3691 165f E8000000 		call	__cxa_end_catch
 3691      00
 3692              	.LEHE158:
 3693 1664 E911FDFF 		jmp	.L329
 3693      FF
 3694              	.L360:
 3695 1669 4889C7   		movq	%rax, %rdi
 3696 166c 0F1F4000 		.p2align 4,,5
 3697 1670 E8000000 		call	__cxa_begin_catch
 3697      00
 3698              		.p2align 4,,5
 3699              	.LEHB159:
 3700 1675 E8000000 		call	_ZN8UnitTest11CurrentTest7DetailsEv
 3700      00
 3701 167a 488B30   		movq	(%rax), %rsi
 3702 167d BA6A0000 		movl	$106, %edx
 3702      00
 3703 1682 4889DF   		movq	%rbx, %rdi
 3704 1685 E8000000 		call	_ZN8UnitTest11TestDetailsC1ERKS0_i
 3704      00
 3705 168a E8000000 		call	_ZN8UnitTest11CurrentTest7ResultsEv
 3705      00
 3706 168f 488B38   		movq	(%rax), %rdi
 3707 1692 BA000000 		movl	$.LC7, %edx
 3707      00
 3708 1697 4889DE   		movq	%rbx, %rsi
 3709 169a E8000000 		call	_ZN8UnitTest11TestResults13OnTestFailureERKNS_11TestDetailsEPKc
 3709      00
 3710              	.LEHE159:
 3711              	.LEHB160:
 3712 169f E8000000 		call	__cxa_end_catch
 3712      00
 3713              	.LEHE160:
 3714 16a4 E999FCFF 		jmp	.L326
 3714      FF
 3715              	.L363:
 3716 16a9 4889C3   		movq	%rax, %rbx
 3717 16ac 0F1F4000 		.p2align 4,,5
 3718 16b0 E8000000 		call	__cxa_end_catch
 3718      00
 3719 16b5 4889DF   		movq	%rbx, %rdi
 3720              	.LEHB161:
 3721 16b8 E8000000 		call	_Unwind_Resume
 3721      00
 3722              	.LEHE161:
 3723              	.L361:
 3724 16bd 4889C3   		movq	%rax, %rbx
 3725 16c0 E8000000 		call	__cxa_end_catch
 3725      00
 3726 16c5 4889DF   		movq	%rbx, %rdi
 3727              	.LEHB162:
 3728 16c8 E8000000 		call	_Unwind_Resume
 3728      00
 3729              	.LEHE162:
 3730              	.L358:
 3731 16cd 4889C7   		movq	%rax, %rdi
 3732 16d0 E8000000 		call	__cxa_begin_catch
 3732      00
 3733              	.LEHB163:
 3734 16d5 E8000000 		call	_ZN8UnitTest11CurrentTest7DetailsEv
 3734      00
 3735 16da 488B30   		movq	(%rax), %rsi
 3736 16dd BA690000 		movl	$105, %edx
 3736      00
 3737 16e2 4889DF   		movq	%rbx, %rdi
 3738 16e5 E8000000 		call	_ZN8UnitTest11TestDetailsC1ERKS0_i
 3738      00
 3739 16ea E8000000 		call	_ZN8UnitTest11CurrentTest7ResultsEv
 3739      00
 3740 16ef 488B38   		movq	(%rax), %rdi
 3741 16f2 BA000000 		movl	$.LC16, %edx
 3741      00
 3742 16f7 4889DE   		movq	%rbx, %rsi
 3743 16fa E8000000 		call	_ZN8UnitTest11TestResults13OnTestFailureERKNS_11TestDetailsEPKc
 3743      00
 3744              	.LEHE163:
 3745              	.LEHB164:
 3746 16ff E8000000 		call	__cxa_end_catch
 3746      00
 3747              	.LEHE164:
 3748 1704 E901FCFF 		jmp	.L323
 3748      FF
 3749              	.L356:
 3750 1709 4889C7   		movq	%rax, %rdi
 3751 170c 0F1F4000 		.p2align 4,,5
 3752 1710 E8000000 		call	__cxa_begin_catch
 3752      00
 3753              		.p2align 4,,5
 3754              	.LEHB165:
 3755 1715 E8000000 		call	_ZN8UnitTest11CurrentTest7DetailsEv
 3755      00
 3756 171a 488B30   		movq	(%rax), %rsi
 3757 171d BA680000 		movl	$104, %edx
 3757      00
 3758 1722 4889DF   		movq	%rbx, %rdi
 3759 1725 E8000000 		call	_ZN8UnitTest11TestDetailsC1ERKS0_i
 3759      00
 3760 172a E8000000 		call	_ZN8UnitTest11CurrentTest7ResultsEv
 3760      00
 3761 172f 488B38   		movq	(%rax), %rdi
 3762 1732 BA000000 		movl	$.LC5, %edx
 3762      00
 3763 1737 4889DE   		movq	%rbx, %rsi
 3764 173a E8000000 		call	_ZN8UnitTest11TestResults13OnTestFailureERKNS_11TestDetailsEPKc
 3764      00
 3765              	.LEHE165:
 3766              	.LEHB166:
 3767 173f E8000000 		call	__cxa_end_catch
 3767      00
 3768              	.LEHE166:
 3769 1744 E989FBFF 		jmp	.L320
 3769      FF
 3770              	.L359:
 3771 1749 4889C3   		movq	%rax, %rbx
 3772 174c 0F1F4000 		.p2align 4,,5
 3773 1750 E8000000 		call	__cxa_end_catch
 3773      00
 3774 1755 4889DF   		movq	%rbx, %rdi
 3775              	.LEHB167:
 3776 1758 E8000000 		call	_Unwind_Resume
 3776      00
 3777              	.LEHE167:
 3778              	.L357:
 3779 175d 4889C3   		movq	%rax, %rbx
 3780 1760 E8000000 		call	__cxa_end_catch
 3780      00
 3781 1765 4889DF   		movq	%rbx, %rdi
 3782              	.LEHB168:
 3783 1768 E8000000 		call	_Unwind_Resume
 3783      00
 3784              	.LEHE168:
 3785              	.L354:
 3786 176d 4889C7   		movq	%rax, %rdi
 3787 1770 E8000000 		call	__cxa_begin_catch
 3787      00
 3788              	.LEHB169:
 3789 1775 E8000000 		call	_ZN8UnitTest11CurrentTest7DetailsEv
 3789      00
 3790 177a 488B30   		movq	(%rax), %rsi
 3791 177d BA630000 		movl	$99, %edx
 3791      00
 3792 1782 4889DF   		movq	%rbx, %rdi
 3793 1785 E8000000 		call	_ZN8UnitTest11TestDetailsC1ERKS0_i
 3793      00
 3794 178a E8000000 		call	_ZN8UnitTest11CurrentTest7ResultsEv
 3794      00
 3795 178f 488B38   		movq	(%rax), %rdi
 3796 1792 BA000000 		movl	$.LC15, %edx
 3796      00
 3797 1797 4889DE   		movq	%rbx, %rsi
 3798 179a E8000000 		call	_ZN8UnitTest11TestResults13OnTestFailureERKNS_11TestDetailsEPKc
 3798      00
 3799              	.LEHE169:
 3800              	.LEHB170:
 3801 179f E8000000 		call	__cxa_end_catch
 3801      00
 3802              	.LEHE170:
 3803 17a4 E9DCFAFF 		jmp	.L317
 3803      FF
 3804              	.L352:
 3805 17a9 4889C7   		movq	%rax, %rdi
 3806 17ac 0F1F4000 		.p2align 4,,5
 3807 17b0 E8000000 		call	__cxa_begin_catch
 3807      00
 3808              		.p2align 4,,5
 3809              	.LEHB171:
 3810 17b5 E8000000 		call	_ZN8UnitTest11CurrentTest7DetailsEv
 3810      00
 3811 17ba 488B30   		movq	(%rax), %rsi
 3812 17bd BA620000 		movl	$98, %edx
 3812      00
 3813 17c2 4889DF   		movq	%rbx, %rdi
 3814 17c5 E8000000 		call	_ZN8UnitTest11TestDetailsC1ERKS0_i
 3814      00
 3815 17ca E8000000 		call	_ZN8UnitTest11CurrentTest7ResultsEv
 3815      00
 3816 17cf 488B38   		movq	(%rax), %rdi
 3817 17d2 BA000000 		movl	$.LC4, %edx
 3817      00
 3818 17d7 4889DE   		movq	%rbx, %rsi
 3819 17da E8000000 		call	_ZN8UnitTest11TestResults13OnTestFailureERKNS_11TestDetailsEPKc
 3819      00
 3820              	.LEHE171:
 3821              	.LEHB172:
 3822 17df E8000000 		call	__cxa_end_catch
 3822      00
 3823              	.LEHE172:
 3824 17e4 E961FAFF 		jmp	.L314
 3824      FF
 3825              	.L355:
 3826 17e9 4889C3   		movq	%rax, %rbx
 3827 17ec 0F1F4000 		.p2align 4,,5
 3828 17f0 E8000000 		call	__cxa_end_catch
 3828      00
 3829 17f5 4889DF   		movq	%rbx, %rdi
 3830              	.LEHB173:
 3831 17f8 E8000000 		call	_Unwind_Resume
 3831      00
 3832              	.LEHE173:
 3833              	.L353:
 3834 17fd 4889C3   		movq	%rax, %rbx
 3835 1800 E8000000 		call	__cxa_end_catch
 3835      00
 3836 1805 4889DF   		movq	%rbx, %rdi
 3837              	.LEHB174:
 3838 1808 E8000000 		call	_Unwind_Resume
 3838      00
 3839              	.LEHE174:
 3840              	.L350:
 3841 180d 4889C7   		movq	%rax, %rdi
 3842 1810 E8000000 		call	__cxa_begin_catch
 3842      00
 3843              	.LEHB175:
 3844 1815 E8000000 		call	_ZN8UnitTest11CurrentTest7DetailsEv
 3844      00
 3845 181a 488B30   		movq	(%rax), %rsi
 3846 181d BA5E0000 		movl	$94, %edx
 3846      00
 3847 1822 4889DF   		movq	%rbx, %rdi
 3848 1825 E8000000 		call	_ZN8UnitTest11TestDetailsC1ERKS0_i
 3848      00
 3849 182a E8000000 		call	_ZN8UnitTest11CurrentTest7ResultsEv
 3849      00
 3850 182f 488B38   		movq	(%rax), %rdi
 3851 1832 BA000000 		movl	$.LC14, %edx
 3851      00
 3852 1837 4889DE   		movq	%rbx, %rsi
 3853 183a E8000000 		call	_ZN8UnitTest11TestResults13OnTestFailureERKNS_11TestDetailsEPKc
 3853      00
 3854              	.LEHE175:
 3855              	.LEHB176:
 3856 183f E8000000 		call	__cxa_end_catch
 3856      00
 3857              	.LEHE176:
 3858 1844 E9A2F9FF 		jmp	.L311
 3858      FF
 3859              	.L348:
 3860 1849 4889C7   		movq	%rax, %rdi
 3861 184c 0F1F4000 		.p2align 4,,5
 3862 1850 E8000000 		call	__cxa_begin_catch
 3862      00
 3863              		.p2align 4,,5
 3864              	.LEHB177:
 3865 1855 E8000000 		call	_ZN8UnitTest11CurrentTest7DetailsEv
 3865      00
 3866 185a 488B30   		movq	(%rax), %rsi
 3867 185d BA5D0000 		movl	$93, %edx
 3867      00
 3868 1862 4889DF   		movq	%rbx, %rdi
 3869 1865 E8000000 		call	_ZN8UnitTest11TestDetailsC1ERKS0_i
 3869      00
 3870 186a E8000000 		call	_ZN8UnitTest11CurrentTest7ResultsEv
 3870      00
 3871 186f 488B38   		movq	(%rax), %rdi
 3872 1872 BA000000 		movl	$.LC4, %edx
 3872      00
 3873 1877 4889DE   		movq	%rbx, %rsi
 3874 187a E8000000 		call	_ZN8UnitTest11TestResults13OnTestFailureERKNS_11TestDetailsEPKc
 3874      00
 3875              	.LEHE177:
 3876              	.LEHB178:
 3877 187f E8000000 		call	__cxa_end_catch
 3877      00
 3878              	.LEHE178:
 3879 1884 E927F9FF 		jmp	.L308
 3879      FF
 3880              	.L351:
 3881 1889 4889C3   		movq	%rax, %rbx
 3882 188c 0F1F4000 		.p2align 4,,5
 3883 1890 E8000000 		call	__cxa_end_catch
 3883      00
 3884 1895 4889DF   		movq	%rbx, %rdi
 3885              	.LEHB179:
 3886 1898 E8000000 		call	_Unwind_Resume
 3886      00
 3887              	.LEHE179:
 3888              	.L349:
 3889 189d 4889C3   		movq	%rax, %rbx
 3890 18a0 E8000000 		call	__cxa_end_catch
 3890      00
 3891 18a5 4889DF   		movq	%rbx, %rdi
 3892              	.LEHB180:
 3893 18a8 E8000000 		call	_Unwind_Resume
 3893      00
 3894              	.LEHE180:
 3895              	.L346:
 3896 18ad 4889C7   		movq	%rax, %rdi
 3897 18b0 E8000000 		call	__cxa_begin_catch
 3897      00
 3898              	.LEHB181:
 3899 18b5 E8000000 		call	_ZN8UnitTest11CurrentTest7DetailsEv
 3899      00
 3900 18ba 488B30   		movq	(%rax), %rsi
 3901 18bd BA590000 		movl	$89, %edx
 3901      00
 3902 18c2 4889DF   		movq	%rbx, %rdi
 3903 18c5 E8000000 		call	_ZN8UnitTest11TestDetailsC1ERKS0_i
 3903      00
 3904 18ca E8000000 		call	_ZN8UnitTest11CurrentTest7ResultsEv
 3904      00
 3905 18cf 488B38   		movq	(%rax), %rdi
 3906 18d2 BA000000 		movl	$.LC13, %edx
 3906      00
 3907 18d7 4889DE   		movq	%rbx, %rsi
 3908 18da E8000000 		call	_ZN8UnitTest11TestResults13OnTestFailureERKNS_11TestDetailsEPKc
 3908      00
 3909              	.LEHE181:
 3910              	.LEHB182:
 3911 18df E8000000 		call	__cxa_end_catch
 3911      00
 3912              	.LEHE182:
 3913 18e4 E968F8FF 		jmp	.L305
 3913      FF
 3914              	.L344:
 3915 18e9 4889C7   		movq	%rax, %rdi
 3916 18ec 0F1F4000 		.p2align 4,,5
 3917 18f0 E8000000 		call	__cxa_begin_catch
 3917      00
 3918              		.p2align 4,,5
 3919              	.LEHB183:
 3920 18f5 E8000000 		call	_ZN8UnitTest11CurrentTest7DetailsEv
 3920      00
 3921 18fa 488B30   		movq	(%rax), %rsi
 3922 18fd BA580000 		movl	$88, %edx
 3922      00
 3923 1902 4889DF   		movq	%rbx, %rdi
 3924 1905 E8000000 		call	_ZN8UnitTest11TestDetailsC1ERKS0_i
 3924      00
 3925 190a E8000000 		call	_ZN8UnitTest11CurrentTest7ResultsEv
 3925      00
 3926 190f 488B38   		movq	(%rax), %rdi
 3927 1912 BA000000 		movl	$.LC4, %edx
 3927      00
 3928 1917 4889DE   		movq	%rbx, %rsi
 3929 191a E8000000 		call	_ZN8UnitTest11TestResults13OnTestFailureERKNS_11TestDetailsEPKc
 3929      00
 3930              	.LEHE183:
 3931              	.LEHB184:
 3932 191f E8000000 		call	__cxa_end_catch
 3932      00
 3933              	.LEHE184:
 3934 1924 E9EDF7FF 		jmp	.L302
 3934      FF
 3935              	.L347:
 3936 1929 4889C3   		movq	%rax, %rbx
 3937 192c 0F1F4000 		.p2align 4,,5
 3938 1930 E8000000 		call	__cxa_end_catch
 3938      00
 3939 1935 4889DF   		movq	%rbx, %rdi
 3940              	.LEHB185:
 3941 1938 E8000000 		call	_Unwind_Resume
 3941      00
 3942              	.LEHE185:
 3943              	.L345:
 3944 193d 4889C3   		movq	%rax, %rbx
 3945 1940 E8000000 		call	__cxa_end_catch
 3945      00
 3946 1945 4889DF   		movq	%rbx, %rdi
 3947              	.LEHB186:
 3948 1948 E8000000 		call	_Unwind_Resume
 3948      00
 3949              	.LEHE186:
 3950              		.cfi_endproc
 3951              	.LFE1111:
 3952              		.section	.gcc_except_table
 3953              		.align 4
 3954              	.LLSDA1111:
 3955 02d4 FF       		.byte	0xff
 3956 02d5 03       		.byte	0x3
 3957 02d6 F002     		.uleb128 .LLSDATT1111-.LLSDATTD1111
 3958              	.LLSDATTD1111:
 3959 02d8 01       		.byte	0x1
 3960 02d9 E402     		.uleb128 .LLSDACSE1111-.LLSDACSB1111
 3961              	.LLSDACSB1111:
 3962 02db 27       		.uleb128 .LEHB121-.LFB1111
 3963 02dc 05       		.uleb128 .LEHE121-.LEHB121
 3964 02dd 00       		.uleb128 0
 3965 02de 00       		.uleb128 0
 3966 02df 30       		.uleb128 .LEHB122-.LFB1111
 3967 02e0 3C       		.uleb128 .LEHE122-.LEHB122
 3968 02e1 BD08     		.uleb128 .L342-.LFB1111
 3969 02e3 01       		.uleb128 0x1
 3970 02e4 76       		.uleb128 .LEHB123-.LFB1111
 3971 02e5 05       		.uleb128 .LEHE123-.LEHB123
 3972 02e6 00       		.uleb128 0
 3973 02e7 00       		.uleb128 0
 3974 02e8 7F       		.uleb128 .LEHB124-.LFB1111
 3975 02e9 37       		.uleb128 .LEHE124-.LEHB124
 3976 02ea 8911     		.uleb128 .L344-.LFB1111
 3977 02ec 01       		.uleb128 0x1
 3978 02ed B601     		.uleb128 .LEHB125-.LFB1111
 3979 02ef 3B       		.uleb128 .LEHE125-.LEHB125
 3980 02f0 CD10     		.uleb128 .L346-.LFB1111
 3981 02f2 01       		.uleb128 0x1
 3982 02f3 8102     		.uleb128 .LEHB126-.LFB1111
 3983 02f5 14       		.uleb128 .LEHE126-.LEHB126
 3984 02f6 00       		.uleb128 0
 3985 02f7 00       		.uleb128 0
 3986 02f8 9902     		.uleb128 .LEHB127-.LFB1111
 3987 02fa 37       		.uleb128 .LEHE127-.LEHB127
 3988 02fb E90F     		.uleb128 .L348-.LFB1111
 3989 02fd 01       		.uleb128 0x1
 3990 02fe D002     		.uleb128 .LEHB128-.LFB1111
 3991 0300 3B       		.uleb128 .LEHE128-.LEHB128
 3992 0301 AD0F     		.uleb128 .L350-.LFB1111
 3993 0303 01       		.uleb128 0x1
 3994 0304 9B03     		.uleb128 .LEHB129-.LFB1111
 3995 0306 14       		.uleb128 .LEHE129-.LEHB129
 3996 0307 00       		.uleb128 0
 3997 0308 00       		.uleb128 0
 3998 0309 B303     		.uleb128 .LEHB130-.LFB1111
 3999 030b 37       		.uleb128 .LEHE130-.LEHB130
 4000 030c C90E     		.uleb128 .L352-.LFB1111
 4001 030e 01       		.uleb128 0x1
 4002 030f EA03     		.uleb128 .LEHB131-.LFB1111
 4003 0311 3B       		.uleb128 .LEHE131-.LEHB131
 4004 0312 8D0E     		.uleb128 .L354-.LFB1111
 4005 0314 01       		.uleb128 0x1
 4006 0315 B504     		.uleb128 .LEHB132-.LFB1111
 4007 0317 05       		.uleb128 .LEHE132-.LEHB132
 4008 0318 00       		.uleb128 0
 4009 0319 00       		.uleb128 0
 4010 031a BA04     		.uleb128 .LEHB133-.LFB1111
 4011 031c 38       		.uleb128 .LEHE133-.LEHB133
 4012 031d A90D     		.uleb128 .L356-.LFB1111
 4013 031f 01       		.uleb128 0x1
 4014 0320 F204     		.uleb128 .LEHB134-.LFB1111
 4015 0322 38       		.uleb128 .LEHE134-.LEHB134
 4016 0323 ED0C     		.uleb128 .L358-.LFB1111
 4017 0325 01       		.uleb128 0x1
 4018 0326 AA05     		.uleb128 .LEHB135-.LFB1111
 4019 0328 38       		.uleb128 .LEHE135-.LEHB135
 4020 0329 890C     		.uleb128 .L360-.LFB1111
 4021 032b 01       		.uleb128 0x1
 4022 032c E205     		.uleb128 .LEHB136-.LFB1111
 4023 032e 38       		.uleb128 .LEHE136-.LEHB136
 4024 032f CD0B     		.uleb128 .L362-.LFB1111
 4025 0331 01       		.uleb128 0x1
 4026 0332 9A06     		.uleb128 .LEHB137-.LFB1111
 4027 0334 43       		.uleb128 .LEHE137-.LEHB137
 4028 0335 E90A     		.uleb128 .L364-.LFB1111
 4029 0337 01       		.uleb128 0x1
 4030 0338 DD06     		.uleb128 .LEHB138-.LFB1111
 4031 033a 44       		.uleb128 .LEHE138-.LEHB138
 4032 033b AD0A     		.uleb128 .L366-.LFB1111
 4033 033d 01       		.uleb128 0x1
 4034 033e A107     		.uleb128 .LEHB139-.LFB1111
 4035 0340 44       		.uleb128 .LEHE139-.LEHB139
 4036 0341 BA09     		.uleb128 .L368-.LFB1111
 4037 0343 01       		.uleb128 0x1
 4038 0344 E507     		.uleb128 .LEHB140-.LFB1111
 4039 0346 44       		.uleb128 .LEHE140-.LEHB140
 4040 0347 FE08     		.uleb128 .L370-.LFB1111
 4041 0349 01       		.uleb128 0x1
 4042 034a AE08     		.uleb128 .LEHB141-.LFB1111
 4043 034c 05       		.uleb128 .LEHE141-.LEHB141
 4044 034d 00       		.uleb128 0
 4045 034e 00       		.uleb128 0
 4046 034f C508     		.uleb128 .LEHB142-.LFB1111
 4047 0351 2F       		.uleb128 .LEHE142-.LEHB142
 4048 0352 F909     		.uleb128 .L343-.LFB1111
 4049 0354 00       		.uleb128 0
 4050 0355 F408     		.uleb128 .LEHB143-.LFB1111
 4051 0357 05       		.uleb128 .LEHE143-.LEHB143
 4052 0358 00       		.uleb128 0
 4053 0359 00       		.uleb128 0
 4054 035a 8609     		.uleb128 .LEHB144-.LFB1111
 4055 035c 2A       		.uleb128 .LEHE144-.LEHB144
 4056 035d 8D0A     		.uleb128 .L371-.LFB1111
 4057 035f 00       		.uleb128 0
 4058 0360 B009     		.uleb128 .LEHB145-.LFB1111
 4059 0362 05       		.uleb128 .LEHE145-.LEHB145
 4060 0363 00       		.uleb128 0
 4061 0364 00       		.uleb128 0
 4062 0365 C509     		.uleb128 .LEHB146-.LFB1111
 4063 0367 2A       		.uleb128 .LEHE146-.LEHB146
 4064 0368 9D0A     		.uleb128 .L369-.LFB1111
 4065 036a 00       		.uleb128 0
 4066 036b EF09     		.uleb128 .LEHB147-.LFB1111
 4067 036d 05       		.uleb128 .LEHE147-.LEHB147
 4068 036e 00       		.uleb128 0
 4069 036f 00       		.uleb128 0
 4070 0370 880A     		.uleb128 .LEHB148-.LFB1111
 4071 0372 05       		.uleb128 .LEHE148-.LEHB148
 4072 0373 00       		.uleb128 0
 4073 0374 00       		.uleb128 0
 4074 0375 980A     		.uleb128 .LEHB149-.LFB1111
 4075 0377 05       		.uleb128 .LEHE149-.LEHB149
 4076 0378 00       		.uleb128 0
 4077 0379 00       		.uleb128 0
 4078 037a A80A     		.uleb128 .LEHB150-.LFB1111
 4079 037c 05       		.uleb128 .LEHE150-.LEHB150
 4080 037d 00       		.uleb128 0
 4081 037e 00       		.uleb128 0
 4082 037f B50A     		.uleb128 .LEHB151-.LFB1111
 4083 0381 2A       		.uleb128 .LEHE151-.LEHB151
 4084 0382 A90B     		.uleb128 .L367-.LFB1111
 4085 0384 00       		.uleb128 0
 4086 0385 DF0A     		.uleb128 .LEHB152-.LFB1111
 4087 0387 05       		.uleb128 .LEHE152-.LEHB152
 4088 0388 00       		.uleb128 0
 4089 0389 00       		.uleb128 0
 4090 038a F50A     		.uleb128 .LEHB153-.LFB1111
 4091 038c 2A       		.uleb128 .LEHE153-.LEHB153
 4092 038d BD0B     		.uleb128 .L365-.LFB1111
 4093 038f 00       		.uleb128 0
 4094 0390 9F0B     		.uleb128 .LEHB154-.LFB1111
 4095 0392 05       		.uleb128 .LEHE154-.LEHB154
 4096 0393 00       		.uleb128 0
 4097 0394 00       		.uleb128 0
 4098 0395 B80B     		.uleb128 .LEHB155-.LFB1111
 4099 0397 05       		.uleb128 .LEHE155-.LEHB155
 4100 0398 00       		.uleb128 0
 4101 0399 00       		.uleb128 0
 4102 039a C80B     		.uleb128 .LEHB156-.LFB1111
 4103 039c 05       		.uleb128 .LEHE156-.LEHB156
 4104 039d 00       		.uleb128 0
 4105 039e 00       		.uleb128 0
 4106 039f D50B     		.uleb128 .LEHB157-.LFB1111
 4107 03a1 2A       		.uleb128 .LEHE157-.LEHB157
 4108 03a2 C90C     		.uleb128 .L363-.LFB1111
 4109 03a4 00       		.uleb128 0
 4110 03a5 FF0B     		.uleb128 .LEHB158-.LFB1111
 4111 03a7 05       		.uleb128 .LEHE158-.LEHB158
 4112 03a8 00       		.uleb128 0
 4113 03a9 00       		.uleb128 0
 4114 03aa 950C     		.uleb128 .LEHB159-.LFB1111
 4115 03ac 2A       		.uleb128 .LEHE159-.LEHB159
 4116 03ad DD0C     		.uleb128 .L361-.LFB1111
 4117 03af 00       		.uleb128 0
 4118 03b0 BF0C     		.uleb128 .LEHB160-.LFB1111
 4119 03b2 05       		.uleb128 .LEHE160-.LEHB160
 4120 03b3 00       		.uleb128 0
 4121 03b4 00       		.uleb128 0
 4122 03b5 D80C     		.uleb128 .LEHB161-.LFB1111
 4123 03b7 05       		.uleb128 .LEHE161-.LEHB161
 4124 03b8 00       		.uleb128 0
 4125 03b9 00       		.uleb128 0
 4126 03ba E80C     		.uleb128 .LEHB162-.LFB1111
 4127 03bc 05       		.uleb128 .LEHE162-.LEHB162
 4128 03bd 00       		.uleb128 0
 4129 03be 00       		.uleb128 0
 4130 03bf F50C     		.uleb128 .LEHB163-.LFB1111
 4131 03c1 2A       		.uleb128 .LEHE163-.LEHB163
 4132 03c2 E90D     		.uleb128 .L359-.LFB1111
 4133 03c4 00       		.uleb128 0
 4134 03c5 9F0D     		.uleb128 .LEHB164-.LFB1111
 4135 03c7 05       		.uleb128 .LEHE164-.LEHB164
 4136 03c8 00       		.uleb128 0
 4137 03c9 00       		.uleb128 0
 4138 03ca B50D     		.uleb128 .LEHB165-.LFB1111
 4139 03cc 2A       		.uleb128 .LEHE165-.LEHB165
 4140 03cd FD0D     		.uleb128 .L357-.LFB1111
 4141 03cf 00       		.uleb128 0
 4142 03d0 DF0D     		.uleb128 .LEHB166-.LFB1111
 4143 03d2 05       		.uleb128 .LEHE166-.LEHB166
 4144 03d3 00       		.uleb128 0
 4145 03d4 00       		.uleb128 0
 4146 03d5 F80D     		.uleb128 .LEHB167-.LFB1111
 4147 03d7 05       		.uleb128 .LEHE167-.LEHB167
 4148 03d8 00       		.uleb128 0
 4149 03d9 00       		.uleb128 0
 4150 03da 880E     		.uleb128 .LEHB168-.LFB1111
 4151 03dc 05       		.uleb128 .LEHE168-.LEHB168
 4152 03dd 00       		.uleb128 0
 4153 03de 00       		.uleb128 0
 4154 03df 950E     		.uleb128 .LEHB169-.LFB1111
 4155 03e1 2A       		.uleb128 .LEHE169-.LEHB169
 4156 03e2 890F     		.uleb128 .L355-.LFB1111
 4157 03e4 00       		.uleb128 0
 4158 03e5 BF0E     		.uleb128 .LEHB170-.LFB1111
 4159 03e7 05       		.uleb128 .LEHE170-.LEHB170
 4160 03e8 00       		.uleb128 0
 4161 03e9 00       		.uleb128 0
 4162 03ea D50E     		.uleb128 .LEHB171-.LFB1111
 4163 03ec 2A       		.uleb128 .LEHE171-.LEHB171
 4164 03ed 9D0F     		.uleb128 .L353-.LFB1111
 4165 03ef 00       		.uleb128 0
 4166 03f0 FF0E     		.uleb128 .LEHB172-.LFB1111
 4167 03f2 05       		.uleb128 .LEHE172-.LEHB172
 4168 03f3 00       		.uleb128 0
 4169 03f4 00       		.uleb128 0
 4170 03f5 980F     		.uleb128 .LEHB173-.LFB1111
 4171 03f7 05       		.uleb128 .LEHE173-.LEHB173
 4172 03f8 00       		.uleb128 0
 4173 03f9 00       		.uleb128 0
 4174 03fa A80F     		.uleb128 .LEHB174-.LFB1111
 4175 03fc 05       		.uleb128 .LEHE174-.LEHB174
 4176 03fd 00       		.uleb128 0
 4177 03fe 00       		.uleb128 0
 4178 03ff B50F     		.uleb128 .LEHB175-.LFB1111
 4179 0401 2A       		.uleb128 .LEHE175-.LEHB175
 4180 0402 A910     		.uleb128 .L351-.LFB1111
 4181 0404 00       		.uleb128 0
 4182 0405 DF0F     		.uleb128 .LEHB176-.LFB1111
 4183 0407 05       		.uleb128 .LEHE176-.LEHB176
 4184 0408 00       		.uleb128 0
 4185 0409 00       		.uleb128 0
 4186 040a F50F     		.uleb128 .LEHB177-.LFB1111
 4187 040c 2A       		.uleb128 .LEHE177-.LEHB177
 4188 040d BD10     		.uleb128 .L349-.LFB1111
 4189 040f 00       		.uleb128 0
 4190 0410 9F10     		.uleb128 .LEHB178-.LFB1111
 4191 0412 05       		.uleb128 .LEHE178-.LEHB178
 4192 0413 00       		.uleb128 0
 4193 0414 00       		.uleb128 0
 4194 0415 B810     		.uleb128 .LEHB179-.LFB1111
 4195 0417 05       		.uleb128 .LEHE179-.LEHB179
 4196 0418 00       		.uleb128 0
 4197 0419 00       		.uleb128 0
 4198 041a C810     		.uleb128 .LEHB180-.LFB1111
 4199 041c 05       		.uleb128 .LEHE180-.LEHB180
 4200 041d 00       		.uleb128 0
 4201 041e 00       		.uleb128 0
 4202 041f D510     		.uleb128 .LEHB181-.LFB1111
 4203 0421 2A       		.uleb128 .LEHE181-.LEHB181
 4204 0422 C911     		.uleb128 .L347-.LFB1111
 4205 0424 00       		.uleb128 0
 4206 0425 FF10     		.uleb128 .LEHB182-.LFB1111
 4207 0427 05       		.uleb128 .LEHE182-.LEHB182
 4208 0428 00       		.uleb128 0
 4209 0429 00       		.uleb128 0
 4210 042a 9511     		.uleb128 .LEHB183-.LFB1111
 4211 042c 2A       		.uleb128 .LEHE183-.LEHB183
 4212 042d DD11     		.uleb128 .L345-.LFB1111
 4213 042f 00       		.uleb128 0
 4214 0430 BF11     		.uleb128 .LEHB184-.LFB1111
 4215 0432 05       		.uleb128 .LEHE184-.LEHB184
 4216 0433 00       		.uleb128 0
 4217 0434 00       		.uleb128 0
 4218 0435 D811     		.uleb128 .LEHB185-.LFB1111
 4219 0437 05       		.uleb128 .LEHE185-.LEHB185
 4220 0438 00       		.uleb128 0
 4221 0439 00       		.uleb128 0
 4222 043a E811     		.uleb128 .LEHB186-.LFB1111
 4223 043c 05       		.uleb128 .LEHE186-.LEHB186
 4224 043d 00       		.uleb128 0
 4225 043e 00       		.uleb128 0
 4226              	.LLSDACSE1111:
 4227 043f 01       		.byte	0x1
 4228 0440 00       		.byte	0
 4229 0441 000000   		.align 4
 4230 0444 00000000 		.long	0
 4231              	
 4232              	.LLSDATT1111:
 4233              		.text
 4235              		.section	.rodata.str1.8
 4236 048b 00000000 		.align 8
 4236      00
 4237              	.LC21:
 4238 0490 556E6861 		.string	"Unhandled exception in CHECK_EQUAL(4UL, *item)"
 4238      6E646C65 
 4238      64206578 
 4238      63657074 
 4238      696F6E20 
 4239 04bf 00       		.align 8
 4240              	.LC22:
 4241 04c0 556E6861 		.string	"Unhandled exception in CHECK_EQUAL(4UL, queue.numItems)"
 4241      6E646C65 
 4241      64206578 
 4241      63657074 
 4241      696F6E20 
 4242              		.align 8
 4243              	.LC23:
 4244 04f8 556E6861 		.string	"Unhandled exception in CHECK_EQUAL(8UL, deref(queue.itemArray[3]))"
 4244      6E646C65 
 4244      64206578 
 4244      63657074 
 4244      696F6E20 
 4245              		.text
 4246 194d 90       		.align 2
 4247 194e 6690     		.p2align 4,,15
 4248              		.globl	_ZNK21TestQueue_testPutWrap7RunImplEv
 4250              	_ZNK21TestQueue_testPutWrap7RunImplEv:
 4251              	.LFB1115:
 4252              		.cfi_startproc
 4253              		.cfi_personality 0x3,__gxx_personality_v0
 4254              		.cfi_lsda 0x3,.LLSDA1115
 4255 1950 55       		pushq	%rbp
 4256              		.cfi_def_cfa_offset 16
 4257              		.cfi_offset 6, -16
 4258 1951 B9000000 		movl	$destroyInt, %ecx
 4258      00
 4259 1956 BA000000 		movl	$createInt, %edx
 4259      00
 4260 195b BE040000 		movl	$4, %esi
 4260      00
 4261 1960 53       		pushq	%rbx
 4262              		.cfi_def_cfa_offset 24
 4263              		.cfi_offset 3, -24
 4264 1961 4881EC98 		subq	$152, %rsp
 4264      000000
 4265              		.cfi_def_cfa_offset 176
 4266 1968 C7050000 		movl	$1, _ZL7m_count(%rip)
 4266      00000100 
 4266      0000
 4267 1972 488D7C24 		leaq	80(%rsp), %rdi
 4267      50
 4268              	.LEHB187:
 4269 1977 E8000000 		call	queueInit
 4269      00
 4270              	.LEHE187:
 4271 197c 8944240C 		movl	%eax, 12(%rsp)
 4272              	.LEHB188:
 4273 1980 E8000000 		call	_ZN8UnitTest11CurrentTest7DetailsEv
 4273      00
 4274 1985 488D5C24 		leaq	48(%rsp), %rbx
 4274      30
 4275 198a 488B30   		movq	(%rax), %rsi
 4276 198d BA7E0000 		movl	$126, %edx
 4276      00
 4277 1992 4889DF   		movq	%rbx, %rdi
 4278 1995 E8000000 		call	_ZN8UnitTest11TestDetailsC1ERKS0_i
 4278      00
 4279 199a C7442420 		movl	$0, 32(%rsp)
 4279      00000000 
 4280 19a2 E8000000 		call	_ZN8UnitTest11CurrentTest7ResultsEv
 4280      00
 4281 19a7 488B38   		movq	(%rax), %rdi
 4282 19aa 488D5424 		leaq	12(%rsp), %rdx
 4282      0C
 4283 19af 488D7424 		leaq	32(%rsp), %rsi
 4283      20
 4284 19b4 4889D9   		movq	%rbx, %rcx
 4285 19b7 E8000000 		call	_ZN8UnitTest10CheckEqualI9USBStatusS1_EEvRNS_11TestResultsERKT_RKT0_RKNS_11TestDetailsE
 4285      00
 4286              	.LEHE188:
 4287              	.L377:
 4288 19bc 488D7424 		leaq	16(%rsp), %rsi
 4288      10
 4289 19c1 488D7C24 		leaq	80(%rsp), %rdi
 4289      50
 4290              	.LEHB189:
 4291 19c6 E8000000 		call	queuePut
 4291      00
 4292              	.LEHE189:
 4293 19cb 8944240C 		movl	%eax, 12(%rsp)
 4294              	.LEHB190:
 4295 19cf E8000000 		call	_ZN8UnitTest11CurrentTest7DetailsEv
 4295      00
 4296 19d4 488B30   		movq	(%rax), %rsi
 4297 19d7 BA820000 		movl	$130, %edx
 4297      00
 4298 19dc 4889DF   		movq	%rbx, %rdi
 4299 19df E8000000 		call	_ZN8UnitTest11TestDetailsC1ERKS0_i
 4299      00
 4300 19e4 C7442420 		movl	$0, 32(%rsp)
 4300      00000000 
 4301 19ec E8000000 		call	_ZN8UnitTest11CurrentTest7ResultsEv
 4301      00
 4302 19f1 488B38   		movq	(%rax), %rdi
 4303 19f4 488D5424 		leaq	12(%rsp), %rdx
 4303      0C
 4304 19f9 488D7424 		leaq	32(%rsp), %rsi
 4304      20
 4305 19fe 4889D9   		movq	%rbx, %rcx
 4306 1a01 E8000000 		call	_ZN8UnitTest10CheckEqualI9USBStatusS1_EEvRNS_11TestResultsERKT_RKT0_RKNS_11TestDetailsE
 4306      00
 4307              	.LEHE190:
 4308              	.L380:
 4309              	.LEHB191:
 4310 1a06 E8000000 		call	_ZN8UnitTest11CurrentTest7DetailsEv
 4310      00
 4311 1a0b 488B30   		movq	(%rax), %rsi
 4312 1a0e BA830000 		movl	$131, %edx
 4312      00
 4313 1a13 4889DF   		movq	%rbx, %rdi
 4314 1a16 E8000000 		call	_ZN8UnitTest11TestDetailsC1ERKS0_i
 4314      00
 4315 1a1b 488B6C24 		movq	16(%rsp), %rbp
 4315      10
 4316 1a20 48C74424 		movq	$1, 32(%rsp)
 4316      20010000 
 4316      00
 4317 1a29 E8000000 		call	_ZN8UnitTest11CurrentTest7ResultsEv
 4317      00
 4318 1a2e 488B38   		movq	(%rax), %rdi
 4319 1a31 488D7424 		leaq	32(%rsp), %rsi
 4319      20
 4320 1a36 4889D9   		movq	%rbx, %rcx
 4321 1a39 4889EA   		movq	%rbp, %rdx
 4322 1a3c E8000000 		call	_ZN8UnitTest10CheckEqualImjEEvRNS_11TestResultsERKT_RKT0_RKNS_11TestDetailsE
 4322      00
 4323              	.LEHE191:
 4324              	.L383:
 4325 1a41 488B4424 		movq	16(%rsp), %rax
 4325      10
 4326 1a46 488D7C24 		leaq	80(%rsp), %rdi
 4326      50
 4327 1a4b C7000500 		movl	$5, (%rax)
 4327      0000
 4328              	.LEHB192:
 4329 1a51 E8000000 		call	queueCommitPut
 4329      00
 4330 1a56 488D7424 		leaq	16(%rsp), %rsi
 4330      10
 4331 1a5b 488D7C24 		leaq	80(%rsp), %rdi
 4331      50
 4332 1a60 E8000000 		call	queuePut
 4332      00
 4333              	.LEHE192:
 4334 1a65 8944240C 		movl	%eax, 12(%rsp)
 4335              	.LEHB193:
 4336 1a69 E8000000 		call	_ZN8UnitTest11CurrentTest7DetailsEv
 4336      00
 4337 1a6e 488B30   		movq	(%rax), %rsi
 4338 1a71 BA870000 		movl	$135, %edx
 4338      00
 4339 1a76 4889DF   		movq	%rbx, %rdi
 4340 1a79 E8000000 		call	_ZN8UnitTest11TestDetailsC1ERKS0_i
 4340      00
 4341 1a7e C7442420 		movl	$0, 32(%rsp)
 4341      00000000 
 4342 1a86 E8000000 		call	_ZN8UnitTest11CurrentTest7ResultsEv
 4342      00
 4343 1a8b 488B38   		movq	(%rax), %rdi
 4344 1a8e 488D5424 		leaq	12(%rsp), %rdx
 4344      0C
 4345 1a93 488D7424 		leaq	32(%rsp), %rsi
 4345      20
 4346 1a98 4889D9   		movq	%rbx, %rcx
 4347 1a9b E8000000 		call	_ZN8UnitTest10CheckEqualI9USBStatusS1_EEvRNS_11TestResultsERKT_RKT0_RKNS_11TestDetailsE
 4347      00
 4348              	.LEHE193:
 4349              	.L386:
 4350              	.LEHB194:
 4351 1aa0 E8000000 		call	_ZN8UnitTest11CurrentTest7DetailsEv
 4351      00
 4352 1aa5 488B30   		movq	(%rax), %rsi
 4353 1aa8 BA880000 		movl	$136, %edx
 4353      00
 4354 1aad 4889DF   		movq	%rbx, %rdi
 4355 1ab0 E8000000 		call	_ZN8UnitTest11TestDetailsC1ERKS0_i
 4355      00
 4356 1ab5 488B6C24 		movq	16(%rsp), %rbp
 4356      10
 4357 1aba 48C74424 		movq	$2, 32(%rsp)
 4357      20020000 
 4357      00
 4358 1ac3 E8000000 		call	_ZN8UnitTest11CurrentTest7ResultsEv
 4358      00
 4359 1ac8 488B38   		movq	(%rax), %rdi
 4360 1acb 488D7424 		leaq	32(%rsp), %rsi
 4360      20
 4361 1ad0 4889D9   		movq	%rbx, %rcx
 4362 1ad3 4889EA   		movq	%rbp, %rdx
 4363 1ad6 E8000000 		call	_ZN8UnitTest10CheckEqualImjEEvRNS_11TestResultsERKT_RKT0_RKNS_11TestDetailsE
 4363      00
 4364              	.LEHE194:
 4365              	.L389:
 4366 1adb 488B4424 		movq	16(%rsp), %rax
 4366      10
 4367 1ae0 488D7C24 		leaq	80(%rsp), %rdi
 4367      50
 4368 1ae5 C7000600 		movl	$6, (%rax)
 4368      0000
 4369              	.LEHB195:
 4370 1aeb E8000000 		call	queueCommitPut
 4370      00
 4371 1af0 488D7424 		leaq	16(%rsp), %rsi
 4371      10
 4372 1af5 488D7C24 		leaq	80(%rsp), %rdi
 4372      50
 4373 1afa E8000000 		call	queuePut
 4373      00
 4374              	.LEHE195:
 4375 1aff 8944240C 		movl	%eax, 12(%rsp)
 4376              	.LEHB196:
 4377 1b03 E8000000 		call	_ZN8UnitTest11CurrentTest7DetailsEv
 4377      00
 4378 1b08 488B30   		movq	(%rax), %rsi
 4379 1b0b BA8C0000 		movl	$140, %edx
 4379      00
 4380 1b10 4889DF   		movq	%rbx, %rdi
 4381 1b13 E8000000 		call	_ZN8UnitTest11TestDetailsC1ERKS0_i
 4381      00
 4382 1b18 C7442420 		movl	$0, 32(%rsp)
 4382      00000000 
 4383 1b20 E8000000 		call	_ZN8UnitTest11CurrentTest7ResultsEv
 4383      00
 4384 1b25 488B38   		movq	(%rax), %rdi
 4385 1b28 488D5424 		leaq	12(%rsp), %rdx
 4385      0C
 4386 1b2d 488D7424 		leaq	32(%rsp), %rsi
 4386      20
 4387 1b32 4889D9   		movq	%rbx, %rcx
 4388 1b35 E8000000 		call	_ZN8UnitTest10CheckEqualI9USBStatusS1_EEvRNS_11TestResultsERKT_RKT0_RKNS_11TestDetailsE
 4388      00
 4389              	.LEHE196:
 4390              	.L392:
 4391              	.LEHB197:
 4392 1b3a E8000000 		call	_ZN8UnitTest11CurrentTest7DetailsEv
 4392      00
 4393 1b3f 488B30   		movq	(%rax), %rsi
 4394 1b42 BA8D0000 		movl	$141, %edx
 4394      00
 4395 1b47 4889DF   		movq	%rbx, %rdi
 4396 1b4a E8000000 		call	_ZN8UnitTest11TestDetailsC1ERKS0_i
 4396      00
 4397 1b4f 488B6C24 		movq	16(%rsp), %rbp
 4397      10
 4398 1b54 48C74424 		movq	$3, 32(%rsp)
 4398      20030000 
 4398      00
 4399 1b5d E8000000 		call	_ZN8UnitTest11CurrentTest7ResultsEv
 4399      00
 4400 1b62 488B38   		movq	(%rax), %rdi
 4401 1b65 488D7424 		leaq	32(%rsp), %rsi
 4401      20
 4402 1b6a 4889D9   		movq	%rbx, %rcx
 4403 1b6d 4889EA   		movq	%rbp, %rdx
 4404 1b70 E8000000 		call	_ZN8UnitTest10CheckEqualImjEEvRNS_11TestResultsERKT_RKT0_RKNS_11TestDetailsE
 4404      00
 4405              	.LEHE197:
 4406              	.L395:
 4407 1b75 488B4424 		movq	16(%rsp), %rax
 4407      10
 4408 1b7a 488D7C24 		leaq	80(%rsp), %rdi
 4408      50
 4409 1b7f C7000700 		movl	$7, (%rax)
 4409      0000
 4410              	.LEHB198:
 4411 1b85 E8000000 		call	queueCommitPut
 4411      00
 4412 1b8a 488D7424 		leaq	16(%rsp), %rsi
 4412      10
 4413 1b8f 488D7C24 		leaq	80(%rsp), %rdi
 4413      50
 4414 1b94 E8000000 		call	queuePut
 4414      00
 4415              	.LEHE198:
 4416 1b99 8944240C 		movl	%eax, 12(%rsp)
 4417              	.LEHB199:
 4418 1b9d E8000000 		call	_ZN8UnitTest11CurrentTest7DetailsEv
 4418      00
 4419 1ba2 488B30   		movq	(%rax), %rsi
 4420 1ba5 BA910000 		movl	$145, %edx
 4420      00
 4421 1baa 4889DF   		movq	%rbx, %rdi
 4422 1bad E8000000 		call	_ZN8UnitTest11TestDetailsC1ERKS0_i
 4422      00
 4423 1bb2 C7442420 		movl	$0, 32(%rsp)
 4423      00000000 
 4424 1bba E8000000 		call	_ZN8UnitTest11CurrentTest7ResultsEv
 4424      00
 4425 1bbf 488B38   		movq	(%rax), %rdi
 4426 1bc2 488D5424 		leaq	12(%rsp), %rdx
 4426      0C
 4427 1bc7 488D7424 		leaq	32(%rsp), %rsi
 4427      20
 4428 1bcc 4889D9   		movq	%rbx, %rcx
 4429 1bcf E8000000 		call	_ZN8UnitTest10CheckEqualI9USBStatusS1_EEvRNS_11TestResultsERKT_RKT0_RKNS_11TestDetailsE
 4429      00
 4430              	.LEHE199:
 4431              	.L398:
 4432              	.LEHB200:
 4433 1bd4 E8000000 		call	_ZN8UnitTest11CurrentTest7DetailsEv
 4433      00
 4434 1bd9 488B30   		movq	(%rax), %rsi
 4435 1bdc BA920000 		movl	$146, %edx
 4435      00
 4436 1be1 4889DF   		movq	%rbx, %rdi
 4437 1be4 E8000000 		call	_ZN8UnitTest11TestDetailsC1ERKS0_i
 4437      00
 4438 1be9 488B6C24 		movq	16(%rsp), %rbp
 4438      10
 4439 1bee 48C74424 		movq	$4, 32(%rsp)
 4439      20040000 
 4439      00
 4440 1bf7 E8000000 		call	_ZN8UnitTest11CurrentTest7ResultsEv
 4440      00
 4441 1bfc 488B38   		movq	(%rax), %rdi
 4442 1bff 488D7424 		leaq	32(%rsp), %rsi
 4442      20
 4443 1c04 4889D9   		movq	%rbx, %rcx
 4444 1c07 4889EA   		movq	%rbp, %rdx
 4445 1c0a E8000000 		call	_ZN8UnitTest10CheckEqualImjEEvRNS_11TestResultsERKT_RKT0_RKNS_11TestDetailsE
 4445      00
 4446              	.LEHE200:
 4447              	.L401:
 4448 1c0f 488B4424 		movq	16(%rsp), %rax
 4448      10
 4449 1c14 488D7C24 		leaq	80(%rsp), %rdi
 4449      50
 4450 1c19 C7000800 		movl	$8, (%rax)
 4450      0000
 4451              	.LEHB201:
 4452 1c1f E8000000 		call	queueCommitPut
 4452      00
 4453              	.LEHE201:
 4454              	.LEHB202:
 4455 1c24 E8000000 		call	_ZN8UnitTest11CurrentTest7DetailsEv
 4455      00
 4456 1c29 488B30   		movq	(%rax), %rsi
 4457 1c2c BA970000 		movl	$151, %edx
 4457      00
 4458 1c31 4889DF   		movq	%rbx, %rdi
 4459 1c34 E8000000 		call	_ZN8UnitTest11TestDetailsC1ERKS0_i
 4459      00
 4460 1c39 48C74424 		movq	$4, 32(%rsp)
 4460      20040000 
 4460      00
 4461 1c42 E8000000 		call	_ZN8UnitTest11CurrentTest7ResultsEv
 4461      00
 4462 1c47 488B38   		movq	(%rax), %rdi
 4463 1c4a 488D5424 		leaq	88(%rsp), %rdx
 4463      58
 4464 1c4f 488D7424 		leaq	32(%rsp), %rsi
 4464      20
 4465 1c54 4889D9   		movq	%rbx, %rcx
 4466 1c57 E8000000 		call	_ZN8UnitTest10CheckEqualImmEEvRNS_11TestResultsERKT_RKT0_RKNS_11TestDetailsE
 4466      00
 4467              	.LEHE202:
 4468              	.L404:
 4469              	.LEHB203:
 4470 1c5c E8000000 		call	_ZN8UnitTest11CurrentTest7DetailsEv
 4470      00
 4471 1c61 488B30   		movq	(%rax), %rsi
 4472 1c64 BA980000 		movl	$152, %edx
 4472      00
 4473 1c69 4889DF   		movq	%rbx, %rdi
 4474 1c6c E8000000 		call	_ZN8UnitTest11TestDetailsC1ERKS0_i
 4474      00
 4475 1c71 48C74424 		movq	$0, 32(%rsp)
 4475      20000000 
 4475      00
 4476 1c7a E8000000 		call	_ZN8UnitTest11CurrentTest7ResultsEv
 4476      00
 4477 1c7f 488B38   		movq	(%rax), %rdi
 4478 1c82 488D5424 		leaq	96(%rsp), %rdx
 4478      60
 4479 1c87 488D7424 		leaq	32(%rsp), %rsi
 4479      20
 4480 1c8c 4889D9   		movq	%rbx, %rcx
 4481 1c8f E8000000 		call	_ZN8UnitTest10CheckEqualImmEEvRNS_11TestResultsERKT_RKT0_RKNS_11TestDetailsE
 4481      00
 4482              	.LEHE203:
 4483              	.L407:
 4484              	.LEHB204:
 4485 1c94 E8000000 		call	_ZN8UnitTest11CurrentTest7DetailsEv
 4485      00
 4486 1c99 488B30   		movq	(%rax), %rsi
 4487 1c9c BA990000 		movl	$153, %edx
 4487      00
 4488 1ca1 4889DF   		movq	%rbx, %rdi
 4489 1ca4 E8000000 		call	_ZN8UnitTest11TestDetailsC1ERKS0_i
 4489      00
 4490 1ca9 48C74424 		movq	$0, 32(%rsp)
 4490      20000000 
 4490      00
 4491 1cb2 E8000000 		call	_ZN8UnitTest11CurrentTest7ResultsEv
 4491      00
 4492 1cb7 488B38   		movq	(%rax), %rdi
 4493 1cba 488D5424 		leaq	104(%rsp), %rdx
 4493      68
 4494 1cbf 488D7424 		leaq	32(%rsp), %rsi
 4494      20
 4495 1cc4 4889D9   		movq	%rbx, %rcx
 4496 1cc7 E8000000 		call	_ZN8UnitTest10CheckEqualImmEEvRNS_11TestResultsERKT_RKT0_RKNS_11TestDetailsE
 4496      00
 4497              	.LEHE204:
 4498              	.L410:
 4499              	.LEHB205:
 4500 1ccc E8000000 		call	_ZN8UnitTest11CurrentTest7DetailsEv
 4500      00
 4501 1cd1 488B30   		movq	(%rax), %rsi
 4502 1cd4 BA9A0000 		movl	$154, %edx
 4502      00
 4503 1cd9 4889DF   		movq	%rbx, %rdi
 4504 1cdc E8000000 		call	_ZN8UnitTest11TestDetailsC1ERKS0_i
 4504      00
 4505 1ce1 48C74424 		movq	$4, 32(%rsp)
 4505      20040000 
 4505      00
 4506 1cea E8000000 		call	_ZN8UnitTest11CurrentTest7ResultsEv
 4506      00
 4507 1cef 488B38   		movq	(%rax), %rdi
 4508 1cf2 488D5424 		leaq	112(%rsp), %rdx
 4508      70
 4509 1cf7 488D7424 		leaq	32(%rsp), %rsi
 4509      20
 4510 1cfc 4889D9   		movq	%rbx, %rcx
 4511 1cff E8000000 		call	_ZN8UnitTest10CheckEqualImmEEvRNS_11TestResultsERKT_RKT0_RKNS_11TestDetailsE
 4511      00
 4512              	.LEHE205:
 4513              	.L413:
 4514              	.LEHB206:
 4515 1d04 E8000000 		call	_ZN8UnitTest11CurrentTest7DetailsEv
 4515      00
 4516 1d09 488B30   		movq	(%rax), %rsi
 4517 1d0c BA9D0000 		movl	$157, %edx
 4517      00
 4518 1d11 4889DF   		movq	%rbx, %rdi
 4519 1d14 E8000000 		call	_ZN8UnitTest11TestDetailsC1ERKS0_i
 4519      00
 4520 1d19 488B4424 		movq	80(%rsp), %rax
 4520      50
 4521 1d1e 488B00   		movq	(%rax), %rax
 4522 1d21 8B00     		movl	(%rax), %eax
 4523 1d23 48C74424 		movq	$5, 32(%rsp)
 4523      20050000 
 4523      00
 4524 1d2c 890424   		movl	%eax, (%rsp)
 4525 1d2f E8000000 		call	_ZN8UnitTest11CurrentTest7ResultsEv
 4525      00
 4526 1d34 488B38   		movq	(%rax), %rdi
 4527 1d37 488D7424 		leaq	32(%rsp), %rsi
 4527      20
 4528 1d3c 4889D9   		movq	%rbx, %rcx
 4529 1d3f 4889E2   		movq	%rsp, %rdx
 4530 1d42 E8000000 		call	_ZN8UnitTest10CheckEqualImjEEvRNS_11TestResultsERKT_RKT0_RKNS_11TestDetailsE
 4530      00
 4531              	.LEHE206:
 4532              	.L416:
 4533              	.LEHB207:
 4534 1d47 E8000000 		call	_ZN8UnitTest11CurrentTest7DetailsEv
 4534      00
 4535 1d4c 488B30   		movq	(%rax), %rsi
 4536 1d4f BA9E0000 		movl	$158, %edx
 4536      00
 4537 1d54 4889DF   		movq	%rbx, %rdi
 4538 1d57 E8000000 		call	_ZN8UnitTest11TestDetailsC1ERKS0_i
 4538      00
 4539 1d5c 488B4424 		movq	80(%rsp), %rax
 4539      50
 4540 1d61 488B4008 		movq	8(%rax), %rax
 4541 1d65 8B00     		movl	(%rax), %eax
 4542 1d67 48C74424 		movq	$6, 32(%rsp)
 4542      20060000 
 4542      00
 4543 1d70 890424   		movl	%eax, (%rsp)
 4544 1d73 E8000000 		call	_ZN8UnitTest11CurrentTest7ResultsEv
 4544      00
 4545 1d78 488B38   		movq	(%rax), %rdi
 4546 1d7b 488D7424 		leaq	32(%rsp), %rsi
 4546      20
 4547 1d80 4889D9   		movq	%rbx, %rcx
 4548 1d83 4889E2   		movq	%rsp, %rdx
 4549 1d86 E8000000 		call	_ZN8UnitTest10CheckEqualImjEEvRNS_11TestResultsERKT_RKT0_RKNS_11TestDetailsE
 4549      00
 4550              	.LEHE207:
 4551              	.L419:
 4552              	.LEHB208:
 4553 1d8b E8000000 		call	_ZN8UnitTest11CurrentTest7DetailsEv
 4553      00
 4554 1d90 488B30   		movq	(%rax), %rsi
 4555 1d93 BA9F0000 		movl	$159, %edx
 4555      00
 4556 1d98 4889DF   		movq	%rbx, %rdi
 4557 1d9b E8000000 		call	_ZN8UnitTest11TestDetailsC1ERKS0_i
 4557      00
 4558 1da0 488B4424 		movq	80(%rsp), %rax
 4558      50
 4559 1da5 488B4010 		movq	16(%rax), %rax
 4560 1da9 8B00     		movl	(%rax), %eax
 4561 1dab 48C74424 		movq	$7, 32(%rsp)
 4561      20070000 
 4561      00
 4562 1db4 890424   		movl	%eax, (%rsp)
 4563 1db7 E8000000 		call	_ZN8UnitTest11CurrentTest7ResultsEv
 4563      00
 4564 1dbc 488B38   		movq	(%rax), %rdi
 4565 1dbf 488D7424 		leaq	32(%rsp), %rsi
 4565      20
 4566 1dc4 4889D9   		movq	%rbx, %rcx
 4567 1dc7 4889E2   		movq	%rsp, %rdx
 4568 1dca E8000000 		call	_ZN8UnitTest10CheckEqualImjEEvRNS_11TestResultsERKT_RKT0_RKNS_11TestDetailsE
 4568      00
 4569              	.LEHE208:
 4570              	.L422:
 4571              	.LEHB209:
 4572 1dcf E8000000 		call	_ZN8UnitTest11CurrentTest7DetailsEv
 4572      00
 4573 1dd4 488B30   		movq	(%rax), %rsi
 4574 1dd7 BAA00000 		movl	$160, %edx
 4574      00
 4575 1ddc 4889DF   		movq	%rbx, %rdi
 4576 1ddf E8000000 		call	_ZN8UnitTest11TestDetailsC1ERKS0_i
 4576      00
 4577 1de4 488B4424 		movq	80(%rsp), %rax
 4577      50
 4578 1de9 488B4018 		movq	24(%rax), %rax
 4579 1ded 8B00     		movl	(%rax), %eax
 4580 1def 48C74424 		movq	$8, 32(%rsp)
 4580      20080000 
 4580      00
 4581 1df8 890424   		movl	%eax, (%rsp)
 4582 1dfb E8000000 		call	_ZN8UnitTest11CurrentTest7ResultsEv
 4582      00
 4583 1e00 488B38   		movq	(%rax), %rdi
 4584 1e03 488D7424 		leaq	32(%rsp), %rsi
 4584      20
 4585 1e08 4889D9   		movq	%rbx, %rcx
 4586 1e0b 4889E2   		movq	%rsp, %rdx
 4587 1e0e E8000000 		call	_ZN8UnitTest10CheckEqualImjEEvRNS_11TestResultsERKT_RKT0_RKNS_11TestDetailsE
 4587      00
 4588              	.LEHE209:
 4589              	.L425:
 4590 1e13 488D7C24 		leaq	80(%rsp), %rdi
 4590      50
 4591              	.LEHB210:
 4592 1e18 E8000000 		call	queueDestroy
 4592      00
 4593              	.LEHE210:
 4594 1e1d 4881C498 		addq	$152, %rsp
 4594      000000
 4595              		.cfi_remember_state
 4596              		.cfi_def_cfa_offset 24
 4597 1e24 5B       		popq	%rbx
 4598              		.cfi_def_cfa_offset 16
 4599 1e25 5D       		popq	%rbp
 4600              		.cfi_def_cfa_offset 8
 4601 1e26 C3       		ret
 4602              	.L426:
 4603              		.cfi_restore_state
 4604 1e27 4889C7   		movq	%rax, %rdi
 4605 1e2a E8000000 		call	__cxa_begin_catch
 4605      00
 4606              	.LEHB211:
 4607 1e2f E8000000 		call	_ZN8UnitTest11CurrentTest7DetailsEv
 4607      00
 4608 1e34 488D5C24 		leaq	48(%rsp), %rbx
 4608      30
 4609 1e39 488B30   		movq	(%rax), %rsi
 4610 1e3c BA7E0000 		movl	$126, %edx
 4610      00
 4611 1e41 4889DF   		movq	%rbx, %rdi
 4612 1e44 E8000000 		call	_ZN8UnitTest11TestDetailsC1ERKS0_i
 4612      00
 4613 1e49 E8000000 		call	_ZN8UnitTest11CurrentTest7ResultsEv
 4613      00
 4614 1e4e 488B38   		movq	(%rax), %rdi
 4615 1e51 BA000000 		movl	$.LC4, %edx
 4615      00
 4616 1e56 4889DE   		movq	%rbx, %rsi
 4617 1e59 E8000000 		call	_ZN8UnitTest11TestResults13OnTestFailureERKNS_11TestDetailsEPKc
 4617      00
 4618              	.LEHE211:
 4619              	.LEHB212:
 4620 1e5e E8000000 		call	__cxa_end_catch
 4620      00
 4621              	.LEHE212:
 4622 1e63 E954FBFF 		jmp	.L377
 4622      FF
 4623              	.L458:
 4624 1e68 4889C7   		movq	%rax, %rdi
 4625 1e6b 0F1F4400 		.p2align 4,,5
 4625      00
 4626 1e70 E8000000 		call	__cxa_begin_catch
 4626      00
 4627              		.p2align 4,,5
 4628              	.LEHB213:
 4629 1e75 E8000000 		call	_ZN8UnitTest11CurrentTest7DetailsEv
 4629      00
 4630 1e7a 488B30   		movq	(%rax), %rsi
 4631 1e7d BAA00000 		movl	$160, %edx
 4631      00
 4632 1e82 4889DF   		movq	%rbx, %rdi
 4633 1e85 E8000000 		call	_ZN8UnitTest11TestDetailsC1ERKS0_i
 4633      00
 4634 1e8a E8000000 		call	_ZN8UnitTest11CurrentTest7ResultsEv
 4634      00
 4635 1e8f 488B38   		movq	(%rax), %rdi
 4636 1e92 BA000000 		movl	$.LC23, %edx
 4636      00
 4637 1e97 4889DE   		movq	%rbx, %rsi
 4638 1e9a E8000000 		call	_ZN8UnitTest11TestResults13OnTestFailureERKNS_11TestDetailsEPKc
 4638      00
 4639              	.LEHE213:
 4640              	.LEHB214:
 4641 1e9f E8000000 		call	__cxa_end_catch
 4641      00
 4642              	.LEHE214:
 4643 1ea4 E96AFFFF 		jmp	.L425
 4643      FF
 4644              	.L442:
 4645 1ea9 4889C7   		movq	%rax, %rdi
 4646 1eac 0F1F4000 		.p2align 4,,5
 4647 1eb0 E8000000 		call	__cxa_begin_catch
 4647      00
 4648              		.p2align 4,,5
 4649              	.LEHB215:
 4650 1eb5 E8000000 		call	_ZN8UnitTest11CurrentTest7DetailsEv
 4650      00
 4651 1eba 488B30   		movq	(%rax), %rsi
 4652 1ebd BA920000 		movl	$146, %edx
 4652      00
 4653 1ec2 4889DF   		movq	%rbx, %rdi
 4654 1ec5 E8000000 		call	_ZN8UnitTest11TestDetailsC1ERKS0_i
 4654      00
 4655 1eca E8000000 		call	_ZN8UnitTest11CurrentTest7ResultsEv
 4655      00
 4656 1ecf 488B38   		movq	(%rax), %rdi
 4657 1ed2 BA000000 		movl	$.LC21, %edx
 4657      00
 4658 1ed7 4889DE   		movq	%rbx, %rsi
 4659 1eda E8000000 		call	_ZN8UnitTest11TestResults13OnTestFailureERKNS_11TestDetailsEPKc
 4659      00
 4660              	.LEHE215:
 4661              	.LEHB216:
 4662 1edf E8000000 		call	__cxa_end_catch
 4662      00
 4663              	.LEHE216:
 4664 1ee4 E926FDFF 		jmp	.L401
 4664      FF
 4665              	.L450:
 4666 1ee9 4889C7   		movq	%rax, %rdi
 4667 1eec 0F1F4000 		.p2align 4,,5
 4668 1ef0 E8000000 		call	__cxa_begin_catch
 4668      00
 4669              		.p2align 4,,5
 4670              	.LEHB217:
 4671 1ef5 E8000000 		call	_ZN8UnitTest11CurrentTest7DetailsEv
 4671      00
 4672 1efa 488B30   		movq	(%rax), %rsi
 4673 1efd BA9A0000 		movl	$154, %edx
 4673      00
 4674 1f02 4889DF   		movq	%rbx, %rdi
 4675 1f05 E8000000 		call	_ZN8UnitTest11TestDetailsC1ERKS0_i
 4675      00
 4676 1f0a E8000000 		call	_ZN8UnitTest11CurrentTest7ResultsEv
 4676      00
 4677 1f0f 488B38   		movq	(%rax), %rdi
 4678 1f12 BA000000 		movl	$.LC22, %edx
 4678      00
 4679 1f17 4889DE   		movq	%rbx, %rsi
 4680 1f1a E8000000 		call	_ZN8UnitTest11TestResults13OnTestFailureERKNS_11TestDetailsEPKc
 4680      00
 4681              	.LEHE217:
 4682              	.LEHB218:
 4683 1f1f E8000000 		call	__cxa_end_catch
 4683      00
 4684              	.LEHE218:
 4685 1f24 E9DBFDFF 		jmp	.L413
 4685      FF
 4686              	.L434:
 4687 1f29 4889C7   		movq	%rax, %rdi
 4688 1f2c 0F1F4000 		.p2align 4,,5
 4689 1f30 E8000000 		call	__cxa_begin_catch
 4689      00
 4690              		.p2align 4,,5
 4691              	.LEHB219:
 4692 1f35 E8000000 		call	_ZN8UnitTest11CurrentTest7DetailsEv
 4692      00
 4693 1f3a 488B30   		movq	(%rax), %rsi
 4694 1f3d BA880000 		movl	$136, %edx
 4694      00
 4695 1f42 4889DF   		movq	%rbx, %rdi
 4696 1f45 E8000000 		call	_ZN8UnitTest11TestDetailsC1ERKS0_i
 4696      00
 4697 1f4a E8000000 		call	_ZN8UnitTest11CurrentTest7ResultsEv
 4697      00
 4698 1f4f 488B38   		movq	(%rax), %rdi
 4699 1f52 BA000000 		movl	$.LC14, %edx
 4699      00
 4700 1f57 4889DE   		movq	%rbx, %rsi
 4701 1f5a E8000000 		call	_ZN8UnitTest11TestResults13OnTestFailureERKNS_11TestDetailsEPKc
 4701      00
 4702              	.LEHE219:
 4703              	.LEHB220:
 4704 1f5f E8000000 		call	__cxa_end_catch
 4704      00
 4705              	.LEHE220:
 4706 1f64 E972FBFF 		jmp	.L389
 4706      FF
 4707              	.L454:
 4708 1f69 4889C7   		movq	%rax, %rdi
 4709 1f6c 0F1F4000 		.p2align 4,,5
 4710 1f70 E8000000 		call	__cxa_begin_catch
 4710      00
 4711              		.p2align 4,,5
 4712              	.LEHB221:
 4713 1f75 E8000000 		call	_ZN8UnitTest11CurrentTest7DetailsEv
 4713      00
 4714 1f7a 488B30   		movq	(%rax), %rsi
 4715 1f7d BA9E0000 		movl	$158, %edx
 4715      00
 4716 1f82 4889DF   		movq	%rbx, %rdi
 4717 1f85 E8000000 		call	_ZN8UnitTest11TestDetailsC1ERKS0_i
 4717      00
 4718 1f8a E8000000 		call	_ZN8UnitTest11CurrentTest7ResultsEv
 4718      00
 4719 1f8f 488B38   		movq	(%rax), %rdi
 4720 1f92 BA000000 		movl	$.LC19, %edx
 4720      00
 4721 1f97 4889DE   		movq	%rbx, %rsi
 4722 1f9a E8000000 		call	_ZN8UnitTest11TestResults13OnTestFailureERKNS_11TestDetailsEPKc
 4722      00
 4723              	.LEHE221:
 4724              	.LEHB222:
 4725 1f9f E8000000 		call	__cxa_end_catch
 4725      00
 4726              	.LEHE222:
 4727 1fa4 E9E2FDFF 		jmp	.L419
 4727      FF
 4728              	.L438:
 4729 1fa9 4889C7   		movq	%rax, %rdi
 4730 1fac 0F1F4000 		.p2align 4,,5
 4731 1fb0 E8000000 		call	__cxa_begin_catch
 4731      00
 4732              		.p2align 4,,5
 4733              	.LEHB223:
 4734 1fb5 E8000000 		call	_ZN8UnitTest11CurrentTest7DetailsEv
 4734      00
 4735 1fba 488B30   		movq	(%rax), %rsi
 4736 1fbd BA8D0000 		movl	$141, %edx
 4736      00
 4737 1fc2 4889DF   		movq	%rbx, %rdi
 4738 1fc5 E8000000 		call	_ZN8UnitTest11TestDetailsC1ERKS0_i
 4738      00
 4739 1fca E8000000 		call	_ZN8UnitTest11CurrentTest7ResultsEv
 4739      00
 4740 1fcf 488B38   		movq	(%rax), %rdi
 4741 1fd2 BA000000 		movl	$.LC15, %edx
 4741      00
 4742 1fd7 4889DE   		movq	%rbx, %rsi
 4743 1fda E8000000 		call	_ZN8UnitTest11TestResults13OnTestFailureERKNS_11TestDetailsEPKc
 4743      00
 4744              	.LEHE223:
 4745              	.LEHB224:
 4746 1fdf E8000000 		call	__cxa_end_catch
 4746      00
 4747              	.LEHE224:
 4748 1fe4 E98CFBFF 		jmp	.L395
 4748      FF
 4749              	.L446:
 4750 1fe9 4889C7   		movq	%rax, %rdi
 4751 1fec 0F1F4000 		.p2align 4,,5
 4752 1ff0 E8000000 		call	__cxa_begin_catch
 4752      00
 4753              		.p2align 4,,5
 4754              	.LEHB225:
 4755 1ff5 E8000000 		call	_ZN8UnitTest11CurrentTest7DetailsEv
 4755      00
 4756 1ffa 488B30   		movq	(%rax), %rsi
 4757 1ffd BA980000 		movl	$152, %edx
 4757      00
 4758 2002 4889DF   		movq	%rbx, %rdi
 4759 2005 E8000000 		call	_ZN8UnitTest11TestDetailsC1ERKS0_i
 4759      00
 4760 200a E8000000 		call	_ZN8UnitTest11CurrentTest7ResultsEv
 4760      00
 4761 200f 488B38   		movq	(%rax), %rdi
 4762 2012 BA000000 		movl	$.LC6, %edx
 4762      00
 4763 2017 4889DE   		movq	%rbx, %rsi
 4764 201a E8000000 		call	_ZN8UnitTest11TestResults13OnTestFailureERKNS_11TestDetailsEPKc
 4764      00
 4765              	.LEHE225:
 4766              	.LEHB226:
 4767 201f E8000000 		call	__cxa_end_catch
 4767      00
 4768              	.LEHE226:
 4769 2024 E96BFCFF 		jmp	.L407
 4769      FF
 4770              	.L430:
 4771 2029 4889C7   		movq	%rax, %rdi
 4772 202c 0F1F4000 		.p2align 4,,5
 4773 2030 E8000000 		call	__cxa_begin_catch
 4773      00
 4774              		.p2align 4,,5
 4775              	.LEHB227:
 4776 2035 E8000000 		call	_ZN8UnitTest11CurrentTest7DetailsEv
 4776      00
 4777 203a 488B30   		movq	(%rax), %rsi
 4778 203d BA830000 		movl	$131, %edx
 4778      00
 4779 2042 4889DF   		movq	%rbx, %rdi
 4780 2045 E8000000 		call	_ZN8UnitTest11TestDetailsC1ERKS0_i
 4780      00
 4781 204a E8000000 		call	_ZN8UnitTest11CurrentTest7ResultsEv
 4781      00
 4782 204f 488B38   		movq	(%rax), %rdi
 4783 2052 BA000000 		movl	$.LC13, %edx
 4783      00
 4784 2057 4889DE   		movq	%rbx, %rsi
 4785 205a E8000000 		call	_ZN8UnitTest11TestResults13OnTestFailureERKNS_11TestDetailsEPKc
 4785      00
 4786              	.LEHE227:
 4787              	.LEHB228:
 4788 205f E8000000 		call	__cxa_end_catch
 4788      00
 4789              	.LEHE228:
 4790 2064 E9D8F9FF 		jmp	.L383
 4790      FF
 4791              	.L456:
 4792 2069 4889C7   		movq	%rax, %rdi
 4793 206c 0F1F4000 		.p2align 4,,5
 4794 2070 E8000000 		call	__cxa_begin_catch
 4794      00
 4795              		.p2align 4,,5
 4796              	.LEHB229:
 4797 2075 E8000000 		call	_ZN8UnitTest11CurrentTest7DetailsEv
 4797      00
 4798 207a 488B30   		movq	(%rax), %rsi
 4799 207d BA9F0000 		movl	$159, %edx
 4799      00
 4800 2082 4889DF   		movq	%rbx, %rdi
 4801 2085 E8000000 		call	_ZN8UnitTest11TestDetailsC1ERKS0_i
 4801      00
 4802 208a E8000000 		call	_ZN8UnitTest11CurrentTest7ResultsEv
 4802      00
 4803 208f 488B38   		movq	(%rax), %rdi
 4804 2092 BA000000 		movl	$.LC20, %edx
 4804      00
 4805 2097 4889DE   		movq	%rbx, %rsi
 4806 209a E8000000 		call	_ZN8UnitTest11TestResults13OnTestFailureERKNS_11TestDetailsEPKc
 4806      00
 4807              	.LEHE229:
 4808              	.LEHB230:
 4809 209f E8000000 		call	__cxa_end_catch
 4809      00
 4810              	.LEHE230:
 4811 20a4 E926FDFF 		jmp	.L422
 4811      FF
 4812              	.L440:
 4813 20a9 4889C7   		movq	%rax, %rdi
 4814 20ac 0F1F4000 		.p2align 4,,5
 4815 20b0 E8000000 		call	__cxa_begin_catch
 4815      00
 4816              		.p2align 4,,5
 4817              	.LEHB231:
 4818 20b5 E8000000 		call	_ZN8UnitTest11CurrentTest7DetailsEv
 4818      00
 4819 20ba 488B30   		movq	(%rax), %rsi
 4820 20bd BA910000 		movl	$145, %edx
 4820      00
 4821 20c2 4889DF   		movq	%rbx, %rdi
 4822 20c5 E8000000 		call	_ZN8UnitTest11TestDetailsC1ERKS0_i
 4822      00
 4823 20ca E8000000 		call	_ZN8UnitTest11CurrentTest7ResultsEv
 4823      00
 4824 20cf 488B38   		movq	(%rax), %rdi
 4825 20d2 BA000000 		movl	$.LC4, %edx
 4825      00
 4826 20d7 4889DE   		movq	%rbx, %rsi
 4827 20da E8000000 		call	_ZN8UnitTest11TestResults13OnTestFailureERKNS_11TestDetailsEPKc
 4827      00
 4828              	.LEHE231:
 4829              	.LEHB232:
 4830 20df E8000000 		call	__cxa_end_catch
 4830      00
 4831              	.LEHE232:
 4832 20e4 E9EBFAFF 		jmp	.L398
 4832      FF
 4833              	.L448:
 4834 20e9 4889C7   		movq	%rax, %rdi
 4835 20ec 0F1F4000 		.p2align 4,,5
 4836 20f0 E8000000 		call	__cxa_begin_catch
 4836      00
 4837              		.p2align 4,,5
 4838              	.LEHB233:
 4839 20f5 E8000000 		call	_ZN8UnitTest11CurrentTest7DetailsEv
 4839      00
 4840 20fa 488B30   		movq	(%rax), %rsi
 4841 20fd BA990000 		movl	$153, %edx
 4841      00
 4842 2102 4889DF   		movq	%rbx, %rdi
 4843 2105 E8000000 		call	_ZN8UnitTest11TestDetailsC1ERKS0_i
 4843      00
 4844 210a E8000000 		call	_ZN8UnitTest11CurrentTest7ResultsEv
 4844      00
 4845 210f 488B38   		movq	(%rax), %rdi
 4846 2112 BA000000 		movl	$.LC7, %edx
 4846      00
 4847 2117 4889DE   		movq	%rbx, %rsi
 4848 211a E8000000 		call	_ZN8UnitTest11TestResults13OnTestFailureERKNS_11TestDetailsEPKc
 4848      00
 4849              	.LEHE233:
 4850              	.LEHB234:
 4851 211f E8000000 		call	__cxa_end_catch
 4851      00
 4852              	.LEHE234:
 4853 2124 E9A3FBFF 		jmp	.L410
 4853      FF
 4854              	.L432:
 4855 2129 4889C7   		movq	%rax, %rdi
 4856 212c 0F1F4000 		.p2align 4,,5
 4857 2130 E8000000 		call	__cxa_begin_catch
 4857      00
 4858              		.p2align 4,,5
 4859              	.LEHB235:
 4860 2135 E8000000 		call	_ZN8UnitTest11CurrentTest7DetailsEv
 4860      00
 4861 213a 488B30   		movq	(%rax), %rsi
 4862 213d BA870000 		movl	$135, %edx
 4862      00
 4863 2142 4889DF   		movq	%rbx, %rdi
 4864 2145 E8000000 		call	_ZN8UnitTest11TestDetailsC1ERKS0_i
 4864      00
 4865 214a E8000000 		call	_ZN8UnitTest11CurrentTest7ResultsEv
 4865      00
 4866 214f 488B38   		movq	(%rax), %rdi
 4867 2152 BA000000 		movl	$.LC4, %edx
 4867      00
 4868 2157 4889DE   		movq	%rbx, %rsi
 4869 215a E8000000 		call	_ZN8UnitTest11TestResults13OnTestFailureERKNS_11TestDetailsEPKc
 4869      00
 4870              	.LEHE235:
 4871              	.LEHB236:
 4872 215f E8000000 		call	__cxa_end_catch
 4872      00
 4873              	.LEHE236:
 4874 2164 E937F9FF 		jmp	.L386
 4874      FF
 4875              	.L452:
 4876 2169 4889C7   		movq	%rax, %rdi
 4877 216c 0F1F4000 		.p2align 4,,5
 4878 2170 E8000000 		call	__cxa_begin_catch
 4878      00
 4879              		.p2align 4,,5
 4880              	.LEHB237:
 4881 2175 E8000000 		call	_ZN8UnitTest11CurrentTest7DetailsEv
 4881      00
 4882 217a 488B30   		movq	(%rax), %rsi
 4883 217d BA9D0000 		movl	$157, %edx
 4883      00
 4884 2182 4889DF   		movq	%rbx, %rdi
 4885 2185 E8000000 		call	_ZN8UnitTest11TestDetailsC1ERKS0_i
 4885      00
 4886 218a E8000000 		call	_ZN8UnitTest11CurrentTest7ResultsEv
 4886      00
 4887 218f 488B38   		movq	(%rax), %rdi
 4888 2192 BA000000 		movl	$.LC18, %edx
 4888      00
 4889 2197 4889DE   		movq	%rbx, %rsi
 4890 219a E8000000 		call	_ZN8UnitTest11TestResults13OnTestFailureERKNS_11TestDetailsEPKc
 4890      00
 4891              	.LEHE237:
 4892              	.LEHB238:
 4893 219f E8000000 		call	__cxa_end_catch
 4893      00
 4894              	.LEHE238:
 4895 21a4 E99EFBFF 		jmp	.L416
 4895      FF
 4896              	.L436:
 4897 21a9 4889C7   		movq	%rax, %rdi
 4898 21ac 0F1F4000 		.p2align 4,,5
 4899 21b0 E8000000 		call	__cxa_begin_catch
 4899      00
 4900              		.p2align 4,,5
 4901              	.LEHB239:
 4902 21b5 E8000000 		call	_ZN8UnitTest11CurrentTest7DetailsEv
 4902      00
 4903 21ba 488B30   		movq	(%rax), %rsi
 4904 21bd BA8C0000 		movl	$140, %edx
 4904      00
 4905 21c2 4889DF   		movq	%rbx, %rdi
 4906 21c5 E8000000 		call	_ZN8UnitTest11TestDetailsC1ERKS0_i
 4906      00
 4907 21ca E8000000 		call	_ZN8UnitTest11CurrentTest7ResultsEv
 4907      00
 4908 21cf 488B38   		movq	(%rax), %rdi
 4909 21d2 BA000000 		movl	$.LC4, %edx
 4909      00
 4910 21d7 4889DE   		movq	%rbx, %rsi
 4911 21da E8000000 		call	_ZN8UnitTest11TestResults13OnTestFailureERKNS_11TestDetailsEPKc
 4911      00
 4912              	.LEHE239:
 4913              	.LEHB240:
 4914 21df E8000000 		call	__cxa_end_catch
 4914      00
 4915              	.LEHE240:
 4916 21e4 E951F9FF 		jmp	.L392
 4916      FF
 4917              	.L444:
 4918 21e9 4889C7   		movq	%rax, %rdi
 4919 21ec 0F1F4000 		.p2align 4,,5
 4920 21f0 E8000000 		call	__cxa_begin_catch
 4920      00
 4921              		.p2align 4,,5
 4922              	.LEHB241:
 4923 21f5 E8000000 		call	_ZN8UnitTest11CurrentTest7DetailsEv
 4923      00
 4924 21fa 488B30   		movq	(%rax), %rsi
 4925 21fd BA970000 		movl	$151, %edx
 4925      00
 4926 2202 4889DF   		movq	%rbx, %rdi
 4927 2205 E8000000 		call	_ZN8UnitTest11TestDetailsC1ERKS0_i
 4927      00
 4928 220a E8000000 		call	_ZN8UnitTest11CurrentTest7ResultsEv
 4928      00
 4929 220f 488B38   		movq	(%rax), %rdi
 4930 2212 BA000000 		movl	$.LC5, %edx
 4930      00
 4931 2217 4889DE   		movq	%rbx, %rsi
 4932 221a E8000000 		call	_ZN8UnitTest11TestResults13OnTestFailureERKNS_11TestDetailsEPKc
 4932      00
 4933              	.LEHE241:
 4934              	.LEHB242:
 4935 221f E8000000 		call	__cxa_end_catch
 4935      00
 4936              	.LEHE242:
 4937 2224 E933FAFF 		jmp	.L404
 4937      FF
 4938              	.L428:
 4939 2229 4889C7   		movq	%rax, %rdi
 4940 222c 0F1F4000 		.p2align 4,,5
 4941 2230 E8000000 		call	__cxa_begin_catch
 4941      00
 4942              		.p2align 4,,5
 4943              	.LEHB243:
 4944 2235 E8000000 		call	_ZN8UnitTest11CurrentTest7DetailsEv
 4944      00
 4945 223a 488B30   		movq	(%rax), %rsi
 4946 223d BA820000 		movl	$130, %edx
 4946      00
 4947 2242 4889DF   		movq	%rbx, %rdi
 4948 2245 E8000000 		call	_ZN8UnitTest11TestDetailsC1ERKS0_i
 4948      00
 4949 224a E8000000 		call	_ZN8UnitTest11CurrentTest7ResultsEv
 4949      00
 4950 224f 488B38   		movq	(%rax), %rdi
 4951 2252 BA000000 		movl	$.LC4, %edx
 4951      00
 4952 2257 4889DE   		movq	%rbx, %rsi
 4953 225a E8000000 		call	_ZN8UnitTest11TestResults13OnTestFailureERKNS_11TestDetailsEPKc
 4953      00
 4954              	.LEHE243:
 4955              	.LEHB244:
 4956 225f E8000000 		call	__cxa_end_catch
 4956      00
 4957              	.LEHE244:
 4958 2264 E99DF7FF 		jmp	.L380
 4958      FF
 4959              	.L427:
 4960 2269 4889C3   		movq	%rax, %rbx
 4961 226c 0F1F4000 		.p2align 4,,5
 4962 2270 E8000000 		call	__cxa_end_catch
 4962      00
 4963 2275 4889DF   		movq	%rbx, %rdi
 4964              	.LEHB245:
 4965 2278 E8000000 		call	_Unwind_Resume
 4965      00
 4966              	.LEHE245:
 4967              	.L459:
 4968 227d 4889C3   		movq	%rax, %rbx
 4969 2280 E8000000 		call	__cxa_end_catch
 4969      00
 4970 2285 4889DF   		movq	%rbx, %rdi
 4971              	.LEHB246:
 4972 2288 E8000000 		call	_Unwind_Resume
 4972      00
 4973              	.LEHE246:
 4974              	.L457:
 4975 228d 4889C3   		movq	%rax, %rbx
 4976 2290 E8000000 		call	__cxa_end_catch
 4976      00
 4977 2295 4889DF   		movq	%rbx, %rdi
 4978              	.LEHB247:
 4979 2298 E8000000 		call	_Unwind_Resume
 4979      00
 4980              	.LEHE247:
 4981              	.L455:
 4982 229d 4889C3   		movq	%rax, %rbx
 4983 22a0 E8000000 		call	__cxa_end_catch
 4983      00
 4984 22a5 4889DF   		movq	%rbx, %rdi
 4985              	.LEHB248:
 4986 22a8 E8000000 		call	_Unwind_Resume
 4986      00
 4987              	.LEHE248:
 4988              	.L453:
 4989 22ad 4889C3   		movq	%rax, %rbx
 4990 22b0 E8000000 		call	__cxa_end_catch
 4990      00
 4991 22b5 4889DF   		movq	%rbx, %rdi
 4992              	.LEHB249:
 4993 22b8 E8000000 		call	_Unwind_Resume
 4993      00
 4994              	.LEHE249:
 4995              	.L451:
 4996 22bd 4889C3   		movq	%rax, %rbx
 4997 22c0 E8000000 		call	__cxa_end_catch
 4997      00
 4998 22c5 4889DF   		movq	%rbx, %rdi
 4999              	.LEHB250:
 5000 22c8 E8000000 		call	_Unwind_Resume
 5000      00
 5001              	.LEHE250:
 5002              	.L449:
 5003 22cd 4889C3   		movq	%rax, %rbx
 5004 22d0 E8000000 		call	__cxa_end_catch
 5004      00
 5005 22d5 4889DF   		movq	%rbx, %rdi
 5006              	.LEHB251:
 5007 22d8 E8000000 		call	_Unwind_Resume
 5007      00
 5008              	.LEHE251:
 5009              	.L447:
 5010 22dd 4889C3   		movq	%rax, %rbx
 5011 22e0 E8000000 		call	__cxa_end_catch
 5011      00
 5012 22e5 4889DF   		movq	%rbx, %rdi
 5013              	.LEHB252:
 5014 22e8 E8000000 		call	_Unwind_Resume
 5014      00
 5015              	.LEHE252:
 5016              	.L445:
 5017 22ed 4889C3   		movq	%rax, %rbx
 5018 22f0 E8000000 		call	__cxa_end_catch
 5018      00
 5019 22f5 4889DF   		movq	%rbx, %rdi
 5020              	.LEHB253:
 5021 22f8 E8000000 		call	_Unwind_Resume
 5021      00
 5022              	.LEHE253:
 5023              	.L443:
 5024 22fd 4889C3   		movq	%rax, %rbx
 5025 2300 E8000000 		call	__cxa_end_catch
 5025      00
 5026 2305 4889DF   		movq	%rbx, %rdi
 5027              	.LEHB254:
 5028 2308 E8000000 		call	_Unwind_Resume
 5028      00
 5029              	.LEHE254:
 5030              	.L441:
 5031 230d 4889C3   		movq	%rax, %rbx
 5032 2310 E8000000 		call	__cxa_end_catch
 5032      00
 5033 2315 4889DF   		movq	%rbx, %rdi
 5034              	.LEHB255:
 5035 2318 E8000000 		call	_Unwind_Resume
 5035      00
 5036              	.LEHE255:
 5037              	.L439:
 5038 231d 4889C3   		movq	%rax, %rbx
 5039 2320 E8000000 		call	__cxa_end_catch
 5039      00
 5040 2325 4889DF   		movq	%rbx, %rdi
 5041              	.LEHB256:
 5042 2328 E8000000 		call	_Unwind_Resume
 5042      00
 5043              	.LEHE256:
 5044              	.L437:
 5045 232d 4889C3   		movq	%rax, %rbx
 5046 2330 E8000000 		call	__cxa_end_catch
 5046      00
 5047 2335 4889DF   		movq	%rbx, %rdi
 5048              	.LEHB257:
 5049 2338 E8000000 		call	_Unwind_Resume
 5049      00
 5050              	.LEHE257:
 5051              	.L435:
 5052 233d 4889C3   		movq	%rax, %rbx
 5053 2340 E8000000 		call	__cxa_end_catch
 5053      00
 5054 2345 4889DF   		movq	%rbx, %rdi
 5055              	.LEHB258:
 5056 2348 E8000000 		call	_Unwind_Resume
 5056      00
 5057              	.LEHE258:
 5058              	.L433:
 5059 234d 4889C3   		movq	%rax, %rbx
 5060 2350 E8000000 		call	__cxa_end_catch
 5060      00
 5061 2355 4889DF   		movq	%rbx, %rdi
 5062              	.LEHB259:
 5063 2358 E8000000 		call	_Unwind_Resume
 5063      00
 5064              	.LEHE259:
 5065              	.L431:
 5066 235d 4889C3   		movq	%rax, %rbx
 5067 2360 E8000000 		call	__cxa_end_catch
 5067      00
 5068 2365 4889DF   		movq	%rbx, %rdi
 5069              	.LEHB260:
 5070 2368 E8000000 		call	_Unwind_Resume
 5070      00
 5071              	.LEHE260:
 5072              	.L429:
 5073 236d 4889C3   		movq	%rax, %rbx
 5074 2370 E8000000 		call	__cxa_end_catch
 5074      00
 5075 2375 4889DF   		movq	%rbx, %rdi
 5076              	.LEHB261:
 5077 2378 E8000000 		call	_Unwind_Resume
 5077      00
 5078              	.LEHE261:
 5079              		.cfi_endproc
 5080              	.LFE1115:
 5081              		.section	.gcc_except_table
 5082              		.align 4
 5083              	.LLSDA1115:
 5084 0448 FF       		.byte	0xff
 5085 0449 03       		.byte	0x3
 5086 044a A003     		.uleb128 .LLSDATT1115-.LLSDATTD1115
 5087              	.LLSDATTD1115:
 5088 044c 01       		.byte	0x1
 5089 044d 9503     		.uleb128 .LLSDACSE1115-.LLSDACSB1115
 5090              	.LLSDACSB1115:
 5091 044f 27       		.uleb128 .LEHB187-.LFB1115
 5092 0450 05       		.uleb128 .LEHE187-.LEHB187
 5093 0451 00       		.uleb128 0
 5094 0452 00       		.uleb128 0
 5095 0453 30       		.uleb128 .LEHB188-.LFB1115
 5096 0454 3C       		.uleb128 .LEHE188-.LEHB188
 5097 0455 D709     		.uleb128 .L426-.LFB1115
 5098 0457 01       		.uleb128 0x1
 5099 0458 76       		.uleb128 .LEHB189-.LFB1115
 5100 0459 05       		.uleb128 .LEHE189-.LEHB189
 5101 045a 00       		.uleb128 0
 5102 045b 00       		.uleb128 0
 5103 045c 7F       		.uleb128 .LEHB190-.LFB1115
 5104 045d 37       		.uleb128 .LEHE190-.LEHB190
 5105 045e D911     		.uleb128 .L428-.LFB1115
 5106 0460 01       		.uleb128 0x1
 5107 0461 B601     		.uleb128 .LEHB191-.LFB1115
 5108 0463 3B       		.uleb128 .LEHE191-.LEHB191
 5109 0464 D90D     		.uleb128 .L430-.LFB1115
 5110 0466 01       		.uleb128 0x1
 5111 0467 8102     		.uleb128 .LEHB192-.LFB1115
 5112 0469 14       		.uleb128 .LEHE192-.LEHB192
 5113 046a 00       		.uleb128 0
 5114 046b 00       		.uleb128 0
 5115 046c 9902     		.uleb128 .LEHB193-.LFB1115
 5116 046e 37       		.uleb128 .LEHE193-.LEHB193
 5117 046f D90F     		.uleb128 .L432-.LFB1115
 5118 0471 01       		.uleb128 0x1
 5119 0472 D002     		.uleb128 .LEHB194-.LFB1115
 5120 0474 3B       		.uleb128 .LEHE194-.LEHB194
 5121 0475 D90B     		.uleb128 .L434-.LFB1115
 5122 0477 01       		.uleb128 0x1
 5123 0478 9B03     		.uleb128 .LEHB195-.LFB1115
 5124 047a 14       		.uleb128 .LEHE195-.LEHB195
 5125 047b 00       		.uleb128 0
 5126 047c 00       		.uleb128 0
 5127 047d B303     		.uleb128 .LEHB196-.LFB1115
 5128 047f 37       		.uleb128 .LEHE196-.LEHB196
 5129 0480 D910     		.uleb128 .L436-.LFB1115
 5130 0482 01       		.uleb128 0x1
 5131 0483 EA03     		.uleb128 .LEHB197-.LFB1115
 5132 0485 3B       		.uleb128 .LEHE197-.LEHB197
 5133 0486 D90C     		.uleb128 .L438-.LFB1115
 5134 0488 01       		.uleb128 0x1
 5135 0489 B504     		.uleb128 .LEHB198-.LFB1115
 5136 048b 14       		.uleb128 .LEHE198-.LEHB198
 5137 048c 00       		.uleb128 0
 5138 048d 00       		.uleb128 0
 5139 048e CD04     		.uleb128 .LEHB199-.LFB1115
 5140 0490 37       		.uleb128 .LEHE199-.LEHB199
 5141 0491 D90E     		.uleb128 .L440-.LFB1115
 5142 0493 01       		.uleb128 0x1
 5143 0494 8405     		.uleb128 .LEHB200-.LFB1115
 5144 0496 3B       		.uleb128 .LEHE200-.LEHB200
 5145 0497 D90A     		.uleb128 .L442-.LFB1115
 5146 0499 01       		.uleb128 0x1
 5147 049a CF05     		.uleb128 .LEHB201-.LFB1115
 5148 049c 05       		.uleb128 .LEHE201-.LEHB201
 5149 049d 00       		.uleb128 0
 5150 049e 00       		.uleb128 0
 5151 049f D405     		.uleb128 .LEHB202-.LFB1115
 5152 04a1 38       		.uleb128 .LEHE202-.LEHB202
 5153 04a2 9911     		.uleb128 .L444-.LFB1115
 5154 04a4 01       		.uleb128 0x1
 5155 04a5 8C06     		.uleb128 .LEHB203-.LFB1115
 5156 04a7 38       		.uleb128 .LEHE203-.LEHB203
 5157 04a8 990D     		.uleb128 .L446-.LFB1115
 5158 04aa 01       		.uleb128 0x1
 5159 04ab C406     		.uleb128 .LEHB204-.LFB1115
 5160 04ad 38       		.uleb128 .LEHE204-.LEHB204
 5161 04ae 990F     		.uleb128 .L448-.LFB1115
 5162 04b0 01       		.uleb128 0x1
 5163 04b1 FC06     		.uleb128 .LEHB205-.LFB1115
 5164 04b3 38       		.uleb128 .LEHE205-.LEHB205
 5165 04b4 990B     		.uleb128 .L450-.LFB1115
 5166 04b6 01       		.uleb128 0x1
 5167 04b7 B407     		.uleb128 .LEHB206-.LFB1115
 5168 04b9 43       		.uleb128 .LEHE206-.LEHB206
 5169 04ba 9910     		.uleb128 .L452-.LFB1115
 5170 04bc 01       		.uleb128 0x1
 5171 04bd F707     		.uleb128 .LEHB207-.LFB1115
 5172 04bf 44       		.uleb128 .LEHE207-.LEHB207
 5173 04c0 990C     		.uleb128 .L454-.LFB1115
 5174 04c2 01       		.uleb128 0x1
 5175 04c3 BB08     		.uleb128 .LEHB208-.LFB1115
 5176 04c5 44       		.uleb128 .LEHE208-.LEHB208
 5177 04c6 990E     		.uleb128 .L456-.LFB1115
 5178 04c8 01       		.uleb128 0x1
 5179 04c9 FF08     		.uleb128 .LEHB209-.LFB1115
 5180 04cb 44       		.uleb128 .LEHE209-.LEHB209
 5181 04cc 980A     		.uleb128 .L458-.LFB1115
 5182 04ce 01       		.uleb128 0x1
 5183 04cf C809     		.uleb128 .LEHB210-.LFB1115
 5184 04d1 05       		.uleb128 .LEHE210-.LEHB210
 5185 04d2 00       		.uleb128 0
 5186 04d3 00       		.uleb128 0
 5187 04d4 DF09     		.uleb128 .LEHB211-.LFB1115
 5188 04d6 2F       		.uleb128 .LEHE211-.LEHB211
 5189 04d7 9912     		.uleb128 .L427-.LFB1115
 5190 04d9 00       		.uleb128 0
 5191 04da 8E0A     		.uleb128 .LEHB212-.LFB1115
 5192 04dc 05       		.uleb128 .LEHE212-.LEHB212
 5193 04dd 00       		.uleb128 0
 5194 04de 00       		.uleb128 0
 5195 04df A50A     		.uleb128 .LEHB213-.LFB1115
 5196 04e1 2A       		.uleb128 .LEHE213-.LEHB213
 5197 04e2 AD12     		.uleb128 .L459-.LFB1115
 5198 04e4 00       		.uleb128 0
 5199 04e5 CF0A     		.uleb128 .LEHB214-.LFB1115
 5200 04e7 05       		.uleb128 .LEHE214-.LEHB214
 5201 04e8 00       		.uleb128 0
 5202 04e9 00       		.uleb128 0
 5203 04ea E50A     		.uleb128 .LEHB215-.LFB1115
 5204 04ec 2A       		.uleb128 .LEHE215-.LEHB215
 5205 04ed AD13     		.uleb128 .L443-.LFB1115
 5206 04ef 00       		.uleb128 0
 5207 04f0 8F0B     		.uleb128 .LEHB216-.LFB1115
 5208 04f2 05       		.uleb128 .LEHE216-.LEHB216
 5209 04f3 00       		.uleb128 0
 5210 04f4 00       		.uleb128 0
 5211 04f5 A50B     		.uleb128 .LEHB217-.LFB1115
 5212 04f7 2A       		.uleb128 .LEHE217-.LEHB217
 5213 04f8 ED12     		.uleb128 .L451-.LFB1115
 5214 04fa 00       		.uleb128 0
 5215 04fb CF0B     		.uleb128 .LEHB218-.LFB1115
 5216 04fd 05       		.uleb128 .LEHE218-.LEHB218
 5217 04fe 00       		.uleb128 0
 5218 04ff 00       		.uleb128 0
 5219 0500 E50B     		.uleb128 .LEHB219-.LFB1115
 5220 0502 2A       		.uleb128 .LEHE219-.LEHB219
 5221 0503 ED13     		.uleb128 .L435-.LFB1115
 5222 0505 00       		.uleb128 0
 5223 0506 8F0C     		.uleb128 .LEHB220-.LFB1115
 5224 0508 05       		.uleb128 .LEHE220-.LEHB220
 5225 0509 00       		.uleb128 0
 5226 050a 00       		.uleb128 0
 5227 050b A50C     		.uleb128 .LEHB221-.LFB1115
 5228 050d 2A       		.uleb128 .LEHE221-.LEHB221
 5229 050e CD12     		.uleb128 .L455-.LFB1115
 5230 0510 00       		.uleb128 0
 5231 0511 CF0C     		.uleb128 .LEHB222-.LFB1115
 5232 0513 05       		.uleb128 .LEHE222-.LEHB222
 5233 0514 00       		.uleb128 0
 5234 0515 00       		.uleb128 0
 5235 0516 E50C     		.uleb128 .LEHB223-.LFB1115
 5236 0518 2A       		.uleb128 .LEHE223-.LEHB223
 5237 0519 CD13     		.uleb128 .L439-.LFB1115
 5238 051b 00       		.uleb128 0
 5239 051c 8F0D     		.uleb128 .LEHB224-.LFB1115
 5240 051e 05       		.uleb128 .LEHE224-.LEHB224
 5241 051f 00       		.uleb128 0
 5242 0520 00       		.uleb128 0
 5243 0521 A50D     		.uleb128 .LEHB225-.LFB1115
 5244 0523 2A       		.uleb128 .LEHE225-.LEHB225
 5245 0524 8D13     		.uleb128 .L447-.LFB1115
 5246 0526 00       		.uleb128 0
 5247 0527 CF0D     		.uleb128 .LEHB226-.LFB1115
 5248 0529 05       		.uleb128 .LEHE226-.LEHB226
 5249 052a 00       		.uleb128 0
 5250 052b 00       		.uleb128 0
 5251 052c E50D     		.uleb128 .LEHB227-.LFB1115
 5252 052e 2A       		.uleb128 .LEHE227-.LEHB227
 5253 052f 8D14     		.uleb128 .L431-.LFB1115
 5254 0531 00       		.uleb128 0
 5255 0532 8F0E     		.uleb128 .LEHB228-.LFB1115
 5256 0534 05       		.uleb128 .LEHE228-.LEHB228
 5257 0535 00       		.uleb128 0
 5258 0536 00       		.uleb128 0
 5259 0537 A50E     		.uleb128 .LEHB229-.LFB1115
 5260 0539 2A       		.uleb128 .LEHE229-.LEHB229
 5261 053a BD12     		.uleb128 .L457-.LFB1115
 5262 053c 00       		.uleb128 0
 5263 053d CF0E     		.uleb128 .LEHB230-.LFB1115
 5264 053f 05       		.uleb128 .LEHE230-.LEHB230
 5265 0540 00       		.uleb128 0
 5266 0541 00       		.uleb128 0
 5267 0542 E50E     		.uleb128 .LEHB231-.LFB1115
 5268 0544 2A       		.uleb128 .LEHE231-.LEHB231
 5269 0545 BD13     		.uleb128 .L441-.LFB1115
 5270 0547 00       		.uleb128 0
 5271 0548 8F0F     		.uleb128 .LEHB232-.LFB1115
 5272 054a 05       		.uleb128 .LEHE232-.LEHB232
 5273 054b 00       		.uleb128 0
 5274 054c 00       		.uleb128 0
 5275 054d A50F     		.uleb128 .LEHB233-.LFB1115
 5276 054f 2A       		.uleb128 .LEHE233-.LEHB233
 5277 0550 FD12     		.uleb128 .L449-.LFB1115
 5278 0552 00       		.uleb128 0
 5279 0553 CF0F     		.uleb128 .LEHB234-.LFB1115
 5280 0555 05       		.uleb128 .LEHE234-.LEHB234
 5281 0556 00       		.uleb128 0
 5282 0557 00       		.uleb128 0
 5283 0558 E50F     		.uleb128 .LEHB235-.LFB1115
 5284 055a 2A       		.uleb128 .LEHE235-.LEHB235
 5285 055b FD13     		.uleb128 .L433-.LFB1115
 5286 055d 00       		.uleb128 0
 5287 055e 8F10     		.uleb128 .LEHB236-.LFB1115
 5288 0560 05       		.uleb128 .LEHE236-.LEHB236
 5289 0561 00       		.uleb128 0
 5290 0562 00       		.uleb128 0
 5291 0563 A510     		.uleb128 .LEHB237-.LFB1115
 5292 0565 2A       		.uleb128 .LEHE237-.LEHB237
 5293 0566 DD12     		.uleb128 .L453-.LFB1115
 5294 0568 00       		.uleb128 0
 5295 0569 CF10     		.uleb128 .LEHB238-.LFB1115
 5296 056b 05       		.uleb128 .LEHE238-.LEHB238
 5297 056c 00       		.uleb128 0
 5298 056d 00       		.uleb128 0
 5299 056e E510     		.uleb128 .LEHB239-.LFB1115
 5300 0570 2A       		.uleb128 .LEHE239-.LEHB239
 5301 0571 DD13     		.uleb128 .L437-.LFB1115
 5302 0573 00       		.uleb128 0
 5303 0574 8F11     		.uleb128 .LEHB240-.LFB1115
 5304 0576 05       		.uleb128 .LEHE240-.LEHB240
 5305 0577 00       		.uleb128 0
 5306 0578 00       		.uleb128 0
 5307 0579 A511     		.uleb128 .LEHB241-.LFB1115
 5308 057b 2A       		.uleb128 .LEHE241-.LEHB241
 5309 057c 9D13     		.uleb128 .L445-.LFB1115
 5310 057e 00       		.uleb128 0
 5311 057f CF11     		.uleb128 .LEHB242-.LFB1115
 5312 0581 05       		.uleb128 .LEHE242-.LEHB242
 5313 0582 00       		.uleb128 0
 5314 0583 00       		.uleb128 0
 5315 0584 E511     		.uleb128 .LEHB243-.LFB1115
 5316 0586 2A       		.uleb128 .LEHE243-.LEHB243
 5317 0587 9D14     		.uleb128 .L429-.LFB1115
 5318 0589 00       		.uleb128 0
 5319 058a 8F12     		.uleb128 .LEHB244-.LFB1115
 5320 058c 05       		.uleb128 .LEHE244-.LEHB244
 5321 058d 00       		.uleb128 0
 5322 058e 00       		.uleb128 0
 5323 058f A812     		.uleb128 .LEHB245-.LFB1115
 5324 0591 05       		.uleb128 .LEHE245-.LEHB245
 5325 0592 00       		.uleb128 0
 5326 0593 00       		.uleb128 0
 5327 0594 B812     		.uleb128 .LEHB246-.LFB1115
 5328 0596 05       		.uleb128 .LEHE246-.LEHB246
 5329 0597 00       		.uleb128 0
 5330 0598 00       		.uleb128 0
 5331 0599 C812     		.uleb128 .LEHB247-.LFB1115
 5332 059b 05       		.uleb128 .LEHE247-.LEHB247
 5333 059c 00       		.uleb128 0
 5334 059d 00       		.uleb128 0
 5335 059e D812     		.uleb128 .LEHB248-.LFB1115
 5336 05a0 05       		.uleb128 .LEHE248-.LEHB248
 5337 05a1 00       		.uleb128 0
 5338 05a2 00       		.uleb128 0
 5339 05a3 E812     		.uleb128 .LEHB249-.LFB1115
 5340 05a5 05       		.uleb128 .LEHE249-.LEHB249
 5341 05a6 00       		.uleb128 0
 5342 05a7 00       		.uleb128 0
 5343 05a8 F812     		.uleb128 .LEHB250-.LFB1115
 5344 05aa 05       		.uleb128 .LEHE250-.LEHB250
 5345 05ab 00       		.uleb128 0
 5346 05ac 00       		.uleb128 0
 5347 05ad 8813     		.uleb128 .LEHB251-.LFB1115
 5348 05af 05       		.uleb128 .LEHE251-.LEHB251
 5349 05b0 00       		.uleb128 0
 5350 05b1 00       		.uleb128 0
 5351 05b2 9813     		.uleb128 .LEHB252-.LFB1115
 5352 05b4 05       		.uleb128 .LEHE252-.LEHB252
 5353 05b5 00       		.uleb128 0
 5354 05b6 00       		.uleb128 0
 5355 05b7 A813     		.uleb128 .LEHB253-.LFB1115
 5356 05b9 05       		.uleb128 .LEHE253-.LEHB253
 5357 05ba 00       		.uleb128 0
 5358 05bb 00       		.uleb128 0
 5359 05bc B813     		.uleb128 .LEHB254-.LFB1115
 5360 05be 05       		.uleb128 .LEHE254-.LEHB254
 5361 05bf 00       		.uleb128 0
 5362 05c0 00       		.uleb128 0
 5363 05c1 C813     		.uleb128 .LEHB255-.LFB1115
 5364 05c3 05       		.uleb128 .LEHE255-.LEHB255
 5365 05c4 00       		.uleb128 0
 5366 05c5 00       		.uleb128 0
 5367 05c6 D813     		.uleb128 .LEHB256-.LFB1115
 5368 05c8 05       		.uleb128 .LEHE256-.LEHB256
 5369 05c9 00       		.uleb128 0
 5370 05ca 00       		.uleb128 0
 5371 05cb E813     		.uleb128 .LEHB257-.LFB1115
 5372 05cd 05       		.uleb128 .LEHE257-.LEHB257
 5373 05ce 00       		.uleb128 0
 5374 05cf 00       		.uleb128 0
 5375 05d0 F813     		.uleb128 .LEHB258-.LFB1115
 5376 05d2 05       		.uleb128 .LEHE258-.LEHB258
 5377 05d3 00       		.uleb128 0
 5378 05d4 00       		.uleb128 0
 5379 05d5 8814     		.uleb128 .LEHB259-.LFB1115
 5380 05d7 05       		.uleb128 .LEHE259-.LEHB259
 5381 05d8 00       		.uleb128 0
 5382 05d9 00       		.uleb128 0
 5383 05da 9814     		.uleb128 .LEHB260-.LFB1115
 5384 05dc 05       		.uleb128 .LEHE260-.LEHB260
 5385 05dd 00       		.uleb128 0
 5386 05de 00       		.uleb128 0
 5387 05df A814     		.uleb128 .LEHB261-.LFB1115
 5388 05e1 05       		.uleb128 .LEHE261-.LEHB261
 5389 05e2 00       		.uleb128 0
 5390 05e3 00       		.uleb128 0
 5391              	.LLSDACSE1115:
 5392 05e4 01       		.byte	0x1
 5393 05e5 00       		.byte	0
 5394 05e6 0000     		.align 4
 5395 05e8 00000000 		.long	0
 5396              	
 5397              	.LLSDATT1115:
 5398              		.text
 5400              		.section	.rodata.str1.8
 5401 053b 00000000 		.align 8
 5401      00
 5402              	.LC24:
 5403 0540 556E6861 		.string	"Unhandled exception in CHECK_EQUAL(5UL, *item)"
 5403      6E646C65 
 5403      64206578 
 5403      63657074 
 5403      696F6E20 
 5404 056f 00       		.align 8
 5405              	.LC25:
 5406 0570 556E6861 		.string	"Unhandled exception in CHECK_EQUAL(6UL, *item)"
 5406      6E646C65 
 5406      64206578 
 5406      63657074 
 5406      696F6E20 
 5407 059f 00       		.align 8
 5408              	.LC26:
 5409 05a0 556E6861 		.string	"Unhandled exception in CHECK_EQUAL(7UL, *item)"
 5409      6E646C65 
 5409      64206578 
 5409      63657074 
 5409      696F6E20 
 5410 05cf 00       		.align 8
 5411              	.LC27:
 5412 05d0 556E6861 		.string	"Unhandled exception in CHECK_EQUAL(8UL, *item)"
 5412      6E646C65 
 5412      64206578 
 5412      63657074 
 5412      696F6E20 
 5413              		.text
 5414 237d 90       		.align 2
 5415 237e 6690     		.p2align 4,,15
 5416              		.globl	_ZNK21TestQueue_testPutTake7RunImplEv
 5418              	_ZNK21TestQueue_testPutTake7RunImplEv:
 5419              	.LFB1119:
 5420              		.cfi_startproc
 5421              		.cfi_personality 0x3,__gxx_personality_v0
 5422              		.cfi_lsda 0x3,.LLSDA1119
 5423 2380 55       		pushq	%rbp
 5424              		.cfi_def_cfa_offset 16
 5425              		.cfi_offset 6, -16
 5426 2381 B9000000 		movl	$destroyInt, %ecx
 5426      00
 5427 2386 BA000000 		movl	$createInt, %edx
 5427      00
 5428 238b BE040000 		movl	$4, %esi
 5428      00
 5429 2390 53       		pushq	%rbx
 5430              		.cfi_def_cfa_offset 24
 5431              		.cfi_offset 3, -24
 5432 2391 4881EC98 		subq	$152, %rsp
 5432      000000
 5433              		.cfi_def_cfa_offset 176
 5434 2398 C7050000 		movl	$1, _ZL7m_count(%rip)
 5434      00000100 
 5434      0000
 5435 23a2 488D7C24 		leaq	80(%rsp), %rdi
 5435      50
 5436              	.LEHB262:
 5437 23a7 E8000000 		call	queueInit
 5437      00
 5438              	.LEHE262:
 5439 23ac 8944240C 		movl	%eax, 12(%rsp)
 5440              	.LEHB263:
 5441 23b0 E8000000 		call	_ZN8UnitTest11CurrentTest7DetailsEv
 5441      00
 5442 23b5 488D5C24 		leaq	48(%rsp), %rbx
 5442      30
 5443 23ba 488B30   		movq	(%rax), %rsi
 5444 23bd BAAD0000 		movl	$173, %edx
 5444      00
 5445 23c2 4889DF   		movq	%rbx, %rdi
 5446 23c5 E8000000 		call	_ZN8UnitTest11TestDetailsC1ERKS0_i
 5446      00
 5447 23ca C7442420 		movl	$0, 32(%rsp)
 5447      00000000 
 5448 23d2 E8000000 		call	_ZN8UnitTest11CurrentTest7ResultsEv
 5448      00
 5449 23d7 488B38   		movq	(%rax), %rdi
 5450 23da 488D5424 		leaq	12(%rsp), %rdx
 5450      0C
 5451 23df 488D7424 		leaq	32(%rsp), %rsi
 5451      20
 5452 23e4 4889D9   		movq	%rbx, %rcx
 5453 23e7 E8000000 		call	_ZN8UnitTest10CheckEqualI9USBStatusS1_EEvRNS_11TestResultsERKT_RKT0_RKNS_11TestDetailsE
 5453      00
 5454              	.LEHE263:
 5455              	.L465:
 5456 23ec 488D7424 		leaq	16(%rsp), %rsi
 5456      10
 5457 23f1 488D7C24 		leaq	80(%rsp), %rdi
 5457      50
 5458              	.LEHB264:
 5459 23f6 E8000000 		call	queuePut
 5459      00
 5460              	.LEHE264:
 5461 23fb 8944240C 		movl	%eax, 12(%rsp)
 5462              	.LEHB265:
 5463 23ff E8000000 		call	_ZN8UnitTest11CurrentTest7DetailsEv
 5463      00
 5464 2404 488B30   		movq	(%rax), %rsi
 5465 2407 BAB10000 		movl	$177, %edx
 5465      00
 5466 240c 4889DF   		movq	%rbx, %rdi
 5467 240f E8000000 		call	_ZN8UnitTest11TestDetailsC1ERKS0_i
 5467      00
 5468 2414 C7442420 		movl	$0, 32(%rsp)
 5468      00000000 
 5469 241c E8000000 		call	_ZN8UnitTest11CurrentTest7ResultsEv
 5469      00
 5470 2421 488B38   		movq	(%rax), %rdi
 5471 2424 488D5424 		leaq	12(%rsp), %rdx
 5471      0C
 5472 2429 488D7424 		leaq	32(%rsp), %rsi
 5472      20
 5473 242e 4889D9   		movq	%rbx, %rcx
 5474 2431 E8000000 		call	_ZN8UnitTest10CheckEqualI9USBStatusS1_EEvRNS_11TestResultsERKT_RKT0_RKNS_11TestDetailsE
 5474      00
 5475              	.LEHE265:
 5476              	.L468:
 5477              	.LEHB266:
 5478 2436 E8000000 		call	_ZN8UnitTest11CurrentTest7DetailsEv
 5478      00
 5479 243b 488B30   		movq	(%rax), %rsi
 5480 243e BAB20000 		movl	$178, %edx
 5480      00
 5481 2443 4889DF   		movq	%rbx, %rdi
 5482 2446 E8000000 		call	_ZN8UnitTest11TestDetailsC1ERKS0_i
 5482      00
 5483 244b 488B6C24 		movq	16(%rsp), %rbp
 5483      10
 5484 2450 48C74424 		movq	$1, 32(%rsp)
 5484      20010000 
 5484      00
 5485 2459 E8000000 		call	_ZN8UnitTest11CurrentTest7ResultsEv
 5485      00
 5486 245e 488B38   		movq	(%rax), %rdi
 5487 2461 488D7424 		leaq	32(%rsp), %rsi
 5487      20
 5488 2466 4889D9   		movq	%rbx, %rcx
 5489 2469 4889EA   		movq	%rbp, %rdx
 5490 246c E8000000 		call	_ZN8UnitTest10CheckEqualImjEEvRNS_11TestResultsERKT_RKT0_RKNS_11TestDetailsE
 5490      00
 5491              	.LEHE266:
 5492              	.L471:
 5493 2471 488B4424 		movq	16(%rsp), %rax
 5493      10
 5494 2476 488D7C24 		leaq	80(%rsp), %rdi
 5494      50
 5495 247b C7000500 		movl	$5, (%rax)
 5495      0000
 5496              	.LEHB267:
 5497 2481 E8000000 		call	queueCommitPut
 5497      00
 5498 2486 488D7424 		leaq	16(%rsp), %rsi
 5498      10
 5499 248b 488D7C24 		leaq	80(%rsp), %rdi
 5499      50
 5500 2490 E8000000 		call	queuePut
 5500      00
 5501              	.LEHE267:
 5502 2495 8944240C 		movl	%eax, 12(%rsp)
 5503              	.LEHB268:
 5504 2499 E8000000 		call	_ZN8UnitTest11CurrentTest7DetailsEv
 5504      00
 5505 249e 488B30   		movq	(%rax), %rsi
 5506 24a1 BAB60000 		movl	$182, %edx
 5506      00
 5507 24a6 4889DF   		movq	%rbx, %rdi
 5508 24a9 E8000000 		call	_ZN8UnitTest11TestDetailsC1ERKS0_i
 5508      00
 5509 24ae C7442420 		movl	$0, 32(%rsp)
 5509      00000000 
 5510 24b6 E8000000 		call	_ZN8UnitTest11CurrentTest7ResultsEv
 5510      00
 5511 24bb 488B38   		movq	(%rax), %rdi
 5512 24be 488D5424 		leaq	12(%rsp), %rdx
 5512      0C
 5513 24c3 488D7424 		leaq	32(%rsp), %rsi
 5513      20
 5514 24c8 4889D9   		movq	%rbx, %rcx
 5515 24cb E8000000 		call	_ZN8UnitTest10CheckEqualI9USBStatusS1_EEvRNS_11TestResultsERKT_RKT0_RKNS_11TestDetailsE
 5515      00
 5516              	.LEHE268:
 5517              	.L474:
 5518              	.LEHB269:
 5519 24d0 E8000000 		call	_ZN8UnitTest11CurrentTest7DetailsEv
 5519      00
 5520 24d5 488B30   		movq	(%rax), %rsi
 5521 24d8 BAB70000 		movl	$183, %edx
 5521      00
 5522 24dd 4889DF   		movq	%rbx, %rdi
 5523 24e0 E8000000 		call	_ZN8UnitTest11TestDetailsC1ERKS0_i
 5523      00
 5524 24e5 488B6C24 		movq	16(%rsp), %rbp
 5524      10
 5525 24ea 48C74424 		movq	$2, 32(%rsp)
 5525      20020000 
 5525      00
 5526 24f3 E8000000 		call	_ZN8UnitTest11CurrentTest7ResultsEv
 5526      00
 5527 24f8 488B38   		movq	(%rax), %rdi
 5528 24fb 488D7424 		leaq	32(%rsp), %rsi
 5528      20
 5529 2500 4889D9   		movq	%rbx, %rcx
 5530 2503 4889EA   		movq	%rbp, %rdx
 5531 2506 E8000000 		call	_ZN8UnitTest10CheckEqualImjEEvRNS_11TestResultsERKT_RKT0_RKNS_11TestDetailsE
 5531      00
 5532              	.LEHE269:
 5533              	.L477:
 5534 250b 488B4424 		movq	16(%rsp), %rax
 5534      10
 5535 2510 488D7C24 		leaq	80(%rsp), %rdi
 5535      50
 5536 2515 C7000600 		movl	$6, (%rax)
 5536      0000
 5537              	.LEHB270:
 5538 251b E8000000 		call	queueCommitPut
 5538      00
 5539 2520 488D7424 		leaq	16(%rsp), %rsi
 5539      10
 5540 2525 488D7C24 		leaq	80(%rsp), %rdi
 5540      50
 5541 252a E8000000 		call	queuePut
 5541      00
 5542              	.LEHE270:
 5543 252f 8944240C 		movl	%eax, 12(%rsp)
 5544              	.LEHB271:
 5545 2533 E8000000 		call	_ZN8UnitTest11CurrentTest7DetailsEv
 5545      00
 5546 2538 488B30   		movq	(%rax), %rsi
 5547 253b BABB0000 		movl	$187, %edx
 5547      00
 5548 2540 4889DF   		movq	%rbx, %rdi
 5549 2543 E8000000 		call	_ZN8UnitTest11TestDetailsC1ERKS0_i
 5549      00
 5550 2548 C7442420 		movl	$0, 32(%rsp)
 5550      00000000 
 5551 2550 E8000000 		call	_ZN8UnitTest11CurrentTest7ResultsEv
 5551      00
 5552 2555 488B38   		movq	(%rax), %rdi
 5553 2558 488D5424 		leaq	12(%rsp), %rdx
 5553      0C
 5554 255d 488D7424 		leaq	32(%rsp), %rsi
 5554      20
 5555 2562 4889D9   		movq	%rbx, %rcx
 5556 2565 E8000000 		call	_ZN8UnitTest10CheckEqualI9USBStatusS1_EEvRNS_11TestResultsERKT_RKT0_RKNS_11TestDetailsE
 5556      00
 5557              	.LEHE271:
 5558              	.L480:
 5559              	.LEHB272:
 5560 256a E8000000 		call	_ZN8UnitTest11CurrentTest7DetailsEv
 5560      00
 5561 256f 488B30   		movq	(%rax), %rsi
 5562 2572 BABC0000 		movl	$188, %edx
 5562      00
 5563 2577 4889DF   		movq	%rbx, %rdi
 5564 257a E8000000 		call	_ZN8UnitTest11TestDetailsC1ERKS0_i
 5564      00
 5565 257f 488B6C24 		movq	16(%rsp), %rbp
 5565      10
 5566 2584 48C74424 		movq	$3, 32(%rsp)
 5566      20030000 
 5566      00
 5567 258d E8000000 		call	_ZN8UnitTest11CurrentTest7ResultsEv
 5567      00
 5568 2592 488B38   		movq	(%rax), %rdi
 5569 2595 488D7424 		leaq	32(%rsp), %rsi
 5569      20
 5570 259a 4889D9   		movq	%rbx, %rcx
 5571 259d 4889EA   		movq	%rbp, %rdx
 5572 25a0 E8000000 		call	_ZN8UnitTest10CheckEqualImjEEvRNS_11TestResultsERKT_RKT0_RKNS_11TestDetailsE
 5572      00
 5573              	.LEHE272:
 5574              	.L483:
 5575 25a5 488B4424 		movq	16(%rsp), %rax
 5575      10
 5576 25aa 488D7C24 		leaq	80(%rsp), %rdi
 5576      50
 5577 25af C7000700 		movl	$7, (%rax)
 5577      0000
 5578              	.LEHB273:
 5579 25b5 E8000000 		call	queueCommitPut
 5579      00
 5580 25ba 488D7424 		leaq	16(%rsp), %rsi
 5580      10
 5581 25bf 488D7C24 		leaq	80(%rsp), %rdi
 5581      50
 5582 25c4 E8000000 		call	queuePut
 5582      00
 5583              	.LEHE273:
 5584 25c9 8944240C 		movl	%eax, 12(%rsp)
 5585              	.LEHB274:
 5586 25cd E8000000 		call	_ZN8UnitTest11CurrentTest7DetailsEv
 5586      00
 5587 25d2 488B30   		movq	(%rax), %rsi
 5588 25d5 BAC00000 		movl	$192, %edx
 5588      00
 5589 25da 4889DF   		movq	%rbx, %rdi
 5590 25dd E8000000 		call	_ZN8UnitTest11TestDetailsC1ERKS0_i
 5590      00
 5591 25e2 C7442420 		movl	$0, 32(%rsp)
 5591      00000000 
 5592 25ea E8000000 		call	_ZN8UnitTest11CurrentTest7ResultsEv
 5592      00
 5593 25ef 488B38   		movq	(%rax), %rdi
 5594 25f2 488D5424 		leaq	12(%rsp), %rdx
 5594      0C
 5595 25f7 488D7424 		leaq	32(%rsp), %rsi
 5595      20
 5596 25fc 4889D9   		movq	%rbx, %rcx
 5597 25ff E8000000 		call	_ZN8UnitTest10CheckEqualI9USBStatusS1_EEvRNS_11TestResultsERKT_RKT0_RKNS_11TestDetailsE
 5597      00
 5598              	.LEHE274:
 5599              	.L486:
 5600              	.LEHB275:
 5601 2604 E8000000 		call	_ZN8UnitTest11CurrentTest7DetailsEv
 5601      00
 5602 2609 488B30   		movq	(%rax), %rsi
 5603 260c BAC10000 		movl	$193, %edx
 5603      00
 5604 2611 4889DF   		movq	%rbx, %rdi
 5605 2614 E8000000 		call	_ZN8UnitTest11TestDetailsC1ERKS0_i
 5605      00
 5606 2619 488B6C24 		movq	16(%rsp), %rbp
 5606      10
 5607 261e 48C74424 		movq	$4, 32(%rsp)
 5607      20040000 
 5607      00
 5608 2627 E8000000 		call	_ZN8UnitTest11CurrentTest7ResultsEv
 5608      00
 5609 262c 488B38   		movq	(%rax), %rdi
 5610 262f 488D7424 		leaq	32(%rsp), %rsi
 5610      20
 5611 2634 4889D9   		movq	%rbx, %rcx
 5612 2637 4889EA   		movq	%rbp, %rdx
 5613 263a E8000000 		call	_ZN8UnitTest10CheckEqualImjEEvRNS_11TestResultsERKT_RKT0_RKNS_11TestDetailsE
 5613      00
 5614              	.LEHE275:
 5615              	.L489:
 5616 263f 488B4424 		movq	16(%rsp), %rax
 5616      10
 5617 2644 488D7C24 		leaq	80(%rsp), %rdi
 5617      50
 5618 2649 C7000800 		movl	$8, (%rax)
 5618      0000
 5619              	.LEHB276:
 5620 264f E8000000 		call	queueCommitPut
 5620      00
 5621 2654 488D7424 		leaq	16(%rsp), %rsi
 5621      10
 5622 2659 488D7C24 		leaq	80(%rsp), %rdi
 5622      50
 5623 265e E8000000 		call	queueTake
 5623      00
 5624              	.LEHE276:
 5625 2663 8944240C 		movl	%eax, 12(%rsp)
 5626              	.LEHB277:
 5627 2667 E8000000 		call	_ZN8UnitTest11CurrentTest7DetailsEv
 5627      00
 5628 266c 488B30   		movq	(%rax), %rsi
 5629 266f BAC70000 		movl	$199, %edx
 5629      00
 5630 2674 4889DF   		movq	%rbx, %rdi
 5631 2677 E8000000 		call	_ZN8UnitTest11TestDetailsC1ERKS0_i
 5631      00
 5632 267c C7442420 		movl	$0, 32(%rsp)
 5632      00000000 
 5633 2684 E8000000 		call	_ZN8UnitTest11CurrentTest7ResultsEv
 5633      00
 5634 2689 488B38   		movq	(%rax), %rdi
 5635 268c 488D5424 		leaq	12(%rsp), %rdx
 5635      0C
 5636 2691 488D7424 		leaq	32(%rsp), %rsi
 5636      20
 5637 2696 4889D9   		movq	%rbx, %rcx
 5638 2699 E8000000 		call	_ZN8UnitTest10CheckEqualI9USBStatusS1_EEvRNS_11TestResultsERKT_RKT0_RKNS_11TestDetailsE
 5638      00
 5639              	.LEHE277:
 5640              	.L492:
 5641              	.LEHB278:
 5642 269e E8000000 		call	_ZN8UnitTest11CurrentTest7DetailsEv
 5642      00
 5643 26a3 488B30   		movq	(%rax), %rsi
 5644 26a6 BAC80000 		movl	$200, %edx
 5644      00
 5645 26ab 4889DF   		movq	%rbx, %rdi
 5646 26ae E8000000 		call	_ZN8UnitTest11TestDetailsC1ERKS0_i
 5646      00
 5647 26b3 488B6C24 		movq	16(%rsp), %rbp
 5647      10
 5648 26b8 48C74424 		movq	$5, 32(%rsp)
 5648      20050000 
 5648      00
 5649 26c1 E8000000 		call	_ZN8UnitTest11CurrentTest7ResultsEv
 5649      00
 5650 26c6 488B38   		movq	(%rax), %rdi
 5651 26c9 488D7424 		leaq	32(%rsp), %rsi
 5651      20
 5652 26ce 4889D9   		movq	%rbx, %rcx
 5653 26d1 4889EA   		movq	%rbp, %rdx
 5654 26d4 E8000000 		call	_ZN8UnitTest10CheckEqualImjEEvRNS_11TestResultsERKT_RKT0_RKNS_11TestDetailsE
 5654      00
 5655              	.LEHE278:
 5656              	.L495:
 5657 26d9 488D7C24 		leaq	80(%rsp), %rdi
 5657      50
 5658              	.LEHB279:
 5659 26de E8000000 		call	queueCommitTake
 5659      00
 5660 26e3 488D7424 		leaq	16(%rsp), %rsi
 5660      10
 5661 26e8 488D7C24 		leaq	80(%rsp), %rdi
 5661      50
 5662 26ed E8000000 		call	queueTake
 5662      00
 5663              	.LEHE279:
 5664 26f2 8944240C 		movl	%eax, 12(%rsp)
 5665              	.LEHB280:
 5666 26f6 E8000000 		call	_ZN8UnitTest11CurrentTest7DetailsEv
 5666      00
 5667 26fb 488B30   		movq	(%rax), %rsi
 5668 26fe BACB0000 		movl	$203, %edx
 5668      00
 5669 2703 4889DF   		movq	%rbx, %rdi
 5670 2706 E8000000 		call	_ZN8UnitTest11TestDetailsC1ERKS0_i
 5670      00
 5671 270b C7442420 		movl	$0, 32(%rsp)
 5671      00000000 
 5672 2713 E8000000 		call	_ZN8UnitTest11CurrentTest7ResultsEv
 5672      00
 5673 2718 488B38   		movq	(%rax), %rdi
 5674 271b 488D5424 		leaq	12(%rsp), %rdx
 5674      0C
 5675 2720 488D7424 		leaq	32(%rsp), %rsi
 5675      20
 5676 2725 4889D9   		movq	%rbx, %rcx
 5677 2728 E8000000 		call	_ZN8UnitTest10CheckEqualI9USBStatusS1_EEvRNS_11TestResultsERKT_RKT0_RKNS_11TestDetailsE
 5677      00
 5678              	.LEHE280:
 5679              	.L498:
 5680              	.LEHB281:
 5681 272d E8000000 		call	_ZN8UnitTest11CurrentTest7DetailsEv
 5681      00
 5682 2732 488B30   		movq	(%rax), %rsi
 5683 2735 BACC0000 		movl	$204, %edx
 5683      00
 5684 273a 4889DF   		movq	%rbx, %rdi
 5685 273d E8000000 		call	_ZN8UnitTest11TestDetailsC1ERKS0_i
 5685      00
 5686 2742 488B6C24 		movq	16(%rsp), %rbp
 5686      10
 5687 2747 48C74424 		movq	$6, 32(%rsp)
 5687      20060000 
 5687      00
 5688 2750 E8000000 		call	_ZN8UnitTest11CurrentTest7ResultsEv
 5688      00
 5689 2755 488B38   		movq	(%rax), %rdi
 5690 2758 488D7424 		leaq	32(%rsp), %rsi
 5690      20
 5691 275d 4889D9   		movq	%rbx, %rcx
 5692 2760 4889EA   		movq	%rbp, %rdx
 5693 2763 E8000000 		call	_ZN8UnitTest10CheckEqualImjEEvRNS_11TestResultsERKT_RKT0_RKNS_11TestDetailsE
 5693      00
 5694              	.LEHE281:
 5695              	.L501:
 5696 2768 488D7C24 		leaq	80(%rsp), %rdi
 5696      50
 5697              	.LEHB282:
 5698 276d E8000000 		call	queueCommitTake
 5698      00
 5699 2772 488D7424 		leaq	16(%rsp), %rsi
 5699      10
 5700 2777 488D7C24 		leaq	80(%rsp), %rdi
 5700      50
 5701 277c E8000000 		call	queueTake
 5701      00
 5702              	.LEHE282:
 5703 2781 8944240C 		movl	%eax, 12(%rsp)
 5704              	.LEHB283:
 5705 2785 E8000000 		call	_ZN8UnitTest11CurrentTest7DetailsEv
 5705      00
 5706 278a 488B30   		movq	(%rax), %rsi
 5707 278d BACF0000 		movl	$207, %edx
 5707      00
 5708 2792 4889DF   		movq	%rbx, %rdi
 5709 2795 E8000000 		call	_ZN8UnitTest11TestDetailsC1ERKS0_i
 5709      00
 5710 279a C7442420 		movl	$0, 32(%rsp)
 5710      00000000 
 5711 27a2 E8000000 		call	_ZN8UnitTest11CurrentTest7ResultsEv
 5711      00
 5712 27a7 488B38   		movq	(%rax), %rdi
 5713 27aa 488D5424 		leaq	12(%rsp), %rdx
 5713      0C
 5714 27af 488D7424 		leaq	32(%rsp), %rsi
 5714      20
 5715 27b4 4889D9   		movq	%rbx, %rcx
 5716 27b7 E8000000 		call	_ZN8UnitTest10CheckEqualI9USBStatusS1_EEvRNS_11TestResultsERKT_RKT0_RKNS_11TestDetailsE
 5716      00
 5717              	.LEHE283:
 5718              	.L504:
 5719              	.LEHB284:
 5720 27bc E8000000 		call	_ZN8UnitTest11CurrentTest7DetailsEv
 5720      00
 5721 27c1 488B30   		movq	(%rax), %rsi
 5722 27c4 BAD00000 		movl	$208, %edx
 5722      00
 5723 27c9 4889DF   		movq	%rbx, %rdi
 5724 27cc E8000000 		call	_ZN8UnitTest11TestDetailsC1ERKS0_i
 5724      00
 5725 27d1 488B6C24 		movq	16(%rsp), %rbp
 5725      10
 5726 27d6 48C74424 		movq	$7, 32(%rsp)
 5726      20070000 
 5726      00
 5727 27df E8000000 		call	_ZN8UnitTest11CurrentTest7ResultsEv
 5727      00
 5728 27e4 488B38   		movq	(%rax), %rdi
 5729 27e7 488D7424 		leaq	32(%rsp), %rsi
 5729      20
 5730 27ec 4889D9   		movq	%rbx, %rcx
 5731 27ef 4889EA   		movq	%rbp, %rdx
 5732 27f2 E8000000 		call	_ZN8UnitTest10CheckEqualImjEEvRNS_11TestResultsERKT_RKT0_RKNS_11TestDetailsE
 5732      00
 5733              	.LEHE284:
 5734              	.L507:
 5735 27f7 488D7C24 		leaq	80(%rsp), %rdi
 5735      50
 5736              	.LEHB285:
 5737 27fc E8000000 		call	queueCommitTake
 5737      00
 5738 2801 488D7424 		leaq	16(%rsp), %rsi
 5738      10
 5739 2806 488D7C24 		leaq	80(%rsp), %rdi
 5739      50
 5740 280b E8000000 		call	queueTake
 5740      00
 5741              	.LEHE285:
 5742 2810 8944240C 		movl	%eax, 12(%rsp)
 5743              	.LEHB286:
 5744 2814 E8000000 		call	_ZN8UnitTest11CurrentTest7DetailsEv
 5744      00
 5745 2819 488B30   		movq	(%rax), %rsi
 5746 281c BAD30000 		movl	$211, %edx
 5746      00
 5747 2821 4889DF   		movq	%rbx, %rdi
 5748 2824 E8000000 		call	_ZN8UnitTest11TestDetailsC1ERKS0_i
 5748      00
 5749 2829 C7442420 		movl	$0, 32(%rsp)
 5749      00000000 
 5750 2831 E8000000 		call	_ZN8UnitTest11CurrentTest7ResultsEv
 5750      00
 5751 2836 488B38   		movq	(%rax), %rdi
 5752 2839 488D5424 		leaq	12(%rsp), %rdx
 5752      0C
 5753 283e 488D7424 		leaq	32(%rsp), %rsi
 5753      20
 5754 2843 4889D9   		movq	%rbx, %rcx
 5755 2846 E8000000 		call	_ZN8UnitTest10CheckEqualI9USBStatusS1_EEvRNS_11TestResultsERKT_RKT0_RKNS_11TestDetailsE
 5755      00
 5756              	.LEHE286:
 5757              	.L510:
 5758              	.LEHB287:
 5759 284b E8000000 		call	_ZN8UnitTest11CurrentTest7DetailsEv
 5759      00
 5760 2850 488B30   		movq	(%rax), %rsi
 5761 2853 BAD40000 		movl	$212, %edx
 5761      00
 5762 2858 4889DF   		movq	%rbx, %rdi
 5763 285b E8000000 		call	_ZN8UnitTest11TestDetailsC1ERKS0_i
 5763      00
 5764 2860 488B6C24 		movq	16(%rsp), %rbp
 5764      10
 5765 2865 48C74424 		movq	$8, 32(%rsp)
 5765      20080000 
 5765      00
 5766 286e E8000000 		call	_ZN8UnitTest11CurrentTest7ResultsEv
 5766      00
 5767 2873 488B38   		movq	(%rax), %rdi
 5768 2876 488D7424 		leaq	32(%rsp), %rsi
 5768      20
 5769 287b 4889D9   		movq	%rbx, %rcx
 5770 287e 4889EA   		movq	%rbp, %rdx
 5771 2881 E8000000 		call	_ZN8UnitTest10CheckEqualImjEEvRNS_11TestResultsERKT_RKT0_RKNS_11TestDetailsE
 5771      00
 5772              	.LEHE287:
 5773              	.L513:
 5774 2886 488D7C24 		leaq	80(%rsp), %rdi
 5774      50
 5775              	.LEHB288:
 5776 288b E8000000 		call	queueCommitTake
 5776      00
 5777              	.LEHE288:
 5778              	.LEHB289:
 5779 2890 E8000000 		call	_ZN8UnitTest11CurrentTest7DetailsEv
 5779      00
 5780 2895 488B30   		movq	(%rax), %rsi
 5781 2898 BAD80000 		movl	$216, %edx
 5781      00
 5782 289d 4889DF   		movq	%rbx, %rdi
 5783 28a0 E8000000 		call	_ZN8UnitTest11TestDetailsC1ERKS0_i
 5783      00
 5784 28a5 48C74424 		movq	$4, 32(%rsp)
 5784      20040000 
 5784      00
 5785 28ae E8000000 		call	_ZN8UnitTest11CurrentTest7ResultsEv
 5785      00
 5786 28b3 488B38   		movq	(%rax), %rdi
 5787 28b6 488D5424 		leaq	88(%rsp), %rdx
 5787      58
 5788 28bb 488D7424 		leaq	32(%rsp), %rsi
 5788      20
 5789 28c0 4889D9   		movq	%rbx, %rcx
 5790 28c3 E8000000 		call	_ZN8UnitTest10CheckEqualImmEEvRNS_11TestResultsERKT_RKT0_RKNS_11TestDetailsE
 5790      00
 5791              	.LEHE289:
 5792              	.L516:
 5793              	.LEHB290:
 5794 28c8 E8000000 		call	_ZN8UnitTest11CurrentTest7DetailsEv
 5794      00
 5795 28cd 488B30   		movq	(%rax), %rsi
 5796 28d0 BAD90000 		movl	$217, %edx
 5796      00
 5797 28d5 4889DF   		movq	%rbx, %rdi
 5798 28d8 E8000000 		call	_ZN8UnitTest11TestDetailsC1ERKS0_i
 5798      00
 5799 28dd 48C74424 		movq	$0, 32(%rsp)
 5799      20000000 
 5799      00
 5800 28e6 E8000000 		call	_ZN8UnitTest11CurrentTest7ResultsEv
 5800      00
 5801 28eb 488B38   		movq	(%rax), %rdi
 5802 28ee 488D5424 		leaq	96(%rsp), %rdx
 5802      60
 5803 28f3 488D7424 		leaq	32(%rsp), %rsi
 5803      20
 5804 28f8 4889D9   		movq	%rbx, %rcx
 5805 28fb E8000000 		call	_ZN8UnitTest10CheckEqualImmEEvRNS_11TestResultsERKT_RKT0_RKNS_11TestDetailsE
 5805      00
 5806              	.LEHE290:
 5807              	.L519:
 5808              	.LEHB291:
 5809 2900 E8000000 		call	_ZN8UnitTest11CurrentTest7DetailsEv
 5809      00
 5810 2905 488B30   		movq	(%rax), %rsi
 5811 2908 BADA0000 		movl	$218, %edx
 5811      00
 5812 290d 4889DF   		movq	%rbx, %rdi
 5813 2910 E8000000 		call	_ZN8UnitTest11TestDetailsC1ERKS0_i
 5813      00
 5814 2915 48C74424 		movq	$0, 32(%rsp)
 5814      20000000 
 5814      00
 5815 291e E8000000 		call	_ZN8UnitTest11CurrentTest7ResultsEv
 5815      00
 5816 2923 488B38   		movq	(%rax), %rdi
 5817 2926 488D5424 		leaq	104(%rsp), %rdx
 5817      68
 5818 292b 488D7424 		leaq	32(%rsp), %rsi
 5818      20
 5819 2930 4889D9   		movq	%rbx, %rcx
 5820 2933 E8000000 		call	_ZN8UnitTest10CheckEqualImmEEvRNS_11TestResultsERKT_RKT0_RKNS_11TestDetailsE
 5820      00
 5821              	.LEHE291:
 5822              	.L522:
 5823              	.LEHB292:
 5824 2938 E8000000 		call	_ZN8UnitTest11CurrentTest7DetailsEv
 5824      00
 5825 293d 488B30   		movq	(%rax), %rsi
 5826 2940 BADB0000 		movl	$219, %edx
 5826      00
 5827 2945 4889DF   		movq	%rbx, %rdi
 5828 2948 E8000000 		call	_ZN8UnitTest11TestDetailsC1ERKS0_i
 5828      00
 5829 294d 48C74424 		movq	$0, 32(%rsp)
 5829      20000000 
 5829      00
 5830 2956 E8000000 		call	_ZN8UnitTest11CurrentTest7ResultsEv
 5830      00
 5831 295b 488B38   		movq	(%rax), %rdi
 5832 295e 488D5424 		leaq	112(%rsp), %rdx
 5832      70
 5833 2963 488D7424 		leaq	32(%rsp), %rsi
 5833      20
 5834 2968 4889D9   		movq	%rbx, %rcx
 5835 296b E8000000 		call	_ZN8UnitTest10CheckEqualImmEEvRNS_11TestResultsERKT_RKT0_RKNS_11TestDetailsE
 5835      00
 5836              	.LEHE292:
 5837              	.L525:
 5838              	.LEHB293:
 5839 2970 E8000000 		call	_ZN8UnitTest11CurrentTest7DetailsEv
 5839      00
 5840 2975 488B30   		movq	(%rax), %rsi
 5841 2978 BADE0000 		movl	$222, %edx
 5841      00
 5842 297d 4889DF   		movq	%rbx, %rdi
 5843 2980 E8000000 		call	_ZN8UnitTest11TestDetailsC1ERKS0_i
 5843      00
 5844 2985 488B4424 		movq	80(%rsp), %rax
 5844      50
 5845 298a 488B00   		movq	(%rax), %rax
 5846 298d 8B00     		movl	(%rax), %eax
 5847 298f 48C74424 		movq	$5, 32(%rsp)
 5847      20050000 
 5847      00
 5848 2998 890424   		movl	%eax, (%rsp)
 5849 299b E8000000 		call	_ZN8UnitTest11CurrentTest7ResultsEv
 5849      00
 5850 29a0 488B38   		movq	(%rax), %rdi
 5851 29a3 488D7424 		leaq	32(%rsp), %rsi
 5851      20
 5852 29a8 4889D9   		movq	%rbx, %rcx
 5853 29ab 4889E2   		movq	%rsp, %rdx
 5854 29ae E8000000 		call	_ZN8UnitTest10CheckEqualImjEEvRNS_11TestResultsERKT_RKT0_RKNS_11TestDetailsE
 5854      00
 5855              	.LEHE293:
 5856              	.L528:
 5857              	.LEHB294:
 5858 29b3 E8000000 		call	_ZN8UnitTest11CurrentTest7DetailsEv
 5858      00
 5859 29b8 488B30   		movq	(%rax), %rsi
 5860 29bb BADF0000 		movl	$223, %edx
 5860      00
 5861 29c0 4889DF   		movq	%rbx, %rdi
 5862 29c3 E8000000 		call	_ZN8UnitTest11TestDetailsC1ERKS0_i
 5862      00
 5863 29c8 488B4424 		movq	80(%rsp), %rax
 5863      50
 5864 29cd 488B4008 		movq	8(%rax), %rax
 5865 29d1 8B00     		movl	(%rax), %eax
 5866 29d3 48C74424 		movq	$6, 32(%rsp)
 5866      20060000 
 5866      00
 5867 29dc 890424   		movl	%eax, (%rsp)
 5868 29df E8000000 		call	_ZN8UnitTest11CurrentTest7ResultsEv
 5868      00
 5869 29e4 488B38   		movq	(%rax), %rdi
 5870 29e7 488D7424 		leaq	32(%rsp), %rsi
 5870      20
 5871 29ec 4889D9   		movq	%rbx, %rcx
 5872 29ef 4889E2   		movq	%rsp, %rdx
 5873 29f2 E8000000 		call	_ZN8UnitTest10CheckEqualImjEEvRNS_11TestResultsERKT_RKT0_RKNS_11TestDetailsE
 5873      00
 5874              	.LEHE294:
 5875              	.L531:
 5876              	.LEHB295:
 5877 29f7 E8000000 		call	_ZN8UnitTest11CurrentTest7DetailsEv
 5877      00
 5878 29fc 488B30   		movq	(%rax), %rsi
 5879 29ff BAE00000 		movl	$224, %edx
 5879      00
 5880 2a04 4889DF   		movq	%rbx, %rdi
 5881 2a07 E8000000 		call	_ZN8UnitTest11TestDetailsC1ERKS0_i
 5881      00
 5882 2a0c 488B4424 		movq	80(%rsp), %rax
 5882      50
 5883 2a11 488B4010 		movq	16(%rax), %rax
 5884 2a15 8B00     		movl	(%rax), %eax
 5885 2a17 48C74424 		movq	$7, 32(%rsp)
 5885      20070000 
 5885      00
 5886 2a20 890424   		movl	%eax, (%rsp)
 5887 2a23 E8000000 		call	_ZN8UnitTest11CurrentTest7ResultsEv
 5887      00
 5888 2a28 488B38   		movq	(%rax), %rdi
 5889 2a2b 488D7424 		leaq	32(%rsp), %rsi
 5889      20
 5890 2a30 4889D9   		movq	%rbx, %rcx
 5891 2a33 4889E2   		movq	%rsp, %rdx
 5892 2a36 E8000000 		call	_ZN8UnitTest10CheckEqualImjEEvRNS_11TestResultsERKT_RKT0_RKNS_11TestDetailsE
 5892      00
 5893              	.LEHE295:
 5894              	.L534:
 5895              	.LEHB296:
 5896 2a3b E8000000 		call	_ZN8UnitTest11CurrentTest7DetailsEv
 5896      00
 5897 2a40 488B30   		movq	(%rax), %rsi
 5898 2a43 BAE10000 		movl	$225, %edx
 5898      00
 5899 2a48 4889DF   		movq	%rbx, %rdi
 5900 2a4b E8000000 		call	_ZN8UnitTest11TestDetailsC1ERKS0_i
 5900      00
 5901 2a50 488B4424 		movq	80(%rsp), %rax
 5901      50
 5902 2a55 488B4018 		movq	24(%rax), %rax
 5903 2a59 8B00     		movl	(%rax), %eax
 5904 2a5b 48C74424 		movq	$8, 32(%rsp)
 5904      20080000 
 5904      00
 5905 2a64 890424   		movl	%eax, (%rsp)
 5906 2a67 E8000000 		call	_ZN8UnitTest11CurrentTest7ResultsEv
 5906      00
 5907 2a6c 488B38   		movq	(%rax), %rdi
 5908 2a6f 488D7424 		leaq	32(%rsp), %rsi
 5908      20
 5909 2a74 4889D9   		movq	%rbx, %rcx
 5910 2a77 4889E2   		movq	%rsp, %rdx
 5911 2a7a E8000000 		call	_ZN8UnitTest10CheckEqualImjEEvRNS_11TestResultsERKT_RKT0_RKNS_11TestDetailsE
 5911      00
 5912              	.LEHE296:
 5913              	.L537:
 5914 2a7f 488D7C24 		leaq	80(%rsp), %rdi
 5914      50
 5915              	.LEHB297:
 5916 2a84 E8000000 		call	queueDestroy
 5916      00
 5917              	.LEHE297:
 5918 2a89 4881C498 		addq	$152, %rsp
 5918      000000
 5919              		.cfi_remember_state
 5920              		.cfi_def_cfa_offset 24
 5921 2a90 5B       		popq	%rbx
 5922              		.cfi_def_cfa_offset 16
 5923 2a91 5D       		popq	%rbp
 5924              		.cfi_def_cfa_offset 8
 5925 2a92 C3       		ret
 5926              	.L538:
 5927              		.cfi_restore_state
 5928 2a93 4889C7   		movq	%rax, %rdi
 5929 2a96 E8000000 		call	__cxa_begin_catch
 5929      00
 5930              	.LEHB298:
 5931 2a9b E8000000 		call	_ZN8UnitTest11CurrentTest7DetailsEv
 5931      00
 5932 2aa0 488D5C24 		leaq	48(%rsp), %rbx
 5932      30
 5933 2aa5 488B30   		movq	(%rax), %rsi
 5934 2aa8 BAAD0000 		movl	$173, %edx
 5934      00
 5935 2aad 4889DF   		movq	%rbx, %rdi
 5936 2ab0 E8000000 		call	_ZN8UnitTest11TestDetailsC1ERKS0_i
 5936      00
 5937 2ab5 E8000000 		call	_ZN8UnitTest11CurrentTest7ResultsEv
 5937      00
 5938 2aba 488B38   		movq	(%rax), %rdi
 5939 2abd BA000000 		movl	$.LC4, %edx
 5939      00
 5940 2ac2 4889DE   		movq	%rbx, %rsi
 5941 2ac5 E8000000 		call	_ZN8UnitTest11TestResults13OnTestFailureERKNS_11TestDetailsEPKc
 5941      00
 5942              	.LEHE298:
 5943              	.LEHB299:
 5944 2aca E8000000 		call	__cxa_end_catch
 5944      00
 5945              	.LEHE299:
 5946 2acf E918F9FF 		jmp	.L465
 5946      FF
 5947              	.L586:
 5948 2ad4 4889C7   		movq	%rax, %rdi
 5949              		.p2align 4,,5
 5950 2ad7 E8000000 		call	__cxa_begin_catch
 5950      00
 5951 2adc 0F1F4000 		.p2align 4,,5
 5952              	.LEHB300:
 5953 2ae0 E8000000 		call	_ZN8UnitTest11CurrentTest7DetailsEv
 5953      00
 5954 2ae5 488B30   		movq	(%rax), %rsi
 5955 2ae8 BAE10000 		movl	$225, %edx
 5955      00
 5956 2aed 4889DF   		movq	%rbx, %rdi
 5957 2af0 E8000000 		call	_ZN8UnitTest11TestDetailsC1ERKS0_i
 5957      00
 5958 2af5 E8000000 		call	_ZN8UnitTest11CurrentTest7ResultsEv
 5958      00
 5959 2afa 488B38   		movq	(%rax), %rdi
 5960 2afd BA000000 		movl	$.LC23, %edx
 5960      00
 5961 2b02 4889DE   		movq	%rbx, %rsi
 5962 2b05 E8000000 		call	_ZN8UnitTest11TestResults13OnTestFailureERKNS_11TestDetailsEPKc
 5962      00
 5963              	.LEHE300:
 5964              	.LEHB301:
 5965 2b0a E8000000 		call	__cxa_end_catch
 5965      00
 5966              	.LEHE301:
 5967 2b0f E96BFFFF 		jmp	.L537
 5967      FF
 5968              	.L578:
 5969 2b14 4889C7   		movq	%rax, %rdi
 5970              		.p2align 4,,5
 5971 2b17 E8000000 		call	__cxa_begin_catch
 5971      00
 5972 2b1c 0F1F4000 		.p2align 4,,5
 5973              	.LEHB302:
 5974 2b20 E8000000 		call	_ZN8UnitTest11CurrentTest7DetailsEv
 5974      00
 5975 2b25 488B30   		movq	(%rax), %rsi
 5976 2b28 BADB0000 		movl	$219, %edx
 5976      00
 5977 2b2d 4889DF   		movq	%rbx, %rdi
 5978 2b30 E8000000 		call	_ZN8UnitTest11TestDetailsC1ERKS0_i
 5978      00
 5979 2b35 E8000000 		call	_ZN8UnitTest11CurrentTest7ResultsEv
 5979      00
 5980 2b3a 488B38   		movq	(%rax), %rdi
 5981 2b3d BA000000 		movl	$.LC8, %edx
 5981      00
 5982 2b42 4889DE   		movq	%rbx, %rsi
 5983 2b45 E8000000 		call	_ZN8UnitTest11TestResults13OnTestFailureERKNS_11TestDetailsEPKc
 5983      00
 5984              	.LEHE302:
 5985              	.LEHB303:
 5986 2b4a E8000000 		call	__cxa_end_catch
 5986      00
 5987              	.LEHE303:
 5988 2b4f E91CFEFF 		jmp	.L525
 5988      FF
 5989              	.L582:
 5990 2b54 4889C7   		movq	%rax, %rdi
 5991              		.p2align 4,,5
 5992 2b57 E8000000 		call	__cxa_begin_catch
 5992      00
 5993 2b5c 0F1F4000 		.p2align 4,,5
 5994              	.LEHB304:
 5995 2b60 E8000000 		call	_ZN8UnitTest11CurrentTest7DetailsEv
 5995      00
 5996 2b65 488B30   		movq	(%rax), %rsi
 5997 2b68 BADF0000 		movl	$223, %edx
 5997      00
 5998 2b6d 4889DF   		movq	%rbx, %rdi
 5999 2b70 E8000000 		call	_ZN8UnitTest11TestDetailsC1ERKS0_i
 5999      00
 6000 2b75 E8000000 		call	_ZN8UnitTest11CurrentTest7ResultsEv
 6000      00
 6001 2b7a 488B38   		movq	(%rax), %rdi
 6002 2b7d BA000000 		movl	$.LC19, %edx
 6002      00
 6003 2b82 4889DE   		movq	%rbx, %rsi
 6004 2b85 E8000000 		call	_ZN8UnitTest11TestResults13OnTestFailureERKNS_11TestDetailsEPKc
 6004      00
 6005              	.LEHE304:
 6006              	.LEHB305:
 6007 2b8a E8000000 		call	__cxa_end_catch
 6007      00
 6008              	.LEHE305:
 6009 2b8f E963FEFF 		jmp	.L531
 6009      FF
 6010              	.L574:
 6011 2b94 4889C7   		movq	%rax, %rdi
 6012              		.p2align 4,,5
 6013 2b97 E8000000 		call	__cxa_begin_catch
 6013      00
 6014 2b9c 0F1F4000 		.p2align 4,,5
 6015              	.LEHB306:
 6016 2ba0 E8000000 		call	_ZN8UnitTest11CurrentTest7DetailsEv
 6016      00
 6017 2ba5 488B30   		movq	(%rax), %rsi
 6018 2ba8 BAD90000 		movl	$217, %edx
 6018      00
 6019 2bad 4889DF   		movq	%rbx, %rdi
 6020 2bb0 E8000000 		call	_ZN8UnitTest11TestDetailsC1ERKS0_i
 6020      00
 6021 2bb5 E8000000 		call	_ZN8UnitTest11CurrentTest7ResultsEv
 6021      00
 6022 2bba 488B38   		movq	(%rax), %rdi
 6023 2bbd BA000000 		movl	$.LC6, %edx
 6023      00
 6024 2bc2 4889DE   		movq	%rbx, %rsi
 6025 2bc5 E8000000 		call	_ZN8UnitTest11TestResults13OnTestFailureERKNS_11TestDetailsEPKc
 6025      00
 6026              	.LEHE306:
 6027              	.LEHB307:
 6028 2bca E8000000 		call	__cxa_end_catch
 6028      00
 6029              	.LEHE307:
 6030 2bcf E92CFDFF 		jmp	.L519
 6030      FF
 6031              	.L584:
 6032 2bd4 4889C7   		movq	%rax, %rdi
 6033              		.p2align 4,,5
 6034 2bd7 E8000000 		call	__cxa_begin_catch
 6034      00
 6035 2bdc 0F1F4000 		.p2align 4,,5
 6036              	.LEHB308:
 6037 2be0 E8000000 		call	_ZN8UnitTest11CurrentTest7DetailsEv
 6037      00
 6038 2be5 488B30   		movq	(%rax), %rsi
 6039 2be8 BAE00000 		movl	$224, %edx
 6039      00
 6040 2bed 4889DF   		movq	%rbx, %rdi
 6041 2bf0 E8000000 		call	_ZN8UnitTest11TestDetailsC1ERKS0_i
 6041      00
 6042 2bf5 E8000000 		call	_ZN8UnitTest11CurrentTest7ResultsEv
 6042      00
 6043 2bfa 488B38   		movq	(%rax), %rdi
 6044 2bfd BA000000 		movl	$.LC20, %edx
 6044      00
 6045 2c02 4889DE   		movq	%rbx, %rsi
 6046 2c05 E8000000 		call	_ZN8UnitTest11TestResults13OnTestFailureERKNS_11TestDetailsEPKc
 6046      00
 6047              	.LEHE308:
 6048              	.LEHB309:
 6049 2c0a E8000000 		call	__cxa_end_catch
 6049      00
 6050              	.LEHE309:
 6051 2c0f E927FEFF 		jmp	.L534
 6051      FF
 6052              	.L576:
 6053 2c14 4889C7   		movq	%rax, %rdi
 6054              		.p2align 4,,5
 6055 2c17 E8000000 		call	__cxa_begin_catch
 6055      00
 6056 2c1c 0F1F4000 		.p2align 4,,5
 6057              	.LEHB310:
 6058 2c20 E8000000 		call	_ZN8UnitTest11CurrentTest7DetailsEv
 6058      00
 6059 2c25 488B30   		movq	(%rax), %rsi
 6060 2c28 BADA0000 		movl	$218, %edx
 6060      00
 6061 2c2d 4889DF   		movq	%rbx, %rdi
 6062 2c30 E8000000 		call	_ZN8UnitTest11TestDetailsC1ERKS0_i
 6062      00
 6063 2c35 E8000000 		call	_ZN8UnitTest11CurrentTest7ResultsEv
 6063      00
 6064 2c3a 488B38   		movq	(%rax), %rdi
 6065 2c3d BA000000 		movl	$.LC7, %edx
 6065      00
 6066 2c42 4889DE   		movq	%rbx, %rsi
 6067 2c45 E8000000 		call	_ZN8UnitTest11TestResults13OnTestFailureERKNS_11TestDetailsEPKc
 6067      00
 6068              	.LEHE310:
 6069              	.LEHB311:
 6070 2c4a E8000000 		call	__cxa_end_catch
 6070      00
 6071              	.LEHE311:
 6072 2c4f E9E4FCFF 		jmp	.L522
 6072      FF
 6073              	.L580:
 6074 2c54 4889C7   		movq	%rax, %rdi
 6075              		.p2align 4,,5
 6076 2c57 E8000000 		call	__cxa_begin_catch
 6076      00
 6077 2c5c 0F1F4000 		.p2align 4,,5
 6078              	.LEHB312:
 6079 2c60 E8000000 		call	_ZN8UnitTest11CurrentTest7DetailsEv
 6079      00
 6080 2c65 488B30   		movq	(%rax), %rsi
 6081 2c68 BADE0000 		movl	$222, %edx
 6081      00
 6082 2c6d 4889DF   		movq	%rbx, %rdi
 6083 2c70 E8000000 		call	_ZN8UnitTest11TestDetailsC1ERKS0_i
 6083      00
 6084 2c75 E8000000 		call	_ZN8UnitTest11CurrentTest7ResultsEv
 6084      00
 6085 2c7a 488B38   		movq	(%rax), %rdi
 6086 2c7d BA000000 		movl	$.LC18, %edx
 6086      00
 6087 2c82 4889DE   		movq	%rbx, %rsi
 6088 2c85 E8000000 		call	_ZN8UnitTest11TestResults13OnTestFailureERKNS_11TestDetailsEPKc
 6088      00
 6089              	.LEHE312:
 6090              	.LEHB313:
 6091 2c8a E8000000 		call	__cxa_end_catch
 6091      00
 6092              	.LEHE313:
 6093 2c8f E91FFDFF 		jmp	.L528
 6093      FF
 6094              	.L572:
 6095 2c94 4889C7   		movq	%rax, %rdi
 6096              		.p2align 4,,5
 6097 2c97 E8000000 		call	__cxa_begin_catch
 6097      00
 6098 2c9c 0F1F4000 		.p2align 4,,5
 6099              	.LEHB314:
 6100 2ca0 E8000000 		call	_ZN8UnitTest11CurrentTest7DetailsEv
 6100      00
 6101 2ca5 488B30   		movq	(%rax), %rsi
 6102 2ca8 BAD80000 		movl	$216, %edx
 6102      00
 6103 2cad 4889DF   		movq	%rbx, %rdi
 6104 2cb0 E8000000 		call	_ZN8UnitTest11TestDetailsC1ERKS0_i
 6104      00
 6105 2cb5 E8000000 		call	_ZN8UnitTest11CurrentTest7ResultsEv
 6105      00
 6106 2cba 488B38   		movq	(%rax), %rdi
 6107 2cbd BA000000 		movl	$.LC5, %edx
 6107      00
 6108 2cc2 4889DE   		movq	%rbx, %rsi
 6109 2cc5 E8000000 		call	_ZN8UnitTest11TestResults13OnTestFailureERKNS_11TestDetailsEPKc
 6109      00
 6110              	.LEHE314:
 6111              	.LEHB315:
 6112 2cca E8000000 		call	__cxa_end_catch
 6112      00
 6113              	.LEHE315:
 6114 2ccf E9F4FBFF 		jmp	.L516
 6114      FF
 6115              	.L539:
 6116 2cd4 4889C3   		movq	%rax, %rbx
 6117              		.p2align 4,,5
 6118 2cd7 E8000000 		call	__cxa_end_catch
 6118      00
 6119 2cdc 4889DF   		movq	%rbx, %rdi
 6120              	.LEHB316:
 6121 2cdf E8000000 		call	_Unwind_Resume
 6121      00
 6122              	.LEHE316:
 6123              	.L587:
 6124 2ce4 4889C3   		movq	%rax, %rbx
 6125 2ce7 E8000000 		call	__cxa_end_catch
 6125      00
 6126 2cec 4889DF   		movq	%rbx, %rdi
 6127              	.LEHB317:
 6128 2cef E8000000 		call	_Unwind_Resume
 6128      00
 6129              	.LEHE317:
 6130              	.L585:
 6131 2cf4 4889C3   		movq	%rax, %rbx
 6132 2cf7 E8000000 		call	__cxa_end_catch
 6132      00
 6133 2cfc 4889DF   		movq	%rbx, %rdi
 6134              	.LEHB318:
 6135 2cff E8000000 		call	_Unwind_Resume
 6135      00
 6136              	.LEHE318:
 6137              	.L583:
 6138 2d04 4889C3   		movq	%rax, %rbx
 6139 2d07 E8000000 		call	__cxa_end_catch
 6139      00
 6140 2d0c 4889DF   		movq	%rbx, %rdi
 6141              	.LEHB319:
 6142 2d0f E8000000 		call	_Unwind_Resume
 6142      00
 6143              	.LEHE319:
 6144              	.L581:
 6145 2d14 4889C3   		movq	%rax, %rbx
 6146 2d17 E8000000 		call	__cxa_end_catch
 6146      00
 6147 2d1c 4889DF   		movq	%rbx, %rdi
 6148              	.LEHB320:
 6149 2d1f E8000000 		call	_Unwind_Resume
 6149      00
 6150              	.LEHE320:
 6151              	.L579:
 6152 2d24 4889C3   		movq	%rax, %rbx
 6153 2d27 E8000000 		call	__cxa_end_catch
 6153      00
 6154 2d2c 4889DF   		movq	%rbx, %rdi
 6155              	.LEHB321:
 6156 2d2f E8000000 		call	_Unwind_Resume
 6156      00
 6157              	.LEHE321:
 6158              	.L577:
 6159 2d34 4889C3   		movq	%rax, %rbx
 6160 2d37 E8000000 		call	__cxa_end_catch
 6160      00
 6161 2d3c 4889DF   		movq	%rbx, %rdi
 6162              	.LEHB322:
 6163 2d3f E8000000 		call	_Unwind_Resume
 6163      00
 6164              	.LEHE322:
 6165              	.L575:
 6166 2d44 4889C3   		movq	%rax, %rbx
 6167 2d47 E8000000 		call	__cxa_end_catch
 6167      00
 6168 2d4c 4889DF   		movq	%rbx, %rdi
 6169              	.LEHB323:
 6170 2d4f E8000000 		call	_Unwind_Resume
 6170      00
 6171              	.LEHE323:
 6172              	.L573:
 6173 2d54 4889C3   		movq	%rax, %rbx
 6174 2d57 E8000000 		call	__cxa_end_catch
 6174      00
 6175 2d5c 4889DF   		movq	%rbx, %rdi
 6176              	.LEHB324:
 6177 2d5f E8000000 		call	_Unwind_Resume
 6177      00
 6178              	.LEHE324:
 6179              	.L570:
 6180 2d64 4889C7   		movq	%rax, %rdi
 6181 2d67 E8000000 		call	__cxa_begin_catch
 6181      00
 6182              	.LEHB325:
 6183 2d6c E8000000 		call	_ZN8UnitTest11CurrentTest7DetailsEv
 6183      00
 6184 2d71 488B30   		movq	(%rax), %rsi
 6185 2d74 BAD40000 		movl	$212, %edx
 6185      00
 6186 2d79 4889DF   		movq	%rbx, %rdi
 6187 2d7c E8000000 		call	_ZN8UnitTest11TestDetailsC1ERKS0_i
 6187      00
 6188 2d81 E8000000 		call	_ZN8UnitTest11CurrentTest7ResultsEv
 6188      00
 6189 2d86 488B38   		movq	(%rax), %rdi
 6190 2d89 BA000000 		movl	$.LC27, %edx
 6190      00
 6191 2d8e 4889DE   		movq	%rbx, %rsi
 6192 2d91 E8000000 		call	_ZN8UnitTest11TestResults13OnTestFailureERKNS_11TestDetailsEPKc
 6192      00
 6193              	.LEHE325:
 6194              	.LEHB326:
 6195 2d96 E8000000 		call	__cxa_end_catch
 6195      00
 6196              	.LEHE326:
 6197 2d9b E9E6FAFF 		jmp	.L513
 6197      FF
 6198              	.L568:
 6199 2da0 4889C7   		movq	%rax, %rdi
 6200              		.p2align 4,,5
 6201 2da3 E8000000 		call	__cxa_begin_catch
 6201      00
 6202              		.p2align 4,,5
 6203              	.LEHB327:
 6204 2da8 E8000000 		call	_ZN8UnitTest11CurrentTest7DetailsEv
 6204      00
 6205 2dad 488B30   		movq	(%rax), %rsi
 6206 2db0 BAD30000 		movl	$211, %edx
 6206      00
 6207 2db5 4889DF   		movq	%rbx, %rdi
 6208 2db8 E8000000 		call	_ZN8UnitTest11TestDetailsC1ERKS0_i
 6208      00
 6209 2dbd E8000000 		call	_ZN8UnitTest11CurrentTest7ResultsEv
 6209      00
 6210 2dc2 488B38   		movq	(%rax), %rdi
 6211 2dc5 BA000000 		movl	$.LC4, %edx
 6211      00
 6212 2dca 4889DE   		movq	%rbx, %rsi
 6213 2dcd E8000000 		call	_ZN8UnitTest11TestResults13OnTestFailureERKNS_11TestDetailsEPKc
 6213      00
 6214              	.LEHE327:
 6215              	.LEHB328:
 6216 2dd2 E8000000 		call	__cxa_end_catch
 6216      00
 6217              	.LEHE328:
 6218 2dd7 E96FFAFF 		jmp	.L510
 6218      FF
 6219              	.L571:
 6220 2ddc 4889C3   		movq	%rax, %rbx
 6221 2ddf 90       		.p2align 4,,5
 6222 2de0 E8000000 		call	__cxa_end_catch
 6222      00
 6223 2de5 4889DF   		movq	%rbx, %rdi
 6224              	.LEHB329:
 6225 2de8 E8000000 		call	_Unwind_Resume
 6225      00
 6226              	.LEHE329:
 6227              	.L569:
 6228 2ded 4889C3   		movq	%rax, %rbx
 6229 2df0 E8000000 		call	__cxa_end_catch
 6229      00
 6230 2df5 4889DF   		movq	%rbx, %rdi
 6231              	.LEHB330:
 6232 2df8 E8000000 		call	_Unwind_Resume
 6232      00
 6233              	.LEHE330:
 6234              	.L566:
 6235 2dfd 4889C7   		movq	%rax, %rdi
 6236 2e00 E8000000 		call	__cxa_begin_catch
 6236      00
 6237              	.LEHB331:
 6238 2e05 E8000000 		call	_ZN8UnitTest11CurrentTest7DetailsEv
 6238      00
 6239 2e0a 488B30   		movq	(%rax), %rsi
 6240 2e0d BAD00000 		movl	$208, %edx
 6240      00
 6241 2e12 4889DF   		movq	%rbx, %rdi
 6242 2e15 E8000000 		call	_ZN8UnitTest11TestDetailsC1ERKS0_i
 6242      00
 6243 2e1a E8000000 		call	_ZN8UnitTest11CurrentTest7ResultsEv
 6243      00
 6244 2e1f 488B38   		movq	(%rax), %rdi
 6245 2e22 BA000000 		movl	$.LC26, %edx
 6245      00
 6246 2e27 4889DE   		movq	%rbx, %rsi
 6247 2e2a E8000000 		call	_ZN8UnitTest11TestResults13OnTestFailureERKNS_11TestDetailsEPKc
 6247      00
 6248              	.LEHE331:
 6249              	.LEHB332:
 6250 2e2f E8000000 		call	__cxa_end_catch
 6250      00
 6251              	.LEHE332:
 6252 2e34 E9BEF9FF 		jmp	.L507
 6252      FF
 6253              	.L564:
 6254 2e39 4889C7   		movq	%rax, %rdi
 6255 2e3c 0F1F4000 		.p2align 4,,5
 6256 2e40 E8000000 		call	__cxa_begin_catch
 6256      00
 6257              		.p2align 4,,5
 6258              	.LEHB333:
 6259 2e45 E8000000 		call	_ZN8UnitTest11CurrentTest7DetailsEv
 6259      00
 6260 2e4a 488B30   		movq	(%rax), %rsi
 6261 2e4d BACF0000 		movl	$207, %edx
 6261      00
 6262 2e52 4889DF   		movq	%rbx, %rdi
 6263 2e55 E8000000 		call	_ZN8UnitTest11TestDetailsC1ERKS0_i
 6263      00
 6264 2e5a E8000000 		call	_ZN8UnitTest11CurrentTest7ResultsEv
 6264      00
 6265 2e5f 488B38   		movq	(%rax), %rdi
 6266 2e62 BA000000 		movl	$.LC4, %edx
 6266      00
 6267 2e67 4889DE   		movq	%rbx, %rsi
 6268 2e6a E8000000 		call	_ZN8UnitTest11TestResults13OnTestFailureERKNS_11TestDetailsEPKc
 6268      00
 6269              	.LEHE333:
 6270              	.LEHB334:
 6271 2e6f E8000000 		call	__cxa_end_catch
 6271      00
 6272              	.LEHE334:
 6273 2e74 E943F9FF 		jmp	.L504
 6273      FF
 6274              	.L567:
 6275 2e79 4889C3   		movq	%rax, %rbx
 6276 2e7c 0F1F4000 		.p2align 4,,5
 6277 2e80 E8000000 		call	__cxa_end_catch
 6277      00
 6278 2e85 4889DF   		movq	%rbx, %rdi
 6279              	.LEHB335:
 6280 2e88 E8000000 		call	_Unwind_Resume
 6280      00
 6281              	.LEHE335:
 6282              	.L565:
 6283 2e8d 4889C3   		movq	%rax, %rbx
 6284 2e90 E8000000 		call	__cxa_end_catch
 6284      00
 6285 2e95 4889DF   		movq	%rbx, %rdi
 6286              	.LEHB336:
 6287 2e98 E8000000 		call	_Unwind_Resume
 6287      00
 6288              	.LEHE336:
 6289              	.L562:
 6290 2e9d 4889C7   		movq	%rax, %rdi
 6291 2ea0 E8000000 		call	__cxa_begin_catch
 6291      00
 6292              	.LEHB337:
 6293 2ea5 E8000000 		call	_ZN8UnitTest11CurrentTest7DetailsEv
 6293      00
 6294 2eaa 488B30   		movq	(%rax), %rsi
 6295 2ead BACC0000 		movl	$204, %edx
 6295      00
 6296 2eb2 4889DF   		movq	%rbx, %rdi
 6297 2eb5 E8000000 		call	_ZN8UnitTest11TestDetailsC1ERKS0_i
 6297      00
 6298 2eba E8000000 		call	_ZN8UnitTest11CurrentTest7ResultsEv
 6298      00
 6299 2ebf 488B38   		movq	(%rax), %rdi
 6300 2ec2 BA000000 		movl	$.LC25, %edx
 6300      00
 6301 2ec7 4889DE   		movq	%rbx, %rsi
 6302 2eca E8000000 		call	_ZN8UnitTest11TestResults13OnTestFailureERKNS_11TestDetailsEPKc
 6302      00
 6303              	.LEHE337:
 6304              	.LEHB338:
 6305 2ecf E8000000 		call	__cxa_end_catch
 6305      00
 6306              	.LEHE338:
 6307 2ed4 E98FF8FF 		jmp	.L501
 6307      FF
 6308              	.L560:
 6309 2ed9 4889C7   		movq	%rax, %rdi
 6310 2edc 0F1F4000 		.p2align 4,,5
 6311 2ee0 E8000000 		call	__cxa_begin_catch
 6311      00
 6312              		.p2align 4,,5
 6313              	.LEHB339:
 6314 2ee5 E8000000 		call	_ZN8UnitTest11CurrentTest7DetailsEv
 6314      00
 6315 2eea 488B30   		movq	(%rax), %rsi
 6316 2eed BACB0000 		movl	$203, %edx
 6316      00
 6317 2ef2 4889DF   		movq	%rbx, %rdi
 6318 2ef5 E8000000 		call	_ZN8UnitTest11TestDetailsC1ERKS0_i
 6318      00
 6319 2efa E8000000 		call	_ZN8UnitTest11CurrentTest7ResultsEv
 6319      00
 6320 2eff 488B38   		movq	(%rax), %rdi
 6321 2f02 BA000000 		movl	$.LC4, %edx
 6321      00
 6322 2f07 4889DE   		movq	%rbx, %rsi
 6323 2f0a E8000000 		call	_ZN8UnitTest11TestResults13OnTestFailureERKNS_11TestDetailsEPKc
 6323      00
 6324              	.LEHE339:
 6325              	.LEHB340:
 6326 2f0f E8000000 		call	__cxa_end_catch
 6326      00
 6327              	.LEHE340:
 6328 2f14 E914F8FF 		jmp	.L498
 6328      FF
 6329              	.L563:
 6330 2f19 4889C3   		movq	%rax, %rbx
 6331 2f1c 0F1F4000 		.p2align 4,,5
 6332 2f20 E8000000 		call	__cxa_end_catch
 6332      00
 6333 2f25 4889DF   		movq	%rbx, %rdi
 6334              	.LEHB341:
 6335 2f28 E8000000 		call	_Unwind_Resume
 6335      00
 6336              	.LEHE341:
 6337              	.L561:
 6338 2f2d 4889C3   		movq	%rax, %rbx
 6339 2f30 E8000000 		call	__cxa_end_catch
 6339      00
 6340 2f35 4889DF   		movq	%rbx, %rdi
 6341              	.LEHB342:
 6342 2f38 E8000000 		call	_Unwind_Resume
 6342      00
 6343              	.LEHE342:
 6344              	.L558:
 6345 2f3d 4889C7   		movq	%rax, %rdi
 6346 2f40 E8000000 		call	__cxa_begin_catch
 6346      00
 6347              	.LEHB343:
 6348 2f45 E8000000 		call	_ZN8UnitTest11CurrentTest7DetailsEv
 6348      00
 6349 2f4a 488B30   		movq	(%rax), %rsi
 6350 2f4d BAC80000 		movl	$200, %edx
 6350      00
 6351 2f52 4889DF   		movq	%rbx, %rdi
 6352 2f55 E8000000 		call	_ZN8UnitTest11TestDetailsC1ERKS0_i
 6352      00
 6353 2f5a E8000000 		call	_ZN8UnitTest11CurrentTest7ResultsEv
 6353      00
 6354 2f5f 488B38   		movq	(%rax), %rdi
 6355 2f62 BA000000 		movl	$.LC24, %edx
 6355      00
 6356 2f67 4889DE   		movq	%rbx, %rsi
 6357 2f6a E8000000 		call	_ZN8UnitTest11TestResults13OnTestFailureERKNS_11TestDetailsEPKc
 6357      00
 6358              	.LEHE343:
 6359              	.LEHB344:
 6360 2f6f E8000000 		call	__cxa_end_catch
 6360      00
 6361              	.LEHE344:
 6362 2f74 E960F7FF 		jmp	.L495
 6362      FF
 6363              	.L556:
 6364 2f79 4889C7   		movq	%rax, %rdi
 6365 2f7c 0F1F4000 		.p2align 4,,5
 6366 2f80 E8000000 		call	__cxa_begin_catch
 6366      00
 6367              		.p2align 4,,5
 6368              	.LEHB345:
 6369 2f85 E8000000 		call	_ZN8UnitTest11CurrentTest7DetailsEv
 6369      00
 6370 2f8a 488B30   		movq	(%rax), %rsi
 6371 2f8d BAC70000 		movl	$199, %edx
 6371      00
 6372 2f92 4889DF   		movq	%rbx, %rdi
 6373 2f95 E8000000 		call	_ZN8UnitTest11TestDetailsC1ERKS0_i
 6373      00
 6374 2f9a E8000000 		call	_ZN8UnitTest11CurrentTest7ResultsEv
 6374      00
 6375 2f9f 488B38   		movq	(%rax), %rdi
 6376 2fa2 BA000000 		movl	$.LC4, %edx
 6376      00
 6377 2fa7 4889DE   		movq	%rbx, %rsi
 6378 2faa E8000000 		call	_ZN8UnitTest11TestResults13OnTestFailureERKNS_11TestDetailsEPKc
 6378      00
 6379              	.LEHE345:
 6380              	.LEHB346:
 6381 2faf E8000000 		call	__cxa_end_catch
 6381      00
 6382              	.LEHE346:
 6383 2fb4 E9E5F6FF 		jmp	.L492
 6383      FF
 6384              	.L559:
 6385 2fb9 4889C3   		movq	%rax, %rbx
 6386 2fbc 0F1F4000 		.p2align 4,,5
 6387 2fc0 E8000000 		call	__cxa_end_catch
 6387      00
 6388 2fc5 4889DF   		movq	%rbx, %rdi
 6389              	.LEHB347:
 6390 2fc8 E8000000 		call	_Unwind_Resume
 6390      00
 6391              	.LEHE347:
 6392              	.L557:
 6393 2fcd 4889C3   		movq	%rax, %rbx
 6394 2fd0 E8000000 		call	__cxa_end_catch
 6394      00
 6395 2fd5 4889DF   		movq	%rbx, %rdi
 6396              	.LEHB348:
 6397 2fd8 E8000000 		call	_Unwind_Resume
 6397      00
 6398              	.LEHE348:
 6399              	.L554:
 6400 2fdd 4889C7   		movq	%rax, %rdi
 6401 2fe0 E8000000 		call	__cxa_begin_catch
 6401      00
 6402              	.LEHB349:
 6403 2fe5 E8000000 		call	_ZN8UnitTest11CurrentTest7DetailsEv
 6403      00
 6404 2fea 488B30   		movq	(%rax), %rsi
 6405 2fed BAC10000 		movl	$193, %edx
 6405      00
 6406 2ff2 4889DF   		movq	%rbx, %rdi
 6407 2ff5 E8000000 		call	_ZN8UnitTest11TestDetailsC1ERKS0_i
 6407      00
 6408 2ffa E8000000 		call	_ZN8UnitTest11CurrentTest7ResultsEv
 6408      00
 6409 2fff 488B38   		movq	(%rax), %rdi
 6410 3002 BA000000 		movl	$.LC21, %edx
 6410      00
 6411 3007 4889DE   		movq	%rbx, %rsi
 6412 300a E8000000 		call	_ZN8UnitTest11TestResults13OnTestFailureERKNS_11TestDetailsEPKc
 6412      00
 6413              	.LEHE349:
 6414              	.LEHB350:
 6415 300f E8000000 		call	__cxa_end_catch
 6415      00
 6416              	.LEHE350:
 6417 3014 E926F6FF 		jmp	.L489
 6417      FF
 6418              	.L552:
 6419 3019 4889C7   		movq	%rax, %rdi
 6420 301c 0F1F4000 		.p2align 4,,5
 6421 3020 E8000000 		call	__cxa_begin_catch
 6421      00
 6422              		.p2align 4,,5
 6423              	.LEHB351:
 6424 3025 E8000000 		call	_ZN8UnitTest11CurrentTest7DetailsEv
 6424      00
 6425 302a 488B30   		movq	(%rax), %rsi
 6426 302d BAC00000 		movl	$192, %edx
 6426      00
 6427 3032 4889DF   		movq	%rbx, %rdi
 6428 3035 E8000000 		call	_ZN8UnitTest11TestDetailsC1ERKS0_i
 6428      00
 6429 303a E8000000 		call	_ZN8UnitTest11CurrentTest7ResultsEv
 6429      00
 6430 303f 488B38   		movq	(%rax), %rdi
 6431 3042 BA000000 		movl	$.LC4, %edx
 6431      00
 6432 3047 4889DE   		movq	%rbx, %rsi
 6433 304a E8000000 		call	_ZN8UnitTest11TestResults13OnTestFailureERKNS_11TestDetailsEPKc
 6433      00
 6434              	.LEHE351:
 6435              	.LEHB352:
 6436 304f E8000000 		call	__cxa_end_catch
 6436      00
 6437              	.LEHE352:
 6438 3054 E9ABF5FF 		jmp	.L486
 6438      FF
 6439              	.L555:
 6440 3059 4889C3   		movq	%rax, %rbx
 6441 305c 0F1F4000 		.p2align 4,,5
 6442 3060 E8000000 		call	__cxa_end_catch
 6442      00
 6443 3065 4889DF   		movq	%rbx, %rdi
 6444              	.LEHB353:
 6445 3068 E8000000 		call	_Unwind_Resume
 6445      00
 6446              	.LEHE353:
 6447              	.L553:
 6448 306d 4889C3   		movq	%rax, %rbx
 6449 3070 E8000000 		call	__cxa_end_catch
 6449      00
 6450 3075 4889DF   		movq	%rbx, %rdi
 6451              	.LEHB354:
 6452 3078 E8000000 		call	_Unwind_Resume
 6452      00
 6453              	.LEHE354:
 6454              	.L550:
 6455 307d 4889C7   		movq	%rax, %rdi
 6456 3080 E8000000 		call	__cxa_begin_catch
 6456      00
 6457              	.LEHB355:
 6458 3085 E8000000 		call	_ZN8UnitTest11CurrentTest7DetailsEv
 6458      00
 6459 308a 488B30   		movq	(%rax), %rsi
 6460 308d BABC0000 		movl	$188, %edx
 6460      00
 6461 3092 4889DF   		movq	%rbx, %rdi
 6462 3095 E8000000 		call	_ZN8UnitTest11TestDetailsC1ERKS0_i
 6462      00
 6463 309a E8000000 		call	_ZN8UnitTest11CurrentTest7ResultsEv
 6463      00
 6464 309f 488B38   		movq	(%rax), %rdi
 6465 30a2 BA000000 		movl	$.LC15, %edx
 6465      00
 6466 30a7 4889DE   		movq	%rbx, %rsi
 6467 30aa E8000000 		call	_ZN8UnitTest11TestResults13OnTestFailureERKNS_11TestDetailsEPKc
 6467      00
 6468              	.LEHE355:
 6469              	.LEHB356:
 6470 30af E8000000 		call	__cxa_end_catch
 6470      00
 6471              	.LEHE356:
 6472 30b4 E9ECF4FF 		jmp	.L483
 6472      FF
 6473              	.L548:
 6474 30b9 4889C7   		movq	%rax, %rdi
 6475 30bc 0F1F4000 		.p2align 4,,5
 6476 30c0 E8000000 		call	__cxa_begin_catch
 6476      00
 6477              		.p2align 4,,5
 6478              	.LEHB357:
 6479 30c5 E8000000 		call	_ZN8UnitTest11CurrentTest7DetailsEv
 6479      00
 6480 30ca 488B30   		movq	(%rax), %rsi
 6481 30cd BABB0000 		movl	$187, %edx
 6481      00
 6482 30d2 4889DF   		movq	%rbx, %rdi
 6483 30d5 E8000000 		call	_ZN8UnitTest11TestDetailsC1ERKS0_i
 6483      00
 6484 30da E8000000 		call	_ZN8UnitTest11CurrentTest7ResultsEv
 6484      00
 6485 30df 488B38   		movq	(%rax), %rdi
 6486 30e2 BA000000 		movl	$.LC4, %edx
 6486      00
 6487 30e7 4889DE   		movq	%rbx, %rsi
 6488 30ea E8000000 		call	_ZN8UnitTest11TestResults13OnTestFailureERKNS_11TestDetailsEPKc
 6488      00
 6489              	.LEHE357:
 6490              	.LEHB358:
 6491 30ef E8000000 		call	__cxa_end_catch
 6491      00
 6492              	.LEHE358:
 6493 30f4 E971F4FF 		jmp	.L480
 6493      FF
 6494              	.L551:
 6495 30f9 4889C3   		movq	%rax, %rbx
 6496 30fc 0F1F4000 		.p2align 4,,5
 6497 3100 E8000000 		call	__cxa_end_catch
 6497      00
 6498 3105 4889DF   		movq	%rbx, %rdi
 6499              	.LEHB359:
 6500 3108 E8000000 		call	_Unwind_Resume
 6500      00
 6501              	.LEHE359:
 6502              	.L549:
 6503 310d 4889C3   		movq	%rax, %rbx
 6504 3110 E8000000 		call	__cxa_end_catch
 6504      00
 6505 3115 4889DF   		movq	%rbx, %rdi
 6506              	.LEHB360:
 6507 3118 E8000000 		call	_Unwind_Resume
 6507      00
 6508              	.LEHE360:
 6509              	.L546:
 6510 311d 4889C7   		movq	%rax, %rdi
 6511 3120 E8000000 		call	__cxa_begin_catch
 6511      00
 6512              	.LEHB361:
 6513 3125 E8000000 		call	_ZN8UnitTest11CurrentTest7DetailsEv
 6513      00
 6514 312a 488B30   		movq	(%rax), %rsi
 6515 312d BAB70000 		movl	$183, %edx
 6515      00
 6516 3132 4889DF   		movq	%rbx, %rdi
 6517 3135 E8000000 		call	_ZN8UnitTest11TestDetailsC1ERKS0_i
 6517      00
 6518 313a E8000000 		call	_ZN8UnitTest11CurrentTest7ResultsEv
 6518      00
 6519 313f 488B38   		movq	(%rax), %rdi
 6520 3142 BA000000 		movl	$.LC14, %edx
 6520      00
 6521 3147 4889DE   		movq	%rbx, %rsi
 6522 314a E8000000 		call	_ZN8UnitTest11TestResults13OnTestFailureERKNS_11TestDetailsEPKc
 6522      00
 6523              	.LEHE361:
 6524              	.LEHB362:
 6525 314f E8000000 		call	__cxa_end_catch
 6525      00
 6526              	.LEHE362:
 6527 3154 E9B2F3FF 		jmp	.L477
 6527      FF
 6528              	.L544:
 6529 3159 4889C7   		movq	%rax, %rdi
 6530 315c 0F1F4000 		.p2align 4,,5
 6531 3160 E8000000 		call	__cxa_begin_catch
 6531      00
 6532              		.p2align 4,,5
 6533              	.LEHB363:
 6534 3165 E8000000 		call	_ZN8UnitTest11CurrentTest7DetailsEv
 6534      00
 6535 316a 488B30   		movq	(%rax), %rsi
 6536 316d BAB60000 		movl	$182, %edx
 6536      00
 6537 3172 4889DF   		movq	%rbx, %rdi
 6538 3175 E8000000 		call	_ZN8UnitTest11TestDetailsC1ERKS0_i
 6538      00
 6539 317a E8000000 		call	_ZN8UnitTest11CurrentTest7ResultsEv
 6539      00
 6540 317f 488B38   		movq	(%rax), %rdi
 6541 3182 BA000000 		movl	$.LC4, %edx
 6541      00
 6542 3187 4889DE   		movq	%rbx, %rsi
 6543 318a E8000000 		call	_ZN8UnitTest11TestResults13OnTestFailureERKNS_11TestDetailsEPKc
 6543      00
 6544              	.LEHE363:
 6545              	.LEHB364:
 6546 318f E8000000 		call	__cxa_end_catch
 6546      00
 6547              	.LEHE364:
 6548 3194 E937F3FF 		jmp	.L474
 6548      FF
 6549              	.L547:
 6550 3199 4889C3   		movq	%rax, %rbx
 6551 319c 0F1F4000 		.p2align 4,,5
 6552 31a0 E8000000 		call	__cxa_end_catch
 6552      00
 6553 31a5 4889DF   		movq	%rbx, %rdi
 6554              	.LEHB365:
 6555 31a8 E8000000 		call	_Unwind_Resume
 6555      00
 6556              	.LEHE365:
 6557              	.L545:
 6558 31ad 4889C3   		movq	%rax, %rbx
 6559 31b0 E8000000 		call	__cxa_end_catch
 6559      00
 6560 31b5 4889DF   		movq	%rbx, %rdi
 6561              	.LEHB366:
 6562 31b8 E8000000 		call	_Unwind_Resume
 6562      00
 6563              	.LEHE366:
 6564              	.L542:
 6565 31bd 4889C7   		movq	%rax, %rdi
 6566 31c0 E8000000 		call	__cxa_begin_catch
 6566      00
 6567              	.LEHB367:
 6568 31c5 E8000000 		call	_ZN8UnitTest11CurrentTest7DetailsEv
 6568      00
 6569 31ca 488B30   		movq	(%rax), %rsi
 6570 31cd BAB20000 		movl	$178, %edx
 6570      00
 6571 31d2 4889DF   		movq	%rbx, %rdi
 6572 31d5 E8000000 		call	_ZN8UnitTest11TestDetailsC1ERKS0_i
 6572      00
 6573 31da E8000000 		call	_ZN8UnitTest11CurrentTest7ResultsEv
 6573      00
 6574 31df 488B38   		movq	(%rax), %rdi
 6575 31e2 BA000000 		movl	$.LC13, %edx
 6575      00
 6576 31e7 4889DE   		movq	%rbx, %rsi
 6577 31ea E8000000 		call	_ZN8UnitTest11TestResults13OnTestFailureERKNS_11TestDetailsEPKc
 6577      00
 6578              	.LEHE367:
 6579              	.LEHB368:
 6580 31ef E8000000 		call	__cxa_end_catch
 6580      00
 6581              	.LEHE368:
 6582 31f4 E978F2FF 		jmp	.L471
 6582      FF
 6583              	.L540:
 6584 31f9 4889C7   		movq	%rax, %rdi
 6585 31fc 0F1F4000 		.p2align 4,,5
 6586 3200 E8000000 		call	__cxa_begin_catch
 6586      00
 6587              		.p2align 4,,5
 6588              	.LEHB369:
 6589 3205 E8000000 		call	_ZN8UnitTest11CurrentTest7DetailsEv
 6589      00
 6590 320a 488B30   		movq	(%rax), %rsi
 6591 320d BAB10000 		movl	$177, %edx
 6591      00
 6592 3212 4889DF   		movq	%rbx, %rdi
 6593 3215 E8000000 		call	_ZN8UnitTest11TestDetailsC1ERKS0_i
 6593      00
 6594 321a E8000000 		call	_ZN8UnitTest11CurrentTest7ResultsEv
 6594      00
 6595 321f 488B38   		movq	(%rax), %rdi
 6596 3222 BA000000 		movl	$.LC4, %edx
 6596      00
 6597 3227 4889DE   		movq	%rbx, %rsi
 6598 322a E8000000 		call	_ZN8UnitTest11TestResults13OnTestFailureERKNS_11TestDetailsEPKc
 6598      00
 6599              	.LEHE369:
 6600              	.LEHB370:
 6601 322f E8000000 		call	__cxa_end_catch
 6601      00
 6602              	.LEHE370:
 6603 3234 E9FDF1FF 		jmp	.L468
 6603      FF
 6604              	.L543:
 6605 3239 4889C3   		movq	%rax, %rbx
 6606 323c 0F1F4000 		.p2align 4,,5
 6607 3240 E8000000 		call	__cxa_end_catch
 6607      00
 6608 3245 4889DF   		movq	%rbx, %rdi
 6609              	.LEHB371:
 6610 3248 E8000000 		call	_Unwind_Resume
 6610      00
 6611              	.LEHE371:
 6612              	.L541:
 6613 324d 4889C3   		movq	%rax, %rbx
 6614 3250 E8000000 		call	__cxa_end_catch
 6614      00
 6615 3255 4889DF   		movq	%rbx, %rdi
 6616              	.LEHB372:
 6617 3258 E8000000 		call	_Unwind_Resume
 6617      00
 6618              	.LEHE372:
 6619              		.cfi_endproc
 6620              	.LFE1119:
 6621              		.section	.gcc_except_table
 6622              		.align 4
 6623              	.LLSDA1119:
 6624 05ec FF       		.byte	0xff
 6625 05ed 03       		.byte	0x3
 6626 05ee E404     		.uleb128 .LLSDATT1119-.LLSDATTD1119
 6627              	.LLSDATTD1119:
 6628 05f0 01       		.byte	0x1
 6629 05f1 D904     		.uleb128 .LLSDACSE1119-.LLSDACSB1119
 6630              	.LLSDACSB1119:
 6631 05f3 27       		.uleb128 .LEHB262-.LFB1119
 6632 05f4 05       		.uleb128 .LEHE262-.LEHB262
 6633 05f5 00       		.uleb128 0
 6634 05f6 00       		.uleb128 0
 6635 05f7 30       		.uleb128 .LEHB263-.LFB1119
 6636 05f8 3C       		.uleb128 .LEHE263-.LEHB263
 6637 05f9 930E     		.uleb128 .L538-.LFB1119
 6638 05fb 01       		.uleb128 0x1
 6639 05fc 76       		.uleb128 .LEHB264-.LFB1119
 6640 05fd 05       		.uleb128 .LEHE264-.LEHB264
 6641 05fe 00       		.uleb128 0
 6642 05ff 00       		.uleb128 0
 6643 0600 7F       		.uleb128 .LEHB265-.LFB1119
 6644 0601 37       		.uleb128 .LEHE265-.LEHB265
 6645 0602 F91C     		.uleb128 .L540-.LFB1119
 6646 0604 01       		.uleb128 0x1
 6647 0605 B601     		.uleb128 .LEHB266-.LFB1119
 6648 0607 3B       		.uleb128 .LEHE266-.LEHB266
 6649 0608 BD1C     		.uleb128 .L542-.LFB1119
 6650 060a 01       		.uleb128 0x1
 6651 060b 8102     		.uleb128 .LEHB267-.LFB1119
 6652 060d 14       		.uleb128 .LEHE267-.LEHB267
 6653 060e 00       		.uleb128 0
 6654 060f 00       		.uleb128 0
 6655 0610 9902     		.uleb128 .LEHB268-.LFB1119
 6656 0612 37       		.uleb128 .LEHE268-.LEHB268
 6657 0613 D91B     		.uleb128 .L544-.LFB1119
 6658 0615 01       		.uleb128 0x1
 6659 0616 D002     		.uleb128 .LEHB269-.LFB1119
 6660 0618 3B       		.uleb128 .LEHE269-.LEHB269
 6661 0619 9D1B     		.uleb128 .L546-.LFB1119
 6662 061b 01       		.uleb128 0x1
 6663 061c 9B03     		.uleb128 .LEHB270-.LFB1119
 6664 061e 14       		.uleb128 .LEHE270-.LEHB270
 6665 061f 00       		.uleb128 0
 6666 0620 00       		.uleb128 0
 6667 0621 B303     		.uleb128 .LEHB271-.LFB1119
 6668 0623 37       		.uleb128 .LEHE271-.LEHB271
 6669 0624 B91A     		.uleb128 .L548-.LFB1119
 6670 0626 01       		.uleb128 0x1
 6671 0627 EA03     		.uleb128 .LEHB272-.LFB1119
 6672 0629 3B       		.uleb128 .LEHE272-.LEHB272
 6673 062a FD19     		.uleb128 .L550-.LFB1119
 6674 062c 01       		.uleb128 0x1
 6675 062d B504     		.uleb128 .LEHB273-.LFB1119
 6676 062f 14       		.uleb128 .LEHE273-.LEHB273
 6677 0630 00       		.uleb128 0
 6678 0631 00       		.uleb128 0
 6679 0632 CD04     		.uleb128 .LEHB274-.LFB1119
 6680 0634 37       		.uleb128 .LEHE274-.LEHB274
 6681 0635 9919     		.uleb128 .L552-.LFB1119
 6682 0637 01       		.uleb128 0x1
 6683 0638 8405     		.uleb128 .LEHB275-.LFB1119
 6684 063a 3B       		.uleb128 .LEHE275-.LEHB275
 6685 063b DD18     		.uleb128 .L554-.LFB1119
 6686 063d 01       		.uleb128 0x1
 6687 063e CF05     		.uleb128 .LEHB276-.LFB1119
 6688 0640 14       		.uleb128 .LEHE276-.LEHB276
 6689 0641 00       		.uleb128 0
 6690 0642 00       		.uleb128 0
 6691 0643 E705     		.uleb128 .LEHB277-.LFB1119
 6692 0645 37       		.uleb128 .LEHE277-.LEHB277
 6693 0646 F917     		.uleb128 .L556-.LFB1119
 6694 0648 01       		.uleb128 0x1
 6695 0649 9E06     		.uleb128 .LEHB278-.LFB1119
 6696 064b 3B       		.uleb128 .LEHE278-.LEHB278
 6697 064c BD17     		.uleb128 .L558-.LFB1119
 6698 064e 01       		.uleb128 0x1
 6699 064f DE06     		.uleb128 .LEHB279-.LFB1119
 6700 0651 14       		.uleb128 .LEHE279-.LEHB279
 6701 0652 00       		.uleb128 0
 6702 0653 00       		.uleb128 0
 6703 0654 F606     		.uleb128 .LEHB280-.LFB1119
 6704 0656 37       		.uleb128 .LEHE280-.LEHB280
 6705 0657 D916     		.uleb128 .L560-.LFB1119
 6706 0659 01       		.uleb128 0x1
 6707 065a AD07     		.uleb128 .LEHB281-.LFB1119
 6708 065c 3B       		.uleb128 .LEHE281-.LEHB281
 6709 065d 9D16     		.uleb128 .L562-.LFB1119
 6710 065f 01       		.uleb128 0x1
 6711 0660 ED07     		.uleb128 .LEHB282-.LFB1119
 6712 0662 14       		.uleb128 .LEHE282-.LEHB282
 6713 0663 00       		.uleb128 0
 6714 0664 00       		.uleb128 0
 6715 0665 8508     		.uleb128 .LEHB283-.LFB1119
 6716 0667 37       		.uleb128 .LEHE283-.LEHB283
 6717 0668 B915     		.uleb128 .L564-.LFB1119
 6718 066a 01       		.uleb128 0x1
 6719 066b BC08     		.uleb128 .LEHB284-.LFB1119
 6720 066d 3B       		.uleb128 .LEHE284-.LEHB284
 6721 066e FD14     		.uleb128 .L566-.LFB1119
 6722 0670 01       		.uleb128 0x1
 6723 0671 FC08     		.uleb128 .LEHB285-.LFB1119
 6724 0673 14       		.uleb128 .LEHE285-.LEHB285
 6725 0674 00       		.uleb128 0
 6726 0675 00       		.uleb128 0
 6727 0676 9409     		.uleb128 .LEHB286-.LFB1119
 6728 0678 37       		.uleb128 .LEHE286-.LEHB286
 6729 0679 A014     		.uleb128 .L568-.LFB1119
 6730 067b 01       		.uleb128 0x1
 6731 067c CB09     		.uleb128 .LEHB287-.LFB1119
 6732 067e 3B       		.uleb128 .LEHE287-.LEHB287
 6733 067f E413     		.uleb128 .L570-.LFB1119
 6734 0681 01       		.uleb128 0x1
 6735 0682 8B0A     		.uleb128 .LEHB288-.LFB1119
 6736 0684 05       		.uleb128 .LEHE288-.LEHB288
 6737 0685 00       		.uleb128 0
 6738 0686 00       		.uleb128 0
 6739 0687 900A     		.uleb128 .LEHB289-.LFB1119
 6740 0689 38       		.uleb128 .LEHE289-.LEHB289
 6741 068a 9412     		.uleb128 .L572-.LFB1119
 6742 068c 01       		.uleb128 0x1
 6743 068d C80A     		.uleb128 .LEHB290-.LFB1119
 6744 068f 38       		.uleb128 .LEHE290-.LEHB290
 6745 0690 9410     		.uleb128 .L574-.LFB1119
 6746 0692 01       		.uleb128 0x1
 6747 0693 800B     		.uleb128 .LEHB291-.LFB1119
 6748 0695 38       		.uleb128 .LEHE291-.LEHB291
 6749 0696 9411     		.uleb128 .L576-.LFB1119
 6750 0698 01       		.uleb128 0x1
 6751 0699 B80B     		.uleb128 .LEHB292-.LFB1119
 6752 069b 38       		.uleb128 .LEHE292-.LEHB292
 6753 069c 940F     		.uleb128 .L578-.LFB1119
 6754 069e 01       		.uleb128 0x1
 6755 069f F00B     		.uleb128 .LEHB293-.LFB1119
 6756 06a1 43       		.uleb128 .LEHE293-.LEHB293
 6757 06a2 D411     		.uleb128 .L580-.LFB1119
 6758 06a4 01       		.uleb128 0x1
 6759 06a5 B30C     		.uleb128 .LEHB294-.LFB1119
 6760 06a7 44       		.uleb128 .LEHE294-.LEHB294
 6761 06a8 D40F     		.uleb128 .L582-.LFB1119
 6762 06aa 01       		.uleb128 0x1
 6763 06ab F70C     		.uleb128 .LEHB295-.LFB1119
 6764 06ad 44       		.uleb128 .LEHE295-.LEHB295
 6765 06ae D410     		.uleb128 .L584-.LFB1119
 6766 06b0 01       		.uleb128 0x1
 6767 06b1 BB0D     		.uleb128 .LEHB296-.LFB1119
 6768 06b3 44       		.uleb128 .LEHE296-.LEHB296
 6769 06b4 D40E     		.uleb128 .L586-.LFB1119
 6770 06b6 01       		.uleb128 0x1
 6771 06b7 840E     		.uleb128 .LEHB297-.LFB1119
 6772 06b9 05       		.uleb128 .LEHE297-.LEHB297
 6773 06ba 00       		.uleb128 0
 6774 06bb 00       		.uleb128 0
 6775 06bc 9B0E     		.uleb128 .LEHB298-.LFB1119
 6776 06be 2F       		.uleb128 .LEHE298-.LEHB298
 6777 06bf D412     		.uleb128 .L539-.LFB1119
 6778 06c1 00       		.uleb128 0
 6779 06c2 CA0E     		.uleb128 .LEHB299-.LFB1119
 6780 06c4 05       		.uleb128 .LEHE299-.LEHB299
 6781 06c5 00       		.uleb128 0
 6782 06c6 00       		.uleb128 0
 6783 06c7 E00E     		.uleb128 .LEHB300-.LFB1119
 6784 06c9 2A       		.uleb128 .LEHE300-.LEHB300
 6785 06ca E412     		.uleb128 .L587-.LFB1119
 6786 06cc 00       		.uleb128 0
 6787 06cd 8A0F     		.uleb128 .LEHB301-.LFB1119
 6788 06cf 05       		.uleb128 .LEHE301-.LEHB301
 6789 06d0 00       		.uleb128 0
 6790 06d1 00       		.uleb128 0
 6791 06d2 A00F     		.uleb128 .LEHB302-.LFB1119
 6792 06d4 2A       		.uleb128 .LEHE302-.LEHB302
 6793 06d5 A413     		.uleb128 .L579-.LFB1119
 6794 06d7 00       		.uleb128 0
 6795 06d8 CA0F     		.uleb128 .LEHB303-.LFB1119
 6796 06da 05       		.uleb128 .LEHE303-.LEHB303
 6797 06db 00       		.uleb128 0
 6798 06dc 00       		.uleb128 0
 6799 06dd E00F     		.uleb128 .LEHB304-.LFB1119
 6800 06df 2A       		.uleb128 .LEHE304-.LEHB304
 6801 06e0 8413     		.uleb128 .L583-.LFB1119
 6802 06e2 00       		.uleb128 0
 6803 06e3 8A10     		.uleb128 .LEHB305-.LFB1119
 6804 06e5 05       		.uleb128 .LEHE305-.LEHB305
 6805 06e6 00       		.uleb128 0
 6806 06e7 00       		.uleb128 0
 6807 06e8 A010     		.uleb128 .LEHB306-.LFB1119
 6808 06ea 2A       		.uleb128 .LEHE306-.LEHB306
 6809 06eb C413     		.uleb128 .L575-.LFB1119
 6810 06ed 00       		.uleb128 0
 6811 06ee CA10     		.uleb128 .LEHB307-.LFB1119
 6812 06f0 05       		.uleb128 .LEHE307-.LEHB307
 6813 06f1 00       		.uleb128 0
 6814 06f2 00       		.uleb128 0
 6815 06f3 E010     		.uleb128 .LEHB308-.LFB1119
 6816 06f5 2A       		.uleb128 .LEHE308-.LEHB308
 6817 06f6 F412     		.uleb128 .L585-.LFB1119
 6818 06f8 00       		.uleb128 0
 6819 06f9 8A11     		.uleb128 .LEHB309-.LFB1119
 6820 06fb 05       		.uleb128 .LEHE309-.LEHB309
 6821 06fc 00       		.uleb128 0
 6822 06fd 00       		.uleb128 0
 6823 06fe A011     		.uleb128 .LEHB310-.LFB1119
 6824 0700 2A       		.uleb128 .LEHE310-.LEHB310
 6825 0701 B413     		.uleb128 .L577-.LFB1119
 6826 0703 00       		.uleb128 0
 6827 0704 CA11     		.uleb128 .LEHB311-.LFB1119
 6828 0706 05       		.uleb128 .LEHE311-.LEHB311
 6829 0707 00       		.uleb128 0
 6830 0708 00       		.uleb128 0
 6831 0709 E011     		.uleb128 .LEHB312-.LFB1119
 6832 070b 2A       		.uleb128 .LEHE312-.LEHB312
 6833 070c 9413     		.uleb128 .L581-.LFB1119
 6834 070e 00       		.uleb128 0
 6835 070f 8A12     		.uleb128 .LEHB313-.LFB1119
 6836 0711 05       		.uleb128 .LEHE313-.LEHB313
 6837 0712 00       		.uleb128 0
 6838 0713 00       		.uleb128 0
 6839 0714 A012     		.uleb128 .LEHB314-.LFB1119
 6840 0716 2A       		.uleb128 .LEHE314-.LEHB314
 6841 0717 D413     		.uleb128 .L573-.LFB1119
 6842 0719 00       		.uleb128 0
 6843 071a CA12     		.uleb128 .LEHB315-.LFB1119
 6844 071c 05       		.uleb128 .LEHE315-.LEHB315
 6845 071d 00       		.uleb128 0
 6846 071e 00       		.uleb128 0
 6847 071f DF12     		.uleb128 .LEHB316-.LFB1119
 6848 0721 05       		.uleb128 .LEHE316-.LEHB316
 6849 0722 00       		.uleb128 0
 6850 0723 00       		.uleb128 0
 6851 0724 EF12     		.uleb128 .LEHB317-.LFB1119
 6852 0726 05       		.uleb128 .LEHE317-.LEHB317
 6853 0727 00       		.uleb128 0
 6854 0728 00       		.uleb128 0
 6855 0729 FF12     		.uleb128 .LEHB318-.LFB1119
 6856 072b 05       		.uleb128 .LEHE318-.LEHB318
 6857 072c 00       		.uleb128 0
 6858 072d 00       		.uleb128 0
 6859 072e 8F13     		.uleb128 .LEHB319-.LFB1119
 6860 0730 05       		.uleb128 .LEHE319-.LEHB319
 6861 0731 00       		.uleb128 0
 6862 0732 00       		.uleb128 0
 6863 0733 9F13     		.uleb128 .LEHB320-.LFB1119
 6864 0735 05       		.uleb128 .LEHE320-.LEHB320
 6865 0736 00       		.uleb128 0
 6866 0737 00       		.uleb128 0
 6867 0738 AF13     		.uleb128 .LEHB321-.LFB1119
 6868 073a 05       		.uleb128 .LEHE321-.LEHB321
 6869 073b 00       		.uleb128 0
 6870 073c 00       		.uleb128 0
 6871 073d BF13     		.uleb128 .LEHB322-.LFB1119
 6872 073f 05       		.uleb128 .LEHE322-.LEHB322
 6873 0740 00       		.uleb128 0
 6874 0741 00       		.uleb128 0
 6875 0742 CF13     		.uleb128 .LEHB323-.LFB1119
 6876 0744 05       		.uleb128 .LEHE323-.LEHB323
 6877 0745 00       		.uleb128 0
 6878 0746 00       		.uleb128 0
 6879 0747 DF13     		.uleb128 .LEHB324-.LFB1119
 6880 0749 05       		.uleb128 .LEHE324-.LEHB324
 6881 074a 00       		.uleb128 0
 6882 074b 00       		.uleb128 0
 6883 074c EC13     		.uleb128 .LEHB325-.LFB1119
 6884 074e 2A       		.uleb128 .LEHE325-.LEHB325
 6885 074f DC14     		.uleb128 .L571-.LFB1119
 6886 0751 00       		.uleb128 0
 6887 0752 9614     		.uleb128 .LEHB326-.LFB1119
 6888 0754 05       		.uleb128 .LEHE326-.LEHB326
 6889 0755 00       		.uleb128 0
 6890 0756 00       		.uleb128 0
 6891 0757 A814     		.uleb128 .LEHB327-.LFB1119
 6892 0759 2A       		.uleb128 .LEHE327-.LEHB327
 6893 075a ED14     		.uleb128 .L569-.LFB1119
 6894 075c 00       		.uleb128 0
 6895 075d D214     		.uleb128 .LEHB328-.LFB1119
 6896 075f 05       		.uleb128 .LEHE328-.LEHB328
 6897 0760 00       		.uleb128 0
 6898 0761 00       		.uleb128 0
 6899 0762 E814     		.uleb128 .LEHB329-.LFB1119
 6900 0764 05       		.uleb128 .LEHE329-.LEHB329
 6901 0765 00       		.uleb128 0
 6902 0766 00       		.uleb128 0
 6903 0767 F814     		.uleb128 .LEHB330-.LFB1119
 6904 0769 05       		.uleb128 .LEHE330-.LEHB330
 6905 076a 00       		.uleb128 0
 6906 076b 00       		.uleb128 0
 6907 076c 8515     		.uleb128 .LEHB331-.LFB1119
 6908 076e 2A       		.uleb128 .LEHE331-.LEHB331
 6909 076f F915     		.uleb128 .L567-.LFB1119
 6910 0771 00       		.uleb128 0
 6911 0772 AF15     		.uleb128 .LEHB332-.LFB1119
 6912 0774 05       		.uleb128 .LEHE332-.LEHB332
 6913 0775 00       		.uleb128 0
 6914 0776 00       		.uleb128 0
 6915 0777 C515     		.uleb128 .LEHB333-.LFB1119
 6916 0779 2A       		.uleb128 .LEHE333-.LEHB333
 6917 077a 8D16     		.uleb128 .L565-.LFB1119
 6918 077c 00       		.uleb128 0
 6919 077d EF15     		.uleb128 .LEHB334-.LFB1119
 6920 077f 05       		.uleb128 .LEHE334-.LEHB334
 6921 0780 00       		.uleb128 0
 6922 0781 00       		.uleb128 0
 6923 0782 8816     		.uleb128 .LEHB335-.LFB1119
 6924 0784 05       		.uleb128 .LEHE335-.LEHB335
 6925 0785 00       		.uleb128 0
 6926 0786 00       		.uleb128 0
 6927 0787 9816     		.uleb128 .LEHB336-.LFB1119
 6928 0789 05       		.uleb128 .LEHE336-.LEHB336
 6929 078a 00       		.uleb128 0
 6930 078b 00       		.uleb128 0
 6931 078c A516     		.uleb128 .LEHB337-.LFB1119
 6932 078e 2A       		.uleb128 .LEHE337-.LEHB337
 6933 078f 9917     		.uleb128 .L563-.LFB1119
 6934 0791 00       		.uleb128 0
 6935 0792 CF16     		.uleb128 .LEHB338-.LFB1119
 6936 0794 05       		.uleb128 .LEHE338-.LEHB338
 6937 0795 00       		.uleb128 0
 6938 0796 00       		.uleb128 0
 6939 0797 E516     		.uleb128 .LEHB339-.LFB1119
 6940 0799 2A       		.uleb128 .LEHE339-.LEHB339
 6941 079a AD17     		.uleb128 .L561-.LFB1119
 6942 079c 00       		.uleb128 0
 6943 079d 8F17     		.uleb128 .LEHB340-.LFB1119
 6944 079f 05       		.uleb128 .LEHE340-.LEHB340
 6945 07a0 00       		.uleb128 0
 6946 07a1 00       		.uleb128 0
 6947 07a2 A817     		.uleb128 .LEHB341-.LFB1119
 6948 07a4 05       		.uleb128 .LEHE341-.LEHB341
 6949 07a5 00       		.uleb128 0
 6950 07a6 00       		.uleb128 0
 6951 07a7 B817     		.uleb128 .LEHB342-.LFB1119
 6952 07a9 05       		.uleb128 .LEHE342-.LEHB342
 6953 07aa 00       		.uleb128 0
 6954 07ab 00       		.uleb128 0
 6955 07ac C517     		.uleb128 .LEHB343-.LFB1119
 6956 07ae 2A       		.uleb128 .LEHE343-.LEHB343
 6957 07af B918     		.uleb128 .L559-.LFB1119
 6958 07b1 00       		.uleb128 0
 6959 07b2 EF17     		.uleb128 .LEHB344-.LFB1119
 6960 07b4 05       		.uleb128 .LEHE344-.LEHB344
 6961 07b5 00       		.uleb128 0
 6962 07b6 00       		.uleb128 0
 6963 07b7 8518     		.uleb128 .LEHB345-.LFB1119
 6964 07b9 2A       		.uleb128 .LEHE345-.LEHB345
 6965 07ba CD18     		.uleb128 .L557-.LFB1119
 6966 07bc 00       		.uleb128 0
 6967 07bd AF18     		.uleb128 .LEHB346-.LFB1119
 6968 07bf 05       		.uleb128 .LEHE346-.LEHB346
 6969 07c0 00       		.uleb128 0
 6970 07c1 00       		.uleb128 0
 6971 07c2 C818     		.uleb128 .LEHB347-.LFB1119
 6972 07c4 05       		.uleb128 .LEHE347-.LEHB347
 6973 07c5 00       		.uleb128 0
 6974 07c6 00       		.uleb128 0
 6975 07c7 D818     		.uleb128 .LEHB348-.LFB1119
 6976 07c9 05       		.uleb128 .LEHE348-.LEHB348
 6977 07ca 00       		.uleb128 0
 6978 07cb 00       		.uleb128 0
 6979 07cc E518     		.uleb128 .LEHB349-.LFB1119
 6980 07ce 2A       		.uleb128 .LEHE349-.LEHB349
 6981 07cf D919     		.uleb128 .L555-.LFB1119
 6982 07d1 00       		.uleb128 0
 6983 07d2 8F19     		.uleb128 .LEHB350-.LFB1119
 6984 07d4 05       		.uleb128 .LEHE350-.LEHB350
 6985 07d5 00       		.uleb128 0
 6986 07d6 00       		.uleb128 0
 6987 07d7 A519     		.uleb128 .LEHB351-.LFB1119
 6988 07d9 2A       		.uleb128 .LEHE351-.LEHB351
 6989 07da ED19     		.uleb128 .L553-.LFB1119
 6990 07dc 00       		.uleb128 0
 6991 07dd CF19     		.uleb128 .LEHB352-.LFB1119
 6992 07df 05       		.uleb128 .LEHE352-.LEHB352
 6993 07e0 00       		.uleb128 0
 6994 07e1 00       		.uleb128 0
 6995 07e2 E819     		.uleb128 .LEHB353-.LFB1119
 6996 07e4 05       		.uleb128 .LEHE353-.LEHB353
 6997 07e5 00       		.uleb128 0
 6998 07e6 00       		.uleb128 0
 6999 07e7 F819     		.uleb128 .LEHB354-.LFB1119
 7000 07e9 05       		.uleb128 .LEHE354-.LEHB354
 7001 07ea 00       		.uleb128 0
 7002 07eb 00       		.uleb128 0
 7003 07ec 851A     		.uleb128 .LEHB355-.LFB1119
 7004 07ee 2A       		.uleb128 .LEHE355-.LEHB355
 7005 07ef F91A     		.uleb128 .L551-.LFB1119
 7006 07f1 00       		.uleb128 0
 7007 07f2 AF1A     		.uleb128 .LEHB356-.LFB1119
 7008 07f4 05       		.uleb128 .LEHE356-.LEHB356
 7009 07f5 00       		.uleb128 0
 7010 07f6 00       		.uleb128 0
 7011 07f7 C51A     		.uleb128 .LEHB357-.LFB1119
 7012 07f9 2A       		.uleb128 .LEHE357-.LEHB357
 7013 07fa 8D1B     		.uleb128 .L549-.LFB1119
 7014 07fc 00       		.uleb128 0
 7015 07fd EF1A     		.uleb128 .LEHB358-.LFB1119
 7016 07ff 05       		.uleb128 .LEHE358-.LEHB358
 7017 0800 00       		.uleb128 0
 7018 0801 00       		.uleb128 0
 7019 0802 881B     		.uleb128 .LEHB359-.LFB1119
 7020 0804 05       		.uleb128 .LEHE359-.LEHB359
 7021 0805 00       		.uleb128 0
 7022 0806 00       		.uleb128 0
 7023 0807 981B     		.uleb128 .LEHB360-.LFB1119
 7024 0809 05       		.uleb128 .LEHE360-.LEHB360
 7025 080a 00       		.uleb128 0
 7026 080b 00       		.uleb128 0
 7027 080c A51B     		.uleb128 .LEHB361-.LFB1119
 7028 080e 2A       		.uleb128 .LEHE361-.LEHB361
 7029 080f 991C     		.uleb128 .L547-.LFB1119
 7030 0811 00       		.uleb128 0
 7031 0812 CF1B     		.uleb128 .LEHB362-.LFB1119
 7032 0814 05       		.uleb128 .LEHE362-.LEHB362
 7033 0815 00       		.uleb128 0
 7034 0816 00       		.uleb128 0
 7035 0817 E51B     		.uleb128 .LEHB363-.LFB1119
 7036 0819 2A       		.uleb128 .LEHE363-.LEHB363
 7037 081a AD1C     		.uleb128 .L545-.LFB1119
 7038 081c 00       		.uleb128 0
 7039 081d 8F1C     		.uleb128 .LEHB364-.LFB1119
 7040 081f 05       		.uleb128 .LEHE364-.LEHB364
 7041 0820 00       		.uleb128 0
 7042 0821 00       		.uleb128 0
 7043 0822 A81C     		.uleb128 .LEHB365-.LFB1119
 7044 0824 05       		.uleb128 .LEHE365-.LEHB365
 7045 0825 00       		.uleb128 0
 7046 0826 00       		.uleb128 0
 7047 0827 B81C     		.uleb128 .LEHB366-.LFB1119
 7048 0829 05       		.uleb128 .LEHE366-.LEHB366
 7049 082a 00       		.uleb128 0
 7050 082b 00       		.uleb128 0
 7051 082c C51C     		.uleb128 .LEHB367-.LFB1119
 7052 082e 2A       		.uleb128 .LEHE367-.LEHB367
 7053 082f B91D     		.uleb128 .L543-.LFB1119
 7054 0831 00       		.uleb128 0
 7055 0832 EF1C     		.uleb128 .LEHB368-.LFB1119
 7056 0834 05       		.uleb128 .LEHE368-.LEHB368
 7057 0835 00       		.uleb128 0
 7058 0836 00       		.uleb128 0
 7059 0837 851D     		.uleb128 .LEHB369-.LFB1119
 7060 0839 2A       		.uleb128 .LEHE369-.LEHB369
 7061 083a CD1D     		.uleb128 .L541-.LFB1119
 7062 083c 00       		.uleb128 0
 7063 083d AF1D     		.uleb128 .LEHB370-.LFB1119
 7064 083f 05       		.uleb128 .LEHE370-.LEHB370
 7065 0840 00       		.uleb128 0
 7066 0841 00       		.uleb128 0
 7067 0842 C81D     		.uleb128 .LEHB371-.LFB1119
 7068 0844 05       		.uleb128 .LEHE371-.LEHB371
 7069 0845 00       		.uleb128 0
 7070 0846 00       		.uleb128 0
 7071 0847 D81D     		.uleb128 .LEHB372-.LFB1119
 7072 0849 05       		.uleb128 .LEHE372-.LEHB372
 7073 084a 00       		.uleb128 0
 7074 084b 00       		.uleb128 0
 7075              	.LLSDACSE1119:
 7076 084c 01       		.byte	0x1
 7077 084d 00       		.byte	0
 7078 084e 0000     		.align 4
 7079 0850 00000000 		.long	0
 7080              	
 7081              	.LLSDATT1119:
 7082              		.text
 7084              		.section	.rodata.str1.8
 7085 05ff 00       		.align 8
 7086              	.LC28:
 7087 0600 556E6861 		.string	"Unhandled exception in CHECK_EQUAL((offset) % 4 + 1UL, *item)"
 7087      6E646C65 
 7087      64206578 
 7087      63657074 
 7087      696F6E20 
 7088 063e 0000     		.align 8
 7089              	.LC29:
 7090 0640 556E6861 		.string	"Unhandled exception in CHECK_EQUAL((offset + 1UL) % 4 + 1UL, *item)"
 7090      6E646C65 
 7090      64206578 
 7090      63657074 
 7090      696F6E20 
 7091 0684 00000000 		.align 8
 7092              	.LC30:
 7093 0688 556E6861 		.string	"Unhandled exception in CHECK_EQUAL((offset + 2UL) % 4 + 1UL, *item)"
 7093      6E646C65 
 7093      64206578 
 7093      63657074 
 7093      696F6E20 
 7094 06cc 00000000 		.align 8
 7095              	.LC31:
 7096 06d0 556E6861 		.string	"Unhandled exception in CHECK_EQUAL((offset + 3UL) % 4 + 1UL, *item)"
 7096      6E646C65 
 7096      64206578 
 7096      63657074 
 7096      696F6E20 
 7097 0714 00000000 		.align 8
 7098              	.LC32:
 7099 0718 556E6861 		.string	"Unhandled exception in CHECK_EQUAL(offset, queue.putIndex)"
 7099      6E646C65 
 7099      64206578 
 7099      63657074 
 7099      696F6E20 
 7100 0753 00000000 		.align 8
 7100      00
 7101              	.LC33:
 7102 0758 556E6861 		.string	"Unhandled exception in CHECK_EQUAL(offset, queue.takeIndex)"
 7102      6E646C65 
 7102      64206578 
 7102      63657074 
 7102      696F6E20 
 7103 0794 00000000 		.align 8
 7104              	.LC34:
 7105 0798 556E6861 		.string	"Unhandled exception in CHECK_EQUAL(8UL, queue.capacity)"
 7105      6E646C65 
 7105      64206578 
 7105      63657074 
 7105      696F6E20 
 7106              		.align 8
 7107              	.LC35:
 7108 07d0 556E6861 		.string	"Unhandled exception in CHECK_EQUAL(5UL, queue.putIndex)"
 7108      6E646C65 
 7108      64206578 
 7108      63657074 
 7108      696F6E20 
 7109              		.align 8
 7110              	.LC36:
 7111 0808 556E6861 		.string	"Unhandled exception in CHECK_EQUAL(5UL, queue.numItems)"
 7111      6E646C65 
 7111      64206578 
 7111      63657074 
 7111      696F6E20 
 7112              		.align 8
 7113              	.LC37:
 7114 0840 556E6861 		.string	"Unhandled exception in CHECK_EQUAL(100UL, deref(queue.itemArray[0]))"
 7114      6E646C65 
 7114      64206578 
 7114      63657074 
 7114      696F6E20 
 7115 0885 000000   		.align 8
 7116              	.LC38:
 7117 0888 556E6861 		.string	"Unhandled exception in CHECK_EQUAL(101UL, deref(queue.itemArray[1]))"
 7117      6E646C65 
 7117      64206578 
 7117      63657074 
 7117      696F6E20 
 7118 08cd 000000   		.align 8
 7119              	.LC39:
 7120 08d0 556E6861 		.string	"Unhandled exception in CHECK_EQUAL(102UL, deref(queue.itemArray[2]))"
 7120      6E646C65 
 7120      64206578 
 7120      63657074 
 7120      696F6E20 
 7121 0915 000000   		.align 8
 7122              	.LC40:
 7123 0918 556E6861 		.string	"Unhandled exception in CHECK_EQUAL(103UL, deref(queue.itemArray[3]))"
 7123      6E646C65 
 7123      64206578 
 7123      63657074 
 7123      696F6E20 
 7124 095d 000000   		.align 8
 7125              	.LC41:
 7126 0960 556E6861 		.string	"Unhandled exception in CHECK_EQUAL(104UL, deref(queue.itemArray[4]))"
 7126      6E646C65 
 7126      64206578 
 7126      63657074 
 7126      696F6E20 
 7127 09a5 000000   		.align 8
 7128              	.LC42:
 7129 09a8 556E6861 		.string	"Unhandled exception in CHECK_EQUAL(6UL, deref(queue.itemArray[5]))"
 7129      6E646C65 
 7129      64206578 
 7129      63657074 
 7129      696F6E20 
 7130 09eb 00000000 		.align 8
 7130      00
 7131              	.LC43:
 7132 09f0 556E6861 		.string	"Unhandled exception in CHECK_EQUAL(7UL, deref(queue.itemArray[6]))"
 7132      6E646C65 
 7132      64206578 
 7132      63657074 
 7132      696F6E20 
 7133 0a33 00000000 		.align 8
 7133      00
 7134              	.LC44:
 7135 0a38 556E6861 		.string	"Unhandled exception in CHECK_EQUAL(8UL, deref(queue.itemArray[7]))"
 7135      6E646C65 
 7135      64206578 
 7135      63657074 
 7135      696F6E20 
 7136 0a7b 00000000 		.align 8
 7136      00
 7137              	.LC45:
 7138 0a80 556E6861 		.string	"Unhandled exception in CHECK_EQUAL(100UL, *item)"
 7138      6E646C65 
 7138      64206578 
 7138      63657074 
 7138      696F6E20 
 7139 0ab1 00000000 		.align 8
 7139      000000
 7140              	.LC46:
 7141 0ab8 556E6861 		.string	"Unhandled exception in CHECK_EQUAL(101UL, *item)"
 7141      6E646C65 
 7141      64206578 
 7141      63657074 
 7141      696F6E20 
 7142 0ae9 00000000 		.align 8
 7142      000000
 7143              	.LC47:
 7144 0af0 556E6861 		.string	"Unhandled exception in CHECK_EQUAL(102UL, *item)"
 7144      6E646C65 
 7144      64206578 
 7144      63657074 
 7144      696F6E20 
 7145 0b21 00000000 		.align 8
 7145      000000
 7146              	.LC48:
 7147 0b28 556E6861 		.string	"Unhandled exception in CHECK_EQUAL(103UL, *item)"
 7147      6E646C65 
 7147      64206578 
 7147      63657074 
 7147      696F6E20 
 7148 0b59 00000000 		.align 8
 7148      000000
 7149              	.LC49:
 7150 0b60 556E6861 		.string	"Unhandled exception in CHECK_EQUAL(104UL, *item)"
 7150      6E646C65 
 7150      64206578 
 7150      63657074 
 7150      696F6E20 
 7151 0b91 00000000 		.align 8
 7151      000000
 7152              	.LC50:
 7153 0b98 556E6861 		.string	"Unhandled exception in CHECK_EQUAL(USB_EMPTY_QUEUE, status)"
 7153      6E646C65 
 7153      64206578 
 7153      63657074 
 7153      696F6E20 
 7154              		.text
 7155 325d 0F1F00   		.p2align 4,,15
 7156              		.globl	_Z11testReallocm
 7158              	_Z11testReallocm:
 7159              	.LFB1120:
 7160              		.cfi_startproc
 7161              		.cfi_personality 0x3,__gxx_personality_v0
 7162              		.cfi_lsda 0x3,.LLSDA1120
 7163 3260 55       		pushq	%rbp
 7164              		.cfi_def_cfa_offset 16
 7165              		.cfi_offset 6, -16
 7166 3261 B9000000 		movl	$destroyInt, %ecx
 7166      00
 7167 3266 BA000000 		movl	$createInt, %edx
 7167      00
 7168 326b BE040000 		movl	$4, %esi
 7168      00
 7169 3270 53       		pushq	%rbx
 7170              		.cfi_def_cfa_offset 24
 7171              		.cfi_offset 3, -24
 7172 3271 4881ECA8 		subq	$168, %rsp
 7172      000000
 7173              		.cfi_def_cfa_offset 192
 7174 3278 C7050000 		movl	$1, _ZL7m_count(%rip)
 7174      00000100 
 7174      0000
 7175 3282 48897C24 		movq	%rdi, 8(%rsp)
 7175      08
 7176 3287 488D7C24 		leaq	96(%rsp), %rdi
 7176      60
 7177              	.LEHB373:
 7178 328c E8000000 		call	queueInit
 7178      00
 7179              	.LEHE373:
 7180 3291 8944241C 		movl	%eax, 28(%rsp)
 7181              	.LEHB374:
 7182 3295 E8000000 		call	_ZN8UnitTest11CurrentTest7DetailsEv
 7182      00
 7183 329a 488D5C24 		leaq	64(%rsp), %rbx
 7183      40
 7184 329f 488B30   		movq	(%rax), %rsi
 7185 32a2 BAEE0000 		movl	$238, %edx
 7185      00
 7186 32a7 4889DF   		movq	%rbx, %rdi
 7187 32aa E8000000 		call	_ZN8UnitTest11TestDetailsC1ERKS0_i
 7187      00
 7188 32af C7442430 		movl	$0, 48(%rsp)
 7188      00000000 
 7189 32b7 E8000000 		call	_ZN8UnitTest11CurrentTest7ResultsEv
 7189      00
 7190 32bc 488B38   		movq	(%rax), %rdi
 7191 32bf 488D5424 		leaq	28(%rsp), %rdx
 7191      1C
 7192 32c4 488D7424 		leaq	48(%rsp), %rsi
 7192      30
 7193 32c9 4889D9   		movq	%rbx, %rcx
 7194 32cc E8000000 		call	_ZN8UnitTest10CheckEqualI9USBStatusS1_EEvRNS_11TestResultsERKT_RKT0_RKNS_11TestDetailsE
 7194      00
 7195              	.LEHE374:
 7196              	.L593:
 7197 32d1 488B4424 		movq	8(%rsp), %rax
 7197      08
 7198 32d6 488D7424 		leaq	32(%rsp), %rsi
 7198      20
 7199 32db 488D7C24 		leaq	96(%rsp), %rdi
 7199      60
 7200 32e0 48894424 		movq	%rax, 112(%rsp)
 7200      70
 7201 32e5 48894424 		movq	%rax, 120(%rsp)
 7201      78
 7202              	.LEHB375:
 7203 32ea E8000000 		call	queuePut
 7203      00
 7204              	.LEHE375:
 7205 32ef 8944241C 		movl	%eax, 28(%rsp)
 7206              	.LEHB376:
 7207 32f3 E8000000 		call	_ZN8UnitTest11CurrentTest7DetailsEv
 7207      00
 7208 32f8 488B30   		movq	(%rax), %rsi
 7209 32fb BAF60000 		movl	$246, %edx
 7209      00
 7210 3300 4889DF   		movq	%rbx, %rdi
 7211 3303 E8000000 		call	_ZN8UnitTest11TestDetailsC1ERKS0_i
 7211      00
 7212 3308 C7442430 		movl	$0, 48(%rsp)
 7212      00000000 
 7213 3310 E8000000 		call	_ZN8UnitTest11CurrentTest7ResultsEv
 7213      00
 7214 3315 488B38   		movq	(%rax), %rdi
 7215 3318 488D5424 		leaq	28(%rsp), %rdx
 7215      1C
 7216 331d 488D7424 		leaq	48(%rsp), %rsi
 7216      30
 7217 3322 4889D9   		movq	%rbx, %rcx
 7218 3325 E8000000 		call	_ZN8UnitTest10CheckEqualI9USBStatusS1_EEvRNS_11TestResultsERKT_RKT0_RKNS_11TestDetailsE
 7218      00
 7219              	.LEHE376:
 7220              	.L596:
 7221              	.LEHB377:
 7222 332a E8000000 		call	_ZN8UnitTest11CurrentTest7DetailsEv
 7222      00
 7223 332f 488B30   		movq	(%rax), %rsi
 7224 3332 BAF70000 		movl	$247, %edx
 7224      00
 7225 3337 4889DF   		movq	%rbx, %rdi
 7226 333a E8000000 		call	_ZN8UnitTest11TestDetailsC1ERKS0_i
 7226      00
 7227 333f 488B4424 		movq	8(%rsp), %rax
 7227      08
 7228 3344 488B6C24 		movq	32(%rsp), %rbp
 7228      20
 7229 3349 83E003   		andl	$3, %eax
 7230 334c 4883C001 		addq	$1, %rax
 7231 3350 48894424 		movq	%rax, 48(%rsp)
 7231      30
 7232 3355 E8000000 		call	_ZN8UnitTest11CurrentTest7ResultsEv
 7232      00
 7233 335a 488B38   		movq	(%rax), %rdi
 7234 335d 488D7424 		leaq	48(%rsp), %rsi
 7234      30
 7235 3362 4889D9   		movq	%rbx, %rcx
 7236 3365 4889EA   		movq	%rbp, %rdx
 7237 3368 E8000000 		call	_ZN8UnitTest10CheckEqualImjEEvRNS_11TestResultsERKT_RKT0_RKNS_11TestDetailsE
 7237      00
 7238              	.LEHE377:
 7239              	.L599:
 7240 336d 488B4424 		movq	32(%rsp), %rax
 7240      20
 7241 3372 488D7C24 		leaq	96(%rsp), %rdi
 7241      60
 7242 3377 C7006400 		movl	$100, (%rax)
 7242      0000
 7243              	.LEHB378:
 7244 337d E8000000 		call	queueCommitPut
 7244      00
 7245 3382 488D7424 		leaq	32(%rsp), %rsi
 7245      20
 7246 3387 488D7C24 		leaq	96(%rsp), %rdi
 7246      60
 7247 338c E8000000 		call	queuePut
 7247      00
 7248              	.LEHE378:
 7249 3391 8944241C 		movl	%eax, 28(%rsp)
 7250              	.LEHB379:
 7251 3395 E8000000 		call	_ZN8UnitTest11CurrentTest7DetailsEv
 7251      00
 7252 339a 488B30   		movq	(%rax), %rsi
 7253 339d BAFB0000 		movl	$251, %edx
 7253      00
 7254 33a2 4889DF   		movq	%rbx, %rdi
 7255 33a5 E8000000 		call	_ZN8UnitTest11TestDetailsC1ERKS0_i
 7255      00
 7256 33aa C7442430 		movl	$0, 48(%rsp)
 7256      00000000 
 7257 33b2 E8000000 		call	_ZN8UnitTest11CurrentTest7ResultsEv
 7257      00
 7258 33b7 488B38   		movq	(%rax), %rdi
 7259 33ba 488D5424 		leaq	28(%rsp), %rdx
 7259      1C
 7260 33bf 488D7424 		leaq	48(%rsp), %rsi
 7260      30
 7261 33c4 4889D9   		movq	%rbx, %rcx
 7262 33c7 E8000000 		call	_ZN8UnitTest10CheckEqualI9USBStatusS1_EEvRNS_11TestResultsERKT_RKT0_RKNS_11TestDetailsE
 7262      00
 7263              	.LEHE379:
 7264              	.L602:
 7265              	.LEHB380:
 7266 33cc E8000000 		call	_ZN8UnitTest11CurrentTest7DetailsEv
 7266      00
 7267 33d1 488B30   		movq	(%rax), %rsi
 7268 33d4 BAFC0000 		movl	$252, %edx
 7268      00
 7269 33d9 4889DF   		movq	%rbx, %rdi
 7270 33dc E8000000 		call	_ZN8UnitTest11TestDetailsC1ERKS0_i
 7270      00
 7271 33e1 488B4424 		movq	8(%rsp), %rax
 7271      08
 7272 33e6 488B6C24 		movq	32(%rsp), %rbp
 7272      20
 7273 33eb 4883C001 		addq	$1, %rax
 7274 33ef 83E003   		andl	$3, %eax
 7275 33f2 4883C001 		addq	$1, %rax
 7276 33f6 48894424 		movq	%rax, 48(%rsp)
 7276      30
 7277 33fb E8000000 		call	_ZN8UnitTest11CurrentTest7ResultsEv
 7277      00
 7278 3400 488B38   		movq	(%rax), %rdi
 7279 3403 488D7424 		leaq	48(%rsp), %rsi
 7279      30
 7280 3408 4889D9   		movq	%rbx, %rcx
 7281 340b 4889EA   		movq	%rbp, %rdx
 7282 340e E8000000 		call	_ZN8UnitTest10CheckEqualImjEEvRNS_11TestResultsERKT_RKT0_RKNS_11TestDetailsE
 7282      00
 7283              	.LEHE380:
 7284              	.L605:
 7285 3413 488B4424 		movq	32(%rsp), %rax
 7285      20
 7286 3418 488D7C24 		leaq	96(%rsp), %rdi
 7286      60
 7287 341d C7006500 		movl	$101, (%rax)
 7287      0000
 7288              	.LEHB381:
 7289 3423 E8000000 		call	queueCommitPut
 7289      00
 7290 3428 488D7424 		leaq	32(%rsp), %rsi
 7290      20
 7291 342d 488D7C24 		leaq	96(%rsp), %rdi
 7291      60
 7292 3432 E8000000 		call	queuePut
 7292      00
 7293              	.LEHE381:
 7294 3437 8944241C 		movl	%eax, 28(%rsp)
 7295              	.LEHB382:
 7296 343b E8000000 		call	_ZN8UnitTest11CurrentTest7DetailsEv
 7296      00
 7297 3440 488B30   		movq	(%rax), %rsi
 7298 3443 BA000100 		movl	$256, %edx
 7298      00
 7299 3448 4889DF   		movq	%rbx, %rdi
 7300 344b E8000000 		call	_ZN8UnitTest11TestDetailsC1ERKS0_i
 7300      00
 7301 3450 C7442430 		movl	$0, 48(%rsp)
 7301      00000000 
 7302 3458 E8000000 		call	_ZN8UnitTest11CurrentTest7ResultsEv
 7302      00
 7303 345d 488B38   		movq	(%rax), %rdi
 7304 3460 488D5424 		leaq	28(%rsp), %rdx
 7304      1C
 7305 3465 488D7424 		leaq	48(%rsp), %rsi
 7305      30
 7306 346a 4889D9   		movq	%rbx, %rcx
 7307 346d E8000000 		call	_ZN8UnitTest10CheckEqualI9USBStatusS1_EEvRNS_11TestResultsERKT_RKT0_RKNS_11TestDetailsE
 7307      00
 7308              	.LEHE382:
 7309              	.L608:
 7310              	.LEHB383:
 7311 3472 E8000000 		call	_ZN8UnitTest11CurrentTest7DetailsEv
 7311      00
 7312 3477 488B30   		movq	(%rax), %rsi
 7313 347a BA010100 		movl	$257, %edx
 7313      00
 7314 347f 4889DF   		movq	%rbx, %rdi
 7315 3482 E8000000 		call	_ZN8UnitTest11TestDetailsC1ERKS0_i
 7315      00
 7316 3487 488B4424 		movq	8(%rsp), %rax
 7316      08
 7317 348c 488B6C24 		movq	32(%rsp), %rbp
 7317      20
 7318 3491 4883C002 		addq	$2, %rax
 7319 3495 83E003   		andl	$3, %eax
 7320 3498 4883C001 		addq	$1, %rax
 7321 349c 48894424 		movq	%rax, 48(%rsp)
 7321      30
 7322 34a1 E8000000 		call	_ZN8UnitTest11CurrentTest7ResultsEv
 7322      00
 7323 34a6 488B38   		movq	(%rax), %rdi
 7324 34a9 488D7424 		leaq	48(%rsp), %rsi
 7324      30
 7325 34ae 4889D9   		movq	%rbx, %rcx
 7326 34b1 4889EA   		movq	%rbp, %rdx
 7327 34b4 E8000000 		call	_ZN8UnitTest10CheckEqualImjEEvRNS_11TestResultsERKT_RKT0_RKNS_11TestDetailsE
 7327      00
 7328              	.LEHE383:
 7329              	.L611:
 7330 34b9 488B4424 		movq	32(%rsp), %rax
 7330      20
 7331 34be 488D7C24 		leaq	96(%rsp), %rdi
 7331      60
 7332 34c3 C7006600 		movl	$102, (%rax)
 7332      0000
 7333              	.LEHB384:
 7334 34c9 E8000000 		call	queueCommitPut
 7334      00
 7335 34ce 488D7424 		leaq	32(%rsp), %rsi
 7335      20
 7336 34d3 488D7C24 		leaq	96(%rsp), %rdi
 7336      60
 7337 34d8 E8000000 		call	queuePut
 7337      00
 7338              	.LEHE384:
 7339 34dd 8944241C 		movl	%eax, 28(%rsp)
 7340              	.LEHB385:
 7341 34e1 E8000000 		call	_ZN8UnitTest11CurrentTest7DetailsEv
 7341      00
 7342 34e6 488B30   		movq	(%rax), %rsi
 7343 34e9 BA050100 		movl	$261, %edx
 7343      00
 7344 34ee 4889DF   		movq	%rbx, %rdi
 7345 34f1 E8000000 		call	_ZN8UnitTest11TestDetailsC1ERKS0_i
 7345      00
 7346 34f6 C7442430 		movl	$0, 48(%rsp)
 7346      00000000 
 7347 34fe E8000000 		call	_ZN8UnitTest11CurrentTest7ResultsEv
 7347      00
 7348 3503 488B38   		movq	(%rax), %rdi
 7349 3506 488D5424 		leaq	28(%rsp), %rdx
 7349      1C
 7350 350b 488D7424 		leaq	48(%rsp), %rsi
 7350      30
 7351 3510 4889D9   		movq	%rbx, %rcx
 7352 3513 E8000000 		call	_ZN8UnitTest10CheckEqualI9USBStatusS1_EEvRNS_11TestResultsERKT_RKT0_RKNS_11TestDetailsE
 7352      00
 7353              	.LEHE385:
 7354              	.L614:
 7355              	.LEHB386:
 7356 3518 E8000000 		call	_ZN8UnitTest11CurrentTest7DetailsEv
 7356      00
 7357 351d 488B30   		movq	(%rax), %rsi
 7358 3520 BA060100 		movl	$262, %edx
 7358      00
 7359 3525 4889DF   		movq	%rbx, %rdi
 7360 3528 E8000000 		call	_ZN8UnitTest11TestDetailsC1ERKS0_i
 7360      00
 7361 352d 488B4424 		movq	8(%rsp), %rax
 7361      08
 7362 3532 488B6C24 		movq	32(%rsp), %rbp
 7362      20
 7363 3537 4883C003 		addq	$3, %rax
 7364 353b 83E003   		andl	$3, %eax
 7365 353e 4883C001 		addq	$1, %rax
 7366 3542 48894424 		movq	%rax, 48(%rsp)
 7366      30
 7367 3547 E8000000 		call	_ZN8UnitTest11CurrentTest7ResultsEv
 7367      00
 7368 354c 488B38   		movq	(%rax), %rdi
 7369 354f 488D7424 		leaq	48(%rsp), %rsi
 7369      30
 7370 3554 4889D9   		movq	%rbx, %rcx
 7371 3557 4889EA   		movq	%rbp, %rdx
 7372 355a E8000000 		call	_ZN8UnitTest10CheckEqualImjEEvRNS_11TestResultsERKT_RKT0_RKNS_11TestDetailsE
 7372      00
 7373              	.LEHE386:
 7374              	.L617:
 7375 355f 488B4424 		movq	32(%rsp), %rax
 7375      20
 7376 3564 488D7C24 		leaq	96(%rsp), %rdi
 7376      60
 7377 3569 C7006700 		movl	$103, (%rax)
 7377      0000
 7378              	.LEHB387:
 7379 356f E8000000 		call	queueCommitPut
 7379      00
 7380              	.LEHE387:
 7381              	.LEHB388:
 7382 3574 E8000000 		call	_ZN8UnitTest11CurrentTest7DetailsEv
 7382      00
 7383 3579 488B30   		movq	(%rax), %rsi
 7384 357c BA0B0100 		movl	$267, %edx
 7384      00
 7385 3581 4889DF   		movq	%rbx, %rdi
 7386 3584 E8000000 		call	_ZN8UnitTest11TestDetailsC1ERKS0_i
 7386      00
 7387 3589 48C74424 		movq	$4, 48(%rsp)
 7387      30040000 
 7387      00
 7388 3592 E8000000 		call	_ZN8UnitTest11CurrentTest7ResultsEv
 7388      00
 7389 3597 488B38   		movq	(%rax), %rdi
 7390 359a 488D5424 		leaq	104(%rsp), %rdx
 7390      68
 7391 359f 488D7424 		leaq	48(%rsp), %rsi
 7391      30
 7392 35a4 4889D9   		movq	%rbx, %rcx
 7393 35a7 E8000000 		call	_ZN8UnitTest10CheckEqualImmEEvRNS_11TestResultsERKT_RKT0_RKNS_11TestDetailsE
 7393      00
 7394              	.LEHE388:
 7395              	.L620:
 7396              	.LEHB389:
 7397 35ac E8000000 		call	_ZN8UnitTest11CurrentTest7DetailsEv
 7397      00
 7398 35b1 488B30   		movq	(%rax), %rsi
 7399 35b4 BA0C0100 		movl	$268, %edx
 7399      00
 7400 35b9 4889DF   		movq	%rbx, %rdi
 7401 35bc E8000000 		call	_ZN8UnitTest11TestDetailsC1ERKS0_i
 7401      00
 7402 35c1 E8000000 		call	_ZN8UnitTest11CurrentTest7ResultsEv
 7402      00
 7403 35c6 488B38   		movq	(%rax), %rdi
 7404 35c9 488D5424 		leaq	112(%rsp), %rdx
 7404      70
 7405 35ce 488D7424 		leaq	8(%rsp), %rsi
 7405      08
 7406 35d3 4889D9   		movq	%rbx, %rcx
 7407 35d6 E8000000 		call	_ZN8UnitTest10CheckEqualImmEEvRNS_11TestResultsERKT_RKT0_RKNS_11TestDetailsE
 7407      00
 7408              	.LEHE389:
 7409              	.L623:
 7410              	.LEHB390:
 7411 35db E8000000 		call	_ZN8UnitTest11CurrentTest7DetailsEv
 7411      00
 7412 35e0 488B30   		movq	(%rax), %rsi
 7413 35e3 BA0D0100 		movl	$269, %edx
 7413      00
 7414 35e8 4889DF   		movq	%rbx, %rdi
 7415 35eb E8000000 		call	_ZN8UnitTest11TestDetailsC1ERKS0_i
 7415      00
 7416 35f0 E8000000 		call	_ZN8UnitTest11CurrentTest7ResultsEv
 7416      00
 7417 35f5 488B38   		movq	(%rax), %rdi
 7418 35f8 488D5424 		leaq	120(%rsp), %rdx
 7418      78
 7419 35fd 488D7424 		leaq	8(%rsp), %rsi
 7419      08
 7420 3602 4889D9   		movq	%rbx, %rcx
 7421 3605 E8000000 		call	_ZN8UnitTest10CheckEqualImmEEvRNS_11TestResultsERKT_RKT0_RKNS_11TestDetailsE
 7421      00
 7422              	.LEHE390:
 7423              	.L626:
 7424              	.LEHB391:
 7425 360a E8000000 		call	_ZN8UnitTest11CurrentTest7DetailsEv
 7425      00
 7426 360f 488B30   		movq	(%rax), %rsi
 7427 3612 BA0E0100 		movl	$270, %edx
 7427      00
 7428 3617 4889DF   		movq	%rbx, %rdi
 7429 361a E8000000 		call	_ZN8UnitTest11TestDetailsC1ERKS0_i
 7429      00
 7430 361f 48C74424 		movq	$4, 48(%rsp)
 7430      30040000 
 7430      00
 7431 3628 E8000000 		call	_ZN8UnitTest11CurrentTest7ResultsEv
 7431      00
 7432 362d 488B38   		movq	(%rax), %rdi
 7433 3630 488D9424 		leaq	128(%rsp), %rdx
 7433      80000000 
 7434 3638 488D7424 		leaq	48(%rsp), %rsi
 7434      30
 7435 363d 4889D9   		movq	%rbx, %rcx
 7436 3640 E8000000 		call	_ZN8UnitTest10CheckEqualImmEEvRNS_11TestResultsERKT_RKT0_RKNS_11TestDetailsE
 7436      00
 7437              	.LEHE391:
 7438              	.L629:
 7439 3645 488D7424 		leaq	32(%rsp), %rsi
 7439      20
 7440 364a 488D7C24 		leaq	96(%rsp), %rdi
 7440      60
 7441              	.LEHB392:
 7442 364f E8000000 		call	queuePut
 7442      00
 7443              	.LEHE392:
 7444 3654 8944241C 		movl	%eax, 28(%rsp)
 7445              	.LEHB393:
 7446 3658 E8000000 		call	_ZN8UnitTest11CurrentTest7DetailsEv
 7446      00
 7447 365d 488B30   		movq	(%rax), %rsi
 7448 3660 BA120100 		movl	$274, %edx
 7448      00
 7449 3665 4889DF   		movq	%rbx, %rdi
 7450 3668 E8000000 		call	_ZN8UnitTest11TestDetailsC1ERKS0_i
 7450      00
 7451 366d C7442430 		movl	$0, 48(%rsp)
 7451      00000000 
 7452 3675 E8000000 		call	_ZN8UnitTest11CurrentTest7ResultsEv
 7452      00
 7453 367a 488B38   		movq	(%rax), %rdi
 7454 367d 488D5424 		leaq	28(%rsp), %rdx
 7454      1C
 7455 3682 488D7424 		leaq	48(%rsp), %rsi
 7455      30
 7456 3687 4889D9   		movq	%rbx, %rcx
 7457 368a E8000000 		call	_ZN8UnitTest10CheckEqualI9USBStatusS1_EEvRNS_11TestResultsERKT_RKT0_RKNS_11TestDetailsE
 7457      00
 7458              	.LEHE393:
 7459              	.L632:
 7460              	.LEHB394:
 7461 368f E8000000 		call	_ZN8UnitTest11CurrentTest7DetailsEv
 7461      00
 7462 3694 488B30   		movq	(%rax), %rsi
 7463 3697 BA130100 		movl	$275, %edx
 7463      00
 7464 369c 4889DF   		movq	%rbx, %rdi
 7465 369f E8000000 		call	_ZN8UnitTest11TestDetailsC1ERKS0_i
 7465      00
 7466 36a4 488B6C24 		movq	32(%rsp), %rbp
 7466      20
 7467 36a9 48C74424 		movq	$5, 48(%rsp)
 7467      30050000 
 7467      00
 7468 36b2 E8000000 		call	_ZN8UnitTest11CurrentTest7ResultsEv
 7468      00
 7469 36b7 488B38   		movq	(%rax), %rdi
 7470 36ba 488D7424 		leaq	48(%rsp), %rsi
 7470      30
 7471 36bf 4889D9   		movq	%rbx, %rcx
 7472 36c2 4889EA   		movq	%rbp, %rdx
 7473 36c5 E8000000 		call	_ZN8UnitTest10CheckEqualImjEEvRNS_11TestResultsERKT_RKT0_RKNS_11TestDetailsE
 7473      00
 7474              	.LEHE394:
 7475              	.L635:
 7476 36ca 488B4424 		movq	32(%rsp), %rax
 7476      20
 7477 36cf 488D7C24 		leaq	96(%rsp), %rdi
 7477      60
 7478 36d4 C7006800 		movl	$104, (%rax)
 7478      0000
 7479              	.LEHB395:
 7480 36da E8000000 		call	queueCommitPut
 7480      00
 7481              	.LEHE395:
 7482              	.LEHB396:
 7483 36df E8000000 		call	_ZN8UnitTest11CurrentTest7DetailsEv
 7483      00
 7484 36e4 488B30   		movq	(%rax), %rsi
 7485 36e7 BA180100 		movl	$280, %edx
 7485      00
 7486 36ec 4889DF   		movq	%rbx, %rdi
 7487 36ef E8000000 		call	_ZN8UnitTest11TestDetailsC1ERKS0_i
 7487      00
 7488 36f4 48C74424 		movq	$8, 48(%rsp)
 7488      30080000 
 7488      00
 7489 36fd E8000000 		call	_ZN8UnitTest11CurrentTest7ResultsEv
 7489      00
 7490 3702 488B38   		movq	(%rax), %rdi
 7491 3705 488D5424 		leaq	104(%rsp), %rdx
 7491      68
 7492 370a 488D7424 		leaq	48(%rsp), %rsi
 7492      30
 7493 370f 4889D9   		movq	%rbx, %rcx
 7494 3712 E8000000 		call	_ZN8UnitTest10CheckEqualImmEEvRNS_11TestResultsERKT_RKT0_RKNS_11TestDetailsE
 7494      00
 7495              	.LEHE396:
 7496              	.L638:
 7497              	.LEHB397:
 7498 3717 E8000000 		call	_ZN8UnitTest11CurrentTest7DetailsEv
 7498      00
 7499 371c 488B30   		movq	(%rax), %rsi
 7500 371f BA190100 		movl	$281, %edx
 7500      00
 7501 3724 4889DF   		movq	%rbx, %rdi
 7502 3727 E8000000 		call	_ZN8UnitTest11TestDetailsC1ERKS0_i
 7502      00
 7503 372c 48C74424 		movq	$5, 48(%rsp)
 7503      30050000 
 7503      00
 7504 3735 E8000000 		call	_ZN8UnitTest11CurrentTest7ResultsEv
 7504      00
 7505 373a 488B38   		movq	(%rax), %rdi
 7506 373d 488D5424 		leaq	112(%rsp), %rdx
 7506      70
 7507 3742 488D7424 		leaq	48(%rsp), %rsi
 7507      30
 7508 3747 4889D9   		movq	%rbx, %rcx
 7509 374a E8000000 		call	_ZN8UnitTest10CheckEqualImmEEvRNS_11TestResultsERKT_RKT0_RKNS_11TestDetailsE
 7509      00
 7510              	.LEHE397:
 7511              	.L641:
 7512              	.LEHB398:
 7513 374f E8000000 		call	_ZN8UnitTest11CurrentTest7DetailsEv
 7513      00
 7514 3754 488B30   		movq	(%rax), %rsi
 7515 3757 BA1A0100 		movl	$282, %edx
 7515      00
 7516 375c 4889DF   		movq	%rbx, %rdi
 7517 375f E8000000 		call	_ZN8UnitTest11TestDetailsC1ERKS0_i
 7517      00
 7518 3764 48C74424 		movq	$0, 48(%rsp)
 7518      30000000 
 7518      00
 7519 376d E8000000 		call	_ZN8UnitTest11CurrentTest7ResultsEv
 7519      00
 7520 3772 488B38   		movq	(%rax), %rdi
 7521 3775 488D5424 		leaq	120(%rsp), %rdx
 7521      78
 7522 377a 488D7424 		leaq	48(%rsp), %rsi
 7522      30
 7523 377f 4889D9   		movq	%rbx, %rcx
 7524 3782 E8000000 		call	_ZN8UnitTest10CheckEqualImmEEvRNS_11TestResultsERKT_RKT0_RKNS_11TestDetailsE
 7524      00
 7525              	.LEHE398:
 7526              	.L644:
 7527              	.LEHB399:
 7528 3787 E8000000 		call	_ZN8UnitTest11CurrentTest7DetailsEv
 7528      00
 7529 378c 488B30   		movq	(%rax), %rsi
 7530 378f BA1B0100 		movl	$283, %edx
 7530      00
 7531 3794 4889DF   		movq	%rbx, %rdi
 7532 3797 E8000000 		call	_ZN8UnitTest11TestDetailsC1ERKS0_i
 7532      00
 7533 379c 48C74424 		movq	$5, 48(%rsp)
 7533      30050000 
 7533      00
 7534 37a5 E8000000 		call	_ZN8UnitTest11CurrentTest7ResultsEv
 7534      00
 7535 37aa 488B38   		movq	(%rax), %rdi
 7536 37ad 488D9424 		leaq	128(%rsp), %rdx
 7536      80000000 
 7537 37b5 488D7424 		leaq	48(%rsp), %rsi
 7537      30
 7538 37ba 4889D9   		movq	%rbx, %rcx
 7539 37bd E8000000 		call	_ZN8UnitTest10CheckEqualImmEEvRNS_11TestResultsERKT_RKT0_RKNS_11TestDetailsE
 7539      00
 7540              	.LEHE399:
 7541              	.L647:
 7542              	.LEHB400:
 7543 37c2 E8000000 		call	_ZN8UnitTest11CurrentTest7DetailsEv
 7543      00
 7544 37c7 488B30   		movq	(%rax), %rsi
 7545 37ca BA1E0100 		movl	$286, %edx
 7545      00
 7546 37cf 4889DF   		movq	%rbx, %rdi
 7547 37d2 E8000000 		call	_ZN8UnitTest11TestDetailsC1ERKS0_i
 7547      00
 7548 37d7 488B4424 		movq	96(%rsp), %rax
 7548      60
 7549 37dc 488B00   		movq	(%rax), %rax
 7550 37df 8B00     		movl	(%rax), %eax
 7551 37e1 48C74424 		movq	$100, 48(%rsp)
 7551      30640000 
 7551      00
 7552 37ea 89442410 		movl	%eax, 16(%rsp)
 7553 37ee E8000000 		call	_ZN8UnitTest11CurrentTest7ResultsEv
 7553      00
 7554 37f3 488B38   		movq	(%rax), %rdi
 7555 37f6 488D5424 		leaq	16(%rsp), %rdx
 7555      10
 7556 37fb 488D7424 		leaq	48(%rsp), %rsi
 7556      30
 7557 3800 4889D9   		movq	%rbx, %rcx
 7558 3803 E8000000 		call	_ZN8UnitTest10CheckEqualImjEEvRNS_11TestResultsERKT_RKT0_RKNS_11TestDetailsE
 7558      00
 7559              	.LEHE400:
 7560              	.L650:
 7561              	.LEHB401:
 7562 3808 E8000000 		call	_ZN8UnitTest11CurrentTest7DetailsEv
 7562      00
 7563 380d 488B30   		movq	(%rax), %rsi
 7564 3810 BA1F0100 		movl	$287, %edx
 7564      00
 7565 3815 4889DF   		movq	%rbx, %rdi
 7566 3818 E8000000 		call	_ZN8UnitTest11TestDetailsC1ERKS0_i
 7566      00
 7567 381d 488B4424 		movq	96(%rsp), %rax
 7567      60
 7568 3822 488B4008 		movq	8(%rax), %rax
 7569 3826 8B00     		movl	(%rax), %eax
 7570 3828 48C74424 		movq	$101, 48(%rsp)
 7570      30650000 
 7570      00
 7571 3831 89442410 		movl	%eax, 16(%rsp)
 7572 3835 E8000000 		call	_ZN8UnitTest11CurrentTest7ResultsEv
 7572      00
 7573 383a 488B38   		movq	(%rax), %rdi
 7574 383d 488D5424 		leaq	16(%rsp), %rdx
 7574      10
 7575 3842 488D7424 		leaq	48(%rsp), %rsi
 7575      30
 7576 3847 4889D9   		movq	%rbx, %rcx
 7577 384a E8000000 		call	_ZN8UnitTest10CheckEqualImjEEvRNS_11TestResultsERKT_RKT0_RKNS_11TestDetailsE
 7577      00
 7578              	.LEHE401:
 7579              	.L653:
 7580              	.LEHB402:
 7581 384f E8000000 		call	_ZN8UnitTest11CurrentTest7DetailsEv
 7581      00
 7582 3854 488B30   		movq	(%rax), %rsi
 7583 3857 BA200100 		movl	$288, %edx
 7583      00
 7584 385c 4889DF   		movq	%rbx, %rdi
 7585 385f E8000000 		call	_ZN8UnitTest11TestDetailsC1ERKS0_i
 7585      00
 7586 3864 488B4424 		movq	96(%rsp), %rax
 7586      60
 7587 3869 488B4010 		movq	16(%rax), %rax
 7588 386d 8B00     		movl	(%rax), %eax
 7589 386f 48C74424 		movq	$102, 48(%rsp)
 7589      30660000 
 7589      00
 7590 3878 89442410 		movl	%eax, 16(%rsp)
 7591 387c E8000000 		call	_ZN8UnitTest11CurrentTest7ResultsEv
 7591      00
 7592 3881 488B38   		movq	(%rax), %rdi
 7593 3884 488D5424 		leaq	16(%rsp), %rdx
 7593      10
 7594 3889 488D7424 		leaq	48(%rsp), %rsi
 7594      30
 7595 388e 4889D9   		movq	%rbx, %rcx
 7596 3891 E8000000 		call	_ZN8UnitTest10CheckEqualImjEEvRNS_11TestResultsERKT_RKT0_RKNS_11TestDetailsE
 7596      00
 7597              	.LEHE402:
 7598              	.L656:
 7599              	.LEHB403:
 7600 3896 E8000000 		call	_ZN8UnitTest11CurrentTest7DetailsEv
 7600      00
 7601 389b 488B30   		movq	(%rax), %rsi
 7602 389e BA210100 		movl	$289, %edx
 7602      00
 7603 38a3 4889DF   		movq	%rbx, %rdi
 7604 38a6 E8000000 		call	_ZN8UnitTest11TestDetailsC1ERKS0_i
 7604      00
 7605 38ab 488B4424 		movq	96(%rsp), %rax
 7605      60
 7606 38b0 488B4018 		movq	24(%rax), %rax
 7607 38b4 8B00     		movl	(%rax), %eax
 7608 38b6 48C74424 		movq	$103, 48(%rsp)
 7608      30670000 
 7608      00
 7609 38bf 89442410 		movl	%eax, 16(%rsp)
 7610 38c3 E8000000 		call	_ZN8UnitTest11CurrentTest7ResultsEv
 7610      00
 7611 38c8 488B38   		movq	(%rax), %rdi
 7612 38cb 488D5424 		leaq	16(%rsp), %rdx
 7612      10
 7613 38d0 488D7424 		leaq	48(%rsp), %rsi
 7613      30
 7614 38d5 4889D9   		movq	%rbx, %rcx
 7615 38d8 E8000000 		call	_ZN8UnitTest10CheckEqualImjEEvRNS_11TestResultsERKT_RKT0_RKNS_11TestDetailsE
 7615      00
 7616              	.LEHE403:
 7617              	.L659:
 7618              	.LEHB404:
 7619 38dd E8000000 		call	_ZN8UnitTest11CurrentTest7DetailsEv
 7619      00
 7620 38e2 488B30   		movq	(%rax), %rsi
 7621 38e5 BA220100 		movl	$290, %edx
 7621      00
 7622 38ea 4889DF   		movq	%rbx, %rdi
 7623 38ed E8000000 		call	_ZN8UnitTest11TestDetailsC1ERKS0_i
 7623      00
 7624 38f2 488B4424 		movq	96(%rsp), %rax
 7624      60
 7625 38f7 488B4020 		movq	32(%rax), %rax
 7626 38fb 8B00     		movl	(%rax), %eax
 7627 38fd 48C74424 		movq	$104, 48(%rsp)
 7627      30680000 
 7627      00
 7628 3906 89442410 		movl	%eax, 16(%rsp)
 7629 390a E8000000 		call	_ZN8UnitTest11CurrentTest7ResultsEv
 7629      00
 7630 390f 488B38   		movq	(%rax), %rdi
 7631 3912 488D5424 		leaq	16(%rsp), %rdx
 7631      10
 7632 3917 488D7424 		leaq	48(%rsp), %rsi
 7632      30
 7633 391c 4889D9   		movq	%rbx, %rcx
 7634 391f E8000000 		call	_ZN8UnitTest10CheckEqualImjEEvRNS_11TestResultsERKT_RKT0_RKNS_11TestDetailsE
 7634      00
 7635              	.LEHE404:
 7636              	.L662:
 7637              	.LEHB405:
 7638 3924 E8000000 		call	_ZN8UnitTest11CurrentTest7DetailsEv
 7638      00
 7639 3929 488B30   		movq	(%rax), %rsi
 7640 392c BA230100 		movl	$291, %edx
 7640      00
 7641 3931 4889DF   		movq	%rbx, %rdi
 7642 3934 E8000000 		call	_ZN8UnitTest11TestDetailsC1ERKS0_i
 7642      00
 7643 3939 488B4424 		movq	96(%rsp), %rax
 7643      60
 7644 393e 488B4028 		movq	40(%rax), %rax
 7645 3942 8B00     		movl	(%rax), %eax
 7646 3944 48C74424 		movq	$6, 48(%rsp)
 7646      30060000 
 7646      00
 7647 394d 89442410 		movl	%eax, 16(%rsp)
 7648 3951 E8000000 		call	_ZN8UnitTest11CurrentTest7ResultsEv
 7648      00
 7649 3956 488B38   		movq	(%rax), %rdi
 7650 3959 488D5424 		leaq	16(%rsp), %rdx
 7650      10
 7651 395e 488D7424 		leaq	48(%rsp), %rsi
 7651      30
 7652 3963 4889D9   		movq	%rbx, %rcx
 7653 3966 E8000000 		call	_ZN8UnitTest10CheckEqualImjEEvRNS_11TestResultsERKT_RKT0_RKNS_11TestDetailsE
 7653      00
 7654              	.LEHE405:
 7655              	.L665:
 7656              	.LEHB406:
 7657 396b E8000000 		call	_ZN8UnitTest11CurrentTest7DetailsEv
 7657      00
 7658 3970 488B30   		movq	(%rax), %rsi
 7659 3973 BA240100 		movl	$292, %edx
 7659      00
 7660 3978 4889DF   		movq	%rbx, %rdi
 7661 397b E8000000 		call	_ZN8UnitTest11TestDetailsC1ERKS0_i
 7661      00
 7662 3980 488B4424 		movq	96(%rsp), %rax
 7662      60
 7663 3985 488B4030 		movq	48(%rax), %rax
 7664 3989 8B00     		movl	(%rax), %eax
 7665 398b 48C74424 		movq	$7, 48(%rsp)
 7665      30070000 
 7665      00
 7666 3994 89442410 		movl	%eax, 16(%rsp)
 7667 3998 E8000000 		call	_ZN8UnitTest11CurrentTest7ResultsEv
 7667      00
 7668 399d 488B38   		movq	(%rax), %rdi
 7669 39a0 488D5424 		leaq	16(%rsp), %rdx
 7669      10
 7670 39a5 488D7424 		leaq	48(%rsp), %rsi
 7670      30
 7671 39aa 4889D9   		movq	%rbx, %rcx
 7672 39ad E8000000 		call	_ZN8UnitTest10CheckEqualImjEEvRNS_11TestResultsERKT_RKT0_RKNS_11TestDetailsE
 7672      00
 7673              	.LEHE406:
 7674              	.L668:
 7675              	.LEHB407:
 7676 39b2 E8000000 		call	_ZN8UnitTest11CurrentTest7DetailsEv
 7676      00
 7677 39b7 488B30   		movq	(%rax), %rsi
 7678 39ba BA250100 		movl	$293, %edx
 7678      00
 7679 39bf 4889DF   		movq	%rbx, %rdi
 7680 39c2 E8000000 		call	_ZN8UnitTest11TestDetailsC1ERKS0_i
 7680      00
 7681 39c7 488B4424 		movq	96(%rsp), %rax
 7681      60
 7682 39cc 488B4038 		movq	56(%rax), %rax
 7683 39d0 8B00     		movl	(%rax), %eax
 7684 39d2 48C74424 		movq	$8, 48(%rsp)
 7684      30080000 
 7684      00
 7685 39db 89442410 		movl	%eax, 16(%rsp)
 7686 39df E8000000 		call	_ZN8UnitTest11CurrentTest7ResultsEv
 7686      00
 7687 39e4 488B38   		movq	(%rax), %rdi
 7688 39e7 488D5424 		leaq	16(%rsp), %rdx
 7688      10
 7689 39ec 488D7424 		leaq	48(%rsp), %rsi
 7689      30
 7690 39f1 4889D9   		movq	%rbx, %rcx
 7691 39f4 E8000000 		call	_ZN8UnitTest10CheckEqualImjEEvRNS_11TestResultsERKT_RKT0_RKNS_11TestDetailsE
 7691      00
 7692              	.LEHE407:
 7693              	.L671:
 7694 39f9 488D7424 		leaq	32(%rsp), %rsi
 7694      20
 7695 39fe 488D7C24 		leaq	96(%rsp), %rdi
 7695      60
 7696              	.LEHB408:
 7697 3a03 E8000000 		call	queueTake
 7697      00
 7698              	.LEHE408:
 7699 3a08 8944241C 		movl	%eax, 28(%rsp)
 7700              	.LEHB409:
 7701 3a0c E8000000 		call	_ZN8UnitTest11CurrentTest7DetailsEv
 7701      00
 7702 3a11 488B30   		movq	(%rax), %rsi
 7703 3a14 BA290100 		movl	$297, %edx
 7703      00
 7704 3a19 4889DF   		movq	%rbx, %rdi
 7705 3a1c E8000000 		call	_ZN8UnitTest11TestDetailsC1ERKS0_i
 7705      00
 7706 3a21 C7442430 		movl	$0, 48(%rsp)
 7706      00000000 
 7707 3a29 E8000000 		call	_ZN8UnitTest11CurrentTest7ResultsEv
 7707      00
 7708 3a2e 488B38   		movq	(%rax), %rdi
 7709 3a31 488D5424 		leaq	28(%rsp), %rdx
 7709      1C
 7710 3a36 488D7424 		leaq	48(%rsp), %rsi
 7710      30
 7711 3a3b 4889D9   		movq	%rbx, %rcx
 7712 3a3e E8000000 		call	_ZN8UnitTest10CheckEqualI9USBStatusS1_EEvRNS_11TestResultsERKT_RKT0_RKNS_11TestDetailsE
 7712      00
 7713              	.LEHE409:
 7714              	.L674:
 7715              	.LEHB410:
 7716 3a43 E8000000 		call	_ZN8UnitTest11CurrentTest7DetailsEv
 7716      00
 7717 3a48 488B30   		movq	(%rax), %rsi
 7718 3a4b BA2A0100 		movl	$298, %edx
 7718      00
 7719 3a50 4889DF   		movq	%rbx, %rdi
 7720 3a53 E8000000 		call	_ZN8UnitTest11TestDetailsC1ERKS0_i
 7720      00
 7721 3a58 488B6C24 		movq	32(%rsp), %rbp
 7721      20
 7722 3a5d 48C74424 		movq	$100, 48(%rsp)
 7722      30640000 
 7722      00
 7723 3a66 E8000000 		call	_ZN8UnitTest11CurrentTest7ResultsEv
 7723      00
 7724 3a6b 488B38   		movq	(%rax), %rdi
 7725 3a6e 488D7424 		leaq	48(%rsp), %rsi
 7725      30
 7726 3a73 4889D9   		movq	%rbx, %rcx
 7727 3a76 4889EA   		movq	%rbp, %rdx
 7728 3a79 E8000000 		call	_ZN8UnitTest10CheckEqualImjEEvRNS_11TestResultsERKT_RKT0_RKNS_11TestDetailsE
 7728      00
 7729              	.LEHE410:
 7730              	.L677:
 7731 3a7e 488D7C24 		leaq	96(%rsp), %rdi
 7731      60
 7732              	.LEHB411:
 7733 3a83 E8000000 		call	queueCommitTake
 7733      00
 7734 3a88 488D7424 		leaq	32(%rsp), %rsi
 7734      20
 7735 3a8d 488D7C24 		leaq	96(%rsp), %rdi
 7735      60
 7736 3a92 E8000000 		call	queueTake
 7736      00
 7737              	.LEHE411:
 7738 3a97 8944241C 		movl	%eax, 28(%rsp)
 7739              	.LEHB412:
 7740 3a9b E8000000 		call	_ZN8UnitTest11CurrentTest7DetailsEv
 7740      00
 7741 3aa0 488B30   		movq	(%rax), %rsi
 7742 3aa3 BA2D0100 		movl	$301, %edx
 7742      00
 7743 3aa8 4889DF   		movq	%rbx, %rdi
 7744 3aab E8000000 		call	_ZN8UnitTest11TestDetailsC1ERKS0_i
 7744      00
 7745 3ab0 C7442430 		movl	$0, 48(%rsp)
 7745      00000000 
 7746 3ab8 E8000000 		call	_ZN8UnitTest11CurrentTest7ResultsEv
 7746      00
 7747 3abd 488B38   		movq	(%rax), %rdi
 7748 3ac0 488D5424 		leaq	28(%rsp), %rdx
 7748      1C
 7749 3ac5 488D7424 		leaq	48(%rsp), %rsi
 7749      30
 7750 3aca 4889D9   		movq	%rbx, %rcx
 7751 3acd E8000000 		call	_ZN8UnitTest10CheckEqualI9USBStatusS1_EEvRNS_11TestResultsERKT_RKT0_RKNS_11TestDetailsE
 7751      00
 7752              	.LEHE412:
 7753              	.L680:
 7754              	.LEHB413:
 7755 3ad2 E8000000 		call	_ZN8UnitTest11CurrentTest7DetailsEv
 7755      00
 7756 3ad7 488B30   		movq	(%rax), %rsi
 7757 3ada BA2E0100 		movl	$302, %edx
 7757      00
 7758 3adf 4889DF   		movq	%rbx, %rdi
 7759 3ae2 E8000000 		call	_ZN8UnitTest11TestDetailsC1ERKS0_i
 7759      00
 7760 3ae7 488B6C24 		movq	32(%rsp), %rbp
 7760      20
 7761 3aec 48C74424 		movq	$101, 48(%rsp)
 7761      30650000 
 7761      00
 7762 3af5 E8000000 		call	_ZN8UnitTest11CurrentTest7ResultsEv
 7762      00
 7763 3afa 488B38   		movq	(%rax), %rdi
 7764 3afd 488D7424 		leaq	48(%rsp), %rsi
 7764      30
 7765 3b02 4889D9   		movq	%rbx, %rcx
 7766 3b05 4889EA   		movq	%rbp, %rdx
 7767 3b08 E8000000 		call	_ZN8UnitTest10CheckEqualImjEEvRNS_11TestResultsERKT_RKT0_RKNS_11TestDetailsE
 7767      00
 7768              	.LEHE413:
 7769              	.L683:
 7770 3b0d 488D7C24 		leaq	96(%rsp), %rdi
 7770      60
 7771              	.LEHB414:
 7772 3b12 E8000000 		call	queueCommitTake
 7772      00
 7773 3b17 488D7424 		leaq	32(%rsp), %rsi
 7773      20
 7774 3b1c 488D7C24 		leaq	96(%rsp), %rdi
 7774      60
 7775 3b21 E8000000 		call	queueTake
 7775      00
 7776              	.LEHE414:
 7777 3b26 8944241C 		movl	%eax, 28(%rsp)
 7778              	.LEHB415:
 7779 3b2a E8000000 		call	_ZN8UnitTest11CurrentTest7DetailsEv
 7779      00
 7780 3b2f 488B30   		movq	(%rax), %rsi
 7781 3b32 BA310100 		movl	$305, %edx
 7781      00
 7782 3b37 4889DF   		movq	%rbx, %rdi
 7783 3b3a E8000000 		call	_ZN8UnitTest11TestDetailsC1ERKS0_i
 7783      00
 7784 3b3f C7442430 		movl	$0, 48(%rsp)
 7784      00000000 
 7785 3b47 E8000000 		call	_ZN8UnitTest11CurrentTest7ResultsEv
 7785      00
 7786 3b4c 488B38   		movq	(%rax), %rdi
 7787 3b4f 488D5424 		leaq	28(%rsp), %rdx
 7787      1C
 7788 3b54 488D7424 		leaq	48(%rsp), %rsi
 7788      30
 7789 3b59 4889D9   		movq	%rbx, %rcx
 7790 3b5c E8000000 		call	_ZN8UnitTest10CheckEqualI9USBStatusS1_EEvRNS_11TestResultsERKT_RKT0_RKNS_11TestDetailsE
 7790      00
 7791              	.LEHE415:
 7792              	.L686:
 7793              	.LEHB416:
 7794 3b61 E8000000 		call	_ZN8UnitTest11CurrentTest7DetailsEv
 7794      00
 7795 3b66 488B30   		movq	(%rax), %rsi
 7796 3b69 BA320100 		movl	$306, %edx
 7796      00
 7797 3b6e 4889DF   		movq	%rbx, %rdi
 7798 3b71 E8000000 		call	_ZN8UnitTest11TestDetailsC1ERKS0_i
 7798      00
 7799 3b76 488B6C24 		movq	32(%rsp), %rbp
 7799      20
 7800 3b7b 48C74424 		movq	$102, 48(%rsp)
 7800      30660000 
 7800      00
 7801 3b84 E8000000 		call	_ZN8UnitTest11CurrentTest7ResultsEv
 7801      00
 7802 3b89 488B38   		movq	(%rax), %rdi
 7803 3b8c 488D7424 		leaq	48(%rsp), %rsi
 7803      30
 7804 3b91 4889D9   		movq	%rbx, %rcx
 7805 3b94 4889EA   		movq	%rbp, %rdx
 7806 3b97 E8000000 		call	_ZN8UnitTest10CheckEqualImjEEvRNS_11TestResultsERKT_RKT0_RKNS_11TestDetailsE
 7806      00
 7807              	.LEHE416:
 7808              	.L689:
 7809 3b9c 488D7C24 		leaq	96(%rsp), %rdi
 7809      60
 7810              	.LEHB417:
 7811 3ba1 E8000000 		call	queueCommitTake
 7811      00
 7812 3ba6 488D7424 		leaq	32(%rsp), %rsi
 7812      20
 7813 3bab 488D7C24 		leaq	96(%rsp), %rdi
 7813      60
 7814 3bb0 E8000000 		call	queueTake
 7814      00
 7815              	.LEHE417:
 7816 3bb5 8944241C 		movl	%eax, 28(%rsp)
 7817              	.LEHB418:
 7818 3bb9 E8000000 		call	_ZN8UnitTest11CurrentTest7DetailsEv
 7818      00
 7819 3bbe 488B30   		movq	(%rax), %rsi
 7820 3bc1 BA350100 		movl	$309, %edx
 7820      00
 7821 3bc6 4889DF   		movq	%rbx, %rdi
 7822 3bc9 E8000000 		call	_ZN8UnitTest11TestDetailsC1ERKS0_i
 7822      00
 7823 3bce C7442430 		movl	$0, 48(%rsp)
 7823      00000000 
 7824 3bd6 E8000000 		call	_ZN8UnitTest11CurrentTest7ResultsEv
 7824      00
 7825 3bdb 488B38   		movq	(%rax), %rdi
 7826 3bde 488D5424 		leaq	28(%rsp), %rdx
 7826      1C
 7827 3be3 488D7424 		leaq	48(%rsp), %rsi
 7827      30
 7828 3be8 4889D9   		movq	%rbx, %rcx
 7829 3beb E8000000 		call	_ZN8UnitTest10CheckEqualI9USBStatusS1_EEvRNS_11TestResultsERKT_RKT0_RKNS_11TestDetailsE
 7829      00
 7830              	.LEHE418:
 7831              	.L692:
 7832              	.LEHB419:
 7833 3bf0 E8000000 		call	_ZN8UnitTest11CurrentTest7DetailsEv
 7833      00
 7834 3bf5 488B30   		movq	(%rax), %rsi
 7835 3bf8 BA360100 		movl	$310, %edx
 7835      00
 7836 3bfd 4889DF   		movq	%rbx, %rdi
 7837 3c00 E8000000 		call	_ZN8UnitTest11TestDetailsC1ERKS0_i
 7837      00
 7838 3c05 488B6C24 		movq	32(%rsp), %rbp
 7838      20
 7839 3c0a 48C74424 		movq	$103, 48(%rsp)
 7839      30670000 
 7839      00
 7840 3c13 E8000000 		call	_ZN8UnitTest11CurrentTest7ResultsEv
 7840      00
 7841 3c18 488B38   		movq	(%rax), %rdi
 7842 3c1b 488D7424 		leaq	48(%rsp), %rsi
 7842      30
 7843 3c20 4889D9   		movq	%rbx, %rcx
 7844 3c23 4889EA   		movq	%rbp, %rdx
 7845 3c26 E8000000 		call	_ZN8UnitTest10CheckEqualImjEEvRNS_11TestResultsERKT_RKT0_RKNS_11TestDetailsE
 7845      00
 7846              	.LEHE419:
 7847              	.L695:
 7848 3c2b 488D7C24 		leaq	96(%rsp), %rdi
 7848      60
 7849              	.LEHB420:
 7850 3c30 E8000000 		call	queueCommitTake
 7850      00
 7851 3c35 488D7424 		leaq	32(%rsp), %rsi
 7851      20
 7852 3c3a 488D7C24 		leaq	96(%rsp), %rdi
 7852      60
 7853 3c3f E8000000 		call	queueTake
 7853      00
 7854              	.LEHE420:
 7855 3c44 8944241C 		movl	%eax, 28(%rsp)
 7856              	.LEHB421:
 7857 3c48 E8000000 		call	_ZN8UnitTest11CurrentTest7DetailsEv
 7857      00
 7858 3c4d 488B30   		movq	(%rax), %rsi
 7859 3c50 BA390100 		movl	$313, %edx
 7859      00
 7860 3c55 4889DF   		movq	%rbx, %rdi
 7861 3c58 E8000000 		call	_ZN8UnitTest11TestDetailsC1ERKS0_i
 7861      00
 7862 3c5d C7442430 		movl	$0, 48(%rsp)
 7862      00000000 
 7863 3c65 E8000000 		call	_ZN8UnitTest11CurrentTest7ResultsEv
 7863      00
 7864 3c6a 488B38   		movq	(%rax), %rdi
 7865 3c6d 488D5424 		leaq	28(%rsp), %rdx
 7865      1C
 7866 3c72 488D7424 		leaq	48(%rsp), %rsi
 7866      30
 7867 3c77 4889D9   		movq	%rbx, %rcx
 7868 3c7a E8000000 		call	_ZN8UnitTest10CheckEqualI9USBStatusS1_EEvRNS_11TestResultsERKT_RKT0_RKNS_11TestDetailsE
 7868      00
 7869              	.LEHE421:
 7870              	.L698:
 7871              	.LEHB422:
 7872 3c7f E8000000 		call	_ZN8UnitTest11CurrentTest7DetailsEv
 7872      00
 7873 3c84 488B30   		movq	(%rax), %rsi
 7874 3c87 BA3A0100 		movl	$314, %edx
 7874      00
 7875 3c8c 4889DF   		movq	%rbx, %rdi
 7876 3c8f E8000000 		call	_ZN8UnitTest11TestDetailsC1ERKS0_i
 7876      00
 7877 3c94 488B6C24 		movq	32(%rsp), %rbp
 7877      20
 7878 3c99 48C74424 		movq	$104, 48(%rsp)
 7878      30680000 
 7878      00
 7879 3ca2 E8000000 		call	_ZN8UnitTest11CurrentTest7ResultsEv
 7879      00
 7880 3ca7 488B38   		movq	(%rax), %rdi
 7881 3caa 488D7424 		leaq	48(%rsp), %rsi
 7881      30
 7882 3caf 4889D9   		movq	%rbx, %rcx
 7883 3cb2 4889EA   		movq	%rbp, %rdx
 7884 3cb5 E8000000 		call	_ZN8UnitTest10CheckEqualImjEEvRNS_11TestResultsERKT_RKT0_RKNS_11TestDetailsE
 7884      00
 7885              	.LEHE422:
 7886              	.L701:
 7887 3cba 488D7C24 		leaq	96(%rsp), %rdi
 7887      60
 7888              	.LEHB423:
 7889 3cbf E8000000 		call	queueCommitTake
 7889      00
 7890 3cc4 488D7424 		leaq	32(%rsp), %rsi
 7890      20
 7891 3cc9 488D7C24 		leaq	96(%rsp), %rdi
 7891      60
 7892 3cce E8000000 		call	queueTake
 7892      00
 7893              	.LEHE423:
 7894 3cd3 8944241C 		movl	%eax, 28(%rsp)
 7895              	.LEHB424:
 7896 3cd7 E8000000 		call	_ZN8UnitTest11CurrentTest7DetailsEv
 7896      00
 7897 3cdc 488B30   		movq	(%rax), %rsi
 7898 3cdf BA3F0100 		movl	$319, %edx
 7898      00
 7899 3ce4 4889DF   		movq	%rbx, %rdi
 7900 3ce7 E8000000 		call	_ZN8UnitTest11TestDetailsC1ERKS0_i
 7900      00
 7901 3cec C7442430 		movl	$13, 48(%rsp)
 7901      0D000000 
 7902 3cf4 E8000000 		call	_ZN8UnitTest11CurrentTest7ResultsEv
 7902      00
 7903 3cf9 488B38   		movq	(%rax), %rdi
 7904 3cfc 488D5424 		leaq	28(%rsp), %rdx
 7904      1C
 7905 3d01 488D7424 		leaq	48(%rsp), %rsi
 7905      30
 7906 3d06 4889D9   		movq	%rbx, %rcx
 7907 3d09 E8000000 		call	_ZN8UnitTest10CheckEqualI9USBStatusS1_EEvRNS_11TestResultsERKT_RKT0_RKNS_11TestDetailsE
 7907      00
 7908              	.LEHE424:
 7909              	.L704:
 7910 3d0e 488D7C24 		leaq	96(%rsp), %rdi
 7910      60
 7911              	.LEHB425:
 7912 3d13 E8000000 		call	queueDestroy
 7912      00
 7913              	.LEHE425:
 7914 3d18 4881C4A8 		addq	$168, %rsp
 7914      000000
 7915              		.cfi_remember_state
 7916              		.cfi_def_cfa_offset 24
 7917 3d1f 5B       		popq	%rbx
 7918              		.cfi_def_cfa_offset 16
 7919 3d20 5D       		popq	%rbp
 7920              		.cfi_def_cfa_offset 8
 7921 3d21 C3       		ret
 7922              	.L705:
 7923              		.cfi_restore_state
 7924 3d22 4889C7   		movq	%rax, %rdi
 7925 3d25 E8000000 		call	__cxa_begin_catch
 7925      00
 7926              	.LEHB426:
 7927 3d2a E8000000 		call	_ZN8UnitTest11CurrentTest7DetailsEv
 7927      00
 7928 3d2f 488D5C24 		leaq	64(%rsp), %rbx
 7928      40
 7929 3d34 488B30   		movq	(%rax), %rsi
 7930 3d37 BAEE0000 		movl	$238, %edx
 7930      00
 7931 3d3c 4889DF   		movq	%rbx, %rdi
 7932 3d3f E8000000 		call	_ZN8UnitTest11TestDetailsC1ERKS0_i
 7932      00
 7933 3d44 E8000000 		call	_ZN8UnitTest11CurrentTest7ResultsEv
 7933      00
 7934 3d49 488B38   		movq	(%rax), %rdi
 7935 3d4c BA000000 		movl	$.LC4, %edx
 7935      00
 7936 3d51 4889DE   		movq	%rbx, %rsi
 7937 3d54 E8000000 		call	_ZN8UnitTest11TestResults13OnTestFailureERKNS_11TestDetailsEPKc
 7937      00
 7938              	.LEHE426:
 7939              	.LEHB427:
 7940 3d59 E8000000 		call	__cxa_end_catch
 7940      00
 7941              	.LEHE427:
 7942 3d5e E96EF5FF 		jmp	.L593
 7942      FF
 7943              	.L779:
 7944 3d63 4889C7   		movq	%rax, %rdi
 7945              		.p2align 4,,5
 7946 3d66 E8000000 		call	__cxa_begin_catch
 7946      00
 7947 3d6b 0F1F4400 		.p2align 4,,5
 7947      00
 7948              	.LEHB428:
 7949 3d70 E8000000 		call	_ZN8UnitTest11CurrentTest7DetailsEv
 7949      00
 7950 3d75 488B30   		movq	(%rax), %rsi
 7951 3d78 BA3F0100 		movl	$319, %edx
 7951      00
 7952 3d7d 4889DF   		movq	%rbx, %rdi
 7953 3d80 E8000000 		call	_ZN8UnitTest11TestDetailsC1ERKS0_i
 7953      00
 7954 3d85 E8000000 		call	_ZN8UnitTest11CurrentTest7ResultsEv
 7954      00
 7955 3d8a 488B38   		movq	(%rax), %rdi
 7956 3d8d BA000000 		movl	$.LC50, %edx
 7956      00
 7957 3d92 4889DE   		movq	%rbx, %rsi
 7958 3d95 E8000000 		call	_ZN8UnitTest11TestResults13OnTestFailureERKNS_11TestDetailsEPKc
 7958      00
 7959              	.LEHE428:
 7960              	.LEHB429:
 7961 3d9a E8000000 		call	__cxa_end_catch
 7961      00
 7962              	.LEHE429:
 7963 3d9f E96AFFFF 		jmp	.L704
 7963      FF
 7964              	.L706:
 7965 3da4 4889C3   		movq	%rax, %rbx
 7966              		.p2align 4,,5
 7967 3da7 E8000000 		call	__cxa_end_catch
 7967      00
 7968 3dac 4889DF   		movq	%rbx, %rdi
 7969              	.LEHB430:
 7970 3daf E8000000 		call	_Unwind_Resume
 7970      00
 7971              	.LEHE430:
 7972              	.L780:
 7973 3db4 4889C3   		movq	%rax, %rbx
 7974 3db7 E8000000 		call	__cxa_end_catch
 7974      00
 7975 3dbc 4889DF   		movq	%rbx, %rdi
 7976              	.LEHB431:
 7977 3dbf E8000000 		call	_Unwind_Resume
 7977      00
 7978              	.LEHE431:
 7979              	.L777:
 7980 3dc4 4889C7   		movq	%rax, %rdi
 7981 3dc7 E8000000 		call	__cxa_begin_catch
 7981      00
 7982              	.LEHB432:
 7983 3dcc E8000000 		call	_ZN8UnitTest11CurrentTest7DetailsEv
 7983      00
 7984 3dd1 488B30   		movq	(%rax), %rsi
 7985 3dd4 BA3A0100 		movl	$314, %edx
 7985      00
 7986 3dd9 4889DF   		movq	%rbx, %rdi
 7987 3ddc E8000000 		call	_ZN8UnitTest11TestDetailsC1ERKS0_i
 7987      00
 7988 3de1 E8000000 		call	_ZN8UnitTest11CurrentTest7ResultsEv
 7988      00
 7989 3de6 488B38   		movq	(%rax), %rdi
 7990 3de9 BA000000 		movl	$.LC49, %edx
 7990      00
 7991 3dee 4889DE   		movq	%rbx, %rsi
 7992 3df1 E8000000 		call	_ZN8UnitTest11TestResults13OnTestFailureERKNS_11TestDetailsEPKc
 7992      00
 7993              	.LEHE432:
 7994              	.LEHB433:
 7995 3df6 E8000000 		call	__cxa_end_catch
 7995      00
 7996              	.LEHE433:
 7997 3dfb E9BAFEFF 		jmp	.L701
 7997      FF
 7998              	.L775:
 7999 3e00 4889C7   		movq	%rax, %rdi
 8000              		.p2align 4,,5
 8001 3e03 E8000000 		call	__cxa_begin_catch
 8001      00
 8002              		.p2align 4,,5
 8003              	.LEHB434:
 8004 3e08 E8000000 		call	_ZN8UnitTest11CurrentTest7DetailsEv
 8004      00
 8005 3e0d 488B30   		movq	(%rax), %rsi
 8006 3e10 BA390100 		movl	$313, %edx
 8006      00
 8007 3e15 4889DF   		movq	%rbx, %rdi
 8008 3e18 E8000000 		call	_ZN8UnitTest11TestDetailsC1ERKS0_i
 8008      00
 8009 3e1d E8000000 		call	_ZN8UnitTest11CurrentTest7ResultsEv
 8009      00
 8010 3e22 488B38   		movq	(%rax), %rdi
 8011 3e25 BA000000 		movl	$.LC4, %edx
 8011      00
 8012 3e2a 4889DE   		movq	%rbx, %rsi
 8013 3e2d E8000000 		call	_ZN8UnitTest11TestResults13OnTestFailureERKNS_11TestDetailsEPKc
 8013      00
 8014              	.LEHE434:
 8015              	.LEHB435:
 8016 3e32 E8000000 		call	__cxa_end_catch
 8016      00
 8017              	.LEHE435:
 8018 3e37 E943FEFF 		jmp	.L698
 8018      FF
 8019              	.L778:
 8020 3e3c 4889C3   		movq	%rax, %rbx
 8021 3e3f 90       		.p2align 4,,5
 8022 3e40 E8000000 		call	__cxa_end_catch
 8022      00
 8023 3e45 4889DF   		movq	%rbx, %rdi
 8024              	.LEHB436:
 8025 3e48 E8000000 		call	_Unwind_Resume
 8025      00
 8026              	.LEHE436:
 8027              	.L776:
 8028 3e4d 4889C3   		movq	%rax, %rbx
 8029 3e50 E8000000 		call	__cxa_end_catch
 8029      00
 8030 3e55 4889DF   		movq	%rbx, %rdi
 8031              	.LEHB437:
 8032 3e58 E8000000 		call	_Unwind_Resume
 8032      00
 8033              	.LEHE437:
 8034              	.L773:
 8035 3e5d 4889C7   		movq	%rax, %rdi
 8036 3e60 E8000000 		call	__cxa_begin_catch
 8036      00
 8037              	.LEHB438:
 8038 3e65 E8000000 		call	_ZN8UnitTest11CurrentTest7DetailsEv
 8038      00
 8039 3e6a 488B30   		movq	(%rax), %rsi
 8040 3e6d BA360100 		movl	$310, %edx
 8040      00
 8041 3e72 4889DF   		movq	%rbx, %rdi
 8042 3e75 E8000000 		call	_ZN8UnitTest11TestDetailsC1ERKS0_i
 8042      00
 8043 3e7a E8000000 		call	_ZN8UnitTest11CurrentTest7ResultsEv
 8043      00
 8044 3e7f 488B38   		movq	(%rax), %rdi
 8045 3e82 BA000000 		movl	$.LC48, %edx
 8045      00
 8046 3e87 4889DE   		movq	%rbx, %rsi
 8047 3e8a E8000000 		call	_ZN8UnitTest11TestResults13OnTestFailureERKNS_11TestDetailsEPKc
 8047      00
 8048              	.LEHE438:
 8049              	.LEHB439:
 8050 3e8f E8000000 		call	__cxa_end_catch
 8050      00
 8051              	.LEHE439:
 8052 3e94 E992FDFF 		jmp	.L695
 8052      FF
 8053              	.L771:
 8054 3e99 4889C7   		movq	%rax, %rdi
 8055 3e9c 0F1F4000 		.p2align 4,,5
 8056 3ea0 E8000000 		call	__cxa_begin_catch
 8056      00
 8057              		.p2align 4,,5
 8058              	.LEHB440:
 8059 3ea5 E8000000 		call	_ZN8UnitTest11CurrentTest7DetailsEv
 8059      00
 8060 3eaa 488B30   		movq	(%rax), %rsi
 8061 3ead BA350100 		movl	$309, %edx
 8061      00
 8062 3eb2 4889DF   		movq	%rbx, %rdi
 8063 3eb5 E8000000 		call	_ZN8UnitTest11TestDetailsC1ERKS0_i
 8063      00
 8064 3eba E8000000 		call	_ZN8UnitTest11CurrentTest7ResultsEv
 8064      00
 8065 3ebf 488B38   		movq	(%rax), %rdi
 8066 3ec2 BA000000 		movl	$.LC4, %edx
 8066      00
 8067 3ec7 4889DE   		movq	%rbx, %rsi
 8068 3eca E8000000 		call	_ZN8UnitTest11TestResults13OnTestFailureERKNS_11TestDetailsEPKc
 8068      00
 8069              	.LEHE440:
 8070              	.LEHB441:
 8071 3ecf E8000000 		call	__cxa_end_catch
 8071      00
 8072              	.LEHE441:
 8073 3ed4 E917FDFF 		jmp	.L692
 8073      FF
 8074              	.L774:
 8075 3ed9 4889C3   		movq	%rax, %rbx
 8076 3edc 0F1F4000 		.p2align 4,,5
 8077 3ee0 E8000000 		call	__cxa_end_catch
 8077      00
 8078 3ee5 4889DF   		movq	%rbx, %rdi
 8079              	.LEHB442:
 8080 3ee8 E8000000 		call	_Unwind_Resume
 8080      00
 8081              	.LEHE442:
 8082              	.L772:
 8083 3eed 4889C3   		movq	%rax, %rbx
 8084 3ef0 E8000000 		call	__cxa_end_catch
 8084      00
 8085 3ef5 4889DF   		movq	%rbx, %rdi
 8086              	.LEHB443:
 8087 3ef8 E8000000 		call	_Unwind_Resume
 8087      00
 8088              	.LEHE443:
 8089              	.L769:
 8090 3efd 4889C7   		movq	%rax, %rdi
 8091 3f00 E8000000 		call	__cxa_begin_catch
 8091      00
 8092              	.LEHB444:
 8093 3f05 E8000000 		call	_ZN8UnitTest11CurrentTest7DetailsEv
 8093      00
 8094 3f0a 488B30   		movq	(%rax), %rsi
 8095 3f0d BA320100 		movl	$306, %edx
 8095      00
 8096 3f12 4889DF   		movq	%rbx, %rdi
 8097 3f15 E8000000 		call	_ZN8UnitTest11TestDetailsC1ERKS0_i
 8097      00
 8098 3f1a E8000000 		call	_ZN8UnitTest11CurrentTest7ResultsEv
 8098      00
 8099 3f1f 488B38   		movq	(%rax), %rdi
 8100 3f22 BA000000 		movl	$.LC47, %edx
 8100      00
 8101 3f27 4889DE   		movq	%rbx, %rsi
 8102 3f2a E8000000 		call	_ZN8UnitTest11TestResults13OnTestFailureERKNS_11TestDetailsEPKc
 8102      00
 8103              	.LEHE444:
 8104              	.LEHB445:
 8105 3f2f E8000000 		call	__cxa_end_catch
 8105      00
 8106              	.LEHE445:
 8107 3f34 E963FCFF 		jmp	.L689
 8107      FF
 8108              	.L767:
 8109 3f39 4889C7   		movq	%rax, %rdi
 8110 3f3c 0F1F4000 		.p2align 4,,5
 8111 3f40 E8000000 		call	__cxa_begin_catch
 8111      00
 8112              		.p2align 4,,5
 8113              	.LEHB446:
 8114 3f45 E8000000 		call	_ZN8UnitTest11CurrentTest7DetailsEv
 8114      00
 8115 3f4a 488B30   		movq	(%rax), %rsi
 8116 3f4d BA310100 		movl	$305, %edx
 8116      00
 8117 3f52 4889DF   		movq	%rbx, %rdi
 8118 3f55 E8000000 		call	_ZN8UnitTest11TestDetailsC1ERKS0_i
 8118      00
 8119 3f5a E8000000 		call	_ZN8UnitTest11CurrentTest7ResultsEv
 8119      00
 8120 3f5f 488B38   		movq	(%rax), %rdi
 8121 3f62 BA000000 		movl	$.LC4, %edx
 8121      00
 8122 3f67 4889DE   		movq	%rbx, %rsi
 8123 3f6a E8000000 		call	_ZN8UnitTest11TestResults13OnTestFailureERKNS_11TestDetailsEPKc
 8123      00
 8124              	.LEHE446:
 8125              	.LEHB447:
 8126 3f6f E8000000 		call	__cxa_end_catch
 8126      00
 8127              	.LEHE447:
 8128 3f74 E9E8FBFF 		jmp	.L686
 8128      FF
 8129              	.L770:
 8130 3f79 4889C3   		movq	%rax, %rbx
 8131 3f7c 0F1F4000 		.p2align 4,,5
 8132 3f80 E8000000 		call	__cxa_end_catch
 8132      00
 8133 3f85 4889DF   		movq	%rbx, %rdi
 8134              	.LEHB448:
 8135 3f88 E8000000 		call	_Unwind_Resume
 8135      00
 8136              	.LEHE448:
 8137              	.L768:
 8138 3f8d 4889C3   		movq	%rax, %rbx
 8139 3f90 E8000000 		call	__cxa_end_catch
 8139      00
 8140 3f95 4889DF   		movq	%rbx, %rdi
 8141              	.LEHB449:
 8142 3f98 E8000000 		call	_Unwind_Resume
 8142      00
 8143              	.LEHE449:
 8144              	.L765:
 8145 3f9d 4889C7   		movq	%rax, %rdi
 8146 3fa0 E8000000 		call	__cxa_begin_catch
 8146      00
 8147              	.LEHB450:
 8148 3fa5 E8000000 		call	_ZN8UnitTest11CurrentTest7DetailsEv
 8148      00
 8149 3faa 488B30   		movq	(%rax), %rsi
 8150 3fad BA2E0100 		movl	$302, %edx
 8150      00
 8151 3fb2 4889DF   		movq	%rbx, %rdi
 8152 3fb5 E8000000 		call	_ZN8UnitTest11TestDetailsC1ERKS0_i
 8152      00
 8153 3fba E8000000 		call	_ZN8UnitTest11CurrentTest7ResultsEv
 8153      00
 8154 3fbf 488B38   		movq	(%rax), %rdi
 8155 3fc2 BA000000 		movl	$.LC46, %edx
 8155      00
 8156 3fc7 4889DE   		movq	%rbx, %rsi
 8157 3fca E8000000 		call	_ZN8UnitTest11TestResults13OnTestFailureERKNS_11TestDetailsEPKc
 8157      00
 8158              	.LEHE450:
 8159              	.LEHB451:
 8160 3fcf E8000000 		call	__cxa_end_catch
 8160      00
 8161              	.LEHE451:
 8162 3fd4 E934FBFF 		jmp	.L683
 8162      FF
 8163              	.L763:
 8164 3fd9 4889C7   		movq	%rax, %rdi
 8165 3fdc 0F1F4000 		.p2align 4,,5
 8166 3fe0 E8000000 		call	__cxa_begin_catch
 8166      00
 8167              		.p2align 4,,5
 8168              	.LEHB452:
 8169 3fe5 E8000000 		call	_ZN8UnitTest11CurrentTest7DetailsEv
 8169      00
 8170 3fea 488B30   		movq	(%rax), %rsi
 8171 3fed BA2D0100 		movl	$301, %edx
 8171      00
 8172 3ff2 4889DF   		movq	%rbx, %rdi
 8173 3ff5 E8000000 		call	_ZN8UnitTest11TestDetailsC1ERKS0_i
 8173      00
 8174 3ffa E8000000 		call	_ZN8UnitTest11CurrentTest7ResultsEv
 8174      00
 8175 3fff 488B38   		movq	(%rax), %rdi
 8176 4002 BA000000 		movl	$.LC4, %edx
 8176      00
 8177 4007 4889DE   		movq	%rbx, %rsi
 8178 400a E8000000 		call	_ZN8UnitTest11TestResults13OnTestFailureERKNS_11TestDetailsEPKc
 8178      00
 8179              	.LEHE452:
 8180              	.LEHB453:
 8181 400f E8000000 		call	__cxa_end_catch
 8181      00
 8182              	.LEHE453:
 8183 4014 E9B9FAFF 		jmp	.L680
 8183      FF
 8184              	.L766:
 8185 4019 4889C3   		movq	%rax, %rbx
 8186 401c 0F1F4000 		.p2align 4,,5
 8187 4020 E8000000 		call	__cxa_end_catch
 8187      00
 8188 4025 4889DF   		movq	%rbx, %rdi
 8189              	.LEHB454:
 8190 4028 E8000000 		call	_Unwind_Resume
 8190      00
 8191              	.LEHE454:
 8192              	.L764:
 8193 402d 4889C3   		movq	%rax, %rbx
 8194 4030 E8000000 		call	__cxa_end_catch
 8194      00
 8195 4035 4889DF   		movq	%rbx, %rdi
 8196              	.LEHB455:
 8197 4038 E8000000 		call	_Unwind_Resume
 8197      00
 8198              	.LEHE455:
 8199              	.L761:
 8200 403d 4889C7   		movq	%rax, %rdi
 8201 4040 E8000000 		call	__cxa_begin_catch
 8201      00
 8202              	.LEHB456:
 8203 4045 E8000000 		call	_ZN8UnitTest11CurrentTest7DetailsEv
 8203      00
 8204 404a 488B30   		movq	(%rax), %rsi
 8205 404d BA2A0100 		movl	$298, %edx
 8205      00
 8206 4052 4889DF   		movq	%rbx, %rdi
 8207 4055 E8000000 		call	_ZN8UnitTest11TestDetailsC1ERKS0_i
 8207      00
 8208 405a E8000000 		call	_ZN8UnitTest11CurrentTest7ResultsEv
 8208      00
 8209 405f 488B38   		movq	(%rax), %rdi
 8210 4062 BA000000 		movl	$.LC45, %edx
 8210      00
 8211 4067 4889DE   		movq	%rbx, %rsi
 8212 406a E8000000 		call	_ZN8UnitTest11TestResults13OnTestFailureERKNS_11TestDetailsEPKc
 8212      00
 8213              	.LEHE456:
 8214              	.LEHB457:
 8215 406f E8000000 		call	__cxa_end_catch
 8215      00
 8216              	.LEHE457:
 8217 4074 E905FAFF 		jmp	.L677
 8217      FF
 8218              	.L759:
 8219 4079 4889C7   		movq	%rax, %rdi
 8220 407c 0F1F4000 		.p2align 4,,5
 8221 4080 E8000000 		call	__cxa_begin_catch
 8221      00
 8222              		.p2align 4,,5
 8223              	.LEHB458:
 8224 4085 E8000000 		call	_ZN8UnitTest11CurrentTest7DetailsEv
 8224      00
 8225 408a 488B30   		movq	(%rax), %rsi
 8226 408d BA290100 		movl	$297, %edx
 8226      00
 8227 4092 4889DF   		movq	%rbx, %rdi
 8228 4095 E8000000 		call	_ZN8UnitTest11TestDetailsC1ERKS0_i
 8228      00
 8229 409a E8000000 		call	_ZN8UnitTest11CurrentTest7ResultsEv
 8229      00
 8230 409f 488B38   		movq	(%rax), %rdi
 8231 40a2 BA000000 		movl	$.LC4, %edx
 8231      00
 8232 40a7 4889DE   		movq	%rbx, %rsi
 8233 40aa E8000000 		call	_ZN8UnitTest11TestResults13OnTestFailureERKNS_11TestDetailsEPKc
 8233      00
 8234              	.LEHE458:
 8235              	.LEHB459:
 8236 40af E8000000 		call	__cxa_end_catch
 8236      00
 8237              	.LEHE459:
 8238 40b4 E98AF9FF 		jmp	.L674
 8238      FF
 8239              	.L762:
 8240 40b9 4889C3   		movq	%rax, %rbx
 8241 40bc 0F1F4000 		.p2align 4,,5
 8242 40c0 E8000000 		call	__cxa_end_catch
 8242      00
 8243 40c5 4889DF   		movq	%rbx, %rdi
 8244              	.LEHB460:
 8245 40c8 E8000000 		call	_Unwind_Resume
 8245      00
 8246              	.LEHE460:
 8247              	.L760:
 8248 40cd 4889C3   		movq	%rax, %rbx
 8249 40d0 E8000000 		call	__cxa_end_catch
 8249      00
 8250 40d5 4889DF   		movq	%rbx, %rdi
 8251              	.LEHB461:
 8252 40d8 E8000000 		call	_Unwind_Resume
 8252      00
 8253              	.LEHE461:
 8254              	.L757:
 8255 40dd 4889C7   		movq	%rax, %rdi
 8256 40e0 E8000000 		call	__cxa_begin_catch
 8256      00
 8257              	.LEHB462:
 8258 40e5 E8000000 		call	_ZN8UnitTest11CurrentTest7DetailsEv
 8258      00
 8259 40ea 488B30   		movq	(%rax), %rsi
 8260 40ed BA250100 		movl	$293, %edx
 8260      00
 8261 40f2 4889DF   		movq	%rbx, %rdi
 8262 40f5 E8000000 		call	_ZN8UnitTest11TestDetailsC1ERKS0_i
 8262      00
 8263 40fa E8000000 		call	_ZN8UnitTest11CurrentTest7ResultsEv
 8263      00
 8264 40ff 488B38   		movq	(%rax), %rdi
 8265 4102 BA000000 		movl	$.LC44, %edx
 8265      00
 8266 4107 4889DE   		movq	%rbx, %rsi
 8267 410a E8000000 		call	_ZN8UnitTest11TestResults13OnTestFailureERKNS_11TestDetailsEPKc
 8267      00
 8268              	.LEHE462:
 8269              	.LEHB463:
 8270 410f E8000000 		call	__cxa_end_catch
 8270      00
 8271              	.LEHE463:
 8272 4114 E9E0F8FF 		jmp	.L671
 8272      FF
 8273              	.L755:
 8274 4119 4889C7   		movq	%rax, %rdi
 8275 411c 0F1F4000 		.p2align 4,,5
 8276 4120 E8000000 		call	__cxa_begin_catch
 8276      00
 8277              		.p2align 4,,5
 8278              	.LEHB464:
 8279 4125 E8000000 		call	_ZN8UnitTest11CurrentTest7DetailsEv
 8279      00
 8280 412a 488B30   		movq	(%rax), %rsi
 8281 412d BA240100 		movl	$292, %edx
 8281      00
 8282 4132 4889DF   		movq	%rbx, %rdi
 8283 4135 E8000000 		call	_ZN8UnitTest11TestDetailsC1ERKS0_i
 8283      00
 8284 413a E8000000 		call	_ZN8UnitTest11CurrentTest7ResultsEv
 8284      00
 8285 413f 488B38   		movq	(%rax), %rdi
 8286 4142 BA000000 		movl	$.LC43, %edx
 8286      00
 8287 4147 4889DE   		movq	%rbx, %rsi
 8288 414a E8000000 		call	_ZN8UnitTest11TestResults13OnTestFailureERKNS_11TestDetailsEPKc
 8288      00
 8289              	.LEHE464:
 8290              	.LEHB465:
 8291 414f E8000000 		call	__cxa_end_catch
 8291      00
 8292              	.LEHE465:
 8293 4154 E959F8FF 		jmp	.L668
 8293      FF
 8294              	.L758:
 8295 4159 4889C3   		movq	%rax, %rbx
 8296 415c 0F1F4000 		.p2align 4,,5
 8297 4160 E8000000 		call	__cxa_end_catch
 8297      00
 8298 4165 4889DF   		movq	%rbx, %rdi
 8299              	.LEHB466:
 8300 4168 E8000000 		call	_Unwind_Resume
 8300      00
 8301              	.LEHE466:
 8302              	.L756:
 8303 416d 4889C3   		movq	%rax, %rbx
 8304 4170 E8000000 		call	__cxa_end_catch
 8304      00
 8305 4175 4889DF   		movq	%rbx, %rdi
 8306              	.LEHB467:
 8307 4178 E8000000 		call	_Unwind_Resume
 8307      00
 8308              	.LEHE467:
 8309              	.L753:
 8310 417d 4889C7   		movq	%rax, %rdi
 8311 4180 E8000000 		call	__cxa_begin_catch
 8311      00
 8312              	.LEHB468:
 8313 4185 E8000000 		call	_ZN8UnitTest11CurrentTest7DetailsEv
 8313      00
 8314 418a 488B30   		movq	(%rax), %rsi
 8315 418d BA230100 		movl	$291, %edx
 8315      00
 8316 4192 4889DF   		movq	%rbx, %rdi
 8317 4195 E8000000 		call	_ZN8UnitTest11TestDetailsC1ERKS0_i
 8317      00
 8318 419a E8000000 		call	_ZN8UnitTest11CurrentTest7ResultsEv
 8318      00
 8319 419f 488B38   		movq	(%rax), %rdi
 8320 41a2 BA000000 		movl	$.LC42, %edx
 8320      00
 8321 41a7 4889DE   		movq	%rbx, %rsi
 8322 41aa E8000000 		call	_ZN8UnitTest11TestResults13OnTestFailureERKNS_11TestDetailsEPKc
 8322      00
 8323              	.LEHE468:
 8324              	.LEHB469:
 8325 41af E8000000 		call	__cxa_end_catch
 8325      00
 8326              	.LEHE469:
 8327 41b4 E9B2F7FF 		jmp	.L665
 8327      FF
 8328              	.L751:
 8329 41b9 4889C7   		movq	%rax, %rdi
 8330 41bc 0F1F4000 		.p2align 4,,5
 8331 41c0 E8000000 		call	__cxa_begin_catch
 8331      00
 8332              		.p2align 4,,5
 8333              	.LEHB470:
 8334 41c5 E8000000 		call	_ZN8UnitTest11CurrentTest7DetailsEv
 8334      00
 8335 41ca 488B30   		movq	(%rax), %rsi
 8336 41cd BA220100 		movl	$290, %edx
 8336      00
 8337 41d2 4889DF   		movq	%rbx, %rdi
 8338 41d5 E8000000 		call	_ZN8UnitTest11TestDetailsC1ERKS0_i
 8338      00
 8339 41da E8000000 		call	_ZN8UnitTest11CurrentTest7ResultsEv
 8339      00
 8340 41df 488B38   		movq	(%rax), %rdi
 8341 41e2 BA000000 		movl	$.LC41, %edx
 8341      00
 8342 41e7 4889DE   		movq	%rbx, %rsi
 8343 41ea E8000000 		call	_ZN8UnitTest11TestResults13OnTestFailureERKNS_11TestDetailsEPKc
 8343      00
 8344              	.LEHE470:
 8345              	.LEHB471:
 8346 41ef E8000000 		call	__cxa_end_catch
 8346      00
 8347              	.LEHE471:
 8348 41f4 E92BF7FF 		jmp	.L662
 8348      FF
 8349              	.L754:
 8350 41f9 4889C3   		movq	%rax, %rbx
 8351 41fc 0F1F4000 		.p2align 4,,5
 8352 4200 E8000000 		call	__cxa_end_catch
 8352      00
 8353 4205 4889DF   		movq	%rbx, %rdi
 8354              	.LEHB472:
 8355 4208 E8000000 		call	_Unwind_Resume
 8355      00
 8356              	.LEHE472:
 8357              	.L752:
 8358 420d 4889C3   		movq	%rax, %rbx
 8359 4210 E8000000 		call	__cxa_end_catch
 8359      00
 8360 4215 4889DF   		movq	%rbx, %rdi
 8361              	.LEHB473:
 8362 4218 E8000000 		call	_Unwind_Resume
 8362      00
 8363              	.LEHE473:
 8364              	.L749:
 8365 421d 4889C7   		movq	%rax, %rdi
 8366 4220 E8000000 		call	__cxa_begin_catch
 8366      00
 8367              	.LEHB474:
 8368 4225 E8000000 		call	_ZN8UnitTest11CurrentTest7DetailsEv
 8368      00
 8369 422a 488B30   		movq	(%rax), %rsi
 8370 422d BA210100 		movl	$289, %edx
 8370      00
 8371 4232 4889DF   		movq	%rbx, %rdi
 8372 4235 E8000000 		call	_ZN8UnitTest11TestDetailsC1ERKS0_i
 8372      00
 8373 423a E8000000 		call	_ZN8UnitTest11CurrentTest7ResultsEv
 8373      00
 8374 423f 488B38   		movq	(%rax), %rdi
 8375 4242 BA000000 		movl	$.LC40, %edx
 8375      00
 8376 4247 4889DE   		movq	%rbx, %rsi
 8377 424a E8000000 		call	_ZN8UnitTest11TestResults13OnTestFailureERKNS_11TestDetailsEPKc
 8377      00
 8378              	.LEHE474:
 8379              	.LEHB475:
 8380 424f E8000000 		call	__cxa_end_catch
 8380      00
 8381              	.LEHE475:
 8382 4254 E984F6FF 		jmp	.L659
 8382      FF
 8383              	.L747:
 8384 4259 4889C7   		movq	%rax, %rdi
 8385 425c 0F1F4000 		.p2align 4,,5
 8386 4260 E8000000 		call	__cxa_begin_catch
 8386      00
 8387              		.p2align 4,,5
 8388              	.LEHB476:
 8389 4265 E8000000 		call	_ZN8UnitTest11CurrentTest7DetailsEv
 8389      00
 8390 426a 488B30   		movq	(%rax), %rsi
 8391 426d BA200100 		movl	$288, %edx
 8391      00
 8392 4272 4889DF   		movq	%rbx, %rdi
 8393 4275 E8000000 		call	_ZN8UnitTest11TestDetailsC1ERKS0_i
 8393      00
 8394 427a E8000000 		call	_ZN8UnitTest11CurrentTest7ResultsEv
 8394      00
 8395 427f 488B38   		movq	(%rax), %rdi
 8396 4282 BA000000 		movl	$.LC39, %edx
 8396      00
 8397 4287 4889DE   		movq	%rbx, %rsi
 8398 428a E8000000 		call	_ZN8UnitTest11TestResults13OnTestFailureERKNS_11TestDetailsEPKc
 8398      00
 8399              	.LEHE476:
 8400              	.LEHB477:
 8401 428f E8000000 		call	__cxa_end_catch
 8401      00
 8402              	.LEHE477:
 8403 4294 E9FDF5FF 		jmp	.L656
 8403      FF
 8404              	.L750:
 8405 4299 4889C3   		movq	%rax, %rbx
 8406 429c 0F1F4000 		.p2align 4,,5
 8407 42a0 E8000000 		call	__cxa_end_catch
 8407      00
 8408 42a5 4889DF   		movq	%rbx, %rdi
 8409              	.LEHB478:
 8410 42a8 E8000000 		call	_Unwind_Resume
 8410      00
 8411              	.LEHE478:
 8412              	.L748:
 8413 42ad 4889C3   		movq	%rax, %rbx
 8414 42b0 E8000000 		call	__cxa_end_catch
 8414      00
 8415 42b5 4889DF   		movq	%rbx, %rdi
 8416              	.LEHB479:
 8417 42b8 E8000000 		call	_Unwind_Resume
 8417      00
 8418              	.LEHE479:
 8419              	.L745:
 8420 42bd 4889C7   		movq	%rax, %rdi
 8421 42c0 E8000000 		call	__cxa_begin_catch
 8421      00
 8422              	.LEHB480:
 8423 42c5 E8000000 		call	_ZN8UnitTest11CurrentTest7DetailsEv
 8423      00
 8424 42ca 488B30   		movq	(%rax), %rsi
 8425 42cd BA1F0100 		movl	$287, %edx
 8425      00
 8426 42d2 4889DF   		movq	%rbx, %rdi
 8427 42d5 E8000000 		call	_ZN8UnitTest11TestDetailsC1ERKS0_i
 8427      00
 8428 42da E8000000 		call	_ZN8UnitTest11CurrentTest7ResultsEv
 8428      00
 8429 42df 488B38   		movq	(%rax), %rdi
 8430 42e2 BA000000 		movl	$.LC38, %edx
 8430      00
 8431 42e7 4889DE   		movq	%rbx, %rsi
 8432 42ea E8000000 		call	_ZN8UnitTest11TestResults13OnTestFailureERKNS_11TestDetailsEPKc
 8432      00
 8433              	.LEHE480:
 8434              	.LEHB481:
 8435 42ef E8000000 		call	__cxa_end_catch
 8435      00
 8436              	.LEHE481:
 8437 42f4 E956F5FF 		jmp	.L653
 8437      FF
 8438              	.L743:
 8439 42f9 4889C7   		movq	%rax, %rdi
 8440 42fc 0F1F4000 		.p2align 4,,5
 8441 4300 E8000000 		call	__cxa_begin_catch
 8441      00
 8442              		.p2align 4,,5
 8443              	.LEHB482:
 8444 4305 E8000000 		call	_ZN8UnitTest11CurrentTest7DetailsEv
 8444      00
 8445 430a 488B30   		movq	(%rax), %rsi
 8446 430d BA1E0100 		movl	$286, %edx
 8446      00
 8447 4312 4889DF   		movq	%rbx, %rdi
 8448 4315 E8000000 		call	_ZN8UnitTest11TestDetailsC1ERKS0_i
 8448      00
 8449 431a E8000000 		call	_ZN8UnitTest11CurrentTest7ResultsEv
 8449      00
 8450 431f 488B38   		movq	(%rax), %rdi
 8451 4322 BA000000 		movl	$.LC37, %edx
 8451      00
 8452 4327 4889DE   		movq	%rbx, %rsi
 8453 432a E8000000 		call	_ZN8UnitTest11TestResults13OnTestFailureERKNS_11TestDetailsEPKc
 8453      00
 8454              	.LEHE482:
 8455              	.LEHB483:
 8456 432f E8000000 		call	__cxa_end_catch
 8456      00
 8457              	.LEHE483:
 8458 4334 E9CFF4FF 		jmp	.L650
 8458      FF
 8459              	.L746:
 8460 4339 4889C3   		movq	%rax, %rbx
 8461 433c 0F1F4000 		.p2align 4,,5
 8462 4340 E8000000 		call	__cxa_end_catch
 8462      00
 8463 4345 4889DF   		movq	%rbx, %rdi
 8464              	.LEHB484:
 8465 4348 E8000000 		call	_Unwind_Resume
 8465      00
 8466              	.LEHE484:
 8467              	.L744:
 8468 434d 4889C3   		movq	%rax, %rbx
 8469 4350 E8000000 		call	__cxa_end_catch
 8469      00
 8470 4355 4889DF   		movq	%rbx, %rdi
 8471              	.LEHB485:
 8472 4358 E8000000 		call	_Unwind_Resume
 8472      00
 8473              	.LEHE485:
 8474              	.L741:
 8475 435d 4889C7   		movq	%rax, %rdi
 8476 4360 E8000000 		call	__cxa_begin_catch
 8476      00
 8477              	.LEHB486:
 8478 4365 E8000000 		call	_ZN8UnitTest11CurrentTest7DetailsEv
 8478      00
 8479 436a 488B30   		movq	(%rax), %rsi
 8480 436d BA1B0100 		movl	$283, %edx
 8480      00
 8481 4372 4889DF   		movq	%rbx, %rdi
 8482 4375 E8000000 		call	_ZN8UnitTest11TestDetailsC1ERKS0_i
 8482      00
 8483 437a E8000000 		call	_ZN8UnitTest11CurrentTest7ResultsEv
 8483      00
 8484 437f 488B38   		movq	(%rax), %rdi
 8485 4382 BA000000 		movl	$.LC36, %edx
 8485      00
 8486 4387 4889DE   		movq	%rbx, %rsi
 8487 438a E8000000 		call	_ZN8UnitTest11TestResults13OnTestFailureERKNS_11TestDetailsEPKc
 8487      00
 8488              	.LEHE486:
 8489              	.LEHB487:
 8490 438f E8000000 		call	__cxa_end_catch
 8490      00
 8491              	.LEHE487:
 8492 4394 E929F4FF 		jmp	.L647
 8492      FF
 8493              	.L739:
 8494 4399 4889C7   		movq	%rax, %rdi
 8495 439c 0F1F4000 		.p2align 4,,5
 8496 43a0 E8000000 		call	__cxa_begin_catch
 8496      00
 8497              		.p2align 4,,5
 8498              	.LEHB488:
 8499 43a5 E8000000 		call	_ZN8UnitTest11CurrentTest7DetailsEv
 8499      00
 8500 43aa 488B30   		movq	(%rax), %rsi
 8501 43ad BA1A0100 		movl	$282, %edx
 8501      00
 8502 43b2 4889DF   		movq	%rbx, %rdi
 8503 43b5 E8000000 		call	_ZN8UnitTest11TestDetailsC1ERKS0_i
 8503      00
 8504 43ba E8000000 		call	_ZN8UnitTest11CurrentTest7ResultsEv
 8504      00
 8505 43bf 488B38   		movq	(%rax), %rdi
 8506 43c2 BA000000 		movl	$.LC7, %edx
 8506      00
 8507 43c7 4889DE   		movq	%rbx, %rsi
 8508 43ca E8000000 		call	_ZN8UnitTest11TestResults13OnTestFailureERKNS_11TestDetailsEPKc
 8508      00
 8509              	.LEHE488:
 8510              	.LEHB489:
 8511 43cf E8000000 		call	__cxa_end_catch
 8511      00
 8512              	.LEHE489:
 8513 43d4 E9AEF3FF 		jmp	.L644
 8513      FF
 8514              	.L742:
 8515 43d9 4889C3   		movq	%rax, %rbx
 8516 43dc 0F1F4000 		.p2align 4,,5
 8517 43e0 E8000000 		call	__cxa_end_catch
 8517      00
 8518 43e5 4889DF   		movq	%rbx, %rdi
 8519              	.LEHB490:
 8520 43e8 E8000000 		call	_Unwind_Resume
 8520      00
 8521              	.LEHE490:
 8522              	.L740:
 8523 43ed 4889C3   		movq	%rax, %rbx
 8524 43f0 E8000000 		call	__cxa_end_catch
 8524      00
 8525 43f5 4889DF   		movq	%rbx, %rdi
 8526              	.LEHB491:
 8527 43f8 E8000000 		call	_Unwind_Resume
 8527      00
 8528              	.LEHE491:
 8529              	.L737:
 8530 43fd 4889C7   		movq	%rax, %rdi
 8531 4400 E8000000 		call	__cxa_begin_catch
 8531      00
 8532              	.LEHB492:
 8533 4405 E8000000 		call	_ZN8UnitTest11CurrentTest7DetailsEv
 8533      00
 8534 440a 488B30   		movq	(%rax), %rsi
 8535 440d BA190100 		movl	$281, %edx
 8535      00
 8536 4412 4889DF   		movq	%rbx, %rdi
 8537 4415 E8000000 		call	_ZN8UnitTest11TestDetailsC1ERKS0_i
 8537      00
 8538 441a E8000000 		call	_ZN8UnitTest11CurrentTest7ResultsEv
 8538      00
 8539 441f 488B38   		movq	(%rax), %rdi
 8540 4422 BA000000 		movl	$.LC35, %edx
 8540      00
 8541 4427 4889DE   		movq	%rbx, %rsi
 8542 442a E8000000 		call	_ZN8UnitTest11TestResults13OnTestFailureERKNS_11TestDetailsEPKc
 8542      00
 8543              	.LEHE492:
 8544              	.LEHB493:
 8545 442f E8000000 		call	__cxa_end_catch
 8545      00
 8546              	.LEHE493:
 8547 4434 E916F3FF 		jmp	.L641
 8547      FF
 8548              	.L735:
 8549 4439 4889C7   		movq	%rax, %rdi
 8550 443c 0F1F4000 		.p2align 4,,5
 8551 4440 E8000000 		call	__cxa_begin_catch
 8551      00
 8552              		.p2align 4,,5
 8553              	.LEHB494:
 8554 4445 E8000000 		call	_ZN8UnitTest11CurrentTest7DetailsEv
 8554      00
 8555 444a 488B30   		movq	(%rax), %rsi
 8556 444d BA180100 		movl	$280, %edx
 8556      00
 8557 4452 4889DF   		movq	%rbx, %rdi
 8558 4455 E8000000 		call	_ZN8UnitTest11TestDetailsC1ERKS0_i
 8558      00
 8559 445a E8000000 		call	_ZN8UnitTest11CurrentTest7ResultsEv
 8559      00
 8560 445f 488B38   		movq	(%rax), %rdi
 8561 4462 BA000000 		movl	$.LC34, %edx
 8561      00
 8562 4467 4889DE   		movq	%rbx, %rsi
 8563 446a E8000000 		call	_ZN8UnitTest11TestResults13OnTestFailureERKNS_11TestDetailsEPKc
 8563      00
 8564              	.LEHE494:
 8565              	.LEHB495:
 8566 446f E8000000 		call	__cxa_end_catch
 8566      00
 8567              	.LEHE495:
 8568 4474 E99EF2FF 		jmp	.L638
 8568      FF
 8569              	.L738:
 8570 4479 4889C3   		movq	%rax, %rbx
 8571 447c 0F1F4000 		.p2align 4,,5
 8572 4480 E8000000 		call	__cxa_end_catch
 8572      00
 8573 4485 4889DF   		movq	%rbx, %rdi
 8574              	.LEHB496:
 8575 4488 E8000000 		call	_Unwind_Resume
 8575      00
 8576              	.LEHE496:
 8577              	.L736:
 8578 448d 4889C3   		movq	%rax, %rbx
 8579 4490 E8000000 		call	__cxa_end_catch
 8579      00
 8580 4495 4889DF   		movq	%rbx, %rdi
 8581              	.LEHB497:
 8582 4498 E8000000 		call	_Unwind_Resume
 8582      00
 8583              	.LEHE497:
 8584              	.L733:
 8585 449d 4889C7   		movq	%rax, %rdi
 8586 44a0 E8000000 		call	__cxa_begin_catch
 8586      00
 8587              	.LEHB498:
 8588 44a5 E8000000 		call	_ZN8UnitTest11CurrentTest7DetailsEv
 8588      00
 8589 44aa 488B30   		movq	(%rax), %rsi
 8590 44ad BA130100 		movl	$275, %edx
 8590      00
 8591 44b2 4889DF   		movq	%rbx, %rdi
 8592 44b5 E8000000 		call	_ZN8UnitTest11TestDetailsC1ERKS0_i
 8592      00
 8593 44ba E8000000 		call	_ZN8UnitTest11CurrentTest7ResultsEv
 8593      00
 8594 44bf 488B38   		movq	(%rax), %rdi
 8595 44c2 BA000000 		movl	$.LC24, %edx
 8595      00
 8596 44c7 4889DE   		movq	%rbx, %rsi
 8597 44ca E8000000 		call	_ZN8UnitTest11TestResults13OnTestFailureERKNS_11TestDetailsEPKc
 8597      00
 8598              	.LEHE498:
 8599              	.LEHB499:
 8600 44cf E8000000 		call	__cxa_end_catch
 8600      00
 8601              	.LEHE499:
 8602 44d4 E9F1F1FF 		jmp	.L635
 8602      FF
 8603              	.L731:
 8604 44d9 4889C7   		movq	%rax, %rdi
 8605 44dc 0F1F4000 		.p2align 4,,5
 8606 44e0 E8000000 		call	__cxa_begin_catch
 8606      00
 8607              		.p2align 4,,5
 8608              	.LEHB500:
 8609 44e5 E8000000 		call	_ZN8UnitTest11CurrentTest7DetailsEv
 8609      00
 8610 44ea 488B30   		movq	(%rax), %rsi
 8611 44ed BA120100 		movl	$274, %edx
 8611      00
 8612 44f2 4889DF   		movq	%rbx, %rdi
 8613 44f5 E8000000 		call	_ZN8UnitTest11TestDetailsC1ERKS0_i
 8613      00
 8614 44fa E8000000 		call	_ZN8UnitTest11CurrentTest7ResultsEv
 8614      00
 8615 44ff 488B38   		movq	(%rax), %rdi
 8616 4502 BA000000 		movl	$.LC4, %edx
 8616      00
 8617 4507 4889DE   		movq	%rbx, %rsi
 8618 450a E8000000 		call	_ZN8UnitTest11TestResults13OnTestFailureERKNS_11TestDetailsEPKc
 8618      00
 8619              	.LEHE500:
 8620              	.LEHB501:
 8621 450f E8000000 		call	__cxa_end_catch
 8621      00
 8622              	.LEHE501:
 8623 4514 E976F1FF 		jmp	.L632
 8623      FF
 8624              	.L734:
 8625 4519 4889C3   		movq	%rax, %rbx
 8626 451c 0F1F4000 		.p2align 4,,5
 8627 4520 E8000000 		call	__cxa_end_catch
 8627      00
 8628 4525 4889DF   		movq	%rbx, %rdi
 8629              	.LEHB502:
 8630 4528 E8000000 		call	_Unwind_Resume
 8630      00
 8631              	.LEHE502:
 8632              	.L732:
 8633 452d 4889C3   		movq	%rax, %rbx
 8634 4530 E8000000 		call	__cxa_end_catch
 8634      00
 8635 4535 4889DF   		movq	%rbx, %rdi
 8636              	.LEHB503:
 8637 4538 E8000000 		call	_Unwind_Resume
 8637      00
 8638              	.LEHE503:
 8639              	.L729:
 8640 453d 4889C7   		movq	%rax, %rdi
 8641 4540 E8000000 		call	__cxa_begin_catch
 8641      00
 8642              	.LEHB504:
 8643 4545 E8000000 		call	_ZN8UnitTest11CurrentTest7DetailsEv
 8643      00
 8644 454a 488B30   		movq	(%rax), %rsi
 8645 454d BA0E0100 		movl	$270, %edx
 8645      00
 8646 4552 4889DF   		movq	%rbx, %rdi
 8647 4555 E8000000 		call	_ZN8UnitTest11TestDetailsC1ERKS0_i
 8647      00
 8648 455a E8000000 		call	_ZN8UnitTest11CurrentTest7ResultsEv
 8648      00
 8649 455f 488B38   		movq	(%rax), %rdi
 8650 4562 BA000000 		movl	$.LC22, %edx
 8650      00
 8651 4567 4889DE   		movq	%rbx, %rsi
 8652 456a E8000000 		call	_ZN8UnitTest11TestResults13OnTestFailureERKNS_11TestDetailsEPKc
 8652      00
 8653              	.LEHE504:
 8654              	.LEHB505:
 8655 456f E8000000 		call	__cxa_end_catch
 8655      00
 8656              	.LEHE505:
 8657 4574 E9CCF0FF 		jmp	.L629
 8657      FF
 8658              	.L727:
 8659 4579 4889C7   		movq	%rax, %rdi
 8660 457c 0F1F4000 		.p2align 4,,5
 8661 4580 E8000000 		call	__cxa_begin_catch
 8661      00
 8662              		.p2align 4,,5
 8663              	.LEHB506:
 8664 4585 E8000000 		call	_ZN8UnitTest11CurrentTest7DetailsEv
 8664      00
 8665 458a 488B30   		movq	(%rax), %rsi
 8666 458d BA0D0100 		movl	$269, %edx
 8666      00
 8667 4592 4889DF   		movq	%rbx, %rdi
 8668 4595 E8000000 		call	_ZN8UnitTest11TestDetailsC1ERKS0_i
 8668      00
 8669 459a E8000000 		call	_ZN8UnitTest11CurrentTest7ResultsEv
 8669      00
 8670 459f 488B38   		movq	(%rax), %rdi
 8671 45a2 BA000000 		movl	$.LC33, %edx
 8671      00
 8672 45a7 4889DE   		movq	%rbx, %rsi
 8673 45aa E8000000 		call	_ZN8UnitTest11TestResults13OnTestFailureERKNS_11TestDetailsEPKc
 8673      00
 8674              	.LEHE506:
 8675              	.LEHB507:
 8676 45af E8000000 		call	__cxa_end_catch
 8676      00
 8677              	.LEHE507:
 8678 45b4 E951F0FF 		jmp	.L626
 8678      FF
 8679              	.L730:
 8680 45b9 4889C3   		movq	%rax, %rbx
 8681 45bc 0F1F4000 		.p2align 4,,5
 8682 45c0 E8000000 		call	__cxa_end_catch
 8682      00
 8683 45c5 4889DF   		movq	%rbx, %rdi
 8684              	.LEHB508:
 8685 45c8 E8000000 		call	_Unwind_Resume
 8685      00
 8686              	.LEHE508:
 8687              	.L728:
 8688 45cd 4889C3   		movq	%rax, %rbx
 8689 45d0 E8000000 		call	__cxa_end_catch
 8689      00
 8690 45d5 4889DF   		movq	%rbx, %rdi
 8691              	.LEHB509:
 8692 45d8 E8000000 		call	_Unwind_Resume
 8692      00
 8693              	.LEHE509:
 8694              	.L725:
 8695 45dd 4889C7   		movq	%rax, %rdi
 8696 45e0 E8000000 		call	__cxa_begin_catch
 8696      00
 8697              	.LEHB510:
 8698 45e5 E8000000 		call	_ZN8UnitTest11CurrentTest7DetailsEv
 8698      00
 8699 45ea 488B30   		movq	(%rax), %rsi
 8700 45ed BA0C0100 		movl	$268, %edx
 8700      00
 8701 45f2 4889DF   		movq	%rbx, %rdi
 8702 45f5 E8000000 		call	_ZN8UnitTest11TestDetailsC1ERKS0_i
 8702      00
 8703 45fa E8000000 		call	_ZN8UnitTest11CurrentTest7ResultsEv
 8703      00
 8704 45ff 488B38   		movq	(%rax), %rdi
 8705 4602 BA000000 		movl	$.LC32, %edx
 8705      00
 8706 4607 4889DE   		movq	%rbx, %rsi
 8707 460a E8000000 		call	_ZN8UnitTest11TestResults13OnTestFailureERKNS_11TestDetailsEPKc
 8707      00
 8708              	.LEHE510:
 8709              	.LEHB511:
 8710 460f E8000000 		call	__cxa_end_catch
 8710      00
 8711              	.LEHE511:
 8712 4614 E9C2EFFF 		jmp	.L623
 8712      FF
 8713              	.L723:
 8714 4619 4889C7   		movq	%rax, %rdi
 8715 461c 0F1F4000 		.p2align 4,,5
 8716 4620 E8000000 		call	__cxa_begin_catch
 8716      00
 8717              		.p2align 4,,5
 8718              	.LEHB512:
 8719 4625 E8000000 		call	_ZN8UnitTest11CurrentTest7DetailsEv
 8719      00
 8720 462a 488B30   		movq	(%rax), %rsi
 8721 462d BA0B0100 		movl	$267, %edx
 8721      00
 8722 4632 4889DF   		movq	%rbx, %rdi
 8723 4635 E8000000 		call	_ZN8UnitTest11TestDetailsC1ERKS0_i
 8723      00
 8724 463a E8000000 		call	_ZN8UnitTest11CurrentTest7ResultsEv
 8724      00
 8725 463f 488B38   		movq	(%rax), %rdi
 8726 4642 BA000000 		movl	$.LC5, %edx
 8726      00
 8727 4647 4889DE   		movq	%rbx, %rsi
 8728 464a E8000000 		call	_ZN8UnitTest11TestResults13OnTestFailureERKNS_11TestDetailsEPKc
 8728      00
 8729              	.LEHE512:
 8730              	.LEHB513:
 8731 464f E8000000 		call	__cxa_end_catch
 8731      00
 8732              	.LEHE513:
 8733 4654 E953EFFF 		jmp	.L620
 8733      FF
 8734              	.L726:
 8735 4659 4889C3   		movq	%rax, %rbx
 8736 465c 0F1F4000 		.p2align 4,,5
 8737 4660 E8000000 		call	__cxa_end_catch
 8737      00
 8738 4665 4889DF   		movq	%rbx, %rdi
 8739              	.LEHB514:
 8740 4668 E8000000 		call	_Unwind_Resume
 8740      00
 8741              	.LEHE514:
 8742              	.L724:
 8743 466d 4889C3   		movq	%rax, %rbx
 8744 4670 E8000000 		call	__cxa_end_catch
 8744      00
 8745 4675 4889DF   		movq	%rbx, %rdi
 8746              	.LEHB515:
 8747 4678 E8000000 		call	_Unwind_Resume
 8747      00
 8748              	.LEHE515:
 8749              	.L721:
 8750 467d 4889C7   		movq	%rax, %rdi
 8751 4680 E8000000 		call	__cxa_begin_catch
 8751      00
 8752              	.LEHB516:
 8753 4685 E8000000 		call	_ZN8UnitTest11CurrentTest7DetailsEv
 8753      00
 8754 468a 488B30   		movq	(%rax), %rsi
 8755 468d BA060100 		movl	$262, %edx
 8755      00
 8756 4692 4889DF   		movq	%rbx, %rdi
 8757 4695 E8000000 		call	_ZN8UnitTest11TestDetailsC1ERKS0_i
 8757      00
 8758 469a E8000000 		call	_ZN8UnitTest11CurrentTest7ResultsEv
 8758      00
 8759 469f 488B38   		movq	(%rax), %rdi
 8760 46a2 BA000000 		movl	$.LC31, %edx
 8760      00
 8761 46a7 4889DE   		movq	%rbx, %rsi
 8762 46aa E8000000 		call	_ZN8UnitTest11TestResults13OnTestFailureERKNS_11TestDetailsEPKc
 8762      00
 8763              	.LEHE516:
 8764              	.LEHB517:
 8765 46af E8000000 		call	__cxa_end_catch
 8765      00
 8766              	.LEHE517:
 8767 46b4 E9A6EEFF 		jmp	.L617
 8767      FF
 8768              	.L719:
 8769 46b9 4889C7   		movq	%rax, %rdi
 8770 46bc 0F1F4000 		.p2align 4,,5
 8771 46c0 E8000000 		call	__cxa_begin_catch
 8771      00
 8772              		.p2align 4,,5
 8773              	.LEHB518:
 8774 46c5 E8000000 		call	_ZN8UnitTest11CurrentTest7DetailsEv
 8774      00
 8775 46ca 488B30   		movq	(%rax), %rsi
 8776 46cd BA050100 		movl	$261, %edx
 8776      00
 8777 46d2 4889DF   		movq	%rbx, %rdi
 8778 46d5 E8000000 		call	_ZN8UnitTest11TestDetailsC1ERKS0_i
 8778      00
 8779 46da E8000000 		call	_ZN8UnitTest11CurrentTest7ResultsEv
 8779      00
 8780 46df 488B38   		movq	(%rax), %rdi
 8781 46e2 BA000000 		movl	$.LC4, %edx
 8781      00
 8782 46e7 4889DE   		movq	%rbx, %rsi
 8783 46ea E8000000 		call	_ZN8UnitTest11TestResults13OnTestFailureERKNS_11TestDetailsEPKc
 8783      00
 8784              	.LEHE518:
 8785              	.LEHB519:
 8786 46ef E8000000 		call	__cxa_end_catch
 8786      00
 8787              	.LEHE519:
 8788 46f4 E91FEEFF 		jmp	.L614
 8788      FF
 8789              	.L722:
 8790 46f9 4889C3   		movq	%rax, %rbx
 8791 46fc 0F1F4000 		.p2align 4,,5
 8792 4700 E8000000 		call	__cxa_end_catch
 8792      00
 8793 4705 4889DF   		movq	%rbx, %rdi
 8794              	.LEHB520:
 8795 4708 E8000000 		call	_Unwind_Resume
 8795      00
 8796              	.LEHE520:
 8797              	.L720:
 8798 470d 4889C3   		movq	%rax, %rbx
 8799 4710 E8000000 		call	__cxa_end_catch
 8799      00
 8800 4715 4889DF   		movq	%rbx, %rdi
 8801              	.LEHB521:
 8802 4718 E8000000 		call	_Unwind_Resume
 8802      00
 8803              	.LEHE521:
 8804              	.L717:
 8805 471d 4889C7   		movq	%rax, %rdi
 8806 4720 E8000000 		call	__cxa_begin_catch
 8806      00
 8807              	.LEHB522:
 8808 4725 E8000000 		call	_ZN8UnitTest11CurrentTest7DetailsEv
 8808      00
 8809 472a 488B30   		movq	(%rax), %rsi
 8810 472d BA010100 		movl	$257, %edx
 8810      00
 8811 4732 4889DF   		movq	%rbx, %rdi
 8812 4735 E8000000 		call	_ZN8UnitTest11TestDetailsC1ERKS0_i
 8812      00
 8813 473a E8000000 		call	_ZN8UnitTest11CurrentTest7ResultsEv
 8813      00
 8814 473f 488B38   		movq	(%rax), %rdi
 8815 4742 BA000000 		movl	$.LC30, %edx
 8815      00
 8816 4747 4889DE   		movq	%rbx, %rsi
 8817 474a E8000000 		call	_ZN8UnitTest11TestResults13OnTestFailureERKNS_11TestDetailsEPKc
 8817      00
 8818              	.LEHE522:
 8819              	.LEHB523:
 8820 474f E8000000 		call	__cxa_end_catch
 8820      00
 8821              	.LEHE523:
 8822 4754 E960EDFF 		jmp	.L611
 8822      FF
 8823              	.L715:
 8824 4759 4889C7   		movq	%rax, %rdi
 8825 475c 0F1F4000 		.p2align 4,,5
 8826 4760 E8000000 		call	__cxa_begin_catch
 8826      00
 8827              		.p2align 4,,5
 8828              	.LEHB524:
 8829 4765 E8000000 		call	_ZN8UnitTest11CurrentTest7DetailsEv
 8829      00
 8830 476a 488B30   		movq	(%rax), %rsi
 8831 476d BA000100 		movl	$256, %edx
 8831      00
 8832 4772 4889DF   		movq	%rbx, %rdi
 8833 4775 E8000000 		call	_ZN8UnitTest11TestDetailsC1ERKS0_i
 8833      00
 8834 477a E8000000 		call	_ZN8UnitTest11CurrentTest7ResultsEv
 8834      00
 8835 477f 488B38   		movq	(%rax), %rdi
 8836 4782 BA000000 		movl	$.LC4, %edx
 8836      00
 8837 4787 4889DE   		movq	%rbx, %rsi
 8838 478a E8000000 		call	_ZN8UnitTest11TestResults13OnTestFailureERKNS_11TestDetailsEPKc
 8838      00
 8839              	.LEHE524:
 8840              	.LEHB525:
 8841 478f E8000000 		call	__cxa_end_catch
 8841      00
 8842              	.LEHE525:
 8843 4794 E9D9ECFF 		jmp	.L608
 8843      FF
 8844              	.L718:
 8845 4799 4889C3   		movq	%rax, %rbx
 8846 479c 0F1F4000 		.p2align 4,,5
 8847 47a0 E8000000 		call	__cxa_end_catch
 8847      00
 8848 47a5 4889DF   		movq	%rbx, %rdi
 8849              	.LEHB526:
 8850 47a8 E8000000 		call	_Unwind_Resume
 8850      00
 8851              	.LEHE526:
 8852              	.L716:
 8853 47ad 4889C3   		movq	%rax, %rbx
 8854 47b0 E8000000 		call	__cxa_end_catch
 8854      00
 8855 47b5 4889DF   		movq	%rbx, %rdi
 8856              	.LEHB527:
 8857 47b8 E8000000 		call	_Unwind_Resume
 8857      00
 8858              	.LEHE527:
 8859              	.L713:
 8860 47bd 4889C7   		movq	%rax, %rdi
 8861 47c0 E8000000 		call	__cxa_begin_catch
 8861      00
 8862              	.LEHB528:
 8863 47c5 E8000000 		call	_ZN8UnitTest11CurrentTest7DetailsEv
 8863      00
 8864 47ca 488B30   		movq	(%rax), %rsi
 8865 47cd BAFC0000 		movl	$252, %edx
 8865      00
 8866 47d2 4889DF   		movq	%rbx, %rdi
 8867 47d5 E8000000 		call	_ZN8UnitTest11TestDetailsC1ERKS0_i
 8867      00
 8868 47da E8000000 		call	_ZN8UnitTest11CurrentTest7ResultsEv
 8868      00
 8869 47df 488B38   		movq	(%rax), %rdi
 8870 47e2 BA000000 		movl	$.LC29, %edx
 8870      00
 8871 47e7 4889DE   		movq	%rbx, %rsi
 8872 47ea E8000000 		call	_ZN8UnitTest11TestResults13OnTestFailureERKNS_11TestDetailsEPKc
 8872      00
 8873              	.LEHE528:
 8874              	.LEHB529:
 8875 47ef E8000000 		call	__cxa_end_catch
 8875      00
 8876              	.LEHE529:
 8877 47f4 E91AECFF 		jmp	.L605
 8877      FF
 8878              	.L711:
 8879 47f9 4889C7   		movq	%rax, %rdi
 8880 47fc 0F1F4000 		.p2align 4,,5
 8881 4800 E8000000 		call	__cxa_begin_catch
 8881      00
 8882              		.p2align 4,,5
 8883              	.LEHB530:
 8884 4805 E8000000 		call	_ZN8UnitTest11CurrentTest7DetailsEv
 8884      00
 8885 480a 488B30   		movq	(%rax), %rsi
 8886 480d BAFB0000 		movl	$251, %edx
 8886      00
 8887 4812 4889DF   		movq	%rbx, %rdi
 8888 4815 E8000000 		call	_ZN8UnitTest11TestDetailsC1ERKS0_i
 8888      00
 8889 481a E8000000 		call	_ZN8UnitTest11CurrentTest7ResultsEv
 8889      00
 8890 481f 488B38   		movq	(%rax), %rdi
 8891 4822 BA000000 		movl	$.LC4, %edx
 8891      00
 8892 4827 4889DE   		movq	%rbx, %rsi
 8893 482a E8000000 		call	_ZN8UnitTest11TestResults13OnTestFailureERKNS_11TestDetailsEPKc
 8893      00
 8894              	.LEHE530:
 8895              	.LEHB531:
 8896 482f E8000000 		call	__cxa_end_catch
 8896      00
 8897              	.LEHE531:
 8898 4834 E993EBFF 		jmp	.L602
 8898      FF
 8899              	.L714:
 8900 4839 4889C3   		movq	%rax, %rbx
 8901 483c 0F1F4000 		.p2align 4,,5
 8902 4840 E8000000 		call	__cxa_end_catch
 8902      00
 8903 4845 4889DF   		movq	%rbx, %rdi
 8904              	.LEHB532:
 8905 4848 E8000000 		call	_Unwind_Resume
 8905      00
 8906              	.LEHE532:
 8907              	.L712:
 8908 484d 4889C3   		movq	%rax, %rbx
 8909 4850 E8000000 		call	__cxa_end_catch
 8909      00
 8910 4855 4889DF   		movq	%rbx, %rdi
 8911              	.LEHB533:
 8912 4858 E8000000 		call	_Unwind_Resume
 8912      00
 8913              	.LEHE533:
 8914              	.L709:
 8915 485d 4889C7   		movq	%rax, %rdi
 8916 4860 E8000000 		call	__cxa_begin_catch
 8916      00
 8917              	.LEHB534:
 8918 4865 E8000000 		call	_ZN8UnitTest11CurrentTest7DetailsEv
 8918      00
 8919 486a 488B30   		movq	(%rax), %rsi
 8920 486d BAF70000 		movl	$247, %edx
 8920      00
 8921 4872 4889DF   		movq	%rbx, %rdi
 8922 4875 E8000000 		call	_ZN8UnitTest11TestDetailsC1ERKS0_i
 8922      00
 8923 487a E8000000 		call	_ZN8UnitTest11CurrentTest7ResultsEv
 8923      00
 8924 487f 488B38   		movq	(%rax), %rdi
 8925 4882 BA000000 		movl	$.LC28, %edx
 8925      00
 8926 4887 4889DE   		movq	%rbx, %rsi
 8927 488a E8000000 		call	_ZN8UnitTest11TestResults13OnTestFailureERKNS_11TestDetailsEPKc
 8927      00
 8928              	.LEHE534:
 8929              	.LEHB535:
 8930 488f E8000000 		call	__cxa_end_catch
 8930      00
 8931              	.LEHE535:
 8932 4894 E9D4EAFF 		jmp	.L599
 8932      FF
 8933              	.L707:
 8934 4899 4889C7   		movq	%rax, %rdi
 8935 489c 0F1F4000 		.p2align 4,,5
 8936 48a0 E8000000 		call	__cxa_begin_catch
 8936      00
 8937              		.p2align 4,,5
 8938              	.LEHB536:
 8939 48a5 E8000000 		call	_ZN8UnitTest11CurrentTest7DetailsEv
 8939      00
 8940 48aa 488B30   		movq	(%rax), %rsi
 8941 48ad BAF60000 		movl	$246, %edx
 8941      00
 8942 48b2 4889DF   		movq	%rbx, %rdi
 8943 48b5 E8000000 		call	_ZN8UnitTest11TestDetailsC1ERKS0_i
 8943      00
 8944 48ba E8000000 		call	_ZN8UnitTest11CurrentTest7ResultsEv
 8944      00
 8945 48bf 488B38   		movq	(%rax), %rdi
 8946 48c2 BA000000 		movl	$.LC4, %edx
 8946      00
 8947 48c7 4889DE   		movq	%rbx, %rsi
 8948 48ca E8000000 		call	_ZN8UnitTest11TestResults13OnTestFailureERKNS_11TestDetailsEPKc
 8948      00
 8949              	.LEHE536:
 8950              	.LEHB537:
 8951 48cf E8000000 		call	__cxa_end_catch
 8951      00
 8952              	.LEHE537:
 8953 48d4 E951EAFF 		jmp	.L596
 8953      FF
 8954              	.L710:
 8955 48d9 4889C3   		movq	%rax, %rbx
 8956 48dc 0F1F4000 		.p2align 4,,5
 8957 48e0 E8000000 		call	__cxa_end_catch
 8957      00
 8958 48e5 4889DF   		movq	%rbx, %rdi
 8959              	.LEHB538:
 8960 48e8 E8000000 		call	_Unwind_Resume
 8960      00
 8961              	.LEHE538:
 8962              	.L708:
 8963 48ed 4889C3   		movq	%rax, %rbx
 8964 48f0 E8000000 		call	__cxa_end_catch
 8964      00
 8965 48f5 4889DF   		movq	%rbx, %rdi
 8966              	.LEHB539:
 8967 48f8 E8000000 		call	_Unwind_Resume
 8967      00
 8968              	.LEHE539:
 8969              		.cfi_endproc
 8970              	.LFE1120:
 8971              		.section	.gcc_except_table
 8972              		.align 4
 8973              	.LLSDA1120:
 8974 0854 FF       		.byte	0xff
 8975 0855 03       		.byte	0x3
 8976 0856 9807     		.uleb128 .LLSDATT1120-.LLSDATTD1120
 8977              	.LLSDATTD1120:
 8978 0858 01       		.byte	0x1
 8979 0859 8D07     		.uleb128 .LLSDACSE1120-.LLSDACSB1120
 8980              	.LLSDACSB1120:
 8981 085b 2C       		.uleb128 .LEHB373-.LFB1120
 8982 085c 05       		.uleb128 .LEHE373-.LEHB373
 8983 085d 00       		.uleb128 0
 8984 085e 00       		.uleb128 0
 8985 085f 35       		.uleb128 .LEHB374-.LFB1120
 8986 0860 3C       		.uleb128 .LEHE374-.LEHB374
 8987 0861 C215     		.uleb128 .L705-.LFB1120
 8988 0863 01       		.uleb128 0x1
 8989 0864 8A01     		.uleb128 .LEHB375-.LFB1120
 8990 0866 05       		.uleb128 .LEHE375-.LEHB375
 8991 0867 00       		.uleb128 0
 8992 0868 00       		.uleb128 0
 8993 0869 9301     		.uleb128 .LEHB376-.LFB1120
 8994 086b 37       		.uleb128 .LEHE376-.LEHB376
 8995 086c B92C     		.uleb128 .L707-.LFB1120
 8996 086e 01       		.uleb128 0x1
 8997 086f CA01     		.uleb128 .LEHB377-.LFB1120
 8998 0871 43       		.uleb128 .LEHE377-.LEHB377
 8999 0872 FD2B     		.uleb128 .L709-.LFB1120
 9000 0874 01       		.uleb128 0x1
 9001 0875 9D02     		.uleb128 .LEHB378-.LFB1120
 9002 0877 14       		.uleb128 .LEHE378-.LEHB378
 9003 0878 00       		.uleb128 0
 9004 0879 00       		.uleb128 0
 9005 087a B502     		.uleb128 .LEHB379-.LFB1120
 9006 087c 37       		.uleb128 .LEHE379-.LEHB379
 9007 087d 992B     		.uleb128 .L711-.LFB1120
 9008 087f 01       		.uleb128 0x1
 9009 0880 EC02     		.uleb128 .LEHB380-.LFB1120
 9010 0882 47       		.uleb128 .LEHE380-.LEHB380
 9011 0883 DD2A     		.uleb128 .L713-.LFB1120
 9012 0885 01       		.uleb128 0x1
 9013 0886 C303     		.uleb128 .LEHB381-.LFB1120
 9014 0888 14       		.uleb128 .LEHE381-.LEHB381
 9015 0889 00       		.uleb128 0
 9016 088a 00       		.uleb128 0
 9017 088b DB03     		.uleb128 .LEHB382-.LFB1120
 9018 088d 37       		.uleb128 .LEHE382-.LEHB382
 9019 088e F929     		.uleb128 .L715-.LFB1120
 9020 0890 01       		.uleb128 0x1
 9021 0891 9204     		.uleb128 .LEHB383-.LFB1120
 9022 0893 47       		.uleb128 .LEHE383-.LEHB383
 9023 0894 BD29     		.uleb128 .L717-.LFB1120
 9024 0896 01       		.uleb128 0x1
 9025 0897 E904     		.uleb128 .LEHB384-.LFB1120
 9026 0899 14       		.uleb128 .LEHE384-.LEHB384
 9027 089a 00       		.uleb128 0
 9028 089b 00       		.uleb128 0
 9029 089c 8105     		.uleb128 .LEHB385-.LFB1120
 9030 089e 37       		.uleb128 .LEHE385-.LEHB385
 9031 089f D928     		.uleb128 .L719-.LFB1120
 9032 08a1 01       		.uleb128 0x1
 9033 08a2 B805     		.uleb128 .LEHB386-.LFB1120
 9034 08a4 47       		.uleb128 .LEHE386-.LEHB386
 9035 08a5 9D28     		.uleb128 .L721-.LFB1120
 9036 08a7 01       		.uleb128 0x1
 9037 08a8 8F06     		.uleb128 .LEHB387-.LFB1120
 9038 08aa 05       		.uleb128 .LEHE387-.LEHB387
 9039 08ab 00       		.uleb128 0
 9040 08ac 00       		.uleb128 0
 9041 08ad 9406     		.uleb128 .LEHB388-.LFB1120
 9042 08af 38       		.uleb128 .LEHE388-.LEHB388
 9043 08b0 B927     		.uleb128 .L723-.LFB1120
 9044 08b2 01       		.uleb128 0x1
 9045 08b3 CC06     		.uleb128 .LEHB389-.LFB1120
 9046 08b5 2F       		.uleb128 .LEHE389-.LEHB389
 9047 08b6 FD26     		.uleb128 .L725-.LFB1120
 9048 08b8 01       		.uleb128 0x1
 9049 08b9 FB06     		.uleb128 .LEHB390-.LFB1120
 9050 08bb 2F       		.uleb128 .LEHE390-.LEHB390
 9051 08bc 9926     		.uleb128 .L727-.LFB1120
 9052 08be 01       		.uleb128 0x1
 9053 08bf AA07     		.uleb128 .LEHB391-.LFB1120
 9054 08c1 3B       		.uleb128 .LEHE391-.LEHB391
 9055 08c2 DD25     		.uleb128 .L729-.LFB1120
 9056 08c4 01       		.uleb128 0x1
 9057 08c5 EF07     		.uleb128 .LEHB392-.LFB1120
 9058 08c7 05       		.uleb128 .LEHE392-.LEHB392
 9059 08c8 00       		.uleb128 0
 9060 08c9 00       		.uleb128 0
 9061 08ca F807     		.uleb128 .LEHB393-.LFB1120
 9062 08cc 37       		.uleb128 .LEHE393-.LEHB393
 9063 08cd F924     		.uleb128 .L731-.LFB1120
 9064 08cf 01       		.uleb128 0x1
 9065 08d0 AF08     		.uleb128 .LEHB394-.LFB1120
 9066 08d2 3B       		.uleb128 .LEHE394-.LEHB394
 9067 08d3 BD24     		.uleb128 .L733-.LFB1120
 9068 08d5 01       		.uleb128 0x1
 9069 08d6 FA08     		.uleb128 .LEHB395-.LFB1120
 9070 08d8 05       		.uleb128 .LEHE395-.LEHB395
 9071 08d9 00       		.uleb128 0
 9072 08da 00       		.uleb128 0
 9073 08db FF08     		.uleb128 .LEHB396-.LFB1120
 9074 08dd 38       		.uleb128 .LEHE396-.LEHB396
 9075 08de D923     		.uleb128 .L735-.LFB1120
 9076 08e0 01       		.uleb128 0x1
 9077 08e1 B709     		.uleb128 .LEHB397-.LFB1120
 9078 08e3 38       		.uleb128 .LEHE397-.LEHB397
 9079 08e4 9D23     		.uleb128 .L737-.LFB1120
 9080 08e6 01       		.uleb128 0x1
 9081 08e7 EF09     		.uleb128 .LEHB398-.LFB1120
 9082 08e9 38       		.uleb128 .LEHE398-.LEHB398
 9083 08ea B922     		.uleb128 .L739-.LFB1120
 9084 08ec 01       		.uleb128 0x1
 9085 08ed A70A     		.uleb128 .LEHB399-.LFB1120
 9086 08ef 3B       		.uleb128 .LEHE399-.LEHB399
 9087 08f0 FD21     		.uleb128 .L741-.LFB1120
 9088 08f2 01       		.uleb128 0x1
 9089 08f3 E20A     		.uleb128 .LEHB400-.LFB1120
 9090 08f5 46       		.uleb128 .LEHE400-.LEHB400
 9091 08f6 9921     		.uleb128 .L743-.LFB1120
 9092 08f8 01       		.uleb128 0x1
 9093 08f9 A80B     		.uleb128 .LEHB401-.LFB1120
 9094 08fb 47       		.uleb128 .LEHE401-.LEHB401
 9095 08fc DD20     		.uleb128 .L745-.LFB1120
 9096 08fe 01       		.uleb128 0x1
 9097 08ff EF0B     		.uleb128 .LEHB402-.LFB1120
 9098 0901 47       		.uleb128 .LEHE402-.LEHB402
 9099 0902 F91F     		.uleb128 .L747-.LFB1120
 9100 0904 01       		.uleb128 0x1
 9101 0905 B60C     		.uleb128 .LEHB403-.LFB1120
 9102 0907 47       		.uleb128 .LEHE403-.LEHB403
 9103 0908 BD1F     		.uleb128 .L749-.LFB1120
 9104 090a 01       		.uleb128 0x1
 9105 090b FD0C     		.uleb128 .LEHB404-.LFB1120
 9106 090d 47       		.uleb128 .LEHE404-.LEHB404
 9107 090e D91E     		.uleb128 .L751-.LFB1120
 9108 0910 01       		.uleb128 0x1
 9109 0911 C40D     		.uleb128 .LEHB405-.LFB1120
 9110 0913 47       		.uleb128 .LEHE405-.LEHB405
 9111 0914 9D1E     		.uleb128 .L753-.LFB1120
 9112 0916 01       		.uleb128 0x1
 9113 0917 8B0E     		.uleb128 .LEHB406-.LFB1120
 9114 0919 47       		.uleb128 .LEHE406-.LEHB406
 9115 091a B91D     		.uleb128 .L755-.LFB1120
 9116 091c 01       		.uleb128 0x1
 9117 091d D20E     		.uleb128 .LEHB407-.LFB1120
 9118 091f 47       		.uleb128 .LEHE407-.LEHB407
 9119 0920 FD1C     		.uleb128 .L757-.LFB1120
 9120 0922 01       		.uleb128 0x1
 9121 0923 A30F     		.uleb128 .LEHB408-.LFB1120
 9122 0925 05       		.uleb128 .LEHE408-.LEHB408
 9123 0926 00       		.uleb128 0
 9124 0927 00       		.uleb128 0
 9125 0928 AC0F     		.uleb128 .LEHB409-.LFB1120
 9126 092a 37       		.uleb128 .LEHE409-.LEHB409
 9127 092b 991C     		.uleb128 .L759-.LFB1120
 9128 092d 01       		.uleb128 0x1
 9129 092e E30F     		.uleb128 .LEHB410-.LFB1120
 9130 0930 3B       		.uleb128 .LEHE410-.LEHB410
 9131 0931 DD1B     		.uleb128 .L761-.LFB1120
 9132 0933 01       		.uleb128 0x1
 9133 0934 A310     		.uleb128 .LEHB411-.LFB1120
 9134 0936 14       		.uleb128 .LEHE411-.LEHB411
 9135 0937 00       		.uleb128 0
 9136 0938 00       		.uleb128 0
 9137 0939 BB10     		.uleb128 .LEHB412-.LFB1120
 9138 093b 37       		.uleb128 .LEHE412-.LEHB412
 9139 093c F91A     		.uleb128 .L763-.LFB1120
 9140 093e 01       		.uleb128 0x1
 9141 093f F210     		.uleb128 .LEHB413-.LFB1120
 9142 0941 3B       		.uleb128 .LEHE413-.LEHB413
 9143 0942 BD1A     		.uleb128 .L765-.LFB1120
 9144 0944 01       		.uleb128 0x1
 9145 0945 B211     		.uleb128 .LEHB414-.LFB1120
 9146 0947 14       		.uleb128 .LEHE414-.LEHB414
 9147 0948 00       		.uleb128 0
 9148 0949 00       		.uleb128 0
 9149 094a CA11     		.uleb128 .LEHB415-.LFB1120
 9150 094c 37       		.uleb128 .LEHE415-.LEHB415
 9151 094d D919     		.uleb128 .L767-.LFB1120
 9152 094f 01       		.uleb128 0x1
 9153 0950 8112     		.uleb128 .LEHB416-.LFB1120
 9154 0952 3B       		.uleb128 .LEHE416-.LEHB416
 9155 0953 9D19     		.uleb128 .L769-.LFB1120
 9156 0955 01       		.uleb128 0x1
 9157 0956 C112     		.uleb128 .LEHB417-.LFB1120
 9158 0958 14       		.uleb128 .LEHE417-.LEHB417
 9159 0959 00       		.uleb128 0
 9160 095a 00       		.uleb128 0
 9161 095b D912     		.uleb128 .LEHB418-.LFB1120
 9162 095d 37       		.uleb128 .LEHE418-.LEHB418
 9163 095e B918     		.uleb128 .L771-.LFB1120
 9164 0960 01       		.uleb128 0x1
 9165 0961 9013     		.uleb128 .LEHB419-.LFB1120
 9166 0963 3B       		.uleb128 .LEHE419-.LEHB419
 9167 0964 FD17     		.uleb128 .L773-.LFB1120
 9168 0966 01       		.uleb128 0x1
 9169 0967 D013     		.uleb128 .LEHB420-.LFB1120
 9170 0969 14       		.uleb128 .LEHE420-.LEHB420
 9171 096a 00       		.uleb128 0
 9172 096b 00       		.uleb128 0
 9173 096c E813     		.uleb128 .LEHB421-.LFB1120
 9174 096e 37       		.uleb128 .LEHE421-.LEHB421
 9175 096f A017     		.uleb128 .L775-.LFB1120
 9176 0971 01       		.uleb128 0x1
 9177 0972 9F14     		.uleb128 .LEHB422-.LFB1120
 9178 0974 3B       		.uleb128 .LEHE422-.LEHB422
 9179 0975 E416     		.uleb128 .L777-.LFB1120
 9180 0977 01       		.uleb128 0x1
 9181 0978 DF14     		.uleb128 .LEHB423-.LFB1120
 9182 097a 14       		.uleb128 .LEHE423-.LEHB423
 9183 097b 00       		.uleb128 0
 9184 097c 00       		.uleb128 0
 9185 097d F714     		.uleb128 .LEHB424-.LFB1120
 9186 097f 37       		.uleb128 .LEHE424-.LEHB424
 9187 0980 8316     		.uleb128 .L779-.LFB1120
 9188 0982 01       		.uleb128 0x1
 9189 0983 B315     		.uleb128 .LEHB425-.LFB1120
 9190 0985 05       		.uleb128 .LEHE425-.LEHB425
 9191 0986 00       		.uleb128 0
 9192 0987 00       		.uleb128 0
 9193 0988 CA15     		.uleb128 .LEHB426-.LFB1120
 9194 098a 2F       		.uleb128 .LEHE426-.LEHB426
 9195 098b C416     		.uleb128 .L706-.LFB1120
 9196 098d 00       		.uleb128 0
 9197 098e F915     		.uleb128 .LEHB427-.LFB1120
 9198 0990 05       		.uleb128 .LEHE427-.LEHB427
 9199 0991 00       		.uleb128 0
 9200 0992 00       		.uleb128 0
 9201 0993 9016     		.uleb128 .LEHB428-.LFB1120
 9202 0995 2A       		.uleb128 .LEHE428-.LEHB428
 9203 0996 D416     		.uleb128 .L780-.LFB1120
 9204 0998 00       		.uleb128 0
 9205 0999 BA16     		.uleb128 .LEHB429-.LFB1120
 9206 099b 05       		.uleb128 .LEHE429-.LEHB429
 9207 099c 00       		.uleb128 0
 9208 099d 00       		.uleb128 0
 9209 099e CF16     		.uleb128 .LEHB430-.LFB1120
 9210 09a0 05       		.uleb128 .LEHE430-.LEHB430
 9211 09a1 00       		.uleb128 0
 9212 09a2 00       		.uleb128 0
 9213 09a3 DF16     		.uleb128 .LEHB431-.LFB1120
 9214 09a5 05       		.uleb128 .LEHE431-.LEHB431
 9215 09a6 00       		.uleb128 0
 9216 09a7 00       		.uleb128 0
 9217 09a8 EC16     		.uleb128 .LEHB432-.LFB1120
 9218 09aa 2A       		.uleb128 .LEHE432-.LEHB432
 9219 09ab DC17     		.uleb128 .L778-.LFB1120
 9220 09ad 00       		.uleb128 0
 9221 09ae 9617     		.uleb128 .LEHB433-.LFB1120
 9222 09b0 05       		.uleb128 .LEHE433-.LEHB433
 9223 09b1 00       		.uleb128 0
 9224 09b2 00       		.uleb128 0
 9225 09b3 A817     		.uleb128 .LEHB434-.LFB1120
 9226 09b5 2A       		.uleb128 .LEHE434-.LEHB434
 9227 09b6 ED17     		.uleb128 .L776-.LFB1120
 9228 09b8 00       		.uleb128 0
 9229 09b9 D217     		.uleb128 .LEHB435-.LFB1120
 9230 09bb 05       		.uleb128 .LEHE435-.LEHB435
 9231 09bc 00       		.uleb128 0
 9232 09bd 00       		.uleb128 0
 9233 09be E817     		.uleb128 .LEHB436-.LFB1120
 9234 09c0 05       		.uleb128 .LEHE436-.LEHB436
 9235 09c1 00       		.uleb128 0
 9236 09c2 00       		.uleb128 0
 9237 09c3 F817     		.uleb128 .LEHB437-.LFB1120
 9238 09c5 05       		.uleb128 .LEHE437-.LEHB437
 9239 09c6 00       		.uleb128 0
 9240 09c7 00       		.uleb128 0
 9241 09c8 8518     		.uleb128 .LEHB438-.LFB1120
 9242 09ca 2A       		.uleb128 .LEHE438-.LEHB438
 9243 09cb F918     		.uleb128 .L774-.LFB1120
 9244 09cd 00       		.uleb128 0
 9245 09ce AF18     		.uleb128 .LEHB439-.LFB1120
 9246 09d0 05       		.uleb128 .LEHE439-.LEHB439
 9247 09d1 00       		.uleb128 0
 9248 09d2 00       		.uleb128 0
 9249 09d3 C518     		.uleb128 .LEHB440-.LFB1120
 9250 09d5 2A       		.uleb128 .LEHE440-.LEHB440
 9251 09d6 8D19     		.uleb128 .L772-.LFB1120
 9252 09d8 00       		.uleb128 0
 9253 09d9 EF18     		.uleb128 .LEHB441-.LFB1120
 9254 09db 05       		.uleb128 .LEHE441-.LEHB441
 9255 09dc 00       		.uleb128 0
 9256 09dd 00       		.uleb128 0
 9257 09de 8819     		.uleb128 .LEHB442-.LFB1120
 9258 09e0 05       		.uleb128 .LEHE442-.LEHB442
 9259 09e1 00       		.uleb128 0
 9260 09e2 00       		.uleb128 0
 9261 09e3 9819     		.uleb128 .LEHB443-.LFB1120
 9262 09e5 05       		.uleb128 .LEHE443-.LEHB443
 9263 09e6 00       		.uleb128 0
 9264 09e7 00       		.uleb128 0
 9265 09e8 A519     		.uleb128 .LEHB444-.LFB1120
 9266 09ea 2A       		.uleb128 .LEHE444-.LEHB444
 9267 09eb 991A     		.uleb128 .L770-.LFB1120
 9268 09ed 00       		.uleb128 0
 9269 09ee CF19     		.uleb128 .LEHB445-.LFB1120
 9270 09f0 05       		.uleb128 .LEHE445-.LEHB445
 9271 09f1 00       		.uleb128 0
 9272 09f2 00       		.uleb128 0
 9273 09f3 E519     		.uleb128 .LEHB446-.LFB1120
 9274 09f5 2A       		.uleb128 .LEHE446-.LEHB446
 9275 09f6 AD1A     		.uleb128 .L768-.LFB1120
 9276 09f8 00       		.uleb128 0
 9277 09f9 8F1A     		.uleb128 .LEHB447-.LFB1120
 9278 09fb 05       		.uleb128 .LEHE447-.LEHB447
 9279 09fc 00       		.uleb128 0
 9280 09fd 00       		.uleb128 0
 9281 09fe A81A     		.uleb128 .LEHB448-.LFB1120
 9282 0a00 05       		.uleb128 .LEHE448-.LEHB448
 9283 0a01 00       		.uleb128 0
 9284 0a02 00       		.uleb128 0
 9285 0a03 B81A     		.uleb128 .LEHB449-.LFB1120
 9286 0a05 05       		.uleb128 .LEHE449-.LEHB449
 9287 0a06 00       		.uleb128 0
 9288 0a07 00       		.uleb128 0
 9289 0a08 C51A     		.uleb128 .LEHB450-.LFB1120
 9290 0a0a 2A       		.uleb128 .LEHE450-.LEHB450
 9291 0a0b B91B     		.uleb128 .L766-.LFB1120
 9292 0a0d 00       		.uleb128 0
 9293 0a0e EF1A     		.uleb128 .LEHB451-.LFB1120
 9294 0a10 05       		.uleb128 .LEHE451-.LEHB451
 9295 0a11 00       		.uleb128 0
 9296 0a12 00       		.uleb128 0
 9297 0a13 851B     		.uleb128 .LEHB452-.LFB1120
 9298 0a15 2A       		.uleb128 .LEHE452-.LEHB452
 9299 0a16 CD1B     		.uleb128 .L764-.LFB1120
 9300 0a18 00       		.uleb128 0
 9301 0a19 AF1B     		.uleb128 .LEHB453-.LFB1120
 9302 0a1b 05       		.uleb128 .LEHE453-.LEHB453
 9303 0a1c 00       		.uleb128 0
 9304 0a1d 00       		.uleb128 0
 9305 0a1e C81B     		.uleb128 .LEHB454-.LFB1120
 9306 0a20 05       		.uleb128 .LEHE454-.LEHB454
 9307 0a21 00       		.uleb128 0
 9308 0a22 00       		.uleb128 0
 9309 0a23 D81B     		.uleb128 .LEHB455-.LFB1120
 9310 0a25 05       		.uleb128 .LEHE455-.LEHB455
 9311 0a26 00       		.uleb128 0
 9312 0a27 00       		.uleb128 0
 9313 0a28 E51B     		.uleb128 .LEHB456-.LFB1120
 9314 0a2a 2A       		.uleb128 .LEHE456-.LEHB456
 9315 0a2b D91C     		.uleb128 .L762-.LFB1120
 9316 0a2d 00       		.uleb128 0
 9317 0a2e 8F1C     		.uleb128 .LEHB457-.LFB1120
 9318 0a30 05       		.uleb128 .LEHE457-.LEHB457
 9319 0a31 00       		.uleb128 0
 9320 0a32 00       		.uleb128 0
 9321 0a33 A51C     		.uleb128 .LEHB458-.LFB1120
 9322 0a35 2A       		.uleb128 .LEHE458-.LEHB458
 9323 0a36 ED1C     		.uleb128 .L760-.LFB1120
 9324 0a38 00       		.uleb128 0
 9325 0a39 CF1C     		.uleb128 .LEHB459-.LFB1120
 9326 0a3b 05       		.uleb128 .LEHE459-.LEHB459
 9327 0a3c 00       		.uleb128 0
 9328 0a3d 00       		.uleb128 0
 9329 0a3e E81C     		.uleb128 .LEHB460-.LFB1120
 9330 0a40 05       		.uleb128 .LEHE460-.LEHB460
 9331 0a41 00       		.uleb128 0
 9332 0a42 00       		.uleb128 0
 9333 0a43 F81C     		.uleb128 .LEHB461-.LFB1120
 9334 0a45 05       		.uleb128 .LEHE461-.LEHB461
 9335 0a46 00       		.uleb128 0
 9336 0a47 00       		.uleb128 0
 9337 0a48 851D     		.uleb128 .LEHB462-.LFB1120
 9338 0a4a 2A       		.uleb128 .LEHE462-.LEHB462
 9339 0a4b F91D     		.uleb128 .L758-.LFB1120
 9340 0a4d 00       		.uleb128 0
 9341 0a4e AF1D     		.uleb128 .LEHB463-.LFB1120
 9342 0a50 05       		.uleb128 .LEHE463-.LEHB463
 9343 0a51 00       		.uleb128 0
 9344 0a52 00       		.uleb128 0
 9345 0a53 C51D     		.uleb128 .LEHB464-.LFB1120
 9346 0a55 2A       		.uleb128 .LEHE464-.LEHB464
 9347 0a56 8D1E     		.uleb128 .L756-.LFB1120
 9348 0a58 00       		.uleb128 0
 9349 0a59 EF1D     		.uleb128 .LEHB465-.LFB1120
 9350 0a5b 05       		.uleb128 .LEHE465-.LEHB465
 9351 0a5c 00       		.uleb128 0
 9352 0a5d 00       		.uleb128 0
 9353 0a5e 881E     		.uleb128 .LEHB466-.LFB1120
 9354 0a60 05       		.uleb128 .LEHE466-.LEHB466
 9355 0a61 00       		.uleb128 0
 9356 0a62 00       		.uleb128 0
 9357 0a63 981E     		.uleb128 .LEHB467-.LFB1120
 9358 0a65 05       		.uleb128 .LEHE467-.LEHB467
 9359 0a66 00       		.uleb128 0
 9360 0a67 00       		.uleb128 0
 9361 0a68 A51E     		.uleb128 .LEHB468-.LFB1120
 9362 0a6a 2A       		.uleb128 .LEHE468-.LEHB468
 9363 0a6b 991F     		.uleb128 .L754-.LFB1120
 9364 0a6d 00       		.uleb128 0
 9365 0a6e CF1E     		.uleb128 .LEHB469-.LFB1120
 9366 0a70 05       		.uleb128 .LEHE469-.LEHB469
 9367 0a71 00       		.uleb128 0
 9368 0a72 00       		.uleb128 0
 9369 0a73 E51E     		.uleb128 .LEHB470-.LFB1120
 9370 0a75 2A       		.uleb128 .LEHE470-.LEHB470
 9371 0a76 AD1F     		.uleb128 .L752-.LFB1120
 9372 0a78 00       		.uleb128 0
 9373 0a79 8F1F     		.uleb128 .LEHB471-.LFB1120
 9374 0a7b 05       		.uleb128 .LEHE471-.LEHB471
 9375 0a7c 00       		.uleb128 0
 9376 0a7d 00       		.uleb128 0
 9377 0a7e A81F     		.uleb128 .LEHB472-.LFB1120
 9378 0a80 05       		.uleb128 .LEHE472-.LEHB472
 9379 0a81 00       		.uleb128 0
 9380 0a82 00       		.uleb128 0
 9381 0a83 B81F     		.uleb128 .LEHB473-.LFB1120
 9382 0a85 05       		.uleb128 .LEHE473-.LEHB473
 9383 0a86 00       		.uleb128 0
 9384 0a87 00       		.uleb128 0
 9385 0a88 C51F     		.uleb128 .LEHB474-.LFB1120
 9386 0a8a 2A       		.uleb128 .LEHE474-.LEHB474
 9387 0a8b B920     		.uleb128 .L750-.LFB1120
 9388 0a8d 00       		.uleb128 0
 9389 0a8e EF1F     		.uleb128 .LEHB475-.LFB1120
 9390 0a90 05       		.uleb128 .LEHE475-.LEHB475
 9391 0a91 00       		.uleb128 0
 9392 0a92 00       		.uleb128 0
 9393 0a93 8520     		.uleb128 .LEHB476-.LFB1120
 9394 0a95 2A       		.uleb128 .LEHE476-.LEHB476
 9395 0a96 CD20     		.uleb128 .L748-.LFB1120
 9396 0a98 00       		.uleb128 0
 9397 0a99 AF20     		.uleb128 .LEHB477-.LFB1120
 9398 0a9b 05       		.uleb128 .LEHE477-.LEHB477
 9399 0a9c 00       		.uleb128 0
 9400 0a9d 00       		.uleb128 0
 9401 0a9e C820     		.uleb128 .LEHB478-.LFB1120
 9402 0aa0 05       		.uleb128 .LEHE478-.LEHB478
 9403 0aa1 00       		.uleb128 0
 9404 0aa2 00       		.uleb128 0
 9405 0aa3 D820     		.uleb128 .LEHB479-.LFB1120
 9406 0aa5 05       		.uleb128 .LEHE479-.LEHB479
 9407 0aa6 00       		.uleb128 0
 9408 0aa7 00       		.uleb128 0
 9409 0aa8 E520     		.uleb128 .LEHB480-.LFB1120
 9410 0aaa 2A       		.uleb128 .LEHE480-.LEHB480
 9411 0aab D921     		.uleb128 .L746-.LFB1120
 9412 0aad 00       		.uleb128 0
 9413 0aae 8F21     		.uleb128 .LEHB481-.LFB1120
 9414 0ab0 05       		.uleb128 .LEHE481-.LEHB481
 9415 0ab1 00       		.uleb128 0
 9416 0ab2 00       		.uleb128 0
 9417 0ab3 A521     		.uleb128 .LEHB482-.LFB1120
 9418 0ab5 2A       		.uleb128 .LEHE482-.LEHB482
 9419 0ab6 ED21     		.uleb128 .L744-.LFB1120
 9420 0ab8 00       		.uleb128 0
 9421 0ab9 CF21     		.uleb128 .LEHB483-.LFB1120
 9422 0abb 05       		.uleb128 .LEHE483-.LEHB483
 9423 0abc 00       		.uleb128 0
 9424 0abd 00       		.uleb128 0
 9425 0abe E821     		.uleb128 .LEHB484-.LFB1120
 9426 0ac0 05       		.uleb128 .LEHE484-.LEHB484
 9427 0ac1 00       		.uleb128 0
 9428 0ac2 00       		.uleb128 0
 9429 0ac3 F821     		.uleb128 .LEHB485-.LFB1120
 9430 0ac5 05       		.uleb128 .LEHE485-.LEHB485
 9431 0ac6 00       		.uleb128 0
 9432 0ac7 00       		.uleb128 0
 9433 0ac8 8522     		.uleb128 .LEHB486-.LFB1120
 9434 0aca 2A       		.uleb128 .LEHE486-.LEHB486
 9435 0acb F922     		.uleb128 .L742-.LFB1120
 9436 0acd 00       		.uleb128 0
 9437 0ace AF22     		.uleb128 .LEHB487-.LFB1120
 9438 0ad0 05       		.uleb128 .LEHE487-.LEHB487
 9439 0ad1 00       		.uleb128 0
 9440 0ad2 00       		.uleb128 0
 9441 0ad3 C522     		.uleb128 .LEHB488-.LFB1120
 9442 0ad5 2A       		.uleb128 .LEHE488-.LEHB488
 9443 0ad6 8D23     		.uleb128 .L740-.LFB1120
 9444 0ad8 00       		.uleb128 0
 9445 0ad9 EF22     		.uleb128 .LEHB489-.LFB1120
 9446 0adb 05       		.uleb128 .LEHE489-.LEHB489
 9447 0adc 00       		.uleb128 0
 9448 0add 00       		.uleb128 0
 9449 0ade 8823     		.uleb128 .LEHB490-.LFB1120
 9450 0ae0 05       		.uleb128 .LEHE490-.LEHB490
 9451 0ae1 00       		.uleb128 0
 9452 0ae2 00       		.uleb128 0
 9453 0ae3 9823     		.uleb128 .LEHB491-.LFB1120
 9454 0ae5 05       		.uleb128 .LEHE491-.LEHB491
 9455 0ae6 00       		.uleb128 0
 9456 0ae7 00       		.uleb128 0
 9457 0ae8 A523     		.uleb128 .LEHB492-.LFB1120
 9458 0aea 2A       		.uleb128 .LEHE492-.LEHB492
 9459 0aeb 9924     		.uleb128 .L738-.LFB1120
 9460 0aed 00       		.uleb128 0
 9461 0aee CF23     		.uleb128 .LEHB493-.LFB1120
 9462 0af0 05       		.uleb128 .LEHE493-.LEHB493
 9463 0af1 00       		.uleb128 0
 9464 0af2 00       		.uleb128 0
 9465 0af3 E523     		.uleb128 .LEHB494-.LFB1120
 9466 0af5 2A       		.uleb128 .LEHE494-.LEHB494
 9467 0af6 AD24     		.uleb128 .L736-.LFB1120
 9468 0af8 00       		.uleb128 0
 9469 0af9 8F24     		.uleb128 .LEHB495-.LFB1120
 9470 0afb 05       		.uleb128 .LEHE495-.LEHB495
 9471 0afc 00       		.uleb128 0
 9472 0afd 00       		.uleb128 0
 9473 0afe A824     		.uleb128 .LEHB496-.LFB1120
 9474 0b00 05       		.uleb128 .LEHE496-.LEHB496
 9475 0b01 00       		.uleb128 0
 9476 0b02 00       		.uleb128 0
 9477 0b03 B824     		.uleb128 .LEHB497-.LFB1120
 9478 0b05 05       		.uleb128 .LEHE497-.LEHB497
 9479 0b06 00       		.uleb128 0
 9480 0b07 00       		.uleb128 0
 9481 0b08 C524     		.uleb128 .LEHB498-.LFB1120
 9482 0b0a 2A       		.uleb128 .LEHE498-.LEHB498
 9483 0b0b B925     		.uleb128 .L734-.LFB1120
 9484 0b0d 00       		.uleb128 0
 9485 0b0e EF24     		.uleb128 .LEHB499-.LFB1120
 9486 0b10 05       		.uleb128 .LEHE499-.LEHB499
 9487 0b11 00       		.uleb128 0
 9488 0b12 00       		.uleb128 0
 9489 0b13 8525     		.uleb128 .LEHB500-.LFB1120
 9490 0b15 2A       		.uleb128 .LEHE500-.LEHB500
 9491 0b16 CD25     		.uleb128 .L732-.LFB1120
 9492 0b18 00       		.uleb128 0
 9493 0b19 AF25     		.uleb128 .LEHB501-.LFB1120
 9494 0b1b 05       		.uleb128 .LEHE501-.LEHB501
 9495 0b1c 00       		.uleb128 0
 9496 0b1d 00       		.uleb128 0
 9497 0b1e C825     		.uleb128 .LEHB502-.LFB1120
 9498 0b20 05       		.uleb128 .LEHE502-.LEHB502
 9499 0b21 00       		.uleb128 0
 9500 0b22 00       		.uleb128 0
 9501 0b23 D825     		.uleb128 .LEHB503-.LFB1120
 9502 0b25 05       		.uleb128 .LEHE503-.LEHB503
 9503 0b26 00       		.uleb128 0
 9504 0b27 00       		.uleb128 0
 9505 0b28 E525     		.uleb128 .LEHB504-.LFB1120
 9506 0b2a 2A       		.uleb128 .LEHE504-.LEHB504
 9507 0b2b D926     		.uleb128 .L730-.LFB1120
 9508 0b2d 00       		.uleb128 0
 9509 0b2e 8F26     		.uleb128 .LEHB505-.LFB1120
 9510 0b30 05       		.uleb128 .LEHE505-.LEHB505
 9511 0b31 00       		.uleb128 0
 9512 0b32 00       		.uleb128 0
 9513 0b33 A526     		.uleb128 .LEHB506-.LFB1120
 9514 0b35 2A       		.uleb128 .LEHE506-.LEHB506
 9515 0b36 ED26     		.uleb128 .L728-.LFB1120
 9516 0b38 00       		.uleb128 0
 9517 0b39 CF26     		.uleb128 .LEHB507-.LFB1120
 9518 0b3b 05       		.uleb128 .LEHE507-.LEHB507
 9519 0b3c 00       		.uleb128 0
 9520 0b3d 00       		.uleb128 0
 9521 0b3e E826     		.uleb128 .LEHB508-.LFB1120
 9522 0b40 05       		.uleb128 .LEHE508-.LEHB508
 9523 0b41 00       		.uleb128 0
 9524 0b42 00       		.uleb128 0
 9525 0b43 F826     		.uleb128 .LEHB509-.LFB1120
 9526 0b45 05       		.uleb128 .LEHE509-.LEHB509
 9527 0b46 00       		.uleb128 0
 9528 0b47 00       		.uleb128 0
 9529 0b48 8527     		.uleb128 .LEHB510-.LFB1120
 9530 0b4a 2A       		.uleb128 .LEHE510-.LEHB510
 9531 0b4b F927     		.uleb128 .L726-.LFB1120
 9532 0b4d 00       		.uleb128 0
 9533 0b4e AF27     		.uleb128 .LEHB511-.LFB1120
 9534 0b50 05       		.uleb128 .LEHE511-.LEHB511
 9535 0b51 00       		.uleb128 0
 9536 0b52 00       		.uleb128 0
 9537 0b53 C527     		.uleb128 .LEHB512-.LFB1120
 9538 0b55 2A       		.uleb128 .LEHE512-.LEHB512
 9539 0b56 8D28     		.uleb128 .L724-.LFB1120
 9540 0b58 00       		.uleb128 0
 9541 0b59 EF27     		.uleb128 .LEHB513-.LFB1120
 9542 0b5b 05       		.uleb128 .LEHE513-.LEHB513
 9543 0b5c 00       		.uleb128 0
 9544 0b5d 00       		.uleb128 0
 9545 0b5e 8828     		.uleb128 .LEHB514-.LFB1120
 9546 0b60 05       		.uleb128 .LEHE514-.LEHB514
 9547 0b61 00       		.uleb128 0
 9548 0b62 00       		.uleb128 0
 9549 0b63 9828     		.uleb128 .LEHB515-.LFB1120
 9550 0b65 05       		.uleb128 .LEHE515-.LEHB515
 9551 0b66 00       		.uleb128 0
 9552 0b67 00       		.uleb128 0
 9553 0b68 A528     		.uleb128 .LEHB516-.LFB1120
 9554 0b6a 2A       		.uleb128 .LEHE516-.LEHB516
 9555 0b6b 9929     		.uleb128 .L722-.LFB1120
 9556 0b6d 00       		.uleb128 0
 9557 0b6e CF28     		.uleb128 .LEHB517-.LFB1120
 9558 0b70 05       		.uleb128 .LEHE517-.LEHB517
 9559 0b71 00       		.uleb128 0
 9560 0b72 00       		.uleb128 0
 9561 0b73 E528     		.uleb128 .LEHB518-.LFB1120
 9562 0b75 2A       		.uleb128 .LEHE518-.LEHB518
 9563 0b76 AD29     		.uleb128 .L720-.LFB1120
 9564 0b78 00       		.uleb128 0
 9565 0b79 8F29     		.uleb128 .LEHB519-.LFB1120
 9566 0b7b 05       		.uleb128 .LEHE519-.LEHB519
 9567 0b7c 00       		.uleb128 0
 9568 0b7d 00       		.uleb128 0
 9569 0b7e A829     		.uleb128 .LEHB520-.LFB1120
 9570 0b80 05       		.uleb128 .LEHE520-.LEHB520
 9571 0b81 00       		.uleb128 0
 9572 0b82 00       		.uleb128 0
 9573 0b83 B829     		.uleb128 .LEHB521-.LFB1120
 9574 0b85 05       		.uleb128 .LEHE521-.LEHB521
 9575 0b86 00       		.uleb128 0
 9576 0b87 00       		.uleb128 0
 9577 0b88 C529     		.uleb128 .LEHB522-.LFB1120
 9578 0b8a 2A       		.uleb128 .LEHE522-.LEHB522
 9579 0b8b B92A     		.uleb128 .L718-.LFB1120
 9580 0b8d 00       		.uleb128 0
 9581 0b8e EF29     		.uleb128 .LEHB523-.LFB1120
 9582 0b90 05       		.uleb128 .LEHE523-.LEHB523
 9583 0b91 00       		.uleb128 0
 9584 0b92 00       		.uleb128 0
 9585 0b93 852A     		.uleb128 .LEHB524-.LFB1120
 9586 0b95 2A       		.uleb128 .LEHE524-.LEHB524
 9587 0b96 CD2A     		.uleb128 .L716-.LFB1120
 9588 0b98 00       		.uleb128 0
 9589 0b99 AF2A     		.uleb128 .LEHB525-.LFB1120
 9590 0b9b 05       		.uleb128 .LEHE525-.LEHB525
 9591 0b9c 00       		.uleb128 0
 9592 0b9d 00       		.uleb128 0
 9593 0b9e C82A     		.uleb128 .LEHB526-.LFB1120
 9594 0ba0 05       		.uleb128 .LEHE526-.LEHB526
 9595 0ba1 00       		.uleb128 0
 9596 0ba2 00       		.uleb128 0
 9597 0ba3 D82A     		.uleb128 .LEHB527-.LFB1120
 9598 0ba5 05       		.uleb128 .LEHE527-.LEHB527
 9599 0ba6 00       		.uleb128 0
 9600 0ba7 00       		.uleb128 0
 9601 0ba8 E52A     		.uleb128 .LEHB528-.LFB1120
 9602 0baa 2A       		.uleb128 .LEHE528-.LEHB528
 9603 0bab D92B     		.uleb128 .L714-.LFB1120
 9604 0bad 00       		.uleb128 0
 9605 0bae 8F2B     		.uleb128 .LEHB529-.LFB1120
 9606 0bb0 05       		.uleb128 .LEHE529-.LEHB529
 9607 0bb1 00       		.uleb128 0
 9608 0bb2 00       		.uleb128 0
 9609 0bb3 A52B     		.uleb128 .LEHB530-.LFB1120
 9610 0bb5 2A       		.uleb128 .LEHE530-.LEHB530
 9611 0bb6 ED2B     		.uleb128 .L712-.LFB1120
 9612 0bb8 00       		.uleb128 0
 9613 0bb9 CF2B     		.uleb128 .LEHB531-.LFB1120
 9614 0bbb 05       		.uleb128 .LEHE531-.LEHB531
 9615 0bbc 00       		.uleb128 0
 9616 0bbd 00       		.uleb128 0
 9617 0bbe E82B     		.uleb128 .LEHB532-.LFB1120
 9618 0bc0 05       		.uleb128 .LEHE532-.LEHB532
 9619 0bc1 00       		.uleb128 0
 9620 0bc2 00       		.uleb128 0
 9621 0bc3 F82B     		.uleb128 .LEHB533-.LFB1120
 9622 0bc5 05       		.uleb128 .LEHE533-.LEHB533
 9623 0bc6 00       		.uleb128 0
 9624 0bc7 00       		.uleb128 0
 9625 0bc8 852C     		.uleb128 .LEHB534-.LFB1120
 9626 0bca 2A       		.uleb128 .LEHE534-.LEHB534
 9627 0bcb F92C     		.uleb128 .L710-.LFB1120
 9628 0bcd 00       		.uleb128 0
 9629 0bce AF2C     		.uleb128 .LEHB535-.LFB1120
 9630 0bd0 05       		.uleb128 .LEHE535-.LEHB535
 9631 0bd1 00       		.uleb128 0
 9632 0bd2 00       		.uleb128 0
 9633 0bd3 C52C     		.uleb128 .LEHB536-.LFB1120
 9634 0bd5 2A       		.uleb128 .LEHE536-.LEHB536
 9635 0bd6 8D2D     		.uleb128 .L708-.LFB1120
 9636 0bd8 00       		.uleb128 0
 9637 0bd9 EF2C     		.uleb128 .LEHB537-.LFB1120
 9638 0bdb 05       		.uleb128 .LEHE537-.LEHB537
 9639 0bdc 00       		.uleb128 0
 9640 0bdd 00       		.uleb128 0
 9641 0bde 882D     		.uleb128 .LEHB538-.LFB1120
 9642 0be0 05       		.uleb128 .LEHE538-.LEHB538
 9643 0be1 00       		.uleb128 0
 9644 0be2 00       		.uleb128 0
 9645 0be3 982D     		.uleb128 .LEHB539-.LFB1120
 9646 0be5 05       		.uleb128 .LEHE539-.LEHB539
 9647 0be6 00       		.uleb128 0
 9648 0be7 00       		.uleb128 0
 9649              	.LLSDACSE1120:
 9650 0be8 01       		.byte	0x1
 9651 0be9 00       		.byte	0
 9652 0bea 0000     		.align 4
 9653 0bec 00000000 		.long	0
 9654              	
 9655              	.LLSDATT1120:
 9656              		.text
 9658 48fd 90       		.align 2
 9659 48fe 6690     		.p2align 4,,15
 9660              		.globl	_ZNK21TestQueue_testRealloc7RunImplEv
 9662              	_ZNK21TestQueue_testRealloc7RunImplEv:
 9663              	.LFB1124:
 9664              		.cfi_startproc
 9665 4900 4883EC08 		subq	$8, %rsp
 9666              		.cfi_def_cfa_offset 16
 9667 4904 31FF     		xorl	%edi, %edi
 9668 4906 E8000000 		call	_Z11testReallocm
 9668      00
 9669 490b BF010000 		movl	$1, %edi
 9669      00
 9670 4910 E8000000 		call	_Z11testReallocm
 9670      00
 9671 4915 BF020000 		movl	$2, %edi
 9671      00
 9672 491a E8000000 		call	_Z11testReallocm
 9672      00
 9673 491f BF030000 		movl	$3, %edi
 9673      00
 9674 4924 4883C408 		addq	$8, %rsp
 9675              		.cfi_def_cfa_offset 8
 9676 4928 E9000000 		jmp	_Z11testReallocm
 9676      00
 9677              		.cfi_endproc
 9678              	.LFE1124:
 9680              		.section	.rodata.str1.1
 9681              	.LC51:
 9682 0014 74657374 		.string	"testCore.cpp"
 9682      436F7265 
 9682      2E637070 
 9682      00
 9683              	.LC52:
 9684 0021 44656661 		.string	"DefaultSuite"
 9684      756C7453 
 9684      75697465 
 9684      00
 9685              	.LC53:
 9686 002e 51756575 		.string	"Queue_testInit"
 9686      655F7465 
 9686      7374496E 
 9686      697400
 9687              	.LC54:
 9688 003d 51756575 		.string	"Queue_testPutNoWrap"
 9688      655F7465 
 9688      73745075 
 9688      744E6F57 
 9688      72617000 
 9689              	.LC55:
 9690 0051 51756575 		.string	"Queue_testPutWrap"
 9690      655F7465 
 9690      73745075 
 9690      74577261 
 9690      7000
 9691              	.LC56:
 9692 0063 51756575 		.string	"Queue_testPutTake"
 9692      655F7465 
 9692      73745075 
 9692      7454616B 
 9692      6500
 9693              	.LC57:
 9694 0075 51756575 		.string	"Queue_testRealloc"
 9694      655F7465 
 9694      73745265 
 9694      616C6C6F 
 9694      6300
 9695              	.LC58:
 9696 0087 51756575 		.string	"Queue_testAllocOOM"
 9696      655F7465 
 9696      7374416C 
 9696      6C6F634F 
 9696      4F4D00
 9697              	.LC59:
 9698 009a 51756575 		.string	"Queue_testReallocOOM"
 9698      655F7465 
 9698      73745265 
 9698      616C6C6F 
 9698      634F4F4D 
 9699              	.LC60:
 9700 00af 51756575 		.string	"Queue_testAllocFreeMatching"
 9700      655F7465 
 9700      7374416C 
 9700      6C6F6346 
 9700      7265654D 
 9701              		.section	.text.startup,"ax",@progbits
 9702              		.p2align 4,,15
 9704              	_GLOBAL__sub_I_createInt:
 9705              	.LFB1255:
 9706              		.cfi_startproc
 9707 0000 4883EC08 		subq	$8, %rsp
 9708              		.cfi_def_cfa_offset 16
 9709 0004 BF000000 		movl	$_ZStL8__ioinit, %edi
 9709      00
 9710 0009 E8000000 		call	_ZNSt8ios_base4InitC1Ev
 9710      00
 9711 000e BA000000 		movl	$__dso_handle, %edx
 9711      00
 9712 0013 BE000000 		movl	$_ZStL8__ioinit, %esi
 9712      00
 9713 0018 BF000000 		movl	$_ZNSt8ios_base4InitD1Ev, %edi
 9713      00
 9714 001d E8000000 		call	__cxa_atexit
 9714      00
 9715 0022 41B83500 		movl	$53, %r8d
 9715      0000
 9716 0028 B9000000 		movl	$.LC51, %ecx
 9716      00
 9717 002d BA000000 		movl	$.LC52, %edx
 9717      00
 9718 0032 BE000000 		movl	$.LC53, %esi
 9718      00
 9719 0037 BF000000 		movl	$testQueue_testInitInstance, %edi
 9719      00
 9720 003c E8000000 		call	_ZN8UnitTest4TestC2EPKcS2_S2_i
 9720      00
 9721 0041 BA000000 		movl	$__dso_handle, %edx
 9721      00
 9722 0046 BE000000 		movl	$testQueue_testInitInstance, %esi
 9722      00
 9723 004b BF000000 		movl	$_ZN18TestQueue_testInitD1Ev, %edi
 9723      00
 9724 0050 48C70500 		movq	$_ZTV18TestQueue_testInit+16, testQueue_testInitInstance(%rip)
 9724      00000000 
 9724      000000
 9725 005b E8000000 		call	__cxa_atexit
 9725      00
 9726 0060 E8000000 		call	_ZN8UnitTest4Test11GetTestListEv
 9726      00
 9727 0065 BA000000 		movl	$testQueue_testInitInstance, %edx
 9727      00
 9728 006a 4889C6   		movq	%rax, %rsi
 9729 006d BF000000 		movl	$adderQueue_testInit, %edi
 9729      00
 9730 0072 E8000000 		call	_ZN8UnitTest9ListAdderC1ERNS_8TestListEPNS_4TestE
 9730      00
 9731 0077 41B84D00 		movl	$77, %r8d
 9731      0000
 9732 007d B9000000 		movl	$.LC51, %ecx
 9732      00
 9733 0082 BA000000 		movl	$.LC52, %edx
 9733      00
 9734 0087 BE000000 		movl	$.LC54, %esi
 9734      00
 9735 008c BF000000 		movl	$testQueue_testPutNoWrapInstance, %edi
 9735      00
 9736 0091 E8000000 		call	_ZN8UnitTest4TestC2EPKcS2_S2_i
 9736      00
 9737 0096 BA000000 		movl	$__dso_handle, %edx
 9737      00
 9738 009b BE000000 		movl	$testQueue_testPutNoWrapInstance, %esi
 9738      00
 9739 00a0 BF000000 		movl	$_ZN23TestQueue_testPutNoWrapD1Ev, %edi
 9739      00
 9740 00a5 48C70500 		movq	$_ZTV23TestQueue_testPutNoWrap+16, testQueue_testPutNoWrapInstance(%rip)
 9740      00000000 
 9740      000000
 9741 00b0 E8000000 		call	__cxa_atexit
 9741      00
 9742 00b5 E8000000 		call	_ZN8UnitTest4Test11GetTestListEv
 9742      00
 9743 00ba BA000000 		movl	$testQueue_testPutNoWrapInstance, %edx
 9743      00
 9744 00bf 4889C6   		movq	%rax, %rsi
 9745 00c2 BF000000 		movl	$adderQueue_testPutNoWrap, %edi
 9745      00
 9746 00c7 E8000000 		call	_ZN8UnitTest9ListAdderC1ERNS_8TestListEPNS_4TestE
 9746      00
 9747 00cc 41B87700 		movl	$119, %r8d
 9747      0000
 9748 00d2 B9000000 		movl	$.LC51, %ecx
 9748      00
 9749 00d7 BA000000 		movl	$.LC52, %edx
 9749      00
 9750 00dc BE000000 		movl	$.LC55, %esi
 9750      00
 9751 00e1 BF000000 		movl	$testQueue_testPutWrapInstance, %edi
 9751      00
 9752 00e6 E8000000 		call	_ZN8UnitTest4TestC2EPKcS2_S2_i
 9752      00
 9753 00eb BA000000 		movl	$__dso_handle, %edx
 9753      00
 9754 00f0 BE000000 		movl	$testQueue_testPutWrapInstance, %esi
 9754      00
 9755 00f5 BF000000 		movl	$_ZN21TestQueue_testPutWrapD1Ev, %edi
 9755      00
 9756 00fa 48C70500 		movq	$_ZTV21TestQueue_testPutWrap+16, testQueue_testPutWrapInstance(%rip)
 9756      00000000 
 9756      000000
 9757 0105 E8000000 		call	__cxa_atexit
 9757      00
 9758 010a E8000000 		call	_ZN8UnitTest4Test11GetTestListEv
 9758      00
 9759 010f BA000000 		movl	$testQueue_testPutWrapInstance, %edx
 9759      00
 9760 0114 4889C6   		movq	%rax, %rsi
 9761 0117 BF000000 		movl	$adderQueue_testPutWrap, %edi
 9761      00
 9762 011c E8000000 		call	_ZN8UnitTest9ListAdderC1ERNS_8TestListEPNS_4TestE
 9762      00
 9763 0121 41B8A600 		movl	$166, %r8d
 9763      0000
 9764 0127 B9000000 		movl	$.LC51, %ecx
 9764      00
 9765 012c BA000000 		movl	$.LC52, %edx
 9765      00
 9766 0131 BE000000 		movl	$.LC56, %esi
 9766      00
 9767 0136 BF000000 		movl	$testQueue_testPutTakeInstance, %edi
 9767      00
 9768 013b E8000000 		call	_ZN8UnitTest4TestC2EPKcS2_S2_i
 9768      00
 9769 0140 BA000000 		movl	$__dso_handle, %edx
 9769      00
 9770 0145 BE000000 		movl	$testQueue_testPutTakeInstance, %esi
 9770      00
 9771 014a BF000000 		movl	$_ZN21TestQueue_testPutTakeD1Ev, %edi
 9771      00
 9772 014f 48C70500 		movq	$_ZTV21TestQueue_testPutTake+16, testQueue_testPutTakeInstance(%rip)
 9772      00000000 
 9772      000000
 9773 015a E8000000 		call	__cxa_atexit
 9773      00
 9774 015f E8000000 		call	_ZN8UnitTest4Test11GetTestListEv
 9774      00
 9775 0164 BA000000 		movl	$testQueue_testPutTakeInstance, %edx
 9775      00
 9776 0169 4889C6   		movq	%rax, %rsi
 9777 016c BF000000 		movl	$adderQueue_testPutTake, %edi
 9777      00
 9778 0171 E8000000 		call	_ZN8UnitTest9ListAdderC1ERNS_8TestListEPNS_4TestE
 9778      00
 9779 0176 41B84401 		movl	$324, %r8d
 9779      0000
 9780 017c B9000000 		movl	$.LC51, %ecx
 9780      00
 9781 0181 BA000000 		movl	$.LC52, %edx
 9781      00
 9782 0186 BE000000 		movl	$.LC57, %esi
 9782      00
 9783 018b BF000000 		movl	$testQueue_testReallocInstance, %edi
 9783      00
 9784 0190 E8000000 		call	_ZN8UnitTest4TestC2EPKcS2_S2_i
 9784      00
 9785 0195 BA000000 		movl	$__dso_handle, %edx
 9785      00
 9786 019a BE000000 		movl	$testQueue_testReallocInstance, %esi
 9786      00
 9787 019f BF000000 		movl	$_ZN21TestQueue_testReallocD1Ev, %edi
 9787      00
 9788 01a4 48C70500 		movq	$_ZTV21TestQueue_testRealloc+16, testQueue_testReallocInstance(%rip)
 9788      00000000 
 9788      000000
 9789 01af E8000000 		call	__cxa_atexit
 9789      00
 9790 01b4 E8000000 		call	_ZN8UnitTest4Test11GetTestListEv
 9790      00
 9791 01b9 BA000000 		movl	$testQueue_testReallocInstance, %edx
 9791      00
 9792 01be 4889C6   		movq	%rax, %rsi
 9793 01c1 BF000000 		movl	$adderQueue_testRealloc, %edi
 9793      00
 9794 01c6 E8000000 		call	_ZN8UnitTest9ListAdderC1ERNS_8TestListEPNS_4TestE
 9794      00
 9795 01cb 41B84B01 		movl	$331, %r8d
 9795      0000
 9796 01d1 B9000000 		movl	$.LC51, %ecx
 9796      00
 9797 01d6 BA000000 		movl	$.LC52, %edx
 9797      00
 9798 01db BE000000 		movl	$.LC58, %esi
 9798      00
 9799 01e0 BF000000 		movl	$testQueue_testAllocOOMInstance, %edi
 9799      00
 9800 01e5 E8000000 		call	_ZN8UnitTest4TestC2EPKcS2_S2_i
 9800      00
 9801 01ea BA000000 		movl	$__dso_handle, %edx
 9801      00
 9802 01ef BE000000 		movl	$testQueue_testAllocOOMInstance, %esi
 9802      00
 9803 01f4 BF000000 		movl	$_ZN22TestQueue_testAllocOOMD1Ev, %edi
 9803      00
 9804 01f9 48C70500 		movq	$_ZTV22TestQueue_testAllocOOM+16, testQueue_testAllocOOMInstance(%rip)
 9804      00000000 
 9804      000000
 9805 0204 E8000000 		call	__cxa_atexit
 9805      00
 9806 0209 E8000000 		call	_ZN8UnitTest4Test11GetTestListEv
 9806      00
 9807 020e BA000000 		movl	$testQueue_testAllocOOMInstance, %edx
 9807      00
 9808 0213 4889C6   		movq	%rax, %rsi
 9809 0216 BF000000 		movl	$adderQueue_testAllocOOM, %edi
 9809      00
 9810 021b E8000000 		call	_ZN8UnitTest9ListAdderC1ERNS_8TestListEPNS_4TestE
 9810      00
 9811 0220 41B85601 		movl	$342, %r8d
 9811      0000
 9812 0226 B9000000 		movl	$.LC51, %ecx
 9812      00
 9813 022b BA000000 		movl	$.LC52, %edx
 9813      00
 9814 0230 BE000000 		movl	$.LC59, %esi
 9814      00
 9815 0235 BF000000 		movl	$testQueue_testReallocOOMInstance, %edi
 9815      00
 9816 023a E8000000 		call	_ZN8UnitTest4TestC2EPKcS2_S2_i
 9816      00
 9817 023f BA000000 		movl	$__dso_handle, %edx
 9817      00
 9818 0244 BE000000 		movl	$testQueue_testReallocOOMInstance, %esi
 9818      00
 9819 0249 BF000000 		movl	$_ZN24TestQueue_testReallocOOMD1Ev, %edi
 9819      00
 9820 024e 48C70500 		movq	$_ZTV24TestQueue_testReallocOOM+16, testQueue_testReallocOOMInstance(%rip)
 9820      00000000 
 9820      000000
 9821 0259 E8000000 		call	__cxa_atexit
 9821      00
 9822 025e E8000000 		call	_ZN8UnitTest4Test11GetTestListEv
 9822      00
 9823 0263 BA000000 		movl	$testQueue_testReallocOOMInstance, %edx
 9823      00
 9824 0268 4889C6   		movq	%rax, %rsi
 9825 026b BF000000 		movl	$adderQueue_testReallocOOM, %edi
 9825      00
 9826 0270 E8000000 		call	_ZN8UnitTest9ListAdderC1ERNS_8TestListEPNS_4TestE
 9826      00
 9827 0275 41B88001 		movl	$384, %r8d
 9827      0000
 9828 027b B9000000 		movl	$.LC51, %ecx
 9828      00
 9829 0280 BA000000 		movl	$.LC52, %edx
 9829      00
 9830 0285 BE000000 		movl	$.LC60, %esi
 9830      00
 9831 028a BF000000 		movl	$testQueue_testAllocFreeMatchingInstance, %edi
 9831      00
 9832 028f E8000000 		call	_ZN8UnitTest4TestC2EPKcS2_S2_i
 9832      00
 9833 0294 BA000000 		movl	$__dso_handle, %edx
 9833      00
 9834 0299 BE000000 		movl	$testQueue_testAllocFreeMatchingInstance, %esi
 9834      00
 9835 029e BF000000 		movl	$_ZN31TestQueue_testAllocFreeMatchingD1Ev, %edi
 9835      00
 9836 02a3 48C70500 		movq	$_ZTV31TestQueue_testAllocFreeMatching+16, testQueue_testAllocFreeMatchingInstance(%rip)
 9836      00000000 
 9836      000000
 9837 02ae E8000000 		call	__cxa_atexit
 9837      00
 9838 02b3 E8000000 		call	_ZN8UnitTest4Test11GetTestListEv
 9838      00
 9839 02b8 BA000000 		movl	$testQueue_testAllocFreeMatchingInstance, %edx
 9839      00
 9840 02bd 4889C6   		movq	%rax, %rsi
 9841 02c0 BF000000 		movl	$adderQueue_testAllocFreeMatching, %edi
 9841      00
 9842 02c5 4883C408 		addq	$8, %rsp
 9843              		.cfi_def_cfa_offset 8
 9844 02c9 E9000000 		jmp	_ZN8UnitTest9ListAdderC1ERNS_8TestListEPNS_4TestE
 9844      00
 9845              		.cfi_endproc
 9846              	.LFE1255:
 9848              		.section	.init_array,"aw"
 9849              		.align 8
 9850 0000 00000000 		.quad	_GLOBAL__sub_I_createInt
 9850      00000000 
 9851              		.weak	_ZTIN8UnitTest15MemoryOutStreamE
 9852              		.section	.rodata._ZTIN8UnitTest15MemoryOutStreamE,"aG",@progbits,_ZTIN8UnitTest15MemoryOutStreamE,
 9853              		.align 16
 9856              	_ZTIN8UnitTest15MemoryOutStreamE:
 9857 0000 00000000 		.quad	_ZTVN10__cxxabiv120__si_class_type_infoE+16
 9857      00000000 
 9858 0008 00000000 		.quad	_ZTSN8UnitTest15MemoryOutStreamE
 9858      00000000 
 9859 0010 00000000 		.quad	_ZTISt19basic_ostringstreamIcSt11char_traitsIcESaIcEE
 9859      00000000 
 9860              		.weak	_ZTSN8UnitTest15MemoryOutStreamE
 9861              		.section	.rodata._ZTSN8UnitTest15MemoryOutStreamE,"aG",@progbits,_ZTSN8UnitTest15MemoryOutStreamE,
 9862              		.align 16
 9865              	_ZTSN8UnitTest15MemoryOutStreamE:
 9866 0000 4E38556E 		.string	"N8UnitTest15MemoryOutStreamE"
 9866      69745465 
 9866      73743135 
 9866      4D656D6F 
 9866      72794F75 
 9867              		.weak	_ZTS18TestQueue_testInit
 9868              		.section	.rodata._ZTS18TestQueue_testInit,"aG",@progbits,_ZTS18TestQueue_testInit,comdat
 9869              		.align 16
 9872              	_ZTS18TestQueue_testInit:
 9873 0000 31385465 		.string	"18TestQueue_testInit"
 9873      73745175 
 9873      6575655F 
 9873      74657374 
 9873      496E6974 
 9874              		.weak	_ZTI18TestQueue_testInit
 9875              		.section	.rodata._ZTI18TestQueue_testInit,"aG",@progbits,_ZTI18TestQueue_testInit,comdat
 9876              		.align 16
 9879              	_ZTI18TestQueue_testInit:
 9880 0000 00000000 		.quad	_ZTVN10__cxxabiv120__si_class_type_infoE+16
 9880      00000000 
 9881 0008 00000000 		.quad	_ZTS18TestQueue_testInit
 9881      00000000 
 9882 0010 00000000 		.quad	_ZTIN8UnitTest4TestE
 9882      00000000 
 9883              		.weak	_ZTS23TestQueue_testPutNoWrap
 9884              		.section	.rodata._ZTS23TestQueue_testPutNoWrap,"aG",@progbits,_ZTS23TestQueue_testPutNoWrap,comdat
 9885              		.align 16
 9888              	_ZTS23TestQueue_testPutNoWrap:
 9889 0000 32335465 		.string	"23TestQueue_testPutNoWrap"
 9889      73745175 
 9889      6575655F 
 9889      74657374 
 9889      5075744E 
 9890              		.weak	_ZTI23TestQueue_testPutNoWrap
 9891              		.section	.rodata._ZTI23TestQueue_testPutNoWrap,"aG",@progbits,_ZTI23TestQueue_testPutNoWrap,comdat
 9892              		.align 16
 9895              	_ZTI23TestQueue_testPutNoWrap:
 9896 0000 00000000 		.quad	_ZTVN10__cxxabiv120__si_class_type_infoE+16
 9896      00000000 
 9897 0008 00000000 		.quad	_ZTS23TestQueue_testPutNoWrap
 9897      00000000 
 9898 0010 00000000 		.quad	_ZTIN8UnitTest4TestE
 9898      00000000 
 9899              		.weak	_ZTS21TestQueue_testPutWrap
 9900              		.section	.rodata._ZTS21TestQueue_testPutWrap,"aG",@progbits,_ZTS21TestQueue_testPutWrap,comdat
 9901              		.align 16
 9904              	_ZTS21TestQueue_testPutWrap:
 9905 0000 32315465 		.string	"21TestQueue_testPutWrap"
 9905      73745175 
 9905      6575655F 
 9905      74657374 
 9905      50757457 
 9906              		.weak	_ZTI21TestQueue_testPutWrap
 9907              		.section	.rodata._ZTI21TestQueue_testPutWrap,"aG",@progbits,_ZTI21TestQueue_testPutWrap,comdat
 9908              		.align 16
 9911              	_ZTI21TestQueue_testPutWrap:
 9912 0000 00000000 		.quad	_ZTVN10__cxxabiv120__si_class_type_infoE+16
 9912      00000000 
 9913 0008 00000000 		.quad	_ZTS21TestQueue_testPutWrap
 9913      00000000 
 9914 0010 00000000 		.quad	_ZTIN8UnitTest4TestE
 9914      00000000 
 9915              		.weak	_ZTS21TestQueue_testPutTake
 9916              		.section	.rodata._ZTS21TestQueue_testPutTake,"aG",@progbits,_ZTS21TestQueue_testPutTake,comdat
 9917              		.align 16
 9920              	_ZTS21TestQueue_testPutTake:
 9921 0000 32315465 		.string	"21TestQueue_testPutTake"
 9921      73745175 
 9921      6575655F 
 9921      74657374 
 9921      50757454 
 9922              		.weak	_ZTI21TestQueue_testPutTake
 9923              		.section	.rodata._ZTI21TestQueue_testPutTake,"aG",@progbits,_ZTI21TestQueue_testPutTake,comdat
 9924              		.align 16
 9927              	_ZTI21TestQueue_testPutTake:
 9928 0000 00000000 		.quad	_ZTVN10__cxxabiv120__si_class_type_infoE+16
 9928      00000000 
 9929 0008 00000000 		.quad	_ZTS21TestQueue_testPutTake
 9929      00000000 
 9930 0010 00000000 		.quad	_ZTIN8UnitTest4TestE
 9930      00000000 
 9931              		.weak	_ZTS21TestQueue_testRealloc
 9932              		.section	.rodata._ZTS21TestQueue_testRealloc,"aG",@progbits,_ZTS21TestQueue_testRealloc,comdat
 9933              		.align 16
 9936              	_ZTS21TestQueue_testRealloc:
 9937 0000 32315465 		.string	"21TestQueue_testRealloc"
 9937      73745175 
 9937      6575655F 
 9937      74657374 
 9937      5265616C 
 9938              		.weak	_ZTI21TestQueue_testRealloc
 9939              		.section	.rodata._ZTI21TestQueue_testRealloc,"aG",@progbits,_ZTI21TestQueue_testRealloc,comdat
 9940              		.align 16
 9943              	_ZTI21TestQueue_testRealloc:
 9944 0000 00000000 		.quad	_ZTVN10__cxxabiv120__si_class_type_infoE+16
 9944      00000000 
 9945 0008 00000000 		.quad	_ZTS21TestQueue_testRealloc
 9945      00000000 
 9946 0010 00000000 		.quad	_ZTIN8UnitTest4TestE
 9946      00000000 
 9947              		.weak	_ZTS22TestQueue_testAllocOOM
 9948              		.section	.rodata._ZTS22TestQueue_testAllocOOM,"aG",@progbits,_ZTS22TestQueue_testAllocOOM,comdat
 9949              		.align 16
 9952              	_ZTS22TestQueue_testAllocOOM:
 9953 0000 32325465 		.string	"22TestQueue_testAllocOOM"
 9953      73745175 
 9953      6575655F 
 9953      74657374 
 9953      416C6C6F 
 9954              		.weak	_ZTI22TestQueue_testAllocOOM
 9955              		.section	.rodata._ZTI22TestQueue_testAllocOOM,"aG",@progbits,_ZTI22TestQueue_testAllocOOM,comdat
 9956              		.align 16
 9959              	_ZTI22TestQueue_testAllocOOM:
 9960 0000 00000000 		.quad	_ZTVN10__cxxabiv120__si_class_type_infoE+16
 9960      00000000 
 9961 0008 00000000 		.quad	_ZTS22TestQueue_testAllocOOM
 9961      00000000 
 9962 0010 00000000 		.quad	_ZTIN8UnitTest4TestE
 9962      00000000 
 9963              		.weak	_ZTS24TestQueue_testReallocOOM
 9964              		.section	.rodata._ZTS24TestQueue_testReallocOOM,"aG",@progbits,_ZTS24TestQueue_testReallocOOM,comd
 9965              		.align 16
 9968              	_ZTS24TestQueue_testReallocOOM:
 9969 0000 32345465 		.string	"24TestQueue_testReallocOOM"
 9969      73745175 
 9969      6575655F 
 9969      74657374 
 9969      5265616C 
 9970              		.weak	_ZTI24TestQueue_testReallocOOM
 9971              		.section	.rodata._ZTI24TestQueue_testReallocOOM,"aG",@progbits,_ZTI24TestQueue_testReallocOOM,comd
 9972              		.align 16
 9975              	_ZTI24TestQueue_testReallocOOM:
 9976 0000 00000000 		.quad	_ZTVN10__cxxabiv120__si_class_type_infoE+16
 9976      00000000 
 9977 0008 00000000 		.quad	_ZTS24TestQueue_testReallocOOM
 9977      00000000 
 9978 0010 00000000 		.quad	_ZTIN8UnitTest4TestE
 9978      00000000 
 9979              		.weak	_ZTS31TestQueue_testAllocFreeMatching
 9980              		.section	.rodata._ZTS31TestQueue_testAllocFreeMatching,"aG",@progbits,_ZTS31TestQueue_testAllocFre
 9981              		.align 32
 9984              	_ZTS31TestQueue_testAllocFreeMatching:
 9985 0000 33315465 		.string	"31TestQueue_testAllocFreeMatching"
 9985      73745175 
 9985      6575655F 
 9985      74657374 
 9985      416C6C6F 
 9986              		.weak	_ZTI31TestQueue_testAllocFreeMatching
 9987              		.section	.rodata._ZTI31TestQueue_testAllocFreeMatching,"aG",@progbits,_ZTI31TestQueue_testAllocFre
 9988              		.align 16
 9991              	_ZTI31TestQueue_testAllocFreeMatching:
 9992 0000 00000000 		.quad	_ZTVN10__cxxabiv120__si_class_type_infoE+16
 9992      00000000 
 9993 0008 00000000 		.quad	_ZTS31TestQueue_testAllocFreeMatching
 9993      00000000 
 9994 0010 00000000 		.quad	_ZTIN8UnitTest4TestE
 9994      00000000 
 9995              		.hidden	_ZTCN8UnitTest15MemoryOutStreamE0_So
 9996              		.weak	_ZTCN8UnitTest15MemoryOutStreamE0_So
 9997              		.section	.rodata._ZTCN8UnitTest15MemoryOutStreamE0_So,"aG",@progbits,_ZTVN8UnitTest15MemoryOutStre
 9998              		.align 32
 10001              	_ZTCN8UnitTest15MemoryOutStreamE0_So:
 10002 0000 60000000 		.quad	96
 10002      00000000 
 10003 0008 00000000 		.quad	0
 10003      00000000 
 10004 0010 00000000 		.quad	_ZTISo
 10004      00000000 
 10005 0018 00000000 		.quad	_ZNSoD1Ev
 10005      00000000 
 10006 0020 00000000 		.quad	_ZNSoD0Ev
 10006      00000000 
 10007 0028 A0FFFFFF 		.quad	-96
 10007      FFFFFFFF 
 10008 0030 A0FFFFFF 		.quad	-96
 10008      FFFFFFFF 
 10009 0038 00000000 		.quad	_ZTISo
 10009      00000000 
 10010 0040 00000000 		.quad	_ZTv0_n24_NSoD1Ev
 10010      00000000 
 10011 0048 00000000 		.quad	_ZTv0_n24_NSoD0Ev
 10011      00000000 
 10012              		.hidden	_ZTCN8UnitTest15MemoryOutStreamE0_St19basic_ostringstreamIcSt11char_traitsIcESaIcEE
 10013              		.weak	_ZTCN8UnitTest15MemoryOutStreamE0_St19basic_ostringstreamIcSt11char_traitsIcESaIcEE
 10014              		.section	.rodata._ZTCN8UnitTest15MemoryOutStreamE0_St19basic_ostringstreamIcSt11char_traitsIcESaIc
 10015              		.align 32
 10018              	_ZTCN8UnitTest15MemoryOutStreamE0_St19basic_ostringstreamIcSt11char_traitsIcESaIcEE:
 10019 0000 60000000 		.quad	96
 10019      00000000 
 10020 0008 00000000 		.quad	0
 10020      00000000 
 10021 0010 00000000 		.quad	_ZTISt19basic_ostringstreamIcSt11char_traitsIcESaIcEE
 10021      00000000 
 10022 0018 00000000 		.quad	_ZNSt19basic_ostringstreamIcSt11char_traitsIcESaIcEED1Ev
 10022      00000000 
 10023 0020 00000000 		.quad	_ZNSt19basic_ostringstreamIcSt11char_traitsIcESaIcEED0Ev
 10023      00000000 
 10024 0028 A0FFFFFF 		.quad	-96
 10024      FFFFFFFF 
 10025 0030 A0FFFFFF 		.quad	-96
 10025      FFFFFFFF 
 10026 0038 00000000 		.quad	_ZTISt19basic_ostringstreamIcSt11char_traitsIcESaIcEE
 10026      00000000 
 10027 0040 00000000 		.quad	_ZTv0_n24_NSt19basic_ostringstreamIcSt11char_traitsIcESaIcEED1Ev
 10027      00000000 
 10028 0048 00000000 		.quad	_ZTv0_n24_NSt19basic_ostringstreamIcSt11char_traitsIcESaIcEED0Ev
 10028      00000000 
 10029              		.weak	_ZTTN8UnitTest15MemoryOutStreamE
 10030              		.section	.rodata._ZTTN8UnitTest15MemoryOutStreamE,"aG",@progbits,_ZTVN8UnitTest15MemoryOutStreamE,
 10031              		.align 32
 10034              	_ZTTN8UnitTest15MemoryOutStreamE:
 10035 0000 00000000 		.quad	_ZTVN8UnitTest15MemoryOutStreamE+24
 10035      00000000 
 10036 0008 00000000 		.quad	_ZTCN8UnitTest15MemoryOutStreamE0_St19basic_ostringstreamIcSt11char_traitsIcESaIcEE+24
 10036      00000000 
 10037 0010 00000000 		.quad	_ZTCN8UnitTest15MemoryOutStreamE0_So+24
 10037      00000000 
 10038 0018 00000000 		.quad	_ZTCN8UnitTest15MemoryOutStreamE0_So+64
 10038      00000000 
 10039 0020 00000000 		.quad	_ZTCN8UnitTest15MemoryOutStreamE0_St19basic_ostringstreamIcSt11char_traitsIcESaIcEE+64
 10039      00000000 
 10040 0028 00000000 		.quad	_ZTVN8UnitTest15MemoryOutStreamE+64
 10040      00000000 
 10041              		.weak	_ZTVN8UnitTest15MemoryOutStreamE
 10042              		.section	.rodata._ZTVN8UnitTest15MemoryOutStreamE,"aG",@progbits,_ZTVN8UnitTest15MemoryOutStreamE,
 10043              		.align 32
 10046              	_ZTVN8UnitTest15MemoryOutStreamE:
 10047 0000 60000000 		.quad	96
 10047      00000000 
 10048 0008 00000000 		.quad	0
 10048      00000000 
 10049 0010 00000000 		.quad	_ZTIN8UnitTest15MemoryOutStreamE
 10049      00000000 
 10050 0018 00000000 		.quad	_ZN8UnitTest15MemoryOutStreamD1Ev
 10050      00000000 
 10051 0020 00000000 		.quad	_ZN8UnitTest15MemoryOutStreamD0Ev
 10051      00000000 
 10052 0028 A0FFFFFF 		.quad	-96
 10052      FFFFFFFF 
 10053 0030 A0FFFFFF 		.quad	-96
 10053      FFFFFFFF 
 10054 0038 00000000 		.quad	_ZTIN8UnitTest15MemoryOutStreamE
 10054      00000000 
 10055 0040 00000000 		.quad	_ZTv0_n24_N8UnitTest15MemoryOutStreamD1Ev
 10055      00000000 
 10056 0048 00000000 		.quad	_ZTv0_n24_N8UnitTest15MemoryOutStreamD0Ev
 10056      00000000 
 10057              		.weak	_ZTV18TestQueue_testInit
 10058              		.section	.rodata._ZTV18TestQueue_testInit,"aG",@progbits,_ZTV18TestQueue_testInit,comdat
 10059              		.align 32
 10062              	_ZTV18TestQueue_testInit:
 10063 0000 00000000 		.quad	0
 10063      00000000 
 10064 0008 00000000 		.quad	_ZTI18TestQueue_testInit
 10064      00000000 
 10065 0010 00000000 		.quad	_ZN18TestQueue_testInitD1Ev
 10065      00000000 
 10066 0018 00000000 		.quad	_ZN18TestQueue_testInitD0Ev
 10066      00000000 
 10067 0020 00000000 		.quad	_ZNK18TestQueue_testInit7RunImplEv
 10067      00000000 
 10068              		.weak	_ZTV23TestQueue_testPutNoWrap
 10069              		.section	.rodata._ZTV23TestQueue_testPutNoWrap,"aG",@progbits,_ZTV23TestQueue_testPutNoWrap,comdat
 10070              		.align 32
 10073              	_ZTV23TestQueue_testPutNoWrap:
 10074 0000 00000000 		.quad	0
 10074      00000000 
 10075 0008 00000000 		.quad	_ZTI23TestQueue_testPutNoWrap
 10075      00000000 
 10076 0010 00000000 		.quad	_ZN23TestQueue_testPutNoWrapD1Ev
 10076      00000000 
 10077 0018 00000000 		.quad	_ZN23TestQueue_testPutNoWrapD0Ev
 10077      00000000 
 10078 0020 00000000 		.quad	_ZNK23TestQueue_testPutNoWrap7RunImplEv
 10078      00000000 
 10079              		.weak	_ZTV21TestQueue_testPutWrap
 10080              		.section	.rodata._ZTV21TestQueue_testPutWrap,"aG",@progbits,_ZTV21TestQueue_testPutWrap,comdat
 10081              		.align 32
 10084              	_ZTV21TestQueue_testPutWrap:
 10085 0000 00000000 		.quad	0
 10085      00000000 
 10086 0008 00000000 		.quad	_ZTI21TestQueue_testPutWrap
 10086      00000000 
 10087 0010 00000000 		.quad	_ZN21TestQueue_testPutWrapD1Ev
 10087      00000000 
 10088 0018 00000000 		.quad	_ZN21TestQueue_testPutWrapD0Ev
 10088      00000000 
 10089 0020 00000000 		.quad	_ZNK21TestQueue_testPutWrap7RunImplEv
 10089      00000000 
 10090              		.weak	_ZTV21TestQueue_testPutTake
 10091              		.section	.rodata._ZTV21TestQueue_testPutTake,"aG",@progbits,_ZTV21TestQueue_testPutTake,comdat
 10092              		.align 32
 10095              	_ZTV21TestQueue_testPutTake:
 10096 0000 00000000 		.quad	0
 10096      00000000 
 10097 0008 00000000 		.quad	_ZTI21TestQueue_testPutTake
 10097      00000000 
 10098 0010 00000000 		.quad	_ZN21TestQueue_testPutTakeD1Ev
 10098      00000000 
 10099 0018 00000000 		.quad	_ZN21TestQueue_testPutTakeD0Ev
 10099      00000000 
 10100 0020 00000000 		.quad	_ZNK21TestQueue_testPutTake7RunImplEv
 10100      00000000 
 10101              		.weak	_ZTV21TestQueue_testRealloc
 10102              		.section	.rodata._ZTV21TestQueue_testRealloc,"aG",@progbits,_ZTV21TestQueue_testRealloc,comdat
 10103              		.align 32
 10106              	_ZTV21TestQueue_testRealloc:
 10107 0000 00000000 		.quad	0
 10107      00000000 
 10108 0008 00000000 		.quad	_ZTI21TestQueue_testRealloc
 10108      00000000 
 10109 0010 00000000 		.quad	_ZN21TestQueue_testReallocD1Ev
 10109      00000000 
 10110 0018 00000000 		.quad	_ZN21TestQueue_testReallocD0Ev
 10110      00000000 
 10111 0020 00000000 		.quad	_ZNK21TestQueue_testRealloc7RunImplEv
 10111      00000000 
 10112              		.weak	_ZTV22TestQueue_testAllocOOM
 10113              		.section	.rodata._ZTV22TestQueue_testAllocOOM,"aG",@progbits,_ZTV22TestQueue_testAllocOOM,comdat
 10114              		.align 32
 10117              	_ZTV22TestQueue_testAllocOOM:
 10118 0000 00000000 		.quad	0
 10118      00000000 
 10119 0008 00000000 		.quad	_ZTI22TestQueue_testAllocOOM
 10119      00000000 
 10120 0010 00000000 		.quad	_ZN22TestQueue_testAllocOOMD1Ev
 10120      00000000 
 10121 0018 00000000 		.quad	_ZN22TestQueue_testAllocOOMD0Ev
 10121      00000000 
 10122 0020 00000000 		.quad	_ZNK22TestQueue_testAllocOOM7RunImplEv
 10122      00000000 
 10123              		.weak	_ZTV24TestQueue_testReallocOOM
 10124              		.section	.rodata._ZTV24TestQueue_testReallocOOM,"aG",@progbits,_ZTV24TestQueue_testReallocOOM,comd
 10125              		.align 32
 10128              	_ZTV24TestQueue_testReallocOOM:
 10129 0000 00000000 		.quad	0
 10129      00000000 
 10130 0008 00000000 		.quad	_ZTI24TestQueue_testReallocOOM
 10130      00000000 
 10131 0010 00000000 		.quad	_ZN24TestQueue_testReallocOOMD1Ev
 10131      00000000 
 10132 0018 00000000 		.quad	_ZN24TestQueue_testReallocOOMD0Ev
 10132      00000000 
 10133 0020 00000000 		.quad	_ZNK24TestQueue_testReallocOOM7RunImplEv
 10133      00000000 
 10134              		.weak	_ZTV31TestQueue_testAllocFreeMatching
 10135              		.section	.rodata._ZTV31TestQueue_testAllocFreeMatching,"aG",@progbits,_ZTV31TestQueue_testAllocFre
 10136              		.align 32
 10139              	_ZTV31TestQueue_testAllocFreeMatching:
 10140 0000 00000000 		.quad	0
 10140      00000000 
 10141 0008 00000000 		.quad	_ZTI31TestQueue_testAllocFreeMatching
 10141      00000000 
 10142 0010 00000000 		.quad	_ZN31TestQueue_testAllocFreeMatchingD1Ev
 10142      00000000 
 10143 0018 00000000 		.quad	_ZN31TestQueue_testAllocFreeMatchingD0Ev
 10143      00000000 
 10144 0020 00000000 		.quad	_ZNK31TestQueue_testAllocFreeMatching7RunImplEv
 10144      00000000 
 10145              		.globl	adderQueue_testAllocFreeMatching
 10146              		.bss
 10149              	adderQueue_testAllocFreeMatching:
 10150 0000 00       		.zero	1
 10151              		.globl	testQueue_testAllocFreeMatchingInstance
 10152 0001 00000000 		.align 32
 10152      00000000 
 10152      00000000 
 10152      00000000 
 10152      00000000 
 10155              	testQueue_testAllocFreeMatchingInstance:
 10156 0020 00000000 		.zero	56
 10156      00000000 
 10156      00000000 
 10156      00000000 
 10156      00000000 
 10157              		.globl	adderQueue_testReallocOOM
 10160              	adderQueue_testReallocOOM:
 10161 0058 00       		.zero	1
 10162              		.globl	testQueue_testReallocOOMInstance
 10163 0059 00000000 		.align 32
 10163      000000
 10166              	testQueue_testReallocOOMInstance:
 10167 0060 00000000 		.zero	56
 10167      00000000 
 10167      00000000 
 10167      00000000 
 10167      00000000 
 10168              		.globl	adderQueue_testAllocOOM
 10171              	adderQueue_testAllocOOM:
 10172 0098 00       		.zero	1
 10173              		.globl	testQueue_testAllocOOMInstance
 10174 0099 00000000 		.align 32
 10174      000000
 10177              	testQueue_testAllocOOMInstance:
 10178 00a0 00000000 		.zero	56
 10178      00000000 
 10178      00000000 
 10178      00000000 
 10178      00000000 
 10179              		.globl	adderQueue_testRealloc
 10182              	adderQueue_testRealloc:
 10183 00d8 00       		.zero	1
 10184              		.globl	testQueue_testReallocInstance
 10185 00d9 00000000 		.align 32
 10185      000000
 10188              	testQueue_testReallocInstance:
 10189 00e0 00000000 		.zero	56
 10189      00000000 
 10189      00000000 
 10189      00000000 
 10189      00000000 
 10190              		.globl	adderQueue_testPutTake
 10193              	adderQueue_testPutTake:
 10194 0118 00       		.zero	1
 10195              		.globl	testQueue_testPutTakeInstance
 10196 0119 00000000 		.align 32
 10196      000000
 10199              	testQueue_testPutTakeInstance:
 10200 0120 00000000 		.zero	56
 10200      00000000 
 10200      00000000 
 10200      00000000 
 10200      00000000 
 10201              		.globl	adderQueue_testPutWrap
 10204              	adderQueue_testPutWrap:
 10205 0158 00       		.zero	1
 10206              		.globl	testQueue_testPutWrapInstance
 10207 0159 00000000 		.align 32
 10207      000000
 10210              	testQueue_testPutWrapInstance:
 10211 0160 00000000 		.zero	56
 10211      00000000 
 10211      00000000 
 10211      00000000 
 10211      00000000 
 10212              		.globl	adderQueue_testPutNoWrap
 10215              	adderQueue_testPutNoWrap:
 10216 0198 00       		.zero	1
 10217              		.globl	testQueue_testPutNoWrapInstance
 10218 0199 00000000 		.align 32
 10218      000000
 10221              	testQueue_testPutNoWrapInstance:
 10222 01a0 00000000 		.zero	56
 10222      00000000 
 10222      00000000 
 10222      00000000 
 10222      00000000 
 10223              		.globl	adderQueue_testInit
 10226              	adderQueue_testInit:
 10227 01d8 00       		.zero	1
 10228              		.globl	testQueue_testInitInstance
 10229 01d9 00000000 		.align 32
 10229      000000
 10232              	testQueue_testInitInstance:
 10233 01e0 00000000 		.zero	56
 10233      00000000 
 10233      00000000 
 10233      00000000 
 10233      00000000 
 10234              		.local	_ZL11m_allocFree
 10235              		.comm	_ZL11m_allocFree,4,16
 10236              		.data
 10237              		.align 16
 10240              	_ZL7m_count:
 10241 0000 01000000 		.long	1
 10242              		.local	_ZStL8__ioinit
 10243              		.comm	_ZStL8__ioinit,1,1
 10244              		.weakref	_ZL28__gthrw___pthread_key_createPjPFvPvE,__pthread_key_create
 10245              		.hidden	__dso_handle
 10246              		.ident	"GCC: (Ubuntu 4.8.4-2ubuntu1~14.04.3) 4.8.4"
 10247              		.section	.note.GNU-stack,"",@progbits
DEFINED SYMBOLS
                            *ABS*:0000000000000000 testCore.cpp
     /tmp/ccp9IXAU.s:6      .text:0000000000000000 createInt
     /tmp/ccp9IXAU.s:10240  .data:0000000000000000 _ZL7m_count
     /tmp/ccp9IXAU.s:10235  .bss:0000000000000220 _ZL11m_allocFree
     /tmp/ccp9IXAU.s:35     .text:0000000000000040 destroyInt
     /tmp/ccp9IXAU.s:54     .text._ZN31TestQueue_testAllocFreeMatchingD2Ev:0000000000000000 _ZN31TestQueue_testAllocFreeMatchingD2Ev
     /tmp/ccp9IXAU.s:10139  .rodata._ZTV31TestQueue_testAllocFreeMatching:0000000000000000 _ZTV31TestQueue_testAllocFreeMatching
     /tmp/ccp9IXAU.s:54     .text._ZN31TestQueue_testAllocFreeMatchingD2Ev:0000000000000000 _ZN31TestQueue_testAllocFreeMatchingD1Ev
     /tmp/ccp9IXAU.s:69     .text._ZN31TestQueue_testAllocFreeMatchingD0Ev:0000000000000000 _ZN31TestQueue_testAllocFreeMatchingD0Ev
     /tmp/ccp9IXAU.s:90     .text._ZN24TestQueue_testReallocOOMD2Ev:0000000000000000 _ZN24TestQueue_testReallocOOMD2Ev
     /tmp/ccp9IXAU.s:10128  .rodata._ZTV24TestQueue_testReallocOOM:0000000000000000 _ZTV24TestQueue_testReallocOOM
     /tmp/ccp9IXAU.s:90     .text._ZN24TestQueue_testReallocOOMD2Ev:0000000000000000 _ZN24TestQueue_testReallocOOMD1Ev
     /tmp/ccp9IXAU.s:105    .text._ZN24TestQueue_testReallocOOMD0Ev:0000000000000000 _ZN24TestQueue_testReallocOOMD0Ev
     /tmp/ccp9IXAU.s:126    .text._ZN22TestQueue_testAllocOOMD2Ev:0000000000000000 _ZN22TestQueue_testAllocOOMD2Ev
     /tmp/ccp9IXAU.s:10117  .rodata._ZTV22TestQueue_testAllocOOM:0000000000000000 _ZTV22TestQueue_testAllocOOM
     /tmp/ccp9IXAU.s:126    .text._ZN22TestQueue_testAllocOOMD2Ev:0000000000000000 _ZN22TestQueue_testAllocOOMD1Ev
     /tmp/ccp9IXAU.s:141    .text._ZN22TestQueue_testAllocOOMD0Ev:0000000000000000 _ZN22TestQueue_testAllocOOMD0Ev
     /tmp/ccp9IXAU.s:162    .text._ZN21TestQueue_testReallocD2Ev:0000000000000000 _ZN21TestQueue_testReallocD2Ev
     /tmp/ccp9IXAU.s:10106  .rodata._ZTV21TestQueue_testRealloc:0000000000000000 _ZTV21TestQueue_testRealloc
     /tmp/ccp9IXAU.s:162    .text._ZN21TestQueue_testReallocD2Ev:0000000000000000 _ZN21TestQueue_testReallocD1Ev
     /tmp/ccp9IXAU.s:177    .text._ZN21TestQueue_testReallocD0Ev:0000000000000000 _ZN21TestQueue_testReallocD0Ev
     /tmp/ccp9IXAU.s:198    .text._ZN21TestQueue_testPutTakeD2Ev:0000000000000000 _ZN21TestQueue_testPutTakeD2Ev
     /tmp/ccp9IXAU.s:10095  .rodata._ZTV21TestQueue_testPutTake:0000000000000000 _ZTV21TestQueue_testPutTake
     /tmp/ccp9IXAU.s:198    .text._ZN21TestQueue_testPutTakeD2Ev:0000000000000000 _ZN21TestQueue_testPutTakeD1Ev
     /tmp/ccp9IXAU.s:213    .text._ZN21TestQueue_testPutTakeD0Ev:0000000000000000 _ZN21TestQueue_testPutTakeD0Ev
     /tmp/ccp9IXAU.s:234    .text._ZN21TestQueue_testPutWrapD2Ev:0000000000000000 _ZN21TestQueue_testPutWrapD2Ev
     /tmp/ccp9IXAU.s:10084  .rodata._ZTV21TestQueue_testPutWrap:0000000000000000 _ZTV21TestQueue_testPutWrap
     /tmp/ccp9IXAU.s:234    .text._ZN21TestQueue_testPutWrapD2Ev:0000000000000000 _ZN21TestQueue_testPutWrapD1Ev
     /tmp/ccp9IXAU.s:249    .text._ZN21TestQueue_testPutWrapD0Ev:0000000000000000 _ZN21TestQueue_testPutWrapD0Ev
     /tmp/ccp9IXAU.s:270    .text._ZN23TestQueue_testPutNoWrapD2Ev:0000000000000000 _ZN23TestQueue_testPutNoWrapD2Ev
     /tmp/ccp9IXAU.s:10073  .rodata._ZTV23TestQueue_testPutNoWrap:0000000000000000 _ZTV23TestQueue_testPutNoWrap
     /tmp/ccp9IXAU.s:270    .text._ZN23TestQueue_testPutNoWrapD2Ev:0000000000000000 _ZN23TestQueue_testPutNoWrapD1Ev
     /tmp/ccp9IXAU.s:285    .text._ZN23TestQueue_testPutNoWrapD0Ev:0000000000000000 _ZN23TestQueue_testPutNoWrapD0Ev
     /tmp/ccp9IXAU.s:306    .text._ZN18TestQueue_testInitD2Ev:0000000000000000 _ZN18TestQueue_testInitD2Ev
     /tmp/ccp9IXAU.s:10062  .rodata._ZTV18TestQueue_testInit:0000000000000000 _ZTV18TestQueue_testInit
     /tmp/ccp9IXAU.s:306    .text._ZN18TestQueue_testInitD2Ev:0000000000000000 _ZN18TestQueue_testInitD1Ev
     /tmp/ccp9IXAU.s:321    .text._ZN18TestQueue_testInitD0Ev:0000000000000000 _ZN18TestQueue_testInitD0Ev
     /tmp/ccp9IXAU.s:339    .text.unlikely:0000000000000000 _ZStlsISt11char_traitsIcEERSt13basic_ostreamIcT_ES5_PKc.part.1
     /tmp/ccp9IXAU.s:360    .text._ZNSt15basic_stringbufIcSt11char_traitsIcESaIcEED2Ev:0000000000000000 _ZNSt15basic_stringbufIcSt11char_traitsIcESaIcEED2Ev
     /tmp/ccp9IXAU.s:360    .text._ZNSt15basic_stringbufIcSt11char_traitsIcESaIcEED2Ev:0000000000000000 _ZNSt15basic_stringbufIcSt11char_traitsIcESaIcEED1Ev
     /tmp/ccp9IXAU.s:414    .text._ZNSt15basic_stringbufIcSt11char_traitsIcESaIcEED0Ev:0000000000000000 _ZNSt15basic_stringbufIcSt11char_traitsIcESaIcEED0Ev
     /tmp/ccp9IXAU.s:468    .text._ZN8UnitTest15MemoryOutStreamD1Ev:0000000000000000 _ZN8UnitTest15MemoryOutStreamD1Ev
     /tmp/ccp9IXAU.s:10046  .rodata._ZTVN8UnitTest15MemoryOutStreamE:0000000000000000 _ZTVN8UnitTest15MemoryOutStreamE
     /tmp/ccp9IXAU.s:10018  .rodata._ZTCN8UnitTest15MemoryOutStreamE0_St19basic_ostringstreamIcSt11char_traitsIcESaIcEE:0000000000000000 _ZTCN8UnitTest15MemoryOutStreamE0_St19basic_ostringstreamIcSt11char_traitsIcESaIcEE
     /tmp/ccp9IXAU.s:10001  .rodata._ZTCN8UnitTest15MemoryOutStreamE0_So:0000000000000000 _ZTCN8UnitTest15MemoryOutStreamE0_So
     /tmp/ccp9IXAU.s:551    .text._ZN8UnitTest15MemoryOutStreamD1Ev:00000000000000f0 _ZTv0_n24_N8UnitTest15MemoryOutStreamD1Ev
     /tmp/ccp9IXAU.s:565    .text._ZN8UnitTest15MemoryOutStreamD0Ev:0000000000000000 _ZN8UnitTest15MemoryOutStreamD0Ev
     /tmp/ccp9IXAU.s:650    .text._ZN8UnitTest15MemoryOutStreamD0Ev:0000000000000100 _ZTv0_n24_N8UnitTest15MemoryOutStreamD0Ev
     /tmp/ccp9IXAU.s:673    .text:0000000000000060 _ZNK31TestQueue_testAllocFreeMatching7RunImplEv
     /tmp/ccp9IXAU.s:956    .text._ZN8UnitTest10CheckEqualI9USBStatusS1_EEvRNS_11TestResultsERKT_RKT0_RKNS_11TestDetailsE:0000000000000000 _ZN8UnitTest10CheckEqualI9USBStatusS1_EEvRNS_11TestResultsERKT_RKT0_RKNS_11TestDetailsE
     /tmp/ccp9IXAU.s:1198   .text:00000000000003f0 _ZNK22TestQueue_testAllocOOM7RunImplEv
     /tmp/ccp9IXAU.s:1326   .text:00000000000004c0 _ZNK24TestQueue_testReallocOOM7RunImplEv
     /tmp/ccp9IXAU.s:2087   .text._ZN8UnitTest10CheckEqualImmEEvRNS_11TestResultsERKT_RKT0_RKNS_11TestDetailsE:0000000000000000 _ZN8UnitTest10CheckEqualImmEEvRNS_11TestResultsERKT_RKT0_RKNS_11TestDetailsE
     /tmp/ccp9IXAU.s:2324   .text._ZN8UnitTest10CheckEqualImjEEvRNS_11TestResultsERKT_RKT0_RKNS_11TestDetailsE:0000000000000000 _ZN8UnitTest10CheckEqualImjEEvRNS_11TestResultsERKT_RKT0_RKNS_11TestDetailsE
     /tmp/ccp9IXAU.s:2587   .text:0000000000000b20 _ZNK18TestQueue_testInit7RunImplEv
     /tmp/ccp9IXAU.s:3224   .text:0000000000001060 _ZNK23TestQueue_testPutNoWrap7RunImplEv
     /tmp/ccp9IXAU.s:4250   .text:0000000000001950 _ZNK21TestQueue_testPutWrap7RunImplEv
     /tmp/ccp9IXAU.s:5418   .text:0000000000002380 _ZNK21TestQueue_testPutTake7RunImplEv
     /tmp/ccp9IXAU.s:7158   .text:0000000000003260 _Z11testReallocm
     /tmp/ccp9IXAU.s:9662   .text:0000000000004900 _ZNK21TestQueue_testRealloc7RunImplEv
     /tmp/ccp9IXAU.s:9704   .text.startup:0000000000000000 _GLOBAL__sub_I_createInt
     /tmp/ccp9IXAU.s:10235  .bss:0000000000000224 _ZStL8__ioinit
     /tmp/ccp9IXAU.s:10232  .bss:00000000000001e0 testQueue_testInitInstance
     /tmp/ccp9IXAU.s:10226  .bss:00000000000001d8 adderQueue_testInit
     /tmp/ccp9IXAU.s:10221  .bss:00000000000001a0 testQueue_testPutNoWrapInstance
     /tmp/ccp9IXAU.s:10215  .bss:0000000000000198 adderQueue_testPutNoWrap
     /tmp/ccp9IXAU.s:10210  .bss:0000000000000160 testQueue_testPutWrapInstance
     /tmp/ccp9IXAU.s:10204  .bss:0000000000000158 adderQueue_testPutWrap
     /tmp/ccp9IXAU.s:10199  .bss:0000000000000120 testQueue_testPutTakeInstance
     /tmp/ccp9IXAU.s:10193  .bss:0000000000000118 adderQueue_testPutTake
     /tmp/ccp9IXAU.s:10188  .bss:00000000000000e0 testQueue_testReallocInstance
     /tmp/ccp9IXAU.s:10182  .bss:00000000000000d8 adderQueue_testRealloc
     /tmp/ccp9IXAU.s:10177  .bss:00000000000000a0 testQueue_testAllocOOMInstance
     /tmp/ccp9IXAU.s:10171  .bss:0000000000000098 adderQueue_testAllocOOM
     /tmp/ccp9IXAU.s:10166  .bss:0000000000000060 testQueue_testReallocOOMInstance
     /tmp/ccp9IXAU.s:10160  .bss:0000000000000058 adderQueue_testReallocOOM
     /tmp/ccp9IXAU.s:10155  .bss:0000000000000020 testQueue_testAllocFreeMatchingInstance
     /tmp/ccp9IXAU.s:10149  .bss:0000000000000000 adderQueue_testAllocFreeMatching
     /tmp/ccp9IXAU.s:9856   .rodata._ZTIN8UnitTest15MemoryOutStreamE:0000000000000000 _ZTIN8UnitTest15MemoryOutStreamE
     /tmp/ccp9IXAU.s:9865   .rodata._ZTSN8UnitTest15MemoryOutStreamE:0000000000000000 _ZTSN8UnitTest15MemoryOutStreamE
     /tmp/ccp9IXAU.s:9872   .rodata._ZTS18TestQueue_testInit:0000000000000000 _ZTS18TestQueue_testInit
     /tmp/ccp9IXAU.s:9879   .rodata._ZTI18TestQueue_testInit:0000000000000000 _ZTI18TestQueue_testInit
     /tmp/ccp9IXAU.s:9888   .rodata._ZTS23TestQueue_testPutNoWrap:0000000000000000 _ZTS23TestQueue_testPutNoWrap
     /tmp/ccp9IXAU.s:9895   .rodata._ZTI23TestQueue_testPutNoWrap:0000000000000000 _ZTI23TestQueue_testPutNoWrap
     /tmp/ccp9IXAU.s:9904   .rodata._ZTS21TestQueue_testPutWrap:0000000000000000 _ZTS21TestQueue_testPutWrap
     /tmp/ccp9IXAU.s:9911   .rodata._ZTI21TestQueue_testPutWrap:0000000000000000 _ZTI21TestQueue_testPutWrap
     /tmp/ccp9IXAU.s:9920   .rodata._ZTS21TestQueue_testPutTake:0000000000000000 _ZTS21TestQueue_testPutTake
     /tmp/ccp9IXAU.s:9927   .rodata._ZTI21TestQueue_testPutTake:0000000000000000 _ZTI21TestQueue_testPutTake
     /tmp/ccp9IXAU.s:9936   .rodata._ZTS21TestQueue_testRealloc:0000000000000000 _ZTS21TestQueue_testRealloc
     /tmp/ccp9IXAU.s:9943   .rodata._ZTI21TestQueue_testRealloc:0000000000000000 _ZTI21TestQueue_testRealloc
     /tmp/ccp9IXAU.s:9952   .rodata._ZTS22TestQueue_testAllocOOM:0000000000000000 _ZTS22TestQueue_testAllocOOM
     /tmp/ccp9IXAU.s:9959   .rodata._ZTI22TestQueue_testAllocOOM:0000000000000000 _ZTI22TestQueue_testAllocOOM
     /tmp/ccp9IXAU.s:9968   .rodata._ZTS24TestQueue_testReallocOOM:0000000000000000 _ZTS24TestQueue_testReallocOOM
     /tmp/ccp9IXAU.s:9975   .rodata._ZTI24TestQueue_testReallocOOM:0000000000000000 _ZTI24TestQueue_testReallocOOM
     /tmp/ccp9IXAU.s:9984   .rodata._ZTS31TestQueue_testAllocFreeMatching:0000000000000000 _ZTS31TestQueue_testAllocFreeMatching
     /tmp/ccp9IXAU.s:9991   .rodata._ZTI31TestQueue_testAllocFreeMatching:0000000000000000 _ZTI31TestQueue_testAllocFreeMatching
     /tmp/ccp9IXAU.s:10034  .rodata._ZTTN8UnitTest15MemoryOutStreamE:0000000000000000 _ZTTN8UnitTest15MemoryOutStreamE
                           .group:0000000000000000 _ZN31TestQueue_testAllocFreeMatchingD5Ev
                           .group:0000000000000000 _ZN24TestQueue_testReallocOOMD5Ev
                           .group:0000000000000000 _ZN22TestQueue_testAllocOOMD5Ev
                           .group:0000000000000000 _ZN21TestQueue_testReallocD5Ev
                           .group:0000000000000000 _ZN21TestQueue_testPutTakeD5Ev
                           .group:0000000000000000 _ZN21TestQueue_testPutWrapD5Ev
                           .group:0000000000000000 _ZN23TestQueue_testPutNoWrapD5Ev
                           .group:0000000000000000 _ZN18TestQueue_testInitD5Ev
                           .group:0000000000000000 _ZNSt15basic_stringbufIcSt11char_traitsIcESaIcEED5Ev

UNDEFINED SYMBOLS
malloc
free
_ZN8UnitTest4TestD2Ev
_ZdlPv
_ZNSt9basic_iosIcSt11char_traitsIcEE5clearESt12_Ios_Iostate
_ZTVSt15basic_stringbufIcSt11char_traitsIcESaIcEE
_ZNSs4_Rep20_S_empty_rep_storageE
_ZTVSt15basic_streambufIcSt11char_traitsIcEE
_ZNSt6localeD1Ev
_ZNSs4_Rep10_M_destroyERKSaIcE
_ZTVSt9basic_iosIcSt11char_traitsIcEE
_ZNSt8ios_baseD2Ev
__gxx_personality_v0
_ZN8UnitTest11CurrentTest7DetailsEv
_ZN8UnitTest11TestDetailsC1ERKS0_i
_ZN8UnitTest11CurrentTest7ResultsEv
_ZNSt8ios_baseC2Ev
_ZNSt9basic_iosIcSt11char_traitsIcEE4initEPSt15basic_streambufIcS1_E
_ZNSt6localeC1Ev
_ZSt16__ostream_insertIcSt11char_traitsIcEERSt13basic_ostreamIT_T0_ES6_PKS3_l
_ZNSolsEi
_ZNK8UnitTest15MemoryOutStream7GetTextEv
_ZN8UnitTest11TestResults13OnTestFailureERKNS_11TestDetailsEPKc
__cxa_begin_catch
__cxa_end_catch
_Unwind_Resume
queueInit
queueDestroy
queuePut
queueCommitPut
_ZNSo9_M_insertImEERSoT_
queueTake
queueCommitTake
_ZNSt8ios_base4InitC1Ev
__dso_handle
_ZNSt8ios_base4InitD1Ev
__cxa_atexit
_ZN8UnitTest4TestC2EPKcS2_S2_i
_ZN8UnitTest4Test11GetTestListEv
_ZN8UnitTest9ListAdderC1ERNS_8TestListEPNS_4TestE
_ZTVN10__cxxabiv120__si_class_type_infoE
_ZTISt19basic_ostringstreamIcSt11char_traitsIcESaIcEE
_ZTIN8UnitTest4TestE
_ZTISo
_ZNSoD1Ev
_ZNSoD0Ev
_ZTv0_n24_NSoD1Ev
_ZTv0_n24_NSoD0Ev
_ZNSt19basic_ostringstreamIcSt11char_traitsIcESaIcEED1Ev
_ZNSt19basic_ostringstreamIcSt11char_traitsIcESaIcEED0Ev
_ZTv0_n24_NSt19basic_ostringstreamIcSt11char_traitsIcESaIcEED1Ev
_ZTv0_n24_NSt19basic_ostringstreamIcSt11char_traitsIcESaIcEED0Ev
__pthread_key_create
