   1              		.file	"testHexIO.cpp"
   2              		.section	.text._ZN28TestHexIO_testDeriveWriteMapD2Ev,"axG",@progbits,_ZN28TestHexIO_testDeriveWrit
   3              		.align 2
   4              		.p2align 4,,15
   5              		.weak	_ZN28TestHexIO_testDeriveWriteMapD2Ev
   7              	_ZN28TestHexIO_testDeriveWriteMapD2Ev:
   8              	.LFB1353:
   9              		.cfi_startproc
  10 0000 48C70700 		movq	$_ZTV28TestHexIO_testDeriveWriteMap+16, (%rdi)
  10      000000
  11 0007 E9000000 		jmp	_ZN8UnitTest4TestD2Ev
  11      00
  12              		.cfi_endproc
  13              	.LFE1353:
  15              		.weak	_ZN28TestHexIO_testDeriveWriteMapD1Ev
  16              		.set	_ZN28TestHexIO_testDeriveWriteMapD1Ev,_ZN28TestHexIO_testDeriveWriteMapD2Ev
  17              		.section	.text._ZN28TestHexIO_testDeriveWriteMapD0Ev,"axG",@progbits,_ZN28TestHexIO_testDeriveWrit
  18              		.align 2
  19              		.p2align 4,,15
  20              		.weak	_ZN28TestHexIO_testDeriveWriteMapD0Ev
  22              	_ZN28TestHexIO_testDeriveWriteMapD0Ev:
  23              	.LFB1355:
  24              		.cfi_startproc
  25 0000 53       		pushq	%rbx
  26              		.cfi_def_cfa_offset 16
  27              		.cfi_offset 3, -16
  28 0001 4889FB   		movq	%rdi, %rbx
  29 0004 48C70700 		movq	$_ZTV28TestHexIO_testDeriveWriteMap+16, (%rdi)
  29      000000
  30 000b E8000000 		call	_ZN8UnitTest4TestD2Ev
  30      00
  31 0010 4889DF   		movq	%rbx, %rdi
  32 0013 5B       		popq	%rbx
  33              		.cfi_def_cfa_offset 8
  34 0014 E9000000 		jmp	_ZdlPv
  34      00
  35              		.cfi_endproc
  36              	.LFE1355:
  38              		.section	.text._ZN23TestHexIO_testRoundTripD2Ev,"axG",@progbits,_ZN23TestHexIO_testRoundTripD5Ev,c
  39              		.align 2
  40              		.p2align 4,,15
  41              		.weak	_ZN23TestHexIO_testRoundTripD2Ev
  43              	_ZN23TestHexIO_testRoundTripD2Ev:
  44              	.LFB1357:
  45              		.cfi_startproc
  46 0000 48C70700 		movq	$_ZTV23TestHexIO_testRoundTrip+16, (%rdi)
  46      000000
  47 0007 E9000000 		jmp	_ZN8UnitTest4TestD2Ev
  47      00
  48              		.cfi_endproc
  49              	.LFE1357:
  51              		.weak	_ZN23TestHexIO_testRoundTripD1Ev
  52              		.set	_ZN23TestHexIO_testRoundTripD1Ev,_ZN23TestHexIO_testRoundTripD2Ev
  53              		.section	.text._ZN23TestHexIO_testRoundTripD0Ev,"axG",@progbits,_ZN23TestHexIO_testRoundTripD0Ev,c
  54              		.align 2
  55              		.p2align 4,,15
  56              		.weak	_ZN23TestHexIO_testRoundTripD0Ev
  58              	_ZN23TestHexIO_testRoundTripD0Ev:
  59              	.LFB1359:
  60              		.cfi_startproc
  61 0000 53       		pushq	%rbx
  62              		.cfi_def_cfa_offset 16
  63              		.cfi_offset 3, -16
  64 0001 4889FB   		movq	%rdi, %rbx
  65 0004 48C70700 		movq	$_ZTV23TestHexIO_testRoundTrip+16, (%rdi)
  65      000000
  66 000b E8000000 		call	_ZN8UnitTest4TestD2Ev
  66      00
  67 0010 4889DF   		movq	%rbx, %rdi
  68 0013 5B       		popq	%rbx
  69              		.cfi_def_cfa_offset 8
  70 0014 E9000000 		jmp	_ZdlPv
  70      00
  71              		.cfi_endproc
  72              	.LFE1359:
  74              		.section	.text._ZN25TestHexIO_testCorruptLineD2Ev,"axG",@progbits,_ZN25TestHexIO_testCorruptLineD5
  75              		.align 2
  76              		.p2align 4,,15
  77              		.weak	_ZN25TestHexIO_testCorruptLineD2Ev
  79              	_ZN25TestHexIO_testCorruptLineD2Ev:
  80              	.LFB1361:
  81              		.cfi_startproc
  82 0000 48C70700 		movq	$_ZTV25TestHexIO_testCorruptLine+16, (%rdi)
  82      000000
  83 0007 E9000000 		jmp	_ZN8UnitTest4TestD2Ev
  83      00
  84              		.cfi_endproc
  85              	.LFE1361:
  87              		.weak	_ZN25TestHexIO_testCorruptLineD1Ev
  88              		.set	_ZN25TestHexIO_testCorruptLineD1Ev,_ZN25TestHexIO_testCorruptLineD2Ev
  89              		.section	.text._ZN25TestHexIO_testCorruptLineD0Ev,"axG",@progbits,_ZN25TestHexIO_testCorruptLineD0
  90              		.align 2
  91              		.p2align 4,,15
  92              		.weak	_ZN25TestHexIO_testCorruptLineD0Ev
  94              	_ZN25TestHexIO_testCorruptLineD0Ev:
  95              	.LFB1363:
  96              		.cfi_startproc
  97 0000 53       		pushq	%rbx
  98              		.cfi_def_cfa_offset 16
  99              		.cfi_offset 3, -16
 100 0001 4889FB   		movq	%rdi, %rbx
 101 0004 48C70700 		movq	$_ZTV25TestHexIO_testCorruptLine+16, (%rdi)
 101      000000
 102 000b E8000000 		call	_ZN8UnitTest4TestD2Ev
 102      00
 103 0010 4889DF   		movq	%rbx, %rdi
 104 0013 5B       		popq	%rbx
 105              		.cfi_def_cfa_offset 8
 106 0014 E9000000 		jmp	_ZdlPv
 106      00
 107              		.cfi_endproc
 108              	.LFE1363:
 110              		.section	.text._ZN25TestHexIO_testBadChecksumD2Ev,"axG",@progbits,_ZN25TestHexIO_testBadChecksumD5
 111              		.align 2
 112              		.p2align 4,,15
 113              		.weak	_ZN25TestHexIO_testBadChecksumD2Ev
 115              	_ZN25TestHexIO_testBadChecksumD2Ev:
 116              	.LFB1365:
 117              		.cfi_startproc
 118 0000 48C70700 		movq	$_ZTV25TestHexIO_testBadChecksum+16, (%rdi)
 118      000000
 119 0007 E9000000 		jmp	_ZN8UnitTest4TestD2Ev
 119      00
 120              		.cfi_endproc
 121              	.LFE1365:
 123              		.weak	_ZN25TestHexIO_testBadChecksumD1Ev
 124              		.set	_ZN25TestHexIO_testBadChecksumD1Ev,_ZN25TestHexIO_testBadChecksumD2Ev
 125              		.section	.text._ZN25TestHexIO_testBadChecksumD0Ev,"axG",@progbits,_ZN25TestHexIO_testBadChecksumD0
 126              		.align 2
 127              		.p2align 4,,15
 128              		.weak	_ZN25TestHexIO_testBadChecksumD0Ev
 130              	_ZN25TestHexIO_testBadChecksumD0Ev:
 131              	.LFB1367:
 132              		.cfi_startproc
 133 0000 53       		pushq	%rbx
 134              		.cfi_def_cfa_offset 16
 135              		.cfi_offset 3, -16
 136 0001 4889FB   		movq	%rdi, %rbx
 137 0004 48C70700 		movq	$_ZTV25TestHexIO_testBadChecksum+16, (%rdi)
 137      000000
 138 000b E8000000 		call	_ZN8UnitTest4TestD2Ev
 138      00
 139 0010 4889DF   		movq	%rbx, %rdi
 140 0013 5B       		popq	%rbx
 141              		.cfi_def_cfa_offset 8
 142 0014 E9000000 		jmp	_ZdlPv
 142      00
 143              		.cfi_endproc
 144              	.LFE1367:
 146              		.section	.text._ZN26TestHexIO_testJunkChecksumD2Ev,"axG",@progbits,_ZN26TestHexIO_testJunkChecksum
 147              		.align 2
 148              		.p2align 4,,15
 149              		.weak	_ZN26TestHexIO_testJunkChecksumD2Ev
 151              	_ZN26TestHexIO_testJunkChecksumD2Ev:
 152              	.LFB1369:
 153              		.cfi_startproc
 154 0000 48C70700 		movq	$_ZTV26TestHexIO_testJunkChecksum+16, (%rdi)
 154      000000
 155 0007 E9000000 		jmp	_ZN8UnitTest4TestD2Ev
 155      00
 156              		.cfi_endproc
 157              	.LFE1369:
 159              		.weak	_ZN26TestHexIO_testJunkChecksumD1Ev
 160              		.set	_ZN26TestHexIO_testJunkChecksumD1Ev,_ZN26TestHexIO_testJunkChecksumD2Ev
 161              		.section	.text._ZN26TestHexIO_testJunkChecksumD0Ev,"axG",@progbits,_ZN26TestHexIO_testJunkChecksum
 162              		.align 2
 163              		.p2align 4,,15
 164              		.weak	_ZN26TestHexIO_testJunkChecksumD0Ev
 166              	_ZN26TestHexIO_testJunkChecksumD0Ev:
 167              	.LFB1371:
 168              		.cfi_startproc
 169 0000 53       		pushq	%rbx
 170              		.cfi_def_cfa_offset 16
 171              		.cfi_offset 3, -16
 172 0001 4889FB   		movq	%rdi, %rbx
 173 0004 48C70700 		movq	$_ZTV26TestHexIO_testJunkChecksum+16, (%rdi)
 173      000000
 174 000b E8000000 		call	_ZN8UnitTest4TestD2Ev
 174      00
 175 0010 4889DF   		movq	%rbx, %rdi
 176 0013 5B       		popq	%rbx
 177              		.cfi_def_cfa_offset 8
 178 0014 E9000000 		jmp	_ZdlPv
 178      00
 179              		.cfi_endproc
 180              	.LFE1371:
 182              		.section	.text._ZN26TestHexIO_testJunkDataByteD2Ev,"axG",@progbits,_ZN26TestHexIO_testJunkDataByte
 183              		.align 2
 184              		.p2align 4,,15
 185              		.weak	_ZN26TestHexIO_testJunkDataByteD2Ev
 187              	_ZN26TestHexIO_testJunkDataByteD2Ev:
 188              	.LFB1373:
 189              		.cfi_startproc
 190 0000 48C70700 		movq	$_ZTV26TestHexIO_testJunkDataByte+16, (%rdi)
 190      000000
 191 0007 E9000000 		jmp	_ZN8UnitTest4TestD2Ev
 191      00
 192              		.cfi_endproc
 193              	.LFE1373:
 195              		.weak	_ZN26TestHexIO_testJunkDataByteD1Ev
 196              		.set	_ZN26TestHexIO_testJunkDataByteD1Ev,_ZN26TestHexIO_testJunkDataByteD2Ev
 197              		.section	.text._ZN26TestHexIO_testJunkDataByteD0Ev,"axG",@progbits,_ZN26TestHexIO_testJunkDataByte
 198              		.align 2
 199              		.p2align 4,,15
 200              		.weak	_ZN26TestHexIO_testJunkDataByteD0Ev
 202              	_ZN26TestHexIO_testJunkDataByteD0Ev:
 203              	.LFB1375:
 204              		.cfi_startproc
 205 0000 53       		pushq	%rbx
 206              		.cfi_def_cfa_offset 16
 207              		.cfi_offset 3, -16
 208 0001 4889FB   		movq	%rdi, %rbx
 209 0004 48C70700 		movq	$_ZTV26TestHexIO_testJunkDataByte+16, (%rdi)
 209      000000
 210 000b E8000000 		call	_ZN8UnitTest4TestD2Ev
 210      00
 211 0010 4889DF   		movq	%rbx, %rdi
 212 0013 5B       		popq	%rbx
 213              		.cfi_def_cfa_offset 8
 214 0014 E9000000 		jmp	_ZdlPv
 214      00
 215              		.cfi_endproc
 216              	.LFE1375:
 218              		.section	.text._ZN25TestHexIO_testJunkRecTypeD2Ev,"axG",@progbits,_ZN25TestHexIO_testJunkRecTypeD5
 219              		.align 2
 220              		.p2align 4,,15
 221              		.weak	_ZN25TestHexIO_testJunkRecTypeD2Ev
 223              	_ZN25TestHexIO_testJunkRecTypeD2Ev:
 224              	.LFB1377:
 225              		.cfi_startproc
 226 0000 48C70700 		movq	$_ZTV25TestHexIO_testJunkRecType+16, (%rdi)
 226      000000
 227 0007 E9000000 		jmp	_ZN8UnitTest4TestD2Ev
 227      00
 228              		.cfi_endproc
 229              	.LFE1377:
 231              		.weak	_ZN25TestHexIO_testJunkRecTypeD1Ev
 232              		.set	_ZN25TestHexIO_testJunkRecTypeD1Ev,_ZN25TestHexIO_testJunkRecTypeD2Ev
 233              		.section	.text._ZN25TestHexIO_testJunkRecTypeD0Ev,"axG",@progbits,_ZN25TestHexIO_testJunkRecTypeD0
 234              		.align 2
 235              		.p2align 4,,15
 236              		.weak	_ZN25TestHexIO_testJunkRecTypeD0Ev
 238              	_ZN25TestHexIO_testJunkRecTypeD0Ev:
 239              	.LFB1379:
 240              		.cfi_startproc
 241 0000 53       		pushq	%rbx
 242              		.cfi_def_cfa_offset 16
 243              		.cfi_offset 3, -16
 244 0001 4889FB   		movq	%rdi, %rbx
 245 0004 48C70700 		movq	$_ZTV25TestHexIO_testJunkRecType+16, (%rdi)
 245      000000
 246 000b E8000000 		call	_ZN8UnitTest4TestD2Ev
 246      00
 247 0010 4889DF   		movq	%rbx, %rdi
 248 0013 5B       		popq	%rbx
 249              		.cfi_def_cfa_offset 8
 250 0014 E9000000 		jmp	_ZdlPv
 250      00
 251              		.cfi_endproc
 252              	.LFE1379:
 254              		.section	.text._ZN25TestHexIO_testJunkAddrLsbD2Ev,"axG",@progbits,_ZN25TestHexIO_testJunkAddrLsbD5
 255              		.align 2
 256              		.p2align 4,,15
 257              		.weak	_ZN25TestHexIO_testJunkAddrLsbD2Ev
 259              	_ZN25TestHexIO_testJunkAddrLsbD2Ev:
 260              	.LFB1381:
 261              		.cfi_startproc
 262 0000 48C70700 		movq	$_ZTV25TestHexIO_testJunkAddrLsb+16, (%rdi)
 262      000000
 263 0007 E9000000 		jmp	_ZN8UnitTest4TestD2Ev
 263      00
 264              		.cfi_endproc
 265              	.LFE1381:
 267              		.weak	_ZN25TestHexIO_testJunkAddrLsbD1Ev
 268              		.set	_ZN25TestHexIO_testJunkAddrLsbD1Ev,_ZN25TestHexIO_testJunkAddrLsbD2Ev
 269              		.section	.text._ZN25TestHexIO_testJunkAddrLsbD0Ev,"axG",@progbits,_ZN25TestHexIO_testJunkAddrLsbD0
 270              		.align 2
 271              		.p2align 4,,15
 272              		.weak	_ZN25TestHexIO_testJunkAddrLsbD0Ev
 274              	_ZN25TestHexIO_testJunkAddrLsbD0Ev:
 275              	.LFB1383:
 276              		.cfi_startproc
 277 0000 53       		pushq	%rbx
 278              		.cfi_def_cfa_offset 16
 279              		.cfi_offset 3, -16
 280 0001 4889FB   		movq	%rdi, %rbx
 281 0004 48C70700 		movq	$_ZTV25TestHexIO_testJunkAddrLsb+16, (%rdi)
 281      000000
 282 000b E8000000 		call	_ZN8UnitTest4TestD2Ev
 282      00
 283 0010 4889DF   		movq	%rbx, %rdi
 284 0013 5B       		popq	%rbx
 285              		.cfi_def_cfa_offset 8
 286 0014 E9000000 		jmp	_ZdlPv
 286      00
 287              		.cfi_endproc
 288              	.LFE1383:
 290              		.section	.text._ZN25TestHexIO_testJunkAddrMsbD2Ev,"axG",@progbits,_ZN25TestHexIO_testJunkAddrMsbD5
 291              		.align 2
 292              		.p2align 4,,15
 293              		.weak	_ZN25TestHexIO_testJunkAddrMsbD2Ev
 295              	_ZN25TestHexIO_testJunkAddrMsbD2Ev:
 296              	.LFB1385:
 297              		.cfi_startproc
 298 0000 48C70700 		movq	$_ZTV25TestHexIO_testJunkAddrMsb+16, (%rdi)
 298      000000
 299 0007 E9000000 		jmp	_ZN8UnitTest4TestD2Ev
 299      00
 300              		.cfi_endproc
 301              	.LFE1385:
 303              		.weak	_ZN25TestHexIO_testJunkAddrMsbD1Ev
 304              		.set	_ZN25TestHexIO_testJunkAddrMsbD1Ev,_ZN25TestHexIO_testJunkAddrMsbD2Ev
 305              		.section	.text._ZN25TestHexIO_testJunkAddrMsbD0Ev,"axG",@progbits,_ZN25TestHexIO_testJunkAddrMsbD0
 306              		.align 2
 307              		.p2align 4,,15
 308              		.weak	_ZN25TestHexIO_testJunkAddrMsbD0Ev
 310              	_ZN25TestHexIO_testJunkAddrMsbD0Ev:
 311              	.LFB1387:
 312              		.cfi_startproc
 313 0000 53       		pushq	%rbx
 314              		.cfi_def_cfa_offset 16
 315              		.cfi_offset 3, -16
 316 0001 4889FB   		movq	%rdi, %rbx
 317 0004 48C70700 		movq	$_ZTV25TestHexIO_testJunkAddrMsb+16, (%rdi)
 317      000000
 318 000b E8000000 		call	_ZN8UnitTest4TestD2Ev
 318      00
 319 0010 4889DF   		movq	%rbx, %rdi
 320 0013 5B       		popq	%rbx
 321              		.cfi_def_cfa_offset 8
 322 0014 E9000000 		jmp	_ZdlPv
 322      00
 323              		.cfi_endproc
 324              	.LFE1387:
 326              		.section	.text._ZN27TestHexIO_testJunkByteCountD2Ev,"axG",@progbits,_ZN27TestHexIO_testJunkByteCou
 327              		.align 2
 328              		.p2align 4,,15
 329              		.weak	_ZN27TestHexIO_testJunkByteCountD2Ev
 331              	_ZN27TestHexIO_testJunkByteCountD2Ev:
 332              	.LFB1389:
 333              		.cfi_startproc
 334 0000 48C70700 		movq	$_ZTV27TestHexIO_testJunkByteCount+16, (%rdi)
 334      000000
 335 0007 E9000000 		jmp	_ZN8UnitTest4TestD2Ev
 335      00
 336              		.cfi_endproc
 337              	.LFE1389:
 339              		.weak	_ZN27TestHexIO_testJunkByteCountD1Ev
 340              		.set	_ZN27TestHexIO_testJunkByteCountD1Ev,_ZN27TestHexIO_testJunkByteCountD2Ev
 341              		.section	.text._ZN27TestHexIO_testJunkByteCountD0Ev,"axG",@progbits,_ZN27TestHexIO_testJunkByteCou
 342              		.align 2
 343              		.p2align 4,,15
 344              		.weak	_ZN27TestHexIO_testJunkByteCountD0Ev
 346              	_ZN27TestHexIO_testJunkByteCountD0Ev:
 347              	.LFB1391:
 348              		.cfi_startproc
 349 0000 53       		pushq	%rbx
 350              		.cfi_def_cfa_offset 16
 351              		.cfi_offset 3, -16
 352 0001 4889FB   		movq	%rdi, %rbx
 353 0004 48C70700 		movq	$_ZTV27TestHexIO_testJunkByteCount+16, (%rdi)
 353      000000
 354 000b E8000000 		call	_ZN8UnitTest4TestD2Ev
 354      00
 355 0010 4889DF   		movq	%rbx, %rdi
 356 0013 5B       		popq	%rbx
 357              		.cfi_def_cfa_offset 8
 358 0014 E9000000 		jmp	_ZdlPv
 358      00
 359              		.cfi_endproc
 360              	.LFE1391:
 362              		.section	.text._ZN27TestHexIO_testJunkStartCodeD2Ev,"axG",@progbits,_ZN27TestHexIO_testJunkStartCo
 363              		.align 2
 364              		.p2align 4,,15
 365              		.weak	_ZN27TestHexIO_testJunkStartCodeD2Ev
 367              	_ZN27TestHexIO_testJunkStartCodeD2Ev:
 368              	.LFB1393:
 369              		.cfi_startproc
 370 0000 48C70700 		movq	$_ZTV27TestHexIO_testJunkStartCode+16, (%rdi)
 370      000000
 371 0007 E9000000 		jmp	_ZN8UnitTest4TestD2Ev
 371      00
 372              		.cfi_endproc
 373              	.LFE1393:
 375              		.weak	_ZN27TestHexIO_testJunkStartCodeD1Ev
 376              		.set	_ZN27TestHexIO_testJunkStartCodeD1Ev,_ZN27TestHexIO_testJunkStartCodeD2Ev
 377              		.section	.text._ZN27TestHexIO_testJunkStartCodeD0Ev,"axG",@progbits,_ZN27TestHexIO_testJunkStartCo
 378              		.align 2
 379              		.p2align 4,,15
 380              		.weak	_ZN27TestHexIO_testJunkStartCodeD0Ev
 382              	_ZN27TestHexIO_testJunkStartCodeD0Ev:
 383              	.LFB1395:
 384              		.cfi_startproc
 385 0000 53       		pushq	%rbx
 386              		.cfi_def_cfa_offset 16
 387              		.cfi_offset 3, -16
 388 0001 4889FB   		movq	%rdi, %rbx
 389 0004 48C70700 		movq	$_ZTV27TestHexIO_testJunkStartCode+16, (%rdi)
 389      000000
 390 000b E8000000 		call	_ZN8UnitTest4TestD2Ev
 390      00
 391 0010 4889DF   		movq	%rbx, %rdi
 392 0013 5B       		popq	%rbx
 393              		.cfi_def_cfa_offset 8
 394 0014 E9000000 		jmp	_ZdlPv
 394      00
 395              		.cfi_endproc
 396              	.LFE1395:
 398              		.section	.text._ZN22TestHexIO_testValidEOFD2Ev,"axG",@progbits,_ZN22TestHexIO_testValidEOFD5Ev,com
 399              		.align 2
 400              		.p2align 4,,15
 401              		.weak	_ZN22TestHexIO_testValidEOFD2Ev
 403              	_ZN22TestHexIO_testValidEOFD2Ev:
 404              	.LFB1397:
 405              		.cfi_startproc
 406 0000 48C70700 		movq	$_ZTV22TestHexIO_testValidEOF+16, (%rdi)
 406      000000
 407 0007 E9000000 		jmp	_ZN8UnitTest4TestD2Ev
 407      00
 408              		.cfi_endproc
 409              	.LFE1397:
 411              		.weak	_ZN22TestHexIO_testValidEOFD1Ev
 412              		.set	_ZN22TestHexIO_testValidEOFD1Ev,_ZN22TestHexIO_testValidEOFD2Ev
 413              		.section	.text._ZN22TestHexIO_testValidEOFD0Ev,"axG",@progbits,_ZN22TestHexIO_testValidEOFD0Ev,com
 414              		.align 2
 415              		.p2align 4,,15
 416              		.weak	_ZN22TestHexIO_testValidEOFD0Ev
 418              	_ZN22TestHexIO_testValidEOFD0Ev:
 419              	.LFB1399:
 420              		.cfi_startproc
 421 0000 53       		pushq	%rbx
 422              		.cfi_def_cfa_offset 16
 423              		.cfi_offset 3, -16
 424 0001 4889FB   		movq	%rdi, %rbx
 425 0004 48C70700 		movq	$_ZTV22TestHexIO_testValidEOF+16, (%rdi)
 425      000000
 426 000b E8000000 		call	_ZN8UnitTest4TestD2Ev
 426      00
 427 0010 4889DF   		movq	%rbx, %rdi
 428 0013 5B       		popq	%rbx
 429              		.cfi_def_cfa_offset 8
 430 0014 E9000000 		jmp	_ZdlPv
 430      00
 431              		.cfi_endproc
 432              	.LFE1399:
 434              		.section	.text._ZN27TestHexIO_testValidDataLineD2Ev,"axG",@progbits,_ZN27TestHexIO_testValidDataLi
 435              		.align 2
 436              		.p2align 4,,15
 437              		.weak	_ZN27TestHexIO_testValidDataLineD2Ev
 439              	_ZN27TestHexIO_testValidDataLineD2Ev:
 440              	.LFB1401:
 441              		.cfi_startproc
 442 0000 48C70700 		movq	$_ZTV27TestHexIO_testValidDataLine+16, (%rdi)
 442      000000
 443 0007 E9000000 		jmp	_ZN8UnitTest4TestD2Ev
 443      00
 444              		.cfi_endproc
 445              	.LFE1401:
 447              		.weak	_ZN27TestHexIO_testValidDataLineD1Ev
 448              		.set	_ZN27TestHexIO_testValidDataLineD1Ev,_ZN27TestHexIO_testValidDataLineD2Ev
 449              		.section	.text._ZN27TestHexIO_testValidDataLineD0Ev,"axG",@progbits,_ZN27TestHexIO_testValidDataLi
 450              		.align 2
 451              		.p2align 4,,15
 452              		.weak	_ZN27TestHexIO_testValidDataLineD0Ev
 454              	_ZN27TestHexIO_testValidDataLineD0Ev:
 455              	.LFB1403:
 456              		.cfi_startproc
 457 0000 53       		pushq	%rbx
 458              		.cfi_def_cfa_offset 16
 459              		.cfi_offset 3, -16
 460 0001 4889FB   		movq	%rdi, %rbx
 461 0004 48C70700 		movq	$_ZTV27TestHexIO_testValidDataLine+16, (%rdi)
 461      000000
 462 000b E8000000 		call	_ZN8UnitTest4TestD2Ev
 462      00
 463 0010 4889DF   		movq	%rbx, %rdi
 464 0013 5B       		popq	%rbx
 465              		.cfi_def_cfa_offset 8
 466 0014 E9000000 		jmp	_ZdlPv
 466      00
 467              		.cfi_endproc
 468              	.LFE1403:
 470              		.section	.text.unlikely,"ax",@progbits
 472              	_ZStlsISt11char_traitsIcEERSt13basic_ostreamIcT_ES5_PKc.part.4:
 473              	.LFB1410:
 474              		.cfi_startproc
 475 0000 50       		pushq	%rax
 476              		.cfi_def_cfa_offset 16
 477 0001 488B07   		movq	(%rdi), %rax
 478 0004 480378E8 		addq	-24(%rax), %rdi
 479 0008 8B7720   		movl	32(%rdi), %esi
 480 000b 83CE01   		orl	$1, %esi
 481 000e E8000000 		call	_ZNSt9basic_iosIcSt11char_traitsIcEE5clearESt12_Ios_Iostate
 481      00
 482 0013 5A       		popq	%rdx
 483              		.cfi_def_cfa_offset 8
 484 0014 C3       		ret
 485              		.cfi_endproc
 486              	.LFE1410:
 488              		.section	.text._ZNSt15basic_stringbufIcSt11char_traitsIcESaIcEED2Ev,"axG",@progbits,_ZNSt15basic_s
 489              		.align 2
 490              		.p2align 4,,15
 491              		.weak	_ZNSt15basic_stringbufIcSt11char_traitsIcESaIcEED2Ev
 493              	_ZNSt15basic_stringbufIcSt11char_traitsIcESaIcEED2Ev:
 494              	.LFB1236:
 495              		.cfi_startproc
 496 0000 53       		pushq	%rbx
 497              		.cfi_def_cfa_offset 16
 498              		.cfi_offset 3, -16
 499 0001 4889FB   		movq	%rdi, %rbx
 500 0004 4883EC10 		subq	$16, %rsp
 501              		.cfi_def_cfa_offset 32
 502 0008 488B4748 		movq	72(%rdi), %rax
 503 000c 48C70700 		movq	$_ZTVSt15basic_stringbufIcSt11char_traitsIcESaIcEE+16, (%rdi)
 503      000000
 504 0013 488D78E8 		leaq	-24(%rax), %rdi
 505 0017 4881FF00 		cmpq	$_ZNSs4_Rep20_S_empty_rep_storageE, %rdi
 505      000000
 506 001e 7516     		jne	.L50
 507              	.L44:
 508 0020 488D7B38 		leaq	56(%rbx), %rdi
 509 0024 48C70300 		movq	$_ZTVSt15basic_streambufIcSt11char_traitsIcEE+16, (%rbx)
 509      000000
 510 002b E8000000 		call	_ZNSt6localeD1Ev
 510      00
 511 0030 4883C410 		addq	$16, %rsp
 512              		.cfi_remember_state
 513              		.cfi_def_cfa_offset 16
 514 0034 5B       		popq	%rbx
 515              		.cfi_def_cfa_offset 8
 516 0035 C3       		ret
 517              	.L50:
 518              		.cfi_restore_state
 519 0036 B9000000 		movl	$_ZL28__gthrw___pthread_key_createPjPFvPvE, %ecx
 519      00
 520 003b 488D5710 		leaq	16(%rdi), %rdx
 521 003f 4885C9   		testq	%rcx, %rcx
 522 0042 7417     		je	.L45
 523 0044 83C8FF   		orl	$-1, %eax
 524 0047 F00FC102 		lock xaddl	%eax, (%rdx)
 525              	.L46:
 526 004b 85C0     		testl	%eax, %eax
 527 004d 7FD1     		jg	.L44
 528 004f 488D7424 		leaq	15(%rsp), %rsi
 528      0F
 529 0054 E8000000 		call	_ZNSs4_Rep10_M_destroyERKSaIcE
 529      00
 530 0059 EBC5     		jmp	.L44
 531              	.L45:
 532 005b 8B50F8   		movl	-8(%rax), %edx
 533 005e 8D4AFF   		leal	-1(%rdx), %ecx
 534 0061 8948F8   		movl	%ecx, -8(%rax)
 535 0064 89D0     		movl	%edx, %eax
 536 0066 EBE3     		jmp	.L46
 537              		.cfi_endproc
 538              	.LFE1236:
 540              		.weak	_ZNSt15basic_stringbufIcSt11char_traitsIcESaIcEED1Ev
 541              		.set	_ZNSt15basic_stringbufIcSt11char_traitsIcESaIcEED1Ev,_ZNSt15basic_stringbufIcSt11char_traitsI
 542              		.section	.text._ZNSt15basic_stringbufIcSt11char_traitsIcESaIcEED0Ev,"axG",@progbits,_ZNSt15basic_s
 543              		.align 2
 544              		.p2align 4,,15
 545              		.weak	_ZNSt15basic_stringbufIcSt11char_traitsIcESaIcEED0Ev
 547              	_ZNSt15basic_stringbufIcSt11char_traitsIcESaIcEED0Ev:
 548              	.LFB1238:
 549              		.cfi_startproc
 550 0000 53       		pushq	%rbx
 551              		.cfi_def_cfa_offset 16
 552              		.cfi_offset 3, -16
 553 0001 4889FB   		movq	%rdi, %rbx
 554 0004 4883EC10 		subq	$16, %rsp
 555              		.cfi_def_cfa_offset 32
 556 0008 488B4748 		movq	72(%rdi), %rax
 557 000c 48C70700 		movq	$_ZTVSt15basic_stringbufIcSt11char_traitsIcESaIcEE+16, (%rdi)
 557      000000
 558 0013 488D78E8 		leaq	-24(%rax), %rdi
 559 0017 4881FF00 		cmpq	$_ZNSs4_Rep20_S_empty_rep_storageE, %rdi
 559      000000
 560 001e 751E     		jne	.L58
 561              	.L53:
 562 0020 488D7B38 		leaq	56(%rbx), %rdi
 563 0024 48C70300 		movq	$_ZTVSt15basic_streambufIcSt11char_traitsIcEE+16, (%rbx)
 563      000000
 564 002b E8000000 		call	_ZNSt6localeD1Ev
 564      00
 565 0030 4889DF   		movq	%rbx, %rdi
 566 0033 E8000000 		call	_ZdlPv
 566      00
 567 0038 4883C410 		addq	$16, %rsp
 568              		.cfi_remember_state
 569              		.cfi_def_cfa_offset 16
 570 003c 5B       		popq	%rbx
 571              		.cfi_def_cfa_offset 8
 572 003d C3       		ret
 573              	.L58:
 574              		.cfi_restore_state
 575 003e B9000000 		movl	$_ZL28__gthrw___pthread_key_createPjPFvPvE, %ecx
 575      00
 576 0043 488D5710 		leaq	16(%rdi), %rdx
 577 0047 4885C9   		testq	%rcx, %rcx
 578 004a 7417     		je	.L54
 579 004c 83C8FF   		orl	$-1, %eax
 580 004f F00FC102 		lock xaddl	%eax, (%rdx)
 581              	.L55:
 582 0053 85C0     		testl	%eax, %eax
 583 0055 7FC9     		jg	.L53
 584 0057 488D7424 		leaq	15(%rsp), %rsi
 584      0F
 585 005c E8000000 		call	_ZNSs4_Rep10_M_destroyERKSaIcE
 585      00
 586 0061 EBBD     		jmp	.L53
 587              	.L54:
 588 0063 8B50F8   		movl	-8(%rax), %edx
 589 0066 8D4AFF   		leal	-1(%rdx), %ecx
 590 0069 8948F8   		movl	%ecx, -8(%rax)
 591 006c 89D0     		movl	%edx, %eax
 592 006e EBE3     		jmp	.L55
 593              		.cfi_endproc
 594              	.LFE1238:
 596              		.section	.text._ZN8UnitTest15MemoryOutStreamD1Ev,"axG",@progbits,_ZN8UnitTest15MemoryOutStreamD1Ev
 597              		.align 2
 598              		.p2align 4,,15
 599              		.weak	_ZN8UnitTest15MemoryOutStreamD1Ev
 601              	_ZN8UnitTest15MemoryOutStreamD1Ev:
 602              	.LFB1257:
 603              		.cfi_startproc
 604 0000 53       		pushq	%rbx
 605              		.cfi_def_cfa_offset 16
 606              		.cfi_offset 3, -16
 607 0001 4889FB   		movq	%rdi, %rbx
 608 0004 4883EC10 		subq	$16, %rsp
 609              		.cfi_def_cfa_offset 32
 610 0008 488B4758 		movq	88(%rdi), %rax
 611 000c 48C70700 		movq	$_ZTVN8UnitTest15MemoryOutStreamE+24, (%rdi)
 611      000000
 612 0013 48C74760 		movq	$_ZTVN8UnitTest15MemoryOutStreamE+64, 96(%rdi)
 612      00000000 
 613 001b 488D78E8 		leaq	-24(%rax), %rdi
 614 001f 4881FF00 		cmpq	$_ZNSs4_Rep20_S_empty_rep_storageE, %rdi
 614      000000
 615 0026 7557     		jne	.L71
 616              	.L61:
 617 0028 488B4350 		movq	80(%rbx), %rax
 618 002c 48C70300 		movq	$_ZTCN8UnitTest15MemoryOutStreamE0_St19basic_ostringstreamIcSt11char_traitsIcESaIcEE+24, (%rb
 618      000000
 619 0033 48C74360 		movq	$_ZTCN8UnitTest15MemoryOutStreamE0_St19basic_ostringstreamIcSt11char_traitsIcESaIcEE+64, 96(%
 619      00000000 
 620 003b 48C74308 		movq	$_ZTVSt15basic_stringbufIcSt11char_traitsIcESaIcEE+16, 8(%rbx)
 620      00000000 
 621 0043 488D78E8 		leaq	-24(%rax), %rdi
 622 0047 4881FF00 		cmpq	$_ZNSs4_Rep20_S_empty_rep_storageE, %rdi
 622      000000
 623 004e 7554     		jne	.L72
 624              	.L66:
 625 0050 488D7B40 		leaq	64(%rbx), %rdi
 626 0054 48C74308 		movq	$_ZTVSt15basic_streambufIcSt11char_traitsIcEE+16, 8(%rbx)
 626      00000000 
 627 005c E8000000 		call	_ZNSt6localeD1Ev
 627      00
 628 0061 488D7B60 		leaq	96(%rbx), %rdi
 629 0065 48C70300 		movq	$_ZTCN8UnitTest15MemoryOutStreamE0_So+24, (%rbx)
 629      000000
 630 006c 48C74360 		movq	$_ZTVSt9basic_iosIcSt11char_traitsIcEE+16, 96(%rbx)
 630      00000000 
 631 0074 E8000000 		call	_ZNSt8ios_baseD2Ev
 631      00
 632 0079 4883C410 		addq	$16, %rsp
 633              		.cfi_remember_state
 634              		.cfi_def_cfa_offset 16
 635 007d 5B       		popq	%rbx
 636              		.cfi_def_cfa_offset 8
 637 007e C3       		ret
 638              	.L71:
 639              		.cfi_restore_state
 640 007f B9000000 		movl	$_ZL28__gthrw___pthread_key_createPjPFvPvE, %ecx
 640      00
 641 0084 488D5710 		leaq	16(%rdi), %rdx
 642 0088 4885C9   		testq	%rcx, %rcx
 643 008b 743C     		je	.L62
 644 008d 83C8FF   		orl	$-1, %eax
 645 0090 F00FC102 		lock xaddl	%eax, (%rdx)
 646              	.L63:
 647 0094 85C0     		testl	%eax, %eax
 648 0096 7F90     		jg	.L61
 649 0098 488D7424 		leaq	15(%rsp), %rsi
 649      0F
 650 009d E8000000 		call	_ZNSs4_Rep10_M_destroyERKSaIcE
 650      00
 651 00a2 EB84     		jmp	.L61
 652              	.L72:
 653 00a4 B9000000 		movl	$_ZL28__gthrw___pthread_key_createPjPFvPvE, %ecx
 653      00
 654 00a9 488D5710 		leaq	16(%rdi), %rdx
 655 00ad 4885C9   		testq	%rcx, %rcx
 656 00b0 7424     		je	.L67
 657 00b2 83C8FF   		orl	$-1, %eax
 658 00b5 F00FC102 		lock xaddl	%eax, (%rdx)
 659              	.L68:
 660 00b9 85C0     		testl	%eax, %eax
 661 00bb 7F93     		jg	.L66
 662 00bd 488D7424 		leaq	15(%rsp), %rsi
 662      0F
 663 00c2 E8000000 		call	_ZNSs4_Rep10_M_destroyERKSaIcE
 663      00
 664 00c7 EB87     		jmp	.L66
 665              	.L62:
 666 00c9 8B50F8   		movl	-8(%rax), %edx
 667 00cc 8D4AFF   		leal	-1(%rdx), %ecx
 668 00cf 8948F8   		movl	%ecx, -8(%rax)
 669 00d2 89D0     		movl	%edx, %eax
 670 00d4 EBBE     		jmp	.L63
 671              	.L67:
 672 00d6 8B50F8   		movl	-8(%rax), %edx
 673 00d9 8D4AFF   		leal	-1(%rdx), %ecx
 674 00dc 8948F8   		movl	%ecx, -8(%rax)
 675 00df 89D0     		movl	%edx, %eax
 676 00e1 EBD6     		jmp	.L68
 677              		.cfi_endproc
 678              	.LFE1257:
 680              		.set	.LTHUNK0,_ZN8UnitTest15MemoryOutStreamD1Ev
 681 00e3 66666666 		.p2align 4,,15
 681      2E0F1F84 
 681      00000000 
 681      00
 682              		.weak	_ZTv0_n24_N8UnitTest15MemoryOutStreamD1Ev
 684              	_ZTv0_n24_N8UnitTest15MemoryOutStreamD1Ev:
 685              	.LFB1426:
 686              		.cfi_startproc
 687 00f0 4C8B17   		movq	(%rdi), %r10
 688 00f3 49037AE8 		addq	-24(%r10), %rdi
 689 00f7 E904FFFF 		jmp	.LTHUNK0
 689      FF
 690              		.cfi_endproc
 691              	.LFE1426:
 693              		.section	.text._ZN8UnitTest15MemoryOutStreamD0Ev,"axG",@progbits,_ZN8UnitTest15MemoryOutStreamD0Ev
 694              		.align 2
 695              		.p2align 4,,15
 696              		.weak	_ZN8UnitTest15MemoryOutStreamD0Ev
 698              	_ZN8UnitTest15MemoryOutStreamD0Ev:
 699              	.LFB1258:
 700              		.cfi_startproc
 701 0000 53       		pushq	%rbx
 702              		.cfi_def_cfa_offset 16
 703              		.cfi_offset 3, -16
 704 0001 4889FB   		movq	%rdi, %rbx
 705 0004 4883EC10 		subq	$16, %rsp
 706              		.cfi_def_cfa_offset 32
 707 0008 488B4758 		movq	88(%rdi), %rax
 708 000c 48C70700 		movq	$_ZTVN8UnitTest15MemoryOutStreamE+24, (%rdi)
 708      000000
 709 0013 48C74760 		movq	$_ZTVN8UnitTest15MemoryOutStreamE+64, 96(%rdi)
 709      00000000 
 710 001b 488D78E8 		leaq	-24(%rax), %rdi
 711 001f 4881FF00 		cmpq	$_ZNSs4_Rep20_S_empty_rep_storageE, %rdi
 711      000000
 712 0026 755F     		jne	.L85
 713              	.L75:
 714 0028 488B4350 		movq	80(%rbx), %rax
 715 002c 48C70300 		movq	$_ZTCN8UnitTest15MemoryOutStreamE0_St19basic_ostringstreamIcSt11char_traitsIcESaIcEE+24, (%rb
 715      000000
 716 0033 48C74360 		movq	$_ZTCN8UnitTest15MemoryOutStreamE0_St19basic_ostringstreamIcSt11char_traitsIcESaIcEE+64, 96(%
 716      00000000 
 717 003b 48C74308 		movq	$_ZTVSt15basic_stringbufIcSt11char_traitsIcESaIcEE+16, 8(%rbx)
 717      00000000 
 718 0043 488D78E8 		leaq	-24(%rax), %rdi
 719 0047 4881FF00 		cmpq	$_ZNSs4_Rep20_S_empty_rep_storageE, %rdi
 719      000000
 720 004e 755F     		jne	.L86
 721              	.L80:
 722 0050 488D7B40 		leaq	64(%rbx), %rdi
 723 0054 48C74308 		movq	$_ZTVSt15basic_streambufIcSt11char_traitsIcEE+16, 8(%rbx)
 723      00000000 
 724 005c E8000000 		call	_ZNSt6localeD1Ev
 724      00
 725 0061 488D7B60 		leaq	96(%rbx), %rdi
 726 0065 48C70300 		movq	$_ZTCN8UnitTest15MemoryOutStreamE0_So+24, (%rbx)
 726      000000
 727 006c 48C74360 		movq	$_ZTVSt9basic_iosIcSt11char_traitsIcEE+16, 96(%rbx)
 727      00000000 
 728 0074 E8000000 		call	_ZNSt8ios_baseD2Ev
 728      00
 729 0079 4889DF   		movq	%rbx, %rdi
 730 007c E8000000 		call	_ZdlPv
 730      00
 731 0081 4883C410 		addq	$16, %rsp
 732              		.cfi_remember_state
 733              		.cfi_def_cfa_offset 16
 734 0085 5B       		popq	%rbx
 735              		.cfi_def_cfa_offset 8
 736 0086 C3       		ret
 737              	.L85:
 738              		.cfi_restore_state
 739 0087 B9000000 		movl	$_ZL28__gthrw___pthread_key_createPjPFvPvE, %ecx
 739      00
 740 008c 488D5710 		leaq	16(%rdi), %rdx
 741 0090 4885C9   		testq	%rcx, %rcx
 742 0093 7442     		je	.L76
 743 0095 83C8FF   		orl	$-1, %eax
 744 0098 F00FC102 		lock xaddl	%eax, (%rdx)
 745              	.L77:
 746 009c 85C0     		testl	%eax, %eax
 747 009e 7F88     		jg	.L75
 748 00a0 488D7424 		leaq	15(%rsp), %rsi
 748      0F
 749 00a5 E8000000 		call	_ZNSs4_Rep10_M_destroyERKSaIcE
 749      00
 750 00aa E979FFFF 		jmp	.L75
 750      FF
 751              	.L86:
 752 00af B9000000 		movl	$_ZL28__gthrw___pthread_key_createPjPFvPvE, %ecx
 752      00
 753 00b4 488D5710 		leaq	16(%rdi), %rdx
 754 00b8 4885C9   		testq	%rcx, %rcx
 755 00bb 7427     		je	.L81
 756 00bd 83C8FF   		orl	$-1, %eax
 757 00c0 F00FC102 		lock xaddl	%eax, (%rdx)
 758              	.L82:
 759 00c4 85C0     		testl	%eax, %eax
 760 00c6 7F88     		jg	.L80
 761 00c8 488D7424 		leaq	15(%rsp), %rsi
 761      0F
 762 00cd E8000000 		call	_ZNSs4_Rep10_M_destroyERKSaIcE
 762      00
 763 00d2 E979FFFF 		jmp	.L80
 763      FF
 764              	.L76:
 765 00d7 8B50F8   		movl	-8(%rax), %edx
 766 00da 8D4AFF   		leal	-1(%rdx), %ecx
 767 00dd 8948F8   		movl	%ecx, -8(%rax)
 768 00e0 89D0     		movl	%edx, %eax
 769 00e2 EBB8     		jmp	.L77
 770              	.L81:
 771 00e4 8B50F8   		movl	-8(%rax), %edx
 772 00e7 8D4AFF   		leal	-1(%rdx), %ecx
 773 00ea 8948F8   		movl	%ecx, -8(%rax)
 774 00ed 89D0     		movl	%edx, %eax
 775 00ef EBD3     		jmp	.L82
 776              		.cfi_endproc
 777              	.LFE1258:
 779              		.set	.LTHUNK1,_ZN8UnitTest15MemoryOutStreamD0Ev
 780 00f1 66666666 		.p2align 4,,15
 780      66662E0F 
 780      1F840000 
 780      000000
 781              		.weak	_ZTv0_n24_N8UnitTest15MemoryOutStreamD0Ev
 783              	_ZTv0_n24_N8UnitTest15MemoryOutStreamD0Ev:
 784              	.LFB1427:
 785              		.cfi_startproc
 786 0100 4C8B17   		movq	(%rdi), %r10
 787 0103 49037AE8 		addq	-24(%r10), %rdi
 788 0107 E9F4FEFF 		jmp	.LTHUNK1
 788      FF
 789              		.cfi_endproc
 790              	.LFE1427:
 792              		.section	.rodata.str1.1,"aMS",@progbits,1
 793              	.LC0:
 794 0000 45787065 		.string	"Expected "
 794      63746564 
 794      2000
 795              	.LC1:
 796 000a 20627574 		.string	" but was "
 796      20776173 
 796      2000
 797              		.section	.text._ZN8UnitTest10CheckEqualI12BufferStatusS1_EEvRNS_11TestResultsERKT_RKT0_RKNS_11Test
 798              		.p2align 4,,15
 799              		.weak	_ZN8UnitTest10CheckEqualI12BufferStatusS1_EEvRNS_11TestResultsERKT_RKT0_RKNS_11TestDetailsE
 801              	_ZN8UnitTest10CheckEqualI12BufferStatusS1_EEvRNS_11TestResultsERKT_RKT0_RKNS_11TestDetailsE:
 802              	.LFB1254:
 803              		.cfi_startproc
 804              		.cfi_personality 0x3,__gxx_personality_v0
 805              		.cfi_lsda 0x3,.LLSDA1254
 806 0000 4156     		pushq	%r14
 807              		.cfi_def_cfa_offset 16
 808              		.cfi_offset 14, -16
 809 0002 4155     		pushq	%r13
 810              		.cfi_def_cfa_offset 24
 811              		.cfi_offset 13, -24
 812 0004 4154     		pushq	%r12
 813              		.cfi_def_cfa_offset 32
 814              		.cfi_offset 12, -32
 815 0006 55       		pushq	%rbp
 816              		.cfi_def_cfa_offset 40
 817              		.cfi_offset 6, -40
 818 0007 4889D5   		movq	%rdx, %rbp
 819 000a 53       		pushq	%rbx
 820              		.cfi_def_cfa_offset 48
 821              		.cfi_offset 3, -48
 822 000b 4889F3   		movq	%rsi, %rbx
 823 000e 4881EC80 		subq	$384, %rsp
 823      010000
 824              		.cfi_def_cfa_offset 432
 825 0015 8B02     		movl	(%rdx), %eax
 826 0017 3906     		cmpl	%eax, (%rsi)
 827 0019 0F84FF01 		je	.L87
 827      0000
 828 001f 4C8D6424 		leaq	112(%rsp), %r12
 828      70
 829 0024 4989FD   		movq	%rdi, %r13
 830 0027 4989CE   		movq	%rcx, %r14
 831 002a 4C89E7   		movq	%r12, %rdi
 832 002d E8000000 		call	_ZNSt8ios_baseC2Ev
 832      00
 833 0032 31F6     		xorl	%esi, %esi
 834 0034 4C89E7   		movq	%r12, %rdi
 835 0037 48C78424 		movq	$0, 328(%rsp)
 835      48010000 
 835      00000000 
 836 0043 C6842450 		movb	$0, 336(%rsp)
 836      01000000 
 837 004b C6842451 		movb	$0, 337(%rsp)
 837      01000000 
 838 0053 48C78424 		movq	$0, 344(%rsp)
 838      58010000 
 838      00000000 
 839 005f 48C78424 		movq	$0, 352(%rsp)
 839      60010000 
 839      00000000 
 840 006b 48C78424 		movq	$0, 360(%rsp)
 840      68010000 
 840      00000000 
 841 0077 48C78424 		movq	$0, 368(%rsp)
 841      70010000 
 841      00000000 
 842 0083 48C74424 		movq	$_ZTCN8UnitTest15MemoryOutStreamE0_So+24, 16(%rsp)
 842      10000000 
 842      00
 843 008c 48C74424 		movq	$_ZTCN8UnitTest15MemoryOutStreamE0_So+64, 112(%rsp)
 843      70000000 
 843      00
 844              	.LEHB0:
 845 0095 E8000000 		call	_ZNSt9basic_iosIcSt11char_traitsIcEE4initEPSt15basic_streambufIcS1_E
 845      00
 846              	.LEHE0:
 847 009a 488D7C24 		leaq	80(%rsp), %rdi
 847      50
 848 009f 48C74424 		movq	$_ZTCN8UnitTest15MemoryOutStreamE0_St19basic_ostringstreamIcSt11char_traitsIcESaIcEE+24, 16(%
 848      10000000 
 848      00
 849 00a8 48C74424 		movq	$_ZTCN8UnitTest15MemoryOutStreamE0_St19basic_ostringstreamIcSt11char_traitsIcESaIcEE+64, 112(
 849      70000000 
 849      00
 850 00b1 48C74424 		movq	$_ZTVSt15basic_streambufIcSt11char_traitsIcEE+16, 24(%rsp)
 850      18000000 
 850      00
 851 00ba 48C74424 		movq	$0, 32(%rsp)
 851      20000000 
 851      00
 852 00c3 48C74424 		movq	$0, 40(%rsp)
 852      28000000 
 852      00
 853 00cc 48C74424 		movq	$0, 48(%rsp)
 853      30000000 
 853      00
 854 00d5 48C74424 		movq	$0, 56(%rsp)
 854      38000000 
 854      00
 855 00de 48C74424 		movq	$0, 64(%rsp)
 855      40000000 
 855      00
 856 00e7 48C74424 		movq	$0, 72(%rsp)
 856      48000000 
 856      00
 857 00f0 E8000000 		call	_ZNSt6localeC1Ev
 857      00
 858 00f5 488B4424 		movq	16(%rsp), %rax
 858      10
 859 00fa 488D7C24 		leaq	16(%rsp), %rdi
 859      10
 860 00ff 488D7424 		leaq	24(%rsp), %rsi
 860      18
 861 0104 48C74424 		movq	$_ZTVSt15basic_stringbufIcSt11char_traitsIcESaIcEE+16, 24(%rsp)
 861      18000000 
 861      00
 862 010d C7442458 		movl	$16, 88(%rsp)
 862      10000000 
 863 0115 48C74424 		movq	$_ZNSs4_Rep20_S_empty_rep_storageE+24, 96(%rsp)
 863      60000000 
 863      00
 864 011e 480378E8 		addq	-24(%rax), %rdi
 865              	.LEHB1:
 866 0122 E8000000 		call	_ZNSt9basic_iosIcSt11char_traitsIcEE4initEPSt15basic_streambufIcS1_E
 866      00
 867              	.LEHE1:
 868 0127 488D7C24 		leaq	16(%rsp), %rdi
 868      10
 869 012c BA090000 		movl	$9, %edx
 869      00
 870 0131 BE000000 		movl	$.LC0, %esi
 870      00
 871 0136 48C74424 		movq	$_ZTVN8UnitTest15MemoryOutStreamE+24, 16(%rsp)
 871      10000000 
 871      00
 872 013f 48C74424 		movq	$_ZTVN8UnitTest15MemoryOutStreamE+64, 112(%rsp)
 872      70000000 
 872      00
 873 0148 48C74424 		movq	$_ZNSs4_Rep20_S_empty_rep_storageE+24, 104(%rsp)
 873      68000000 
 873      00
 874 0151 8B6D00   		movl	0(%rbp), %ebp
 875 0154 8B1B     		movl	(%rbx), %ebx
 876              	.LEHB2:
 877 0156 E8000000 		call	_ZSt16__ostream_insertIcSt11char_traitsIcEERSt13basic_ostreamIT_T0_ES6_PKS3_l
 877      00
 878 015b 488D7C24 		leaq	16(%rsp), %rdi
 878      10
 879 0160 89DE     		movl	%ebx, %esi
 880 0162 E8000000 		call	_ZNSolsEi
 880      00
 881 0167 BA090000 		movl	$9, %edx
 881      00
 882 016c BE000000 		movl	$.LC1, %esi
 882      00
 883 0171 4889C7   		movq	%rax, %rdi
 884 0174 4889C3   		movq	%rax, %rbx
 885 0177 E8000000 		call	_ZSt16__ostream_insertIcSt11char_traitsIcEERSt13basic_ostreamIT_T0_ES6_PKS3_l
 885      00
 886 017c 89EE     		movl	%ebp, %esi
 887 017e 4889DF   		movq	%rbx, %rdi
 888 0181 E8000000 		call	_ZNSolsEi
 888      00
 889 0186 488D7C24 		leaq	16(%rsp), %rdi
 889      10
 890 018b E8000000 		call	_ZNK8UnitTest15MemoryOutStream7GetTextEv
 890      00
 891 0190 4889C2   		movq	%rax, %rdx
 892 0193 4C89F6   		movq	%r14, %rsi
 893 0196 4C89EF   		movq	%r13, %rdi
 894 0199 E8000000 		call	_ZN8UnitTest11TestResults13OnTestFailureERKNS_11TestDetailsEPKc
 894      00
 895              	.LEHE2:
 896 019e 488B4424 		movq	104(%rsp), %rax
 896      68
 897 01a3 48C74424 		movq	$_ZTVN8UnitTest15MemoryOutStreamE+24, 16(%rsp)
 897      10000000 
 897      00
 898 01ac 48C74424 		movq	$_ZTVN8UnitTest15MemoryOutStreamE+64, 112(%rsp)
 898      70000000 
 898      00
 899 01b5 488D78E8 		leaq	-24(%rax), %rdi
 900 01b9 4881FF00 		cmpq	$_ZNSs4_Rep20_S_empty_rep_storageE, %rdi
 900      000000
 901 01c0 756C     		jne	.L110
 902              	.L94:
 903 01c2 488B4424 		movq	96(%rsp), %rax
 903      60
 904 01c7 48C74424 		movq	$_ZTCN8UnitTest15MemoryOutStreamE0_St19basic_ostringstreamIcSt11char_traitsIcESaIcEE+24, 16(%
 904      10000000 
 904      00
 905 01d0 48C74424 		movq	$_ZTCN8UnitTest15MemoryOutStreamE0_St19basic_ostringstreamIcSt11char_traitsIcESaIcEE+64, 112(
 905      70000000 
 905      00
 906 01d9 48C74424 		movq	$_ZTVSt15basic_stringbufIcSt11char_traitsIcESaIcEE+16, 24(%rsp)
 906      18000000 
 906      00
 907 01e2 488D78E8 		leaq	-24(%rax), %rdi
 908 01e6 4881FF00 		cmpq	$_ZNSs4_Rep20_S_empty_rep_storageE, %rdi
 908      000000
 909 01ed 756B     		jne	.L111
 910              	.L99:
 911 01ef 488D7C24 		leaq	80(%rsp), %rdi
 911      50
 912 01f4 48C74424 		movq	$_ZTVSt15basic_streambufIcSt11char_traitsIcEE+16, 24(%rsp)
 912      18000000 
 912      00
 913 01fd E8000000 		call	_ZNSt6localeD1Ev
 913      00
 914 0202 488D7C24 		leaq	112(%rsp), %rdi
 914      70
 915 0207 48C74424 		movq	$_ZTCN8UnitTest15MemoryOutStreamE0_So+24, 16(%rsp)
 915      10000000 
 915      00
 916 0210 48C74424 		movq	$_ZTVSt9basic_iosIcSt11char_traitsIcEE+16, 112(%rsp)
 916      70000000 
 916      00
 917              	.LEHB3:
 918 0219 E8000000 		call	_ZNSt8ios_baseD2Ev
 918      00
 919              	.LEHE3:
 920              	.L87:
 921 021e 4881C480 		addq	$384, %rsp
 921      010000
 922              		.cfi_remember_state
 923              		.cfi_def_cfa_offset 48
 924 0225 5B       		popq	%rbx
 925              		.cfi_def_cfa_offset 40
 926 0226 5D       		popq	%rbp
 927              		.cfi_def_cfa_offset 32
 928 0227 415C     		popq	%r12
 929              		.cfi_def_cfa_offset 24
 930 0229 415D     		popq	%r13
 931              		.cfi_def_cfa_offset 16
 932 022b 415E     		popq	%r14
 933              		.cfi_def_cfa_offset 8
 934 022d C3       		ret
 935              	.L110:
 936              		.cfi_restore_state
 937 022e B9000000 		movl	$_ZL28__gthrw___pthread_key_createPjPFvPvE, %ecx
 937      00
 938 0233 488D5710 		leaq	16(%rdi), %rdx
 939 0237 4885C9   		testq	%rcx, %rcx
 940 023a 747D     		je	.L95
 941 023c 83C8FF   		orl	$-1, %eax
 942 023f F00FC102 		lock xaddl	%eax, (%rdx)
 943              	.L96:
 944 0243 85C0     		testl	%eax, %eax
 945 0245 0F8F77FF 		jg	.L94
 945      FFFF
 946 024b 488D7424 		leaq	15(%rsp), %rsi
 946      0F
 947 0250 E8000000 		call	_ZNSs4_Rep10_M_destroyERKSaIcE
 947      00
 948 0255 E968FFFF 		jmp	.L94
 948      FF
 949              	.L111:
 950 025a B9000000 		movl	$_ZL28__gthrw___pthread_key_createPjPFvPvE, %ecx
 950      00
 951 025f 488D5710 		leaq	16(%rdi), %rdx
 952 0263 4885C9   		testq	%rcx, %rcx
 953 0266 7479     		je	.L100
 954 0268 83C8FF   		orl	$-1, %eax
 955 026b F00FC102 		lock xaddl	%eax, (%rdx)
 956              	.L101:
 957 026f 85C0     		testl	%eax, %eax
 958 0271 0F8F78FF 		jg	.L99
 958      FFFF
 959 0277 488D7424 		leaq	15(%rsp), %rsi
 959      0F
 960 027c E8000000 		call	_ZNSs4_Rep10_M_destroyERKSaIcE
 960      00
 961 0281 E969FFFF 		jmp	.L99
 961      FF
 962              	.L104:
 963 0286 488D7C24 		leaq	16(%rsp), %rdi
 963      10
 964 028b 4889C3   		movq	%rax, %rbx
 965 028e E8000000 		call	_ZN8UnitTest15MemoryOutStreamD1Ev
 965      00
 966 0293 4889DF   		movq	%rbx, %rdi
 967              	.LEHB4:
 968 0296 E8000000 		call	_Unwind_Resume
 968      00
 969              	.LEHE4:
 970              	.L105:
 971 029b 4889C3   		movq	%rax, %rbx
 972              	.L91:
 973 029e 488D7C24 		leaq	112(%rsp), %rdi
 973      70
 974 02a3 48C74424 		movq	$_ZTVSt9basic_iosIcSt11char_traitsIcEE+16, 112(%rsp)
 974      70000000 
 974      00
 975 02ac E8000000 		call	_ZNSt8ios_baseD2Ev
 975      00
 976 02b1 4889DF   		movq	%rbx, %rdi
 977              	.LEHB5:
 978 02b4 E8000000 		call	_Unwind_Resume
 978      00
 979              	.LEHE5:
 980              	.L95:
 981 02b9 8B50F8   		movl	-8(%rax), %edx
 982 02bc 8D4AFF   		leal	-1(%rdx), %ecx
 983 02bf 8948F8   		movl	%ecx, -8(%rax)
 984 02c2 89D0     		movl	%edx, %eax
 985 02c4 E97AFFFF 		jmp	.L96
 985      FF
 986              	.L106:
 987 02c9 488D7C24 		leaq	24(%rsp), %rdi
 987      18
 988 02ce 4889C3   		movq	%rax, %rbx
 989 02d1 E8000000 		call	_ZNSt15basic_stringbufIcSt11char_traitsIcESaIcEED1Ev
 989      00
 990 02d6 48C74424 		movq	$_ZTCN8UnitTest15MemoryOutStreamE0_So+24, 16(%rsp)
 990      10000000 
 990      00
 991 02df EBBD     		jmp	.L91
 992              	.L100:
 993 02e1 8B50F8   		movl	-8(%rax), %edx
 994 02e4 8D4AFF   		leal	-1(%rdx), %ecx
 995 02e7 8948F8   		movl	%ecx, -8(%rax)
 996 02ea 89D0     		movl	%edx, %eax
 997 02ec EB81     		jmp	.L101
 998              		.cfi_endproc
 999              	.LFE1254:
 1000              		.globl	__gxx_personality_v0
 1001              		.section	.gcc_except_table._ZN8UnitTest10CheckEqualI12BufferStatusS1_EEvRNS_11TestResultsERKT_RKT0
 1002              	.LLSDA1254:
 1003 0000 FF       		.byte	0xff
 1004 0001 FF       		.byte	0xff
 1005 0002 01       		.byte	0x1
 1006 0003 21       		.uleb128 .LLSDACSE1254-.LLSDACSB1254
 1007              	.LLSDACSB1254:
 1008 0004 9501     		.uleb128 .LEHB0-.LFB1254
 1009 0006 05       		.uleb128 .LEHE0-.LEHB0
 1010 0007 9B05     		.uleb128 .L105-.LFB1254
 1011 0009 00       		.uleb128 0
 1012 000a A202     		.uleb128 .LEHB1-.LFB1254
 1013 000c 05       		.uleb128 .LEHE1-.LEHB1
 1014 000d C905     		.uleb128 .L106-.LFB1254
 1015 000f 00       		.uleb128 0
 1016 0010 D602     		.uleb128 .LEHB2-.LFB1254
 1017 0012 48       		.uleb128 .LEHE2-.LEHB2
 1018 0013 8605     		.uleb128 .L104-.LFB1254
 1019 0015 00       		.uleb128 0
 1020 0016 9904     		.uleb128 .LEHB3-.LFB1254
 1021 0018 05       		.uleb128 .LEHE3-.LEHB3
 1022 0019 00       		.uleb128 0
 1023 001a 00       		.uleb128 0
 1024 001b 9605     		.uleb128 .LEHB4-.LFB1254
 1025 001d 05       		.uleb128 .LEHE4-.LEHB4
 1026 001e 00       		.uleb128 0
 1027 001f 00       		.uleb128 0
 1028 0020 B405     		.uleb128 .LEHB5-.LFB1254
 1029 0022 05       		.uleb128 .LEHE5-.LEHB5
 1030 0023 00       		.uleb128 0
 1031 0024 00       		.uleb128 0
 1032              	.LLSDACSE1254:
 1033              		.section	.text._ZN8UnitTest10CheckEqualI12BufferStatusS1_EEvRNS_11TestResultsERKT_RKT0_RKNS_11Test
 1035              		.section	.rodata.str1.1
 1036              	.LC2:
 1037 0014 2E303430 		.string	".040BE10075820022F7\n"
 1037      42453130 
 1037      30373538 
 1037      32303032 
 1037      3246370A 
 1038              		.section	.rodata.str1.8,"aMS",@progbits,1
 1039              		.align 8
 1040              	.LC3:
 1041 0000 556E6861 		.string	"Unhandled exception in CHECK_EQUAL(BUF_SUCCESS, status)"
 1041      6E646C65 
 1041      64206578 
 1041      63657074 
 1041      696F6E20 
 1042              		.align 8
 1043              	.LC4:
 1044 0038 556E6861 		.string	"Unhandled exception in CHECK_EQUAL(HEX_JUNK_START_CODE, status)"
 1044      6E646C65 
 1044      64206578 
 1044      63657074 
 1044      696F6E20 
 1045              		.text
 1046              		.align 2
 1047              		.p2align 4,,15
 1048              		.globl	_ZNK27TestHexIO_testJunkStartCode7RunImplEv
 1050              	_ZNK27TestHexIO_testJunkStartCode7RunImplEv:
 1051              	.LFB1184:
 1052              		.cfi_startproc
 1053              		.cfi_personality 0x3,__gxx_personality_v0
 1054              		.cfi_lsda 0x3,.LLSDA1184
 1055 0000 53       		pushq	%rbx
 1056              		.cfi_def_cfa_offset 16
 1057              		.cfi_offset 3, -16
 1058 0001 31C9     		xorl	%ecx, %ecx
 1059 0003 31D2     		xorl	%edx, %edx
 1060 0005 BE000400 		movl	$1024, %esi
 1060      00
 1061 000a 4883C480 		addq	$-128, %rsp
 1062              		.cfi_def_cfa_offset 144
 1063 000e 488D7C24 		leaq	64(%rsp), %rdi
 1063      40
 1064 0013 C7442420 		movl	$0, 32(%rsp)
 1064      00000000 
 1065              	.LEHB6:
 1066 001b E8000000 		call	bufInitialise
 1066      00
 1067              	.LEHE6:
 1068 0020 8944243C 		movl	%eax, 60(%rsp)
 1069              	.LEHB7:
 1070 0024 E8000000 		call	_ZN8UnitTest11CurrentTest7DetailsEv
 1070      00
 1071 0029 488D5C24 		leaq	96(%rsp), %rbx
 1071      60
 1072 002e 488B30   		movq	(%rax), %rsi
 1073 0031 BA4C0000 		movl	$76, %edx
 1073      00
 1074 0036 4889DF   		movq	%rbx, %rdi
 1075 0039 E8000000 		call	_ZN8UnitTest11TestDetailsC1ERKS0_i
 1075      00
 1076 003e C7442430 		movl	$0, 48(%rsp)
 1076      00000000 
 1077 0046 E8000000 		call	_ZN8UnitTest11CurrentTest7ResultsEv
 1077      00
 1078 004b 488B38   		movq	(%rax), %rdi
 1079 004e 488D5424 		leaq	60(%rsp), %rdx
 1079      3C
 1080 0053 488D7424 		leaq	48(%rsp), %rsi
 1080      30
 1081 0058 4889D9   		movq	%rbx, %rcx
 1082 005b E8000000 		call	_ZN8UnitTest10CheckEqualI12BufferStatusS1_EEvRNS_11TestResultsERKT_RKT0_RKNS_11TestDetailsE
 1082      00
 1083              	.LEHE7:
 1084              	.L115:
 1085 0060 4C8D4C24 		leaq	31(%rsp), %r9
 1085      1F
 1086 0065 4C8D4424 		leaq	32(%rsp), %r8
 1086      20
 1087 006a 488D5424 		leaq	64(%rsp), %rdx
 1087      40
 1088 006f 48C70424 		movq	$0, (%rsp)
 1088      00000000 
 1089 0077 31C9     		xorl	%ecx, %ecx
 1090 0079 31F6     		xorl	%esi, %esi
 1091 007b BF000000 		movl	$.LC2, %edi
 1091      00
 1092              	.LEHB8:
 1093 0080 E8000000 		call	bufProcessLine
 1093      00
 1094              	.LEHE8:
 1095 0085 8944243C 		movl	%eax, 60(%rsp)
 1096              	.LEHB9:
 1097 0089 E8000000 		call	_ZN8UnitTest11CurrentTest7DetailsEv
 1097      00
 1098 008e 488B30   		movq	(%rax), %rsi
 1099 0091 BA4E0000 		movl	$78, %edx
 1099      00
 1100 0096 4889DF   		movq	%rbx, %rdi
 1101 0099 E8000000 		call	_ZN8UnitTest11TestDetailsC1ERKS0_i
 1101      00
 1102 009e C7442430 		movl	$8, 48(%rsp)
 1102      08000000 
 1103 00a6 E8000000 		call	_ZN8UnitTest11CurrentTest7ResultsEv
 1103      00
 1104 00ab 488B38   		movq	(%rax), %rdi
 1105 00ae 488D5424 		leaq	60(%rsp), %rdx
 1105      3C
 1106 00b3 488D7424 		leaq	48(%rsp), %rsi
 1106      30
 1107 00b8 4889D9   		movq	%rbx, %rcx
 1108 00bb E8000000 		call	_ZN8UnitTest10CheckEqualI12BufferStatusS1_EEvRNS_11TestResultsERKT_RKT0_RKNS_11TestDetailsE
 1108      00
 1109              	.LEHE9:
 1110              	.L118:
 1111 00c0 488D7C24 		leaq	64(%rsp), %rdi
 1111      40
 1112              	.LEHB10:
 1113 00c5 E8000000 		call	bufDestroy
 1113      00
 1114              	.LEHE10:
 1115 00ca 4883EC80 		subq	$-128, %rsp
 1116              		.cfi_remember_state
 1117              		.cfi_def_cfa_offset 16
 1118 00ce 5B       		popq	%rbx
 1119              		.cfi_def_cfa_offset 8
 1120 00cf C3       		ret
 1121              	.L119:
 1122              		.cfi_restore_state
 1123 00d0 4889C7   		movq	%rax, %rdi
 1124 00d3 E8000000 		call	__cxa_begin_catch
 1124      00
 1125              	.LEHB11:
 1126 00d8 E8000000 		call	_ZN8UnitTest11CurrentTest7DetailsEv
 1126      00
 1127 00dd 488D5C24 		leaq	96(%rsp), %rbx
 1127      60
 1128 00e2 488B30   		movq	(%rax), %rsi
 1129 00e5 BA4C0000 		movl	$76, %edx
 1129      00
 1130 00ea 4889DF   		movq	%rbx, %rdi
 1131 00ed E8000000 		call	_ZN8UnitTest11TestDetailsC1ERKS0_i
 1131      00
 1132 00f2 E8000000 		call	_ZN8UnitTest11CurrentTest7ResultsEv
 1132      00
 1133 00f7 488B38   		movq	(%rax), %rdi
 1134 00fa BA000000 		movl	$.LC3, %edx
 1134      00
 1135 00ff 4889DE   		movq	%rbx, %rsi
 1136 0102 E8000000 		call	_ZN8UnitTest11TestResults13OnTestFailureERKNS_11TestDetailsEPKc
 1136      00
 1137              	.LEHE11:
 1138              	.LEHB12:
 1139 0107 E8000000 		call	__cxa_end_catch
 1139      00
 1140              	.LEHE12:
 1141 010c E94FFFFF 		jmp	.L115
 1141      FF
 1142              	.L121:
 1143 0111 4889C7   		movq	%rax, %rdi
 1144              		.p2align 4,,5
 1145 0114 E8000000 		call	__cxa_begin_catch
 1145      00
 1146              		.p2align 4,,5
 1147              	.LEHB13:
 1148 0119 E8000000 		call	_ZN8UnitTest11CurrentTest7DetailsEv
 1148      00
 1149 011e 488B30   		movq	(%rax), %rsi
 1150 0121 BA4E0000 		movl	$78, %edx
 1150      00
 1151 0126 4889DF   		movq	%rbx, %rdi
 1152 0129 E8000000 		call	_ZN8UnitTest11TestDetailsC1ERKS0_i
 1152      00
 1153 012e E8000000 		call	_ZN8UnitTest11CurrentTest7ResultsEv
 1153      00
 1154 0133 488B38   		movq	(%rax), %rdi
 1155 0136 BA000000 		movl	$.LC4, %edx
 1155      00
 1156 013b 4889DE   		movq	%rbx, %rsi
 1157 013e E8000000 		call	_ZN8UnitTest11TestResults13OnTestFailureERKNS_11TestDetailsEPKc
 1157      00
 1158              	.LEHE13:
 1159              	.LEHB14:
 1160 0143 E8000000 		call	__cxa_end_catch
 1160      00
 1161              	.LEHE14:
 1162 0148 E973FFFF 		jmp	.L118
 1162      FF
 1163              	.L120:
 1164 014d 4889C3   		movq	%rax, %rbx
 1165              		.p2align 4,,5
 1166 0150 E8000000 		call	__cxa_end_catch
 1166      00
 1167 0155 4889DF   		movq	%rbx, %rdi
 1168              	.LEHB15:
 1169 0158 E8000000 		call	_Unwind_Resume
 1169      00
 1170              	.LEHE15:
 1171              	.L122:
 1172 015d 4889C3   		movq	%rax, %rbx
 1173 0160 E8000000 		call	__cxa_end_catch
 1173      00
 1174 0165 4889DF   		movq	%rbx, %rdi
 1175              	.LEHB16:
 1176 0168 E8000000 		call	_Unwind_Resume
 1176      00
 1177              	.LEHE16:
 1178              		.cfi_endproc
 1179              	.LFE1184:
 1180              		.section	.gcc_except_table,"a",@progbits
 1181              		.align 4
 1182              	.LLSDA1184:
 1183 0000 FF       		.byte	0xff
 1184 0001 03       		.byte	0x3
 1185 0002 41       		.uleb128 .LLSDATT1184-.LLSDATTD1184
 1186              	.LLSDATTD1184:
 1187 0003 01       		.byte	0x1
 1188 0004 39       		.uleb128 .LLSDACSE1184-.LLSDACSB1184
 1189              	.LLSDACSB1184:
 1190 0005 1B       		.uleb128 .LEHB6-.LFB1184
 1191 0006 05       		.uleb128 .LEHE6-.LEHB6
 1192 0007 00       		.uleb128 0
 1193 0008 00       		.uleb128 0
 1194 0009 24       		.uleb128 .LEHB7-.LFB1184
 1195 000a 3C       		.uleb128 .LEHE7-.LEHB7
 1196 000b D001     		.uleb128 .L119-.LFB1184
 1197 000d 01       		.uleb128 0x1
 1198 000e 8001     		.uleb128 .LEHB8-.LFB1184
 1199 0010 05       		.uleb128 .LEHE8-.LEHB8
 1200 0011 00       		.uleb128 0
 1201 0012 00       		.uleb128 0
 1202 0013 8901     		.uleb128 .LEHB9-.LFB1184
 1203 0015 37       		.uleb128 .LEHE9-.LEHB9
 1204 0016 9102     		.uleb128 .L121-.LFB1184
 1205 0018 01       		.uleb128 0x1
 1206 0019 C501     		.uleb128 .LEHB10-.LFB1184
 1207 001b 05       		.uleb128 .LEHE10-.LEHB10
 1208 001c 00       		.uleb128 0
 1209 001d 00       		.uleb128 0
 1210 001e D801     		.uleb128 .LEHB11-.LFB1184
 1211 0020 2F       		.uleb128 .LEHE11-.LEHB11
 1212 0021 CD02     		.uleb128 .L120-.LFB1184
 1213 0023 00       		.uleb128 0
 1214 0024 8702     		.uleb128 .LEHB12-.LFB1184
 1215 0026 05       		.uleb128 .LEHE12-.LEHB12
 1216 0027 00       		.uleb128 0
 1217 0028 00       		.uleb128 0
 1218 0029 9902     		.uleb128 .LEHB13-.LFB1184
 1219 002b 2A       		.uleb128 .LEHE13-.LEHB13
 1220 002c DD02     		.uleb128 .L122-.LFB1184
 1221 002e 00       		.uleb128 0
 1222 002f C302     		.uleb128 .LEHB14-.LFB1184
 1223 0031 05       		.uleb128 .LEHE14-.LEHB14
 1224 0032 00       		.uleb128 0
 1225 0033 00       		.uleb128 0
 1226 0034 D802     		.uleb128 .LEHB15-.LFB1184
 1227 0036 05       		.uleb128 .LEHE15-.LEHB15
 1228 0037 00       		.uleb128 0
 1229 0038 00       		.uleb128 0
 1230 0039 E802     		.uleb128 .LEHB16-.LFB1184
 1231 003b 05       		.uleb128 .LEHE16-.LEHB16
 1232 003c 00       		.uleb128 0
 1233 003d 00       		.uleb128 0
 1234              	.LLSDACSE1184:
 1235 003e 01       		.byte	0x1
 1236 003f 00       		.byte	0
 1237              		.align 4
 1238 0040 00000000 		.long	0
 1239              	
 1240              	.LLSDATT1184:
 1241              		.text
 1243              		.section	.rodata.str1.1
 1244              	.LC5:
 1245 0029 3A2E2E30 		.string	":..0BE10075820022F7\n"
 1245      42453130 
 1245      30373538 
 1245      32303032 
 1245      3246370A 
 1246              		.section	.rodata.str1.8
 1247              		.align 8
 1248              	.LC6:
 1249 0078 556E6861 		.string	"Unhandled exception in CHECK_EQUAL(HEX_JUNK_BYTE_COUNT, status)"
 1249      6E646C65 
 1249      64206578 
 1249      63657074 
 1249      696F6E20 
 1250              		.text
 1251 016d 90       		.align 2
 1252 016e 6690     		.p2align 4,,15
 1253              		.globl	_ZNK27TestHexIO_testJunkByteCount7RunImplEv
 1255              	_ZNK27TestHexIO_testJunkByteCount7RunImplEv:
 1256              	.LFB1188:
 1257              		.cfi_startproc
 1258              		.cfi_personality 0x3,__gxx_personality_v0
 1259              		.cfi_lsda 0x3,.LLSDA1188
 1260 0170 53       		pushq	%rbx
 1261              		.cfi_def_cfa_offset 16
 1262              		.cfi_offset 3, -16
 1263 0171 31C9     		xorl	%ecx, %ecx
 1264 0173 31D2     		xorl	%edx, %edx
 1265 0175 BE000400 		movl	$1024, %esi
 1265      00
 1266 017a 4883C480 		addq	$-128, %rsp
 1267              		.cfi_def_cfa_offset 144
 1268 017e 488D7C24 		leaq	64(%rsp), %rdi
 1268      40
 1269 0183 C7442420 		movl	$0, 32(%rsp)
 1269      00000000 
 1270              	.LEHB17:
 1271 018b E8000000 		call	bufInitialise
 1271      00
 1272              	.LEHE17:
 1273 0190 8944243C 		movl	%eax, 60(%rsp)
 1274              	.LEHB18:
 1275 0194 E8000000 		call	_ZN8UnitTest11CurrentTest7DetailsEv
 1275      00
 1276 0199 488D5C24 		leaq	96(%rsp), %rbx
 1276      60
 1277 019e 488B30   		movq	(%rax), %rsi
 1278 01a1 BA590000 		movl	$89, %edx
 1278      00
 1279 01a6 4889DF   		movq	%rbx, %rdi
 1280 01a9 E8000000 		call	_ZN8UnitTest11TestDetailsC1ERKS0_i
 1280      00
 1281 01ae C7442430 		movl	$0, 48(%rsp)
 1281      00000000 
 1282 01b6 E8000000 		call	_ZN8UnitTest11CurrentTest7ResultsEv
 1282      00
 1283 01bb 488B38   		movq	(%rax), %rdi
 1284 01be 488D5424 		leaq	60(%rsp), %rdx
 1284      3C
 1285 01c3 488D7424 		leaq	48(%rsp), %rsi
 1285      30
 1286 01c8 4889D9   		movq	%rbx, %rcx
 1287 01cb E8000000 		call	_ZN8UnitTest10CheckEqualI12BufferStatusS1_EEvRNS_11TestResultsERKT_RKT0_RKNS_11TestDetailsE
 1287      00
 1288              	.LEHE18:
 1289              	.L128:
 1290 01d0 4C8D4C24 		leaq	31(%rsp), %r9
 1290      1F
 1291 01d5 4C8D4424 		leaq	32(%rsp), %r8
 1291      20
 1292 01da 488D5424 		leaq	64(%rsp), %rdx
 1292      40
 1293 01df 48C70424 		movq	$0, (%rsp)
 1293      00000000 
 1294 01e7 31C9     		xorl	%ecx, %ecx
 1295 01e9 31F6     		xorl	%esi, %esi
 1296 01eb BF000000 		movl	$.LC5, %edi
 1296      00
 1297              	.LEHB19:
 1298 01f0 E8000000 		call	bufProcessLine
 1298      00
 1299              	.LEHE19:
 1300 01f5 8944243C 		movl	%eax, 60(%rsp)
 1301              	.LEHB20:
 1302 01f9 E8000000 		call	_ZN8UnitTest11CurrentTest7DetailsEv
 1302      00
 1303 01fe 488B30   		movq	(%rax), %rsi
 1304 0201 BA5B0000 		movl	$91, %edx
 1304      00
 1305 0206 4889DF   		movq	%rbx, %rdi
 1306 0209 E8000000 		call	_ZN8UnitTest11TestDetailsC1ERKS0_i
 1306      00
 1307 020e C7442430 		movl	$9, 48(%rsp)
 1307      09000000 
 1308 0216 E8000000 		call	_ZN8UnitTest11CurrentTest7ResultsEv
 1308      00
 1309 021b 488B38   		movq	(%rax), %rdi
 1310 021e 488D5424 		leaq	60(%rsp), %rdx
 1310      3C
 1311 0223 488D7424 		leaq	48(%rsp), %rsi
 1311      30
 1312 0228 4889D9   		movq	%rbx, %rcx
 1313 022b E8000000 		call	_ZN8UnitTest10CheckEqualI12BufferStatusS1_EEvRNS_11TestResultsERKT_RKT0_RKNS_11TestDetailsE
 1313      00
 1314              	.LEHE20:
 1315              	.L131:
 1316 0230 488D7C24 		leaq	64(%rsp), %rdi
 1316      40
 1317              	.LEHB21:
 1318 0235 E8000000 		call	bufDestroy
 1318      00
 1319              	.LEHE21:
 1320 023a 4883EC80 		subq	$-128, %rsp
 1321              		.cfi_remember_state
 1322              		.cfi_def_cfa_offset 16
 1323 023e 5B       		popq	%rbx
 1324              		.cfi_def_cfa_offset 8
 1325 023f C3       		ret
 1326              	.L132:
 1327              		.cfi_restore_state
 1328 0240 4889C7   		movq	%rax, %rdi
 1329 0243 E8000000 		call	__cxa_begin_catch
 1329      00
 1330              	.LEHB22:
 1331 0248 E8000000 		call	_ZN8UnitTest11CurrentTest7DetailsEv
 1331      00
 1332 024d 488D5C24 		leaq	96(%rsp), %rbx
 1332      60
 1333 0252 488B30   		movq	(%rax), %rsi
 1334 0255 BA590000 		movl	$89, %edx
 1334      00
 1335 025a 4889DF   		movq	%rbx, %rdi
 1336 025d E8000000 		call	_ZN8UnitTest11TestDetailsC1ERKS0_i
 1336      00
 1337 0262 E8000000 		call	_ZN8UnitTest11CurrentTest7ResultsEv
 1337      00
 1338 0267 488B38   		movq	(%rax), %rdi
 1339 026a BA000000 		movl	$.LC3, %edx
 1339      00
 1340 026f 4889DE   		movq	%rbx, %rsi
 1341 0272 E8000000 		call	_ZN8UnitTest11TestResults13OnTestFailureERKNS_11TestDetailsEPKc
 1341      00
 1342              	.LEHE22:
 1343              	.LEHB23:
 1344 0277 E8000000 		call	__cxa_end_catch
 1344      00
 1345              	.LEHE23:
 1346 027c E94FFFFF 		jmp	.L128
 1346      FF
 1347              	.L134:
 1348 0281 4889C7   		movq	%rax, %rdi
 1349              		.p2align 4,,5
 1350 0284 E8000000 		call	__cxa_begin_catch
 1350      00
 1351              		.p2align 4,,5
 1352              	.LEHB24:
 1353 0289 E8000000 		call	_ZN8UnitTest11CurrentTest7DetailsEv
 1353      00
 1354 028e 488B30   		movq	(%rax), %rsi
 1355 0291 BA5B0000 		movl	$91, %edx
 1355      00
 1356 0296 4889DF   		movq	%rbx, %rdi
 1357 0299 E8000000 		call	_ZN8UnitTest11TestDetailsC1ERKS0_i
 1357      00
 1358 029e E8000000 		call	_ZN8UnitTest11CurrentTest7ResultsEv
 1358      00
 1359 02a3 488B38   		movq	(%rax), %rdi
 1360 02a6 BA000000 		movl	$.LC6, %edx
 1360      00
 1361 02ab 4889DE   		movq	%rbx, %rsi
 1362 02ae E8000000 		call	_ZN8UnitTest11TestResults13OnTestFailureERKNS_11TestDetailsEPKc
 1362      00
 1363              	.LEHE24:
 1364              	.LEHB25:
 1365 02b3 E8000000 		call	__cxa_end_catch
 1365      00
 1366              	.LEHE25:
 1367 02b8 E973FFFF 		jmp	.L131
 1367      FF
 1368              	.L133:
 1369 02bd 4889C3   		movq	%rax, %rbx
 1370              		.p2align 4,,5
 1371 02c0 E8000000 		call	__cxa_end_catch
 1371      00
 1372 02c5 4889DF   		movq	%rbx, %rdi
 1373              	.LEHB26:
 1374 02c8 E8000000 		call	_Unwind_Resume
 1374      00
 1375              	.LEHE26:
 1376              	.L135:
 1377 02cd 4889C3   		movq	%rax, %rbx
 1378 02d0 E8000000 		call	__cxa_end_catch
 1378      00
 1379 02d5 4889DF   		movq	%rbx, %rdi
 1380              	.LEHB27:
 1381 02d8 E8000000 		call	_Unwind_Resume
 1381      00
 1382              	.LEHE27:
 1383              		.cfi_endproc
 1384              	.LFE1188:
 1385              		.section	.gcc_except_table
 1386              		.align 4
 1387              	.LLSDA1188:
 1388 0044 FF       		.byte	0xff
 1389 0045 03       		.byte	0x3
 1390 0046 41       		.uleb128 .LLSDATT1188-.LLSDATTD1188
 1391              	.LLSDATTD1188:
 1392 0047 01       		.byte	0x1
 1393 0048 39       		.uleb128 .LLSDACSE1188-.LLSDACSB1188
 1394              	.LLSDACSB1188:
 1395 0049 1B       		.uleb128 .LEHB17-.LFB1188
 1396 004a 05       		.uleb128 .LEHE17-.LEHB17
 1397 004b 00       		.uleb128 0
 1398 004c 00       		.uleb128 0
 1399 004d 24       		.uleb128 .LEHB18-.LFB1188
 1400 004e 3C       		.uleb128 .LEHE18-.LEHB18
 1401 004f D001     		.uleb128 .L132-.LFB1188
 1402 0051 01       		.uleb128 0x1
 1403 0052 8001     		.uleb128 .LEHB19-.LFB1188
 1404 0054 05       		.uleb128 .LEHE19-.LEHB19
 1405 0055 00       		.uleb128 0
 1406 0056 00       		.uleb128 0
 1407 0057 8901     		.uleb128 .LEHB20-.LFB1188
 1408 0059 37       		.uleb128 .LEHE20-.LEHB20
 1409 005a 9102     		.uleb128 .L134-.LFB1188
 1410 005c 01       		.uleb128 0x1
 1411 005d C501     		.uleb128 .LEHB21-.LFB1188
 1412 005f 05       		.uleb128 .LEHE21-.LEHB21
 1413 0060 00       		.uleb128 0
 1414 0061 00       		.uleb128 0
 1415 0062 D801     		.uleb128 .LEHB22-.LFB1188
 1416 0064 2F       		.uleb128 .LEHE22-.LEHB22
 1417 0065 CD02     		.uleb128 .L133-.LFB1188
 1418 0067 00       		.uleb128 0
 1419 0068 8702     		.uleb128 .LEHB23-.LFB1188
 1420 006a 05       		.uleb128 .LEHE23-.LEHB23
 1421 006b 00       		.uleb128 0
 1422 006c 00       		.uleb128 0
 1423 006d 9902     		.uleb128 .LEHB24-.LFB1188
 1424 006f 2A       		.uleb128 .LEHE24-.LEHB24
 1425 0070 DD02     		.uleb128 .L135-.LFB1188
 1426 0072 00       		.uleb128 0
 1427 0073 C302     		.uleb128 .LEHB25-.LFB1188
 1428 0075 05       		.uleb128 .LEHE25-.LEHB25
 1429 0076 00       		.uleb128 0
 1430 0077 00       		.uleb128 0
 1431 0078 D802     		.uleb128 .LEHB26-.LFB1188
 1432 007a 05       		.uleb128 .LEHE26-.LEHB26
 1433 007b 00       		.uleb128 0
 1434 007c 00       		.uleb128 0
 1435 007d E802     		.uleb128 .LEHB27-.LFB1188
 1436 007f 05       		.uleb128 .LEHE27-.LEHB27
 1437 0080 00       		.uleb128 0
 1438 0081 00       		.uleb128 0
 1439              	.LLSDACSE1188:
 1440 0082 01       		.byte	0x1
 1441 0083 00       		.byte	0
 1442              		.align 4
 1443 0084 00000000 		.long	0
 1444              	
 1445              	.LLSDATT1188:
 1446              		.text
 1448              		.section	.rodata.str1.1
 1449              	.LC7:
 1450 003e 3A30342E 		.string	":04..E10075820022F7\n"
 1450      2E453130 
 1450      30373538 
 1450      32303032 
 1450      3246370A 
 1451              		.section	.rodata.str1.8
 1452              		.align 8
 1453              	.LC8:
 1454 00b8 556E6861 		.string	"Unhandled exception in CHECK_EQUAL(HEX_JUNK_ADDR_MSB, status)"
 1454      6E646C65 
 1454      64206578 
 1454      63657074 
 1454      696F6E20 
 1455              		.text
 1456 02dd 90       		.align 2
 1457 02de 6690     		.p2align 4,,15
 1458              		.globl	_ZNK25TestHexIO_testJunkAddrMsb7RunImplEv
 1460              	_ZNK25TestHexIO_testJunkAddrMsb7RunImplEv:
 1461              	.LFB1192:
 1462              		.cfi_startproc
 1463              		.cfi_personality 0x3,__gxx_personality_v0
 1464              		.cfi_lsda 0x3,.LLSDA1192
 1465 02e0 53       		pushq	%rbx
 1466              		.cfi_def_cfa_offset 16
 1467              		.cfi_offset 3, -16
 1468 02e1 31C9     		xorl	%ecx, %ecx
 1469 02e3 31D2     		xorl	%edx, %edx
 1470 02e5 BE000400 		movl	$1024, %esi
 1470      00
 1471 02ea 4883C480 		addq	$-128, %rsp
 1472              		.cfi_def_cfa_offset 144
 1473 02ee 488D7C24 		leaq	64(%rsp), %rdi
 1473      40
 1474 02f3 C7442420 		movl	$0, 32(%rsp)
 1474      00000000 
 1475              	.LEHB28:
 1476 02fb E8000000 		call	bufInitialise
 1476      00
 1477              	.LEHE28:
 1478 0300 8944243C 		movl	%eax, 60(%rsp)
 1479              	.LEHB29:
 1480 0304 E8000000 		call	_ZN8UnitTest11CurrentTest7DetailsEv
 1480      00
 1481 0309 488D5C24 		leaq	96(%rsp), %rbx
 1481      60
 1482 030e 488B30   		movq	(%rax), %rsi
 1483 0311 BA660000 		movl	$102, %edx
 1483      00
 1484 0316 4889DF   		movq	%rbx, %rdi
 1485 0319 E8000000 		call	_ZN8UnitTest11TestDetailsC1ERKS0_i
 1485      00
 1486 031e C7442430 		movl	$0, 48(%rsp)
 1486      00000000 
 1487 0326 E8000000 		call	_ZN8UnitTest11CurrentTest7ResultsEv
 1487      00
 1488 032b 488B38   		movq	(%rax), %rdi
 1489 032e 488D5424 		leaq	60(%rsp), %rdx
 1489      3C
 1490 0333 488D7424 		leaq	48(%rsp), %rsi
 1490      30
 1491 0338 4889D9   		movq	%rbx, %rcx
 1492 033b E8000000 		call	_ZN8UnitTest10CheckEqualI12BufferStatusS1_EEvRNS_11TestResultsERKT_RKT0_RKNS_11TestDetailsE
 1492      00
 1493              	.LEHE29:
 1494              	.L141:
 1495 0340 4C8D4C24 		leaq	31(%rsp), %r9
 1495      1F
 1496 0345 4C8D4424 		leaq	32(%rsp), %r8
 1496      20
 1497 034a 488D5424 		leaq	64(%rsp), %rdx
 1497      40
 1498 034f 48C70424 		movq	$0, (%rsp)
 1498      00000000 
 1499 0357 31C9     		xorl	%ecx, %ecx
 1500 0359 31F6     		xorl	%esi, %esi
 1501 035b BF000000 		movl	$.LC7, %edi
 1501      00
 1502              	.LEHB30:
 1503 0360 E8000000 		call	bufProcessLine
 1503      00
 1504              	.LEHE30:
 1505 0365 8944243C 		movl	%eax, 60(%rsp)
 1506              	.LEHB31:
 1507 0369 E8000000 		call	_ZN8UnitTest11CurrentTest7DetailsEv
 1507      00
 1508 036e 488B30   		movq	(%rax), %rsi
 1509 0371 BA680000 		movl	$104, %edx
 1509      00
 1510 0376 4889DF   		movq	%rbx, %rdi
 1511 0379 E8000000 		call	_ZN8UnitTest11TestDetailsC1ERKS0_i
 1511      00
 1512 037e C7442430 		movl	$10, 48(%rsp)
 1512      0A000000 
 1513 0386 E8000000 		call	_ZN8UnitTest11CurrentTest7ResultsEv
 1513      00
 1514 038b 488B38   		movq	(%rax), %rdi
 1515 038e 488D5424 		leaq	60(%rsp), %rdx
 1515      3C
 1516 0393 488D7424 		leaq	48(%rsp), %rsi
 1516      30
 1517 0398 4889D9   		movq	%rbx, %rcx
 1518 039b E8000000 		call	_ZN8UnitTest10CheckEqualI12BufferStatusS1_EEvRNS_11TestResultsERKT_RKT0_RKNS_11TestDetailsE
 1518      00
 1519              	.LEHE31:
 1520              	.L144:
 1521 03a0 488D7C24 		leaq	64(%rsp), %rdi
 1521      40
 1522              	.LEHB32:
 1523 03a5 E8000000 		call	bufDestroy
 1523      00
 1524              	.LEHE32:
 1525 03aa 4883EC80 		subq	$-128, %rsp
 1526              		.cfi_remember_state
 1527              		.cfi_def_cfa_offset 16
 1528 03ae 5B       		popq	%rbx
 1529              		.cfi_def_cfa_offset 8
 1530 03af C3       		ret
 1531              	.L145:
 1532              		.cfi_restore_state
 1533 03b0 4889C7   		movq	%rax, %rdi
 1534 03b3 E8000000 		call	__cxa_begin_catch
 1534      00
 1535              	.LEHB33:
 1536 03b8 E8000000 		call	_ZN8UnitTest11CurrentTest7DetailsEv
 1536      00
 1537 03bd 488D5C24 		leaq	96(%rsp), %rbx
 1537      60
 1538 03c2 488B30   		movq	(%rax), %rsi
 1539 03c5 BA660000 		movl	$102, %edx
 1539      00
 1540 03ca 4889DF   		movq	%rbx, %rdi
 1541 03cd E8000000 		call	_ZN8UnitTest11TestDetailsC1ERKS0_i
 1541      00
 1542 03d2 E8000000 		call	_ZN8UnitTest11CurrentTest7ResultsEv
 1542      00
 1543 03d7 488B38   		movq	(%rax), %rdi
 1544 03da BA000000 		movl	$.LC3, %edx
 1544      00
 1545 03df 4889DE   		movq	%rbx, %rsi
 1546 03e2 E8000000 		call	_ZN8UnitTest11TestResults13OnTestFailureERKNS_11TestDetailsEPKc
 1546      00
 1547              	.LEHE33:
 1548              	.LEHB34:
 1549 03e7 E8000000 		call	__cxa_end_catch
 1549      00
 1550              	.LEHE34:
 1551 03ec E94FFFFF 		jmp	.L141
 1551      FF
 1552              	.L147:
 1553 03f1 4889C7   		movq	%rax, %rdi
 1554              		.p2align 4,,5
 1555 03f4 E8000000 		call	__cxa_begin_catch
 1555      00
 1556              		.p2align 4,,5
 1557              	.LEHB35:
 1558 03f9 E8000000 		call	_ZN8UnitTest11CurrentTest7DetailsEv
 1558      00
 1559 03fe 488B30   		movq	(%rax), %rsi
 1560 0401 BA680000 		movl	$104, %edx
 1560      00
 1561 0406 4889DF   		movq	%rbx, %rdi
 1562 0409 E8000000 		call	_ZN8UnitTest11TestDetailsC1ERKS0_i
 1562      00
 1563 040e E8000000 		call	_ZN8UnitTest11CurrentTest7ResultsEv
 1563      00
 1564 0413 488B38   		movq	(%rax), %rdi
 1565 0416 BA000000 		movl	$.LC8, %edx
 1565      00
 1566 041b 4889DE   		movq	%rbx, %rsi
 1567 041e E8000000 		call	_ZN8UnitTest11TestResults13OnTestFailureERKNS_11TestDetailsEPKc
 1567      00
 1568              	.LEHE35:
 1569              	.LEHB36:
 1570 0423 E8000000 		call	__cxa_end_catch
 1570      00
 1571              	.LEHE36:
 1572 0428 E973FFFF 		jmp	.L144
 1572      FF
 1573              	.L146:
 1574 042d 4889C3   		movq	%rax, %rbx
 1575              		.p2align 4,,5
 1576 0430 E8000000 		call	__cxa_end_catch
 1576      00
 1577 0435 4889DF   		movq	%rbx, %rdi
 1578              	.LEHB37:
 1579 0438 E8000000 		call	_Unwind_Resume
 1579      00
 1580              	.LEHE37:
 1581              	.L148:
 1582 043d 4889C3   		movq	%rax, %rbx
 1583 0440 E8000000 		call	__cxa_end_catch
 1583      00
 1584 0445 4889DF   		movq	%rbx, %rdi
 1585              	.LEHB38:
 1586 0448 E8000000 		call	_Unwind_Resume
 1586      00
 1587              	.LEHE38:
 1588              		.cfi_endproc
 1589              	.LFE1192:
 1590              		.section	.gcc_except_table
 1591              		.align 4
 1592              	.LLSDA1192:
 1593 0088 FF       		.byte	0xff
 1594 0089 03       		.byte	0x3
 1595 008a 41       		.uleb128 .LLSDATT1192-.LLSDATTD1192
 1596              	.LLSDATTD1192:
 1597 008b 01       		.byte	0x1
 1598 008c 39       		.uleb128 .LLSDACSE1192-.LLSDACSB1192
 1599              	.LLSDACSB1192:
 1600 008d 1B       		.uleb128 .LEHB28-.LFB1192
 1601 008e 05       		.uleb128 .LEHE28-.LEHB28
 1602 008f 00       		.uleb128 0
 1603 0090 00       		.uleb128 0
 1604 0091 24       		.uleb128 .LEHB29-.LFB1192
 1605 0092 3C       		.uleb128 .LEHE29-.LEHB29
 1606 0093 D001     		.uleb128 .L145-.LFB1192
 1607 0095 01       		.uleb128 0x1
 1608 0096 8001     		.uleb128 .LEHB30-.LFB1192
 1609 0098 05       		.uleb128 .LEHE30-.LEHB30
 1610 0099 00       		.uleb128 0
 1611 009a 00       		.uleb128 0
 1612 009b 8901     		.uleb128 .LEHB31-.LFB1192
 1613 009d 37       		.uleb128 .LEHE31-.LEHB31
 1614 009e 9102     		.uleb128 .L147-.LFB1192
 1615 00a0 01       		.uleb128 0x1
 1616 00a1 C501     		.uleb128 .LEHB32-.LFB1192
 1617 00a3 05       		.uleb128 .LEHE32-.LEHB32
 1618 00a4 00       		.uleb128 0
 1619 00a5 00       		.uleb128 0
 1620 00a6 D801     		.uleb128 .LEHB33-.LFB1192
 1621 00a8 2F       		.uleb128 .LEHE33-.LEHB33
 1622 00a9 CD02     		.uleb128 .L146-.LFB1192
 1623 00ab 00       		.uleb128 0
 1624 00ac 8702     		.uleb128 .LEHB34-.LFB1192
 1625 00ae 05       		.uleb128 .LEHE34-.LEHB34
 1626 00af 00       		.uleb128 0
 1627 00b0 00       		.uleb128 0
 1628 00b1 9902     		.uleb128 .LEHB35-.LFB1192
 1629 00b3 2A       		.uleb128 .LEHE35-.LEHB35
 1630 00b4 DD02     		.uleb128 .L148-.LFB1192
 1631 00b6 00       		.uleb128 0
 1632 00b7 C302     		.uleb128 .LEHB36-.LFB1192
 1633 00b9 05       		.uleb128 .LEHE36-.LEHB36
 1634 00ba 00       		.uleb128 0
 1635 00bb 00       		.uleb128 0
 1636 00bc D802     		.uleb128 .LEHB37-.LFB1192
 1637 00be 05       		.uleb128 .LEHE37-.LEHB37
 1638 00bf 00       		.uleb128 0
 1639 00c0 00       		.uleb128 0
 1640 00c1 E802     		.uleb128 .LEHB38-.LFB1192
 1641 00c3 05       		.uleb128 .LEHE38-.LEHB38
 1642 00c4 00       		.uleb128 0
 1643 00c5 00       		.uleb128 0
 1644              	.LLSDACSE1192:
 1645 00c6 01       		.byte	0x1
 1646 00c7 00       		.byte	0
 1647              		.align 4
 1648 00c8 00000000 		.long	0
 1649              	
 1650              	.LLSDATT1192:
 1651              		.text
 1653              		.section	.rodata.str1.1
 1654              	.LC9:
 1655 0053 3A303430 		.string	":040B..0075820022F7\n"
 1655      422E2E30 
 1655      30373538 
 1655      32303032 
 1655      3246370A 
 1656              		.section	.rodata.str1.8
 1657 00f6 0000     		.align 8
 1658              	.LC10:
 1659 00f8 556E6861 		.string	"Unhandled exception in CHECK_EQUAL(HEX_JUNK_ADDR_LSB, status)"
 1659      6E646C65 
 1659      64206578 
 1659      63657074 
 1659      696F6E20 
 1660              		.text
 1661 044d 90       		.align 2
 1662 044e 6690     		.p2align 4,,15
 1663              		.globl	_ZNK25TestHexIO_testJunkAddrLsb7RunImplEv
 1665              	_ZNK25TestHexIO_testJunkAddrLsb7RunImplEv:
 1666              	.LFB1196:
 1667              		.cfi_startproc
 1668              		.cfi_personality 0x3,__gxx_personality_v0
 1669              		.cfi_lsda 0x3,.LLSDA1196
 1670 0450 53       		pushq	%rbx
 1671              		.cfi_def_cfa_offset 16
 1672              		.cfi_offset 3, -16
 1673 0451 31C9     		xorl	%ecx, %ecx
 1674 0453 31D2     		xorl	%edx, %edx
 1675 0455 BE000400 		movl	$1024, %esi
 1675      00
 1676 045a 4883C480 		addq	$-128, %rsp
 1677              		.cfi_def_cfa_offset 144
 1678 045e 488D7C24 		leaq	64(%rsp), %rdi
 1678      40
 1679 0463 C7442420 		movl	$0, 32(%rsp)
 1679      00000000 
 1680              	.LEHB39:
 1681 046b E8000000 		call	bufInitialise
 1681      00
 1682              	.LEHE39:
 1683 0470 8944243C 		movl	%eax, 60(%rsp)
 1684              	.LEHB40:
 1685 0474 E8000000 		call	_ZN8UnitTest11CurrentTest7DetailsEv
 1685      00
 1686 0479 488D5C24 		leaq	96(%rsp), %rbx
 1686      60
 1687 047e 488B30   		movq	(%rax), %rsi
 1688 0481 BA730000 		movl	$115, %edx
 1688      00
 1689 0486 4889DF   		movq	%rbx, %rdi
 1690 0489 E8000000 		call	_ZN8UnitTest11TestDetailsC1ERKS0_i
 1690      00
 1691 048e C7442430 		movl	$0, 48(%rsp)
 1691      00000000 
 1692 0496 E8000000 		call	_ZN8UnitTest11CurrentTest7ResultsEv
 1692      00
 1693 049b 488B38   		movq	(%rax), %rdi
 1694 049e 488D5424 		leaq	60(%rsp), %rdx
 1694      3C
 1695 04a3 488D7424 		leaq	48(%rsp), %rsi
 1695      30
 1696 04a8 4889D9   		movq	%rbx, %rcx
 1697 04ab E8000000 		call	_ZN8UnitTest10CheckEqualI12BufferStatusS1_EEvRNS_11TestResultsERKT_RKT0_RKNS_11TestDetailsE
 1697      00
 1698              	.LEHE40:
 1699              	.L154:
 1700 04b0 4C8D4C24 		leaq	31(%rsp), %r9
 1700      1F
 1701 04b5 4C8D4424 		leaq	32(%rsp), %r8
 1701      20
 1702 04ba 488D5424 		leaq	64(%rsp), %rdx
 1702      40
 1703 04bf 48C70424 		movq	$0, (%rsp)
 1703      00000000 
 1704 04c7 31C9     		xorl	%ecx, %ecx
 1705 04c9 31F6     		xorl	%esi, %esi
 1706 04cb BF000000 		movl	$.LC9, %edi
 1706      00
 1707              	.LEHB41:
 1708 04d0 E8000000 		call	bufProcessLine
 1708      00
 1709              	.LEHE41:
 1710 04d5 8944243C 		movl	%eax, 60(%rsp)
 1711              	.LEHB42:
 1712 04d9 E8000000 		call	_ZN8UnitTest11CurrentTest7DetailsEv
 1712      00
 1713 04de 488B30   		movq	(%rax), %rsi
 1714 04e1 BA750000 		movl	$117, %edx
 1714      00
 1715 04e6 4889DF   		movq	%rbx, %rdi
 1716 04e9 E8000000 		call	_ZN8UnitTest11TestDetailsC1ERKS0_i
 1716      00
 1717 04ee C7442430 		movl	$11, 48(%rsp)
 1717      0B000000 
 1718 04f6 E8000000 		call	_ZN8UnitTest11CurrentTest7ResultsEv
 1718      00
 1719 04fb 488B38   		movq	(%rax), %rdi
 1720 04fe 488D5424 		leaq	60(%rsp), %rdx
 1720      3C
 1721 0503 488D7424 		leaq	48(%rsp), %rsi
 1721      30
 1722 0508 4889D9   		movq	%rbx, %rcx
 1723 050b E8000000 		call	_ZN8UnitTest10CheckEqualI12BufferStatusS1_EEvRNS_11TestResultsERKT_RKT0_RKNS_11TestDetailsE
 1723      00
 1724              	.LEHE42:
 1725              	.L157:
 1726 0510 488D7C24 		leaq	64(%rsp), %rdi
 1726      40
 1727              	.LEHB43:
 1728 0515 E8000000 		call	bufDestroy
 1728      00
 1729              	.LEHE43:
 1730 051a 4883EC80 		subq	$-128, %rsp
 1731              		.cfi_remember_state
 1732              		.cfi_def_cfa_offset 16
 1733 051e 5B       		popq	%rbx
 1734              		.cfi_def_cfa_offset 8
 1735 051f C3       		ret
 1736              	.L158:
 1737              		.cfi_restore_state
 1738 0520 4889C7   		movq	%rax, %rdi
 1739 0523 E8000000 		call	__cxa_begin_catch
 1739      00
 1740              	.LEHB44:
 1741 0528 E8000000 		call	_ZN8UnitTest11CurrentTest7DetailsEv
 1741      00
 1742 052d 488D5C24 		leaq	96(%rsp), %rbx
 1742      60
 1743 0532 488B30   		movq	(%rax), %rsi
 1744 0535 BA730000 		movl	$115, %edx
 1744      00
 1745 053a 4889DF   		movq	%rbx, %rdi
 1746 053d E8000000 		call	_ZN8UnitTest11TestDetailsC1ERKS0_i
 1746      00
 1747 0542 E8000000 		call	_ZN8UnitTest11CurrentTest7ResultsEv
 1747      00
 1748 0547 488B38   		movq	(%rax), %rdi
 1749 054a BA000000 		movl	$.LC3, %edx
 1749      00
 1750 054f 4889DE   		movq	%rbx, %rsi
 1751 0552 E8000000 		call	_ZN8UnitTest11TestResults13OnTestFailureERKNS_11TestDetailsEPKc
 1751      00
 1752              	.LEHE44:
 1753              	.LEHB45:
 1754 0557 E8000000 		call	__cxa_end_catch
 1754      00
 1755              	.LEHE45:
 1756 055c E94FFFFF 		jmp	.L154
 1756      FF
 1757              	.L160:
 1758 0561 4889C7   		movq	%rax, %rdi
 1759              		.p2align 4,,5
 1760 0564 E8000000 		call	__cxa_begin_catch
 1760      00
 1761              		.p2align 4,,5
 1762              	.LEHB46:
 1763 0569 E8000000 		call	_ZN8UnitTest11CurrentTest7DetailsEv
 1763      00
 1764 056e 488B30   		movq	(%rax), %rsi
 1765 0571 BA750000 		movl	$117, %edx
 1765      00
 1766 0576 4889DF   		movq	%rbx, %rdi
 1767 0579 E8000000 		call	_ZN8UnitTest11TestDetailsC1ERKS0_i
 1767      00
 1768 057e E8000000 		call	_ZN8UnitTest11CurrentTest7ResultsEv
 1768      00
 1769 0583 488B38   		movq	(%rax), %rdi
 1770 0586 BA000000 		movl	$.LC10, %edx
 1770      00
 1771 058b 4889DE   		movq	%rbx, %rsi
 1772 058e E8000000 		call	_ZN8UnitTest11TestResults13OnTestFailureERKNS_11TestDetailsEPKc
 1772      00
 1773              	.LEHE46:
 1774              	.LEHB47:
 1775 0593 E8000000 		call	__cxa_end_catch
 1775      00
 1776              	.LEHE47:
 1777 0598 E973FFFF 		jmp	.L157
 1777      FF
 1778              	.L159:
 1779 059d 4889C3   		movq	%rax, %rbx
 1780              		.p2align 4,,5
 1781 05a0 E8000000 		call	__cxa_end_catch
 1781      00
 1782 05a5 4889DF   		movq	%rbx, %rdi
 1783              	.LEHB48:
 1784 05a8 E8000000 		call	_Unwind_Resume
 1784      00
 1785              	.LEHE48:
 1786              	.L161:
 1787 05ad 4889C3   		movq	%rax, %rbx
 1788 05b0 E8000000 		call	__cxa_end_catch
 1788      00
 1789 05b5 4889DF   		movq	%rbx, %rdi
 1790              	.LEHB49:
 1791 05b8 E8000000 		call	_Unwind_Resume
 1791      00
 1792              	.LEHE49:
 1793              		.cfi_endproc
 1794              	.LFE1196:
 1795              		.section	.gcc_except_table
 1796              		.align 4
 1797              	.LLSDA1196:
 1798 00cc FF       		.byte	0xff
 1799 00cd 03       		.byte	0x3
 1800 00ce 41       		.uleb128 .LLSDATT1196-.LLSDATTD1196
 1801              	.LLSDATTD1196:
 1802 00cf 01       		.byte	0x1
 1803 00d0 39       		.uleb128 .LLSDACSE1196-.LLSDACSB1196
 1804              	.LLSDACSB1196:
 1805 00d1 1B       		.uleb128 .LEHB39-.LFB1196
 1806 00d2 05       		.uleb128 .LEHE39-.LEHB39
 1807 00d3 00       		.uleb128 0
 1808 00d4 00       		.uleb128 0
 1809 00d5 24       		.uleb128 .LEHB40-.LFB1196
 1810 00d6 3C       		.uleb128 .LEHE40-.LEHB40
 1811 00d7 D001     		.uleb128 .L158-.LFB1196
 1812 00d9 01       		.uleb128 0x1
 1813 00da 8001     		.uleb128 .LEHB41-.LFB1196
 1814 00dc 05       		.uleb128 .LEHE41-.LEHB41
 1815 00dd 00       		.uleb128 0
 1816 00de 00       		.uleb128 0
 1817 00df 8901     		.uleb128 .LEHB42-.LFB1196
 1818 00e1 37       		.uleb128 .LEHE42-.LEHB42
 1819 00e2 9102     		.uleb128 .L160-.LFB1196
 1820 00e4 01       		.uleb128 0x1
 1821 00e5 C501     		.uleb128 .LEHB43-.LFB1196
 1822 00e7 05       		.uleb128 .LEHE43-.LEHB43
 1823 00e8 00       		.uleb128 0
 1824 00e9 00       		.uleb128 0
 1825 00ea D801     		.uleb128 .LEHB44-.LFB1196
 1826 00ec 2F       		.uleb128 .LEHE44-.LEHB44
 1827 00ed CD02     		.uleb128 .L159-.LFB1196
 1828 00ef 00       		.uleb128 0
 1829 00f0 8702     		.uleb128 .LEHB45-.LFB1196
 1830 00f2 05       		.uleb128 .LEHE45-.LEHB45
 1831 00f3 00       		.uleb128 0
 1832 00f4 00       		.uleb128 0
 1833 00f5 9902     		.uleb128 .LEHB46-.LFB1196
 1834 00f7 2A       		.uleb128 .LEHE46-.LEHB46
 1835 00f8 DD02     		.uleb128 .L161-.LFB1196
 1836 00fa 00       		.uleb128 0
 1837 00fb C302     		.uleb128 .LEHB47-.LFB1196
 1838 00fd 05       		.uleb128 .LEHE47-.LEHB47
 1839 00fe 00       		.uleb128 0
 1840 00ff 00       		.uleb128 0
 1841 0100 D802     		.uleb128 .LEHB48-.LFB1196
 1842 0102 05       		.uleb128 .LEHE48-.LEHB48
 1843 0103 00       		.uleb128 0
 1844 0104 00       		.uleb128 0
 1845 0105 E802     		.uleb128 .LEHB49-.LFB1196
 1846 0107 05       		.uleb128 .LEHE49-.LEHB49
 1847 0108 00       		.uleb128 0
 1848 0109 00       		.uleb128 0
 1849              	.LLSDACSE1196:
 1850 010a 01       		.byte	0x1
 1851 010b 00       		.byte	0
 1852              		.align 4
 1853 010c 00000000 		.long	0
 1854              	
 1855              	.LLSDATT1196:
 1856              		.text
 1858              		.section	.rodata.str1.1
 1859              	.LC11:
 1860 0068 3A303430 		.string	":040BE1..75820022F7\n"
 1860      4245312E 
 1860      2E373538 
 1860      32303032 
 1860      3246370A 
 1861              		.section	.rodata.str1.8
 1862 0136 0000     		.align 8
 1863              	.LC12:
 1864 0138 556E6861 		.string	"Unhandled exception in CHECK_EQUAL(HEX_JUNK_REC_TYPE, status)"
 1864      6E646C65 
 1864      64206578 
 1864      63657074 
 1864      696F6E20 
 1865              		.text
 1866 05bd 90       		.align 2
 1867 05be 6690     		.p2align 4,,15
 1868              		.globl	_ZNK25TestHexIO_testJunkRecType7RunImplEv
 1870              	_ZNK25TestHexIO_testJunkRecType7RunImplEv:
 1871              	.LFB1200:
 1872              		.cfi_startproc
 1873              		.cfi_personality 0x3,__gxx_personality_v0
 1874              		.cfi_lsda 0x3,.LLSDA1200
 1875 05c0 53       		pushq	%rbx
 1876              		.cfi_def_cfa_offset 16
 1877              		.cfi_offset 3, -16
 1878 05c1 31C9     		xorl	%ecx, %ecx
 1879 05c3 31D2     		xorl	%edx, %edx
 1880 05c5 BE000400 		movl	$1024, %esi
 1880      00
 1881 05ca 4883C480 		addq	$-128, %rsp
 1882              		.cfi_def_cfa_offset 144
 1883 05ce 488D7C24 		leaq	64(%rsp), %rdi
 1883      40
 1884 05d3 C7442420 		movl	$0, 32(%rsp)
 1884      00000000 
 1885              	.LEHB50:
 1886 05db E8000000 		call	bufInitialise
 1886      00
 1887              	.LEHE50:
 1888 05e0 8944243C 		movl	%eax, 60(%rsp)
 1889              	.LEHB51:
 1890 05e4 E8000000 		call	_ZN8UnitTest11CurrentTest7DetailsEv
 1890      00
 1891 05e9 488D5C24 		leaq	96(%rsp), %rbx
 1891      60
 1892 05ee 488B30   		movq	(%rax), %rsi
 1893 05f1 BA800000 		movl	$128, %edx
 1893      00
 1894 05f6 4889DF   		movq	%rbx, %rdi
 1895 05f9 E8000000 		call	_ZN8UnitTest11TestDetailsC1ERKS0_i
 1895      00
 1896 05fe C7442430 		movl	$0, 48(%rsp)
 1896      00000000 
 1897 0606 E8000000 		call	_ZN8UnitTest11CurrentTest7ResultsEv
 1897      00
 1898 060b 488B38   		movq	(%rax), %rdi
 1899 060e 488D5424 		leaq	60(%rsp), %rdx
 1899      3C
 1900 0613 488D7424 		leaq	48(%rsp), %rsi
 1900      30
 1901 0618 4889D9   		movq	%rbx, %rcx
 1902 061b E8000000 		call	_ZN8UnitTest10CheckEqualI12BufferStatusS1_EEvRNS_11TestResultsERKT_RKT0_RKNS_11TestDetailsE
 1902      00
 1903              	.LEHE51:
 1904              	.L167:
 1905 0620 4C8D4C24 		leaq	31(%rsp), %r9
 1905      1F
 1906 0625 4C8D4424 		leaq	32(%rsp), %r8
 1906      20
 1907 062a 488D5424 		leaq	64(%rsp), %rdx
 1907      40
 1908 062f 48C70424 		movq	$0, (%rsp)
 1908      00000000 
 1909 0637 31C9     		xorl	%ecx, %ecx
 1910 0639 31F6     		xorl	%esi, %esi
 1911 063b BF000000 		movl	$.LC11, %edi
 1911      00
 1912              	.LEHB52:
 1913 0640 E8000000 		call	bufProcessLine
 1913      00
 1914              	.LEHE52:
 1915 0645 8944243C 		movl	%eax, 60(%rsp)
 1916              	.LEHB53:
 1917 0649 E8000000 		call	_ZN8UnitTest11CurrentTest7DetailsEv
 1917      00
 1918 064e 488B30   		movq	(%rax), %rsi
 1919 0651 BA820000 		movl	$130, %edx
 1919      00
 1920 0656 4889DF   		movq	%rbx, %rdi
 1921 0659 E8000000 		call	_ZN8UnitTest11TestDetailsC1ERKS0_i
 1921      00
 1922 065e C7442430 		movl	$12, 48(%rsp)
 1922      0C000000 
 1923 0666 E8000000 		call	_ZN8UnitTest11CurrentTest7ResultsEv
 1923      00
 1924 066b 488B38   		movq	(%rax), %rdi
 1925 066e 488D5424 		leaq	60(%rsp), %rdx
 1925      3C
 1926 0673 488D7424 		leaq	48(%rsp), %rsi
 1926      30
 1927 0678 4889D9   		movq	%rbx, %rcx
 1928 067b E8000000 		call	_ZN8UnitTest10CheckEqualI12BufferStatusS1_EEvRNS_11TestResultsERKT_RKT0_RKNS_11TestDetailsE
 1928      00
 1929              	.LEHE53:
 1930              	.L170:
 1931 0680 488D7C24 		leaq	64(%rsp), %rdi
 1931      40
 1932              	.LEHB54:
 1933 0685 E8000000 		call	bufDestroy
 1933      00
 1934              	.LEHE54:
 1935 068a 4883EC80 		subq	$-128, %rsp
 1936              		.cfi_remember_state
 1937              		.cfi_def_cfa_offset 16
 1938 068e 5B       		popq	%rbx
 1939              		.cfi_def_cfa_offset 8
 1940 068f C3       		ret
 1941              	.L171:
 1942              		.cfi_restore_state
 1943 0690 4889C7   		movq	%rax, %rdi
 1944 0693 E8000000 		call	__cxa_begin_catch
 1944      00
 1945              	.LEHB55:
 1946 0698 E8000000 		call	_ZN8UnitTest11CurrentTest7DetailsEv
 1946      00
 1947 069d 488D5C24 		leaq	96(%rsp), %rbx
 1947      60
 1948 06a2 488B30   		movq	(%rax), %rsi
 1949 06a5 BA800000 		movl	$128, %edx
 1949      00
 1950 06aa 4889DF   		movq	%rbx, %rdi
 1951 06ad E8000000 		call	_ZN8UnitTest11TestDetailsC1ERKS0_i
 1951      00
 1952 06b2 E8000000 		call	_ZN8UnitTest11CurrentTest7ResultsEv
 1952      00
 1953 06b7 488B38   		movq	(%rax), %rdi
 1954 06ba BA000000 		movl	$.LC3, %edx
 1954      00
 1955 06bf 4889DE   		movq	%rbx, %rsi
 1956 06c2 E8000000 		call	_ZN8UnitTest11TestResults13OnTestFailureERKNS_11TestDetailsEPKc
 1956      00
 1957              	.LEHE55:
 1958              	.LEHB56:
 1959 06c7 E8000000 		call	__cxa_end_catch
 1959      00
 1960              	.LEHE56:
 1961 06cc E94FFFFF 		jmp	.L167
 1961      FF
 1962              	.L173:
 1963 06d1 4889C7   		movq	%rax, %rdi
 1964              		.p2align 4,,5
 1965 06d4 E8000000 		call	__cxa_begin_catch
 1965      00
 1966              		.p2align 4,,5
 1967              	.LEHB57:
 1968 06d9 E8000000 		call	_ZN8UnitTest11CurrentTest7DetailsEv
 1968      00
 1969 06de 488B30   		movq	(%rax), %rsi
 1970 06e1 BA820000 		movl	$130, %edx
 1970      00
 1971 06e6 4889DF   		movq	%rbx, %rdi
 1972 06e9 E8000000 		call	_ZN8UnitTest11TestDetailsC1ERKS0_i
 1972      00
 1973 06ee E8000000 		call	_ZN8UnitTest11CurrentTest7ResultsEv
 1973      00
 1974 06f3 488B38   		movq	(%rax), %rdi
 1975 06f6 BA000000 		movl	$.LC12, %edx
 1975      00
 1976 06fb 4889DE   		movq	%rbx, %rsi
 1977 06fe E8000000 		call	_ZN8UnitTest11TestResults13OnTestFailureERKNS_11TestDetailsEPKc
 1977      00
 1978              	.LEHE57:
 1979              	.LEHB58:
 1980 0703 E8000000 		call	__cxa_end_catch
 1980      00
 1981              	.LEHE58:
 1982 0708 E973FFFF 		jmp	.L170
 1982      FF
 1983              	.L172:
 1984 070d 4889C3   		movq	%rax, %rbx
 1985              		.p2align 4,,5
 1986 0710 E8000000 		call	__cxa_end_catch
 1986      00
 1987 0715 4889DF   		movq	%rbx, %rdi
 1988              	.LEHB59:
 1989 0718 E8000000 		call	_Unwind_Resume
 1989      00
 1990              	.LEHE59:
 1991              	.L174:
 1992 071d 4889C3   		movq	%rax, %rbx
 1993 0720 E8000000 		call	__cxa_end_catch
 1993      00
 1994 0725 4889DF   		movq	%rbx, %rdi
 1995              	.LEHB60:
 1996 0728 E8000000 		call	_Unwind_Resume
 1996      00
 1997              	.LEHE60:
 1998              		.cfi_endproc
 1999              	.LFE1200:
 2000              		.section	.gcc_except_table
 2001              		.align 4
 2002              	.LLSDA1200:
 2003 0110 FF       		.byte	0xff
 2004 0111 03       		.byte	0x3
 2005 0112 41       		.uleb128 .LLSDATT1200-.LLSDATTD1200
 2006              	.LLSDATTD1200:
 2007 0113 01       		.byte	0x1
 2008 0114 39       		.uleb128 .LLSDACSE1200-.LLSDACSB1200
 2009              	.LLSDACSB1200:
 2010 0115 1B       		.uleb128 .LEHB50-.LFB1200
 2011 0116 05       		.uleb128 .LEHE50-.LEHB50
 2012 0117 00       		.uleb128 0
 2013 0118 00       		.uleb128 0
 2014 0119 24       		.uleb128 .LEHB51-.LFB1200
 2015 011a 3C       		.uleb128 .LEHE51-.LEHB51
 2016 011b D001     		.uleb128 .L171-.LFB1200
 2017 011d 01       		.uleb128 0x1
 2018 011e 8001     		.uleb128 .LEHB52-.LFB1200
 2019 0120 05       		.uleb128 .LEHE52-.LEHB52
 2020 0121 00       		.uleb128 0
 2021 0122 00       		.uleb128 0
 2022 0123 8901     		.uleb128 .LEHB53-.LFB1200
 2023 0125 37       		.uleb128 .LEHE53-.LEHB53
 2024 0126 9102     		.uleb128 .L173-.LFB1200
 2025 0128 01       		.uleb128 0x1
 2026 0129 C501     		.uleb128 .LEHB54-.LFB1200
 2027 012b 05       		.uleb128 .LEHE54-.LEHB54
 2028 012c 00       		.uleb128 0
 2029 012d 00       		.uleb128 0
 2030 012e D801     		.uleb128 .LEHB55-.LFB1200
 2031 0130 2F       		.uleb128 .LEHE55-.LEHB55
 2032 0131 CD02     		.uleb128 .L172-.LFB1200
 2033 0133 00       		.uleb128 0
 2034 0134 8702     		.uleb128 .LEHB56-.LFB1200
 2035 0136 05       		.uleb128 .LEHE56-.LEHB56
 2036 0137 00       		.uleb128 0
 2037 0138 00       		.uleb128 0
 2038 0139 9902     		.uleb128 .LEHB57-.LFB1200
 2039 013b 2A       		.uleb128 .LEHE57-.LEHB57
 2040 013c DD02     		.uleb128 .L174-.LFB1200
 2041 013e 00       		.uleb128 0
 2042 013f C302     		.uleb128 .LEHB58-.LFB1200
 2043 0141 05       		.uleb128 .LEHE58-.LEHB58
 2044 0142 00       		.uleb128 0
 2045 0143 00       		.uleb128 0
 2046 0144 D802     		.uleb128 .LEHB59-.LFB1200
 2047 0146 05       		.uleb128 .LEHE59-.LEHB59
 2048 0147 00       		.uleb128 0
 2049 0148 00       		.uleb128 0
 2050 0149 E802     		.uleb128 .LEHB60-.LFB1200
 2051 014b 05       		.uleb128 .LEHE60-.LEHB60
 2052 014c 00       		.uleb128 0
 2053 014d 00       		.uleb128 0
 2054              	.LLSDACSE1200:
 2055 014e 01       		.byte	0x1
 2056 014f 00       		.byte	0
 2057              		.align 4
 2058 0150 00000000 		.long	0
 2059              	
 2060              	.LLSDATT1200:
 2061              		.text
 2063              		.section	.rodata.str1.1
 2064              	.LC13:
 2065 007d 3A303430 		.string	":040BE100..820022F7\n"
 2065      42453130 
 2065      302E2E38 
 2065      32303032 
 2065      3246370A 
 2066              		.section	.rodata.str1.8
 2067 0176 0000     		.align 8
 2068              	.LC14:
 2069 0178 556E6861 		.string	"Unhandled exception in CHECK_EQUAL(HEX_JUNK_DATA_BYTE, status)"
 2069      6E646C65 
 2069      64206578 
 2069      63657074 
 2069      696F6E20 
 2070              		.text
 2071 072d 90       		.align 2
 2072 072e 6690     		.p2align 4,,15
 2073              		.globl	_ZNK26TestHexIO_testJunkDataByte7RunImplEv
 2075              	_ZNK26TestHexIO_testJunkDataByte7RunImplEv:
 2076              	.LFB1204:
 2077              		.cfi_startproc
 2078              		.cfi_personality 0x3,__gxx_personality_v0
 2079              		.cfi_lsda 0x3,.LLSDA1204
 2080 0730 53       		pushq	%rbx
 2081              		.cfi_def_cfa_offset 16
 2082              		.cfi_offset 3, -16
 2083 0731 31C9     		xorl	%ecx, %ecx
 2084 0733 31D2     		xorl	%edx, %edx
 2085 0735 BE000400 		movl	$1024, %esi
 2085      00
 2086 073a 4883C480 		addq	$-128, %rsp
 2087              		.cfi_def_cfa_offset 144
 2088 073e 488D7C24 		leaq	64(%rsp), %rdi
 2088      40
 2089 0743 C7442420 		movl	$0, 32(%rsp)
 2089      00000000 
 2090              	.LEHB61:
 2091 074b E8000000 		call	bufInitialise
 2091      00
 2092              	.LEHE61:
 2093 0750 8944243C 		movl	%eax, 60(%rsp)
 2094              	.LEHB62:
 2095 0754 E8000000 		call	_ZN8UnitTest11CurrentTest7DetailsEv
 2095      00
 2096 0759 488D5C24 		leaq	96(%rsp), %rbx
 2096      60
 2097 075e 488B30   		movq	(%rax), %rsi
 2098 0761 BA8D0000 		movl	$141, %edx
 2098      00
 2099 0766 4889DF   		movq	%rbx, %rdi
 2100 0769 E8000000 		call	_ZN8UnitTest11TestDetailsC1ERKS0_i
 2100      00
 2101 076e C7442430 		movl	$0, 48(%rsp)
 2101      00000000 
 2102 0776 E8000000 		call	_ZN8UnitTest11CurrentTest7ResultsEv
 2102      00
 2103 077b 488B38   		movq	(%rax), %rdi
 2104 077e 488D5424 		leaq	60(%rsp), %rdx
 2104      3C
 2105 0783 488D7424 		leaq	48(%rsp), %rsi
 2105      30
 2106 0788 4889D9   		movq	%rbx, %rcx
 2107 078b E8000000 		call	_ZN8UnitTest10CheckEqualI12BufferStatusS1_EEvRNS_11TestResultsERKT_RKT0_RKNS_11TestDetailsE
 2107      00
 2108              	.LEHE62:
 2109              	.L180:
 2110 0790 4C8D4C24 		leaq	31(%rsp), %r9
 2110      1F
 2111 0795 4C8D4424 		leaq	32(%rsp), %r8
 2111      20
 2112 079a 488D5424 		leaq	64(%rsp), %rdx
 2112      40
 2113 079f 48C70424 		movq	$0, (%rsp)
 2113      00000000 
 2114 07a7 31C9     		xorl	%ecx, %ecx
 2115 07a9 31F6     		xorl	%esi, %esi
 2116 07ab BF000000 		movl	$.LC13, %edi
 2116      00
 2117              	.LEHB63:
 2118 07b0 E8000000 		call	bufProcessLine
 2118      00
 2119              	.LEHE63:
 2120 07b5 8944243C 		movl	%eax, 60(%rsp)
 2121              	.LEHB64:
 2122 07b9 E8000000 		call	_ZN8UnitTest11CurrentTest7DetailsEv
 2122      00
 2123 07be 488B30   		movq	(%rax), %rsi
 2124 07c1 BA8F0000 		movl	$143, %edx
 2124      00
 2125 07c6 4889DF   		movq	%rbx, %rdi
 2126 07c9 E8000000 		call	_ZN8UnitTest11TestDetailsC1ERKS0_i
 2126      00
 2127 07ce C7442430 		movl	$14, 48(%rsp)
 2127      0E000000 
 2128 07d6 E8000000 		call	_ZN8UnitTest11CurrentTest7ResultsEv
 2128      00
 2129 07db 488B38   		movq	(%rax), %rdi
 2130 07de 488D5424 		leaq	60(%rsp), %rdx
 2130      3C
 2131 07e3 488D7424 		leaq	48(%rsp), %rsi
 2131      30
 2132 07e8 4889D9   		movq	%rbx, %rcx
 2133 07eb E8000000 		call	_ZN8UnitTest10CheckEqualI12BufferStatusS1_EEvRNS_11TestResultsERKT_RKT0_RKNS_11TestDetailsE
 2133      00
 2134              	.LEHE64:
 2135              	.L183:
 2136 07f0 488D7C24 		leaq	64(%rsp), %rdi
 2136      40
 2137              	.LEHB65:
 2138 07f5 E8000000 		call	bufDestroy
 2138      00
 2139              	.LEHE65:
 2140 07fa 4883EC80 		subq	$-128, %rsp
 2141              		.cfi_remember_state
 2142              		.cfi_def_cfa_offset 16
 2143 07fe 5B       		popq	%rbx
 2144              		.cfi_def_cfa_offset 8
 2145 07ff C3       		ret
 2146              	.L184:
 2147              		.cfi_restore_state
 2148 0800 4889C7   		movq	%rax, %rdi
 2149 0803 E8000000 		call	__cxa_begin_catch
 2149      00
 2150              	.LEHB66:
 2151 0808 E8000000 		call	_ZN8UnitTest11CurrentTest7DetailsEv
 2151      00
 2152 080d 488D5C24 		leaq	96(%rsp), %rbx
 2152      60
 2153 0812 488B30   		movq	(%rax), %rsi
 2154 0815 BA8D0000 		movl	$141, %edx
 2154      00
 2155 081a 4889DF   		movq	%rbx, %rdi
 2156 081d E8000000 		call	_ZN8UnitTest11TestDetailsC1ERKS0_i
 2156      00
 2157 0822 E8000000 		call	_ZN8UnitTest11CurrentTest7ResultsEv
 2157      00
 2158 0827 488B38   		movq	(%rax), %rdi
 2159 082a BA000000 		movl	$.LC3, %edx
 2159      00
 2160 082f 4889DE   		movq	%rbx, %rsi
 2161 0832 E8000000 		call	_ZN8UnitTest11TestResults13OnTestFailureERKNS_11TestDetailsEPKc
 2161      00
 2162              	.LEHE66:
 2163              	.LEHB67:
 2164 0837 E8000000 		call	__cxa_end_catch
 2164      00
 2165              	.LEHE67:
 2166 083c E94FFFFF 		jmp	.L180
 2166      FF
 2167              	.L186:
 2168 0841 4889C7   		movq	%rax, %rdi
 2169              		.p2align 4,,5
 2170 0844 E8000000 		call	__cxa_begin_catch
 2170      00
 2171              		.p2align 4,,5
 2172              	.LEHB68:
 2173 0849 E8000000 		call	_ZN8UnitTest11CurrentTest7DetailsEv
 2173      00
 2174 084e 488B30   		movq	(%rax), %rsi
 2175 0851 BA8F0000 		movl	$143, %edx
 2175      00
 2176 0856 4889DF   		movq	%rbx, %rdi
 2177 0859 E8000000 		call	_ZN8UnitTest11TestDetailsC1ERKS0_i
 2177      00
 2178 085e E8000000 		call	_ZN8UnitTest11CurrentTest7ResultsEv
 2178      00
 2179 0863 488B38   		movq	(%rax), %rdi
 2180 0866 BA000000 		movl	$.LC14, %edx
 2180      00
 2181 086b 4889DE   		movq	%rbx, %rsi
 2182 086e E8000000 		call	_ZN8UnitTest11TestResults13OnTestFailureERKNS_11TestDetailsEPKc
 2182      00
 2183              	.LEHE68:
 2184              	.LEHB69:
 2185 0873 E8000000 		call	__cxa_end_catch
 2185      00
 2186              	.LEHE69:
 2187 0878 E973FFFF 		jmp	.L183
 2187      FF
 2188              	.L185:
 2189 087d 4889C3   		movq	%rax, %rbx
 2190              		.p2align 4,,5
 2191 0880 E8000000 		call	__cxa_end_catch
 2191      00
 2192 0885 4889DF   		movq	%rbx, %rdi
 2193              	.LEHB70:
 2194 0888 E8000000 		call	_Unwind_Resume
 2194      00
 2195              	.LEHE70:
 2196              	.L187:
 2197 088d 4889C3   		movq	%rax, %rbx
 2198 0890 E8000000 		call	__cxa_end_catch
 2198      00
 2199 0895 4889DF   		movq	%rbx, %rdi
 2200              	.LEHB71:
 2201 0898 E8000000 		call	_Unwind_Resume
 2201      00
 2202              	.LEHE71:
 2203              		.cfi_endproc
 2204              	.LFE1204:
 2205              		.section	.gcc_except_table
 2206              		.align 4
 2207              	.LLSDA1204:
 2208 0154 FF       		.byte	0xff
 2209 0155 03       		.byte	0x3
 2210 0156 41       		.uleb128 .LLSDATT1204-.LLSDATTD1204
 2211              	.LLSDATTD1204:
 2212 0157 01       		.byte	0x1
 2213 0158 39       		.uleb128 .LLSDACSE1204-.LLSDACSB1204
 2214              	.LLSDACSB1204:
 2215 0159 1B       		.uleb128 .LEHB61-.LFB1204
 2216 015a 05       		.uleb128 .LEHE61-.LEHB61
 2217 015b 00       		.uleb128 0
 2218 015c 00       		.uleb128 0
 2219 015d 24       		.uleb128 .LEHB62-.LFB1204
 2220 015e 3C       		.uleb128 .LEHE62-.LEHB62
 2221 015f D001     		.uleb128 .L184-.LFB1204
 2222 0161 01       		.uleb128 0x1
 2223 0162 8001     		.uleb128 .LEHB63-.LFB1204
 2224 0164 05       		.uleb128 .LEHE63-.LEHB63
 2225 0165 00       		.uleb128 0
 2226 0166 00       		.uleb128 0
 2227 0167 8901     		.uleb128 .LEHB64-.LFB1204
 2228 0169 37       		.uleb128 .LEHE64-.LEHB64
 2229 016a 9102     		.uleb128 .L186-.LFB1204
 2230 016c 01       		.uleb128 0x1
 2231 016d C501     		.uleb128 .LEHB65-.LFB1204
 2232 016f 05       		.uleb128 .LEHE65-.LEHB65
 2233 0170 00       		.uleb128 0
 2234 0171 00       		.uleb128 0
 2235 0172 D801     		.uleb128 .LEHB66-.LFB1204
 2236 0174 2F       		.uleb128 .LEHE66-.LEHB66
 2237 0175 CD02     		.uleb128 .L185-.LFB1204
 2238 0177 00       		.uleb128 0
 2239 0178 8702     		.uleb128 .LEHB67-.LFB1204
 2240 017a 05       		.uleb128 .LEHE67-.LEHB67
 2241 017b 00       		.uleb128 0
 2242 017c 00       		.uleb128 0
 2243 017d 9902     		.uleb128 .LEHB68-.LFB1204
 2244 017f 2A       		.uleb128 .LEHE68-.LEHB68
 2245 0180 DD02     		.uleb128 .L187-.LFB1204
 2246 0182 00       		.uleb128 0
 2247 0183 C302     		.uleb128 .LEHB69-.LFB1204
 2248 0185 05       		.uleb128 .LEHE69-.LEHB69
 2249 0186 00       		.uleb128 0
 2250 0187 00       		.uleb128 0
 2251 0188 D802     		.uleb128 .LEHB70-.LFB1204
 2252 018a 05       		.uleb128 .LEHE70-.LEHB70
 2253 018b 00       		.uleb128 0
 2254 018c 00       		.uleb128 0
 2255 018d E802     		.uleb128 .LEHB71-.LFB1204
 2256 018f 05       		.uleb128 .LEHE71-.LEHB71
 2257 0190 00       		.uleb128 0
 2258 0191 00       		.uleb128 0
 2259              	.LLSDACSE1204:
 2260 0192 01       		.byte	0x1
 2261 0193 00       		.byte	0
 2262              		.align 4
 2263 0194 00000000 		.long	0
 2264              	
 2265              	.LLSDATT1204:
 2266              		.text
 2268              		.section	.rodata.str1.1
 2269              	.LC15:
 2270 0092 3A303430 		.string	":040BE10075820022..\n"
 2270      42453130 
 2270      30373538 
 2270      32303032 
 2270      322E2E0A 
 2271              		.section	.rodata.str1.8
 2272 01b7 00       		.align 8
 2273              	.LC16:
 2274 01b8 556E6861 		.string	"Unhandled exception in CHECK_EQUAL(HEX_JUNK_CHECKSUM, status)"
 2274      6E646C65 
 2274      64206578 
 2274      63657074 
 2274      696F6E20 
 2275              		.text
 2276 089d 90       		.align 2
 2277 089e 6690     		.p2align 4,,15
 2278              		.globl	_ZNK26TestHexIO_testJunkChecksum7RunImplEv
 2280              	_ZNK26TestHexIO_testJunkChecksum7RunImplEv:
 2281              	.LFB1208:
 2282              		.cfi_startproc
 2283              		.cfi_personality 0x3,__gxx_personality_v0
 2284              		.cfi_lsda 0x3,.LLSDA1208
 2285 08a0 53       		pushq	%rbx
 2286              		.cfi_def_cfa_offset 16
 2287              		.cfi_offset 3, -16
 2288 08a1 31C9     		xorl	%ecx, %ecx
 2289 08a3 31D2     		xorl	%edx, %edx
 2290 08a5 BE000400 		movl	$1024, %esi
 2290      00
 2291 08aa 4883C480 		addq	$-128, %rsp
 2292              		.cfi_def_cfa_offset 144
 2293 08ae 488D7C24 		leaq	64(%rsp), %rdi
 2293      40
 2294 08b3 C7442420 		movl	$0, 32(%rsp)
 2294      00000000 
 2295              	.LEHB72:
 2296 08bb E8000000 		call	bufInitialise
 2296      00
 2297              	.LEHE72:
 2298 08c0 8944243C 		movl	%eax, 60(%rsp)
 2299              	.LEHB73:
 2300 08c4 E8000000 		call	_ZN8UnitTest11CurrentTest7DetailsEv
 2300      00
 2301 08c9 488D5C24 		leaq	96(%rsp), %rbx
 2301      60
 2302 08ce 488B30   		movq	(%rax), %rsi
 2303 08d1 BA9A0000 		movl	$154, %edx
 2303      00
 2304 08d6 4889DF   		movq	%rbx, %rdi
 2305 08d9 E8000000 		call	_ZN8UnitTest11TestDetailsC1ERKS0_i
 2305      00
 2306 08de C7442430 		movl	$0, 48(%rsp)
 2306      00000000 
 2307 08e6 E8000000 		call	_ZN8UnitTest11CurrentTest7ResultsEv
 2307      00
 2308 08eb 488B38   		movq	(%rax), %rdi
 2309 08ee 488D5424 		leaq	60(%rsp), %rdx
 2309      3C
 2310 08f3 488D7424 		leaq	48(%rsp), %rsi
 2310      30
 2311 08f8 4889D9   		movq	%rbx, %rcx
 2312 08fb E8000000 		call	_ZN8UnitTest10CheckEqualI12BufferStatusS1_EEvRNS_11TestResultsERKT_RKT0_RKNS_11TestDetailsE
 2312      00
 2313              	.LEHE73:
 2314              	.L193:
 2315 0900 4C8D4C24 		leaq	31(%rsp), %r9
 2315      1F
 2316 0905 4C8D4424 		leaq	32(%rsp), %r8
 2316      20
 2317 090a 488D5424 		leaq	64(%rsp), %rdx
 2317      40
 2318 090f 48C70424 		movq	$0, (%rsp)
 2318      00000000 
 2319 0917 31C9     		xorl	%ecx, %ecx
 2320 0919 31F6     		xorl	%esi, %esi
 2321 091b BF000000 		movl	$.LC15, %edi
 2321      00
 2322              	.LEHB74:
 2323 0920 E8000000 		call	bufProcessLine
 2323      00
 2324              	.LEHE74:
 2325 0925 8944243C 		movl	%eax, 60(%rsp)
 2326              	.LEHB75:
 2327 0929 E8000000 		call	_ZN8UnitTest11CurrentTest7DetailsEv
 2327      00
 2328 092e 488B30   		movq	(%rax), %rsi
 2329 0931 BA9C0000 		movl	$156, %edx
 2329      00
 2330 0936 4889DF   		movq	%rbx, %rdi
 2331 0939 E8000000 		call	_ZN8UnitTest11TestDetailsC1ERKS0_i
 2331      00
 2332 093e C7442430 		movl	$15, 48(%rsp)
 2332      0F000000 
 2333 0946 E8000000 		call	_ZN8UnitTest11CurrentTest7ResultsEv
 2333      00
 2334 094b 488B38   		movq	(%rax), %rdi
 2335 094e 488D5424 		leaq	60(%rsp), %rdx
 2335      3C
 2336 0953 488D7424 		leaq	48(%rsp), %rsi
 2336      30
 2337 0958 4889D9   		movq	%rbx, %rcx
 2338 095b E8000000 		call	_ZN8UnitTest10CheckEqualI12BufferStatusS1_EEvRNS_11TestResultsERKT_RKT0_RKNS_11TestDetailsE
 2338      00
 2339              	.LEHE75:
 2340              	.L196:
 2341 0960 488D7C24 		leaq	64(%rsp), %rdi
 2341      40
 2342              	.LEHB76:
 2343 0965 E8000000 		call	bufDestroy
 2343      00
 2344              	.LEHE76:
 2345 096a 4883EC80 		subq	$-128, %rsp
 2346              		.cfi_remember_state
 2347              		.cfi_def_cfa_offset 16
 2348 096e 5B       		popq	%rbx
 2349              		.cfi_def_cfa_offset 8
 2350 096f C3       		ret
 2351              	.L197:
 2352              		.cfi_restore_state
 2353 0970 4889C7   		movq	%rax, %rdi
 2354 0973 E8000000 		call	__cxa_begin_catch
 2354      00
 2355              	.LEHB77:
 2356 0978 E8000000 		call	_ZN8UnitTest11CurrentTest7DetailsEv
 2356      00
 2357 097d 488D5C24 		leaq	96(%rsp), %rbx
 2357      60
 2358 0982 488B30   		movq	(%rax), %rsi
 2359 0985 BA9A0000 		movl	$154, %edx
 2359      00
 2360 098a 4889DF   		movq	%rbx, %rdi
 2361 098d E8000000 		call	_ZN8UnitTest11TestDetailsC1ERKS0_i
 2361      00
 2362 0992 E8000000 		call	_ZN8UnitTest11CurrentTest7ResultsEv
 2362      00
 2363 0997 488B38   		movq	(%rax), %rdi
 2364 099a BA000000 		movl	$.LC3, %edx
 2364      00
 2365 099f 4889DE   		movq	%rbx, %rsi
 2366 09a2 E8000000 		call	_ZN8UnitTest11TestResults13OnTestFailureERKNS_11TestDetailsEPKc
 2366      00
 2367              	.LEHE77:
 2368              	.LEHB78:
 2369 09a7 E8000000 		call	__cxa_end_catch
 2369      00
 2370              	.LEHE78:
 2371 09ac E94FFFFF 		jmp	.L193
 2371      FF
 2372              	.L199:
 2373 09b1 4889C7   		movq	%rax, %rdi
 2374              		.p2align 4,,5
 2375 09b4 E8000000 		call	__cxa_begin_catch
 2375      00
 2376              		.p2align 4,,5
 2377              	.LEHB79:
 2378 09b9 E8000000 		call	_ZN8UnitTest11CurrentTest7DetailsEv
 2378      00
 2379 09be 488B30   		movq	(%rax), %rsi
 2380 09c1 BA9C0000 		movl	$156, %edx
 2380      00
 2381 09c6 4889DF   		movq	%rbx, %rdi
 2382 09c9 E8000000 		call	_ZN8UnitTest11TestDetailsC1ERKS0_i
 2382      00
 2383 09ce E8000000 		call	_ZN8UnitTest11CurrentTest7ResultsEv
 2383      00
 2384 09d3 488B38   		movq	(%rax), %rdi
 2385 09d6 BA000000 		movl	$.LC16, %edx
 2385      00
 2386 09db 4889DE   		movq	%rbx, %rsi
 2387 09de E8000000 		call	_ZN8UnitTest11TestResults13OnTestFailureERKNS_11TestDetailsEPKc
 2387      00
 2388              	.LEHE79:
 2389              	.LEHB80:
 2390 09e3 E8000000 		call	__cxa_end_catch
 2390      00
 2391              	.LEHE80:
 2392 09e8 E973FFFF 		jmp	.L196
 2392      FF
 2393              	.L198:
 2394 09ed 4889C3   		movq	%rax, %rbx
 2395              		.p2align 4,,5
 2396 09f0 E8000000 		call	__cxa_end_catch
 2396      00
 2397 09f5 4889DF   		movq	%rbx, %rdi
 2398              	.LEHB81:
 2399 09f8 E8000000 		call	_Unwind_Resume
 2399      00
 2400              	.LEHE81:
 2401              	.L200:
 2402 09fd 4889C3   		movq	%rax, %rbx
 2403 0a00 E8000000 		call	__cxa_end_catch
 2403      00
 2404 0a05 4889DF   		movq	%rbx, %rdi
 2405              	.LEHB82:
 2406 0a08 E8000000 		call	_Unwind_Resume
 2406      00
 2407              	.LEHE82:
 2408              		.cfi_endproc
 2409              	.LFE1208:
 2410              		.section	.gcc_except_table
 2411              		.align 4
 2412              	.LLSDA1208:
 2413 0198 FF       		.byte	0xff
 2414 0199 03       		.byte	0x3
 2415 019a 41       		.uleb128 .LLSDATT1208-.LLSDATTD1208
 2416              	.LLSDATTD1208:
 2417 019b 01       		.byte	0x1
 2418 019c 39       		.uleb128 .LLSDACSE1208-.LLSDACSB1208
 2419              	.LLSDACSB1208:
 2420 019d 1B       		.uleb128 .LEHB72-.LFB1208
 2421 019e 05       		.uleb128 .LEHE72-.LEHB72
 2422 019f 00       		.uleb128 0
 2423 01a0 00       		.uleb128 0
 2424 01a1 24       		.uleb128 .LEHB73-.LFB1208
 2425 01a2 3C       		.uleb128 .LEHE73-.LEHB73
 2426 01a3 D001     		.uleb128 .L197-.LFB1208
 2427 01a5 01       		.uleb128 0x1
 2428 01a6 8001     		.uleb128 .LEHB74-.LFB1208
 2429 01a8 05       		.uleb128 .LEHE74-.LEHB74
 2430 01a9 00       		.uleb128 0
 2431 01aa 00       		.uleb128 0
 2432 01ab 8901     		.uleb128 .LEHB75-.LFB1208
 2433 01ad 37       		.uleb128 .LEHE75-.LEHB75
 2434 01ae 9102     		.uleb128 .L199-.LFB1208
 2435 01b0 01       		.uleb128 0x1
 2436 01b1 C501     		.uleb128 .LEHB76-.LFB1208
 2437 01b3 05       		.uleb128 .LEHE76-.LEHB76
 2438 01b4 00       		.uleb128 0
 2439 01b5 00       		.uleb128 0
 2440 01b6 D801     		.uleb128 .LEHB77-.LFB1208
 2441 01b8 2F       		.uleb128 .LEHE77-.LEHB77
 2442 01b9 CD02     		.uleb128 .L198-.LFB1208
 2443 01bb 00       		.uleb128 0
 2444 01bc 8702     		.uleb128 .LEHB78-.LFB1208
 2445 01be 05       		.uleb128 .LEHE78-.LEHB78
 2446 01bf 00       		.uleb128 0
 2447 01c0 00       		.uleb128 0
 2448 01c1 9902     		.uleb128 .LEHB79-.LFB1208
 2449 01c3 2A       		.uleb128 .LEHE79-.LEHB79
 2450 01c4 DD02     		.uleb128 .L200-.LFB1208
 2451 01c6 00       		.uleb128 0
 2452 01c7 C302     		.uleb128 .LEHB80-.LFB1208
 2453 01c9 05       		.uleb128 .LEHE80-.LEHB80
 2454 01ca 00       		.uleb128 0
 2455 01cb 00       		.uleb128 0
 2456 01cc D802     		.uleb128 .LEHB81-.LFB1208
 2457 01ce 05       		.uleb128 .LEHE81-.LEHB81
 2458 01cf 00       		.uleb128 0
 2459 01d0 00       		.uleb128 0
 2460 01d1 E802     		.uleb128 .LEHB82-.LFB1208
 2461 01d3 05       		.uleb128 .LEHE82-.LEHB82
 2462 01d4 00       		.uleb128 0
 2463 01d5 00       		.uleb128 0
 2464              	.LLSDACSE1208:
 2465 01d6 01       		.byte	0x1
 2466 01d7 00       		.byte	0
 2467              		.align 4
 2468 01d8 00000000 		.long	0
 2469              	
 2470              	.LLSDATT1208:
 2471              		.text
 2473              		.section	.rodata.str1.1
 2474              	.LC17:
 2475 00a7 3A303430 		.string	":040BE10075820022F8\n"
 2475      42453130 
 2475      30373538 
 2475      32303032 
 2475      3246380A 
 2476              		.section	.rodata.str1.8
 2477 01f6 0000     		.align 8
 2478              	.LC18:
 2479 01f8 556E6861 		.string	"Unhandled exception in CHECK_EQUAL(HEX_BAD_CHECKSUM, status)"
 2479      6E646C65 
 2479      64206578 
 2479      63657074 
 2479      696F6E20 
 2480              		.text
 2481 0a0d 90       		.align 2
 2482 0a0e 6690     		.p2align 4,,15
 2483              		.globl	_ZNK25TestHexIO_testBadChecksum7RunImplEv
 2485              	_ZNK25TestHexIO_testBadChecksum7RunImplEv:
 2486              	.LFB1212:
 2487              		.cfi_startproc
 2488              		.cfi_personality 0x3,__gxx_personality_v0
 2489              		.cfi_lsda 0x3,.LLSDA1212
 2490 0a10 53       		pushq	%rbx
 2491              		.cfi_def_cfa_offset 16
 2492              		.cfi_offset 3, -16
 2493 0a11 31C9     		xorl	%ecx, %ecx
 2494 0a13 31D2     		xorl	%edx, %edx
 2495 0a15 BE000400 		movl	$1024, %esi
 2495      00
 2496 0a1a 4883C480 		addq	$-128, %rsp
 2497              		.cfi_def_cfa_offset 144
 2498 0a1e 488D7C24 		leaq	64(%rsp), %rdi
 2498      40
 2499 0a23 C7442420 		movl	$0, 32(%rsp)
 2499      00000000 
 2500              	.LEHB83:
 2501 0a2b E8000000 		call	bufInitialise
 2501      00
 2502              	.LEHE83:
 2503 0a30 8944243C 		movl	%eax, 60(%rsp)
 2504              	.LEHB84:
 2505 0a34 E8000000 		call	_ZN8UnitTest11CurrentTest7DetailsEv
 2505      00
 2506 0a39 488D5C24 		leaq	96(%rsp), %rbx
 2506      60
 2507 0a3e 488B30   		movq	(%rax), %rsi
 2508 0a41 BAA70000 		movl	$167, %edx
 2508      00
 2509 0a46 4889DF   		movq	%rbx, %rdi
 2510 0a49 E8000000 		call	_ZN8UnitTest11TestDetailsC1ERKS0_i
 2510      00
 2511 0a4e C7442430 		movl	$0, 48(%rsp)
 2511      00000000 
 2512 0a56 E8000000 		call	_ZN8UnitTest11CurrentTest7ResultsEv
 2512      00
 2513 0a5b 488B38   		movq	(%rax), %rdi
 2514 0a5e 488D5424 		leaq	60(%rsp), %rdx
 2514      3C
 2515 0a63 488D7424 		leaq	48(%rsp), %rsi
 2515      30
 2516 0a68 4889D9   		movq	%rbx, %rcx
 2517 0a6b E8000000 		call	_ZN8UnitTest10CheckEqualI12BufferStatusS1_EEvRNS_11TestResultsERKT_RKT0_RKNS_11TestDetailsE
 2517      00
 2518              	.LEHE84:
 2519              	.L206:
 2520 0a70 4C8D4C24 		leaq	31(%rsp), %r9
 2520      1F
 2521 0a75 4C8D4424 		leaq	32(%rsp), %r8
 2521      20
 2522 0a7a 488D5424 		leaq	64(%rsp), %rdx
 2522      40
 2523 0a7f 48C70424 		movq	$0, (%rsp)
 2523      00000000 
 2524 0a87 31C9     		xorl	%ecx, %ecx
 2525 0a89 31F6     		xorl	%esi, %esi
 2526 0a8b BF000000 		movl	$.LC17, %edi
 2526      00
 2527              	.LEHB85:
 2528 0a90 E8000000 		call	bufProcessLine
 2528      00
 2529              	.LEHE85:
 2530 0a95 8944243C 		movl	%eax, 60(%rsp)
 2531              	.LEHB86:
 2532 0a99 E8000000 		call	_ZN8UnitTest11CurrentTest7DetailsEv
 2532      00
 2533 0a9e 488B30   		movq	(%rax), %rsi
 2534 0aa1 BAA90000 		movl	$169, %edx
 2534      00
 2535 0aa6 4889DF   		movq	%rbx, %rdi
 2536 0aa9 E8000000 		call	_ZN8UnitTest11TestDetailsC1ERKS0_i
 2536      00
 2537 0aae C7442430 		movl	$16, 48(%rsp)
 2537      10000000 
 2538 0ab6 E8000000 		call	_ZN8UnitTest11CurrentTest7ResultsEv
 2538      00
 2539 0abb 488B38   		movq	(%rax), %rdi
 2540 0abe 488D5424 		leaq	60(%rsp), %rdx
 2540      3C
 2541 0ac3 488D7424 		leaq	48(%rsp), %rsi
 2541      30
 2542 0ac8 4889D9   		movq	%rbx, %rcx
 2543 0acb E8000000 		call	_ZN8UnitTest10CheckEqualI12BufferStatusS1_EEvRNS_11TestResultsERKT_RKT0_RKNS_11TestDetailsE
 2543      00
 2544              	.LEHE86:
 2545              	.L209:
 2546 0ad0 488D7C24 		leaq	64(%rsp), %rdi
 2546      40
 2547              	.LEHB87:
 2548 0ad5 E8000000 		call	bufDestroy
 2548      00
 2549              	.LEHE87:
 2550 0ada 4883EC80 		subq	$-128, %rsp
 2551              		.cfi_remember_state
 2552              		.cfi_def_cfa_offset 16
 2553 0ade 5B       		popq	%rbx
 2554              		.cfi_def_cfa_offset 8
 2555 0adf C3       		ret
 2556              	.L210:
 2557              		.cfi_restore_state
 2558 0ae0 4889C7   		movq	%rax, %rdi
 2559 0ae3 E8000000 		call	__cxa_begin_catch
 2559      00
 2560              	.LEHB88:
 2561 0ae8 E8000000 		call	_ZN8UnitTest11CurrentTest7DetailsEv
 2561      00
 2562 0aed 488D5C24 		leaq	96(%rsp), %rbx
 2562      60
 2563 0af2 488B30   		movq	(%rax), %rsi
 2564 0af5 BAA70000 		movl	$167, %edx
 2564      00
 2565 0afa 4889DF   		movq	%rbx, %rdi
 2566 0afd E8000000 		call	_ZN8UnitTest11TestDetailsC1ERKS0_i
 2566      00
 2567 0b02 E8000000 		call	_ZN8UnitTest11CurrentTest7ResultsEv
 2567      00
 2568 0b07 488B38   		movq	(%rax), %rdi
 2569 0b0a BA000000 		movl	$.LC3, %edx
 2569      00
 2570 0b0f 4889DE   		movq	%rbx, %rsi
 2571 0b12 E8000000 		call	_ZN8UnitTest11TestResults13OnTestFailureERKNS_11TestDetailsEPKc
 2571      00
 2572              	.LEHE88:
 2573              	.LEHB89:
 2574 0b17 E8000000 		call	__cxa_end_catch
 2574      00
 2575              	.LEHE89:
 2576 0b1c E94FFFFF 		jmp	.L206
 2576      FF
 2577              	.L212:
 2578 0b21 4889C7   		movq	%rax, %rdi
 2579              		.p2align 4,,5
 2580 0b24 E8000000 		call	__cxa_begin_catch
 2580      00
 2581              		.p2align 4,,5
 2582              	.LEHB90:
 2583 0b29 E8000000 		call	_ZN8UnitTest11CurrentTest7DetailsEv
 2583      00
 2584 0b2e 488B30   		movq	(%rax), %rsi
 2585 0b31 BAA90000 		movl	$169, %edx
 2585      00
 2586 0b36 4889DF   		movq	%rbx, %rdi
 2587 0b39 E8000000 		call	_ZN8UnitTest11TestDetailsC1ERKS0_i
 2587      00
 2588 0b3e E8000000 		call	_ZN8UnitTest11CurrentTest7ResultsEv
 2588      00
 2589 0b43 488B38   		movq	(%rax), %rdi
 2590 0b46 BA000000 		movl	$.LC18, %edx
 2590      00
 2591 0b4b 4889DE   		movq	%rbx, %rsi
 2592 0b4e E8000000 		call	_ZN8UnitTest11TestResults13OnTestFailureERKNS_11TestDetailsEPKc
 2592      00
 2593              	.LEHE90:
 2594              	.LEHB91:
 2595 0b53 E8000000 		call	__cxa_end_catch
 2595      00
 2596              	.LEHE91:
 2597 0b58 E973FFFF 		jmp	.L209
 2597      FF
 2598              	.L211:
 2599 0b5d 4889C3   		movq	%rax, %rbx
 2600              		.p2align 4,,5
 2601 0b60 E8000000 		call	__cxa_end_catch
 2601      00
 2602 0b65 4889DF   		movq	%rbx, %rdi
 2603              	.LEHB92:
 2604 0b68 E8000000 		call	_Unwind_Resume
 2604      00
 2605              	.LEHE92:
 2606              	.L213:
 2607 0b6d 4889C3   		movq	%rax, %rbx
 2608 0b70 E8000000 		call	__cxa_end_catch
 2608      00
 2609 0b75 4889DF   		movq	%rbx, %rdi
 2610              	.LEHB93:
 2611 0b78 E8000000 		call	_Unwind_Resume
 2611      00
 2612              	.LEHE93:
 2613              		.cfi_endproc
 2614              	.LFE1212:
 2615              		.section	.gcc_except_table
 2616              		.align 4
 2617              	.LLSDA1212:
 2618 01dc FF       		.byte	0xff
 2619 01dd 03       		.byte	0x3
 2620 01de 41       		.uleb128 .LLSDATT1212-.LLSDATTD1212
 2621              	.LLSDATTD1212:
 2622 01df 01       		.byte	0x1
 2623 01e0 39       		.uleb128 .LLSDACSE1212-.LLSDACSB1212
 2624              	.LLSDACSB1212:
 2625 01e1 1B       		.uleb128 .LEHB83-.LFB1212
 2626 01e2 05       		.uleb128 .LEHE83-.LEHB83
 2627 01e3 00       		.uleb128 0
 2628 01e4 00       		.uleb128 0
 2629 01e5 24       		.uleb128 .LEHB84-.LFB1212
 2630 01e6 3C       		.uleb128 .LEHE84-.LEHB84
 2631 01e7 D001     		.uleb128 .L210-.LFB1212
 2632 01e9 01       		.uleb128 0x1
 2633 01ea 8001     		.uleb128 .LEHB85-.LFB1212
 2634 01ec 05       		.uleb128 .LEHE85-.LEHB85
 2635 01ed 00       		.uleb128 0
 2636 01ee 00       		.uleb128 0
 2637 01ef 8901     		.uleb128 .LEHB86-.LFB1212
 2638 01f1 37       		.uleb128 .LEHE86-.LEHB86
 2639 01f2 9102     		.uleb128 .L212-.LFB1212
 2640 01f4 01       		.uleb128 0x1
 2641 01f5 C501     		.uleb128 .LEHB87-.LFB1212
 2642 01f7 05       		.uleb128 .LEHE87-.LEHB87
 2643 01f8 00       		.uleb128 0
 2644 01f9 00       		.uleb128 0
 2645 01fa D801     		.uleb128 .LEHB88-.LFB1212
 2646 01fc 2F       		.uleb128 .LEHE88-.LEHB88
 2647 01fd CD02     		.uleb128 .L211-.LFB1212
 2648 01ff 00       		.uleb128 0
 2649 0200 8702     		.uleb128 .LEHB89-.LFB1212
 2650 0202 05       		.uleb128 .LEHE89-.LEHB89
 2651 0203 00       		.uleb128 0
 2652 0204 00       		.uleb128 0
 2653 0205 9902     		.uleb128 .LEHB90-.LFB1212
 2654 0207 2A       		.uleb128 .LEHE90-.LEHB90
 2655 0208 DD02     		.uleb128 .L213-.LFB1212
 2656 020a 00       		.uleb128 0
 2657 020b C302     		.uleb128 .LEHB91-.LFB1212
 2658 020d 05       		.uleb128 .LEHE91-.LEHB91
 2659 020e 00       		.uleb128 0
 2660 020f 00       		.uleb128 0
 2661 0210 D802     		.uleb128 .LEHB92-.LFB1212
 2662 0212 05       		.uleb128 .LEHE92-.LEHB92
 2663 0213 00       		.uleb128 0
 2664 0214 00       		.uleb128 0
 2665 0215 E802     		.uleb128 .LEHB93-.LFB1212
 2666 0217 05       		.uleb128 .LEHE93-.LEHB93
 2667 0218 00       		.uleb128 0
 2668 0219 00       		.uleb128 0
 2669              	.LLSDACSE1212:
 2670 021a 01       		.byte	0x1
 2671 021b 00       		.byte	0
 2672              		.align 4
 2673 021c 00000000 		.long	0
 2674              	
 2675              	.LLSDATT1212:
 2676              		.text
 2678              		.section	.rodata.str1.1
 2679              	.LC19:
 2680 00bc 3A303430 		.string	":040BE10075820022F7 \n"
 2680      42453130 
 2680      30373538 
 2680      32303032 
 2680      32463720 
 2681              		.section	.rodata.str1.8
 2682 0235 000000   		.align 8
 2683              	.LC20:
 2684 0238 556E6861 		.string	"Unhandled exception in CHECK_EQUAL(HEX_CORRUPT_LINE, status)"
 2684      6E646C65 
 2684      64206578 
 2684      63657074 
 2684      696F6E20 
 2685              		.text
 2686 0b7d 90       		.align 2
 2687 0b7e 6690     		.p2align 4,,15
 2688              		.globl	_ZNK25TestHexIO_testCorruptLine7RunImplEv
 2690              	_ZNK25TestHexIO_testCorruptLine7RunImplEv:
 2691              	.LFB1216:
 2692              		.cfi_startproc
 2693              		.cfi_personality 0x3,__gxx_personality_v0
 2694              		.cfi_lsda 0x3,.LLSDA1216
 2695 0b80 53       		pushq	%rbx
 2696              		.cfi_def_cfa_offset 16
 2697              		.cfi_offset 3, -16
 2698 0b81 31C9     		xorl	%ecx, %ecx
 2699 0b83 31D2     		xorl	%edx, %edx
 2700 0b85 BE000400 		movl	$1024, %esi
 2700      00
 2701 0b8a 4883C480 		addq	$-128, %rsp
 2702              		.cfi_def_cfa_offset 144
 2703 0b8e 488D7C24 		leaq	64(%rsp), %rdi
 2703      40
 2704 0b93 C7442420 		movl	$0, 32(%rsp)
 2704      00000000 
 2705              	.LEHB94:
 2706 0b9b E8000000 		call	bufInitialise
 2706      00
 2707              	.LEHE94:
 2708 0ba0 8944243C 		movl	%eax, 60(%rsp)
 2709              	.LEHB95:
 2710 0ba4 E8000000 		call	_ZN8UnitTest11CurrentTest7DetailsEv
 2710      00
 2711 0ba9 488D5C24 		leaq	96(%rsp), %rbx
 2711      60
 2712 0bae 488B30   		movq	(%rax), %rsi
 2713 0bb1 BAB40000 		movl	$180, %edx
 2713      00
 2714 0bb6 4889DF   		movq	%rbx, %rdi
 2715 0bb9 E8000000 		call	_ZN8UnitTest11TestDetailsC1ERKS0_i
 2715      00
 2716 0bbe C7442430 		movl	$0, 48(%rsp)
 2716      00000000 
 2717 0bc6 E8000000 		call	_ZN8UnitTest11CurrentTest7ResultsEv
 2717      00
 2718 0bcb 488B38   		movq	(%rax), %rdi
 2719 0bce 488D5424 		leaq	60(%rsp), %rdx
 2719      3C
 2720 0bd3 488D7424 		leaq	48(%rsp), %rsi
 2720      30
 2721 0bd8 4889D9   		movq	%rbx, %rcx
 2722 0bdb E8000000 		call	_ZN8UnitTest10CheckEqualI12BufferStatusS1_EEvRNS_11TestResultsERKT_RKT0_RKNS_11TestDetailsE
 2722      00
 2723              	.LEHE95:
 2724              	.L219:
 2725 0be0 4C8D4C24 		leaq	31(%rsp), %r9
 2725      1F
 2726 0be5 4C8D4424 		leaq	32(%rsp), %r8
 2726      20
 2727 0bea 488D5424 		leaq	64(%rsp), %rdx
 2727      40
 2728 0bef 48C70424 		movq	$0, (%rsp)
 2728      00000000 
 2729 0bf7 31C9     		xorl	%ecx, %ecx
 2730 0bf9 31F6     		xorl	%esi, %esi
 2731 0bfb BF000000 		movl	$.LC19, %edi
 2731      00
 2732              	.LEHB96:
 2733 0c00 E8000000 		call	bufProcessLine
 2733      00
 2734              	.LEHE96:
 2735 0c05 8944243C 		movl	%eax, 60(%rsp)
 2736              	.LEHB97:
 2737 0c09 E8000000 		call	_ZN8UnitTest11CurrentTest7DetailsEv
 2737      00
 2738 0c0e 488B30   		movq	(%rax), %rsi
 2739 0c11 BAB60000 		movl	$182, %edx
 2739      00
 2740 0c16 4889DF   		movq	%rbx, %rdi
 2741 0c19 E8000000 		call	_ZN8UnitTest11TestDetailsC1ERKS0_i
 2741      00
 2742 0c1e C7442430 		movl	$17, 48(%rsp)
 2742      11000000 
 2743 0c26 E8000000 		call	_ZN8UnitTest11CurrentTest7ResultsEv
 2743      00
 2744 0c2b 488B38   		movq	(%rax), %rdi
 2745 0c2e 488D5424 		leaq	60(%rsp), %rdx
 2745      3C
 2746 0c33 488D7424 		leaq	48(%rsp), %rsi
 2746      30
 2747 0c38 4889D9   		movq	%rbx, %rcx
 2748 0c3b E8000000 		call	_ZN8UnitTest10CheckEqualI12BufferStatusS1_EEvRNS_11TestResultsERKT_RKT0_RKNS_11TestDetailsE
 2748      00
 2749              	.LEHE97:
 2750              	.L222:
 2751 0c40 488D7C24 		leaq	64(%rsp), %rdi
 2751      40
 2752              	.LEHB98:
 2753 0c45 E8000000 		call	bufDestroy
 2753      00
 2754              	.LEHE98:
 2755 0c4a 4883EC80 		subq	$-128, %rsp
 2756              		.cfi_remember_state
 2757              		.cfi_def_cfa_offset 16
 2758 0c4e 5B       		popq	%rbx
 2759              		.cfi_def_cfa_offset 8
 2760 0c4f C3       		ret
 2761              	.L223:
 2762              		.cfi_restore_state
 2763 0c50 4889C7   		movq	%rax, %rdi
 2764 0c53 E8000000 		call	__cxa_begin_catch
 2764      00
 2765              	.LEHB99:
 2766 0c58 E8000000 		call	_ZN8UnitTest11CurrentTest7DetailsEv
 2766      00
 2767 0c5d 488D5C24 		leaq	96(%rsp), %rbx
 2767      60
 2768 0c62 488B30   		movq	(%rax), %rsi
 2769 0c65 BAB40000 		movl	$180, %edx
 2769      00
 2770 0c6a 4889DF   		movq	%rbx, %rdi
 2771 0c6d E8000000 		call	_ZN8UnitTest11TestDetailsC1ERKS0_i
 2771      00
 2772 0c72 E8000000 		call	_ZN8UnitTest11CurrentTest7ResultsEv
 2772      00
 2773 0c77 488B38   		movq	(%rax), %rdi
 2774 0c7a BA000000 		movl	$.LC3, %edx
 2774      00
 2775 0c7f 4889DE   		movq	%rbx, %rsi
 2776 0c82 E8000000 		call	_ZN8UnitTest11TestResults13OnTestFailureERKNS_11TestDetailsEPKc
 2776      00
 2777              	.LEHE99:
 2778              	.LEHB100:
 2779 0c87 E8000000 		call	__cxa_end_catch
 2779      00
 2780              	.LEHE100:
 2781 0c8c E94FFFFF 		jmp	.L219
 2781      FF
 2782              	.L225:
 2783 0c91 4889C7   		movq	%rax, %rdi
 2784              		.p2align 4,,5
 2785 0c94 E8000000 		call	__cxa_begin_catch
 2785      00
 2786              		.p2align 4,,5
 2787              	.LEHB101:
 2788 0c99 E8000000 		call	_ZN8UnitTest11CurrentTest7DetailsEv
 2788      00
 2789 0c9e 488B30   		movq	(%rax), %rsi
 2790 0ca1 BAB60000 		movl	$182, %edx
 2790      00
 2791 0ca6 4889DF   		movq	%rbx, %rdi
 2792 0ca9 E8000000 		call	_ZN8UnitTest11TestDetailsC1ERKS0_i
 2792      00
 2793 0cae E8000000 		call	_ZN8UnitTest11CurrentTest7ResultsEv
 2793      00
 2794 0cb3 488B38   		movq	(%rax), %rdi
 2795 0cb6 BA000000 		movl	$.LC20, %edx
 2795      00
 2796 0cbb 4889DE   		movq	%rbx, %rsi
 2797 0cbe E8000000 		call	_ZN8UnitTest11TestResults13OnTestFailureERKNS_11TestDetailsEPKc
 2797      00
 2798              	.LEHE101:
 2799              	.LEHB102:
 2800 0cc3 E8000000 		call	__cxa_end_catch
 2800      00
 2801              	.LEHE102:
 2802 0cc8 E973FFFF 		jmp	.L222
 2802      FF
 2803              	.L224:
 2804 0ccd 4889C3   		movq	%rax, %rbx
 2805              		.p2align 4,,5
 2806 0cd0 E8000000 		call	__cxa_end_catch
 2806      00
 2807 0cd5 4889DF   		movq	%rbx, %rdi
 2808              	.LEHB103:
 2809 0cd8 E8000000 		call	_Unwind_Resume
 2809      00
 2810              	.LEHE103:
 2811              	.L226:
 2812 0cdd 4889C3   		movq	%rax, %rbx
 2813 0ce0 E8000000 		call	__cxa_end_catch
 2813      00
 2814 0ce5 4889DF   		movq	%rbx, %rdi
 2815              	.LEHB104:
 2816 0ce8 E8000000 		call	_Unwind_Resume
 2816      00
 2817              	.LEHE104:
 2818              		.cfi_endproc
 2819              	.LFE1216:
 2820              		.section	.gcc_except_table
 2821              		.align 4
 2822              	.LLSDA1216:
 2823 0220 FF       		.byte	0xff
 2824 0221 03       		.byte	0x3
 2825 0222 41       		.uleb128 .LLSDATT1216-.LLSDATTD1216
 2826              	.LLSDATTD1216:
 2827 0223 01       		.byte	0x1
 2828 0224 39       		.uleb128 .LLSDACSE1216-.LLSDACSB1216
 2829              	.LLSDACSB1216:
 2830 0225 1B       		.uleb128 .LEHB94-.LFB1216
 2831 0226 05       		.uleb128 .LEHE94-.LEHB94
 2832 0227 00       		.uleb128 0
 2833 0228 00       		.uleb128 0
 2834 0229 24       		.uleb128 .LEHB95-.LFB1216
 2835 022a 3C       		.uleb128 .LEHE95-.LEHB95
 2836 022b D001     		.uleb128 .L223-.LFB1216
 2837 022d 01       		.uleb128 0x1
 2838 022e 8001     		.uleb128 .LEHB96-.LFB1216
 2839 0230 05       		.uleb128 .LEHE96-.LEHB96
 2840 0231 00       		.uleb128 0
 2841 0232 00       		.uleb128 0
 2842 0233 8901     		.uleb128 .LEHB97-.LFB1216
 2843 0235 37       		.uleb128 .LEHE97-.LEHB97
 2844 0236 9102     		.uleb128 .L225-.LFB1216
 2845 0238 01       		.uleb128 0x1
 2846 0239 C501     		.uleb128 .LEHB98-.LFB1216
 2847 023b 05       		.uleb128 .LEHE98-.LEHB98
 2848 023c 00       		.uleb128 0
 2849 023d 00       		.uleb128 0
 2850 023e D801     		.uleb128 .LEHB99-.LFB1216
 2851 0240 2F       		.uleb128 .LEHE99-.LEHB99
 2852 0241 CD02     		.uleb128 .L224-.LFB1216
 2853 0243 00       		.uleb128 0
 2854 0244 8702     		.uleb128 .LEHB100-.LFB1216
 2855 0246 05       		.uleb128 .LEHE100-.LEHB100
 2856 0247 00       		.uleb128 0
 2857 0248 00       		.uleb128 0
 2858 0249 9902     		.uleb128 .LEHB101-.LFB1216
 2859 024b 2A       		.uleb128 .LEHE101-.LEHB101
 2860 024c DD02     		.uleb128 .L226-.LFB1216
 2861 024e 00       		.uleb128 0
 2862 024f C302     		.uleb128 .LEHB102-.LFB1216
 2863 0251 05       		.uleb128 .LEHE102-.LEHB102
 2864 0252 00       		.uleb128 0
 2865 0253 00       		.uleb128 0
 2866 0254 D802     		.uleb128 .LEHB103-.LFB1216
 2867 0256 05       		.uleb128 .LEHE103-.LEHB103
 2868 0257 00       		.uleb128 0
 2869 0258 00       		.uleb128 0
 2870 0259 E802     		.uleb128 .LEHB104-.LFB1216
 2871 025b 05       		.uleb128 .LEHE104-.LEHB104
 2872 025c 00       		.uleb128 0
 2873 025d 00       		.uleb128 0
 2874              	.LLSDACSE1216:
 2875 025e 01       		.byte	0x1
 2876 025f 00       		.byte	0
 2877              		.align 4
 2878 0260 00000000 		.long	0
 2879              	
 2880              	.LLSDATT1216:
 2881              		.text
 2883              		.section	.text._ZN8UnitTest10CheckEqualIihEEvRNS_11TestResultsERKT_RKT0_RKNS_11TestDetailsE,"axG",
 2884              		.p2align 4,,15
 2885              		.weak	_ZN8UnitTest10CheckEqualIihEEvRNS_11TestResultsERKT_RKT0_RKNS_11TestDetailsE
 2887              	_ZN8UnitTest10CheckEqualIihEEvRNS_11TestResultsERKT_RKT0_RKNS_11TestDetailsE:
 2888              	.LFB1259:
 2889              		.cfi_startproc
 2890              		.cfi_personality 0x3,__gxx_personality_v0
 2891              		.cfi_lsda 0x3,.LLSDA1259
 2892 0000 4156     		pushq	%r14
 2893              		.cfi_def_cfa_offset 16
 2894              		.cfi_offset 14, -16
 2895 0002 4155     		pushq	%r13
 2896              		.cfi_def_cfa_offset 24
 2897              		.cfi_offset 13, -24
 2898 0004 4154     		pushq	%r12
 2899              		.cfi_def_cfa_offset 32
 2900              		.cfi_offset 12, -32
 2901 0006 55       		pushq	%rbp
 2902              		.cfi_def_cfa_offset 40
 2903              		.cfi_offset 6, -40
 2904 0007 4889D5   		movq	%rdx, %rbp
 2905 000a 53       		pushq	%rbx
 2906              		.cfi_def_cfa_offset 48
 2907              		.cfi_offset 3, -48
 2908 000b 4889F3   		movq	%rsi, %rbx
 2909 000e 4881EC80 		subq	$384, %rsp
 2909      010000
 2910              		.cfi_def_cfa_offset 432
 2911 0015 0FB602   		movzbl	(%rdx), %eax
 2912 0018 3906     		cmpl	%eax, (%rsi)
 2913 001a 0F840A02 		je	.L229
 2913      0000
 2914 0020 4C8D7424 		leaq	112(%rsp), %r14
 2914      70
 2915 0025 4989FC   		movq	%rdi, %r12
 2916 0028 4989CD   		movq	%rcx, %r13
 2917 002b 4C89F7   		movq	%r14, %rdi
 2918 002e E8000000 		call	_ZNSt8ios_baseC2Ev
 2918      00
 2919 0033 31F6     		xorl	%esi, %esi
 2920 0035 4C89F7   		movq	%r14, %rdi
 2921 0038 48C78424 		movq	$0, 328(%rsp)
 2921      48010000 
 2921      00000000 
 2922 0044 C6842450 		movb	$0, 336(%rsp)
 2922      01000000 
 2923 004c C6842451 		movb	$0, 337(%rsp)
 2923      01000000 
 2924 0054 48C78424 		movq	$0, 344(%rsp)
 2924      58010000 
 2924      00000000 
 2925 0060 48C78424 		movq	$0, 352(%rsp)
 2925      60010000 
 2925      00000000 
 2926 006c 48C78424 		movq	$0, 360(%rsp)
 2926      68010000 
 2926      00000000 
 2927 0078 48C78424 		movq	$0, 368(%rsp)
 2927      70010000 
 2927      00000000 
 2928 0084 48C74424 		movq	$_ZTCN8UnitTest15MemoryOutStreamE0_So+24, 16(%rsp)
 2928      10000000 
 2928      00
 2929 008d 48C74424 		movq	$_ZTCN8UnitTest15MemoryOutStreamE0_So+64, 112(%rsp)
 2929      70000000 
 2929      00
 2930              	.LEHB105:
 2931 0096 E8000000 		call	_ZNSt9basic_iosIcSt11char_traitsIcEE4initEPSt15basic_streambufIcS1_E
 2931      00
 2932              	.LEHE105:
 2933 009b 488D7C24 		leaq	80(%rsp), %rdi
 2933      50
 2934 00a0 48C74424 		movq	$_ZTCN8UnitTest15MemoryOutStreamE0_St19basic_ostringstreamIcSt11char_traitsIcESaIcEE+24, 16(%
 2934      10000000 
 2934      00
 2935 00a9 48C74424 		movq	$_ZTCN8UnitTest15MemoryOutStreamE0_St19basic_ostringstreamIcSt11char_traitsIcESaIcEE+64, 112(
 2935      70000000 
 2935      00
 2936 00b2 48C74424 		movq	$_ZTVSt15basic_streambufIcSt11char_traitsIcEE+16, 24(%rsp)
 2936      18000000 
 2936      00
 2937 00bb 48C74424 		movq	$0, 32(%rsp)
 2937      20000000 
 2937      00
 2938 00c4 48C74424 		movq	$0, 40(%rsp)
 2938      28000000 
 2938      00
 2939 00cd 48C74424 		movq	$0, 48(%rsp)
 2939      30000000 
 2939      00
 2940 00d6 48C74424 		movq	$0, 56(%rsp)
 2940      38000000 
 2940      00
 2941 00df 48C74424 		movq	$0, 64(%rsp)
 2941      40000000 
 2941      00
 2942 00e8 48C74424 		movq	$0, 72(%rsp)
 2942      48000000 
 2942      00
 2943 00f1 E8000000 		call	_ZNSt6localeC1Ev
 2943      00
 2944 00f6 488B4424 		movq	16(%rsp), %rax
 2944      10
 2945 00fb 488D7C24 		leaq	16(%rsp), %rdi
 2945      10
 2946 0100 488D7424 		leaq	24(%rsp), %rsi
 2946      18
 2947 0105 48C74424 		movq	$_ZTVSt15basic_stringbufIcSt11char_traitsIcESaIcEE+16, 24(%rsp)
 2947      18000000 
 2947      00
 2948 010e C7442458 		movl	$16, 88(%rsp)
 2948      10000000 
 2949 0116 48C74424 		movq	$_ZNSs4_Rep20_S_empty_rep_storageE+24, 96(%rsp)
 2949      60000000 
 2949      00
 2950 011f 480378E8 		addq	-24(%rax), %rdi
 2951              	.LEHB106:
 2952 0123 E8000000 		call	_ZNSt9basic_iosIcSt11char_traitsIcEE4initEPSt15basic_streambufIcS1_E
 2952      00
 2953              	.LEHE106:
 2954 0128 488D7C24 		leaq	16(%rsp), %rdi
 2954      10
 2955 012d BA090000 		movl	$9, %edx
 2955      00
 2956 0132 BE000000 		movl	$.LC0, %esi
 2956      00
 2957 0137 48C74424 		movq	$_ZTVN8UnitTest15MemoryOutStreamE+24, 16(%rsp)
 2957      10000000 
 2957      00
 2958 0140 48C74424 		movq	$_ZTVN8UnitTest15MemoryOutStreamE+64, 112(%rsp)
 2958      70000000 
 2958      00
 2959 0149 48C74424 		movq	$_ZNSs4_Rep20_S_empty_rep_storageE+24, 104(%rsp)
 2959      68000000 
 2959      00
 2960 0152 0FB66D00 		movzbl	0(%rbp), %ebp
 2961 0156 8B1B     		movl	(%rbx), %ebx
 2962              	.LEHB107:
 2963 0158 E8000000 		call	_ZSt16__ostream_insertIcSt11char_traitsIcEERSt13basic_ostreamIT_T0_ES6_PKS3_l
 2963      00
 2964 015d 488D7C24 		leaq	16(%rsp), %rdi
 2964      10
 2965 0162 89DE     		movl	%ebx, %esi
 2966 0164 E8000000 		call	_ZNSolsEi
 2966      00
 2967 0169 BA090000 		movl	$9, %edx
 2967      00
 2968 016e BE000000 		movl	$.LC1, %esi
 2968      00
 2969 0173 4889C7   		movq	%rax, %rdi
 2970 0176 4889C3   		movq	%rax, %rbx
 2971 0179 E8000000 		call	_ZSt16__ostream_insertIcSt11char_traitsIcEERSt13basic_ostreamIT_T0_ES6_PKS3_l
 2971      00
 2972 017e BA010000 		movl	$1, %edx
 2972      00
 2973 0183 4889E6   		movq	%rsp, %rsi
 2974 0186 4889DF   		movq	%rbx, %rdi
 2975 0189 40882C24 		movb	%bpl, (%rsp)
 2976 018d E8000000 		call	_ZSt16__ostream_insertIcSt11char_traitsIcEERSt13basic_ostreamIT_T0_ES6_PKS3_l
 2976      00
 2977 0192 488D7C24 		leaq	16(%rsp), %rdi
 2977      10
 2978 0197 E8000000 		call	_ZNK8UnitTest15MemoryOutStream7GetTextEv
 2978      00
 2979 019c 4889C2   		movq	%rax, %rdx
 2980 019f 4C89EE   		movq	%r13, %rsi
 2981 01a2 4C89E7   		movq	%r12, %rdi
 2982 01a5 E8000000 		call	_ZN8UnitTest11TestResults13OnTestFailureERKNS_11TestDetailsEPKc
 2982      00
 2983              	.LEHE107:
 2984 01aa 488B4424 		movq	104(%rsp), %rax
 2984      68
 2985 01af 48C74424 		movq	$_ZTVN8UnitTest15MemoryOutStreamE+24, 16(%rsp)
 2985      10000000 
 2985      00
 2986 01b8 48C74424 		movq	$_ZTVN8UnitTest15MemoryOutStreamE+64, 112(%rsp)
 2986      70000000 
 2986      00
 2987 01c1 488D78E8 		leaq	-24(%rax), %rdi
 2988 01c5 4881FF00 		cmpq	$_ZNSs4_Rep20_S_empty_rep_storageE, %rdi
 2988      000000
 2989 01cc 756C     		jne	.L252
 2990              	.L236:
 2991 01ce 488B4424 		movq	96(%rsp), %rax
 2991      60
 2992 01d3 48C74424 		movq	$_ZTCN8UnitTest15MemoryOutStreamE0_St19basic_ostringstreamIcSt11char_traitsIcESaIcEE+24, 16(%
 2992      10000000 
 2992      00
 2993 01dc 48C74424 		movq	$_ZTCN8UnitTest15MemoryOutStreamE0_St19basic_ostringstreamIcSt11char_traitsIcESaIcEE+64, 112(
 2993      70000000 
 2993      00
 2994 01e5 48C74424 		movq	$_ZTVSt15basic_stringbufIcSt11char_traitsIcESaIcEE+16, 24(%rsp)
 2994      18000000 
 2994      00
 2995 01ee 488D78E8 		leaq	-24(%rax), %rdi
 2996 01f2 4881FF00 		cmpq	$_ZNSs4_Rep20_S_empty_rep_storageE, %rdi
 2996      000000
 2997 01f9 756B     		jne	.L253
 2998              	.L241:
 2999 01fb 488D7C24 		leaq	80(%rsp), %rdi
 2999      50
 3000 0200 48C74424 		movq	$_ZTVSt15basic_streambufIcSt11char_traitsIcEE+16, 24(%rsp)
 3000      18000000 
 3000      00
 3001 0209 E8000000 		call	_ZNSt6localeD1Ev
 3001      00
 3002 020e 488D7C24 		leaq	112(%rsp), %rdi
 3002      70
 3003 0213 48C74424 		movq	$_ZTCN8UnitTest15MemoryOutStreamE0_So+24, 16(%rsp)
 3003      10000000 
 3003      00
 3004 021c 48C74424 		movq	$_ZTVSt9basic_iosIcSt11char_traitsIcEE+16, 112(%rsp)
 3004      70000000 
 3004      00
 3005              	.LEHB108:
 3006 0225 E8000000 		call	_ZNSt8ios_baseD2Ev
 3006      00
 3007              	.LEHE108:
 3008              	.L229:
 3009 022a 4881C480 		addq	$384, %rsp
 3009      010000
 3010              		.cfi_remember_state
 3011              		.cfi_def_cfa_offset 48
 3012 0231 5B       		popq	%rbx
 3013              		.cfi_def_cfa_offset 40
 3014 0232 5D       		popq	%rbp
 3015              		.cfi_def_cfa_offset 32
 3016 0233 415C     		popq	%r12
 3017              		.cfi_def_cfa_offset 24
 3018 0235 415D     		popq	%r13
 3019              		.cfi_def_cfa_offset 16
 3020 0237 415E     		popq	%r14
 3021              		.cfi_def_cfa_offset 8
 3022 0239 C3       		ret
 3023              	.L252:
 3024              		.cfi_restore_state
 3025 023a B9000000 		movl	$_ZL28__gthrw___pthread_key_createPjPFvPvE, %ecx
 3025      00
 3026 023f 488D5710 		leaq	16(%rdi), %rdx
 3027 0243 4885C9   		testq	%rcx, %rcx
 3028 0246 747D     		je	.L237
 3029 0248 83C8FF   		orl	$-1, %eax
 3030 024b F00FC102 		lock xaddl	%eax, (%rdx)
 3031              	.L238:
 3032 024f 85C0     		testl	%eax, %eax
 3033 0251 0F8F77FF 		jg	.L236
 3033      FFFF
 3034 0257 488D7424 		leaq	15(%rsp), %rsi
 3034      0F
 3035 025c E8000000 		call	_ZNSs4_Rep10_M_destroyERKSaIcE
 3035      00
 3036 0261 E968FFFF 		jmp	.L236
 3036      FF
 3037              	.L253:
 3038 0266 B9000000 		movl	$_ZL28__gthrw___pthread_key_createPjPFvPvE, %ecx
 3038      00
 3039 026b 488D5710 		leaq	16(%rdi), %rdx
 3040 026f 4885C9   		testq	%rcx, %rcx
 3041 0272 7479     		je	.L242
 3042 0274 83C8FF   		orl	$-1, %eax
 3043 0277 F00FC102 		lock xaddl	%eax, (%rdx)
 3044              	.L243:
 3045 027b 85C0     		testl	%eax, %eax
 3046 027d 0F8F78FF 		jg	.L241
 3046      FFFF
 3047 0283 488D7424 		leaq	15(%rsp), %rsi
 3047      0F
 3048 0288 E8000000 		call	_ZNSs4_Rep10_M_destroyERKSaIcE
 3048      00
 3049 028d E969FFFF 		jmp	.L241
 3049      FF
 3050              	.L246:
 3051 0292 488D7C24 		leaq	16(%rsp), %rdi
 3051      10
 3052 0297 4889C3   		movq	%rax, %rbx
 3053 029a E8000000 		call	_ZN8UnitTest15MemoryOutStreamD1Ev
 3053      00
 3054 029f 4889DF   		movq	%rbx, %rdi
 3055              	.LEHB109:
 3056 02a2 E8000000 		call	_Unwind_Resume
 3056      00
 3057              	.LEHE109:
 3058              	.L247:
 3059 02a7 4889C3   		movq	%rax, %rbx
 3060              	.L233:
 3061 02aa 488D7C24 		leaq	112(%rsp), %rdi
 3061      70
 3062 02af 48C74424 		movq	$_ZTVSt9basic_iosIcSt11char_traitsIcEE+16, 112(%rsp)
 3062      70000000 
 3062      00
 3063 02b8 E8000000 		call	_ZNSt8ios_baseD2Ev
 3063      00
 3064 02bd 4889DF   		movq	%rbx, %rdi
 3065              	.LEHB110:
 3066 02c0 E8000000 		call	_Unwind_Resume
 3066      00
 3067              	.LEHE110:
 3068              	.L237:
 3069 02c5 8B50F8   		movl	-8(%rax), %edx
 3070 02c8 8D4AFF   		leal	-1(%rdx), %ecx
 3071 02cb 8948F8   		movl	%ecx, -8(%rax)
 3072 02ce 89D0     		movl	%edx, %eax
 3073 02d0 E97AFFFF 		jmp	.L238
 3073      FF
 3074              	.L248:
 3075 02d5 488D7C24 		leaq	24(%rsp), %rdi
 3075      18
 3076 02da 4889C3   		movq	%rax, %rbx
 3077 02dd E8000000 		call	_ZNSt15basic_stringbufIcSt11char_traitsIcESaIcEED1Ev
 3077      00
 3078 02e2 48C74424 		movq	$_ZTCN8UnitTest15MemoryOutStreamE0_So+24, 16(%rsp)
 3078      10000000 
 3078      00
 3079 02eb EBBD     		jmp	.L233
 3080              	.L242:
 3081 02ed 8B50F8   		movl	-8(%rax), %edx
 3082 02f0 8D4AFF   		leal	-1(%rdx), %ecx
 3083 02f3 8948F8   		movl	%ecx, -8(%rax)
 3084 02f6 89D0     		movl	%edx, %eax
 3085 02f8 EB81     		jmp	.L243
 3086              		.cfi_endproc
 3087              	.LFE1259:
 3088              		.section	.gcc_except_table
 3089              	.LLSDA1259:
 3090 0264 FF       		.byte	0xff
 3091 0265 FF       		.byte	0xff
 3092 0266 01       		.byte	0x1
 3093 0267 21       		.uleb128 .LLSDACSE1259-.LLSDACSB1259
 3094              	.LLSDACSB1259:
 3095 0268 9601     		.uleb128 .LEHB105-.LFB1259
 3096 026a 05       		.uleb128 .LEHE105-.LEHB105
 3097 026b A705     		.uleb128 .L247-.LFB1259
 3098 026d 00       		.uleb128 0
 3099 026e A302     		.uleb128 .LEHB106-.LFB1259
 3100 0270 05       		.uleb128 .LEHE106-.LEHB106
 3101 0271 D505     		.uleb128 .L248-.LFB1259
 3102 0273 00       		.uleb128 0
 3103 0274 D802     		.uleb128 .LEHB107-.LFB1259
 3104 0276 52       		.uleb128 .LEHE107-.LEHB107
 3105 0277 9205     		.uleb128 .L246-.LFB1259
 3106 0279 00       		.uleb128 0
 3107 027a A504     		.uleb128 .LEHB108-.LFB1259
 3108 027c 05       		.uleb128 .LEHE108-.LEHB108
 3109 027d 00       		.uleb128 0
 3110 027e 00       		.uleb128 0
 3111 027f A205     		.uleb128 .LEHB109-.LFB1259
 3112 0281 05       		.uleb128 .LEHE109-.LEHB109
 3113 0282 00       		.uleb128 0
 3114 0283 00       		.uleb128 0
 3115 0284 C005     		.uleb128 .LEHB110-.LFB1259
 3116 0286 05       		.uleb128 .LEHE110-.LEHB110
 3117 0287 00       		.uleb128 0
 3118 0288 00       		.uleb128 0
 3119              	.LLSDACSE1259:
 3120              		.section	.text._ZN8UnitTest10CheckEqualIihEEvRNS_11TestResultsERKT_RKT0_RKNS_11TestDetailsE,"axG",
 3122              		.section	.text._ZN8UnitTest10CheckEqualImmEEvRNS_11TestResultsERKT_RKT0_RKNS_11TestDetailsE,"axG",
 3123              		.p2align 4,,15
 3124              		.weak	_ZN8UnitTest10CheckEqualImmEEvRNS_11TestResultsERKT_RKT0_RKNS_11TestDetailsE
 3126              	_ZN8UnitTest10CheckEqualImmEEvRNS_11TestResultsERKT_RKT0_RKNS_11TestDetailsE:
 3127              	.LFB1260:
 3128              		.cfi_startproc
 3129              		.cfi_personality 0x3,__gxx_personality_v0
 3130              		.cfi_lsda 0x3,.LLSDA1260
 3131 0000 4156     		pushq	%r14
 3132              		.cfi_def_cfa_offset 16
 3133              		.cfi_offset 14, -16
 3134 0002 4155     		pushq	%r13
 3135              		.cfi_def_cfa_offset 24
 3136              		.cfi_offset 13, -24
 3137 0004 4154     		pushq	%r12
 3138              		.cfi_def_cfa_offset 32
 3139              		.cfi_offset 12, -32
 3140 0006 55       		pushq	%rbp
 3141              		.cfi_def_cfa_offset 40
 3142              		.cfi_offset 6, -40
 3143 0007 4889D5   		movq	%rdx, %rbp
 3144 000a 53       		pushq	%rbx
 3145              		.cfi_def_cfa_offset 48
 3146              		.cfi_offset 3, -48
 3147 000b 4889F3   		movq	%rsi, %rbx
 3148 000e 4881EC80 		subq	$384, %rsp
 3148      010000
 3149              		.cfi_def_cfa_offset 432
 3150 0015 488B02   		movq	(%rdx), %rax
 3151 0018 483906   		cmpq	%rax, (%rsi)
 3152 001b 0F840302 		je	.L254
 3152      0000
 3153 0021 4C8D6424 		leaq	112(%rsp), %r12
 3153      70
 3154 0026 4989FD   		movq	%rdi, %r13
 3155 0029 4989CE   		movq	%rcx, %r14
 3156 002c 4C89E7   		movq	%r12, %rdi
 3157 002f E8000000 		call	_ZNSt8ios_baseC2Ev
 3157      00
 3158 0034 31F6     		xorl	%esi, %esi
 3159 0036 4C89E7   		movq	%r12, %rdi
 3160 0039 48C78424 		movq	$0, 328(%rsp)
 3160      48010000 
 3160      00000000 
 3161 0045 C6842450 		movb	$0, 336(%rsp)
 3161      01000000 
 3162 004d C6842451 		movb	$0, 337(%rsp)
 3162      01000000 
 3163 0055 48C78424 		movq	$0, 344(%rsp)
 3163      58010000 
 3163      00000000 
 3164 0061 48C78424 		movq	$0, 352(%rsp)
 3164      60010000 
 3164      00000000 
 3165 006d 48C78424 		movq	$0, 360(%rsp)
 3165      68010000 
 3165      00000000 
 3166 0079 48C78424 		movq	$0, 368(%rsp)
 3166      70010000 
 3166      00000000 
 3167 0085 48C74424 		movq	$_ZTCN8UnitTest15MemoryOutStreamE0_So+24, 16(%rsp)
 3167      10000000 
 3167      00
 3168 008e 48C74424 		movq	$_ZTCN8UnitTest15MemoryOutStreamE0_So+64, 112(%rsp)
 3168      70000000 
 3168      00
 3169              	.LEHB111:
 3170 0097 E8000000 		call	_ZNSt9basic_iosIcSt11char_traitsIcEE4initEPSt15basic_streambufIcS1_E
 3170      00
 3171              	.LEHE111:
 3172 009c 488D7C24 		leaq	80(%rsp), %rdi
 3172      50
 3173 00a1 48C74424 		movq	$_ZTCN8UnitTest15MemoryOutStreamE0_St19basic_ostringstreamIcSt11char_traitsIcESaIcEE+24, 16(%
 3173      10000000 
 3173      00
 3174 00aa 48C74424 		movq	$_ZTCN8UnitTest15MemoryOutStreamE0_St19basic_ostringstreamIcSt11char_traitsIcESaIcEE+64, 112(
 3174      70000000 
 3174      00
 3175 00b3 48C74424 		movq	$_ZTVSt15basic_streambufIcSt11char_traitsIcEE+16, 24(%rsp)
 3175      18000000 
 3175      00
 3176 00bc 48C74424 		movq	$0, 32(%rsp)
 3176      20000000 
 3176      00
 3177 00c5 48C74424 		movq	$0, 40(%rsp)
 3177      28000000 
 3177      00
 3178 00ce 48C74424 		movq	$0, 48(%rsp)
 3178      30000000 
 3178      00
 3179 00d7 48C74424 		movq	$0, 56(%rsp)
 3179      38000000 
 3179      00
 3180 00e0 48C74424 		movq	$0, 64(%rsp)
 3180      40000000 
 3180      00
 3181 00e9 48C74424 		movq	$0, 72(%rsp)
 3181      48000000 
 3181      00
 3182 00f2 E8000000 		call	_ZNSt6localeC1Ev
 3182      00
 3183 00f7 488B4424 		movq	16(%rsp), %rax
 3183      10
 3184 00fc 488D7C24 		leaq	16(%rsp), %rdi
 3184      10
 3185 0101 488D7424 		leaq	24(%rsp), %rsi
 3185      18
 3186 0106 48C74424 		movq	$_ZTVSt15basic_stringbufIcSt11char_traitsIcESaIcEE+16, 24(%rsp)
 3186      18000000 
 3186      00
 3187 010f C7442458 		movl	$16, 88(%rsp)
 3187      10000000 
 3188 0117 48C74424 		movq	$_ZNSs4_Rep20_S_empty_rep_storageE+24, 96(%rsp)
 3188      60000000 
 3188      00
 3189 0120 480378E8 		addq	-24(%rax), %rdi
 3190              	.LEHB112:
 3191 0124 E8000000 		call	_ZNSt9basic_iosIcSt11char_traitsIcEE4initEPSt15basic_streambufIcS1_E
 3191      00
 3192              	.LEHE112:
 3193 0129 488D7C24 		leaq	16(%rsp), %rdi
 3193      10
 3194 012e BA090000 		movl	$9, %edx
 3194      00
 3195 0133 BE000000 		movl	$.LC0, %esi
 3195      00
 3196 0138 48C74424 		movq	$_ZTVN8UnitTest15MemoryOutStreamE+24, 16(%rsp)
 3196      10000000 
 3196      00
 3197 0141 48C74424 		movq	$_ZTVN8UnitTest15MemoryOutStreamE+64, 112(%rsp)
 3197      70000000 
 3197      00
 3198 014a 48C74424 		movq	$_ZNSs4_Rep20_S_empty_rep_storageE+24, 104(%rsp)
 3198      68000000 
 3198      00
 3199 0153 488B6D00 		movq	0(%rbp), %rbp
 3200 0157 488B1B   		movq	(%rbx), %rbx
 3201              	.LEHB113:
 3202 015a E8000000 		call	_ZSt16__ostream_insertIcSt11char_traitsIcEERSt13basic_ostreamIT_T0_ES6_PKS3_l
 3202      00
 3203 015f 488D7C24 		leaq	16(%rsp), %rdi
 3203      10
 3204 0164 4889DE   		movq	%rbx, %rsi
 3205 0167 E8000000 		call	_ZNSo9_M_insertImEERSoT_
 3205      00
 3206 016c BA090000 		movl	$9, %edx
 3206      00
 3207 0171 BE000000 		movl	$.LC1, %esi
 3207      00
 3208 0176 4889C7   		movq	%rax, %rdi
 3209 0179 4889C3   		movq	%rax, %rbx
 3210 017c E8000000 		call	_ZSt16__ostream_insertIcSt11char_traitsIcEERSt13basic_ostreamIT_T0_ES6_PKS3_l
 3210      00
 3211 0181 4889EE   		movq	%rbp, %rsi
 3212 0184 4889DF   		movq	%rbx, %rdi
 3213 0187 E8000000 		call	_ZNSo9_M_insertImEERSoT_
 3213      00
 3214 018c 488D7C24 		leaq	16(%rsp), %rdi
 3214      10
 3215 0191 E8000000 		call	_ZNK8UnitTest15MemoryOutStream7GetTextEv
 3215      00
 3216 0196 4889C2   		movq	%rax, %rdx
 3217 0199 4C89F6   		movq	%r14, %rsi
 3218 019c 4C89EF   		movq	%r13, %rdi
 3219 019f E8000000 		call	_ZN8UnitTest11TestResults13OnTestFailureERKNS_11TestDetailsEPKc
 3219      00
 3220              	.LEHE113:
 3221 01a4 488B4424 		movq	104(%rsp), %rax
 3221      68
 3222 01a9 48C74424 		movq	$_ZTVN8UnitTest15MemoryOutStreamE+24, 16(%rsp)
 3222      10000000 
 3222      00
 3223 01b2 48C74424 		movq	$_ZTVN8UnitTest15MemoryOutStreamE+64, 112(%rsp)
 3223      70000000 
 3223      00
 3224 01bb 488D78E8 		leaq	-24(%rax), %rdi
 3225 01bf 4881FF00 		cmpq	$_ZNSs4_Rep20_S_empty_rep_storageE, %rdi
 3225      000000
 3226 01c6 756C     		jne	.L277
 3227              	.L261:
 3228 01c8 488B4424 		movq	96(%rsp), %rax
 3228      60
 3229 01cd 48C74424 		movq	$_ZTCN8UnitTest15MemoryOutStreamE0_St19basic_ostringstreamIcSt11char_traitsIcESaIcEE+24, 16(%
 3229      10000000 
 3229      00
 3230 01d6 48C74424 		movq	$_ZTCN8UnitTest15MemoryOutStreamE0_St19basic_ostringstreamIcSt11char_traitsIcESaIcEE+64, 112(
 3230      70000000 
 3230      00
 3231 01df 48C74424 		movq	$_ZTVSt15basic_stringbufIcSt11char_traitsIcESaIcEE+16, 24(%rsp)
 3231      18000000 
 3231      00
 3232 01e8 488D78E8 		leaq	-24(%rax), %rdi
 3233 01ec 4881FF00 		cmpq	$_ZNSs4_Rep20_S_empty_rep_storageE, %rdi
 3233      000000
 3234 01f3 756B     		jne	.L278
 3235              	.L266:
 3236 01f5 488D7C24 		leaq	80(%rsp), %rdi
 3236      50
 3237 01fa 48C74424 		movq	$_ZTVSt15basic_streambufIcSt11char_traitsIcEE+16, 24(%rsp)
 3237      18000000 
 3237      00
 3238 0203 E8000000 		call	_ZNSt6localeD1Ev
 3238      00
 3239 0208 488D7C24 		leaq	112(%rsp), %rdi
 3239      70
 3240 020d 48C74424 		movq	$_ZTCN8UnitTest15MemoryOutStreamE0_So+24, 16(%rsp)
 3240      10000000 
 3240      00
 3241 0216 48C74424 		movq	$_ZTVSt9basic_iosIcSt11char_traitsIcEE+16, 112(%rsp)
 3241      70000000 
 3241      00
 3242              	.LEHB114:
 3243 021f E8000000 		call	_ZNSt8ios_baseD2Ev
 3243      00
 3244              	.LEHE114:
 3245              	.L254:
 3246 0224 4881C480 		addq	$384, %rsp
 3246      010000
 3247              		.cfi_remember_state
 3248              		.cfi_def_cfa_offset 48
 3249 022b 5B       		popq	%rbx
 3250              		.cfi_def_cfa_offset 40
 3251 022c 5D       		popq	%rbp
 3252              		.cfi_def_cfa_offset 32
 3253 022d 415C     		popq	%r12
 3254              		.cfi_def_cfa_offset 24
 3255 022f 415D     		popq	%r13
 3256              		.cfi_def_cfa_offset 16
 3257 0231 415E     		popq	%r14
 3258              		.cfi_def_cfa_offset 8
 3259 0233 C3       		ret
 3260              	.L277:
 3261              		.cfi_restore_state
 3262 0234 B9000000 		movl	$_ZL28__gthrw___pthread_key_createPjPFvPvE, %ecx
 3262      00
 3263 0239 488D5710 		leaq	16(%rdi), %rdx
 3264 023d 4885C9   		testq	%rcx, %rcx
 3265 0240 747D     		je	.L262
 3266 0242 83C8FF   		orl	$-1, %eax
 3267 0245 F00FC102 		lock xaddl	%eax, (%rdx)
 3268              	.L263:
 3269 0249 85C0     		testl	%eax, %eax
 3270 024b 0F8F77FF 		jg	.L261
 3270      FFFF
 3271 0251 488D7424 		leaq	15(%rsp), %rsi
 3271      0F
 3272 0256 E8000000 		call	_ZNSs4_Rep10_M_destroyERKSaIcE
 3272      00
 3273 025b E968FFFF 		jmp	.L261
 3273      FF
 3274              	.L278:
 3275 0260 B9000000 		movl	$_ZL28__gthrw___pthread_key_createPjPFvPvE, %ecx
 3275      00
 3276 0265 488D5710 		leaq	16(%rdi), %rdx
 3277 0269 4885C9   		testq	%rcx, %rcx
 3278 026c 7479     		je	.L267
 3279 026e 83C8FF   		orl	$-1, %eax
 3280 0271 F00FC102 		lock xaddl	%eax, (%rdx)
 3281              	.L268:
 3282 0275 85C0     		testl	%eax, %eax
 3283 0277 0F8F78FF 		jg	.L266
 3283      FFFF
 3284 027d 488D7424 		leaq	15(%rsp), %rsi
 3284      0F
 3285 0282 E8000000 		call	_ZNSs4_Rep10_M_destroyERKSaIcE
 3285      00
 3286 0287 E969FFFF 		jmp	.L266
 3286      FF
 3287              	.L271:
 3288 028c 488D7C24 		leaq	16(%rsp), %rdi
 3288      10
 3289 0291 4889C3   		movq	%rax, %rbx
 3290 0294 E8000000 		call	_ZN8UnitTest15MemoryOutStreamD1Ev
 3290      00
 3291 0299 4889DF   		movq	%rbx, %rdi
 3292              	.LEHB115:
 3293 029c E8000000 		call	_Unwind_Resume
 3293      00
 3294              	.LEHE115:
 3295              	.L272:
 3296 02a1 4889C3   		movq	%rax, %rbx
 3297              	.L258:
 3298 02a4 488D7C24 		leaq	112(%rsp), %rdi
 3298      70
 3299 02a9 48C74424 		movq	$_ZTVSt9basic_iosIcSt11char_traitsIcEE+16, 112(%rsp)
 3299      70000000 
 3299      00
 3300 02b2 E8000000 		call	_ZNSt8ios_baseD2Ev
 3300      00
 3301 02b7 4889DF   		movq	%rbx, %rdi
 3302              	.LEHB116:
 3303 02ba E8000000 		call	_Unwind_Resume
 3303      00
 3304              	.LEHE116:
 3305              	.L262:
 3306 02bf 8B50F8   		movl	-8(%rax), %edx
 3307 02c2 8D4AFF   		leal	-1(%rdx), %ecx
 3308 02c5 8948F8   		movl	%ecx, -8(%rax)
 3309 02c8 89D0     		movl	%edx, %eax
 3310 02ca E97AFFFF 		jmp	.L263
 3310      FF
 3311              	.L273:
 3312 02cf 488D7C24 		leaq	24(%rsp), %rdi
 3312      18
 3313 02d4 4889C3   		movq	%rax, %rbx
 3314 02d7 E8000000 		call	_ZNSt15basic_stringbufIcSt11char_traitsIcESaIcEED1Ev
 3314      00
 3315 02dc 48C74424 		movq	$_ZTCN8UnitTest15MemoryOutStreamE0_So+24, 16(%rsp)
 3315      10000000 
 3315      00
 3316 02e5 EBBD     		jmp	.L258
 3317              	.L267:
 3318 02e7 8B50F8   		movl	-8(%rax), %edx
 3319 02ea 8D4AFF   		leal	-1(%rdx), %ecx
 3320 02ed 8948F8   		movl	%ecx, -8(%rax)
 3321 02f0 89D0     		movl	%edx, %eax
 3322 02f2 EB81     		jmp	.L268
 3323              		.cfi_endproc
 3324              	.LFE1260:
 3325              		.section	.gcc_except_table
 3326              	.LLSDA1260:
 3327 0289 FF       		.byte	0xff
 3328 028a FF       		.byte	0xff
 3329 028b 01       		.byte	0x1
 3330 028c 21       		.uleb128 .LLSDACSE1260-.LLSDACSB1260
 3331              	.LLSDACSB1260:
 3332 028d 9701     		.uleb128 .LEHB111-.LFB1260
 3333 028f 05       		.uleb128 .LEHE111-.LEHB111
 3334 0290 A105     		.uleb128 .L272-.LFB1260
 3335 0292 00       		.uleb128 0
 3336 0293 A402     		.uleb128 .LEHB112-.LFB1260
 3337 0295 05       		.uleb128 .LEHE112-.LEHB112
 3338 0296 CF05     		.uleb128 .L273-.LFB1260
 3339 0298 00       		.uleb128 0
 3340 0299 DA02     		.uleb128 .LEHB113-.LFB1260
 3341 029b 4A       		.uleb128 .LEHE113-.LEHB113
 3342 029c 8C05     		.uleb128 .L271-.LFB1260
 3343 029e 00       		.uleb128 0
 3344 029f 9F04     		.uleb128 .LEHB114-.LFB1260
 3345 02a1 05       		.uleb128 .LEHE114-.LEHB114
 3346 02a2 00       		.uleb128 0
 3347 02a3 00       		.uleb128 0
 3348 02a4 9C05     		.uleb128 .LEHB115-.LFB1260
 3349 02a6 05       		.uleb128 .LEHE115-.LEHB115
 3350 02a7 00       		.uleb128 0
 3351 02a8 00       		.uleb128 0
 3352 02a9 BA05     		.uleb128 .LEHB116-.LFB1260
 3353 02ab 05       		.uleb128 .LEHE116-.LEHB116
 3354 02ac 00       		.uleb128 0
 3355 02ad 00       		.uleb128 0
 3356              	.LLSDACSE1260:
 3357              		.section	.text._ZN8UnitTest10CheckEqualImmEEvRNS_11TestResultsERKT_RKT0_RKNS_11TestDetailsE,"axG",
 3359              		.section	.rodata.str1.1
 3360              	.LC21:
 3361 00d2 3A303030 		.string	":00000001FF\n"
 3361      30303030 
 3361      3146460A 
 3361      00
 3362              		.section	.rodata.str1.8
 3363 0275 000000   		.align 8
 3364              	.LC22:
 3365 0278 556E6861 		.string	"Unhandled exception in CHECK_EQUAL(0x01, recordType)"
 3365      6E646C65 
 3365      64206578 
 3365      63657074 
 3365      696F6E20 
 3366 02ad 000000   		.align 8
 3367              	.LC23:
 3368 02b0 556E6861 		.string	"Unhandled exception in CHECK_EQUAL(0UL, data.length)"
 3368      6E646C65 
 3368      64206578 
 3368      63657074 
 3368      696F6E20 
 3369 02e5 000000   		.align 8
 3370              	.LC24:
 3371 02e8 556E6861 		.string	"Unhandled exception in CHECK_EQUAL(0UL, mask.length)"
 3371      6E646C65 
 3371      64206578 
 3371      63657074 
 3371      696F6E20 
 3372              		.text
 3373 0ced 90       		.align 2
 3374 0cee 6690     		.p2align 4,,15
 3375              		.globl	_ZNK22TestHexIO_testValidEOF7RunImplEv
 3377              	_ZNK22TestHexIO_testValidEOF7RunImplEv:
 3378              	.LFB1180:
 3379              		.cfi_startproc
 3380              		.cfi_personality 0x3,__gxx_personality_v0
 3381              		.cfi_lsda 0x3,.LLSDA1180
 3382 0cf0 55       		pushq	%rbp
 3383              		.cfi_def_cfa_offset 16
 3384              		.cfi_offset 6, -16
 3385 0cf1 31C9     		xorl	%ecx, %ecx
 3386 0cf3 31D2     		xorl	%edx, %edx
 3387 0cf5 BE000400 		movl	$1024, %esi
 3387      00
 3388 0cfa 53       		pushq	%rbx
 3389              		.cfi_def_cfa_offset 24
 3390              		.cfi_offset 3, -24
 3391 0cfb 4881ECA8 		subq	$168, %rsp
 3391      000000
 3392              		.cfi_def_cfa_offset 192
 3393 0d02 488D7C24 		leaq	64(%rsp), %rdi
 3393      40
 3394 0d07 C7442420 		movl	$0, 32(%rsp)
 3394      00000000 
 3395              	.LEHB117:
 3396 0d0f E8000000 		call	bufInitialise
 3396      00
 3397              	.LEHE117:
 3398 0d14 8944242C 		movl	%eax, 44(%rsp)
 3399              	.LEHB118:
 3400 0d18 E8000000 		call	_ZN8UnitTest11CurrentTest7DetailsEv
 3400      00
 3401 0d1d 488D9C24 		leaq	128(%rsp), %rbx
 3401      80000000 
 3402 0d25 488B30   		movq	(%rax), %rsi
 3403 0d28 BA390000 		movl	$57, %edx
 3403      00
 3404 0d2d 4889DF   		movq	%rbx, %rdi
 3405 0d30 E8000000 		call	_ZN8UnitTest11TestDetailsC1ERKS0_i
 3405      00
 3406 0d35 C7442460 		movl	$0, 96(%rsp)
 3406      00000000 
 3407 0d3d E8000000 		call	_ZN8UnitTest11CurrentTest7ResultsEv
 3407      00
 3408 0d42 488D6C24 		leaq	96(%rsp), %rbp
 3408      60
 3409 0d47 488B38   		movq	(%rax), %rdi
 3410 0d4a 488D5424 		leaq	44(%rsp), %rdx
 3410      2C
 3411 0d4f 4889D9   		movq	%rbx, %rcx
 3412 0d52 4889EE   		movq	%rbp, %rsi
 3413 0d55 E8000000 		call	_ZN8UnitTest10CheckEqualI12BufferStatusS1_EEvRNS_11TestResultsERKT_RKT0_RKNS_11TestDetailsE
 3413      00
 3414              	.LEHE118:
 3415              	.L282:
 3416 0d5a 31C9     		xorl	%ecx, %ecx
 3417 0d5c 31D2     		xorl	%edx, %edx
 3418 0d5e BE000400 		movl	$1024, %esi
 3418      00
 3419 0d63 4889EF   		movq	%rbp, %rdi
 3420              	.LEHB119:
 3421 0d66 E8000000 		call	bufInitialise
 3421      00
 3422              	.LEHE119:
 3423 0d6b 8944242C 		movl	%eax, 44(%rsp)
 3424              	.LEHB120:
 3425 0d6f E8000000 		call	_ZN8UnitTest11CurrentTest7DetailsEv
 3425      00
 3426 0d74 488B30   		movq	(%rax), %rsi
 3427 0d77 BA3B0000 		movl	$59, %edx
 3427      00
 3428 0d7c 4889DF   		movq	%rbx, %rdi
 3429 0d7f E8000000 		call	_ZN8UnitTest11TestDetailsC1ERKS0_i
 3429      00
 3430 0d84 C7442430 		movl	$0, 48(%rsp)
 3430      00000000 
 3431 0d8c E8000000 		call	_ZN8UnitTest11CurrentTest7ResultsEv
 3431      00
 3432 0d91 488B38   		movq	(%rax), %rdi
 3433 0d94 488D5424 		leaq	44(%rsp), %rdx
 3433      2C
 3434 0d99 488D7424 		leaq	48(%rsp), %rsi
 3434      30
 3435 0d9e 4889D9   		movq	%rbx, %rcx
 3436 0da1 E8000000 		call	_ZN8UnitTest10CheckEqualI12BufferStatusS1_EEvRNS_11TestResultsERKT_RKT0_RKNS_11TestDetailsE
 3436      00
 3437              	.LEHE120:
 3438              	.L285:
 3439 0da6 4C8D4C24 		leaq	31(%rsp), %r9
 3439      1F
 3440 0dab 4C8D4424 		leaq	32(%rsp), %r8
 3440      20
 3441 0db0 488D5424 		leaq	64(%rsp), %rdx
 3441      40
 3442 0db5 48C70424 		movq	$0, (%rsp)
 3442      00000000 
 3443 0dbd 4889E9   		movq	%rbp, %rcx
 3444 0dc0 31F6     		xorl	%esi, %esi
 3445 0dc2 BF000000 		movl	$.LC21, %edi
 3445      00
 3446              	.LEHB121:
 3447 0dc7 E8000000 		call	bufProcessLine
 3447      00
 3448              	.LEHE121:
 3449 0dcc 8944242C 		movl	%eax, 44(%rsp)
 3450              	.LEHB122:
 3451 0dd0 E8000000 		call	_ZN8UnitTest11CurrentTest7DetailsEv
 3451      00
 3452 0dd5 488B30   		movq	(%rax), %rsi
 3453 0dd8 BA3D0000 		movl	$61, %edx
 3453      00
 3454 0ddd 4889DF   		movq	%rbx, %rdi
 3455 0de0 E8000000 		call	_ZN8UnitTest11TestDetailsC1ERKS0_i
 3455      00
 3456 0de5 C7442430 		movl	$0, 48(%rsp)
 3456      00000000 
 3457 0ded E8000000 		call	_ZN8UnitTest11CurrentTest7ResultsEv
 3457      00
 3458 0df2 488B38   		movq	(%rax), %rdi
 3459 0df5 488D5424 		leaq	44(%rsp), %rdx
 3459      2C
 3460 0dfa 488D7424 		leaq	48(%rsp), %rsi
 3460      30
 3461 0dff 4889D9   		movq	%rbx, %rcx
 3462 0e02 E8000000 		call	_ZN8UnitTest10CheckEqualI12BufferStatusS1_EEvRNS_11TestResultsERKT_RKT0_RKNS_11TestDetailsE
 3462      00
 3463              	.LEHE122:
 3464              	.L288:
 3465              	.LEHB123:
 3466 0e07 E8000000 		call	_ZN8UnitTest11CurrentTest7DetailsEv
 3466      00
 3467 0e0c 488B30   		movq	(%rax), %rsi
 3468 0e0f BA3E0000 		movl	$62, %edx
 3468      00
 3469 0e14 4889DF   		movq	%rbx, %rdi
 3470 0e17 E8000000 		call	_ZN8UnitTest11TestDetailsC1ERKS0_i
 3470      00
 3471 0e1c C7442430 		movl	$1, 48(%rsp)
 3471      01000000 
 3472 0e24 E8000000 		call	_ZN8UnitTest11CurrentTest7ResultsEv
 3472      00
 3473 0e29 488B38   		movq	(%rax), %rdi
 3474 0e2c 488D5424 		leaq	31(%rsp), %rdx
 3474      1F
 3475 0e31 488D7424 		leaq	48(%rsp), %rsi
 3475      30
 3476 0e36 4889D9   		movq	%rbx, %rcx
 3477 0e39 E8000000 		call	_ZN8UnitTest10CheckEqualIihEEvRNS_11TestResultsERKT_RKT0_RKNS_11TestDetailsE
 3477      00
 3478              	.LEHE123:
 3479              	.L291:
 3480              	.LEHB124:
 3481 0e3e E8000000 		call	_ZN8UnitTest11CurrentTest7DetailsEv
 3481      00
 3482 0e43 488B30   		movq	(%rax), %rsi
 3483 0e46 BA3F0000 		movl	$63, %edx
 3483      00
 3484 0e4b 4889DF   		movq	%rbx, %rdi
 3485 0e4e E8000000 		call	_ZN8UnitTest11TestDetailsC1ERKS0_i
 3485      00
 3486 0e53 48C74424 		movq	$0, 48(%rsp)
 3486      30000000 
 3486      00
 3487 0e5c E8000000 		call	_ZN8UnitTest11CurrentTest7ResultsEv
 3487      00
 3488 0e61 488B38   		movq	(%rax), %rdi
 3489 0e64 488D5424 		leaq	72(%rsp), %rdx
 3489      48
 3490 0e69 488D7424 		leaq	48(%rsp), %rsi
 3490      30
 3491 0e6e 4889D9   		movq	%rbx, %rcx
 3492 0e71 E8000000 		call	_ZN8UnitTest10CheckEqualImmEEvRNS_11TestResultsERKT_RKT0_RKNS_11TestDetailsE
 3492      00
 3493              	.LEHE124:
 3494              	.L294:
 3495              	.LEHB125:
 3496 0e76 E8000000 		call	_ZN8UnitTest11CurrentTest7DetailsEv
 3496      00
 3497 0e7b 488B30   		movq	(%rax), %rsi
 3498 0e7e BA400000 		movl	$64, %edx
 3498      00
 3499 0e83 4889DF   		movq	%rbx, %rdi
 3500 0e86 E8000000 		call	_ZN8UnitTest11TestDetailsC1ERKS0_i
 3500      00
 3501 0e8b 48C74424 		movq	$0, 48(%rsp)
 3501      30000000 
 3501      00
 3502 0e94 E8000000 		call	_ZN8UnitTest11CurrentTest7ResultsEv
 3502      00
 3503 0e99 488B38   		movq	(%rax), %rdi
 3504 0e9c 488D5508 		leaq	8(%rbp), %rdx
 3505 0ea0 488D7424 		leaq	48(%rsp), %rsi
 3505      30
 3506 0ea5 4889D9   		movq	%rbx, %rcx
 3507 0ea8 E8000000 		call	_ZN8UnitTest10CheckEqualImmEEvRNS_11TestResultsERKT_RKT0_RKNS_11TestDetailsE
 3507      00
 3508              	.LEHE125:
 3509              	.L297:
 3510 0ead 4889EF   		movq	%rbp, %rdi
 3511              	.LEHB126:
 3512 0eb0 E8000000 		call	bufDestroy
 3512      00
 3513 0eb5 488D7C24 		leaq	64(%rsp), %rdi
 3513      40
 3514 0eba E8000000 		call	bufDestroy
 3514      00
 3515              	.LEHE126:
 3516 0ebf 4881C4A8 		addq	$168, %rsp
 3516      000000
 3517              		.cfi_remember_state
 3518              		.cfi_def_cfa_offset 24
 3519 0ec6 5B       		popq	%rbx
 3520              		.cfi_def_cfa_offset 16
 3521 0ec7 5D       		popq	%rbp
 3522              		.cfi_def_cfa_offset 8
 3523 0ec8 C3       		ret
 3524              	.L298:
 3525              		.cfi_restore_state
 3526 0ec9 4889C7   		movq	%rax, %rdi
 3527 0ecc E8000000 		call	__cxa_begin_catch
 3527      00
 3528              	.LEHB127:
 3529 0ed1 E8000000 		call	_ZN8UnitTest11CurrentTest7DetailsEv
 3529      00
 3530 0ed6 488D9C24 		leaq	128(%rsp), %rbx
 3530      80000000 
 3531 0ede 488B30   		movq	(%rax), %rsi
 3532 0ee1 BA390000 		movl	$57, %edx
 3532      00
 3533 0ee6 4889DF   		movq	%rbx, %rdi
 3534 0ee9 E8000000 		call	_ZN8UnitTest11TestDetailsC1ERKS0_i
 3534      00
 3535 0eee E8000000 		call	_ZN8UnitTest11CurrentTest7ResultsEv
 3535      00
 3536 0ef3 488B38   		movq	(%rax), %rdi
 3537 0ef6 BA000000 		movl	$.LC3, %edx
 3537      00
 3538 0efb 4889DE   		movq	%rbx, %rsi
 3539 0efe E8000000 		call	_ZN8UnitTest11TestResults13OnTestFailureERKNS_11TestDetailsEPKc
 3539      00
 3540              	.LEHE127:
 3541              	.LEHB128:
 3542 0f03 E8000000 		call	__cxa_end_catch
 3542      00
 3543              	.LEHE128:
 3544 0f08 488D6C24 		leaq	96(%rsp), %rbp
 3544      60
 3545 0f0d E948FEFF 		jmp	.L282
 3545      FF
 3546              	.L308:
 3547 0f12 4889C7   		movq	%rax, %rdi
 3548 0f15 E8000000 		call	__cxa_begin_catch
 3548      00
 3549              	.LEHB129:
 3550 0f1a E8000000 		call	_ZN8UnitTest11CurrentTest7DetailsEv
 3550      00
 3551 0f1f 488B30   		movq	(%rax), %rsi
 3552 0f22 BA400000 		movl	$64, %edx
 3552      00
 3553 0f27 4889DF   		movq	%rbx, %rdi
 3554 0f2a E8000000 		call	_ZN8UnitTest11TestDetailsC1ERKS0_i
 3554      00
 3555 0f2f E8000000 		call	_ZN8UnitTest11CurrentTest7ResultsEv
 3555      00
 3556 0f34 488B38   		movq	(%rax), %rdi
 3557 0f37 BA000000 		movl	$.LC24, %edx
 3557      00
 3558 0f3c 4889DE   		movq	%rbx, %rsi
 3559 0f3f E8000000 		call	_ZN8UnitTest11TestResults13OnTestFailureERKNS_11TestDetailsEPKc
 3559      00
 3560              	.LEHE129:
 3561              	.LEHB130:
 3562 0f44 E8000000 		call	__cxa_end_catch
 3562      00
 3563              	.LEHE130:
 3564 0f49 E95FFFFF 		jmp	.L297
 3564      FF
 3565              	.L299:
 3566 0f4e 4889C3   		movq	%rax, %rbx
 3567              		.p2align 4,,5
 3568 0f51 E8000000 		call	__cxa_end_catch
 3568      00
 3569 0f56 4889DF   		movq	%rbx, %rdi
 3570              	.LEHB131:
 3571 0f59 E8000000 		call	_Unwind_Resume
 3571      00
 3572              	.LEHE131:
 3573              	.L309:
 3574 0f5e 4889C3   		movq	%rax, %rbx
 3575 0f61 E8000000 		call	__cxa_end_catch
 3575      00
 3576 0f66 4889DF   		movq	%rbx, %rdi
 3577              	.LEHB132:
 3578 0f69 E8000000 		call	_Unwind_Resume
 3578      00
 3579              	.LEHE132:
 3580              	.L306:
 3581 0f6e 4889C7   		movq	%rax, %rdi
 3582 0f71 E8000000 		call	__cxa_begin_catch
 3582      00
 3583              	.LEHB133:
 3584 0f76 E8000000 		call	_ZN8UnitTest11CurrentTest7DetailsEv
 3584      00
 3585 0f7b 488B30   		movq	(%rax), %rsi
 3586 0f7e BA3F0000 		movl	$63, %edx
 3586      00
 3587 0f83 4889DF   		movq	%rbx, %rdi
 3588 0f86 E8000000 		call	_ZN8UnitTest11TestDetailsC1ERKS0_i
 3588      00
 3589 0f8b E8000000 		call	_ZN8UnitTest11CurrentTest7ResultsEv
 3589      00
 3590 0f90 488B38   		movq	(%rax), %rdi
 3591 0f93 BA000000 		movl	$.LC23, %edx
 3591      00
 3592 0f98 4889DE   		movq	%rbx, %rsi
 3593 0f9b E8000000 		call	_ZN8UnitTest11TestResults13OnTestFailureERKNS_11TestDetailsEPKc
 3593      00
 3594              	.LEHE133:
 3595              	.LEHB134:
 3596 0fa0 E8000000 		call	__cxa_end_catch
 3596      00
 3597              	.LEHE134:
 3598 0fa5 E9CCFEFF 		jmp	.L294
 3598      FF
 3599              	.L304:
 3600 0faa 4889C7   		movq	%rax, %rdi
 3601 0fad 0F1F00   		.p2align 4,,5
 3602 0fb0 E8000000 		call	__cxa_begin_catch
 3602      00
 3603              		.p2align 4,,5
 3604              	.LEHB135:
 3605 0fb5 E8000000 		call	_ZN8UnitTest11CurrentTest7DetailsEv
 3605      00
 3606 0fba 488B30   		movq	(%rax), %rsi
 3607 0fbd BA3E0000 		movl	$62, %edx
 3607      00
 3608 0fc2 4889DF   		movq	%rbx, %rdi
 3609 0fc5 E8000000 		call	_ZN8UnitTest11TestDetailsC1ERKS0_i
 3609      00
 3610 0fca E8000000 		call	_ZN8UnitTest11CurrentTest7ResultsEv
 3610      00
 3611 0fcf 488B38   		movq	(%rax), %rdi
 3612 0fd2 BA000000 		movl	$.LC22, %edx
 3612      00
 3613 0fd7 4889DE   		movq	%rbx, %rsi
 3614 0fda E8000000 		call	_ZN8UnitTest11TestResults13OnTestFailureERKNS_11TestDetailsEPKc
 3614      00
 3615              	.LEHE135:
 3616              	.LEHB136:
 3617 0fdf E8000000 		call	__cxa_end_catch
 3617      00
 3618              	.LEHE136:
 3619 0fe4 E955FEFF 		jmp	.L291
 3619      FF
 3620              	.L307:
 3621 0fe9 4889C3   		movq	%rax, %rbx
 3622 0fec 0F1F4000 		.p2align 4,,5
 3623 0ff0 E8000000 		call	__cxa_end_catch
 3623      00
 3624 0ff5 4889DF   		movq	%rbx, %rdi
 3625              	.LEHB137:
 3626 0ff8 E8000000 		call	_Unwind_Resume
 3626      00
 3627              	.LEHE137:
 3628              	.L305:
 3629 0ffd 4889C3   		movq	%rax, %rbx
 3630 1000 E8000000 		call	__cxa_end_catch
 3630      00
 3631 1005 4889DF   		movq	%rbx, %rdi
 3632              	.LEHB138:
 3633 1008 E8000000 		call	_Unwind_Resume
 3633      00
 3634              	.LEHE138:
 3635              	.L302:
 3636 100d 4889C7   		movq	%rax, %rdi
 3637 1010 E8000000 		call	__cxa_begin_catch
 3637      00
 3638              	.LEHB139:
 3639 1015 E8000000 		call	_ZN8UnitTest11CurrentTest7DetailsEv
 3639      00
 3640 101a 488B30   		movq	(%rax), %rsi
 3641 101d BA3D0000 		movl	$61, %edx
 3641      00
 3642 1022 4889DF   		movq	%rbx, %rdi
 3643 1025 E8000000 		call	_ZN8UnitTest11TestDetailsC1ERKS0_i
 3643      00
 3644 102a E8000000 		call	_ZN8UnitTest11CurrentTest7ResultsEv
 3644      00
 3645 102f 488B38   		movq	(%rax), %rdi
 3646 1032 BA000000 		movl	$.LC3, %edx
 3646      00
 3647 1037 4889DE   		movq	%rbx, %rsi
 3648 103a E8000000 		call	_ZN8UnitTest11TestResults13OnTestFailureERKNS_11TestDetailsEPKc
 3648      00
 3649              	.LEHE139:
 3650              	.LEHB140:
 3651 103f E8000000 		call	__cxa_end_catch
 3651      00
 3652              	.LEHE140:
 3653 1044 E9BEFDFF 		jmp	.L288
 3653      FF
 3654              	.L300:
 3655 1049 4889C7   		movq	%rax, %rdi
 3656 104c 0F1F4000 		.p2align 4,,5
 3657 1050 E8000000 		call	__cxa_begin_catch
 3657      00
 3658              		.p2align 4,,5
 3659              	.LEHB141:
 3660 1055 E8000000 		call	_ZN8UnitTest11CurrentTest7DetailsEv
 3660      00
 3661 105a 488B30   		movq	(%rax), %rsi
 3662 105d BA3B0000 		movl	$59, %edx
 3662      00
 3663 1062 4889DF   		movq	%rbx, %rdi
 3664 1065 E8000000 		call	_ZN8UnitTest11TestDetailsC1ERKS0_i
 3664      00
 3665 106a E8000000 		call	_ZN8UnitTest11CurrentTest7ResultsEv
 3665      00
 3666 106f 488B38   		movq	(%rax), %rdi
 3667 1072 BA000000 		movl	$.LC3, %edx
 3667      00
 3668 1077 4889DE   		movq	%rbx, %rsi
 3669 107a E8000000 		call	_ZN8UnitTest11TestResults13OnTestFailureERKNS_11TestDetailsEPKc
 3669      00
 3670              	.LEHE141:
 3671              	.LEHB142:
 3672 107f E8000000 		call	__cxa_end_catch
 3672      00
 3673              	.LEHE142:
 3674 1084 E91DFDFF 		jmp	.L285
 3674      FF
 3675              	.L303:
 3676 1089 4889C3   		movq	%rax, %rbx
 3677 108c 0F1F4000 		.p2align 4,,5
 3678 1090 E8000000 		call	__cxa_end_catch
 3678      00
 3679 1095 4889DF   		movq	%rbx, %rdi
 3680              	.LEHB143:
 3681 1098 E8000000 		call	_Unwind_Resume
 3681      00
 3682              	.LEHE143:
 3683              	.L301:
 3684 109d 4889C3   		movq	%rax, %rbx
 3685 10a0 E8000000 		call	__cxa_end_catch
 3685      00
 3686 10a5 4889DF   		movq	%rbx, %rdi
 3687              	.LEHB144:
 3688 10a8 E8000000 		call	_Unwind_Resume
 3688      00
 3689              	.LEHE144:
 3690              		.cfi_endproc
 3691              	.LFE1180:
 3692              		.section	.gcc_except_table
 3693 02ae 0000     		.align 4
 3694              	.LLSDA1180:
 3695 02b0 FF       		.byte	0xff
 3696 02b1 03       		.byte	0x3
 3697 02b2 A001     		.uleb128 .LLSDATT1180-.LLSDATTD1180
 3698              	.LLSDATTD1180:
 3699 02b4 01       		.byte	0x1
 3700 02b5 9401     		.uleb128 .LLSDACSE1180-.LLSDACSB1180
 3701              	.LLSDACSB1180:
 3702 02b7 1F       		.uleb128 .LEHB117-.LFB1180
 3703 02b8 05       		.uleb128 .LEHE117-.LEHB117
 3704 02b9 00       		.uleb128 0
 3705 02ba 00       		.uleb128 0
 3706 02bb 28       		.uleb128 .LEHB118-.LFB1180
 3707 02bc 42       		.uleb128 .LEHE118-.LEHB118
 3708 02bd D903     		.uleb128 .L298-.LFB1180
 3709 02bf 01       		.uleb128 0x1
 3710 02c0 76       		.uleb128 .LEHB119-.LFB1180
 3711 02c1 05       		.uleb128 .LEHE119-.LEHB119
 3712 02c2 00       		.uleb128 0
 3713 02c3 00       		.uleb128 0
 3714 02c4 7F       		.uleb128 .LEHB120-.LFB1180
 3715 02c5 37       		.uleb128 .LEHE120-.LEHB120
 3716 02c6 D906     		.uleb128 .L300-.LFB1180
 3717 02c8 01       		.uleb128 0x1
 3718 02c9 D701     		.uleb128 .LEHB121-.LFB1180
 3719 02cb 05       		.uleb128 .LEHE121-.LEHB121
 3720 02cc 00       		.uleb128 0
 3721 02cd 00       		.uleb128 0
 3722 02ce E001     		.uleb128 .LEHB122-.LFB1180
 3723 02d0 37       		.uleb128 .LEHE122-.LEHB122
 3724 02d1 9D06     		.uleb128 .L302-.LFB1180
 3725 02d3 01       		.uleb128 0x1
 3726 02d4 9702     		.uleb128 .LEHB123-.LFB1180
 3727 02d6 37       		.uleb128 .LEHE123-.LEHB123
 3728 02d7 BA05     		.uleb128 .L304-.LFB1180
 3729 02d9 01       		.uleb128 0x1
 3730 02da CE02     		.uleb128 .LEHB124-.LFB1180
 3731 02dc 38       		.uleb128 .LEHE124-.LEHB124
 3732 02dd FE04     		.uleb128 .L306-.LFB1180
 3733 02df 01       		.uleb128 0x1
 3734 02e0 8603     		.uleb128 .LEHB125-.LFB1180
 3735 02e2 37       		.uleb128 .LEHE125-.LEHB125
 3736 02e3 A204     		.uleb128 .L308-.LFB1180
 3737 02e5 01       		.uleb128 0x1
 3738 02e6 C003     		.uleb128 .LEHB126-.LFB1180
 3739 02e8 0F       		.uleb128 .LEHE126-.LEHB126
 3740 02e9 00       		.uleb128 0
 3741 02ea 00       		.uleb128 0
 3742 02eb E103     		.uleb128 .LEHB127-.LFB1180
 3743 02ed 32       		.uleb128 .LEHE127-.LEHB127
 3744 02ee DE04     		.uleb128 .L299-.LFB1180
 3745 02f0 00       		.uleb128 0
 3746 02f1 9304     		.uleb128 .LEHB128-.LFB1180
 3747 02f3 05       		.uleb128 .LEHE128-.LEHB128
 3748 02f4 00       		.uleb128 0
 3749 02f5 00       		.uleb128 0
 3750 02f6 AA04     		.uleb128 .LEHB129-.LFB1180
 3751 02f8 2A       		.uleb128 .LEHE129-.LEHB129
 3752 02f9 EE04     		.uleb128 .L309-.LFB1180
 3753 02fb 00       		.uleb128 0
 3754 02fc D404     		.uleb128 .LEHB130-.LFB1180
 3755 02fe 05       		.uleb128 .LEHE130-.LEHB130
 3756 02ff 00       		.uleb128 0
 3757 0300 00       		.uleb128 0
 3758 0301 E904     		.uleb128 .LEHB131-.LFB1180
 3759 0303 05       		.uleb128 .LEHE131-.LEHB131
 3760 0304 00       		.uleb128 0
 3761 0305 00       		.uleb128 0
 3762 0306 F904     		.uleb128 .LEHB132-.LFB1180
 3763 0308 05       		.uleb128 .LEHE132-.LEHB132
 3764 0309 00       		.uleb128 0
 3765 030a 00       		.uleb128 0
 3766 030b 8605     		.uleb128 .LEHB133-.LFB1180
 3767 030d 2A       		.uleb128 .LEHE133-.LEHB133
 3768 030e F905     		.uleb128 .L307-.LFB1180
 3769 0310 00       		.uleb128 0
 3770 0311 B005     		.uleb128 .LEHB134-.LFB1180
 3771 0313 05       		.uleb128 .LEHE134-.LEHB134
 3772 0314 00       		.uleb128 0
 3773 0315 00       		.uleb128 0
 3774 0316 C505     		.uleb128 .LEHB135-.LFB1180
 3775 0318 2A       		.uleb128 .LEHE135-.LEHB135
 3776 0319 8D06     		.uleb128 .L305-.LFB1180
 3777 031b 00       		.uleb128 0
 3778 031c EF05     		.uleb128 .LEHB136-.LFB1180
 3779 031e 05       		.uleb128 .LEHE136-.LEHB136
 3780 031f 00       		.uleb128 0
 3781 0320 00       		.uleb128 0
 3782 0321 8806     		.uleb128 .LEHB137-.LFB1180
 3783 0323 05       		.uleb128 .LEHE137-.LEHB137
 3784 0324 00       		.uleb128 0
 3785 0325 00       		.uleb128 0
 3786 0326 9806     		.uleb128 .LEHB138-.LFB1180
 3787 0328 05       		.uleb128 .LEHE138-.LEHB138
 3788 0329 00       		.uleb128 0
 3789 032a 00       		.uleb128 0
 3790 032b A506     		.uleb128 .LEHB139-.LFB1180
 3791 032d 2A       		.uleb128 .LEHE139-.LEHB139
 3792 032e 9907     		.uleb128 .L303-.LFB1180
 3793 0330 00       		.uleb128 0
 3794 0331 CF06     		.uleb128 .LEHB140-.LFB1180
 3795 0333 05       		.uleb128 .LEHE140-.LEHB140
 3796 0334 00       		.uleb128 0
 3797 0335 00       		.uleb128 0
 3798 0336 E506     		.uleb128 .LEHB141-.LFB1180
 3799 0338 2A       		.uleb128 .LEHE141-.LEHB141
 3800 0339 AD07     		.uleb128 .L301-.LFB1180
 3801 033b 00       		.uleb128 0
 3802 033c 8F07     		.uleb128 .LEHB142-.LFB1180
 3803 033e 05       		.uleb128 .LEHE142-.LEHB142
 3804 033f 00       		.uleb128 0
 3805 0340 00       		.uleb128 0
 3806 0341 A807     		.uleb128 .LEHB143-.LFB1180
 3807 0343 05       		.uleb128 .LEHE143-.LEHB143
 3808 0344 00       		.uleb128 0
 3809 0345 00       		.uleb128 0
 3810 0346 B807     		.uleb128 .LEHB144-.LFB1180
 3811 0348 05       		.uleb128 .LEHE144-.LEHB144
 3812 0349 00       		.uleb128 0
 3813 034a 00       		.uleb128 0
 3814              	.LLSDACSE1180:
 3815 034b 01       		.byte	0x1
 3816 034c 00       		.byte	0
 3817 034d 000000   		.align 4
 3818 0350 00000000 		.long	0
 3819              	
 3820              	.LLSDATT1180:
 3821              		.text
 3823              		.section	.rodata.str1.1
 3824              	.LC25:
 3825 00df 3A303430 		.string	":040BE10075820022F7\n"
 3825      42453130 
 3825      30373538 
 3825      32303032 
 3825      3246370A 
 3826              	.LC26:
 3827 00f4 45787065 		.string	"Expected [ "
 3827      63746564 
 3827      205B2000 
 3828              	.LC27:
 3829 0100 2000     		.string	" "
 3830              	.LC28:
 3831 0102 5D206275 		.string	"] but was [ "
 3831      74207761 
 3831      73205B20 
 3831      00
 3832              	.LC29:
 3833 010f 5D00     		.string	"]"
 3834              		.section	.rodata.str1.8
 3835 031d 000000   		.align 8
 3836              	.LC30:
 3837 0320 556E6861 		.string	"Unhandled exception in CHECK_EQUAL(0x00, recordType)"
 3837      6E646C65 
 3837      64206578 
 3837      63657074 
 3837      696F6E20 
 3838 0355 000000   		.align 8
 3839              	.LC31:
 3840 0358 556E6861 		.string	"Unhandled exception in CHECK_EQUAL(0x0BE1+4UL, data.length)"
 3840      6E646C65 
 3840      64206578 
 3840      63657074 
 3840      696F6E20 
 3841 0394 00000000 		.align 8
 3842              	.LC32:
 3843 0398 556E6861 		.string	"Unhandled exception in CHECK_EQUAL(0x0BE1+4UL, mask.length)"
 3843      6E646C65 
 3843      64206578 
 3843      63657074 
 3843      696F6E20 
 3844 03d4 00000000 		.align 8
 3845              	.LC33:
 3846 03d8 556E6861 		.string	"Unhandled exception in CHECK_EQUAL(4096UL, data.capacity)"
 3846      6E646C65 
 3846      64206578 
 3846      63657074 
 3846      696F6E20 
 3847 0412 00000000 		.align 8
 3847      0000
 3848              	.LC34:
 3849 0418 556E6861 		.string	"Unhandled exception in CHECK_EQUAL(4096UL, mask.capacity)"
 3849      6E646C65 
 3849      64206578 
 3849      63657074 
 3849      696F6E20 
 3850 0452 00000000 		.align 8
 3850      0000
 3851              	.LC35:
 3852 0458 556E6861 		.string	"Unhandled exception in CHECK_ARRAY_EQUAL(expected, data.data + 0x0BE1)"
 3852      6E646C65 
 3852      64206578 
 3852      63657074 
 3852      696F6E20 
 3853              		.text
 3854 10ad 90       		.align 2
 3855 10ae 6690     		.p2align 4,,15
 3856              		.globl	_ZNK27TestHexIO_testValidDataLine7RunImplEv
 3858              	_ZNK27TestHexIO_testValidDataLine7RunImplEv:
 3859              	.LFB1176:
 3860              		.cfi_startproc
 3861              		.cfi_personality 0x3,__gxx_personality_v0
 3862              		.cfi_lsda 0x3,.LLSDA1176
 3863 10b0 4157     		pushq	%r15
 3864              		.cfi_def_cfa_offset 16
 3865              		.cfi_offset 15, -16
 3866 10b2 31C9     		xorl	%ecx, %ecx
 3867 10b4 31D2     		xorl	%edx, %edx
 3868 10b6 BE000400 		movl	$1024, %esi
 3868      00
 3869 10bb 4156     		pushq	%r14
 3870              		.cfi_def_cfa_offset 24
 3871              		.cfi_offset 14, -24
 3872 10bd 4155     		pushq	%r13
 3873              		.cfi_def_cfa_offset 32
 3874              		.cfi_offset 13, -32
 3875 10bf 4154     		pushq	%r12
 3876              		.cfi_def_cfa_offset 40
 3877              		.cfi_offset 12, -40
 3878 10c1 55       		pushq	%rbp
 3879              		.cfi_def_cfa_offset 48
 3880              		.cfi_offset 6, -48
 3881 10c2 53       		pushq	%rbx
 3882              		.cfi_def_cfa_offset 56
 3883              		.cfi_offset 3, -56
 3884 10c3 4881EC28 		subq	$552, %rsp
 3884      020000
 3885              		.cfi_def_cfa_offset 608
 3886 10ca 488D7C24 		leaq	64(%rsp), %rdi
 3886      40
 3887 10cf C7442430 		movl	$0, 48(%rsp)
 3887      00000000 
 3888 10d7 C6842410 		movb	$117, 528(%rsp)
 3888      02000075 
 3889 10df 64488B04 		movq	%fs:40, %rax
 3889      25280000 
 3889      00
 3890 10e8 48898424 		movq	%rax, 536(%rsp)
 3890      18020000 
 3891 10f0 31C0     		xorl	%eax, %eax
 3892 10f2 C6842411 		movb	$-126, 529(%rsp)
 3892      02000082 
 3893 10fa C6842412 		movb	$0, 530(%rsp)
 3893      02000000 
 3894 1102 C6842413 		movb	$34, 531(%rsp)
 3894      02000022 
 3895              	.LEHB145:
 3896 110a E8000000 		call	bufInitialise
 3896      00
 3897              	.LEHE145:
 3898 110f 8944243C 		movl	%eax, 60(%rsp)
 3899              	.LEHB146:
 3900 1113 E8000000 		call	_ZN8UnitTest11CurrentTest7DetailsEv
 3900      00
 3901 1118 488DAC24 		leaq	160(%rsp), %rbp
 3901      A0000000 
 3902 1120 488B30   		movq	(%rax), %rsi
 3903 1123 BA230000 		movl	$35, %edx
 3903      00
 3904 1128 4889EF   		movq	%rbp, %rdi
 3905 112b E8000000 		call	_ZN8UnitTest11TestDetailsC1ERKS0_i
 3905      00
 3906 1130 C7842480 		movl	$0, 128(%rsp)
 3906      00000000 
 3906      000000
 3907 113b E8000000 		call	_ZN8UnitTest11CurrentTest7ResultsEv
 3907      00
 3908 1140 488B38   		movq	(%rax), %rdi
 3909 1143 488D5424 		leaq	60(%rsp), %rdx
 3909      3C
 3910 1148 488DB424 		leaq	128(%rsp), %rsi
 3910      80000000 
 3911 1150 4889E9   		movq	%rbp, %rcx
 3912 1153 E8000000 		call	_ZN8UnitTest10CheckEqualI12BufferStatusS1_EEvRNS_11TestResultsERKT_RKT0_RKNS_11TestDetailsE
 3912      00
 3913              	.LEHE146:
 3914              	.L337:
 3915 1158 488D7C24 		leaq	96(%rsp), %rdi
 3915      60
 3916 115d 31C9     		xorl	%ecx, %ecx
 3917 115f 31D2     		xorl	%edx, %edx
 3918 1161 BE000400 		movl	$1024, %esi
 3918      00
 3919              	.LEHB147:
 3920 1166 E8000000 		call	bufInitialise
 3920      00
 3921              	.LEHE147:
 3922 116b 8944243C 		movl	%eax, 60(%rsp)
 3923              	.LEHB148:
 3924 116f E8000000 		call	_ZN8UnitTest11CurrentTest7DetailsEv
 3924      00
 3925 1174 488B30   		movq	(%rax), %rsi
 3926 1177 BA250000 		movl	$37, %edx
 3926      00
 3927 117c 4889EF   		movq	%rbp, %rdi
 3928 117f E8000000 		call	_ZN8UnitTest11TestDetailsC1ERKS0_i
 3928      00
 3929 1184 C7842480 		movl	$0, 128(%rsp)
 3929      00000000 
 3929      000000
 3930 118f E8000000 		call	_ZN8UnitTest11CurrentTest7ResultsEv
 3930      00
 3931 1194 488B38   		movq	(%rax), %rdi
 3932 1197 488D5424 		leaq	60(%rsp), %rdx
 3932      3C
 3933 119c 488DB424 		leaq	128(%rsp), %rsi
 3933      80000000 
 3934 11a4 4889E9   		movq	%rbp, %rcx
 3935 11a7 E8000000 		call	_ZN8UnitTest10CheckEqualI12BufferStatusS1_EEvRNS_11TestResultsERKT_RKT0_RKNS_11TestDetailsE
 3935      00
 3936              	.LEHE148:
 3937              	.L340:
 3938 11ac 4C8D4C24 		leaq	46(%rsp), %r9
 3938      2E
 3939 11b1 4C8D4424 		leaq	48(%rsp), %r8
 3939      30
 3940 11b6 488D4C24 		leaq	96(%rsp), %rcx
 3940      60
 3941 11bb 488D5424 		leaq	64(%rsp), %rdx
 3941      40
 3942 11c0 48C70424 		movq	$0, (%rsp)
 3942      00000000 
 3943 11c8 31F6     		xorl	%esi, %esi
 3944 11ca BF000000 		movl	$.LC25, %edi
 3944      00
 3945              	.LEHB149:
 3946 11cf E8000000 		call	bufProcessLine
 3946      00
 3947              	.LEHE149:
 3948 11d4 8944243C 		movl	%eax, 60(%rsp)
 3949              	.LEHB150:
 3950 11d8 E8000000 		call	_ZN8UnitTest11CurrentTest7DetailsEv
 3950      00
 3951 11dd 488B30   		movq	(%rax), %rsi
 3952 11e0 BA270000 		movl	$39, %edx
 3952      00
 3953 11e5 4889EF   		movq	%rbp, %rdi
 3954 11e8 E8000000 		call	_ZN8UnitTest11TestDetailsC1ERKS0_i
 3954      00
 3955 11ed C7842480 		movl	$0, 128(%rsp)
 3955      00000000 
 3955      000000
 3956 11f8 E8000000 		call	_ZN8UnitTest11CurrentTest7ResultsEv
 3956      00
 3957 11fd 488B38   		movq	(%rax), %rdi
 3958 1200 488D5424 		leaq	60(%rsp), %rdx
 3958      3C
 3959 1205 488DB424 		leaq	128(%rsp), %rsi
 3959      80000000 
 3960 120d 4889E9   		movq	%rbp, %rcx
 3961 1210 E8000000 		call	_ZN8UnitTest10CheckEqualI12BufferStatusS1_EEvRNS_11TestResultsERKT_RKT0_RKNS_11TestDetailsE
 3961      00
 3962              	.LEHE150:
 3963              	.L343:
 3964              	.LEHB151:
 3965 1215 E8000000 		call	_ZN8UnitTest11CurrentTest7DetailsEv
 3965      00
 3966 121a 488B30   		movq	(%rax), %rsi
 3967 121d BA280000 		movl	$40, %edx
 3967      00
 3968 1222 4889EF   		movq	%rbp, %rdi
 3969 1225 E8000000 		call	_ZN8UnitTest11TestDetailsC1ERKS0_i
 3969      00
 3970 122a C7842480 		movl	$0, 128(%rsp)
 3970      00000000 
 3970      000000
 3971 1235 E8000000 		call	_ZN8UnitTest11CurrentTest7ResultsEv
 3971      00
 3972 123a 488B38   		movq	(%rax), %rdi
 3973 123d 488D5424 		leaq	46(%rsp), %rdx
 3973      2E
 3974 1242 488DB424 		leaq	128(%rsp), %rsi
 3974      80000000 
 3975 124a 4889E9   		movq	%rbp, %rcx
 3976 124d E8000000 		call	_ZN8UnitTest10CheckEqualIihEEvRNS_11TestResultsERKT_RKT0_RKNS_11TestDetailsE
 3976      00
 3977              	.LEHE151:
 3978              	.L346:
 3979              	.LEHB152:
 3980 1252 E8000000 		call	_ZN8UnitTest11CurrentTest7DetailsEv
 3980      00
 3981 1257 488B30   		movq	(%rax), %rsi
 3982 125a BA290000 		movl	$41, %edx
 3982      00
 3983 125f 4889EF   		movq	%rbp, %rdi
 3984 1262 E8000000 		call	_ZN8UnitTest11TestDetailsC1ERKS0_i
 3984      00
 3985 1267 48C78424 		movq	$3045, 128(%rsp)
 3985      80000000 
 3985      E50B0000 
 3986 1273 E8000000 		call	_ZN8UnitTest11CurrentTest7ResultsEv
 3986      00
 3987 1278 488B38   		movq	(%rax), %rdi
 3988 127b 488D5424 		leaq	72(%rsp), %rdx
 3988      48
 3989 1280 488DB424 		leaq	128(%rsp), %rsi
 3989      80000000 
 3990 1288 4889E9   		movq	%rbp, %rcx
 3991 128b E8000000 		call	_ZN8UnitTest10CheckEqualImmEEvRNS_11TestResultsERKT_RKT0_RKNS_11TestDetailsE
 3991      00
 3992              	.LEHE152:
 3993              	.L349:
 3994              	.LEHB153:
 3995 1290 E8000000 		call	_ZN8UnitTest11CurrentTest7DetailsEv
 3995      00
 3996 1295 488B30   		movq	(%rax), %rsi
 3997 1298 BA2A0000 		movl	$42, %edx
 3997      00
 3998 129d 4889EF   		movq	%rbp, %rdi
 3999 12a0 E8000000 		call	_ZN8UnitTest11TestDetailsC1ERKS0_i
 3999      00
 4000 12a5 48C78424 		movq	$3045, 128(%rsp)
 4000      80000000 
 4000      E50B0000 
 4001 12b1 E8000000 		call	_ZN8UnitTest11CurrentTest7ResultsEv
 4001      00
 4002 12b6 488B38   		movq	(%rax), %rdi
 4003 12b9 488D5424 		leaq	104(%rsp), %rdx
 4003      68
 4004 12be 488DB424 		leaq	128(%rsp), %rsi
 4004      80000000 
 4005 12c6 4889E9   		movq	%rbp, %rcx
 4006 12c9 E8000000 		call	_ZN8UnitTest10CheckEqualImmEEvRNS_11TestResultsERKT_RKT0_RKNS_11TestDetailsE
 4006      00
 4007              	.LEHE153:
 4008              	.L352:
 4009              	.LEHB154:
 4010 12ce E8000000 		call	_ZN8UnitTest11CurrentTest7DetailsEv
 4010      00
 4011 12d3 488B30   		movq	(%rax), %rsi
 4012 12d6 BA2B0000 		movl	$43, %edx
 4012      00
 4013 12db 4889EF   		movq	%rbp, %rdi
 4014 12de E8000000 		call	_ZN8UnitTest11TestDetailsC1ERKS0_i
 4014      00
 4015 12e3 48C78424 		movq	$4096, 128(%rsp)
 4015      80000000 
 4015      00100000 
 4016 12ef E8000000 		call	_ZN8UnitTest11CurrentTest7ResultsEv
 4016      00
 4017 12f4 488B38   		movq	(%rax), %rdi
 4018 12f7 488D5424 		leaq	80(%rsp), %rdx
 4018      50
 4019 12fc 488DB424 		leaq	128(%rsp), %rsi
 4019      80000000 
 4020 1304 4889E9   		movq	%rbp, %rcx
 4021 1307 E8000000 		call	_ZN8UnitTest10CheckEqualImmEEvRNS_11TestResultsERKT_RKT0_RKNS_11TestDetailsE
 4021      00
 4022              	.LEHE154:
 4023              	.L355:
 4024              	.LEHB155:
 4025 130c E8000000 		call	_ZN8UnitTest11CurrentTest7DetailsEv
 4025      00
 4026 1311 488B30   		movq	(%rax), %rsi
 4027 1314 BA2C0000 		movl	$44, %edx
 4027      00
 4028 1319 4889EF   		movq	%rbp, %rdi
 4029 131c E8000000 		call	_ZN8UnitTest11TestDetailsC1ERKS0_i
 4029      00
 4030 1321 48C78424 		movq	$4096, 128(%rsp)
 4030      80000000 
 4030      00100000 
 4031 132d E8000000 		call	_ZN8UnitTest11CurrentTest7ResultsEv
 4031      00
 4032 1332 488B38   		movq	(%rax), %rdi
 4033 1335 488D5424 		leaq	112(%rsp), %rdx
 4033      70
 4034 133a 488DB424 		leaq	128(%rsp), %rsi
 4034      80000000 
 4035 1342 4889E9   		movq	%rbp, %rcx
 4036 1345 E8000000 		call	_ZN8UnitTest10CheckEqualImmEEvRNS_11TestResultsERKT_RKT0_RKNS_11TestDetailsE
 4036      00
 4037              	.LEHE155:
 4038              	.L358:
 4039              	.LEHB156:
 4040 134a E8000000 		call	_ZN8UnitTest11CurrentTest7DetailsEv
 4040      00
 4041 134f 4C8DAC24 		leaq	128(%rsp), %r13
 4041      80000000 
 4042 1357 488B30   		movq	(%rax), %rsi
 4043 135a BA2D0000 		movl	$45, %edx
 4043      00
 4044 135f 4C89EF   		movq	%r13, %rdi
 4045 1362 E8000000 		call	_ZN8UnitTest11TestDetailsC1ERKS0_i
 4045      00
 4046 1367 488B5C24 		movq	64(%rsp), %rbx
 4046      40
 4047 136c 4C8DA3E1 		leaq	3041(%rbx), %r12
 4047      0B0000
 4048 1373 E8000000 		call	_ZN8UnitTest11CurrentTest7ResultsEv
 4048      00
 4049              	.LEHE156:
 4050 1378 4C8B30   		movq	(%rax), %r14
 4051 137b 0FB683E2 		movzbl	3042(%rbx), %eax
 4051      0B0000
 4052 1382 38842411 		cmpb	%al, 529(%rsp)
 4052      020000
 4053 1389 0FB68BE1 		movzbl	3041(%rbx), %ecx
 4053      0B0000
 4054 1390 0F94C0   		sete	%al
 4055 1393 388C2410 		cmpb	%cl, 528(%rsp)
 4055      020000
 4056 139a 0FB68BE3 		movzbl	3043(%rbx), %ecx
 4056      0B0000
 4057 13a1 0F94C2   		sete	%dl
 4058 13a4 21D0     		andl	%edx, %eax
 4059 13a6 388C2412 		cmpb	%cl, 530(%rsp)
 4059      020000
 4060 13ad 0F94C2   		sete	%dl
 4061 13b0 84D0     		testb	%dl, %al
 4062 13b2 7454     		je	.L383
 4063 13b4 0FB683E4 		movzbl	3044(%rbx), %eax
 4063      0B0000
 4064 13bb 38842413 		cmpb	%al, 531(%rsp)
 4064      020000
 4065 13c2 7544     		jne	.L383
 4066              	.L360:
 4067 13c4 488D7C24 		leaq	96(%rsp), %rdi
 4067      60
 4068              	.LEHB157:
 4069 13c9 E8000000 		call	bufDestroy
 4069      00
 4070 13ce 488D7C24 		leaq	64(%rsp), %rdi
 4070      40
 4071 13d3 E8000000 		call	bufDestroy
 4071      00
 4072              	.LEHE157:
 4073 13d8 488B8424 		movq	536(%rsp), %rax
 4073      18020000 
 4074 13e0 64483304 		xorq	%fs:40, %rax
 4074      25280000 
 4074      00
 4075 13e9 0F85EA05 		jne	.L391
 4075      0000
 4076 13ef 4881C428 		addq	$552, %rsp
 4076      020000
 4077              		.cfi_remember_state
 4078              		.cfi_def_cfa_offset 56
 4079 13f6 5B       		popq	%rbx
 4080              		.cfi_def_cfa_offset 48
 4081 13f7 5D       		popq	%rbp
 4082              		.cfi_def_cfa_offset 40
 4083 13f8 415C     		popq	%r12
 4084              		.cfi_def_cfa_offset 32
 4085 13fa 415D     		popq	%r13
 4086              		.cfi_def_cfa_offset 24
 4087 13fc 415E     		popq	%r14
 4088              		.cfi_def_cfa_offset 16
 4089 13fe 415F     		popq	%r15
 4090              		.cfi_def_cfa_offset 8
 4091 1400 C3       		ret
 4092              		.p2align 4,,10
 4093 1401 0F1F8000 		.p2align 3
 4093      000000
 4094              	.L383:
 4095              		.cfi_restore_state
 4096 1408 488D5D60 		leaq	96(%rbp), %rbx
 4097 140c 4889DF   		movq	%rbx, %rdi
 4098 140f E8000000 		call	_ZNSt8ios_baseC2Ev
 4098      00
 4099 1414 31F6     		xorl	%esi, %esi
 4100 1416 4889DF   		movq	%rbx, %rdi
 4101 1419 48C78424 		movq	$0, 472(%rsp)
 4101      D8010000 
 4101      00000000 
 4102 1425 C68424E0 		movb	$0, 480(%rsp)
 4102      01000000 
 4103 142d C68424E1 		movb	$0, 481(%rsp)
 4103      01000000 
 4104 1435 48C78424 		movq	$0, 488(%rsp)
 4104      E8010000 
 4104      00000000 
 4105 1441 48C78424 		movq	$0, 496(%rsp)
 4105      F0010000 
 4105      00000000 
 4106 144d 48C78424 		movq	$0, 504(%rsp)
 4106      F8010000 
 4106      00000000 
 4107 1459 48C78424 		movq	$0, 512(%rsp)
 4107      00020000 
 4107      00000000 
 4108 1465 48C78424 		movq	$_ZTCN8UnitTest15MemoryOutStreamE0_So+24, 160(%rsp)
 4108      A0000000 
 4108      00000000 
 4109 1471 48C78424 		movq	$_ZTCN8UnitTest15MemoryOutStreamE0_So+64, 256(%rsp)
 4109      00010000 
 4109      00000000 
 4110              	.LEHB158:
 4111 147d E8000000 		call	_ZNSt9basic_iosIcSt11char_traitsIcEE4initEPSt15basic_streambufIcS1_E
 4111      00
 4112              	.LEHE158:
 4113 1482 488D7D40 		leaq	64(%rbp), %rdi
 4114 1486 48C78424 		movq	$_ZTCN8UnitTest15MemoryOutStreamE0_St19basic_ostringstreamIcSt11char_traitsIcESaIcEE+24, 160(
 4114      A0000000 
 4114      00000000 
 4115 1492 48C78424 		movq	$_ZTCN8UnitTest15MemoryOutStreamE0_St19basic_ostringstreamIcSt11char_traitsIcESaIcEE+64, 256(
 4115      00010000 
 4115      00000000 
 4116 149e 48C78424 		movq	$_ZTVSt15basic_streambufIcSt11char_traitsIcEE+16, 168(%rsp)
 4116      A8000000 
 4116      00000000 
 4117 14aa 48C78424 		movq	$0, 176(%rsp)
 4117      B0000000 
 4117      00000000 
 4118 14b6 48C78424 		movq	$0, 184(%rsp)
 4118      B8000000 
 4118      00000000 
 4119 14c2 48C78424 		movq	$0, 192(%rsp)
 4119      C0000000 
 4119      00000000 
 4120 14ce 48C78424 		movq	$0, 200(%rsp)
 4120      C8000000 
 4120      00000000 
 4121 14da 48C78424 		movq	$0, 208(%rsp)
 4121      D0000000 
 4121      00000000 
 4122 14e6 48C78424 		movq	$0, 216(%rsp)
 4122      D8000000 
 4122      00000000 
 4123 14f2 E8000000 		call	_ZNSt6localeC1Ev
 4123      00
 4124 14f7 488B8424 		movq	160(%rsp), %rax
 4124      A0000000 
 4125 14ff 4889EF   		movq	%rbp, %rdi
 4126 1502 488D7508 		leaq	8(%rbp), %rsi
 4127 1506 48C78424 		movq	$_ZTVSt15basic_stringbufIcSt11char_traitsIcESaIcEE+16, 168(%rsp)
 4127      A8000000 
 4127      00000000 
 4128 1512 C78424E8 		movl	$16, 232(%rsp)
 4128      00000010 
 4128      000000
 4129 151d 48C78424 		movq	$_ZNSs4_Rep20_S_empty_rep_storageE+24, 240(%rsp)
 4129      F0000000 
 4129      00000000 
 4130 1529 480378E8 		addq	-24(%rax), %rdi
 4131              	.LEHB159:
 4132 152d E8000000 		call	_ZNSt9basic_iosIcSt11char_traitsIcEE4initEPSt15basic_streambufIcS1_E
 4132      00
 4133              	.LEHE159:
 4134 1532 BA0B0000 		movl	$11, %edx
 4134      00
 4135 1537 BE000000 		movl	$.LC26, %esi
 4135      00
 4136 153c 4889EF   		movq	%rbp, %rdi
 4137 153f 48C78424 		movq	$_ZTVN8UnitTest15MemoryOutStreamE+24, 160(%rsp)
 4137      A0000000 
 4137      00000000 
 4138 154b 48C78424 		movq	$_ZTVN8UnitTest15MemoryOutStreamE+64, 256(%rsp)
 4138      00010000 
 4138      00000000 
 4139 1557 48C78424 		movq	$_ZNSs4_Rep20_S_empty_rep_storageE+24, 248(%rsp)
 4139      F8000000 
 4139      00000000 
 4140              	.LEHB160:
 4141 1563 E8000000 		call	_ZSt16__ostream_insertIcSt11char_traitsIcEERSt13basic_ostreamIT_T0_ES6_PKS3_l
 4141      00
 4142 1568 488D9C24 		leaq	528(%rsp), %rbx
 4142      10020000 
 4143 1570 4C8D7B04 		leaq	4(%rbx), %r15
 4144              		.p2align 4,,10
 4145 1574 0F1F4000 		.p2align 3
 4146              	.L321:
 4147 1578 0FB603   		movzbl	(%rbx), %eax
 4148 157b 488D7424 		leaq	16(%rsp), %rsi
 4148      10
 4149 1580 BA010000 		movl	$1, %edx
 4149      00
 4150 1585 4889EF   		movq	%rbp, %rdi
 4151 1588 88442410 		movb	%al, 16(%rsp)
 4152 158c E8000000 		call	_ZSt16__ostream_insertIcSt11char_traitsIcEERSt13basic_ostreamIT_T0_ES6_PKS3_l
 4152      00
 4153 1591 BA010000 		movl	$1, %edx
 4153      00
 4154 1596 BE000000 		movl	$.LC27, %esi
 4154      00
 4155 159b 4889C7   		movq	%rax, %rdi
 4156 159e E8000000 		call	_ZSt16__ostream_insertIcSt11char_traitsIcEERSt13basic_ostreamIT_T0_ES6_PKS3_l
 4156      00
 4157 15a3 4883C301 		addq	$1, %rbx
 4158 15a7 4C39FB   		cmpq	%r15, %rbx
 4159 15aa 75CC     		jne	.L321
 4160 15ac BA0C0000 		movl	$12, %edx
 4160      00
 4161 15b1 BE000000 		movl	$.LC28, %esi
 4161      00
 4162 15b6 4889EF   		movq	%rbp, %rdi
 4163 15b9 E8000000 		call	_ZSt16__ostream_insertIcSt11char_traitsIcEERSt13basic_ostreamIT_T0_ES6_PKS3_l
 4163      00
 4164 15be 31DB     		xorl	%ebx, %ebx
 4165              		.p2align 4,,10
 4166              		.p2align 3
 4167              	.L323:
 4168 15c0 410FB604 		movzbl	(%r12,%rbx), %eax
 4168      1C
 4169 15c5 488D7424 		leaq	32(%rsp), %rsi
 4169      20
 4170 15ca BA010000 		movl	$1, %edx
 4170      00
 4171 15cf 4889EF   		movq	%rbp, %rdi
 4172 15d2 88442420 		movb	%al, 32(%rsp)
 4173 15d6 E8000000 		call	_ZSt16__ostream_insertIcSt11char_traitsIcEERSt13basic_ostreamIT_T0_ES6_PKS3_l
 4173      00
 4174 15db BA010000 		movl	$1, %edx
 4174      00
 4175 15e0 BE000000 		movl	$.LC27, %esi
 4175      00
 4176 15e5 4889C7   		movq	%rax, %rdi
 4177 15e8 E8000000 		call	_ZSt16__ostream_insertIcSt11char_traitsIcEERSt13basic_ostreamIT_T0_ES6_PKS3_l
 4177      00
 4178 15ed 4883C301 		addq	$1, %rbx
 4179 15f1 4883FB04 		cmpq	$4, %rbx
 4180 15f5 75C9     		jne	.L323
 4181 15f7 BA010000 		movl	$1, %edx
 4181      00
 4182 15fc BE000000 		movl	$.LC29, %esi
 4182      00
 4183 1601 4889EF   		movq	%rbp, %rdi
 4184 1604 E8000000 		call	_ZSt16__ostream_insertIcSt11char_traitsIcEERSt13basic_ostreamIT_T0_ES6_PKS3_l
 4184      00
 4185 1609 4889EF   		movq	%rbp, %rdi
 4186 160c E8000000 		call	_ZNK8UnitTest15MemoryOutStream7GetTextEv
 4186      00
 4187 1611 4889C2   		movq	%rax, %rdx
 4188 1614 4C89EE   		movq	%r13, %rsi
 4189 1617 4C89F7   		movq	%r14, %rdi
 4190 161a E8000000 		call	_ZN8UnitTest11TestResults13OnTestFailureERKNS_11TestDetailsEPKc
 4190      00
 4191              	.LEHE160:
 4192 161f 488B8424 		movq	248(%rsp), %rax
 4192      F8000000 
 4193 1627 48C78424 		movq	$_ZTVN8UnitTest15MemoryOutStreamE+24, 160(%rsp)
 4193      A0000000 
 4193      00000000 
 4194 1633 48C78424 		movq	$_ZTVN8UnitTest15MemoryOutStreamE+64, 256(%rsp)
 4194      00010000 
 4194      00000000 
 4195 163f 488D78E8 		leaq	-24(%rax), %rdi
 4196 1643 4881FF00 		cmpq	$_ZNSs4_Rep20_S_empty_rep_storageE, %rdi
 4196      000000
 4197 164a 0F851101 		jne	.L392
 4197      0000
 4198              	.L325:
 4199 1650 488B8424 		movq	240(%rsp), %rax
 4199      F0000000 
 4200 1658 48C78424 		movq	$_ZTCN8UnitTest15MemoryOutStreamE0_St19basic_ostringstreamIcSt11char_traitsIcESaIcEE+24, 160(
 4200      A0000000 
 4200      00000000 
 4201 1664 48C78424 		movq	$_ZTCN8UnitTest15MemoryOutStreamE0_St19basic_ostringstreamIcSt11char_traitsIcESaIcEE+64, 256(
 4201      00010000 
 4201      00000000 
 4202 1670 48C78424 		movq	$_ZTVSt15basic_stringbufIcSt11char_traitsIcESaIcEE+16, 168(%rsp)
 4202      A8000000 
 4202      00000000 
 4203 167c 488D78E8 		leaq	-24(%rax), %rdi
 4204 1680 4881FF00 		cmpq	$_ZNSs4_Rep20_S_empty_rep_storageE, %rdi
 4204      000000
 4205 1687 0F850201 		jne	.L393
 4205      0000
 4206              	.L330:
 4207 168d 488D7D40 		leaq	64(%rbp), %rdi
 4208 1691 48C78424 		movq	$_ZTVSt15basic_streambufIcSt11char_traitsIcEE+16, 168(%rsp)
 4208      A8000000 
 4208      00000000 
 4209 169d E8000000 		call	_ZNSt6localeD1Ev
 4209      00
 4210 16a2 488D7D60 		leaq	96(%rbp), %rdi
 4211 16a6 48C78424 		movq	$_ZTCN8UnitTest15MemoryOutStreamE0_So+24, 160(%rsp)
 4211      A0000000 
 4211      00000000 
 4212 16b2 48C78424 		movq	$_ZTVSt9basic_iosIcSt11char_traitsIcEE+16, 256(%rsp)
 4212      00010000 
 4212      00000000 
 4213              	.LEHB161:
 4214 16be E8000000 		call	_ZNSt8ios_baseD2Ev
 4214      00
 4215              	.LEHE161:
 4216 16c3 E9FCFCFF 		jmp	.L360
 4216      FF
 4217              	.L381:
 4218 16c8 4889C3   		movq	%rax, %rbx
 4219              	.L317:
 4220 16cb 488D7D60 		leaq	96(%rbp), %rdi
 4221 16cf 48C78424 		movq	$_ZTVSt9basic_iosIcSt11char_traitsIcEE+16, 256(%rsp)
 4221      00010000 
 4221      00000000 
 4222 16db E8000000 		call	_ZNSt8ios_baseD2Ev
 4222      00
 4223 16e0 4889D8   		movq	%rbx, %rax
 4224              	.L319:
 4225 16e3 4889C7   		movq	%rax, %rdi
 4226 16e6 E8000000 		call	__cxa_begin_catch
 4226      00
 4227              	.LEHB162:
 4228 16eb E8000000 		call	_ZN8UnitTest11CurrentTest7DetailsEv
 4228      00
 4229 16f0 4C8DAC24 		leaq	128(%rsp), %r13
 4229      80000000 
 4230 16f8 488B30   		movq	(%rax), %rsi
 4231 16fb BA2D0000 		movl	$45, %edx
 4231      00
 4232 1700 4C89EF   		movq	%r13, %rdi
 4233 1703 E8000000 		call	_ZN8UnitTest11TestDetailsC1ERKS0_i
 4233      00
 4234 1708 E8000000 		call	_ZN8UnitTest11CurrentTest7ResultsEv
 4234      00
 4235 170d 488B38   		movq	(%rax), %rdi
 4236 1710 BA000000 		movl	$.LC35, %edx
 4236      00
 4237 1715 4C89EE   		movq	%r13, %rsi
 4238 1718 E8000000 		call	_ZN8UnitTest11TestResults13OnTestFailureERKNS_11TestDetailsEPKc
 4238      00
 4239              	.LEHE162:
 4240              	.LEHB163:
 4241 171d E8000000 		call	__cxa_end_catch
 4241      00
 4242              	.LEHE163:
 4243 1722 E99DFCFF 		jmp	.L360
 4243      FF
 4244              	.L382:
 4245 1727 488D7D08 		leaq	8(%rbp), %rdi
 4246 172b 4889C3   		movq	%rax, %rbx
 4247 172e E8000000 		call	_ZNSt15basic_stringbufIcSt11char_traitsIcESaIcEED1Ev
 4247      00
 4248 1733 48C78424 		movq	$_ZTCN8UnitTest15MemoryOutStreamE0_So+24, 160(%rsp)
 4248      A0000000 
 4248      00000000 
 4249 173f EB8A     		jmp	.L317
 4250              	.L380:
 4251 1741 4889C3   		movq	%rax, %rbx
 4252 1744 4889EF   		movq	%rbp, %rdi
 4253 1747 E8000000 		call	_ZN8UnitTest15MemoryOutStreamD1Ev
 4253      00
 4254 174c 4889D8   		movq	%rbx, %rax
 4255 174f EB92     		jmp	.L319
 4256              	.L379:
 4257 1751 4889C3   		movq	%rax, %rbx
 4258 1754 E8000000 		call	__cxa_end_catch
 4258      00
 4259 1759 4889DF   		movq	%rbx, %rdi
 4260              	.LEHB164:
 4261 175c E8000000 		call	_Unwind_Resume
 4261      00
 4262              	.LEHE164:
 4263              	.L392:
 4264 1761 B9000000 		movl	$_ZL28__gthrw___pthread_key_createPjPFvPvE, %ecx
 4264      00
 4265 1766 488D5710 		leaq	16(%rdi), %rdx
 4266 176a 4885C9   		testq	%rcx, %rcx
 4267 176d 744E     		je	.L326
 4268 176f B8FFFFFF 		movl	$-1, %eax
 4268      FF
 4269 1774 F00FC102 		lock xaddl	%eax, (%rdx)
 4270              	.L327:
 4271 1778 85C0     		testl	%eax, %eax
 4272 177a 0F8FD0FE 		jg	.L325
 4272      FFFF
 4273 1780 488D7424 		leaq	47(%rsp), %rsi
 4273      2F
 4274 1785 E8000000 		call	_ZNSs4_Rep10_M_destroyERKSaIcE
 4274      00
 4275 178a E9C1FEFF 		jmp	.L325
 4275      FF
 4276              	.L393:
 4277 178f B9000000 		movl	$_ZL28__gthrw___pthread_key_createPjPFvPvE, %ecx
 4277      00
 4278 1794 488D5710 		leaq	16(%rdi), %rdx
 4279 1798 4885C9   		testq	%rcx, %rcx
 4280 179b 742D     		je	.L331
 4281 179d B8FFFFFF 		movl	$-1, %eax
 4281      FF
 4282 17a2 F00FC102 		lock xaddl	%eax, (%rdx)
 4283              	.L332:
 4284 17a6 85C0     		testl	%eax, %eax
 4285 17a8 0F8FDFFE 		jg	.L330
 4285      FFFF
 4286 17ae 488D7424 		leaq	47(%rsp), %rsi
 4286      2F
 4287 17b3 E8000000 		call	_ZNSs4_Rep10_M_destroyERKSaIcE
 4287      00
 4288 17b8 E9D0FEFF 		jmp	.L330
 4288      FF
 4289              	.L326:
 4290 17bd 8B50F8   		movl	-8(%rax), %edx
 4291 17c0 8D4AFF   		leal	-1(%rdx), %ecx
 4292 17c3 8948F8   		movl	%ecx, -8(%rax)
 4293 17c6 89D0     		movl	%edx, %eax
 4294 17c8 EBAE     		jmp	.L327
 4295              	.L331:
 4296 17ca 8B50F8   		movl	-8(%rax), %edx
 4297 17cd 8D4AFF   		leal	-1(%rdx), %ecx
 4298 17d0 8948F8   		movl	%ecx, -8(%rax)
 4299 17d3 89D0     		movl	%edx, %eax
 4300 17d5 EBCF     		jmp	.L332
 4301              	.L378:
 4302 17d7 E907FFFF 		jmp	.L319
 4302      FF
 4303              	.L376:
 4304 17dc 4889C7   		movq	%rax, %rdi
 4305 17df E8000000 		call	__cxa_begin_catch
 4305      00
 4306              		.p2align 4,,5
 4307              	.LEHB165:
 4308 17e4 E8000000 		call	_ZN8UnitTest11CurrentTest7DetailsEv
 4308      00
 4309 17e9 488B30   		movq	(%rax), %rsi
 4310 17ec BA2C0000 		movl	$44, %edx
 4310      00
 4311 17f1 4889EF   		movq	%rbp, %rdi
 4312 17f4 E8000000 		call	_ZN8UnitTest11TestDetailsC1ERKS0_i
 4312      00
 4313 17f9 E8000000 		call	_ZN8UnitTest11CurrentTest7ResultsEv
 4313      00
 4314 17fe 488B38   		movq	(%rax), %rdi
 4315 1801 BA000000 		movl	$.LC34, %edx
 4315      00
 4316 1806 4889EE   		movq	%rbp, %rsi
 4317 1809 E8000000 		call	_ZN8UnitTest11TestResults13OnTestFailureERKNS_11TestDetailsEPKc
 4317      00
 4318              	.LEHE165:
 4319              	.LEHB166:
 4320 180e E8000000 		call	__cxa_end_catch
 4320      00
 4321              	.LEHE166:
 4322 1813 E932FBFF 		jmp	.L358
 4322      FF
 4323              	.L374:
 4324 1818 4889C7   		movq	%rax, %rdi
 4325 181b 0F1F4400 		.p2align 4,,5
 4325      00
 4326 1820 E8000000 		call	__cxa_begin_catch
 4326      00
 4327              		.p2align 4,,5
 4328              	.LEHB167:
 4329 1825 E8000000 		call	_ZN8UnitTest11CurrentTest7DetailsEv
 4329      00
 4330 182a 488B30   		movq	(%rax), %rsi
 4331 182d BA2B0000 		movl	$43, %edx
 4331      00
 4332 1832 4889EF   		movq	%rbp, %rdi
 4333 1835 E8000000 		call	_ZN8UnitTest11TestDetailsC1ERKS0_i
 4333      00
 4334 183a E8000000 		call	_ZN8UnitTest11CurrentTest7ResultsEv
 4334      00
 4335 183f 488B38   		movq	(%rax), %rdi
 4336 1842 BA000000 		movl	$.LC33, %edx
 4336      00
 4337 1847 4889EE   		movq	%rbp, %rsi
 4338 184a E8000000 		call	_ZN8UnitTest11TestResults13OnTestFailureERKNS_11TestDetailsEPKc
 4338      00
 4339              	.LEHE167:
 4340              	.LEHB168:
 4341 184f E8000000 		call	__cxa_end_catch
 4341      00
 4342              	.LEHE168:
 4343 1854 E9B3FAFF 		jmp	.L355
 4343      FF
 4344              	.L366:
 4345 1859 4889C7   		movq	%rax, %rdi
 4346 185c 0F1F4000 		.p2align 4,,5
 4347 1860 E8000000 		call	__cxa_begin_catch
 4347      00
 4348              		.p2align 4,,5
 4349              	.LEHB169:
 4350 1865 E8000000 		call	_ZN8UnitTest11CurrentTest7DetailsEv
 4350      00
 4351 186a 488B30   		movq	(%rax), %rsi
 4352 186d BA270000 		movl	$39, %edx
 4352      00
 4353 1872 4889EF   		movq	%rbp, %rdi
 4354 1875 E8000000 		call	_ZN8UnitTest11TestDetailsC1ERKS0_i
 4354      00
 4355 187a E8000000 		call	_ZN8UnitTest11CurrentTest7ResultsEv
 4355      00
 4356 187f 488B38   		movq	(%rax), %rdi
 4357 1882 BA000000 		movl	$.LC3, %edx
 4357      00
 4358 1887 4889EE   		movq	%rbp, %rsi
 4359 188a E8000000 		call	_ZN8UnitTest11TestResults13OnTestFailureERKNS_11TestDetailsEPKc
 4359      00
 4360              	.LEHE169:
 4361              	.LEHB170:
 4362 188f E8000000 		call	__cxa_end_catch
 4362      00
 4363              	.LEHE170:
 4364 1894 E97CF9FF 		jmp	.L343
 4364      FF
 4365              	.L370:
 4366 1899 4889C7   		movq	%rax, %rdi
 4367 189c 0F1F4000 		.p2align 4,,5
 4368 18a0 E8000000 		call	__cxa_begin_catch
 4368      00
 4369              		.p2align 4,,5
 4370              	.LEHB171:
 4371 18a5 E8000000 		call	_ZN8UnitTest11CurrentTest7DetailsEv
 4371      00
 4372 18aa 488B30   		movq	(%rax), %rsi
 4373 18ad BA290000 		movl	$41, %edx
 4373      00
 4374 18b2 4889EF   		movq	%rbp, %rdi
 4375 18b5 E8000000 		call	_ZN8UnitTest11TestDetailsC1ERKS0_i
 4375      00
 4376 18ba E8000000 		call	_ZN8UnitTest11CurrentTest7ResultsEv
 4376      00
 4377 18bf 488B38   		movq	(%rax), %rdi
 4378 18c2 BA000000 		movl	$.LC31, %edx
 4378      00
 4379 18c7 4889EE   		movq	%rbp, %rsi
 4380 18ca E8000000 		call	_ZN8UnitTest11TestResults13OnTestFailureERKNS_11TestDetailsEPKc
 4380      00
 4381              	.LEHE171:
 4382              	.LEHB172:
 4383 18cf E8000000 		call	__cxa_end_catch
 4383      00
 4384              	.LEHE172:
 4385 18d4 E9B7F9FF 		jmp	.L349
 4385      FF
 4386              	.L362:
 4387 18d9 4889C7   		movq	%rax, %rdi
 4388 18dc 0F1F4000 		.p2align 4,,5
 4389 18e0 E8000000 		call	__cxa_begin_catch
 4389      00
 4390              		.p2align 4,,5
 4391              	.LEHB173:
 4392 18e5 E8000000 		call	_ZN8UnitTest11CurrentTest7DetailsEv
 4392      00
 4393 18ea 488DAC24 		leaq	160(%rsp), %rbp
 4393      A0000000 
 4394 18f2 488B30   		movq	(%rax), %rsi
 4395 18f5 BA230000 		movl	$35, %edx
 4395      00
 4396 18fa 4889EF   		movq	%rbp, %rdi
 4397 18fd E8000000 		call	_ZN8UnitTest11TestDetailsC1ERKS0_i
 4397      00
 4398 1902 E8000000 		call	_ZN8UnitTest11CurrentTest7ResultsEv
 4398      00
 4399 1907 488B38   		movq	(%rax), %rdi
 4400 190a BA000000 		movl	$.LC3, %edx
 4400      00
 4401 190f 4889EE   		movq	%rbp, %rsi
 4402 1912 E8000000 		call	_ZN8UnitTest11TestResults13OnTestFailureERKNS_11TestDetailsEPKc
 4402      00
 4403              	.LEHE173:
 4404              	.LEHB174:
 4405 1917 E8000000 		call	__cxa_end_catch
 4405      00
 4406              	.LEHE174:
 4407 191c E937F8FF 		jmp	.L337
 4407      FF
 4408              	.L372:
 4409 1921 4889C7   		movq	%rax, %rdi
 4410              		.p2align 4,,5
 4411 1924 E8000000 		call	__cxa_begin_catch
 4411      00
 4412              		.p2align 4,,5
 4413              	.LEHB175:
 4414 1929 E8000000 		call	_ZN8UnitTest11CurrentTest7DetailsEv
 4414      00
 4415 192e 488B30   		movq	(%rax), %rsi
 4416 1931 BA2A0000 		movl	$42, %edx
 4416      00
 4417 1936 4889EF   		movq	%rbp, %rdi
 4418 1939 E8000000 		call	_ZN8UnitTest11TestDetailsC1ERKS0_i
 4418      00
 4419 193e E8000000 		call	_ZN8UnitTest11CurrentTest7ResultsEv
 4419      00
 4420 1943 488B38   		movq	(%rax), %rdi
 4421 1946 BA000000 		movl	$.LC32, %edx
 4421      00
 4422 194b 4889EE   		movq	%rbp, %rsi
 4423 194e E8000000 		call	_ZN8UnitTest11TestResults13OnTestFailureERKNS_11TestDetailsEPKc
 4423      00
 4424              	.LEHE175:
 4425              	.LEHB176:
 4426 1953 E8000000 		call	__cxa_end_catch
 4426      00
 4427              	.LEHE176:
 4428 1958 E971F9FF 		jmp	.L352
 4428      FF
 4429              	.L364:
 4430 195d 4889C7   		movq	%rax, %rdi
 4431              		.p2align 4,,5
 4432 1960 E8000000 		call	__cxa_begin_catch
 4432      00
 4433              		.p2align 4,,5
 4434              	.LEHB177:
 4435 1965 E8000000 		call	_ZN8UnitTest11CurrentTest7DetailsEv
 4435      00
 4436 196a 488B30   		movq	(%rax), %rsi
 4437 196d BA250000 		movl	$37, %edx
 4437      00
 4438 1972 4889EF   		movq	%rbp, %rdi
 4439 1975 E8000000 		call	_ZN8UnitTest11TestDetailsC1ERKS0_i
 4439      00
 4440 197a E8000000 		call	_ZN8UnitTest11CurrentTest7ResultsEv
 4440      00
 4441 197f 488B38   		movq	(%rax), %rdi
 4442 1982 BA000000 		movl	$.LC3, %edx
 4442      00
 4443 1987 4889EE   		movq	%rbp, %rsi
 4444 198a E8000000 		call	_ZN8UnitTest11TestResults13OnTestFailureERKNS_11TestDetailsEPKc
 4444      00
 4445              	.LEHE177:
 4446              	.LEHB178:
 4447 198f E8000000 		call	__cxa_end_catch
 4447      00
 4448              	.LEHE178:
 4449 1994 E913F8FF 		jmp	.L340
 4449      FF
 4450              	.L368:
 4451 1999 4889C7   		movq	%rax, %rdi
 4452 199c 0F1F4000 		.p2align 4,,5
 4453 19a0 E8000000 		call	__cxa_begin_catch
 4453      00
 4454              		.p2align 4,,5
 4455              	.LEHB179:
 4456 19a5 E8000000 		call	_ZN8UnitTest11CurrentTest7DetailsEv
 4456      00
 4457 19aa 488B30   		movq	(%rax), %rsi
 4458 19ad BA280000 		movl	$40, %edx
 4458      00
 4459 19b2 4889EF   		movq	%rbp, %rdi
 4460 19b5 E8000000 		call	_ZN8UnitTest11TestDetailsC1ERKS0_i
 4460      00
 4461 19ba E8000000 		call	_ZN8UnitTest11CurrentTest7ResultsEv
 4461      00
 4462 19bf 488B38   		movq	(%rax), %rdi
 4463 19c2 BA000000 		movl	$.LC30, %edx
 4463      00
 4464 19c7 4889EE   		movq	%rbp, %rsi
 4465 19ca E8000000 		call	_ZN8UnitTest11TestResults13OnTestFailureERKNS_11TestDetailsEPKc
 4465      00
 4466              	.LEHE179:
 4467              	.LEHB180:
 4468 19cf E8000000 		call	__cxa_end_catch
 4468      00
 4469              	.LEHE180:
 4470 19d4 E979F8FF 		jmp	.L346
 4470      FF
 4471              	.L391:
 4472 19d9 0F1F8000 		.p2align 4,,8
 4472      000000
 4473 19e0 E8000000 		call	__stack_chk_fail
 4473      00
 4474              	.L377:
 4475 19e5 4889C3   		movq	%rax, %rbx
 4476              		.p2align 4,,5
 4477 19e8 E8000000 		call	__cxa_end_catch
 4477      00
 4478 19ed 4889DF   		movq	%rbx, %rdi
 4479              	.LEHB181:
 4480 19f0 E8000000 		call	_Unwind_Resume
 4480      00
 4481              	.LEHE181:
 4482              	.L363:
 4483 19f5 4889C3   		movq	%rax, %rbx
 4484 19f8 E8000000 		call	__cxa_end_catch
 4484      00
 4485 19fd 4889DF   		movq	%rbx, %rdi
 4486              	.LEHB182:
 4487 1a00 E8000000 		call	_Unwind_Resume
 4487      00
 4488              	.LEHE182:
 4489              	.L367:
 4490 1a05 4889C3   		movq	%rax, %rbx
 4491 1a08 E8000000 		call	__cxa_end_catch
 4491      00
 4492 1a0d 4889DF   		movq	%rbx, %rdi
 4493              	.LEHB183:
 4494 1a10 E8000000 		call	_Unwind_Resume
 4494      00
 4495              	.LEHE183:
 4496              	.L365:
 4497 1a15 4889C3   		movq	%rax, %rbx
 4498 1a18 E8000000 		call	__cxa_end_catch
 4498      00
 4499 1a1d 4889DF   		movq	%rbx, %rdi
 4500              	.LEHB184:
 4501 1a20 E8000000 		call	_Unwind_Resume
 4501      00
 4502              	.LEHE184:
 4503              	.L375:
 4504 1a25 4889C3   		movq	%rax, %rbx
 4505 1a28 E8000000 		call	__cxa_end_catch
 4505      00
 4506 1a2d 4889DF   		movq	%rbx, %rdi
 4507              	.LEHB185:
 4508 1a30 E8000000 		call	_Unwind_Resume
 4508      00
 4509              	.LEHE185:
 4510              	.L373:
 4511 1a35 4889C3   		movq	%rax, %rbx
 4512 1a38 E8000000 		call	__cxa_end_catch
 4512      00
 4513 1a3d 4889DF   		movq	%rbx, %rdi
 4514              	.LEHB186:
 4515 1a40 E8000000 		call	_Unwind_Resume
 4515      00
 4516              	.LEHE186:
 4517              	.L371:
 4518 1a45 4889C3   		movq	%rax, %rbx
 4519 1a48 E8000000 		call	__cxa_end_catch
 4519      00
 4520 1a4d 4889DF   		movq	%rbx, %rdi
 4521              	.LEHB187:
 4522 1a50 E8000000 		call	_Unwind_Resume
 4522      00
 4523              	.LEHE187:
 4524              	.L369:
 4525 1a55 4889C3   		movq	%rax, %rbx
 4526 1a58 E8000000 		call	__cxa_end_catch
 4526      00
 4527 1a5d 4889DF   		movq	%rbx, %rdi
 4528              	.LEHB188:
 4529 1a60 E8000000 		call	_Unwind_Resume
 4529      00
 4530              	.LEHE188:
 4531              		.cfi_endproc
 4532              	.LFE1176:
 4533              		.section	.gcc_except_table
 4534              		.align 4
 4535              	.LLSDA1176:
 4536 0354 FF       		.byte	0xff
 4537 0355 03       		.byte	0x3
 4538 0356 FC01     		.uleb128 .LLSDATT1176-.LLSDATTD1176
 4539              	.LLSDATTD1176:
 4540 0358 01       		.byte	0x1
 4541 0359 F101     		.uleb128 .LLSDACSE1176-.LLSDACSB1176
 4542              	.LLSDACSB1176:
 4543 035b 5A       		.uleb128 .LEHB145-.LFB1176
 4544 035c 05       		.uleb128 .LEHE145-.LEHB145
 4545 035d 00       		.uleb128 0
 4546 035e 00       		.uleb128 0
 4547 035f 63       		.uleb128 .LEHB146-.LFB1176
 4548 0360 45       		.uleb128 .LEHE146-.LEHB146
 4549 0361 A910     		.uleb128 .L362-.LFB1176
 4550 0363 01       		.uleb128 0x1
 4551 0364 B601     		.uleb128 .LEHB147-.LFB1176
 4552 0366 05       		.uleb128 .LEHE147-.LEHB147
 4553 0367 00       		.uleb128 0
 4554 0368 00       		.uleb128 0
 4555 0369 BF01     		.uleb128 .LEHB148-.LFB1176
 4556 036b 3D       		.uleb128 .LEHE148-.LEHB148
 4557 036c AD11     		.uleb128 .L364-.LFB1176
 4558 036e 01       		.uleb128 0x1
 4559 036f 9F02     		.uleb128 .LEHB149-.LFB1176
 4560 0371 05       		.uleb128 .LEHE149-.LEHB149
 4561 0372 00       		.uleb128 0
 4562 0373 00       		.uleb128 0
 4563 0374 A802     		.uleb128 .LEHB150-.LFB1176
 4564 0376 3D       		.uleb128 .LEHE150-.LEHB150
 4565 0377 A90F     		.uleb128 .L366-.LFB1176
 4566 0379 01       		.uleb128 0x1
 4567 037a E502     		.uleb128 .LEHB151-.LFB1176
 4568 037c 3D       		.uleb128 .LEHE151-.LEHB151
 4569 037d E911     		.uleb128 .L368-.LFB1176
 4570 037f 01       		.uleb128 0x1
 4571 0380 A203     		.uleb128 .LEHB152-.LFB1176
 4572 0382 3E       		.uleb128 .LEHE152-.LEHB152
 4573 0383 E90F     		.uleb128 .L370-.LFB1176
 4574 0385 01       		.uleb128 0x1
 4575 0386 E003     		.uleb128 .LEHB153-.LFB1176
 4576 0388 3E       		.uleb128 .LEHE153-.LEHB153
 4577 0389 F110     		.uleb128 .L372-.LFB1176
 4578 038b 01       		.uleb128 0x1
 4579 038c 9E04     		.uleb128 .LEHB154-.LFB1176
 4580 038e 3E       		.uleb128 .LEHE154-.LEHB154
 4581 038f E80E     		.uleb128 .L374-.LFB1176
 4582 0391 01       		.uleb128 0x1
 4583 0392 DC04     		.uleb128 .LEHB155-.LFB1176
 4584 0394 3E       		.uleb128 .LEHE155-.LEHB155
 4585 0395 AC0E     		.uleb128 .L376-.LFB1176
 4586 0397 01       		.uleb128 0x1
 4587 0398 9A05     		.uleb128 .LEHB156-.LFB1176
 4588 039a 2E       		.uleb128 .LEHE156-.LEHB156
 4589 039b A70E     		.uleb128 .L378-.LFB1176
 4590 039d 01       		.uleb128 0x1
 4591 039e 9906     		.uleb128 .LEHB157-.LFB1176
 4592 03a0 0F       		.uleb128 .LEHE157-.LEHB157
 4593 03a1 00       		.uleb128 0
 4594 03a2 00       		.uleb128 0
 4595 03a3 CD07     		.uleb128 .LEHB158-.LFB1176
 4596 03a5 05       		.uleb128 .LEHE158-.LEHB158
 4597 03a6 980C     		.uleb128 .L381-.LFB1176
 4598 03a8 03       		.uleb128 0x3
 4599 03a9 FD08     		.uleb128 .LEHB159-.LFB1176
 4600 03ab 05       		.uleb128 .LEHE159-.LEHB159
 4601 03ac F70C     		.uleb128 .L382-.LFB1176
 4602 03ae 03       		.uleb128 0x3
 4603 03af B309     		.uleb128 .LEHB160-.LFB1176
 4604 03b1 BC01     		.uleb128 .LEHE160-.LEHB160
 4605 03b3 910D     		.uleb128 .L380-.LFB1176
 4606 03b5 03       		.uleb128 0x3
 4607 03b6 8E0C     		.uleb128 .LEHB161-.LFB1176
 4608 03b8 05       		.uleb128 .LEHE161-.LEHB161
 4609 03b9 A70E     		.uleb128 .L378-.LFB1176
 4610 03bb 01       		.uleb128 0x1
 4611 03bc BB0C     		.uleb128 .LEHB162-.LFB1176
 4612 03be 32       		.uleb128 .LEHE162-.LEHB162
 4613 03bf A10D     		.uleb128 .L379-.LFB1176
 4614 03c1 00       		.uleb128 0
 4615 03c2 ED0C     		.uleb128 .LEHB163-.LFB1176
 4616 03c4 05       		.uleb128 .LEHE163-.LEHB163
 4617 03c5 00       		.uleb128 0
 4618 03c6 00       		.uleb128 0
 4619 03c7 AC0D     		.uleb128 .LEHB164-.LFB1176
 4620 03c9 05       		.uleb128 .LEHE164-.LEHB164
 4621 03ca 00       		.uleb128 0
 4622 03cb 00       		.uleb128 0
 4623 03cc B40E     		.uleb128 .LEHB165-.LFB1176
 4624 03ce 2A       		.uleb128 .LEHE165-.LEHB165
 4625 03cf B512     		.uleb128 .L377-.LFB1176
 4626 03d1 00       		.uleb128 0
 4627 03d2 DE0E     		.uleb128 .LEHB166-.LFB1176
 4628 03d4 05       		.uleb128 .LEHE166-.LEHB166
 4629 03d5 00       		.uleb128 0
 4630 03d6 00       		.uleb128 0
 4631 03d7 F50E     		.uleb128 .LEHB167-.LFB1176
 4632 03d9 2A       		.uleb128 .LEHE167-.LEHB167
 4633 03da F512     		.uleb128 .L375-.LFB1176
 4634 03dc 00       		.uleb128 0
 4635 03dd 9F0F     		.uleb128 .LEHB168-.LFB1176
 4636 03df 05       		.uleb128 .LEHE168-.LEHB168
 4637 03e0 00       		.uleb128 0
 4638 03e1 00       		.uleb128 0
 4639 03e2 B50F     		.uleb128 .LEHB169-.LFB1176
 4640 03e4 2A       		.uleb128 .LEHE169-.LEHB169
 4641 03e5 D512     		.uleb128 .L367-.LFB1176
 4642 03e7 00       		.uleb128 0
 4643 03e8 DF0F     		.uleb128 .LEHB170-.LFB1176
 4644 03ea 05       		.uleb128 .LEHE170-.LEHB170
 4645 03eb 00       		.uleb128 0
 4646 03ec 00       		.uleb128 0
 4647 03ed F50F     		.uleb128 .LEHB171-.LFB1176
 4648 03ef 2A       		.uleb128 .LEHE171-.LEHB171
 4649 03f0 9513     		.uleb128 .L371-.LFB1176
 4650 03f2 00       		.uleb128 0
 4651 03f3 9F10     		.uleb128 .LEHB172-.LFB1176
 4652 03f5 05       		.uleb128 .LEHE172-.LEHB172
 4653 03f6 00       		.uleb128 0
 4654 03f7 00       		.uleb128 0
 4655 03f8 B510     		.uleb128 .LEHB173-.LFB1176
 4656 03fa 32       		.uleb128 .LEHE173-.LEHB173
 4657 03fb C512     		.uleb128 .L363-.LFB1176
 4658 03fd 00       		.uleb128 0
 4659 03fe E710     		.uleb128 .LEHB174-.LFB1176
 4660 0400 05       		.uleb128 .LEHE174-.LEHB174
 4661 0401 00       		.uleb128 0
 4662 0402 00       		.uleb128 0
 4663 0403 F910     		.uleb128 .LEHB175-.LFB1176
 4664 0405 2A       		.uleb128 .LEHE175-.LEHB175
 4665 0406 8513     		.uleb128 .L373-.LFB1176
 4666 0408 00       		.uleb128 0
 4667 0409 A311     		.uleb128 .LEHB176-.LFB1176
 4668 040b 05       		.uleb128 .LEHE176-.LEHB176
 4669 040c 00       		.uleb128 0
 4670 040d 00       		.uleb128 0
 4671 040e B511     		.uleb128 .LEHB177-.LFB1176
 4672 0410 2A       		.uleb128 .LEHE177-.LEHB177
 4673 0411 E512     		.uleb128 .L365-.LFB1176
 4674 0413 00       		.uleb128 0
 4675 0414 DF11     		.uleb128 .LEHB178-.LFB1176
 4676 0416 05       		.uleb128 .LEHE178-.LEHB178
 4677 0417 00       		.uleb128 0
 4678 0418 00       		.uleb128 0
 4679 0419 F511     		.uleb128 .LEHB179-.LFB1176
 4680 041b 2A       		.uleb128 .LEHE179-.LEHB179
 4681 041c A513     		.uleb128 .L369-.LFB1176
 4682 041e 00       		.uleb128 0
 4683 041f 9F12     		.uleb128 .LEHB180-.LFB1176
 4684 0421 05       		.uleb128 .LEHE180-.LEHB180
 4685 0422 00       		.uleb128 0
 4686 0423 00       		.uleb128 0
 4687 0424 C012     		.uleb128 .LEHB181-.LFB1176
 4688 0426 05       		.uleb128 .LEHE181-.LEHB181
 4689 0427 00       		.uleb128 0
 4690 0428 00       		.uleb128 0
 4691 0429 D012     		.uleb128 .LEHB182-.LFB1176
 4692 042b 05       		.uleb128 .LEHE182-.LEHB182
 4693 042c 00       		.uleb128 0
 4694 042d 00       		.uleb128 0
 4695 042e E012     		.uleb128 .LEHB183-.LFB1176
 4696 0430 05       		.uleb128 .LEHE183-.LEHB183
 4697 0431 00       		.uleb128 0
 4698 0432 00       		.uleb128 0
 4699 0433 F012     		.uleb128 .LEHB184-.LFB1176
 4700 0435 05       		.uleb128 .LEHE184-.LEHB184
 4701 0436 00       		.uleb128 0
 4702 0437 00       		.uleb128 0
 4703 0438 8013     		.uleb128 .LEHB185-.LFB1176
 4704 043a 05       		.uleb128 .LEHE185-.LEHB185
 4705 043b 00       		.uleb128 0
 4706 043c 00       		.uleb128 0
 4707 043d 9013     		.uleb128 .LEHB186-.LFB1176
 4708 043f 05       		.uleb128 .LEHE186-.LEHB186
 4709 0440 00       		.uleb128 0
 4710 0441 00       		.uleb128 0
 4711 0442 A013     		.uleb128 .LEHB187-.LFB1176
 4712 0444 05       		.uleb128 .LEHE187-.LEHB187
 4713 0445 00       		.uleb128 0
 4714 0446 00       		.uleb128 0
 4715 0447 B013     		.uleb128 .LEHB188-.LFB1176
 4716 0449 05       		.uleb128 .LEHE188-.LEHB188
 4717 044a 00       		.uleb128 0
 4718 044b 00       		.uleb128 0
 4719              	.LLSDACSE1176:
 4720 044c 01       		.byte	0x1
 4721 044d 00       		.byte	0
 4722 044e 00       		.byte	0
 4723 044f 7D       		.byte	0x7d
 4724              		.align 4
 4725 0450 00000000 		.long	0
 4726              	
 4727              	.LLSDATT1176:
 4728              		.text
 4730              		.section	.text._ZN8UnitTest15CheckArrayEqualIPKcS2_EEvRNS_11TestResultsERKT_RKT0_iRKNS_11TestDetai
 4731              		.p2align 4,,15
 4732              		.weak	_ZN8UnitTest15CheckArrayEqualIPKcS2_EEvRNS_11TestResultsERKT_RKT0_iRKNS_11TestDetailsE
 4734              	_ZN8UnitTest15CheckArrayEqualIPKcS2_EEvRNS_11TestResultsERKT_RKT0_iRKNS_11TestDetailsE:
 4735              	.LFB1279:
 4736              		.cfi_startproc
 4737              		.cfi_personality 0x3,__gxx_personality_v0
 4738              		.cfi_lsda 0x3,.LLSDA1279
 4739 0000 4157     		pushq	%r15
 4740              		.cfi_def_cfa_offset 16
 4741              		.cfi_offset 15, -16
 4742 0002 4156     		pushq	%r14
 4743              		.cfi_def_cfa_offset 24
 4744              		.cfi_offset 14, -24
 4745 0004 4155     		pushq	%r13
 4746              		.cfi_def_cfa_offset 32
 4747              		.cfi_offset 13, -32
 4748 0006 4154     		pushq	%r12
 4749              		.cfi_def_cfa_offset 40
 4750              		.cfi_offset 12, -40
 4751 0008 55       		pushq	%rbp
 4752              		.cfi_def_cfa_offset 48
 4753              		.cfi_offset 6, -48
 4754 0009 89CD     		movl	%ecx, %ebp
 4755 000b 53       		pushq	%rbx
 4756              		.cfi_def_cfa_offset 56
 4757              		.cfi_offset 3, -56
 4758 000c 4881EC98 		subq	$408, %rsp
 4758      010000
 4759              		.cfi_def_cfa_offset 464
 4760 0013 85C9     		testl	%ecx, %ecx
 4761 0015 7E31     		jle	.L394
 4762 0017 4989FD   		movq	%rdi, %r13
 4763 001a 4889F3   		movq	%rsi, %rbx
 4764 001d 4989D4   		movq	%rdx, %r12
 4765 0020 488B3E   		movq	(%rsi), %rdi
 4766 0023 4D89C6   		movq	%r8, %r14
 4767 0026 488B32   		movq	(%rdx), %rsi
 4768 0029 31C0     		xorl	%eax, %eax
 4769 002b BA010000 		movl	$1, %edx
 4769      00
 4770              		.p2align 4,,10
 4771              		.p2align 3
 4772              	.L397:
 4773 0030 0FB60C06 		movzbl	(%rsi,%rax), %ecx
 4774 0034 380C07   		cmpb	%cl, (%rdi,%rax)
 4775 0037 0F94C1   		sete	%cl
 4776 003a 4883C001 		addq	$1, %rax
 4777 003e 21CA     		andl	%ecx, %edx
 4778 0040 39C5     		cmpl	%eax, %ebp
 4779 0042 7FEC     		jg	.L397
 4780 0044 84D2     		testb	%dl, %dl
 4781 0046 7418     		je	.L427
 4782              	.L394:
 4783 0048 4881C498 		addq	$408, %rsp
 4783      010000
 4784              		.cfi_remember_state
 4785              		.cfi_def_cfa_offset 56
 4786 004f 5B       		popq	%rbx
 4787              		.cfi_def_cfa_offset 48
 4788 0050 5D       		popq	%rbp
 4789              		.cfi_def_cfa_offset 40
 4790 0051 415C     		popq	%r12
 4791              		.cfi_def_cfa_offset 32
 4792 0053 415D     		popq	%r13
 4793              		.cfi_def_cfa_offset 24
 4794 0055 415E     		popq	%r14
 4795              		.cfi_def_cfa_offset 16
 4796 0057 415F     		popq	%r15
 4797              		.cfi_def_cfa_offset 8
 4798 0059 C3       		ret
 4799 005a 660F1F44 		.p2align 4,,10
 4799      0000
 4800              		.p2align 3
 4801              	.L427:
 4802              		.cfi_restore_state
 4803 0060 4C8DBC24 		leaq	128(%rsp), %r15
 4803      80000000 
 4804 0068 4C89FF   		movq	%r15, %rdi
 4805 006b E8000000 		call	_ZNSt8ios_baseC2Ev
 4805      00
 4806 0070 31F6     		xorl	%esi, %esi
 4807 0072 4C89FF   		movq	%r15, %rdi
 4808 0075 48C78424 		movq	$0, 344(%rsp)
 4808      58010000 
 4808      00000000 
 4809 0081 C6842460 		movb	$0, 352(%rsp)
 4809      01000000 
 4810 0089 C6842461 		movb	$0, 353(%rsp)
 4810      01000000 
 4811 0091 48C78424 		movq	$0, 360(%rsp)
 4811      68010000 
 4811      00000000 
 4812 009d 48C78424 		movq	$0, 368(%rsp)
 4812      70010000 
 4812      00000000 
 4813 00a9 48C78424 		movq	$0, 376(%rsp)
 4813      78010000 
 4813      00000000 
 4814 00b5 48C78424 		movq	$0, 384(%rsp)
 4814      80010000 
 4814      00000000 
 4815 00c1 48C74424 		movq	$_ZTCN8UnitTest15MemoryOutStreamE0_So+24, 32(%rsp)
 4815      20000000 
 4815      00
 4816 00ca 48C78424 		movq	$_ZTCN8UnitTest15MemoryOutStreamE0_So+64, 128(%rsp)
 4816      80000000 
 4816      00000000 
 4817              	.LEHB189:
 4818 00d6 E8000000 		call	_ZNSt9basic_iosIcSt11char_traitsIcEE4initEPSt15basic_streambufIcS1_E
 4818      00
 4819              	.LEHE189:
 4820 00db 488D7C24 		leaq	96(%rsp), %rdi
 4820      60
 4821 00e0 48C74424 		movq	$_ZTCN8UnitTest15MemoryOutStreamE0_St19basic_ostringstreamIcSt11char_traitsIcESaIcEE+24, 32(%
 4821      20000000 
 4821      00
 4822 00e9 48C78424 		movq	$_ZTCN8UnitTest15MemoryOutStreamE0_St19basic_ostringstreamIcSt11char_traitsIcESaIcEE+64, 128(
 4822      80000000 
 4822      00000000 
 4823 00f5 48C74424 		movq	$_ZTVSt15basic_streambufIcSt11char_traitsIcEE+16, 40(%rsp)
 4823      28000000 
 4823      00
 4824 00fe 48C74424 		movq	$0, 48(%rsp)
 4824      30000000 
 4824      00
 4825 0107 48C74424 		movq	$0, 56(%rsp)
 4825      38000000 
 4825      00
 4826 0110 48C74424 		movq	$0, 64(%rsp)
 4826      40000000 
 4826      00
 4827 0119 48C74424 		movq	$0, 72(%rsp)
 4827      48000000 
 4827      00
 4828 0122 48C74424 		movq	$0, 80(%rsp)
 4828      50000000 
 4828      00
 4829 012b 48C74424 		movq	$0, 88(%rsp)
 4829      58000000 
 4829      00
 4830 0134 E8000000 		call	_ZNSt6localeC1Ev
 4830      00
 4831 0139 488B4424 		movq	32(%rsp), %rax
 4831      20
 4832 013e 488D7C24 		leaq	32(%rsp), %rdi
 4832      20
 4833 0143 488D7424 		leaq	40(%rsp), %rsi
 4833      28
 4834 0148 48C74424 		movq	$_ZTVSt15basic_stringbufIcSt11char_traitsIcESaIcEE+16, 40(%rsp)
 4834      28000000 
 4834      00
 4835 0151 C7442468 		movl	$16, 104(%rsp)
 4835      10000000 
 4836 0159 48C74424 		movq	$_ZNSs4_Rep20_S_empty_rep_storageE+24, 112(%rsp)
 4836      70000000 
 4836      00
 4837 0162 480378E8 		addq	-24(%rax), %rdi
 4838              	.LEHB190:
 4839 0166 E8000000 		call	_ZNSt9basic_iosIcSt11char_traitsIcEE4initEPSt15basic_streambufIcS1_E
 4839      00
 4840              	.LEHE190:
 4841 016b 488D7C24 		leaq	32(%rsp), %rdi
 4841      20
 4842 0170 BA0B0000 		movl	$11, %edx
 4842      00
 4843 0175 BE000000 		movl	$.LC26, %esi
 4843      00
 4844 017a 48C74424 		movq	$_ZTVN8UnitTest15MemoryOutStreamE+24, 32(%rsp)
 4844      20000000 
 4844      00
 4845 0183 48C78424 		movq	$_ZTVN8UnitTest15MemoryOutStreamE+64, 128(%rsp)
 4845      80000000 
 4845      00000000 
 4846 018f 48C74424 		movq	$_ZNSs4_Rep20_S_empty_rep_storageE+24, 120(%rsp)
 4846      78000000 
 4846      00
 4847              	.LEHB191:
 4848 0198 E8000000 		call	_ZSt16__ostream_insertIcSt11char_traitsIcEERSt13basic_ostreamIT_T0_ES6_PKS3_l
 4848      00
 4849 019d 83ED01   		subl	$1, %ebp
 4850 01a0 4531FF   		xorl	%r15d, %r15d
 4851 01a3 4883C501 		addq	$1, %rbp
 4852 01a7 660F1F84 		.p2align 4,,10
 4852      00000000 
 4852      00
 4853              		.p2align 3
 4854              	.L404:
 4855 01b0 488B03   		movq	(%rbx), %rax
 4856 01b3 488D7C24 		leaq	32(%rsp), %rdi
 4856      20
 4857 01b8 BA010000 		movl	$1, %edx
 4857      00
 4858 01bd 4889E6   		movq	%rsp, %rsi
 4859 01c0 420FB604 		movzbl	(%rax,%r15), %eax
 4859      38
 4860 01c5 880424   		movb	%al, (%rsp)
 4861 01c8 E8000000 		call	_ZSt16__ostream_insertIcSt11char_traitsIcEERSt13basic_ostreamIT_T0_ES6_PKS3_l
 4861      00
 4862 01cd BA010000 		movl	$1, %edx
 4862      00
 4863 01d2 BE000000 		movl	$.LC27, %esi
 4863      00
 4864 01d7 4889C7   		movq	%rax, %rdi
 4865 01da E8000000 		call	_ZSt16__ostream_insertIcSt11char_traitsIcEERSt13basic_ostreamIT_T0_ES6_PKS3_l
 4865      00
 4866 01df 4983C701 		addq	$1, %r15
 4867 01e3 4939EF   		cmpq	%rbp, %r15
 4868 01e6 75C8     		jne	.L404
 4869 01e8 488D7C24 		leaq	32(%rsp), %rdi
 4869      20
 4870 01ed BA0C0000 		movl	$12, %edx
 4870      00
 4871 01f2 BE000000 		movl	$.LC28, %esi
 4871      00
 4872 01f7 E8000000 		call	_ZSt16__ostream_insertIcSt11char_traitsIcEERSt13basic_ostreamIT_T0_ES6_PKS3_l
 4872      00
 4873 01fc 31DB     		xorl	%ebx, %ebx
 4874 01fe 6690     		.p2align 4,,10
 4875              		.p2align 3
 4876              	.L407:
 4877 0200 498B0424 		movq	(%r12), %rax
 4878 0204 488D7424 		leaq	16(%rsp), %rsi
 4878      10
 4879 0209 488D7C24 		leaq	32(%rsp), %rdi
 4879      20
 4880 020e BA010000 		movl	$1, %edx
 4880      00
 4881 0213 0FB60418 		movzbl	(%rax,%rbx), %eax
 4882 0217 88442410 		movb	%al, 16(%rsp)
 4883 021b E8000000 		call	_ZSt16__ostream_insertIcSt11char_traitsIcEERSt13basic_ostreamIT_T0_ES6_PKS3_l
 4883      00
 4884 0220 BA010000 		movl	$1, %edx
 4884      00
 4885 0225 BE000000 		movl	$.LC27, %esi
 4885      00
 4886 022a 4889C7   		movq	%rax, %rdi
 4887 022d E8000000 		call	_ZSt16__ostream_insertIcSt11char_traitsIcEERSt13basic_ostreamIT_T0_ES6_PKS3_l
 4887      00
 4888 0232 4883C301 		addq	$1, %rbx
 4889 0236 4839EB   		cmpq	%rbp, %rbx
 4890 0239 75C5     		jne	.L407
 4891 023b 488D7C24 		leaq	32(%rsp), %rdi
 4891      20
 4892 0240 BA010000 		movl	$1, %edx
 4892      00
 4893 0245 BE000000 		movl	$.LC29, %esi
 4893      00
 4894 024a E8000000 		call	_ZSt16__ostream_insertIcSt11char_traitsIcEERSt13basic_ostreamIT_T0_ES6_PKS3_l
 4894      00
 4895 024f 488D7C24 		leaq	32(%rsp), %rdi
 4895      20
 4896 0254 E8000000 		call	_ZNK8UnitTest15MemoryOutStream7GetTextEv
 4896      00
 4897 0259 4889C2   		movq	%rax, %rdx
 4898 025c 4C89F6   		movq	%r14, %rsi
 4899 025f 4C89EF   		movq	%r13, %rdi
 4900 0262 E8000000 		call	_ZN8UnitTest11TestResults13OnTestFailureERKNS_11TestDetailsEPKc
 4900      00
 4901              	.LEHE191:
 4902 0267 488B4424 		movq	120(%rsp), %rax
 4902      78
 4903 026c 48C74424 		movq	$_ZTVN8UnitTest15MemoryOutStreamE+24, 32(%rsp)
 4903      20000000 
 4903      00
 4904 0275 48C78424 		movq	$_ZTVN8UnitTest15MemoryOutStreamE+64, 128(%rsp)
 4904      80000000 
 4904      00000000 
 4905 0281 488D78E8 		leaq	-24(%rax), %rdi
 4906 0285 4881FF00 		cmpq	$_ZNSs4_Rep20_S_empty_rep_storageE, %rdi
 4906      000000
 4907 028c 0F85BF00 		jne	.L428
 4907      0000
 4908              	.L409:
 4909 0292 488B4424 		movq	112(%rsp), %rax
 4909      70
 4910 0297 48C74424 		movq	$_ZTCN8UnitTest15MemoryOutStreamE0_St19basic_ostringstreamIcSt11char_traitsIcESaIcEE+24, 32(%
 4910      20000000 
 4910      00
 4911 02a0 48C78424 		movq	$_ZTCN8UnitTest15MemoryOutStreamE0_St19basic_ostringstreamIcSt11char_traitsIcESaIcEE+64, 128(
 4911      80000000 
 4911      00000000 
 4912 02ac 48C74424 		movq	$_ZTVSt15basic_stringbufIcSt11char_traitsIcESaIcEE+16, 40(%rsp)
 4912      28000000 
 4912      00
 4913 02b5 488D78E8 		leaq	-24(%rax), %rdi
 4914 02b9 4881FF00 		cmpq	$_ZNSs4_Rep20_S_empty_rep_storageE, %rdi
 4914      000000
 4915 02c0 0F85B900 		jne	.L429
 4915      0000
 4916              	.L414:
 4917 02c6 488D7C24 		leaq	96(%rsp), %rdi
 4917      60
 4918 02cb 48C74424 		movq	$_ZTVSt15basic_streambufIcSt11char_traitsIcEE+16, 40(%rsp)
 4918      28000000 
 4918      00
 4919 02d4 E8000000 		call	_ZNSt6localeD1Ev
 4919      00
 4920 02d9 488DBC24 		leaq	128(%rsp), %rdi
 4920      80000000 
 4921 02e1 48C74424 		movq	$_ZTCN8UnitTest15MemoryOutStreamE0_So+24, 32(%rsp)
 4921      20000000 
 4921      00
 4922 02ea 48C78424 		movq	$_ZTVSt9basic_iosIcSt11char_traitsIcEE+16, 128(%rsp)
 4922      80000000 
 4922      00000000 
 4923              	.LEHB192:
 4924 02f6 E8000000 		call	_ZNSt8ios_baseD2Ev
 4924      00
 4925              	.LEHE192:
 4926 02fb E948FDFF 		jmp	.L394
 4926      FF
 4927              	.L420:
 4928 0300 4889C3   		movq	%rax, %rbx
 4929              	.L400:
 4930 0303 488DBC24 		leaq	128(%rsp), %rdi
 4930      80000000 
 4931 030b 48C78424 		movq	$_ZTVSt9basic_iosIcSt11char_traitsIcEE+16, 128(%rsp)
 4931      80000000 
 4931      00000000 
 4932 0317 E8000000 		call	_ZNSt8ios_baseD2Ev
 4932      00
 4933 031c 4889DF   		movq	%rbx, %rdi
 4934              	.LEHB193:
 4935 031f E8000000 		call	_Unwind_Resume
 4935      00
 4936              	.LEHE193:
 4937              	.L421:
 4938 0324 488D7C24 		leaq	40(%rsp), %rdi
 4938      28
 4939 0329 4889C3   		movq	%rax, %rbx
 4940 032c E8000000 		call	_ZNSt15basic_stringbufIcSt11char_traitsIcESaIcEED1Ev
 4940      00
 4941 0331 48C74424 		movq	$_ZTCN8UnitTest15MemoryOutStreamE0_So+24, 32(%rsp)
 4941      20000000 
 4941      00
 4942 033a EBC7     		jmp	.L400
 4943              	.L419:
 4944 033c 488D7C24 		leaq	32(%rsp), %rdi
 4944      20
 4945 0341 4889C3   		movq	%rax, %rbx
 4946 0344 E8000000 		call	_ZN8UnitTest15MemoryOutStreamD1Ev
 4946      00
 4947 0349 4889DF   		movq	%rbx, %rdi
 4948              	.LEHB194:
 4949 034c E8000000 		call	_Unwind_Resume
 4949      00
 4950              	.LEHE194:
 4951              	.L428:
 4952 0351 B9000000 		movl	$_ZL28__gthrw___pthread_key_createPjPFvPvE, %ecx
 4952      00
 4953 0356 488D5710 		leaq	16(%rdi), %rdx
 4954 035a 4885C9   		testq	%rcx, %rcx
 4955 035d 744E     		je	.L410
 4956 035f B8FFFFFF 		movl	$-1, %eax
 4956      FF
 4957 0364 F00FC102 		lock xaddl	%eax, (%rdx)
 4958              	.L411:
 4959 0368 85C0     		testl	%eax, %eax
 4960 036a 0F8F22FF 		jg	.L409
 4960      FFFF
 4961 0370 488D7424 		leaq	31(%rsp), %rsi
 4961      1F
 4962 0375 E8000000 		call	_ZNSs4_Rep10_M_destroyERKSaIcE
 4962      00
 4963 037a E913FFFF 		jmp	.L409
 4963      FF
 4964              	.L429:
 4965 037f B9000000 		movl	$_ZL28__gthrw___pthread_key_createPjPFvPvE, %ecx
 4965      00
 4966 0384 488D5710 		leaq	16(%rdi), %rdx
 4967 0388 4885C9   		testq	%rcx, %rcx
 4968 038b 742D     		je	.L415
 4969 038d B8FFFFFF 		movl	$-1, %eax
 4969      FF
 4970 0392 F00FC102 		lock xaddl	%eax, (%rdx)
 4971              	.L416:
 4972 0396 85C0     		testl	%eax, %eax
 4973 0398 0F8F28FF 		jg	.L414
 4973      FFFF
 4974 039e 488D7424 		leaq	31(%rsp), %rsi
 4974      1F
 4975 03a3 E8000000 		call	_ZNSs4_Rep10_M_destroyERKSaIcE
 4975      00
 4976 03a8 E919FFFF 		jmp	.L414
 4976      FF
 4977              	.L410:
 4978 03ad 8B50F8   		movl	-8(%rax), %edx
 4979 03b0 8D4AFF   		leal	-1(%rdx), %ecx
 4980 03b3 8948F8   		movl	%ecx, -8(%rax)
 4981 03b6 89D0     		movl	%edx, %eax
 4982 03b8 EBAE     		jmp	.L411
 4983              	.L415:
 4984 03ba 8B50F8   		movl	-8(%rax), %edx
 4985 03bd 8D4AFF   		leal	-1(%rdx), %ecx
 4986 03c0 8948F8   		movl	%ecx, -8(%rax)
 4987 03c3 89D0     		movl	%edx, %eax
 4988 03c5 EBCF     		jmp	.L416
 4989              		.cfi_endproc
 4990              	.LFE1279:
 4991              		.section	.gcc_except_table
 4992              	.LLSDA1279:
 4993 0454 FF       		.byte	0xff
 4994 0455 FF       		.byte	0xff
 4995 0456 01       		.byte	0x1
 4996 0457 22       		.uleb128 .LLSDACSE1279-.LLSDACSB1279
 4997              	.LLSDACSB1279:
 4998 0458 D601     		.uleb128 .LEHB189-.LFB1279
 4999 045a 05       		.uleb128 .LEHE189-.LEHB189
 5000 045b 8006     		.uleb128 .L420-.LFB1279
 5001 045d 00       		.uleb128 0
 5002 045e E602     		.uleb128 .LEHB190-.LFB1279
 5003 0460 05       		.uleb128 .LEHE190-.LEHB190
 5004 0461 A406     		.uleb128 .L421-.LFB1279
 5005 0463 00       		.uleb128 0
 5006 0464 9803     		.uleb128 .LEHB191-.LFB1279
 5007 0466 CF01     		.uleb128 .LEHE191-.LEHB191
 5008 0468 BC06     		.uleb128 .L419-.LFB1279
 5009 046a 00       		.uleb128 0
 5010 046b F605     		.uleb128 .LEHB192-.LFB1279
 5011 046d 05       		.uleb128 .LEHE192-.LEHB192
 5012 046e 00       		.uleb128 0
 5013 046f 00       		.uleb128 0
 5014 0470 9F06     		.uleb128 .LEHB193-.LFB1279
 5015 0472 05       		.uleb128 .LEHE193-.LEHB193
 5016 0473 00       		.uleb128 0
 5017 0474 00       		.uleb128 0
 5018 0475 CC06     		.uleb128 .LEHB194-.LFB1279
 5019 0477 05       		.uleb128 .LEHE194-.LEHB194
 5020 0478 00       		.uleb128 0
 5021 0479 00       		.uleb128 0
 5022              	.LLSDACSE1279:
 5023              		.section	.text._ZN8UnitTest15CheckArrayEqualIPKcS2_EEvRNS_11TestResultsERKT_RKT0_iRKNS_11TestDetai
 5025              		.section	.text._ZN8UnitTest15CheckArrayEqualIPhS1_EEvRNS_11TestResultsERKT_RKT0_iRKNS_11TestDetail
 5026              		.p2align 4,,15
 5027              		.weak	_ZN8UnitTest15CheckArrayEqualIPhS1_EEvRNS_11TestResultsERKT_RKT0_iRKNS_11TestDetailsE
 5029              	_ZN8UnitTest15CheckArrayEqualIPhS1_EEvRNS_11TestResultsERKT_RKT0_iRKNS_11TestDetailsE:
 5030              	.LFB1280:
 5031              		.cfi_startproc
 5032              		.cfi_personality 0x3,__gxx_personality_v0
 5033              		.cfi_lsda 0x3,.LLSDA1280
 5034 0000 4157     		pushq	%r15
 5035              		.cfi_def_cfa_offset 16
 5036              		.cfi_offset 15, -16
 5037 0002 4156     		pushq	%r14
 5038              		.cfi_def_cfa_offset 24
 5039              		.cfi_offset 14, -24
 5040 0004 4155     		pushq	%r13
 5041              		.cfi_def_cfa_offset 32
 5042              		.cfi_offset 13, -32
 5043 0006 4154     		pushq	%r12
 5044              		.cfi_def_cfa_offset 40
 5045              		.cfi_offset 12, -40
 5046 0008 55       		pushq	%rbp
 5047              		.cfi_def_cfa_offset 48
 5048              		.cfi_offset 6, -48
 5049 0009 89CD     		movl	%ecx, %ebp
 5050 000b 53       		pushq	%rbx
 5051              		.cfi_def_cfa_offset 56
 5052              		.cfi_offset 3, -56
 5053 000c 4881EC98 		subq	$408, %rsp
 5053      010000
 5054              		.cfi_def_cfa_offset 464
 5055 0013 85C9     		testl	%ecx, %ecx
 5056 0015 7E31     		jle	.L430
 5057 0017 4989FD   		movq	%rdi, %r13
 5058 001a 4889F3   		movq	%rsi, %rbx
 5059 001d 4989D4   		movq	%rdx, %r12
 5060 0020 488B3E   		movq	(%rsi), %rdi
 5061 0023 4D89C6   		movq	%r8, %r14
 5062 0026 488B32   		movq	(%rdx), %rsi
 5063 0029 31C0     		xorl	%eax, %eax
 5064 002b BA010000 		movl	$1, %edx
 5064      00
 5065              		.p2align 4,,10
 5066              		.p2align 3
 5067              	.L433:
 5068 0030 0FB60C06 		movzbl	(%rsi,%rax), %ecx
 5069 0034 380C07   		cmpb	%cl, (%rdi,%rax)
 5070 0037 0F94C1   		sete	%cl
 5071 003a 4883C001 		addq	$1, %rax
 5072 003e 21CA     		andl	%ecx, %edx
 5073 0040 39C5     		cmpl	%eax, %ebp
 5074 0042 7FEC     		jg	.L433
 5075 0044 84D2     		testb	%dl, %dl
 5076 0046 7418     		je	.L463
 5077              	.L430:
 5078 0048 4881C498 		addq	$408, %rsp
 5078      010000
 5079              		.cfi_remember_state
 5080              		.cfi_def_cfa_offset 56
 5081 004f 5B       		popq	%rbx
 5082              		.cfi_def_cfa_offset 48
 5083 0050 5D       		popq	%rbp
 5084              		.cfi_def_cfa_offset 40
 5085 0051 415C     		popq	%r12
 5086              		.cfi_def_cfa_offset 32
 5087 0053 415D     		popq	%r13
 5088              		.cfi_def_cfa_offset 24
 5089 0055 415E     		popq	%r14
 5090              		.cfi_def_cfa_offset 16
 5091 0057 415F     		popq	%r15
 5092              		.cfi_def_cfa_offset 8
 5093 0059 C3       		ret
 5094 005a 660F1F44 		.p2align 4,,10
 5094      0000
 5095              		.p2align 3
 5096              	.L463:
 5097              		.cfi_restore_state
 5098 0060 4C8DBC24 		leaq	128(%rsp), %r15
 5098      80000000 
 5099 0068 4C89FF   		movq	%r15, %rdi
 5100 006b E8000000 		call	_ZNSt8ios_baseC2Ev
 5100      00
 5101 0070 31F6     		xorl	%esi, %esi
 5102 0072 4C89FF   		movq	%r15, %rdi
 5103 0075 48C78424 		movq	$0, 344(%rsp)
 5103      58010000 
 5103      00000000 
 5104 0081 C6842460 		movb	$0, 352(%rsp)
 5104      01000000 
 5105 0089 C6842461 		movb	$0, 353(%rsp)
 5105      01000000 
 5106 0091 48C78424 		movq	$0, 360(%rsp)
 5106      68010000 
 5106      00000000 
 5107 009d 48C78424 		movq	$0, 368(%rsp)
 5107      70010000 
 5107      00000000 
 5108 00a9 48C78424 		movq	$0, 376(%rsp)
 5108      78010000 
 5108      00000000 
 5109 00b5 48C78424 		movq	$0, 384(%rsp)
 5109      80010000 
 5109      00000000 
 5110 00c1 48C74424 		movq	$_ZTCN8UnitTest15MemoryOutStreamE0_So+24, 32(%rsp)
 5110      20000000 
 5110      00
 5111 00ca 48C78424 		movq	$_ZTCN8UnitTest15MemoryOutStreamE0_So+64, 128(%rsp)
 5111      80000000 
 5111      00000000 
 5112              	.LEHB195:
 5113 00d6 E8000000 		call	_ZNSt9basic_iosIcSt11char_traitsIcEE4initEPSt15basic_streambufIcS1_E
 5113      00
 5114              	.LEHE195:
 5115 00db 488D7C24 		leaq	96(%rsp), %rdi
 5115      60
 5116 00e0 48C74424 		movq	$_ZTCN8UnitTest15MemoryOutStreamE0_St19basic_ostringstreamIcSt11char_traitsIcESaIcEE+24, 32(%
 5116      20000000 
 5116      00
 5117 00e9 48C78424 		movq	$_ZTCN8UnitTest15MemoryOutStreamE0_St19basic_ostringstreamIcSt11char_traitsIcESaIcEE+64, 128(
 5117      80000000 
 5117      00000000 
 5118 00f5 48C74424 		movq	$_ZTVSt15basic_streambufIcSt11char_traitsIcEE+16, 40(%rsp)
 5118      28000000 
 5118      00
 5119 00fe 48C74424 		movq	$0, 48(%rsp)
 5119      30000000 
 5119      00
 5120 0107 48C74424 		movq	$0, 56(%rsp)
 5120      38000000 
 5120      00
 5121 0110 48C74424 		movq	$0, 64(%rsp)
 5121      40000000 
 5121      00
 5122 0119 48C74424 		movq	$0, 72(%rsp)
 5122      48000000 
 5122      00
 5123 0122 48C74424 		movq	$0, 80(%rsp)
 5123      50000000 
 5123      00
 5124 012b 48C74424 		movq	$0, 88(%rsp)
 5124      58000000 
 5124      00
 5125 0134 E8000000 		call	_ZNSt6localeC1Ev
 5125      00
 5126 0139 488B4424 		movq	32(%rsp), %rax
 5126      20
 5127 013e 488D7C24 		leaq	32(%rsp), %rdi
 5127      20
 5128 0143 488D7424 		leaq	40(%rsp), %rsi
 5128      28
 5129 0148 48C74424 		movq	$_ZTVSt15basic_stringbufIcSt11char_traitsIcESaIcEE+16, 40(%rsp)
 5129      28000000 
 5129      00
 5130 0151 C7442468 		movl	$16, 104(%rsp)
 5130      10000000 
 5131 0159 48C74424 		movq	$_ZNSs4_Rep20_S_empty_rep_storageE+24, 112(%rsp)
 5131      70000000 
 5131      00
 5132 0162 480378E8 		addq	-24(%rax), %rdi
 5133              	.LEHB196:
 5134 0166 E8000000 		call	_ZNSt9basic_iosIcSt11char_traitsIcEE4initEPSt15basic_streambufIcS1_E
 5134      00
 5135              	.LEHE196:
 5136 016b 488D7C24 		leaq	32(%rsp), %rdi
 5136      20
 5137 0170 BA0B0000 		movl	$11, %edx
 5137      00
 5138 0175 BE000000 		movl	$.LC26, %esi
 5138      00
 5139 017a 48C74424 		movq	$_ZTVN8UnitTest15MemoryOutStreamE+24, 32(%rsp)
 5139      20000000 
 5139      00
 5140 0183 48C78424 		movq	$_ZTVN8UnitTest15MemoryOutStreamE+64, 128(%rsp)
 5140      80000000 
 5140      00000000 
 5141 018f 48C74424 		movq	$_ZNSs4_Rep20_S_empty_rep_storageE+24, 120(%rsp)
 5141      78000000 
 5141      00
 5142              	.LEHB197:
 5143 0198 E8000000 		call	_ZSt16__ostream_insertIcSt11char_traitsIcEERSt13basic_ostreamIT_T0_ES6_PKS3_l
 5143      00
 5144 019d 83ED01   		subl	$1, %ebp
 5145 01a0 4531FF   		xorl	%r15d, %r15d
 5146 01a3 4883C501 		addq	$1, %rbp
 5147 01a7 660F1F84 		.p2align 4,,10
 5147      00000000 
 5147      00
 5148              		.p2align 3
 5149              	.L440:
 5150 01b0 488B03   		movq	(%rbx), %rax
 5151 01b3 488D7C24 		leaq	32(%rsp), %rdi
 5151      20
 5152 01b8 BA010000 		movl	$1, %edx
 5152      00
 5153 01bd 4889E6   		movq	%rsp, %rsi
 5154 01c0 420FB604 		movzbl	(%rax,%r15), %eax
 5154      38
 5155 01c5 880424   		movb	%al, (%rsp)
 5156 01c8 E8000000 		call	_ZSt16__ostream_insertIcSt11char_traitsIcEERSt13basic_ostreamIT_T0_ES6_PKS3_l
 5156      00
 5157 01cd BA010000 		movl	$1, %edx
 5157      00
 5158 01d2 BE000000 		movl	$.LC27, %esi
 5158      00
 5159 01d7 4889C7   		movq	%rax, %rdi
 5160 01da E8000000 		call	_ZSt16__ostream_insertIcSt11char_traitsIcEERSt13basic_ostreamIT_T0_ES6_PKS3_l
 5160      00
 5161 01df 4983C701 		addq	$1, %r15
 5162 01e3 4939EF   		cmpq	%rbp, %r15
 5163 01e6 75C8     		jne	.L440
 5164 01e8 488D7C24 		leaq	32(%rsp), %rdi
 5164      20
 5165 01ed BA0C0000 		movl	$12, %edx
 5165      00
 5166 01f2 BE000000 		movl	$.LC28, %esi
 5166      00
 5167 01f7 E8000000 		call	_ZSt16__ostream_insertIcSt11char_traitsIcEERSt13basic_ostreamIT_T0_ES6_PKS3_l
 5167      00
 5168 01fc 31DB     		xorl	%ebx, %ebx
 5169 01fe 6690     		.p2align 4,,10
 5170              		.p2align 3
 5171              	.L443:
 5172 0200 498B0424 		movq	(%r12), %rax
 5173 0204 488D7424 		leaq	16(%rsp), %rsi
 5173      10
 5174 0209 488D7C24 		leaq	32(%rsp), %rdi
 5174      20
 5175 020e BA010000 		movl	$1, %edx
 5175      00
 5176 0213 0FB60418 		movzbl	(%rax,%rbx), %eax
 5177 0217 88442410 		movb	%al, 16(%rsp)
 5178 021b E8000000 		call	_ZSt16__ostream_insertIcSt11char_traitsIcEERSt13basic_ostreamIT_T0_ES6_PKS3_l
 5178      00
 5179 0220 BA010000 		movl	$1, %edx
 5179      00
 5180 0225 BE000000 		movl	$.LC27, %esi
 5180      00
 5181 022a 4889C7   		movq	%rax, %rdi
 5182 022d E8000000 		call	_ZSt16__ostream_insertIcSt11char_traitsIcEERSt13basic_ostreamIT_T0_ES6_PKS3_l
 5182      00
 5183 0232 4883C301 		addq	$1, %rbx
 5184 0236 4839EB   		cmpq	%rbp, %rbx
 5185 0239 75C5     		jne	.L443
 5186 023b 488D7C24 		leaq	32(%rsp), %rdi
 5186      20
 5187 0240 BA010000 		movl	$1, %edx
 5187      00
 5188 0245 BE000000 		movl	$.LC29, %esi
 5188      00
 5189 024a E8000000 		call	_ZSt16__ostream_insertIcSt11char_traitsIcEERSt13basic_ostreamIT_T0_ES6_PKS3_l
 5189      00
 5190 024f 488D7C24 		leaq	32(%rsp), %rdi
 5190      20
 5191 0254 E8000000 		call	_ZNK8UnitTest15MemoryOutStream7GetTextEv
 5191      00
 5192 0259 4889C2   		movq	%rax, %rdx
 5193 025c 4C89F6   		movq	%r14, %rsi
 5194 025f 4C89EF   		movq	%r13, %rdi
 5195 0262 E8000000 		call	_ZN8UnitTest11TestResults13OnTestFailureERKNS_11TestDetailsEPKc
 5195      00
 5196              	.LEHE197:
 5197 0267 488B4424 		movq	120(%rsp), %rax
 5197      78
 5198 026c 48C74424 		movq	$_ZTVN8UnitTest15MemoryOutStreamE+24, 32(%rsp)
 5198      20000000 
