   1              		.file	"testBinIO.cpp"
   2              		.section	.text._ZN23TestBinIO_testWriteFileD2Ev,"axG",@progbits,_ZN23TestBinIO_testWriteFileD5Ev,c
   3              		.align 2
   4              		.p2align 4,,15
   5              		.weak	_ZN23TestBinIO_testWriteFileD2Ev
   7              	_ZN23TestBinIO_testWriteFileD2Ev:
   8              	.LFB1307:
   9              		.cfi_startproc
  10 0000 48C70700 		movq	$_ZTV23TestBinIO_testWriteFile+16, (%rdi)
  10      000000
  11 0007 E9000000 		jmp	_ZN8UnitTest4TestD2Ev
  11      00
  12              		.cfi_endproc
  13              	.LFE1307:
  15              		.weak	_ZN23TestBinIO_testWriteFileD1Ev
  16              		.set	_ZN23TestBinIO_testWriteFileD1Ev,_ZN23TestBinIO_testWriteFileD2Ev
  17              		.section	.text._ZN23TestBinIO_testWriteFileD0Ev,"axG",@progbits,_ZN23TestBinIO_testWriteFileD0Ev,c
  18              		.align 2
  19              		.p2align 4,,15
  20              		.weak	_ZN23TestBinIO_testWriteFileD0Ev
  22              	_ZN23TestBinIO_testWriteFileD0Ev:
  23              	.LFB1309:
  24              		.cfi_startproc
  25 0000 53       		pushq	%rbx
  26              		.cfi_def_cfa_offset 16
  27              		.cfi_offset 3, -16
  28 0001 4889FB   		movq	%rdi, %rbx
  29 0004 48C70700 		movq	$_ZTV23TestBinIO_testWriteFile+16, (%rdi)
  29      000000
  30 000b E8000000 		call	_ZN8UnitTest4TestD2Ev
  30      00
  31 0010 4889DF   		movq	%rbx, %rdi
  32 0013 5B       		popq	%rbx
  33              		.cfi_def_cfa_offset 8
  34 0014 E9000000 		jmp	_ZdlPv
  34      00
  35              		.cfi_endproc
  36              	.LFE1309:
  38              		.section	.text._ZN30TestBinIO_testReadExistingFileD2Ev,"axG",@progbits,_ZN30TestBinIO_testReadExis
  39              		.align 2
  40              		.p2align 4,,15
  41              		.weak	_ZN30TestBinIO_testReadExistingFileD2Ev
  43              	_ZN30TestBinIO_testReadExistingFileD2Ev:
  44              	.LFB1311:
  45              		.cfi_startproc
  46 0000 48C70700 		movq	$_ZTV30TestBinIO_testReadExistingFile+16, (%rdi)
  46      000000
  47 0007 E9000000 		jmp	_ZN8UnitTest4TestD2Ev
  47      00
  48              		.cfi_endproc
  49              	.LFE1311:
  51              		.weak	_ZN30TestBinIO_testReadExistingFileD1Ev
  52              		.set	_ZN30TestBinIO_testReadExistingFileD1Ev,_ZN30TestBinIO_testReadExistingFileD2Ev
  53              		.section	.text._ZN30TestBinIO_testReadExistingFileD0Ev,"axG",@progbits,_ZN30TestBinIO_testReadExis
  54              		.align 2
  55              		.p2align 4,,15
  56              		.weak	_ZN30TestBinIO_testReadExistingFileD0Ev
  58              	_ZN30TestBinIO_testReadExistingFileD0Ev:
  59              	.LFB1313:
  60              		.cfi_startproc
  61 0000 53       		pushq	%rbx
  62              		.cfi_def_cfa_offset 16
  63              		.cfi_offset 3, -16
  64 0001 4889FB   		movq	%rdi, %rbx
  65 0004 48C70700 		movq	$_ZTV30TestBinIO_testReadExistingFile+16, (%rdi)
  65      000000
  66 000b E8000000 		call	_ZN8UnitTest4TestD2Ev
  66      00
  67 0010 4889DF   		movq	%rbx, %rdi
  68 0013 5B       		popq	%rbx
  69              		.cfi_def_cfa_offset 8
  70 0014 E9000000 		jmp	_ZdlPv
  70      00
  71              		.cfi_endproc
  72              	.LFE1313:
  74              		.section	.text._ZN33TestBinIO_testReadNonExistentFileD2Ev,"axG",@progbits,_ZN33TestBinIO_testReadN
  75              		.align 2
  76              		.p2align 4,,15
  77              		.weak	_ZN33TestBinIO_testReadNonExistentFileD2Ev
  79              	_ZN33TestBinIO_testReadNonExistentFileD2Ev:
  80              	.LFB1315:
  81              		.cfi_startproc
  82 0000 48C70700 		movq	$_ZTV33TestBinIO_testReadNonExistentFile+16, (%rdi)
  82      000000
  83 0007 E9000000 		jmp	_ZN8UnitTest4TestD2Ev
  83      00
  84              		.cfi_endproc
  85              	.LFE1315:
  87              		.weak	_ZN33TestBinIO_testReadNonExistentFileD1Ev
  88              		.set	_ZN33TestBinIO_testReadNonExistentFileD1Ev,_ZN33TestBinIO_testReadNonExistentFileD2Ev
  89              		.section	.text._ZN33TestBinIO_testReadNonExistentFileD0Ev,"axG",@progbits,_ZN33TestBinIO_testReadN
  90              		.align 2
  91              		.p2align 4,,15
  92              		.weak	_ZN33TestBinIO_testReadNonExistentFileD0Ev
  94              	_ZN33TestBinIO_testReadNonExistentFileD0Ev:
  95              	.LFB1317:
  96              		.cfi_startproc
  97 0000 53       		pushq	%rbx
  98              		.cfi_def_cfa_offset 16
  99              		.cfi_offset 3, -16
 100 0001 4889FB   		movq	%rdi, %rbx
 101 0004 48C70700 		movq	$_ZTV33TestBinIO_testReadNonExistentFile+16, (%rdi)
 101      000000
 102 000b E8000000 		call	_ZN8UnitTest4TestD2Ev
 102      00
 103 0010 4889DF   		movq	%rbx, %rdi
 104 0013 5B       		popq	%rbx
 105              		.cfi_def_cfa_offset 8
 106 0014 E9000000 		jmp	_ZdlPv
 106      00
 107              		.cfi_endproc
 108              	.LFE1317:
 110              		.section	.text.unlikely,"ax",@progbits
 112              	_ZStlsISt11char_traitsIcEERSt13basic_ostreamIcT_ES5_PKc.part.1:
 113              	.LFB1321:
 114              		.cfi_startproc
 115 0000 50       		pushq	%rax
 116              		.cfi_def_cfa_offset 16
 117 0001 488B07   		movq	(%rdi), %rax
 118 0004 480378E8 		addq	-24(%rax), %rdi
 119 0008 8B7720   		movl	32(%rdi), %esi
 120 000b 83CE01   		orl	$1, %esi
 121 000e E8000000 		call	_ZNSt9basic_iosIcSt11char_traitsIcEE5clearESt12_Ios_Iostate
 121      00
 122 0013 5A       		popq	%rdx
 123              		.cfi_def_cfa_offset 8
 124 0014 C3       		ret
 125              		.cfi_endproc
 126              	.LFE1321:
 128              		.section	.text._ZNSt15basic_stringbufIcSt11char_traitsIcESaIcEED2Ev,"axG",@progbits,_ZNSt15basic_s
 129              		.align 2
 130              		.p2align 4,,15
 131              		.weak	_ZNSt15basic_stringbufIcSt11char_traitsIcESaIcEED2Ev
 133              	_ZNSt15basic_stringbufIcSt11char_traitsIcESaIcEED2Ev:
 134              	.LFB1194:
 135              		.cfi_startproc
 136 0000 53       		pushq	%rbx
 137              		.cfi_def_cfa_offset 16
 138              		.cfi_offset 3, -16
 139 0001 4889FB   		movq	%rdi, %rbx
 140 0004 4883EC10 		subq	$16, %rsp
 141              		.cfi_def_cfa_offset 32
 142 0008 488B4748 		movq	72(%rdi), %rax
 143 000c 48C70700 		movq	$_ZTVSt15basic_stringbufIcSt11char_traitsIcESaIcEE+16, (%rdi)
 143      000000
 144 0013 488D78E8 		leaq	-24(%rax), %rdi
 145 0017 4881FF00 		cmpq	$_ZNSs4_Rep20_S_empty_rep_storageE, %rdi
 145      000000
 146 001e 7516     		jne	.L20
 147              	.L14:
 148 0020 488D7B38 		leaq	56(%rbx), %rdi
 149 0024 48C70300 		movq	$_ZTVSt15basic_streambufIcSt11char_traitsIcEE+16, (%rbx)
 149      000000
 150 002b E8000000 		call	_ZNSt6localeD1Ev
 150      00
 151 0030 4883C410 		addq	$16, %rsp
 152              		.cfi_remember_state
 153              		.cfi_def_cfa_offset 16
 154 0034 5B       		popq	%rbx
 155              		.cfi_def_cfa_offset 8
 156 0035 C3       		ret
 157              	.L20:
 158              		.cfi_restore_state
 159 0036 B9000000 		movl	$_ZL28__gthrw___pthread_key_createPjPFvPvE, %ecx
 159      00
 160 003b 488D5710 		leaq	16(%rdi), %rdx
 161 003f 4885C9   		testq	%rcx, %rcx
 162 0042 7417     		je	.L15
 163 0044 83C8FF   		orl	$-1, %eax
 164 0047 F00FC102 		lock xaddl	%eax, (%rdx)
 165              	.L16:
 166 004b 85C0     		testl	%eax, %eax
 167 004d 7FD1     		jg	.L14
 168 004f 488D7424 		leaq	15(%rsp), %rsi
 168      0F
 169 0054 E8000000 		call	_ZNSs4_Rep10_M_destroyERKSaIcE
 169      00
 170 0059 EBC5     		jmp	.L14
 171              	.L15:
 172 005b 8B50F8   		movl	-8(%rax), %edx
 173 005e 8D4AFF   		leal	-1(%rdx), %ecx
 174 0061 8948F8   		movl	%ecx, -8(%rax)
 175 0064 89D0     		movl	%edx, %eax
 176 0066 EBE3     		jmp	.L16
 177              		.cfi_endproc
 178              	.LFE1194:
 180              		.weak	_ZNSt15basic_stringbufIcSt11char_traitsIcESaIcEED1Ev
 181              		.set	_ZNSt15basic_stringbufIcSt11char_traitsIcESaIcEED1Ev,_ZNSt15basic_stringbufIcSt11char_traitsI
 182              		.section	.text._ZNSt15basic_stringbufIcSt11char_traitsIcESaIcEED0Ev,"axG",@progbits,_ZNSt15basic_s
 183              		.align 2
 184              		.p2align 4,,15
 185              		.weak	_ZNSt15basic_stringbufIcSt11char_traitsIcESaIcEED0Ev
 187              	_ZNSt15basic_stringbufIcSt11char_traitsIcESaIcEED0Ev:
 188              	.LFB1196:
 189              		.cfi_startproc
 190 0000 53       		pushq	%rbx
 191              		.cfi_def_cfa_offset 16
 192              		.cfi_offset 3, -16
 193 0001 4889FB   		movq	%rdi, %rbx
 194 0004 4883EC10 		subq	$16, %rsp
 195              		.cfi_def_cfa_offset 32
 196 0008 488B4748 		movq	72(%rdi), %rax
 197 000c 48C70700 		movq	$_ZTVSt15basic_stringbufIcSt11char_traitsIcESaIcEE+16, (%rdi)
 197      000000
 198 0013 488D78E8 		leaq	-24(%rax), %rdi
 199 0017 4881FF00 		cmpq	$_ZNSs4_Rep20_S_empty_rep_storageE, %rdi
 199      000000
 200 001e 751E     		jne	.L28
 201              	.L23:
 202 0020 488D7B38 		leaq	56(%rbx), %rdi
 203 0024 48C70300 		movq	$_ZTVSt15basic_streambufIcSt11char_traitsIcEE+16, (%rbx)
 203      000000
 204 002b E8000000 		call	_ZNSt6localeD1Ev
 204      00
 205 0030 4889DF   		movq	%rbx, %rdi
 206 0033 E8000000 		call	_ZdlPv
 206      00
 207 0038 4883C410 		addq	$16, %rsp
 208              		.cfi_remember_state
 209              		.cfi_def_cfa_offset 16
 210 003c 5B       		popq	%rbx
 211              		.cfi_def_cfa_offset 8
 212 003d C3       		ret
 213              	.L28:
 214              		.cfi_restore_state
 215 003e B9000000 		movl	$_ZL28__gthrw___pthread_key_createPjPFvPvE, %ecx
 215      00
 216 0043 488D5710 		leaq	16(%rdi), %rdx
 217 0047 4885C9   		testq	%rcx, %rcx
 218 004a 7417     		je	.L24
 219 004c 83C8FF   		orl	$-1, %eax
 220 004f F00FC102 		lock xaddl	%eax, (%rdx)
 221              	.L25:
 222 0053 85C0     		testl	%eax, %eax
 223 0055 7FC9     		jg	.L23
 224 0057 488D7424 		leaq	15(%rsp), %rsi
 224      0F
 225 005c E8000000 		call	_ZNSs4_Rep10_M_destroyERKSaIcE
 225      00
 226 0061 EBBD     		jmp	.L23
 227              	.L24:
 228 0063 8B50F8   		movl	-8(%rax), %edx
 229 0066 8D4AFF   		leal	-1(%rdx), %ecx
 230 0069 8948F8   		movl	%ecx, -8(%rax)
 231 006c 89D0     		movl	%edx, %eax
 232 006e EBE3     		jmp	.L25
 233              		.cfi_endproc
 234              	.LFE1196:
 236              		.section	.text._ZN8UnitTest15MemoryOutStreamD1Ev,"axG",@progbits,_ZN8UnitTest15MemoryOutStreamD1Ev
 237              		.align 2
 238              		.p2align 4,,15
 239              		.weak	_ZN8UnitTest15MemoryOutStreamD1Ev
 241              	_ZN8UnitTest15MemoryOutStreamD1Ev:
 242              	.LFB1215:
 243              		.cfi_startproc
 244 0000 53       		pushq	%rbx
 245              		.cfi_def_cfa_offset 16
 246              		.cfi_offset 3, -16
 247 0001 4889FB   		movq	%rdi, %rbx
 248 0004 4883EC10 		subq	$16, %rsp
 249              		.cfi_def_cfa_offset 32
 250 0008 488B4758 		movq	88(%rdi), %rax
 251 000c 48C70700 		movq	$_ZTVN8UnitTest15MemoryOutStreamE+24, (%rdi)
 251      000000
 252 0013 48C74760 		movq	$_ZTVN8UnitTest15MemoryOutStreamE+64, 96(%rdi)
 252      00000000 
 253 001b 488D78E8 		leaq	-24(%rax), %rdi
 254 001f 4881FF00 		cmpq	$_ZNSs4_Rep20_S_empty_rep_storageE, %rdi
 254      000000
 255 0026 7557     		jne	.L41
 256              	.L31:
 257 0028 488B4350 		movq	80(%rbx), %rax
 258 002c 48C70300 		movq	$_ZTCN8UnitTest15MemoryOutStreamE0_St19basic_ostringstreamIcSt11char_traitsIcESaIcEE+24, (%rb
 258      000000
 259 0033 48C74360 		movq	$_ZTCN8UnitTest15MemoryOutStreamE0_St19basic_ostringstreamIcSt11char_traitsIcESaIcEE+64, 96(%
 259      00000000 
 260 003b 48C74308 		movq	$_ZTVSt15basic_stringbufIcSt11char_traitsIcESaIcEE+16, 8(%rbx)
 260      00000000 
 261 0043 488D78E8 		leaq	-24(%rax), %rdi
 262 0047 4881FF00 		cmpq	$_ZNSs4_Rep20_S_empty_rep_storageE, %rdi
 262      000000
 263 004e 7554     		jne	.L42
 264              	.L36:
 265 0050 488D7B40 		leaq	64(%rbx), %rdi
 266 0054 48C74308 		movq	$_ZTVSt15basic_streambufIcSt11char_traitsIcEE+16, 8(%rbx)
 266      00000000 
 267 005c E8000000 		call	_ZNSt6localeD1Ev
 267      00
 268 0061 488D7B60 		leaq	96(%rbx), %rdi
 269 0065 48C70300 		movq	$_ZTCN8UnitTest15MemoryOutStreamE0_So+24, (%rbx)
 269      000000
 270 006c 48C74360 		movq	$_ZTVSt9basic_iosIcSt11char_traitsIcEE+16, 96(%rbx)
 270      00000000 
 271 0074 E8000000 		call	_ZNSt8ios_baseD2Ev
 271      00
 272 0079 4883C410 		addq	$16, %rsp
 273              		.cfi_remember_state
 274              		.cfi_def_cfa_offset 16
 275 007d 5B       		popq	%rbx
 276              		.cfi_def_cfa_offset 8
 277 007e C3       		ret
 278              	.L41:
 279              		.cfi_restore_state
 280 007f B9000000 		movl	$_ZL28__gthrw___pthread_key_createPjPFvPvE, %ecx
 280      00
 281 0084 488D5710 		leaq	16(%rdi), %rdx
 282 0088 4885C9   		testq	%rcx, %rcx
 283 008b 743C     		je	.L32
 284 008d 83C8FF   		orl	$-1, %eax
 285 0090 F00FC102 		lock xaddl	%eax, (%rdx)
 286              	.L33:
 287 0094 85C0     		testl	%eax, %eax
 288 0096 7F90     		jg	.L31
 289 0098 488D7424 		leaq	15(%rsp), %rsi
 289      0F
 290 009d E8000000 		call	_ZNSs4_Rep10_M_destroyERKSaIcE
 290      00
 291 00a2 EB84     		jmp	.L31
 292              	.L42:
 293 00a4 B9000000 		movl	$_ZL28__gthrw___pthread_key_createPjPFvPvE, %ecx
 293      00
 294 00a9 488D5710 		leaq	16(%rdi), %rdx
 295 00ad 4885C9   		testq	%rcx, %rcx
 296 00b0 7424     		je	.L37
 297 00b2 83C8FF   		orl	$-1, %eax
 298 00b5 F00FC102 		lock xaddl	%eax, (%rdx)
 299              	.L38:
 300 00b9 85C0     		testl	%eax, %eax
 301 00bb 7F93     		jg	.L36
 302 00bd 488D7424 		leaq	15(%rsp), %rsi
 302      0F
 303 00c2 E8000000 		call	_ZNSs4_Rep10_M_destroyERKSaIcE
 303      00
 304 00c7 EB87     		jmp	.L36
 305              	.L32:
 306 00c9 8B50F8   		movl	-8(%rax), %edx
 307 00cc 8D4AFF   		leal	-1(%rdx), %ecx
 308 00cf 8948F8   		movl	%ecx, -8(%rax)
 309 00d2 89D0     		movl	%edx, %eax
 310 00d4 EBBE     		jmp	.L33
 311              	.L37:
 312 00d6 8B50F8   		movl	-8(%rax), %edx
 313 00d9 8D4AFF   		leal	-1(%rdx), %ecx
 314 00dc 8948F8   		movl	%ecx, -8(%rax)
 315 00df 89D0     		movl	%edx, %eax
 316 00e1 EBD6     		jmp	.L38
 317              		.cfi_endproc
 318              	.LFE1215:
 320              		.set	.LTHUNK0,_ZN8UnitTest15MemoryOutStreamD1Ev
 321 00e3 66666666 		.p2align 4,,15
 321      2E0F1F84 
 321      00000000 
 321      00
 322              		.weak	_ZTv0_n24_N8UnitTest15MemoryOutStreamD1Ev
 324              	_ZTv0_n24_N8UnitTest15MemoryOutStreamD1Ev:
 325              	.LFB1339:
 326              		.cfi_startproc
 327 00f0 4C8B17   		movq	(%rdi), %r10
 328 00f3 49037AE8 		addq	-24(%r10), %rdi
 329 00f7 E904FFFF 		jmp	.LTHUNK0
 329      FF
 330              		.cfi_endproc
 331              	.LFE1339:
 333              		.section	.text._ZN8UnitTest15MemoryOutStreamD0Ev,"axG",@progbits,_ZN8UnitTest15MemoryOutStreamD0Ev
 334              		.align 2
 335              		.p2align 4,,15
 336              		.weak	_ZN8UnitTest15MemoryOutStreamD0Ev
 338              	_ZN8UnitTest15MemoryOutStreamD0Ev:
 339              	.LFB1216:
 340              		.cfi_startproc
 341 0000 53       		pushq	%rbx
 342              		.cfi_def_cfa_offset 16
 343              		.cfi_offset 3, -16
 344 0001 4889FB   		movq	%rdi, %rbx
 345 0004 4883EC10 		subq	$16, %rsp
 346              		.cfi_def_cfa_offset 32
 347 0008 488B4758 		movq	88(%rdi), %rax
 348 000c 48C70700 		movq	$_ZTVN8UnitTest15MemoryOutStreamE+24, (%rdi)
 348      000000
 349 0013 48C74760 		movq	$_ZTVN8UnitTest15MemoryOutStreamE+64, 96(%rdi)
 349      00000000 
 350 001b 488D78E8 		leaq	-24(%rax), %rdi
 351 001f 4881FF00 		cmpq	$_ZNSs4_Rep20_S_empty_rep_storageE, %rdi
 351      000000
 352 0026 755F     		jne	.L55
 353              	.L45:
 354 0028 488B4350 		movq	80(%rbx), %rax
 355 002c 48C70300 		movq	$_ZTCN8UnitTest15MemoryOutStreamE0_St19basic_ostringstreamIcSt11char_traitsIcESaIcEE+24, (%rb
 355      000000
 356 0033 48C74360 		movq	$_ZTCN8UnitTest15MemoryOutStreamE0_St19basic_ostringstreamIcSt11char_traitsIcESaIcEE+64, 96(%
 356      00000000 
 357 003b 48C74308 		movq	$_ZTVSt15basic_stringbufIcSt11char_traitsIcESaIcEE+16, 8(%rbx)
 357      00000000 
 358 0043 488D78E8 		leaq	-24(%rax), %rdi
 359 0047 4881FF00 		cmpq	$_ZNSs4_Rep20_S_empty_rep_storageE, %rdi
 359      000000
 360 004e 755F     		jne	.L56
 361              	.L50:
 362 0050 488D7B40 		leaq	64(%rbx), %rdi
 363 0054 48C74308 		movq	$_ZTVSt15basic_streambufIcSt11char_traitsIcEE+16, 8(%rbx)
 363      00000000 
 364 005c E8000000 		call	_ZNSt6localeD1Ev
 364      00
 365 0061 488D7B60 		leaq	96(%rbx), %rdi
 366 0065 48C70300 		movq	$_ZTCN8UnitTest15MemoryOutStreamE0_So+24, (%rbx)
 366      000000
 367 006c 48C74360 		movq	$_ZTVSt9basic_iosIcSt11char_traitsIcEE+16, 96(%rbx)
 367      00000000 
 368 0074 E8000000 		call	_ZNSt8ios_baseD2Ev
 368      00
 369 0079 4889DF   		movq	%rbx, %rdi
 370 007c E8000000 		call	_ZdlPv
 370      00
 371 0081 4883C410 		addq	$16, %rsp
 372              		.cfi_remember_state
 373              		.cfi_def_cfa_offset 16
 374 0085 5B       		popq	%rbx
 375              		.cfi_def_cfa_offset 8
 376 0086 C3       		ret
 377              	.L55:
 378              		.cfi_restore_state
 379 0087 B9000000 		movl	$_ZL28__gthrw___pthread_key_createPjPFvPvE, %ecx
 379      00
 380 008c 488D5710 		leaq	16(%rdi), %rdx
 381 0090 4885C9   		testq	%rcx, %rcx
 382 0093 7442     		je	.L46
 383 0095 83C8FF   		orl	$-1, %eax
 384 0098 F00FC102 		lock xaddl	%eax, (%rdx)
 385              	.L47:
 386 009c 85C0     		testl	%eax, %eax
 387 009e 7F88     		jg	.L45
 388 00a0 488D7424 		leaq	15(%rsp), %rsi
 388      0F
 389 00a5 E8000000 		call	_ZNSs4_Rep10_M_destroyERKSaIcE
 389      00
 390 00aa E979FFFF 		jmp	.L45
 390      FF
 391              	.L56:
 392 00af B9000000 		movl	$_ZL28__gthrw___pthread_key_createPjPFvPvE, %ecx
 392      00
 393 00b4 488D5710 		leaq	16(%rdi), %rdx
 394 00b8 4885C9   		testq	%rcx, %rcx
 395 00bb 7427     		je	.L51
 396 00bd 83C8FF   		orl	$-1, %eax
 397 00c0 F00FC102 		lock xaddl	%eax, (%rdx)
 398              	.L52:
 399 00c4 85C0     		testl	%eax, %eax
 400 00c6 7F88     		jg	.L50
 401 00c8 488D7424 		leaq	15(%rsp), %rsi
 401      0F
 402 00cd E8000000 		call	_ZNSs4_Rep10_M_destroyERKSaIcE
 402      00
 403 00d2 E979FFFF 		jmp	.L50
 403      FF
 404              	.L46:
 405 00d7 8B50F8   		movl	-8(%rax), %edx
 406 00da 8D4AFF   		leal	-1(%rdx), %ecx
 407 00dd 8948F8   		movl	%ecx, -8(%rax)
 408 00e0 89D0     		movl	%edx, %eax
 409 00e2 EBB8     		jmp	.L47
 410              	.L51:
 411 00e4 8B50F8   		movl	-8(%rax), %edx
 412 00e7 8D4AFF   		leal	-1(%rdx), %ecx
 413 00ea 8948F8   		movl	%ecx, -8(%rax)
 414 00ed 89D0     		movl	%edx, %eax
 415 00ef EBD3     		jmp	.L52
 416              		.cfi_endproc
 417              	.LFE1216:
 419              		.set	.LTHUNK1,_ZN8UnitTest15MemoryOutStreamD0Ev
 420 00f1 66666666 		.p2align 4,,15
 420      66662E0F 
 420      1F840000 
 420      000000
 421              		.weak	_ZTv0_n24_N8UnitTest15MemoryOutStreamD0Ev
 423              	_ZTv0_n24_N8UnitTest15MemoryOutStreamD0Ev:
 424              	.LFB1340:
 425              		.cfi_startproc
 426 0100 4C8B17   		movq	(%rdi), %r10
 427 0103 49037AE8 		addq	-24(%r10), %rdi
 428 0107 E9F4FEFF 		jmp	.LTHUNK1
 428      FF
 429              		.cfi_endproc
 430              	.LFE1340:
 432              		.section	.rodata.str1.1,"aMS",@progbits,1
 433              	.LC0:
 434 0000 45787065 		.string	"Expected "
 434      63746564 
 434      2000
 435              	.LC1:
 436 000a 20627574 		.string	" but was "
 436      20776173 
 436      2000
 437              		.section	.text._ZN8UnitTest10CheckEqualI12BufferStatusS1_EEvRNS_11TestResultsERKT_RKT0_RKNS_11Test
 438              		.p2align 4,,15
 439              		.weak	_ZN8UnitTest10CheckEqualI12BufferStatusS1_EEvRNS_11TestResultsERKT_RKT0_RKNS_11TestDetailsE
 441              	_ZN8UnitTest10CheckEqualI12BufferStatusS1_EEvRNS_11TestResultsERKT_RKT0_RKNS_11TestDetailsE:
 442              	.LFB1212:
 443              		.cfi_startproc
 444              		.cfi_personality 0x3,__gxx_personality_v0
 445              		.cfi_lsda 0x3,.LLSDA1212
 446 0000 4156     		pushq	%r14
 447              		.cfi_def_cfa_offset 16
 448              		.cfi_offset 14, -16
 449 0002 4155     		pushq	%r13
 450              		.cfi_def_cfa_offset 24
 451              		.cfi_offset 13, -24
 452 0004 4154     		pushq	%r12
 453              		.cfi_def_cfa_offset 32
 454              		.cfi_offset 12, -32
 455 0006 55       		pushq	%rbp
 456              		.cfi_def_cfa_offset 40
 457              		.cfi_offset 6, -40
 458 0007 4889D5   		movq	%rdx, %rbp
 459 000a 53       		pushq	%rbx
 460              		.cfi_def_cfa_offset 48
 461              		.cfi_offset 3, -48
 462 000b 4889F3   		movq	%rsi, %rbx
 463 000e 4881EC80 		subq	$384, %rsp
 463      010000
 464              		.cfi_def_cfa_offset 432
 465 0015 8B02     		movl	(%rdx), %eax
 466 0017 3906     		cmpl	%eax, (%rsi)
 467 0019 0F84FF01 		je	.L57
 467      0000
 468 001f 4C8D6424 		leaq	112(%rsp), %r12
 468      70
 469 0024 4989FD   		movq	%rdi, %r13
 470 0027 4989CE   		movq	%rcx, %r14
 471 002a 4C89E7   		movq	%r12, %rdi
 472 002d E8000000 		call	_ZNSt8ios_baseC2Ev
 472      00
 473 0032 31F6     		xorl	%esi, %esi
 474 0034 4C89E7   		movq	%r12, %rdi
 475 0037 48C78424 		movq	$0, 328(%rsp)
 475      48010000 
 475      00000000 
 476 0043 C6842450 		movb	$0, 336(%rsp)
 476      01000000 
 477 004b C6842451 		movb	$0, 337(%rsp)
 477      01000000 
 478 0053 48C78424 		movq	$0, 344(%rsp)
 478      58010000 
 478      00000000 
 479 005f 48C78424 		movq	$0, 352(%rsp)
 479      60010000 
 479      00000000 
 480 006b 48C78424 		movq	$0, 360(%rsp)
 480      68010000 
 480      00000000 
 481 0077 48C78424 		movq	$0, 368(%rsp)
 481      70010000 
 481      00000000 
 482 0083 48C74424 		movq	$_ZTCN8UnitTest15MemoryOutStreamE0_So+24, 16(%rsp)
 482      10000000 
 482      00
 483 008c 48C74424 		movq	$_ZTCN8UnitTest15MemoryOutStreamE0_So+64, 112(%rsp)
 483      70000000 
 483      00
 484              	.LEHB0:
 485 0095 E8000000 		call	_ZNSt9basic_iosIcSt11char_traitsIcEE4initEPSt15basic_streambufIcS1_E
 485      00
 486              	.LEHE0:
 487 009a 488D7C24 		leaq	80(%rsp), %rdi
 487      50
 488 009f 48C74424 		movq	$_ZTCN8UnitTest15MemoryOutStreamE0_St19basic_ostringstreamIcSt11char_traitsIcESaIcEE+24, 16(%
 488      10000000 
 488      00
 489 00a8 48C74424 		movq	$_ZTCN8UnitTest15MemoryOutStreamE0_St19basic_ostringstreamIcSt11char_traitsIcESaIcEE+64, 112(
 489      70000000 
 489      00
 490 00b1 48C74424 		movq	$_ZTVSt15basic_streambufIcSt11char_traitsIcEE+16, 24(%rsp)
 490      18000000 
 490      00
 491 00ba 48C74424 		movq	$0, 32(%rsp)
 491      20000000 
 491      00
 492 00c3 48C74424 		movq	$0, 40(%rsp)
 492      28000000 
 492      00
 493 00cc 48C74424 		movq	$0, 48(%rsp)
 493      30000000 
 493      00
 494 00d5 48C74424 		movq	$0, 56(%rsp)
 494      38000000 
 494      00
 495 00de 48C74424 		movq	$0, 64(%rsp)
 495      40000000 
 495      00
 496 00e7 48C74424 		movq	$0, 72(%rsp)
 496      48000000 
 496      00
 497 00f0 E8000000 		call	_ZNSt6localeC1Ev
 497      00
 498 00f5 488B4424 		movq	16(%rsp), %rax
 498      10
 499 00fa 488D7C24 		leaq	16(%rsp), %rdi
 499      10
 500 00ff 488D7424 		leaq	24(%rsp), %rsi
 500      18
 501 0104 48C74424 		movq	$_ZTVSt15basic_stringbufIcSt11char_traitsIcESaIcEE+16, 24(%rsp)
 501      18000000 
 501      00
 502 010d C7442458 		movl	$16, 88(%rsp)
 502      10000000 
 503 0115 48C74424 		movq	$_ZNSs4_Rep20_S_empty_rep_storageE+24, 96(%rsp)
 503      60000000 
 503      00
 504 011e 480378E8 		addq	-24(%rax), %rdi
 505              	.LEHB1:
 506 0122 E8000000 		call	_ZNSt9basic_iosIcSt11char_traitsIcEE4initEPSt15basic_streambufIcS1_E
 506      00
 507              	.LEHE1:
 508 0127 488D7C24 		leaq	16(%rsp), %rdi
 508      10
 509 012c BA090000 		movl	$9, %edx
 509      00
 510 0131 BE000000 		movl	$.LC0, %esi
 510      00
 511 0136 48C74424 		movq	$_ZTVN8UnitTest15MemoryOutStreamE+24, 16(%rsp)
 511      10000000 
 511      00
 512 013f 48C74424 		movq	$_ZTVN8UnitTest15MemoryOutStreamE+64, 112(%rsp)
 512      70000000 
 512      00
 513 0148 48C74424 		movq	$_ZNSs4_Rep20_S_empty_rep_storageE+24, 104(%rsp)
 513      68000000 
 513      00
 514 0151 8B6D00   		movl	0(%rbp), %ebp
 515 0154 8B1B     		movl	(%rbx), %ebx
 516              	.LEHB2:
 517 0156 E8000000 		call	_ZSt16__ostream_insertIcSt11char_traitsIcEERSt13basic_ostreamIT_T0_ES6_PKS3_l
 517      00
 518 015b 488D7C24 		leaq	16(%rsp), %rdi
 518      10
 519 0160 89DE     		movl	%ebx, %esi
 520 0162 E8000000 		call	_ZNSolsEi
 520      00
 521 0167 BA090000 		movl	$9, %edx
 521      00
 522 016c BE000000 		movl	$.LC1, %esi
 522      00
 523 0171 4889C7   		movq	%rax, %rdi
 524 0174 4889C3   		movq	%rax, %rbx
 525 0177 E8000000 		call	_ZSt16__ostream_insertIcSt11char_traitsIcEERSt13basic_ostreamIT_T0_ES6_PKS3_l
 525      00
 526 017c 89EE     		movl	%ebp, %esi
 527 017e 4889DF   		movq	%rbx, %rdi
 528 0181 E8000000 		call	_ZNSolsEi
 528      00
 529 0186 488D7C24 		leaq	16(%rsp), %rdi
 529      10
 530 018b E8000000 		call	_ZNK8UnitTest15MemoryOutStream7GetTextEv
 530      00
 531 0190 4889C2   		movq	%rax, %rdx
 532 0193 4C89F6   		movq	%r14, %rsi
 533 0196 4C89EF   		movq	%r13, %rdi
 534 0199 E8000000 		call	_ZN8UnitTest11TestResults13OnTestFailureERKNS_11TestDetailsEPKc
 534      00
 535              	.LEHE2:
 536 019e 488B4424 		movq	104(%rsp), %rax
 536      68
 537 01a3 48C74424 		movq	$_ZTVN8UnitTest15MemoryOutStreamE+24, 16(%rsp)
 537      10000000 
 537      00
 538 01ac 48C74424 		movq	$_ZTVN8UnitTest15MemoryOutStreamE+64, 112(%rsp)
 538      70000000 
 538      00
 539 01b5 488D78E8 		leaq	-24(%rax), %rdi
 540 01b9 4881FF00 		cmpq	$_ZNSs4_Rep20_S_empty_rep_storageE, %rdi
 540      000000
 541 01c0 756C     		jne	.L80
 542              	.L64:
 543 01c2 488B4424 		movq	96(%rsp), %rax
 543      60
 544 01c7 48C74424 		movq	$_ZTCN8UnitTest15MemoryOutStreamE0_St19basic_ostringstreamIcSt11char_traitsIcESaIcEE+24, 16(%
 544      10000000 
 544      00
 545 01d0 48C74424 		movq	$_ZTCN8UnitTest15MemoryOutStreamE0_St19basic_ostringstreamIcSt11char_traitsIcESaIcEE+64, 112(
 545      70000000 
 545      00
 546 01d9 48C74424 		movq	$_ZTVSt15basic_stringbufIcSt11char_traitsIcESaIcEE+16, 24(%rsp)
 546      18000000 
 546      00
 547 01e2 488D78E8 		leaq	-24(%rax), %rdi
 548 01e6 4881FF00 		cmpq	$_ZNSs4_Rep20_S_empty_rep_storageE, %rdi
 548      000000
 549 01ed 756B     		jne	.L81
 550              	.L69:
 551 01ef 488D7C24 		leaq	80(%rsp), %rdi
 551      50
 552 01f4 48C74424 		movq	$_ZTVSt15basic_streambufIcSt11char_traitsIcEE+16, 24(%rsp)
 552      18000000 
 552      00
 553 01fd E8000000 		call	_ZNSt6localeD1Ev
 553      00
 554 0202 488D7C24 		leaq	112(%rsp), %rdi
 554      70
 555 0207 48C74424 		movq	$_ZTCN8UnitTest15MemoryOutStreamE0_So+24, 16(%rsp)
 555      10000000 
 555      00
 556 0210 48C74424 		movq	$_ZTVSt9basic_iosIcSt11char_traitsIcEE+16, 112(%rsp)
 556      70000000 
 556      00
 557              	.LEHB3:
 558 0219 E8000000 		call	_ZNSt8ios_baseD2Ev
 558      00
 559              	.LEHE3:
 560              	.L57:
 561 021e 4881C480 		addq	$384, %rsp
 561      010000
 562              		.cfi_remember_state
 563              		.cfi_def_cfa_offset 48
 564 0225 5B       		popq	%rbx
 565              		.cfi_def_cfa_offset 40
 566 0226 5D       		popq	%rbp
 567              		.cfi_def_cfa_offset 32
 568 0227 415C     		popq	%r12
 569              		.cfi_def_cfa_offset 24
 570 0229 415D     		popq	%r13
 571              		.cfi_def_cfa_offset 16
 572 022b 415E     		popq	%r14
 573              		.cfi_def_cfa_offset 8
 574 022d C3       		ret
 575              	.L80:
 576              		.cfi_restore_state
 577 022e B9000000 		movl	$_ZL28__gthrw___pthread_key_createPjPFvPvE, %ecx
 577      00
 578 0233 488D5710 		leaq	16(%rdi), %rdx
 579 0237 4885C9   		testq	%rcx, %rcx
 580 023a 747D     		je	.L65
 581 023c 83C8FF   		orl	$-1, %eax
 582 023f F00FC102 		lock xaddl	%eax, (%rdx)
 583              	.L66:
 584 0243 85C0     		testl	%eax, %eax
 585 0245 0F8F77FF 		jg	.L64
 585      FFFF
 586 024b 488D7424 		leaq	15(%rsp), %rsi
 586      0F
 587 0250 E8000000 		call	_ZNSs4_Rep10_M_destroyERKSaIcE
 587      00
 588 0255 E968FFFF 		jmp	.L64
 588      FF
 589              	.L81:
 590 025a B9000000 		movl	$_ZL28__gthrw___pthread_key_createPjPFvPvE, %ecx
 590      00
 591 025f 488D5710 		leaq	16(%rdi), %rdx
 592 0263 4885C9   		testq	%rcx, %rcx
 593 0266 7479     		je	.L70
 594 0268 83C8FF   		orl	$-1, %eax
 595 026b F00FC102 		lock xaddl	%eax, (%rdx)
 596              	.L71:
 597 026f 85C0     		testl	%eax, %eax
 598 0271 0F8F78FF 		jg	.L69
 598      FFFF
 599 0277 488D7424 		leaq	15(%rsp), %rsi
 599      0F
 600 027c E8000000 		call	_ZNSs4_Rep10_M_destroyERKSaIcE
 600      00
 601 0281 E969FFFF 		jmp	.L69
 601      FF
 602              	.L74:
 603 0286 488D7C24 		leaq	16(%rsp), %rdi
 603      10
 604 028b 4889C3   		movq	%rax, %rbx
 605 028e E8000000 		call	_ZN8UnitTest15MemoryOutStreamD1Ev
 605      00
 606 0293 4889DF   		movq	%rbx, %rdi
 607              	.LEHB4:
 608 0296 E8000000 		call	_Unwind_Resume
 608      00
 609              	.LEHE4:
 610              	.L75:
 611 029b 4889C3   		movq	%rax, %rbx
 612              	.L61:
 613 029e 488D7C24 		leaq	112(%rsp), %rdi
 613      70
 614 02a3 48C74424 		movq	$_ZTVSt9basic_iosIcSt11char_traitsIcEE+16, 112(%rsp)
 614      70000000 
 614      00
 615 02ac E8000000 		call	_ZNSt8ios_baseD2Ev
 615      00
 616 02b1 4889DF   		movq	%rbx, %rdi
 617              	.LEHB5:
 618 02b4 E8000000 		call	_Unwind_Resume
 618      00
 619              	.LEHE5:
 620              	.L65:
 621 02b9 8B50F8   		movl	-8(%rax), %edx
 622 02bc 8D4AFF   		leal	-1(%rdx), %ecx
 623 02bf 8948F8   		movl	%ecx, -8(%rax)
 624 02c2 89D0     		movl	%edx, %eax
 625 02c4 E97AFFFF 		jmp	.L66
 625      FF
 626              	.L76:
 627 02c9 488D7C24 		leaq	24(%rsp), %rdi
 627      18
 628 02ce 4889C3   		movq	%rax, %rbx
 629 02d1 E8000000 		call	_ZNSt15basic_stringbufIcSt11char_traitsIcESaIcEED1Ev
 629      00
 630 02d6 48C74424 		movq	$_ZTCN8UnitTest15MemoryOutStreamE0_So+24, 16(%rsp)
 630      10000000 
 630      00
 631 02df EBBD     		jmp	.L61
 632              	.L70:
 633 02e1 8B50F8   		movl	-8(%rax), %edx
 634 02e4 8D4AFF   		leal	-1(%rdx), %ecx
 635 02e7 8948F8   		movl	%ecx, -8(%rax)
 636 02ea 89D0     		movl	%edx, %eax
 637 02ec EB81     		jmp	.L71
 638              		.cfi_endproc
 639              	.LFE1212:
 640              		.globl	__gxx_personality_v0
 641              		.section	.gcc_except_table._ZN8UnitTest10CheckEqualI12BufferStatusS1_EEvRNS_11TestResultsERKT_RKT0
 642              	.LLSDA1212:
 643 0000 FF       		.byte	0xff
 644 0001 FF       		.byte	0xff
 645 0002 01       		.byte	0x1
 646 0003 21       		.uleb128 .LLSDACSE1212-.LLSDACSB1212
 647              	.LLSDACSB1212:
 648 0004 9501     		.uleb128 .LEHB0-.LFB1212
 649 0006 05       		.uleb128 .LEHE0-.LEHB0
 650 0007 9B05     		.uleb128 .L75-.LFB1212
 651 0009 00       		.uleb128 0
 652 000a A202     		.uleb128 .LEHB1-.LFB1212
 653 000c 05       		.uleb128 .LEHE1-.LEHB1
 654 000d C905     		.uleb128 .L76-.LFB1212
 655 000f 00       		.uleb128 0
 656 0010 D602     		.uleb128 .LEHB2-.LFB1212
 657 0012 48       		.uleb128 .LEHE2-.LEHB2
 658 0013 8605     		.uleb128 .L74-.LFB1212
 659 0015 00       		.uleb128 0
 660 0016 9904     		.uleb128 .LEHB3-.LFB1212
 661 0018 05       		.uleb128 .LEHE3-.LEHB3
 662 0019 00       		.uleb128 0
 663 001a 00       		.uleb128 0
 664 001b 9605     		.uleb128 .LEHB4-.LFB1212
 665 001d 05       		.uleb128 .LEHE4-.LEHB4
 666 001e 00       		.uleb128 0
 667 001f 00       		.uleb128 0
 668 0020 B405     		.uleb128 .LEHB5-.LFB1212
 669 0022 05       		.uleb128 .LEHE5-.LEHB5
 670 0023 00       		.uleb128 0
 671 0024 00       		.uleb128 0
 672              	.LLSDACSE1212:
 673              		.section	.text._ZN8UnitTest10CheckEqualI12BufferStatusS1_EEvRNS_11TestResultsERKT_RKT0_RKNS_11Test
 675              		.section	.rodata.str1.1
 676              	.LC2:
 677 0014 6E6F6E45 		.string	"nonExistentFile.bin"
 677      78697374 
 677      656E7446 
 677      696C652E 
 677      62696E00 
 678              		.section	.rodata.str1.8,"aMS",@progbits,1
 679              		.align 8
 680              	.LC3:
 681 0000 556E6861 		.string	"Unhandled exception in CHECK_EQUAL(BUF_SUCCESS, status)"
 681      6E646C65 
 681      64206578 
 681      63657074 
 681      696F6E20 
 682              		.align 8
 683              	.LC4:
 684 0038 556E6861 		.string	"Unhandled exception in CHECK_EQUAL(BUF_FOPEN, status)"
 684      6E646C65 
 684      64206578 
 684      63657074 
 684      696F6E20 
 685              		.text
 686              		.align 2
 687              		.p2align 4,,15
 688              		.globl	_ZNK33TestBinIO_testReadNonExistentFile7RunImplEv
 690              	_ZNK33TestBinIO_testReadNonExistentFile7RunImplEv:
 691              	.LFB1176:
 692              		.cfi_startproc
 693              		.cfi_personality 0x3,__gxx_personality_v0
 694              		.cfi_lsda 0x3,.LLSDA1176
 695 0000 53       		pushq	%rbx
 696              		.cfi_def_cfa_offset 16
 697              		.cfi_offset 3, -16
 698 0001 31C9     		xorl	%ecx, %ecx
 699 0003 31D2     		xorl	%edx, %edx
 700 0005 BE080000 		movl	$8, %esi
 700      00
 701 000a 4883EC50 		subq	$80, %rsp
 702              		.cfi_def_cfa_offset 96
 703 000e 488D7C24 		leaq	16(%rsp), %rdi
 703      10
 704              	.LEHB6:
 705 0013 E8000000 		call	bufInitialise
 705      00
 706              	.LEHE6:
 707 0018 8944240C 		movl	%eax, 12(%rsp)
 708              	.LEHB7:
 709 001c E8000000 		call	_ZN8UnitTest11CurrentTest7DetailsEv
 709      00
 710 0021 488D5C24 		leaq	48(%rsp), %rbx
 710      30
 711 0026 488B30   		movq	(%rax), %rsi
 712 0029 BA1B0000 		movl	$27, %edx
 712      00
 713 002e 4889DF   		movq	%rbx, %rdi
 714 0031 E8000000 		call	_ZN8UnitTest11TestDetailsC1ERKS0_i
 714      00
 715 0036 C7042400 		movl	$0, (%rsp)
 715      000000
 716 003d E8000000 		call	_ZN8UnitTest11CurrentTest7ResultsEv
 716      00
 717 0042 488B38   		movq	(%rax), %rdi
 718 0045 488D5424 		leaq	12(%rsp), %rdx
 718      0C
 719 004a 4889D9   		movq	%rbx, %rcx
 720 004d 4889E6   		movq	%rsp, %rsi
 721 0050 E8000000 		call	_ZN8UnitTest10CheckEqualI12BufferStatusS1_EEvRNS_11TestResultsERKT_RKT0_RKNS_11TestDetailsE
 721      00
 722              	.LEHE7:
 723              	.L85:
 724 0055 488D7C24 		leaq	16(%rsp), %rdi
 724      10
 725 005a 31D2     		xorl	%edx, %edx
 726 005c BE000000 		movl	$.LC2, %esi
 726      00
 727              	.LEHB8:
 728 0061 E8000000 		call	bufAppendFromBinaryFile
 728      00
 729              	.LEHE8:
 730 0066 8944240C 		movl	%eax, 12(%rsp)
 731              	.LEHB9:
 732 006a E8000000 		call	_ZN8UnitTest11CurrentTest7DetailsEv
 732      00
 733 006f 488B30   		movq	(%rax), %rsi
 734 0072 BA1D0000 		movl	$29, %edx
 734      00
 735 0077 4889DF   		movq	%rbx, %rdi
 736 007a E8000000 		call	_ZN8UnitTest11TestDetailsC1ERKS0_i
 736      00
 737 007f C7042402 		movl	$2, (%rsp)
 737      000000
 738 0086 E8000000 		call	_ZN8UnitTest11CurrentTest7ResultsEv
 738      00
 739 008b 488B38   		movq	(%rax), %rdi
 740 008e 488D5424 		leaq	12(%rsp), %rdx
 740      0C
 741 0093 4889D9   		movq	%rbx, %rcx
 742 0096 4889E6   		movq	%rsp, %rsi
 743 0099 E8000000 		call	_ZN8UnitTest10CheckEqualI12BufferStatusS1_EEvRNS_11TestResultsERKT_RKT0_RKNS_11TestDetailsE
 743      00
 744              	.LEHE9:
 745              	.L88:
 746 009e 488D7C24 		leaq	16(%rsp), %rdi
 746      10
 747              	.LEHB10:
 748 00a3 E8000000 		call	bufDestroy
 748      00
 749              	.LEHE10:
 750 00a8 4883C450 		addq	$80, %rsp
 751              		.cfi_remember_state
 752              		.cfi_def_cfa_offset 16
 753 00ac 5B       		popq	%rbx
 754              		.cfi_def_cfa_offset 8
 755 00ad C3       		ret
 756              	.L89:
 757              		.cfi_restore_state
 758 00ae 4889C7   		movq	%rax, %rdi
 759 00b1 E8000000 		call	__cxa_begin_catch
 759      00
 760              	.LEHB11:
 761 00b6 E8000000 		call	_ZN8UnitTest11CurrentTest7DetailsEv
 761      00
 762 00bb 488D5C24 		leaq	48(%rsp), %rbx
 762      30
 763 00c0 488B30   		movq	(%rax), %rsi
 764 00c3 BA1B0000 		movl	$27, %edx
 764      00
 765 00c8 4889DF   		movq	%rbx, %rdi
 766 00cb E8000000 		call	_ZN8UnitTest11TestDetailsC1ERKS0_i
 766      00
 767 00d0 E8000000 		call	_ZN8UnitTest11CurrentTest7ResultsEv
 767      00
 768 00d5 488B38   		movq	(%rax), %rdi
 769 00d8 BA000000 		movl	$.LC3, %edx
 769      00
 770 00dd 4889DE   		movq	%rbx, %rsi
 771 00e0 E8000000 		call	_ZN8UnitTest11TestResults13OnTestFailureERKNS_11TestDetailsEPKc
 771      00
 772              	.LEHE11:
 773              	.LEHB12:
 774 00e5 E8000000 		call	__cxa_end_catch
 774      00
 775              	.LEHE12:
 776 00ea E966FFFF 		jmp	.L85
 776      FF
 777              	.L91:
 778 00ef 4889C7   		movq	%rax, %rdi
 779              		.p2align 4,,5
 780 00f2 E8000000 		call	__cxa_begin_catch
 780      00
 781              		.p2align 4,,5
 782              	.LEHB13:
 783 00f7 E8000000 		call	_ZN8UnitTest11CurrentTest7DetailsEv
 783      00
 784 00fc 488B30   		movq	(%rax), %rsi
 785 00ff BA1D0000 		movl	$29, %edx
 785      00
 786 0104 4889DF   		movq	%rbx, %rdi
 787 0107 E8000000 		call	_ZN8UnitTest11TestDetailsC1ERKS0_i
 787      00
 788 010c E8000000 		call	_ZN8UnitTest11CurrentTest7ResultsEv
 788      00
 789 0111 488B38   		movq	(%rax), %rdi
 790 0114 BA000000 		movl	$.LC4, %edx
 790      00
 791 0119 4889DE   		movq	%rbx, %rsi
 792 011c E8000000 		call	_ZN8UnitTest11TestResults13OnTestFailureERKNS_11TestDetailsEPKc
 792      00
 793              	.LEHE13:
 794              	.LEHB14:
 795 0121 E8000000 		call	__cxa_end_catch
 795      00
 796              	.LEHE14:
 797 0126 E973FFFF 		jmp	.L88
 797      FF
 798              	.L90:
 799 012b 4889C3   		movq	%rax, %rbx
 800 012e 6690     		.p2align 4,,5
 801 0130 E8000000 		call	__cxa_end_catch
 801      00
 802 0135 4889DF   		movq	%rbx, %rdi
 803              	.LEHB15:
 804 0138 E8000000 		call	_Unwind_Resume
 804      00
 805              	.LEHE15:
 806              	.L92:
 807 013d 4889C3   		movq	%rax, %rbx
 808 0140 E8000000 		call	__cxa_end_catch
 808      00
 809 0145 4889DF   		movq	%rbx, %rdi
 810              	.LEHB16:
 811 0148 E8000000 		call	_Unwind_Resume
 811      00
 812              	.LEHE16:
 813              		.cfi_endproc
 814              	.LFE1176:
 815              		.section	.gcc_except_table,"a",@progbits
 816              		.align 4
 817              	.LLSDA1176:
 818 0000 FF       		.byte	0xff
 819 0001 03       		.byte	0x3
 820 0002 41       		.uleb128 .LLSDATT1176-.LLSDATTD1176
 821              	.LLSDATTD1176:
 822 0003 01       		.byte	0x1
 823 0004 37       		.uleb128 .LLSDACSE1176-.LLSDACSB1176
 824              	.LLSDACSB1176:
 825 0005 13       		.uleb128 .LEHB6-.LFB1176
 826 0006 05       		.uleb128 .LEHE6-.LEHB6
 827 0007 00       		.uleb128 0
 828 0008 00       		.uleb128 0
 829 0009 1C       		.uleb128 .LEHB7-.LFB1176
 830 000a 39       		.uleb128 .LEHE7-.LEHB7
 831 000b AE01     		.uleb128 .L89-.LFB1176
 832 000d 01       		.uleb128 0x1
 833 000e 61       		.uleb128 .LEHB8-.LFB1176
 834 000f 05       		.uleb128 .LEHE8-.LEHB8
 835 0010 00       		.uleb128 0
 836 0011 00       		.uleb128 0
 837 0012 6A       		.uleb128 .LEHB9-.LFB1176
 838 0013 34       		.uleb128 .LEHE9-.LEHB9
 839 0014 EF01     		.uleb128 .L91-.LFB1176
 840 0016 01       		.uleb128 0x1
 841 0017 A301     		.uleb128 .LEHB10-.LFB1176
 842 0019 05       		.uleb128 .LEHE10-.LEHB10
 843 001a 00       		.uleb128 0
 844 001b 00       		.uleb128 0
 845 001c B601     		.uleb128 .LEHB11-.LFB1176
 846 001e 2F       		.uleb128 .LEHE11-.LEHB11
 847 001f AB02     		.uleb128 .L90-.LFB1176
 848 0021 00       		.uleb128 0
 849 0022 E501     		.uleb128 .LEHB12-.LFB1176
 850 0024 05       		.uleb128 .LEHE12-.LEHB12
 851 0025 00       		.uleb128 0
 852 0026 00       		.uleb128 0
 853 0027 F701     		.uleb128 .LEHB13-.LFB1176
 854 0029 2A       		.uleb128 .LEHE13-.LEHB13
 855 002a BD02     		.uleb128 .L92-.LFB1176
 856 002c 00       		.uleb128 0
 857 002d A102     		.uleb128 .LEHB14-.LFB1176
 858 002f 05       		.uleb128 .LEHE14-.LEHB14
 859 0030 00       		.uleb128 0
 860 0031 00       		.uleb128 0
 861 0032 B802     		.uleb128 .LEHB15-.LFB1176
 862 0034 05       		.uleb128 .LEHE15-.LEHB15
 863 0035 00       		.uleb128 0
 864 0036 00       		.uleb128 0
 865 0037 C802     		.uleb128 .LEHB16-.LFB1176
 866 0039 05       		.uleb128 .LEHE16-.LEHB16
 867 003a 00       		.uleb128 0
 868 003b 00       		.uleb128 0
 869              	.LLSDACSE1176:
 870 003c 01       		.byte	0x1
 871 003d 00       		.byte	0
 872 003e 0000     		.align 4
 873 0040 00000000 		.long	0
 874              	
 875              	.LLSDATT1176:
 876              		.text
 878              		.section	.text._ZN8UnitTest10CheckEqualImmEEvRNS_11TestResultsERKT_RKT0_RKNS_11TestDetailsE,"axG",
 879              		.p2align 4,,15
 880              		.weak	_ZN8UnitTest10CheckEqualImmEEvRNS_11TestResultsERKT_RKT0_RKNS_11TestDetailsE
 882              	_ZN8UnitTest10CheckEqualImmEEvRNS_11TestResultsERKT_RKT0_RKNS_11TestDetailsE:
 883              	.LFB1227:
 884              		.cfi_startproc
 885              		.cfi_personality 0x3,__gxx_personality_v0
 886              		.cfi_lsda 0x3,.LLSDA1227
 887 0000 4156     		pushq	%r14
 888              		.cfi_def_cfa_offset 16
 889              		.cfi_offset 14, -16
 890 0002 4155     		pushq	%r13
 891              		.cfi_def_cfa_offset 24
 892              		.cfi_offset 13, -24
 893 0004 4154     		pushq	%r12
 894              		.cfi_def_cfa_offset 32
 895              		.cfi_offset 12, -32
 896 0006 55       		pushq	%rbp
 897              		.cfi_def_cfa_offset 40
 898              		.cfi_offset 6, -40
 899 0007 4889D5   		movq	%rdx, %rbp
 900 000a 53       		pushq	%rbx
 901              		.cfi_def_cfa_offset 48
 902              		.cfi_offset 3, -48
 903 000b 4889F3   		movq	%rsi, %rbx
 904 000e 4881EC80 		subq	$384, %rsp
 904      010000
 905              		.cfi_def_cfa_offset 432
 906 0015 488B02   		movq	(%rdx), %rax
 907 0018 483906   		cmpq	%rax, (%rsi)
 908 001b 0F840302 		je	.L95
 908      0000
 909 0021 4C8D6424 		leaq	112(%rsp), %r12
 909      70
 910 0026 4989FD   		movq	%rdi, %r13
 911 0029 4989CE   		movq	%rcx, %r14
 912 002c 4C89E7   		movq	%r12, %rdi
 913 002f E8000000 		call	_ZNSt8ios_baseC2Ev
 913      00
 914 0034 31F6     		xorl	%esi, %esi
 915 0036 4C89E7   		movq	%r12, %rdi
 916 0039 48C78424 		movq	$0, 328(%rsp)
 916      48010000 
 916      00000000 
 917 0045 C6842450 		movb	$0, 336(%rsp)
 917      01000000 
 918 004d C6842451 		movb	$0, 337(%rsp)
 918      01000000 
 919 0055 48C78424 		movq	$0, 344(%rsp)
 919      58010000 
 919      00000000 
 920 0061 48C78424 		movq	$0, 352(%rsp)
 920      60010000 
 920      00000000 
 921 006d 48C78424 		movq	$0, 360(%rsp)
 921      68010000 
 921      00000000 
 922 0079 48C78424 		movq	$0, 368(%rsp)
 922      70010000 
 922      00000000 
 923 0085 48C74424 		movq	$_ZTCN8UnitTest15MemoryOutStreamE0_So+24, 16(%rsp)
 923      10000000 
 923      00
 924 008e 48C74424 		movq	$_ZTCN8UnitTest15MemoryOutStreamE0_So+64, 112(%rsp)
 924      70000000 
 924      00
 925              	.LEHB17:
 926 0097 E8000000 		call	_ZNSt9basic_iosIcSt11char_traitsIcEE4initEPSt15basic_streambufIcS1_E
 926      00
 927              	.LEHE17:
 928 009c 488D7C24 		leaq	80(%rsp), %rdi
 928      50
 929 00a1 48C74424 		movq	$_ZTCN8UnitTest15MemoryOutStreamE0_St19basic_ostringstreamIcSt11char_traitsIcESaIcEE+24, 16(%
 929      10000000 
 929      00
 930 00aa 48C74424 		movq	$_ZTCN8UnitTest15MemoryOutStreamE0_St19basic_ostringstreamIcSt11char_traitsIcESaIcEE+64, 112(
 930      70000000 
 930      00
 931 00b3 48C74424 		movq	$_ZTVSt15basic_streambufIcSt11char_traitsIcEE+16, 24(%rsp)
 931      18000000 
 931      00
 932 00bc 48C74424 		movq	$0, 32(%rsp)
 932      20000000 
 932      00
 933 00c5 48C74424 		movq	$0, 40(%rsp)
 933      28000000 
 933      00
 934 00ce 48C74424 		movq	$0, 48(%rsp)
 934      30000000 
 934      00
 935 00d7 48C74424 		movq	$0, 56(%rsp)
 935      38000000 
 935      00
 936 00e0 48C74424 		movq	$0, 64(%rsp)
 936      40000000 
 936      00
 937 00e9 48C74424 		movq	$0, 72(%rsp)
 937      48000000 
 937      00
 938 00f2 E8000000 		call	_ZNSt6localeC1Ev
 938      00
 939 00f7 488B4424 		movq	16(%rsp), %rax
 939      10
 940 00fc 488D7C24 		leaq	16(%rsp), %rdi
 940      10
 941 0101 488D7424 		leaq	24(%rsp), %rsi
 941      18
 942 0106 48C74424 		movq	$_ZTVSt15basic_stringbufIcSt11char_traitsIcESaIcEE+16, 24(%rsp)
 942      18000000 
 942      00
 943 010f C7442458 		movl	$16, 88(%rsp)
 943      10000000 
 944 0117 48C74424 		movq	$_ZNSs4_Rep20_S_empty_rep_storageE+24, 96(%rsp)
 944      60000000 
 944      00
 945 0120 480378E8 		addq	-24(%rax), %rdi
 946              	.LEHB18:
 947 0124 E8000000 		call	_ZNSt9basic_iosIcSt11char_traitsIcEE4initEPSt15basic_streambufIcS1_E
 947      00
 948              	.LEHE18:
 949 0129 488D7C24 		leaq	16(%rsp), %rdi
 949      10
 950 012e BA090000 		movl	$9, %edx
 950      00
 951 0133 BE000000 		movl	$.LC0, %esi
 951      00
 952 0138 48C74424 		movq	$_ZTVN8UnitTest15MemoryOutStreamE+24, 16(%rsp)
 952      10000000 
 952      00
 953 0141 48C74424 		movq	$_ZTVN8UnitTest15MemoryOutStreamE+64, 112(%rsp)
 953      70000000 
 953      00
 954 014a 48C74424 		movq	$_ZNSs4_Rep20_S_empty_rep_storageE+24, 104(%rsp)
 954      68000000 
 954      00
 955 0153 488B6D00 		movq	0(%rbp), %rbp
 956 0157 488B1B   		movq	(%rbx), %rbx
 957              	.LEHB19:
 958 015a E8000000 		call	_ZSt16__ostream_insertIcSt11char_traitsIcEERSt13basic_ostreamIT_T0_ES6_PKS3_l
 958      00
 959 015f 488D7C24 		leaq	16(%rsp), %rdi
 959      10
 960 0164 4889DE   		movq	%rbx, %rsi
 961 0167 E8000000 		call	_ZNSo9_M_insertImEERSoT_
 961      00
 962 016c BA090000 		movl	$9, %edx
 962      00
 963 0171 BE000000 		movl	$.LC1, %esi
 963      00
 964 0176 4889C7   		movq	%rax, %rdi
 965 0179 4889C3   		movq	%rax, %rbx
 966 017c E8000000 		call	_ZSt16__ostream_insertIcSt11char_traitsIcEERSt13basic_ostreamIT_T0_ES6_PKS3_l
 966      00
 967 0181 4889EE   		movq	%rbp, %rsi
 968 0184 4889DF   		movq	%rbx, %rdi
 969 0187 E8000000 		call	_ZNSo9_M_insertImEERSoT_
 969      00
 970 018c 488D7C24 		leaq	16(%rsp), %rdi
 970      10
 971 0191 E8000000 		call	_ZNK8UnitTest15MemoryOutStream7GetTextEv
 971      00
 972 0196 4889C2   		movq	%rax, %rdx
 973 0199 4C89F6   		movq	%r14, %rsi
 974 019c 4C89EF   		movq	%r13, %rdi
 975 019f E8000000 		call	_ZN8UnitTest11TestResults13OnTestFailureERKNS_11TestDetailsEPKc
 975      00
 976              	.LEHE19:
 977 01a4 488B4424 		movq	104(%rsp), %rax
 977      68
 978 01a9 48C74424 		movq	$_ZTVN8UnitTest15MemoryOutStreamE+24, 16(%rsp)
 978      10000000 
 978      00
 979 01b2 48C74424 		movq	$_ZTVN8UnitTest15MemoryOutStreamE+64, 112(%rsp)
 979      70000000 
 979      00
 980 01bb 488D78E8 		leaq	-24(%rax), %rdi
 981 01bf 4881FF00 		cmpq	$_ZNSs4_Rep20_S_empty_rep_storageE, %rdi
 981      000000
 982 01c6 756C     		jne	.L118
 983              	.L102:
 984 01c8 488B4424 		movq	96(%rsp), %rax
 984      60
 985 01cd 48C74424 		movq	$_ZTCN8UnitTest15MemoryOutStreamE0_St19basic_ostringstreamIcSt11char_traitsIcESaIcEE+24, 16(%
 985      10000000 
 985      00
 986 01d6 48C74424 		movq	$_ZTCN8UnitTest15MemoryOutStreamE0_St19basic_ostringstreamIcSt11char_traitsIcESaIcEE+64, 112(
 986      70000000 
 986      00
 987 01df 48C74424 		movq	$_ZTVSt15basic_stringbufIcSt11char_traitsIcESaIcEE+16, 24(%rsp)
 987      18000000 
 987      00
 988 01e8 488D78E8 		leaq	-24(%rax), %rdi
 989 01ec 4881FF00 		cmpq	$_ZNSs4_Rep20_S_empty_rep_storageE, %rdi
 989      000000
 990 01f3 756B     		jne	.L119
 991              	.L107:
 992 01f5 488D7C24 		leaq	80(%rsp), %rdi
 992      50
 993 01fa 48C74424 		movq	$_ZTVSt15basic_streambufIcSt11char_traitsIcEE+16, 24(%rsp)
 993      18000000 
 993      00
 994 0203 E8000000 		call	_ZNSt6localeD1Ev
 994      00
 995 0208 488D7C24 		leaq	112(%rsp), %rdi
 995      70
 996 020d 48C74424 		movq	$_ZTCN8UnitTest15MemoryOutStreamE0_So+24, 16(%rsp)
 996      10000000 
 996      00
 997 0216 48C74424 		movq	$_ZTVSt9basic_iosIcSt11char_traitsIcEE+16, 112(%rsp)
 997      70000000 
 997      00
 998              	.LEHB20:
 999 021f E8000000 		call	_ZNSt8ios_baseD2Ev
 999      00
 1000              	.LEHE20:
 1001              	.L95:
 1002 0224 4881C480 		addq	$384, %rsp
 1002      010000
 1003              		.cfi_remember_state
 1004              		.cfi_def_cfa_offset 48
 1005 022b 5B       		popq	%rbx
 1006              		.cfi_def_cfa_offset 40
 1007 022c 5D       		popq	%rbp
 1008              		.cfi_def_cfa_offset 32
 1009 022d 415C     		popq	%r12
 1010              		.cfi_def_cfa_offset 24
 1011 022f 415D     		popq	%r13
 1012              		.cfi_def_cfa_offset 16
 1013 0231 415E     		popq	%r14
 1014              		.cfi_def_cfa_offset 8
 1015 0233 C3       		ret
 1016              	.L118:
 1017              		.cfi_restore_state
 1018 0234 B9000000 		movl	$_ZL28__gthrw___pthread_key_createPjPFvPvE, %ecx
 1018      00
 1019 0239 488D5710 		leaq	16(%rdi), %rdx
 1020 023d 4885C9   		testq	%rcx, %rcx
 1021 0240 747D     		je	.L103
 1022 0242 83C8FF   		orl	$-1, %eax
 1023 0245 F00FC102 		lock xaddl	%eax, (%rdx)
 1024              	.L104:
 1025 0249 85C0     		testl	%eax, %eax
 1026 024b 0F8F77FF 		jg	.L102
 1026      FFFF
 1027 0251 488D7424 		leaq	15(%rsp), %rsi
 1027      0F
 1028 0256 E8000000 		call	_ZNSs4_Rep10_M_destroyERKSaIcE
 1028      00
 1029 025b E968FFFF 		jmp	.L102
 1029      FF
 1030              	.L119:
 1031 0260 B9000000 		movl	$_ZL28__gthrw___pthread_key_createPjPFvPvE, %ecx
 1031      00
 1032 0265 488D5710 		leaq	16(%rdi), %rdx
 1033 0269 4885C9   		testq	%rcx, %rcx
 1034 026c 7479     		je	.L108
 1035 026e 83C8FF   		orl	$-1, %eax
 1036 0271 F00FC102 		lock xaddl	%eax, (%rdx)
 1037              	.L109:
 1038 0275 85C0     		testl	%eax, %eax
 1039 0277 0F8F78FF 		jg	.L107
 1039      FFFF
 1040 027d 488D7424 		leaq	15(%rsp), %rsi
 1040      0F
 1041 0282 E8000000 		call	_ZNSs4_Rep10_M_destroyERKSaIcE
 1041      00
 1042 0287 E969FFFF 		jmp	.L107
 1042      FF
 1043              	.L112:
 1044 028c 488D7C24 		leaq	16(%rsp), %rdi
 1044      10
 1045 0291 4889C3   		movq	%rax, %rbx
 1046 0294 E8000000 		call	_ZN8UnitTest15MemoryOutStreamD1Ev
 1046      00
 1047 0299 4889DF   		movq	%rbx, %rdi
 1048              	.LEHB21:
 1049 029c E8000000 		call	_Unwind_Resume
 1049      00
 1050              	.LEHE21:
 1051              	.L113:
 1052 02a1 4889C3   		movq	%rax, %rbx
 1053              	.L99:
 1054 02a4 488D7C24 		leaq	112(%rsp), %rdi
 1054      70
 1055 02a9 48C74424 		movq	$_ZTVSt9basic_iosIcSt11char_traitsIcEE+16, 112(%rsp)
 1055      70000000 
 1055      00
 1056 02b2 E8000000 		call	_ZNSt8ios_baseD2Ev
 1056      00
 1057 02b7 4889DF   		movq	%rbx, %rdi
 1058              	.LEHB22:
 1059 02ba E8000000 		call	_Unwind_Resume
 1059      00
 1060              	.LEHE22:
 1061              	.L103:
 1062 02bf 8B50F8   		movl	-8(%rax), %edx
 1063 02c2 8D4AFF   		leal	-1(%rdx), %ecx
 1064 02c5 8948F8   		movl	%ecx, -8(%rax)
 1065 02c8 89D0     		movl	%edx, %eax
 1066 02ca E97AFFFF 		jmp	.L104
 1066      FF
 1067              	.L114:
 1068 02cf 488D7C24 		leaq	24(%rsp), %rdi
 1068      18
 1069 02d4 4889C3   		movq	%rax, %rbx
 1070 02d7 E8000000 		call	_ZNSt15basic_stringbufIcSt11char_traitsIcESaIcEED1Ev
 1070      00
 1071 02dc 48C74424 		movq	$_ZTCN8UnitTest15MemoryOutStreamE0_So+24, 16(%rsp)
 1071      10000000 
 1071      00
 1072 02e5 EBBD     		jmp	.L99
 1073              	.L108:
 1074 02e7 8B50F8   		movl	-8(%rax), %edx
 1075 02ea 8D4AFF   		leal	-1(%rdx), %ecx
 1076 02ed 8948F8   		movl	%ecx, -8(%rax)
 1077 02f0 89D0     		movl	%edx, %eax
 1078 02f2 EB81     		jmp	.L109
 1079              		.cfi_endproc
 1080              	.LFE1227:
 1081              		.section	.gcc_except_table
 1082              	.LLSDA1227:
 1083 0044 FF       		.byte	0xff
 1084 0045 FF       		.byte	0xff
 1085 0046 01       		.byte	0x1
 1086 0047 21       		.uleb128 .LLSDACSE1227-.LLSDACSB1227
 1087              	.LLSDACSB1227:
 1088 0048 9701     		.uleb128 .LEHB17-.LFB1227
 1089 004a 05       		.uleb128 .LEHE17-.LEHB17
 1090 004b A105     		.uleb128 .L113-.LFB1227
 1091 004d 00       		.uleb128 0
 1092 004e A402     		.uleb128 .LEHB18-.LFB1227
 1093 0050 05       		.uleb128 .LEHE18-.LEHB18
 1094 0051 CF05     		.uleb128 .L114-.LFB1227
 1095 0053 00       		.uleb128 0
 1096 0054 DA02     		.uleb128 .LEHB19-.LFB1227
 1097 0056 4A       		.uleb128 .LEHE19-.LEHB19
 1098 0057 8C05     		.uleb128 .L112-.LFB1227
 1099 0059 00       		.uleb128 0
 1100 005a 9F04     		.uleb128 .LEHB20-.LFB1227
 1101 005c 05       		.uleb128 .LEHE20-.LEHB20
 1102 005d 00       		.uleb128 0
 1103 005e 00       		.uleb128 0
 1104 005f 9C05     		.uleb128 .LEHB21-.LFB1227
 1105 0061 05       		.uleb128 .LEHE21-.LEHB21
 1106 0062 00       		.uleb128 0
 1107 0063 00       		.uleb128 0
 1108 0064 BA05     		.uleb128 .LEHB22-.LFB1227
 1109 0066 05       		.uleb128 .LEHE22-.LEHB22
 1110 0067 00       		.uleb128 0
 1111 0068 00       		.uleb128 0
 1112              	.LLSDACSE1227:
 1113              		.section	.text._ZN8UnitTest10CheckEqualImmEEvRNS_11TestResultsERKT_RKT0_RKNS_11TestDetailsE,"axG",
 1115              		.section	.rodata.str1.1
 1116              	.LC5:
 1117 0028 45787065 		.string	"Expected [ "
 1117      63746564 
 1117      205B2000 
 1118              	.LC6:
 1119 0034 5D206275 		.string	"] but was [ "
 1119      74207761 
 1119      73205B20 
 1119      00
 1120              	.LC7:
 1121 0041 2000     		.string	" "
 1122              	.LC8:
 1123 0043 5D00     		.string	"]"
 1124              		.section	.text._ZN8UnitTest15CheckArrayEqualIPKcPhEEvRNS_11TestResultsERKT_RKT0_iRKNS_11TestDetail
 1125              		.p2align 4,,15
 1126              		.weak	_ZN8UnitTest15CheckArrayEqualIPKcPhEEvRNS_11TestResultsERKT_RKT0_iRKNS_11TestDetailsE
 1128              	_ZN8UnitTest15CheckArrayEqualIPKcPhEEvRNS_11TestResultsERKT_RKT0_iRKNS_11TestDetailsE:
 1129              	.LFB1228:
 1130              		.cfi_startproc
 1131              		.cfi_personality 0x3,__gxx_personality_v0
 1132              		.cfi_lsda 0x3,.LLSDA1228
 1133 0000 4157     		pushq	%r15
 1134              		.cfi_def_cfa_offset 16
 1135              		.cfi_offset 15, -16
 1136 0002 4156     		pushq	%r14
 1137              		.cfi_def_cfa_offset 24
 1138              		.cfi_offset 14, -24
 1139 0004 4155     		pushq	%r13
 1140              		.cfi_def_cfa_offset 32
 1141              		.cfi_offset 13, -32
 1142 0006 4154     		pushq	%r12
 1143              		.cfi_def_cfa_offset 40
 1144              		.cfi_offset 12, -40
 1145 0008 55       		pushq	%rbp
 1146              		.cfi_def_cfa_offset 48
 1147              		.cfi_offset 6, -48
 1148 0009 89CD     		movl	%ecx, %ebp
 1149 000b 53       		pushq	%rbx
 1150              		.cfi_def_cfa_offset 56
 1151              		.cfi_offset 3, -56
 1152 000c 4881EC98 		subq	$408, %rsp
 1152      010000
 1153              		.cfi_def_cfa_offset 464
 1154 0013 85C9     		testl	%ecx, %ecx
 1155 0015 7E35     		jle	.L120
 1156 0017 4D89C6   		movq	%r8, %r14
 1157 001a 4C8B06   		movq	(%rsi), %r8
 1158 001d 4989FD   		movq	%rdi, %r13
 1159 0020 4989D4   		movq	%rdx, %r12
 1160 0023 488B3A   		movq	(%rdx), %rdi
 1161 0026 4889F3   		movq	%rsi, %rbx
 1162 0029 31C0     		xorl	%eax, %eax
 1163 002b BA010000 		movl	$1, %edx
 1163      00
 1164              		.p2align 4,,10
 1165              		.p2align 3
 1166              	.L123:
 1167 0030 0FB60C07 		movzbl	(%rdi,%rax), %ecx
 1168 0034 410FBE34 		movsbl	(%r8,%rax), %esi
 1168      00
 1169 0039 39CE     		cmpl	%ecx, %esi
 1170 003b 0F94C1   		sete	%cl
 1171 003e 4883C001 		addq	$1, %rax
 1172 0042 21CA     		andl	%ecx, %edx
 1173 0044 39C5     		cmpl	%eax, %ebp
 1174 0046 7FE8     		jg	.L123
 1175 0048 84D2     		testb	%dl, %dl
 1176 004a 7414     		je	.L153
 1177              	.L120:
 1178 004c 4881C498 		addq	$408, %rsp
 1178      010000
 1179              		.cfi_remember_state
 1180              		.cfi_def_cfa_offset 56
 1181 0053 5B       		popq	%rbx
 1182              		.cfi_def_cfa_offset 48
 1183 0054 5D       		popq	%rbp
 1184              		.cfi_def_cfa_offset 40
 1185 0055 415C     		popq	%r12
 1186              		.cfi_def_cfa_offset 32
 1187 0057 415D     		popq	%r13
 1188              		.cfi_def_cfa_offset 24
 1189 0059 415E     		popq	%r14
 1190              		.cfi_def_cfa_offset 16
 1191 005b 415F     		popq	%r15
 1192              		.cfi_def_cfa_offset 8
 1193 005d C3       		ret
 1194 005e 6690     		.p2align 4,,10
 1195              		.p2align 3
 1196              	.L153:
 1197              		.cfi_restore_state
 1198 0060 4C8DBC24 		leaq	128(%rsp), %r15
 1198      80000000 
 1199 0068 4C89FF   		movq	%r15, %rdi
 1200 006b E8000000 		call	_ZNSt8ios_baseC2Ev
 1200      00
 1201 0070 31F6     		xorl	%esi, %esi
 1202 0072 4C89FF   		movq	%r15, %rdi
 1203 0075 48C78424 		movq	$0, 344(%rsp)
 1203      58010000 
 1203      00000000 
 1204 0081 C6842460 		movb	$0, 352(%rsp)
 1204      01000000 
 1205 0089 C6842461 		movb	$0, 353(%rsp)
 1205      01000000 
 1206 0091 48C78424 		movq	$0, 360(%rsp)
 1206      68010000 
 1206      00000000 
 1207 009d 48C78424 		movq	$0, 368(%rsp)
 1207      70010000 
 1207      00000000 
 1208 00a9 48C78424 		movq	$0, 376(%rsp)
 1208      78010000 
 1208      00000000 
 1209 00b5 48C78424 		movq	$0, 384(%rsp)
 1209      80010000 
 1209      00000000 
 1210 00c1 48C74424 		movq	$_ZTCN8UnitTest15MemoryOutStreamE0_So+24, 32(%rsp)
 1210      20000000 
 1210      00
 1211 00ca 48C78424 		movq	$_ZTCN8UnitTest15MemoryOutStreamE0_So+64, 128(%rsp)
 1211      80000000 
 1211      00000000 
 1212              	.LEHB23:
 1213 00d6 E8000000 		call	_ZNSt9basic_iosIcSt11char_traitsIcEE4initEPSt15basic_streambufIcS1_E
 1213      00
 1214              	.LEHE23:
 1215 00db 488D7C24 		leaq	96(%rsp), %rdi
 1215      60
 1216 00e0 48C74424 		movq	$_ZTCN8UnitTest15MemoryOutStreamE0_St19basic_ostringstreamIcSt11char_traitsIcESaIcEE+24, 32(%
 1216      20000000 
 1216      00
 1217 00e9 48C78424 		movq	$_ZTCN8UnitTest15MemoryOutStreamE0_St19basic_ostringstreamIcSt11char_traitsIcESaIcEE+64, 128(
 1217      80000000 
 1217      00000000 
 1218 00f5 48C74424 		movq	$_ZTVSt15basic_streambufIcSt11char_traitsIcEE+16, 40(%rsp)
 1218      28000000 
 1218      00
 1219 00fe 48C74424 		movq	$0, 48(%rsp)
 1219      30000000 
 1219      00
 1220 0107 48C74424 		movq	$0, 56(%rsp)
 1220      38000000 
 1220      00
 1221 0110 48C74424 		movq	$0, 64(%rsp)
 1221      40000000 
 1221      00
 1222 0119 48C74424 		movq	$0, 72(%rsp)
 1222      48000000 
 1222      00
 1223 0122 48C74424 		movq	$0, 80(%rsp)
 1223      50000000 
 1223      00
 1224 012b 48C74424 		movq	$0, 88(%rsp)
 1224      58000000 
 1224      00
 1225 0134 E8000000 		call	_ZNSt6localeC1Ev
 1225      00
 1226 0139 488B4424 		movq	32(%rsp), %rax
 1226      20
 1227 013e 488D7C24 		leaq	32(%rsp), %rdi
 1227      20
 1228 0143 488D7424 		leaq	40(%rsp), %rsi
 1228      28
 1229 0148 48C74424 		movq	$_ZTVSt15basic_stringbufIcSt11char_traitsIcESaIcEE+16, 40(%rsp)
 1229      28000000 
 1229      00
 1230 0151 C7442468 		movl	$16, 104(%rsp)
 1230      10000000 
 1231 0159 48C74424 		movq	$_ZNSs4_Rep20_S_empty_rep_storageE+24, 112(%rsp)
 1231      70000000 
 1231      00
 1232 0162 480378E8 		addq	-24(%rax), %rdi
 1233              	.LEHB24:
 1234 0166 E8000000 		call	_ZNSt9basic_iosIcSt11char_traitsIcEE4initEPSt15basic_streambufIcS1_E
 1234      00
 1235              	.LEHE24:
 1236 016b 488D7C24 		leaq	32(%rsp), %rdi
 1236      20
 1237 0170 BA0B0000 		movl	$11, %edx
 1237      00
 1238 0175 BE000000 		movl	$.LC5, %esi
 1238      00
 1239 017a 48C74424 		movq	$_ZTVN8UnitTest15MemoryOutStreamE+24, 32(%rsp)
 1239      20000000 
 1239      00
 1240 0183 48C78424 		movq	$_ZTVN8UnitTest15MemoryOutStreamE+64, 128(%rsp)
 1240      80000000 
 1240      00000000 
 1241 018f 48C74424 		movq	$_ZNSs4_Rep20_S_empty_rep_storageE+24, 120(%rsp)
 1241      78000000 
 1241      00
 1242              	.LEHB25:
 1243 0198 E8000000 		call	_ZSt16__ostream_insertIcSt11char_traitsIcEERSt13basic_ostreamIT_T0_ES6_PKS3_l
 1243      00
 1244 019d 83ED01   		subl	$1, %ebp
 1245 01a0 4531FF   		xorl	%r15d, %r15d
 1246 01a3 4883C501 		addq	$1, %rbp
 1247 01a7 660F1F84 		.p2align 4,,10
 1247      00000000 
 1247      00
 1248              		.p2align 3
 1249              	.L130:
 1250 01b0 488B03   		movq	(%rbx), %rax
 1251 01b3 488D7C24 		leaq	32(%rsp), %rdi
 1251      20
 1252 01b8 BA010000 		movl	$1, %edx
 1252      00
 1253 01bd 4889E6   		movq	%rsp, %rsi
 1254 01c0 420FB604 		movzbl	(%rax,%r15), %eax
 1254      38
 1255 01c5 880424   		movb	%al, (%rsp)
 1256 01c8 E8000000 		call	_ZSt16__ostream_insertIcSt11char_traitsIcEERSt13basic_ostreamIT_T0_ES6_PKS3_l
 1256      00
 1257 01cd BA010000 		movl	$1, %edx
 1257      00
 1258 01d2 BE000000 		movl	$.LC7, %esi
 1258      00
 1259 01d7 4889C7   		movq	%rax, %rdi
 1260 01da E8000000 		call	_ZSt16__ostream_insertIcSt11char_traitsIcEERSt13basic_ostreamIT_T0_ES6_PKS3_l
 1260      00
 1261 01df 4983C701 		addq	$1, %r15
 1262 01e3 4939EF   		cmpq	%rbp, %r15
 1263 01e6 75C8     		jne	.L130
 1264 01e8 488D7C24 		leaq	32(%rsp), %rdi
 1264      20
 1265 01ed BA0C0000 		movl	$12, %edx
 1265      00
 1266 01f2 BE000000 		movl	$.LC6, %esi
 1266      00
 1267 01f7 E8000000 		call	_ZSt16__ostream_insertIcSt11char_traitsIcEERSt13basic_ostreamIT_T0_ES6_PKS3_l
 1267      00
 1268 01fc 31DB     		xorl	%ebx, %ebx
 1269 01fe 6690     		.p2align 4,,10
 1270              		.p2align 3
 1271              	.L133:
 1272 0200 498B0424 		movq	(%r12), %rax
 1273 0204 488D7424 		leaq	16(%rsp), %rsi
 1273      10
 1274 0209 488D7C24 		leaq	32(%rsp), %rdi
 1274      20
 1275 020e BA010000 		movl	$1, %edx
 1275      00
 1276 0213 0FB60418 		movzbl	(%rax,%rbx), %eax
 1277 0217 88442410 		movb	%al, 16(%rsp)
 1278 021b E8000000 		call	_ZSt16__ostream_insertIcSt11char_traitsIcEERSt13basic_ostreamIT_T0_ES6_PKS3_l
 1278      00
 1279 0220 BA010000 		movl	$1, %edx
 1279      00
 1280 0225 BE000000 		movl	$.LC7, %esi
 1280      00
 1281 022a 4889C7   		movq	%rax, %rdi
 1282 022d E8000000 		call	_ZSt16__ostream_insertIcSt11char_traitsIcEERSt13basic_ostreamIT_T0_ES6_PKS3_l
 1282      00
 1283 0232 4883C301 		addq	$1, %rbx
 1284 0236 4839EB   		cmpq	%rbp, %rbx
 1285 0239 75C5     		jne	.L133
 1286 023b 488D7C24 		leaq	32(%rsp), %rdi
 1286      20
 1287 0240 BA010000 		movl	$1, %edx
 1287      00
 1288 0245 BE000000 		movl	$.LC8, %esi
 1288      00
 1289 024a E8000000 		call	_ZSt16__ostream_insertIcSt11char_traitsIcEERSt13basic_ostreamIT_T0_ES6_PKS3_l
 1289      00
 1290 024f 488D7C24 		leaq	32(%rsp), %rdi
 1290      20
 1291 0254 E8000000 		call	_ZNK8UnitTest15MemoryOutStream7GetTextEv
 1291      00
 1292 0259 4889C2   		movq	%rax, %rdx
 1293 025c 4C89F6   		movq	%r14, %rsi
 1294 025f 4C89EF   		movq	%r13, %rdi
 1295 0262 E8000000 		call	_ZN8UnitTest11TestResults13OnTestFailureERKNS_11TestDetailsEPKc
 1295      00
 1296              	.LEHE25:
 1297 0267 488B4424 		movq	120(%rsp), %rax
 1297      78
 1298 026c 48C74424 		movq	$_ZTVN8UnitTest15MemoryOutStreamE+24, 32(%rsp)
 1298      20000000 
 1298      00
 1299 0275 48C78424 		movq	$_ZTVN8UnitTest15MemoryOutStreamE+64, 128(%rsp)
 1299      80000000 
 1299      00000000 
 1300 0281 488D78E8 		leaq	-24(%rax), %rdi
 1301 0285 4881FF00 		cmpq	$_ZNSs4_Rep20_S_empty_rep_storageE, %rdi
 1301      000000
 1302 028c 0F85BF00 		jne	.L154
 1302      0000
 1303              	.L135:
 1304 0292 488B4424 		movq	112(%rsp), %rax
 1304      70
 1305 0297 48C74424 		movq	$_ZTCN8UnitTest15MemoryOutStreamE0_St19basic_ostringstreamIcSt11char_traitsIcESaIcEE+24, 32(%
 1305      20000000 
 1305      00
 1306 02a0 48C78424 		movq	$_ZTCN8UnitTest15MemoryOutStreamE0_St19basic_ostringstreamIcSt11char_traitsIcESaIcEE+64, 128(
 1306      80000000 
 1306      00000000 
 1307 02ac 48C74424 		movq	$_ZTVSt15basic_stringbufIcSt11char_traitsIcESaIcEE+16, 40(%rsp)
 1307      28000000 
 1307      00
 1308 02b5 488D78E8 		leaq	-24(%rax), %rdi
 1309 02b9 4881FF00 		cmpq	$_ZNSs4_Rep20_S_empty_rep_storageE, %rdi
 1309      000000
 1310 02c0 0F85B900 		jne	.L155
 1310      0000
 1311              	.L140:
 1312 02c6 488D7C24 		leaq	96(%rsp), %rdi
 1312      60
 1313 02cb 48C74424 		movq	$_ZTVSt15basic_streambufIcSt11char_traitsIcEE+16, 40(%rsp)
 1313      28000000 
 1313      00
 1314 02d4 E8000000 		call	_ZNSt6localeD1Ev
 1314      00
 1315 02d9 488DBC24 		leaq	128(%rsp), %rdi
 1315      80000000 
 1316 02e1 48C74424 		movq	$_ZTCN8UnitTest15MemoryOutStreamE0_So+24, 32(%rsp)
 1316      20000000 
 1316      00
 1317 02ea 48C78424 		movq	$_ZTVSt9basic_iosIcSt11char_traitsIcEE+16, 128(%rsp)
 1317      80000000 
 1317      00000000 
 1318              	.LEHB26:
 1319 02f6 E8000000 		call	_ZNSt8ios_baseD2Ev
 1319      00
 1320              	.LEHE26:
 1321 02fb E94CFDFF 		jmp	.L120
 1321      FF
 1322              	.L146:
 1323 0300 4889C3   		movq	%rax, %rbx
 1324              	.L126:
 1325 0303 488DBC24 		leaq	128(%rsp), %rdi
 1325      80000000 
 1326 030b 48C78424 		movq	$_ZTVSt9basic_iosIcSt11char_traitsIcEE+16, 128(%rsp)
 1326      80000000 
 1326      00000000 
 1327 0317 E8000000 		call	_ZNSt8ios_baseD2Ev
 1327      00
 1328 031c 4889DF   		movq	%rbx, %rdi
 1329              	.LEHB27:
 1330 031f E8000000 		call	_Unwind_Resume
 1330      00
 1331              	.LEHE27:
 1332              	.L147:
 1333 0324 488D7C24 		leaq	40(%rsp), %rdi
 1333      28
 1334 0329 4889C3   		movq	%rax, %rbx
 1335 032c E8000000 		call	_ZNSt15basic_stringbufIcSt11char_traitsIcESaIcEED1Ev
 1335      00
 1336 0331 48C74424 		movq	$_ZTCN8UnitTest15MemoryOutStreamE0_So+24, 32(%rsp)
 1336      20000000 
 1336      00
 1337 033a EBC7     		jmp	.L126
 1338              	.L145:
 1339 033c 488D7C24 		leaq	32(%rsp), %rdi
 1339      20
 1340 0341 4889C3   		movq	%rax, %rbx
 1341 0344 E8000000 		call	_ZN8UnitTest15MemoryOutStreamD1Ev
 1341      00
 1342 0349 4889DF   		movq	%rbx, %rdi
 1343              	.LEHB28:
 1344 034c E8000000 		call	_Unwind_Resume
 1344      00
 1345              	.LEHE28:
 1346              	.L154:
 1347 0351 B9000000 		movl	$_ZL28__gthrw___pthread_key_createPjPFvPvE, %ecx
 1347      00
 1348 0356 488D5710 		leaq	16(%rdi), %rdx
 1349 035a 4885C9   		testq	%rcx, %rcx
 1350 035d 744E     		je	.L136
 1351 035f B8FFFFFF 		movl	$-1, %eax
 1351      FF
 1352 0364 F00FC102 		lock xaddl	%eax, (%rdx)
 1353              	.L137:
 1354 0368 85C0     		testl	%eax, %eax
 1355 036a 0F8F22FF 		jg	.L135
 1355      FFFF
 1356 0370 488D7424 		leaq	31(%rsp), %rsi
 1356      1F
 1357 0375 E8000000 		call	_ZNSs4_Rep10_M_destroyERKSaIcE
 1357      00
 1358 037a E913FFFF 		jmp	.L135
 1358      FF
 1359              	.L155:
 1360 037f B9000000 		movl	$_ZL28__gthrw___pthread_key_createPjPFvPvE, %ecx
 1360      00
 1361 0384 488D5710 		leaq	16(%rdi), %rdx
 1362 0388 4885C9   		testq	%rcx, %rcx
 1363 038b 742D     		je	.L141
 1364 038d B8FFFFFF 		movl	$-1, %eax
 1364      FF
 1365 0392 F00FC102 		lock xaddl	%eax, (%rdx)
 1366              	.L142:
 1367 0396 85C0     		testl	%eax, %eax
 1368 0398 0F8F28FF 		jg	.L140
 1368      FFFF
 1369 039e 488D7424 		leaq	31(%rsp), %rsi
 1369      1F
 1370 03a3 E8000000 		call	_ZNSs4_Rep10_M_destroyERKSaIcE
 1370      00
 1371 03a8 E919FFFF 		jmp	.L140
 1371      FF
 1372              	.L136:
 1373 03ad 8B50F8   		movl	-8(%rax), %edx
 1374 03b0 8D4AFF   		leal	-1(%rdx), %ecx
 1375 03b3 8948F8   		movl	%ecx, -8(%rax)
 1376 03b6 89D0     		movl	%edx, %eax
 1377 03b8 EBAE     		jmp	.L137
 1378              	.L141:
 1379 03ba 8B50F8   		movl	-8(%rax), %edx
 1380 03bd 8D4AFF   		leal	-1(%rdx), %ecx
 1381 03c0 8948F8   		movl	%ecx, -8(%rax)
 1382 03c3 89D0     		movl	%edx, %eax
 1383 03c5 EBCF     		jmp	.L142
 1384              		.cfi_endproc
 1385              	.LFE1228:
 1386              		.section	.gcc_except_table
 1387              	.LLSDA1228:
 1388 0069 FF       		.byte	0xff
 1389 006a FF       		.byte	0xff
 1390 006b 01       		.byte	0x1
 1391 006c 22       		.uleb128 .LLSDACSE1228-.LLSDACSB1228
 1392              	.LLSDACSB1228:
 1393 006d D601     		.uleb128 .LEHB23-.LFB1228
 1394 006f 05       		.uleb128 .LEHE23-.LEHB23
 1395 0070 8006     		.uleb128 .L146-.LFB1228
 1396 0072 00       		.uleb128 0
 1397 0073 E602     		.uleb128 .LEHB24-.LFB1228
 1398 0075 05       		.uleb128 .LEHE24-.LEHB24
 1399 0076 A406     		.uleb128 .L147-.LFB1228
 1400 0078 00       		.uleb128 0
 1401 0079 9803     		.uleb128 .LEHB25-.LFB1228
 1402 007b CF01     		.uleb128 .LEHE25-.LEHB25
 1403 007d BC06     		.uleb128 .L145-.LFB1228
 1404 007f 00       		.uleb128 0
 1405 0080 F605     		.uleb128 .LEHB26-.LFB1228
 1406 0082 05       		.uleb128 .LEHE26-.LEHB26
 1407 0083 00       		.uleb128 0
 1408 0084 00       		.uleb128 0
 1409 0085 9F06     		.uleb128 .LEHB27-.LFB1228
 1410 0087 05       		.uleb128 .LEHE27-.LEHB27
 1411 0088 00       		.uleb128 0
 1412 0089 00       		.uleb128 0
 1413 008a CC06     		.uleb128 .LEHB28-.LFB1228
 1414 008c 05       		.uleb128 .LEHE28-.LEHB28
 1415 008d 00       		.uleb128 0
 1416 008e 00       		.uleb128 0
 1417              	.LLSDACSE1228:
 1418              		.section	.text._ZN8UnitTest15CheckArrayEqualIPKcPhEEvRNS_11TestResultsERKT_RKT0_iRKNS_11TestDetail
 1420              		.section	.rodata.str1.1
 1421              	.LC9:
 1422 0045 4A757374 		.string	"Just some test data"
 1422      20736F6D 
 1422      65207465 
 1422      73742064 
 1422      61746100 
 1423              	.LC10:
 1424 0059 746D7046 		.string	"tmpFile.bin"
 1424      696C652E 
 1424      62696E00 
 1425              		.section	.rodata.str1.8
 1426 006e 0000     		.align 8
 1427              	.LC11:
 1428 0070 556E6861 		.string	"Unhandled exception in CHECK_EQUAL(strlen(DATA), buf.length)"
 1428      6E646C65 
 1428      64206578 
 1428      63657074 
 1428      696F6E20 
 1429 00ad 000000   		.align 8
 1430              	.LC12:
 1431 00b0 556E6861 		.string	"Unhandled exception in CHECK_ARRAY_EQUAL(DATA, buf.data)"
 1431      6E646C65 
 1431      64206578 
 1431      63657074 
 1431      696F6E20 
 1432 00e9 00000000 		.align 8
 1432      000000
 1433              	.LC13:
 1434 00f0 556E6861 		.string	"Unhandled exception in CHECK_EQUAL(2 * strlen(DATA), buf.length)"
 1434      6E646C65 
 1434      64206578 
 1434      63657074 
 1434      696F6E20 
 1435 0131 00000000 		.align 8
 1435      000000
 1436              	.LC14:
 1437 0138 556E6861 		.string	"Unhandled exception in CHECK_ARRAY_EQUAL(DATA, buf.data + strlen(DATA))"
 1437      6E646C65 
 1437      64206578 
 1437      63657074 
 1437      696F6E20 
 1438              		.text
 1439 014d 90       		.align 2
 1440 014e 6690     		.p2align 4,,15
 1441              		.globl	_ZNK30TestBinIO_testReadExistingFile7RunImplEv
 1443              	_ZNK30TestBinIO_testReadExistingFile7RunImplEv:
 1444              	.LFB1180:
 1445              		.cfi_startproc
 1446              		.cfi_personality 0x3,__gxx_personality_v0
 1447              		.cfi_lsda 0x3,.LLSDA1180
 1448 0150 4157     		pushq	%r15
 1449              		.cfi_def_cfa_offset 16
 1450              		.cfi_offset 15, -16
 1451 0152 4156     		pushq	%r14
 1452              		.cfi_def_cfa_offset 24
 1453              		.cfi_offset 14, -24
 1454 0154 4155     		pushq	%r13
 1455              		.cfi_def_cfa_offset 32
 1456              		.cfi_offset 13, -32
 1457 0156 4154     		pushq	%r12
 1458              		.cfi_def_cfa_offset 40
 1459              		.cfi_offset 12, -40
 1460 0158 55       		pushq	%rbp
 1461              		.cfi_def_cfa_offset 48
 1462              		.cfi_offset 6, -48
 1463 0159 53       		pushq	%rbx
 1464              		.cfi_def_cfa_offset 56
 1465              		.cfi_offset 3, -56
 1466 015a 4881EC08 		subq	$1032, %rsp
 1466      040000
 1467              		.cfi_def_cfa_offset 1088
 1468 0161 488DBC24 		leaq	744(%rsp), %rdi
 1468      E8020000 
 1469 0169 48C74424 		movq	$.LC9, 48(%rsp)
 1469      30000000 
 1469      00
 1470 0172 64488B04 		movq	%fs:40, %rax
 1470      25280000 
 1470      00
 1471 017b 48898424 		movq	%rax, 1016(%rsp)
 1471      F8030000 
 1472 0183 31C0     		xorl	%eax, %eax
 1473 0185 E8000000 		call	_ZNSt8ios_baseC2Ev
 1473      00
 1474 018a 4C8B2D00 		movq	_ZTTSt14basic_ofstreamIcSt11char_traitsIcEE+8(%rip), %r13
 1474      000000
 1475 0191 C68424C8 		movb	$0, 968(%rsp)
 1475      03000000 
 1476 0199 488DBC24 		leaq	496(%rsp), %rdi
 1476      F0010000 
 1477 01a1 488B0500 		movq	_ZTTSt14basic_ofstreamIcSt11char_traitsIcEE+16(%rip), %rax
 1477      000000
 1478 01a8 48C78424 		movq	$_ZTVSt9basic_iosIcSt11char_traitsIcEE+16, 744(%rsp)
 1478      E8020000 
 1478      00000000 
 1479 01b4 31F6     		xorl	%esi, %esi
 1480 01b6 48C78424 		movq	$0, 960(%rsp)
 1480      C0030000 
 1480      00000000 
 1481 01c2 C68424C9 		movb	$0, 969(%rsp)
 1481      03000000 
 1482 01ca 49037DE8 		addq	-24(%r13), %rdi
 1483 01ce 48C78424 		movq	$0, 976(%rsp)
 1483      D0030000 
 1483      00000000 
 1484 01da 48C78424 		movq	$0, 984(%rsp)
 1484      D8030000 
 1484      00000000 
 1485 01e6 48C78424 		movq	$0, 992(%rsp)
 1485      E0030000 
 1485      00000000 
 1486 01f2 48C78424 		movq	$0, 1000(%rsp)
 1486      E8030000 
 1486      00000000 
 1487 01fe 4C89AC24 		movq	%r13, 496(%rsp)
 1487      F0010000 
 1488 0206 488907   		movq	%rax, (%rdi)
 1489              	.LEHB29:
 1490 0209 E8000000 		call	_ZNSt9basic_iosIcSt11char_traitsIcEE4initEPSt15basic_streambufIcS1_E
 1490      00
 1491              	.LEHE29:
 1492 020e 488D8424 		leaq	496(%rsp), %rax
 1492      F0010000 
 1493 0216 48C78424 		movq	$_ZTVSt14basic_ofstreamIcSt11char_traitsIcEE+24, 496(%rsp)
 1493      F0010000 
 1493      00000000 
 1494 0222 48C78424 		movq	$_ZTVSt14basic_ofstreamIcSt11char_traitsIcEE+64, 744(%rsp)
 1494      E8020000 
 1494      00000000 
 1495 022e 488D7808 		leaq	8(%rax), %rdi
 1496              	.LEHB30:
 1497 0232 E8000000 		call	_ZNSt13basic_filebufIcSt11char_traitsIcEEC1Ev
 1497      00
 1498              	.LEHE30:
 1499 0237 488D8424 		leaq	496(%rsp), %rax
 1499      F0010000 
 1500 023f 488D7008 		leaq	8(%rax), %rsi
 1501 0243 488DB8F8 		leaq	248(%rax), %rdi
 1501      000000
 1502              	.LEHB31:
 1503 024a E8000000 		call	_ZNSt9basic_iosIcSt11char_traitsIcEE4initEPSt15basic_streambufIcS1_E
 1503      00
 1504              	.LEHE31:
 1505 024f 488D7C24 		leaq	64(%rsp), %rdi
 1505      40
 1506 0254 31C9     		xorl	%ecx, %ecx
 1507 0256 31D2     		xorl	%edx, %edx
 1508 0258 BE080000 		movl	$8, %esi
 1508      00
 1509              	.LEHB32:
 1510 025d E8000000 		call	bufInitialise
 1510      00
 1511              	.LEHE32:
 1512 0262 89442420 		movl	%eax, 32(%rsp)
 1513              	.LEHB33:
 1514 0266 E8000000 		call	_ZN8UnitTest11CurrentTest7DetailsEv
 1514      00
 1515 026b 488DAC24 		leaq	128(%rsp), %rbp
 1515      80000000 
 1516 0273 488B30   		movq	(%rax), %rsi
 1517 0276 BA270000 		movl	$39, %edx
 1517      00
 1518 027b 4889EF   		movq	%rbp, %rdi
 1519 027e E8000000 		call	_ZN8UnitTest11TestDetailsC1ERKS0_i
 1519      00
 1520 0283 C7442460 		movl	$0, 96(%rsp)
 1520      00000000 
 1521 028b E8000000 		call	_ZN8UnitTest11CurrentTest7ResultsEv
 1521      00
 1522 0290 488B38   		movq	(%rax), %rdi
 1523 0293 488D5424 		leaq	32(%rsp), %rdx
 1523      20
 1524 0298 488D7424 		leaq	96(%rsp), %rsi
 1524      60
 1525 029d 4889E9   		movq	%rbp, %rcx
 1526 02a0 E8000000 		call	_ZN8UnitTest10CheckEqualI12BufferStatusS1_EEvRNS_11TestResultsERKT_RKT0_RKNS_11TestDetailsE
 1526      00
 1527              	.LEHE33:
 1528              	.L195:
 1529 02a5 488D8424 		leaq	496(%rsp), %rax
 1529      F0010000 
 1530 02ad BA140000 		movl	$20, %edx
 1530      00
 1531 02b2 BE000000 		movl	$.LC10, %esi
 1531      00
 1532 02b7 488D7808 		leaq	8(%rax), %rdi
 1533              	.LEHB34:
 1534 02bb E8000000 		call	_ZNSt13basic_filebufIcSt11char_traitsIcEE4openEPKcSt13_Ios_Openmode
 1534      00
 1535 02c0 4885C0   		testq	%rax, %rax
 1536 02c3 488DBC24 		leaq	496(%rsp), %rdi
 1536      F0010000 
 1537 02cb 488B8424 		movq	496(%rsp), %rax
 1537      F0010000 
 1538 02d3 0F848B05 		je	.L244
 1538      0000
 1539 02d9 480378E8 		addq	-24(%rax), %rdi
 1540 02dd 31F6     		xorl	%esi, %esi
 1541 02df E8000000 		call	_ZNSt9basic_iosIcSt11char_traitsIcEE5clearESt12_Ios_Iostate
 1541      00
 1542              	.L163:
 1543 02e4 488DBC24 		leaq	496(%rsp), %rdi
 1543      F0010000 
 1544 02ec BA130000 		movl	$19, %edx
 1544      00
 1545 02f1 BE000000 		movl	$.LC9, %esi
 1545      00
 1546 02f6 E8000000 		call	_ZSt16__ostream_insertIcSt11char_traitsIcEERSt13basic_ostreamIT_T0_ES6_PKS3_l
 1546      00
 1547 02fb 488D8424 		leaq	496(%rsp), %rax
 1547      F0010000 
 1548 0303 488D7808 		leaq	8(%rax), %rdi
 1549 0307 E8000000 		call	_ZNSt13basic_filebufIcSt11char_traitsIcEE5closeEv
 1549      00
 1550 030c 4885C0   		testq	%rax, %rax
 1551 030f 0F842B05 		je	.L164
 1551      0000
 1552              	.L166:
 1553 0315 488D7C24 		leaq	64(%rsp), %rdi
 1553      40
 1554 031a 31D2     		xorl	%edx, %edx
 1555 031c BE000000 		movl	$.LC10, %esi
 1555      00
 1556 0321 E8000000 		call	bufAppendFromBinaryFile
 1556      00
 1557              	.LEHE34:
 1558 0326 89442420 		movl	%eax, 32(%rsp)
 1559              	.LEHB35:
 1560 032a E8000000 		call	_ZN8UnitTest11CurrentTest7DetailsEv
 1560      00
 1561 032f 488B30   		movq	(%rax), %rsi
 1562 0332 BA2C0000 		movl	$44, %edx
 1562      00
 1563 0337 4889EF   		movq	%rbp, %rdi
 1564 033a E8000000 		call	_ZN8UnitTest11TestDetailsC1ERKS0_i
 1564      00
 1565 033f C7442460 		movl	$0, 96(%rsp)
 1565      00000000 
 1566 0347 E8000000 		call	_ZN8UnitTest11CurrentTest7ResultsEv
 1566      00
 1567 034c 488B38   		movq	(%rax), %rdi
 1568 034f 488D5424 		leaq	32(%rsp), %rdx
 1568      20
 1569 0354 488D7424 		leaq	96(%rsp), %rsi
 1569      60
 1570 0359 4889E9   		movq	%rbp, %rcx
 1571 035c E8000000 		call	_ZN8UnitTest10CheckEqualI12BufferStatusS1_EEvRNS_11TestResultsERKT_RKT0_RKNS_11TestDetailsE
 1571      00
 1572              	.LEHE35:
 1573              	.L198:
 1574              	.LEHB36:
 1575 0361 E8000000 		call	_ZN8UnitTest11CurrentTest7DetailsEv
 1575      00
 1576 0366 488B30   		movq	(%rax), %rsi
 1577 0369 BA2D0000 		movl	$45, %edx
 1577      00
 1578 036e 4889EF   		movq	%rbp, %rdi
 1579 0371 E8000000 		call	_ZN8UnitTest11TestDetailsC1ERKS0_i
 1579      00
 1580 0376 48C74424 		movq	$19, 96(%rsp)
 1580      60130000 
 1580      00
 1581 037f E8000000 		call	_ZN8UnitTest11CurrentTest7ResultsEv
 1581      00
 1582 0384 488B38   		movq	(%rax), %rdi
 1583 0387 488D5424 		leaq	72(%rsp), %rdx
 1583      48
 1584 038c 488D7424 		leaq	96(%rsp), %rsi
 1584      60
 1585 0391 4889E9   		movq	%rbp, %rcx
 1586 0394 E8000000 		call	_ZN8UnitTest10CheckEqualImmEEvRNS_11TestResultsERKT_RKT0_RKNS_11TestDetailsE
 1586      00
 1587              	.LEHE36:
 1588              	.L201:
 1589              	.LEHB37:
 1590 0399 E8000000 		call	_ZN8UnitTest11CurrentTest7DetailsEv
 1590      00
 1591 039e 488B30   		movq	(%rax), %rsi
 1592 03a1 BA2E0000 		movl	$46, %edx
 1592      00
 1593 03a6 4889EF   		movq	%rbp, %rdi
 1594 03a9 E8000000 		call	_ZN8UnitTest11TestDetailsC1ERKS0_i
 1594      00
 1595 03ae 488B5C24 		movq	72(%rsp), %rbx
 1595      48
 1596 03b3 E8000000 		call	_ZN8UnitTest11CurrentTest7ResultsEv
 1596      00
 1597 03b8 488B38   		movq	(%rax), %rdi
 1598 03bb 488D5424 		leaq	64(%rsp), %rdx
 1598      40
 1599 03c0 488D7424 		leaq	48(%rsp), %rsi
 1599      30
 1600 03c5 4989E8   		movq	%rbp, %r8
 1601 03c8 89D9     		movl	%ebx, %ecx
 1602 03ca E8000000 		call	_ZN8UnitTest15CheckArrayEqualIPKcPhEEvRNS_11TestResultsERKT_RKT0_iRKNS_11TestDetailsE
 1602      00
 1603              	.LEHE37:
 1604              	.L204:
 1605 03cf 488D7C24 		leaq	64(%rsp), %rdi
 1605      40
 1606 03d4 31D2     		xorl	%edx, %edx
 1607 03d6 BE000000 		movl	$.LC10, %esi
 1607      00
 1608              	.LEHB38:
 1609 03db E8000000 		call	bufAppendFromBinaryFile
 1609      00
 1610              	.LEHE38:
 1611 03e0 89442420 		movl	%eax, 32(%rsp)
 1612              	.LEHB39:
 1613 03e4 E8000000 		call	_ZN8UnitTest11CurrentTest7DetailsEv
 1613      00
 1614 03e9 488B30   		movq	(%rax), %rsi
 1615 03ec BA300000 		movl	$48, %edx
 1615      00
 1616 03f1 4889EF   		movq	%rbp, %rdi
 1617 03f4 E8000000 		call	_ZN8UnitTest11TestDetailsC1ERKS0_i
 1617      00
 1618 03f9 C7442460 		movl	$0, 96(%rsp)
 1618      00000000 
 1619 0401 E8000000 		call	_ZN8UnitTest11CurrentTest7ResultsEv
 1619      00
 1620 0406 488B38   		movq	(%rax), %rdi
 1621 0409 488D5424 		leaq	32(%rsp), %rdx
 1621      20
 1622 040e 488D7424 		leaq	96(%rsp), %rsi
 1622      60
 1623 0413 4889E9   		movq	%rbp, %rcx
 1624 0416 E8000000 		call	_ZN8UnitTest10CheckEqualI12BufferStatusS1_EEvRNS_11TestResultsERKT_RKT0_RKNS_11TestDetailsE
 1624      00
 1625              	.LEHE39:
 1626              	.L207:
 1627              	.LEHB40:
 1628 041b E8000000 		call	_ZN8UnitTest11CurrentTest7DetailsEv
 1628      00
 1629 0420 488B30   		movq	(%rax), %rsi
 1630 0423 BA310000 		movl	$49, %edx
 1630      00
 1631 0428 4889EF   		movq	%rbp, %rdi
 1632 042b E8000000 		call	_ZN8UnitTest11TestDetailsC1ERKS0_i
 1632      00
 1633 0430 48C74424 		movq	$38, 96(%rsp)
 1633      60260000 
 1633      00
 1634 0439 E8000000 		call	_ZN8UnitTest11CurrentTest7ResultsEv
 1634      00
 1635 043e 488B38   		movq	(%rax), %rdi
 1636 0441 488D5424 		leaq	72(%rsp), %rdx
 1636      48
 1637 0446 488D7424 		leaq	96(%rsp), %rsi
 1637      60
 1638 044b 4889E9   		movq	%rbp, %rcx
 1639 044e E8000000 		call	_ZN8UnitTest10CheckEqualImmEEvRNS_11TestResultsERKT_RKT0_RKNS_11TestDetailsE
 1639      00
 1640              	.LEHE40:
 1641              	.L210:
 1642              	.LEHB41:
 1643 0453 E8000000 		call	_ZN8UnitTest11CurrentTest7DetailsEv
 1643      00
 1644 0458 4C8D7424 		leaq	96(%rsp), %r14
 1644      60
 1645 045d 488B30   		movq	(%rax), %rsi
 1646 0460 BA320000 		movl	$50, %edx
 1646      00
 1647 0465 4C89F7   		movq	%r14, %rdi
 1648 0468 E8000000 		call	_ZN8UnitTest11TestDetailsC1ERKS0_i
 1648      00
 1649 046d 488B4424 		movq	64(%rsp), %rax
 1649      40
 1650 0472 4C8D6013 		leaq	19(%rax), %r12
 1651 0476 E8000000 		call	_ZN8UnitTest11CurrentTest7ResultsEv
 1651      00
 1652              	.LEHE41:
 1653 047b 488B7C24 		movq	48(%rsp), %rdi
 1653      30
 1654 0480 4C8B38   		movq	(%rax), %r15
 1655 0483 BA010000 		movl	$1, %edx
 1655      00
 1656 0488 31C0     		xorl	%eax, %eax
 1657 048a 660F1F44 		.p2align 4,,10
 1657      0000
 1658              		.p2align 3
 1659              	.L168:
 1660 0490 410FB60C 		movzbl	(%r12,%rax), %ecx
 1660      04
 1661 0495 0FBE3407 		movsbl	(%rdi,%rax), %esi
 1662 0499 39CE     		cmpl	%ecx, %esi
 1663 049b 0F94C1   		sete	%cl
 1664 049e 4883C001 		addq	$1, %rax
 1665 04a2 21CA     		andl	%ecx, %edx
 1666 04a4 4883F813 		cmpq	$19, %rax
 1667 04a8 75E6     		jne	.L168
 1668 04aa 84D2     		testb	%dl, %dl
 1669 04ac 0F84CE00 		je	.L245
 1669      0000
 1670              	.L212:
 1671 04b2 488D7C24 		leaq	64(%rsp), %rdi
 1671      40
 1672              	.LEHB42:
 1673 04b7 E8000000 		call	bufDestroy
 1673      00
 1674              	.LEHE42:
 1675 04bc 488D8424 		leaq	496(%rsp), %rax
 1675      F0010000 
 1676 04c4 48C78424 		movq	$_ZTVSt14basic_ofstreamIcSt11char_traitsIcEE+24, 496(%rsp)
 1676      F0010000 
 1676      00000000 
 1677 04d0 48C78424 		movq	$_ZTVSt14basic_ofstreamIcSt11char_traitsIcEE+64, 744(%rsp)
 1677      E8020000 
 1677      00000000 
 1678 04dc 48C78424 		movq	$_ZTVSt13basic_filebufIcSt11char_traitsIcEE+16, 504(%rsp)
 1678      F8010000 
 1678      00000000 
 1679 04e8 488D7808 		leaq	8(%rax), %rdi
 1680              	.LEHB43:
 1681 04ec E8000000 		call	_ZNSt13basic_filebufIcSt11char_traitsIcEE5closeEv
 1681      00
 1682              	.LEHE43:
 1683 04f1 488D8424 		leaq	496(%rsp), %rax
 1683      F0010000 
 1684 04f9 488D7870 		leaq	112(%rax), %rdi
 1685              	.LEHB44:
 1686 04fd E8000000 		call	_ZNSt12__basic_fileIcED1Ev
 1686      00
 1687              	.LEHE44:
 1688 0502 488DBC24 		leaq	560(%rsp), %rdi
 1688      30020000 
 1689 050a 48C78424 		movq	$_ZTVSt15basic_streambufIcSt11char_traitsIcEE+16, 504(%rsp)
 1689      F8010000 
 1689      00000000 
 1690 0516 E8000000 		call	_ZNSt6localeD1Ev
 1690      00
 1691 051b 498B45E8 		movq	-24(%r13), %rax
 1692 051f 488B0D00 		movq	_ZTTSt14basic_ofstreamIcSt11char_traitsIcEE+16(%rip), %rcx
 1692      000000
 1693 0526 488DBC24 		leaq	744(%rsp), %rdi
 1693      E8020000 
 1694 052e 4C89AC24 		movq	%r13, 496(%rsp)
 1694      F0010000 
 1695 0536 48898C04 		movq	%rcx, 496(%rsp,%rax)
 1695      F0010000 
 1696 053e 48C78424 		movq	$_ZTVSt9basic_iosIcSt11char_traitsIcEE+16, 744(%rsp)
 1696      E8020000 
 1696      00000000 
 1697              	.LEHB45:
 1698 054a E8000000 		call	_ZNSt8ios_baseD2Ev
 1698      00
 1699              	.LEHE45:
 1700 054f 488B8424 		movq	1016(%rsp), %rax
 1700      F8030000 
 1701 0557 64483304 		xorq	%fs:40, %rax
 1701      25280000 
 1701      00
 1702 0560 0F85CC03 		jne	.L246
 1702      0000
 1703 0566 4881C408 		addq	$1032, %rsp
 1703      040000
 1704              		.cfi_remember_state
 1705              		.cfi_def_cfa_offset 56
 1706 056d 5B       		popq	%rbx
 1707              		.cfi_def_cfa_offset 48
 1708 056e 5D       		popq	%rbp
 1709              		.cfi_def_cfa_offset 40
 1710 056f 415C     		popq	%r12
 1711              		.cfi_def_cfa_offset 32
 1712 0571 415D     		popq	%r13
 1713              		.cfi_def_cfa_offset 24
 1714 0573 415E     		popq	%r14
 1715              		.cfi_def_cfa_offset 16
 1716 0575 415F     		popq	%r15
 1717              		.cfi_def_cfa_offset 8
 1718 0577 C3       		ret
 1719 0578 0F1F8400 		.p2align 4,,10
 1719      00000000 
 1720              		.p2align 3
 1721              	.L245:
 1722              		.cfi_restore_state
 1723 0580 488D5D60 		leaq	96(%rbp), %rbx
 1724 0584 4889DF   		movq	%rbx, %rdi
 1725 0587 E8000000 		call	_ZNSt8ios_baseC2Ev
 1725      00
 1726 058c 31F6     		xorl	%esi, %esi
 1727 058e 4889DF   		movq	%rbx, %rdi
 1728 0591 48C78424 		movq	$0, 440(%rsp)
 1728      B8010000 
 1728      00000000 
 1729 059d C68424C0 		movb	$0, 448(%rsp)
 1729      01000000 
 1730 05a5 C68424C1 		movb	$0, 449(%rsp)
 1730      01000000 
 1731 05ad 48C78424 		movq	$0, 456(%rsp)
 1731      C8010000 
 1731      00000000 
 1732 05b9 48C78424 		movq	$0, 464(%rsp)
 1732      D0010000 
 1732      00000000 
 1733 05c5 48C78424 		movq	$0, 472(%rsp)
 1733      D8010000 
 1733      00000000 
 1734 05d1 48C78424 		movq	$0, 480(%rsp)
 1734      E0010000 
 1734      00000000 
 1735 05dd 48C78424 		movq	$_ZTCN8UnitTest15MemoryOutStreamE0_So+24, 128(%rsp)
 1735      80000000 
 1735      00000000 
 1736 05e9 48C78424 		movq	$_ZTCN8UnitTest15MemoryOutStreamE0_So+64, 224(%rsp)
 1736      E0000000 
 1736      00000000 
 1737              	.LEHB46:
 1738 05f5 E8000000 		call	_ZNSt9basic_iosIcSt11char_traitsIcEE4initEPSt15basic_streambufIcS1_E
 1738      00
 1739              	.LEHE46:
 1740 05fa 488D7D40 		leaq	64(%rbp), %rdi
 1741 05fe 48C78424 		movq	$_ZTCN8UnitTest15MemoryOutStreamE0_St19basic_ostringstreamIcSt11char_traitsIcESaIcEE+24, 128(
 1741      80000000 
 1741      00000000 
 1742 060a 48C78424 		movq	$_ZTCN8UnitTest15MemoryOutStreamE0_St19basic_ostringstreamIcSt11char_traitsIcESaIcEE+64, 224(
 1742      E0000000 
 1742      00000000 
 1743 0616 48C78424 		movq	$_ZTVSt15basic_streambufIcSt11char_traitsIcEE+16, 136(%rsp)
 1743      88000000 
 1743      00000000 
 1744 0622 48C78424 		movq	$0, 144(%rsp)
 1744      90000000 
 1744      00000000 
 1745 062e 48C78424 		movq	$0, 152(%rsp)
 1745      98000000 
 1745      00000000 
 1746 063a 48C78424 		movq	$0, 160(%rsp)
 1746      A0000000 
 1746      00000000 
 1747 0646 48C78424 		movq	$0, 168(%rsp)
 1747      A8000000 
 1747      00000000 
 1748 0652 48C78424 		movq	$0, 176(%rsp)
 1748      B0000000 
 1748      00000000 
 1749 065e 48C78424 		movq	$0, 184(%rsp)
 1749      B8000000 
 1749      00000000 
 1750 066a E8000000 		call	_ZNSt6localeC1Ev
 1750      00
 1751 066f 488B8424 		movq	128(%rsp), %rax
 1751      80000000 
 1752 0677 4889EF   		movq	%rbp, %rdi
 1753 067a 488D7508 		leaq	8(%rbp), %rsi
 1754 067e 48C78424 		movq	$_ZTVSt15basic_stringbufIcSt11char_traitsIcESaIcEE+16, 136(%rsp)
 1754      88000000 
 1754      00000000 
 1755 068a C78424C8 		movl	$16, 200(%rsp)
 1755      00000010 
 1755      000000
 1756 0695 48C78424 		movq	$_ZNSs4_Rep20_S_empty_rep_storageE+24, 208(%rsp)
 1756      D0000000 
 1756      00000000 
 1757 06a1 480378E8 		addq	-24(%rax), %rdi
 1758              	.LEHB47:
 1759 06a5 E8000000 		call	_ZNSt9basic_iosIcSt11char_traitsIcEE4initEPSt15basic_streambufIcS1_E
 1759      00
 1760              	.LEHE47:
 1761 06aa BA0B0000 		movl	$11, %edx
 1761      00
 1762 06af BE000000 		movl	$.LC5, %esi
 1762      00
 1763 06b4 4889EF   		movq	%rbp, %rdi
 1764 06b7 48C78424 		movq	$_ZTVN8UnitTest15MemoryOutStreamE+24, 128(%rsp)
 1764      80000000 
 1764      00000000 
 1765 06c3 48C78424 		movq	$_ZTVN8UnitTest15MemoryOutStreamE+64, 224(%rsp)
 1765      E0000000 
 1765      00000000 
 1766 06cf 48C78424 		movq	$_ZNSs4_Rep20_S_empty_rep_storageE+24, 216(%rsp)
 1766      D8000000 
 1766      00000000 
 1767              	.LEHB48:
 1768 06db E8000000 		call	_ZSt16__ostream_insertIcSt11char_traitsIcEERSt13basic_ostreamIT_T0_ES6_PKS3_l
 1768      00
 1769 06e0 31DB     		xorl	%ebx, %ebx
 1770              		.p2align 4,,10
 1771 06e2 660F1F44 		.p2align 3
 1771      0000
 1772              	.L176:
 1773 06e8 488B4424 		movq	48(%rsp), %rax
 1773      30
 1774 06ed BA010000 		movl	$1, %edx
 1774      00
 1775 06f2 4889E6   		movq	%rsp, %rsi
 1776 06f5 4889EF   		movq	%rbp, %rdi
 1777 06f8 0FB60418 		movzbl	(%rax,%rbx), %eax
 1778 06fc 880424   		movb	%al, (%rsp)
 1779 06ff E8000000 		call	_ZSt16__ostream_insertIcSt11char_traitsIcEERSt13basic_ostreamIT_T0_ES6_PKS3_l
 1779      00
 1780 0704 BA010000 		movl	$1, %edx
 1780      00
 1781 0709 BE000000 		movl	$.LC7, %esi
 1781      00
 1782 070e 4889C7   		movq	%rax, %rdi
 1783 0711 E8000000 		call	_ZSt16__ostream_insertIcSt11char_traitsIcEERSt13basic_ostreamIT_T0_ES6_PKS3_l
 1783      00
 1784 0716 4883C301 		addq	$1, %rbx
 1785 071a 4883FB13 		cmpq	$19, %rbx
 1786 071e 75C8     		jne	.L176
 1787 0720 BA0C0000 		movl	$12, %edx
 1787      00
 1788 0725 BE000000 		movl	$.LC6, %esi
 1788      00
 1789 072a 4889EF   		movq	%rbp, %rdi
 1790 072d E8000000 		call	_ZSt16__ostream_insertIcSt11char_traitsIcEERSt13basic_ostreamIT_T0_ES6_PKS3_l
 1790      00
 1791 0732 30DB     		xorb	%bl, %bl
 1792              		.p2align 4,,10
 1793 0734 0F1F4000 		.p2align 3
 1794              	.L178:
 1795 0738 410FB604 		movzbl	(%r12,%rbx), %eax
 1795      1C
 1796 073d 488D7424 		leaq	16(%rsp), %rsi
 1796      10
 1797 0742 BA010000 		movl	$1, %edx
 1797      00
 1798 0747 4889EF   		movq	%rbp, %rdi
 1799 074a 88442410 		movb	%al, 16(%rsp)
 1800 074e E8000000 		call	_ZSt16__ostream_insertIcSt11char_traitsIcEERSt13basic_ostreamIT_T0_ES6_PKS3_l
 1800      00
 1801 0753 BA010000 		movl	$1, %edx
 1801      00
 1802 0758 BE000000 		movl	$.LC7, %esi
 1802      00
 1803 075d 4889C7   		movq	%rax, %rdi
 1804 0760 E8000000 		call	_ZSt16__ostream_insertIcSt11char_traitsIcEERSt13basic_ostreamIT_T0_ES6_PKS3_l
 1804      00
 1805 0765 4883C301 		addq	$1, %rbx
 1806 0769 4883FB13 		cmpq	$19, %rbx
 1807 076d 75C9     		jne	.L178
 1808 076f BA010000 		movl	$1, %edx
 1808      00
 1809 0774 BE000000 		movl	$.LC8, %esi
 1809      00
 1810 0779 4889EF   		movq	%rbp, %rdi
 1811 077c E8000000 		call	_ZSt16__ostream_insertIcSt11char_traitsIcEERSt13basic_ostreamIT_T0_ES6_PKS3_l
 1811      00
 1812 0781 4889EF   		movq	%rbp, %rdi
 1813 0784 E8000000 		call	_ZNK8UnitTest15MemoryOutStream7GetTextEv
 1813      00
 1814 0789 4889C2   		movq	%rax, %rdx
 1815 078c 4C89F6   		movq	%r14, %rsi
 1816 078f 4C89FF   		movq	%r15, %rdi
 1817 0792 E8000000 		call	_ZN8UnitTest11TestResults13OnTestFailureERKNS_11TestDetailsEPKc
 1817      00
 1818              	.LEHE48:
 1819 0797 488B8424 		movq	216(%rsp), %rax
 1819      D8000000 
 1820 079f 48C78424 		movq	$_ZTVN8UnitTest15MemoryOutStreamE+24, 128(%rsp)
 1820      80000000 
 1820      00000000 
 1821 07ab 48C78424 		movq	$_ZTVN8UnitTest15MemoryOutStreamE+64, 224(%rsp)
 1821      E0000000 
 1821      00000000 
 1822 07b7 488D78E8 		leaq	-24(%rax), %rdi
 1823 07bb 4881FF00 		cmpq	$_ZNSs4_Rep20_S_empty_rep_storageE, %rdi
 1823      000000
 1824 07c2 0F85AF03 		jne	.L247
 1824      0000
 1825              	.L180:
 1826 07c8 488B8424 		movq	208(%rsp), %rax
 1826      D0000000 
 1827 07d0 48C78424 		movq	$_ZTCN8UnitTest15MemoryOutStreamE0_St19basic_ostringstreamIcSt11char_traitsIcESaIcEE+24, 128(
 1827      80000000 
 1827      00000000 
 1828 07dc 48C78424 		movq	$_ZTCN8UnitTest15MemoryOutStreamE0_St19basic_ostringstreamIcSt11char_traitsIcESaIcEE+64, 224(
 1828      E0000000 
 1828      00000000 
 1829 07e8 48C78424 		movq	$_ZTVSt15basic_stringbufIcSt11char_traitsIcESaIcEE+16, 136(%rsp)
 1829      88000000 
 1829      00000000 
 1830 07f4 488D78E8 		leaq	-24(%rax), %rdi
 1831 07f8 4881FF00 		cmpq	$_ZNSs4_Rep20_S_empty_rep_storageE, %rdi
 1831      000000
 1832 07ff 0F85A003 		jne	.L248
 1832      0000
 1833              	.L185:
 1834 0805 488D7D40 		leaq	64(%rbp), %rdi
 1835 0809 48C78424 		movq	$_ZTVSt15basic_streambufIcSt11char_traitsIcEE+16, 136(%rsp)
 1835      88000000 
 1835      00000000 
 1836 0815 E8000000 		call	_ZNSt6localeD1Ev
 1836      00
 1837 081a 488D7D60 		leaq	96(%rbp), %rdi
 1838 081e 48C78424 		movq	$_ZTCN8UnitTest15MemoryOutStreamE0_So+24, 128(%rsp)
 1838      80000000 
 1838      00000000 
 1839 082a 48C78424 		movq	$_ZTVSt9basic_iosIcSt11char_traitsIcEE+16, 224(%rsp)
 1839      E0000000 
 1839      00000000 
 1840              	.LEHB49:
 1841 0836 E8000000 		call	_ZNSt8ios_baseD2Ev
 1841      00
 1842              	.LEHE49:
 1843 083b E972FCFF 		jmp	.L212
 1843      FF
 1844              	.L164:
 1845 0840 488B8424 		movq	496(%rsp), %rax
 1845      F0010000 
 1846 0848 488DBC24 		leaq	496(%rsp), %rdi
 1846      F0010000 
 1847 0850 480378E8 		addq	-24(%rax), %rdi
 1848 0854 8B7720   		movl	32(%rdi), %esi
 1849 0857 83CE04   		orl	$4, %esi
 1850              	.LEHB50:
 1851 085a E8000000 		call	_ZNSt9basic_iosIcSt11char_traitsIcEE5clearESt12_Ios_Iostate
 1851      00
 1852 085f E9B1FAFF 		jmp	.L166
 1852      FF
 1853              	.L244:
 1854 0864 480378E8 		addq	-24(%rax), %rdi
 1855 0868 8B7720   		movl	32(%rdi), %esi
 1856 086b 83CE04   		orl	$4, %esi
 1857 086e E8000000 		call	_ZNSt9basic_iosIcSt11char_traitsIcEE5clearESt12_Ios_Iostate
 1857      00
 1858              	.LEHE50:
 1859 0873 E96CFAFF 		jmp	.L163
 1859      FF
 1860              	.L219:
 1861 0878 4889C7   		movq	%rax, %rdi
 1862 087b E8000000 		call	__cxa_begin_catch
 1862      00
 1863              		.p2align 4,,5
 1864              	.LEHB51:
 1865 0880 E8000000 		call	_ZN8UnitTest11CurrentTest7DetailsEv
 1865      00
 1866 0885 488B30   		movq	(%rax), %rsi
 1867 0888 BA2D0000 		movl	$45, %edx
 1867      00
 1868 088d 4889EF   		movq	%rbp, %rdi
 1869 0890 E8000000 		call	_ZN8UnitTest11TestDetailsC1ERKS0_i
 1869      00
 1870 0895 E8000000 		call	_ZN8UnitTest11CurrentTest7ResultsEv
 1870      00
 1871 089a 488B38   		movq	(%rax), %rdi
 1872 089d BA000000 		movl	$.LC11, %edx
 1872      00
 1873 08a2 4889EE   		movq	%rbp, %rsi
 1874 08a5 E8000000 		call	_ZN8UnitTest11TestResults13OnTestFailureERKNS_11TestDetailsEPKc
 1874      00
 1875              	.LEHE51:
 1876              	.LEHB52:
 1877 08aa E8000000 		call	__cxa_end_catch
 1877      00
 1878              	.LEHE52:
 1879 08af E9E5FAFF 		jmp	.L201
 1879      FF
 1880              	.L214:
 1881 08b4 4889C3   		movq	%rax, %rbx
 1882              	.L193:
 1883 08b7 488DBC24 		leaq	496(%rsp), %rdi
 1883      F0010000 
 1884 08bf E8000000 		call	_ZNSt14basic_ofstreamIcSt11char_traitsIcEED1Ev
 1884      00
 1885 08c4 4889DF   		movq	%rbx, %rdi
 1886              	.LEHB53:
 1887 08c7 E8000000 		call	_Unwind_Resume
 1887      00
 1888              	.LEHE53:
 1889              	.L231:
 1890 08cc 488DBC24 		leaq	504(%rsp), %rdi
 1890      F8010000 
 1891 08d4 4889C3   		movq	%rax, %rbx
 1892 08d7 E8000000 		call	_ZNSt13basic_filebufIcSt11char_traitsIcEED1Ev
 1892      00
 1893 08dc 4889D8   		movq	%rbx, %rax
 1894              	.L159:
 1895 08df 498B55E8 		movq	-24(%r13), %rdx
 1896 08e3 488B0D00 		movq	_ZTTSt14basic_ofstreamIcSt11char_traitsIcEE+16(%rip), %rcx
 1896      000000
 1897 08ea 4889C3   		movq	%rax, %rbx
 1898 08ed 4C89AC24 		movq	%r13, 496(%rsp)
 1898      F0010000 
 1899 08f5 48898C14 		movq	%rcx, 496(%rsp,%rdx)
 1899      F0010000 
 1900              	.L160:
 1901 08fd 488DBC24 		leaq	744(%rsp), %rdi
 1901      E8020000 
 1902 0905 48C78424 		movq	$_ZTVSt9basic_iosIcSt11char_traitsIcEE+16, 744(%rsp)
 1902      E8020000 
 1902      00000000 
 1903 0911 E8000000 		call	_ZNSt8ios_baseD2Ev
 1903      00
 1904 0916 4889DF   		movq	%rbx, %rdi
 1905              	.LEHB54:
 1906 0919 E8000000 		call	_Unwind_Resume
 1906      00
 1907              	.LEHE54:
 1908              	.L220:
 1909 091e 4889C3   		movq	%rax, %rbx
 1910 0921 E8000000 		call	__cxa_end_catch
 1910      00
 1911 0926 EB8F     		jmp	.L193
 1912              	.L230:
 1913              		.p2align 4,,5
 1914 0928 EBB5     		jmp	.L159
 1915              	.L229:
 1916 092a 4889C3   		movq	%rax, %rbx
 1917 092d 0F1F00   		.p2align 4,,8
 1918 0930 EBCB     		jmp	.L160
 1919              	.L246:
 1920              		.p2align 4,,8
 1921 0932 E8000000 		call	__stack_chk_fail
 1921      00
 1922              	.L235:
 1923 0937 4889C3   		movq	%rax, %rbx
 1924              	.L191:
 1925 093a 488DBC24 		leaq	560(%rsp), %rdi
 1925      30020000 
 1926 0942 48C78424 		movq	$_ZTVSt15basic_streambufIcSt11char_traitsIcEE+16, 504(%rsp)
 1926      F8010000 
 1926      00000000 
 1927 094e E8000000 		call	_ZNSt6localeD1Ev
 1927      00
 1928 0953 498B45E8 		movq	-24(%r13), %rax
 1929 0957 488B0D00 		movq	_ZTTSt14basic_ofstreamIcSt11char_traitsIcEE+16(%rip), %rcx
 1929      000000
 1930 095e 488DBC24 		leaq	744(%rsp), %rdi
 1930      E8020000 
 1931 0966 4C89AC24 		movq	%r13, 496(%rsp)
 1931      F0010000 
 1932 096e 48898C04 		movq	%rcx, 496(%rsp,%rax)
 1932      F0010000 
 1933 0976 48C78424 		movq	$_ZTVSt9basic_iosIcSt11char_traitsIcEE+16, 744(%rsp)
 1933      E8020000 
 1933      00000000 
 1934 0982 E8000000 		call	_ZNSt8ios_baseD2Ev
 1934      00
 1935 0987 4889DF   		movq	%rbx, %rdi
 1936              	.LEHB55:
 1937 098a E8000000 		call	_Unwind_Resume
 1937      00
 1938              	.LEHE55:
 1939              	.L236:
 1940 098f 488DBC24 		leaq	608(%rsp), %rdi
 1940      60020000 
 1941 0997 4889C3   		movq	%rax, %rbx
 1942 099a E8000000 		call	_ZNSt12__basic_fileIcED1Ev
 1942      00
 1943 099f EB99     		jmp	.L191
 1944              	.L233:
 1945 09a1 4889C3   		movq	%rax, %rbx
 1946              	.L172:
 1947 09a4 488D7D60 		leaq	96(%rbp), %rdi
 1948 09a8 48C78424 		movq	$_ZTVSt9basic_iosIcSt11char_traitsIcEE+16, 224(%rsp)
 1948      E0000000 
 1948      00000000 
 1949 09b4 E8000000 		call	_ZNSt8ios_baseD2Ev
 1949      00
 1950 09b9 4889D8   		movq	%rbx, %rax
 1951              	.L174:
 1952 09bc 4889C7   		movq	%rax, %rdi
 1953 09bf E8000000 		call	__cxa_begin_catch
 1953      00
 1954              	.LEHB56:
 1955 09c4 E8000000 		call	_ZN8UnitTest11CurrentTest7DetailsEv
 1955      00
 1956 09c9 4C8D7424 		leaq	96(%rsp), %r14
 1956      60
 1957 09ce 488B30   		movq	(%rax), %rsi
 1958 09d1 BA320000 		movl	$50, %edx
 1958      00
 1959 09d6 4C89F7   		movq	%r14, %rdi
 1960 09d9 E8000000 		call	_ZN8UnitTest11TestDetailsC1ERKS0_i
 1960      00
 1961 09de E8000000 		call	_ZN8UnitTest11CurrentTest7ResultsEv
 1961      00
 1962 09e3 488B38   		movq	(%rax), %rdi
 1963 09e6 BA000000 		movl	$.LC14, %edx
 1963      00
 1964 09eb 4C89F6   		movq	%r14, %rsi
 1965 09ee E8000000 		call	_ZN8UnitTest11TestResults13OnTestFailureERKNS_11TestDetailsEPKc
 1965      00
 1966              	.LEHE56:
 1967              	.LEHB57:
 1968 09f3 E8000000 		call	__cxa_end_catch
 1968      00
 1969              	.LEHE57:
 1970 09f8 E9B5FAFF 		jmp	.L212
 1970      FF
 1971              	.L225:
 1972 09fd 4889C7   		movq	%rax, %rdi
 1973              		.p2align 4,,5
 1974 0a00 E8000000 		call	__cxa_begin_catch
 1974      00
 1975              		.p2align 4,,5
 1976              	.LEHB58:
 1977 0a05 E8000000 		call	_ZN8UnitTest11CurrentTest7DetailsEv
 1977      00
 1978 0a0a 488B30   		movq	(%rax), %rsi
 1979 0a0d BA310000 		movl	$49, %edx
 1979      00
 1980 0a12 4889EF   		movq	%rbp, %rdi
 1981 0a15 E8000000 		call	_ZN8UnitTest11TestDetailsC1ERKS0_i
 1981      00
 1982 0a1a E8000000 		call	_ZN8UnitTest11CurrentTest7ResultsEv
 1982      00
 1983 0a1f 488B38   		movq	(%rax), %rdi
 1984 0a22 BA000000 		movl	$.LC13, %edx
 1984      00
 1985 0a27 4889EE   		movq	%rbp, %rsi
 1986 0a2a E8000000 		call	_ZN8UnitTest11TestResults13OnTestFailureERKNS_11TestDetailsEPKc
 1986      00
 1987              	.LEHE58:
 1988              	.LEHB59:
 1989 0a2f E8000000 		call	__cxa_end_catch
 1989      00
 1990              	.LEHE59:
 1991 0a34 E91AFAFF 		jmp	.L210
 1991      FF
 1992              	.L223:
 1993 0a39 4889C7   		movq	%rax, %rdi
 1994 0a3c 0F1F4000 		.p2align 4,,5
 1995 0a40 E8000000 		call	__cxa_begin_catch
 1995      00
 1996              		.p2align 4,,5
 1997              	.LEHB60:
 1998 0a45 E8000000 		call	_ZN8UnitTest11CurrentTest7DetailsEv
 1998      00
 1999 0a4a 488B30   		movq	(%rax), %rsi
 2000 0a4d BA300000 		movl	$48, %edx
 2000      00
 2001 0a52 4889EF   		movq	%rbp, %rdi
 2002 0a55 E8000000 		call	_ZN8UnitTest11TestDetailsC1ERKS0_i
 2002      00
 2003 0a5a E8000000 		call	_ZN8UnitTest11CurrentTest7ResultsEv
 2003      00
 2004 0a5f 488B38   		movq	(%rax), %rdi
 2005 0a62 BA000000 		movl	$.LC3, %edx
 2005      00
 2006 0a67 4889EE   		movq	%rbp, %rsi
 2007 0a6a E8000000 		call	_ZN8UnitTest11TestResults13OnTestFailureERKNS_11TestDetailsEPKc
 2007      00
 2008              	.LEHE60:
 2009              	.LEHB61:
 2010 0a6f E8000000 		call	__cxa_end_catch
 2010      00
 2011              	.LEHE61:
 2012 0a74 E9A2F9FF 		jmp	.L207
 2012      FF
 2013              	.L228:
 2014 0a79 4889C3   		movq	%rax, %rbx
 2015 0a7c 0F1F4000 		.p2align 4,,5
 2016 0a80 E8000000 		call	__cxa_end_catch
 2016      00
 2017              		.p2align 4,,5
 2018 0a85 E92DFEFF 		jmp	.L193
 2018      FF
 2019              	.L226:
 2020 0a8a 4889C3   		movq	%rax, %rbx
 2021 0a8d E8000000 		call	__cxa_end_catch
 2021      00
 2022              		.p2align 4,,5
 2023 0a92 E920FEFF 		jmp	.L193
 2023      FF
 2024              	.L224:
 2025 0a97 4889C3   		movq	%rax, %rbx
 2026 0a9a E8000000 		call	__cxa_end_catch
 2026      00
 2027 0a9f 90       		.p2align 4,,5
 2028 0aa0 E912FEFF 		jmp	.L193
 2028      FF
 2029              	.L221:
 2030 0aa5 4889C7   		movq	%rax, %rdi
 2031 0aa8 E8000000 		call	__cxa_begin_catch
 2031      00
 2032 0aad 0F1F00   		.p2align 4,,5
 2033              	.LEHB62:
 2034 0ab0 E8000000 		call	_ZN8UnitTest11CurrentTest7DetailsEv
 2034      00
 2035 0ab5 488B30   		movq	(%rax), %rsi
 2036 0ab8 BA2E0000 		movl	$46, %edx
 2036      00
 2037 0abd 4889EF   		movq	%rbp, %rdi
 2038 0ac0 E8000000 		call	_ZN8UnitTest11TestDetailsC1ERKS0_i
 2038      00
 2039 0ac5 E8000000 		call	_ZN8UnitTest11CurrentTest7ResultsEv
 2039      00
 2040 0aca 488B38   		movq	(%rax), %rdi
 2041 0acd BA000000 		movl	$.LC12, %edx
 2041      00
 2042 0ad2 4889EE   		movq	%rbp, %rsi
 2043 0ad5 E8000000 		call	_ZN8UnitTest11TestResults13OnTestFailureERKNS_11TestDetailsEPKc
 2043      00
 2044              	.LEHE62:
 2045              	.LEHB63:
 2046 0ada E8000000 		call	__cxa_end_catch
 2046      00
 2047              	.LEHE63:
 2048 0adf E9EBF8FF 		jmp	.L204
 2048      FF
 2049              	.L215:
 2050 0ae4 4889C7   		movq	%rax, %rdi
 2051              		.p2align 4,,5
 2052 0ae7 E8000000 		call	__cxa_begin_catch
 2052      00
 2053 0aec 0F1F4000 		.p2align 4,,5
 2054              	.LEHB64:
 2055 0af0 E8000000 		call	_ZN8UnitTest11CurrentTest7DetailsEv
 2055      00
 2056 0af5 488DAC24 		leaq	128(%rsp), %rbp
 2056      80000000 
 2057 0afd 488B30   		movq	(%rax), %rsi
 2058 0b00 BA270000 		movl	$39, %edx
 2058      00
 2059 0b05 4889EF   		movq	%rbp, %rdi
 2060 0b08 E8000000 		call	_ZN8UnitTest11TestDetailsC1ERKS0_i
 2060      00
 2061 0b0d E8000000 		call	_ZN8UnitTest11CurrentTest7ResultsEv
 2061      00
 2062 0b12 488B38   		movq	(%rax), %rdi
 2063 0b15 BA000000 		movl	$.LC3, %edx
 2063      00
 2064 0b1a 4889EE   		movq	%rbp, %rsi
 2065 0b1d E8000000 		call	_ZN8UnitTest11TestResults13OnTestFailureERKNS_11TestDetailsEPKc
 2065      00
 2066              	.LEHE64:
 2067              	.LEHB65:
 2068 0b22 E8000000 		call	__cxa_end_catch
 2068      00
 2069              	.LEHE65:
 2070 0b27 E979F7FF 		jmp	.L195
 2070      FF
 2071              	.L222:
 2072 0b2c 4889C3   		movq	%rax, %rbx
 2073 0b2f 90       		.p2align 4,,5
 2074 0b30 E8000000 		call	__cxa_end_catch
 2074      00
 2075              		.p2align 4,,5
 2076 0b35 E97DFDFF 		jmp	.L193
 2076      FF
 2077              	.L216:
 2078 0b3a 4889C3   		movq	%rax, %rbx
 2079 0b3d E8000000 		call	__cxa_end_catch
 2079      00
 2080              		.p2align 4,,5
 2081 0b42 E970FDFF 		jmp	.L193
 2081      FF
 2082              	.L234:
 2083 0b47 488D7D08 		leaq	8(%rbp), %rdi
 2084 0b4b 4889C3   		movq	%rax, %rbx
 2085 0b4e E8000000 		call	_ZNSt15basic_stringbufIcSt11char_traitsIcESaIcEED1Ev
 2085      00
 2086 0b53 48C78424 		movq	$_ZTCN8UnitTest15MemoryOutStreamE0_So+24, 128(%rsp)
 2086      80000000 
 2086      00000000 
 2087 0b5f E940FEFF 		jmp	.L172
 2087      FF
 2088              	.L232:
 2089 0b64 4889C3   		movq	%rax, %rbx
 2090 0b67 4889EF   		movq	%rbp, %rdi
 2091 0b6a E8000000 		call	_ZN8UnitTest15MemoryOutStreamD1Ev
 2091      00
 2092 0b6f 4889D8   		movq	%rbx, %rax
 2093 0b72 E945FEFF 		jmp	.L174
 2093      FF
 2094              	.L247:
 2095 0b77 B9000000 		movl	$_ZL28__gthrw___pthread_key_createPjPFvPvE, %ecx
 2095      00
 2096 0b7c 488D5710 		leaq	16(%rdi), %rdx
 2097 0b80 4885C9   		testq	%rcx, %rcx
 2098 0b83 744E     		je	.L181
 2099 0b85 B8FFFFFF 		movl	$-1, %eax
 2099      FF
 2100 0b8a F00FC102 		lock xaddl	%eax, (%rdx)
 2101              	.L182:
 2102 0b8e 85C0     		testl	%eax, %eax
 2103 0b90 0F8F32FC 		jg	.L180
 2103      FFFF
 2104 0b96 488D7424 		leaq	31(%rsp), %rsi
 2104      1F
 2105 0b9b E8000000 		call	_ZNSs4_Rep10_M_destroyERKSaIcE
 2105      00
 2106 0ba0 E923FCFF 		jmp	.L180
 2106      FF
 2107              	.L248:
 2108 0ba5 B9000000 		movl	$_ZL28__gthrw___pthread_key_createPjPFvPvE, %ecx
 2108      00
 2109 0baa 488D5710 		leaq	16(%rdi), %rdx
 2110 0bae 4885C9   		testq	%rcx, %rcx
 2111 0bb1 742D     		je	.L186
 2112 0bb3 B8FFFFFF 		movl	$-1, %eax
 2112      FF
 2113 0bb8 F00FC102 		lock xaddl	%eax, (%rdx)
 2114              	.L187:
 2115 0bbc 85C0     		testl	%eax, %eax
 2116 0bbe 0F8F41FC 		jg	.L185
 2116      FFFF
 2117 0bc4 488D7424 		leaq	31(%rsp), %rsi
 2117      1F
 2118 0bc9 E8000000 		call	_ZNSs4_Rep10_M_destroyERKSaIcE
 2118      00
 2119 0bce E932FCFF 		jmp	.L185
 2119      FF
 2120              	.L181:
 2121 0bd3 8B50F8   		movl	-8(%rax), %edx
 2122 0bd6 8D4AFF   		leal	-1(%rdx), %ecx
 2123 0bd9 8948F8   		movl	%ecx, -8(%rax)
 2124 0bdc 89D0     		movl	%edx, %eax
 2125 0bde EBAE     		jmp	.L182
 2126              	.L186:
 2127 0be0 8B50F8   		movl	-8(%rax), %edx
 2128 0be3 8D4AFF   		leal	-1(%rdx), %ecx
 2129 0be6 8948F8   		movl	%ecx, -8(%rax)
 2130 0be9 89D0     		movl	%edx, %eax
 2131 0beb EBCF     		jmp	.L187
 2132              	.L217:
 2133 0bed 4889C7   		movq	%rax, %rdi
 2134 0bf0 E8000000 		call	__cxa_begin_catch
 2134      00
 2135              	.LEHB66:
 2136 0bf5 E8000000 		call	_ZN8UnitTest11CurrentTest7DetailsEv
 2136      00
 2137 0bfa 488B30   		movq	(%rax), %rsi
 2138 0bfd BA2C0000 		movl	$44, %edx
 2138      00
 2139 0c02 4889EF   		movq	%rbp, %rdi
 2140 0c05 E8000000 		call	_ZN8UnitTest11TestDetailsC1ERKS0_i
 2140      00
 2141 0c0a E8000000 		call	_ZN8UnitTest11CurrentTest7ResultsEv
 2141      00
 2142 0c0f 488B38   		movq	(%rax), %rdi
 2143 0c12 BA000000 		movl	$.LC3, %edx
 2143      00
 2144 0c17 4889EE   		movq	%rbp, %rsi
 2145 0c1a E8000000 		call	_ZN8UnitTest11TestResults13OnTestFailureERKNS_11TestDetailsEPKc
 2145      00
 2146              	.LEHE66:
 2147              	.LEHB67:
 2148 0c1f E8000000 		call	__cxa_end_catch
 2148      00
 2149              	.LEHE67:
 2150 0c24 E938F7FF 		jmp	.L198
 2150      FF
 2151              	.L227:
 2152 0c29 0F1F8000 		.p2align 4,,8
 2152      000000
 2153 0c30 E987FDFF 		jmp	.L174
 2153      FF
 2154              	.L218:
 2155 0c35 4889C3   		movq	%rax, %rbx
 2156 0c38 0F1F8400 		.p2align 4,,8
 2156      00000000 
 2157 0c40 E8000000 		call	__cxa_end_catch
 2157      00
 2158              		.p2align 4,,5
 2159 0c45 E96DFCFF 		jmp	.L193
 2159      FF
 2160              		.cfi_endproc
 2161              	.LFE1180:
 2162              		.section	.gcc_except_table
 2163 008f 00       		.align 4
 2164              	.LLSDA1180:
 2165 0090 FF       		.byte	0xff
 2166 0091 03       		.byte	0x3
 2167 0092 F001     		.uleb128 .LLSDATT1180-.LLSDATTD1180
 2168              	.LLSDATTD1180:
 2169 0094 01       		.byte	0x1
 2170 0095 E701     		.uleb128 .LLSDACSE1180-.LLSDACSB1180
 2171              	.LLSDACSB1180:
 2172 0097 B901     		.uleb128 .LEHB29-.LFB1180
 2173 0099 05       		.uleb128 .LEHE29-.LEHB29
 2174 009a DA0F     		.uleb128 .L229-.LFB1180
 2175 009c 00       		.uleb128 0
 2176 009d E201     		.uleb128 .LEHB30-.LFB1180
 2177 009f 05       		.uleb128 .LEHE30-.LEHB30
 2178 00a0 D80F     		.uleb128 .L230-.LFB1180
 2179 00a2 00       		.uleb128 0
 2180 00a3 FA01     		.uleb128 .LEHB31-.LFB1180
 2181 00a5 05       		.uleb128 .LEHE31-.LEHB31
 2182 00a6 FC0E     		.uleb128 .L231-.LFB1180
 2183 00a8 00       		.uleb128 0
 2184 00a9 8D02     		.uleb128 .LEHB32-.LFB1180
 2185 00ab 05       		.uleb128 .LEHE32-.LEHB32
 2186 00ac E40E     		.uleb128 .L214-.LFB1180
 2187 00ae 00       		.uleb128 0
 2188 00af 9602     		.uleb128 .LEHB33-.LFB1180
 2189 00b1 3F       		.uleb128 .LEHE33-.LEHB33
 2190 00b2 9413     		.uleb128 .L215-.LFB1180
 2191 00b4 01       		.uleb128 0x1
 2192 00b5 EB02     		.uleb128 .LEHB34-.LFB1180
 2193 00b7 6B       		.uleb128 .LEHE34-.LEHB34
 2194 00b8 E40E     		.uleb128 .L214-.LFB1180
 2195 00ba 00       		.uleb128 0
 2196 00bb DA03     		.uleb128 .LEHB35-.LFB1180
 2197 00bd 37       		.uleb128 .LEHE35-.LEHB35
 2198 00be 9D15     		.uleb128 .L217-.LFB1180
 2199 00c0 01       		.uleb128 0x1
 2200 00c1 9104     		.uleb128 .LEHB36-.LFB1180
 2201 00c3 38       		.uleb128 .LEHE36-.LEHB36
 2202 00c4 A80E     		.uleb128 .L219-.LFB1180
 2203 00c6 01       		.uleb128 0x1
 2204 00c7 C904     		.uleb128 .LEHB37-.LFB1180
 2205 00c9 36       		.uleb128 .LEHE37-.LEHB37
 2206 00ca D512     		.uleb128 .L221-.LFB1180
 2207 00cc 01       		.uleb128 0x1
 2208 00cd 8B05     		.uleb128 .LEHB38-.LFB1180
 2209 00cf 05       		.uleb128 .LEHE38-.LEHB38
 2210 00d0 E40E     		.uleb128 .L214-.LFB1180
 2211 00d2 00       		.uleb128 0
 2212 00d3 9405     		.uleb128 .LEHB39-.LFB1180
 2213 00d5 37       		.uleb128 .LEHE39-.LEHB39
 2214 00d6 E911     		.uleb128 .L223-.LFB1180
 2215 00d8 01       		.uleb128 0x1
 2216 00d9 CB05     		.uleb128 .LEHB40-.LFB1180
 2217 00db 38       		.uleb128 .LEHE40-.LEHB40
 2218 00dc AD11     		.uleb128 .L225-.LFB1180
 2219 00de 01       		.uleb128 0x1
 2220 00df 8306     		.uleb128 .LEHB41-.LFB1180
 2221 00e1 28       		.uleb128 .LEHE41-.LEHB41
 2222 00e2 D915     		.uleb128 .L227-.LFB1180
 2223 00e4 01       		.uleb128 0x1
 2224 00e5 E706     		.uleb128 .LEHB42-.LFB1180
 2225 00e7 05       		.uleb128 .LEHE42-.LEHB42
 2226 00e8 E40E     		.uleb128 .L214-.LFB1180
 2227 00ea 00       		.uleb128 0
 2228 00eb 9C07     		.uleb128 .LEHB43-.LFB1180
 2229 00ed 05       		.uleb128 .LEHE43-.LEHB43
 2230 00ee BF10     		.uleb128 .L236-.LFB1180
 2231 00f0 00       		.uleb128 0
 2232 00f1 AD07     		.uleb128 .LEHB44-.LFB1180
 2233 00f3 05       		.uleb128 .LEHE44-.LEHB44
 2234 00f4 E70F     		.uleb128 .L235-.LFB1180
 2235 00f6 00       		.uleb128 0
 2236 00f7 FA07     		.uleb128 .LEHB45-.LFB1180
 2237 00f9 05       		.uleb128 .LEHE45-.LEHB45
 2238 00fa 00       		.uleb128 0
 2239 00fb 00       		.uleb128 0
 2240 00fc A509     		.uleb128 .LEHB46-.LFB1180
 2241 00fe 05       		.uleb128 .LEHE46-.LEHB46
 2242 00ff D110     		.uleb128 .L233-.LFB1180
 2243 0101 01       		.uleb128 0x1
 2244 0102 D50A     		.uleb128 .LEHB47-.LFB1180
 2245 0104 05       		.uleb128 .LEHE47-.LEHB47
 2246 0105 F713     		.uleb128 .L234-.LFB1180
 2247 0107 01       		.uleb128 0x1
 2248 0108 8B0B     		.uleb128 .LEHB48-.LFB1180
 2249 010a BC01     		.uleb128 .LEHE48-.LEHB48
 2250 010c 9414     		.uleb128 .L232-.LFB1180
 2251 010e 01       		.uleb128 0x1
 2252 010f E60D     		.uleb128 .LEHB49-.LFB1180
 2253 0111 05       		.uleb128 .LEHE49-.LEHB49
 2254 0112 D915     		.uleb128 .L227-.LFB1180
 2255 0114 01       		.uleb128 0x1
 2256 0115 8A0E     		.uleb128 .LEHB50-.LFB1180
 2257 0117 19       		.uleb128 .LEHE50-.LEHB50
 2258 0118 E40E     		.uleb128 .L214-.LFB1180
 2259 011a 00       		.uleb128 0
 2260 011b B00E     		.uleb128 .LEHB51-.LFB1180
 2261 011d 2A       		.uleb128 .LEHE51-.LEHB51
 2262 011e CE0F     		.uleb128 .L220-.LFB1180
 2263 0120 00       		.uleb128 0
 2264 0121 DA0E     		.uleb128 .LEHB52-.LFB1180
 2265 0123 05       		.uleb128 .LEHE52-.LEHB52
 2266 0124 E40E     		.uleb128 .L214-.LFB1180
 2267 0126 00       		.uleb128 0
 2268 0127 F70E     		.uleb128 .LEHB53-.LFB1180
 2269 0129 05       		.uleb128 .LEHE53-.LEHB53
 2270 012a 00       		.uleb128 0
 2271 012b 00       		.uleb128 0
 2272 012c C90F     		.uleb128 .LEHB54-.LFB1180
 2273 012e 05       		.uleb128 .LEHE54-.LEHB54
 2274 012f 00       		.uleb128 0
 2275 0130 00       		.uleb128 0
 2276 0131 BA10     		.uleb128 .LEHB55-.LFB1180
 2277 0133 05       		.uleb128 .LEHE55-.LEHB55
 2278 0134 00       		.uleb128 0
 2279 0135 00       		.uleb128 0
 2280 0136 F410     		.uleb128 .LEHB56-.LFB1180
 2281 0138 2F       		.uleb128 .LEHE56-.LEHB56
 2282 0139 A912     		.uleb128 .L228-.LFB1180
 2283 013b 00       		.uleb128 0
 2284 013c A311     		.uleb128 .LEHB57-.LFB1180
 2285 013e 05       		.uleb128 .LEHE57-.LEHB57
 2286 013f E40E     		.uleb128 .L214-.LFB1180
 2287 0141 00       		.uleb128 0
 2288 0142 B511     		.uleb128 .LEHB58-.LFB1180
 2289 0144 2A       		.uleb128 .LEHE58-.LEHB58
 2290 0145 BA12     		.uleb128 .L226-.LFB1180
 2291 0147 00       		.uleb128 0
 2292 0148 DF11     		.uleb128 .LEHB59-.LFB1180
 2293 014a 05       		.uleb128 .LEHE59-.LEHB59
 2294 014b E40E     		.uleb128 .L214-.LFB1180
 2295 014d 00       		.uleb128 0
 2296 014e F511     		.uleb128 .LEHB60-.LFB1180
 2297 0150 2A       		.uleb128 .LEHE60-.LEHB60
 2298 0151 C712     		.uleb128 .L224-.LFB1180
 2299 0153 00       		.uleb128 0
 2300 0154 9F12     		.uleb128 .LEHB61-.LFB1180
 2301 0156 05       		.uleb128 .LEHE61-.LEHB61
 2302 0157 E40E     		.uleb128 .L214-.LFB1180
 2303 0159 00       		.uleb128 0
 2304 015a E012     		.uleb128 .LEHB62-.LFB1180
 2305 015c 2A       		.uleb128 .LEHE62-.LEHB62
 2306 015d DC13     		.uleb128 .L222-.LFB1180
 2307 015f 00       		.uleb128 0
 2308 0160 8A13     		.uleb128 .LEHB63-.LFB1180
 2309 0162 05       		.uleb128 .LEHE63-.LEHB63
 2310 0163 E40E     		.uleb128 .L214-.LFB1180
 2311 0165 00       		.uleb128 0
 2312 0166 A013     		.uleb128 .LEHB64-.LFB1180
 2313 0168 32       		.uleb128 .LEHE64-.LEHB64
 2314 0169 EA13     		.uleb128 .L216-.LFB1180
 2315 016b 00       		.uleb128 0
 2316 016c D213     		.uleb128 .LEHB65-.LFB1180
 2317 016e 05       		.uleb128 .LEHE65-.LEHB65
 2318 016f E40E     		.uleb128 .L214-.LFB1180
 2319 0171 00       		.uleb128 0
 2320 0172 A515     		.uleb128 .LEHB66-.LFB1180
 2321 0174 2A       		.uleb128 .LEHE66-.LEHB66
 2322 0175 E515     		.uleb128 .L218-.LFB1180
 2323 0177 00       		.uleb128 0
 2324 0178 CF15     		.uleb128 .LEHB67-.LFB1180
 2325 017a 05       		.uleb128 .LEHE67-.LEHB67
 2326 017b E40E     		.uleb128 .L214-.LFB1180
 2327 017d 00       		.uleb128 0
 2328              	.LLSDACSE1180:
 2329 017e 01       		.byte	0x1
 2330 017f 00       		.byte	0
 2331              		.align 4
 2332 0180 00000000 		.long	0
 2333              	
 2334              	.LLSDATT1180:
 2335              		.text
 2337              		.section	.text._ZN8UnitTest15CheckArrayEqualIPKcPcEEvRNS_11TestResultsERKT_RKT0_iRKNS_11TestDetail
 2338              		.p2align 4,,15
 2339              		.weak	_ZN8UnitTest15CheckArrayEqualIPKcPcEEvRNS_11TestResultsERKT_RKT0_iRKNS_11TestDetailsE
 2341              	_ZN8UnitTest15CheckArrayEqualIPKcPcEEvRNS_11TestResultsERKT_RKT0_iRKNS_11TestDetailsE:
 2342              	.LFB1241:
 2343              		.cfi_startproc
 2344              		.cfi_personality 0x3,__gxx_personality_v0
 2345              		.cfi_lsda 0x3,.LLSDA1241
 2346 0000 4157     		pushq	%r15
 2347              		.cfi_def_cfa_offset 16
 2348              		.cfi_offset 15, -16
 2349 0002 4156     		pushq	%r14
 2350              		.cfi_def_cfa_offset 24
 2351              		.cfi_offset 14, -24
 2352 0004 4155     		pushq	%r13
 2353              		.cfi_def_cfa_offset 32
 2354              		.cfi_offset 13, -32
 2355 0006 4154     		pushq	%r12
 2356              		.cfi_def_cfa_offset 40
 2357              		.cfi_offset 12, -40
 2358 0008 55       		pushq	%rbp
 2359              		.cfi_def_cfa_offset 48
 2360              		.cfi_offset 6, -48
 2361 0009 89CD     		movl	%ecx, %ebp
 2362 000b 53       		pushq	%rbx
 2363              		.cfi_def_cfa_offset 56
 2364              		.cfi_offset 3, -56
 2365 000c 4881EC98 		subq	$408, %rsp
 2365      010000
 2366              		.cfi_def_cfa_offset 464
 2367 0013 85C9     		testl	%ecx, %ecx
 2368 0015 7E31     		jle	.L249
 2369 0017 4989FD   		movq	%rdi, %r13
 2370 001a 4889F3   		movq	%rsi, %rbx
 2371 001d 4989D4   		movq	%rdx, %r12
 2372 0020 488B3E   		movq	(%rsi), %rdi
 2373 0023 4D89C6   		movq	%r8, %r14
 2374 0026 488B32   		movq	(%rdx), %rsi
 2375 0029 31C0     		xorl	%eax, %eax
 2376 002b BA010000 		movl	$1, %edx
 2376      00
 2377              		.p2align 4,,10
 2378              		.p2align 3
 2379              	.L252:
 2380 0030 0FB60C06 		movzbl	(%rsi,%rax), %ecx
 2381 0034 380C07   		cmpb	%cl, (%rdi,%rax)
 2382 0037 0F94C1   		sete	%cl
 2383 003a 4883C001 		addq	$1, %rax
 2384 003e 21CA     		andl	%ecx, %edx
 2385 0040 39C5     		cmpl	%eax, %ebp
 2386 0042 7FEC     		jg	.L252
 2387 0044 84D2     		testb	%dl, %dl
 2388 0046 7418     		je	.L282
 2389              	.L249:
 2390 0048 4881C498 		addq	$408, %rsp
 2390      010000
 2391              		.cfi_remember_state
 2392              		.cfi_def_cfa_offset 56
 2393 004f 5B       		popq	%rbx
 2394              		.cfi_def_cfa_offset 48
 2395 0050 5D       		popq	%rbp
 2396              		.cfi_def_cfa_offset 40
 2397 0051 415C     		popq	%r12
 2398              		.cfi_def_cfa_offset 32
 2399 0053 415D     		popq	%r13
 2400              		.cfi_def_cfa_offset 24
 2401 0055 415E     		popq	%r14
 2402              		.cfi_def_cfa_offset 16
 2403 0057 415F     		popq	%r15
 2404              		.cfi_def_cfa_offset 8
 2405 0059 C3       		ret
 2406 005a 660F1F44 		.p2align 4,,10
 2406      0000
 2407              		.p2align 3
 2408              	.L282:
 2409              		.cfi_restore_state
 2410 0060 4C8DBC24 		leaq	128(%rsp), %r15
 2410      80000000 
 2411 0068 4C89FF   		movq	%r15, %rdi
 2412 006b E8000000 		call	_ZNSt8ios_baseC2Ev
 2412      00
 2413 0070 31F6     		xorl	%esi, %esi
 2414 0072 4C89FF   		movq	%r15, %rdi
 2415 0075 48C78424 		movq	$0, 344(%rsp)
 2415      58010000 
 2415      00000000 
 2416 0081 C6842460 		movb	$0, 352(%rsp)
 2416      01000000 
 2417 0089 C6842461 		movb	$0, 353(%rsp)
 2417      01000000 
 2418 0091 48C78424 		movq	$0, 360(%rsp)
 2418      68010000 
 2418      00000000 
 2419 009d 48C78424 		movq	$0, 368(%rsp)
 2419      70010000 
 2419      00000000 
 2420 00a9 48C78424 		movq	$0, 376(%rsp)
 2420      78010000 
 2420      00000000 
 2421 00b5 48C78424 		movq	$0, 384(%rsp)
 2421      80010000 
 2421      00000000 
 2422 00c1 48C74424 		movq	$_ZTCN8UnitTest15MemoryOutStreamE0_So+24, 32(%rsp)
 2422      20000000 
 2422      00
 2423 00ca 48C78424 		movq	$_ZTCN8UnitTest15MemoryOutStreamE0_So+64, 128(%rsp)
 2423      80000000 
 2423      00000000 
 2424              	.LEHB68:
 2425 00d6 E8000000 		call	_ZNSt9basic_iosIcSt11char_traitsIcEE4initEPSt15basic_streambufIcS1_E
 2425      00
 2426              	.LEHE68:
 2427 00db 488D7C24 		leaq	96(%rsp), %rdi
 2427      60
 2428 00e0 48C74424 		movq	$_ZTCN8UnitTest15MemoryOutStreamE0_St19basic_ostringstreamIcSt11char_traitsIcESaIcEE+24, 32(%
 2428      20000000 
 2428      00
 2429 00e9 48C78424 		movq	$_ZTCN8UnitTest15MemoryOutStreamE0_St19basic_ostringstreamIcSt11char_traitsIcESaIcEE+64, 128(
 2429      80000000 
 2429      00000000 
 2430 00f5 48C74424 		movq	$_ZTVSt15basic_streambufIcSt11char_traitsIcEE+16, 40(%rsp)
 2430      28000000 
 2430      00
 2431 00fe 48C74424 		movq	$0, 48(%rsp)
 2431      30000000 
 2431      00
 2432 0107 48C74424 		movq	$0, 56(%rsp)
 2432      38000000 
 2432      00
 2433 0110 48C74424 		movq	$0, 64(%rsp)
 2433      40000000 
 2433      00
 2434 0119 48C74424 		movq	$0, 72(%rsp)
 2434      48000000 
 2434      00
 2435 0122 48C74424 		movq	$0, 80(%rsp)
 2435      50000000 
 2435      00
 2436 012b 48C74424 		movq	$0, 88(%rsp)
 2436      58000000 
 2436      00
 2437 0134 E8000000 		call	_ZNSt6localeC1Ev
 2437      00
 2438 0139 488B4424 		movq	32(%rsp), %rax
 2438      20
 2439 013e 488D7C24 		leaq	32(%rsp), %rdi
 2439      20
 2440 0143 488D7424 		leaq	40(%rsp), %rsi
 2440      28
 2441 0148 48C74424 		movq	$_ZTVSt15basic_stringbufIcSt11char_traitsIcESaIcEE+16, 40(%rsp)
 2441      28000000 
 2441      00
 2442 0151 C7442468 		movl	$16, 104(%rsp)
 2442      10000000 
 2443 0159 48C74424 		movq	$_ZNSs4_Rep20_S_empty_rep_storageE+24, 112(%rsp)
 2443      70000000 
 2443      00
 2444 0162 480378E8 		addq	-24(%rax), %rdi
 2445              	.LEHB69:
 2446 0166 E8000000 		call	_ZNSt9basic_iosIcSt11char_traitsIcEE4initEPSt15basic_streambufIcS1_E
 2446      00
 2447              	.LEHE69:
 2448 016b 488D7C24 		leaq	32(%rsp), %rdi
 2448      20
 2449 0170 BA0B0000 		movl	$11, %edx
 2449      00
 2450 0175 BE000000 		movl	$.LC5, %esi
 2450      00
 2451 017a 48C74424 		movq	$_ZTVN8UnitTest15MemoryOutStreamE+24, 32(%rsp)
 2451      20000000 
 2451      00
 2452 0183 48C78424 		movq	$_ZTVN8UnitTest15MemoryOutStreamE+64, 128(%rsp)
 2452      80000000 
 2452      00000000 
 2453 018f 48C74424 		movq	$_ZNSs4_Rep20_S_empty_rep_storageE+24, 120(%rsp)
 2453      78000000 
 2453      00
 2454              	.LEHB70:
 2455 0198 E8000000 		call	_ZSt16__ostream_insertIcSt11char_traitsIcEERSt13basic_ostreamIT_T0_ES6_PKS3_l
 2455      00
 2456 019d 83ED01   		subl	$1, %ebp
 2457 01a0 4531FF   		xorl	%r15d, %r15d
 2458 01a3 4883C501 		addq	$1, %rbp
 2459 01a7 660F1F84 		.p2align 4,,10
 2459      00000000 
 2459      00
 2460              		.p2align 3
 2461              	.L259:
 2462 01b0 488B03   		movq	(%rbx), %rax
 2463 01b3 488D7C24 		leaq	32(%rsp), %rdi
 2463      20
 2464 01b8 BA010000 		movl	$1, %edx
 2464      00
 2465 01bd 4889E6   		movq	%rsp, %rsi
 2466 01c0 420FB604 		movzbl	(%rax,%r15), %eax
 2466      38
 2467 01c5 880424   		movb	%al, (%rsp)
 2468 01c8 E8000000 		call	_ZSt16__ostream_insertIcSt11char_traitsIcEERSt13basic_ostreamIT_T0_ES6_PKS3_l
 2468      00
 2469 01cd BA010000 		movl	$1, %edx
 2469      00
 2470 01d2 BE000000 		movl	$.LC7, %esi
 2470      00
 2471 01d7 4889C7   		movq	%rax, %rdi
 2472 01da E8000000 		call	_ZSt16__ostream_insertIcSt11char_traitsIcEERSt13basic_ostreamIT_T0_ES6_PKS3_l
 2472      00
 2473 01df 4983C701 		addq	$1, %r15
 2474 01e3 4939EF   		cmpq	%rbp, %r15
 2475 01e6 75C8     		jne	.L259
 2476 01e8 488D7C24 		leaq	32(%rsp), %rdi
 2476      20
 2477 01ed BA0C0000 		movl	$12, %edx
 2477      00
 2478 01f2 BE000000 		movl	$.LC6, %esi
 2478      00
 2479 01f7 E8000000 		call	_ZSt16__ostream_insertIcSt11char_traitsIcEERSt13basic_ostreamIT_T0_ES6_PKS3_l
 2479      00
 2480 01fc 31DB     		xorl	%ebx, %ebx
 2481 01fe 6690     		.p2align 4,,10
 2482              		.p2align 3
 2483              	.L262:
 2484 0200 498B0424 		movq	(%r12), %rax
 2485 0204 488D7424 		leaq	16(%rsp), %rsi
 2485      10
 2486 0209 488D7C24 		leaq	32(%rsp), %rdi
 2486      20
 2487 020e BA010000 		movl	$1, %edx
 2487      00
 2488 0213 0FB60418 		movzbl	(%rax,%rbx), %eax
 2489 0217 88442410 		movb	%al, 16(%rsp)
 2490 021b E8000000 		call	_ZSt16__ostream_insertIcSt11char_traitsIcEERSt13basic_ostreamIT_T0_ES6_PKS3_l
 2490      00
 2491 0220 BA010000 		movl	$1, %edx
 2491      00
 2492 0225 BE000000 		movl	$.LC7, %esi
 2492      00
 2493 022a 4889C7   		movq	%rax, %rdi
 2494 022d E8000000 		call	_ZSt16__ostream_insertIcSt11char_traitsIcEERSt13basic_ostreamIT_T0_ES6_PKS3_l
 2494      00
 2495 0232 4883C301 		addq	$1, %rbx
 2496 0236 4839EB   		cmpq	%rbp, %rbx
 2497 0239 75C5     		jne	.L262
 2498 023b 488D7C24 		leaq	32(%rsp), %rdi
 2498      20
 2499 0240 BA010000 		movl	$1, %edx
 2499      00
 2500 0245 BE000000 		movl	$.LC8, %esi
 2500      00
 2501 024a E8000000 		call	_ZSt16__ostream_insertIcSt11char_traitsIcEERSt13basic_ostreamIT_T0_ES6_PKS3_l
 2501      00
 2502 024f 488D7C24 		leaq	32(%rsp), %rdi
 2502      20
 2503 0254 E8000000 		call	_ZNK8UnitTest15MemoryOutStream7GetTextEv
 2503      00
 2504 0259 4889C2   		movq	%rax, %rdx
 2505 025c 4C89F6   		movq	%r14, %rsi
 2506 025f 4C89EF   		movq	%r13, %rdi
 2507 0262 E8000000 		call	_ZN8UnitTest11TestResults13OnTestFailureERKNS_11TestDetailsEPKc
 2507      00
 2508              	.LEHE70:
 2509 0267 488B4424 		movq	120(%rsp), %rax
 2509      78
 2510 026c 48C74424 		movq	$_ZTVN8UnitTest15MemoryOutStreamE+24, 32(%rsp)
 2510      20000000 
 2510      00
 2511 0275 48C78424 		movq	$_ZTVN8UnitTest15MemoryOutStreamE+64, 128(%rsp)
 2511      80000000 
 2511      00000000 
 2512 0281 488D78E8 		leaq	-24(%rax), %rdi
 2513 0285 4881FF00 		cmpq	$_ZNSs4_Rep20_S_empty_rep_storageE, %rdi
 2513      000000
 2514 028c 0F85BF00 		jne	.L283
 2514      0000
 2515              	.L264:
 2516 0292 488B4424 		movq	112(%rsp), %rax
 2516      70
 2517 0297 48C74424 		movq	$_ZTCN8UnitTest15MemoryOutStreamE0_St19basic_ostringstreamIcSt11char_traitsIcESaIcEE+24, 32(%
 2517      20000000 
 2517      00
 2518 02a0 48C78424 		movq	$_ZTCN8UnitTest15MemoryOutStreamE0_St19basic_ostringstreamIcSt11char_traitsIcESaIcEE+64, 128(
 2518      80000000 
 2518      00000000 
 2519 02ac 48C74424 		movq	$_ZTVSt15basic_stringbufIcSt11char_traitsIcESaIcEE+16, 40(%rsp)
 2519      28000000 
 2519      00
 2520 02b5 488D78E8 		leaq	-24(%rax), %rdi
 2521 02b9 4881FF00 		cmpq	$_ZNSs4_Rep20_S_empty_rep_storageE, %rdi
 2521      000000
 2522 02c0 0F85B900 		jne	.L284
 2522      0000
 2523              	.L269:
 2524 02c6 488D7C24 		leaq	96(%rsp), %rdi
 2524      60
 2525 02cb 48C74424 		movq	$_ZTVSt15basic_streambufIcSt11char_traitsIcEE+16, 40(%rsp)
 2525      28000000 
 2525      00
 2526 02d4 E8000000 		call	_ZNSt6localeD1Ev
 2526      00
 2527 02d9 488DBC24 		leaq	128(%rsp), %rdi
 2527      80000000 
 2528 02e1 48C74424 		movq	$_ZTCN8UnitTest15MemoryOutStreamE0_So+24, 32(%rsp)
 2528      20000000 
 2528      00
 2529 02ea 48C78424 		movq	$_ZTVSt9basic_iosIcSt11char_traitsIcEE+16, 128(%rsp)
 2529      80000000 
 2529      00000000 
 2530              	.LEHB71:
 2531 02f6 E8000000 		call	_ZNSt8ios_baseD2Ev
 2531      00
 2532              	.LEHE71:
 2533 02fb E948FDFF 		jmp	.L249
 2533      FF
 2534              	.L275:
 2535 0300 4889C3   		movq	%rax, %rbx
 2536              	.L255:
 2537 0303 488DBC24 		leaq	128(%rsp), %rdi
 2537      80000000 
 2538 030b 48C78424 		movq	$_ZTVSt9basic_iosIcSt11char_traitsIcEE+16, 128(%rsp)
 2538      80000000 
 2538      00000000 
 2539 0317 E8000000 		call	_ZNSt8ios_baseD2Ev
 2539      00
 2540 031c 4889DF   		movq	%rbx, %rdi
 2541              	.LEHB72:
 2542 031f E8000000 		call	_Unwind_Resume
 2542      00
 2543              	.LEHE72:
 2544              	.L276:
 2545 0324 488D7C24 		leaq	40(%rsp), %rdi
 2545      28
 2546 0329 4889C3   		movq	%rax, %rbx
 2547 032c E8000000 		call	_ZNSt15basic_stringbufIcSt11char_traitsIcESaIcEED1Ev
 2547      00
 2548 0331 48C74424 		movq	$_ZTCN8UnitTest15MemoryOutStreamE0_So+24, 32(%rsp)
 2548      20000000 
 2548      00
 2549 033a EBC7     		jmp	.L255
 2550              	.L274:
 2551 033c 488D7C24 		leaq	32(%rsp), %rdi
 2551      20
 2552 0341 4889C3   		movq	%rax, %rbx
 2553 0344 E8000000 		call	_ZN8UnitTest15MemoryOutStreamD1Ev
 2553      00
 2554 0349 4889DF   		movq	%rbx, %rdi
 2555              	.LEHB73:
 2556 034c E8000000 		call	_Unwind_Resume
 2556      00
 2557              	.LEHE73:
 2558              	.L283:
 2559 0351 B9000000 		movl	$_ZL28__gthrw___pthread_key_createPjPFvPvE, %ecx
 2559      00
 2560 0356 488D5710 		leaq	16(%rdi), %rdx
 2561 035a 4885C9   		testq	%rcx, %rcx
 2562 035d 744E     		je	.L265
 2563 035f B8FFFFFF 		movl	$-1, %eax
 2563      FF
 2564 0364 F00FC102 		lock xaddl	%eax, (%rdx)
 2565              	.L266:
 2566 0368 85C0     		testl	%eax, %eax
 2567 036a 0F8F22FF 		jg	.L264
 2567      FFFF
 2568 0370 488D7424 		leaq	31(%rsp), %rsi
 2568      1F
 2569 0375 E8000000 		call	_ZNSs4_Rep10_M_destroyERKSaIcE
 2569      00
 2570 037a E913FFFF 		jmp	.L264
 2570      FF
 2571              	.L284:
 2572 037f B9000000 		movl	$_ZL28__gthrw___pthread_key_createPjPFvPvE, %ecx
 2572      00
 2573 0384 488D5710 		leaq	16(%rdi), %rdx
 2574 0388 4885C9   		testq	%rcx, %rcx
 2575 038b 742D     		je	.L270
 2576 038d B8FFFFFF 		movl	$-1, %eax
 2576      FF
 2577 0392 F00FC102 		lock xaddl	%eax, (%rdx)
 2578              	.L271:
 2579 0396 85C0     		testl	%eax, %eax
 2580 0398 0F8F28FF 		jg	.L269
 2580      FFFF
 2581 039e 488D7424 		leaq	31(%rsp), %rsi
 2581      1F
 2582 03a3 E8000000 		call	_ZNSs4_Rep10_M_destroyERKSaIcE
 2582      00
 2583 03a8 E919FFFF 		jmp	.L269
 2583      FF
 2584              	.L265:
 2585 03ad 8B50F8   		movl	-8(%rax), %edx
 2586 03b0 8D4AFF   		leal	-1(%rdx), %ecx
 2587 03b3 8948F8   		movl	%ecx, -8(%rax)
 2588 03b6 89D0     		movl	%edx, %eax
 2589 03b8 EBAE     		jmp	.L266
 2590              	.L270:
 2591 03ba 8B50F8   		movl	-8(%rax), %edx
 2592 03bd 8D4AFF   		leal	-1(%rdx), %ecx
 2593 03c0 8948F8   		movl	%ecx, -8(%rax)
 2594 03c3 89D0     		movl	%edx, %eax
 2595 03c5 EBCF     		jmp	.L271
 2596              		.cfi_endproc
 2597              	.LFE1241:
 2598              		.section	.gcc_except_table
 2599              	.LLSDA1241:
 2600 0184 FF       		.byte	0xff
 2601 0185 FF       		.byte	0xff
 2602 0186 01       		.byte	0x1
 2603 0187 22       		.uleb128 .LLSDACSE1241-.LLSDACSB1241
 2604              	.LLSDACSB1241:
 2605 0188 D601     		.uleb128 .LEHB68-.LFB1241
 2606 018a 05       		.uleb128 .LEHE68-.LEHB68
 2607 018b 8006     		.uleb128 .L275-.LFB1241
 2608 018d 00       		.uleb128 0
 2609 018e E602     		.uleb128 .LEHB69-.LFB1241
 2610 0190 05       		.uleb128 .LEHE69-.LEHB69
 2611 0191 A406     		.uleb128 .L276-.LFB1241
 2612 0193 00       		.uleb128 0
 2613 0194 9803     		.uleb128 .LEHB70-.LFB1241
 2614 0196 CF01     		.uleb128 .LEHE70-.LEHB70
 2615 0198 BC06     		.uleb128 .L274-.LFB1241
 2616 019a 00       		.uleb128 0
 2617 019b F605     		.uleb128 .LEHB71-.LFB1241
 2618 019d 05       		.uleb128 .LEHE71-.LEHB71
 2619 019e 00       		.uleb128 0
 2620 019f 00       		.uleb128 0
 2621 01a0 9F06     		.uleb128 .LEHB72-.LFB1241
 2622 01a2 05       		.uleb128 .LEHE72-.LEHB72
 2623 01a3 00       		.uleb128 0
 2624 01a4 00       		.uleb128 0
 2625 01a5 CC06     		.uleb128 .LEHB73-.LFB1241
 2626 01a7 05       		.uleb128 .LEHE73-.LEHB73
 2627 01a8 00       		.uleb128 0
 2628 01a9 00       		.uleb128 0
 2629              	.LLSDACSE1241:
 2630              		.section	.text._ZN8UnitTest15CheckArrayEqualIPKcPcEEvRNS_11TestResultsERKT_RKT0_iRKNS_11TestDetail
 2632              		.section	.rodata.str1.1
 2633              	.LC15:
 2634 0065 66696C65 		.string	"file.is_open()"
 2634      2E69735F 
 2634      6F70656E 
 2634      282900
 2635              		.section	.rodata.str1.8
 2636              		.align 8
 2637              	.LC16:
 2638 0180 556E6861 		.string	"Unhandled exception in CHECK(file.is_open())"
 2638      6E646C65 
 2638      64206578 
 2638      63657074 
 2638      696F6E20 
 2639 01ad 000000   		.align 8
 2640              	.LC17:
 2641 01b0 556E6861 		.string	"Unhandled exception in CHECK_EQUAL(strlen(DATA), (size_t)length)"
 2641      6E646C65 
 2641      64206578 
 2641      63657074 
 2641      696F6E20 
 2642 01f1 00000000 		.align 8
 2642      000000
 2643              	.LC18:
 2644 01f8 556E6861 		.string	"Unhandled exception in CHECK_ARRAY_EQUAL(DATA, fileData)"
 2644      6E646C65 
 2644      64206578 
 2644      63657074 
 2644      696F6E20 
 2645 0231 00000000 		.align 8
 2645      000000
 2646              	.LC19:
 2647 0238 556E6861 		.string	"Unhandled exception in CHECK_EQUAL(9, length)"
 2647      6E646C65 
 2647      64206578 
 2647      63657074 
 2647      696F6E20 
 2648 0266 0000     		.align 8
 2649              	.LC20:
 2650 0268 556E6861 		.string	"Unhandled exception in CHECK_ARRAY_EQUAL(DATA+5, fileData)"
 2650      6E646C65 
 2650      64206578 
 2650      63657074 
 2650      696F6E20 
 2651              		.text
 2652              		.align 2
 2653 0c4a 660F1F44 		.p2align 4,,15
 2653      0000
 2654              		.globl	_ZNK23TestBinIO_testWriteFile7RunImplEv
 2656              	_ZNK23TestBinIO_testWriteFile7RunImplEv:
 2657              	.LFB1184:
 2658              		.cfi_startproc
 2659              		.cfi_personality 0x3,__gxx_personality_v0
 2660              		.cfi_lsda 0x3,.LLSDA1184
 2661 0c50 4157     		pushq	%r15
 2662              		.cfi_def_cfa_offset 16
 2663              		.cfi_offset 15, -16
 2664 0c52 4156     		pushq	%r14
 2665              		.cfi_def_cfa_offset 24
 2666              		.cfi_offset 14, -24
 2667 0c54 4155     		pushq	%r13
 2668              		.cfi_def_cfa_offset 32
 2669              		.cfi_offset 13, -32
 2670 0c56 4154     		pushq	%r12
 2671              		.cfi_def_cfa_offset 40
 2672              		.cfi_offset 12, -40
 2673 0c58 55       		pushq	%rbp
 2674              		.cfi_def_cfa_offset 48
 2675              		.cfi_offset 6, -48
 2676 0c59 53       		pushq	%rbx
 2677              		.cfi_def_cfa_offset 56
 2678              		.cfi_offset 3, -56
 2679 0c5a 4881EC08 		subq	$1032, %rsp
 2679      040000
 2680              		.cfi_def_cfa_offset 1088
 2681 0c61 488DBC24 		leaq	752(%rsp), %rdi
 2681      F0020000 
 2682 0c69 48C74424 		movq	$.LC9, 16(%rsp)
 2682      10000000 
 2682      00
 2683 0c72 64488B04 		movq	%fs:40, %rax
 2683      25280000 
 2683      00
 2684 0c7b 48898424 		movq	%rax, 1016(%rsp)
 2684      F8030000 
 2685 0c83 31C0     		xorl	%eax, %eax
 2686 0c85 E8000000 		call	_ZNSt8ios_baseC2Ev
 2686      00
 2687 0c8a 488B2D00 		movq	_ZTTSt14basic_ifstreamIcSt11char_traitsIcEE+8(%rip), %rbp
 2687      000000
 2688 0c91 C68424D0 		movb	$0, 976(%rsp)
 2688      03000000 
 2689 0c99 488DBC24 		leaq	496(%rsp), %rdi
 2689      F0010000 
 2690 0ca1 488B0D00 		movq	_ZTTSt14basic_ifstreamIcSt11char_traitsIcEE+16(%rip), %rcx
 2690      000000
 2691 0ca8 48C78424 		movq	$_ZTVSt9basic_iosIcSt11char_traitsIcEE+16, 752(%rsp)
 2691      F0020000 
 2691      00000000 
 2692 0cb4 31F6     		xorl	%esi, %esi
 2693 0cb6 48C78424 		movq	$0, 968(%rsp)
 2693      C8030000 
 2693      00000000 
 2694 0cc2 C68424D1 		movb	$0, 977(%rsp)
 2694      03000000 
 2695 0cca 488B45E8 		movq	-24(%rbp), %rax
 2696 0cce 48C78424 		movq	$0, 984(%rsp)
 2696      D8030000 
 2696      00000000 
 2697 0cda 48C78424 		movq	$0, 992(%rsp)
 2697      E0030000 
 2697      00000000 
 2698 0ce6 48C78424 		movq	$0, 1000(%rsp)
 2698      E8030000 
 2698      00000000 
 2699 0cf2 48C78424 		movq	$0, 1008(%rsp)
 2699      F0030000 
 2699      00000000 
 2700 0cfe 4889AC24 		movq	%rbp, 496(%rsp)
 2700      F0010000 
 2701 0d06 48898C04 		movq	%rcx, 496(%rsp,%rax)
 2701      F0010000 
 2702 0d0e 48C78424 		movq	$0, 504(%rsp)
 2702      F8010000 
 2702      00000000 
 2703 0d1a 48037DE8 		addq	-24(%rbp), %rdi
 2704              	.LEHB74:
 2705 0d1e E8000000 		call	_ZNSt9basic_iosIcSt11char_traitsIcEE4initEPSt15basic_streambufIcS1_E
 2705      00
 2706              	.LEHE74:
 2707 0d23 488D8424 		leaq	496(%rsp), %rax
 2707      F0010000 
 2708 0d2b 48C78424 		movq	$_ZTVSt14basic_ifstreamIcSt11char_traitsIcEE+24, 496(%rsp)
 2708      F0010000 
 2708      00000000 
 2709 0d37 48C78424 		movq	$_ZTVSt14basic_ifstreamIcSt11char_traitsIcEE+64, 752(%rsp)
 2709      F0020000 
 2709      00000000 
 2710 0d43 488D7810 		leaq	16(%rax), %rdi
 2711              	.LEHB75:
 2712 0d47 E8000000 		call	_ZNSt13basic_filebufIcSt11char_traitsIcEEC1Ev
 2712      00
 2713              	.LEHE75:
 2714 0d4c 488D8424 		leaq	496(%rsp), %rax
 2714      F0010000 
 2715 0d54 488D7010 		leaq	16(%rax), %rsi
 2716 0d58 488DB800 		leaq	256(%rax), %rdi
 2716      010000
 2717              	.LEHB76:
 2718 0d5f E8000000 		call	_ZNSt9basic_iosIcSt11char_traitsIcEE4initEPSt15basic_streambufIcS1_E
 2718      00
 2719              	.LEHE76:
 2720 0d64 488D7C24 		leaq	64(%rsp), %rdi
 2720      40
 2721 0d69 31C9     		xorl	%ecx, %ecx
 2722 0d6b 31D2     		xorl	%edx, %edx
 2723 0d6d BE080000 		movl	$8, %esi
 2723      00
 2724              	.LEHB77:
 2725 0d72 E8000000 		call	bufInitialise
 2725      00
 2726              	.LEHE77:
 2727 0d77 890424   		movl	%eax, (%rsp)
 2728              	.LEHB78:
 2729 0d7a E8000000 		call	_ZN8UnitTest11CurrentTest7DetailsEv
 2729      00
 2730 0d7f 488D9C24 		leaq	128(%rsp), %rbx
 2730      80000000 
 2731 0d87 488B30   		movq	(%rax), %rsi
 2732 0d8a BA3F0000 		movl	$63, %edx
 2732      00
 2733 0d8f 4889DF   		movq	%rbx, %rdi
 2734 0d92 E8000000 		call	_ZN8UnitTest11TestDetailsC1ERKS0_i
 2734      00
 2735 0d97 C7442460 		movl	$0, 96(%rsp)
 2735      00000000 
 2736 0d9f E8000000 		call	_ZN8UnitTest11CurrentTest7ResultsEv
 2736      00
 2737 0da4 488B38   		movq	(%rax), %rdi
 2738 0da7 488D7424 		leaq	96(%rsp), %rsi
 2738      60
 2739 0dac 4889D9   		movq	%rbx, %rcx
 2740 0daf 4889E2   		movq	%rsp, %rdx
 2741 0db2 E8000000 		call	_ZN8UnitTest10CheckEqualI12BufferStatusS1_EEvRNS_11TestResultsERKT_RKT0_RKNS_11TestDetailsE
 2741      00
 2742              	.LEHE78:
 2743              	.L329:
 2744 0db7 488D7C24 		leaq	64(%rsp), %rdi
 2744      40
 2745 0dbc 31C9     		xorl	%ecx, %ecx
 2746 0dbe BA130000 		movl	$19, %edx
 2746      00
 2747 0dc3 BE000000 		movl	$.LC9, %esi
 2747      00
 2748              	.LEHB79:
 2749 0dc8 E8000000 		call	bufAppendBlock
 2749      00
 2750              	.LEHE79:
 2751 0dcd 890424   		movl	%eax, (%rsp)
 2752              	.LEHB80:
 2753 0dd0 E8000000 		call	_ZN8UnitTest11CurrentTest7DetailsEv
 2753      00
 2754 0dd5 488B30   		movq	(%rax), %rsi
 2755 0dd8 BA410000 		movl	$65, %edx
 2755      00
 2756 0ddd 4889DF   		movq	%rbx, %rdi
 2757 0de0 E8000000 		call	_ZN8UnitTest11TestDetailsC1ERKS0_i
 2757      00
 2758 0de5 C7442460 		movl	$0, 96(%rsp)
 2758      00000000 
 2759 0ded E8000000 		call	_ZN8UnitTest11CurrentTest7ResultsEv
 2759      00
 2760 0df2 488B38   		movq	(%rax), %rdi
 2761 0df5 488D7424 		leaq	96(%rsp), %rsi
 2761      60
 2762 0dfa 4889D9   		movq	%rbx, %rcx
 2763 0dfd 4889E2   		movq	%rsp, %rdx
 2764 0e00 E8000000 		call	_ZN8UnitTest10CheckEqualI12BufferStatusS1_EEvRNS_11TestResultsERKT_RKT0_RKNS_11TestDetailsE
 2764      00
 2765              	.LEHE80:
 2766              	.L332:
 2767 0e05 488B4C24 		movq	72(%rsp), %rcx
 2767      48
 2768 0e0a 488D7C24 		leaq	64(%rsp), %rdi
 2768      40
 2769 0e0f 4531C0   		xorl	%r8d, %r8d
 2770 0e12 31D2     		xorl	%edx, %edx
 2771 0e14 BE000000 		movl	$.LC10, %esi
 2771      00
 2772              	.LEHB81:
 2773 0e19 E8000000 		call	bufWriteBinaryFile
 2773      00
 2774              	.LEHE81:
 2775 0e1e 890424   		movl	%eax, (%rsp)
 2776              	.LEHB82:
 2777 0e21 E8000000 		call	_ZN8UnitTest11CurrentTest7DetailsEv
 2777      00
 2778 0e26 488B30   		movq	(%rax), %rsi
 2779 0e29 BA440000 		movl	$68, %edx
 2779      00
 2780 0e2e 4889DF   		movq	%rbx, %rdi
 2781 0e31 E8000000 		call	_ZN8UnitTest11TestDetailsC1ERKS0_i
 2781      00
 2782 0e36 C7442460 		movl	$0, 96(%rsp)
 2782      00000000 
 2783 0e3e E8000000 		call	_ZN8UnitTest11CurrentTest7ResultsEv
 2783      00
 2784 0e43 488B38   		movq	(%rax), %rdi
 2785 0e46 488D7424 		leaq	96(%rsp), %rsi
 2785      60
 2786 0e4b 4889D9   		movq	%rbx, %rcx
 2787 0e4e 4889E2   		movq	%rsp, %rdx
 2788 0e51 E8000000 		call	_ZN8UnitTest10CheckEqualI12BufferStatusS1_EEvRNS_11TestResultsERKT_RKT0_RKNS_11TestDetailsE
 2788      00
 2789              	.LEHE82:
 2790              	.L335:
 2791 0e56 488D8424 		leaq	496(%rsp), %rax
 2791      F0010000 
 2792 0e5e BA0E0000 		movl	$14, %edx
 2792      00
 2793 0e63 BE000000 		movl	$.LC10, %esi
 2793      00
 2794 0e68 488D7810 		leaq	16(%rax), %rdi
 2795              	.LEHB83:
 2796 0e6c E8000000 		call	_ZNSt13basic_filebufIcSt11char_traitsIcEE4openEPKcSt13_Ios_Openmode
 2796      00
 2797 0e71 4885C0   		testq	%rax, %rax
 2798 0e74 488DBC24 		leaq	496(%rsp), %rdi
 2798      F0010000 
 2799 0e7c 488B8424 		movq	496(%rsp), %rax
 2799      F0010000 
 2800 0e84 0F84C605 		je	.L399
 2800      0000
 2801 0e8a 480378E8 		addq	-24(%rax), %rdi
 2802 0e8e 31F6     		xorl	%esi, %esi
 2803 0e90 E8000000 		call	_ZNSt9basic_iosIcSt11char_traitsIcEE5clearESt12_Ios_Iostate
 2803      00
 2804              	.LEHE83:
 2805              	.L293:
 2806 0e95 488DBC24 		leaq	616(%rsp), %rdi
 2806      68020000 
 2807 0e9d E8000000 		call	_ZNKSt12__basic_fileIcE7is_openEv
 2807      00
 2808 0ea2 84C0     		testb	%al, %al
 2809 0ea4 752A     		jne	.L294
 2810              	.LEHB84:
 2811 0ea6 E8000000 		call	_ZN8UnitTest11CurrentTest7DetailsEv
 2811      00
 2812 0eab 488B30   		movq	(%rax), %rsi
 2813 0eae BA460000 		movl	$70, %edx
 2813      00
 2814 0eb3 4889DF   		movq	%rbx, %rdi
 2815 0eb6 E8000000 		call	_ZN8UnitTest11TestDetailsC1ERKS0_i
 2815      00
 2816 0ebb E8000000 		call	_ZN8UnitTest11CurrentTest7ResultsEv
 2816      00
 2817 0ec0 488B38   		movq	(%rax), %rdi
 2818 0ec3 BA000000 		movl	$.LC15, %edx
 2818      00
 2819 0ec8 4889DE   		movq	%rbx, %rsi
 2820 0ecb E8000000 		call	_ZN8UnitTest11TestResults13OnTestFailureERKNS_11TestDetailsEPKc
 2820      00
 2821              	.LEHE84:
 2822              	.L294:
 2823 0ed0 488DBC24 		leaq	496(%rsp), %rdi
 2823      F0010000 
 2824              	.LEHB85:
 2825 0ed8 E8000000 		call	_ZNSi5tellgEv
 2825      00
 2826              	.LEHE85:
 2827 0edd 4989C4   		movq	%rax, %r12
 2828              	.LEHB86:
 2829 0ee0 E8000000 		call	_ZN8UnitTest11CurrentTest7DetailsEv
 2829      00
 2830 0ee5 488B30   		movq	(%rax), %rsi
 2831 0ee8 BA480000 		movl	$72, %edx
 2831      00
 2832 0eed 4889DF   		movq	%rbx, %rdi
 2833 0ef0 E8000000 		call	_ZN8UnitTest11TestDetailsC1ERKS0_i
 2833      00
 2834 0ef5 4C896424 		movq	%r12, 96(%rsp)
 2834      60
 2835 0efa 48C74424 		movq	$19, 48(%rsp)
 2835      30130000 
 2835      00
 2836 0f03 E8000000 		call	_ZN8UnitTest11CurrentTest7ResultsEv
 2836      00
 2837 0f08 488B38   		movq	(%rax), %rdi
 2838 0f0b 488D5424 		leaq	96(%rsp), %rdx
 2838      60
 2839 0f10 488D7424 		leaq	48(%rsp), %rsi
 2839      30
 2840 0f15 4889D9   		movq	%rbx, %rcx
 2841 0f18 E8000000 		call	_ZN8UnitTest10CheckEqualImmEEvRNS_11TestResultsERKT_RKT0_RKNS_11TestDetailsE
 2841      00
 2842              	.LEHE86:
 2843              	.L340:
 2844 0f1d 4489E7   		movl	%r12d, %edi
 2845              	.LEHB87:
 2846 0f20 E8000000 		call	_Znam
 2846      00
 2847 0f25 488DBC24 		leaq	496(%rsp), %rdi
 2847      F0010000 
 2848 0f2d 31D2     		xorl	%edx, %edx
 2849 0f2f 31F6     		xorl	%esi, %esi
 2850 0f31 48894424 		movq	%rax, 32(%rsp)
 2850      20
 2851 0f36 E8000000 		call	_ZNSi5seekgElSt12_Ios_Seekdir
 2851      00
 2852 0f3b 488B7424 		movq	32(%rsp), %rsi
 2852      20
 2853 0f40 488DBC24 		leaq	496(%rsp), %rdi
 2853      F0010000 
 2854 0f48 4C89E2   		movq	%r12, %rdx
 2855 0f4b E8000000 		call	_ZNSi4readEPcl
 2855      00
 2856 0f50 488D8424 		leaq	496(%rsp), %rax
 2856      F0010000 
 2857 0f58 488D7810 		leaq	16(%rax), %rdi
 2858 0f5c E8000000 		call	_ZNSt13basic_filebufIcSt11char_traitsIcEE5closeEv
 2858      00
 2859              	.LEHE87:
 2860 0f61 4885C0   		testq	%rax, %rax
 2861 0f64 0F841605 		je	.L295
 2861      0000
 2862              	.L297:
 2863              	.LEHB88:
 2864 0f6a E8000000 		call	_ZN8UnitTest11CurrentTest7DetailsEv
 2864      00
 2865 0f6f 488B30   		movq	(%rax), %rsi
 2866 0f72 BA4D0000 		movl	$77, %edx
 2866      00
 2867 0f77 4889DF   		movq	%rbx, %rdi
 2868 0f7a E8000000 		call	_ZN8UnitTest11TestDetailsC1ERKS0_i
 2868      00
 2869 0f7f E8000000 		call	_ZN8UnitTest11CurrentTest7ResultsEv
 2869      00
 2870 0f84 488B38   		movq	(%rax), %rdi
 2871 0f87 488D5424 		leaq	32(%rsp), %rdx
 2871      20
 2872 0f8c 488D7424 		leaq	16(%rsp), %rsi
 2872      10
 2873 0f91 4989D8   		movq	%rbx, %r8
 2874 0f94 4489E1   		movl	%r12d, %ecx
 2875 0f97 E8000000 		call	_ZN8UnitTest15CheckArrayEqualIPKcPcEEvRNS_11TestResultsERKT_RKT0_iRKNS_11TestDetailsE
 2875      00
 2876              	.LEHE88:
 2877              	.L343:
 2878 0f9c 488D7C24 		leaq	64(%rsp), %rdi
 2878      40
 2879 0fa1 4531C0   		xorl	%r8d, %r8d
 2880 0fa4 B9090000 		movl	$9, %ecx
 2880      00
 2881 0fa9 BA050000 		movl	$5, %edx
 2881      00
 2882 0fae BE000000 		movl	$.LC10, %esi
 2882      00
 2883              	.LEHB89:
 2884 0fb3 E8000000 		call	bufWriteBinaryFile
 2884      00
 2885              	.LEHE89:
 2886 0fb8 890424   		movl	%eax, (%rsp)
 2887              	.LEHB90:
 2888 0fbb E8000000 		call	_ZN8UnitTest11CurrentTest7DetailsEv
 2888      00
 2889 0fc0 488B30   		movq	(%rax), %rsi
 2890 0fc3 BA500000 		movl	$80, %edx
 2890      00
 2891 0fc8 4889DF   		movq	%rbx, %rdi
 2892 0fcb E8000000 		call	_ZN8UnitTest11TestDetailsC1ERKS0_i
 2892      00
 2893 0fd0 C7442460 		movl	$0, 96(%rsp)
 2893      00000000 
 2894 0fd8 E8000000 		call	_ZN8UnitTest11CurrentTest7ResultsEv
 2894      00
 2895 0fdd 488B38   		movq	(%rax), %rdi
 2896 0fe0 488D7424 		leaq	96(%rsp), %rsi
 2896      60
 2897 0fe5 4889D9   		movq	%rbx, %rcx
 2898 0fe8 4889E2   		movq	%rsp, %rdx
 2899 0feb E8000000 		call	_ZN8UnitTest10CheckEqualI12BufferStatusS1_EEvRNS_11TestResultsERKT_RKT0_RKNS_11TestDetailsE
 2899      00
 2900              	.LEHE90:
 2901              	.L346:
 2902 0ff0 488D8424 		leaq	496(%rsp), %rax
 2902      F0010000 
 2903 0ff8 BA0E0000 		movl	$14, %edx
 2903      00
 2904 0ffd BE000000 		movl	$.LC10, %esi
 2904      00
 2905 1002 488D7810 		leaq	16(%rax), %rdi
 2906              	.LEHB91:
 2907 1006 E8000000 		call	_ZNSt13basic_filebufIcSt11char_traitsIcEE4openEPKcSt13_Ios_Openmode
 2907      00
 2908 100b 4885C0   		testq	%rax, %rax
 2909 100e 488DBC24 		leaq	496(%rsp), %rdi
 2909      F0010000 
 2910 1016 488B8424 		movq	496(%rsp), %rax
 2910      F0010000 
 2911 101e 0F844404 		je	.L400
 2911      0000
 2912 1024 480378E8 		addq	-24(%rax), %rdi
 2913 1028 31F6     		xorl	%esi, %esi
 2914 102a E8000000 		call	_ZNSt9basic_iosIcSt11char_traitsIcEE5clearESt12_Ios_Iostate
 2914      00
 2915              	.LEHE91:
 2916              	.L301:
 2917 102f 488DBC24 		leaq	616(%rsp), %rdi
 2917      68020000 
 2918 1037 E8000000 		call	_ZNKSt12__basic_fileIcE7is_openEv
 2918      00
 2919 103c 84C0     		testb	%al, %al
 2920 103e 752A     		jne	.L302
 2921              	.LEHB92:
 2922 1040 E8000000 		call	_ZN8UnitTest11CurrentTest7DetailsEv
 2922      00
 2923 1045 488B30   		movq	(%rax), %rsi
 2924 1048 BA520000 		movl	$82, %edx
 2924      00
 2925 104d 4889DF   		movq	%rbx, %rdi
 2926 1050 E8000000 		call	_ZN8UnitTest11TestDetailsC1ERKS0_i
 2926      00
 2927 1055 E8000000 		call	_ZN8UnitTest11CurrentTest7ResultsEv
 2927      00
 2928 105a 488B38   		movq	(%rax), %rdi
 2929 105d BA000000 		movl	$.LC15, %edx
 2929      00
 2930 1062 4889DE   		movq	%rbx, %rsi
 2931 1065 E8000000 		call	_ZN8UnitTest11TestResults13OnTestFailureERKNS_11TestDetailsEPKc
 2931      00
 2932              	.LEHE92:
 2933              	.L302:
 2934 106a 488DBC24 		leaq	496(%rsp), %rdi
 2934      F0010000 
 2935              	.LEHB93:
 2936 1072 E8000000 		call	_ZNSi5tellgEv
 2936      00
 2937              	.LEHE93:
 2938 1077 4989C5   		movq	%rax, %r13
 2939              	.LEHB94:
 2940 107a E8000000 		call	_ZN8UnitTest11CurrentTest7DetailsEv
 2940      00
 2941 107f 4C8D6424 		leaq	96(%rsp), %r12
 2941      60
 2942 1084 488B30   		movq	(%rax), %rsi
 2943 1087 BA540000 		movl	$84, %edx
 2943      00
 2944 108c 4C89E7   		movq	%r12, %rdi
 2945 108f E8000000 		call	_ZN8UnitTest11TestDetailsC1ERKS0_i
 2945      00
 2946 1094 E8000000 		call	_ZN8UnitTest11CurrentTest7ResultsEv
 2946      00
 2947              	.LEHE94:
 2948 1099 4983FD09 		cmpq	$9, %r13
 2949 109d 4C8B38   		movq	(%rax), %r15
 2950 10a0 0F844702 		je	.L350
 2950      0000
 2951 10a6 4C8D7360 		leaq	96(%rbx), %r14
 2952 10aa 4C89F7   		movq	%r14, %rdi
 2953 10ad E8000000 		call	_ZNSt8ios_baseC2Ev
 2953      00
 2954 10b2 31F6     		xorl	%esi, %esi
 2955 10b4 4C89F7   		movq	%r14, %rdi
 2956 10b7 48C78424 		movq	$0, 440(%rsp)
 2956      B8010000 
 2956      00000000 
 2957 10c3 C68424C0 		movb	$0, 448(%rsp)
 2957      01000000 
 2958 10cb C68424C1 		movb	$0, 449(%rsp)
 2958      01000000 
 2959 10d3 48C78424 		movq	$0, 456(%rsp)
 2959      C8010000 
 2959      00000000 
 2960 10df 48C78424 		movq	$0, 464(%rsp)
 2960      D0010000 
 2960      00000000 
 2961 10eb 48C78424 		movq	$0, 472(%rsp)
 2961      D8010000 
 2961      00000000 
 2962 10f7 48C78424 		movq	$0, 480(%rsp)
 2962      E0010000 
 2962      00000000 
 2963 1103 48C78424 		movq	$_ZTCN8UnitTest15MemoryOutStreamE0_So+24, 128(%rsp)
 2963      80000000 
 2963      00000000 
 2964 110f 48C78424 		movq	$_ZTCN8UnitTest15MemoryOutStreamE0_So+64, 224(%rsp)
 2964      E0000000 
 2964      00000000 
 2965              	.LEHB95:
 2966 111b E8000000 		call	_ZNSt9basic_iosIcSt11char_traitsIcEE4initEPSt15basic_streambufIcS1_E
 2966      00
 2967              	.LEHE95:
 2968 1120 488D7B40 		leaq	64(%rbx), %rdi
 2969 1124 48C78424 		movq	$_ZTCN8UnitTest15MemoryOutStreamE0_St19basic_ostringstreamIcSt11char_traitsIcESaIcEE+24, 128(
 2969      80000000 
 2969      00000000 
 2970 1130 48C78424 		movq	$_ZTCN8UnitTest15MemoryOutStreamE0_St19basic_ostringstreamIcSt11char_traitsIcESaIcEE+64, 224(
 2970      E0000000 
 2970      00000000 
 2971 113c 48C78424 		movq	$_ZTVSt15basic_streambufIcSt11char_traitsIcEE+16, 136(%rsp)
 2971      88000000 
 2971      00000000 
 2972 1148 48C78424 		movq	$0, 144(%rsp)
 2972      90000000 
 2972      00000000 
 2973 1154 48C78424 		movq	$0, 152(%rsp)
 2973      98000000 
 2973      00000000 
 2974 1160 48C78424 		movq	$0, 160(%rsp)
 2974      A0000000 
 2974      00000000 
 2975 116c 48C78424 		movq	$0, 168(%rsp)
 2975      A8000000 
 2975      00000000 
 2976 1178 48C78424 		movq	$0, 176(%rsp)
 2976      B0000000 
 2976      00000000 
 2977 1184 48C78424 		movq	$0, 184(%rsp)
 2977      B8000000 
 2977      00000000 
 2978 1190 E8000000 		call	_ZNSt6localeC1Ev
 2978      00
 2979 1195 488B8424 		movq	128(%rsp), %rax
 2979      80000000 
 2980 119d 4889DF   		movq	%rbx, %rdi
 2981 11a0 488D7308 		leaq	8(%rbx), %rsi
 2982 11a4 48C78424 		movq	$_ZTVSt15basic_stringbufIcSt11char_traitsIcESaIcEE+16, 136(%rsp)
 2982      88000000 
 2982      00000000 
 2983 11b0 C78424C8 		movl	$16, 200(%rsp)
 2983      00000010 
 2983      000000
 2984 11bb 48C78424 		movq	$_ZNSs4_Rep20_S_empty_rep_storageE+24, 208(%rsp)
 2984      D0000000 
 2984      00000000 
 2985 11c7 480378E8 		addq	-24(%rax), %rdi
 2986              	.LEHB96:
 2987 11cb E8000000 		call	_ZNSt9basic_iosIcSt11char_traitsIcEE4initEPSt15basic_streambufIcS1_E
 2987      00
 2988              	.LEHE96:
 2989 11d0 BA090000 		movl	$9, %edx
 2989      00
 2990 11d5 BE000000 		movl	$.LC0, %esi
 2990      00
 2991 11da 4889DF   		movq	%rbx, %rdi
 2992 11dd 48C78424 		movq	$_ZTVN8UnitTest15MemoryOutStreamE+24, 128(%rsp)
 2992      80000000 
 2992      00000000 
 2993 11e9 48C78424 		movq	$_ZTVN8UnitTest15MemoryOutStreamE+64, 224(%rsp)
 2993      E0000000 
 2993      00000000 
 2994 11f5 48C78424 		movq	$_ZNSs4_Rep20_S_empty_rep_storageE+24, 216(%rsp)
 2994      D8000000 
 2994      00000000 
 2995              	.LEHB97:
 2996 1201 E8000000 		call	_ZSt16__ostream_insertIcSt11char_traitsIcEERSt13basic_ostreamIT_T0_ES6_PKS3_l
 2996      00
 2997 1206 BE090000 		movl	$9, %esi
 2997      00
 2998 120b 4889DF   		movq	%rbx, %rdi
 2999 120e E8000000 		call	_ZNSolsEi
 2999      00
 3000 1213 BA090000 		movl	$9, %edx
 3000      00
 3001 1218 BE000000 		movl	$.LC1, %esi
 3001      00
 3002 121d 4889C7   		movq	%rax, %rdi
 3003 1220 4989C6   		movq	%rax, %r14
 3004 1223 E8000000 		call	_ZSt16__ostream_insertIcSt11char_traitsIcEERSt13basic_ostreamIT_T0_ES6_PKS3_l
 3004      00
 3005 1228 4C89EE   		movq	%r13, %rsi
 3006 122b 4C89F7   		movq	%r14, %rdi
 3007 122e E8000000 		call	_ZNSo9_M_insertIlEERSoT_
 3007      00
 3008 1233 4889DF   		movq	%rbx, %rdi
 3009 1236 E8000000 		call	_ZNK8UnitTest15MemoryOutStream7GetTextEv
 3009      00
 3010 123b 4889C2   		movq	%rax, %rdx
 3011 123e 4C89E6   		movq	%r12, %rsi
 3012 1241 4C89FF   		movq	%r15, %rdi
 3013 1244 E8000000 		call	_ZN8UnitTest11TestResults13OnTestFailureERKNS_11TestDetailsEPKc
 3013      00
 3014              	.LEHE97:
 3015 1249 488B8424 		movq	216(%rsp), %rax
 3015      D8000000 
 3016 1251 48C78424 		movq	$_ZTVN8UnitTest15MemoryOutStreamE+24, 128(%rsp)
 3016      80000000 
 3016      00000000 
 3017 125d 48C78424 		movq	$_ZTVN8UnitTest15MemoryOutStreamE+64, 224(%rsp)
 3017      E0000000 
 3017      00000000 
 3018 1269 488D78E8 		leaq	-24(%rax), %rdi
 3019 126d 4881FF00 		cmpq	$_ZNSs4_Rep20_S_empty_rep_storageE, %rdi
 3019      000000
 3020 1274 0F858702 		jne	.L401
 3020      0000
 3021              	.L310:
 3022 127a 488B8424 		movq	208(%rsp), %rax
 3022      D0000000 
 3023 1282 48C78424 		movq	$_ZTCN8UnitTest15MemoryOutStreamE0_St19basic_ostringstreamIcSt11char_traitsIcESaIcEE+24, 128(
 3023      80000000 
 3023      00000000 
 3024 128e 48C78424 		movq	$_ZTCN8UnitTest15MemoryOutStreamE0_St19basic_ostringstreamIcSt11char_traitsIcESaIcEE+64, 224(
 3024      E0000000 
 3024      00000000 
 3025 129a 48C78424 		movq	$_ZTVSt15basic_stringbufIcSt11char_traitsIcESaIcEE+16, 136(%rsp)
 3025      88000000 
 3025      00000000 
 3026 12a6 488D78E8 		leaq	-24(%rax), %rdi
 3027 12aa 4881FF00 		cmpq	$_ZNSs4_Rep20_S_empty_rep_storageE, %rdi
 3027      000000
 3028 12b1 0F851A02 		jne	.L402
 3028      0000
 3029              	.L315:
 3030 12b7 488D7B40 		leaq	64(%rbx), %rdi
 3031 12bb 48C78424 		movq	$_ZTVSt15basic_streambufIcSt11char_traitsIcEE+16, 136(%rsp)
 3031      88000000 
 3031      00000000 
 3032 12c7 E8000000 		call	_ZNSt6localeD1Ev
 3032      00
 3033 12cc 488D7B60 		leaq	96(%rbx), %rdi
 3034 12d0 48C78424 		movq	$_ZTCN8UnitTest15MemoryOutStreamE0_So+24, 128(%rsp)
 3034      80000000 
 3034      00000000 
 3035 12dc 48C78424 		movq	$_ZTVSt9basic_iosIcSt11char_traitsIcEE+16, 224(%rsp)
 3035      E0000000 
 3035      00000000 
 3036              	.LEHB98:
 3037 12e8 E8000000 		call	_ZNSt8ios_baseD2Ev
 3037      00
 3038              	.LEHE98:
 3039              	.L350:
 3040 12ed 488DBC24 		leaq	496(%rsp), %rdi
 3040      F0010000 
 3041 12f5 31D2     		xorl	%edx, %edx
 3042 12f7 31F6     		xorl	%esi, %esi
 3043              	.LEHB99:
 3044 12f9 E8000000 		call	_ZNSi5seekgElSt12_Ios_Seekdir
 3044      00
 3045 12fe 488B7424 		movq	32(%rsp), %rsi
 3045      20
 3046 1303 488DBC24 		leaq	496(%rsp), %rdi
 3046      F0010000 
 3047 130b 4C89EA   		movq	%r13, %rdx
 3048 130e E8000000 		call	_ZNSi4readEPcl
 3048      00
 3049 1313 488D8424 		leaq	496(%rsp), %rax
 3049      F0010000 
 3050 131b 488D7810 		leaq	16(%rax), %rdi
 3051 131f E8000000 		call	_ZNSt13basic_filebufIcSt11char_traitsIcEE5closeEv
 3051      00
 3052              	.LEHE99:
 3053 1324 4885C0   		testq	%rax, %rax
 3054 1327 0F847B01 		je	.L320
 3054      0000
 3055              	.L322:
 3056              	.LEHB100:
 3057 132d E8000000 		call	_ZN8UnitTest11CurrentTest7DetailsEv
 3057      00
 3058 1332 488B30   		movq	(%rax), %rsi
 3059 1335 BA580000 		movl	$88, %edx
 3059      00
 3060 133a 4C89E7   		movq	%r12, %rdi
 3061 133d E8000000 		call	_ZN8UnitTest11TestDetailsC1ERKS0_i
 3061      00
 3062 1342 48C74424 		movq	$.LC9+5, 48(%rsp)
 3062      30000000 
 3062      00
 3063 134b E8000000 		call	_ZN8UnitTest11CurrentTest7ResultsEv
 3063      00
 3064 1350 488B38   		movq	(%rax), %rdi
 3065 1353 488D5424 		leaq	32(%rsp), %rdx
 3065      20
 3066 1358 488D7424 		leaq	48(%rsp), %rsi
 3066      30
 3067 135d 4D89E0   		movq	%r12, %r8
 3068 1360 4489E9   		movl	%r13d, %ecx
 3069 1363 E8000000 		call	_ZN8UnitTest15CheckArrayEqualIPKcPcEEvRNS_11TestResultsERKT_RKT0_iRKNS_11TestDetailsE
 3069      00
 3070              	.LEHE100:
 3071              	.L353:
 3072 1368 488B7C24 		movq	32(%rsp), %rdi
 3072      20
 3073 136d 4885FF   		testq	%rdi, %rdi
 3074 1370 7405     		je	.L323
 3075 1372 E8000000 		call	_ZdaPv
 3075      00
 3076              	.L323:
 3077 1377 488D7C24 		leaq	64(%rsp), %rdi
 3077      40
 3078              	.LEHB101:
 3079 137c E8000000 		call	bufDestroy
 3079      00
 3080              	.LEHE101:
 3081 1381 488D8424 		leaq	496(%rsp), %rax
 3081      F0010000 
 3082 1389 48C78424 		movq	$_ZTVSt14basic_ifstreamIcSt11char_traitsIcEE+24, 496(%rsp)
 3082      F0010000 
 3082      00000000 
 3083 1395 48C78424 		movq	$_ZTVSt14basic_ifstreamIcSt11char_traitsIcEE+64, 752(%rsp)
 3083      F0020000 
 3083      00000000 
 3084 13a1 48C78424 		movq	$_ZTVSt13basic_filebufIcSt11char_traitsIcEE+16, 512(%rsp)
 3084      00020000 
 3084      00000000 
 3085 13ad 488D7810 		leaq	16(%rax), %rdi
 3086              	.LEHB102:
 3087 13b1 E8000000 		call	_ZNSt13basic_filebufIcSt11char_traitsIcEE5closeEv
 3087      00
 3088              	.LEHE102:
 3089 13b6 488D8424 		leaq	496(%rsp), %rax
 3089      F0010000 
 3090 13be 488D7878 		leaq	120(%rax), %rdi
 3091              	.LEHB103:
 3092 13c2 E8000000 		call	_ZNSt12__basic_fileIcED1Ev
 3092      00
 3093              	.LEHE103:
 3094 13c7 488DBC24 		leaq	568(%rsp), %rdi
 3094      38020000 
 3095 13cf 48C78424 		movq	$_ZTVSt15basic_streambufIcSt11char_traitsIcEE+16, 512(%rsp)
 3095      00020000 
 3095      00000000 
 3096 13db E8000000 		call	_ZNSt6localeD1Ev
 3096      00
 3097 13e0 488B45E8 		movq	-24(%rbp), %rax
 3098 13e4 488B0D00 		movq	_ZTTSt14basic_ifstreamIcSt11char_traitsIcEE+16(%rip), %rcx
 3098      000000
 3099 13eb 488DBC24 		leaq	752(%rsp), %rdi
 3099      F0020000 
 3100 13f3 4889AC24 		movq	%rbp, 496(%rsp)
 3100      F0010000 
 3101 13fb 48898C04 		movq	%rcx, 496(%rsp,%rax)
 3101      F0010000 
 3102 1403 48C78424 		movq	$0, 504(%rsp)
 3102      F8010000 
 3102      00000000 
 3103 140f 48C78424 		movq	$_ZTVSt9basic_iosIcSt11char_traitsIcEE+16, 752(%rsp)
 3103      F0020000 
 3103      00000000 
 3104              	.LEHB104:
 3105 141b E8000000 		call	_ZNSt8ios_baseD2Ev
 3105      00
 3106              	.LEHE104:
 3107 1420 488B8424 		movq	1016(%rsp), %rax
 3107      F8030000 
 3108 1428 64483304 		xorq	%fs:40, %rax
 3108      25280000 
 3108      00
 3109 1431 0F859500 		jne	.L403
 3109      0000
 3110 1437 4881C408 		addq	$1032, %rsp
 3110      040000
 3111              		.cfi_remember_state
 3112              		.cfi_def_cfa_offset 56
 3113 143e 5B       		popq	%rbx
 3114              		.cfi_def_cfa_offset 48
 3115 143f 5D       		popq	%rbp
 3116              		.cfi_def_cfa_offset 40
 3117 1440 415C     		popq	%r12
 3118              		.cfi_def_cfa_offset 32
 3119 1442 415D     		popq	%r13
 3120              		.cfi_def_cfa_offset 24
 3121 1444 415E     		popq	%r14
 3122              		.cfi_def_cfa_offset 16
 3123 1446 415F     		popq	%r15
 3124              		.cfi_def_cfa_offset 8
 3125 1448 C3       		ret
 3126 1449 0F1F8000 		.p2align 4,,10
 3126      000000
 3127              		.p2align 3
 3128              	.L399:
 3129              		.cfi_restore_state
 3130 1450 480378E8 		addq	-24(%rax), %rdi
 3131 1454 8B7720   		movl	32(%rdi), %esi
 3132 1457 83CE04   		orl	$4, %esi
 3133              	.LEHB105:
 3134 145a E8000000 		call	_ZNSt9basic_iosIcSt11char_traitsIcEE5clearESt12_Ios_Iostate
 3134      00
 3135 145f E931FAFF 		jmp	.L293
 3135      FF
 3136              		.p2align 4,,10
 3137 1464 0F1F4000 		.p2align 3
 3138              	.L400:
 3139 1468 480378E8 		addq	-24(%rax), %rdi
 3140 146c 8B7720   		movl	32(%rdi), %esi
 3141 146f 83CE04   		orl	$4, %esi
 3142 1472 E8000000 		call	_ZNSt9basic_iosIcSt11char_traitsIcEE5clearESt12_Ios_Iostate
 3142      00
 3143 1477 E9B3FBFF 		jmp	.L301
 3143      FF
 3144 147c 0F1F4000 		.p2align 4,,10
 3145              		.p2align 3
 3146              	.L295:
 3147 1480 488B8424 		movq	496(%rsp), %rax
 3147      F0010000 
 3148 1488 488DBC24 		leaq	496(%rsp), %rdi
 3148      F0010000 
 3149 1490 480378E8 		addq	-24(%rax), %rdi
 3150 1494 8B7720   		movl	32(%rdi), %esi
 3151 1497 83CE04   		orl	$4, %esi
 3152 149a E8000000 		call	_ZNSt9basic_iosIcSt11char_traitsIcEE5clearESt12_Ios_Iostate
 3152      00
 3153 149f E9C6FAFF 		jmp	.L297
 3153      FF
 3154              		.p2align 4,,10
 3155 14a4 0F1F4000 		.p2align 3
 3156              	.L320:
 3157 14a8 488B8424 		movq	496(%rsp), %rax
 3157      F0010000 
 3158 14b0 488DBC24 		leaq	496(%rsp), %rdi
 3158      F0010000 
 3159 14b8 480378E8 		addq	-24(%rax), %rdi
 3160 14bc 8B7720   		movl	32(%rdi), %esi
 3161 14bf 83CE04   		orl	$4, %esi
 3162 14c2 E8000000 		call	_ZNSt9basic_iosIcSt11char_traitsIcEE5clearESt12_Ios_Iostate
 3162      00
 3163              	.LEHE105:
 3164 14c7 E961FEFF 		jmp	.L322
 3164      FF
 3165              	.L403:
 3166 14cc E8000000 		call	__stack_chk_fail
 3166      00
 3167              	.L402:
 3168 14d1 B9000000 		movl	$_ZL28__gthrw___pthread_key_createPjPFvPvE, %ecx
 3168      00
 3169 14d6 488D5710 		leaq	16(%rdi), %rdx
 3170 14da 4885C9   		testq	%rcx, %rcx
 3171 14dd 0F849F04 		je	.L316
 3171      0000
 3172 14e3 83C8FF   		orl	$-1, %eax
 3173 14e6 F00FC102 		lock xaddl	%eax, (%rdx)
 3174              	.L317:
 3175 14ea 85C0     		testl	%eax, %eax
 3176 14ec 0F8FC5FD 		jg	.L315
 3176      FFFF
 3177 14f2 488D7424 		leaq	48(%rsp), %rsi
 3177      30
 3178 14f7 E8000000 		call	_ZNSs4_Rep10_M_destroyERKSaIcE
 3178      00
 3179 14fc E9B6FDFF 		jmp	.L315
 3179      FF
 3180              	.L401:
 3181 1501 B9000000 		movl	$_ZL28__gthrw___pthread_key_createPjPFvPvE, %ecx
 3181      00
 3182 1506 488D5710 		leaq	16(%rdi), %rdx
 3183 150a 4885C9   		testq	%rcx, %rcx
 3184 150d 0F841601 		je	.L311
 3184      0000
 3185 1513 83C8FF   		orl	$-1, %eax
 3186 1516 F00FC102 		lock xaddl	%eax, (%rdx)
 3187              	.L312:
 3188 151a 85C0     		testl	%eax, %eax
 3189 151c 0F8F58FD 		jg	.L310
 3189      FFFF
 3190 1522 488D7424 		leaq	48(%rsp), %rsi
 3190      30
 3191 1527 E8000000 		call	_ZNSs4_Rep10_M_destroyERKSaIcE
 3191      00
 3192 152c E949FDFF 		jmp	.L310
 3192      FF
 3193              	.L360:
 3194 1531 4889C7   		movq	%rax, %rdi
 3195 1534 E8000000 		call	__cxa_begin_catch
 3195      00
 3196              		.p2align 4,,5
 3197              	.LEHB106:
 3198 1539 E8000000 		call	_ZN8UnitTest11CurrentTest7DetailsEv
 3198      00
 3199 153e 488B30   		movq	(%rax), %rsi
 3200 1541 BA440000 		movl	$68, %edx
 3200      00
 3201 1546 4889DF   		movq	%rbx, %rdi
 3202 1549 E8000000 		call	_ZN8UnitTest11TestDetailsC1ERKS0_i
 3202      00
 3203 154e E8000000 		call	_ZN8UnitTest11CurrentTest7ResultsEv
 3203      00
 3204 1553 488B38   		movq	(%rax), %rdi
 3205 1556 BA000000 		movl	$.LC3, %edx
 3205      00
 3206 155b 4889DE   		movq	%rbx, %rsi
 3207 155e E8000000 		call	_ZN8UnitTest11TestResults13OnTestFailureERKNS_11TestDetailsEPKc
 3207      00
 3208              	.LEHE106:
 3209              	.LEHB107:
 3210 1563 E8000000 		call	__cxa_end_catch
 3210      00
 3211              	.LEHE107:
 3212 1568 E9E9F8FF 		jmp	.L335
 3212      FF
 3213              	.L372:
 3214              	.L308:
 3215 156d 4889C7   		movq	%rax, %rdi
 3216              		.p2align 4,,5
 3217 1570 E8000000 		call	__cxa_begin_catch
 3217      00
 3218              		.p2align 4,,5
 3219              	.LEHB108:
 3220 1575 E8000000 		call	_ZN8UnitTest11CurrentTest7DetailsEv
 3220      00
 3221 157a 4C8D6424 		leaq	96(%rsp), %r12
 3221      60
 3222 157f 488B30   		movq	(%rax), %rsi
 3223 1582 BA540000 		movl	$84, %edx
 3223      00
 3224 1587 4C89E7   		movq	%r12, %rdi
 3225 158a E8000000 		call	_ZN8UnitTest11TestDetailsC1ERKS0_i
 3225      00
 3226 158f E8000000 		call	_ZN8UnitTest11CurrentTest7ResultsEv
 3226      00
 3227 1594 488B38   		movq	(%rax), %rdi
 3228 1597 BA000000 		movl	$.LC19, %edx
 3228      00
 3229 159c 4C89E6   		movq	%r12, %rsi
 3230 159f E8000000 		call	_ZN8UnitTest11TestResults13OnTestFailureERKNS_11TestDetailsEPKc
 3230      00
 3231              	.LEHE108:
 3232              	.LEHB109:
 3233 15a4 E8000000 		call	__cxa_end_catch
 3233      00
 3234              	.LEHE109:
 3235 15a9 E93FFDFF 		jmp	.L350
 3235      FF
 3236              	.L368:
 3237 15ae 4889C7   		movq	%rax, %rdi
 3238              		.p2align 4,,5
 3239 15b1 E8000000 		call	__cxa_begin_catch
 3239      00
 3240              		.p2align 4,,5
 3241              	.LEHB110:
 3242 15b6 E8000000 		call	_ZN8UnitTest11CurrentTest7DetailsEv
 3242      00
 3243 15bb 488B30   		movq	(%rax), %rsi
 3244 15be BA500000 		movl	$80, %edx
 3244      00
 3245 15c3 4889DF   		movq	%rbx, %rdi
 3246 15c6 E8000000 		call	_ZN8UnitTest11TestDetailsC1ERKS0_i
 3246      00
 3247 15cb E8000000 		call	_ZN8UnitTest11CurrentTest7ResultsEv
 3247      00
 3248 15d0 488B38   		movq	(%rax), %rdi
 3249 15d3 BA000000 		movl	$.LC3, %edx
 3249      00
 3250 15d8 4889DE   		movq	%rbx, %rsi
 3251 15db E8000000 		call	_ZN8UnitTest11TestResults13OnTestFailureERKNS_11TestDetailsEPKc
 3251      00
 3252              	.LEHE110:
 3253              	.LEHB111:
 3254 15e0 E8000000 		call	__cxa_end_catch
 3254      00
 3255              	.LEHE111:
 3256 15e5 E906FAFF 		jmp	.L346
 3256      FF
 3257              	.L370:
 3258 15ea 4889C7   		movq	%rax, %rdi
 3259 15ed 0F1F00   		.p2align 4,,5
 3260 15f0 E8000000 		call	__cxa_begin_catch
 3260      00
 3261              		.p2align 4,,5
 3262              	.LEHB112:
 3263 15f5 E8000000 		call	_ZN8UnitTest11CurrentTest7DetailsEv
 3263      00
 3264 15fa 488B30   		movq	(%rax), %rsi
 3265 15fd BA520000 		movl	$82, %edx
 3265      00
 3266 1602 4889DF   		movq	%rbx, %rdi
 3267 1605 E8000000 		call	_ZN8UnitTest11TestDetailsC1ERKS0_i
 3267      00
 3268 160a E8000000 		call	_ZN8UnitTest11CurrentTest7ResultsEv
 3268      00
 3269 160f 488B38   		movq	(%rax), %rdi
 3270 1612 BA000000 		movl	$.LC16, %edx
 3270      00
 3271 1617 4889DE   		movq	%rbx, %rsi
 3272 161a E8000000 		call	_ZN8UnitTest11TestResults13OnTestFailureERKNS_11TestDetailsEPKc
 3272      00
 3273              	.LEHE112:
 3274              	.LEHB113:
 3275 161f E8000000 		call	__cxa_end_catch
 3275      00
 3276              	.LEHE113:
 3277 1624 E941FAFF 		jmp	.L302
 3277      FF
 3278              	.L311:
 3279 1629 8B50F8   		movl	-8(%rax), %edx
 3280 162c 8D4AFF   		leal	-1(%rdx), %ecx
 3281 162f 8948F8   		movl	%ecx, -8(%rax)
 3282 1632 89D0     		movl	%edx, %eax
 3283 1634 E9E1FEFF 		jmp	.L312
 3283      FF
 3284              	.L361:
 3285 1639 4889C3   		movq	%rax, %rbx
 3286 163c E8000000 		call	__cxa_end_catch
 3286      00
 3287              	.L327:
 3288 1641 488DBC24 		leaq	496(%rsp), %rdi
 3288      F0010000 
 3289 1649 E8000000 		call	_ZNSt14basic_ifstreamIcSt11char_traitsIcEED1Ev
 3289      00
 3290 164e 4889DF   		movq	%rbx, %rdi
 3291              	.LEHB114:
 3292 1651 E8000000 		call	_Unwind_Resume
 3292      00
 3293              	.LEHE114:
 3294              	.L369:
 3295 1656 4889C3   		movq	%rax, %rbx
 3296 1659 E8000000 		call	__cxa_end_catch
 3296      00
 3297 165e EBE1     		jmp	.L327
 3298              	.L373:
 3299 1660 4889C3   		movq	%rax, %rbx
 3300 1663 E8000000 		call	__cxa_end_catch
 3300      00
 3301              		.p2align 4,,5
 3302 1668 EBD7     		jmp	.L327
 3303              	.L371:
 3304 166a 4889C3   		movq	%rax, %rbx
 3305 166d E8000000 		call	__cxa_end_catch
 3305      00
 3306              		.p2align 4,,5
 3307 1672 EBCD     		jmp	.L327
 3308              	.L382:
 3309 1674 4889C3   		movq	%rax, %rbx
 3310              	.L325:
 3311 1677 488DBC24 		leaq	568(%rsp), %rdi
 3311      38020000 
 3312 167f 48C78424 		movq	$_ZTVSt15basic_streambufIcSt11char_traitsIcEE+16, 512(%rsp)
 3312      00020000 
 3312      00000000 
 3313 168b E8000000 		call	_ZNSt6localeD1Ev
 3313      00
 3314 1690 488B45E8 		movq	-24(%rbp), %rax
 3315 1694 488B0D00 		movq	_ZTTSt14basic_ifstreamIcSt11char_traitsIcEE+16(%rip), %rcx
 3315      000000
 3316 169b 488DBC24 		leaq	752(%rsp), %rdi
 3316      F0020000 
 3317 16a3 4889AC24 		movq	%rbp, 496(%rsp)
 3317      F0010000 
 3318 16ab 48898C04 		movq	%rcx, 496(%rsp,%rax)
 3318      F0010000 
 3319 16b3 48C78424 		movq	$0, 504(%rsp)
 3319      F8010000 
 3319      00000000 
 3320 16bf 48C78424 		movq	$_ZTVSt9basic_iosIcSt11char_traitsIcEE+16, 752(%rsp)
 3320      F0020000 
 3320      00000000 
 3321 16cb E8000000 		call	_ZNSt8ios_baseD2Ev
 3321      00
 3322 16d0 4889DF   		movq	%rbx, %rdi
 3323              	.LEHB115:
 3324 16d3 E8000000 		call	_Unwind_Resume
 3324      00
 3325              	.LEHE115:
 3326              	.L366:
 3327 16d8 4889C7   		movq	%rax, %rdi
 3328 16db E8000000 		call	__cxa_begin_catch
 3328      00
 3329              	.LEHB116:
 3330 16e0 E8000000 		call	_ZN8UnitTest11CurrentTest7DetailsEv
 3330      00
 3331 16e5 488B30   		movq	(%rax), %rsi
 3332 16e8 BA4D0000 		movl	$77, %edx
 3332      00
 3333 16ed 4889DF   		movq	%rbx, %rdi
 3334 16f0 E8000000 		call	_ZN8UnitTest11TestDetailsC1ERKS0_i
 3334      00
 3335 16f5 E8000000 		call	_ZN8UnitTest11CurrentTest7ResultsEv
 3335      00
 3336 16fa 488B38   		movq	(%rax), %rdi
 3337 16fd BA000000 		movl	$.LC18, %edx
 3337      00
 3338 1702 4889DE   		movq	%rbx, %rsi
 3339 1705 E8000000 		call	_ZN8UnitTest11TestResults13OnTestFailureERKNS_11TestDetailsEPKc
 3339      00
 3340              	.LEHE116:
 3341              	.LEHB117:
 3342 170a E8000000 		call	__cxa_end_catch
 3342      00
 3343              	.LEHE117:
 3344 170f E988F8FF 		jmp	.L343
 3344      FF
 3345              	.L383:
 3346 1714 488DBC24 		leaq	616(%rsp), %rdi
 3346      68020000 
 3347 171c 4889C3   		movq	%rax, %rbx
 3348 171f E8000000 		call	_ZNSt12__basic_fileIcED1Ev
 3348      00
 3349 1724 E94EFFFF 		jmp	.L325
 3349      FF
 3350              	.L374:
 3351 1729 4889C7   		movq	%rax, %rdi
 3352 172c E8000000 		call	__cxa_begin_catch
 3352      00
 3353              		.p2align 4,,5
 3354              	.LEHB118:
 3355 1731 E8000000 		call	_ZN8UnitTest11CurrentTest7DetailsEv
 3355      00
 3356 1736 488B30   		movq	(%rax), %rsi
 3357 1739 BA580000 		movl	$88, %edx
 3357      00
 3358 173e 4C89E7   		movq	%r12, %rdi
 3359 1741 E8000000 		call	_ZN8UnitTest11TestDetailsC1ERKS0_i
 3359      00
 3360 1746 E8000000 		call	_ZN8UnitTest11CurrentTest7ResultsEv
 3360      00
 3361 174b 488B38   		movq	(%rax), %rdi
 3362 174e BA000000 		movl	$.LC20, %edx
 3362      00
 3363 1753 4C89E6   		movq	%r12, %rsi
 3364 1756 E8000000 		call	_ZN8UnitTest11TestResults13OnTestFailureERKNS_11TestDetailsEPKc
 3364      00
 3365              	.LEHE118:
 3366              	.LEHB119:
 3367 175b E8000000 		call	__cxa_end_catch
 3367      00
 3368              	.LEHE119:
 3369 1760 E903FCFF 		jmp	.L353
 3369      FF
 3370              	.L367:
 3371 1765 4889C3   		movq	%rax, %rbx
 3372              		.p2align 4,,5
 3373 1768 E8000000 		call	__cxa_end_catch
 3373      00
 3374 176d 0F1F00   		.p2align 4,,5
 3375 1770 E9CCFEFF 		jmp	.L327
 3375      FF
 3376              	.L375:
 3377 1775 4889C3   		movq	%rax, %rbx
 3378 1778 E8000000 		call	__cxa_end_catch
 3378      00
 3379 177d 0F1F00   		.p2align 4,,5
 3380 1780 E9BCFEFF 		jmp	.L327
 3380      FF
 3381              	.L364:
 3382 1785 4889C7   		movq	%rax, %rdi
 3383 1788 E8000000 		call	__cxa_begin_catch
 3383      00
 3384 178d 0F1F00   		.p2align 4,,5
 3385              	.LEHB120:
 3386 1790 E8000000 		call	_ZN8UnitTest11CurrentTest7DetailsEv
 3386      00
 3387 1795 488B30   		movq	(%rax), %rsi
 3388 1798 BA480000 		movl	$72, %edx
 3388      00
 3389 179d 4889DF   		movq	%rbx, %rdi
 3390 17a0 E8000000 		call	_ZN8UnitTest11TestDetailsC1ERKS0_i
 3390      00
 3391 17a5 E8000000 		call	_ZN8UnitTest11CurrentTest7ResultsEv
 3391      00
 3392 17aa 488B38   		movq	(%rax), %rdi
 3393 17ad BA000000 		movl	$.LC17, %edx
 3393      00
 3394 17b2 4889DE   		movq	%rbx, %rsi
 3395 17b5 E8000000 		call	_ZN8UnitTest11TestResults13OnTestFailureERKNS_11TestDetailsEPKc
 3395      00
 3396              	.LEHE120:
 3397              	.LEHB121:
 3398 17ba E8000000 		call	__cxa_end_catch
 3398      00
 3399              	.LEHE121:
 3400 17bf E959F7FF 		jmp	.L340
 3400      FF
 3401              	.L362:
 3402 17c4 4889C7   		movq	%rax, %rdi
 3403              		.p2align 4,,5
 3404 17c7 E8000000 		call	__cxa_begin_catch
 3404      00
 3405 17cc 0F1F4000 		.p2align 4,,5
 3406              	.LEHB122:
 3407 17d0 E8000000 		call	_ZN8UnitTest11CurrentTest7DetailsEv
 3407      00
 3408 17d5 488B30   		movq	(%rax), %rsi
 3409 17d8 BA460000 		movl	$70, %edx
 3409      00
 3410 17dd 4889DF   		movq	%rbx, %rdi
 3411 17e0 E8000000 		call	_ZN8UnitTest11TestDetailsC1ERKS0_i
 3411      00
 3412 17e5 E8000000 		call	_ZN8UnitTest11CurrentTest7ResultsEv
 3412      00
 3413 17ea 488B38   		movq	(%rax), %rdi
 3414 17ed BA000000 		movl	$.LC16, %edx
 3414      00
 3415 17f2 4889DE   		movq	%rbx, %rsi
 3416 17f5 E8000000 		call	_ZN8UnitTest11TestResults13OnTestFailureERKNS_11TestDetailsEPKc
 3416      00
 3417              	.LEHE122:
 3418              	.LEHB123:
 3419 17fa E8000000 		call	__cxa_end_catch
 3419      00
 3420              	.LEHE123:
 3421 17ff E9CCF6FF 		jmp	.L294
 3421      FF
 3422              	.L365:
 3423 1804 4889C3   		movq	%rax, %rbx
 3424              		.p2align 4,,5
 3425 1807 E8000000 		call	__cxa_end_catch
 3425      00
 3426 180c 0F1F4000 		.p2align 4,,5
 3427 1810 E92CFEFF 		jmp	.L327
 3427      FF
 3428              	.L363:
 3429 1815 4889C3   		movq	%rax, %rbx
 3430 1818 E8000000 		call	__cxa_end_catch
 3430      00
 3431 181d 0F1F00   		.p2align 4,,5
 3432 1820 E91CFEFF 		jmp	.L327
 3432      FF
 3433              	.L377:
 3434              	.L288:
 3435 1825 488B55E8 		movq	-24(%rbp), %rdx
 3436 1829 488B0D00 		movq	_ZTTSt14basic_ifstreamIcSt11char_traitsIcEE+16(%rip), %rcx
 3436      000000
 3437 1830 4889C3   		movq	%rax, %rbx
 3438 1833 4889AC24 		movq	%rbp, 496(%rsp)
 3438      F0010000 
 3439 183b 48898C14 		movq	%rcx, 496(%rsp,%rdx)
 3439      F0010000 
 3440 1843 48C78424 		movq	$0, 504(%rsp)
 3440      F8010000 
 3440      00000000 
 3441              	.L289:
 3442 184f 488DBC24 		leaq	752(%rsp), %rdi
 3442      F0020000 
 3443 1857 48C78424 		movq	$_ZTVSt9basic_iosIcSt11char_traitsIcEE+16, 752(%rsp)
 3443      F0020000 
 3443      00000000 
 3444 1863 E8000000 		call	_ZNSt8ios_baseD2Ev
 3444      00
 3445 1868 4889DF   		movq	%rbx, %rdi
 3446              	.LEHB124:
 3447 186b E8000000 		call	_Unwind_Resume
 3447      00
 3448              	.LEHE124:
 3449              	.L376:
 3450 1870 4889C3   		movq	%rax, %rbx
 3451 1873 EBDA     		jmp	.L289
 3452              	.L358:
 3453 1875 4889C7   		movq	%rax, %rdi
 3454 1878 E8000000 		call	__cxa_begin_catch
 3454      00
 3455              	.LEHB125:
 3456 187d E8000000 		call	_ZN8UnitTest11CurrentTest7DetailsEv
 3456      00
 3457 1882 488B30   		movq	(%rax), %rsi
 3458 1885 BA410000 		movl	$65, %edx
 3458      00
 3459 188a 4889DF   		movq	%rbx, %rdi
 3460 188d E8000000 		call	_ZN8UnitTest11TestDetailsC1ERKS0_i
 3460      00
 3461 1892 E8000000 		call	_ZN8UnitTest11CurrentTest7ResultsEv
 3461      00
 3462 1897 488B38   		movq	(%rax), %rdi
 3463 189a BA000000 		movl	$.LC3, %edx
 3463      00
 3464 189f 4889DE   		movq	%rbx, %rsi
 3465 18a2 E8000000 		call	_ZN8UnitTest11TestResults13OnTestFailureERKNS_11TestDetailsEPKc
 3465      00
 3466              	.LEHE125:
 3467              	.LEHB126:
 3468 18a7 E8000000 		call	__cxa_end_catch
 3468      00
 3469              	.LEHE126:
 3470 18ac E954F5FF 		jmp	.L332
 3470      FF
 3471              	.L356:
 3472 18b1 4889C7   		movq	%rax, %rdi
 3473              		.p2align 4,,5
 3474 18b4 E8000000 		call	__cxa_begin_catch
 3474      00
 3475              		.p2align 4,,5
 3476              	.LEHB127:
 3477 18b9 E8000000 		call	_ZN8UnitTest11CurrentTest7DetailsEv
 3477      00
 3478 18be 488D9C24 		leaq	128(%rsp), %rbx
 3478      80000000 
 3479 18c6 488B30   		movq	(%rax), %rsi
 3480 18c9 BA3F0000 		movl	$63, %edx
 3480      00
 3481 18ce 4889DF   		movq	%rbx, %rdi
 3482 18d1 E8000000 		call	_ZN8UnitTest11TestDetailsC1ERKS0_i
 3482      00
 3483 18d6 E8000000 		call	_ZN8UnitTest11CurrentTest7ResultsEv
 3483      00
 3484 18db 488B38   		movq	(%rax), %rdi
 3485 18de BA000000 		movl	$.LC3, %edx
 3485      00
 3486 18e3 4889DE   		movq	%rbx, %rsi
 3487 18e6 E8000000 		call	_ZN8UnitTest11TestResults13OnTestFailureERKNS_11TestDetailsEPKc
 3487      00
 3488              	.LEHE127:
 3489              	.LEHB128:
 3490 18eb E8000000 		call	__cxa_end_catch
 3490      00
 3491              	.LEHE128:
 3492 18f0 E9C2F4FF 		jmp	.L329
 3492      FF
 3493              	.L359:
 3494 18f5 4889C3   		movq	%rax, %rbx
 3495              		.p2align 4,,5
 3496 18f8 E8000000 		call	__cxa_end_catch
 3496      00
 3497 18fd 0F1F00   		.p2align 4,,5
 3498 1900 E93CFDFF 		jmp	.L327
 3498      FF
 3499              	.L357:
 3500 1905 4889C3   		movq	%rax, %rbx
 3501 1908 E8000000 		call	__cxa_end_catch
 3501      00
 3502 190d 0F1F00   		.p2align 4,,5
 3503 1910 E92CFDFF 		jmp	.L327
 3503      FF
 3504              	.L355:
 3505 1915 4889C3   		movq	%rax, %rbx
 3506              		.p2align 4,,2
 3507 1918 E924FDFF 		jmp	.L327
 3507      FF
 3508              	.L379:
 3509 191d 4989C4   		movq	%rax, %r12
 3510 1920 4889DF   		movq	%rbx, %rdi
 3511 1923 E8000000 		call	_ZN8UnitTest15MemoryOutStreamD1Ev
 3511      00
 3512 1928 4C89E0   		movq	%r12, %rax
 3513 192b E93DFCFF 		jmp	.L308
 3513      FF
 3514              	.L381:
 3515 1930 488D7B08 		leaq	8(%rbx), %rdi
 3516 1934 4989C4   		movq	%rax, %r12
 3517 1937 E8000000 		call	_ZNSt15basic_stringbufIcSt11char_traitsIcESaIcEED1Ev
 3517      00
 3518 193c 48C78424 		movq	$_ZTCN8UnitTest15MemoryOutStreamE0_So+24, 128(%rsp)
 3518      80000000 
 3518      00000000 
 3519              	.L306:
 3520 1948 488D7B60 		leaq	96(%rbx), %rdi
 3521 194c 48C78424 		movq	$_ZTVSt9basic_iosIcSt11char_traitsIcEE+16, 224(%rsp)
 3521      E0000000 
 3521      00000000 
 3522 1958 E8000000 		call	_ZNSt8ios_baseD2Ev
 3522      00
 3523 195d 4C89E0   		movq	%r12, %rax
 3524 1960 E908FCFF 		jmp	.L308
 3524      FF
 3525              	.L378:
 3526 1965 488DBC24 		leaq	512(%rsp), %rdi
 3526      00020000 
 3527 196d 4889C3   		movq	%rax, %rbx
 3528 1970 E8000000 		call	_ZNSt13basic_filebufIcSt11char_traitsIcEED1Ev
 3528      00
 3529 1975 4889D8   		movq	%rbx, %rax
 3530 1978 E9A8FEFF 		jmp	.L288
 3530      FF
 3531              	.L380:
 3532 197d 4989C4   		movq	%rax, %r12
 3533 1980 EBC6     		jmp	.L306
 3534              	.L316:
 3535 1982 8B50F8   		movl	-8(%rax), %edx
 3536 1985 8D4AFF   		leal	-1(%rdx), %ecx
 3537 1988 8948F8   		movl	%ecx, -8(%rax)
 3538 198b 89D0     		movl	%edx, %eax
 3539 198d E958FBFF 		jmp	.L317
 3539      FF
 3540              		.cfi_endproc
 3541              	.LFE1184:
 3542              		.section	.gcc_except_table
 3543 01aa 0000     		.align 4
 3544              	.LLSDA1184:
 3545 01ac FF       		.byte	0xff
 3546 01ad 03       		.byte	0x3
 3547 01ae D002     		.uleb128 .LLSDATT1184-.LLSDATTD1184
 3548              	.LLSDATTD1184:
 3549 01b0 01       		.byte	0x1
 3550 01b1 C602     		.uleb128 .LLSDACSE1184-.LLSDACSB1184
 3551              	.LLSDACSB1184:
 3552 01b3 CE01     		.uleb128 .LEHB74-.LFB1184
 3553 01b5 05       		.uleb128 .LEHE74-.LEHB74
 3554 01b6 A018     		.uleb128 .L376-.LFB1184
 3555 01b8 00       		.uleb128 0
 3556 01b9 F701     		.uleb128 .LEHB75-.LFB1184
 3557 01bb 05       		.uleb128 .LEHE75-.LEHB75
 3558 01bc D517     		.uleb128 .L377-.LFB1184
 3559 01be 00       		.uleb128 0
 3560 01bf 8F02     		.uleb128 .LEHB76-.LFB1184
 3561 01c1 05       		.uleb128 .LEHE76-.LEHB76
 3562 01c2 951A     		.uleb128 .L378-.LFB1184
 3563 01c4 00       		.uleb128 0
 3564 01c5 A202     		.uleb128 .LEHB77-.LFB1184
 3565 01c7 05       		.uleb128 .LEHE77-.LEHB77
 3566 01c8 C519     		.uleb128 .L355-.LFB1184
 3567 01ca 00       		.uleb128 0
 3568 01cb AA02     		.uleb128 .LEHB78-.LFB1184
 3569 01cd 3D       		.uleb128 .LEHE78-.LEHB78
 3570 01ce E118     		.uleb128 .L356-.LFB1184
 3571 01d0 01       		.uleb128 0x1
 3572 01d1 F802     		.uleb128 .LEHB79-.LFB1184
 3573 01d3 05       		.uleb128 .LEHE79-.LEHB79
 3574 01d4 C519     		.uleb128 .L355-.LFB1184
 3575 01d6 00       		.uleb128 0
 3576 01d7 8003     		.uleb128 .LEHB80-.LFB1184
 3577 01d9 35       		.uleb128 .LEHE80-.LEHB80
 3578 01da A518     		.uleb128 .L358-.LFB1184
 3579 01dc 01       		.uleb128 0x1
 3580 01dd C903     		.uleb128 .LEHB81-.LFB1184
 3581 01df 05       		.uleb128 .LEHE81-.LEHB81
 3582 01e0 C519     		.uleb128 .L355-.LFB1184
 3583 01e2 00       		.uleb128 0
 3584 01e3 D103     		.uleb128 .LEHB82-.LFB1184
 3585 01e5 35       		.uleb128 .LEHE82-.LEHB82
 3586 01e6 E111     		.uleb128 .L360-.LFB1184
 3587 01e8 01       		.uleb128 0x1
 3588 01e9 9C04     		.uleb128 .LEHB83-.LFB1184
 3589 01eb 29       		.uleb128 .LEHE83-.LEHB83
 3590 01ec C519     		.uleb128 .L355-.LFB1184
 3591 01ee 00       		.uleb128 0
 3592 01ef D604     		.uleb128 .LEHB84-.LFB1184
 3593 01f1 2A       		.uleb128 .LEHE84-.LEHB84
 3594 01f2 F416     		.uleb128 .L362-.LFB1184
 3595 01f4 01       		.uleb128 0x1
 3596 01f5 8805     		.uleb128 .LEHB85-.LFB1184
 3597 01f7 05       		.uleb128 .LEHE85-.LEHB85
 3598 01f8 C519     		.uleb128 .L355-.LFB1184
 3599 01fa 00       		.uleb128 0
 3600 01fb 9005     		.uleb128 .LEHB86-.LFB1184
 3601 01fd 3D       		.uleb128 .LEHE86-.LEHB86
 3602 01fe B516     		.uleb128 .L364-.LFB1184
 3603 0200 01       		.uleb128 0x1
 3604 0201 D005     		.uleb128 .LEHB87-.LFB1184
 3605 0203 41       		.uleb128 .LEHE87-.LEHB87
 3606 0204 C519     		.uleb128 .L355-.LFB1184
 3607 0206 00       		.uleb128 0
 3608 0207 9A06     		.uleb128 .LEHB88-.LFB1184
 3609 0209 32       		.uleb128 .LEHE88-.LEHB88
 3610 020a 8815     		.uleb128 .L366-.LFB1184
 3611 020c 01       		.uleb128 0x1
 3612 020d E306     		.uleb128 .LEHB89-.LFB1184
 3613 020f 05       		.uleb128 .LEHE89-.LEHB89
 3614 0210 C519     		.uleb128 .L355-.LFB1184
 3615 0212 00       		.uleb128 0
 3616 0213 EB06     		.uleb128 .LEHB90-.LFB1184
 3617 0215 35       		.uleb128 .LEHE90-.LEHB90
 3618 0216 DE12     		.uleb128 .L368-.LFB1184
 3619 0218 01       		.uleb128 0x1
 3620 0219 B607     		.uleb128 .LEHB91-.LFB1184
 3621 021b 29       		.uleb128 .LEHE91-.LEHB91
 3622 021c C519     		.uleb128 .L355-.LFB1184
 3623 021e 00       		.uleb128 0
 3624 021f F007     		.uleb128 .LEHB92-.LFB1184
 3625 0221 2A       		.uleb128 .LEHE92-.LEHB92
 3626 0222 9A13     		.uleb128 .L370-.LFB1184
 3627 0224 01       		.uleb128 0x1
 3628 0225 A208     		.uleb128 .LEHB93-.LFB1184
 3629 0227 05       		.uleb128 .LEHE93-.LEHB93
 3630 0228 C519     		.uleb128 .L355-.LFB1184
 3631 022a 00       		.uleb128 0
 3632 022b AA08     		.uleb128 .LEHB94-.LFB1184
 3633 022d 1F       		.uleb128 .LEHE94-.LEHB94
 3634 022e 9D12     		.uleb128 .L372-.LFB1184
 3635 0230 01       		.uleb128 0x1
 3636 0231 CB09     		.uleb128 .LEHB95-.LFB1184
 3637 0233 05       		.uleb128 .LEHE95-.LEHB95
 3638 0234 AD1A     		.uleb128 .L380-.LFB1184
 3639 0236 01       		.uleb128 0x1
 3640 0237 FB0A     		.uleb128 .LEHB96-.LFB1184
 3641 0239 05       		.uleb128 .LEHE96-.LEHB96
 3642 023a E019     		.uleb128 .L381-.LFB1184
 3643 023c 01       		.uleb128 0x1
 3644 023d B10B     		.uleb128 .LEHB97-.LFB1184
 3645 023f 48       		.uleb128 .LEHE97-.LEHB97
 3646 0240 CD19     		.uleb128 .L379-.LFB1184
 3647 0242 01       		.uleb128 0x1
 3648 0243 980D     		.uleb128 .LEHB98-.LFB1184
 3649 0245 05       		.uleb128 .LEHE98-.LEHB98
 3650 0246 9D12     		.uleb128 .L372-.LFB1184
 3651 0248 01       		.uleb128 0x1
 3652 0249 A90D     		.uleb128 .LEHB99-.LFB1184
 3653 024b 2B       		.uleb128 .LEHE99-.LEHB99
 3654 024c C519     		.uleb128 .L355-.LFB1184
 3655 024e 00       		.uleb128 0
 3656 024f DD0D     		.uleb128 .LEHB100-.LFB1184
 3657 0251 3B       		.uleb128 .LEHE100-.LEHB100
 3658 0252 D915     		.uleb128 .L374-.LFB1184
 3659 0254 01       		.uleb128 0x1
 3660 0255 AC0E     		.uleb128 .LEHB101-.LFB1184
 3661 0257 05       		.uleb128 .LEHE101-.LEHB101
 3662 0258 C519     		.uleb128 .L355-.LFB1184
 3663 025a 00       		.uleb128 0
 3664 025b E10E     		.uleb128 .LEHB102-.LFB1184
 3665 025d 05       		.uleb128 .LEHE102-.LEHB102
 3666 025e C415     		.uleb128 .L383-.LFB1184
 3667 0260 00       		.uleb128 0
 3668 0261 F20E     		.uleb128 .LEHB103-.LFB1184
 3669 0263 05       		.uleb128 .LEHE103-.LEHB103
 3670 0264 A414     		.uleb128 .L382-.LFB1184
 3671 0266 00       		.uleb128 0
 3672 0267 CB0F     		.uleb128 .LEHB104-.LFB1184
 3673 0269 05       		.uleb128 .LEHE104-.LEHB104
 3674 026a 00       		.uleb128 0
 3675 026b 00       		.uleb128 0
 3676 026c 8A10     		.uleb128 .LEHB105-.LFB1184
 3677 026e 6D       		.uleb128 .LEHE105-.LEHB105
 3678 026f C519     		.uleb128 .L355-.LFB1184
 3679 0271 00       		.uleb128 0
 3680 0272 E911     		.uleb128 .LEHB106-.LFB1184
 3681 0274 2A       		.uleb128 .LEHE106-.LEHB106
 3682 0275 E913     		.uleb128 .L361-.LFB1184
 3683 0277 00       		.uleb128 0
 3684 0278 9312     		.uleb128 .LEHB107-.LFB1184
 3685 027a 05       		.uleb128 .LEHE107-.LEHB107
 3686 027b C519     		.uleb128 .L355-.LFB1184
 3687 027d 00       		.uleb128 0
 3688 027e A512     		.uleb128 .LEHB108-.LFB1184
 3689 0280 2F       		.uleb128 .LEHE108-.LEHB108
 3690 0281 9014     		.uleb128 .L373-.LFB1184
 3691 0283 00       		.uleb128 0
 3692 0284 D412     		.uleb128 .LEHB109-.LFB1184
 3693 0286 05       		.uleb128 .LEHE109-.LEHB109
 3694 0287 C519     		.uleb128 .L355-.LFB1184
 3695 0289 00       		.uleb128 0
 3696 028a E612     		.uleb128 .LEHB110-.LFB1184
 3697 028c 2A       		.uleb128 .LEHE110-.LEHB110
 3698 028d 8614     		.uleb128 .L369-.LFB1184
 3699 028f 00       		.uleb128 0
 3700 0290 9013     		.uleb128 .LEHB111-.LFB1184
 3701 0292 05       		.uleb128 .LEHE111-.LEHB111
 3702 0293 C519     		.uleb128 .L355-.LFB1184
 3703 0295 00       		.uleb128 0
 3704 0296 A513     		.uleb128 .LEHB112-.LFB1184
 3705 0298 2A       		.uleb128 .LEHE112-.LEHB112
 3706 0299 9A14     		.uleb128 .L371-.LFB1184
 3707 029b 00       		.uleb128 0
 3708 029c CF13     		.uleb128 .LEHB113-.LFB1184
 3709 029e 05       		.uleb128 .LEHE113-.LEHB113
 3710 029f C519     		.uleb128 .L355-.LFB1184
 3711 02a1 00       		.uleb128 0
 3712 02a2 8114     		.uleb128 .LEHB114-.LFB1184
 3713 02a4 05       		.uleb128 .LEHE114-.LEHB114
 3714 02a5 00       		.uleb128 0
 3715 02a6 00       		.uleb128 0
 3716 02a7 8315     		.uleb128 .LEHB115-.LFB1184
 3717 02a9 05       		.uleb128 .LEHE115-.LEHB115
 3718 02aa 00       		.uleb128 0
 3719 02ab 00       		.uleb128 0
 3720 02ac 9015     		.uleb128 .LEHB116-.LFB1184
 3721 02ae 2A       		.uleb128 .LEHE116-.LEHB116
 3722 02af 9516     		.uleb128 .L367-.LFB1184
 3723 02b1 00       		.uleb128 0
 3724 02b2 BA15     		.uleb128 .LEHB117-.LFB1184
 3725 02b4 05       		.uleb128 .LEHE117-.LEHB117
 3726 02b5 C519     		.uleb128 .L355-.LFB1184
 3727 02b7 00       		.uleb128 0
 3728 02b8 E115     		.uleb128 .LEHB118-.LFB1184
 3729 02ba 2A       		.uleb128 .LEHE118-.LEHB118
 3730 02bb A516     		.uleb128 .L375-.LFB1184
 3731 02bd 00       		.uleb128 0
 3732 02be 8B16     		.uleb128 .LEHB119-.LFB1184
 3733 02c0 05       		.uleb128 .LEHE119-.LEHB119
 3734 02c1 C519     		.uleb128 .L355-.LFB1184
 3735 02c3 00       		.uleb128 0
 3736 02c4 C016     		.uleb128 .LEHB120-.LFB1184
 3737 02c6 2A       		.uleb128 .LEHE120-.LEHB120
 3738 02c7 B417     		.uleb128 .L365-.LFB1184
 3739 02c9 00       		.uleb128 0
 3740 02ca EA16     		.uleb128 .LEHB121-.LFB1184
 3741 02cc 05       		.uleb128 .LEHE121-.LEHB121
 3742 02cd C519     		.uleb128 .L355-.LFB1184
 3743 02cf 00       		.uleb128 0
 3744 02d0 8017     		.uleb128 .LEHB122-.LFB1184
 3745 02d2 2A       		.uleb128 .LEHE122-.LEHB122
 3746 02d3 C517     		.uleb128 .L363-.LFB1184
 3747 02d5 00       		.uleb128 0
 3748 02d6 AA17     		.uleb128 .LEHB123-.LFB1184
 3749 02d8 05       		.uleb128 .LEHE123-.LEHB123
 3750 02d9 C519     		.uleb128 .L355-.LFB1184
 3751 02db 00       		.uleb128 0
 3752 02dc 9B18     		.uleb128 .LEHB124-.LFB1184
 3753 02de 05       		.uleb128 .LEHE124-.LEHB124
 3754 02df 00       		.uleb128 0
 3755 02e0 00       		.uleb128 0
 3756 02e1 AD18     		.uleb128 .LEHB125-.LFB1184
 3757 02e3 2A       		.uleb128 .LEHE125-.LEHB125
 3758 02e4 A519     		.uleb128 .L359-.LFB1184
 3759 02e6 00       		.uleb128 0
 3760 02e7 D718     		.uleb128 .LEHB126-.LFB1184
 3761 02e9 05       		.uleb128 .LEHE126-.LEHB126
 3762 02ea C519     		.uleb128 .L355-.LFB1184
 3763 02ec 00       		.uleb128 0
 3764 02ed E918     		.uleb128 .LEHB127-.LFB1184
 3765 02ef 32       		.uleb128 .LEHE127-.LEHB127
 3766 02f0 B519     		.uleb128 .L357-.LFB1184
 3767 02f2 00       		.uleb128 0
 3768 02f3 9B19     		.uleb128 .LEHB128-.LFB1184
 3769 02f5 05       		.uleb128 .LEHE128-.LEHB128
 3770 02f6 C519     		.uleb128 .L355-.LFB1184
 3771 02f8 00       		.uleb128 0
 3772              	.LLSDACSE1184:
 3773 02f9 01       		.byte	0x1
 3774 02fa 00       		.byte	0
 3775 02fb 00       		.align 4
 3776 02fc 00000000 		.long	0
 3777              	
 3778              	.LLSDATT1184:
 3779              		.text
 3781              		.section	.rodata.str1.1
 3782              	.LC21:
 3783 0074 74657374 		.string	"testBinIO.cpp"
 3783      42696E49 
 3783      4F2E6370 
 3783      7000
 3784              	.LC22:
 3785 0082 44656661 		.string	"DefaultSuite"
 3785      756C7453 
 3785      75697465 
 3785      00
 3786              	.LC23:
 3787 008f 42696E49 		.string	"BinIO_testReadNonExistentFile"
 3787      4F5F7465 
 3787      73745265 
 3787      61644E6F 
 3787      6E457869 
 3788              	.LC24:
 3789 00ad 42696E49 		.string	"BinIO_testReadExistingFile"
 3789      4F5F7465 
 3789      73745265 
 3789      61644578 
 3789      69737469 
 3790              	.LC25:
 3791 00c8 42696E49 		.string	"BinIO_testWriteFile"
 3791      4F5F7465 
 3791      73745772 
 3791      69746546 
 3791      696C6500 
 3792              		.section	.text.startup,"ax",@progbits
 3793              		.p2align 4,,15
 3795              	_GLOBAL__sub_I_testBinIO_testReadNonExistentFileInstance:
 3796              	.LFB1319:
 3797              		.cfi_startproc
 3798 0000 4883EC08 		subq	$8, %rsp
 3799              		.cfi_def_cfa_offset 16
 3800 0004 41B81800 		movl	$24, %r8d
 3800      0000
 3801 000a B9000000 		movl	$.LC21, %ecx
 3801      00
 3802 000f BA000000 		movl	$.LC22, %edx
 3802      00
 3803 0014 BE000000 		movl	$.LC23, %esi
 3803      00
 3804 0019 BF000000 		movl	$testBinIO_testReadNonExistentFileInstance, %edi
 3804      00
 3805 001e E8000000 		call	_ZN8UnitTest4TestC2EPKcS2_S2_i
 3805      00
 3806 0023 BA000000 		movl	$__dso_handle, %edx
 3806      00
 3807 0028 BE000000 		movl	$testBinIO_testReadNonExistentFileInstance, %esi
 3807      00
 3808 002d BF000000 		movl	$_ZN33TestBinIO_testReadNonExistentFileD1Ev, %edi
 3808      00
 3809 0032 48C70500 		movq	$_ZTV33TestBinIO_testReadNonExistentFile+16, testBinIO_testReadNonExistentFileInstance(%rip)
 3809      00000000 
 3809      000000
 3810 003d E8000000 		call	__cxa_atexit
 3810      00
 3811 0042 E8000000 		call	_ZN8UnitTest4Test11GetTestListEv
 3811      00
 3812 0047 BA000000 		movl	$testBinIO_testReadNonExistentFileInstance, %edx
 3812      00
 3813 004c 4889C6   		movq	%rax, %rsi
 3814 004f BF000000 		movl	$adderBinIO_testReadNonExistentFile, %edi
 3814      00
 3815 0054 E8000000 		call	_ZN8UnitTest9ListAdderC1ERNS_8TestListEPNS_4TestE
 3815      00
 3816 0059 41B82100 		movl	$33, %r8d
 3816      0000
 3817 005f B9000000 		movl	$.LC21, %ecx
 3817      00
 3818 0064 BA000000 		movl	$.LC22, %edx
 3818      00
 3819 0069 BE000000 		movl	$.LC24, %esi
 3819      00
 3820 006e BF000000 		movl	$testBinIO_testReadExistingFileInstance, %edi
 3820      00
 3821 0073 E8000000 		call	_ZN8UnitTest4TestC2EPKcS2_S2_i
 3821      00
 3822 0078 BA000000 		movl	$__dso_handle, %edx
 3822      00
 3823 007d BE000000 		movl	$testBinIO_testReadExistingFileInstance, %esi
 3823      00
 3824 0082 BF000000 		movl	$_ZN30TestBinIO_testReadExistingFileD1Ev, %edi
 3824      00
 3825 0087 48C70500 		movq	$_ZTV30TestBinIO_testReadExistingFile+16, testBinIO_testReadExistingFileInstance(%rip)
 3825      00000000 
 3825      000000
 3826 0092 E8000000 		call	__cxa_atexit
 3826      00
 3827 0097 E8000000 		call	_ZN8UnitTest4Test11GetTestListEv
 3827      00
 3828 009c BA000000 		movl	$testBinIO_testReadExistingFileInstance, %edx
 3828      00
 3829 00a1 4889C6   		movq	%rax, %rsi
 3830 00a4 BF000000 		movl	$adderBinIO_testReadExistingFile, %edi
 3830      00
 3831 00a9 E8000000 		call	_ZN8UnitTest9ListAdderC1ERNS_8TestListEPNS_4TestE
 3831      00
 3832 00ae 41B83600 		movl	$54, %r8d
 3832      0000
 3833 00b4 B9000000 		movl	$.LC21, %ecx
 3833      00
 3834 00b9 BA000000 		movl	$.LC22, %edx
 3834      00
 3835 00be BE000000 		movl	$.LC25, %esi
 3835      00
 3836 00c3 BF000000 		movl	$testBinIO_testWriteFileInstance, %edi
 3836      00
 3837 00c8 E8000000 		call	_ZN8UnitTest4TestC2EPKcS2_S2_i
 3837      00
 3838 00cd BA000000 		movl	$__dso_handle, %edx
 3838      00
 3839 00d2 BE000000 		movl	$testBinIO_testWriteFileInstance, %esi
 3839      00
 3840 00d7 BF000000 		movl	$_ZN23TestBinIO_testWriteFileD1Ev, %edi
 3840      00
 3841 00dc 48C70500 		movq	$_ZTV23TestBinIO_testWriteFile+16, testBinIO_testWriteFileInstance(%rip)
 3841      00000000 
 3841      000000
 3842 00e7 E8000000 		call	__cxa_atexit
 3842      00
 3843 00ec E8000000 		call	_ZN8UnitTest4Test11GetTestListEv
 3843      00
 3844 00f1 BA000000 		movl	$testBinIO_testWriteFileInstance, %edx
 3844      00
 3845 00f6 4889C6   		movq	%rax, %rsi
 3846 00f9 BF000000 		movl	$adderBinIO_testWriteFile, %edi
 3846      00
 3847 00fe 4883C408 		addq	$8, %rsp
 3848              		.cfi_def_cfa_offset 8
 3849 0102 E9000000 		jmp	_ZN8UnitTest9ListAdderC1ERNS_8TestListEPNS_4TestE
 3849      00
 3850              		.cfi_endproc
 3851              	.LFE1319:
 3853              		.section	.init_array,"aw"
 3854              		.align 8
 3855 0000 00000000 		.quad	_GLOBAL__sub_I_testBinIO_testReadNonExistentFileInstance
 3855      00000000 
 3856              		.weak	_ZTIN8UnitTest15MemoryOutStreamE
 3857              		.section	.rodata._ZTIN8UnitTest15MemoryOutStreamE,"aG",@progbits,_ZTIN8UnitTest15MemoryOutStreamE,
 3858              		.align 16
 3861              	_ZTIN8UnitTest15MemoryOutStreamE:
 3862 0000 00000000 		.quad	_ZTVN10__cxxabiv120__si_class_type_infoE+16
 3862      00000000 
 3863 0008 00000000 		.quad	_ZTSN8UnitTest15MemoryOutStreamE
 3863      00000000 
 3864 0010 00000000 		.quad	_ZTISt19basic_ostringstreamIcSt11char_traitsIcESaIcEE
 3864      00000000 
 3865              		.weak	_ZTSN8UnitTest15MemoryOutStreamE
 3866              		.section	.rodata._ZTSN8UnitTest15MemoryOutStreamE,"aG",@progbits,_ZTSN8UnitTest15MemoryOutStreamE,
 3867              		.align 16
 3870              	_ZTSN8UnitTest15MemoryOutStreamE:
 3871 0000 4E38556E 		.string	"N8UnitTest15MemoryOutStreamE"
 3871      69745465 
 3871      73743135 
 3871      4D656D6F 
 3871      72794F75 
 3872              		.weak	_ZTS33TestBinIO_testReadNonExistentFile
 3873              		.section	.rodata._ZTS33TestBinIO_testReadNonExistentFile,"aG",@progbits,_ZTS33TestBinIO_testReadNo
 3874              		.align 32
 3877              	_ZTS33TestBinIO_testReadNonExistentFile:
 3878 0000 33335465 		.string	"33TestBinIO_testReadNonExistentFile"
 3878      73744269 
 3878      6E494F5F 
 3878      74657374 
 3878      52656164 
 3879              		.weak	_ZTI33TestBinIO_testReadNonExistentFile
 3880              		.section	.rodata._ZTI33TestBinIO_testReadNonExistentFile,"aG",@progbits,_ZTI33TestBinIO_testReadNo
 3881              		.align 16
 3884              	_ZTI33TestBinIO_testReadNonExistentFile:
 3885 0000 00000000 		.quad	_ZTVN10__cxxabiv120__si_class_type_infoE+16
 3885      00000000 
 3886 0008 00000000 		.quad	_ZTS33TestBinIO_testReadNonExistentFile
 3886      00000000 
 3887 0010 00000000 		.quad	_ZTIN8UnitTest4TestE
 3887      00000000 
 3888              		.weak	_ZTS30TestBinIO_testReadExistingFile
 3889              		.section	.rodata._ZTS30TestBinIO_testReadExistingFile,"aG",@progbits,_ZTS30TestBinIO_testReadExist
 3890              		.align 32
 3893              	_ZTS30TestBinIO_testReadExistingFile:
 3894 0000 33305465 		.string	"30TestBinIO_testReadExistingFile"
 3894      73744269 
 3894      6E494F5F 
 3894      74657374 
 3894      52656164 
 3895              		.weak	_ZTI30TestBinIO_testReadExistingFile
 3896              		.section	.rodata._ZTI30TestBinIO_testReadExistingFile,"aG",@progbits,_ZTI30TestBinIO_testReadExist
 3897              		.align 16
 3900              	_ZTI30TestBinIO_testReadExistingFile:
 3901 0000 00000000 		.quad	_ZTVN10__cxxabiv120__si_class_type_infoE+16
 3901      00000000 
 3902 0008 00000000 		.quad	_ZTS30TestBinIO_testReadExistingFile
 3902      00000000 
 3903 0010 00000000 		.quad	_ZTIN8UnitTest4TestE
 3903      00000000 
 3904              		.weak	_ZTS23TestBinIO_testWriteFile
 3905              		.section	.rodata._ZTS23TestBinIO_testWriteFile,"aG",@progbits,_ZTS23TestBinIO_testWriteFile,comdat
 3906              		.align 16
 3909              	_ZTS23TestBinIO_testWriteFile:
 3910 0000 32335465 		.string	"23TestBinIO_testWriteFile"
 3910      73744269 
 3910      6E494F5F 
 3910      74657374 
 3910      57726974 
 3911              		.weak	_ZTI23TestBinIO_testWriteFile
 3912              		.section	.rodata._ZTI23TestBinIO_testWriteFile,"aG",@progbits,_ZTI23TestBinIO_testWriteFile,comdat
 3913              		.align 16
 3916              	_ZTI23TestBinIO_testWriteFile:
 3917 0000 00000000 		.quad	_ZTVN10__cxxabiv120__si_class_type_infoE+16
 3917      00000000 
 3918 0008 00000000 		.quad	_ZTS23TestBinIO_testWriteFile
 3918      00000000 
 3919 0010 00000000 		.quad	_ZTIN8UnitTest4TestE
 3919      00000000 
 3920              		.hidden	_ZTCN8UnitTest15MemoryOutStreamE0_So
 3921              		.weak	_ZTCN8UnitTest15MemoryOutStreamE0_So
 3922              		.section	.rodata._ZTCN8UnitTest15MemoryOutStreamE0_So,"aG",@progbits,_ZTVN8UnitTest15MemoryOutStre
 3923              		.align 32
 3926              	_ZTCN8UnitTest15MemoryOutStreamE0_So:
 3927 0000 60000000 		.quad	96
 3927      00000000 
 3928 0008 00000000 		.quad	0
 3928      00000000 
 3929 0010 00000000 		.quad	_ZTISo
 3929      00000000 
 3930 0018 00000000 		.quad	_ZNSoD1Ev
 3930      00000000 
 3931 0020 00000000 		.quad	_ZNSoD0Ev
 3931      00000000 
 3932 0028 A0FFFFFF 		.quad	-96
 3932      FFFFFFFF 
 3933 0030 A0FFFFFF 		.quad	-96
 3933      FFFFFFFF 
 3934 0038 00000000 		.quad	_ZTISo
 3934      00000000 
 3935 0040 00000000 		.quad	_ZTv0_n24_NSoD1Ev
 3935      00000000 
 3936 0048 00000000 		.quad	_ZTv0_n24_NSoD0Ev
 3936      00000000 
 3937              		.hidden	_ZTCN8UnitTest15MemoryOutStreamE0_St19basic_ostringstreamIcSt11char_traitsIcESaIcEE
 3938              		.weak	_ZTCN8UnitTest15MemoryOutStreamE0_St19basic_ostringstreamIcSt11char_traitsIcESaIcEE
 3939              		.section	.rodata._ZTCN8UnitTest15MemoryOutStreamE0_St19basic_ostringstreamIcSt11char_traitsIcESaIc
 3940              		.align 32
 3943              	_ZTCN8UnitTest15MemoryOutStreamE0_St19basic_ostringstreamIcSt11char_traitsIcESaIcEE:
 3944 0000 60000000 		.quad	96
 3944      00000000 
 3945 0008 00000000 		.quad	0
 3945      00000000 
 3946 0010 00000000 		.quad	_ZTISt19basic_ostringstreamIcSt11char_traitsIcESaIcEE
 3946      00000000 
 3947 0018 00000000 		.quad	_ZNSt19basic_ostringstreamIcSt11char_traitsIcESaIcEED1Ev
 3947      00000000 
 3948 0020 00000000 		.quad	_ZNSt19basic_ostringstreamIcSt11char_traitsIcESaIcEED0Ev
 3948      00000000 
 3949 0028 A0FFFFFF 		.quad	-96
 3949      FFFFFFFF 
 3950 0030 A0FFFFFF 		.quad	-96
 3950      FFFFFFFF 
 3951 0038 00000000 		.quad	_ZTISt19basic_ostringstreamIcSt11char_traitsIcESaIcEE
 3951      00000000 
 3952 0040 00000000 		.quad	_ZTv0_n24_NSt19basic_ostringstreamIcSt11char_traitsIcESaIcEED1Ev
 3952      00000000 
 3953 0048 00000000 		.quad	_ZTv0_n24_NSt19basic_ostringstreamIcSt11char_traitsIcESaIcEED0Ev
 3953      00000000 
 3954              		.weak	_ZTTN8UnitTest15MemoryOutStreamE
 3955              		.section	.rodata._ZTTN8UnitTest15MemoryOutStreamE,"aG",@progbits,_ZTVN8UnitTest15MemoryOutStreamE,
 3956              		.align 32
 3959              	_ZTTN8UnitTest15MemoryOutStreamE:
 3960 0000 00000000 		.quad	_ZTVN8UnitTest15MemoryOutStreamE+24
 3960      00000000 
 3961 0008 00000000 		.quad	_ZTCN8UnitTest15MemoryOutStreamE0_St19basic_ostringstreamIcSt11char_traitsIcESaIcEE+24
 3961      00000000 
 3962 0010 00000000 		.quad	_ZTCN8UnitTest15MemoryOutStreamE0_So+24
 3962      00000000 
 3963 0018 00000000 		.quad	_ZTCN8UnitTest15MemoryOutStreamE0_So+64
 3963      00000000 
 3964 0020 00000000 		.quad	_ZTCN8UnitTest15MemoryOutStreamE0_St19basic_ostringstreamIcSt11char_traitsIcESaIcEE+64
 3964      00000000 
 3965 0028 00000000 		.quad	_ZTVN8UnitTest15MemoryOutStreamE+64
 3965      00000000 
 3966              		.weak	_ZTVN8UnitTest15MemoryOutStreamE
 3967              		.section	.rodata._ZTVN8UnitTest15MemoryOutStreamE,"aG",@progbits,_ZTVN8UnitTest15MemoryOutStreamE,
 3968              		.align 32
 3971              	_ZTVN8UnitTest15MemoryOutStreamE:
 3972 0000 60000000 		.quad	96
 3972      00000000 
 3973 0008 00000000 		.quad	0
 3973      00000000 
 3974 0010 00000000 		.quad	_ZTIN8UnitTest15MemoryOutStreamE
 3974      00000000 
 3975 0018 00000000 		.quad	_ZN8UnitTest15MemoryOutStreamD1Ev
 3975      00000000 
 3976 0020 00000000 		.quad	_ZN8UnitTest15MemoryOutStreamD0Ev
 3976      00000000 
 3977 0028 A0FFFFFF 		.quad	-96
 3977      FFFFFFFF 
 3978 0030 A0FFFFFF 		.quad	-96
 3978      FFFFFFFF 
 3979 0038 00000000 		.quad	_ZTIN8UnitTest15MemoryOutStreamE
 3979      00000000 
 3980 0040 00000000 		.quad	_ZTv0_n24_N8UnitTest15MemoryOutStreamD1Ev
 3980      00000000 
 3981 0048 00000000 		.quad	_ZTv0_n24_N8UnitTest15MemoryOutStreamD0Ev
 3981      00000000 
 3982              		.weak	_ZTV33TestBinIO_testReadNonExistentFile
 3983              		.section	.rodata._ZTV33TestBinIO_testReadNonExistentFile,"aG",@progbits,_ZTV33TestBinIO_testReadNo
 3984              		.align 32
 3987              	_ZTV33TestBinIO_testReadNonExistentFile:
 3988 0000 00000000 		.quad	0
 3988      00000000 
 3989 0008 00000000 		.quad	_ZTI33TestBinIO_testReadNonExistentFile
 3989      00000000 
 3990 0010 00000000 		.quad	_ZN33TestBinIO_testReadNonExistentFileD1Ev
 3990      00000000 
 3991 0018 00000000 		.quad	_ZN33TestBinIO_testReadNonExistentFileD0Ev
 3991      00000000 
 3992 0020 00000000 		.quad	_ZNK33TestBinIO_testReadNonExistentFile7RunImplEv
 3992      00000000 
 3993              		.weak	_ZTV30TestBinIO_testReadExistingFile
 3994              		.section	.rodata._ZTV30TestBinIO_testReadExistingFile,"aG",@progbits,_ZTV30TestBinIO_testReadExist
 3995              		.align 32
 3998              	_ZTV30TestBinIO_testReadExistingFile:
 3999 0000 00000000 		.quad	0
 3999      00000000 
 4000 0008 00000000 		.quad	_ZTI30TestBinIO_testReadExistingFile
 4000      00000000 
 4001 0010 00000000 		.quad	_ZN30TestBinIO_testReadExistingFileD1Ev
 4001      00000000 
 4002 0018 00000000 		.quad	_ZN30TestBinIO_testReadExistingFileD0Ev
 4002      00000000 
 4003 0020 00000000 		.quad	_ZNK30TestBinIO_testReadExistingFile7RunImplEv
 4003      00000000 
 4004              		.weak	_ZTV23TestBinIO_testWriteFile
 4005              		.section	.rodata._ZTV23TestBinIO_testWriteFile,"aG",@progbits,_ZTV23TestBinIO_testWriteFile,comdat
 4006              		.align 32
 4009              	_ZTV23TestBinIO_testWriteFile:
 4010 0000 00000000 		.quad	0
 4010      00000000 
 4011 0008 00000000 		.quad	_ZTI23TestBinIO_testWriteFile
 4011      00000000 
 4012 0010 00000000 		.quad	_ZN23TestBinIO_testWriteFileD1Ev
 4012      00000000 
 4013 0018 00000000 		.quad	_ZN23TestBinIO_testWriteFileD0Ev
 4013      00000000 
 4014 0020 00000000 		.quad	_ZNK23TestBinIO_testWriteFile7RunImplEv
 4014      00000000 
 4015              		.globl	adderBinIO_testWriteFile
 4016              		.bss
 4019              	adderBinIO_testWriteFile:
 4020 0000 00       		.zero	1
 4021              		.globl	testBinIO_testWriteFileInstance
 4022 0001 00000000 		.align 32
 4022      00000000 
 4022      00000000 
 4022      00000000 
 4022      00000000 
 4025              	testBinIO_testWriteFileInstance:
 4026 0020 00000000 		.zero	56
 4026      00000000 
 4026      00000000 
 4026      00000000 
 4026      00000000 
 4027              		.globl	adderBinIO_testReadExistingFile
 4030              	adderBinIO_testReadExistingFile:
 4031 0058 00       		.zero	1
 4032              		.globl	testBinIO_testReadExistingFileInstance
 4033 0059 00000000 		.align 32
 4033      000000
 4036              	testBinIO_testReadExistingFileInstance:
 4037 0060 00000000 		.zero	56
 4037      00000000 
 4037      00000000 
 4037      00000000 
 4037      00000000 
 4038              		.globl	adderBinIO_testReadNonExistentFile
 4041              	adderBinIO_testReadNonExistentFile:
 4042 0098 00       		.zero	1
 4043              		.globl	testBinIO_testReadNonExistentFileInstance
 4044 0099 00000000 		.align 32
 4044      000000
 4047              	testBinIO_testReadNonExistentFileInstance:
 4048 00a0 00000000 		.zero	56
 4048      00000000 
 4048      00000000 
 4048      00000000 
 4048      00000000 
 4049              		.weakref	_ZL28__gthrw___pthread_key_createPjPFvPvE,__pthread_key_create
 4050              		.hidden	__dso_handle
 4051              		.ident	"GCC: (Ubuntu 4.8.4-2ubuntu1~14.04.3) 4.8.4"
 4052              		.section	.note.GNU-stack,"",@progbits