   1              		.file	"TestChecks.cpp"
   2              		.section	.text._ZN17RecordingReporter13ReportSummaryEiiif,"axG",@progbits,_ZN17RecordingReporter13
   3              		.align 2
   4              		.p2align 4,,15
   5              		.weak	_ZN17RecordingReporter13ReportSummaryEiiif
   7              	_ZN17RecordingReporter13ReportSummaryEiiif:
   8              	.LFB1084:
   9              		.cfi_startproc
  10 0000 89B71C08 		movl	%esi, 2076(%rdi)
  10      0000
  11 0006 89972008 		movl	%edx, 2080(%rdi)
  11      0000
  12 000c F30F1187 		movss	%xmm0, 2088(%rdi)
  12      28080000 
  13 0014 898F2408 		movl	%ecx, 2084(%rdi)
  13      0000
  14 001a C3       		ret
  15              		.cfi_endproc
  16              	.LFE1084:
  18              		.section	.text._ZN17RecordingReporter15ReportTestStartERKN8UnitTest11TestDetailsE,"axG",@progbits,
  19              		.align 2
  20              		.p2align 4,,15
  21              		.weak	_ZN17RecordingReporter15ReportTestStartERKN8UnitTest11TestDetailsE
  23              	_ZN17RecordingReporter15ReportTestStartERKN8UnitTest11TestDetailsE:
  24              	.LFB1081:
  25              		.cfi_startproc
  26 0000 55       		pushq	%rbp
  27              		.cfi_def_cfa_offset 16
  28              		.cfi_offset 6, -16
  29 0001 4889F5   		movq	%rsi, %rbp
  30 0004 BA000100 		movl	$256, %edx
  30      00
  31 0009 53       		pushq	%rbx
  32              		.cfi_def_cfa_offset 24
  33              		.cfi_offset 3, -24
  34 000a 4889FB   		movq	%rdi, %rbx
  35 000d 4883EC08 		subq	$8, %rsp
  36              		.cfi_def_cfa_offset 32
  37 0011 83470801 		addl	$1, 8(%rdi)
  38 0015 488B36   		movq	(%rsi), %rsi
  39 0018 488D7F0C 		leaq	12(%rdi), %rdi
  40 001c E8000000 		call	__strcpy_chk
  40      00
  41 0021 488B7508 		movq	8(%rbp), %rsi
  42 0025 4883C408 		addq	$8, %rsp
  43              		.cfi_def_cfa_offset 24
  44 0029 488DBB0C 		leaq	268(%rbx), %rdi
  44      010000
  45 0030 5B       		popq	%rbx
  46              		.cfi_def_cfa_offset 16
  47 0031 5D       		popq	%rbp
  48              		.cfi_def_cfa_offset 8
  49 0032 BA000100 		movl	$256, %edx
  49      00
  50 0037 E9000000 		jmp	__strcpy_chk
  50      00
  51              		.cfi_endproc
  52              	.LFE1081:
  54              		.section	.text._ZN17RecordingReporter13ReportFailureERKN8UnitTest11TestDetailsEPKc,"axG",@progbits
  55              		.align 2
  56              		.p2align 4,,15
  57              		.weak	_ZN17RecordingReporter13ReportFailureERKN8UnitTest11TestDetailsEPKc
  59              	_ZN17RecordingReporter13ReportFailureERKN8UnitTest11TestDetailsEPKc:
  60              	.LFB1082:
  61              		.cfi_startproc
  62 0000 4154     		pushq	%r12
  63              		.cfi_def_cfa_offset 16
  64              		.cfi_offset 12, -16
  65 0002 4989D4   		movq	%rdx, %r12
  66 0005 BA000100 		movl	$256, %edx
  66      00
  67 000a 55       		pushq	%rbp
  68              		.cfi_def_cfa_offset 24
  69              		.cfi_offset 6, -24
  70 000b 4889F5   		movq	%rsi, %rbp
  71 000e 53       		pushq	%rbx
  72              		.cfi_def_cfa_offset 32
  73              		.cfi_offset 3, -32
  74 000f 83870C02 		addl	$1, 524(%rdi)
  74      000001
  75 0016 4889FB   		movq	%rdi, %rbx
  76 0019 488B7610 		movq	16(%rsi), %rsi
  77 001d 488DBF10 		leaq	528(%rdi), %rdi
  77      020000
  78 0024 E8000000 		call	__strcpy_chk
  78      00
  79 0029 8B4518   		movl	24(%rbp), %eax
  80 002c 488B7500 		movq	0(%rbp), %rsi
  81 0030 488DBB14 		leaq	788(%rbx), %rdi
  81      030000
  82 0037 BA000100 		movl	$256, %edx
  82      00
  83 003c 89831003 		movl	%eax, 784(%rbx)
  83      0000
  84 0042 E8000000 		call	__strcpy_chk
  84      00
  85 0047 488B7508 		movq	8(%rbp), %rsi
  86 004b 488DBB14 		leaq	1044(%rbx), %rdi
  86      040000
  87 0052 BA000100 		movl	$256, %edx
  87      00
  88 0057 E8000000 		call	__strcpy_chk
  88      00
  89 005c 488DBB14 		leaq	1300(%rbx), %rdi
  89      050000
  90 0063 4C89E6   		movq	%r12, %rsi
  91 0066 BA000100 		movl	$256, %edx
  91      00
  92 006b 5B       		popq	%rbx
  93              		.cfi_def_cfa_offset 24
  94 006c 5D       		popq	%rbp
  95              		.cfi_def_cfa_offset 16
  96 006d 415C     		popq	%r12
  97              		.cfi_def_cfa_offset 8
  98 006f E9000000 		jmp	__strcpy_chk
  98      00
  99              		.cfi_endproc
 100              	.LFE1082:
 102              		.section	.text._ZN17RecordingReporter16ReportTestFinishERKN8UnitTest11TestDetailsEf,"axG",@progbit
 103              		.align 2
 104              		.p2align 4,,15
 105              		.weak	_ZN17RecordingReporter16ReportTestFinishERKN8UnitTest11TestDetailsEf
 107              	_ZN17RecordingReporter16ReportTestFinishERKN8UnitTest11TestDetailsEf:
 108              	.LFB1083:
 109              		.cfi_startproc
 110 0000 55       		pushq	%rbp
 111              		.cfi_def_cfa_offset 16
 112              		.cfi_offset 6, -16
 113 0001 4889F5   		movq	%rsi, %rbp
 114 0004 BA000100 		movl	$256, %edx
 114      00
 115 0009 53       		pushq	%rbx
 116              		.cfi_def_cfa_offset 24
 117              		.cfi_offset 3, -24
 118 000a 4889FB   		movq	%rdi, %rbx
 119 000d 4883EC18 		subq	$24, %rsp
 120              		.cfi_def_cfa_offset 48
 121 0011 83871406 		addl	$1, 1556(%rdi)
 121      000001
 122 0018 488B36   		movq	(%rsi), %rsi
 123 001b 488DBF18 		leaq	1560(%rdi), %rdi
 123      060000
 124 0022 F30F1144 		movss	%xmm0, 12(%rsp)
 124      240C
 125 0028 E8000000 		call	__strcpy_chk
 125      00
 126 002d 488B7508 		movq	8(%rbp), %rsi
 127 0031 488DBB18 		leaq	1816(%rbx), %rdi
 127      070000
 128 0038 BA000100 		movl	$256, %edx
 128      00
 129 003d E8000000 		call	__strcpy_chk
 129      00
 130 0042 F30F1044 		movss	12(%rsp), %xmm0
 130      240C
 131 0048 F30F1183 		movss	%xmm0, 2072(%rbx)
 131      18080000 
 132 0050 4883C418 		addq	$24, %rsp
 133              		.cfi_def_cfa_offset 24
 134 0054 5B       		popq	%rbx
 135              		.cfi_def_cfa_offset 16
 136 0055 5D       		popq	%rbp
 137              		.cfi_def_cfa_offset 8
 138 0056 C3       		ret
 139              		.cfi_endproc
 140              	.LFE1083:
 142              		.section	.text._ZN17RecordingReporterD2Ev,"axG",@progbits,_ZN17RecordingReporterD5Ev,comdat
 143              		.align 2
 144              		.p2align 4,,15
 145              		.weak	_ZN17RecordingReporterD2Ev
 147              	_ZN17RecordingReporterD2Ev:
 148              	.LFB1391:
 149              		.cfi_startproc
 150 0000 48C70700 		movq	$_ZTV17RecordingReporter+16, (%rdi)
 150      000000
 151 0007 E9000000 		jmp	_ZN8UnitTest12TestReporterD2Ev
 151      00
 152              		.cfi_endproc
 153              	.LFE1391:
 155              		.weak	_ZN17RecordingReporterD1Ev
 156              		.set	_ZN17RecordingReporterD1Ev,_ZN17RecordingReporterD2Ev
 157              		.section	.text._ZN17RecordingReporterD0Ev,"axG",@progbits,_ZN17RecordingReporterD0Ev,comdat
 158              		.align 2
 159              		.p2align 4,,15
 160              		.weak	_ZN17RecordingReporterD0Ev
 162              	_ZN17RecordingReporterD0Ev:
 163              	.LFB1393:
 164              		.cfi_startproc
 165 0000 53       		pushq	%rbx
 166              		.cfi_def_cfa_offset 16
 167              		.cfi_offset 3, -16
 168 0001 4889FB   		movq	%rdi, %rbx
 169 0004 48C70700 		movq	$_ZTV17RecordingReporter+16, (%rdi)
 169      000000
 170 000b E8000000 		call	_ZN8UnitTest12TestReporterD2Ev
 170      00
 171 0010 4889DF   		movq	%rbx, %rdi
 172 0013 5B       		popq	%rbx
 173              		.cfi_def_cfa_offset 8
 174 0014 E9000000 		jmp	_ZdlPv
 174      00
 175              		.cfi_endproc
 176              	.LFE1393:
 178              		.text
 179              		.align 2
 180              		.p2align 4,,15
 182              	_ZN12_GLOBAL__N_143TestCheckArray2DCloseFailureIncludesDetailsD2Ev:
 183              	.LFB1287:
 184              		.cfi_startproc
 185 0000 48C70700 		movq	$_ZTVN12_GLOBAL__N_143TestCheckArray2DCloseFailureIncludesDetailsE+16, (%rdi)
 185      000000
 186 0007 E9000000 		jmp	_ZN8UnitTest4TestD2Ev
 186      00
 187              		.cfi_endproc
 188              	.LFE1287:
 190              		.set	_ZN12_GLOBAL__N_143TestCheckArray2DCloseFailureIncludesDetailsD1Ev,_ZN12_GLOBAL__N_143TestChe
 191              		.align 2
 192 000c 0F1F4000 		.p2align 4,,15
 194              	_ZN12_GLOBAL__N_143TestCheckArray2DCloseFailureIncludesDetailsD0Ev:
 195              	.LFB1289:
 196              		.cfi_startproc
 197 0010 53       		pushq	%rbx
 198              		.cfi_def_cfa_offset 16
 199              		.cfi_offset 3, -16
 200 0011 4889FB   		movq	%rdi, %rbx
 201 0014 48C70700 		movq	$_ZTVN12_GLOBAL__N_143TestCheckArray2DCloseFailureIncludesDetailsE+16, (%rdi)
 201      000000
 202 001b E8000000 		call	_ZN8UnitTest4TestD2Ev
 202      00
 203 0020 4889DF   		movq	%rbx, %rdi
 204 0023 5B       		popq	%rbx
 205              		.cfi_def_cfa_offset 8
 206 0024 E9000000 		jmp	_ZdlPv
 206      00
 207              		.cfi_endproc
 208              	.LFE1289:
 210 0029 90       		.align 2
 211 002a 660F1F44 		.p2align 4,,15
 211      0000
 213              	_ZN12_GLOBAL__N_133TestCheckCloseWithDoublesSucceedsD2Ev:
 214              	.LFB1291:
 215              		.cfi_startproc
 216 0030 48C70700 		movq	$_ZTVN12_GLOBAL__N_133TestCheckCloseWithDoublesSucceedsE+16, (%rdi)
 216      000000
 217 0037 E9000000 		jmp	_ZN8UnitTest4TestD2Ev
 217      00
 218              		.cfi_endproc
 219              	.LFE1291:
 221              		.set	_ZN12_GLOBAL__N_133TestCheckCloseWithDoublesSucceedsD1Ev,_ZN12_GLOBAL__N_133TestCheckCloseWit
 222              		.align 2
 223 003c 0F1F4000 		.p2align 4,,15
 225              	_ZN12_GLOBAL__N_133TestCheckCloseWithDoublesSucceedsD0Ev:
 226              	.LFB1293:
 227              		.cfi_startproc
 228 0040 53       		pushq	%rbx
 229              		.cfi_def_cfa_offset 16
 230              		.cfi_offset 3, -16
 231 0041 4889FB   		movq	%rdi, %rbx
 232 0044 48C70700 		movq	$_ZTVN12_GLOBAL__N_133TestCheckCloseWithDoublesSucceedsE+16, (%rdi)
 232      000000
 233 004b E8000000 		call	_ZN8UnitTest4TestD2Ev
 233      00
 234 0050 4889DF   		movq	%rbx, %rdi
 235 0053 5B       		popq	%rbx
 236              		.cfi_def_cfa_offset 8
 237 0054 E9000000 		jmp	_ZdlPv
 237      00
 238              		.cfi_endproc
 239              	.LFE1293:
 241 0059 90       		.align 2
 242 005a 660F1F44 		.p2align 4,,15
 242      0000
 244              	_ZN12_GLOBAL__N_126TestCheckArray2DCloseFalseD2Ev:
 245              	.LFB1295:
 246              		.cfi_startproc
 247 0060 48C70700 		movq	$_ZTVN12_GLOBAL__N_126TestCheckArray2DCloseFalseE+16, (%rdi)
 247      000000
 248 0067 E9000000 		jmp	_ZN8UnitTest4TestD2Ev
 248      00
 249              		.cfi_endproc
 250              	.LFE1295:
 252              		.set	_ZN12_GLOBAL__N_126TestCheckArray2DCloseFalseD1Ev,_ZN12_GLOBAL__N_126TestCheckArray2DCloseFal
 253              		.align 2
 254 006c 0F1F4000 		.p2align 4,,15
 256              	_ZN12_GLOBAL__N_126TestCheckArray2DCloseFalseD0Ev:
 257              	.LFB1297:
 258              		.cfi_startproc
 259 0070 53       		pushq	%rbx
 260              		.cfi_def_cfa_offset 16
 261              		.cfi_offset 3, -16
 262 0071 4889FB   		movq	%rdi, %rbx
 263 0074 48C70700 		movq	$_ZTVN12_GLOBAL__N_126TestCheckArray2DCloseFalseE+16, (%rdi)
 263      000000
 264 007b E8000000 		call	_ZN8UnitTest4TestD2Ev
 264      00
 265 0080 4889DF   		movq	%rbx, %rdi
 266 0083 5B       		popq	%rbx
 267              		.cfi_def_cfa_offset 8
 268 0084 E9000000 		jmp	_ZdlPv
 268      00
 269              		.cfi_endproc
 270              	.LFE1297:
 272 0089 90       		.align 2
 273 008a 660F1F44 		.p2align 4,,15
 273      0000
 275              	_ZN12_GLOBAL__N_125TestCheckArray2DCloseTrueD2Ev:
 276              	.LFB1299:
 277              		.cfi_startproc
 278 0090 48C70700 		movq	$_ZTVN12_GLOBAL__N_125TestCheckArray2DCloseTrueE+16, (%rdi)
 278      000000
 279 0097 E9000000 		jmp	_ZN8UnitTest4TestD2Ev
 279      00
 280              		.cfi_endproc
 281              	.LFE1299:
 283              		.set	_ZN12_GLOBAL__N_125TestCheckArray2DCloseTrueD1Ev,_ZN12_GLOBAL__N_125TestCheckArray2DCloseTrue
 284              		.align 2
 285 009c 0F1F4000 		.p2align 4,,15
 287              	_ZN12_GLOBAL__N_125TestCheckArray2DCloseTrueD0Ev:
 288              	.LFB1301:
 289              		.cfi_startproc
 290 00a0 53       		pushq	%rbx
 291              		.cfi_def_cfa_offset 16
 292              		.cfi_offset 3, -16
 293 00a1 4889FB   		movq	%rdi, %rbx
 294 00a4 48C70700 		movq	$_ZTVN12_GLOBAL__N_125TestCheckArray2DCloseTrueE+16, (%rdi)
 294      000000
 295 00ab E8000000 		call	_ZN8UnitTest4TestD2Ev
 295      00
 296 00b0 4889DF   		movq	%rbx, %rdi
 297 00b3 5B       		popq	%rbx
 298              		.cfi_def_cfa_offset 8
 299 00b4 E9000000 		jmp	_ZdlPv
 299      00
 300              		.cfi_endproc
 301              	.LFE1301:
 303 00b9 90       		.align 2
 304 00ba 660F1F44 		.p2align 4,,15
 304      0000
 306              	_ZN12_GLOBAL__N_141TestCheckArrayCloseFailureIncludesDetailsD2Ev:
 307              	.LFB1303:
 308              		.cfi_startproc
 309 00c0 48C70700 		movq	$_ZTVN12_GLOBAL__N_141TestCheckArrayCloseFailureIncludesDetailsE+16, (%rdi)
 309      000000
 310 00c7 E9000000 		jmp	_ZN8UnitTest4TestD2Ev
 310      00
 311              		.cfi_endproc
 312              	.LFE1303:
 314              		.set	_ZN12_GLOBAL__N_141TestCheckArrayCloseFailureIncludesDetailsD1Ev,_ZN12_GLOBAL__N_141TestCheck
 315              		.align 2
 316 00cc 0F1F4000 		.p2align 4,,15
 318              	_ZN12_GLOBAL__N_141TestCheckArrayCloseFailureIncludesDetailsD0Ev:
 319              	.LFB1305:
 320              		.cfi_startproc
 321 00d0 53       		pushq	%rbx
 322              		.cfi_def_cfa_offset 16
 323              		.cfi_offset 3, -16
 324 00d1 4889FB   		movq	%rdi, %rbx
 325 00d4 48C70700 		movq	$_ZTVN12_GLOBAL__N_141TestCheckArrayCloseFailureIncludesDetailsE+16, (%rdi)
 325      000000
 326 00db E8000000 		call	_ZN8UnitTest4TestD2Ev
 326      00
 327 00e0 4889DF   		movq	%rbx, %rdi
 328 00e3 5B       		popq	%rbx
 329              		.cfi_def_cfa_offset 8
 330 00e4 E9000000 		jmp	_ZdlPv
 330      00
 331              		.cfi_endproc
 332              	.LFE1305:
 334 00e9 90       		.align 2
 335 00ea 660F1F44 		.p2align 4,,15
 335      0000
 337              	_ZN12_GLOBAL__N_124TestCheckArrayCloseFalseD2Ev:
 338              	.LFB1307:
 339              		.cfi_startproc
 340 00f0 48C70700 		movq	$_ZTVN12_GLOBAL__N_124TestCheckArrayCloseFalseE+16, (%rdi)
 340      000000
 341 00f7 E9000000 		jmp	_ZN8UnitTest4TestD2Ev
 341      00
 342              		.cfi_endproc
 343              	.LFE1307:
 345              		.set	_ZN12_GLOBAL__N_124TestCheckArrayCloseFalseD1Ev,_ZN12_GLOBAL__N_124TestCheckArrayCloseFalseD2
 346              		.align 2
 347 00fc 0F1F4000 		.p2align 4,,15
 349              	_ZN12_GLOBAL__N_124TestCheckArrayCloseFalseD0Ev:
 350              	.LFB1309:
 351              		.cfi_startproc
 352 0100 53       		pushq	%rbx
 353              		.cfi_def_cfa_offset 16
 354              		.cfi_offset 3, -16
 355 0101 4889FB   		movq	%rdi, %rbx
 356 0104 48C70700 		movq	$_ZTVN12_GLOBAL__N_124TestCheckArrayCloseFalseE+16, (%rdi)
 356      000000
 357 010b E8000000 		call	_ZN8UnitTest4TestD2Ev
 357      00
 358 0110 4889DF   		movq	%rbx, %rdi
 359 0113 5B       		popq	%rbx
 360              		.cfi_def_cfa_offset 8
 361 0114 E9000000 		jmp	_ZdlPv
 361      00
 362              		.cfi_endproc
 363              	.LFE1309:
 365 0119 90       		.align 2
 366 011a 660F1F44 		.p2align 4,,15
 366      0000
 368              	_ZN12_GLOBAL__N_123TestCheckArrayCloseTrueD2Ev:
 369              	.LFB1311:
 370              		.cfi_startproc
 371 0120 48C70700 		movq	$_ZTVN12_GLOBAL__N_123TestCheckArrayCloseTrueE+16, (%rdi)
 371      000000
 372 0127 E9000000 		jmp	_ZN8UnitTest4TestD2Ev
 372      00
 373              		.cfi_endproc
 374              	.LFE1311:
 376              		.set	_ZN12_GLOBAL__N_123TestCheckArrayCloseTrueD1Ev,_ZN12_GLOBAL__N_123TestCheckArrayCloseTrueD2Ev
 377              		.align 2
 378 012c 0F1F4000 		.p2align 4,,15
 380              	_ZN12_GLOBAL__N_123TestCheckArrayCloseTrueD0Ev:
 381              	.LFB1313:
 382              		.cfi_startproc
 383 0130 53       		pushq	%rbx
 384              		.cfi_def_cfa_offset 16
 385              		.cfi_offset 3, -16
 386 0131 4889FB   		movq	%rdi, %rbx
 387 0134 48C70700 		movq	$_ZTVN12_GLOBAL__N_123TestCheckArrayCloseTrueE+16, (%rdi)
 387      000000
 388 013b E8000000 		call	_ZN8UnitTest4TestD2Ev
 388      00
 389 0140 4889DF   		movq	%rbx, %rdi
 390 0143 5B       		popq	%rbx
 391              		.cfi_def_cfa_offset 8
 392 0144 E9000000 		jmp	_ZdlPv
 392      00
 393              		.cfi_endproc
 394              	.LFE1313:
 396 0149 90       		.align 2
 397 014a 660F1F44 		.p2align 4,,15
 397      0000
 399              	_ZN12_GLOBAL__N_124TestCheckArrayEqualFalseD2Ev:
 400              	.LFB1315:
 401              		.cfi_startproc
 402 0150 48C70700 		movq	$_ZTVN12_GLOBAL__N_124TestCheckArrayEqualFalseE+16, (%rdi)
 402      000000
 403 0157 E9000000 		jmp	_ZN8UnitTest4TestD2Ev
 403      00
 404              		.cfi_endproc
 405              	.LFE1315:
 407              		.set	_ZN12_GLOBAL__N_124TestCheckArrayEqualFalseD1Ev,_ZN12_GLOBAL__N_124TestCheckArrayEqualFalseD2
 408              		.align 2
 409 015c 0F1F4000 		.p2align 4,,15
 411              	_ZN12_GLOBAL__N_124TestCheckArrayEqualFalseD0Ev:
 412              	.LFB1317:
 413              		.cfi_startproc
 414 0160 53       		pushq	%rbx
 415              		.cfi_def_cfa_offset 16
 416              		.cfi_offset 3, -16
 417 0161 4889FB   		movq	%rdi, %rbx
 418 0164 48C70700 		movq	$_ZTVN12_GLOBAL__N_124TestCheckArrayEqualFalseE+16, (%rdi)
 418      000000
 419 016b E8000000 		call	_ZN8UnitTest4TestD2Ev
 419      00
 420 0170 4889DF   		movq	%rbx, %rdi
 421 0173 5B       		popq	%rbx
 422              		.cfi_def_cfa_offset 8
 423 0174 E9000000 		jmp	_ZdlPv
 423      00
 424              		.cfi_endproc
 425              	.LFE1317:
 427 0179 90       		.align 2
 428 017a 660F1F44 		.p2align 4,,15
 428      0000
 430              	_ZN12_GLOBAL__N_123TestCheckArrayEqualTrueD2Ev:
 431              	.LFB1319:
 432              		.cfi_startproc
 433 0180 48C70700 		movq	$_ZTVN12_GLOBAL__N_123TestCheckArrayEqualTrueE+16, (%rdi)
 433      000000
 434 0187 E9000000 		jmp	_ZN8UnitTest4TestD2Ev
 434      00
 435              		.cfi_endproc
 436              	.LFE1319:
 438              		.set	_ZN12_GLOBAL__N_123TestCheckArrayEqualTrueD1Ev,_ZN12_GLOBAL__N_123TestCheckArrayEqualTrueD2Ev
 439              		.align 2
 440 018c 0F1F4000 		.p2align 4,,15
 442              	_ZN12_GLOBAL__N_123TestCheckArrayEqualTrueD0Ev:
 443              	.LFB1321:
 444              		.cfi_startproc
 445 0190 53       		pushq	%rbx
 446              		.cfi_def_cfa_offset 16
 447              		.cfi_offset 3, -16
 448 0191 4889FB   		movq	%rdi, %rbx
 449 0194 48C70700 		movq	$_ZTVN12_GLOBAL__N_123TestCheckArrayEqualTrueE+16, (%rdi)
 449      000000
 450 019b E8000000 		call	_ZN8UnitTest4TestD2Ev
 450      00
 451 01a0 4889DF   		movq	%rbx, %rdi
 452 01a3 5B       		popq	%rbx
 453              		.cfi_def_cfa_offset 8
 454 01a4 E9000000 		jmp	_ZdlPv
 454      00
 455              		.cfi_endproc
 456              	.LFE1321:
 458 01a9 90       		.align 2
 459 01aa 660F1F44 		.p2align 4,,15
 459      0000
 461              	_ZN12_GLOBAL__N_136TestCheckCloseFailureIncludesDetailsD2Ev:
 462              	.LFB1323:
 463              		.cfi_startproc
 464 01b0 48C70700 		movq	$_ZTVN12_GLOBAL__N_136TestCheckCloseFailureIncludesDetailsE+16, (%rdi)
 464      000000
 465 01b7 E9000000 		jmp	_ZN8UnitTest4TestD2Ev
 465      00
 466              		.cfi_endproc
 467              	.LFE1323:
 469              		.set	_ZN12_GLOBAL__N_136TestCheckCloseFailureIncludesDetailsD1Ev,_ZN12_GLOBAL__N_136TestCheckClose
 470              		.align 2
 471 01bc 0F1F4000 		.p2align 4,,15
 473              	_ZN12_GLOBAL__N_136TestCheckCloseFailureIncludesDetailsD0Ev:
 474              	.LFB1325:
 475              		.cfi_startproc
 476 01c0 53       		pushq	%rbx
 477              		.cfi_def_cfa_offset 16
 478              		.cfi_offset 3, -16
 479 01c1 4889FB   		movq	%rdi, %rbx
 480 01c4 48C70700 		movq	$_ZTVN12_GLOBAL__N_136TestCheckCloseFailureIncludesDetailsE+16, (%rdi)
 480      000000
 481 01cb E8000000 		call	_ZN8UnitTest4TestD2Ev
 481      00
 482 01d0 4889DF   		movq	%rbx, %rdi
 483 01d3 5B       		popq	%rbx
 484              		.cfi_def_cfa_offset 8
 485 01d4 E9000000 		jmp	_ZdlPv
 485      00
 486              		.cfi_endproc
 487              	.LFE1325:
 489 01d9 90       		.align 2
 490 01da 660F1F44 		.p2align 4,,15
 490      0000
 492              	_ZN12_GLOBAL__N_138TestCheckCloseFailureIncludesToleranceD2Ev:
 493              	.LFB1327:
 494              		.cfi_startproc
 495 01e0 48C70700 		movq	$_ZTVN12_GLOBAL__N_138TestCheckCloseFailureIncludesToleranceE+16, (%rdi)
 495      000000
 496 01e7 E9000000 		jmp	_ZN8UnitTest4TestD2Ev
 496      00
 497              		.cfi_endproc
 498              	.LFE1327:
 500              		.set	_ZN12_GLOBAL__N_138TestCheckCloseFailureIncludesToleranceD1Ev,_ZN12_GLOBAL__N_138TestCheckClo
 501              		.align 2
 502 01ec 0F1F4000 		.p2align 4,,15
 504              	_ZN12_GLOBAL__N_138TestCheckCloseFailureIncludesToleranceD0Ev:
 505              	.LFB1329:
 506              		.cfi_startproc
 507 01f0 53       		pushq	%rbx
 508              		.cfi_def_cfa_offset 16
 509              		.cfi_offset 3, -16
 510 01f1 4889FB   		movq	%rdi, %rbx
 511 01f4 48C70700 		movq	$_ZTVN12_GLOBAL__N_138TestCheckCloseFailureIncludesToleranceE+16, (%rdi)
 511      000000
 512 01fb E8000000 		call	_ZN8UnitTest4TestD2Ev
 512      00
 513 0200 4889DF   		movq	%rbx, %rdi
 514 0203 5B       		popq	%rbx
 515              		.cfi_def_cfa_offset 8
 516 0204 E9000000 		jmp	_ZdlPv
 516      00
 517              		.cfi_endproc
 518              	.LFE1329:
 520 0209 90       		.align 2
 521 020a 660F1F44 		.p2align 4,,15
 521      0000
 523              	_ZN12_GLOBAL__N_151TestCheckCloseFailureIncludesCheckExpectedAndActualD2Ev:
 524              	.LFB1331:
 525              		.cfi_startproc
 526 0210 48C70700 		movq	$_ZTVN12_GLOBAL__N_151TestCheckCloseFailureIncludesCheckExpectedAndActualE+16, (%rdi)
 526      000000
 527 0217 E9000000 		jmp	_ZN8UnitTest4TestD2Ev
 527      00
 528              		.cfi_endproc
 529              	.LFE1331:
 531              		.set	_ZN12_GLOBAL__N_151TestCheckCloseFailureIncludesCheckExpectedAndActualD1Ev,_ZN12_GLOBAL__N_15
 532              		.align 2
 533 021c 0F1F4000 		.p2align 4,,15
 535              	_ZN12_GLOBAL__N_151TestCheckCloseFailureIncludesCheckExpectedAndActualD0Ev:
 536              	.LFB1333:
 537              		.cfi_startproc
 538 0220 53       		pushq	%rbx
 539              		.cfi_def_cfa_offset 16
 540              		.cfi_offset 3, -16
 541 0221 4889FB   		movq	%rdi, %rbx
 542 0224 48C70700 		movq	$_ZTVN12_GLOBAL__N_151TestCheckCloseFailureIncludesCheckExpectedAndActualE+16, (%rdi)
 542      000000
 543 022b E8000000 		call	_ZN8UnitTest4TestD2Ev
 543      00
 544 0230 4889DF   		movq	%rbx, %rdi
 545 0233 5B       		popq	%rbx
 546              		.cfi_def_cfa_offset 8
 547 0234 E9000000 		jmp	_ZdlPv
 547      00
 548              		.cfi_endproc
 549              	.LFE1333:
 551 0239 90       		.align 2
 552 023a 660F1F44 		.p2align 4,,15
 552      0000
 554              	_ZN12_GLOBAL__N_139TestCheckCloseWithNaNAgainstItselfFailsD2Ev:
 555              	.LFB1335:
 556              		.cfi_startproc
 557 0240 48C70700 		movq	$_ZTVN12_GLOBAL__N_139TestCheckCloseWithNaNAgainstItselfFailsE+16, (%rdi)
 557      000000
 558 0247 E9000000 		jmp	_ZN8UnitTest4TestD2Ev
 558      00
 559              		.cfi_endproc
 560              	.LFE1335:
 562              		.set	_ZN12_GLOBAL__N_139TestCheckCloseWithNaNAgainstItselfFailsD1Ev,_ZN12_GLOBAL__N_139TestCheckCl
 563              		.align 2
 564 024c 0F1F4000 		.p2align 4,,15
 566              	_ZN12_GLOBAL__N_139TestCheckCloseWithNaNAgainstItselfFailsD0Ev:
 567              	.LFB1337:
 568              		.cfi_startproc
 569 0250 53       		pushq	%rbx
 570              		.cfi_def_cfa_offset 16
 571              		.cfi_offset 3, -16
 572 0251 4889FB   		movq	%rdi, %rbx
 573 0254 48C70700 		movq	$_ZTVN12_GLOBAL__N_139TestCheckCloseWithNaNAgainstItselfFailsE+16, (%rdi)
 573      000000
 574 025b E8000000 		call	_ZN8UnitTest4TestD2Ev
 574      00
 575 0260 4889DF   		movq	%rbx, %rdi
 576 0263 5B       		popq	%rbx
 577              		.cfi_def_cfa_offset 8
 578 0264 E9000000 		jmp	_ZdlPv
 578      00
 579              		.cfi_endproc
 580              	.LFE1337:
 582 0269 90       		.align 2
 583 026a 660F1F44 		.p2align 4,,15
 583      0000
 585              	_ZN12_GLOBAL__N_126TestCheckCloseWithNaNFailsD2Ev:
 586              	.LFB1339:
 587              		.cfi_startproc
 588 0270 48C70700 		movq	$_ZTVN12_GLOBAL__N_126TestCheckCloseWithNaNFailsE+16, (%rdi)
 588      000000
 589 0277 E9000000 		jmp	_ZN8UnitTest4TestD2Ev
 589      00
 590              		.cfi_endproc
 591              	.LFE1339:
 593              		.set	_ZN12_GLOBAL__N_126TestCheckCloseWithNaNFailsD1Ev,_ZN12_GLOBAL__N_126TestCheckCloseWithNaNFai
 594              		.align 2
 595 027c 0F1F4000 		.p2align 4,,15
 597              	_ZN12_GLOBAL__N_126TestCheckCloseWithNaNFailsD0Ev:
 598              	.LFB1341:
 599              		.cfi_startproc
 600 0280 53       		pushq	%rbx
 601              		.cfi_def_cfa_offset 16
 602              		.cfi_offset 3, -16
 603 0281 4889FB   		movq	%rdi, %rbx
 604 0284 48C70700 		movq	$_ZTVN12_GLOBAL__N_126TestCheckCloseWithNaNFailsE+16, (%rdi)
 604      000000
 605 028b E8000000 		call	_ZN8UnitTest4TestD2Ev
 605      00
 606 0290 4889DF   		movq	%rbx, %rdi
 607 0293 5B       		popq	%rbx
 608              		.cfi_def_cfa_offset 8
 609 0294 E9000000 		jmp	_ZdlPv
 609      00
 610              		.cfi_endproc
 611              	.LFE1341:
 613 0299 90       		.align 2
 614 029a 660F1F44 		.p2align 4,,15
 614      0000
 616              	_ZN12_GLOBAL__N_147TestCheckCloseWithZeroEpsilonWorksForSameNumberD2Ev:
 617              	.LFB1343:
 618              		.cfi_startproc
 619 02a0 48C70700 		movq	$_ZTVN12_GLOBAL__N_147TestCheckCloseWithZeroEpsilonWorksForSameNumberE+16, (%rdi)
 619      000000
 620 02a7 E9000000 		jmp	_ZN8UnitTest4TestD2Ev
 620      00
 621              		.cfi_endproc
 622              	.LFE1343:
 624              		.set	_ZN12_GLOBAL__N_147TestCheckCloseWithZeroEpsilonWorksForSameNumberD1Ev,_ZN12_GLOBAL__N_147Tes
 625              		.align 2
 626 02ac 0F1F4000 		.p2align 4,,15
 628              	_ZN12_GLOBAL__N_147TestCheckCloseWithZeroEpsilonWorksForSameNumberD0Ev:
 629              	.LFB1345:
 630              		.cfi_startproc
 631 02b0 53       		pushq	%rbx
 632              		.cfi_def_cfa_offset 16
 633              		.cfi_offset 3, -16
 634 02b1 4889FB   		movq	%rdi, %rbx
 635 02b4 48C70700 		movq	$_ZTVN12_GLOBAL__N_147TestCheckCloseWithZeroEpsilonWorksForSameNumberE+16, (%rdi)
 635      000000
 636 02bb E8000000 		call	_ZN8UnitTest4TestD2Ev
 636      00
 637 02c0 4889DF   		movq	%rbx, %rdi
 638 02c3 5B       		popq	%rbx
 639              		.cfi_def_cfa_offset 8
 640 02c4 E9000000 		jmp	_ZdlPv
 640      00
 641              		.cfi_endproc
 642              	.LFE1345:
 644 02c9 90       		.align 2
 645 02ca 660F1F44 		.p2align 4,,15
 645      0000
 647              	_ZN12_GLOBAL__N_119TestCheckCloseFalseD2Ev:
 648              	.LFB1347:
 649              		.cfi_startproc
 650 02d0 48C70700 		movq	$_ZTVN12_GLOBAL__N_119TestCheckCloseFalseE+16, (%rdi)
 650      000000
 651 02d7 E9000000 		jmp	_ZN8UnitTest4TestD2Ev
 651      00
 652              		.cfi_endproc
 653              	.LFE1347:
 655              		.set	_ZN12_GLOBAL__N_119TestCheckCloseFalseD1Ev,_ZN12_GLOBAL__N_119TestCheckCloseFalseD2Ev
 656              		.align 2
 657 02dc 0F1F4000 		.p2align 4,,15
 659              	_ZN12_GLOBAL__N_119TestCheckCloseFalseD0Ev:
 660              	.LFB1349:
 661              		.cfi_startproc
 662 02e0 53       		pushq	%rbx
 663              		.cfi_def_cfa_offset 16
 664              		.cfi_offset 3, -16
 665 02e1 4889FB   		movq	%rdi, %rbx
 666 02e4 48C70700 		movq	$_ZTVN12_GLOBAL__N_119TestCheckCloseFalseE+16, (%rdi)
 666      000000
 667 02eb E8000000 		call	_ZN8UnitTest4TestD2Ev
 667      00
 668 02f0 4889DF   		movq	%rbx, %rdi
 669 02f3 5B       		popq	%rbx
 670              		.cfi_def_cfa_offset 8
 671 02f4 E9000000 		jmp	_ZdlPv
 671      00
 672              		.cfi_endproc
 673              	.LFE1349:
 675 02f9 90       		.align 2
 676 02fa 660F1F44 		.p2align 4,,15
 676      0000
 678              	_ZN12_GLOBAL__N_118TestCheckCloseTrueD2Ev:
 679              	.LFB1351:
 680              		.cfi_startproc
 681 0300 48C70700 		movq	$_ZTVN12_GLOBAL__N_118TestCheckCloseTrueE+16, (%rdi)
 681      000000
 682 0307 E9000000 		jmp	_ZN8UnitTest4TestD2Ev
 682      00
 683              		.cfi_endproc
 684              	.LFE1351:
 686              		.set	_ZN12_GLOBAL__N_118TestCheckCloseTrueD1Ev,_ZN12_GLOBAL__N_118TestCheckCloseTrueD2Ev
 687              		.align 2
 688 030c 0F1F4000 		.p2align 4,,15
 690              	_ZN12_GLOBAL__N_118TestCheckCloseTrueD0Ev:
 691              	.LFB1353:
 692              		.cfi_startproc
 693 0310 53       		pushq	%rbx
 694              		.cfi_def_cfa_offset 16
 695              		.cfi_offset 3, -16
 696 0311 4889FB   		movq	%rdi, %rbx
 697 0314 48C70700 		movq	$_ZTVN12_GLOBAL__N_118TestCheckCloseTrueE+16, (%rdi)
 697      000000
 698 031b E8000000 		call	_ZN8UnitTest4TestD2Ev
 698      00
 699 0320 4889DF   		movq	%rbx, %rdi
 700 0323 5B       		popq	%rbx
 701              		.cfi_def_cfa_offset 8
 702 0324 E9000000 		jmp	_ZdlPv
 702      00
 703              		.cfi_endproc
 704              	.LFE1353:
 706 0329 90       		.align 2
 707 032a 660F1F44 		.p2align 4,,15
 707      0000
 709              	_ZN12_GLOBAL__N_136TestCheckEqualFailureIncludesDetailsD2Ev:
 710              	.LFB1355:
 711              		.cfi_startproc
 712 0330 48C70700 		movq	$_ZTVN12_GLOBAL__N_136TestCheckEqualFailureIncludesDetailsE+16, (%rdi)
 712      000000
 713 0337 E9000000 		jmp	_ZN8UnitTest4TestD2Ev
 713      00
 714              		.cfi_endproc
 715              	.LFE1355:
 717              		.set	_ZN12_GLOBAL__N_136TestCheckEqualFailureIncludesDetailsD1Ev,_ZN12_GLOBAL__N_136TestCheckEqual
 718              		.align 2
 719 033c 0F1F4000 		.p2align 4,,15
 721              	_ZN12_GLOBAL__N_136TestCheckEqualFailureIncludesDetailsD0Ev:
 722              	.LFB1357:
 723              		.cfi_startproc
 724 0340 53       		pushq	%rbx
 725              		.cfi_def_cfa_offset 16
 726              		.cfi_offset 3, -16
 727 0341 4889FB   		movq	%rdi, %rbx
 728 0344 48C70700 		movq	$_ZTVN12_GLOBAL__N_136TestCheckEqualFailureIncludesDetailsE+16, (%rdi)
 728      000000
 729 034b E8000000 		call	_ZN8UnitTest4TestD2Ev
 729      00
 730 0350 4889DF   		movq	%rbx, %rdi
 731 0353 5B       		popq	%rbx
 732              		.cfi_def_cfa_offset 8
 733 0354 E9000000 		jmp	_ZdlPv
 733      00
 734              		.cfi_endproc
 735              	.LFE1357:
 737 0359 90       		.align 2
 738 035a 660F1F44 		.p2align 4,,15
 738      0000
 740              	_ZN12_GLOBAL__N_151TestCheckEqualFailureIncludesCheckExpectedAndActualD2Ev:
 741              	.LFB1359:
 742              		.cfi_startproc
 743 0360 48C70700 		movq	$_ZTVN12_GLOBAL__N_151TestCheckEqualFailureIncludesCheckExpectedAndActualE+16, (%rdi)
 743      000000
 744 0367 E9000000 		jmp	_ZN8UnitTest4TestD2Ev
 744      00
 745              		.cfi_endproc
 746              	.LFE1359:
 748              		.set	_ZN12_GLOBAL__N_151TestCheckEqualFailureIncludesCheckExpectedAndActualD1Ev,_ZN12_GLOBAL__N_15
 749              		.align 2
 750 036c 0F1F4000 		.p2align 4,,15
 752              	_ZN12_GLOBAL__N_151TestCheckEqualFailureIncludesCheckExpectedAndActualD0Ev:
 753              	.LFB1361:
 754              		.cfi_startproc
 755 0370 53       		pushq	%rbx
 756              		.cfi_def_cfa_offset 16
 757              		.cfi_offset 3, -16
 758 0371 4889FB   		movq	%rdi, %rbx
 759 0374 48C70700 		movq	$_ZTVN12_GLOBAL__N_151TestCheckEqualFailureIncludesCheckExpectedAndActualE+16, (%rdi)
 759      000000
 760 037b E8000000 		call	_ZN8UnitTest4TestD2Ev
 760      00
 761 0380 4889DF   		movq	%rbx, %rdi
 762 0383 5B       		popq	%rbx
 763              		.cfi_def_cfa_offset 8
 764 0384 E9000000 		jmp	_ZdlPv
 764      00
 765              		.cfi_endproc
 766              	.LFE1361:
 768 0389 90       		.align 2
 769 038a 660F1F44 		.p2align 4,,15
 769      0000
 771              	_ZN12_GLOBAL__N_153TestCheckEqualsWithStringsWorksOnContentsWithALiteralD2Ev:
 772              	.LFB1363:
 773              		.cfi_startproc
 774 0390 48C70700 		movq	$_ZTVN12_GLOBAL__N_153TestCheckEqualsWithStringsWorksOnContentsWithALiteralE+16, (%rdi)
 774      000000
 775 0397 E9000000 		jmp	_ZN8UnitTest4TestD2Ev
 775      00
 776              		.cfi_endproc
 777              	.LFE1363:
 779              		.set	_ZN12_GLOBAL__N_153TestCheckEqualsWithStringsWorksOnContentsWithALiteralD1Ev,_ZN12_GLOBAL__N_
 780              		.align 2
 781 039c 0F1F4000 		.p2align 4,,15
 783              	_ZN12_GLOBAL__N_153TestCheckEqualsWithStringsWorksOnContentsWithALiteralD0Ev:
 784              	.LFB1365:
 785              		.cfi_startproc
 786 03a0 53       		pushq	%rbx
 787              		.cfi_def_cfa_offset 16
 788              		.cfi_offset 3, -16
 789 03a1 4889FB   		movq	%rdi, %rbx
 790 03a4 48C70700 		movq	$_ZTVN12_GLOBAL__N_153TestCheckEqualsWithStringsWorksOnContentsWithALiteralE+16, (%rdi)
 790      000000
 791 03ab E8000000 		call	_ZN8UnitTest4TestD2Ev
 791      00
 792 03b0 4889DF   		movq	%rbx, %rdi
 793 03b3 5B       		popq	%rbx
 794              		.cfi_def_cfa_offset 8
 795 03b4 E9000000 		jmp	_ZdlPv
 795      00
 796              		.cfi_endproc
 797              	.LFE1365:
 799 03b9 90       		.align 2
 800 03ba 660F1F44 		.p2align 4,,15
 800      0000
 802              	_ZN12_GLOBAL__N_154TestCheckEqualsWithStringsWorksOnContentsConstNonConstD2Ev:
 803              	.LFB1367:
 804              		.cfi_startproc
 805 03c0 48C70700 		movq	$_ZTVN12_GLOBAL__N_154TestCheckEqualsWithStringsWorksOnContentsConstNonConstE+16, (%rdi)
 805      000000
 806 03c7 E9000000 		jmp	_ZN8UnitTest4TestD2Ev
 806      00
 807              		.cfi_endproc
 808              	.LFE1367:
 810              		.set	_ZN12_GLOBAL__N_154TestCheckEqualsWithStringsWorksOnContentsConstNonConstD1Ev,_ZN12_GLOBAL__N
 811              		.align 2
 812 03cc 0F1F4000 		.p2align 4,,15
 814              	_ZN12_GLOBAL__N_154TestCheckEqualsWithStringsWorksOnContentsConstNonConstD0Ev:
 815              	.LFB1369:
 816              		.cfi_startproc
 817 03d0 53       		pushq	%rbx
 818              		.cfi_def_cfa_offset 16
 819              		.cfi_offset 3, -16
 820 03d1 4889FB   		movq	%rdi, %rbx
 821 03d4 48C70700 		movq	$_ZTVN12_GLOBAL__N_154TestCheckEqualsWithStringsWorksOnContentsConstNonConstE+16, (%rdi)
 821      000000
 822 03db E8000000 		call	_ZN8UnitTest4TestD2Ev
 822      00
 823 03e0 4889DF   		movq	%rbx, %rdi
 824 03e3 5B       		popq	%rbx
 825              		.cfi_def_cfa_offset 8
 826 03e4 E9000000 		jmp	_ZdlPv
 826      00
 827              		.cfi_endproc
 828              	.LFE1369:
 830 03e9 90       		.align 2
 831 03ea 660F1F44 		.p2align 4,,15
 831      0000
 833              	_ZN12_GLOBAL__N_154TestCheckEqualsWithStringsWorksOnContentsNonConstConstD2Ev:
 834              	.LFB1371:
 835              		.cfi_startproc
 836 03f0 48C70700 		movq	$_ZTVN12_GLOBAL__N_154TestCheckEqualsWithStringsWorksOnContentsNonConstConstE+16, (%rdi)
 836      000000
 837 03f7 E9000000 		jmp	_ZN8UnitTest4TestD2Ev
 837      00
 838              		.cfi_endproc
 839              	.LFE1371:
 841              		.set	_ZN12_GLOBAL__N_154TestCheckEqualsWithStringsWorksOnContentsNonConstConstD1Ev,_ZN12_GLOBAL__N
 842              		.align 2
 843 03fc 0F1F4000 		.p2align 4,,15
 845              	_ZN12_GLOBAL__N_154TestCheckEqualsWithStringsWorksOnContentsNonConstConstD0Ev:
 846              	.LFB1373:
 847              		.cfi_startproc
 848 0400 53       		pushq	%rbx
 849              		.cfi_def_cfa_offset 16
 850              		.cfi_offset 3, -16
 851 0401 4889FB   		movq	%rdi, %rbx
 852 0404 48C70700 		movq	$_ZTVN12_GLOBAL__N_154TestCheckEqualsWithStringsWorksOnContentsNonConstConstE+16, (%rdi)
 852      000000
 853 040b E8000000 		call	_ZN8UnitTest4TestD2Ev
 853      00
 854 0410 4889DF   		movq	%rbx, %rdi
 855 0413 5B       		popq	%rbx
 856              		.cfi_def_cfa_offset 8
 857 0414 E9000000 		jmp	_ZdlPv
 857      00
 858              		.cfi_endproc
 859              	.LFE1373:
 861 0419 90       		.align 2
 862 041a 660F1F44 		.p2align 4,,15
 862      0000
 864              	_ZN12_GLOBAL__N_151TestCheckEqualsWithStringsWorksOnContentsConstConstD2Ev:
 865              	.LFB1375:
 866              		.cfi_startproc
 867 0420 48C70700 		movq	$_ZTVN12_GLOBAL__N_151TestCheckEqualsWithStringsWorksOnContentsConstConstE+16, (%rdi)
 867      000000
 868 0427 E9000000 		jmp	_ZN8UnitTest4TestD2Ev
 868      00
 869              		.cfi_endproc
 870              	.LFE1375:
 872              		.set	_ZN12_GLOBAL__N_151TestCheckEqualsWithStringsWorksOnContentsConstConstD1Ev,_ZN12_GLOBAL__N_15
 873              		.align 2
 874 042c 0F1F4000 		.p2align 4,,15
 876              	_ZN12_GLOBAL__N_151TestCheckEqualsWithStringsWorksOnContentsConstConstD0Ev:
 877              	.LFB1377:
 878              		.cfi_startproc
 879 0430 53       		pushq	%rbx
 880              		.cfi_def_cfa_offset 16
 881              		.cfi_offset 3, -16
 882 0431 4889FB   		movq	%rdi, %rbx
 883 0434 48C70700 		movq	$_ZTVN12_GLOBAL__N_151TestCheckEqualsWithStringsWorksOnContentsConstConstE+16, (%rdi)
 883      000000
 884 043b E8000000 		call	_ZN8UnitTest4TestD2Ev
 884      00
 885 0440 4889DF   		movq	%rbx, %rdi
 886 0443 5B       		popq	%rbx
 887              		.cfi_def_cfa_offset 8
 888 0444 E9000000 		jmp	_ZdlPv
 888      00
 889              		.cfi_endproc
 890              	.LFE1377:
 892 0449 90       		.align 2
 893 044a 660F1F44 		.p2align 4,,15
 893      0000
 895              	_ZN12_GLOBAL__N_157TestCheckEqualsWithStringsWorksOnContentsNonConstNonConstD2Ev:
 896              	.LFB1379:
 897              		.cfi_startproc
 898 0450 48C70700 		movq	$_ZTVN12_GLOBAL__N_157TestCheckEqualsWithStringsWorksOnContentsNonConstNonConstE+16, (%rdi)
 898      000000
 899 0457 E9000000 		jmp	_ZN8UnitTest4TestD2Ev
 899      00
 900              		.cfi_endproc
 901              	.LFE1379:
 903              		.set	_ZN12_GLOBAL__N_157TestCheckEqualsWithStringsWorksOnContentsNonConstNonConstD1Ev,_ZN12_GLOBAL
 904              		.align 2
 905 045c 0F1F4000 		.p2align 4,,15
 907              	_ZN12_GLOBAL__N_157TestCheckEqualsWithStringsWorksOnContentsNonConstNonConstD0Ev:
 908              	.LFB1381:
 909              		.cfi_startproc
 910 0460 53       		pushq	%rbx
 911              		.cfi_def_cfa_offset 16
 912              		.cfi_offset 3, -16
 913 0461 4889FB   		movq	%rdi, %rbx
 914 0464 48C70700 		movq	$_ZTVN12_GLOBAL__N_157TestCheckEqualsWithStringsWorksOnContentsNonConstNonConstE+16, (%rdi)
 914      000000
 915 046b E8000000 		call	_ZN8UnitTest4TestD2Ev
 915      00
 916 0470 4889DF   		movq	%rbx, %rdi
 917 0473 5B       		popq	%rbx
 918              		.cfi_def_cfa_offset 8
 919 0474 E9000000 		jmp	_ZdlPv
 919      00
 920              		.cfi_endproc
 921              	.LFE1381:
 923 0479 90       		.align 2
 924 047a 660F1F44 		.p2align 4,,15
 924      0000
 926              	_ZN12_GLOBAL__N_149TestCheckEqualsWithStringsFailsOnDifferentStringsD2Ev:
 927              	.LFB1383:
 928              		.cfi_startproc
 929 0480 48C70700 		movq	$_ZTVN12_GLOBAL__N_149TestCheckEqualsWithStringsFailsOnDifferentStringsE+16, (%rdi)
 929      000000
 930 0487 E9000000 		jmp	_ZN8UnitTest4TestD2Ev
 930      00
 931              		.cfi_endproc
 932              	.LFE1383:
 934              		.set	_ZN12_GLOBAL__N_149TestCheckEqualsWithStringsFailsOnDifferentStringsD1Ev,_ZN12_GLOBAL__N_149T
 935              		.align 2
 936 048c 0F1F4000 		.p2align 4,,15
 938              	_ZN12_GLOBAL__N_149TestCheckEqualsWithStringsFailsOnDifferentStringsD0Ev:
 939              	.LFB1385:
 940              		.cfi_startproc
 941 0490 53       		pushq	%rbx
 942              		.cfi_def_cfa_offset 16
 943              		.cfi_offset 3, -16
 944 0491 4889FB   		movq	%rdi, %rbx
 945 0494 48C70700 		movq	$_ZTVN12_GLOBAL__N_149TestCheckEqualsWithStringsFailsOnDifferentStringsE+16, (%rdi)
 945      000000
 946 049b E8000000 		call	_ZN8UnitTest4TestD2Ev
 946      00
 947 04a0 4889DF   		movq	%rbx, %rdi
 948 04a3 5B       		popq	%rbx
 949              		.cfi_def_cfa_offset 8
 950 04a4 E9000000 		jmp	_ZdlPv
 950      00
 951              		.cfi_endproc
 952              	.LFE1385:
 954 04a9 90       		.align 2
 955 04aa 660F1F44 		.p2align 4,,15
 955      0000
 957              	_ZN12_GLOBAL__N_130TestCheckEqualWithUnsignedLongD2Ev:
 958              	.LFB1387:
 959              		.cfi_startproc
 960 04b0 48C70700 		movq	$_ZTVN12_GLOBAL__N_130TestCheckEqualWithUnsignedLongE+16, (%rdi)
 960      000000
 961 04b7 E9000000 		jmp	_ZN8UnitTest4TestD2Ev
 961      00
 962              		.cfi_endproc
 963              	.LFE1387:
 965              		.set	_ZN12_GLOBAL__N_130TestCheckEqualWithUnsignedLongD1Ev,_ZN12_GLOBAL__N_130TestCheckEqualWithUn
 966              		.align 2
 967 04bc 0F1F4000 		.p2align 4,,15
 969              	_ZN12_GLOBAL__N_130TestCheckEqualWithUnsignedLongD0Ev:
 970              	.LFB1389:
 971              		.cfi_startproc
 972 04c0 53       		pushq	%rbx
 973              		.cfi_def_cfa_offset 16
 974              		.cfi_offset 3, -16
 975 04c1 4889FB   		movq	%rdi, %rbx
 976 04c4 48C70700 		movq	$_ZTVN12_GLOBAL__N_130TestCheckEqualWithUnsignedLongE+16, (%rdi)
 976      000000
 977 04cb E8000000 		call	_ZN8UnitTest4TestD2Ev
 977      00
 978 04d0 4889DF   		movq	%rbx, %rdi
 979 04d3 5B       		popq	%rbx
 980              		.cfi_def_cfa_offset 8
 981 04d4 E9000000 		jmp	_ZdlPv
 981      00
 982              		.cfi_endproc
 983              	.LFE1389:
 985              		.section	.text.unlikely,"ax",@progbits
 987              	_ZStlsISt11char_traitsIcEERSt13basic_ostreamIcT_ES5_PKc.part.1:
 988              	.LFB1397:
 989              		.cfi_startproc
 990 0000 50       		pushq	%rax
 991              		.cfi_def_cfa_offset 16
 992 0001 488B07   		movq	(%rdi), %rax
 993 0004 480378E8 		addq	-24(%rax), %rdi
 994 0008 8B7720   		movl	32(%rdi), %esi
 995 000b 83CE01   		orl	$1, %esi
 996 000e E8000000 		call	_ZNSt9basic_iosIcSt11char_traitsIcEE5clearESt12_Ios_Iostate
 996      00
 997 0013 5A       		popq	%rdx
 998              		.cfi_def_cfa_offset 8
 999 0014 C3       		ret
 1000              		.cfi_endproc
 1001              	.LFE1397:
 1003              		.section	.text._ZNSt15basic_stringbufIcSt11char_traitsIcESaIcEED2Ev,"axG",@progbits,_ZNSt15basic_s
 1004              		.align 2
 1005              		.p2align 4,,15
 1006              		.weak	_ZNSt15basic_stringbufIcSt11char_traitsIcESaIcEED2Ev
 1008              	_ZNSt15basic_stringbufIcSt11char_traitsIcESaIcEED2Ev:
 1009              	.LFB1198:
 1010              		.cfi_startproc
 1011 0000 53       		pushq	%rbx
 1012              		.cfi_def_cfa_offset 16
 1013              		.cfi_offset 3, -16
 1014 0001 4889FB   		movq	%rdi, %rbx
 1015 0004 4883EC10 		subq	$16, %rsp
 1016              		.cfi_def_cfa_offset 32
 1017 0008 488B4748 		movq	72(%rdi), %rax
 1018 000c 48C70700 		movq	$_ZTVSt15basic_stringbufIcSt11char_traitsIcESaIcEE+16, (%rdi)
 1018      000000
 1019 0013 488D78E8 		leaq	-24(%rax), %rdi
 1020 0017 4881FF00 		cmpq	$_ZNSs4_Rep20_S_empty_rep_storageE, %rdi
 1020      000000
 1021 001e 7516     		jne	.L99
 1022              	.L93:
 1023 0020 488D7B38 		leaq	56(%rbx), %rdi
 1024 0024 48C70300 		movq	$_ZTVSt15basic_streambufIcSt11char_traitsIcEE+16, (%rbx)
 1024      000000
 1025 002b E8000000 		call	_ZNSt6localeD1Ev
 1025      00
 1026 0030 4883C410 		addq	$16, %rsp
 1027              		.cfi_remember_state
 1028              		.cfi_def_cfa_offset 16
 1029 0034 5B       		popq	%rbx
 1030              		.cfi_def_cfa_offset 8
 1031 0035 C3       		ret
 1032              	.L99:
 1033              		.cfi_restore_state
 1034 0036 B9000000 		movl	$_ZL28__gthrw___pthread_key_createPjPFvPvE, %ecx
 1034      00
 1035 003b 488D5710 		leaq	16(%rdi), %rdx
 1036 003f 4885C9   		testq	%rcx, %rcx
 1037 0042 7417     		je	.L94
 1038 0044 83C8FF   		orl	$-1, %eax
 1039 0047 F00FC102 		lock xaddl	%eax, (%rdx)
 1040              	.L95:
 1041 004b 85C0     		testl	%eax, %eax
 1042 004d 7FD1     		jg	.L93
 1043 004f 488D7424 		leaq	15(%rsp), %rsi
 1043      0F
 1044 0054 E8000000 		call	_ZNSs4_Rep10_M_destroyERKSaIcE
 1044      00
 1045 0059 EBC5     		jmp	.L93
 1046              	.L94:
 1047 005b 8B50F8   		movl	-8(%rax), %edx
 1048 005e 8D4AFF   		leal	-1(%rdx), %ecx
 1049 0061 8948F8   		movl	%ecx, -8(%rax)
 1050 0064 89D0     		movl	%edx, %eax
 1051 0066 EBE3     		jmp	.L95
 1052              		.cfi_endproc
 1053              	.LFE1198:
 1055              		.weak	_ZNSt15basic_stringbufIcSt11char_traitsIcESaIcEED1Ev
 1056              		.set	_ZNSt15basic_stringbufIcSt11char_traitsIcESaIcEED1Ev,_ZNSt15basic_stringbufIcSt11char_traitsI
 1057              		.section	.text._ZNSt15basic_stringbufIcSt11char_traitsIcESaIcEED0Ev,"axG",@progbits,_ZNSt15basic_s
 1058              		.align 2
 1059              		.p2align 4,,15
 1060              		.weak	_ZNSt15basic_stringbufIcSt11char_traitsIcESaIcEED0Ev
 1062              	_ZNSt15basic_stringbufIcSt11char_traitsIcESaIcEED0Ev:
 1063              	.LFB1200:
 1064              		.cfi_startproc
 1065 0000 53       		pushq	%rbx
 1066              		.cfi_def_cfa_offset 16
 1067              		.cfi_offset 3, -16
 1068 0001 4889FB   		movq	%rdi, %rbx
 1069 0004 4883EC10 		subq	$16, %rsp
 1070              		.cfi_def_cfa_offset 32
 1071 0008 488B4748 		movq	72(%rdi), %rax
 1072 000c 48C70700 		movq	$_ZTVSt15basic_stringbufIcSt11char_traitsIcESaIcEE+16, (%rdi)
 1072      000000
 1073 0013 488D78E8 		leaq	-24(%rax), %rdi
 1074 0017 4881FF00 		cmpq	$_ZNSs4_Rep20_S_empty_rep_storageE, %rdi
 1074      000000
 1075 001e 751E     		jne	.L107
 1076              	.L102:
 1077 0020 488D7B38 		leaq	56(%rbx), %rdi
 1078 0024 48C70300 		movq	$_ZTVSt15basic_streambufIcSt11char_traitsIcEE+16, (%rbx)
 1078      000000
 1079 002b E8000000 		call	_ZNSt6localeD1Ev
 1079      00
 1080 0030 4889DF   		movq	%rbx, %rdi
 1081 0033 E8000000 		call	_ZdlPv
 1081      00
 1082 0038 4883C410 		addq	$16, %rsp
 1083              		.cfi_remember_state
 1084              		.cfi_def_cfa_offset 16
 1085 003c 5B       		popq	%rbx
 1086              		.cfi_def_cfa_offset 8
 1087 003d C3       		ret
 1088              	.L107:
 1089              		.cfi_restore_state
 1090 003e B9000000 		movl	$_ZL28__gthrw___pthread_key_createPjPFvPvE, %ecx
 1090      00
 1091 0043 488D5710 		leaq	16(%rdi), %rdx
 1092 0047 4885C9   		testq	%rcx, %rcx
 1093 004a 7417     		je	.L103
 1094 004c 83C8FF   		orl	$-1, %eax
 1095 004f F00FC102 		lock xaddl	%eax, (%rdx)
 1096              	.L104:
 1097 0053 85C0     		testl	%eax, %eax
 1098 0055 7FC9     		jg	.L102
 1099 0057 488D7424 		leaq	15(%rsp), %rsi
 1099      0F
 1100 005c E8000000 		call	_ZNSs4_Rep10_M_destroyERKSaIcE
 1100      00
 1101 0061 EBBD     		jmp	.L102
 1102              	.L103:
 1103 0063 8B50F8   		movl	-8(%rax), %edx
 1104 0066 8D4AFF   		leal	-1(%rdx), %ecx
 1105 0069 8948F8   		movl	%ecx, -8(%rax)
 1106 006c 89D0     		movl	%edx, %eax
 1107 006e EBE3     		jmp	.L104
 1108              		.cfi_endproc
 1109              	.LFE1200:
 1111              		.section	.text._ZN8UnitTest15MemoryOutStreamD1Ev,"axG",@progbits,_ZN8UnitTest15MemoryOutStreamD1Ev
 1112              		.align 2
 1113              		.p2align 4,,15
 1114              		.weak	_ZN8UnitTest15MemoryOutStreamD1Ev
 1116              	_ZN8UnitTest15MemoryOutStreamD1Ev:
 1117              	.LFB1219:
 1118              		.cfi_startproc
 1119 0000 53       		pushq	%rbx
 1120              		.cfi_def_cfa_offset 16
 1121              		.cfi_offset 3, -16
 1122 0001 4889FB   		movq	%rdi, %rbx
 1123 0004 4883EC10 		subq	$16, %rsp
 1124              		.cfi_def_cfa_offset 32
 1125 0008 488B4758 		movq	88(%rdi), %rax
 1126 000c 48C70700 		movq	$_ZTVN8UnitTest15MemoryOutStreamE+24, (%rdi)
 1126      000000
 1127 0013 48C74760 		movq	$_ZTVN8UnitTest15MemoryOutStreamE+64, 96(%rdi)
 1127      00000000 
 1128 001b 488D78E8 		leaq	-24(%rax), %rdi
 1129 001f 4881FF00 		cmpq	$_ZNSs4_Rep20_S_empty_rep_storageE, %rdi
 1129      000000
 1130 0026 7557     		jne	.L120
 1131              	.L110:
 1132 0028 488B4350 		movq	80(%rbx), %rax
 1133 002c 48C70300 		movq	$_ZTCN8UnitTest15MemoryOutStreamE0_St19basic_ostringstreamIcSt11char_traitsIcESaIcEE+24, (%rb
 1133      000000
 1134 0033 48C74360 		movq	$_ZTCN8UnitTest15MemoryOutStreamE0_St19basic_ostringstreamIcSt11char_traitsIcESaIcEE+64, 96(%
 1134      00000000 
 1135 003b 48C74308 		movq	$_ZTVSt15basic_stringbufIcSt11char_traitsIcESaIcEE+16, 8(%rbx)
 1135      00000000 
 1136 0043 488D78E8 		leaq	-24(%rax), %rdi
 1137 0047 4881FF00 		cmpq	$_ZNSs4_Rep20_S_empty_rep_storageE, %rdi
 1137      000000
 1138 004e 7554     		jne	.L121
 1139              	.L115:
 1140 0050 488D7B40 		leaq	64(%rbx), %rdi
 1141 0054 48C74308 		movq	$_ZTVSt15basic_streambufIcSt11char_traitsIcEE+16, 8(%rbx)
 1141      00000000 
 1142 005c E8000000 		call	_ZNSt6localeD1Ev
 1142      00
 1143 0061 488D7B60 		leaq	96(%rbx), %rdi
 1144 0065 48C70300 		movq	$_ZTCN8UnitTest15MemoryOutStreamE0_So+24, (%rbx)
 1144      000000
 1145 006c 48C74360 		movq	$_ZTVSt9basic_iosIcSt11char_traitsIcEE+16, 96(%rbx)
 1145      00000000 
 1146 0074 E8000000 		call	_ZNSt8ios_baseD2Ev
 1146      00
 1147 0079 4883C410 		addq	$16, %rsp
 1148              		.cfi_remember_state
 1149              		.cfi_def_cfa_offset 16
 1150 007d 5B       		popq	%rbx
 1151              		.cfi_def_cfa_offset 8
 1152 007e C3       		ret
 1153              	.L120:
 1154              		.cfi_restore_state
 1155 007f B9000000 		movl	$_ZL28__gthrw___pthread_key_createPjPFvPvE, %ecx
 1155      00
 1156 0084 488D5710 		leaq	16(%rdi), %rdx
 1157 0088 4885C9   		testq	%rcx, %rcx
 1158 008b 743C     		je	.L111
 1159 008d 83C8FF   		orl	$-1, %eax
 1160 0090 F00FC102 		lock xaddl	%eax, (%rdx)
 1161              	.L112:
 1162 0094 85C0     		testl	%eax, %eax
 1163 0096 7F90     		jg	.L110
 1164 0098 488D7424 		leaq	15(%rsp), %rsi
 1164      0F
 1165 009d E8000000 		call	_ZNSs4_Rep10_M_destroyERKSaIcE
 1165      00
 1166 00a2 EB84     		jmp	.L110
 1167              	.L121:
 1168 00a4 B9000000 		movl	$_ZL28__gthrw___pthread_key_createPjPFvPvE, %ecx
 1168      00
 1169 00a9 488D5710 		leaq	16(%rdi), %rdx
 1170 00ad 4885C9   		testq	%rcx, %rcx
 1171 00b0 7424     		je	.L116
 1172 00b2 83C8FF   		orl	$-1, %eax
 1173 00b5 F00FC102 		lock xaddl	%eax, (%rdx)
 1174              	.L117:
 1175 00b9 85C0     		testl	%eax, %eax
 1176 00bb 7F93     		jg	.L115
 1177 00bd 488D7424 		leaq	15(%rsp), %rsi
 1177      0F
 1178 00c2 E8000000 		call	_ZNSs4_Rep10_M_destroyERKSaIcE
 1178      00
 1179 00c7 EB87     		jmp	.L115
 1180              	.L111:
 1181 00c9 8B50F8   		movl	-8(%rax), %edx
 1182 00cc 8D4AFF   		leal	-1(%rdx), %ecx
 1183 00cf 8948F8   		movl	%ecx, -8(%rax)
 1184 00d2 89D0     		movl	%edx, %eax
 1185 00d4 EBBE     		jmp	.L112
 1186              	.L116:
 1187 00d6 8B50F8   		movl	-8(%rax), %edx
 1188 00d9 8D4AFF   		leal	-1(%rdx), %ecx
 1189 00dc 8948F8   		movl	%ecx, -8(%rax)
 1190 00df 89D0     		movl	%edx, %eax
 1191 00e1 EBD6     		jmp	.L117
 1192              		.cfi_endproc
 1193              	.LFE1219:
 1195              		.set	.LTHUNK0,_ZN8UnitTest15MemoryOutStreamD1Ev
 1196 00e3 66666666 		.p2align 4,,15
 1196      2E0F1F84 
 1196      00000000 
 1196      00
 1197              		.weak	_ZTv0_n24_N8UnitTest15MemoryOutStreamD1Ev
 1199              	_ZTv0_n24_N8UnitTest15MemoryOutStreamD1Ev:
 1200              	.LFB1411:
 1201              		.cfi_startproc
 1202 00f0 4C8B17   		movq	(%rdi), %r10
 1203 00f3 49037AE8 		addq	-24(%r10), %rdi
 1204 00f7 E904FFFF 		jmp	.LTHUNK0
 1204      FF
 1205              		.cfi_endproc
 1206              	.LFE1411:
 1208              		.section	.text._ZN8UnitTest15MemoryOutStreamD0Ev,"axG",@progbits,_ZN8UnitTest15MemoryOutStreamD0Ev
 1209              		.align 2
 1210              		.p2align 4,,15
 1211              		.weak	_ZN8UnitTest15MemoryOutStreamD0Ev
 1213              	_ZN8UnitTest15MemoryOutStreamD0Ev:
 1214              	.LFB1220:
 1215              		.cfi_startproc
 1216 0000 53       		pushq	%rbx
 1217              		.cfi_def_cfa_offset 16
 1218              		.cfi_offset 3, -16
 1219 0001 4889FB   		movq	%rdi, %rbx
 1220 0004 4883EC10 		subq	$16, %rsp
 1221              		.cfi_def_cfa_offset 32
 1222 0008 488B4758 		movq	88(%rdi), %rax
 1223 000c 48C70700 		movq	$_ZTVN8UnitTest15MemoryOutStreamE+24, (%rdi)
 1223      000000
 1224 0013 48C74760 		movq	$_ZTVN8UnitTest15MemoryOutStreamE+64, 96(%rdi)
 1224      00000000 
 1225 001b 488D78E8 		leaq	-24(%rax), %rdi
 1226 001f 4881FF00 		cmpq	$_ZNSs4_Rep20_S_empty_rep_storageE, %rdi
 1226      000000
 1227 0026 755F     		jne	.L134
 1228              	.L124:
 1229 0028 488B4350 		movq	80(%rbx), %rax
 1230 002c 48C70300 		movq	$_ZTCN8UnitTest15MemoryOutStreamE0_St19basic_ostringstreamIcSt11char_traitsIcESaIcEE+24, (%rb
 1230      000000
 1231 0033 48C74360 		movq	$_ZTCN8UnitTest15MemoryOutStreamE0_St19basic_ostringstreamIcSt11char_traitsIcESaIcEE+64, 96(%
 1231      00000000 
 1232 003b 48C74308 		movq	$_ZTVSt15basic_stringbufIcSt11char_traitsIcESaIcEE+16, 8(%rbx)
 1232      00000000 
 1233 0043 488D78E8 		leaq	-24(%rax), %rdi
 1234 0047 4881FF00 		cmpq	$_ZNSs4_Rep20_S_empty_rep_storageE, %rdi
 1234      000000
 1235 004e 755F     		jne	.L135
 1236              	.L129:
 1237 0050 488D7B40 		leaq	64(%rbx), %rdi
 1238 0054 48C74308 		movq	$_ZTVSt15basic_streambufIcSt11char_traitsIcEE+16, 8(%rbx)
 1238      00000000 
 1239 005c E8000000 		call	_ZNSt6localeD1Ev
 1239      00
 1240 0061 488D7B60 		leaq	96(%rbx), %rdi
 1241 0065 48C70300 		movq	$_ZTCN8UnitTest15MemoryOutStreamE0_So+24, (%rbx)
 1241      000000
 1242 006c 48C74360 		movq	$_ZTVSt9basic_iosIcSt11char_traitsIcEE+16, 96(%rbx)
 1242      00000000 
 1243 0074 E8000000 		call	_ZNSt8ios_baseD2Ev
 1243      00
 1244 0079 4889DF   		movq	%rbx, %rdi
 1245 007c E8000000 		call	_ZdlPv
 1245      00
 1246 0081 4883C410 		addq	$16, %rsp
 1247              		.cfi_remember_state
 1248              		.cfi_def_cfa_offset 16
 1249 0085 5B       		popq	%rbx
 1250              		.cfi_def_cfa_offset 8
 1251 0086 C3       		ret
 1252              	.L134:
 1253              		.cfi_restore_state
 1254 0087 B9000000 		movl	$_ZL28__gthrw___pthread_key_createPjPFvPvE, %ecx
 1254      00
 1255 008c 488D5710 		leaq	16(%rdi), %rdx
 1256 0090 4885C9   		testq	%rcx, %rcx
 1257 0093 7442     		je	.L125
 1258 0095 83C8FF   		orl	$-1, %eax
 1259 0098 F00FC102 		lock xaddl	%eax, (%rdx)
 1260              	.L126:
 1261 009c 85C0     		testl	%eax, %eax
 1262 009e 7F88     		jg	.L124
 1263 00a0 488D7424 		leaq	15(%rsp), %rsi
 1263      0F
 1264 00a5 E8000000 		call	_ZNSs4_Rep10_M_destroyERKSaIcE
 1264      00
 1265 00aa E979FFFF 		jmp	.L124
 1265      FF
 1266              	.L135:
 1267 00af B9000000 		movl	$_ZL28__gthrw___pthread_key_createPjPFvPvE, %ecx
 1267      00
 1268 00b4 488D5710 		leaq	16(%rdi), %rdx
 1269 00b8 4885C9   		testq	%rcx, %rcx
 1270 00bb 7427     		je	.L130
 1271 00bd 83C8FF   		orl	$-1, %eax
 1272 00c0 F00FC102 		lock xaddl	%eax, (%rdx)
 1273              	.L131:
 1274 00c4 85C0     		testl	%eax, %eax
 1275 00c6 7F88     		jg	.L129
 1276 00c8 488D7424 		leaq	15(%rsp), %rsi
 1276      0F
 1277 00cd E8000000 		call	_ZNSs4_Rep10_M_destroyERKSaIcE
 1277      00
 1278 00d2 E979FFFF 		jmp	.L129
 1278      FF
 1279              	.L125:
 1280 00d7 8B50F8   		movl	-8(%rax), %edx
 1281 00da 8D4AFF   		leal	-1(%rdx), %ecx
 1282 00dd 8948F8   		movl	%ecx, -8(%rax)
 1283 00e0 89D0     		movl	%edx, %eax
 1284 00e2 EBB8     		jmp	.L126
 1285              	.L130:
 1286 00e4 8B50F8   		movl	-8(%rax), %edx
 1287 00e7 8D4AFF   		leal	-1(%rdx), %ecx
 1288 00ea 8948F8   		movl	%ecx, -8(%rax)
 1289 00ed 89D0     		movl	%edx, %eax
 1290 00ef EBD3     		jmp	.L131
 1291              		.cfi_endproc
 1292              	.LFE1220:
 1294              		.set	.LTHUNK1,_ZN8UnitTest15MemoryOutStreamD0Ev
 1295 00f1 66666666 		.p2align 4,,15
 1295      66662E0F 
 1295      1F840000 
 1295      000000
 1296              		.weak	_ZTv0_n24_N8UnitTest15MemoryOutStreamD0Ev
 1298              	_ZTv0_n24_N8UnitTest15MemoryOutStreamD0Ev:
 1299              	.LFB1412:
 1300              		.cfi_startproc
 1301 0100 4C8B17   		movq	(%rdi), %r10
 1302 0103 49037AE8 		addq	-24(%r10), %rdi
 1303 0107 E9F4FEFF 		jmp	.LTHUNK1
 1303      FF
 1304              		.cfi_endproc
 1305              	.LFE1412:
 1307              		.section	.rodata.str1.1,"aMS",@progbits,1
 1308              	.LC1:
 1309 0000 00       		.string	""
 1310              	.LC2:
 1311 0001 45787065 		.string	"Expected "
 1311      63746564 
 1311      2000
 1312              	.LC4:
 1313 000b 202B2F2D 		.string	" +/- "
 1313      2000
 1314              	.LC6:
 1315 0011 20627574 		.string	" but was "
 1315      20776173 
 1315      2000
 1316              	.LC8:
 1317 001b 78706563 		.string	"xpected 0.9"
 1317      74656420 
 1317      302E3900 
 1318              		.section	.rodata.str1.8,"aMS",@progbits,1
 1319              		.align 8
 1320              	.LC9:
 1321 0000 73747273 		.string	"strstr(reporter.lastFailedMessage, \"xpected 0.9\")"
 1321      74722872 
 1321      65706F72 
 1321      7465722E 
 1321      6C617374 
 1322              		.section	.rodata.str1.1
 1323              	.LC10:
 1324 0027 77617320 		.string	"was 1.1"
 1324      312E3100 
 1325              		.section	.rodata.str1.8
 1326 0032 00000000 		.align 8
 1326      0000
 1327              	.LC11:
 1328 0038 73747273 		.string	"strstr(reporter.lastFailedMessage, \"was 1.1\")"
 1328      74722872 
 1328      65706F72 
 1328      7465722E 
 1328      6C617374 
 1329 0066 0000     		.align 8
 1330              	.LC12:
 1331 0068 556E6861 		.string	"Unhandled exception in CHECK(strstr(reporter.lastFailedMessage, \"xpected 0.9\"))"
 1331      6E646C65 
 1331      64206578 
 1331      63657074 
 1331      696F6E20 
 1332              		.align 8
 1333              	.LC13:
 1334 00b8 556E6861 		.string	"Unhandled exception in CHECK(strstr(reporter.lastFailedMessage, \"was 1.1\"))"
 1334      6E646C65 
 1334      64206578 
 1334      63657074 
 1334      696F6E20 
 1335              		.text
 1336 04d9 90       		.align 2
 1337 04da 660F1F44 		.p2align 4,,15
 1337      0000
 1339              	_ZNK12_GLOBAL__N_151TestCheckCloseFailureIncludesCheckExpectedAndActual7RunImplEv:
 1340              	.LFB1144:
 1341              		.cfi_startproc
 1342              		.cfi_personality 0x3,__gxx_personality_v0
 1343              		.cfi_lsda 0x3,.LLSDA1144
 1344 04e0 53       		pushq	%rbx
 1345              		.cfi_def_cfa_offset 16
 1346              		.cfi_offset 3, -16
 1347 04e1 4881EC00 		subq	$2560, %rsp
 1347      0A0000
 1348              		.cfi_def_cfa_offset 2576
 1349 04e8 488DB424 		leaq	448(%rsp), %rsi
 1349      C0010000 
 1350 04f0 488D7C24 		leaq	16(%rsp), %rdi
 1350      10
 1351 04f5 48C78424 		movq	$_ZTV17RecordingReporter+16, 448(%rsp)
 1351      C0010000 
 1351      00000000 
 1352 0501 64488B04 		movq	%fs:40, %rax
 1352      25280000 
 1352      00
 1353 050a 48898424 		movq	%rax, 2552(%rsp)
 1353      F8090000 
 1354 0512 31C0     		xorl	%eax, %eax
 1355 0514 C78424C8 		movl	$0, 456(%rsp)
 1355      01000000 
 1355      000000
 1356 051f C78424CC 		movl	$0, 972(%rsp)
 1356      03000000 
 1356      000000
 1357 052a C78424D0 		movl	$0, 1232(%rsp)
 1357      04000000 
 1357      000000
 1358 0535 C78424D4 		movl	$0, 2004(%rsp)
 1358      07000000 
 1358      000000
 1359 0540 C78424D8 		movl	$0x00000000, 2520(%rsp)
 1359      09000000 
 1359      000000
 1360 054b C78424DC 		movl	$0, 2524(%rsp)
 1360      09000000 
 1360      000000
 1361 0556 C78424E0 		movl	$0, 2528(%rsp)
 1361      09000000 
 1361      000000
 1362 0561 C78424E4 		movl	$0, 2532(%rsp)
 1362      09000000 
 1362      000000
 1363 056c C78424E8 		movl	$0x00000000, 2536(%rsp)
 1363      09000000 
 1363      000000
 1364 0577 C68424CC 		movb	$0, 460(%rsp)
 1364      01000000 
 1365 057f C68424CC 		movb	$0, 716(%rsp)
 1365      02000000 
 1366 0587 C68424D0 		movb	$0, 976(%rsp)
 1366      03000000 
 1367 058f C68424D4 		movb	$0, 1236(%rsp)
 1367      04000000 
 1368 0597 C68424D4 		movb	$0, 1492(%rsp)
 1368      05000000 
 1369 059f C68424D4 		movb	$0, 1748(%rsp)
 1369      06000000 
 1370 05a7 C68424D8 		movb	$0, 2008(%rsp)
 1370      07000000 
 1371 05af C68424D8 		movb	$0, 2264(%rsp)
 1371      08000000 
 1372              	.LEHB0:
 1373 05b7 E8000000 		call	_ZN8UnitTest11TestResultsC1EPNS_12TestReporterE
 1373      00
 1374 05bc B9000000 		movl	$.LC1, %ecx
 1374      00
 1375 05c1 488D7C24 		leaq	48(%rsp), %rdi
 1375      30
 1376 05c6 4531C0   		xorl	%r8d, %r8d
 1377 05c9 4889CA   		movq	%rcx, %rdx
 1378 05cc 4889CE   		movq	%rcx, %rsi
 1379 05cf E8000000 		call	_ZN8UnitTest11TestDetailsC1EPKcS2_S2_i
 1379      00
 1380              	.LEHE0:
 1381 05d4 488D9C24 		leaq	176(%rsp), %rbx
 1381      B0000000 
 1382 05dc 4889DF   		movq	%rbx, %rdi
 1383 05df E8000000 		call	_ZNSt8ios_baseC2Ev
 1383      00
 1384 05e4 31F6     		xorl	%esi, %esi
 1385 05e6 4889DF   		movq	%rbx, %rdi
 1386 05e9 48C78424 		movq	$0, 392(%rsp)
 1386      88010000 
 1386      00000000 
 1387 05f5 C6842490 		movb	$0, 400(%rsp)
 1387      01000000 
 1388 05fd C6842491 		movb	$0, 401(%rsp)
 1388      01000000 
 1389 0605 48C78424 		movq	$0, 408(%rsp)
 1389      98010000 
 1389      00000000 
 1390 0611 48C78424 		movq	$0, 416(%rsp)
 1390      A0010000 
 1390      00000000 
 1391 061d 48C78424 		movq	$0, 424(%rsp)
 1391      A8010000 
 1391      00000000 
 1392 0629 48C78424 		movq	$0, 432(%rsp)
 1392      B0010000 
 1392      00000000 
 1393 0635 48C74424 		movq	$_ZTCN8UnitTest15MemoryOutStreamE0_So+24, 80(%rsp)
 1393      50000000 
 1393      00
 1394 063e 48C78424 		movq	$_ZTCN8UnitTest15MemoryOutStreamE0_So+64, 176(%rsp)
 1394      B0000000 
 1394      00000000 
 1395              	.LEHB1:
 1396 064a E8000000 		call	_ZNSt9basic_iosIcSt11char_traitsIcEE4initEPSt15basic_streambufIcS1_E
 1396      00
 1397              	.LEHE1:
 1398 064f 488DBC24 		leaq	144(%rsp), %rdi
 1398      90000000 
 1399 0657 48C74424 		movq	$_ZTCN8UnitTest15MemoryOutStreamE0_St19basic_ostringstreamIcSt11char_traitsIcESaIcEE+24, 80(%
 1399      50000000 
 1399      00
 1400 0660 48C78424 		movq	$_ZTCN8UnitTest15MemoryOutStreamE0_St19basic_ostringstreamIcSt11char_traitsIcESaIcEE+64, 176(
 1400      B0000000 
 1400      00000000 
 1401 066c 48C74424 		movq	$_ZTVSt15basic_streambufIcSt11char_traitsIcEE+16, 88(%rsp)
 1401      58000000 
 1401      00
 1402 0675 48C74424 		movq	$0, 96(%rsp)
 1402      60000000 
 1402      00
 1403 067e 48C74424 		movq	$0, 104(%rsp)
 1403      68000000 
 1403      00
 1404 0687 48C74424 		movq	$0, 112(%rsp)
 1404      70000000 
 1404      00
 1405 0690 48C74424 		movq	$0, 120(%rsp)
 1405      78000000 
 1405      00
 1406 0699 48C78424 		movq	$0, 128(%rsp)
 1406      80000000 
 1406      00000000 
 1407 06a5 48C78424 		movq	$0, 136(%rsp)
 1407      88000000 
 1407      00000000 
 1408 06b1 E8000000 		call	_ZNSt6localeC1Ev
 1408      00
 1409 06b6 488B4424 		movq	80(%rsp), %rax
 1409      50
 1410 06bb 488D7C24 		leaq	80(%rsp), %rdi
 1410      50
 1411 06c0 488D7424 		leaq	88(%rsp), %rsi
 1411      58
 1412 06c5 48C74424 		movq	$_ZTVSt15basic_stringbufIcSt11char_traitsIcESaIcEE+16, 88(%rsp)
 1412      58000000 
 1412      00
 1413 06ce C7842498 		movl	$16, 152(%rsp)
 1413      00000010 
 1413      000000
 1414 06d9 48C78424 		movq	$_ZNSs4_Rep20_S_empty_rep_storageE+24, 160(%rsp)
 1414      A0000000 
 1414      00000000 
 1415 06e5 480378E8 		addq	-24(%rax), %rdi
 1416              	.LEHB2:
 1417 06e9 E8000000 		call	_ZNSt9basic_iosIcSt11char_traitsIcEE4initEPSt15basic_streambufIcS1_E
 1417      00
 1418              	.LEHE2:
 1419 06ee 488D7C24 		leaq	80(%rsp), %rdi
 1419      50
 1420 06f3 BA090000 		movl	$9, %edx
 1420      00
 1421 06f8 BE000000 		movl	$.LC2, %esi
 1421      00
 1422 06fd 48C74424 		movq	$_ZTVN8UnitTest15MemoryOutStreamE+24, 80(%rsp)
 1422      50000000 
 1422      00
 1423 0706 48C78424 		movq	$_ZTVN8UnitTest15MemoryOutStreamE+64, 176(%rsp)
 1423      B0000000 
 1423      00000000 
 1424 0712 48C78424 		movq	$_ZNSs4_Rep20_S_empty_rep_storageE+24, 168(%rsp)
 1424      A8000000 
 1424      00000000 
 1425              	.LEHB3:
 1426 071e E8000000 		call	_ZSt16__ostream_insertIcSt11char_traitsIcEERSt13basic_ostreamIT_T0_ES6_PKS3_l
 1426      00
 1427 0723 F20F1005 		movsd	.LC3(%rip), %xmm0
 1427      00000000 
 1428 072b 488D7C24 		leaq	80(%rsp), %rdi
 1428      50
 1429 0730 E8000000 		call	_ZNSo9_M_insertIdEERSoT_
 1429      00
 1430 0735 BA050000 		movl	$5, %edx
 1430      00
 1431 073a BE000000 		movl	$.LC4, %esi
 1431      00
 1432 073f 4889C7   		movq	%rax, %rdi
 1433 0742 4889C3   		movq	%rax, %rbx
 1434 0745 E8000000 		call	_ZSt16__ostream_insertIcSt11char_traitsIcEERSt13basic_ostreamIT_T0_ES6_PKS3_l
 1434      00
 1435 074a F20F1005 		movsd	.LC5(%rip), %xmm0
 1435      00000000 
 1436 0752 4889DF   		movq	%rbx, %rdi
 1437 0755 E8000000 		call	_ZNSo9_M_insertIdEERSoT_
 1437      00
 1438 075a BA090000 		movl	$9, %edx
 1438      00
 1439 075f BE000000 		movl	$.LC6, %esi
 1439      00
 1440 0764 4889C7   		movq	%rax, %rdi
 1441 0767 4889C3   		movq	%rax, %rbx
 1442 076a E8000000 		call	_ZSt16__ostream_insertIcSt11char_traitsIcEERSt13basic_ostreamIT_T0_ES6_PKS3_l
 1442      00
 1443 076f F20F1005 		movsd	.LC7(%rip), %xmm0
 1443      00000000 
 1444 0777 4889DF   		movq	%rbx, %rdi
 1445 077a E8000000 		call	_ZNSo9_M_insertIdEERSoT_
 1445      00
 1446 077f 488D7C24 		leaq	80(%rsp), %rdi
 1446      50
 1447 0784 E8000000 		call	_ZNK8UnitTest15MemoryOutStream7GetTextEv
 1447      00
 1448 0789 488D7424 		leaq	48(%rsp), %rsi
 1448      30
 1449 078e 488D7C24 		leaq	16(%rsp), %rdi
 1449      10
 1450 0793 4889C2   		movq	%rax, %rdx
 1451 0796 E8000000 		call	_ZN8UnitTest11TestResults13OnTestFailureERKNS_11TestDetailsEPKc
 1451      00
 1452              	.LEHE3:
 1453 079b 488B8424 		movq	168(%rsp), %rax
 1453      A8000000 
 1454 07a3 48C74424 		movq	$_ZTVN8UnitTest15MemoryOutStreamE+24, 80(%rsp)
 1454      50000000 
 1454      00
 1455 07ac 48C78424 		movq	$_ZTVN8UnitTest15MemoryOutStreamE+64, 176(%rsp)
 1455      B0000000 
 1455      00000000 
 1456 07b8 488D78E8 		leaq	-24(%rax), %rdi
 1457 07bc 4881FF00 		cmpq	$_ZNSs4_Rep20_S_empty_rep_storageE, %rdi
 1457      000000
 1458 07c3 0F854A01 		jne	.L176
 1458      0000
 1459              	.L143:
 1460 07c9 488B8424 		movq	160(%rsp), %rax
 1460      A0000000 
 1461 07d1 48C74424 		movq	$_ZTCN8UnitTest15MemoryOutStreamE0_St19basic_ostringstreamIcSt11char_traitsIcESaIcEE+24, 80(%
 1461      50000000 
 1461      00
 1462 07da 48C78424 		movq	$_ZTCN8UnitTest15MemoryOutStreamE0_St19basic_ostringstreamIcSt11char_traitsIcESaIcEE+64, 176(
 1462      B0000000 
 1462      00000000 
 1463 07e6 48C74424 		movq	$_ZTVSt15basic_stringbufIcSt11char_traitsIcESaIcEE+16, 88(%rsp)
 1463      58000000 
 1463      00
 1464 07ef 488D78E8 		leaq	-24(%rax), %rdi
 1465 07f3 4881FF00 		cmpq	$_ZNSs4_Rep20_S_empty_rep_storageE, %rdi
 1465      000000
 1466 07fa 0F854801 		jne	.L177
 1466      0000
 1467              	.L148:
 1468 0800 488DBC24 		leaq	144(%rsp), %rdi
 1468      90000000 
 1469 0808 48C74424 		movq	$_ZTVSt15basic_streambufIcSt11char_traitsIcEE+16, 88(%rsp)
 1469      58000000 
 1469      00
 1470 0811 E8000000 		call	_ZNSt6localeD1Ev
 1470      00
 1471 0816 488D4424 		leaq	80(%rsp), %rax
 1471      50
 1472 081b 48C74424 		movq	$_ZTCN8UnitTest15MemoryOutStreamE0_So+24, 80(%rsp)
 1472      50000000 
 1472      00
 1473 0824 48C78424 		movq	$_ZTVSt9basic_iosIcSt11char_traitsIcEE+16, 176(%rsp)
 1473      B0000000 
 1473      00000000 
 1474 0830 488D7860 		leaq	96(%rax), %rdi
 1475              	.LEHB4:
 1476 0834 E8000000 		call	_ZNSt8ios_baseD2Ev
 1476      00
 1477              	.LEHE4:
 1478 0839 488DBC24 		leaq	1748(%rsp), %rdi
 1478      D4060000 
 1479 0841 BE000000 		movl	$.LC8, %esi
 1479      00
 1480 0846 E8000000 		call	strstr
 1480      00
 1481 084b 4885C0   		testq	%rax, %rax
 1482 084e 0F848C00 		je	.L178
 1482      0000
 1483              	.L153:
 1484 0854 488DBC24 		leaq	1748(%rsp), %rdi
 1484      D4060000 
 1485 085c BE000000 		movl	$.LC10, %esi
 1485      00
 1486 0861 E8000000 		call	strstr
 1486      00
 1487 0866 4885C0   		testq	%rax, %rax
 1488 0869 743D     		je	.L179
 1489              	.L156:
 1490 086b 488DBC24 		leaq	448(%rsp), %rdi
 1490      C0010000 
 1491 0873 48C78424 		movq	$_ZTV17RecordingReporter+16, 448(%rsp)
 1491      C0010000 
 1491      00000000 
 1492              	.LEHB5:
 1493 087f E8000000 		call	_ZN8UnitTest12TestReporterD2Ev
 1493      00
 1494              	.LEHE5:
 1495 0884 488B8424 		movq	2552(%rsp), %rax
 1495      F8090000 
 1496 088c 64483304 		xorq	%fs:40, %rax
 1496      25280000 
 1496      00
 1497 0895 0F85A800 		jne	.L180
 1497      0000
 1498 089b 4881C400 		addq	$2560, %rsp
 1498      0A0000
 1499              		.cfi_remember_state
 1500              		.cfi_def_cfa_offset 16
 1501 08a2 5B       		popq	%rbx
 1502              		.cfi_def_cfa_offset 8
 1503 08a3 C3       		ret
 1504              		.p2align 4,,10
 1505 08a4 0F1F4000 		.p2align 3
 1506              	.L179:
 1507              		.cfi_restore_state
 1508              	.LEHB6:
 1509 08a8 E8000000 		call	_ZN8UnitTest11CurrentTest7DetailsEv
 1509      00
 1510 08ad 488B30   		movq	(%rax), %rsi
 1511 08b0 488D7C24 		leaq	80(%rsp), %rdi
 1511      50
 1512 08b5 BA9C0000 		movl	$156, %edx
 1512      00
 1513 08ba E8000000 		call	_ZN8UnitTest11TestDetailsC1ERKS0_i
 1513      00
 1514 08bf E8000000 		call	_ZN8UnitTest11CurrentTest7ResultsEv
 1514      00
 1515 08c4 488B38   		movq	(%rax), %rdi
 1516 08c7 488D7424 		leaq	80(%rsp), %rsi
 1516      50
 1517 08cc BA000000 		movl	$.LC11, %edx
 1517      00
 1518 08d1 E8000000 		call	_ZN8UnitTest11TestResults13OnTestFailureERKNS_11TestDetailsEPKc
 1518      00
 1519              	.LEHE6:
 1520 08d6 EB93     		jmp	.L156
 1521 08d8 0F1F8400 		.p2align 4,,10
 1521      00000000 
 1522              		.p2align 3
 1523              	.L178:
 1524              	.LEHB7:
 1525 08e0 E8000000 		call	_ZN8UnitTest11CurrentTest7DetailsEv
 1525      00
 1526 08e5 488B30   		movq	(%rax), %rsi
 1527 08e8 488D7C24 		leaq	80(%rsp), %rdi
 1527      50
 1528 08ed BA9B0000 		movl	$155, %edx
 1528      00
 1529 08f2 E8000000 		call	_ZN8UnitTest11TestDetailsC1ERKS0_i
 1529      00
 1530 08f7 E8000000 		call	_ZN8UnitTest11CurrentTest7ResultsEv
 1530      00
 1531 08fc 488B38   		movq	(%rax), %rdi
 1532 08ff 488D7424 		leaq	80(%rsp), %rsi
 1532      50
 1533 0904 BA000000 		movl	$.LC9, %edx
 1533      00
 1534 0909 E8000000 		call	_ZN8UnitTest11TestResults13OnTestFailureERKNS_11TestDetailsEPKc
 1534      00
 1535              	.LEHE7:
 1536 090e E941FFFF 		jmp	.L153
 1536      FF
 1537              	.L176:
 1538 0913 B9000000 		movl	$_ZL28__gthrw___pthread_key_createPjPFvPvE, %ecx
 1538      00
 1539 0918 488D5710 		leaq	16(%rdi), %rdx
 1540 091c 4885C9   		testq	%rcx, %rcx
 1541 091f 0F84C000 		je	.L144
 1541      0000
 1542 0925 83C8FF   		orl	$-1, %eax
 1543 0928 F00FC102 		lock xaddl	%eax, (%rdx)
 1544              	.L145:
 1545 092c 85C0     		testl	%eax, %eax
 1546 092e 0F8F95FE 		jg	.L143
 1546      FFFF
 1547 0934 488D7424 		leaq	15(%rsp), %rsi
 1547      0F
 1548 0939 E8000000 		call	_ZNSs4_Rep10_M_destroyERKSaIcE
 1548      00
 1549 093e E986FEFF 		jmp	.L143
 1549      FF
 1550              	.L180:
 1551 0943 E8000000 		call	__stack_chk_fail
 1551      00
 1552              	.L177:
 1553 0948 B9000000 		movl	$_ZL28__gthrw___pthread_key_createPjPFvPvE, %ecx
 1553      00
 1554 094d 488D5710 		leaq	16(%rdi), %rdx
 1555 0951 4885C9   		testq	%rcx, %rcx
 1556 0954 7442     		je	.L149
 1557 0956 83C8FF   		orl	$-1, %eax
 1558 0959 F00FC102 		lock xaddl	%eax, (%rdx)
 1559              	.L150:
 1560 095d 85C0     		testl	%eax, %eax
 1561 095f 0F8F9BFE 		jg	.L148
 1561      FFFF
 1562 0965 488D7424 		leaq	15(%rsp), %rsi
 1562      0F
 1563 096a E8000000 		call	_ZNSs4_Rep10_M_destroyERKSaIcE
 1563      00
 1564 096f E98CFEFF 		jmp	.L148
 1564      FF
 1565              	.L164:
 1566 0974 4889C3   		movq	%rax, %rbx
 1567              	.L141:
 1568 0977 488DBC24 		leaq	448(%rsp), %rdi
 1568      C0010000 
 1569 097f 48C78424 		movq	$_ZTV17RecordingReporter+16, 448(%rsp)
 1569      C0010000 
 1569      00000000 
 1570 098b E8000000 		call	_ZN8UnitTest12TestReporterD2Ev
 1570      00
 1571 0990 4889DF   		movq	%rbx, %rdi
 1572              	.LEHB8:
 1573 0993 E8000000 		call	_Unwind_Resume
 1573      00
 1574              	.LEHE8:
 1575              	.L149:
 1576 0998 8B50F8   		movl	-8(%rax), %edx
 1577 099b 8D4AFF   		leal	-1(%rdx), %ecx
 1578 099e 8948F8   		movl	%ecx, -8(%rax)
 1579 09a1 89D0     		movl	%edx, %eax
 1580 09a3 EBB8     		jmp	.L150
 1581              	.L165:
 1582 09a5 4889C7   		movq	%rax, %rdi
 1583 09a8 E8000000 		call	__cxa_begin_catch
 1583      00
 1584              	.LEHB9:
 1585 09ad E8000000 		call	_ZN8UnitTest11CurrentTest7DetailsEv
 1585      00
 1586 09b2 488B30   		movq	(%rax), %rsi
 1587 09b5 488D7C24 		leaq	80(%rsp), %rdi
 1587      50
 1588 09ba BA9B0000 		movl	$155, %edx
 1588      00
 1589 09bf E8000000 		call	_ZN8UnitTest11TestDetailsC1ERKS0_i
 1589      00
 1590 09c4 E8000000 		call	_ZN8UnitTest11CurrentTest7ResultsEv
 1590      00
 1591 09c9 488B38   		movq	(%rax), %rdi
 1592 09cc 488D7424 		leaq	80(%rsp), %rsi
 1592      50
 1593 09d1 BA000000 		movl	$.LC12, %edx
 1593      00
 1594 09d6 E8000000 		call	_ZN8UnitTest11TestResults13OnTestFailureERKNS_11TestDetailsEPKc
 1594      00
 1595              	.LEHE9:
 1596              	.LEHB10:
 1597 09db E8000000 		call	__cxa_end_catch
 1597      00
 1598              	.LEHE10:
 1599 09e0 E96FFEFF 		jmp	.L153
 1599      FF
 1600              	.L144:
 1601 09e5 8B50F8   		movl	-8(%rax), %edx
 1602 09e8 8D4AFF   		leal	-1(%rdx), %ecx
 1603 09eb 8948F8   		movl	%ecx, -8(%rax)
 1604 09ee 89D0     		movl	%edx, %eax
 1605 09f0 E937FFFF 		jmp	.L145
 1605      FF
 1606              	.L166:
 1607 09f5 4889C3   		movq	%rax, %rbx
 1608 09f8 E8000000 		call	__cxa_end_catch
 1608      00
 1609 09fd E975FFFF 		jmp	.L141
 1609      FF
 1610              	.L167:
 1611 0a02 4889C7   		movq	%rax, %rdi
 1612 0a05 E8000000 		call	__cxa_begin_catch
 1612      00
 1613              		.p2align 4,,5
 1614              	.LEHB11:
 1615 0a0a E8000000 		call	_ZN8UnitTest11CurrentTest7DetailsEv
 1615      00
 1616 0a0f 488B30   		movq	(%rax), %rsi
 1617 0a12 488D7C24 		leaq	80(%rsp), %rdi
 1617      50
 1618 0a17 BA9C0000 		movl	$156, %edx
 1618      00
 1619 0a1c E8000000 		call	_ZN8UnitTest11TestDetailsC1ERKS0_i
 1619      00
 1620 0a21 E8000000 		call	_ZN8UnitTest11CurrentTest7ResultsEv
 1620      00
 1621 0a26 488B38   		movq	(%rax), %rdi
 1622 0a29 488D7424 		leaq	80(%rsp), %rsi
 1622      50
 1623 0a2e BA000000 		movl	$.LC13, %edx
 1623      00
 1624 0a33 E8000000 		call	_ZN8UnitTest11TestResults13OnTestFailureERKNS_11TestDetailsEPKc
 1624      00
 1625              	.LEHE11:
 1626              	.LEHB12:
 1627 0a38 E8000000 		call	__cxa_end_catch
 1627      00
 1628              	.LEHE12:
 1629 0a3d E929FEFF 		jmp	.L156
 1629      FF
 1630              	.L169:
 1631 0a42 488D7C24 		leaq	80(%rsp), %rdi
 1631      50
 1632 0a47 4889C3   		movq	%rax, %rbx
 1633 0a4a E8000000 		call	_ZN8UnitTest15MemoryOutStreamD1Ev
 1633      00
 1634 0a4f E923FFFF 		jmp	.L141
 1634      FF
 1635              	.L168:
 1636 0a54 4889C3   		movq	%rax, %rbx
 1637 0a57 E8000000 		call	__cxa_end_catch
 1637      00
 1638 0a5c 0F1F4000 		.p2align 4,,5
 1639 0a60 E912FFFF 		jmp	.L141
 1639      FF
 1640              	.L171:
 1641 0a65 488D7C24 		leaq	88(%rsp), %rdi
 1641      58
 1642 0a6a 4889C3   		movq	%rax, %rbx
 1643 0a6d E8000000 		call	_ZNSt15basic_stringbufIcSt11char_traitsIcESaIcEED1Ev
 1643      00
 1644 0a72 48C74424 		movq	$_ZTCN8UnitTest15MemoryOutStreamE0_So+24, 80(%rsp)
 1644      50000000 
 1644      00
 1645              	.L139:
 1646 0a7b 488DBC24 		leaq	176(%rsp), %rdi
 1646      B0000000 
 1647 0a83 48C78424 		movq	$_ZTVSt9basic_iosIcSt11char_traitsIcEE+16, 176(%rsp)
 1647      B0000000 
 1647      00000000 
 1648 0a8f E8000000 		call	_ZNSt8ios_baseD2Ev
 1648      00
 1649 0a94 E9DEFEFF 		jmp	.L141
 1649      FF
 1650              	.L170:
 1651 0a99 4889C3   		movq	%rax, %rbx
 1652 0a9c EBDD     		jmp	.L139
 1653              		.cfi_endproc
 1654              	.LFE1144:
 1655              		.globl	__gxx_personality_v0
 1656              		.section	.gcc_except_table,"a",@progbits
 1657              		.align 4
 1658              	.LLSDA1144:
 1659 0000 FF       		.byte	0xff
 1660 0001 03       		.byte	0x3
 1661 0002 55       		.uleb128 .LLSDATT1144-.LLSDATTD1144
 1662              	.LLSDATTD1144:
 1663 0003 01       		.byte	0x1
 1664 0004 4C       		.uleb128 .LLSDACSE1144-.LLSDACSB1144
 1665              	.LLSDACSB1144:
 1666 0005 D701     		.uleb128 .LEHB0-.LFB1144
 1667 0007 1D       		.uleb128 .LEHE0-.LEHB0
 1668 0008 9409     		.uleb128 .L164-.LFB1144
 1669 000a 00       		.uleb128 0
 1670 000b EA02     		.uleb128 .LEHB1-.LFB1144
 1671 000d 05       		.uleb128 .LEHE1-.LEHB1
 1672 000e B90B     		.uleb128 .L170-.LFB1144
 1673 0010 00       		.uleb128 0
 1674 0011 8904     		.uleb128 .LEHB2-.LFB1144
 1675 0013 05       		.uleb128 .LEHE2-.LEHB2
 1676 0014 850B     		.uleb128 .L171-.LFB1144
 1677 0016 00       		.uleb128 0
 1678 0017 BE04     		.uleb128 .LEHB3-.LFB1144
 1679 0019 7D       		.uleb128 .LEHE3-.LEHB3
 1680 001a E20A     		.uleb128 .L169-.LFB1144
 1681 001c 00       		.uleb128 0
 1682 001d D406     		.uleb128 .LEHB4-.LFB1144
 1683 001f 05       		.uleb128 .LEHE4-.LEHB4
 1684 0020 9409     		.uleb128 .L164-.LFB1144
 1685 0022 00       		.uleb128 0
 1686 0023 9F07     		.uleb128 .LEHB5-.LFB1144
 1687 0025 05       		.uleb128 .LEHE5-.LEHB5
 1688 0026 00       		.uleb128 0
 1689 0027 00       		.uleb128 0
 1690 0028 C807     		.uleb128 .LEHB6-.LFB1144
 1691 002a 2E       		.uleb128 .LEHE6-.LEHB6
 1692 002b A20A     		.uleb128 .L167-.LFB1144
 1693 002d 01       		.uleb128 0x1
 1694 002e 8008     		.uleb128 .LEHB7-.LFB1144
 1695 0030 2E       		.uleb128 .LEHE7-.LEHB7
 1696 0031 C509     		.uleb128 .L165-.LFB1144
 1697 0033 01       		.uleb128 0x1
 1698 0034 B309     		.uleb128 .LEHB8-.LFB1144
 1699 0036 05       		.uleb128 .LEHE8-.LEHB8
 1700 0037 00       		.uleb128 0
 1701 0038 00       		.uleb128 0
 1702 0039 CD09     		.uleb128 .LEHB9-.LFB1144
 1703 003b 2E       		.uleb128 .LEHE9-.LEHB9
 1704 003c 950A     		.uleb128 .L166-.LFB1144
 1705 003e 00       		.uleb128 0
 1706 003f FB09     		.uleb128 .LEHB10-.LFB1144
 1707 0041 05       		.uleb128 .LEHE10-.LEHB10
 1708 0042 9409     		.uleb128 .L164-.LFB1144
 1709 0044 00       		.uleb128 0
 1710 0045 AA0A     		.uleb128 .LEHB11-.LFB1144
 1711 0047 2E       		.uleb128 .LEHE11-.LEHB11
 1712 0048 F40A     		.uleb128 .L168-.LFB1144
 1713 004a 00       		.uleb128 0
 1714 004b D80A     		.uleb128 .LEHB12-.LFB1144
 1715 004d 05       		.uleb128 .LEHE12-.LEHB12
 1716 004e 9409     		.uleb128 .L164-.LFB1144
 1717 0050 00       		.uleb128 0
 1718              	.LLSDACSE1144:
 1719 0051 01       		.byte	0x1
 1720 0052 00       		.byte	0
 1721 0053 00       		.align 4
 1722 0054 00000000 		.long	0
 1723              	
 1724              	.LLSDATT1144:
 1725              		.text
 1727              		.section	.rodata.str1.8
 1728 0104 00000000 		.align 8
 1729              	.LC14:
 1730 0108 556E6861 		.string	"Unhandled exception in CHECK_EQUAL(something, something)"
 1730      6E646C65 
 1730      64206578 
 1730      63657074 
 1730      696F6E20 
 1731              		.text
 1732              		.align 2
 1733 0a9e 6690     		.p2align 4,,15
 1735              	_ZNK12_GLOBAL__N_130TestCheckEqualWithUnsignedLong7RunImplEv:
 1736              	.LFB1088:
 1737              		.cfi_startproc
 1738              		.cfi_personality 0x3,__gxx_personality_v0
 1739              		.cfi_lsda 0x3,.LLSDA1088
 1740 0aa0 53       		pushq	%rbx
 1741              		.cfi_def_cfa_offset 16
 1742              		.cfi_offset 3, -16
 1743 0aa1 31F6     		xorl	%esi, %esi
 1744 0aa3 4883EC40 		subq	$64, %rsp
 1745              		.cfi_def_cfa_offset 80
 1746 0aa7 4889E7   		movq	%rsp, %rdi
 1747              	.LEHB13:
 1748 0aaa E8000000 		call	_ZN8UnitTest11TestResultsC1EPNS_12TestReporterE
 1748      00
 1749              	.LEHE13:
 1750              	.LEHB14:
 1751 0aaf E8000000 		call	_ZN8UnitTest11CurrentTest7DetailsEv
 1751      00
 1752 0ab4 488B30   		movq	(%rax), %rsi
 1753 0ab7 488D7C24 		leaq	32(%rsp), %rdi
 1753      20
 1754 0abc BA0E0000 		movl	$14, %edx
 1754      00
 1755 0ac1 E8000000 		call	_ZN8UnitTest11TestDetailsC1ERKS0_i
 1755      00
 1756 0ac6 E8000000 		call	_ZN8UnitTest11CurrentTest7ResultsEv
 1756      00
 1757              	.LEHE14:
 1758              	.L181:
 1759 0acb 4883C440 		addq	$64, %rsp
 1760              		.cfi_remember_state
 1761              		.cfi_def_cfa_offset 16
 1762 0acf 5B       		popq	%rbx
 1763              		.cfi_def_cfa_offset 8
 1764 0ad0 C3       		ret
 1765              	.L185:
 1766              		.cfi_restore_state
 1767 0ad1 4889C7   		movq	%rax, %rdi
 1768 0ad4 E8000000 		call	__cxa_begin_catch
 1768      00
 1769              	.LEHB15:
 1770 0ad9 E8000000 		call	_ZN8UnitTest11CurrentTest7DetailsEv
 1770      00
 1771 0ade 488B30   		movq	(%rax), %rsi
 1772 0ae1 488D7C24 		leaq	32(%rsp), %rdi
 1772      20
 1773 0ae6 BA0E0000 		movl	$14, %edx
 1773      00
 1774 0aeb E8000000 		call	_ZN8UnitTest11TestDetailsC1ERKS0_i
 1774      00
 1775 0af0 E8000000 		call	_ZN8UnitTest11CurrentTest7ResultsEv
 1775      00
 1776 0af5 488B38   		movq	(%rax), %rdi
 1777 0af8 488D7424 		leaq	32(%rsp), %rsi
 1777      20
 1778 0afd BA000000 		movl	$.LC14, %edx
 1778      00
 1779 0b02 E8000000 		call	_ZN8UnitTest11TestResults13OnTestFailureERKNS_11TestDetailsEPKc
 1779      00
 1780              	.LEHE15:
 1781              	.LEHB16:
 1782 0b07 E8000000 		call	__cxa_end_catch
 1782      00
 1783              	.LEHE16:
 1784 0b0c EBBD     		jmp	.L181
 1785              	.L186:
 1786 0b0e 4889C3   		movq	%rax, %rbx
 1787              		.p2align 4,,5
 1788 0b11 E8000000 		call	__cxa_end_catch
 1788      00
 1789 0b16 4889DF   		movq	%rbx, %rdi
 1790              	.LEHB17:
 1791 0b19 E8000000 		call	_Unwind_Resume
 1791      00
 1792              	.LEHE17:
 1793              		.cfi_endproc
 1794              	.LFE1088:
 1795              		.section	.gcc_except_table
 1796              		.align 4
 1797              	.LLSDA1088:
 1798 0058 FF       		.byte	0xff
 1799 0059 03       		.byte	0x3
 1800 005a 1D       		.uleb128 .LLSDATT1088-.LLSDATTD1088
 1801              	.LLSDATTD1088:
 1802 005b 01       		.byte	0x1
 1803 005c 14       		.uleb128 .LLSDACSE1088-.LLSDACSB1088
 1804              	.LLSDACSB1088:
 1805 005d 0A       		.uleb128 .LEHB13-.LFB1088
 1806 005e 05       		.uleb128 .LEHE13-.LEHB13
 1807 005f 00       		.uleb128 0
 1808 0060 00       		.uleb128 0
 1809 0061 0F       		.uleb128 .LEHB14-.LFB1088
 1810 0062 1C       		.uleb128 .LEHE14-.LEHB14
 1811 0063 31       		.uleb128 .L185-.LFB1088
 1812 0064 01       		.uleb128 0x1
 1813 0065 39       		.uleb128 .LEHB15-.LFB1088
 1814 0066 2E       		.uleb128 .LEHE15-.LEHB15
 1815 0067 6E       		.uleb128 .L186-.LFB1088
 1816 0068 00       		.uleb128 0
 1817 0069 67       		.uleb128 .LEHB16-.LFB1088
 1818 006a 05       		.uleb128 .LEHE16-.LEHB16
 1819 006b 00       		.uleb128 0
 1820 006c 00       		.uleb128 0
 1821 006d 79       		.uleb128 .LEHB17-.LFB1088
 1822 006e 05       		.uleb128 .LEHE17-.LEHB17
 1823 006f 00       		.uleb128 0
 1824 0070 00       		.uleb128 0
 1825              	.LLSDACSE1088:
 1826 0071 01       		.byte	0x1
 1827 0072 00       		.byte	0
 1828 0073 00       		.align 4
 1829 0074 00000000 		.long	0
 1830              	
 1831              	.LLSDATT1088:
 1832              		.text
 1834              		.section	.rodata.str1.8
 1835 0141 00000000 		.align 8
 1835      000000
 1836              	.LC15:
 1837 0148 556E6861 		.string	"Unhandled exception in CHECK_CLOSE(0.5, 0.5)"
 1837      6E646C65 
 1837      64206578 
 1837      63657074 
 1837      696F6E20 
 1838              		.text
 1839              		.align 2
 1840 0b1e 6690     		.p2align 4,,15
 1842              	_ZNK12_GLOBAL__N_133TestCheckCloseWithDoublesSucceeds7RunImplEv:
 1843              	.LFB1184:
 1844              		.cfi_startproc
 1845              		.cfi_personality 0x3,__gxx_personality_v0
 1846              		.cfi_lsda 0x3,.LLSDA1184
 1847 0b20 53       		pushq	%rbx
 1848              		.cfi_def_cfa_offset 16
 1849              		.cfi_offset 3, -16
 1850 0b21 4883EC20 		subq	$32, %rsp
 1851              		.cfi_def_cfa_offset 48
 1852              	.LEHB18:
 1853 0b25 E8000000 		call	_ZN8UnitTest11CurrentTest7DetailsEv
 1853      00
 1854 0b2a 488B30   		movq	(%rax), %rsi
 1855 0b2d BA0E0100 		movl	$270, %edx
 1855      00
 1856 0b32 4889E7   		movq	%rsp, %rdi
 1857 0b35 E8000000 		call	_ZN8UnitTest11TestDetailsC1ERKS0_i
 1857      00
 1858 0b3a E8000000 		call	_ZN8UnitTest11CurrentTest7ResultsEv
 1858      00
 1859              	.LEHE18:
 1860              	.L188:
 1861 0b3f 4883C420 		addq	$32, %rsp
 1862              		.cfi_remember_state
 1863              		.cfi_def_cfa_offset 16
 1864 0b43 5B       		popq	%rbx
 1865              		.cfi_def_cfa_offset 8
 1866 0b44 C3       		ret
 1867              	.L192:
 1868              		.cfi_restore_state
 1869 0b45 4889C7   		movq	%rax, %rdi
 1870 0b48 E8000000 		call	__cxa_begin_catch
 1870      00
 1871              	.LEHB19:
 1872 0b4d E8000000 		call	_ZN8UnitTest11CurrentTest7DetailsEv
 1872      00
 1873 0b52 488B30   		movq	(%rax), %rsi
 1874 0b55 BA0E0100 		movl	$270, %edx
 1874      00
 1875 0b5a 4889E7   		movq	%rsp, %rdi
 1876 0b5d E8000000 		call	_ZN8UnitTest11TestDetailsC1ERKS0_i
 1876      00
 1877 0b62 E8000000 		call	_ZN8UnitTest11CurrentTest7ResultsEv
 1877      00
 1878 0b67 488B38   		movq	(%rax), %rdi
 1879 0b6a BA000000 		movl	$.LC15, %edx
 1879      00
 1880 0b6f 4889E6   		movq	%rsp, %rsi
 1881 0b72 E8000000 		call	_ZN8UnitTest11TestResults13OnTestFailureERKNS_11TestDetailsEPKc
 1881      00
 1882              	.LEHE19:
 1883              	.LEHB20:
 1884 0b77 E8000000 		call	__cxa_end_catch
 1884      00
 1885              	.LEHE20:
 1886 0b7c EBC1     		jmp	.L188
 1887              	.L193:
 1888 0b7e 4889C3   		movq	%rax, %rbx
 1889              		.p2align 4,,5
 1890 0b81 E8000000 		call	__cxa_end_catch
 1890      00
 1891 0b86 4889DF   		movq	%rbx, %rdi
 1892              	.LEHB21:
 1893 0b89 E8000000 		call	_Unwind_Resume
 1893      00
 1894              	.LEHE21:
 1895              		.cfi_endproc
 1896              	.LFE1184:
 1897              		.section	.gcc_except_table
 1898              		.align 4
 1899              	.LLSDA1184:
 1900 0078 FF       		.byte	0xff
 1901 0079 03       		.byte	0x3
 1902 007a 19       		.uleb128 .LLSDATT1184-.LLSDATTD1184
 1903              	.LLSDATTD1184:
 1904 007b 01       		.byte	0x1
 1905 007c 10       		.uleb128 .LLSDACSE1184-.LLSDACSB1184
 1906              	.LLSDACSB1184:
 1907 007d 05       		.uleb128 .LEHB18-.LFB1184
 1908 007e 1A       		.uleb128 .LEHE18-.LEHB18
 1909 007f 25       		.uleb128 .L192-.LFB1184
 1910 0080 01       		.uleb128 0x1
 1911 0081 2D       		.uleb128 .LEHB19-.LFB1184
 1912 0082 2A       		.uleb128 .LEHE19-.LEHB19
 1913 0083 5E       		.uleb128 .L193-.LFB1184
 1914 0084 00       		.uleb128 0
 1915 0085 57       		.uleb128 .LEHB20-.LFB1184
 1916 0086 05       		.uleb128 .LEHE20-.LEHB20
 1917 0087 00       		.uleb128 0
 1918 0088 00       		.uleb128 0
 1919 0089 69       		.uleb128 .LEHB21-.LFB1184
 1920 008a 05       		.uleb128 .LEHE21-.LEHB21
 1921 008b 00       		.uleb128 0
 1922 008c 00       		.uleb128 0
 1923              	.LLSDACSE1184:
 1924 008d 01       		.byte	0x1
 1925 008e 00       		.byte	0
 1926 008f 00       		.align 4
 1927 0090 00000000 		.long	0
 1928              	
 1929              	.LLSDATT1184:
 1930              		.text
 1932              		.section	.rodata.str1.1
 1933              	.LC16:
 1934 002f 302E3031 		.string	"0.01"
 1934      00
 1935              		.section	.rodata.str1.8
 1936 0175 000000   		.align 8
 1937              	.LC17:
 1938 0178 73747273 		.string	"strstr(reporter.lastFailedMessage, \"0.01\")"
 1938      74722872 
 1938      65706F72 
 1938      7465722E 
 1938      6C617374 
 1939 01a3 00000000 		.align 8
 1939      00
 1940              	.LC18:
 1941 01a8 556E6861 		.string	"Unhandled exception in CHECK(strstr(reporter.lastFailedMessage, \"0.01\"))"
 1941      6E646C65 
 1941      64206578 
 1941      63657074 
 1941      696F6E20 
 1942              		.text
 1943              		.align 2
 1944 0b8e 6690     		.p2align 4,,15
 1946              	_ZNK12_GLOBAL__N_138TestCheckCloseFailureIncludesTolerance7RunImplEv:
 1947              	.LFB1148:
 1948              		.cfi_startproc
 1949              		.cfi_personality 0x3,__gxx_personality_v0
 1950              		.cfi_lsda 0x3,.LLSDA1148
 1951 0b90 53       		pushq	%rbx
 1952              		.cfi_def_cfa_offset 16
 1953              		.cfi_offset 3, -16
 1954 0b91 4881EC00 		subq	$2560, %rsp
 1954      0A0000
 1955              		.cfi_def_cfa_offset 2576
 1956 0b98 488DB424 		leaq	448(%rsp), %rsi
 1956      C0010000 
 1957 0ba0 488D7C24 		leaq	16(%rsp), %rdi
 1957      10
 1958 0ba5 48C78424 		movq	$_ZTV17RecordingReporter+16, 448(%rsp)
 1958      C0010000 
 1958      00000000 
 1959 0bb1 64488B04 		movq	%fs:40, %rax
 1959      25280000 
 1959      00
 1960 0bba 48898424 		movq	%rax, 2552(%rsp)
 1960      F8090000 
 1961 0bc2 31C0     		xorl	%eax, %eax
 1962 0bc4 C78424C8 		movl	$0, 456(%rsp)
 1962      01000000 
 1962      000000
 1963 0bcf C78424CC 		movl	$0, 972(%rsp)
 1963      03000000 
 1963      000000
 1964 0bda C78424D0 		movl	$0, 1232(%rsp)
 1964      04000000 
 1964      000000
 1965 0be5 C78424D4 		movl	$0, 2004(%rsp)
 1965      07000000 
 1965      000000
 1966 0bf0 C78424D8 		movl	$0x00000000, 2520(%rsp)
 1966      09000000 
 1966      000000
 1967 0bfb C78424DC 		movl	$0, 2524(%rsp)
 1967      09000000 
 1967      000000
 1968 0c06 C78424E0 		movl	$0, 2528(%rsp)
 1968      09000000 
 1968      000000
 1969 0c11 C78424E4 		movl	$0, 2532(%rsp)
 1969      09000000 
 1969      000000
 1970 0c1c C78424E8 		movl	$0x00000000, 2536(%rsp)
 1970      09000000 
 1970      000000
 1971 0c27 C68424CC 		movb	$0, 460(%rsp)
 1971      01000000 
 1972 0c2f C68424CC 		movb	$0, 716(%rsp)
 1972      02000000 
 1973 0c37 C68424D0 		movb	$0, 976(%rsp)
 1973      03000000 
 1974 0c3f C68424D4 		movb	$0, 1236(%rsp)
 1974      04000000 
 1975 0c47 C68424D4 		movb	$0, 1492(%rsp)
 1975      05000000 
 1976 0c4f C68424D4 		movb	$0, 1748(%rsp)
 1976      06000000 
 1977 0c57 C68424D8 		movb	$0, 2008(%rsp)
 1977      07000000 
 1978 0c5f C68424D8 		movb	$0, 2264(%rsp)
 1978      08000000 
 1979              	.LEHB22:
 1980 0c67 E8000000 		call	_ZN8UnitTest11TestResultsC1EPNS_12TestReporterE
 1980      00
 1981 0c6c B9000000 		movl	$.LC1, %ecx
 1981      00
 1982 0c71 488D7C24 		leaq	48(%rsp), %rdi
 1982      30
 1983 0c76 4531C0   		xorl	%r8d, %r8d
 1984 0c79 4889CA   		movq	%rcx, %rdx
 1985 0c7c 4889CE   		movq	%rcx, %rsi
 1986 0c7f E8000000 		call	_ZN8UnitTest11TestDetailsC1EPKcS2_S2_i
 1986      00
 1987              	.LEHE22:
 1988 0c84 488D9C24 		leaq	176(%rsp), %rbx
 1988      B0000000 
 1989 0c8c 4889DF   		movq	%rbx, %rdi
 1990 0c8f E8000000 		call	_ZNSt8ios_baseC2Ev
 1990      00
 1991 0c94 31F6     		xorl	%esi, %esi
 1992 0c96 4889DF   		movq	%rbx, %rdi
 1993 0c99 48C78424 		movq	$0, 392(%rsp)
 1993      88010000 
 1993      00000000 
 1994 0ca5 C6842490 		movb	$0, 400(%rsp)
 1994      01000000 
 1995 0cad C6842491 		movb	$0, 401(%rsp)
 1995      01000000 
 1996 0cb5 48C78424 		movq	$0, 408(%rsp)
 1996      98010000 
 1996      00000000 
 1997 0cc1 48C78424 		movq	$0, 416(%rsp)
 1997      A0010000 
 1997      00000000 
 1998 0ccd 48C78424 		movq	$0, 424(%rsp)
 1998      A8010000 
 1998      00000000 
 1999 0cd9 48C78424 		movq	$0, 432(%rsp)
 1999      B0010000 
 1999      00000000 
 2000 0ce5 48C74424 		movq	$_ZTCN8UnitTest15MemoryOutStreamE0_So+24, 80(%rsp)
 2000      50000000 
 2000      00
 2001 0cee 48C78424 		movq	$_ZTCN8UnitTest15MemoryOutStreamE0_So+64, 176(%rsp)
 2001      B0000000 
 2001      00000000 
 2002              	.LEHB23:
 2003 0cfa E8000000 		call	_ZNSt9basic_iosIcSt11char_traitsIcEE4initEPSt15basic_streambufIcS1_E
 2003      00
 2004              	.LEHE23:
 2005 0cff 488DBC24 		leaq	144(%rsp), %rdi
 2005      90000000 
 2006 0d07 48C74424 		movq	$_ZTCN8UnitTest15MemoryOutStreamE0_St19basic_ostringstreamIcSt11char_traitsIcESaIcEE+24, 80(%
 2006      50000000 
 2006      00
 2007 0d10 48C78424 		movq	$_ZTCN8UnitTest15MemoryOutStreamE0_St19basic_ostringstreamIcSt11char_traitsIcESaIcEE+64, 176(
 2007      B0000000 
 2007      00000000 
 2008 0d1c 48C74424 		movq	$_ZTVSt15basic_streambufIcSt11char_traitsIcEE+16, 88(%rsp)
 2008      58000000 
 2008      00
 2009 0d25 48C74424 		movq	$0, 96(%rsp)
 2009      60000000 
 2009      00
 2010 0d2e 48C74424 		movq	$0, 104(%rsp)
 2010      68000000 
 2010      00
 2011 0d37 48C74424 		movq	$0, 112(%rsp)
 2011      70000000 
 2011      00
 2012 0d40 48C74424 		movq	$0, 120(%rsp)
 2012      78000000 
 2012      00
 2013 0d49 48C78424 		movq	$0, 128(%rsp)
 2013      80000000 
 2013      00000000 
 2014 0d55 48C78424 		movq	$0, 136(%rsp)
 2014      88000000 
 2014      00000000 
 2015 0d61 E8000000 		call	_ZNSt6localeC1Ev
 2015      00
 2016 0d66 488B4424 		movq	80(%rsp), %rax
 2016      50
 2017 0d6b 488D7C24 		leaq	80(%rsp), %rdi
 2017      50
 2018 0d70 488D7424 		leaq	88(%rsp), %rsi
 2018      58
 2019 0d75 48C74424 		movq	$_ZTVSt15basic_stringbufIcSt11char_traitsIcESaIcEE+16, 88(%rsp)
 2019      58000000 
 2019      00
 2020 0d7e C7842498 		movl	$16, 152(%rsp)
 2020      00000010 
 2020      000000
 2021 0d89 48C78424 		movq	$_ZNSs4_Rep20_S_empty_rep_storageE+24, 160(%rsp)
 2021      A0000000 
 2021      00000000 
 2022 0d95 480378E8 		addq	-24(%rax), %rdi
 2023              	.LEHB24:
 2024 0d99 E8000000 		call	_ZNSt9basic_iosIcSt11char_traitsIcEE4initEPSt15basic_streambufIcS1_E
 2024      00
 2025              	.LEHE24:
 2026 0d9e 488D7C24 		leaq	80(%rsp), %rdi
 2026      50
 2027 0da3 BA090000 		movl	$9, %edx
 2027      00
 2028 0da8 BE000000 		movl	$.LC2, %esi
 2028      00
 2029 0dad 48C74424 		movq	$_ZTVN8UnitTest15MemoryOutStreamE+24, 80(%rsp)
 2029      50000000 
 2029      00
 2030 0db6 48C78424 		movq	$_ZTVN8UnitTest15MemoryOutStreamE+64, 176(%rsp)
 2030      B0000000 
 2030      00000000 
 2031 0dc2 48C78424 		movq	$_ZNSs4_Rep20_S_empty_rep_storageE+24, 168(%rsp)
 2031      A8000000 
 2031      00000000 
 2032              	.LEHB25:
 2033 0dce E8000000 		call	_ZSt16__ostream_insertIcSt11char_traitsIcEERSt13basic_ostreamIT_T0_ES6_PKS3_l
 2033      00
 2034 0dd3 488D7C24 		leaq	80(%rsp), %rdi
 2034      50
 2035 0dd8 BE020000 		movl	$2, %esi
 2035      00
 2036 0ddd E8000000 		call	_ZNSolsEi
 2036      00
 2037 0de2 BA050000 		movl	$5, %edx
 2037      00
 2038 0de7 BE000000 		movl	$.LC4, %esi
 2038      00
 2039 0dec 4889C7   		movq	%rax, %rdi
 2040 0def 4889C3   		movq	%rax, %rbx
 2041 0df2 E8000000 		call	_ZSt16__ostream_insertIcSt11char_traitsIcEERSt13basic_ostreamIT_T0_ES6_PKS3_l
 2041      00
 2042 0df7 F20F1005 		movsd	.LC5(%rip), %xmm0
 2042      00000000 
 2043 0dff 4889DF   		movq	%rbx, %rdi
 2044 0e02 E8000000 		call	_ZNSo9_M_insertIdEERSoT_
 2044      00
 2045 0e07 BA090000 		movl	$9, %edx
 2045      00
 2046 0e0c BE000000 		movl	$.LC6, %esi
 2046      00
 2047 0e11 4889C7   		movq	%rax, %rdi
 2048 0e14 4889C3   		movq	%rax, %rbx
 2049 0e17 E8000000 		call	_ZSt16__ostream_insertIcSt11char_traitsIcEERSt13basic_ostreamIT_T0_ES6_PKS3_l
 2049      00
 2050 0e1c BE030000 		movl	$3, %esi
 2050      00
 2051 0e21 4889DF   		movq	%rbx, %rdi
 2052 0e24 E8000000 		call	_ZNSolsEi
 2052      00
 2053 0e29 488D7C24 		leaq	80(%rsp), %rdi
 2053      50
 2054 0e2e E8000000 		call	_ZNK8UnitTest15MemoryOutStream7GetTextEv
 2054      00
 2055 0e33 488D7424 		leaq	48(%rsp), %rsi
 2055      30
 2056 0e38 488D7C24 		leaq	16(%rsp), %rdi
 2056      10
 2057 0e3d 4889C2   		movq	%rax, %rdx
 2058 0e40 E8000000 		call	_ZN8UnitTest11TestResults13OnTestFailureERKNS_11TestDetailsEPKc
 2058      00
 2059              	.LEHE25:
 2060 0e45 488B8424 		movq	168(%rsp), %rax
 2060      A8000000 
 2061 0e4d 48C74424 		movq	$_ZTVN8UnitTest15MemoryOutStreamE+24, 80(%rsp)
 2061      50000000 
 2061      00
 2062 0e56 48C78424 		movq	$_ZTVN8UnitTest15MemoryOutStreamE+64, 176(%rsp)
 2062      B0000000 
 2062      00000000 
 2063 0e62 488D78E8 		leaq	-24(%rax), %rdi
 2064 0e66 4881FF00 		cmpq	$_ZNSs4_Rep20_S_empty_rep_storageE, %rdi
 2064      000000
 2065 0e6d 0F85ED00 		jne	.L228
 2065      0000
 2066              	.L202:
 2067 0e73 488B8424 		movq	160(%rsp), %rax
 2067      A0000000 
 2068 0e7b 48C74424 		movq	$_ZTCN8UnitTest15MemoryOutStreamE0_St19basic_ostringstreamIcSt11char_traitsIcESaIcEE+24, 80(%
 2068      50000000 
 2068      00
 2069 0e84 48C78424 		movq	$_ZTCN8UnitTest15MemoryOutStreamE0_St19basic_ostringstreamIcSt11char_traitsIcESaIcEE+64, 176(
 2069      B0000000 
 2069      00000000 
 2070 0e90 48C74424 		movq	$_ZTVSt15basic_stringbufIcSt11char_traitsIcESaIcEE+16, 88(%rsp)
 2070      58000000 
 2070      00
 2071 0e99 488D78E8 		leaq	-24(%rax), %rdi
 2072 0e9d 4881FF00 		cmpq	$_ZNSs4_Rep20_S_empty_rep_storageE, %rdi
 2072      000000
 2073 0ea4 0F85EB00 		jne	.L229
 2073      0000
 2074              	.L207:
 2075 0eaa 488DBC24 		leaq	144(%rsp), %rdi
 2075      90000000 
 2076 0eb2 48C74424 		movq	$_ZTVSt15basic_streambufIcSt11char_traitsIcEE+16, 88(%rsp)
 2076      58000000 
 2076      00
 2077 0ebb E8000000 		call	_ZNSt6localeD1Ev
 2077      00
 2078 0ec0 488D4424 		leaq	80(%rsp), %rax
 2078      50
 2079 0ec5 48C74424 		movq	$_ZTCN8UnitTest15MemoryOutStreamE0_So+24, 80(%rsp)
 2079      50000000 
 2079      00
 2080 0ece 48C78424 		movq	$_ZTVSt9basic_iosIcSt11char_traitsIcEE+16, 176(%rsp)
 2080      B0000000 
 2080      00000000 
 2081 0eda 488D7860 		leaq	96(%rax), %rdi
 2082              	.LEHB26:
 2083 0ede E8000000 		call	_ZNSt8ios_baseD2Ev
 2083      00
 2084              	.LEHE26:
 2085 0ee3 488DBC24 		leaq	1748(%rsp), %rdi
 2085      D4060000 
 2086 0eeb BE000000 		movl	$.LC16, %esi
 2086      00
 2087 0ef0 E8000000 		call	strstr
 2087      00
 2088 0ef5 4885C0   		testq	%rax, %rax
 2089 0ef8 7436     		je	.L230
 2090              	.L212:
 2091 0efa 488DBC24 		leaq	448(%rsp), %rdi
 2091      C0010000 
 2092 0f02 48C78424 		movq	$_ZTV17RecordingReporter+16, 448(%rsp)
 2092      C0010000 
 2092      00000000 
 2093              	.LEHB27:
 2094 0f0e E8000000 		call	_ZN8UnitTest12TestReporterD2Ev
 2094      00
 2095              	.LEHE27:
 2096 0f13 488B8424 		movq	2552(%rsp), %rax
 2096      F8090000 
 2097 0f1b 64483304 		xorq	%fs:40, %rax
 2097      25280000 
 2097      00
 2098 0f24 756A     		jne	.L231
 2099 0f26 4881C400 		addq	$2560, %rsp
 2099      0A0000
 2100              		.cfi_remember_state
 2101              		.cfi_def_cfa_offset 16
 2102 0f2d 5B       		popq	%rbx
 2103              		.cfi_def_cfa_offset 8
 2104 0f2e C3       		ret
 2105 0f2f 90       		.p2align 4,,10
 2106              		.p2align 3
 2107              	.L230:
 2108              		.cfi_restore_state
 2109              	.LEHB28:
 2110 0f30 E8000000 		call	_ZN8UnitTest11CurrentTest7DetailsEv
 2110      00
 2111 0f35 488B30   		movq	(%rax), %rsi
 2112 0f38 488D7C24 		leaq	80(%rsp), %rdi
 2112      50
 2113 0f3d BAA60000 		movl	$166, %edx
 2113      00
 2114 0f42 E8000000 		call	_ZN8UnitTest11TestDetailsC1ERKS0_i
 2114      00
 2115 0f47 E8000000 		call	_ZN8UnitTest11CurrentTest7ResultsEv
 2115      00
 2116 0f4c 488B38   		movq	(%rax), %rdi
 2117 0f4f 488D7424 		leaq	80(%rsp), %rsi
 2117      50
 2118 0f54 BA000000 		movl	$.LC17, %edx
 2118      00
 2119 0f59 E8000000 		call	_ZN8UnitTest11TestResults13OnTestFailureERKNS_11TestDetailsEPKc
 2119      00
 2120              	.LEHE28:
 2121 0f5e EB9A     		jmp	.L212
 2122              	.L228:
 2123 0f60 B9000000 		movl	$_ZL28__gthrw___pthread_key_createPjPFvPvE, %ecx
 2123      00
 2124 0f65 488D5710 		leaq	16(%rdi), %rdx
 2125 0f69 4885C9   		testq	%rcx, %rcx
 2126 0f6c 0F84FE00 		je	.L203
 2126      0000
 2127 0f72 83C8FF   		orl	$-1, %eax
 2128 0f75 F00FC102 		lock xaddl	%eax, (%rdx)
 2129              	.L204:
 2130 0f79 85C0     		testl	%eax, %eax
 2131 0f7b 0F8FF2FE 		jg	.L202
 2131      FFFF
 2132 0f81 488D7424 		leaq	15(%rsp), %rsi
 2132      0F
 2133 0f86 E8000000 		call	_ZNSs4_Rep10_M_destroyERKSaIcE
 2133      00
 2134 0f8b E9E3FEFF 		jmp	.L202
 2134      FF
 2135              	.L231:
 2136 0f90 E8000000 		call	__stack_chk_fail
 2136      00
 2137              	.L229:
 2138 0f95 B9000000 		movl	$_ZL28__gthrw___pthread_key_createPjPFvPvE, %ecx
 2138      00
 2139 0f9a 488D5710 		leaq	16(%rdi), %rdx
 2140 0f9e 4885C9   		testq	%rcx, %rcx
 2141 0fa1 747D     		je	.L208
 2142 0fa3 83C8FF   		orl	$-1, %eax
 2143 0fa6 F00FC102 		lock xaddl	%eax, (%rdx)
 2144              	.L209:
 2145 0faa 85C0     		testl	%eax, %eax
 2146 0fac 0F8FF8FE 		jg	.L207
 2146      FFFF
 2147 0fb2 488D7424 		leaq	15(%rsp), %rsi
 2147      0F
 2148 0fb7 E8000000 		call	_ZNSs4_Rep10_M_destroyERKSaIcE
 2148      00
 2149 0fbc E9E9FEFF 		jmp	.L207
 2149      FF
 2150              	.L221:
 2151 0fc1 488D7C24 		leaq	80(%rsp), %rdi
 2151      50
 2152 0fc6 4889C3   		movq	%rax, %rbx
 2153 0fc9 E8000000 		call	_ZN8UnitTest15MemoryOutStreamD1Ev
 2153      00
 2154              	.L200:
 2155 0fce 488DBC24 		leaq	448(%rsp), %rdi
 2155      C0010000 
 2156 0fd6 48C78424 		movq	$_ZTV17RecordingReporter+16, 448(%rsp)
 2156      C0010000 
 2156      00000000 
 2157 0fe2 E8000000 		call	_ZN8UnitTest12TestReporterD2Ev
 2157      00
 2158 0fe7 4889DF   		movq	%rbx, %rdi
 2159              	.LEHB29:
 2160 0fea E8000000 		call	_Unwind_Resume
 2160      00
 2161              	.LEHE29:
 2162              	.L223:
 2163 0fef 488D7C24 		leaq	88(%rsp), %rdi
 2163      58
 2164 0ff4 4889C3   		movq	%rax, %rbx
 2165 0ff7 E8000000 		call	_ZNSt15basic_stringbufIcSt11char_traitsIcESaIcEED1Ev
 2165      00
 2166 0ffc 48C74424 		movq	$_ZTCN8UnitTest15MemoryOutStreamE0_So+24, 80(%rsp)
 2166      50000000 
 2166      00
 2167              	.L198:
 2168 1005 488DBC24 		leaq	176(%rsp), %rdi
 2168      B0000000 
 2169 100d 48C78424 		movq	$_ZTVSt9basic_iosIcSt11char_traitsIcEE+16, 176(%rsp)
 2169      B0000000 
 2169      00000000 
 2170 1019 E8000000 		call	_ZNSt8ios_baseD2Ev
 2170      00
 2171 101e EBAE     		jmp	.L200
 2172              	.L208:
 2173 1020 8B50F8   		movl	-8(%rax), %edx
 2174 1023 8D4AFF   		leal	-1(%rdx), %ecx
 2175 1026 8948F8   		movl	%ecx, -8(%rax)
 2176 1029 89D0     		movl	%edx, %eax
 2177 102b E97AFFFF 		jmp	.L209
 2177      FF
 2178              	.L219:
 2179 1030 4889C7   		movq	%rax, %rdi
 2180 1033 E8000000 		call	__cxa_begin_catch
 2180      00
 2181              	.LEHB30:
 2182 1038 E8000000 		call	_ZN8UnitTest11CurrentTest7DetailsEv
 2182      00
 2183 103d 488B30   		movq	(%rax), %rsi
 2184 1040 488D7C24 		leaq	80(%rsp), %rdi
 2184      50
 2185 1045 BAA60000 		movl	$166, %edx
 2185      00
 2186 104a E8000000 		call	_ZN8UnitTest11TestDetailsC1ERKS0_i
 2186      00
 2187 104f E8000000 		call	_ZN8UnitTest11CurrentTest7ResultsEv
 2187      00
 2188 1054 488B38   		movq	(%rax), %rdi
 2189 1057 488D7424 		leaq	80(%rsp), %rsi
 2189      50
 2190 105c BA000000 		movl	$.LC18, %edx
 2190      00
 2191 1061 E8000000 		call	_ZN8UnitTest11TestResults13OnTestFailureERKNS_11TestDetailsEPKc
 2191      00
 2192              	.LEHE30:
 2193              	.LEHB31:
 2194 1066 E8000000 		call	__cxa_end_catch
 2194      00
 2195              	.LEHE31:
 2196 106b E98AFEFF 		jmp	.L212
 2196      FF
 2197              	.L203:
 2198 1070 8B50F8   		movl	-8(%rax), %edx
 2199 1073 8D4AFF   		leal	-1(%rdx), %ecx
 2200 1076 8948F8   		movl	%ecx, -8(%rax)
 2201 1079 89D0     		movl	%edx, %eax
 2202 107b E9F9FEFF 		jmp	.L204
 2202      FF
 2203              	.L220:
 2204 1080 4889C3   		movq	%rax, %rbx
 2205 1083 E8000000 		call	__cxa_end_catch
 2205      00
 2206 1088 E941FFFF 		jmp	.L200
 2206      FF
 2207              	.L222:
 2208 108d 4889C3   		movq	%rax, %rbx
 2209              		.p2align 4,,2
 2210 1090 E970FFFF 		jmp	.L198
 2210      FF
 2211              	.L218:
 2212 1095 4889C3   		movq	%rax, %rbx
 2213              		.p2align 4,,5
 2214 1098 E931FFFF 		jmp	.L200
 2214      FF
 2215              		.cfi_endproc
 2216              	.LFE1148:
 2217              		.section	.gcc_except_table
 2218              		.align 4
 2219              	.LLSDA1148:
 2220 0094 FF       		.byte	0xff
 2221 0095 03       		.byte	0x3
 2222 0096 45       		.uleb128 .LLSDATT1148-.LLSDATTD1148
 2223              	.LLSDATTD1148:
 2224 0097 01       		.byte	0x1
 2225 0098 3A       		.uleb128 .LLSDACSE1148-.LLSDACSB1148
 2226              	.LLSDACSB1148:
 2227 0099 D701     		.uleb128 .LEHB22-.LFB1148
 2228 009b 1D       		.uleb128 .LEHE22-.LEHB22
 2229 009c 850A     		.uleb128 .L218-.LFB1148
 2230 009e 00       		.uleb128 0
 2231 009f EA02     		.uleb128 .LEHB23-.LFB1148
 2232 00a1 05       		.uleb128 .LEHE23-.LEHB23
 2233 00a2 FD09     		.uleb128 .L222-.LFB1148
 2234 00a4 00       		.uleb128 0
 2235 00a5 8904     		.uleb128 .LEHB24-.LFB1148
 2236 00a7 05       		.uleb128 .LEHE24-.LEHB24
 2237 00a8 DF08     		.uleb128 .L223-.LFB1148
 2238 00aa 00       		.uleb128 0
 2239 00ab BE04     		.uleb128 .LEHB25-.LFB1148
 2240 00ad 77       		.uleb128 .LEHE25-.LEHB25
 2241 00ae B108     		.uleb128 .L221-.LFB1148
 2242 00b0 00       		.uleb128 0
 2243 00b1 CE06     		.uleb128 .LEHB26-.LFB1148
 2244 00b3 05       		.uleb128 .LEHE26-.LEHB26
 2245 00b4 850A     		.uleb128 .L218-.LFB1148
 2246 00b6 00       		.uleb128 0
 2247 00b7 FE06     		.uleb128 .LEHB27-.LFB1148
 2248 00b9 05       		.uleb128 .LEHE27-.LEHB27
 2249 00ba 00       		.uleb128 0
 2250 00bb 00       		.uleb128 0
 2251 00bc A007     		.uleb128 .LEHB28-.LFB1148
 2252 00be 2E       		.uleb128 .LEHE28-.LEHB28
 2253 00bf A009     		.uleb128 .L219-.LFB1148
 2254 00c1 01       		.uleb128 0x1
 2255 00c2 DA08     		.uleb128 .LEHB29-.LFB1148
 2256 00c4 05       		.uleb128 .LEHE29-.LEHB29
 2257 00c5 00       		.uleb128 0
 2258 00c6 00       		.uleb128 0
 2259 00c7 A809     		.uleb128 .LEHB30-.LFB1148
 2260 00c9 2E       		.uleb128 .LEHE30-.LEHB30
 2261 00ca F009     		.uleb128 .L220-.LFB1148
 2262 00cc 00       		.uleb128 0
 2263 00cd D609     		.uleb128 .LEHB31-.LFB1148
 2264 00cf 05       		.uleb128 .LEHE31-.LEHB31
 2265 00d0 850A     		.uleb128 .L218-.LFB1148
 2266 00d2 00       		.uleb128 0
 2267              	.LLSDACSE1148:
 2268 00d3 01       		.byte	0x1
 2269 00d4 00       		.byte	0
 2270 00d5 000000   		.align 4
 2271 00d8 00000000 		.long	0
 2272              	
 2273              	.LLSDATT1148:
 2274              		.text
 2276              		.section	.rodata.str1.1
 2277              	.LC19:
 2278 0034 45787065 		.string	"Expected [ "
 2278      63746564 
 2278      205B2000 
 2279              	.LC20:
 2280 0040 2000     		.string	" "
 2281              	.LC21:
 2282 0042 5D206275 		.string	"] but was [ "
 2282      74207761 
 2282      73205B20 
 2282      00
 2283              	.LC22:
 2284 004f 5D00     		.string	"]"
 2285              		.text
 2286 109d 0F1F00   		.p2align 4,,15
 2288              	_ZN8UnitTest15CheckArrayEqualIA3_iS1_EEvRNS_11TestResultsERKT_RKT0_iRKNS_11TestDetailsE.constprop.1
 2289              	.LFB1405:
 2290              		.cfi_startproc
 2291              		.cfi_personality 0x3,__gxx_personality_v0
 2292              		.cfi_lsda 0x3,.LLSDA1405
 2293 10a0 4156     		pushq	%r14
 2294              		.cfi_def_cfa_offset 16
 2295              		.cfi_offset 14, -16
 2296 10a2 4989F6   		movq	%rsi, %r14
 2297 10a5 4155     		pushq	%r13
 2298              		.cfi_def_cfa_offset 24
 2299              		.cfi_offset 13, -24
 2300 10a7 4989CD   		movq	%rcx, %r13
 2301 10aa 4154     		pushq	%r12
 2302              		.cfi_def_cfa_offset 32
 2303              		.cfi_offset 12, -32
 2304 10ac 4989FC   		movq	%rdi, %r12
 2305 10af 55       		pushq	%rbp
 2306              		.cfi_def_cfa_offset 40
 2307              		.cfi_offset 6, -40
 2308 10b0 4889D5   		movq	%rdx, %rbp
 2309 10b3 53       		pushq	%rbx
 2310              		.cfi_def_cfa_offset 48
 2311              		.cfi_offset 3, -48
 2312 10b4 4881EC80 		subq	$384, %rsp
 2312      010000
 2313              		.cfi_def_cfa_offset 432
 2314 10bb 8B02     		movl	(%rdx), %eax
 2315 10bd 3906     		cmpl	%eax, (%rsi)
 2316 10bf 8B4504   		movl	4(%rbp), %eax
 2317 10c2 0F94C2   		sete	%dl
 2318 10c5 394604   		cmpl	%eax, 4(%rsi)
 2319 10c8 0F94C0   		sete	%al
 2320 10cb 84C2     		testb	%al, %dl
 2321 10cd 7421     		je	.L257
 2322 10cf 8B4508   		movl	8(%rbp), %eax
 2323 10d2 394608   		cmpl	%eax, 8(%rsi)
 2324 10d5 7519     		jne	.L257
 2325 10d7 4881C480 		addq	$384, %rsp
 2325      010000
 2326              		.cfi_remember_state
 2327              		.cfi_def_cfa_offset 48
 2328 10de 5B       		popq	%rbx
 2329              		.cfi_def_cfa_offset 40
 2330 10df 5D       		popq	%rbp
 2331              		.cfi_def_cfa_offset 32
 2332 10e0 415C     		popq	%r12
 2333              		.cfi_def_cfa_offset 24
 2334 10e2 415D     		popq	%r13
 2335              		.cfi_def_cfa_offset 16
 2336 10e4 415E     		popq	%r14
 2337              		.cfi_def_cfa_offset 8
 2338 10e6 C3       		ret
 2339 10e7 660F1F84 		.p2align 4,,10
 2339      00000000 
 2339      00
 2340              		.p2align 3
 2341              	.L257:
 2342              		.cfi_restore_state
 2343 10f0 488D5C24 		leaq	112(%rsp), %rbx
 2343      70
 2344 10f5 4889DF   		movq	%rbx, %rdi
 2345 10f8 E8000000 		call	_ZNSt8ios_baseC2Ev
 2345      00
 2346 10fd 31F6     		xorl	%esi, %esi
 2347 10ff 4889DF   		movq	%rbx, %rdi
 2348 1102 48C78424 		movq	$0, 328(%rsp)
 2348      48010000 
 2348      00000000 
 2349 110e C6842450 		movb	$0, 336(%rsp)
 2349      01000000 
 2350 1116 C6842451 		movb	$0, 337(%rsp)
 2350      01000000 
 2351 111e 48C78424 		movq	$0, 344(%rsp)
 2351      58010000 
 2351      00000000 
 2352 112a 48C78424 		movq	$0, 352(%rsp)
 2352      60010000 
 2352      00000000 
 2353 1136 48C78424 		movq	$0, 360(%rsp)
 2353      68010000 
 2353      00000000 
 2354 1142 48C78424 		movq	$0, 368(%rsp)
 2354      70010000 
 2354      00000000 
 2355 114e 48C74424 		movq	$_ZTCN8UnitTest15MemoryOutStreamE0_So+24, 16(%rsp)
 2355      10000000 
 2355      00
 2356 1157 48C74424 		movq	$_ZTCN8UnitTest15MemoryOutStreamE0_So+64, 112(%rsp)
 2356      70000000 
 2356      00
 2357              	.LEHB32:
 2358 1160 E8000000 		call	_ZNSt9basic_iosIcSt11char_traitsIcEE4initEPSt15basic_streambufIcS1_E
 2358      00
 2359              	.LEHE32:
 2360 1165 488D7C24 		leaq	80(%rsp), %rdi
 2360      50
 2361 116a 48C74424 		movq	$_ZTCN8UnitTest15MemoryOutStreamE0_St19basic_ostringstreamIcSt11char_traitsIcESaIcEE+24, 16(%
 2361      10000000 
 2361      00
 2362 1173 48C74424 		movq	$_ZTCN8UnitTest15MemoryOutStreamE0_St19basic_ostringstreamIcSt11char_traitsIcESaIcEE+64, 112(
 2362      70000000 
 2362      00
 2363 117c 48C74424 		movq	$_ZTVSt15basic_streambufIcSt11char_traitsIcEE+16, 24(%rsp)
 2363      18000000 
 2363      00
 2364 1185 48C74424 		movq	$0, 32(%rsp)
 2364      20000000 
 2364      00
 2365 118e 48C74424 		movq	$0, 40(%rsp)
 2365      28000000 
 2365      00
 2366 1197 48C74424 		movq	$0, 48(%rsp)
 2366      30000000 
 2366      00
 2367 11a0 48C74424 		movq	$0, 56(%rsp)
 2367      38000000 
 2367      00
 2368 11a9 48C74424 		movq	$0, 64(%rsp)
 2368      40000000 
 2368      00
 2369 11b2 48C74424 		movq	$0, 72(%rsp)
 2369      48000000 
 2369      00
 2370 11bb E8000000 		call	_ZNSt6localeC1Ev
 2370      00
 2371 11c0 488B4424 		movq	16(%rsp), %rax
 2371      10
 2372 11c5 488D7C24 		leaq	16(%rsp), %rdi
 2372      10
 2373 11ca 488D7424 		leaq	24(%rsp), %rsi
 2373      18
 2374 11cf 48C74424 		movq	$_ZTVSt15basic_stringbufIcSt11char_traitsIcESaIcEE+16, 24(%rsp)
 2374      18000000 
 2374      00
 2375 11d8 C7442458 		movl	$16, 88(%rsp)
 2375      10000000 
 2376 11e0 48C74424 		movq	$_ZNSs4_Rep20_S_empty_rep_storageE+24, 96(%rsp)
 2376      60000000 
 2376      00
 2377 11e9 480378E8 		addq	-24(%rax), %rdi
 2378              	.LEHB33:
 2379 11ed E8000000 		call	_ZNSt9basic_iosIcSt11char_traitsIcEE4initEPSt15basic_streambufIcS1_E
 2379      00
 2380              	.LEHE33:
 2381 11f2 488D7C24 		leaq	16(%rsp), %rdi
 2381      10
 2382 11f7 BA0B0000 		movl	$11, %edx
 2382      00
 2383 11fc BE000000 		movl	$.LC19, %esi
 2383      00
 2384 1201 48C74424 		movq	$_ZTVN8UnitTest15MemoryOutStreamE+24, 16(%rsp)
 2384      10000000 
 2384      00
 2385 120a 48C74424 		movq	$_ZTVN8UnitTest15MemoryOutStreamE+64, 112(%rsp)
 2385      70000000 
 2385      00
 2386 1213 48C74424 		movq	$_ZNSs4_Rep20_S_empty_rep_storageE+24, 104(%rsp)
 2386      68000000 
 2386      00
 2387              	.LEHB34:
 2388 121c E8000000 		call	_ZSt16__ostream_insertIcSt11char_traitsIcEERSt13basic_ostreamIT_T0_ES6_PKS3_l
 2388      00
 2389 1221 31DB     		xorl	%ebx, %ebx
 2390              		.p2align 4,,10
 2391 1223 0F1F4400 		.p2align 3
 2391      00
 2392              	.L240:
 2393 1228 418B341E 		movl	(%r14,%rbx), %esi
 2394 122c 488D7C24 		leaq	16(%rsp), %rdi
 2394      10
 2395 1231 E8000000 		call	_ZNSolsEi
 2395      00
 2396 1236 BA010000 		movl	$1, %edx
 2396      00
 2397 123b BE000000 		movl	$.LC20, %esi
 2397      00
 2398 1240 4889C7   		movq	%rax, %rdi
 2399 1243 E8000000 		call	_ZSt16__ostream_insertIcSt11char_traitsIcEERSt13basic_ostreamIT_T0_ES6_PKS3_l
 2399      00
 2400 1248 4883C304 		addq	$4, %rbx
 2401 124c 4883FB0C 		cmpq	$12, %rbx
 2402 1250 75D6     		jne	.L240
 2403 1252 488D7C24 		leaq	16(%rsp), %rdi
 2403      10
 2404 1257 BA0C0000 		movl	$12, %edx
 2404      00
 2405 125c BE000000 		movl	$.LC21, %esi
 2405      00
 2406 1261 E8000000 		call	_ZSt16__ostream_insertIcSt11char_traitsIcEERSt13basic_ostreamIT_T0_ES6_PKS3_l
 2406      00
 2407 1266 30DB     		xorb	%bl, %bl
 2408 1268 0F1F8400 		.p2align 4,,10
 2408      00000000 
 2409              		.p2align 3
 2410              	.L242:
 2411 1270 8B741D00 		movl	0(%rbp,%rbx), %esi
 2412 1274 488D7C24 		leaq	16(%rsp), %rdi
 2412      10
 2413 1279 E8000000 		call	_ZNSolsEi
 2413      00
 2414 127e BA010000 		movl	$1, %edx
 2414      00
 2415 1283 BE000000 		movl	$.LC20, %esi
 2415      00
 2416 1288 4889C7   		movq	%rax, %rdi
 2417 128b E8000000 		call	_ZSt16__ostream_insertIcSt11char_traitsIcEERSt13basic_ostreamIT_T0_ES6_PKS3_l
 2417      00
 2418 1290 4883C304 		addq	$4, %rbx
 2419 1294 4883FB0C 		cmpq	$12, %rbx
 2420 1298 75D6     		jne	.L242
 2421 129a 488D7C24 		leaq	16(%rsp), %rdi
 2421      10
 2422 129f BA010000 		movl	$1, %edx
 2422      00
 2423 12a4 BE000000 		movl	$.LC22, %esi
 2423      00
 2424 12a9 E8000000 		call	_ZSt16__ostream_insertIcSt11char_traitsIcEERSt13basic_ostreamIT_T0_ES6_PKS3_l
 2424      00
 2425 12ae 488D7C24 		leaq	16(%rsp), %rdi
 2425      10
 2426 12b3 E8000000 		call	_ZNK8UnitTest15MemoryOutStream7GetTextEv
 2426      00
 2427 12b8 4889C2   		movq	%rax, %rdx
 2428 12bb 4C89EE   		movq	%r13, %rsi
 2429 12be 4C89E7   		movq	%r12, %rdi
 2430 12c1 E8000000 		call	_ZN8UnitTest11TestResults13OnTestFailureERKNS_11TestDetailsEPKc
 2430      00
 2431              	.LEHE34:
 2432 12c6 488B4424 		movq	104(%rsp), %rax
 2432      68
 2433 12cb 48C74424 		movq	$_ZTVN8UnitTest15MemoryOutStreamE+24, 16(%rsp)
 2433      10000000 
 2433      00
 2434 12d4 48C74424 		movq	$_ZTVN8UnitTest15MemoryOutStreamE+64, 112(%rsp)
 2434      70000000 
 2434      00
 2435 12dd 488D78E8 		leaq	-24(%rax), %rdi
 2436 12e1 4881FF00 		cmpq	$_ZNSs4_Rep20_S_empty_rep_storageE, %rdi
 2436      000000
 2437 12e8 0F85BB00 		jne	.L264
 2437      0000
 2438              	.L244:
 2439 12ee 488B4424 		movq	96(%rsp), %rax
 2439      60
 2440 12f3 48C74424 		movq	$_ZTCN8UnitTest15MemoryOutStreamE0_St19basic_ostringstreamIcSt11char_traitsIcESaIcEE+24, 16(%
 2440      10000000 
 2440      00
 2441 12fc 48C74424 		movq	$_ZTCN8UnitTest15MemoryOutStreamE0_St19basic_ostringstreamIcSt11char_traitsIcESaIcEE+64, 112(
 2441      70000000 
 2441      00
 2442 1305 48C74424 		movq	$_ZTVSt15basic_stringbufIcSt11char_traitsIcESaIcEE+16, 24(%rsp)
 2442      18000000 
 2442      00
 2443 130e 488D78E8 		leaq	-24(%rax), %rdi
 2444 1312 4881FF00 		cmpq	$_ZNSs4_Rep20_S_empty_rep_storageE, %rdi
 2444      000000
 2445 1319 0F85B800 		jne	.L265
 2445      0000
 2446              	.L249:
 2447 131f 488D7C24 		leaq	80(%rsp), %rdi
 2447      50
 2448 1324 48C74424 		movq	$_ZTVSt15basic_streambufIcSt11char_traitsIcEE+16, 24(%rsp)
 2448      18000000 
 2448      00
 2449 132d E8000000 		call	_ZNSt6localeD1Ev
 2449      00
 2450 1332 488D7C24 		leaq	112(%rsp), %rdi
 2450      70
 2451 1337 48C74424 		movq	$_ZTCN8UnitTest15MemoryOutStreamE0_So+24, 16(%rsp)
 2451      10000000 
 2451      00
 2452 1340 48C74424 		movq	$_ZTVSt9basic_iosIcSt11char_traitsIcEE+16, 112(%rsp)
 2452      70000000 
 2452      00
 2453              	.LEHB35:
 2454 1349 E8000000 		call	_ZNSt8ios_baseD2Ev
 2454      00
 2455              	.LEHE35:
 2456 134e 4881C480 		addq	$384, %rsp
 2456      010000
 2457              		.cfi_remember_state
 2458              		.cfi_def_cfa_offset 48
 2459 1355 5B       		popq	%rbx
 2460              		.cfi_def_cfa_offset 40
 2461 1356 5D       		popq	%rbp
 2462              		.cfi_def_cfa_offset 32
 2463 1357 415C     		popq	%r12
 2464              		.cfi_def_cfa_offset 24
 2465 1359 415D     		popq	%r13
 2466              		.cfi_def_cfa_offset 16
 2467 135b 415E     		popq	%r14
 2468              		.cfi_def_cfa_offset 8
 2469 135d C3       		ret
 2470              	.L255:
 2471              		.cfi_restore_state
 2472 135e 4889C3   		movq	%rax, %rbx
 2473              	.L237:
 2474 1361 488D7C24 		leaq	112(%rsp), %rdi
 2474      70
 2475 1366 48C74424 		movq	$_ZTVSt9basic_iosIcSt11char_traitsIcEE+16, 112(%rsp)
 2475      70000000 
 2475      00
 2476 136f E8000000 		call	_ZNSt8ios_baseD2Ev
 2476      00
 2477 1374 4889DF   		movq	%rbx, %rdi
 2478              	.LEHB36:
 2479 1377 E8000000 		call	_Unwind_Resume
 2479      00
 2480              	.LEHE36:
 2481              	.L256:
 2482 137c 488D7C24 		leaq	24(%rsp), %rdi
 2482      18
 2483 1381 4889C3   		movq	%rax, %rbx
 2484 1384 E8000000 		call	_ZNSt15basic_stringbufIcSt11char_traitsIcESaIcEED1Ev
 2484      00
 2485 1389 48C74424 		movq	$_ZTCN8UnitTest15MemoryOutStreamE0_So+24, 16(%rsp)
 2485      10000000 
 2485      00
 2486 1392 EBCD     		jmp	.L237
 2487              	.L254:
 2488 1394 488D7C24 		leaq	16(%rsp), %rdi
 2488      10
 2489 1399 4889C3   		movq	%rax, %rbx
 2490 139c E8000000 		call	_ZN8UnitTest15MemoryOutStreamD1Ev
 2490      00
 2491 13a1 4889DF   		movq	%rbx, %rdi
 2492              	.LEHB37:
 2493 13a4 E8000000 		call	_Unwind_Resume
 2493      00
 2494              	.LEHE37:
 2495              	.L264:
 2496 13a9 B9000000 		movl	$_ZL28__gthrw___pthread_key_createPjPFvPvE, %ecx
 2496      00
 2497 13ae 488D5710 		leaq	16(%rdi), %rdx
 2498 13b2 4885C9   		testq	%rcx, %rcx
 2499 13b5 744E     		je	.L245
 2500 13b7 B8FFFFFF 		movl	$-1, %eax
 2500      FF
 2501 13bc F00FC102 		lock xaddl	%eax, (%rdx)
 2502              	.L246:
 2503 13c0 85C0     		testl	%eax, %eax
 2504 13c2 0F8F26FF 		jg	.L244
 2504      FFFF
 2505 13c8 488D7424 		leaq	15(%rsp), %rsi
 2505      0F
 2506 13cd E8000000 		call	_ZNSs4_Rep10_M_destroyERKSaIcE
 2506      00
 2507 13d2 E917FFFF 		jmp	.L244
 2507      FF
 2508              	.L265:
 2509 13d7 B9000000 		movl	$_ZL28__gthrw___pthread_key_createPjPFvPvE, %ecx
 2509      00
 2510 13dc 488D5710 		leaq	16(%rdi), %rdx
 2511 13e0 4885C9   		testq	%rcx, %rcx
 2512 13e3 742D     		je	.L250
 2513 13e5 B8FFFFFF 		movl	$-1, %eax
 2513      FF
 2514 13ea F00FC102 		lock xaddl	%eax, (%rdx)
 2515              	.L251:
 2516 13ee 85C0     		testl	%eax, %eax
 2517 13f0 0F8F29FF 		jg	.L249
 2517      FFFF
 2518 13f6 488D7424 		leaq	15(%rsp), %rsi
 2518      0F
 2519 13fb E8000000 		call	_ZNSs4_Rep10_M_destroyERKSaIcE
 2519      00
 2520 1400 E91AFFFF 		jmp	.L249
 2520      FF
 2521              	.L245:
 2522 1405 8B50F8   		movl	-8(%rax), %edx
 2523 1408 8D4AFF   		leal	-1(%rdx), %ecx
 2524 140b 8948F8   		movl	%ecx, -8(%rax)
 2525 140e 89D0     		movl	%edx, %eax
 2526 1410 EBAE     		jmp	.L246
 2527              	.L250:
 2528 1412 8B50F8   		movl	-8(%rax), %edx
 2529 1415 8D4AFF   		leal	-1(%rdx), %ecx
 2530 1418 8948F8   		movl	%ecx, -8(%rax)
 2531 141b 89D0     		movl	%edx, %eax
 2532 141d EBCF     		jmp	.L251
 2533              		.cfi_endproc
 2534              	.LFE1405:
 2535              		.section	.gcc_except_table
 2536              	.LLSDA1405:
 2537 00dc FF       		.byte	0xff
 2538 00dd FF       		.byte	0xff
 2539 00de 01       		.byte	0x1
 2540 00df 22       		.uleb128 .LLSDACSE1405-.LLSDACSB1405
 2541              	.LLSDACSB1405:
 2542 00e0 C001     		.uleb128 .LEHB32-.LFB1405
 2543 00e2 05       		.uleb128 .LEHE32-.LEHB32
 2544 00e3 BE05     		.uleb128 .L255-.LFB1405
 2545 00e5 00       		.uleb128 0
 2546 00e6 CD02     		.uleb128 .LEHB33-.LFB1405
 2547 00e8 05       		.uleb128 .LEHE33-.LEHB33
 2548 00e9 DC05     		.uleb128 .L256-.LFB1405
 2549 00eb 00       		.uleb128 0
 2550 00ec FC02     		.uleb128 .LEHB34-.LFB1405
 2551 00ee AA01     		.uleb128 .LEHE34-.LEHB34
 2552 00f0 F405     		.uleb128 .L254-.LFB1405
 2553 00f2 00       		.uleb128 0
 2554 00f3 A905     		.uleb128 .LEHB35-.LFB1405
 2555 00f5 05       		.uleb128 .LEHE35-.LEHB35
 2556 00f6 00       		.uleb128 0
 2557 00f7 00       		.uleb128 0
 2558 00f8 D705     		.uleb128 .LEHB36-.LFB1405
 2559 00fa 05       		.uleb128 .LEHE36-.LEHB36
 2560 00fb 00       		.uleb128 0
 2561 00fc 00       		.uleb128 0
 2562 00fd 8406     		.uleb128 .LEHB37-.LFB1405
 2563 00ff 05       		.uleb128 .LEHE37-.LEHB37
 2564 0100 00       		.uleb128 0
 2565 0101 00       		.uleb128 0
 2566              	.LLSDACSE1405:
 2567              		.text
 2569              		.section	.rodata.str1.1
 2570              	.LC23:
 2571 0051 5D202B2F 		.string	"] +/- "
 2571      2D2000
 2572              	.LC24:
 2573 0058 20627574 		.string	" but was [ "
 2573      20776173 
 2573      205B2000 
 2574              		.text
 2575 141f 90       		.p2align 4,,15
 2577              	_ZN8UnitTest15CheckArrayCloseIA3_fS1_fEEvRNS_11TestResultsERKT_RKT0_iRKT1_RKNS_11TestDetailsE.const
 2578              	.LFB1406:
 2579              		.cfi_startproc
 2580              		.cfi_personality 0x3,__gxx_personality_v0
 2581              		.cfi_lsda 0x3,.LLSDA1406
 2582 1420 4157     		pushq	%r15
 2583              		.cfi_def_cfa_offset 16
 2584              		.cfi_offset 15, -16
 2585 1422 31C0     		xorl	%eax, %eax
 2586 1424 4989CF   		movq	%rcx, %r15
 2587 1427 4156     		pushq	%r14
 2588              		.cfi_def_cfa_offset 24
 2589              		.cfi_offset 14, -24
 2590 1429 4989F6   		movq	%rsi, %r14
 2591 142c 4155     		pushq	%r13
 2592              		.cfi_def_cfa_offset 32
 2593              		.cfi_offset 13, -32
 2594 142e 4D89C5   		movq	%r8, %r13
 2595 1431 4154     		pushq	%r12
 2596              		.cfi_def_cfa_offset 40
 2597              		.cfi_offset 12, -40
 2598 1433 4989FC   		movq	%rdi, %r12
 2599 1436 55       		pushq	%rbp
 2600              		.cfi_def_cfa_offset 48
 2601              		.cfi_offset 6, -48
 2602 1437 4889D5   		movq	%rdx, %rbp
 2603 143a 53       		pushq	%rbx
 2604              		.cfi_def_cfa_offset 56
 2605              		.cfi_offset 3, -56
 2606 143b 4881EC98 		subq	$408, %rsp
 2606      010000
 2607              		.cfi_def_cfa_offset 464
 2608 1442 F30F1016 		movss	(%rsi), %xmm2
 2609 1446 0F28DA   		movaps	%xmm2, %xmm3
 2610 1449 F30F1001 		movss	(%rcx), %xmm0
 2611 144d F30F100A 		movss	(%rdx), %xmm1
 2612 1451 F30F5CD8 		subss	%xmm0, %xmm3
 2613 1455 0F2ECB   		ucomiss	%xmm3, %xmm1
 2614 1458 720A     		jb	.L267
 2615 145a F30F58D0 		addss	%xmm0, %xmm2
 2616 145e 0F2ED1   		ucomiss	%xmm1, %xmm2
 2617 1461 0F93C0   		setnb	%al
 2618              	.L267:
 2619 1464 F3410F10 		movss	4(%r14), %xmm2
 2619      5604
 2620 146a 0F28DA   		movaps	%xmm2, %xmm3
 2621 146d F30F104D 		movss	4(%rbp), %xmm1
 2621      04
 2622 1472 F30F5CD8 		subss	%xmm0, %xmm3
 2623 1476 0F2ECB   		ucomiss	%xmm3, %xmm1
 2624 1479 0F82F102 		jb	.L306
 2624      0000
 2625 147f F30F58D0 		addss	%xmm0, %xmm2
 2626 1483 BA000000 		movl	$0, %edx
 2626      00
 2627 1488 0F2ED1   		ucomiss	%xmm1, %xmm2
 2628 148b 0F42C2   		cmovb	%edx, %eax
 2629              	.L269:
 2630 148e F3410F10 		movss	8(%r14), %xmm2
 2630      5608
 2631 1494 0F28DA   		movaps	%xmm2, %xmm3
 2632 1497 F30F104D 		movss	8(%rbp), %xmm1
 2632      08
 2633 149c F30F5CD8 		subss	%xmm0, %xmm3
 2634 14a0 0F2ECB   		ucomiss	%xmm3, %xmm1
 2635 14a3 0F83D702 		jnb	.L310
 2635      0000
 2636              	.L272:
 2637 14a9 488D9C24 		leaq	128(%rsp), %rbx
 2637      80000000 
 2638 14b1 4889DF   		movq	%rbx, %rdi
 2639 14b4 E8000000 		call	_ZNSt8ios_baseC2Ev
 2639      00
 2640 14b9 31F6     		xorl	%esi, %esi
 2641 14bb 4889DF   		movq	%rbx, %rdi
 2642 14be 48C78424 		movq	$0, 344(%rsp)
 2642      58010000 
 2642      00000000 
 2643 14ca C6842460 		movb	$0, 352(%rsp)
 2643      01000000 
 2644 14d2 C6842461 		movb	$0, 353(%rsp)
 2644      01000000 
 2645 14da 48C78424 		movq	$0, 360(%rsp)
 2645      68010000 
 2645      00000000 
 2646 14e6 48C78424 		movq	$0, 368(%rsp)
 2646      70010000 
 2646      00000000 
 2647 14f2 48C78424 		movq	$0, 376(%rsp)
 2647      78010000 
 2647      00000000 
 2648 14fe 48C78424 		movq	$0, 384(%rsp)
 2648      80010000 
 2648      00000000 
 2649 150a 48C74424 		movq	$_ZTCN8UnitTest15MemoryOutStreamE0_So+24, 32(%rsp)
 2649      20000000 
 2649      00
 2650 1513 48C78424 		movq	$_ZTCN8UnitTest15MemoryOutStreamE0_So+64, 128(%rsp)
 2650      80000000 
 2650      00000000 
 2651              	.LEHB38:
 2652 151f E8000000 		call	_ZNSt9basic_iosIcSt11char_traitsIcEE4initEPSt15basic_streambufIcS1_E
 2652      00
 2653              	.LEHE38:
 2654 1524 488D7C24 		leaq	96(%rsp), %rdi
 2654      60
 2655 1529 48C74424 		movq	$_ZTCN8UnitTest15MemoryOutStreamE0_St19basic_ostringstreamIcSt11char_traitsIcESaIcEE+24, 32(%
 2655      20000000 
 2655      00
 2656 1532 48C78424 		movq	$_ZTCN8UnitTest15MemoryOutStreamE0_St19basic_ostringstreamIcSt11char_traitsIcESaIcEE+64, 128(
 2656      80000000 
 2656      00000000 
 2657 153e 48C74424 		movq	$_ZTVSt15basic_streambufIcSt11char_traitsIcEE+16, 40(%rsp)
 2657      28000000 
 2657      00
 2658 1547 48C74424 		movq	$0, 48(%rsp)
 2658      30000000 
 2658      00
 2659 1550 48C74424 		movq	$0, 56(%rsp)
 2659      38000000 
 2659      00
 2660 1559 48C74424 		movq	$0, 64(%rsp)
 2660      40000000 
 2660      00
 2661 1562 48C74424 		movq	$0, 72(%rsp)
 2661      48000000 
 2661      00
 2662 156b 48C74424 		movq	$0, 80(%rsp)
 2662      50000000 
 2662      00
 2663 1574 48C74424 		movq	$0, 88(%rsp)
 2663      58000000 
 2663      00
 2664 157d E8000000 		call	_ZNSt6localeC1Ev
 2664      00
 2665 1582 488B4424 		movq	32(%rsp), %rax
 2665      20
 2666 1587 488D7C24 		leaq	32(%rsp), %rdi
 2666      20
 2667 158c 488D7424 		leaq	40(%rsp), %rsi
 2667      28
 2668 1591 48C74424 		movq	$_ZTVSt15basic_stringbufIcSt11char_traitsIcESaIcEE+16, 40(%rsp)
 2668      28000000 
 2668      00
 2669 159a C7442468 		movl	$16, 104(%rsp)
 2669      10000000 
 2670 15a2 48C74424 		movq	$_ZNSs4_Rep20_S_empty_rep_storageE+24, 112(%rsp)
 2670      70000000 
 2670      00
 2671 15ab 480378E8 		addq	-24(%rax), %rdi
 2672              	.LEHB39:
 2673 15af E8000000 		call	_ZNSt9basic_iosIcSt11char_traitsIcEE4initEPSt15basic_streambufIcS1_E
 2673      00
 2674              	.LEHE39:
 2675 15b4 488D7C24 		leaq	32(%rsp), %rdi
 2675      20
 2676 15b9 BA0B0000 		movl	$11, %edx
 2676      00
 2677 15be BE000000 		movl	$.LC19, %esi
 2677      00
 2678 15c3 48C74424 		movq	$_ZTVN8UnitTest15MemoryOutStreamE+24, 32(%rsp)
 2678      20000000 
 2678      00
 2679 15cc 48C78424 		movq	$_ZTVN8UnitTest15MemoryOutStreamE+64, 128(%rsp)
 2679      80000000 
 2679      00000000 
 2680 15d8 48C74424 		movq	$_ZNSs4_Rep20_S_empty_rep_storageE+24, 120(%rsp)
 2680      78000000 
 2680      00
 2681              	.LEHB40:
 2682 15e1 E8000000 		call	_ZSt16__ostream_insertIcSt11char_traitsIcEERSt13basic_ostreamIT_T0_ES6_PKS3_l
 2682      00
 2683 15e6 31DB     		xorl	%ebx, %ebx
 2684 15e8 0F1F8400 		.p2align 4,,10
 2684      00000000 
 2685              		.p2align 3
 2686              	.L281:
 2687 15f0 F3410F10 		movss	(%r14,%rbx), %xmm0
 2687      041E
 2688 15f6 488D7C24 		leaq	32(%rsp), %rdi
 2688      20
 2689 15fb 0F5AC0   		cvtps2pd	%xmm0, %xmm0
 2690 15fe E8000000 		call	_ZNSo9_M_insertIdEERSoT_
 2690      00
 2691 1603 BA010000 		movl	$1, %edx
 2691      00
 2692 1608 BE000000 		movl	$.LC20, %esi
 2692      00
 2693 160d 4889C7   		movq	%rax, %rdi
 2694 1610 E8000000 		call	_ZSt16__ostream_insertIcSt11char_traitsIcEERSt13basic_ostreamIT_T0_ES6_PKS3_l
 2694      00
 2695 1615 4883C304 		addq	$4, %rbx
 2696 1619 4883FB0C 		cmpq	$12, %rbx
 2697 161d 75D1     		jne	.L281
 2698 161f 488D7C24 		leaq	32(%rsp), %rdi
 2698      20
 2699 1624 F3410F10 		movss	(%r15), %xmm4
 2699      27
 2700 1629 BA060000 		movl	$6, %edx
 2700      00
 2701 162e BE000000 		movl	$.LC23, %esi
 2701      00
 2702 1633 F30F1164 		movss	%xmm4, 12(%rsp)
 2702      240C
 2703 1639 E8000000 		call	_ZSt16__ostream_insertIcSt11char_traitsIcEERSt13basic_ostreamIT_T0_ES6_PKS3_l
 2703      00
 2704 163e F30F1044 		movss	12(%rsp), %xmm0
 2704      240C
 2705 1644 488D7C24 		leaq	32(%rsp), %rdi
 2705      20
 2706 1649 0F5AC0   		cvtps2pd	%xmm0, %xmm0
 2707 164c E8000000 		call	_ZNSo9_M_insertIdEERSoT_
 2707      00
 2708 1651 BA0B0000 		movl	$11, %edx
 2708      00
 2709 1656 BE000000 		movl	$.LC24, %esi
 2709      00
 2710 165b 4889C7   		movq	%rax, %rdi
 2711 165e E8000000 		call	_ZSt16__ostream_insertIcSt11char_traitsIcEERSt13basic_ostreamIT_T0_ES6_PKS3_l
 2711      00
 2712 1663 30DB     		xorb	%bl, %bl
 2713              		.p2align 4,,10
 2714 1665 0F1F00   		.p2align 3
 2715              	.L283:
 2716 1668 F30F1044 		movss	0(%rbp,%rbx), %xmm0
 2716      1D00
 2717 166e 488D7C24 		leaq	32(%rsp), %rdi
 2717      20
 2718 1673 0F5AC0   		cvtps2pd	%xmm0, %xmm0
 2719 1676 E8000000 		call	_ZNSo9_M_insertIdEERSoT_
 2719      00
 2720 167b BA010000 		movl	$1, %edx
 2720      00
 2721 1680 BE000000 		movl	$.LC20, %esi
 2721      00
 2722 1685 4889C7   		movq	%rax, %rdi
 2723 1688 E8000000 		call	_ZSt16__ostream_insertIcSt11char_traitsIcEERSt13basic_ostreamIT_T0_ES6_PKS3_l
 2723      00
 2724 168d 4883C304 		addq	$4, %rbx
 2725 1691 4883FB0C 		cmpq	$12, %rbx
 2726 1695 75D1     		jne	.L283
 2727 1697 488D7C24 		leaq	32(%rsp), %rdi
 2727      20
 2728 169c BA010000 		movl	$1, %edx
 2728      00
 2729 16a1 BE000000 		movl	$.LC22, %esi
 2729      00
 2730 16a6 E8000000 		call	_ZSt16__ostream_insertIcSt11char_traitsIcEERSt13basic_ostreamIT_T0_ES6_PKS3_l
 2730      00
 2731 16ab 488D7C24 		leaq	32(%rsp), %rdi
 2731      20
 2732 16b0 E8000000 		call	_ZNK8UnitTest15MemoryOutStream7GetTextEv
 2732      00
 2733 16b5 4889C2   		movq	%rax, %rdx
 2734 16b8 4C89EE   		movq	%r13, %rsi
 2735 16bb 4C89E7   		movq	%r12, %rdi
 2736 16be E8000000 		call	_ZN8UnitTest11TestResults13OnTestFailureERKNS_11TestDetailsEPKc
 2736      00
 2737              	.LEHE40:
 2738 16c3 488B4424 		movq	120(%rsp), %rax
 2738      78
 2739 16c8 48C74424 		movq	$_ZTVN8UnitTest15MemoryOutStreamE+24, 32(%rsp)
 2739      20000000 
 2739      00
 2740 16d1 48C78424 		movq	$_ZTVN8UnitTest15MemoryOutStreamE+64, 128(%rsp)
 2740      80000000 
 2740      00000000 
 2741 16dd 488D78E8 		leaq	-24(%rax), %rdi
 2742 16e1 4881FF00 		cmpq	$_ZNSs4_Rep20_S_empty_rep_storageE, %rdi
 2742      000000
 2743 16e8 0F85A800 		jne	.L311
 2743      0000
 2744              	.L285:
 2745 16ee 488B4424 		movq	112(%rsp), %rax
 2745      70
 2746 16f3 48C74424 		movq	$_ZTCN8UnitTest15MemoryOutStreamE0_St19basic_ostringstreamIcSt11char_traitsIcESaIcEE+24, 32(%
 2746      20000000 
 2746      00
 2747 16fc 48C78424 		movq	$_ZTCN8UnitTest15MemoryOutStreamE0_St19basic_ostringstreamIcSt11char_traitsIcESaIcEE+64, 128(
 2747      80000000 
 2747      00000000 
 2748 1708 48C74424 		movq	$_ZTVSt15basic_stringbufIcSt11char_traitsIcESaIcEE+16, 40(%rsp)
 2748      28000000 
 2748      00
 2749 1711 488D78E8 		leaq	-24(%rax), %rdi
 2750 1715 4881FF00 		cmpq	$_ZNSs4_Rep20_S_empty_rep_storageE, %rdi
 2750      000000
 2751 171c 0F85A600 		jne	.L312
 2751      0000
 2752              	.L290:
 2753 1722 488D7C24 		leaq	96(%rsp), %rdi
 2753      60
 2754 1727 48C74424 		movq	$_ZTVSt15basic_streambufIcSt11char_traitsIcEE+16, 40(%rsp)
 2754      28000000 
 2754      00
 2755 1730 E8000000 		call	_ZNSt6localeD1Ev
 2755      00
 2756 1735 488DBC24 		leaq	128(%rsp), %rdi
 2756      80000000 
 2757 173d 48C74424 		movq	$_ZTCN8UnitTest15MemoryOutStreamE0_So+24, 32(%rsp)
 2757      20000000 
 2757      00
 2758 1746 48C78424 		movq	$_ZTVSt9basic_iosIcSt11char_traitsIcEE+16, 128(%rsp)
 2758      80000000 
 2758      00000000 
 2759              	.LEHB41:
 2760 1752 E8000000 		call	_ZNSt8ios_baseD2Ev
 2760      00
 2761              	.LEHE41:
 2762              	.L266:
 2763 1757 4881C498 		addq	$408, %rsp
 2763      010000
 2764              		.cfi_remember_state
 2765              		.cfi_def_cfa_offset 56
 2766 175e 5B       		popq	%rbx
 2767              		.cfi_def_cfa_offset 48
 2768 175f 5D       		popq	%rbp
 2769              		.cfi_def_cfa_offset 40
 2770 1760 415C     		popq	%r12
 2771              		.cfi_def_cfa_offset 32
 2772 1762 415D     		popq	%r13
 2773              		.cfi_def_cfa_offset 24
 2774 1764 415E     		popq	%r14
 2775              		.cfi_def_cfa_offset 16
 2776 1766 415F     		popq	%r15
 2777              		.cfi_def_cfa_offset 8
 2778 1768 C3       		ret
 2779 1769 0F1F8000 		.p2align 4,,10
 2779      000000
 2780              		.p2align 3
 2781              	.L306:
 2782              		.cfi_restore_state
 2783 1770 31C0     		xorl	%eax, %eax
 2784 1772 E917FDFF 		jmp	.L269
 2784      FF
 2785 1777 660F1F84 		.p2align 4,,10
 2785      00000000 
 2785      00
 2786              		.p2align 3
 2787              	.L310:
 2788 1780 F30F58C2 		addss	%xmm2, %xmm0
 2789 1784 0F2EC1   		ucomiss	%xmm1, %xmm0
 2790 1787 0F821CFD 		jb	.L272
 2790      FFFF
 2791 178d 84C0     		testb	%al, %al
 2792 178f 75C6     		jne	.L266
 2793              		.p2align 4,,2
 2794 1791 E913FDFF 		jmp	.L272
 2794      FF
 2795              	.L311:
 2796 1796 B9000000 		movl	$_ZL28__gthrw___pthread_key_createPjPFvPvE, %ecx
 2796      00
 2797 179b 488D5710 		leaq	16(%rdi), %rdx
 2798 179f 4885C9   		testq	%rcx, %rcx
 2799 17a2 0F848B00 		je	.L286
 2799      0000
 2800 17a8 B8FFFFFF 		movl	$-1, %eax
 2800      FF
 2801 17ad F00FC102 		lock xaddl	%eax, (%rdx)
 2802              	.L287:
 2803 17b1 85C0     		testl	%eax, %eax
 2804 17b3 0F8F35FF 		jg	.L285
 2804      FFFF
 2805 17b9 488D7424 		leaq	31(%rsp), %rsi
 2805      1F
 2806 17be E8000000 		call	_ZNSs4_Rep10_M_destroyERKSaIcE
 2806      00
 2807 17c3 E926FFFF 		jmp	.L285
 2807      FF
 2808              	.L312:
 2809 17c8 B9000000 		movl	$_ZL28__gthrw___pthread_key_createPjPFvPvE, %ecx
 2809      00
 2810 17cd 488D5710 		leaq	16(%rdi), %rdx
 2811 17d1 4885C9   		testq	%rcx, %rcx
 2812 17d4 0F848100 		je	.L291
 2812      0000
 2813 17da B8FFFFFF 		movl	$-1, %eax
 2813      FF
 2814 17df F00FC102 		lock xaddl	%eax, (%rdx)
 2815              	.L292:
 2816 17e3 85C0     		testl	%eax, %eax
 2817 17e5 0F8F37FF 		jg	.L290
 2817      FFFF
 2818 17eb 488D7424 		leaq	31(%rsp), %rsi
 2818      1F
 2819 17f0 E8000000 		call	_ZNSs4_Rep10_M_destroyERKSaIcE
 2819      00
 2820 17f5 E928FFFF 		jmp	.L290
 2820      FF
 2821              	.L298:
 2822 17fa 488D7C24 		leaq	32(%rsp), %rdi
 2822      20
 2823 17ff 4889C3   		movq	%rax, %rbx
 2824 1802 E8000000 		call	_ZN8UnitTest15MemoryOutStreamD1Ev
 2824      00
 2825 1807 4889DF   		movq	%rbx, %rdi
 2826              	.LEHB42:
 2827 180a E8000000 		call	_Unwind_Resume
 2827      00
 2828              	.LEHE42:
 2829              	.L299:
 2830 180f 4889C3   		movq	%rax, %rbx
 2831              	.L278:
 2832 1812 488DBC24 		leaq	128(%rsp), %rdi
 2832      80000000 
 2833 181a 48C78424 		movq	$_ZTVSt9basic_iosIcSt11char_traitsIcEE+16, 128(%rsp)
 2833      80000000 
 2833      00000000 
 2834 1826 E8000000 		call	_ZNSt8ios_baseD2Ev
 2834      00
 2835 182b 4889DF   		movq	%rbx, %rdi
 2836              	.LEHB43:
 2837 182e E8000000 		call	_Unwind_Resume
 2837      00
 2838              	.LEHE43:
 2839              	.L286:
 2840 1833 8B50F8   		movl	-8(%rax), %edx
 2841 1836 8D4AFF   		leal	-1(%rdx), %ecx
 2842 1839 8948F8   		movl	%ecx, -8(%rax)
 2843 183c 89D0     		movl	%edx, %eax
 2844 183e E96EFFFF 		jmp	.L287
 2844      FF
 2845              	.L300:
 2846 1843 488D7C24 		leaq	40(%rsp), %rdi
 2846      28
 2847 1848 4889C3   		movq	%rax, %rbx
 2848 184b E8000000 		call	_ZNSt15basic_stringbufIcSt11char_traitsIcESaIcEED1Ev
 2848      00
 2849 1850 48C74424 		movq	$_ZTCN8UnitTest15MemoryOutStreamE0_So+24, 32(%rsp)
 2849      20000000 
 2849      00
 2850 1859 EBB7     		jmp	.L278
 2851              	.L291:
 2852 185b 8B50F8   		movl	-8(%rax), %edx
 2853 185e 8D4AFF   		leal	-1(%rdx), %ecx
 2854 1861 8948F8   		movl	%ecx, -8(%rax)
 2855 1864 89D0     		movl	%edx, %eax
 2856 1866 E978FFFF 		jmp	.L292
 2856      FF
 2857              		.cfi_endproc
 2858              	.LFE1406:
 2859              		.section	.gcc_except_table
 2860              	.LLSDA1406:
 2861 0102 FF       		.byte	0xff
 2862 0103 FF       		.byte	0xff
 2863 0104 01       		.byte	0x1
 2864 0105 22       		.uleb128 .LLSDACSE1406-.LLSDACSB1406
 2865              	.LLSDACSB1406:
 2866 0106 FF01     		.uleb128 .LEHB38-.LFB1406
 2867 0108 05       		.uleb128 .LEHE38-.LEHB38
 2868 0109 EF07     		.uleb128 .L299-.LFB1406
 2869 010b 00       		.uleb128 0
 2870 010c 8F03     		.uleb128 .LEHB39-.LFB1406
 2871 010e 05       		.uleb128 .LEHE39-.LEHB39
 2872 010f A308     		.uleb128 .L300-.LFB1406
 2873 0111 00       		.uleb128 0
 2874 0112 C103     		.uleb128 .LEHB40-.LFB1406
 2875 0114 E201     		.uleb128 .LEHE40-.LEHB40
 2876 0116 DA07     		.uleb128 .L298-.LFB1406
 2877 0118 00       		.uleb128 0
 2878 0119 B206     		.uleb128 .LEHB41-.LFB1406
 2879 011b 05       		.uleb128 .LEHE41-.LEHB41
 2880 011c 00       		.uleb128 0
 2881 011d 00       		.uleb128 0
 2882 011e EA07     		.uleb128 .LEHB42-.LFB1406
 2883 0120 05       		.uleb128 .LEHE42-.LEHB42
 2884 0121 00       		.uleb128 0
 2885 0122 00       		.uleb128 0
 2886 0123 8E08     		.uleb128 .LEHB43-.LFB1406
 2887 0125 05       		.uleb128 .LEHE43-.LEHB43
 2888 0126 00       		.uleb128 0
 2889 0127 00       		.uleb128 0
 2890              	.LLSDACSE1406:
 2891              		.text
 2893              		.section	.rodata.str1.1
 2894              	.LC25:
 2895 0064 5B2000   		.string	"[ "
 2896              	.LC26:
 2897 0067 5D2000   		.string	"] "
 2898              		.text
 2899 186b 0F1F4400 		.p2align 4,,15
 2899      00
 2901              	_ZN8UnitTest17CheckArray2DCloseIA3_A3_fS2_fEEvRNS_11TestResultsERKT_RKT0_iiRKT1_RKNS_11TestDetailsE
 2902              	.LFB1407:
 2903              		.cfi_startproc
 2904              		.cfi_personality 0x3,__gxx_personality_v0
 2905              		.cfi_lsda 0x3,.LLSDA1407
 2906 1870 4157     		pushq	%r15
 2907              		.cfi_def_cfa_offset 16
 2908              		.cfi_offset 15, -16
 2909 1872 4989CF   		movq	%rcx, %r15
 2910 1875 4156     		pushq	%r14
 2911              		.cfi_def_cfa_offset 24
 2912              		.cfi_offset 14, -24
 2913 1877 4989F6   		movq	%rsi, %r14
 2914 187a 4155     		pushq	%r13
 2915              		.cfi_def_cfa_offset 32
 2916              		.cfi_offset 13, -32
 2917 187c 4989D5   		movq	%rdx, %r13
 2918 187f 4154     		pushq	%r12
 2919              		.cfi_def_cfa_offset 40
 2920              		.cfi_offset 12, -40
 2921 1881 55       		pushq	%rbp
 2922              		.cfi_def_cfa_offset 48
 2923              		.cfi_offset 6, -48
 2924 1882 53       		pushq	%rbx
 2925              		.cfi_def_cfa_offset 56
 2926              		.cfi_offset 3, -56
 2927 1883 4881ECA8 		subq	$424, %rsp
 2927      010000
 2928              		.cfi_def_cfa_offset 480
 2929 188a F30F1016 		movss	(%rsi), %xmm2
 2930 188e 48897C24 		movq	%rdi, 16(%rsp)
 2930      10
 2931 1893 0F28DA   		movaps	%xmm2, %xmm3
 2932 1896 F30F1001 		movss	(%rcx), %xmm0
 2933 189a F30F100A 		movss	(%rdx), %xmm1
 2934 189e 31D2     		xorl	%edx, %edx
 2935 18a0 F30F5CD8 		subss	%xmm0, %xmm3
 2936 18a4 4C894424 		movq	%r8, 24(%rsp)
 2936      18
 2937 18a9 0F2ECB   		ucomiss	%xmm3, %xmm1
 2938 18ac 720A     		jb	.L314
 2939 18ae F30F58D0 		addss	%xmm0, %xmm2
 2940 18b2 0F2ED1   		ucomiss	%xmm1, %xmm2
 2941 18b5 0F93C2   		setnb	%dl
 2942              	.L314:
 2943 18b8 F3410F10 		movss	4(%r14), %xmm2
 2943      5604
 2944 18be 31C0     		xorl	%eax, %eax
 2945 18c0 0F28DA   		movaps	%xmm2, %xmm3
 2946 18c3 F3410F10 		movss	4(%r13), %xmm1
 2946      4D04
 2947 18c9 F30F5CD8 		subss	%xmm0, %xmm3
 2948 18cd 0F2ECB   		ucomiss	%xmm3, %xmm1
 2949 18d0 720C     		jb	.L316
 2950 18d2 F30F58D0 		addss	%xmm0, %xmm2
 2951 18d6 31C0     		xorl	%eax, %eax
 2952 18d8 0F2ED1   		ucomiss	%xmm1, %xmm2
 2953 18db 0F43C2   		cmovnb	%edx, %eax
 2954              	.L316:
 2955 18de F3410F10 		movss	8(%r14), %xmm2
 2955      5608
 2956 18e4 0F28DA   		movaps	%xmm2, %xmm3
 2957 18e7 F3410F10 		movss	8(%r13), %xmm1
 2957      4D08
 2958 18ed F30F5CD8 		subss	%xmm0, %xmm3
 2959 18f1 0F2ECB   		ucomiss	%xmm3, %xmm1
 2960 18f4 0F826504 		jb	.L398
 2960      0000
 2961 18fa F30F58D0 		addss	%xmm0, %xmm2
 2962 18fe BA000000 		movl	$0, %edx
 2962      00
 2963 1903 0F2ED1   		ucomiss	%xmm1, %xmm2
 2964 1906 0F42C2   		cmovb	%edx, %eax
 2965              	.L319:
 2966 1909 F3410F10 		movss	12(%r14), %xmm2
 2966      560C
 2967 190f 31C9     		xorl	%ecx, %ecx
 2968 1911 0F28DA   		movaps	%xmm2, %xmm3
 2969 1914 F3410F10 		movss	12(%r13), %xmm1
 2969      4D0C
 2970 191a F30F5CD8 		subss	%xmm0, %xmm3
 2971 191e 0F2ECB   		ucomiss	%xmm3, %xmm1
 2972 1921 720A     		jb	.L322
 2973 1923 F30F58D0 		addss	%xmm0, %xmm2
 2974 1927 0F2ED1   		ucomiss	%xmm1, %xmm2
 2975 192a 0F93C1   		setnb	%cl
 2976              	.L322:
 2977 192d F3410F10 		movss	16(%r14), %xmm2
 2977      5610
 2978 1933 31D2     		xorl	%edx, %edx
 2979 1935 0F28DA   		movaps	%xmm2, %xmm3
 2980 1938 F3410F10 		movss	16(%r13), %xmm1
 2980      4D10
 2981 193e F30F5CD8 		subss	%xmm0, %xmm3
 2982 1942 0F2ECB   		ucomiss	%xmm3, %xmm1
 2983 1945 720C     		jb	.L324
 2984 1947 F30F58D0 		addss	%xmm0, %xmm2
 2985 194b 31D2     		xorl	%edx, %edx
 2986 194d 0F2ED1   		ucomiss	%xmm1, %xmm2
 2987 1950 0F43D1   		cmovnb	%ecx, %edx
 2988              	.L324:
 2989 1953 F3410F10 		movss	20(%r14), %xmm2
 2989      5614
 2990 1959 0F28DA   		movaps	%xmm2, %xmm3
 2991 195c F3410F10 		movss	20(%r13), %xmm1
 2991      4D14
 2992 1962 F30F5CD8 		subss	%xmm0, %xmm3
 2993 1966 0F2ECB   		ucomiss	%xmm3, %xmm1
 2994 1969 0F82E903 		jb	.L401
 2994      0000
 2995 196f F30F58D0 		addss	%xmm0, %xmm2
 2996 1973 21D0     		andl	%edx, %eax
 2997 1975 31D2     		xorl	%edx, %edx
 2998 1977 0F2ED1   		ucomiss	%xmm1, %xmm2
 2999 197a 0F43D0   		cmovnb	%eax, %edx
 3000              	.L327:
 3001 197d F3410F10 		movss	24(%r14), %xmm2
 3001      5618
 3002 1983 31C9     		xorl	%ecx, %ecx
 3003 1985 0F28DA   		movaps	%xmm2, %xmm3
 3004 1988 F3410F10 		movss	24(%r13), %xmm1
 3004      4D18
 3005 198e F30F5CD8 		subss	%xmm0, %xmm3
 3006 1992 0F2ECB   		ucomiss	%xmm3, %xmm1
 3007 1995 720A     		jb	.L330
 3008 1997 F30F58D0 		addss	%xmm0, %xmm2
 3009 199b 0F2ED1   		ucomiss	%xmm1, %xmm2
 3010 199e 0F93C1   		setnb	%cl
 3011              	.L330:
 3012 19a1 F3410F10 		movss	28(%r14), %xmm2
 3012      561C
 3013 19a7 31C0     		xorl	%eax, %eax
 3014 19a9 0F28DA   		movaps	%xmm2, %xmm3
 3015 19ac F3410F10 		movss	28(%r13), %xmm1
 3015      4D1C
 3016 19b2 F30F5CD8 		subss	%xmm0, %xmm3
 3017 19b6 0F2ECB   		ucomiss	%xmm3, %xmm1
 3018 19b9 720C     		jb	.L332
 3019 19bb F30F58D0 		addss	%xmm0, %xmm2
 3020 19bf 31C0     		xorl	%eax, %eax
 3021 19c1 0F2ED1   		ucomiss	%xmm1, %xmm2
 3022 19c4 0F43C1   		cmovnb	%ecx, %eax
 3023              	.L332:
 3024 19c7 F3410F10 		movss	32(%r14), %xmm2
 3024      5620
 3025 19cd 0F28DA   		movaps	%xmm2, %xmm3
 3026 19d0 F3410F10 		movss	32(%r13), %xmm1
 3026      4D20
 3027 19d6 F30F5CD8 		subss	%xmm0, %xmm3
 3028 19da 0F2ECB   		ucomiss	%xmm3, %xmm1
 3029 19dd 0F834E03 		jnb	.L407
 3029      0000
 3030              	.L335:
 3031 19e3 488D9C24 		leaq	144(%rsp), %rbx
 3031      90000000 
 3032 19eb 4889DF   		movq	%rbx, %rdi
 3033 19ee E8000000 		call	_ZNSt8ios_baseC2Ev
 3033      00
 3034 19f3 31F6     		xorl	%esi, %esi
 3035 19f5 4889DF   		movq	%rbx, %rdi
 3036 19f8 48C78424 		movq	$0, 360(%rsp)
 3036      68010000 
 3036      00000000 
 3037 1a04 C6842470 		movb	$0, 368(%rsp)
 3037      01000000 
 3038 1a0c C6842471 		movb	$0, 369(%rsp)
 3038      01000000 
 3039 1a14 48C78424 		movq	$0, 376(%rsp)
 3039      78010000 
 3039      00000000 
 3040 1a20 48C78424 		movq	$0, 384(%rsp)
 3040      80010000 
 3040      00000000 
 3041 1a2c 48C78424 		movq	$0, 392(%rsp)
 3041      88010000 
 3041      00000000 
 3042 1a38 48C78424 		movq	$0, 400(%rsp)
 3042      90010000 
 3042      00000000 
 3043 1a44 48C74424 		movq	$_ZTCN8UnitTest15MemoryOutStreamE0_So+24, 48(%rsp)
 3043      30000000 
 3043      00
 3044 1a4d 48C78424 		movq	$_ZTCN8UnitTest15MemoryOutStreamE0_So+64, 144(%rsp)
 3044      90000000 
 3044      00000000 
 3045              	.LEHB44:
 3046 1a59 E8000000 		call	_ZNSt9basic_iosIcSt11char_traitsIcEE4initEPSt15basic_streambufIcS1_E
 3046      00
 3047              	.LEHE44:
 3048 1a5e 488D7C24 		leaq	112(%rsp), %rdi
 3048      70
 3049 1a63 48C74424 		movq	$_ZTCN8UnitTest15MemoryOutStreamE0_St19basic_ostringstreamIcSt11char_traitsIcESaIcEE+24, 48(%
 3049      30000000 
 3049      00
 3050 1a6c 48C78424 		movq	$_ZTCN8UnitTest15MemoryOutStreamE0_St19basic_ostringstreamIcSt11char_traitsIcESaIcEE+64, 144(
 3050      90000000 
 3050      00000000 
 3051 1a78 48C74424 		movq	$_ZTVSt15basic_streambufIcSt11char_traitsIcEE+16, 56(%rsp)
 3051      38000000 
 3051      00
 3052 1a81 48C74424 		movq	$0, 64(%rsp)
 3052      40000000 
 3052      00
 3053 1a8a 48C74424 		movq	$0, 72(%rsp)
 3053      48000000 
 3053      00
 3054 1a93 48C74424 		movq	$0, 80(%rsp)
 3054      50000000 
 3054      00
 3055 1a9c 48C74424 		movq	$0, 88(%rsp)
 3055      58000000 
 3055      00
 3056 1aa5 48C74424 		movq	$0, 96(%rsp)
 3056      60000000 
 3056      00
 3057 1aae 48C74424 		movq	$0, 104(%rsp)
 3057      68000000 
 3057      00
 3058 1ab7 E8000000 		call	_ZNSt6localeC1Ev
 3058      00
 3059 1abc 488B4424 		movq	48(%rsp), %rax
 3059      30
 3060 1ac1 488D7C24 		leaq	48(%rsp), %rdi
 3060      30
 3061 1ac6 488D7424 		leaq	56(%rsp), %rsi
 3061      38
 3062 1acb 48C74424 		movq	$_ZTVSt15basic_stringbufIcSt11char_traitsIcESaIcEE+16, 56(%rsp)
 3062      38000000 
 3062      00
 3063 1ad4 C7442478 		movl	$16, 120(%rsp)
 3063      10000000 
 3064 1adc 48C78424 		movq	$_ZNSs4_Rep20_S_empty_rep_storageE+24, 128(%rsp)
 3064      80000000 
 3064      00000000 
 3065 1ae8 480378E8 		addq	-24(%rax), %rdi
 3066              	.LEHB45:
 3067 1aec E8000000 		call	_ZNSt9basic_iosIcSt11char_traitsIcEE4initEPSt15basic_streambufIcS1_E
 3067      00
 3068              	.LEHE45:
 3069 1af1 488D7C24 		leaq	48(%rsp), %rdi
 3069      30
 3070 1af6 BA0B0000 		movl	$11, %edx
 3070      00
 3071 1afb BE000000 		movl	$.LC19, %esi
 3071      00
 3072 1b00 48C74424 		movq	$_ZTVN8UnitTest15MemoryOutStreamE+24, 48(%rsp)
 3072      30000000 
 3072      00
 3073 1b09 48C78424 		movq	$_ZTVN8UnitTest15MemoryOutStreamE+64, 144(%rsp)
 3073      90000000 
 3073      00000000 
 3074 1b15 48C78424 		movq	$_ZNSs4_Rep20_S_empty_rep_storageE+24, 136(%rsp)
 3074      88000000 
 3074      00000000 
 3075              	.LEHB46:
 3076 1b21 E8000000 		call	_ZSt16__ostream_insertIcSt11char_traitsIcEERSt13basic_ostreamIT_T0_ES6_PKS3_l
 3076      00
 3077 1b26 4531E4   		xorl	%r12d, %r12d
 3078 1b29 0F1F8000 		.p2align 4,,10
 3078      000000
 3079              		.p2align 3
 3080              	.L347:
 3081 1b30 488D7C24 		leaq	48(%rsp), %rdi
 3081      30
 3082 1b35 BA020000 		movl	$2, %edx
 3082      00
 3083 1b3a BE000000 		movl	$.LC25, %esi
 3083      00
 3084 1b3f E8000000 		call	_ZSt16__ostream_insertIcSt11char_traitsIcEERSt13basic_ostreamIT_T0_ES6_PKS3_l
 3084      00
 3085 1b44 4B8D2C26 		leaq	(%r14,%r12), %rbp
 3086 1b48 31DB     		xorl	%ebx, %ebx
 3087 1b4a 660F1F44 		.p2align 4,,10
 3087      0000
 3088              		.p2align 3
 3089              	.L345:
 3090 1b50 F30F1044 		movss	0(%rbp,%rbx), %xmm0
 3090      1D00
 3091 1b56 488D7C24 		leaq	48(%rsp), %rdi
 3091      30
 3092 1b5b 0F5AC0   		cvtps2pd	%xmm0, %xmm0
 3093 1b5e E8000000 		call	_ZNSo9_M_insertIdEERSoT_
 3093      00
 3094 1b63 BA010000 		movl	$1, %edx
 3094      00
 3095 1b68 BE000000 		movl	$.LC20, %esi
 3095      00
 3096 1b6d 4889C7   		movq	%rax, %rdi
 3097 1b70 E8000000 		call	_ZSt16__ostream_insertIcSt11char_traitsIcEERSt13basic_ostreamIT_T0_ES6_PKS3_l
 3097      00
 3098 1b75 4883C304 		addq	$4, %rbx
 3099 1b79 4883FB0C 		cmpq	$12, %rbx
 3100 1b7d 75D1     		jne	.L345
 3101 1b7f 488D7C24 		leaq	48(%rsp), %rdi
 3101      30
 3102 1b84 BA020000 		movl	$2, %edx
 3102      00
 3103 1b89 BE000000 		movl	$.LC26, %esi
 3103      00
 3104 1b8e E8000000 		call	_ZSt16__ostream_insertIcSt11char_traitsIcEERSt13basic_ostreamIT_T0_ES6_PKS3_l
 3104      00
 3105 1b93 4983C40C 		addq	$12, %r12
 3106 1b97 4983FC24 		cmpq	$36, %r12
 3107 1b9b 7593     		jne	.L347
 3108 1b9d 488D7C24 		leaq	48(%rsp), %rdi
 3108      30
 3109 1ba2 F3410F10 		movss	(%r15), %xmm4
 3109      27
 3110 1ba7 BA060000 		movl	$6, %edx
 3110      00
 3111 1bac BE000000 		movl	$.LC23, %esi
 3111      00
 3112 1bb1 F30F1164 		movss	%xmm4, 12(%rsp)
 3112      240C
 3113 1bb7 E8000000 		call	_ZSt16__ostream_insertIcSt11char_traitsIcEERSt13basic_ostreamIT_T0_ES6_PKS3_l
 3113      00
 3114 1bbc F30F1044 		movss	12(%rsp), %xmm0
 3114      240C
 3115 1bc2 488D7C24 		leaq	48(%rsp), %rdi
 3115      30
 3116 1bc7 0F5AC0   		cvtps2pd	%xmm0, %xmm0
 3117 1bca E8000000 		call	_ZNSo9_M_insertIdEERSoT_
 3117      00
 3118 1bcf BA0B0000 		movl	$11, %edx
 3118      00
 3119 1bd4 BE000000 		movl	$.LC24, %esi
 3119      00
 3120 1bd9 4889C7   		movq	%rax, %rdi
 3121 1bdc E8000000 		call	_ZSt16__ostream_insertIcSt11char_traitsIcEERSt13basic_ostreamIT_T0_ES6_PKS3_l
 3121      00
 3122 1be1 4530E4   		xorb	%r12b, %r12b
 3123              		.p2align 4,,10
 3124 1be4 0F1F4000 		.p2align 3
 3125              	.L351:
 3126 1be8 488D7C24 		leaq	48(%rsp), %rdi
 3126      30
 3127 1bed BA020000 		movl	$2, %edx
 3127      00
 3128 1bf2 BE000000 		movl	$.LC25, %esi
 3128      00
 3129 1bf7 E8000000 		call	_ZSt16__ostream_insertIcSt11char_traitsIcEERSt13basic_ostreamIT_T0_ES6_PKS3_l
 3129      00
 3130 1bfc 4B8D6C25 		leaq	0(%r13,%r12), %rbp
 3130      00
 3131 1c01 31DB     		xorl	%ebx, %ebx
 3132              		.p2align 4,,10
 3133 1c03 0F1F4400 		.p2align 3
 3133      00
 3134              	.L349:
 3135 1c08 F30F1044 		movss	0(%rbp,%rbx), %xmm0
 3135      1D00
 3136 1c0e 488D7C24 		leaq	48(%rsp), %rdi
 3136      30
 3137 1c13 0F5AC0   		cvtps2pd	%xmm0, %xmm0
 3138 1c16 E8000000 		call	_ZNSo9_M_insertIdEERSoT_
 3138      00
 3139 1c1b BA010000 		movl	$1, %edx
 3139      00
 3140 1c20 BE000000 		movl	$.LC20, %esi
 3140      00
 3141 1c25 4889C7   		movq	%rax, %rdi
 3142 1c28 E8000000 		call	_ZSt16__ostream_insertIcSt11char_traitsIcEERSt13basic_ostreamIT_T0_ES6_PKS3_l
 3142      00
 3143 1c2d 4883C304 		addq	$4, %rbx
 3144 1c31 4883FB0C 		cmpq	$12, %rbx
 3145 1c35 75D1     		jne	.L349
 3146 1c37 488D7C24 		leaq	48(%rsp), %rdi
 3146      30
 3147 1c3c BA020000 		movl	$2, %edx
 3147      00
 3148 1c41 BE000000 		movl	$.LC26, %esi
 3148      00
 3149 1c46 E8000000 		call	_ZSt16__ostream_insertIcSt11char_traitsIcEERSt13basic_ostreamIT_T0_ES6_PKS3_l
 3149      00
 3150 1c4b 4983C40C 		addq	$12, %r12
 3151 1c4f 4983FC24 		cmpq	$36, %r12
 3152 1c53 7593     		jne	.L351
 3153 1c55 488D7C24 		leaq	48(%rsp), %rdi
 3153      30
 3154 1c5a BA010000 		movl	$1, %edx
 3154      00
 3155 1c5f BE000000 		movl	$.LC22, %esi
 3155      00
 3156 1c64 E8000000 		call	_ZSt16__ostream_insertIcSt11char_traitsIcEERSt13basic_ostreamIT_T0_ES6_PKS3_l
 3156      00
 3157 1c69 488D7C24 		leaq	48(%rsp), %rdi
 3157      30
 3158 1c6e E8000000 		call	_ZNK8UnitTest15MemoryOutStream7GetTextEv
 3158      00
 3159 1c73 488B7424 		movq	24(%rsp), %rsi
 3159      18
 3160 1c78 488B7C24 		movq	16(%rsp), %rdi
 3160      10
 3161 1c7d 4889C2   		movq	%rax, %rdx
 3162 1c80 E8000000 		call	_ZN8UnitTest11TestResults13OnTestFailureERKNS_11TestDetailsEPKc
 3162      00
 3163              	.LEHE46:
 3164 1c85 488B8424 		movq	136(%rsp), %rax
 3164      88000000 
 3165 1c8d 48C74424 		movq	$_ZTVN8UnitTest15MemoryOutStreamE+24, 48(%rsp)
 3165      30000000 
 3165      00
 3166 1c96 48C78424 		movq	$_ZTVN8UnitTest15MemoryOutStreamE+64, 144(%rsp)
 3166      90000000 
 3166      00000000 
 3167 1ca2 488D78E8 		leaq	-24(%rax), %rdi
 3168 1ca6 4881FF00 		cmpq	$_ZNSs4_Rep20_S_empty_rep_storageE, %rdi
 3168      000000
 3169 1cad 0F85B300 		jne	.L408
 3169      0000
 3170              	.L353:
 3171 1cb3 488B8424 		movq	128(%rsp), %rax
 3171      80000000 
 3172 1cbb 48C74424 		movq	$_ZTCN8UnitTest15MemoryOutStreamE0_St19basic_ostringstreamIcSt11char_traitsIcESaIcEE+24, 48(%
 3172      30000000 
 3172      00
 3173 1cc4 48C78424 		movq	$_ZTCN8UnitTest15MemoryOutStreamE0_St19basic_ostringstreamIcSt11char_traitsIcESaIcEE+64, 144(
 3173      90000000 
 3173      00000000 
 3174 1cd0 48C74424 		movq	$_ZTVSt15basic_stringbufIcSt11char_traitsIcESaIcEE+16, 56(%rsp)
 3174      38000000 
 3174      00
 3175 1cd9 488D78E8 		leaq	-24(%rax), %rdi
 3176 1cdd 4881FF00 		cmpq	$_ZNSs4_Rep20_S_empty_rep_storageE, %rdi
 3176      000000
 3177 1ce4 0F85EA00 		jne	.L409
 3177      0000
 3178              	.L358:
 3179 1cea 488D7C24 		leaq	112(%rsp), %rdi
 3179      70
 3180 1cef 48C74424 		movq	$_ZTVSt15basic_streambufIcSt11char_traitsIcEE+16, 56(%rsp)
 3180      38000000 
 3180      00
 3181 1cf8 E8000000 		call	_ZNSt6localeD1Ev
 3181      00
 3182 1cfd 488DBC24 		leaq	144(%rsp), %rdi
 3182      90000000 
 3183 1d05 48C74424 		movq	$_ZTCN8UnitTest15MemoryOutStreamE0_So+24, 48(%rsp)
 3183      30000000 
 3183      00
 3184 1d0e 48C78424 		movq	$_ZTVSt9basic_iosIcSt11char_traitsIcEE+16, 144(%rsp)
 3184      90000000 
 3184      00000000 
 3185              	.LEHB47:
 3186 1d1a E8000000 		call	_ZNSt8ios_baseD2Ev
 3186      00
 3187              	.LEHE47:
 3188              	.L313:
 3189 1d1f 4881C4A8 		addq	$424, %rsp
 3189      010000
 3190              		.cfi_remember_state
 3191              		.cfi_def_cfa_offset 56
 3192 1d26 5B       		popq	%rbx
 3193              		.cfi_def_cfa_offset 48
 3194 1d27 5D       		popq	%rbp
 3195              		.cfi_def_cfa_offset 40
 3196 1d28 415C     		popq	%r12
 3197              		.cfi_def_cfa_offset 32
 3198 1d2a 415D     		popq	%r13
 3199              		.cfi_def_cfa_offset 24
 3200 1d2c 415E     		popq	%r14
 3201              		.cfi_def_cfa_offset 16
 3202 1d2e 415F     		popq	%r15
 3203              		.cfi_def_cfa_offset 8
 3204 1d30 C3       		ret
 3205              	.L407:
 3206              		.cfi_restore_state
 3207 1d31 F30F58C2 		addss	%xmm2, %xmm0
 3208 1d35 0F2EC1   		ucomiss	%xmm1, %xmm0
 3209 1d38 0F82A5FC 		jb	.L335
 3209      FFFF
 3210 1d3e 84C0     		testb	%al, %al
 3211 1d40 0F849DFC 		je	.L335
 3211      FFFF
 3212 1d46 84D2     		testb	%dl, %dl
 3213 1d48 75D5     		jne	.L313
 3214 1d4a 660F1F44 		.p2align 4,,7
 3214      0000
 3215 1d50 E98EFCFF 		jmp	.L335
 3215      FF
 3216              		.p2align 4,,10
 3217 1d55 0F1F00   		.p2align 3
 3218              	.L401:
 3219 1d58 31D2     		xorl	%edx, %edx
 3220 1d5a E91EFCFF 		jmp	.L327
 3220      FF
 3221              	.L398:
 3222 1d5f 31C0     		xorl	%eax, %eax
 3223              		.p2align 4,,7
 3224 1d61 E9A3FBFF 		jmp	.L319
 3224      FF
 3225              	.L408:
 3226 1d66 B9000000 		movl	$_ZL28__gthrw___pthread_key_createPjPFvPvE, %ecx
 3226      00
 3227 1d6b 488D5710 		leaq	16(%rdi), %rdx
 3228 1d6f 4885C9   		testq	%rcx, %rcx
 3229 1d72 0F849F00 		je	.L354
 3229      0000
 3230 1d78 B8FFFFFF 		movl	$-1, %eax
 3230      FF
 3231 1d7d F00FC102 		lock xaddl	%eax, (%rdx)
 3232              	.L355:
 3233 1d81 85C0     		testl	%eax, %eax
 3234 1d83 0F8F2AFF 		jg	.L353
 3234      FFFF
 3235 1d89 488D7424 		leaq	47(%rsp), %rsi
 3235      2F
 3236 1d8e E8000000 		call	_ZNSs4_Rep10_M_destroyERKSaIcE
 3236      00
 3237 1d93 E91BFFFF 		jmp	.L353
 3237      FF
 3238              	.L378:
 3239 1d98 488D7C24 		leaq	56(%rsp), %rdi
 3239      38
 3240 1d9d 4889C3   		movq	%rax, %rbx
 3241 1da0 E8000000 		call	_ZNSt15basic_stringbufIcSt11char_traitsIcESaIcEED1Ev
 3241      00
 3242 1da5 48C74424 		movq	$_ZTCN8UnitTest15MemoryOutStreamE0_So+24, 48(%rsp)
 3242      30000000 
 3242      00
 3243              	.L342:
 3244 1dae 488DBC24 		leaq	144(%rsp), %rdi
 3244      90000000 
 3245 1db6 48C78424 		movq	$_ZTVSt9basic_iosIcSt11char_traitsIcEE+16, 144(%rsp)
 3245      90000000 
 3245      00000000 
 3246 1dc2 E8000000 		call	_ZNSt8ios_baseD2Ev
 3246      00
 3247 1dc7 4889DF   		movq	%rbx, %rdi
 3248              	.LEHB48:
 3249 1dca E8000000 		call	_Unwind_Resume
 3249      00
 3250              	.LEHE48:
 3251              	.L377:
 3252 1dcf 4889C3   		movq	%rax, %rbx
 3253 1dd2 EBDA     		jmp	.L342
 3254              	.L409:
 3255 1dd4 B9000000 		movl	$_ZL28__gthrw___pthread_key_createPjPFvPvE, %ecx
 3255      00
 3256 1dd9 488D5710 		leaq	16(%rdi), %rdx
 3257 1ddd 4885C9   		testq	%rcx, %rcx
 3258 1de0 7445     		je	.L359
 3259 1de2 B8FFFFFF 		movl	$-1, %eax
 3259      FF
 3260 1de7 F00FC102 		lock xaddl	%eax, (%rdx)
 3261              	.L360:
 3262 1deb 85C0     		testl	%eax, %eax
 3263 1ded 0F8FF7FE 		jg	.L358
 3263      FFFF
 3264 1df3 488D7424 		leaq	47(%rsp), %rsi
 3264      2F
 3265 1df8 E8000000 		call	_ZNSs4_Rep10_M_destroyERKSaIcE
 3265      00
 3266 1dfd E9E8FEFF 		jmp	.L358
 3266      FF
 3267              	.L376:
 3268 1e02 488D7C24 		leaq	48(%rsp), %rdi
 3268      30
 3269 1e07 4889C3   		movq	%rax, %rbx
 3270 1e0a E8000000 		call	_ZN8UnitTest15MemoryOutStreamD1Ev
 3270      00
 3271 1e0f 4889DF   		movq	%rbx, %rdi
 3272              	.LEHB49:
 3273 1e12 E8000000 		call	_Unwind_Resume
 3273      00
 3274              	.LEHE49:
 3275              	.L354:
 3276 1e17 8B50F8   		movl	-8(%rax), %edx
 3277 1e1a 8D4AFF   		leal	-1(%rdx), %ecx
 3278 1e1d 8948F8   		movl	%ecx, -8(%rax)
 3279 1e20 89D0     		movl	%edx, %eax
 3280 1e22 E95AFFFF 		jmp	.L355
 3280      FF
 3281              	.L359:
 3282 1e27 8B50F8   		movl	-8(%rax), %edx
 3283 1e2a 8D4AFF   		leal	-1(%rdx), %ecx
 3284 1e2d 8948F8   		movl	%ecx, -8(%rax)
 3285 1e30 89D0     		movl	%edx, %eax
 3286 1e32 EBB7     		jmp	.L360
 3287              		.cfi_endproc
 3288              	.LFE1407:
 3289              		.section	.gcc_except_table
 3290              	.LLSDA1407:
 3291 0128 FF       		.byte	0xff
 3292 0129 FF       		.byte	0xff
 3293 012a 01       		.byte	0x1
 3294 012b 22       		.uleb128 .LLSDACSE1407-.LLSDACSB1407
 3295              	.LLSDACSB1407:
 3296 012c E903     		.uleb128 .LEHB44-.LFB1407
 3297 012e 05       		.uleb128 .LEHE44-.LEHB44
 3298 012f DF0A     		.uleb128 .L377-.LFB1407
 3299 0131 00       		.uleb128 0
 3300 0132 FC04     		.uleb128 .LEHB45-.LFB1407
 3301 0134 05       		.uleb128 .LEHE45-.LEHB45
 3302 0135 A80A     		.uleb128 .L378-.LFB1407
 3303 0137 00       		.uleb128 0
 3304 0138 B105     		.uleb128 .LEHB46-.LFB1407
 3305 013a E402     		.uleb128 .LEHE46-.LEHB46
 3306 013c 920B     		.uleb128 .L376-.LFB1407
 3307 013e 00       		.uleb128 0
 3308 013f AA09     		.uleb128 .LEHB47-.LFB1407
 3309 0141 05       		.uleb128 .LEHE47-.LEHB47
 3310 0142 00       		.uleb128 0
 3311 0143 00       		.uleb128 0
 3312 0144 DA0A     		.uleb128 .LEHB48-.LFB1407
 3313 0146 05       		.uleb128 .LEHE48-.LEHB48
 3314 0147 00       		.uleb128 0
 3315 0148 00       		.uleb128 0
 3316 0149 A20B     		.uleb128 .LEHB49-.LFB1407
 3317 014b 05       		.uleb128 .LEHE49-.LEHB49
 3318 014c 00       		.uleb128 0
 3319 014d 00       		.uleb128 0
 3320              	.LLSDACSE1407:
 3321              		.text
 3323              		.section	.text._ZN8UnitTest10CheckEqualIiiEEvRNS_11TestResultsERKT_RKT0_RKNS_11TestDetailsE,"axG",
 3324              		.p2align 4,,15
 3325              		.weak	_ZN8UnitTest10CheckEqualIiiEEvRNS_11TestResultsERKT_RKT0_RKNS_11TestDetailsE
 3327              	_ZN8UnitTest10CheckEqualIiiEEvRNS_11TestResultsERKT_RKT0_RKNS_11TestDetailsE:
 3328              	.LFB1221:
 3329              		.cfi_startproc
 3330              		.cfi_personality 0x3,__gxx_personality_v0
 3331              		.cfi_lsda 0x3,.LLSDA1221
 3332 0000 4156     		pushq	%r14
 3333              		.cfi_def_cfa_offset 16
 3334              		.cfi_offset 14, -16
 3335 0002 4155     		pushq	%r13
 3336              		.cfi_def_cfa_offset 24
 3337              		.cfi_offset 13, -24
 3338 0004 4154     		pushq	%r12
 3339              		.cfi_def_cfa_offset 32
 3340              		.cfi_offset 12, -32
 3341 0006 55       		pushq	%rbp
 3342              		.cfi_def_cfa_offset 40
 3343              		.cfi_offset 6, -40
 3344 0007 4889D5   		movq	%rdx, %rbp
 3345 000a 53       		pushq	%rbx
 3346              		.cfi_def_cfa_offset 48
 3347              		.cfi_offset 3, -48
 3348 000b 4889F3   		movq	%rsi, %rbx
 3349 000e 4881EC80 		subq	$384, %rsp
 3349      010000
 3350              		.cfi_def_cfa_offset 432
 3351 0015 8B02     		movl	(%rdx), %eax
 3352 0017 3906     		cmpl	%eax, (%rsi)
 3353 0019 0F84FF01 		je	.L410
 3353      0000
 3354 001f 4C8D6424 		leaq	112(%rsp), %r12
 3354      70
 3355 0024 4989FD   		movq	%rdi, %r13
 3356 0027 4989CE   		movq	%rcx, %r14
 3357 002a 4C89E7   		movq	%r12, %rdi
 3358 002d E8000000 		call	_ZNSt8ios_baseC2Ev
 3358      00
 3359 0032 31F6     		xorl	%esi, %esi
 3360 0034 4C89E7   		movq	%r12, %rdi
 3361 0037 48C78424 		movq	$0, 328(%rsp)
 3361      48010000 
 3361      00000000 
 3362 0043 C6842450 		movb	$0, 336(%rsp)
 3362      01000000 
 3363 004b C6842451 		movb	$0, 337(%rsp)
 3363      01000000 
 3364 0053 48C78424 		movq	$0, 344(%rsp)
 3364      58010000 
 3364      00000000 
 3365 005f 48C78424 		movq	$0, 352(%rsp)
 3365      60010000 
 3365      00000000 
 3366 006b 48C78424 		movq	$0, 360(%rsp)
 3366      68010000 
 3366      00000000 
 3367 0077 48C78424 		movq	$0, 368(%rsp)
 3367      70010000 
 3367      00000000 
 3368 0083 48C74424 		movq	$_ZTCN8UnitTest15MemoryOutStreamE0_So+24, 16(%rsp)
 3368      10000000 
 3368      00
 3369 008c 48C74424 		movq	$_ZTCN8UnitTest15MemoryOutStreamE0_So+64, 112(%rsp)
 3369      70000000 
 3369      00
 3370              	.LEHB50:
 3371 0095 E8000000 		call	_ZNSt9basic_iosIcSt11char_traitsIcEE4initEPSt15basic_streambufIcS1_E
 3371      00
 3372              	.LEHE50:
 3373 009a 488D7C24 		leaq	80(%rsp), %rdi
 3373      50
 3374 009f 48C74424 		movq	$_ZTCN8UnitTest15MemoryOutStreamE0_St19basic_ostringstreamIcSt11char_traitsIcESaIcEE+24, 16(%
 3374      10000000 
 3374      00
 3375 00a8 48C74424 		movq	$_ZTCN8UnitTest15MemoryOutStreamE0_St19basic_ostringstreamIcSt11char_traitsIcESaIcEE+64, 112(
 3375      70000000 
 3375      00
 3376 00b1 48C74424 		movq	$_ZTVSt15basic_streambufIcSt11char_traitsIcEE+16, 24(%rsp)
 3376      18000000 
 3376      00
 3377 00ba 48C74424 		movq	$0, 32(%rsp)
 3377      20000000 
 3377      00
 3378 00c3 48C74424 		movq	$0, 40(%rsp)
 3378      28000000 
 3378      00
 3379 00cc 48C74424 		movq	$0, 48(%rsp)
 3379      30000000 
 3379      00
 3380 00d5 48C74424 		movq	$0, 56(%rsp)
 3380      38000000 
 3380      00
 3381 00de 48C74424 		movq	$0, 64(%rsp)
 3381      40000000 
 3381      00
 3382 00e7 48C74424 		movq	$0, 72(%rsp)
 3382      48000000 
 3382      00
 3383 00f0 E8000000 		call	_ZNSt6localeC1Ev
 3383      00
 3384 00f5 488B4424 		movq	16(%rsp), %rax
 3384      10
 3385 00fa 488D7C24 		leaq	16(%rsp), %rdi
 3385      10
 3386 00ff 488D7424 		leaq	24(%rsp), %rsi
 3386      18
 3387 0104 48C74424 		movq	$_ZTVSt15basic_stringbufIcSt11char_traitsIcESaIcEE+16, 24(%rsp)
 3387      18000000 
 3387      00
 3388 010d C7442458 		movl	$16, 88(%rsp)
 3388      10000000 
 3389 0115 48C74424 		movq	$_ZNSs4_Rep20_S_empty_rep_storageE+24, 96(%rsp)
 3389      60000000 
 3389      00
 3390 011e 480378E8 		addq	-24(%rax), %rdi
 3391              	.LEHB51:
 3392 0122 E8000000 		call	_ZNSt9basic_iosIcSt11char_traitsIcEE4initEPSt15basic_streambufIcS1_E
 3392      00
 3393              	.LEHE51:
 3394 0127 488D7C24 		leaq	16(%rsp), %rdi
 3394      10
 3395 012c BA090000 		movl	$9, %edx
 3395      00
 3396 0131 BE000000 		movl	$.LC2, %esi
 3396      00
 3397 0136 48C74424 		movq	$_ZTVN8UnitTest15MemoryOutStreamE+24, 16(%rsp)
 3397      10000000 
 3397      00
 3398 013f 48C74424 		movq	$_ZTVN8UnitTest15MemoryOutStreamE+64, 112(%rsp)
 3398      70000000 
 3398      00
 3399 0148 48C74424 		movq	$_ZNSs4_Rep20_S_empty_rep_storageE+24, 104(%rsp)
 3399      68000000 
 3399      00
 3400 0151 8B6D00   		movl	0(%rbp), %ebp
 3401 0154 8B1B     		movl	(%rbx), %ebx
 3402              	.LEHB52:
 3403 0156 E8000000 		call	_ZSt16__ostream_insertIcSt11char_traitsIcEERSt13basic_ostreamIT_T0_ES6_PKS3_l
 3403      00
 3404 015b 488D7C24 		leaq	16(%rsp), %rdi
 3404      10
 3405 0160 89DE     		movl	%ebx, %esi
 3406 0162 E8000000 		call	_ZNSolsEi
 3406      00
 3407 0167 BA090000 		movl	$9, %edx
 3407      00
 3408 016c BE000000 		movl	$.LC6, %esi
 3408      00
 3409 0171 4889C7   		movq	%rax, %rdi
 3410 0174 4889C3   		movq	%rax, %rbx
 3411 0177 E8000000 		call	_ZSt16__ostream_insertIcSt11char_traitsIcEERSt13basic_ostreamIT_T0_ES6_PKS3_l
 3411      00
 3412 017c 89EE     		movl	%ebp, %esi
 3413 017e 4889DF   		movq	%rbx, %rdi
 3414 0181 E8000000 		call	_ZNSolsEi
 3414      00
 3415 0186 488D7C24 		leaq	16(%rsp), %rdi
 3415      10
 3416 018b E8000000 		call	_ZNK8UnitTest15MemoryOutStream7GetTextEv
 3416      00
 3417 0190 4889C2   		movq	%rax, %rdx
 3418 0193 4C89F6   		movq	%r14, %rsi
 3419 0196 4C89EF   		movq	%r13, %rdi
 3420 0199 E8000000 		call	_ZN8UnitTest11TestResults13OnTestFailureERKNS_11TestDetailsEPKc
 3420      00
 3421              	.LEHE52:
 3422 019e 488B4424 		movq	104(%rsp), %rax
 3422      68
 3423 01a3 48C74424 		movq	$_ZTVN8UnitTest15MemoryOutStreamE+24, 16(%rsp)
 3423      10000000 
 3423      00
 3424 01ac 48C74424 		movq	$_ZTVN8UnitTest15MemoryOutStreamE+64, 112(%rsp)
 3424      70000000 
 3424      00
 3425 01b5 488D78E8 		leaq	-24(%rax), %rdi
 3426 01b9 4881FF00 		cmpq	$_ZNSs4_Rep20_S_empty_rep_storageE, %rdi
 3426      000000
 3427 01c0 756C     		jne	.L433
 3428              	.L417:
 3429 01c2 488B4424 		movq	96(%rsp), %rax
 3429      60
 3430 01c7 48C74424 		movq	$_ZTCN8UnitTest15MemoryOutStreamE0_St19basic_ostringstreamIcSt11char_traitsIcESaIcEE+24, 16(%
 3430      10000000 
 3430      00
 3431 01d0 48C74424 		movq	$_ZTCN8UnitTest15MemoryOutStreamE0_St19basic_ostringstreamIcSt11char_traitsIcESaIcEE+64, 112(
 3431      70000000 
 3431      00
 3432 01d9 48C74424 		movq	$_ZTVSt15basic_stringbufIcSt11char_traitsIcESaIcEE+16, 24(%rsp)
 3432      18000000 
 3432      00
 3433 01e2 488D78E8 		leaq	-24(%rax), %rdi
 3434 01e6 4881FF00 		cmpq	$_ZNSs4_Rep20_S_empty_rep_storageE, %rdi
 3434      000000
 3435 01ed 756B     		jne	.L434
 3436              	.L422:
 3437 01ef 488D7C24 		leaq	80(%rsp), %rdi
 3437      50
 3438 01f4 48C74424 		movq	$_ZTVSt15basic_streambufIcSt11char_traitsIcEE+16, 24(%rsp)
 3438      18000000 
 3438      00
 3439 01fd E8000000 		call	_ZNSt6localeD1Ev
 3439      00
 3440 0202 488D7C24 		leaq	112(%rsp), %rdi
 3440      70
 3441 0207 48C74424 		movq	$_ZTCN8UnitTest15MemoryOutStreamE0_So+24, 16(%rsp)
 3441      10000000 
 3441      00
 3442 0210 48C74424 		movq	$_ZTVSt9basic_iosIcSt11char_traitsIcEE+16, 112(%rsp)
 3442      70000000 
 3442      00
 3443              	.LEHB53:
 3444 0219 E8000000 		call	_ZNSt8ios_baseD2Ev
 3444      00
 3445              	.LEHE53:
 3446              	.L410:
 3447 021e 4881C480 		addq	$384, %rsp
 3447      010000
 3448              		.cfi_remember_state
 3449              		.cfi_def_cfa_offset 48
 3450 0225 5B       		popq	%rbx
 3451              		.cfi_def_cfa_offset 40
 3452 0226 5D       		popq	%rbp
 3453              		.cfi_def_cfa_offset 32
 3454 0227 415C     		popq	%r12
 3455              		.cfi_def_cfa_offset 24
 3456 0229 415D     		popq	%r13
 3457              		.cfi_def_cfa_offset 16
 3458 022b 415E     		popq	%r14
 3459              		.cfi_def_cfa_offset 8
 3460 022d C3       		ret
 3461              	.L433:
 3462              		.cfi_restore_state
 3463 022e B9000000 		movl	$_ZL28__gthrw___pthread_key_createPjPFvPvE, %ecx
 3463      00
 3464 0233 488D5710 		leaq	16(%rdi), %rdx
 3465 0237 4885C9   		testq	%rcx, %rcx
 3466 023a 747D     		je	.L418
 3467 023c 83C8FF   		orl	$-1, %eax
 3468 023f F00FC102 		lock xaddl	%eax, (%rdx)
 3469              	.L419:
 3470 0243 85C0     		testl	%eax, %eax
 3471 0245 0F8F77FF 		jg	.L417
 3471      FFFF
 3472 024b 488D7424 		leaq	15(%rsp), %rsi
 3472      0F
 3473 0250 E8000000 		call	_ZNSs4_Rep10_M_destroyERKSaIcE
 3473      00
 3474 0255 E968FFFF 		jmp	.L417
 3474      FF
 3475              	.L434:
 3476 025a B9000000 		movl	$_ZL28__gthrw___pthread_key_createPjPFvPvE, %ecx
 3476      00
 3477 025f 488D5710 		leaq	16(%rdi), %rdx
 3478 0263 4885C9   		testq	%rcx, %rcx
 3479 0266 7479     		je	.L423
 3480 0268 83C8FF   		orl	$-1, %eax
 3481 026b F00FC102 		lock xaddl	%eax, (%rdx)
 3482              	.L424:
 3483 026f 85C0     		testl	%eax, %eax
 3484 0271 0F8F78FF 		jg	.L422
 3484      FFFF
 3485 0277 488D7424 		leaq	15(%rsp), %rsi
 3485      0F
 3486 027c E8000000 		call	_ZNSs4_Rep10_M_destroyERKSaIcE
 3486      00
 3487 0281 E969FFFF 		jmp	.L422
 3487      FF
 3488              	.L427:
 3489 0286 488D7C24 		leaq	16(%rsp), %rdi
 3489      10
 3490 028b 4889C3   		movq	%rax, %rbx
 3491 028e E8000000 		call	_ZN8UnitTest15MemoryOutStreamD1Ev
 3491      00
 3492 0293 4889DF   		movq	%rbx, %rdi
 3493              	.LEHB54:
 3494 0296 E8000000 		call	_Unwind_Resume
 3494      00
 3495              	.LEHE54:
 3496              	.L428:
 3497 029b 4889C3   		movq	%rax, %rbx
 3498              	.L414:
 3499 029e 488D7C24 		leaq	112(%rsp), %rdi
 3499      70
 3500 02a3 48C74424 		movq	$_ZTVSt9basic_iosIcSt11char_traitsIcEE+16, 112(%rsp)
 3500      70000000 
 3500      00
 3501 02ac E8000000 		call	_ZNSt8ios_baseD2Ev
 3501      00
 3502 02b1 4889DF   		movq	%rbx, %rdi
 3503              	.LEHB55:
 3504 02b4 E8000000 		call	_Unwind_Resume
 3504      00
 3505              	.LEHE55:
 3506              	.L418:
 3507 02b9 8B50F8   		movl	-8(%rax), %edx
 3508 02bc 8D4AFF   		leal	-1(%rdx), %ecx
 3509 02bf 8948F8   		movl	%ecx, -8(%rax)
 3510 02c2 89D0     		movl	%edx, %eax
 3511 02c4 E97AFFFF 		jmp	.L419
 3511      FF
 3512              	.L429:
 3513 02c9 488D7C24 		leaq	24(%rsp), %rdi
 3513      18
 3514 02ce 4889C3   		movq	%rax, %rbx
 3515 02d1 E8000000 		call	_ZNSt15basic_stringbufIcSt11char_traitsIcESaIcEED1Ev
 3515      00
 3516 02d6 48C74424 		movq	$_ZTCN8UnitTest15MemoryOutStreamE0_So+24, 16(%rsp)
 3516      10000000 
 3516      00
 3517 02df EBBD     		jmp	.L414
 3518              	.L423:
 3519 02e1 8B50F8   		movl	-8(%rax), %edx
 3520 02e4 8D4AFF   		leal	-1(%rdx), %ecx
 3521 02e7 8948F8   		movl	%ecx, -8(%rax)
 3522 02ea 89D0     		movl	%edx, %eax
 3523 02ec EB81     		jmp	.L424
 3524              		.cfi_endproc
 3525              	.LFE1221:
 3526              		.section	.gcc_except_table
 3527              	.LLSDA1221:
 3528 014e FF       		.byte	0xff
 3529 014f FF       		.byte	0xff
 3530 0150 01       		.byte	0x1
 3531 0151 21       		.uleb128 .LLSDACSE1221-.LLSDACSB1221
 3532              	.LLSDACSB1221:
 3533 0152 9501     		.uleb128 .LEHB50-.LFB1221
 3534 0154 05       		.uleb128 .LEHE50-.LEHB50
 3535 0155 9B05     		.uleb128 .L428-.LFB1221
 3536 0157 00       		.uleb128 0
 3537 0158 A202     		.uleb128 .LEHB51-.LFB1221
 3538 015a 05       		.uleb128 .LEHE51-.LEHB51
 3539 015b C905     		.uleb128 .L429-.LFB1221
 3540 015d 00       		.uleb128 0
 3541 015e D602     		.uleb128 .LEHB52-.LFB1221
 3542 0160 48       		.uleb128 .LEHE52-.LEHB52
 3543 0161 8605     		.uleb128 .L427-.LFB1221
 3544 0163 00       		.uleb128 0
 3545 0164 9904     		.uleb128 .LEHB53-.LFB1221
 3546 0166 05       		.uleb128 .LEHE53-.LEHB53
 3547 0167 00       		.uleb128 0
 3548 0168 00       		.uleb128 0
 3549 0169 9605     		.uleb128 .LEHB54-.LFB1221
 3550 016b 05       		.uleb128 .LEHE54-.LEHB54
 3551 016c 00       		.uleb128 0
 3552 016d 00       		.uleb128 0
 3553 016e B405     		.uleb128 .LEHB55-.LFB1221
 3554 0170 05       		.uleb128 .LEHE55-.LEHB55
 3555 0171 00       		.uleb128 0
 3556 0172 00       		.uleb128 0
 3557              	.LLSDACSE1221:
 3558              		.section	.text._ZN8UnitTest10CheckEqualIiiEEvRNS_11TestResultsERKT_RKT0_RKNS_11TestDetailsE,"axG",
 3560              		.section	.rodata.str1.1
 3561              	.LC27:
 3562 006a 66696C65 		.string	"file"
 3562      00
 3563              	.LC28:
 3564 006f 61727261 		.string	"array2DCloseSuite"
 3564      79324443 
 3564      6C6F7365 
 3564      53756974 
 3564      6500
 3565              	.LC29:
 3566 0081 61727261 		.string	"array2DCloseTest"
 3566      79324443 
 3566      6C6F7365 
 3566      54657374 
 3566      00
 3567              		.section	.rodata.str1.8
 3568 01f1 00000000 		.align 8
 3568      000000
 3569              	.LC45:
 3570 01f8 556E6861 		.string	"Unhandled exception in CHECK_EQUAL(\"array2DCloseTest\", reporter.lastFailedTest)"
 3570      6E646C65 
 3570      64206578 
 3570      63657074 
 3570      696F6E20 
 3571              		.align 8
 3572              	.LC46:
 3573 0248 556E6861 		.string	"Unhandled exception in CHECK_EQUAL(\"array2DCloseSuite\", reporter.lastFailedSuite)"
 3573      6E646C65 
 3573      64206578 
 3573      63657074 
 3573      696F6E20 
 3574 029a 00000000 		.align 8
 3574      0000
 3575              	.LC47:
 3576 02a0 556E6861 		.string	"Unhandled exception in CHECK_EQUAL(\"file\", reporter.lastFailedFile)"
 3576      6E646C65 
 3576      64206578 
 3576      63657074 
 3576      696F6E20 
 3577 02e4 00000000 		.align 8
 3578              	.LC48:
 3579 02e8 556E6861 		.string	"Unhandled exception in CHECK_EQUAL(1234, reporter.lastFailedLine)"
 3579      6E646C65 
 3579      64206578 
 3579      63657074 
 3579      696F6E20 
 3580              		.text
 3581              		.align 2
 3582 1e34 6666662E 		.p2align 4,,15
 3582      0F1F8400 
 3582      00000000 
 3584              	_ZNK12_GLOBAL__N_143TestCheckArray2DCloseFailureIncludesDetails7RunImplEv:
 3585              	.LFB1188:
 3586              		.cfi_startproc
 3587              		.cfi_personality 0x3,__gxx_personality_v0
 3588              		.cfi_lsda 0x3,.LLSDA1188
 3589 1e40 53       		pushq	%rbx
 3590              		.cfi_def_cfa_offset 16
 3591              		.cfi_offset 3, -16
 3592 1e41 4881EC10 		subq	$2320, %rsp
 3592      090000
 3593              		.cfi_def_cfa_offset 2336
 3594 1e48 488DB424 		leaq	208(%rsp), %rsi
 3594      D0000000 
 3595 1e50 488D7C24 		leaq	16(%rsp), %rdi
 3595      10
 3596 1e55 48C78424 		movq	$_ZTV17RecordingReporter+16, 208(%rsp)
 3596      D0000000 
 3596      00000000 
 3597 1e61 64488B04 		movq	%fs:40, %rax
 3597      25280000 
 3597      00
 3598 1e6a 48898424 		movq	%rax, 2312(%rsp)
 3598      08090000 
 3599 1e72 31C0     		xorl	%eax, %eax
 3600 1e74 C78424D8 		movl	$0, 216(%rsp)
 3600      00000000 
 3600      000000
 3601 1e7f C78424DC 		movl	$0, 732(%rsp)
 3601      02000000 
 3601      000000
 3602 1e8a C78424E0 		movl	$0, 992(%rsp)
 3602      03000000 
 3602      000000
 3603 1e95 C78424E4 		movl	$0, 1764(%rsp)
 3603      06000000 
 3603      000000
 3604 1ea0 C78424E8 		movl	$0x00000000, 2280(%rsp)
 3604      08000000 
 3604      000000
 3605 1eab C78424EC 		movl	$0, 2284(%rsp)
 3605      08000000 
 3605      000000
 3606 1eb6 C78424F0 		movl	$0, 2288(%rsp)
 3606      08000000 
 3606      000000
 3607 1ec1 C78424F4 		movl	$0, 2292(%rsp)
 3607      08000000 
 3607      000000
 3608 1ecc C78424F8 		movl	$0x00000000, 2296(%rsp)
 3608      08000000 
 3608      000000
 3609 1ed7 C68424DC 		movb	$0, 220(%rsp)
 3609      00000000 
 3610 1edf C68424DC 		movb	$0, 476(%rsp)
 3610      01000000 
 3611 1ee7 C68424E0 		movb	$0, 736(%rsp)
 3611      02000000 
 3612 1eef C68424E4 		movb	$0, 996(%rsp)
 3612      03000000 
 3613 1ef7 C68424E4 		movb	$0, 1252(%rsp)
 3613      04000000 
 3614 1eff C68424E4 		movb	$0, 1508(%rsp)
 3614      05000000 
 3615 1f07 C68424E8 		movb	$0, 1768(%rsp)
 3615      06000000 
 3616 1f0f C68424E8 		movb	$0, 2024(%rsp)
 3616      07000000 
 3617              	.LEHB56:
 3618 1f17 E8000000 		call	_ZN8UnitTest11TestResultsC1EPNS_12TestReporterE
 3618      00
 3619 1f1c 488D7C24 		leaq	48(%rsp), %rdi
 3619      30
 3620 1f21 41B8D204 		movl	$1234, %r8d
 3620      0000
 3621 1f27 B9000000 		movl	$.LC27, %ecx
 3621      00
 3622 1f2c BA000000 		movl	$.LC28, %edx
 3622      00
 3623 1f31 BE000000 		movl	$.LC29, %esi
 3623      00
 3624 1f36 E8000000 		call	_ZN8UnitTest11TestDetailsC1EPKcS2_S2_i
 3624      00
 3625 1f3b 4C8D4424 		leaq	48(%rsp), %r8
 3625      30
 3626 1f40 488D4C24 		leaq	80(%rsp), %rcx
 3626      50
 3627 1f45 488D9424 		leaq	160(%rsp), %rdx
 3627      A0000000 
 3628 1f4d 488D7424 		leaq	112(%rsp), %rsi
 3628      70
 3629 1f52 488D7C24 		leaq	16(%rsp), %rdi
 3629      10
 3630 1f57 C7442470 		movl	$0x3f800000, 112(%rsp)
 3630      0000803F 
 3631 1f5f C7442474 		movl	$0x3fc00000, 116(%rsp)
 3631      0000C03F 
 3632 1f67 C7442478 		movl	$0x40000000, 120(%rsp)
 3632      00000040 
 3633 1f6f C744247C 		movl	$0x40000000, 124(%rsp)
 3633      00000040 
 3634 1f77 C7842480 		movl	$0x40200000, 128(%rsp)
 3634      00000000 
 3634      002040
 3635 1f82 C7842484 		movl	$0x40400000, 132(%rsp)
 3635      00000000 
 3635      004040
 3636 1f8d C7842488 		movl	$0x40400000, 136(%rsp)
 3636      00000000 
 3636      004040
 3637 1f98 C784248C 		movl	$0x40600000, 140(%rsp)
 3637      00000000 
 3637      006040
 3638 1fa3 C7842490 		movl	$0x40800000, 144(%rsp)
 3638      00000000 
 3638      008040
 3639 1fae C78424A0 		movl	$0x3f8147ae, 160(%rsp)
 3639      000000AE 
 3639      47813F
 3640 1fb9 C78424A4 		movl	$0x3fc147ae, 164(%rsp)
 3640      000000AE 
 3640      47C13F
 3641 1fc4 C78424A8 		movl	$0x4000a3d7, 168(%rsp)
 3641      000000D7 
 3641      A30040
 3642 1fcf C78424AC 		movl	$0x4000a3d7, 172(%rsp)
 3642      000000D7 
 3642      A30040
 3643 1fda C78424B0 		movl	$0x4020a3d7, 176(%rsp)
 3643      000000D7 
 3643      A32040
 3644 1fe5 C78424B4 		movl	$0x4040a3d7, 180(%rsp)
 3644      000000D7 
 3644      A34040
 3645 1ff0 C78424B8 		movl	$0x4040a3d7, 184(%rsp)
 3645      000000D7 
 3645      A34040
 3646 1ffb C78424BC 		movl	$0x4060a3d7, 188(%rsp)
 3646      000000D7 
 3646      A36040
 3647 2006 C78424C0 		movl	$0x408051ec, 192(%rsp)
 3647      000000EC 
 3647      518040
 3648 2011 C7442450 		movl	$0x3a83126f, 80(%rsp)
 3648      6F12833A 
 3649 2019 E852F8FF 		call	_ZN8UnitTest17CheckArray2DCloseIA3_A3_fS2_fEEvRNS_11TestResultsERKT_RKT0_iiRKT1_RKNS_11TestDe
 3649      FF
 3650              	.LEHE56:
 3651              	.LEHB57:
 3652 201e E8000000 		call	_ZN8UnitTest11CurrentTest7DetailsEv
 3652      00
 3653 2023 488B30   		movq	(%rax), %rsi
 3654 2026 488D7C24 		leaq	80(%rsp), %rdi
 3654      50
 3655 202b BA1F0100 		movl	$287, %edx
 3655      00
 3656 2030 E8000000 		call	_ZN8UnitTest11TestDetailsC1ERKS0_i
 3656      00
 3657 2035 E8000000 		call	_ZN8UnitTest11CurrentTest7ResultsEv
 3657      00
 3658 203a 488D9C24 		leaq	208(%rsp), %rbx
 3658      D0000000 
 3659 2042 488B38   		movq	(%rax), %rdi
 3660 2045 488D4C24 		leaq	80(%rsp), %rcx
 3660      50
 3661 204a BE000000 		movl	$.LC29, %esi
 3661      00
 3662 204f 488D9314 		leaq	1044(%rbx), %rdx
 3662      040000
 3663 2056 E8000000 		call	_ZN8UnitTest10CheckEqualERNS_11TestResultsEPKcPcRKNS_11TestDetailsE
 3663      00
 3664              	.LEHE57:
 3665              	.L439:
 3666              	.LEHB58:
 3667 205b E8000000 		call	_ZN8UnitTest11CurrentTest7DetailsEv
 3667      00
 3668 2060 488B30   		movq	(%rax), %rsi
 3669 2063 488D7C24 		leaq	80(%rsp), %rdi
 3669      50
 3670 2068 BA200100 		movl	$288, %edx
 3670      00
 3671 206d E8000000 		call	_ZN8UnitTest11TestDetailsC1ERKS0_i
 3671      00
 3672 2072 E8000000 		call	_ZN8UnitTest11CurrentTest7ResultsEv
 3672      00
 3673 2077 488D9C24 		leaq	208(%rsp), %rbx
 3673      D0000000 
 3674 207f 488B38   		movq	(%rax), %rdi
 3675 2082 488D4C24 		leaq	80(%rsp), %rcx
 3675      50
 3676 2087 BE000000 		movl	$.LC28, %esi
 3676      00
 3677 208c 488D9314 		leaq	788(%rbx), %rdx
 3677      030000
 3678 2093 E8000000 		call	_ZN8UnitTest10CheckEqualERNS_11TestResultsEPKcPcRKNS_11TestDetailsE
 3678      00
 3679              	.LEHE58:
 3680              	.L442:
 3681              	.LEHB59:
 3682 2098 E8000000 		call	_ZN8UnitTest11CurrentTest7DetailsEv
 3682      00
 3683 209d 488B30   		movq	(%rax), %rsi
 3684 20a0 488D7C24 		leaq	80(%rsp), %rdi
 3684      50
 3685 20a5 BA210100 		movl	$289, %edx
 3685      00
 3686 20aa E8000000 		call	_ZN8UnitTest11TestDetailsC1ERKS0_i
 3686      00
 3687 20af E8000000 		call	_ZN8UnitTest11CurrentTest7ResultsEv
 3687      00
 3688 20b4 488D9C24 		leaq	208(%rsp), %rbx
 3688      D0000000 
 3689 20bc 488B38   		movq	(%rax), %rdi
 3690 20bf 488D4C24 		leaq	80(%rsp), %rcx
 3690      50
 3691 20c4 BE000000 		movl	$.LC27, %esi
 3691      00
 3692 20c9 488D9310 		leaq	528(%rbx), %rdx
 3692      020000
 3693 20d0 E8000000 		call	_ZN8UnitTest10CheckEqualERNS_11TestResultsEPKcPcRKNS_11TestDetailsE
 3693      00
 3694              	.LEHE59:
 3695              	.L445:
 3696              	.LEHB60:
 3697 20d5 E8000000 		call	_ZN8UnitTest11CurrentTest7DetailsEv
 3697      00
 3698 20da 488B30   		movq	(%rax), %rsi
 3699 20dd 488D7C24 		leaq	80(%rsp), %rdi
 3699      50
 3700 20e2 BA220100 		movl	$290, %edx
 3700      00
 3701 20e7 E8000000 		call	_ZN8UnitTest11TestDetailsC1ERKS0_i
 3701      00
 3702 20ec C70424D2 		movl	$1234, (%rsp)
 3702      040000
 3703 20f3 E8000000 		call	_ZN8UnitTest11CurrentTest7ResultsEv
 3703      00
 3704 20f8 488D9C24 		leaq	208(%rsp), %rbx
 3704      D0000000 
 3705 2100 488B38   		movq	(%rax), %rdi
 3706 2103 488D4C24 		leaq	80(%rsp), %rcx
 3706      50
 3707 2108 4889E6   		movq	%rsp, %rsi
 3708 210b 488D9310 		leaq	784(%rbx), %rdx
 3708      030000
 3709 2112 E8000000 		call	_ZN8UnitTest10CheckEqualIiiEEvRNS_11TestResultsERKT_RKT0_RKNS_11TestDetailsE
 3709      00
 3710              	.LEHE60:
 3711              	.L448:
 3712 2117 488DBC24 		leaq	208(%rsp), %rdi
 3712      D0000000 
 3713 211f 48C78424 		movq	$_ZTV17RecordingReporter+16, 208(%rsp)
 3713      D0000000 
 3713      00000000 
 3714              	.LEHB61:
 3715 212b E8000000 		call	_ZN8UnitTest12TestReporterD2Ev
 3715      00
 3716              	.LEHE61:
 3717 2130 488B8424 		movq	2312(%rsp), %rax
 3717      08090000 
 3718 2138 64483304 		xorq	%fs:40, %rax
 3718      25280000 
 3718      00
 3719 2141 7509     		jne	.L461
 3720 2143 4881C410 		addq	$2320, %rsp
 3720      090000
 3721              		.cfi_remember_state
 3722              		.cfi_def_cfa_offset 16
 3723 214a 5B       		popq	%rbx
 3724              		.cfi_def_cfa_offset 8
 3725 214b C3       		ret
 3726              	.L461:
 3727              		.cfi_restore_state
 3728 214c E8000000 		call	__stack_chk_fail
 3728      00
 3729              	.L457:
 3730 2151 4889C7   		movq	%rax, %rdi
 3731 2154 E8000000 		call	__cxa_begin_catch
 3731      00
 3732              	.LEHB62:
 3733 2159 E8000000 		call	_ZN8UnitTest11CurrentTest7DetailsEv
 3733      00
 3734 215e 488B30   		movq	(%rax), %rsi
 3735 2161 488D7C24 		leaq	80(%rsp), %rdi
 3735      50
 3736 2166 BA220100 		movl	$290, %edx
 3736      00
 3737 216b E8000000 		call	_ZN8UnitTest11TestDetailsC1ERKS0_i
 3737      00
 3738 2170 E8000000 		call	_ZN8UnitTest11CurrentTest7ResultsEv
 3738      00
 3739 2175 488B38   		movq	(%rax), %rdi
 3740 2178 488D7424 		leaq	80(%rsp), %rsi
 3740      50
 3741 217d BA000000 		movl	$.LC48, %edx
 3741      00
 3742 2182 E8000000 		call	_ZN8UnitTest11TestResults13OnTestFailureERKNS_11TestDetailsEPKc
 3742      00
 3743              	.LEHE62:
 3744              	.LEHB63:
 3745 2187 E8000000 		call	__cxa_end_catch
 3745      00
 3746              	.LEHE63:
 3747 218c EB89     		jmp	.L448
 3748              	.L455:
 3749 218e 4889C7   		movq	%rax, %rdi
 3750              		.p2align 4,,5
 3751 2191 E8000000 		call	__cxa_begin_catch
 3751      00
 3752              		.p2align 4,,5
 3753              	.LEHB64:
 3754 2196 E8000000 		call	_ZN8UnitTest11CurrentTest7DetailsEv
 3754      00
 3755 219b 488B30   		movq	(%rax), %rsi
 3756 219e 488D7C24 		leaq	80(%rsp), %rdi
 3756      50
 3757 21a3 BA210100 		movl	$289, %edx
 3757      00
 3758 21a8 E8000000 		call	_ZN8UnitTest11TestDetailsC1ERKS0_i
 3758      00
 3759 21ad E8000000 		call	_ZN8UnitTest11CurrentTest7ResultsEv
 3759      00
 3760 21b2 488B38   		movq	(%rax), %rdi
 3761 21b5 488D7424 		leaq	80(%rsp), %rsi
 3761      50
 3762 21ba BA000000 		movl	$.LC47, %edx
 3762      00
 3763 21bf E8000000 		call	_ZN8UnitTest11TestResults13OnTestFailureERKNS_11TestDetailsEPKc
 3763      00
 3764              	.LEHE64:
 3765              	.LEHB65:
 3766 21c4 E8000000 		call	__cxa_end_catch
 3766      00
 3767              	.LEHE65:
 3768 21c9 E907FFFF 		jmp	.L445
 3768      FF
 3769              	.L451:
 3770 21ce 4889C7   		movq	%rax, %rdi
 3771              		.p2align 4,,5
 3772 21d1 E8000000 		call	__cxa_begin_catch
 3772      00
 3773              		.p2align 4,,5
 3774              	.LEHB66:
 3775 21d6 E8000000 		call	_ZN8UnitTest11CurrentTest7DetailsEv
 3775      00
 3776 21db 488B30   		movq	(%rax), %rsi
 3777 21de 488D7C24 		leaq	80(%rsp), %rdi
 3777      50
 3778 21e3 BA1F0100 		movl	$287, %edx
 3778      00
 3779 21e8 E8000000 		call	_ZN8UnitTest11TestDetailsC1ERKS0_i
 3779      00
 3780 21ed E8000000 		call	_ZN8UnitTest11CurrentTest7ResultsEv
 3780      00
 3781 21f2 488B38   		movq	(%rax), %rdi
 3782 21f5 488D7424 		leaq	80(%rsp), %rsi
 3782      50
 3783 21fa BA000000 		movl	$.LC45, %edx
 3783      00
 3784 21ff E8000000 		call	_ZN8UnitTest11TestResults13OnTestFailureERKNS_11TestDetailsEPKc
 3784      00
 3785              	.LEHE66:
 3786              	.LEHB67:
 3787 2204 E8000000 		call	__cxa_end_catch
 3787      00
 3788              	.LEHE67:
 3789 2209 E94DFEFF 		jmp	.L439
 3789      FF
 3790              	.L453:
 3791 220e 4889C7   		movq	%rax, %rdi
 3792              		.p2align 4,,5
 3793 2211 E8000000 		call	__cxa_begin_catch
 3793      00
 3794              		.p2align 4,,5
 3795              	.LEHB68:
 3796 2216 E8000000 		call	_ZN8UnitTest11CurrentTest7DetailsEv
 3796      00
 3797 221b 488B30   		movq	(%rax), %rsi
 3798 221e 488D7C24 		leaq	80(%rsp), %rdi
 3798      50
 3799 2223 BA200100 		movl	$288, %edx
 3799      00
 3800 2228 E8000000 		call	_ZN8UnitTest11TestDetailsC1ERKS0_i
 3800      00
 3801 222d E8000000 		call	_ZN8UnitTest11CurrentTest7ResultsEv
 3801      00
 3802 2232 488B38   		movq	(%rax), %rdi
 3803 2235 488D7424 		leaq	80(%rsp), %rsi
 3803      50
 3804 223a BA000000 		movl	$.LC46, %edx
 3804      00
 3805 223f E8000000 		call	_ZN8UnitTest11TestResults13OnTestFailureERKNS_11TestDetailsEPKc
 3805      00
 3806              	.LEHE68:
 3807              	.LEHB69:
 3808 2244 E8000000 		call	__cxa_end_catch
 3808      00
 3809              	.LEHE69:
 3810 2249 E94AFEFF 		jmp	.L442
 3810      FF
 3811              	.L450:
 3812 224e 4889C3   		movq	%rax, %rbx
 3813              	.L437:
 3814 2251 488DBC24 		leaq	208(%rsp), %rdi
 3814      D0000000 
 3815 2259 48C78424 		movq	$_ZTV17RecordingReporter+16, 208(%rsp)
 3815      D0000000 
 3815      00000000 
 3816 2265 E8000000 		call	_ZN8UnitTest12TestReporterD2Ev
 3816      00
 3817 226a 4889DF   		movq	%rbx, %rdi
 3818              	.LEHB70:
 3819 226d E8000000 		call	_Unwind_Resume
 3819      00
 3820              	.LEHE70:
 3821              	.L458:
 3822 2272 4889C3   		movq	%rax, %rbx
 3823 2275 E8000000 		call	__cxa_end_catch
 3823      00
 3824 227a EBD5     		jmp	.L437
 3825              	.L452:
 3826 227c 4889C3   		movq	%rax, %rbx
 3827 227f E8000000 		call	__cxa_end_catch
 3827      00
 3828              		.p2align 4,,5
 3829 2284 EBCB     		jmp	.L437
 3830              	.L456:
 3831 2286 4889C3   		movq	%rax, %rbx
 3832 2289 E8000000 		call	__cxa_end_catch
 3832      00
 3833 228e 6690     		.p2align 4,,5
 3834 2290 EBBF     		jmp	.L437
 3835              	.L454:
 3836 2292 4889C3   		movq	%rax, %rbx
 3837 2295 E8000000 		call	__cxa_end_catch
 3837      00
 3838              		.p2align 4,,5
 3839 229a EBB5     		jmp	.L437
 3840              		.cfi_endproc
 3841              	.LFE1188:
 3842              		.section	.gcc_except_table
 3843 0173 00       		.align 4
 3844              	.LLSDA1188:
 3845 0174 FF       		.byte	0xff
 3846 0175 03       		.byte	0x3
 3847 0176 61       		.uleb128 .LLSDATT1188-.LLSDATTD1188
 3848              	.LLSDATTD1188:
 3849 0177 01       		.byte	0x1
 3850 0178 59       		.uleb128 .LLSDACSE1188-.LLSDACSB1188
 3851              	.LLSDACSB1188:
 3852 0179 D701     		.uleb128 .LEHB56-.LFB1188
 3853 017b 8702     		.uleb128 .LEHE56-.LEHB56
 3854 017d 8E08     		.uleb128 .L450-.LFB1188
 3855 017f 00       		.uleb128 0
 3856 0180 DE03     		.uleb128 .LEHB57-.LFB1188
 3857 0182 3D       		.uleb128 .LEHE57-.LEHB57
 3858 0183 8E07     		.uleb128 .L451-.LFB1188
 3859 0185 01       		.uleb128 0x1
 3860 0186 9B04     		.uleb128 .LEHB58-.LFB1188
 3861 0188 3D       		.uleb128 .LEHE58-.LEHB58
 3862 0189 CE07     		.uleb128 .L453-.LFB1188
 3863 018b 01       		.uleb128 0x1
 3864 018c D804     		.uleb128 .LEHB59-.LFB1188
 3865 018e 3D       		.uleb128 .LEHE59-.LEHB59
 3866 018f CE06     		.uleb128 .L455-.LFB1188
 3867 0191 01       		.uleb128 0x1
 3868 0192 9505     		.uleb128 .LEHB60-.LFB1188
 3869 0194 42       		.uleb128 .LEHE60-.LEHB60
 3870 0195 9106     		.uleb128 .L457-.LFB1188
 3871 0197 01       		.uleb128 0x1
 3872 0198 EB05     		.uleb128 .LEHB61-.LFB1188
 3873 019a 05       		.uleb128 .LEHE61-.LEHB61
 3874 019b 00       		.uleb128 0
 3875 019c 00       		.uleb128 0
 3876 019d 9906     		.uleb128 .LEHB62-.LFB1188
 3877 019f 2E       		.uleb128 .LEHE62-.LEHB62
 3878 01a0 B208     		.uleb128 .L458-.LFB1188
 3879 01a2 00       		.uleb128 0
 3880 01a3 C706     		.uleb128 .LEHB63-.LFB1188
 3881 01a5 05       		.uleb128 .LEHE63-.LEHB63
 3882 01a6 8E08     		.uleb128 .L450-.LFB1188
 3883 01a8 00       		.uleb128 0
 3884 01a9 D606     		.uleb128 .LEHB64-.LFB1188
 3885 01ab 2E       		.uleb128 .LEHE64-.LEHB64
 3886 01ac C608     		.uleb128 .L456-.LFB1188
 3887 01ae 00       		.uleb128 0
 3888 01af 8407     		.uleb128 .LEHB65-.LFB1188
 3889 01b1 05       		.uleb128 .LEHE65-.LEHB65
 3890 01b2 8E08     		.uleb128 .L450-.LFB1188
 3891 01b4 00       		.uleb128 0
 3892 01b5 9607     		.uleb128 .LEHB66-.LFB1188
 3893 01b7 2E       		.uleb128 .LEHE66-.LEHB66
 3894 01b8 BC08     		.uleb128 .L452-.LFB1188
 3895 01ba 00       		.uleb128 0
 3896 01bb C407     		.uleb128 .LEHB67-.LFB1188
 3897 01bd 05       		.uleb128 .LEHE67-.LEHB67
 3898 01be 8E08     		.uleb128 .L450-.LFB1188
 3899 01c0 00       		.uleb128 0
 3900 01c1 D607     		.uleb128 .LEHB68-.LFB1188
 3901 01c3 2E       		.uleb128 .LEHE68-.LEHB68
 3902 01c4 D208     		.uleb128 .L454-.LFB1188
 3903 01c6 00       		.uleb128 0
 3904 01c7 8408     		.uleb128 .LEHB69-.LFB1188
 3905 01c9 05       		.uleb128 .LEHE69-.LEHB69
 3906 01ca 8E08     		.uleb128 .L450-.LFB1188
 3907 01cc 00       		.uleb128 0
 3908 01cd AD08     		.uleb128 .LEHB70-.LFB1188
 3909 01cf 05       		.uleb128 .LEHE70-.LEHB70
 3910 01d0 00       		.uleb128 0
 3911 01d1 00       		.uleb128 0
 3912              	.LLSDACSE1188:
 3913 01d2 01       		.byte	0x1
 3914 01d3 00       		.byte	0
 3915              		.align 4
 3916 01d4 00000000 		.long	0
 3917              	
 3918              	.LLSDATT1188:
 3919              		.text
 3921              		.section	.rodata.str1.8
 3922 032a 00000000 		.align 8
 3922      0000
 3923              	.LC49:
 3924 0330 556E6861 		.string	"Unhandled exception in CHECK_EQUAL(1, results.GetFailureCount())"
 3924      6E646C65 
 3924      64206578 
 3924      63657074 
 3924      696F6E20 
 3925              		.text
 3926              		.align 2
 3927 229c 0F1F4000 		.p2align 4,,15
 3929              	_ZNK12_GLOBAL__N_126TestCheckArray2DCloseFalse7RunImplEv:
 3930              	.LFB1180:
 3931              		.cfi_startproc
 3932              		.cfi_personality 0x3,__gxx_personality_v0
 3933              		.cfi_lsda 0x3,.LLSDA1180
 3934 22a0 53       		pushq	%rbx
 3935              		.cfi_def_cfa_offset 16
 3936              		.cfi_offset 3, -16
 3937 22a1 31F6     		xorl	%esi, %esi
 3938 22a3 4881ECC0 		subq	$192, %rsp
 3938      000000
 3939              		.cfi_def_cfa_offset 208
 3940 22aa 488D7C24 		leaq	32(%rsp), %rdi
 3940      20
 3941              	.LEHB71:
 3942 22af E8000000 		call	_ZN8UnitTest11TestResultsC1EPNS_12TestReporterE
 3942      00
 3943 22b4 B9000000 		movl	$.LC1, %ecx
 3943      00
 3944 22b9 488D7C24 		leaq	64(%rsp), %rdi
 3944      40
 3945 22be 4531C0   		xorl	%r8d, %r8d
 3946 22c1 4889CA   		movq	%rcx, %rdx
 3947 22c4 4889CE   		movq	%rcx, %rsi
 3948 22c7 C7442460 		movl	$0x3f800000, 96(%rsp)
 3948      0000803F 
 3949 22cf C7442464 		movl	$0x3fc00000, 100(%rsp)
 3949      0000C03F 
 3950 22d7 C7442468 		movl	$0x40000000, 104(%rsp)
 3950      00000040 
 3951 22df C744246C 		movl	$0x40000000, 108(%rsp)
 3951      00000040 
 3952 22e7 C7442470 		movl	$0x40200000, 112(%rsp)
 3952      00002040 
 3953 22ef C7442474 		movl	$0x40400000, 116(%rsp)
 3953      00004040 
 3954 22f7 C7442478 		movl	$0x40400000, 120(%rsp)
 3954      00004040 
 3955 22ff C744247C 		movl	$0x40600000, 124(%rsp)
 3955      00006040 
 3956 2307 C7842480 		movl	$0x40800000, 128(%rsp)
 3956      00000000 
 3956      008040
 3957 2312 C7842490 		movl	$0x3f8147ae, 144(%rsp)
 3957      000000AE 
 3957      47813F
 3958 231d C7842494 		movl	$0x3fc147ae, 148(%rsp)
 3958      000000AE 
 3958      47C13F
 3959 2328 C7842498 		movl	$0x4000a3d7, 152(%rsp)
 3959      000000D7 
 3959      A30040
 3960 2333 C784249C 		movl	$0x4000a3d7, 156(%rsp)
 3960      000000D7 
 3960      A30040
 3961 233e C78424A0 		movl	$0x4020a3d7, 160(%rsp)
 3961      000000D7 
 3961      A32040
 3962 2349 C78424A4 		movl	$0x4040a3d7, 164(%rsp)
 3962      000000D7 
 3962      A34040
 3963 2354 C78424A8 		movl	$0x4040a3d7, 168(%rsp)
 3963      000000D7 
 3963      A34040
 3964 235f C78424AC 		movl	$0x4060a3d7, 172(%rsp)
 3964      000000D7 
 3964      A36040
 3965 236a C78424B0 		movl	$0x408051ec, 176(%rsp)
 3965      000000EC 
 3965      518040
 3966 2375 E8000000 		call	_ZN8UnitTest11TestDetailsC1EPKcS2_S2_i
 3966      00
 3967 237a 4C8D4424 		leaq	64(%rsp), %r8
 3967      40
 3968 237f 488D4C24 		leaq	16(%rsp), %rcx
 3968      10
 3969 2384 488D9424 		leaq	144(%rsp), %rdx
 3969      90000000 
 3970 238c 488D7424 		leaq	96(%rsp), %rsi
 3970      60
 3971 2391 488D7C24 		leaq	32(%rsp), %rdi
 3971      20
 3972 2396 C7442410 		movl	$0x3a83126f, 16(%rsp)
 3972      6F12833A 
 3973 239e E8CDF4FF 		call	_ZN8UnitTest17CheckArray2DCloseIA3_A3_fS2_fEEvRNS_11TestResultsERKT_RKT0_iiRKT1_RKNS_11TestDe
 3973      FF
 3974              	.LEHE71:
 3975              	.LEHB72:
 3976 23a3 E8000000 		call	_ZN8UnitTest11CurrentTest7DetailsEv
 3976      00
 3977 23a8 488B30   		movq	(%rax), %rsi
 3978 23ab 488D7C24 		leaq	64(%rsp), %rdi
 3978      40
 3979 23b0 BA090100 		movl	$265, %edx
 3979      00
 3980 23b5 E8000000 		call	_ZN8UnitTest11TestDetailsC1ERKS0_i
 3980      00
 3981 23ba 488D7C24 		leaq	32(%rsp), %rdi
 3981      20
 3982 23bf E8000000 		call	_ZNK8UnitTest11TestResults15GetFailureCountEv
 3982      00
 3983 23c4 89442410 		movl	%eax, 16(%rsp)
 3984 23c8 C7042401 		movl	$1, (%rsp)
 3984      000000
 3985 23cf E8000000 		call	_ZN8UnitTest11CurrentTest7ResultsEv
 3985      00
 3986 23d4 488B38   		movq	(%rax), %rdi
 3987 23d7 488D4C24 		leaq	64(%rsp), %rcx
 3987      40
 3988 23dc 488D5424 		leaq	16(%rsp), %rdx
 3988      10
 3989 23e1 4889E6   		movq	%rsp, %rsi
 3990 23e4 E8000000 		call	_ZN8UnitTest10CheckEqualIiiEEvRNS_11TestResultsERKT_RKT0_RKNS_11TestDetailsE
 3990      00
 3991              	.LEHE72:
 3992              	.L462:
 3993 23e9 4881C4C0 		addq	$192, %rsp
 3993      000000
 3994              		.cfi_remember_state
 3995              		.cfi_def_cfa_offset 16
 3996 23f0 5B       		popq	%rbx
 3997              		.cfi_def_cfa_offset 8
 3998 23f1 C3       		ret
 3999              	.L466:
 4000              		.cfi_restore_state
 4001 23f2 4889C7   		movq	%rax, %rdi
 4002 23f5 E8000000 		call	__cxa_begin_catch
 4002      00
 4003              	.LEHB73:
 4004 23fa E8000000 		call	_ZN8UnitTest11CurrentTest7DetailsEv
 4004      00
 4005 23ff 488B30   		movq	(%rax), %rsi
 4006 2402 488D7C24 		leaq	64(%rsp), %rdi
 4006      40
 4007 2407 BA090100 		movl	$265, %edx
 4007      00
 4008 240c E8000000 		call	_ZN8UnitTest11TestDetailsC1ERKS0_i
 4008      00
 4009 2411 E8000000 		call	_ZN8UnitTest11CurrentTest7ResultsEv
 4009      00
 4010 2416 488B38   		movq	(%rax), %rdi
 4011 2419 488D7424 		leaq	64(%rsp), %rsi
 4011      40
 4012 241e BA000000 		movl	$.LC49, %edx
 4012      00
 4013 2423 E8000000 		call	_ZN8UnitTest11TestResults13OnTestFailureERKNS_11TestDetailsEPKc
 4013      00
 4014              	.LEHE73:
 4015              	.LEHB74:
 4016 2428 E8000000 		call	__cxa_end_catch
 4016      00
 4017              	.LEHE74:
 4018 242d EBBA     		jmp	.L462
 4019              	.L467:
 4020 242f 4889C3   		movq	%rax, %rbx
 4021              		.p2align 4,,5
 4022 2432 E8000000 		call	__cxa_end_catch
 4022      00
 4023 2437 4889DF   		movq	%rbx, %rdi
 4024              	.LEHB75:
 4025 243a E8000000 		call	_Unwind_Resume
 4025      00
 4026              	.LEHE75:
 4027              		.cfi_endproc
 4028              	.LFE1180:
 4029              		.section	.gcc_except_table
 4030              		.align 4
 4031              	.LLSDA1180:
 4032 01d8 FF       		.byte	0xff
 4033 01d9 03       		.byte	0x3
 4034 01da 25       		.uleb128 .LLSDATT1180-.LLSDATTD1180
 4035              	.LLSDATTD1180:
 4036 01db 01       		.byte	0x1
 4037 01dc 1B       		.uleb128 .LLSDACSE1180-.LLSDACSB1180
 4038              	.LLSDACSB1180:
 4039 01dd 0F       		.uleb128 .LEHB71-.LFB1180
 4040 01de F401     		.uleb128 .LEHE71-.LEHB71
 4041 01e0 00       		.uleb128 0
 4042 01e1 00       		.uleb128 0
 4043 01e2 8302     		.uleb128 .LEHB72-.LFB1180
 4044 01e4 46       		.uleb128 .LEHE72-.LEHB72
 4045 01e5 D202     		.uleb128 .L466-.LFB1180
 4046 01e7 01       		.uleb128 0x1
 4047 01e8 DA02     		.uleb128 .LEHB73-.LFB1180
 4048 01ea 2E       		.uleb128 .LEHE73-.LEHB73
 4049 01eb 8F03     		.uleb128 .L467-.LFB1180
 4050 01ed 00       		.uleb128 0
 4051 01ee 8803     		.uleb128 .LEHB74-.LFB1180
 4052 01f0 05       		.uleb128 .LEHE74-.LEHB74
 4053 01f1 00       		.uleb128 0
 4054 01f2 00       		.uleb128 0
 4055 01f3 9A03     		.uleb128 .LEHB75-.LFB1180
 4056 01f5 05       		.uleb128 .LEHE75-.LEHB75
 4057 01f6 00       		.uleb128 0
 4058 01f7 00       		.uleb128 0
 4059              	.LLSDACSE1180:
 4060 01f8 01       		.byte	0x1
 4061 01f9 00       		.byte	0
 4062 01fa 0000     		.align 4
 4063 01fc 00000000 		.long	0
 4064              	
 4065              	.LLSDATT1180:
 4066              		.text
 4068              		.section	.rodata.str1.8
 4069 0371 00000000 		.align 8
 4069      000000
 4070              	.LC51:
 4071 0378 556E6861 		.string	"Unhandled exception in CHECK_EQUAL(0, results.GetFailureCount())"
 4071      6E646C65 
 4071      64206578 
 4071      63657074 
 4071      696F6E20 
 4072              		.text
 4073 243f 90       		.align 2
 4074              		.p2align 4,,15
 4076              	_ZNK12_GLOBAL__N_125TestCheckArray2DCloseTrue7RunImplEv:
 4077              	.LFB1176:
 4078              		.cfi_startproc
 4079              		.cfi_personality 0x3,__gxx_personality_v0
 4080              		.cfi_lsda 0x3,.LLSDA1176
 4081 2440 53       		pushq	%rbx
 4082              		.cfi_def_cfa_offset 16
 4083              		.cfi_offset 3, -16
 4084 2441 31F6     		xorl	%esi, %esi
 4085 2443 4881ECC0 		subq	$192, %rsp
 4085      000000
 4086              		.cfi_def_cfa_offset 208
 4087 244a 488D7C24 		leaq	32(%rsp), %rdi
 4087      20
 4088              	.LEHB76:
 4089 244f E8000000 		call	_ZN8UnitTest11TestResultsC1EPNS_12TestReporterE
 4089      00
 4090 2454 B9000000 		movl	$.LC1, %ecx
 4090      00
 4091 2459 488D7C24 		leaq	64(%rsp), %rdi
 4091      40
 4092 245e 4531C0   		xorl	%r8d, %r8d
 4093 2461 4889CA   		movq	%rcx, %rdx
 4094 2464 4889CE   		movq	%rcx, %rsi
 4095 2467 C7442460 		movl	$0x3f800000, 96(%rsp)
 4095      0000803F 
 4096 246f C7442464 		movl	$0x3fc00000, 100(%rsp)
 4096      0000C03F 
 4097 2477 C7442468 		movl	$0x40000000, 104(%rsp)
 4097      00000040 
 4098 247f C744246C 		movl	$0x40000000, 108(%rsp)
 4098      00000040 
 4099 2487 C7442470 		movl	$0x40200000, 112(%rsp)
 4099      00002040 
 4100 248f C7442474 		movl	$0x40400000, 116(%rsp)
 4100      00004040 
 4101 2497 C7442478 		movl	$0x40400000, 120(%rsp)
 4101      00004040 
 4102 249f C744247C 		movl	$0x40600000, 124(%rsp)
 4102      00006040 
 4103 24a7 C7842480 		movl	$0x40800000, 128(%rsp)
 4103      00000000 
 4103      008040
 4104 24b2 C7842490 		movl	$0x3f8147ae, 144(%rsp)
 4104      000000AE 
 4104      47813F
 4105 24bd C7842494 		movl	$0x3fc147ae, 148(%rsp)
 4105      000000AE 
 4105      47C13F
 4106 24c8 C7842498 		movl	$0x4000a3d7, 152(%rsp)
 4106      000000D7 
 4106      A30040
 4107 24d3 C784249C 		movl	$0x4000a3d7, 156(%rsp)
 4107      000000D7 
 4107      A30040
 4108 24de C78424A0 		movl	$0x4020a3d7, 160(%rsp)
 4108      000000D7 
 4108      A32040
 4109 24e9 C78424A4 		movl	$0x4040a3d7, 164(%rsp)
 4109      000000D7 
 4109      A34040
 4110 24f4 C78424A8 		movl	$0x4040a3d7, 168(%rsp)
 4110      000000D7 
 4110      A34040
 4111 24ff C78424AC 		movl	$0x4060a3d7, 172(%rsp)
 4111      000000D7 
 4111      A36040
 4112 250a C78424B0 		movl	$0x408051ec, 176(%rsp)
 4112      000000EC 
 4112      518040
 4113 2515 E8000000 		call	_ZN8UnitTest11TestDetailsC1EPKcS2_S2_i
 4113      00
 4114 251a 4C8D4424 		leaq	64(%rsp), %r8
 4114      40
 4115 251f 488D4C24 		leaq	16(%rsp), %rcx
 4115      10
 4116 2524 488D9424 		leaq	144(%rsp), %rdx
 4116      90000000 
 4117 252c 488D7424 		leaq	96(%rsp), %rsi
 4117      60
 4118 2531 488D7C24 		leaq	32(%rsp), %rdi
 4118      20
 4119 2536 C7442410 		movl	$0x3ca3d70a, 16(%rsp)
 4119      0AD7A33C 
 4120 253e E82DF3FF 		call	_ZN8UnitTest17CheckArray2DCloseIA3_A3_fS2_fEEvRNS_11TestResultsERKT_RKT0_iiRKT1_RKNS_11TestDe
 4120      FF
 4121              	.LEHE76:
 4122              	.LEHB77:
 4123 2543 E8000000 		call	_ZN8UnitTest11CurrentTest7DetailsEv
 4123      00
 4124 2548 488B30   		movq	(%rax), %rsi
 4125 254b 488D7C24 		leaq	64(%rsp), %rdi
 4125      40
 4126 2550 BAFB0000 		movl	$251, %edx
 4126      00
 4127 2555 E8000000 		call	_ZN8UnitTest11TestDetailsC1ERKS0_i
 4127      00
 4128 255a 488D7C24 		leaq	32(%rsp), %rdi
 4128      20
 4129 255f E8000000 		call	_ZNK8UnitTest11TestResults15GetFailureCountEv
 4129      00
 4130 2564 89442410 		movl	%eax, 16(%rsp)
 4131 2568 C7042400 		movl	$0, (%rsp)
 4131      000000
 4132 256f E8000000 		call	_ZN8UnitTest11CurrentTest7ResultsEv
 4132      00
 4133 2574 488B38   		movq	(%rax), %rdi
 4134 2577 488D4C24 		leaq	64(%rsp), %rcx
 4134      40
 4135 257c 488D5424 		leaq	16(%rsp), %rdx
 4135      10
 4136 2581 4889E6   		movq	%rsp, %rsi
 4137 2584 E8000000 		call	_ZN8UnitTest10CheckEqualIiiEEvRNS_11TestResultsERKT_RKT0_RKNS_11TestDetailsE
 4137      00
 4138              	.LEHE77:
 4139              	.L469:
 4140 2589 4881C4C0 		addq	$192, %rsp
 4140      000000
 4141              		.cfi_remember_state
 4142              		.cfi_def_cfa_offset 16
 4143 2590 5B       		popq	%rbx
 4144              		.cfi_def_cfa_offset 8
 4145 2591 C3       		ret
 4146              	.L473:
 4147              		.cfi_restore_state
 4148 2592 4889C7   		movq	%rax, %rdi
 4149 2595 E8000000 		call	__cxa_begin_catch
 4149      00
 4150              	.LEHB78:
 4151 259a E8000000 		call	_ZN8UnitTest11CurrentTest7DetailsEv
 4151      00
 4152 259f 488B30   		movq	(%rax), %rsi
 4153 25a2 488D7C24 		leaq	64(%rsp), %rdi
 4153      40
 4154 25a7 BAFB0000 		movl	$251, %edx
 4154      00
 4155 25ac E8000000 		call	_ZN8UnitTest11TestDetailsC1ERKS0_i
 4155      00
 4156 25b1 E8000000 		call	_ZN8UnitTest11CurrentTest7ResultsEv
 4156      00
 4157 25b6 488B38   		movq	(%rax), %rdi
 4158 25b9 488D7424 		leaq	64(%rsp), %rsi
 4158      40
 4159 25be BA000000 		movl	$.LC51, %edx
 4159      00
 4160 25c3 E8000000 		call	_ZN8UnitTest11TestResults13OnTestFailureERKNS_11TestDetailsEPKc
 4160      00
 4161              	.LEHE78:
 4162              	.LEHB79:
 4163 25c8 E8000000 		call	__cxa_end_catch
 4163      00
 4164              	.LEHE79:
 4165 25cd EBBA     		jmp	.L469
 4166              	.L474:
 4167 25cf 4889C3   		movq	%rax, %rbx
 4168              		.p2align 4,,5
 4169 25d2 E8000000 		call	__cxa_end_catch
 4169      00
 4170 25d7 4889DF   		movq	%rbx, %rdi
 4171              	.LEHB80:
 4172 25da E8000000 		call	_Unwind_Resume
 4172      00
 4173              	.LEHE80:
 4174              		.cfi_endproc
 4175              	.LFE1176:
 4176              		.section	.gcc_except_table
 4177              		.align 4
 4178              	.LLSDA1176:
 4179 0200 FF       		.byte	0xff
 4180 0201 03       		.byte	0x3
 4181 0202 25       		.uleb128 .LLSDATT1176-.LLSDATTD1176
 4182              	.LLSDATTD1176:
 4183 0203 01       		.byte	0x1
 4184 0204 1B       		.uleb128 .LLSDACSE1176-.LLSDACSB1176
 4185              	.LLSDACSB1176:
 4186 0205 0F       		.uleb128 .LEHB76-.LFB1176
 4187 0206 F401     		.uleb128 .LEHE76-.LEHB76
 4188 0208 00       		.uleb128 0
 4189 0209 00       		.uleb128 0
 4190 020a 8302     		.uleb128 .LEHB77-.LFB1176
 4191 020c 46       		.uleb128 .LEHE77-.LEHB77
 4192 020d D202     		.uleb128 .L473-.LFB1176
 4193 020f 01       		.uleb128 0x1
 4194 0210 DA02     		.uleb128 .LEHB78-.LFB1176
 4195 0212 2E       		.uleb128 .LEHE78-.LEHB78
 4196 0213 8F03     		.uleb128 .L474-.LFB1176
 4197 0215 00       		.uleb128 0
 4198 0216 8803     		.uleb128 .LEHB79-.LFB1176
 4199 0218 05       		.uleb128 .LEHE79-.LEHB79
 4200 0219 00       		.uleb128 0
 4201 021a 00       		.uleb128 0
 4202 021b 9A03     		.uleb128 .LEHB80-.LFB1176
 4203 021d 05       		.uleb128 .LEHE80-.LEHB80
 4204 021e 00       		.uleb128 0
 4205 021f 00       		.uleb128 0
 4206              	.LLSDACSE1176:
 4207 0220 01       		.byte	0x1
 4208 0221 00       		.byte	0
 4209 0222 0000     		.align 4
 4210 0224 00000000 		.long	0
 4211              	
 4212              	.LLSDATT1176:
 4213              		.text
 4215              		.section	.rodata.str1.1
 4216              	.LC52:
 4217 0092 66696C65 		.string	"file.h"
 4217      2E6800
 4218              	.LC53:
 4219 0099 6D797375 		.string	"mysuite"
 4219      69746500 
 4220              	.LC54:
 4221 00a1 6D797465 		.string	"mytest"
 4221      737400
 4222              		.section	.rodata.str1.8
 4223 03b9 00000000 		.align 8
 4223      000000
 4224              	.LC55:
 4225 03c0 556E6861 		.string	"Unhandled exception in CHECK_EQUAL(\"mytest\", reporter.lastFailedTest)"
 4225      6E646C65 
 4225      64206578 
 4225      63657074 
 4225      696F6E20 
 4226 0406 0000     		.align 8
 4227              	.LC56:
 4228 0408 556E6861 		.string	"Unhandled exception in CHECK_EQUAL(\"mysuite\", reporter.lastFailedSuite)"
 4228      6E646C65 
 4228      64206578 
 4228      63657074 
 4228      696F6E20 
 4229              		.align 8
 4230              	.LC57:
 4231 0450 556E6861 		.string	"Unhandled exception in CHECK_EQUAL(\"file.h\", reporter.lastFailedFile)"
 4231      6E646C65 
 4231      64206578 
 4231      63657074 
 4231      696F6E20 
 4232 0496 0000     		.align 8
 4233              	.LC58:
 4234 0498 556E6861 		.string	"Unhandled exception in CHECK_EQUAL(101, reporter.lastFailedLine)"
 4234      6E646C65 
 4234      64206578 
 4234      63657074 
 4234      696F6E20 
 4235              		.text
 4236 25df 90       		.align 2
 4237              		.p2align 4,,15
 4239              	_ZNK12_GLOBAL__N_136TestCheckEqualFailureIncludesDetails7RunImplEv:
 4240              	.LFB1120:
 4241              		.cfi_startproc
 4242              		.cfi_personality 0x3,__gxx_personality_v0
 4243              		.cfi_lsda 0x3,.LLSDA1120
 4244 25e0 53       		pushq	%rbx
 4245              		.cfi_def_cfa_offset 16
 4246              		.cfi_offset 3, -16
 4247 25e1 4881ECB0 		subq	$2224, %rsp
 4247      080000
 4248              		.cfi_def_cfa_offset 2240
 4249 25e8 488D7424 		leaq	112(%rsp), %rsi
 4249      70
 4250 25ed 488D7C24 		leaq	16(%rsp), %rdi
 4250      10
 4251 25f2 48C74424 		movq	$_ZTV17RecordingReporter+16, 112(%rsp)
 4251      70000000 
 4251      00
 4252 25fb 64488B04 		movq	%fs:40, %rax
 4252      25280000 
 4252      00
 4253 2604 48898424 		movq	%rax, 2216(%rsp)
 4253      A8080000 
 4254 260c 31C0     		xorl	%eax, %eax
 4255 260e C7442478 		movl	$0, 120(%rsp)
 4255      00000000 
 4256 2616 C784247C 		movl	$0, 636(%rsp)
 4256      02000000 
 4256      000000
 4257 2621 C7842480 		movl	$0, 896(%rsp)
 4257      03000000 
 4257      000000
 4258 262c C7842484 		movl	$0, 1668(%rsp)
 4258      06000000 
 4258      000000
 4259 2637 C7842488 		movl	$0x00000000, 2184(%rsp)
 4259      08000000 
 4259      000000
 4260 2642 C784248C 		movl	$0, 2188(%rsp)
 4260      08000000 
 4260      000000
 4261 264d C7842490 		movl	$0, 2192(%rsp)
 4261      08000000 
 4261      000000
 4262 2658 C7842494 		movl	$0, 2196(%rsp)
 4262      08000000 
 4262      000000
 4263 2663 C7842498 		movl	$0x00000000, 2200(%rsp)
 4263      08000000 
 4263      000000
 4264 266e C644247C 		movb	$0, 124(%rsp)
 4264      00
 4265 2673 C684247C 		movb	$0, 380(%rsp)
 4265      01000000 
 4266 267b C6842480 		movb	$0, 640(%rsp)
 4266      02000000 
 4267 2683 C6842484 		movb	$0, 900(%rsp)
 4267      03000000 
 4268 268b C6842484 		movb	$0, 1156(%rsp)
 4268      04000000 
 4269 2693 C6842484 		movb	$0, 1412(%rsp)
 4269      05000000 
 4270 269b C6842488 		movb	$0, 1672(%rsp)
 4270      06000000 
 4271 26a3 C6842488 		movb	$0, 1928(%rsp)
 4271      07000000 
 4272              	.LEHB81:
 4273 26ab E8000000 		call	_ZN8UnitTest11TestResultsC1EPNS_12TestReporterE
 4273      00
 4274 26b0 488D7C24 		leaq	48(%rsp), %rdi
 4274      30
 4275 26b5 41B86500 		movl	$101, %r8d
 4275      0000
 4276 26bb B9000000 		movl	$.LC52, %ecx
 4276      00
 4277 26c0 BA000000 		movl	$.LC53, %edx
 4277      00
 4278 26c5 BE000000 		movl	$.LC54, %esi
 4278      00
 4279 26ca E8000000 		call	_ZN8UnitTest11TestDetailsC1EPKcS2_S2_i
 4279      00
 4280 26cf 488D4C24 		leaq	48(%rsp), %rcx
 4280      30
 4281 26d4 488D5424 		leaq	80(%rsp), %rdx
 4281      50
 4282 26d9 488D7C24 		leaq	16(%rsp), %rdi
 4282      10
 4283 26de 4889E6   		movq	%rsp, %rsi
 4284 26e1 C7442450 		movl	$2, 80(%rsp)
 4284      02000000 
 4285 26e9 C7042401 		movl	$1, (%rsp)
 4285      000000
 4286 26f0 E8000000 		call	_ZN8UnitTest10CheckEqualIiiEEvRNS_11TestResultsERKT_RKT0_RKNS_11TestDetailsE
 4286      00
 4287              	.LEHE81:
 4288              	.LEHB82:
 4289 26f5 E8000000 		call	_ZN8UnitTest11CurrentTest7DetailsEv
 4289      00
 4290 26fa 488B30   		movq	(%rax), %rsi
 4291 26fd 488D7C24 		leaq	80(%rsp), %rdi
 4291      50
 4292 2702 BA5D0000 		movl	$93, %edx
 4292      00
 4293 2707 E8000000 		call	_ZN8UnitTest11TestDetailsC1ERKS0_i
 4293      00
 4294 270c E8000000 		call	_ZN8UnitTest11CurrentTest7ResultsEv
 4294      00
 4295 2711 488D5C24 		leaq	112(%rsp), %rbx
 4295      70
 4296 2716 488B38   		movq	(%rax), %rdi
 4297 2719 488D4C24 		leaq	80(%rsp), %rcx
 4297      50
 4298 271e BE000000 		movl	$.LC54, %esi
 4298      00
 4299 2723 488D9314 		leaq	1044(%rbx), %rdx
 4299      040000
 4300 272a E8000000 		call	_ZN8UnitTest10CheckEqualERNS_11TestResultsEPKcPcRKNS_11TestDetailsE
 4300      00
 4301              	.LEHE82:
 4302              	.L480:
 4303              	.LEHB83:
 4304 272f E8000000 		call	_ZN8UnitTest11CurrentTest7DetailsEv
 4304      00
 4305 2734 488B30   		movq	(%rax), %rsi
 4306 2737 488D7C24 		leaq	80(%rsp), %rdi
 4306      50
 4307 273c BA5E0000 		movl	$94, %edx
 4307      00
 4308 2741 E8000000 		call	_ZN8UnitTest11TestDetailsC1ERKS0_i
 4308      00
 4309 2746 E8000000 		call	_ZN8UnitTest11CurrentTest7ResultsEv
 4309      00
 4310 274b 488D5C24 		leaq	112(%rsp), %rbx
 4310      70
 4311 2750 488B38   		movq	(%rax), %rdi
 4312 2753 488D4C24 		leaq	80(%rsp), %rcx
 4312      50
 4313 2758 BE000000 		movl	$.LC53, %esi
 4313      00
 4314 275d 488D9314 		leaq	788(%rbx), %rdx
 4314      030000
 4315 2764 E8000000 		call	_ZN8UnitTest10CheckEqualERNS_11TestResultsEPKcPcRKNS_11TestDetailsE
 4315      00
 4316              	.LEHE83:
 4317              	.L483:
 4318              	.LEHB84:
 4319 2769 E8000000 		call	_ZN8UnitTest11CurrentTest7DetailsEv
 4319      00
 4320 276e 488B30   		movq	(%rax), %rsi
 4321 2771 488D7C24 		leaq	80(%rsp), %rdi
 4321      50
 4322 2776 BA5F0000 		movl	$95, %edx
 4322      00
 4323 277b E8000000 		call	_ZN8UnitTest11TestDetailsC1ERKS0_i
 4323      00
 4324 2780 E8000000 		call	_ZN8UnitTest11CurrentTest7ResultsEv
 4324      00
 4325 2785 488D5C24 		leaq	112(%rsp), %rbx
 4325      70
 4326 278a 488B38   		movq	(%rax), %rdi
 4327 278d 488D4C24 		leaq	80(%rsp), %rcx
 4327      50
 4328 2792 BE000000 		movl	$.LC52, %esi
 4328      00
 4329 2797 488D9310 		leaq	528(%rbx), %rdx
 4329      020000
 4330 279e E8000000 		call	_ZN8UnitTest10CheckEqualERNS_11TestResultsEPKcPcRKNS_11TestDetailsE
 4330      00
 4331              	.LEHE84:
 4332              	.L486:
 4333              	.LEHB85:
 4334 27a3 E8000000 		call	_ZN8UnitTest11CurrentTest7DetailsEv
 4334      00
 4335 27a8 488B30   		movq	(%rax), %rsi
 4336 27ab 488D7C24 		leaq	80(%rsp), %rdi
 4336      50
 4337 27b0 BA600000 		movl	$96, %edx
 4337      00
 4338 27b5 E8000000 		call	_ZN8UnitTest11TestDetailsC1ERKS0_i
 4338      00
 4339 27ba C7042465 		movl	$101, (%rsp)
 4339      000000
 4340 27c1 E8000000 		call	_ZN8UnitTest11CurrentTest7ResultsEv
 4340      00
 4341 27c6 488D5C24 		leaq	112(%rsp), %rbx
 4341      70
 4342 27cb 488B38   		movq	(%rax), %rdi
 4343 27ce 488D4C24 		leaq	80(%rsp), %rcx
 4343      50
 4344 27d3 4889E6   		movq	%rsp, %rsi
 4345 27d6 488D9310 		leaq	784(%rbx), %rdx
 4345      030000
 4346 27dd E8000000 		call	_ZN8UnitTest10CheckEqualIiiEEvRNS_11TestResultsERKT_RKT0_RKNS_11TestDetailsE
 4346      00
 4347              	.LEHE85:
 4348              	.L489:
 4349 27e2 488D7C24 		leaq	112(%rsp), %rdi
 4349      70
 4350 27e7 48C74424 		movq	$_ZTV17RecordingReporter+16, 112(%rsp)
 4350      70000000 
 4350      00
 4351              	.LEHB86:
 4352 27f0 E8000000 		call	_ZN8UnitTest12TestReporterD2Ev
 4352      00
 4353              	.LEHE86:
 4354 27f5 488B8424 		movq	2216(%rsp), %rax
 4354      A8080000 
 4355 27fd 64483304 		xorq	%fs:40, %rax
 4355      25280000 
 4355      00
 4356 2806 7509     		jne	.L502
 4357 2808 4881C4B0 		addq	$2224, %rsp
 4357      080000
 4358              		.cfi_remember_state
 4359              		.cfi_def_cfa_offset 16
 4360 280f 5B       		popq	%rbx
 4361              		.cfi_def_cfa_offset 8
 4362 2810 C3       		ret
 4363              	.L502:
 4364              		.cfi_restore_state
 4365 2811 E8000000 		call	__stack_chk_fail
 4365      00
 4366              	.L498:
 4367 2816 4889C7   		movq	%rax, %rdi
 4368 2819 E8000000 		call	__cxa_begin_catch
 4368      00
 4369              	.LEHB87:
 4370 281e E8000000 		call	_ZN8UnitTest11CurrentTest7DetailsEv
 4370      00
 4371 2823 488B30   		movq	(%rax), %rsi
 4372 2826 488D7C24 		leaq	80(%rsp), %rdi
 4372      50
 4373 282b BA600000 		movl	$96, %edx
 4373      00
 4374 2830 E8000000 		call	_ZN8UnitTest11TestDetailsC1ERKS0_i
 4374      00
 4375 2835 E8000000 		call	_ZN8UnitTest11CurrentTest7ResultsEv
 4375      00
 4376 283a 488B38   		movq	(%rax), %rdi
 4377 283d 488D7424 		leaq	80(%rsp), %rsi
 4377      50
 4378 2842 BA000000 		movl	$.LC58, %edx
 4378      00
 4379 2847 E8000000 		call	_ZN8UnitTest11TestResults13OnTestFailureERKNS_11TestDetailsEPKc
 4379      00
 4380              	.LEHE87:
 4381              	.LEHB88:
 4382 284c E8000000 		call	__cxa_end_catch
 4382      00
 4383              	.LEHE88:
 4384 2851 EB8F     		jmp	.L489
 4385              	.L496:
 4386 2853 4889C7   		movq	%rax, %rdi
 4387              		.p2align 4,,5
 4388 2856 E8000000 		call	__cxa_begin_catch
 4388      00
 4389 285b 0F1F4400 		.p2align 4,,5
 4389      00
 4390              	.LEHB89:
 4391 2860 E8000000 		call	_ZN8UnitTest11CurrentTest7DetailsEv
 4391      00
 4392 2865 488B30   		movq	(%rax), %rsi
 4393 2868 488D7C24 		leaq	80(%rsp), %rdi
 4393      50
 4394 286d BA5F0000 		movl	$95, %edx
 4394      00
 4395 2872 E8000000 		call	_ZN8UnitTest11TestDetailsC1ERKS0_i
 4395      00
 4396 2877 E8000000 		call	_ZN8UnitTest11CurrentTest7ResultsEv
 4396      00
 4397 287c 488B38   		movq	(%rax), %rdi
 4398 287f 488D7424 		leaq	80(%rsp), %rsi
 4398      50
 4399 2884 BA000000 		movl	$.LC57, %edx
 4399      00
 4400 2889 E8000000 		call	_ZN8UnitTest11TestResults13OnTestFailureERKNS_11TestDetailsEPKc
 4400      00
 4401              	.LEHE89:
 4402              	.LEHB90:
 4403 288e E8000000 		call	__cxa_end_catch
 4403      00
 4404              	.LEHE90:
 4405 2893 E90BFFFF 		jmp	.L486
 4405      FF
 4406              	.L492:
 4407 2898 4889C7   		movq	%rax, %rdi
 4408 289b 0F1F4400 		.p2align 4,,5
 4408      00
 4409 28a0 E8000000 		call	__cxa_begin_catch
 4409      00
 4410              		.p2align 4,,5
 4411              	.LEHB91:
 4412 28a5 E8000000 		call	_ZN8UnitTest11CurrentTest7DetailsEv
 4412      00
 4413 28aa 488B30   		movq	(%rax), %rsi
 4414 28ad 488D7C24 		leaq	80(%rsp), %rdi
 4414      50
 4415 28b2 BA5D0000 		movl	$93, %edx
 4415      00
 4416 28b7 E8000000 		call	_ZN8UnitTest11TestDetailsC1ERKS0_i
 4416      00
 4417 28bc E8000000 		call	_ZN8UnitTest11CurrentTest7ResultsEv
 4417      00
 4418 28c1 488B38   		movq	(%rax), %rdi
 4419 28c4 488D7424 		leaq	80(%rsp), %rsi
 4419      50
 4420 28c9 BA000000 		movl	$.LC55, %edx
 4420      00
 4421 28ce E8000000 		call	_ZN8UnitTest11TestResults13OnTestFailureERKNS_11TestDetailsEPKc
 4421      00
 4422              	.LEHE91:
 4423              	.LEHB92:
 4424 28d3 E8000000 		call	__cxa_end_catch
 4424      00
 4425              	.LEHE92:
 4426 28d8 E952FEFF 		jmp	.L480
 4426      FF
 4427              	.L494:
 4428 28dd 4889C7   		movq	%rax, %rdi
 4429              		.p2align 4,,5
 4430 28e0 E8000000 		call	__cxa_begin_catch
 4430      00
 4431              		.p2align 4,,5
 4432              	.LEHB93:
 4433 28e5 E8000000 		call	_ZN8UnitTest11CurrentTest7DetailsEv
 4433      00
 4434 28ea 488B30   		movq	(%rax), %rsi
 4435 28ed 488D7C24 		leaq	80(%rsp), %rdi
 4435      50
 4436 28f2 BA5E0000 		movl	$94, %edx
 4436      00
 4437 28f7 E8000000 		call	_ZN8UnitTest11TestDetailsC1ERKS0_i
 4437      00
 4438 28fc E8000000 		call	_ZN8UnitTest11CurrentTest7ResultsEv
 4438      00
 4439 2901 488B38   		movq	(%rax), %rdi
 4440 2904 488D7424 		leaq	80(%rsp), %rsi
 4440      50
 4441 2909 BA000000 		movl	$.LC56, %edx
 4441      00
 4442 290e E8000000 		call	_ZN8UnitTest11TestResults13OnTestFailureERKNS_11TestDetailsEPKc
 4442      00
 4443              	.LEHE93:
 4444              	.LEHB94:
 4445 2913 E8000000 		call	__cxa_end_catch
 4445      00
 4446              	.LEHE94:
 4447 2918 E94CFEFF 		jmp	.L483
 4447      FF
 4448              	.L491:
 4449 291d 4889C3   		movq	%rax, %rbx
 4450              	.L478:
 4451 2920 488D7C24 		leaq	112(%rsp), %rdi
 4451      70
 4452 2925 48C74424 		movq	$_ZTV17RecordingReporter+16, 112(%rsp)
 4452      70000000 
 4452      00
 4453 292e E8000000 		call	_ZN8UnitTest12TestReporterD2Ev
 4453      00
 4454 2933 4889DF   		movq	%rbx, %rdi
 4455              	.LEHB95:
 4456 2936 E8000000 		call	_Unwind_Resume
 4456      00
 4457              	.LEHE95:
 4458              	.L499:
 4459 293b 4889C3   		movq	%rax, %rbx
 4460 293e E8000000 		call	__cxa_end_catch
 4460      00
 4461 2943 EBDB     		jmp	.L478
 4462              	.L493:
 4463 2945 4889C3   		movq	%rax, %rbx
 4464 2948 E8000000 		call	__cxa_end_catch
 4464      00
 4465 294d 0F1F00   		.p2align 4,,5
 4466 2950 EBCE     		jmp	.L478
 4467              	.L497:
 4468 2952 4889C3   		movq	%rax, %rbx
 4469 2955 E8000000 		call	__cxa_end_catch
 4469      00
 4470              		.p2align 4,,5
 4471 295a EBC4     		jmp	.L478
 4472              	.L495:
 4473 295c 4889C3   		movq	%rax, %rbx
 4474 295f E8000000 		call	__cxa_end_catch
 4474      00
 4475              		.p2align 4,,5
 4476 2964 EBBA     		jmp	.L478
 4477              		.cfi_endproc
 4478              	.LFE1120:
 4479              		.section	.gcc_except_table
 4480              		.align 4
 4481              	.LLSDA1120:
 4482 0228 FF       		.byte	0xff
 4483 0229 03       		.byte	0x3
 4484 022a 61       		.uleb128 .LLSDATT1120-.LLSDATTD1120
 4485              	.LLSDATTD1120:
 4486 022b 01       		.byte	0x1
 4487 022c 58       		.uleb128 .LLSDACSE1120-.LLSDACSB1120
 4488              	.LLSDACSB1120:
 4489 022d CB01     		.uleb128 .LEHB81-.LFB1120
 4490 022f 4A       		.uleb128 .LEHE81-.LEHB81
 4491 0230 BD06     		.uleb128 .L491-.LFB1120
 4492 0232 00       		.uleb128 0
 4493 0233 9502     		.uleb128 .LEHB82-.LFB1120
 4494 0235 3A       		.uleb128 .LEHE82-.LEHB82
 4495 0236 B805     		.uleb128 .L492-.LFB1120
 4496 0238 01       		.uleb128 0x1
 4497 0239 CF02     		.uleb128 .LEHB83-.LFB1120
 4498 023b 3A       		.uleb128 .LEHE83-.LEHB83
 4499 023c FD05     		.uleb128 .L494-.LFB1120
 4500 023e 01       		.uleb128 0x1
 4501 023f 8903     		.uleb128 .LEHB84-.LFB1120
 4502 0241 3A       		.uleb128 .LEHE84-.LEHB84
 4503 0242 F304     		.uleb128 .L496-.LFB1120
 4504 0244 01       		.uleb128 0x1
 4505 0245 C303     		.uleb128 .LEHB85-.LFB1120
 4506 0247 3F       		.uleb128 .LEHE85-.LEHB85
 4507 0248 B604     		.uleb128 .L498-.LFB1120
 4508 024a 01       		.uleb128 0x1
 4509 024b 9004     		.uleb128 .LEHB86-.LFB1120
 4510 024d 05       		.uleb128 .LEHE86-.LEHB86
 4511 024e 00       		.uleb128 0
 4512 024f 00       		.uleb128 0
 4513 0250 BE04     		.uleb128 .LEHB87-.LFB1120
 4514 0252 2E       		.uleb128 .LEHE87-.LEHB87
 4515 0253 DB06     		.uleb128 .L499-.LFB1120
 4516 0255 00       		.uleb128 0
 4517 0256 EC04     		.uleb128 .LEHB88-.LFB1120
 4518 0258 05       		.uleb128 .LEHE88-.LEHB88
 4519 0259 BD06     		.uleb128 .L491-.LFB1120
 4520 025b 00       		.uleb128 0
 4521 025c 8005     		.uleb128 .LEHB89-.LFB1120
 4522 025e 2E       		.uleb128 .LEHE89-.LEHB89
 4523 025f F206     		.uleb128 .L497-.LFB1120
 4524 0261 00       		.uleb128 0
 4525 0262 AE05     		.uleb128 .LEHB90-.LFB1120
 4526 0264 05       		.uleb128 .LEHE90-.LEHB90
 4527 0265 BD06     		.uleb128 .L491-.LFB1120
 4528 0267 00       		.uleb128 0
 4529 0268 C505     		.uleb128 .LEHB91-.LFB1120
 4530 026a 2E       		.uleb128 .LEHE91-.LEHB91
 4531 026b E506     		.uleb128 .L493-.LFB1120
 4532 026d 00       		.uleb128 0
 4533 026e F305     		.uleb128 .LEHB92-.LFB1120
 4534 0270 05       		.uleb128 .LEHE92-.LEHB92
 4535 0271 BD06     		.uleb128 .L491-.LFB1120
 4536 0273 00       		.uleb128 0
 4537 0274 8506     		.uleb128 .LEHB93-.LFB1120
 4538 0276 2E       		.uleb128 .LEHE93-.LEHB93
 4539 0277 FC06     		.uleb128 .L495-.LFB1120
 4540 0279 00       		.uleb128 0
 4541 027a B306     		.uleb128 .LEHB94-.LFB1120
 4542 027c 05       		.uleb128 .LEHE94-.LEHB94
 4543 027d BD06     		.uleb128 .L491-.LFB1120
 4544 027f 00       		.uleb128 0
 4545 0280 D606     		.uleb128 .LEHB95-.LFB1120
 4546 0282 05       		.uleb128 .LEHE95-.LEHB95
 4547 0283 00       		.uleb128 0
 4548 0284 00       		.uleb128 0
 4549              	.LLSDACSE1120:
 4550 0285 01       		.byte	0x1
 4551 0286 00       		.byte	0
 4552 0287 00       		.align 4
 4553 0288 00000000 		.long	0
 4554              	
 4555              	.LLSDATT1120:
 4556              		.text
 4558              		.section	.rodata.str1.1
 4559              	.LC59:
 4560 00a8 78706563 		.string	"xpected 1"
 4560      74656420 
 4560      3100
 4561              		.section	.rodata.str1.8
 4562 04d9 00000000 		.align 8
 4562      000000
 4563              	.LC60:
 4564 04e0 73747273 		.string	"strstr(reporter.lastFailedMessage, \"xpected 1\")"
 4564      74722872 
 4564      65706F72 
 4564      7465722E 
 4564      6C617374 
 4565              		.section	.rodata.str1.1
 4566              	.LC61:
 4567 00b2 77617320 		.string	"was 2"
 4567      3200
 4568              		.section	.rodata.str1.8
 4569              		.align 8
 4570              	.LC62:
 4571 0510 73747273 		.string	"strstr(reporter.lastFailedMessage, \"was 2\")"
 4571      74722872 
 4571      65706F72 
 4571      7465722E 
 4571      6C617374 
 4572 053c 00000000 		.align 8
 4573              	.LC63:
 4574 0540 556E6861 		.string	"Unhandled exception in CHECK(strstr(reporter.lastFailedMessage, \"xpected 1\"))"
 4574      6E646C65 
 4574      64206578 
 4574      63657074 
 4574      696F6E20 
 4575 058e 0000     		.align 8
 4576              	.LC64:
 4577 0590 556E6861 		.string	"Unhandled exception in CHECK(strstr(reporter.lastFailedMessage, \"was 2\"))"
 4577      6E646C65 
 4577      64206578 
 4577      63657074 
 4577      696F6E20 
 4578              		.text
 4579              		.align 2
 4580 2966 662E0F1F 		.p2align 4,,15
 4580      84000000 
 4580      0000
 4582              	_ZNK12_GLOBAL__N_151TestCheckEqualFailureIncludesCheckExpectedAndActual7RunImplEv:
 4583              	.LFB1116:
 4584              		.cfi_startproc
 4585              		.cfi_personality 0x3,__gxx_personality_v0
 4586              		.cfi_lsda 0x3,.LLSDA1116
 4587 2970 53       		pushq	%rbx
 4588              		.cfi_def_cfa_offset 16
 4589              		.cfi_offset 3, -16
 4590 2971 4881ECA0 		subq	$2208, %rsp
 4590      080000
 4591              		.cfi_def_cfa_offset 2224
 4592 2978 488D7424 		leaq	96(%rsp), %rsi
 4592      60
 4593 297d 488D7C24 		leaq	32(%rsp), %rdi
 4593      20
 4594 2982 48C74424 		movq	$_ZTV17RecordingReporter+16, 96(%rsp)
 4594      60000000 
 4594      00
 4595 298b 64488B04 		movq	%fs:40, %rax
 4595      25280000 
 4595      00
 4596 2994 48898424 		movq	%rax, 2200(%rsp)
 4596      98080000 
 4597 299c 31C0     		xorl	%eax, %eax
 4598 299e C7442468 		movl	$0, 104(%rsp)
 4598      00000000 
 4599 29a6 C784246C 		movl	$0, 620(%rsp)
 4599      02000000 
 4599      000000
 4600 29b1 C7842470 		movl	$0, 880(%rsp)
 4600      03000000 
 4600      000000
 4601 29bc C7842474 		movl	$0, 1652(%rsp)
 4601      06000000 
 4601      000000
 4602 29c7 C7842478 		movl	$0x00000000, 2168(%rsp)
 4602      08000000 
 4602      000000
 4603 29d2 C784247C 		movl	$0, 2172(%rsp)
 4603      08000000 
 4603      000000
 4604 29dd C7842480 		movl	$0, 2176(%rsp)
 4604      08000000 
 4604      000000
 4605 29e8 C7842484 		movl	$0, 2180(%rsp)
 4605      08000000 
 4605      000000
 4606 29f3 C7842488 		movl	$0x00000000, 2184(%rsp)
 4606      08000000 
 4606      000000
 4607 29fe C644246C 		movb	$0, 108(%rsp)
 4607      00
 4608 2a03 C684246C 		movb	$0, 364(%rsp)
 4608      01000000 
 4609 2a0b C6842470 		movb	$0, 624(%rsp)
 4609      02000000 
 4610 2a13 C6842474 		movb	$0, 884(%rsp)
 4610      03000000 
 4611 2a1b C6842474 		movb	$0, 1140(%rsp)
 4611      04000000 
 4612 2a23 C6842474 		movb	$0, 1396(%rsp)
 4612      05000000 
 4613 2a2b C6842478 		movb	$0, 1656(%rsp)
 4613      06000000 
 4614 2a33 C6842478 		movb	$0, 1912(%rsp)
 4614      07000000 
 4615              	.LEHB96:
 4616 2a3b E8000000 		call	_ZN8UnitTest11TestResultsC1EPNS_12TestReporterE
 4616      00
 4617 2a40 B9000000 		movl	$.LC1, %ecx
 4617      00
 4618 2a45 488D7C24 		leaq	64(%rsp), %rdi
 4618      40
 4619 2a4a 4531C0   		xorl	%r8d, %r8d
 4620 2a4d 4889CA   		movq	%rcx, %rdx
 4621 2a50 4889CE   		movq	%rcx, %rsi
 4622 2a53 C7042402 		movl	$2, (%rsp)
 4622      000000
 4623 2a5a E8000000 		call	_ZN8UnitTest11TestDetailsC1EPKcS2_S2_i
 4623      00
 4624 2a5f 488D4C24 		leaq	64(%rsp), %rcx
 4624      40
 4625 2a64 488D7424 		leaq	16(%rsp), %rsi
 4625      10
 4626 2a69 488D7C24 		leaq	32(%rsp), %rdi
 4626      20
 4627 2a6e 4889E2   		movq	%rsp, %rdx
 4628 2a71 C7442410 		movl	$1, 16(%rsp)
 4628      01000000 
 4629 2a79 E8000000 		call	_ZN8UnitTest10CheckEqualIiiEEvRNS_11TestResultsERKT_RKT0_RKNS_11TestDetailsE
 4629      00
 4630              	.LEHE96:
 4631 2a7e 488DBC24 		leaq	1396(%rsp), %rdi
 4631      74050000 
 4632 2a86 BE000000 		movl	$.LC59, %esi
 4632      00
 4633 2a8b E8000000 		call	strstr
 4633      00
 4634 2a90 4885C0   		testq	%rax, %rax
 4635 2a93 747B     		je	.L523
 4636              	.L505:
 4637 2a95 488DBC24 		leaq	1396(%rsp), %rdi
 4637      74050000 
 4638 2a9d BE000000 		movl	$.LC61, %esi
 4638      00
 4639 2aa2 E8000000 		call	strstr
 4639      00
 4640 2aa7 4885C0   		testq	%rax, %rax
 4641 2aaa 7434     		je	.L524
 4642              	.L507:
 4643 2aac 488D7C24 		leaq	96(%rsp), %rdi
 4643      60
 4644 2ab1 48C74424 		movq	$_ZTV17RecordingReporter+16, 96(%rsp)
 4644      60000000 
 4644      00
 4645              	.LEHB97:
 4646 2aba E8000000 		call	_ZN8UnitTest12TestReporterD2Ev
 4646      00
 4647              	.LEHE97:
 4648 2abf 488B8424 		movq	2200(%rsp), %rax
 4648      98080000 
 4649 2ac7 64483304 		xorq	%fs:40, %rax
 4649      25280000 
 4649      00
 4650 2ad0 7571     		jne	.L525
 4651 2ad2 4881C4A0 		addq	$2208, %rsp
 4651      080000
 4652              		.cfi_remember_state
 4653              		.cfi_def_cfa_offset 16
 4654 2ad9 5B       		popq	%rbx
 4655              		.cfi_def_cfa_offset 8
 4656 2ada C3       		ret
 4657 2adb 0F1F4400 		.p2align 4,,10
 4657      00
 4658              		.p2align 3
 4659              	.L524:
 4660              		.cfi_restore_state
 4661              	.LEHB98:
 4662 2ae0 E8000000 		call	_ZN8UnitTest11CurrentTest7DetailsEv
 4662      00
 4663 2ae5 488B30   		movq	(%rax), %rsi
 4664 2ae8 488D7C24 		leaq	64(%rsp), %rdi
 4664      40
 4665 2aed BA520000 		movl	$82, %edx
 4665      00
 4666 2af2 E8000000 		call	_ZN8UnitTest11TestDetailsC1ERKS0_i
 4666      00
 4667 2af7 E8000000 		call	_ZN8UnitTest11CurrentTest7ResultsEv
 4667      00
 4668 2afc 488B38   		movq	(%rax), %rdi
 4669 2aff 488D7424 		leaq	64(%rsp), %rsi
 4669      40
 4670 2b04 BA000000 		movl	$.LC62, %edx
 4670      00
 4671 2b09 E8000000 		call	_ZN8UnitTest11TestResults13OnTestFailureERKNS_11TestDetailsEPKc
 4671      00
 4672              	.LEHE98:
 4673 2b0e EB9C     		jmp	.L507
 4674              		.p2align 4,,10
 4675              		.p2align 3
 4676              	.L523:
 4677              	.LEHB99:
 4678 2b10 E8000000 		call	_ZN8UnitTest11CurrentTest7DetailsEv
 4678      00
 4679 2b15 488B30   		movq	(%rax), %rsi
 4680 2b18 488D7C24 		leaq	64(%rsp), %rdi
 4680      40
 4681 2b1d BA510000 		movl	$81, %edx
 4681      00
 4682 2b22 E8000000 		call	_ZN8UnitTest11TestDetailsC1ERKS0_i
 4682      00
 4683 2b27 E8000000 		call	_ZN8UnitTest11CurrentTest7ResultsEv
 4683      00
 4684 2b2c 488B38   		movq	(%rax), %rdi
 4685 2b2f 488D7424 		leaq	64(%rsp), %rsi
 4685      40
 4686 2b34 BA000000 		movl	$.LC60, %edx
 4686      00
 4687 2b39 E8000000 		call	_ZN8UnitTest11TestResults13OnTestFailureERKNS_11TestDetailsEPKc
 4687      00
 4688              	.LEHE99:
 4689 2b3e E952FFFF 		jmp	.L505
 4689      FF
 4690              	.L525:
 4691 2b43 E8000000 		call	__stack_chk_fail
 4691      00
 4692              	.L517:
 4693 2b48 4889C7   		movq	%rax, %rdi
 4694 2b4b 0F1F4400 		.p2align 4,,5
 4694      00
 4695 2b50 E8000000 		call	__cxa_begin_catch
 4695      00
 4696              	.LEHB100:
 4697 2b55 E8000000 		call	_ZN8UnitTest11CurrentTest7DetailsEv
 4697      00
 4698 2b5a 488B30   		movq	(%rax), %rsi
 4699 2b5d 488D7C24 		leaq	64(%rsp), %rdi
 4699      40
 4700 2b62 BA510000 		movl	$81, %edx
 4700      00
 4701 2b67 E8000000 		call	_ZN8UnitTest11TestDetailsC1ERKS0_i
 4701      00
 4702 2b6c E8000000 		call	_ZN8UnitTest11CurrentTest7ResultsEv
 4702      00
 4703 2b71 488B38   		movq	(%rax), %rdi
 4704 2b74 488D7424 		leaq	64(%rsp), %rsi
 4704      40
 4705 2b79 BA000000 		movl	$.LC63, %edx
 4705      00
 4706 2b7e E8000000 		call	_ZN8UnitTest11TestResults13OnTestFailureERKNS_11TestDetailsEPKc
 4706      00
 4707              	.LEHE100:
 4708              	.LEHB101:
 4709 2b83 E8000000 		call	__cxa_end_catch
 4709      00
 4710              	.LEHE101:
 4711 2b88 E908FFFF 		jmp	.L505
 4711      FF
 4712              	.L516:
 4713 2b8d 4889C3   		movq	%rax, %rbx
 4714              	.L509:
 4715 2b90 488D7C24 		leaq	96(%rsp), %rdi
 4715      60
 4716 2b95 48C74424 		movq	$_ZTV17RecordingReporter+16, 96(%rsp)
 4716      60000000 
 4716      00
 4717 2b9e E8000000 		call	_ZN8UnitTest12TestReporterD2Ev
 4717      00
 4718 2ba3 4889DF   		movq	%rbx, %rdi
 4719              	.LEHB102:
 4720 2ba6 E8000000 		call	_Unwind_Resume
 4720      00
 4721              	.LEHE102:
 4722              	.L519:
 4723 2bab 4889C7   		movq	%rax, %rdi
 4724 2bae E8000000 		call	__cxa_begin_catch
 4724      00
 4725              	.LEHB103:
 4726 2bb3 E8000000 		call	_ZN8UnitTest11CurrentTest7DetailsEv
 4726      00
 4727 2bb8 488B30   		movq	(%rax), %rsi
 4728 2bbb 488D7C24 		leaq	64(%rsp), %rdi
 4728      40
 4729 2bc0 BA520000 		movl	$82, %edx
 4729      00
 4730 2bc5 E8000000 		call	_ZN8UnitTest11TestDetailsC1ERKS0_i
 4730      00
 4731 2bca E8000000 		call	_ZN8UnitTest11CurrentTest7ResultsEv
 4731      00
 4732 2bcf 488B38   		movq	(%rax), %rdi
 4733 2bd2 488D7424 		leaq	64(%rsp), %rsi
 4733      40
 4734 2bd7 BA000000 		movl	$.LC64, %edx
 4734      00
 4735 2bdc E8000000 		call	_ZN8UnitTest11TestResults13OnTestFailureERKNS_11TestDetailsEPKc
 4735      00
 4736              	.LEHE103:
 4737              	.LEHB104:
 4738 2be1 E8000000 		call	__cxa_end_catch
 4738      00
 4739              	.LEHE104:
 4740 2be6 E9C1FEFF 		jmp	.L507
 4740      FF
 4741              	.L518:
 4742 2beb 4889C3   		movq	%rax, %rbx
 4743 2bee 6690     		.p2align 4,,5
 4744 2bf0 E8000000 		call	__cxa_end_catch
 4744      00
 4745              		.p2align 4,,5
 4746 2bf5 EB99     		jmp	.L509
 4747              	.L520:
 4748 2bf7 4889C3   		movq	%rax, %rbx
 4749 2bfa E8000000 		call	__cxa_end_catch
 4749      00
 4750 2bff 90       		.p2align 4,,5
 4751 2c00 EB8E     		jmp	.L509
 4752              		.cfi_endproc
 4753              	.LFE1116:
 4754              		.section	.gcc_except_table
 4755              		.align 4
 4756              	.LLSDA1116:
 4757 028c FF       		.byte	0xff
 4758 028d 03       		.byte	0x3
 4759 028e 3D       		.uleb128 .LLSDATT1116-.LLSDATTD1116
 4760              	.LLSDATTD1116:
 4761 028f 01       		.byte	0x1
 4762 0290 34       		.uleb128 .LLSDACSE1116-.LLSDACSB1116
 4763              	.LLSDACSB1116:
 4764 0291 CB01     		.uleb128 .LEHB96-.LFB1116
 4765 0293 43       		.uleb128 .LEHE96-.LEHB96
 4766 0294 9D04     		.uleb128 .L516-.LFB1116
 4767 0296 00       		.uleb128 0
 4768 0297 CA02     		.uleb128 .LEHB97-.LFB1116
 4769 0299 05       		.uleb128 .LEHE97-.LEHB97
 4770 029a 00       		.uleb128 0
 4771 029b 00       		.uleb128 0
 4772 029c F002     		.uleb128 .LEHB98-.LFB1116
 4773 029e 2E       		.uleb128 .LEHE98-.LEHB98
 4774 029f BB04     		.uleb128 .L519-.LFB1116
 4775 02a1 01       		.uleb128 0x1
 4776 02a2 A003     		.uleb128 .LEHB99-.LFB1116
 4777 02a4 2E       		.uleb128 .LEHE99-.LEHB99
 4778 02a5 D803     		.uleb128 .L517-.LFB1116
 4779 02a7 01       		.uleb128 0x1
 4780 02a8 E503     		.uleb128 .LEHB100-.LFB1116
 4781 02aa 2E       		.uleb128 .LEHE100-.LEHB100
 4782 02ab FB04     		.uleb128 .L518-.LFB1116
 4783 02ad 00       		.uleb128 0
 4784 02ae 9304     		.uleb128 .LEHB101-.LFB1116
 4785 02b0 05       		.uleb128 .LEHE101-.LEHB101
 4786 02b1 9D04     		.uleb128 .L516-.LFB1116
 4787 02b3 00       		.uleb128 0
 4788 02b4 B604     		.uleb128 .LEHB102-.LFB1116
 4789 02b6 05       		.uleb128 .LEHE102-.LEHB102
 4790 02b7 00       		.uleb128 0
 4791 02b8 00       		.uleb128 0
 4792 02b9 C304     		.uleb128 .LEHB103-.LFB1116
 4793 02bb 2E       		.uleb128 .LEHE103-.LEHB103
 4794 02bc 8705     		.uleb128 .L520-.LFB1116
 4795 02be 00       		.uleb128 0
 4796 02bf F104     		.uleb128 .LEHB104-.LFB1116
 4797 02c1 05       		.uleb128 .LEHE104-.LEHB104
 4798 02c2 9D04     		.uleb128 .L516-.LFB1116
 4799 02c4 00       		.uleb128 0
 4800              	.LLSDACSE1116:
 4801 02c5 01       		.byte	0x1
 4802 02c6 00       		.byte	0
 4803 02c7 00       		.align 4
 4804 02c8 00000000 		.long	0
 4805              	
 4806              	.LLSDATT1116:
 4807              		.text
 4809              		.section	.rodata.str1.1
 4810              	.LC65:
 4811 00b8 48656C6C 		.string	"Hello"
 4811      6F00
 4812              		.text
 4813              		.align 2
 4814 2c02 66666666 		.p2align 4,,15
 4814      662E0F1F 
 4814      84000000 
 4814      0000
 4816              	_ZNK12_GLOBAL__N_153TestCheckEqualsWithStringsWorksOnContentsWithALiteral7RunImplEv:
 4817              	.LFB1112:
 4818              		.cfi_startproc
 4819              		.cfi_personality 0x3,__gxx_personality_v0
 4820              		.cfi_lsda 0x3,.LLSDA1112
 4821 2c10 53       		pushq	%rbx
 4822              		.cfi_def_cfa_offset 16
 4823              		.cfi_offset 3, -16
 4824 2c11 31F6     		xorl	%esi, %esi
 4825 2c13 4883EC60 		subq	$96, %rsp
 4826              		.cfi_def_cfa_offset 112
 4827 2c17 488D7C24 		leaq	32(%rsp), %rdi
 4827      20
 4828              	.LEHB105:
 4829 2c1c E8000000 		call	_ZN8UnitTest11TestResultsC1EPNS_12TestReporterE
 4829      00
 4830 2c21 B9000000 		movl	$.LC1, %ecx
 4830      00
 4831 2c26 488D7C24 		leaq	64(%rsp), %rdi
 4831      40
 4832 2c2b 4531C0   		xorl	%r8d, %r8d
 4833 2c2e 4889CA   		movq	%rcx, %rdx
 4834 2c31 4889CE   		movq	%rcx, %rsi
 4835 2c34 E8000000 		call	_ZN8UnitTest11TestDetailsC1EPKcS2_S2_i
 4835      00
 4836 2c39 488D4C24 		leaq	64(%rsp), %rcx
 4836      40
 4837 2c3e 488D7C24 		leaq	32(%rsp), %rdi
 4837      20
 4838 2c43 BA000000 		movl	$_ZN12_GLOBAL__N_14txt1E, %edx
 4838      00
 4839 2c48 BE000000 		movl	$.LC65, %esi
 4839      00
 4840 2c4d E8000000 		call	_ZN8UnitTest10CheckEqualERNS_11TestResultsEPKcS3_RKNS_11TestDetailsE
 4840      00
 4841              	.LEHE105:
 4842              	.LEHB106:
 4843 2c52 E8000000 		call	_ZN8UnitTest11CurrentTest7DetailsEv
 4843      00
 4844 2c57 488B30   		movq	(%rax), %rsi
 4845 2c5a 488D7C24 		leaq	64(%rsp), %rdi
 4845      40
 4846 2c5f BA460000 		movl	$70, %edx
 4846      00
 4847 2c64 E8000000 		call	_ZN8UnitTest11TestDetailsC1ERKS0_i
 4847      00
 4848 2c69 488D7C24 		leaq	32(%rsp), %rdi
 4848      20
 4849 2c6e E8000000 		call	_ZNK8UnitTest11TestResults15GetFailureCountEv
 4849      00
 4850 2c73 89442410 		movl	%eax, 16(%rsp)
 4851 2c77 C7042400 		movl	$0, (%rsp)
 4851      000000
 4852 2c7e E8000000 		call	_ZN8UnitTest11CurrentTest7ResultsEv
 4852      00
 4853 2c83 488B38   		movq	(%rax), %rdi
 4854 2c86 488D4C24 		leaq	64(%rsp), %rcx
 4854      40
 4855 2c8b 488D5424 		leaq	16(%rsp), %rdx
 4855      10
 4856 2c90 4889E6   		movq	%rsp, %rsi
 4857 2c93 E8000000 		call	_ZN8UnitTest10CheckEqualIiiEEvRNS_11TestResultsERKT_RKT0_RKNS_11TestDetailsE
 4857      00
 4858              	.LEHE106:
 4859              	.L526:
 4860 2c98 4883C460 		addq	$96, %rsp
 4861              		.cfi_remember_state
 4862              		.cfi_def_cfa_offset 16
 4863 2c9c 5B       		popq	%rbx
 4864              		.cfi_def_cfa_offset 8
 4865 2c9d C3       		ret
 4866              	.L530:
 4867              		.cfi_restore_state
 4868 2c9e 4889C7   		movq	%rax, %rdi
 4869 2ca1 E8000000 		call	__cxa_begin_catch
 4869      00
 4870              	.LEHB107:
 4871 2ca6 E8000000 		call	_ZN8UnitTest11CurrentTest7DetailsEv
 4871      00
 4872 2cab 488B30   		movq	(%rax), %rsi
 4873 2cae 488D7C24 		leaq	64(%rsp), %rdi
 4873      40
 4874 2cb3 BA460000 		movl	$70, %edx
 4874      00
 4875 2cb8 E8000000 		call	_ZN8UnitTest11TestDetailsC1ERKS0_i
 4875      00
 4876 2cbd E8000000 		call	_ZN8UnitTest11CurrentTest7ResultsEv
 4876      00
 4877 2cc2 488B38   		movq	(%rax), %rdi
 4878 2cc5 488D7424 		leaq	64(%rsp), %rsi
 4878      40
 4879 2cca BA000000 		movl	$.LC51, %edx
 4879      00
 4880 2ccf E8000000 		call	_ZN8UnitTest11TestResults13OnTestFailureERKNS_11TestDetailsEPKc
 4880      00
 4881              	.LEHE107:
 4882              	.LEHB108:
 4883 2cd4 E8000000 		call	__cxa_end_catch
 4883      00
 4884              	.LEHE108:
 4885 2cd9 EBBD     		jmp	.L526
 4886              	.L531:
 4887 2cdb 4889C3   		movq	%rax, %rbx
 4888 2cde 6690     		.p2align 4,,5
 4889 2ce0 E8000000 		call	__cxa_end_catch
 4889      00
 4890 2ce5 4889DF   		movq	%rbx, %rdi
 4891              	.LEHB109:
 4892 2ce8 E8000000 		call	_Unwind_Resume
 4892      00
 4893              	.LEHE109:
 4894              		.cfi_endproc
 4895              	.LFE1112:
 4896              		.section	.gcc_except_table
 4897              		.align 4
 4898              	.LLSDA1112:
 4899 02cc FF       		.byte	0xff
 4900 02cd 03       		.byte	0x3
 4901 02ce 21       		.uleb128 .LLSDATT1112-.LLSDATTD1112
 4902              	.LLSDATTD1112:
 4903 02cf 01       		.byte	0x1
 4904 02d0 19       		.uleb128 .LLSDACSE1112-.LLSDACSB1112
 4905              	.LLSDACSB1112:
 4906 02d1 0C       		.uleb128 .LEHB105-.LFB1112
 4907 02d2 36       		.uleb128 .LEHE105-.LEHB105
 4908 02d3 00       		.uleb128 0
 4909 02d4 00       		.uleb128 0
 4910 02d5 42       		.uleb128 .LEHB106-.LFB1112
 4911 02d6 46       		.uleb128 .LEHE106-.LEHB106
 4912 02d7 8E01     		.uleb128 .L530-.LFB1112
 4913 02d9 01       		.uleb128 0x1
 4914 02da 9601     		.uleb128 .LEHB107-.LFB1112
 4915 02dc 2E       		.uleb128 .LEHE107-.LEHB107
 4916 02dd CB01     		.uleb128 .L531-.LFB1112
 4917 02df 00       		.uleb128 0
 4918 02e0 C401     		.uleb128 .LEHB108-.LFB1112
 4919 02e2 05       		.uleb128 .LEHE108-.LEHB108
 4920 02e3 00       		.uleb128 0
 4921 02e4 00       		.uleb128 0
 4922 02e5 D801     		.uleb128 .LEHB109-.LFB1112
 4923 02e7 05       		.uleb128 .LEHE109-.LEHB109
 4924 02e8 00       		.uleb128 0
 4925 02e9 00       		.uleb128 0
 4926              	.LLSDACSE1112:
 4927 02ea 01       		.byte	0x1
 4928 02eb 00       		.byte	0
 4929              		.align 4
 4930 02ec 00000000 		.long	0
 4931              	
 4932              	.LLSDATT1112:
 4933              		.text
 4935 2ced 90       		.align 2
 4936 2cee 6690     		.p2align 4,,15
 4938              	_ZNK12_GLOBAL__N_154TestCheckEqualsWithStringsWorksOnContentsConstNonConst7RunImplEv:
 4939              	.LFB1108:
 4940              		.cfi_startproc
 4941              		.cfi_personality 0x3,__gxx_personality_v0
 4942              		.cfi_lsda 0x3,.LLSDA1108
 4943 2cf0 53       		pushq	%rbx
 4944              		.cfi_def_cfa_offset 16
 4945              		.cfi_offset 3, -16
 4946 2cf1 31F6     		xorl	%esi, %esi
 4947 2cf3 4883EC60 		subq	$96, %rsp
 4948              		.cfi_def_cfa_offset 112
 4949 2cf7 488D7C24 		leaq	32(%rsp), %rdi
 4949      20
 4950              	.LEHB110:
 4951 2cfc E8000000 		call	_ZN8UnitTest11TestResultsC1EPNS_12TestReporterE
 4951      00
 4952 2d01 B9000000 		movl	$.LC1, %ecx
 4952      00
 4953 2d06 488D7C24 		leaq	64(%rsp), %rdi
 4953      40
 4954 2d0b 4531C0   		xorl	%r8d, %r8d
 4955 2d0e 4889CA   		movq	%rcx, %rdx
 4956 2d11 4889CE   		movq	%rcx, %rsi
 4957 2d14 E8000000 		call	_ZN8UnitTest11TestDetailsC1EPKcS2_S2_i
 4957      00
 4958 2d19 488D4C24 		leaq	64(%rsp), %rcx
 4958      40
 4959 2d1e 488D7C24 		leaq	32(%rsp), %rdi
 4959      20
 4960 2d23 BA000000 		movl	$_ZN12_GLOBAL__N_14txt2E, %edx
 4960      00
 4961 2d28 BE000000 		movl	$_ZN12_GLOBAL__N_14txt1E, %esi
 4961      00
 4962 2d2d E8000000 		call	_ZN8UnitTest10CheckEqualERNS_11TestResultsEPKcPcRKNS_11TestDetailsE
 4962      00
 4963              	.LEHE110:
 4964              	.LEHB111:
 4965 2d32 E8000000 		call	_ZN8UnitTest11CurrentTest7DetailsEv
 4965      00
 4966 2d37 488B30   		movq	(%rax), %rsi
 4967 2d3a 488D7C24 		leaq	64(%rsp), %rdi
 4967      40
 4968 2d3f BA3E0000 		movl	$62, %edx
 4968      00
 4969 2d44 E8000000 		call	_ZN8UnitTest11TestDetailsC1ERKS0_i
 4969      00
 4970 2d49 488D7C24 		leaq	32(%rsp), %rdi
 4970      20
 4971 2d4e E8000000 		call	_ZNK8UnitTest11TestResults15GetFailureCountEv
 4971      00
 4972 2d53 89442410 		movl	%eax, 16(%rsp)
 4973 2d57 C7042400 		movl	$0, (%rsp)
 4973      000000
 4974 2d5e E8000000 		call	_ZN8UnitTest11CurrentTest7ResultsEv
 4974      00
 4975 2d63 488B38   		movq	(%rax), %rdi
 4976 2d66 488D4C24 		leaq	64(%rsp), %rcx
 4976      40
 4977 2d6b 488D5424 		leaq	16(%rsp), %rdx
 4977      10
 4978 2d70 4889E6   		movq	%rsp, %rsi
 4979 2d73 E8000000 		call	_ZN8UnitTest10CheckEqualIiiEEvRNS_11TestResultsERKT_RKT0_RKNS_11TestDetailsE
 4979      00
 4980              	.LEHE111:
 4981              	.L533:
 4982 2d78 4883C460 		addq	$96, %rsp
 4983              		.cfi_remember_state
 4984              		.cfi_def_cfa_offset 16
 4985 2d7c 5B       		popq	%rbx
 4986              		.cfi_def_cfa_offset 8
 4987 2d7d C3       		ret
 4988              	.L537:
 4989              		.cfi_restore_state
 4990 2d7e 4889C7   		movq	%rax, %rdi
 4991 2d81 E8000000 		call	__cxa_begin_catch
 4991      00
 4992              	.LEHB112:
 4993 2d86 E8000000 		call	_ZN8UnitTest11CurrentTest7DetailsEv
 4993      00
 4994 2d8b 488B30   		movq	(%rax), %rsi
 4995 2d8e 488D7C24 		leaq	64(%rsp), %rdi
 4995      40
 4996 2d93 BA3E0000 		movl	$62, %edx
 4996      00
 4997 2d98 E8000000 		call	_ZN8UnitTest11TestDetailsC1ERKS0_i
 4997      00
 4998 2d9d E8000000 		call	_ZN8UnitTest11CurrentTest7ResultsEv
 4998      00
 4999 2da2 488B38   		movq	(%rax), %rdi
 5000 2da5 488D7424 		leaq	64(%rsp), %rsi
 5000      40
 5001 2daa BA000000 		movl	$.LC51, %edx
 5001      00
 5002 2daf E8000000 		call	_ZN8UnitTest11TestResults13OnTestFailureERKNS_11TestDetailsEPKc
 5002      00
 5003              	.LEHE112:
 5004              	.LEHB113:
 5005 2db4 E8000000 		call	__cxa_end_catch
 5005      00
 5006              	.LEHE113:
 5007 2db9 EBBD     		jmp	.L533
 5008              	.L538:
 5009 2dbb 4889C3   		movq	%rax, %rbx
 5010 2dbe 6690     		.p2align 4,,5
 5011 2dc0 E8000000 		call	__cxa_end_catch
 5011      00
 5012 2dc5 4889DF   		movq	%rbx, %rdi
 5013              	.LEHB114:
 5014 2dc8 E8000000 		call	_Unwind_Resume
 5014      00
 5015              	.LEHE114:
 5016              		.cfi_endproc
 5017              	.LFE1108:
 5018              		.section	.gcc_except_table
 5019              		.align 4
 5020              	.LLSDA1108:
 5021 02f0 FF       		.byte	0xff
 5022 02f1 03       		.byte	0x3
 5023 02f2 21       		.uleb128 .LLSDATT1108-.LLSDATTD1108
 5024              	.LLSDATTD1108:
 5025 02f3 01       		.byte	0x1
 5026 02f4 19       		.uleb128 .LLSDACSE1108-.LLSDACSB1108
 5027              	.LLSDACSB1108:
 5028 02f5 0C       		.uleb128 .LEHB110-.LFB1108
 5029 02f6 36       		.uleb128 .LEHE110-.LEHB110
 5030 02f7 00       		.uleb128 0
 5031 02f8 00       		.uleb128 0
 5032 02f9 42       		.uleb128 .LEHB111-.LFB1108
 5033 02fa 46       		.uleb128 .LEHE111-.LEHB111
 5034 02fb 8E01     		.uleb128 .L537-.LFB1108
 5035 02fd 01       		.uleb128 0x1
 5036 02fe 9601     		.uleb128 .LEHB112-.LFB1108
 5037 0300 2E       		.uleb128 .LEHE112-.LEHB112
 5038 0301 CB01     		.uleb128 .L538-.LFB1108
 5039 0303 00       		.uleb128 0
 5040 0304 C401     		.uleb128 .LEHB113-.LFB1108
 5041 0306 05       		.uleb128 .LEHE113-.LEHB113
 5042 0307 00       		.uleb128 0
 5043 0308 00       		.uleb128 0
 5044 0309 D801     		.uleb128 .LEHB114-.LFB1108
 5045 030b 05       		.uleb128 .LEHE114-.LEHB114
 5046 030c 00       		.uleb128 0
 5047 030d 00       		.uleb128 0
 5048              	.LLSDACSE1108:
 5049 030e 01       		.byte	0x1
 5050 030f 00       		.byte	0
 5051              		.align 4
 5052 0310 00000000 		.long	0
 5053              	
 5054              	.LLSDATT1108:
 5055              		.text
 5057 2dcd 90       		.align 2
 5058 2dce 6690     		.p2align 4,,15
 5060              	_ZNK12_GLOBAL__N_154TestCheckEqualsWithStringsWorksOnContentsNonConstConst7RunImplEv:
 5061              	.LFB1104:
 5062              		.cfi_startproc
 5063              		.cfi_personality 0x3,__gxx_personality_v0
 5064              		.cfi_lsda 0x3,.LLSDA1104
 5065 2dd0 53       		pushq	%rbx
 5066              		.cfi_def_cfa_offset 16
 5067              		.cfi_offset 3, -16
 5068 2dd1 31F6     		xorl	%esi, %esi
 5069 2dd3 4883EC60 		subq	$96, %rsp
 5070              		.cfi_def_cfa_offset 112
 5071 2dd7 488D7C24 		leaq	32(%rsp), %rdi
 5071      20
 5072              	.LEHB115:
 5073 2ddc E8000000 		call	_ZN8UnitTest11TestResultsC1EPNS_12TestReporterE
 5073      00
 5074 2de1 B9000000 		movl	$.LC1, %ecx
 5074      00
 5075 2de6 488D7C24 		leaq	64(%rsp), %rdi
 5075      40
 5076 2deb 4531C0   		xorl	%r8d, %r8d
 5077 2dee 4889CA   		movq	%rcx, %rdx
 5078 2df1 4889CE   		movq	%rcx, %rsi
 5079 2df4 E8000000 		call	_ZN8UnitTest11TestDetailsC1EPKcS2_S2_i
 5079      00
 5080 2df9 488D4C24 		leaq	64(%rsp), %rcx
 5080      40
 5081 2dfe 488D7C24 		leaq	32(%rsp), %rdi
 5081      20
 5082 2e03 BA000000 		movl	$_ZN12_GLOBAL__N_14txt2E, %edx
 5082      00
 5083 2e08 BE000000 		movl	$_ZN12_GLOBAL__N_14txt1E, %esi
 5083      00
 5084 2e0d E8000000 		call	_ZN8UnitTest10CheckEqualERNS_11TestResultsEPcPKcRKNS_11TestDetailsE
 5084      00
 5085              	.LEHE115:
 5086              	.LEHB116:
 5087 2e12 E8000000 		call	_ZN8UnitTest11CurrentTest7DetailsEv
 5087      00
 5088 2e17 488B30   		movq	(%rax), %rsi
 5089 2e1a 488D7C24 		leaq	64(%rsp), %rdi
 5089      40
 5090 2e1f BA350000 		movl	$53, %edx
 5090      00
 5091 2e24 E8000000 		call	_ZN8UnitTest11TestDetailsC1ERKS0_i
 5091      00
 5092 2e29 488D7C24 		leaq	32(%rsp), %rdi
 5092      20
 5093 2e2e E8000000 		call	_ZNK8UnitTest11TestResults15GetFailureCountEv
 5093      00
 5094 2e33 89442410 		movl	%eax, 16(%rsp)
 5095 2e37 C7042400 		movl	$0, (%rsp)
 5095      000000
 5096 2e3e E8000000 		call	_ZN8UnitTest11CurrentTest7ResultsEv
 5096      00
 5097 2e43 488B38   		movq	(%rax), %rdi
 5098 2e46 488D4C24 		leaq	64(%rsp), %rcx
 5098      40
 5099 2e4b 488D5424 		leaq	16(%rsp), %rdx
 5099      10
 5100 2e50 4889E6   		movq	%rsp, %rsi
 5101 2e53 E8000000 		call	_ZN8UnitTest10CheckEqualIiiEEvRNS_11TestResultsERKT_RKT0_RKNS_11TestDetailsE
 5101      00
 5102              	.LEHE116:
 5103              	.L540:
 5104 2e58 4883C460 		addq	$96, %rsp
 5105              		.cfi_remember_state
 5106              		.cfi_def_cfa_offset 16
 5107 2e5c 5B       		popq	%rbx
 5108              		.cfi_def_cfa_offset 8
 5109 2e5d C3       		ret
 5110              	.L544:
 5111              		.cfi_restore_state
 5112 2e5e 4889C7   		movq	%rax, %rdi
 5113 2e61 E8000000 		call	__cxa_begin_catch
 5113      00
 5114              	.LEHB117:
 5115 2e66 E8000000 		call	_ZN8UnitTest11CurrentTest7DetailsEv
 5115      00
 5116 2e6b 488B30   		movq	(%rax), %rsi
 5117 2e6e 488D7C24 		leaq	64(%rsp), %rdi
 5117      40
 5118 2e73 BA350000 		movl	$53, %edx
 5118      00
 5119 2e78 E8000000 		call	_ZN8UnitTest11TestDetailsC1ERKS0_i
 5119      00
 5120 2e7d E8000000 		call	_ZN8UnitTest11CurrentTest7ResultsEv
 5120      00
 5121 2e82 488B38   		movq	(%rax), %rdi
 5122 2e85 488D7424 		leaq	64(%rsp), %rsi
 5122      40
 5123 2e8a BA000000 		movl	$.LC51, %edx
 5123      00
 5124 2e8f E8000000 		call	_ZN8UnitTest11TestResults13OnTestFailureERKNS_11TestDetailsEPKc
 5124      00
 5125              	.LEHE117:
 5126              	.LEHB118:
 5127 2e94 E8000000 		call	__cxa_end_catch
 5127      00
 5128              	.LEHE118:
 5129 2e99 EBBD     		jmp	.L540
 5130              	.L545:
 5131 2e9b 4889C3   		movq	%rax, %rbx
 5132 2e9e 6690     		.p2align 4,,5
 5133 2ea0 E8000000 		call	__cxa_end_catch
 5133      00
 5134 2ea5 4889DF   		movq	%rbx, %rdi
 5135              	.LEHB119:
 5136 2ea8 E8000000 		call	_Unwind_Resume
 5136      00
 5137              	.LEHE119:
 5138              		.cfi_endproc
 5139              	.LFE1104:
 5140              		.section	.gcc_except_table
 5141              		.align 4
 5142              	.LLSDA1104:
 5143 0314 FF       		.byte	0xff
 5144 0315 03       		.byte	0x3
 5145 0316 21       		.uleb128 .LLSDATT1104-.LLSDATTD1104
 5146              	.LLSDATTD1104:
 5147 0317 01       		.byte	0x1
 5148 0318 19       		.uleb128 .LLSDACSE1104-.LLSDACSB1104
 5149              	.LLSDACSB1104:
 5150 0319 0C       		.uleb128 .LEHB115-.LFB1104
 5151 031a 36       		.uleb128 .LEHE115-.LEHB115
 5152 031b 00       		.uleb128 0
 5153 031c 00       		.uleb128 0
 5154 031d 42       		.uleb128 .LEHB116-.LFB1104
 5155 031e 46       		.uleb128 .LEHE116-.LEHB116
 5156 031f 8E01     		.uleb128 .L544-.LFB1104
 5157 0321 01       		.uleb128 0x1
 5158 0322 9601     		.uleb128 .LEHB117-.LFB1104
 5159 0324 2E       		.uleb128 .LEHE117-.LEHB117
 5160 0325 CB01     		.uleb128 .L545-.LFB1104
 5161 0327 00       		.uleb128 0
 5162 0328 C401     		.uleb128 .LEHB118-.LFB1104
 5163 032a 05       		.uleb128 .LEHE118-.LEHB118
 5164 032b 00       		.uleb128 0
 5165 032c 00       		.uleb128 0
 5166 032d D801     		.uleb128 .LEHB119-.LFB1104
 5167 032f 05       		.uleb128 .LEHE119-.LEHB119
 5168 0330 00       		.uleb128 0
 5169 0331 00       		.uleb128 0
 5170              	.LLSDACSE1104:
 5171 0332 01       		.byte	0x1
 5172 0333 00       		.byte	0
 5173              		.align 4
 5174 0334 00000000 		.long	0
 5175              	
 5176              	.LLSDATT1104:
 5177              		.text
 5179 2ead 90       		.align 2
 5180 2eae 6690     		.p2align 4,,15
 5182              	_ZNK12_GLOBAL__N_151TestCheckEqualsWithStringsWorksOnContentsConstConst7RunImplEv:
 5183              	.LFB1100:
 5184              		.cfi_startproc
 5185              		.cfi_personality 0x3,__gxx_personality_v0
 5186              		.cfi_lsda 0x3,.LLSDA1100
 5187 2eb0 53       		pushq	%rbx
 5188              		.cfi_def_cfa_offset 16
 5189              		.cfi_offset 3, -16
 5190 2eb1 31F6     		xorl	%esi, %esi
 5191 2eb3 4883EC60 		subq	$96, %rsp
 5192              		.cfi_def_cfa_offset 112
 5193 2eb7 488D7C24 		leaq	32(%rsp), %rdi
 5193      20
 5194              	.LEHB120:
 5195 2ebc E8000000 		call	_ZN8UnitTest11TestResultsC1EPNS_12TestReporterE
 5195      00
 5196 2ec1 B9000000 		movl	$.LC1, %ecx
 5196      00
 5197 2ec6 488D7C24 		leaq	64(%rsp), %rdi
 5197      40
 5198 2ecb 4531C0   		xorl	%r8d, %r8d
 5199 2ece 4889CA   		movq	%rcx, %rdx
 5200 2ed1 4889CE   		movq	%rcx, %rsi
 5201 2ed4 E8000000 		call	_ZN8UnitTest11TestDetailsC1EPKcS2_S2_i
 5201      00
 5202 2ed9 488D4C24 		leaq	64(%rsp), %rcx
 5202      40
 5203 2ede 488D7C24 		leaq	32(%rsp), %rdi
 5203      20
 5204 2ee3 BA000000 		movl	$_ZN12_GLOBAL__N_14txt2E, %edx
 5204      00
 5205 2ee8 BE000000 		movl	$_ZN12_GLOBAL__N_14txt1E, %esi
 5205      00
 5206 2eed E8000000 		call	_ZN8UnitTest10CheckEqualERNS_11TestResultsEPcS2_RKNS_11TestDetailsE
 5206      00
 5207              	.LEHE120:
 5208              	.LEHB121:
 5209 2ef2 E8000000 		call	_ZN8UnitTest11CurrentTest7DetailsEv
 5209      00
 5210 2ef7 488B30   		movq	(%rax), %rsi
 5211 2efa 488D7C24 		leaq	64(%rsp), %rdi
 5211      40
 5212 2eff BA2C0000 		movl	$44, %edx
 5212      00
 5213 2f04 E8000000 		call	_ZN8UnitTest11TestDetailsC1ERKS0_i
 5213      00
 5214 2f09 488D7C24 		leaq	32(%rsp), %rdi
 5214      20
 5215 2f0e E8000000 		call	_ZNK8UnitTest11TestResults15GetFailureCountEv
 5215      00
 5216 2f13 89442410 		movl	%eax, 16(%rsp)
 5217 2f17 C7042400 		movl	$0, (%rsp)
 5217      000000
 5218 2f1e E8000000 		call	_ZN8UnitTest11CurrentTest7ResultsEv
 5218      00
 5219 2f23 488B38   		movq	(%rax), %rdi
 5220 2f26 488D4C24 		leaq	64(%rsp), %rcx
 5220      40
 5221 2f2b 488D5424 		leaq	16(%rsp), %rdx
 5221      10
 5222 2f30 4889E6   		movq	%rsp, %rsi
 5223 2f33 E8000000 		call	_ZN8UnitTest10CheckEqualIiiEEvRNS_11TestResultsERKT_RKT0_RKNS_11TestDetailsE
 5223      00
 5224              	.LEHE121:
 5225              	.L547:
 5226 2f38 4883C460 		addq	$96, %rsp
 5227              		.cfi_remember_state
 5228              		.cfi_def_cfa_offset 16
 5229 2f3c 5B       		popq	%rbx
 5230              		.cfi_def_cfa_offset 8
 5231 2f3d C3       		ret
 5232              	.L551:
 5233              		.cfi_restore_state
 5234 2f3e 4889C7   		movq	%rax, %rdi
 5235 2f41 E8000000 		call	__cxa_begin_catch
 5235      00
 5236              	.LEHB122:
 5237 2f46 E8000000 		call	_ZN8UnitTest11CurrentTest7DetailsEv
 5237      00
 5238 2f4b 488B30   		movq	(%rax), %rsi
 5239 2f4e 488D7C24 		leaq	64(%rsp), %rdi
 5239      40
 5240 2f53 BA2C0000 		movl	$44, %edx
 5240      00
 5241 2f58 E8000000 		call	_ZN8UnitTest11TestDetailsC1ERKS0_i
 5241      00
 5242 2f5d E8000000 		call	_ZN8UnitTest11CurrentTest7ResultsEv
 5242      00
 5243 2f62 488B38   		movq	(%rax), %rdi
 5244 2f65 488D7424 		leaq	64(%rsp), %rsi
 5244      40
 5245 2f6a BA000000 		movl	$.LC51, %edx
 5245      00
 5246 2f6f E8000000 		call	_ZN8UnitTest11TestResults13OnTestFailureERKNS_11TestDetailsEPKc
 5246      00
 5247              	.LEHE122:
 5248              	.LEHB123:
 5249 2f74 E8000000 		call	__cxa_end_catch
 5249      00
 5250              	.LEHE123:
 5251 2f79 EBBD     		jmp	.L547
 5252              	.L552:
 5253 2f7b 4889C3   		movq	%rax, %rbx
 5254 2f7e 6690     		.p2align 4,,5
 5255 2f80 E8000000 		call	__cxa_end_catch
 5255      00
 5256 2f85 4889DF   		movq	%rbx, %rdi
 5257              	.LEHB124:
 5258 2f88 E8000000 		call	_Unwind_Resume
 5258      00
 5259              	.LEHE124:
 5260              		.cfi_endproc
 5261              	.LFE1100:
 5262              		.section	.gcc_except_table
 5263              		.align 4
 5264              	.LLSDA1100:
 5265 0338 FF       		.byte	0xff
 5266 0339 03       		.byte	0x3
 5267 033a 21       		.uleb128 .LLSDATT1100-.LLSDATTD1100
 5268              	.LLSDATTD1100:
 5269 033b 01       		.byte	0x1
 5270 033c 19       		.uleb128 .LLSDACSE1100-.LLSDACSB1100
 5271              	.LLSDACSB1100:
 5272 033d 0C       		.uleb128 .LEHB120-.LFB1100
 5273 033e 36       		.uleb128 .LEHE120-.LEHB120
 5274 033f 00       		.uleb128 0
 5275 0340 00       		.uleb128 0
 5276 0341 42       		.uleb128 .LEHB121-.LFB1100
 5277 0342 46       		.uleb128 .LEHE121-.LEHB121
 5278 0343 8E01     		.uleb128 .L551-.LFB1100
 5279 0345 01       		.uleb128 0x1
 5280 0346 9601     		.uleb128 .LEHB122-.LFB1100
 5281 0348 2E       		.uleb128 .LEHE122-.LEHB122
 5282 0349 CB01     		.uleb128 .L552-.LFB1100
 5283 034b 00       		.uleb128 0
 5284 034c C401     		.uleb128 .LEHB123-.LFB1100
 5285 034e 05       		.uleb128 .LEHE123-.LEHB123
 5286 034f 00       		.uleb128 0
 5287 0350 00       		.uleb128 0
 5288 0351 D801     		.uleb128 .LEHB124-.LFB1100
 5289 0353 05       		.uleb128 .LEHE124-.LEHB124
 5290 0354 00       		.uleb128 0
 5291 0355 00       		.uleb128 0
 5292              	.LLSDACSE1100:
 5293 0356 01       		.byte	0x1
 5294 0357 00       		.byte	0
 5295              		.align 4
 5296 0358 00000000 		.long	0
 5297              	
 5298              	.LLSDATT1100:
 5299              		.text
 5301 2f8d 90       		.align 2
 5302 2f8e 6690     		.p2align 4,,15
 5304              	_ZNK12_GLOBAL__N_157TestCheckEqualsWithStringsWorksOnContentsNonConstNonConst7RunImplEv:
 5305              	.LFB1096:
 5306              		.cfi_startproc
 5307              		.cfi_personality 0x3,__gxx_personality_v0
 5308              		.cfi_lsda 0x3,.LLSDA1096
 5309 2f90 53       		pushq	%rbx
 5310              		.cfi_def_cfa_offset 16
 5311              		.cfi_offset 3, -16
 5312 2f91 31F6     		xorl	%esi, %esi
 5313 2f93 4883EC60 		subq	$96, %rsp
 5314              		.cfi_def_cfa_offset 112
 5315 2f97 488D7C24 		leaq	32(%rsp), %rdi
 5315      20
 5316              	.LEHB125:
 5317 2f9c E8000000 		call	_ZN8UnitTest11TestResultsC1EPNS_12TestReporterE
 5317      00
 5318 2fa1 B9000000 		movl	$.LC1, %ecx
 5318      00
 5319 2fa6 488D7C24 		leaq	64(%rsp), %rdi
 5319      40
 5320 2fab 4531C0   		xorl	%r8d, %r8d
 5321 2fae 4889CA   		movq	%rcx, %rdx
 5322 2fb1 4889CE   		movq	%rcx, %rsi
 5323 2fb4 E8000000 		call	_ZN8UnitTest11TestDetailsC1EPKcS2_S2_i
 5323      00
 5324 2fb9 488D4C24 		leaq	64(%rsp), %rcx
 5324      40
 5325 2fbe 488D7C24 		leaq	32(%rsp), %rdi
 5325      20
 5326 2fc3 BA000000 		movl	$_ZN12_GLOBAL__N_14txt2E, %edx
 5326      00
 5327 2fc8 BE000000 		movl	$_ZN12_GLOBAL__N_14txt1E, %esi
 5327      00
 5328 2fcd E8000000 		call	_ZN8UnitTest10CheckEqualERNS_11TestResultsEPKcS3_RKNS_11TestDetailsE
 5328      00
 5329              	.LEHE125:
 5330              	.LEHB126:
 5331 2fd2 E8000000 		call	_ZN8UnitTest11CurrentTest7DetailsEv
 5331      00
 5332 2fd7 488B30   		movq	(%rax), %rsi
 5333 2fda 488D7C24 		leaq	64(%rsp), %rdi
 5333      40
 5334 2fdf BA230000 		movl	$35, %edx
 5334      00
 5335 2fe4 E8000000 		call	_ZN8UnitTest11TestDetailsC1ERKS0_i
 5335      00
 5336 2fe9 488D7C24 		leaq	32(%rsp), %rdi
 5336      20
 5337 2fee E8000000 		call	_ZNK8UnitTest11TestResults15GetFailureCountEv
 5337      00
 5338 2ff3 89442410 		movl	%eax, 16(%rsp)
 5339 2ff7 C7042400 		movl	$0, (%rsp)
 5339      000000
 5340 2ffe E8000000 		call	_ZN8UnitTest11CurrentTest7ResultsEv
 5340      00
 5341 3003 488B38   		movq	(%rax), %rdi
 5342 3006 488D4C24 		leaq	64(%rsp), %rcx
 5342      40
 5343 300b 488D5424 		leaq	16(%rsp), %rdx
 5343      10
 5344 3010 4889E6   		movq	%rsp, %rsi
 5345 3013 E8000000 		call	_ZN8UnitTest10CheckEqualIiiEEvRNS_11TestResultsERKT_RKT0_RKNS_11TestDetailsE
 5345      00
 5346              	.LEHE126:
 5347              	.L554:
 5348 3018 4883C460 		addq	$96, %rsp
 5349              		.cfi_remember_state
 5350              		.cfi_def_cfa_offset 16
 5351 301c 5B       		popq	%rbx
 5352              		.cfi_def_cfa_offset 8
 5353 301d C3       		ret
 5354              	.L558:
 5355              		.cfi_restore_state
 5356 301e 4889C7   		movq	%rax, %rdi
 5357 3021 E8000000 		call	__cxa_begin_catch
 5357      00
 5358              	.LEHB127:
 5359 3026 E8000000 		call	_ZN8UnitTest11CurrentTest7DetailsEv
 5359      00
 5360 302b 488B30   		movq	(%rax), %rsi
 5361 302e 488D7C24 		leaq	64(%rsp), %rdi
 5361      40
 5362 3033 BA230000 		movl	$35, %edx
 5362      00
 5363 3038 E8000000 		call	_ZN8UnitTest11TestDetailsC1ERKS0_i
 5363      00
 5364 303d E8000000 		call	_ZN8UnitTest11CurrentTest7ResultsEv
 5364      00
 5365 3042 488B38   		movq	(%rax), %rdi
 5366 3045 488D7424 		leaq	64(%rsp), %rsi
 5366      40
 5367 304a BA000000 		movl	$.LC51, %edx
 5367      00
 5368 304f E8000000 		call	_ZN8UnitTest11TestResults13OnTestFailureERKNS_11TestDetailsEPKc
 5368      00
 5369              	.LEHE127:
 5370              	.LEHB128:
 5371 3054 E8000000 		call	__cxa_end_catch
 5371      00
 5372              	.LEHE128:
 5373 3059 EBBD     		jmp	.L554
 5374              	.L559:
 5375 305b 4889C3   		movq	%rax, %rbx
 5376 305e 6690     		.p2align 4,,5
 5377 3060 E8000000 		call	__cxa_end_catch
 5377      00
 5378 3065 4889DF   		movq	%rbx, %rdi
 5379              	.LEHB129:
 5380 3068 E8000000 		call	_Unwind_Resume
 5380      00
 5381              	.LEHE129:
 5382              		.cfi_endproc
 5383              	.LFE1096:
 5384              		.section	.gcc_except_table
 5385              		.align 4
 5386              	.LLSDA1096:
 5387 035c FF       		.byte	0xff
 5388 035d 03       		.byte	0x3
 5389 035e 21       		.uleb128 .LLSDATT1096-.LLSDATTD1096
 5390              	.LLSDATTD1096:
 5391 035f 01       		.byte	0x1
 5392 0360 19       		.uleb128 .LLSDACSE1096-.LLSDACSB1096
 5393              	.LLSDACSB1096:
 5394 0361 0C       		.uleb128 .LEHB125-.LFB1096
 5395 0362 36       		.uleb128 .LEHE125-.LEHB125
 5396 0363 00       		.uleb128 0
 5397 0364 00       		.uleb128 0
 5398 0365 42       		.uleb128 .LEHB126-.LFB1096
 5399 0366 46       		.uleb128 .LEHE126-.LEHB126
 5400 0367 8E01     		.uleb128 .L558-.LFB1096
 5401 0369 01       		.uleb128 0x1
 5402 036a 9601     		.uleb128 .LEHB127-.LFB1096
 5403 036c 2E       		.uleb128 .LEHE127-.LEHB127
 5404 036d CB01     		.uleb128 .L559-.LFB1096
 5405 036f 00       		.uleb128 0
 5406 0370 C401     		.uleb128 .LEHB128-.LFB1096
 5407 0372 05       		.uleb128 .LEHE128-.LEHB128
 5408 0373 00       		.uleb128 0
 5409 0374 00       		.uleb128 0
 5410 0375 D801     		.uleb128 .LEHB129-.LFB1096
 5411 0377 05       		.uleb128 .LEHE129-.LEHB129
 5412 0378 00       		.uleb128 0
 5413 0379 00       		.uleb128 0
 5414              	.LLSDACSE1096:
 5415 037a 01       		.byte	0x1
 5416 037b 00       		.byte	0
 5417              		.align 4
 5418 037c 00000000 		.long	0
 5419              	
 5420              	.LLSDATT1096:
 5421              		.text
 5423 306d 90       		.align 2
 5424 306e 6690     		.p2align 4,,15
 5426              	_ZNK12_GLOBAL__N_149TestCheckEqualsWithStringsFailsOnDifferentStrings7RunImplEv:
 5427              	.LFB1092:
 5428              		.cfi_startproc
 5429              		.cfi_personality 0x3,__gxx_personality_v0
 5430              		.cfi_lsda 0x3,.LLSDA1092
 5431 3070 53       		pushq	%rbx
 5432              		.cfi_def_cfa_offset 16
 5433              		.cfi_offset 3, -16
 5434 3071 BA6F0000 		movl	$111, %edx
 5434      00
 5435 3076 31F6     		xorl	%esi, %esi
 5436 3078 4883C480 		addq	$-128, %rsp
 5437              		.cfi_def_cfa_offset 144
 5438 307c 488D7C24 		leaq	32(%rsp), %rdi
 5438      20
 5439 3081 66895424 		movw	%dx, 116(%rsp)
 5439      74
 5440 3086 C7442460 		movl	$1819043144, 96(%rsp)
 5440      48656C6C 
 5441 308e 64488B04 		movq	%fs:40, %rax
 5441      25280000 
 5441      00
 5442 3097 48894424 		movq	%rax, 120(%rsp)
 5442      78
 5443 309c 31C0     		xorl	%eax, %eax
 5444 309e B86F0000 		movl	$111, %eax
 5444      00
 5445 30a3 C7442470 		movl	$1819042120, 112(%rsp)
 5445      48616C6C 
 5446 30ab 66894424 		movw	%ax, 100(%rsp)
 5446      64
 5447              	.LEHB130:
 5448 30b0 E8000000 		call	_ZN8UnitTest11TestResultsC1EPNS_12TestReporterE
 5448      00
 5449 30b5 B9000000 		movl	$.LC1, %ecx
 5449      00
 5450 30ba 488D7C24 		leaq	64(%rsp), %rdi
 5450      40
 5451 30bf 4531C0   		xorl	%r8d, %r8d
 5452 30c2 4889CA   		movq	%rcx, %rdx
 5453 30c5 4889CE   		movq	%rcx, %rsi
 5454 30c8 E8000000 		call	_ZN8UnitTest11TestDetailsC1EPKcS2_S2_i
 5454      00
 5455 30cd 488D4C24 		leaq	64(%rsp), %rcx
 5455      40
 5456 30d2 488D5424 		leaq	112(%rsp), %rdx
 5456      70
 5457 30d7 488D7424 		leaq	96(%rsp), %rsi
 5457      60
 5458 30dc 488D7C24 		leaq	32(%rsp), %rdi
 5458      20
 5459 30e1 E8000000 		call	_ZN8UnitTest10CheckEqualERNS_11TestResultsEPcS2_RKNS_11TestDetailsE
 5459      00
 5460              	.LEHE130:
 5461              	.LEHB131:
 5462 30e6 E8000000 		call	_ZN8UnitTest11CurrentTest7DetailsEv
 5462      00
 5463 30eb 488B30   		movq	(%rax), %rsi
 5464 30ee 488D7C24 		leaq	64(%rsp), %rdi
 5464      40
 5465 30f3 BA170000 		movl	$23, %edx
 5465      00
 5466 30f8 E8000000 		call	_ZN8UnitTest11TestDetailsC1ERKS0_i
 5466      00
 5467 30fd 488D7C24 		leaq	32(%rsp), %rdi
 5467      20
 5468 3102 E8000000 		call	_ZNK8UnitTest11TestResults15GetFailureCountEv
 5468      00
 5469 3107 89442410 		movl	%eax, 16(%rsp)
 5470 310b C7042401 		movl	$1, (%rsp)
 5470      000000
 5471 3112 E8000000 		call	_ZN8UnitTest11CurrentTest7ResultsEv
 5471      00
 5472 3117 488B38   		movq	(%rax), %rdi
 5473 311a 488D4C24 		leaq	64(%rsp), %rcx
 5473      40
 5474 311f 488D5424 		leaq	16(%rsp), %rdx
 5474      10
 5475 3124 4889E6   		movq	%rsp, %rsi
 5476 3127 E8000000 		call	_ZN8UnitTest10CheckEqualIiiEEvRNS_11TestResultsERKT_RKT0_RKNS_11TestDetailsE
 5476      00
 5477              	.LEHE131:
 5478              	.L561:
 5479 312c 488B4424 		movq	120(%rsp), %rax
 5479      78
 5480 3131 64483304 		xorq	%fs:40, %rax
 5480      25280000 
 5480      00
 5481 313a 7506     		jne	.L569
 5482 313c 4883EC80 		subq	$-128, %rsp
 5483              		.cfi_remember_state
 5484              		.cfi_def_cfa_offset 16
 5485 3140 5B       		popq	%rbx
 5486              		.cfi_def_cfa_offset 8
 5487 3141 C3       		ret
 5488              	.L569:
 5489              		.cfi_restore_state
 5490              		.p2align 4,,5
 5491 3142 E8000000 		call	__stack_chk_fail
 5491      00
 5492              	.L566:
 5493 3147 4889C7   		movq	%rax, %rdi
 5494 314a E8000000 		call	__cxa_begin_catch
 5494      00
 5495              	.LEHB132:
 5496 314f E8000000 		call	_ZN8UnitTest11CurrentTest7DetailsEv
 5496      00
 5497 3154 488B30   		movq	(%rax), %rsi
 5498 3157 488D7C24 		leaq	64(%rsp), %rdi
 5498      40
 5499 315c BA170000 		movl	$23, %edx
 5499      00
 5500 3161 E8000000 		call	_ZN8UnitTest11TestDetailsC1ERKS0_i
 5500      00
 5501 3166 E8000000 		call	_ZN8UnitTest11CurrentTest7ResultsEv
 5501      00
 5502 316b 488B38   		movq	(%rax), %rdi
 5503 316e 488D7424 		leaq	64(%rsp), %rsi
 5503      40
 5504 3173 BA000000 		movl	$.LC49, %edx
 5504      00
 5505 3178 E8000000 		call	_ZN8UnitTest11TestResults13OnTestFailureERKNS_11TestDetailsEPKc
 5505      00
 5506              	.LEHE132:
 5507              	.LEHB133:
 5508 317d E8000000 		call	__cxa_end_catch
 5508      00
 5509              	.LEHE133:
 5510 3182 EBA8     		jmp	.L561
 5511              	.L567:
 5512 3184 4889C3   		movq	%rax, %rbx
 5513              		.p2align 4,,5
 5514 3187 E8000000 		call	__cxa_end_catch
 5514      00
 5515 318c 4889DF   		movq	%rbx, %rdi
 5516              	.LEHB134:
 5517 318f E8000000 		call	_Unwind_Resume
 5517      00
 5518              	.LEHE134:
 5519              		.cfi_endproc
 5520              	.LFE1092:
 5521              		.section	.gcc_except_table
 5522              		.align 4
 5523              	.LLSDA1092:
 5524 0380 FF       		.byte	0xff
 5525 0381 03       		.byte	0x3
 5526 0382 21       		.uleb128 .LLSDATT1092-.LLSDATTD1092
 5527              	.LLSDATTD1092:
 5528 0383 01       		.byte	0x1
 5529 0384 19       		.uleb128 .LLSDACSE1092-.LLSDACSB1092
 5530              	.LLSDACSB1092:
 5531 0385 40       		.uleb128 .LEHB130-.LFB1092
 5532 0386 36       		.uleb128 .LEHE130-.LEHB130
 5533 0387 00       		.uleb128 0
 5534 0388 00       		.uleb128 0
 5535 0389 76       		.uleb128 .LEHB131-.LFB1092
 5536 038a 46       		.uleb128 .LEHE131-.LEHB131
 5537 038b D701     		.uleb128 .L566-.LFB1092
 5538 038d 01       		.uleb128 0x1
 5539 038e DF01     		.uleb128 .LEHB132-.LFB1092
 5540 0390 2E       		.uleb128 .LEHE132-.LEHB132
 5541 0391 9402     		.uleb128 .L567-.LFB1092
 5542 0393 00       		.uleb128 0
 5543 0394 8D02     		.uleb128 .LEHB133-.LFB1092
 5544 0396 05       		.uleb128 .LEHE133-.LEHB133
 5545 0397 00       		.uleb128 0
 5546 0398 00       		.uleb128 0
 5547 0399 9F02     		.uleb128 .LEHB134-.LFB1092
 5548 039b 05       		.uleb128 .LEHE134-.LEHB134
 5549 039c 00       		.uleb128 0
 5550 039d 00       		.uleb128 0
 5551              	.LLSDACSE1092:
 5552 039e 01       		.byte	0x1
 5553 039f 00       		.byte	0
 5554              		.align 4
 5555 03a0 00000000 		.long	0
 5556              	
 5557              	.LLSDATT1092:
 5558              		.text
 5560              		.section	.rodata.str1.1
 5561              	.LC66:
 5562 00be 61727261 		.string	"arrayCloseSuite"
 5562      79436C6F 
 5562      73655375 
 5562      69746500 
 5563              	.LC67:
 5564 00ce 61727261 		.string	"arrayCloseTest"
 5564      79436C6F 
 5564      73655465 
 5564      737400
 5565              		.section	.rodata.str1.8
 5566 05da 00000000 		.align 8
 5566      0000
 5567              	.LC68:
 5568 05e0 556E6861 		.string	"Unhandled exception in CHECK_EQUAL(\"arrayCloseTest\", reporter.lastFailedTest)"
 5568      6E646C65 
 5568      64206578 
 5568      63657074 
 5568      696F6E20 
 5569 062e 0000     		.align 8
 5570              	.LC69:
 5571 0630 556E6861 		.string	"Unhandled exception in CHECK_EQUAL(\"arrayCloseSuite\", reporter.lastFailedSuite)"
 5571      6E646C65 
 5571      64206578 
 5571      63657074 
 5571      696F6E20 
 5572              		.align 8
 5573              	.LC70:
 5574 0680 556E6861 		.string	"Unhandled exception in CHECK_EQUAL(1337, reporter.lastFailedLine)"
 5574      6E646C65 
 5574      64206578 
 5574      63657074 
 5574      696F6E20 
 5575              		.text
 5576              		.align 2
 5577 3194 6666662E 		.p2align 4,,15
 5577      0F1F8400 
 5577      00000000 
 5579              	_ZNK12_GLOBAL__N_141TestCheckArrayCloseFailureIncludesDetails7RunImplEv:
 5580              	.LFB1172:
 5581              		.cfi_startproc
 5582              		.cfi_personality 0x3,__gxx_personality_v0
 5583              		.cfi_lsda 0x3,.LLSDA1172
 5584 31a0 53       		pushq	%rbx
 5585              		.cfi_def_cfa_offset 16
 5586              		.cfi_offset 3, -16
 5587 31a1 4881ECD0 		subq	$2256, %rsp
 5587      080000
 5588              		.cfi_def_cfa_offset 2272
 5589 31a8 488DB424 		leaq	144(%rsp), %rsi
 5589      90000000 
 5590 31b0 488D7C24 		leaq	48(%rsp), %rdi
 5590      30
 5591 31b5 48C78424 		movq	$_ZTV17RecordingReporter+16, 144(%rsp)
 5591      90000000 
 5591      00000000 
 5592 31c1 64488B04 		movq	%fs:40, %rax
 5592      25280000 
 5592      00
 5593 31ca 48898424 		movq	%rax, 2248(%rsp)
 5593      C8080000 
 5594 31d2 31C0     		xorl	%eax, %eax
 5595 31d4 C7842498 		movl	$0, 152(%rsp)
 5595      00000000 
 5595      000000
 5596 31df C784249C 		movl	$0, 668(%rsp)
 5596      02000000 
 5596      000000
 5597 31ea C78424A0 		movl	$0, 928(%rsp)
 5597      03000000 
 5597      000000
 5598 31f5 C78424A4 		movl	$0, 1700(%rsp)
 5598      06000000 
 5598      000000
 5599 3200 C78424A8 		movl	$0x00000000, 2216(%rsp)
 5599      08000000 
 5599      000000
 5600 320b C78424AC 		movl	$0, 2220(%rsp)
 5600      08000000 
 5600      000000
 5601 3216 C78424B0 		movl	$0, 2224(%rsp)
 5601      08000000 
 5601      000000
 5602 3221 C78424B4 		movl	$0, 2228(%rsp)
 5602      08000000 
 5602      000000
 5603 322c C78424B8 		movl	$0x00000000, 2232(%rsp)
 5603      08000000 
 5603      000000
 5604 3237 C684249C 		movb	$0, 156(%rsp)
 5604      00000000 
 5605 323f C684249C 		movb	$0, 412(%rsp)
 5605      01000000 
 5606 3247 C68424A0 		movb	$0, 672(%rsp)
 5606      02000000 
 5607 324f C68424A4 		movb	$0, 932(%rsp)
 5607      03000000 
 5608 3257 C68424A4 		movb	$0, 1188(%rsp)
 5608      04000000 
 5609 325f C68424A4 		movb	$0, 1444(%rsp)
 5609      05000000 
 5610 3267 C68424A8 		movb	$0, 1704(%rsp)
 5610      06000000 
 5611 326f C68424A8 		movb	$0, 1960(%rsp)
 5611      07000000 
 5612              	.LEHB135:
 5613 3277 E8000000 		call	_ZN8UnitTest11TestResultsC1EPNS_12TestReporterE
 5613      00
 5614 327c 488D7C24 		leaq	80(%rsp), %rdi
 5614      50
 5615 3281 41B83905 		movl	$1337, %r8d
 5615      0000
 5616 3287 B9000000 		movl	$.LC27, %ecx
 5616      00
 5617 328c BA000000 		movl	$.LC66, %edx
 5617      00
 5618 3291 BE000000 		movl	$.LC67, %esi
 5618      00
 5619 3296 E8000000 		call	_ZN8UnitTest11TestDetailsC1EPKcS2_S2_i
 5619      00
 5620 329b 4C8D4424 		leaq	80(%rsp), %r8
 5620      50
 5621 32a0 488D4C24 		leaq	112(%rsp), %rcx
 5621      70
 5622 32a5 488D5424 		leaq	32(%rsp), %rdx
 5622      20
 5623 32aa 488D7424 		leaq	16(%rsp), %rsi
 5623      10
 5624 32af 488D7C24 		leaq	48(%rsp), %rdi
 5624      30
 5625 32b4 C7442410 		movl	$0x3f800000, 16(%rsp)
 5625      0000803F 
 5626 32bc C7442414 		movl	$0x3fc00000, 20(%rsp)
 5626      0000C03F 
 5627 32c4 C7442418 		movl	$0x40000000, 24(%rsp)
 5627      00000040 
 5628 32cc C7442420 		movl	$0x3f8147ae, 32(%rsp)
 5628      AE47813F 
 5629 32d4 C7442424 		movl	$0x3fc147ae, 36(%rsp)
 5629      AE47C13F 
 5630 32dc C7442428 		movl	$0x4000a3d7, 40(%rsp)
 5630      D7A30040 
 5631 32e4 C7442470 		movl	$0x3a83126f, 112(%rsp)
 5631      6F12833A 
 5632 32ec E82FE1FF 		call	_ZN8UnitTest15CheckArrayCloseIA3_fS1_fEEvRNS_11TestResultsERKT_RKT0_iRKT1_RKNS_11TestDetailsE
 5632      FF
 5633              	.LEHE135:
 5634              	.LEHB136:
 5635 32f1 E8000000 		call	_ZN8UnitTest11CurrentTest7DetailsEv
 5635      00
 5636 32f6 488B30   		movq	(%rax), %rsi
 5637 32f9 488D7C24 		leaq	112(%rsp), %rdi
 5637      70
 5638 32fe BAE90000 		movl	$233, %edx
 5638      00
 5639 3303 E8000000 		call	_ZN8UnitTest11TestDetailsC1ERKS0_i
 5639      00
 5640 3308 E8000000 		call	_ZN8UnitTest11CurrentTest7ResultsEv
 5640      00
 5641 330d 488D9C24 		leaq	144(%rsp), %rbx
 5641      90000000 
 5642 3315 488B38   		movq	(%rax), %rdi
 5643 3318 488D4C24 		leaq	112(%rsp), %rcx
 5643      70
 5644 331d BE000000 		movl	$.LC67, %esi
 5644      00
 5645 3322 488D9314 		leaq	1044(%rbx), %rdx
 5645      040000
 5646 3329 E8000000 		call	_ZN8UnitTest10CheckEqualERNS_11TestResultsEPKcPcRKNS_11TestDetailsE
 5646      00
 5647              	.LEHE136:
 5648              	.L574:
 5649              	.LEHB137:
 5650 332e E8000000 		call	_ZN8UnitTest11CurrentTest7DetailsEv
 5650      00
 5651 3333 488B30   		movq	(%rax), %rsi
 5652 3336 488D7C24 		leaq	112(%rsp), %rdi
 5652      70
 5653 333b BAEA0000 		movl	$234, %edx
 5653      00
 5654 3340 E8000000 		call	_ZN8UnitTest11TestDetailsC1ERKS0_i
 5654      00
 5655 3345 E8000000 		call	_ZN8UnitTest11CurrentTest7ResultsEv
 5655      00
 5656 334a 488D9C24 		leaq	144(%rsp), %rbx
 5656      90000000 
 5657 3352 488B38   		movq	(%rax), %rdi
 5658 3355 488D4C24 		leaq	112(%rsp), %rcx
 5658      70
 5659 335a BE000000 		movl	$.LC66, %esi
 5659      00
 5660 335f 488D9314 		leaq	788(%rbx), %rdx
 5660      030000
 5661 3366 E8000000 		call	_ZN8UnitTest10CheckEqualERNS_11TestResultsEPKcPcRKNS_11TestDetailsE
 5661      00
 5662              	.LEHE137:
 5663              	.L577:
 5664              	.LEHB138:
 5665 336b E8000000 		call	_ZN8UnitTest11CurrentTest7DetailsEv
 5665      00
 5666 3370 488B30   		movq	(%rax), %rsi
 5667 3373 488D7C24 		leaq	112(%rsp), %rdi
 5667      70
 5668 3378 BAEB0000 		movl	$235, %edx
 5668      00
 5669 337d E8000000 		call	_ZN8UnitTest11TestDetailsC1ERKS0_i
 5669      00
 5670 3382 E8000000 		call	_ZN8UnitTest11CurrentTest7ResultsEv
 5670      00
 5671 3387 488D9C24 		leaq	144(%rsp), %rbx
 5671      90000000 
 5672 338f 488B38   		movq	(%rax), %rdi
 5673 3392 488D4C24 		leaq	112(%rsp), %rcx
 5673      70
 5674 3397 BE000000 		movl	$.LC27, %esi
 5674      00
 5675 339c 488D9310 		leaq	528(%rbx), %rdx
 5675      020000
 5676 33a3 E8000000 		call	_ZN8UnitTest10CheckEqualERNS_11TestResultsEPKcPcRKNS_11TestDetailsE
 5676      00
 5677              	.LEHE138:
 5678              	.L580:
 5679              	.LEHB139:
 5680 33a8 E8000000 		call	_ZN8UnitTest11CurrentTest7DetailsEv
 5680      00
 5681 33ad 488B30   		movq	(%rax), %rsi
 5682 33b0 488D7C24 		leaq	112(%rsp), %rdi
 5682      70
 5683 33b5 BAEC0000 		movl	$236, %edx
 5683      00
 5684 33ba E8000000 		call	_ZN8UnitTest11TestDetailsC1ERKS0_i
 5684      00
 5685 33bf C7042439 		movl	$1337, (%rsp)
 5685      050000
 5686 33c6 E8000000 		call	_ZN8UnitTest11CurrentTest7ResultsEv
 5686      00
 5687 33cb 488D9C24 		leaq	144(%rsp), %rbx
 5687      90000000 
 5688 33d3 488B38   		movq	(%rax), %rdi
 5689 33d6 488D4C24 		leaq	112(%rsp), %rcx
 5689      70
 5690 33db 4889E6   		movq	%rsp, %rsi
 5691 33de 488D9310 		leaq	784(%rbx), %rdx
 5691      030000
 5692 33e5 E8000000 		call	_ZN8UnitTest10CheckEqualIiiEEvRNS_11TestResultsERKT_RKT0_RKNS_11TestDetailsE
 5692      00
 5693              	.LEHE139:
 5694              	.L583:
 5695 33ea 488DBC24 		leaq	144(%rsp), %rdi
 5695      90000000 
 5696 33f2 48C78424 		movq	$_ZTV17RecordingReporter+16, 144(%rsp)
 5696      90000000 
 5696      00000000 
 5697              	.LEHB140:
 5698 33fe E8000000 		call	_ZN8UnitTest12TestReporterD2Ev
 5698      00
 5699              	.LEHE140:
 5700 3403 488B8424 		movq	2248(%rsp), %rax
 5700      C8080000 
 5701 340b 64483304 		xorq	%fs:40, %rax
 5701      25280000 
 5701      00
 5702 3414 7509     		jne	.L596
 5703 3416 4881C4D0 		addq	$2256, %rsp
 5703      080000
 5704              		.cfi_remember_state
 5705              		.cfi_def_cfa_offset 16
 5706 341d 5B       		popq	%rbx
 5707              		.cfi_def_cfa_offset 8
 5708 341e C3       		ret
 5709              	.L596:
 5710              		.cfi_restore_state
 5711 341f E8000000 		call	__stack_chk_fail
 5711      00
 5712              	.L592:
 5713 3424 4889C7   		movq	%rax, %rdi
 5714 3427 E8000000 		call	__cxa_begin_catch
 5714      00
 5715              	.LEHB141:
 5716 342c E8000000 		call	_ZN8UnitTest11CurrentTest7DetailsEv
 5716      00
 5717 3431 488B30   		movq	(%rax), %rsi
 5718 3434 488D7C24 		leaq	112(%rsp), %rdi
 5718      70
 5719 3439 BAEC0000 		movl	$236, %edx
 5719      00
 5720 343e E8000000 		call	_ZN8UnitTest11TestDetailsC1ERKS0_i
 5720      00
 5721 3443 E8000000 		call	_ZN8UnitTest11CurrentTest7ResultsEv
 5721      00
 5722 3448 488B38   		movq	(%rax), %rdi
 5723 344b 488D7424 		leaq	112(%rsp), %rsi
 5723      70
 5724 3450 BA000000 		movl	$.LC70, %edx
 5724      00
 5725 3455 E8000000 		call	_ZN8UnitTest11TestResults13OnTestFailureERKNS_11TestDetailsEPKc
 5725      00
 5726              	.LEHE141:
 5727              	.LEHB142:
 5728 345a E8000000 		call	__cxa_end_catch
 5728      00
 5729              	.LEHE142:
 5730 345f EB89     		jmp	.L583
 5731              	.L590:
 5732 3461 4889C7   		movq	%rax, %rdi
 5733              		.p2align 4,,5
 5734 3464 E8000000 		call	__cxa_begin_catch
 5734      00
 5735              		.p2align 4,,5
 5736              	.LEHB143:
 5737 3469 E8000000 		call	_ZN8UnitTest11CurrentTest7DetailsEv
 5737      00
 5738 346e 488B30   		movq	(%rax), %rsi
 5739 3471 488D7C24 		leaq	112(%rsp), %rdi
 5739      70
 5740 3476 BAEB0000 		movl	$235, %edx
 5740      00
 5741 347b E8000000 		call	_ZN8UnitTest11TestDetailsC1ERKS0_i
 5741      00
 5742 3480 E8000000 		call	_ZN8UnitTest11CurrentTest7ResultsEv
 5742      00
 5743 3485 488B38   		movq	(%rax), %rdi
 5744 3488 488D7424 		leaq	112(%rsp), %rsi
 5744      70
 5745 348d BA000000 		movl	$.LC47, %edx
 5745      00
 5746 3492 E8000000 		call	_ZN8UnitTest11TestResults13OnTestFailureERKNS_11TestDetailsEPKc
 5746      00
 5747              	.LEHE143:
 5748              	.LEHB144:
 5749 3497 E8000000 		call	__cxa_end_catch
 5749      00
 5750              	.LEHE144:
 5751 349c E907FFFF 		jmp	.L580
 5751      FF
 5752              	.L586:
 5753 34a1 4889C7   		movq	%rax, %rdi
 5754              		.p2align 4,,5
 5755 34a4 E8000000 		call	__cxa_begin_catch
 5755      00
 5756              		.p2align 4,,5
 5757              	.LEHB145:
 5758 34a9 E8000000 		call	_ZN8UnitTest11CurrentTest7DetailsEv
 5758      00
 5759 34ae 488B30   		movq	(%rax), %rsi
 5760 34b1 488D7C24 		leaq	112(%rsp), %rdi
 5760      70
 5761 34b6 BAE90000 		movl	$233, %edx
 5761      00
 5762 34bb E8000000 		call	_ZN8UnitTest11TestDetailsC1ERKS0_i
 5762      00
 5763 34c0 E8000000 		call	_ZN8UnitTest11CurrentTest7ResultsEv
 5763      00
 5764 34c5 488B38   		movq	(%rax), %rdi
 5765 34c8 488D7424 		leaq	112(%rsp), %rsi
 5765      70
 5766 34cd BA000000 		movl	$.LC68, %edx
 5766      00
 5767 34d2 E8000000 		call	_ZN8UnitTest11TestResults13OnTestFailureERKNS_11TestDetailsEPKc
 5767      00
 5768              	.LEHE145:
 5769              	.LEHB146:
 5770 34d7 E8000000 		call	__cxa_end_catch
 5770      00
 5771              	.LEHE146:
 5772 34dc E94DFEFF 		jmp	.L574
 5772      FF
 5773              	.L588:
 5774 34e1 4889C7   		movq	%rax, %rdi
 5775              		.p2align 4,,5
 5776 34e4 E8000000 		call	__cxa_begin_catch
 5776      00
 5777              		.p2align 4,,5
 5778              	.LEHB147:
 5779 34e9 E8000000 		call	_ZN8UnitTest11CurrentTest7DetailsEv
 5779      00
 5780 34ee 488B30   		movq	(%rax), %rsi
 5781 34f1 488D7C24 		leaq	112(%rsp), %rdi
 5781      70
 5782 34f6 BAEA0000 		movl	$234, %edx
 5782      00
 5783 34fb E8000000 		call	_ZN8UnitTest11TestDetailsC1ERKS0_i
 5783      00
 5784 3500 E8000000 		call	_ZN8UnitTest11CurrentTest7ResultsEv
 5784      00
 5785 3505 488B38   		movq	(%rax), %rdi
 5786 3508 488D7424 		leaq	112(%rsp), %rsi
 5786      70
 5787 350d BA000000 		movl	$.LC69, %edx
 5787      00
 5788 3512 E8000000 		call	_ZN8UnitTest11TestResults13OnTestFailureERKNS_11TestDetailsEPKc
 5788      00
 5789              	.LEHE147:
 5790              	.LEHB148:
 5791 3517 E8000000 		call	__cxa_end_catch
 5791      00
 5792              	.LEHE148:
 5793 351c E94AFEFF 		jmp	.L577
 5793      FF
 5794              	.L585:
 5795 3521 4889C3   		movq	%rax, %rbx
 5796              	.L572:
 5797 3524 488DBC24 		leaq	144(%rsp), %rdi
 5797      90000000 
 5798 352c 48C78424 		movq	$_ZTV17RecordingReporter+16, 144(%rsp)
 5798      90000000 
 5798      00000000 
 5799 3538 E8000000 		call	_ZN8UnitTest12TestReporterD2Ev
 5799      00
 5800 353d 4889DF   		movq	%rbx, %rdi
 5801              	.LEHB149:
 5802 3540 E8000000 		call	_Unwind_Resume
 5802      00
 5803              	.LEHE149:
 5804              	.L593:
 5805 3545 4889C3   		movq	%rax, %rbx
 5806 3548 E8000000 		call	__cxa_end_catch
 5806      00
 5807 354d EBD5     		jmp	.L572
 5808              	.L587:
 5809 354f 4889C3   		movq	%rax, %rbx
 5810 3552 E8000000 		call	__cxa_end_catch
 5810      00
 5811              		.p2align 4,,5
 5812 3557 EBCB     		jmp	.L572
 5813              	.L591:
 5814 3559 4889C3   		movq	%rax, %rbx
 5815 355c E8000000 		call	__cxa_end_catch
 5815      00
 5816              		.p2align 4,,5
 5817 3561 EBC1     		jmp	.L572
 5818              	.L589:
 5819 3563 4889C3   		movq	%rax, %rbx
 5820 3566 E8000000 		call	__cxa_end_catch
 5820      00
 5821 356b 0F1F4400 		.p2align 4,,5
 5821      00
 5822 3570 EBB2     		jmp	.L572
 5823              		.cfi_endproc
 5824              	.LFE1172:
 5825              		.section	.gcc_except_table
 5826              		.align 4
 5827              	.LLSDA1172:
 5828 03a4 FF       		.byte	0xff
 5829 03a5 03       		.byte	0x3
 5830 03a6 61       		.uleb128 .LLSDATT1172-.LLSDATTD1172
 5831              	.LLSDATTD1172:
 5832 03a7 01       		.byte	0x1
 5833 03a8 58       		.uleb128 .LLSDACSE1172-.LLSDACSB1172
 5834              	.LLSDACSB1172:
 5835 03a9 D701     		.uleb128 .LEHB135-.LFB1172
 5836 03ab 7A       		.uleb128 .LEHE135-.LEHB135
 5837 03ac 8107     		.uleb128 .L585-.LFB1172
 5838 03ae 00       		.uleb128 0
 5839 03af D102     		.uleb128 .LEHB136-.LFB1172
 5840 03b1 3D       		.uleb128 .LEHE136-.LEHB136
 5841 03b2 8106     		.uleb128 .L586-.LFB1172
 5842 03b4 01       		.uleb128 0x1
 5843 03b5 8E03     		.uleb128 .LEHB137-.LFB1172
 5844 03b7 3D       		.uleb128 .LEHE137-.LEHB137
 5845 03b8 C106     		.uleb128 .L588-.LFB1172
 5846 03ba 01       		.uleb128 0x1
 5847 03bb CB03     		.uleb128 .LEHB138-.LFB1172
 5848 03bd 3D       		.uleb128 .LEHE138-.LEHB138
 5849 03be C105     		.uleb128 .L590-.LFB1172
 5850 03c0 01       		.uleb128 0x1
 5851 03c1 8804     		.uleb128 .LEHB139-.LFB1172
 5852 03c3 42       		.uleb128 .LEHE139-.LEHB139
 5853 03c4 8405     		.uleb128 .L592-.LFB1172
 5854 03c6 01       		.uleb128 0x1
 5855 03c7 DE04     		.uleb128 .LEHB140-.LFB1172
 5856 03c9 05       		.uleb128 .LEHE140-.LEHB140
 5857 03ca 00       		.uleb128 0
 5858 03cb 00       		.uleb128 0
 5859 03cc 8C05     		.uleb128 .LEHB141-.LFB1172
 5860 03ce 2E       		.uleb128 .LEHE141-.LEHB141
 5861 03cf A507     		.uleb128 .L593-.LFB1172
 5862 03d1 00       		.uleb128 0
 5863 03d2 BA05     		.uleb128 .LEHB142-.LFB1172
 5864 03d4 05       		.uleb128 .LEHE142-.LEHB142
 5865 03d5 8107     		.uleb128 .L585-.LFB1172
 5866 03d7 00       		.uleb128 0
 5867 03d8 C905     		.uleb128 .LEHB143-.LFB1172
 5868 03da 2E       		.uleb128 .LEHE143-.LEHB143
 5869 03db B907     		.uleb128 .L591-.LFB1172
 5870 03dd 00       		.uleb128 0
 5871 03de F705     		.uleb128 .LEHB144-.LFB1172
 5872 03e0 05       		.uleb128 .LEHE144-.LEHB144
 5873 03e1 8107     		.uleb128 .L585-.LFB1172
 5874 03e3 00       		.uleb128 0
 5875 03e4 8906     		.uleb128 .LEHB145-.LFB1172
 5876 03e6 2E       		.uleb128 .LEHE145-.LEHB145
 5877 03e7 AF07     		.uleb128 .L587-.LFB1172
 5878 03e9 00       		.uleb128 0
 5879 03ea B706     		.uleb128 .LEHB146-.LFB1172
 5880 03ec 05       		.uleb128 .LEHE146-.LEHB146
 5881 03ed 8107     		.uleb128 .L585-.LFB1172
 5882 03ef 00       		.uleb128 0
 5883 03f0 C906     		.uleb128 .LEHB147-.LFB1172
 5884 03f2 2E       		.uleb128 .LEHE147-.LEHB147
 5885 03f3 C307     		.uleb128 .L589-.LFB1172
 5886 03f5 00       		.uleb128 0
 5887 03f6 F706     		.uleb128 .LEHB148-.LFB1172
 5888 03f8 05       		.uleb128 .LEHE148-.LEHB148
 5889 03f9 8107     		.uleb128 .L585-.LFB1172
 5890 03fb 00       		.uleb128 0
 5891 03fc A007     		.uleb128 .LEHB149-.LFB1172
 5892 03fe 05       		.uleb128 .LEHE149-.LEHB149
 5893 03ff 00       		.uleb128 0
 5894 0400 00       		.uleb128 0
 5895              	.LLSDACSE1172:
 5896 0401 01       		.byte	0x1
 5897 0402 00       		.byte	0
 5898 0403 00       		.align 4
 5899 0404 00000000 		.long	0
 5900              	
 5901              	.LLSDATT1172:
 5902              		.text
 5904              		.align 2
 5905 3572 66666666 		.p2align 4,,15
 5905      662E0F1F 
 5905      84000000 
 5905      0000
 5907              	_ZNK12_GLOBAL__N_124TestCheckArrayCloseFalse7RunImplEv:
 5908              	.LFB1168:
 5909              		.cfi_startproc
 5910              		.cfi_personality 0x3,__gxx_personality_v0
 5911              		.cfi_lsda 0x3,.LLSDA1168
 5912 3580 53       		pushq	%rbx
 5913              		.cfi_def_cfa_offset 16
 5914              		.cfi_offset 3, -16
 5915 3581 31F6     		xorl	%esi, %esi
 5916 3583 4883C480 		addq	$-128, %rsp
 5917              		.cfi_def_cfa_offset 144
 5918 3587 488D7C24 		leaq	64(%rsp), %rdi
 5918      40
 5919              	.LEHB150:
 5920 358c E8000000 		call	_ZN8UnitTest11TestResultsC1EPNS_12TestReporterE
 5920      00
 5921 3591 B9000000 		movl	$.LC1, %ecx
 5921      00
 5922 3596 488D7C24 		leaq	96(%rsp), %rdi
 5922      60
 5923 359b 4531C0   		xorl	%r8d, %r8d
 5924 359e 4889CA   		movq	%rcx, %rdx
 5925 35a1 4889CE   		movq	%rcx, %rsi
 5926 35a4 C7442420 		movl	$0x3f800000, 32(%rsp)
 5926      0000803F 
 5927 35ac C7442424 		movl	$0x3fc00000, 36(%rsp)
 5927      0000C03F 
 5928 35b4 C7442428 		movl	$0x40000000, 40(%rsp)
 5928      00000040 
 5929 35bc C7442430 		movl	$0x3f8147ae, 48(%rsp)
 5929      AE47813F 
 5930 35c4 C7442434 		movl	$0x3fc147ae, 52(%rsp)
 5930      AE47C13F 
 5931 35cc C7442438 		movl	$0x4000a3d7, 56(%rsp)
 5931      D7A30040 
 5932 35d4 E8000000 		call	_ZN8UnitTest11TestDetailsC1EPKcS2_S2_i
 5932      00
 5933 35d9 4C8D4424 		leaq	96(%rsp), %r8
 5933      60
 5934 35de 488D4C24 		leaq	16(%rsp), %rcx
 5934      10
 5935 35e3 488D5424 		leaq	48(%rsp), %rdx
 5935      30
 5936 35e8 488D7424 		leaq	32(%rsp), %rsi
 5936      20
 5937 35ed 488D7C24 		leaq	64(%rsp), %rdi
 5937      40
 5938 35f2 C7442410 		movl	$0x3a83126f, 16(%rsp)
 5938      6F12833A 
 5939 35fa E821DEFF 		call	_ZN8UnitTest15CheckArrayCloseIA3_fS1_fEEvRNS_11TestResultsERKT_RKT0_iRKT1_RKNS_11TestDetailsE
 5939      FF
 5940              	.LEHE150:
 5941              	.LEHB151:
 5942 35ff E8000000 		call	_ZN8UnitTest11CurrentTest7DetailsEv
 5942      00
 5943 3604 488B30   		movq	(%rax), %rsi
 5944 3607 488D7C24 		leaq	96(%rsp), %rdi
 5944      60
 5945 360c BADC0000 		movl	$220, %edx
 5945      00
 5946 3611 E8000000 		call	_ZN8UnitTest11TestDetailsC1ERKS0_i
 5946      00
 5947 3616 488D7C24 		leaq	64(%rsp), %rdi
 5947      40
 5948 361b E8000000 		call	_ZNK8UnitTest11TestResults15GetFailureCountEv
 5948      00
 5949 3620 89442410 		movl	%eax, 16(%rsp)
 5950 3624 C7042401 		movl	$1, (%rsp)
 5950      000000
 5951 362b E8000000 		call	_ZN8UnitTest11CurrentTest7ResultsEv
 5951      00
 5952 3630 488B38   		movq	(%rax), %rdi
 5953 3633 488D4C24 		leaq	96(%rsp), %rcx
 5953      60
 5954 3638 488D5424 		leaq	16(%rsp), %rdx
 5954      10
 5955 363d 4889E6   		movq	%rsp, %rsi
 5956 3640 E8000000 		call	_ZN8UnitTest10CheckEqualIiiEEvRNS_11TestResultsERKT_RKT0_RKNS_11TestDetailsE
 5956      00
 5957              	.LEHE151:
 5958              	.L597:
 5959 3645 4883EC80 		subq	$-128, %rsp
 5960              		.cfi_remember_state
 5961              		.cfi_def_cfa_offset 16
 5962 3649 5B       		popq	%rbx
 5963              		.cfi_def_cfa_offset 8
 5964 364a C3       		ret
 5965              	.L601:
 5966              		.cfi_restore_state
 5967 364b 4889C7   		movq	%rax, %rdi
 5968 364e E8000000 		call	__cxa_begin_catch
 5968      00
 5969              	.LEHB152:
 5970 3653 E8000000 		call	_ZN8UnitTest11CurrentTest7DetailsEv
 5970      00
 5971 3658 488B30   		movq	(%rax), %rsi
 5972 365b 488D7C24 		leaq	96(%rsp), %rdi
 5972      60
 5973 3660 BADC0000 		movl	$220, %edx
 5973      00
 5974 3665 E8000000 		call	_ZN8UnitTest11TestDetailsC1ERKS0_i
 5974      00
 5975 366a E8000000 		call	_ZN8UnitTest11CurrentTest7ResultsEv
 5975      00
 5976 366f 488B38   		movq	(%rax), %rdi
 5977 3672 488D7424 		leaq	96(%rsp), %rsi
 5977      60
 5978 3677 BA000000 		movl	$.LC49, %edx
 5978      00
 5979 367c E8000000 		call	_ZN8UnitTest11TestResults13OnTestFailureERKNS_11TestDetailsEPKc
 5979      00
 5980              	.LEHE152:
 5981              	.LEHB153:
 5982 3681 E8000000 		call	__cxa_end_catch
 5982      00
 5983              	.LEHE153:
 5984 3686 EBBD     		jmp	.L597
 5985              	.L602:
 5986 3688 4889C3   		movq	%rax, %rbx
 5987 368b 0F1F4400 		.p2align 4,,5
 5987      00
 5988 3690 E8000000 		call	__cxa_end_catch
 5988      00
 5989 3695 4889DF   		movq	%rbx, %rdi
 5990              	.LEHB154:
 5991 3698 E8000000 		call	_Unwind_Resume
 5991      00
 5992              	.LEHE154:
 5993              		.cfi_endproc
 5994              	.LFE1168:
 5995              		.section	.gcc_except_table
 5996              		.align 4
 5997              	.LLSDA1168:
 5998 0408 FF       		.byte	0xff
 5999 0409 03       		.byte	0x3
 6000 040a 21       		.uleb128 .LLSDATT1168-.LLSDATTD1168
 6001              	.LLSDATTD1168:
 6002 040b 01       		.byte	0x1
 6003 040c 19       		.uleb128 .LLSDACSE1168-.LLSDACSB1168
 6004              	.LLSDACSB1168:
 6005 040d 0C       		.uleb128 .LEHB150-.LFB1168
 6006 040e 73       		.uleb128 .LEHE150-.LEHB150
 6007 040f 00       		.uleb128 0
 6008 0410 00       		.uleb128 0
 6009 0411 7F       		.uleb128 .LEHB151-.LFB1168
 6010 0412 46       		.uleb128 .LEHE151-.LEHB151
 6011 0413 CB01     		.uleb128 .L601-.LFB1168
 6012 0415 01       		.uleb128 0x1
 6013 0416 D301     		.uleb128 .LEHB152-.LFB1168
 6014 0418 2E       		.uleb128 .LEHE152-.LEHB152
 6015 0419 8802     		.uleb128 .L602-.LFB1168
 6016 041b 00       		.uleb128 0
 6017 041c 8102     		.uleb128 .LEHB153-.LFB1168
 6018 041e 05       		.uleb128 .LEHE153-.LEHB153
 6019 041f 00       		.uleb128 0
 6020 0420 00       		.uleb128 0
 6021 0421 9802     		.uleb128 .LEHB154-.LFB1168
 6022 0423 05       		.uleb128 .LEHE154-.LEHB154
 6023 0424 00       		.uleb128 0
 6024 0425 00       		.uleb128 0
 6025              	.LLSDACSE1168:
 6026 0426 01       		.byte	0x1
 6027 0427 00       		.byte	0
 6028              		.align 4
 6029 0428 00000000 		.long	0
 6030              	
 6031              	.LLSDATT1168:
 6032              		.text
 6034 369d 90       		.align 2
 6035 369e 6690     		.p2align 4,,15
 6037              	_ZNK12_GLOBAL__N_123TestCheckArrayCloseTrue7RunImplEv:
 6038              	.LFB1164:
 6039              		.cfi_startproc
 6040              		.cfi_personality 0x3,__gxx_personality_v0
 6041              		.cfi_lsda 0x3,.LLSDA1164
 6042 36a0 53       		pushq	%rbx
 6043              		.cfi_def_cfa_offset 16
 6044              		.cfi_offset 3, -16
 6045 36a1 31F6     		xorl	%esi, %esi
 6046 36a3 4883C480 		addq	$-128, %rsp
 6047              		.cfi_def_cfa_offset 144
 6048 36a7 488D7C24 		leaq	64(%rsp), %rdi
 6048      40
 6049              	.LEHB155:
 6050 36ac E8000000 		call	_ZN8UnitTest11TestResultsC1EPNS_12TestReporterE
 6050      00
 6051 36b1 B9000000 		movl	$.LC1, %ecx
 6051      00
 6052 36b6 488D7C24 		leaq	96(%rsp), %rdi
 6052      60
 6053 36bb 4531C0   		xorl	%r8d, %r8d
 6054 36be 4889CA   		movq	%rcx, %rdx
 6055 36c1 4889CE   		movq	%rcx, %rsi
 6056 36c4 C7442420 		movl	$0x3f800000, 32(%rsp)
 6056      0000803F 
 6057 36cc C7442424 		movl	$0x3fc00000, 36(%rsp)
 6057      0000C03F 
 6058 36d4 C7442428 		movl	$0x40000000, 40(%rsp)
 6058      00000040 
 6059 36dc C7442430 		movl	$0x3f8147ae, 48(%rsp)
 6059      AE47813F 
 6060 36e4 C7442434 		movl	$0x3fc147ae, 52(%rsp)
 6060      AE47C13F 
 6061 36ec C7442438 		movl	$0x4000a3d7, 56(%rsp)
 6061      D7A30040 
 6062 36f4 E8000000 		call	_ZN8UnitTest11TestDetailsC1EPKcS2_S2_i
 6062      00
 6063 36f9 4C8D4424 		leaq	96(%rsp), %r8
 6063      60
 6064 36fe 488D4C24 		leaq	16(%rsp), %rcx
 6064      10
 6065 3703 488D5424 		leaq	48(%rsp), %rdx
 6065      30
 6066 3708 488D7424 		leaq	32(%rsp), %rsi
 6066      20
 6067 370d 488D7C24 		leaq	64(%rsp), %rdi
 6067      40
 6068 3712 C7442410 		movl	$0x3ca3d70a, 16(%rsp)
 6068      0AD7A33C 
 6069 371a E801DDFF 		call	_ZN8UnitTest15CheckArrayCloseIA3_fS1_fEEvRNS_11TestResultsERKT_RKT0_iRKT1_RKNS_11TestDetailsE
 6069      FF
 6070              	.LEHE155:
 6071              	.LEHB156:
 6072 371f E8000000 		call	_ZN8UnitTest11CurrentTest7DetailsEv
 6072      00
 6073 3724 488B30   		movq	(%rax), %rsi
 6074 3727 488D7C24 		leaq	96(%rsp), %rdi
 6074      60
 6075 372c BAD20000 		movl	$210, %edx
 6075      00
 6076 3731 E8000000 		call	_ZN8UnitTest11TestDetailsC1ERKS0_i
 6076      00
 6077 3736 488D7C24 		leaq	64(%rsp), %rdi
 6077      40
 6078 373b E8000000 		call	_ZNK8UnitTest11TestResults15GetFailureCountEv
 6078      00
 6079 3740 89442410 		movl	%eax, 16(%rsp)
 6080 3744 C7042400 		movl	$0, (%rsp)
 6080      000000
 6081 374b E8000000 		call	_ZN8UnitTest11CurrentTest7ResultsEv
 6081      00
 6082 3750 488B38   		movq	(%rax), %rdi
 6083 3753 488D4C24 		leaq	96(%rsp), %rcx
 6083      60
 6084 3758 488D5424 		leaq	16(%rsp), %rdx
 6084      10
 6085 375d 4889E6   		movq	%rsp, %rsi
 6086 3760 E8000000 		call	_ZN8UnitTest10CheckEqualIiiEEvRNS_11TestResultsERKT_RKT0_RKNS_11TestDetailsE
 6086      00
 6087              	.LEHE156:
 6088              	.L604:
 6089 3765 4883EC80 		subq	$-128, %rsp
 6090              		.cfi_remember_state
 6091              		.cfi_def_cfa_offset 16
 6092 3769 5B       		popq	%rbx
 6093              		.cfi_def_cfa_offset 8
 6094 376a C3       		ret
 6095              	.L608:
 6096              		.cfi_restore_state
 6097 376b 4889C7   		movq	%rax, %rdi
 6098 376e E8000000 		call	__cxa_begin_catch
 6098      00
 6099              	.LEHB157:
 6100 3773 E8000000 		call	_ZN8UnitTest11CurrentTest7DetailsEv
 6100      00
 6101 3778 488B30   		movq	(%rax), %rsi
 6102 377b 488D7C24 		leaq	96(%rsp), %rdi
 6102      60
 6103 3780 BAD20000 		movl	$210, %edx
 6103      00
 6104 3785 E8000000 		call	_ZN8UnitTest11TestDetailsC1ERKS0_i
 6104      00
 6105 378a E8000000 		call	_ZN8UnitTest11CurrentTest7ResultsEv
 6105      00
 6106 378f 488B38   		movq	(%rax), %rdi
 6107 3792 488D7424 		leaq	96(%rsp), %rsi
 6107      60
 6108 3797 BA000000 		movl	$.LC51, %edx
 6108      00
 6109 379c E8000000 		call	_ZN8UnitTest11TestResults13OnTestFailureERKNS_11TestDetailsEPKc
 6109      00
 6110              	.LEHE157:
 6111              	.LEHB158:
 6112 37a1 E8000000 		call	__cxa_end_catch
 6112      00
 6113              	.LEHE158:
 6114 37a6 EBBD     		jmp	.L604
 6115              	.L609:
 6116 37a8 4889C3   		movq	%rax, %rbx
 6117 37ab 0F1F4400 		.p2align 4,,5
 6117      00
 6118 37b0 E8000000 		call	__cxa_end_catch
 6118      00
 6119 37b5 4889DF   		movq	%rbx, %rdi
 6120              	.LEHB159:
 6121 37b8 E8000000 		call	_Unwind_Resume
 6121      00
 6122              	.LEHE159:
 6123              		.cfi_endproc
 6124              	.LFE1164:
 6125              		.section	.gcc_except_table
 6126              		.align 4
 6127              	.LLSDA1164:
 6128 042c FF       		.byte	0xff
 6129 042d 03       		.byte	0x3
 6130 042e 21       		.uleb128 .LLSDATT1164-.LLSDATTD1164
 6131              	.LLSDATTD1164:
 6132 042f 01       		.byte	0x1
 6133 0430 19       		.uleb128 .LLSDACSE1164-.LLSDACSB1164
 6134              	.LLSDACSB1164:
 6135 0431 0C       		.uleb128 .LEHB155-.LFB1164
 6136 0432 73       		.uleb128 .LEHE155-.LEHB155
 6137 0433 00       		.uleb128 0
 6138 0434 00       		.uleb128 0
 6139 0435 7F       		.uleb128 .LEHB156-.LFB1164
 6140 0436 46       		.uleb128 .LEHE156-.LEHB156
 6141 0437 CB01     		.uleb128 .L608-.LFB1164
 6142 0439 01       		.uleb128 0x1
 6143 043a D301     		.uleb128 .LEHB157-.LFB1164
 6144 043c 2E       		.uleb128 .LEHE157-.LEHB157
 6145 043d 8802     		.uleb128 .L609-.LFB1164
 6146 043f 00       		.uleb128 0
 6147 0440 8102     		.uleb128 .LEHB158-.LFB1164
 6148 0442 05       		.uleb128 .LEHE158-.LEHB158
 6149 0443 00       		.uleb128 0
 6150 0444 00       		.uleb128 0
 6151 0445 9802     		.uleb128 .LEHB159-.LFB1164
 6152 0447 05       		.uleb128 .LEHE159-.LEHB159
 6153 0448 00       		.uleb128 0
 6154 0449 00       		.uleb128 0
 6155              	.LLSDACSE1164:
 6156 044a 01       		.byte	0x1
 6157 044b 00       		.byte	0
 6158              		.align 4
 6159 044c 00000000 		.long	0
 6160              	
 6161              	.LLSDATT1164:
 6162              		.text
 6164 37bd 90       		.align 2
 6165 37be 6690     		.p2align 4,,15
 6167              	_ZNK12_GLOBAL__N_124TestCheckArrayEqualFalse7RunImplEv:
 6168              	.LFB1160:
 6169              		.cfi_startproc
 6170              		.cfi_personality 0x3,__gxx_personality_v0
 6171              		.cfi_lsda 0x3,.LLSDA1160
 6172 37c0 53       		pushq	%rbx
 6173              		.cfi_def_cfa_offset 16
 6174              		.cfi_offset 3, -16
 6175 37c1 31F6     		xorl	%esi, %esi
 6176 37c3 4883C480 		addq	$-128, %rsp
 6177              		.cfi_def_cfa_offset 144
 6178 37c7 488D7C24 		leaq	64(%rsp), %rdi
 6178      40
 6179              	.LEHB160:
 6180 37cc E8000000 		call	_ZN8UnitTest11TestResultsC1EPNS_12TestReporterE
 6180      00
 6181 37d1 B9000000 		movl	$.LC1, %ecx
 6181      00
 6182 37d6 488D7C24 		leaq	96(%rsp), %rdi
 6182      60
 6183 37db 4531C0   		xorl	%r8d, %r8d
 6184 37de 4889CA   		movq	%rcx, %rdx
 6185 37e1 4889CE   		movq	%rcx, %rsi
 6186 37e4 C7442420 		movl	$1, 32(%rsp)
 6186      01000000 
 6187 37ec C7442424 		movl	$2, 36(%rsp)
 6187      02000000 
 6188 37f4 C7442428 		movl	$3, 40(%rsp)
 6188      03000000 
 6189 37fc C7442430 		movl	$1, 48(%rsp)
 6189      01000000 
 6190 3804 C7442434 		movl	$2, 52(%rsp)
 6190      02000000 
 6191 380c C7442438 		movl	$2, 56(%rsp)
 6191      02000000 
 6192 3814 E8000000 		call	_ZN8UnitTest11TestDetailsC1EPKcS2_S2_i
 6192      00
 6193 3819 488D4C24 		leaq	96(%rsp), %rcx
 6193      60
 6194 381e 488D5424 		leaq	48(%rsp), %rdx
 6194      30
 6195 3823 488D7424 		leaq	32(%rsp), %rsi
 6195      20
 6196 3828 488D7C24 		leaq	64(%rsp), %rdi
 6196      40
 6197 382d E86ED8FF 		call	_ZN8UnitTest15CheckArrayEqualIA3_iS1_EEvRNS_11TestResultsERKT_RKT0_iRKNS_11TestDetailsE.const
 6197      FF
 6198              	.LEHE160:
 6199              	.LEHB161:
 6200 3832 E8000000 		call	_ZN8UnitTest11CurrentTest7DetailsEv
 6200      00
 6201 3837 488B30   		movq	(%rax), %rsi
 6202 383a 488D7C24 		leaq	96(%rsp), %rdi
 6202      60
 6203 383f BAC80000 		movl	$200, %edx
 6203      00
 6204 3844 E8000000 		call	_ZN8UnitTest11TestDetailsC1ERKS0_i
 6204      00
 6205 3849 488D7C24 		leaq	64(%rsp), %rdi
 6205      40
 6206 384e E8000000 		call	_ZNK8UnitTest11TestResults15GetFailureCountEv
 6206      00
 6207 3853 89442410 		movl	%eax, 16(%rsp)
 6208 3857 C7042401 		movl	$1, (%rsp)
 6208      000000
 6209 385e E8000000 		call	_ZN8UnitTest11CurrentTest7ResultsEv
 6209      00
 6210 3863 488B38   		movq	(%rax), %rdi
 6211 3866 488D4C24 		leaq	96(%rsp), %rcx
 6211      60
 6212 386b 488D5424 		leaq	16(%rsp), %rdx
 6212      10
 6213 3870 4889E6   		movq	%rsp, %rsi
 6214 3873 E8000000 		call	_ZN8UnitTest10CheckEqualIiiEEvRNS_11TestResultsERKT_RKT0_RKNS_11TestDetailsE
 6214      00
 6215              	.LEHE161:
 6216              	.L611:
 6217 3878 4883EC80 		subq	$-128, %rsp
 6218              		.cfi_remember_state
 6219              		.cfi_def_cfa_offset 16
 6220 387c 5B       		popq	%rbx
 6221              		.cfi_def_cfa_offset 8
 6222 387d C3       		ret
 6223              	.L615:
 6224              		.cfi_restore_state
 6225 387e 4889C7   		movq	%rax, %rdi
 6226 3881 E8000000 		call	__cxa_begin_catch
 6226      00
 6227              	.LEHB162:
 6228 3886 E8000000 		call	_ZN8UnitTest11CurrentTest7DetailsEv
 6228      00
 6229 388b 488B30   		movq	(%rax), %rsi
 6230 388e 488D7C24 		leaq	96(%rsp), %rdi
 6230      60
 6231 3893 BAC80000 		movl	$200, %edx
 6231      00
 6232 3898 E8000000 		call	_ZN8UnitTest11TestDetailsC1ERKS0_i
 6232      00
 6233 389d E8000000 		call	_ZN8UnitTest11CurrentTest7ResultsEv
 6233      00
 6234 38a2 488B38   		movq	(%rax), %rdi
 6235 38a5 488D7424 		leaq	96(%rsp), %rsi
 6235      60
 6236 38aa BA000000 		movl	$.LC49, %edx
 6236      00
 6237 38af E8000000 		call	_ZN8UnitTest11TestResults13OnTestFailureERKNS_11TestDetailsEPKc
 6237      00
 6238              	.LEHE162:
 6239              	.LEHB163:
 6240 38b4 E8000000 		call	__cxa_end_catch
 6240      00
 6241              	.LEHE163:
 6242 38b9 EBBD     		jmp	.L611
 6243              	.L616:
 6244 38bb 4889C3   		movq	%rax, %rbx
 6245 38be 6690     		.p2align 4,,5
 6246 38c0 E8000000 		call	__cxa_end_catch
 6246      00
 6247 38c5 4889DF   		movq	%rbx, %rdi
 6248              	.LEHB164:
 6249 38c8 E8000000 		call	_Unwind_Resume
 6249      00
 6250              	.LEHE164:
 6251              		.cfi_endproc
 6252              	.LFE1160:
 6253              		.section	.gcc_except_table
 6254              		.align 4
 6255              	.LLSDA1160:
 6256 0450 FF       		.byte	0xff
 6257 0451 03       		.byte	0x3
 6258 0452 21       		.uleb128 .LLSDATT1160-.LLSDATTD1160
 6259              	.LLSDATTD1160:
 6260 0453 01       		.byte	0x1
 6261 0454 19       		.uleb128 .LLSDACSE1160-.LLSDACSB1160
 6262              	.LLSDACSB1160:
 6263 0455 0C       		.uleb128 .LEHB160-.LFB1160
 6264 0456 66       		.uleb128 .LEHE160-.LEHB160
 6265 0457 00       		.uleb128 0
 6266 0458 00       		.uleb128 0
 6267 0459 72       		.uleb128 .LEHB161-.LFB1160
 6268 045a 46       		.uleb128 .LEHE161-.LEHB161
 6269 045b BE01     		.uleb128 .L615-.LFB1160
 6270 045d 01       		.uleb128 0x1
 6271 045e C601     		.uleb128 .LEHB162-.LFB1160
 6272 0460 2E       		.uleb128 .LEHE162-.LEHB162
 6273 0461 FB01     		.uleb128 .L616-.LFB1160
 6274 0463 00       		.uleb128 0
 6275 0464 F401     		.uleb128 .LEHB163-.LFB1160
 6276 0466 05       		.uleb128 .LEHE163-.LEHB163
 6277 0467 00       		.uleb128 0
 6278 0468 00       		.uleb128 0
 6279 0469 8802     		.uleb128 .LEHB164-.LFB1160
 6280 046b 05       		.uleb128 .LEHE164-.LEHB164
 6281 046c 00       		.uleb128 0
 6282 046d 00       		.uleb128 0
 6283              	.LLSDACSE1160:
 6284 046e 01       		.byte	0x1
 6285 046f 00       		.byte	0
 6286              		.align 4
 6287 0470 00000000 		.long	0
 6288              	
 6289              	.LLSDATT1160:
 6290              		.text
 6292 38cd 90       		.align 2
 6293 38ce 6690     		.p2align 4,,15
 6295              	_ZNK12_GLOBAL__N_123TestCheckArrayEqualTrue7RunImplEv:
 6296              	.LFB1156:
 6297              		.cfi_startproc
 6298              		.cfi_personality 0x3,__gxx_personality_v0
 6299              		.cfi_lsda 0x3,.LLSDA1156
 6300 38d0 53       		pushq	%rbx
 6301              		.cfi_def_cfa_offset 16
 6302              		.cfi_offset 3, -16
 6303 38d1 31F6     		xorl	%esi, %esi
 6304 38d3 4883EC70 		subq	$112, %rsp
 6305              		.cfi_def_cfa_offset 128
 6306 38d7 488D7C24 		leaq	48(%rsp), %rdi
 6306      30
 6307              	.LEHB165:
 6308 38dc E8000000 		call	_ZN8UnitTest11TestResultsC1EPNS_12TestReporterE
 6308      00
 6309 38e1 B9000000 		movl	$.LC1, %ecx
 6309      00
 6310 38e6 488D7C24 		leaq	80(%rsp), %rdi
 6310      50
 6311 38eb 4531C0   		xorl	%r8d, %r8d
 6312 38ee 4889CA   		movq	%rcx, %rdx
 6313 38f1 4889CE   		movq	%rcx, %rsi
 6314 38f4 C7442420 		movl	$1, 32(%rsp)
 6314      01000000 
 6315 38fc C7442424 		movl	$2, 36(%rsp)
 6315      02000000 
 6316 3904 C7442428 		movl	$3, 40(%rsp)
 6316      03000000 
 6317 390c E8000000 		call	_ZN8UnitTest11TestDetailsC1EPKcS2_S2_i
 6317      00
 6318 3911 488D5424 		leaq	32(%rsp), %rdx
 6318      20
 6319 3916 488D4C24 		leaq	80(%rsp), %rcx
 6319      50
 6320 391b 488D7C24 		leaq	48(%rsp), %rdi
 6320      30
 6321 3920 4889D6   		movq	%rdx, %rsi
 6322 3923 E878D7FF 		call	_ZN8UnitTest15CheckArrayEqualIA3_iS1_EEvRNS_11TestResultsERKT_RKT0_iRKNS_11TestDetailsE.const
 6322      FF
 6323              	.LEHE165:
 6324              	.LEHB166:
 6325 3928 E8000000 		call	_ZN8UnitTest11CurrentTest7DetailsEv
 6325      00
 6326 392d 488B30   		movq	(%rax), %rsi
 6327 3930 488D7C24 		leaq	80(%rsp), %rdi
 6327      50
 6328 3935 BABE0000 		movl	$190, %edx
 6328      00
 6329 393a E8000000 		call	_ZN8UnitTest11TestDetailsC1ERKS0_i
 6329      00
 6330 393f 488D7C24 		leaq	48(%rsp), %rdi
 6330      30
 6331 3944 E8000000 		call	_ZNK8UnitTest11TestResults15GetFailureCountEv
 6331      00
 6332 3949 89442410 		movl	%eax, 16(%rsp)
 6333 394d C7042400 		movl	$0, (%rsp)
 6333      000000
 6334 3954 E8000000 		call	_ZN8UnitTest11CurrentTest7ResultsEv
 6334      00
 6335 3959 488B38   		movq	(%rax), %rdi
 6336 395c 488D4C24 		leaq	80(%rsp), %rcx
 6336      50
 6337 3961 488D5424 		leaq	16(%rsp), %rdx
 6337      10
 6338 3966 4889E6   		movq	%rsp, %rsi
 6339 3969 E8000000 		call	_ZN8UnitTest10CheckEqualIiiEEvRNS_11TestResultsERKT_RKT0_RKNS_11TestDetailsE
 6339      00
 6340              	.LEHE166:
 6341              	.L618:
 6342 396e 4883C470 		addq	$112, %rsp
 6343              		.cfi_remember_state
 6344              		.cfi_def_cfa_offset 16
 6345 3972 5B       		popq	%rbx
 6346              		.cfi_def_cfa_offset 8
 6347 3973 C3       		ret
 6348              	.L622:
 6349              		.cfi_restore_state
 6350 3974 4889C7   		movq	%rax, %rdi
 6351 3977 E8000000 		call	__cxa_begin_catch
 6351      00
 6352              	.LEHB167:
 6353 397c E8000000 		call	_ZN8UnitTest11CurrentTest7DetailsEv
 6353      00
 6354 3981 488B30   		movq	(%rax), %rsi
 6355 3984 488D7C24 		leaq	80(%rsp), %rdi
 6355      50
 6356 3989 BABE0000 		movl	$190, %edx
 6356      00
 6357 398e E8000000 		call	_ZN8UnitTest11TestDetailsC1ERKS0_i
 6357      00
 6358 3993 E8000000 		call	_ZN8UnitTest11CurrentTest7ResultsEv
 6358      00
 6359 3998 488B38   		movq	(%rax), %rdi
 6360 399b 488D7424 		leaq	80(%rsp), %rsi
 6360      50
 6361 39a0 BA000000 		movl	$.LC51, %edx
 6361      00
 6362 39a5 E8000000 		call	_ZN8UnitTest11TestResults13OnTestFailureERKNS_11TestDetailsEPKc
 6362      00
 6363              	.LEHE167:
 6364              	.LEHB168:
 6365 39aa E8000000 		call	__cxa_end_catch
 6365      00
 6366              	.LEHE168:
 6367 39af EBBD     		jmp	.L618
 6368              	.L623:
 6369 39b1 4889C3   		movq	%rax, %rbx
 6370              		.p2align 4,,5
 6371 39b4 E8000000 		call	__cxa_end_catch
 6371      00
 6372 39b9 4889DF   		movq	%rbx, %rdi
 6373              	.LEHB169:
 6374 39bc E8000000 		call	_Unwind_Resume
 6374      00
 6375              	.LEHE169:
 6376              		.cfi_endproc
 6377              	.LFE1156:
 6378              		.section	.gcc_except_table
 6379              		.align 4
 6380              	.LLSDA1156:
 6381 0474 FF       		.byte	0xff
 6382 0475 03       		.byte	0x3
 6383 0476 21       		.uleb128 .LLSDATT1156-.LLSDATTD1156
 6384              	.LLSDATTD1156:
 6385 0477 01       		.byte	0x1
 6386 0478 19       		.uleb128 .LLSDACSE1156-.LLSDACSB1156
 6387              	.LLSDACSB1156:
 6388 0479 0C       		.uleb128 .LEHB165-.LFB1156
 6389 047a 4C       		.uleb128 .LEHE165-.LEHB165
 6390 047b 00       		.uleb128 0
 6391 047c 00       		.uleb128 0
 6392 047d 58       		.uleb128 .LEHB166-.LFB1156
 6393 047e 46       		.uleb128 .LEHE166-.LEHB166
 6394 047f A401     		.uleb128 .L622-.LFB1156
 6395 0481 01       		.uleb128 0x1
 6396 0482 AC01     		.uleb128 .LEHB167-.LFB1156
 6397 0484 2E       		.uleb128 .LEHE167-.LEHB167
 6398 0485 E101     		.uleb128 .L623-.LFB1156
 6399 0487 00       		.uleb128 0
 6400 0488 DA01     		.uleb128 .LEHB168-.LFB1156
 6401 048a 05       		.uleb128 .LEHE168-.LEHB168
 6402 048b 00       		.uleb128 0
 6403 048c 00       		.uleb128 0
 6404 048d EC01     		.uleb128 .LEHB169-.LFB1156
 6405 048f 05       		.uleb128 .LEHE169-.LEHB169
 6406 0490 00       		.uleb128 0
 6407 0491 00       		.uleb128 0
 6408              	.LLSDACSE1156:
 6409 0492 01       		.byte	0x1
 6410 0493 00       		.byte	0
 6411              		.align 4
 6412 0494 00000000 		.long	0
 6413              	
 6414              	.LLSDATT1156:
 6415              		.text
 6417 39c1 90       		.align 2
 6418 39c2 66666666 		.p2align 4,,15
 6418      662E0F1F 
 6418      84000000 
 6418      0000
 6420              	_ZNK12_GLOBAL__N_139TestCheckCloseWithNaNAgainstItselfFails7RunImplEv:
 6421              	.LFB1140:
 6422              		.cfi_startproc
 6423              		.cfi_personality 0x3,__gxx_personality_v0
 6424              		.cfi_lsda 0x3,.LLSDA1140
 6425 39d0 53       		pushq	%rbx
 6426              		.cfi_def_cfa_offset 16
 6427              		.cfi_offset 3, -16
 6428 39d1 31F6     		xorl	%esi, %esi
 6429 39d3 4881ECC0 		subq	$448, %rsp
 6429      010000
 6430              		.cfi_def_cfa_offset 464
 6431 39da 488D7C24 		leaq	16(%rsp), %rdi
 6431      10
 6432 39df 488D9C24 		leaq	176(%rsp), %rbx
 6432      B0000000 
 6433              	.LEHB170:
 6434 39e7 E8000000 		call	_ZN8UnitTest11TestResultsC1EPNS_12TestReporterE
 6434      00
 6435 39ec B9000000 		movl	$.LC1, %ecx
 6435      00
 6436 39f1 488D7C24 		leaq	48(%rsp), %rdi
 6436      30
 6437 39f6 4531C0   		xorl	%r8d, %r8d
 6438 39f9 4889CE   		movq	%rcx, %rsi
 6439 39fc 4889CA   		movq	%rcx, %rdx
 6440 39ff E8000000 		call	_ZN8UnitTest11TestDetailsC1EPKcS2_S2_i
 6440      00
 6441              	.LEHE170:
 6442 3a04 4889DF   		movq	%rbx, %rdi
 6443 3a07 E8000000 		call	_ZNSt8ios_baseC2Ev
 6443      00
 6444 3a0c 31F6     		xorl	%esi, %esi
 6445 3a0e 4889DF   		movq	%rbx, %rdi
 6446 3a11 48C78424 		movq	$0, 392(%rsp)
 6446      88010000 
 6446      00000000 
 6447 3a1d C6842490 		movb	$0, 400(%rsp)
 6447      01000000 
 6448 3a25 C6842491 		movb	$0, 401(%rsp)
 6448      01000000 
 6449 3a2d 48C78424 		movq	$0, 408(%rsp)
 6449      98010000 
 6449      00000000 
 6450 3a39 48C78424 		movq	$0, 416(%rsp)
 6450      A0010000 
 6450      00000000 
 6451 3a45 48C78424 		movq	$0, 424(%rsp)
 6451      A8010000 
 6451      00000000 
 6452 3a51 48C78424 		movq	$0, 432(%rsp)
 6452      B0010000 
 6452      00000000 
 6453 3a5d 48C74424 		movq	$_ZTCN8UnitTest15MemoryOutStreamE0_So+24, 80(%rsp)
 6453      50000000 
 6453      00
 6454 3a66 48C78424 		movq	$_ZTCN8UnitTest15MemoryOutStreamE0_So+64, 176(%rsp)
 6454      B0000000 
 6454      00000000 
 6455              	.LEHB171:
 6456 3a72 E8000000 		call	_ZNSt9basic_iosIcSt11char_traitsIcEE4initEPSt15basic_streambufIcS1_E
 6456      00
 6457              	.LEHE171:
 6458 3a77 488DBC24 		leaq	144(%rsp), %rdi
 6458      90000000 
 6459 3a7f 48C74424 		movq	$_ZTCN8UnitTest15MemoryOutStreamE0_St19basic_ostringstreamIcSt11char_traitsIcESaIcEE+24, 80(%
 6459      50000000 
 6459      00
 6460 3a88 48C78424 		movq	$_ZTCN8UnitTest15MemoryOutStreamE0_St19basic_ostringstreamIcSt11char_traitsIcESaIcEE+64, 176(
 6460      B0000000 
 6460      00000000 
 6461 3a94 48C74424 		movq	$_ZTVSt15basic_streambufIcSt11char_traitsIcEE+16, 88(%rsp)
 6461      58000000 
 6461      00
 6462 3a9d 48C74424 		movq	$0, 96(%rsp)
 6462      60000000 
 6462      00
 6463 3aa6 48C74424 		movq	$0, 104(%rsp)
 6463      68000000 
 6463      00
 6464 3aaf 48C74424 		movq	$0, 112(%rsp)
 6464      70000000 
 6464      00
 6465 3ab8 48C74424 		movq	$0, 120(%rsp)
 6465      78000000 
 6465      00
 6466 3ac1 48C78424 		movq	$0, 128(%rsp)
 6466      80000000 
 6466      00000000 
 6467 3acd 48C78424 		movq	$0, 136(%rsp)
 6467      88000000 
 6467      00000000 
 6468 3ad9 E8000000 		call	_ZNSt6localeC1Ev
 6468      00
 6469 3ade 488B4424 		movq	80(%rsp), %rax
 6469      50
 6470 3ae3 488D7C24 		leaq	80(%rsp), %rdi
 6470      50
 6471 3ae8 488D7424 		leaq	88(%rsp), %rsi
 6471      58
 6472 3aed 48C74424 		movq	$_ZTVSt15basic_stringbufIcSt11char_traitsIcESaIcEE+16, 88(%rsp)
 6472      58000000 
 6472      00
 6473 3af6 C7842498 		movl	$16, 152(%rsp)
 6473      00000010 
 6473      000000
 6474 3b01 48C78424 		movq	$_ZNSs4_Rep20_S_empty_rep_storageE+24, 160(%rsp)
 6474      A0000000 
 6474      00000000 
 6475 3b0d 480378E8 		addq	-24(%rax), %rdi
 6476              	.LEHB172:
 6477 3b11 E8000000 		call	_ZNSt9basic_iosIcSt11char_traitsIcEE4initEPSt15basic_streambufIcS1_E
 6477      00
 6478              	.LEHE172:
 6479 3b16 488D7C24 		leaq	80(%rsp), %rdi
 6479      50
 6480 3b1b BA090000 		movl	$9, %edx
 6480      00
 6481 3b20 BE000000 		movl	$.LC2, %esi
 6481      00
 6482 3b25 48C74424 		movq	$_ZTVN8UnitTest15MemoryOutStreamE+24, 80(%rsp)
 6482      50000000 
 6482      00
 6483 3b2e 48C78424 		movq	$_ZTVN8UnitTest15MemoryOutStreamE+64, 176(%rsp)
 6483      B0000000 
 6483      00000000 
 6484 3b3a 48C78424 		movq	$_ZNSs4_Rep20_S_empty_rep_storageE+24, 168(%rsp)
 6484      A8000000 
 6484      00000000 
 6485              	.LEHB173:
 6486 3b46 E8000000 		call	_ZSt16__ostream_insertIcSt11char_traitsIcEERSt13basic_ostreamIT_T0_ES6_PKS3_l
 6486      00
 6487 3b4b F20F1005 		movsd	.LC71(%rip), %xmm0
 6487      00000000 
 6488 3b53 488D7C24 		leaq	80(%rsp), %rdi
 6488      50
 6489 3b58 E8000000 		call	_ZNSo9_M_insertIdEERSoT_
 6489      00
 6490 3b5d BA050000 		movl	$5, %edx
 6490      00
 6491 3b62 BE000000 		movl	$.LC4, %esi
 6491      00
 6492 3b67 4889C7   		movq	%rax, %rdi
 6493 3b6a 4889C3   		movq	%rax, %rbx
 6494 3b6d E8000000 		call	_ZSt16__ostream_insertIcSt11char_traitsIcEERSt13basic_ostreamIT_T0_ES6_PKS3_l
 6494      00
 6495 3b72 F20F1005 		movsd	.LC72(%rip), %xmm0
 6495      00000000 
 6496 3b7a 4889DF   		movq	%rbx, %rdi
 6497 3b7d E8000000 		call	_ZNSo9_M_insertIdEERSoT_
 6497      00
 6498 3b82 BA090000 		movl	$9, %edx
 6498      00
 6499 3b87 BE000000 		movl	$.LC6, %esi
 6499      00
 6500 3b8c 4889C7   		movq	%rax, %rdi
 6501 3b8f 4889C3   		movq	%rax, %rbx
 6502 3b92 E8000000 		call	_ZSt16__ostream_insertIcSt11char_traitsIcEERSt13basic_ostreamIT_T0_ES6_PKS3_l
 6502      00
 6503 3b97 F20F1005 		movsd	.LC71(%rip), %xmm0
 6503      00000000 
 6504 3b9f 4889DF   		movq	%rbx, %rdi
 6505 3ba2 E8000000 		call	_ZNSo9_M_insertIdEERSoT_
 6505      00
 6506 3ba7 488D7C24 		leaq	80(%rsp), %rdi
 6506      50
 6507 3bac E8000000 		call	_ZNK8UnitTest15MemoryOutStream7GetTextEv
 6507      00
 6508 3bb1 488D7424 		leaq	48(%rsp), %rsi
 6508      30
 6509 3bb6 488D7C24 		leaq	16(%rsp), %rdi
 6509      10
 6510 3bbb 4889C2   		movq	%rax, %rdx
 6511 3bbe E8000000 		call	_ZN8UnitTest11TestResults13OnTestFailureERKNS_11TestDetailsEPKc
 6511      00
 6512              	.LEHE173:
 6513 3bc3 488B8424 		movq	168(%rsp), %rax
 6513      A8000000 
 6514 3bcb 48C74424 		movq	$_ZTVN8UnitTest15MemoryOutStreamE+24, 80(%rsp)
 6514      50000000 
 6514      00
 6515 3bd4 48C78424 		movq	$_ZTVN8UnitTest15MemoryOutStreamE+64, 176(%rsp)
 6515      B0000000 
 6515      00000000 
 6516 3be0 488D78E8 		leaq	-24(%rax), %rdi
 6517 3be4 4881FF00 		cmpq	$_ZNSs4_Rep20_S_empty_rep_storageE, %rdi
 6517      000000
 6518 3beb 0F85BE00 		jne	.L654
 6518      0000
 6519              	.L631:
 6520 3bf1 488B8424 		movq	160(%rsp), %rax
 6520      A0000000 
 6521 3bf9 48C74424 		movq	$_ZTCN8UnitTest15MemoryOutStreamE0_St19basic_ostringstreamIcSt11char_traitsIcESaIcEE+24, 80(%
 6521      50000000 
 6521      00
 6522 3c02 48C78424 		movq	$_ZTCN8UnitTest15MemoryOutStreamE0_St19basic_ostringstreamIcSt11char_traitsIcESaIcEE+64, 176(
 6522      B0000000 
 6522      00000000 
 6523 3c0e 48C74424 		movq	$_ZTVSt15basic_stringbufIcSt11char_traitsIcESaIcEE+16, 88(%rsp)
 6523      58000000 
 6523      00
 6524 3c17 488D78E8 		leaq	-24(%rax), %rdi
 6525 3c1b 4881FF00 		cmpq	$_ZNSs4_Rep20_S_empty_rep_storageE, %rdi
 6525      000000
 6526 3c22 0F85B500 		jne	.L655
 6526      0000
 6527              	.L636:
 6528 3c28 488DBC24 		leaq	144(%rsp), %rdi
 6528      90000000 
 6529 3c30 48C74424 		movq	$_ZTVSt15basic_streambufIcSt11char_traitsIcEE+16, 88(%rsp)
 6529      58000000 
 6529      00
 6530 3c39 E8000000 		call	_ZNSt6localeD1Ev
 6530      00
 6531 3c3e 488DBC24 		leaq	176(%rsp), %rdi
 6531      B0000000 
 6532 3c46 48C74424 		movq	$_ZTCN8UnitTest15MemoryOutStreamE0_So+24, 80(%rsp)
 6532      50000000 
 6532      00
 6533 3c4f 48C78424 		movq	$_ZTVSt9basic_iosIcSt11char_traitsIcEE+16, 176(%rsp)
 6533      B0000000 
 6533      00000000 
 6534              	.LEHB174:
 6535 3c5b E8000000 		call	_ZNSt8ios_baseD2Ev
 6535      00
 6536              	.LEHE174:
 6537              	.LEHB175:
 6538 3c60 E8000000 		call	_ZN8UnitTest11CurrentTest7DetailsEv
 6538      00
 6539 3c65 488B30   		movq	(%rax), %rsi
 6540 3c68 488D7C24 		leaq	80(%rsp), %rdi
 6540      50
 6541 3c6d BA8F0000 		movl	$143, %edx
 6541      00
 6542 3c72 E8000000 		call	_ZN8UnitTest11TestDetailsC1ERKS0_i
 6542      00
 6543 3c77 488D7C24 		leaq	16(%rsp), %rdi
 6543      10
 6544 3c7c E8000000 		call	_ZNK8UnitTest11TestResults15GetFailureCountEv
 6544      00
 6545 3c81 89442430 		movl	%eax, 48(%rsp)
 6546 3c85 C7042401 		movl	$1, (%rsp)
 6546      000000
 6547 3c8c E8000000 		call	_ZN8UnitTest11CurrentTest7ResultsEv
 6547      00
 6548 3c91 488B38   		movq	(%rax), %rdi
 6549 3c94 488D4C24 		leaq	80(%rsp), %rcx
 6549      50
 6550 3c99 488D5424 		leaq	48(%rsp), %rdx
 6550      30
 6551 3c9e 4889E6   		movq	%rsp, %rsi
 6552 3ca1 E8000000 		call	_ZN8UnitTest10CheckEqualIiiEEvRNS_11TestResultsERKT_RKT0_RKNS_11TestDetailsE
 6552      00
 6553              	.LEHE175:
 6554              	.L625:
 6555 3ca6 4881C4C0 		addq	$448, %rsp
 6555      010000
 6556              		.cfi_remember_state
 6557              		.cfi_def_cfa_offset 16
 6558 3cad 5B       		popq	%rbx
 6559              		.cfi_def_cfa_offset 8
 6560 3cae C3       		ret
 6561              	.L654:
 6562              		.cfi_restore_state
 6563 3caf B9000000 		movl	$_ZL28__gthrw___pthread_key_createPjPFvPvE, %ecx
 6563      00
 6564 3cb4 488D5710 		leaq	16(%rdi), %rdx
 6565 3cb8 4885C9   		testq	%rcx, %rcx
 6566 3cbb 0F84E400 		je	.L632
 6566      0000
 6567 3cc1 83C8FF   		orl	$-1, %eax
 6568 3cc4 F00FC102 		lock xaddl	%eax, (%rdx)
 6569              	.L633:
 6570 3cc8 85C0     		testl	%eax, %eax
 6571 3cca 0F8F21FF 		jg	.L631
 6571      FFFF
 6572 3cd0 4889E6   		movq	%rsp, %rsi
 6573 3cd3 E8000000 		call	_ZNSs4_Rep10_M_destroyERKSaIcE
 6573      00
 6574 3cd8 E914FFFF 		jmp	.L631
 6574      FF
 6575              	.L655:
 6576 3cdd B9000000 		movl	$_ZL28__gthrw___pthread_key_createPjPFvPvE, %ecx
 6576      00
 6577 3ce2 488D5710 		leaq	16(%rdi), %rdx
 6578 3ce6 4885C9   		testq	%rcx, %rcx
 6579 3ce9 7431     		je	.L637
 6580 3ceb 83C8FF   		orl	$-1, %eax
 6581 3cee F00FC102 		lock xaddl	%eax, (%rdx)
 6582              	.L638:
 6583 3cf2 85C0     		testl	%eax, %eax
 6584 3cf4 0F8F2EFF 		jg	.L636
 6584      FFFF
 6585 3cfa 4889E6   		movq	%rsp, %rsi
 6586 3cfd E8000000 		call	_ZNSs4_Rep10_M_destroyERKSaIcE
 6586      00
 6587 3d02 E921FFFF 		jmp	.L636
 6587      FF
 6588              	.L647:
 6589 3d07 488D7C24 		leaq	80(%rsp), %rdi
 6589      50
 6590 3d0c 4889C3   		movq	%rax, %rbx
 6591 3d0f E8000000 		call	_ZN8UnitTest15MemoryOutStreamD1Ev
 6591      00
 6592 3d14 4889DF   		movq	%rbx, %rdi
 6593              	.LEHB176:
 6594 3d17 E8000000 		call	_Unwind_Resume
 6594      00
 6595              	.LEHE176:
 6596              	.L637:
 6597 3d1c 8B50F8   		movl	-8(%rax), %edx
 6598 3d1f 8D4AFF   		leal	-1(%rdx), %ecx
 6599 3d22 8948F8   		movl	%ecx, -8(%rax)
 6600 3d25 89D0     		movl	%edx, %eax
 6601 3d27 EBC9     		jmp	.L638
 6602              	.L649:
 6603 3d29 488D7C24 		leaq	88(%rsp), %rdi
 6603      58
 6604 3d2e 4889C3   		movq	%rax, %rbx
 6605 3d31 E8000000 		call	_ZNSt15basic_stringbufIcSt11char_traitsIcESaIcEED1Ev
 6605      00
 6606 3d36 48C74424 		movq	$_ZTCN8UnitTest15MemoryOutStreamE0_So+24, 80(%rsp)
 6606      50000000 
 6606      00
 6607              	.L628:
 6608 3d3f 488DBC24 		leaq	176(%rsp), %rdi
 6608      B0000000 
 6609 3d47 48C78424 		movq	$_ZTVSt9basic_iosIcSt11char_traitsIcEE+16, 176(%rsp)
 6609      B0000000 
 6609      00000000 
 6610 3d53 E8000000 		call	_ZNSt8ios_baseD2Ev
 6610      00
 6611 3d58 4889DF   		movq	%rbx, %rdi
 6612              	.LEHB177:
 6613 3d5b E8000000 		call	_Unwind_Resume
 6613      00
 6614              	.LEHE177:
 6615              	.L648:
 6616 3d60 4889C3   		movq	%rax, %rbx
 6617 3d63 EBDA     		jmp	.L628
 6618              	.L645:
 6619 3d65 4889C7   		movq	%rax, %rdi
 6620 3d68 E8000000 		call	__cxa_begin_catch
 6620      00
 6621              	.LEHB178:
 6622 3d6d E8000000 		call	_ZN8UnitTest11CurrentTest7DetailsEv
 6622      00
 6623 3d72 488B30   		movq	(%rax), %rsi
 6624 3d75 488D7C24 		leaq	80(%rsp), %rdi
 6624      50
 6625 3d7a BA8F0000 		movl	$143, %edx
 6625      00
 6626 3d7f E8000000 		call	_ZN8UnitTest11TestDetailsC1ERKS0_i
 6626      00
 6627 3d84 E8000000 		call	_ZN8UnitTest11CurrentTest7ResultsEv
 6627      00
 6628 3d89 488B38   		movq	(%rax), %rdi
 6629 3d8c 488D7424 		leaq	80(%rsp), %rsi
 6629      50
 6630 3d91 BA000000 		movl	$.LC49, %edx
 6630      00
 6631 3d96 E8000000 		call	_ZN8UnitTest11TestResults13OnTestFailureERKNS_11TestDetailsEPKc
 6631      00
 6632              	.LEHE178:
 6633              	.LEHB179:
 6634 3d9b E8000000 		call	__cxa_end_catch
 6634      00
 6635              	.LEHE179:
 6636 3da0 E901FFFF 		jmp	.L625
 6636      FF
 6637              	.L632:
 6638 3da5 8B50F8   		movl	-8(%rax), %edx
 6639 3da8 8D4AFF   		leal	-1(%rdx), %ecx
 6640 3dab 8948F8   		movl	%ecx, -8(%rax)
 6641 3dae 89D0     		movl	%edx, %eax
 6642 3db0 E913FFFF 		jmp	.L633
 6642      FF
 6643              	.L646:
 6644 3db5 4889C3   		movq	%rax, %rbx
 6645 3db8 E8000000 		call	__cxa_end_catch
 6645      00
 6646 3dbd 4889DF   		movq	%rbx, %rdi
 6647              	.LEHB180:
 6648 3dc0 E8000000 		call	_Unwind_Resume
 6648      00
 6649              	.LEHE180:
 6650              		.cfi_endproc
 6651              	.LFE1140:
 6652              		.section	.gcc_except_table
 6653              		.align 4
 6654              	.LLSDA1140:
 6655 0498 FF       		.byte	0xff
 6656 0499 03       		.byte	0x3
 6657 049a 45       		.uleb128 .LLSDATT1140-.LLSDATTD1140
 6658              	.LLSDATTD1140:
 6659 049b 01       		.byte	0x1
 6660 049c 3B       		.uleb128 .LLSDACSE1140-.LLSDACSB1140
 6661              	.LLSDACSB1140:
 6662 049d 17       		.uleb128 .LEHB170-.LFB1140
 6663 049e 1D       		.uleb128 .LEHE170-.LEHB170
 6664 049f 00       		.uleb128 0
 6665 04a0 00       		.uleb128 0
 6666 04a1 A201     		.uleb128 .LEHB171-.LFB1140
 6667 04a3 05       		.uleb128 .LEHE171-.LEHB171
 6668 04a4 9007     		.uleb128 .L648-.LFB1140
 6669 04a6 00       		.uleb128 0
 6670 04a7 C102     		.uleb128 .LEHB172-.LFB1140
 6671 04a9 05       		.uleb128 .LEHE172-.LEHB172
 6672 04aa D906     		.uleb128 .L649-.LFB1140
 6673 04ac 00       		.uleb128 0
 6674 04ad F602     		.uleb128 .LEHB173-.LFB1140
 6675 04af 7D       		.uleb128 .LEHE173-.LEHB173
 6676 04b0 B706     		.uleb128 .L647-.LFB1140
 6677 04b2 00       		.uleb128 0
 6678 04b3 8B05     		.uleb128 .LEHB174-.LFB1140
 6679 04b5 05       		.uleb128 .LEHE174-.LEHB174
 6680 04b6 00       		.uleb128 0
 6681 04b7 00       		.uleb128 0
 6682 04b8 9005     		.uleb128 .LEHB175-.LFB1140
 6683 04ba 46       		.uleb128 .LEHE175-.LEHB175
 6684 04bb 9507     		.uleb128 .L645-.LFB1140
 6685 04bd 01       		.uleb128 0x1
 6686 04be C706     		.uleb128 .LEHB176-.LFB1140
 6687 04c0 05       		.uleb128 .LEHE176-.LEHB176
 6688 04c1 00       		.uleb128 0
 6689 04c2 00       		.uleb128 0
 6690 04c3 8B07     		.uleb128 .LEHB177-.LFB1140
 6691 04c5 05       		.uleb128 .LEHE177-.LEHB177
 6692 04c6 00       		.uleb128 0
 6693 04c7 00       		.uleb128 0
 6694 04c8 9D07     		.uleb128 .LEHB178-.LFB1140
 6695 04ca 2E       		.uleb128 .LEHE178-.LEHB178
 6696 04cb E507     		.uleb128 .L646-.LFB1140
 6697 04cd 00       		.uleb128 0
 6698 04ce CB07     		.uleb128 .LEHB179-.LFB1140
 6699 04d0 05       		.uleb128 .LEHE179-.LEHB179
 6700 04d1 00       		.uleb128 0
 6701 04d2 00       		.uleb128 0
 6702 04d3 F007     		.uleb128 .LEHB180-.LFB1140
 6703 04d5 05       		.uleb128 .LEHE180-.LEHB180
 6704 04d6 00       		.uleb128 0
 6705 04d7 00       		.uleb128 0
 6706              	.LLSDACSE1140:
 6707 04d8 01       		.byte	0x1
 6708 04d9 00       		.byte	0
 6709 04da 0000     		.align 4
 6710 04dc 00000000 		.long	0
 6711              	
 6712              	.LLSDATT1140:
 6713              		.text
 6715 3dc5 90       		.align 2
 6716 3dc6 662E0F1F 		.p2align 4,,15
 6716      84000000 
 6716      0000
 6718              	_ZNK12_GLOBAL__N_126TestCheckCloseWithNaNFails7RunImplEv:
 6719              	.LFB1136:
 6720              		.cfi_startproc
 6721              		.cfi_personality 0x3,__gxx_personality_v0
 6722              		.cfi_lsda 0x3,.LLSDA1136
 6723 3dd0 53       		pushq	%rbx
 6724              		.cfi_def_cfa_offset 16
 6725              		.cfi_offset 3, -16
 6726 3dd1 31F6     		xorl	%esi, %esi
 6727 3dd3 4881ECC0 		subq	$448, %rsp
 6727      010000
 6728              		.cfi_def_cfa_offset 464
 6729 3dda 488D7C24 		leaq	16(%rsp), %rdi
 6729      10
 6730 3ddf 488D9C24 		leaq	176(%rsp), %rbx
 6730      B0000000 
 6731              	.LEHB181:
 6732 3de7 E8000000 		call	_ZN8UnitTest11TestResultsC1EPNS_12TestReporterE
 6732      00
 6733 3dec B9000000 		movl	$.LC1, %ecx
 6733      00
 6734 3df1 488D7C24 		leaq	48(%rsp), %rdi
 6734      30
 6735 3df6 4531C0   		xorl	%r8d, %r8d
 6736 3df9 4889CE   		movq	%rcx, %rsi
 6737 3dfc 4889CA   		movq	%rcx, %rdx
 6738 3dff E8000000 		call	_ZN8UnitTest11TestDetailsC1EPKcS2_S2_i
 6738      00
 6739              	.LEHE181:
 6740 3e04 4889DF   		movq	%rbx, %rdi
 6741 3e07 E8000000 		call	_ZNSt8ios_baseC2Ev
 6741      00
 6742 3e0c 31F6     		xorl	%esi, %esi
 6743 3e0e 4889DF   		movq	%rbx, %rdi
 6744 3e11 48C78424 		movq	$0, 392(%rsp)
 6744      88010000 
 6744      00000000 
 6745 3e1d C6842490 		movb	$0, 400(%rsp)
 6745      01000000 
 6746 3e25 C6842491 		movb	$0, 401(%rsp)
 6746      01000000 
 6747 3e2d 48C78424 		movq	$0, 408(%rsp)
 6747      98010000 
 6747      00000000 
 6748 3e39 48C78424 		movq	$0, 416(%rsp)
 6748      A0010000 
 6748      00000000 
 6749 3e45 48C78424 		movq	$0, 424(%rsp)
 6749      A8010000 
 6749      00000000 
 6750 3e51 48C78424 		movq	$0, 432(%rsp)
 6750      B0010000 
 6750      00000000 
 6751 3e5d 48C74424 		movq	$_ZTCN8UnitTest15MemoryOutStreamE0_So+24, 80(%rsp)
 6751      50000000 
 6751      00
 6752 3e66 48C78424 		movq	$_ZTCN8UnitTest15MemoryOutStreamE0_So+64, 176(%rsp)
 6752      B0000000 
 6752      00000000 
 6753              	.LEHB182:
 6754 3e72 E8000000 		call	_ZNSt9basic_iosIcSt11char_traitsIcEE4initEPSt15basic_streambufIcS1_E
 6754      00
 6755              	.LEHE182:
 6756 3e77 488DBC24 		leaq	144(%rsp), %rdi
 6756      90000000 
 6757 3e7f 48C74424 		movq	$_ZTCN8UnitTest15MemoryOutStreamE0_St19basic_ostringstreamIcSt11char_traitsIcESaIcEE+24, 80(%
 6757      50000000 
 6757      00
 6758 3e88 48C78424 		movq	$_ZTCN8UnitTest15MemoryOutStreamE0_St19basic_ostringstreamIcSt11char_traitsIcESaIcEE+64, 176(
 6758      B0000000 
 6758      00000000 
 6759 3e94 48C74424 		movq	$_ZTVSt15basic_streambufIcSt11char_traitsIcEE+16, 88(%rsp)
 6759      58000000 
 6759      00
 6760 3e9d 48C74424 		movq	$0, 96(%rsp)
 6760      60000000 
 6760      00
 6761 3ea6 48C74424 		movq	$0, 104(%rsp)
 6761      68000000 
 6761      00
 6762 3eaf 48C74424 		movq	$0, 112(%rsp)
 6762      70000000 
 6762      00
 6763 3eb8 48C74424 		movq	$0, 120(%rsp)
 6763      78000000 
 6763      00
 6764 3ec1 48C78424 		movq	$0, 128(%rsp)
 6764      80000000 
 6764      00000000 
 6765 3ecd 48C78424 		movq	$0, 136(%rsp)
 6765      88000000 
 6765      00000000 
 6766 3ed9 E8000000 		call	_ZNSt6localeC1Ev
 6766      00
 6767 3ede 488B4424 		movq	80(%rsp), %rax
 6767      50
 6768 3ee3 488D7C24 		leaq	80(%rsp), %rdi
 6768      50
 6769 3ee8 488D7424 		leaq	88(%rsp), %rsi
 6769      58
 6770 3eed 48C74424 		movq	$_ZTVSt15basic_stringbufIcSt11char_traitsIcESaIcEE+16, 88(%rsp)
 6770      58000000 
 6770      00
 6771 3ef6 C7842498 		movl	$16, 152(%rsp)
 6771      00000010 
 6771      000000
 6772 3f01 48C78424 		movq	$_ZNSs4_Rep20_S_empty_rep_storageE+24, 160(%rsp)
 6772      A0000000 
 6772      00000000 
 6773 3f0d 480378E8 		addq	-24(%rax), %rdi
 6774              	.LEHB183:
 6775 3f11 E8000000 		call	_ZNSt9basic_iosIcSt11char_traitsIcEE4initEPSt15basic_streambufIcS1_E
 6775      00
 6776              	.LEHE183:
 6777 3f16 488D7C24 		leaq	80(%rsp), %rdi
 6777      50
 6778 3f1b BA090000 		movl	$9, %edx
 6778      00
 6779 3f20 BE000000 		movl	$.LC2, %esi
 6779      00
 6780 3f25 48C74424 		movq	$_ZTVN8UnitTest15MemoryOutStreamE+24, 80(%rsp)
 6780      50000000 
 6780      00
 6781 3f2e 48C78424 		movq	$_ZTVN8UnitTest15MemoryOutStreamE+64, 176(%rsp)
 6781      B0000000 
 6781      00000000 
 6782 3f3a 48C78424 		movq	$_ZNSs4_Rep20_S_empty_rep_storageE+24, 168(%rsp)
 6782      A8000000 
 6782      00000000 
 6783              	.LEHB184:
 6784 3f46 E8000000 		call	_ZSt16__ostream_insertIcSt11char_traitsIcEERSt13basic_ostreamIT_T0_ES6_PKS3_l
 6784      00
 6785 3f4b F20F1005 		movsd	.LC73(%rip), %xmm0
 6785      00000000 
 6786 3f53 488D7C24 		leaq	80(%rsp), %rdi
 6786      50
 6787 3f58 E8000000 		call	_ZNSo9_M_insertIdEERSoT_
 6787      00
 6788 3f5d BA050000 		movl	$5, %edx
 6788      00
 6789 3f62 BE000000 		movl	$.LC4, %esi
 6789      00
 6790 3f67 4889C7   		movq	%rax, %rdi
 6791 3f6a 4889C3   		movq	%rax, %rbx
 6792 3f6d E8000000 		call	_ZSt16__ostream_insertIcSt11char_traitsIcEERSt13basic_ostreamIT_T0_ES6_PKS3_l
 6792      00
 6793 3f72 F20F1005 		movsd	.LC72(%rip), %xmm0
 6793      00000000 
 6794 3f7a 4889DF   		movq	%rbx, %rdi
 6795 3f7d E8000000 		call	_ZNSo9_M_insertIdEERSoT_
 6795      00
 6796 3f82 BA090000 		movl	$9, %edx
 6796      00
 6797 3f87 BE000000 		movl	$.LC6, %esi
 6797      00
 6798 3f8c 4889C7   		movq	%rax, %rdi
 6799 3f8f 4889C3   		movq	%rax, %rbx
 6800 3f92 E8000000 		call	_ZSt16__ostream_insertIcSt11char_traitsIcEERSt13basic_ostreamIT_T0_ES6_PKS3_l
 6800      00
 6801 3f97 F20F1005 		movsd	.LC71(%rip), %xmm0
 6801      00000000 
 6802 3f9f 4889DF   		movq	%rbx, %rdi
 6803 3fa2 E8000000 		call	_ZNSo9_M_insertIdEERSoT_
 6803      00
 6804 3fa7 488D7C24 		leaq	80(%rsp), %rdi
 6804      50
 6805 3fac E8000000 		call	_ZNK8UnitTest15MemoryOutStream7GetTextEv
 6805      00
 6806 3fb1 488D7424 		leaq	48(%rsp), %rsi
 6806      30
 6807 3fb6 488D7C24 		leaq	16(%rsp), %rdi
 6807      10
 6808 3fbb 4889C2   		movq	%rax, %rdx
 6809 3fbe E8000000 		call	_ZN8UnitTest11TestResults13OnTestFailureERKNS_11TestDetailsEPKc
 6809      00
 6810              	.LEHE184:
 6811 3fc3 488B8424 		movq	168(%rsp), %rax
 6811      A8000000 
 6812 3fcb 48C74424 		movq	$_ZTVN8UnitTest15MemoryOutStreamE+24, 80(%rsp)
 6812      50000000 
 6812      00
 6813 3fd4 48C78424 		movq	$_ZTVN8UnitTest15MemoryOutStreamE+64, 176(%rsp)
 6813      B0000000 
 6813      00000000 
 6814 3fe0 488D78E8 		leaq	-24(%rax), %rdi
 6815 3fe4 4881FF00 		cmpq	$_ZNSs4_Rep20_S_empty_rep_storageE, %rdi
 6815      000000
 6816 3feb 0F85BE00 		jne	.L687
 6816      0000
 6817              	.L664:
 6818 3ff1 488B8424 		movq	160(%rsp), %rax
 6818      A0000000 
 6819 3ff9 48C74424 		movq	$_ZTCN8UnitTest15MemoryOutStreamE0_St19basic_ostringstreamIcSt11char_traitsIcESaIcEE+24, 80(%
 6819      50000000 
 6819      00
 6820 4002 48C78424 		movq	$_ZTCN8UnitTest15MemoryOutStreamE0_St19basic_ostringstreamIcSt11char_traitsIcESaIcEE+64, 176(
 6820      B0000000 
 6820      00000000 
 6821 400e 48C74424 		movq	$_ZTVSt15basic_stringbufIcSt11char_traitsIcESaIcEE+16, 88(%rsp)
 6821      58000000 
 6821      00
 6822 4017 488D78E8 		leaq	-24(%rax), %rdi
 6823 401b 4881FF00 		cmpq	$_ZNSs4_Rep20_S_empty_rep_storageE, %rdi
 6823      000000
 6824 4022 0F85B500 		jne	.L688
 6824      0000
 6825              	.L669:
 6826 4028 488DBC24 		leaq	144(%rsp), %rdi
 6826      90000000 
 6827 4030 48C74424 		movq	$_ZTVSt15basic_streambufIcSt11char_traitsIcEE+16, 88(%rsp)
 6827      58000000 
 6827      00
 6828 4039 E8000000 		call	_ZNSt6localeD1Ev
 6828      00
 6829 403e 488DBC24 		leaq	176(%rsp), %rdi
 6829      B0000000 
 6830 4046 48C74424 		movq	$_ZTCN8UnitTest15MemoryOutStreamE0_So+24, 80(%rsp)
 6830      50000000 
 6830      00
 6831 404f 48C78424 		movq	$_ZTVSt9basic_iosIcSt11char_traitsIcEE+16, 176(%rsp)
 6831      B0000000 
 6831      00000000 
 6832              	.LEHB185:
 6833 405b E8000000 		call	_ZNSt8ios_baseD2Ev
 6833      00
 6834              	.LEHE185:
 6835              	.LEHB186:
 6836 4060 E8000000 		call	_ZN8UnitTest11CurrentTest7DetailsEv
 6836      00
 6837 4065 488B30   		movq	(%rax), %rsi
 6838 4068 488D7C24 		leaq	80(%rsp), %rdi
 6838      50
 6839 406d BA820000 		movl	$130, %edx
 6839      00
 6840 4072 E8000000 		call	_ZN8UnitTest11TestDetailsC1ERKS0_i
 6840      00
 6841 4077 488D7C24 		leaq	16(%rsp), %rdi
 6841      10
 6842 407c E8000000 		call	_ZNK8UnitTest11TestResults15GetFailureCountEv
 6842      00
 6843 4081 89442430 		movl	%eax, 48(%rsp)
 6844 4085 C7042401 		movl	$1, (%rsp)
 6844      000000
 6845 408c E8000000 		call	_ZN8UnitTest11CurrentTest7ResultsEv
 6845      00
 6846 4091 488B38   		movq	(%rax), %rdi
 6847 4094 488D4C24 		leaq	80(%rsp), %rcx
 6847      50
 6848 4099 488D5424 		leaq	48(%rsp), %rdx
 6848      30
 6849 409e 4889E6   		movq	%rsp, %rsi
 6850 40a1 E8000000 		call	_ZN8UnitTest10CheckEqualIiiEEvRNS_11TestResultsERKT_RKT0_RKNS_11TestDetailsE
 6850      00
 6851              	.LEHE186:
 6852              	.L656:
 6853 40a6 4881C4C0 		addq	$448, %rsp
 6853      010000
 6854              		.cfi_remember_state
 6855              		.cfi_def_cfa_offset 16
 6856 40ad 5B       		popq	%rbx
 6857              		.cfi_def_cfa_offset 8
 6858 40ae C3       		ret
 6859              	.L687:
 6860              		.cfi_restore_state
 6861 40af B9000000 		movl	$_ZL28__gthrw___pthread_key_createPjPFvPvE, %ecx
 6861      00
 6862 40b4 488D5710 		leaq	16(%rdi), %rdx
 6863 40b8 4885C9   		testq	%rcx, %rcx
 6864 40bb 0F84E400 		je	.L665
 6864      0000
 6865 40c1 83C8FF   		orl	$-1, %eax
 6866 40c4 F00FC102 		lock xaddl	%eax, (%rdx)
 6867              	.L666:
 6868 40c8 85C0     		testl	%eax, %eax
 6869 40ca 0F8F21FF 		jg	.L664
 6869      FFFF
 6870 40d0 4889E6   		movq	%rsp, %rsi
 6871 40d3 E8000000 		call	_ZNSs4_Rep10_M_destroyERKSaIcE
 6871      00
 6872 40d8 E914FFFF 		jmp	.L664
 6872      FF
 6873              	.L688:
 6874 40dd B9000000 		movl	$_ZL28__gthrw___pthread_key_createPjPFvPvE, %ecx
 6874      00
 6875 40e2 488D5710 		leaq	16(%rdi), %rdx
 6876 40e6 4885C9   		testq	%rcx, %rcx
 6877 40e9 7431     		je	.L670
 6878 40eb 83C8FF   		orl	$-1, %eax
 6879 40ee F00FC102 		lock xaddl	%eax, (%rdx)
 6880              	.L671:
 6881 40f2 85C0     		testl	%eax, %eax
 6882 40f4 0F8F2EFF 		jg	.L669
 6882      FFFF
 6883 40fa 4889E6   		movq	%rsp, %rsi
 6884 40fd E8000000 		call	_ZNSs4_Rep10_M_destroyERKSaIcE
 6884      00
 6885 4102 E921FFFF 		jmp	.L669
 6885      FF
 6886              	.L680:
 6887 4107 488D7C24 		leaq	80(%rsp), %rdi
 6887      50
 6888 410c 4889C3   		movq	%rax, %rbx
 6889 410f E8000000 		call	_ZN8UnitTest15MemoryOutStreamD1Ev
 6889      00
 6890 4114 4889DF   		movq	%rbx, %rdi
 6891              	.LEHB187:
 6892 4117 E8000000 		call	_Unwind_Resume
 6892      00
 6893              	.LEHE187:
 6894              	.L670:
 6895 411c 8B50F8   		movl	-8(%rax), %edx
 6896 411f 8D4AFF   		leal	-1(%rdx), %ecx
 6897 4122 8948F8   		movl	%ecx, -8(%rax)
 6898 4125 89D0     		movl	%edx, %eax
 6899 4127 EBC9     		jmp	.L671
 6900              	.L682:
 6901 4129 488D7C24 		leaq	88(%rsp), %rdi
 6901      58
 6902 412e 4889C3   		movq	%rax, %rbx
 6903 4131 E8000000 		call	_ZNSt15basic_stringbufIcSt11char_traitsIcESaIcEED1Ev
 6903      00
 6904 4136 48C74424 		movq	$_ZTCN8UnitTest15MemoryOutStreamE0_So+24, 80(%rsp)
 6904      50000000 
 6904      00
 6905              	.L661:
 6906 413f 488DBC24 		leaq	176(%rsp), %rdi
 6906      B0000000 
 6907 4147 48C78424 		movq	$_ZTVSt9basic_iosIcSt11char_traitsIcEE+16, 176(%rsp)
 6907      B0000000 
 6907      00000000 
 6908 4153 E8000000 		call	_ZNSt8ios_baseD2Ev
 6908      00
 6909 4158 4889DF   		movq	%rbx, %rdi
 6910              	.LEHB188:
 6911 415b E8000000 		call	_Unwind_Resume
 6911      00
 6912              	.LEHE188:
 6913              	.L681:
 6914 4160 4889C3   		movq	%rax, %rbx
 6915 4163 EBDA     		jmp	.L661
 6916              	.L678:
 6917 4165 4889C7   		movq	%rax, %rdi
 6918 4168 E8000000 		call	__cxa_begin_catch
 6918      00
 6919              	.LEHB189:
 6920 416d E8000000 		call	_ZN8UnitTest11CurrentTest7DetailsEv
 6920      00
 6921 4172 488B30   		movq	(%rax), %rsi
 6922 4175 488D7C24 		leaq	80(%rsp), %rdi
 6922      50
 6923 417a BA820000 		movl	$130, %edx
 6923      00
 6924 417f E8000000 		call	_ZN8UnitTest11TestDetailsC1ERKS0_i
 6924      00
 6925 4184 E8000000 		call	_ZN8UnitTest11CurrentTest7ResultsEv
 6925      00
 6926 4189 488B38   		movq	(%rax), %rdi
 6927 418c 488D7424 		leaq	80(%rsp), %rsi
 6927      50
 6928 4191 BA000000 		movl	$.LC49, %edx
 6928      00
 6929 4196 E8000000 		call	_ZN8UnitTest11TestResults13OnTestFailureERKNS_11TestDetailsEPKc
 6929      00
 6930              	.LEHE189:
 6931              	.LEHB190:
 6932 419b E8000000 		call	__cxa_end_catch
 6932      00
 6933              	.LEHE190:
 6934 41a0 E901FFFF 		jmp	.L656
 6934      FF
 6935              	.L665:
 6936 41a5 8B50F8   		movl	-8(%rax), %edx
 6937 41a8 8D4AFF   		leal	-1(%rdx), %ecx
 6938 41ab 8948F8   		movl	%ecx, -8(%rax)
 6939 41ae 89D0     		movl	%edx, %eax
 6940 41b0 E913FFFF 		jmp	.L666
 6940      FF
 6941              	.L679:
 6942 41b5 4889C3   		movq	%rax, %rbx
 6943 41b8 E8000000 		call	__cxa_end_catch
 6943      00
 6944 41bd 4889DF   		movq	%rbx, %rdi
 6945              	.LEHB191:
 6946 41c0 E8000000 		call	_Unwind_Resume
 6946      00
 6947              	.LEHE191:
 6948              		.cfi_endproc
 6949              	.LFE1136:
 6950              		.section	.gcc_except_table
 6951              		.align 4
 6952              	.LLSDA1136:
 6953 04e0 FF       		.byte	0xff
 6954 04e1 03       		.byte	0x3
 6955 04e2 45       		.uleb128 .LLSDATT1136-.LLSDATTD1136
 6956              	.LLSDATTD1136:
 6957 04e3 01       		.byte	0x1
 6958 04e4 3B       		.uleb128 .LLSDACSE1136-.LLSDACSB1136
 6959              	.LLSDACSB1136:
 6960 04e5 17       		.uleb128 .LEHB181-.LFB1136
 6961 04e6 1D       		.uleb128 .LEHE181-.LEHB181
 6962 04e7 00       		.uleb128 0
 6963 04e8 00       		.uleb128 0
 6964 04e9 A201     		.uleb128 .LEHB182-.LFB1136
 6965 04eb 05       		.uleb128 .LEHE182-.LEHB182
 6966 04ec 9007     		.uleb128 .L681-.LFB1136
 6967 04ee 00       		.uleb128 0
 6968 04ef C102     		.uleb128 .LEHB183-.LFB1136
 6969 04f1 05       		.uleb128 .LEHE183-.LEHB183
 6970 04f2 D906     		.uleb128 .L682-.LFB1136
 6971 04f4 00       		.uleb128 0
 6972 04f5 F602     		.uleb128 .LEHB184-.LFB1136
 6973 04f7 7D       		.uleb128 .LEHE184-.LEHB184
 6974 04f8 B706     		.uleb128 .L680-.LFB1136
 6975 04fa 00       		.uleb128 0
 6976 04fb 8B05     		.uleb128 .LEHB185-.LFB1136
 6977 04fd 05       		.uleb128 .LEHE185-.LEHB185
 6978 04fe 00       		.uleb128 0
 6979 04ff 00       		.uleb128 0
 6980 0500 9005     		.uleb128 .LEHB186-.LFB1136
 6981 0502 46       		.uleb128 .LEHE186-.LEHB186
 6982 0503 9507     		.uleb128 .L678-.LFB1136
 6983 0505 01       		.uleb128 0x1
 6984 0506 C706     		.uleb128 .LEHB187-.LFB1136
 6985 0508 05       		.uleb128 .LEHE187-.LEHB187
 6986 0509 00       		.uleb128 0
 6987 050a 00       		.uleb128 0
 6988 050b 8B07     		.uleb128 .LEHB188-.LFB1136
 6989 050d 05       		.uleb128 .LEHE188-.LEHB188
 6990 050e 00       		.uleb128 0
 6991 050f 00       		.uleb128 0
 6992 0510 9D07     		.uleb128 .LEHB189-.LFB1136
 6993 0512 2E       		.uleb128 .LEHE189-.LEHB189
 6994 0513 E507     		.uleb128 .L679-.LFB1136
 6995 0515 00       		.uleb128 0
 6996 0516 CB07     		.uleb128 .LEHB190-.LFB1136
 6997 0518 05       		.uleb128 .LEHE190-.LEHB190
 6998 0519 00       		.uleb128 0
 6999 051a 00       		.uleb128 0
 7000 051b F007     		.uleb128 .LEHB191-.LFB1136
 7001 051d 05       		.uleb128 .LEHE191-.LEHB191
 7002 051e 00       		.uleb128 0
 7003 051f 00       		.uleb128 0
 7004              	.LLSDACSE1136:
 7005 0520 01       		.byte	0x1
 7006 0521 00       		.byte	0
 7007 0522 0000     		.align 4
 7008 0524 00000000 		.long	0
 7009              	
 7010              	.LLSDATT1136:
 7011              		.text
 7013 41c5 90       		.align 2
 7014 41c6 662E0F1F 		.p2align 4,,15
 7014      84000000 
 7014      0000
 7016              	_ZNK12_GLOBAL__N_119TestCheckCloseFalse7RunImplEv:
 7017              	.LFB1128:
 7018              		.cfi_startproc
 7019              		.cfi_personality 0x3,__gxx_personality_v0
 7020              		.cfi_lsda 0x3,.LLSDA1128
 7021 41d0 53       		pushq	%rbx
 7022              		.cfi_def_cfa_offset 16
 7023              		.cfi_offset 3, -16
 7024 41d1 31F6     		xorl	%esi, %esi
 7025 41d3 4881ECC0 		subq	$448, %rsp
 7025      010000
 7026              		.cfi_def_cfa_offset 464
 7027 41da 488D7C24 		leaq	16(%rsp), %rdi
 7027      10
 7028 41df 488D9C24 		leaq	176(%rsp), %rbx
 7028      B0000000 
 7029              	.LEHB192:
 7030 41e7 E8000000 		call	_ZN8UnitTest11TestResultsC1EPNS_12TestReporterE
 7030      00
 7031 41ec B9000000 		movl	$.LC1, %ecx
 7031      00
 7032 41f1 488D7C24 		leaq	48(%rsp), %rdi
 7032      30
 7033 41f6 4531C0   		xorl	%r8d, %r8d
 7034 41f9 4889CE   		movq	%rcx, %rsi
 7035 41fc 4889CA   		movq	%rcx, %rdx
 7036 41ff E8000000 		call	_ZN8UnitTest11TestDetailsC1EPKcS2_S2_i
 7036      00
 7037              	.LEHE192:
 7038 4204 4889DF   		movq	%rbx, %rdi
 7039 4207 E8000000 		call	_ZNSt8ios_baseC2Ev
 7039      00
 7040 420c 31F6     		xorl	%esi, %esi
 7041 420e 4889DF   		movq	%rbx, %rdi
 7042 4211 48C78424 		movq	$0, 392(%rsp)
 7042      88010000 
 7042      00000000 
 7043 421d C6842490 		movb	$0, 400(%rsp)
 7043      01000000 
 7044 4225 C6842491 		movb	$0, 401(%rsp)
 7044      01000000 
 7045 422d 48C78424 		movq	$0, 408(%rsp)
 7045      98010000 
 7045      00000000 
 7046 4239 48C78424 		movq	$0, 416(%rsp)
 7046      A0010000 
 7046      00000000 
 7047 4245 48C78424 		movq	$0, 424(%rsp)
 7047      A8010000 
 7047      00000000 
 7048 4251 48C78424 		movq	$0, 432(%rsp)
 7048      B0010000 
 7048      00000000 
 7049 425d 48C74424 		movq	$_ZTCN8UnitTest15MemoryOutStreamE0_So+24, 80(%rsp)
 7049      50000000 
 7049      00
 7050 4266 48C78424 		movq	$_ZTCN8UnitTest15MemoryOutStreamE0_So+64, 176(%rsp)
 7050      B0000000 
 7050      00000000 
 7051              	.LEHB193:
 7052 4272 E8000000 		call	_ZNSt9basic_iosIcSt11char_traitsIcEE4initEPSt15basic_streambufIcS1_E
 7052      00
 7053              	.LEHE193:
 7054 4277 488DBC24 		leaq	144(%rsp), %rdi
 7054      90000000 
 7055 427f 48C74424 		movq	$_ZTCN8UnitTest15MemoryOutStreamE0_St19basic_ostringstreamIcSt11char_traitsIcESaIcEE+24, 80(%
 7055      50000000 
 7055      00
 7056 4288 48C78424 		movq	$_ZTCN8UnitTest15MemoryOutStreamE0_St19basic_ostringstreamIcSt11char_traitsIcESaIcEE+64, 176(
 7056      B0000000 
 7056      00000000 
 7057 4294 48C74424 		movq	$_ZTVSt15basic_streambufIcSt11char_traitsIcEE+16, 88(%rsp)
 7057      58000000 
 7057      00
 7058 429d 48C74424 		movq	$0, 96(%rsp)
 7058      60000000 
 7058      00
 7059 42a6 48C74424 		movq	$0, 104(%rsp)
 7059      68000000 
 7059      00
 7060 42af 48C74424 		movq	$0, 112(%rsp)
 7060      70000000 
 7060      00
 7061 42b8 48C74424 		movq	$0, 120(%rsp)
 7061      78000000 
 7061      00
 7062 42c1 48C78424 		movq	$0, 128(%rsp)
 7062      80000000 
 7062      00000000 
 7063 42cd 48C78424 		movq	$0, 136(%rsp)
 7063      88000000 
 7063      00000000 
 7064 42d9 E8000000 		call	_ZNSt6localeC1Ev
 7064      00
 7065 42de 488B4424 		movq	80(%rsp), %rax
 7065      50
 7066 42e3 488D7C24 		leaq	80(%rsp), %rdi
 7066      50
 7067 42e8 488D7424 		leaq	88(%rsp), %rsi
 7067      58
 7068 42ed 48C74424 		movq	$_ZTVSt15basic_stringbufIcSt11char_traitsIcESaIcEE+16, 88(%rsp)
 7068      58000000 
 7068      00
 7069 42f6 C7842498 		movl	$16, 152(%rsp)
 7069      00000010 
 7069      000000
 7070 4301 48C78424 		movq	$_ZNSs4_Rep20_S_empty_rep_storageE+24, 160(%rsp)
 7070      A0000000 
 7070      00000000 
 7071 430d 480378E8 		addq	-24(%rax), %rdi
 7072              	.LEHB194:
 7073 4311 E8000000 		call	_ZNSt9basic_iosIcSt11char_traitsIcEE4initEPSt15basic_streambufIcS1_E
 7073      00
 7074              	.LEHE194:
 7075 4316 488D7C24 		leaq	80(%rsp), %rdi
 7075      50
 7076 431b BA090000 		movl	$9, %edx
 7076      00
 7077 4320 BE000000 		movl	$.LC2, %esi
 7077      00
 7078 4325 48C74424 		movq	$_ZTVN8UnitTest15MemoryOutStreamE+24, 80(%rsp)
 7078      50000000 
 7078      00
 7079 432e 48C78424 		movq	$_ZTVN8UnitTest15MemoryOutStreamE+64, 176(%rsp)
 7079      B0000000 
 7079      00000000 
 7080 433a 48C78424 		movq	$_ZNSs4_Rep20_S_empty_rep_storageE+24, 168(%rsp)
 7080      A8000000 
 7080      00000000 
 7081              	.LEHB195:
 7082 4346 E8000000 		call	_ZSt16__ostream_insertIcSt11char_traitsIcEERSt13basic_ostreamIT_T0_ES6_PKS3_l
 7082      00
 7083 434b F20F1005 		movsd	.LC74(%rip), %xmm0
 7083      00000000 
 7084 4353 488D7C24 		leaq	80(%rsp), %rdi
 7084      50
 7085 4358 E8000000 		call	_ZNSo9_M_insertIdEERSoT_
 7085      00
 7086 435d BA050000 		movl	$5, %edx
 7086      00
 7087 4362 BE000000 		movl	$.LC4, %esi
 7087      00
 7088 4367 4889C7   		movq	%rax, %rdi
 7089 436a 4889C3   		movq	%rax, %rbx
 7090 436d E8000000 		call	_ZSt16__ostream_insertIcSt11char_traitsIcEERSt13basic_ostreamIT_T0_ES6_PKS3_l
 7090      00
 7091 4372 F20F1005 		movsd	.LC72(%rip), %xmm0
 7091      00000000 
 7092 437a 4889DF   		movq	%rbx, %rdi
 7093 437d E8000000 		call	_ZNSo9_M_insertIdEERSoT_
 7093      00
 7094 4382 BA090000 		movl	$9, %edx
 7094      00
 7095 4387 BE000000 		movl	$.LC6, %esi
 7095      00
 7096 438c 4889C7   		movq	%rax, %rdi
 7097 438f 4889C3   		movq	%rax, %rbx
 7098 4392 E8000000 		call	_ZSt16__ostream_insertIcSt11char_traitsIcEERSt13basic_ostreamIT_T0_ES6_PKS3_l
 7098      00
 7099 4397 F20F1005 		movsd	.LC73(%rip), %xmm0
 7099      00000000 
 7100 439f 4889DF   		movq	%rbx, %rdi
 7101 43a2 E8000000 		call	_ZNSo9_M_insertIdEERSoT_
 7101      00
 7102 43a7 488D7C24 		leaq	80(%rsp), %rdi
 7102      50
 7103 43ac E8000000 		call	_ZNK8UnitTest15MemoryOutStream7GetTextEv
 7103      00
 7104 43b1 488D7424 		leaq	48(%rsp), %rsi
 7104      30
 7105 43b6 488D7C24 		leaq	16(%rsp), %rdi
 7105      10
 7106 43bb 4889C2   		movq	%rax, %rdx
 7107 43be E8000000 		call	_ZN8UnitTest11TestResults13OnTestFailureERKNS_11TestDetailsEPKc
 7107      00
 7108              	.LEHE195:
 7109 43c3 488B8424 		movq	168(%rsp), %rax
 7109      A8000000 
 7110 43cb 48C74424 		movq	$_ZTVN8UnitTest15MemoryOutStreamE+24, 80(%rsp)
 7110      50000000 
 7110      00
 7111 43d4 48C78424 		movq	$_ZTVN8UnitTest15MemoryOutStreamE+64, 176(%rsp)
 7111      B0000000 
 7111      00000000 
 7112 43e0 488D78E8 		leaq	-24(%rax), %rdi
 7113 43e4 4881FF00 		cmpq	$_ZNSs4_Rep20_S_empty_rep_storageE, %rdi
 7113      000000
 7114 43eb 0F85BE00 		jne	.L718
 7114      0000
 7115              	.L695:
 7116 43f1 488B8424 		movq	160(%rsp), %rax
 7116      A0000000 
 7117 43f9 48C74424 		movq	$_ZTCN8UnitTest15MemoryOutStreamE0_St19basic_ostringstreamIcSt11char_traitsIcESaIcEE+24, 80(%
 7117      50000000 
 7117      00
 7118 4402 48C78424 		movq	$_ZTCN8UnitTest15MemoryOutStreamE0_St19basic_ostringstreamIcSt11char_traitsIcESaIcEE+64, 176(
 7118      B0000000 
 7118      00000000 
 7119 440e 48C74424 		movq	$_ZTVSt15basic_stringbufIcSt11char_traitsIcESaIcEE+16, 88(%rsp)
 7119      58000000 
 7119      00
 7120 4417 488D78E8 		leaq	-24(%rax), %rdi
 7121 441b 4881FF00 		cmpq	$_ZNSs4_Rep20_S_empty_rep_storageE, %rdi
 7121      000000
 7122 4422 0F85B500 		jne	.L719
 7122      0000
 7123              	.L700:
 7124 4428 488DBC24 		leaq	144(%rsp), %rdi
 7124      90000000 
 7125 4430 48C74424 		movq	$_ZTVSt15basic_streambufIcSt11char_traitsIcEE+16, 88(%rsp)
 7125      58000000 
 7125      00
 7126 4439 E8000000 		call	_ZNSt6localeD1Ev
 7126      00
 7127 443e 488DBC24 		leaq	176(%rsp), %rdi
 7127      B0000000 
 7128 4446 48C74424 		movq	$_ZTCN8UnitTest15MemoryOutStreamE0_So+24, 80(%rsp)
 7128      50000000 
 7128      00
 7129 444f 48C78424 		movq	$_ZTVSt9basic_iosIcSt11char_traitsIcEE+16, 176(%rsp)
 7129      B0000000 
 7129      00000000 
 7130              	.LEHB196:
 7131 445b E8000000 		call	_ZNSt8ios_baseD2Ev
 7131      00
 7132              	.LEHE196:
 7133              	.LEHB197:
 7134 4460 E8000000 		call	_ZN8UnitTest11CurrentTest7DetailsEv
 7134      00
 7135 4465 488B30   		movq	(%rax), %rsi
 7136 4468 488D7C24 		leaq	80(%rsp), %rdi
 7136      50
 7137 446d BA6E0000 		movl	$110, %edx
 7137      00
 7138 4472 E8000000 		call	_ZN8UnitTest11TestDetailsC1ERKS0_i
 7138      00
 7139 4477 488D7C24 		leaq	16(%rsp), %rdi
 7139      10
 7140 447c E8000000 		call	_ZNK8UnitTest11TestResults15GetFailureCountEv
 7140      00
 7141 4481 89442430 		movl	%eax, 48(%rsp)
 7142 4485 C7042401 		movl	$1, (%rsp)
 7142      000000
 7143 448c E8000000 		call	_ZN8UnitTest11CurrentTest7ResultsEv
 7143      00
 7144 4491 488B38   		movq	(%rax), %rdi
 7145 4494 488D4C24 		leaq	80(%rsp), %rcx
 7145      50
 7146 4499 488D5424 		leaq	48(%rsp), %rdx
 7146      30
 7147 449e 4889E6   		movq	%rsp, %rsi
 7148 44a1 E8000000 		call	_ZN8UnitTest10CheckEqualIiiEEvRNS_11TestResultsERKT_RKT0_RKNS_11TestDetailsE
 7148      00
 7149              	.LEHE197:
 7150              	.L689:
 7151 44a6 4881C4C0 		addq	$448, %rsp
 7151      010000
 7152              		.cfi_remember_state
 7153              		.cfi_def_cfa_offset 16
 7154 44ad 5B       		popq	%rbx
 7155              		.cfi_def_cfa_offset 8
 7156 44ae C3       		ret
 7157              	.L718:
 7158              		.cfi_restore_state
 7159 44af B9000000 		movl	$_ZL28__gthrw___pthread_key_createPjPFvPvE, %ecx
 7159      00
 7160 44b4 488D5710 		leaq	16(%rdi), %rdx
 7161 44b8 4885C9   		testq	%rcx, %rcx
 7162 44bb 0F84E400 		je	.L696
 7162      0000
 7163 44c1 83C8FF   		orl	$-1, %eax
 7164 44c4 F00FC102 		lock xaddl	%eax, (%rdx)
 7165              	.L697:
 7166 44c8 85C0     		testl	%eax, %eax
 7167 44ca 0F8F21FF 		jg	.L695
 7167      FFFF
 7168 44d0 4889E6   		movq	%rsp, %rsi
 7169 44d3 E8000000 		call	_ZNSs4_Rep10_M_destroyERKSaIcE
 7169      00
 7170 44d8 E914FFFF 		jmp	.L695
 7170      FF
 7171              	.L719:
 7172 44dd B9000000 		movl	$_ZL28__gthrw___pthread_key_createPjPFvPvE, %ecx
 7172      00
 7173 44e2 488D5710 		leaq	16(%rdi), %rdx
 7174 44e6 4885C9   		testq	%rcx, %rcx
 7175 44e9 7431     		je	.L701
 7176 44eb 83C8FF   		orl	$-1, %eax
 7177 44ee F00FC102 		lock xaddl	%eax, (%rdx)
 7178              	.L702:
 7179 44f2 85C0     		testl	%eax, %eax
 7180 44f4 0F8F2EFF 		jg	.L700
 7180      FFFF
 7181 44fa 4889E6   		movq	%rsp, %rsi
 7182 44fd E8000000 		call	_ZNSs4_Rep10_M_destroyERKSaIcE
 7182      00
 7183 4502 E921FFFF 		jmp	.L700
 7183      FF
 7184              	.L711:
 7185 4507 488D7C24 		leaq	80(%rsp), %rdi
 7185      50
 7186 450c 4889C3   		movq	%rax, %rbx
 7187 450f E8000000 		call	_ZN8UnitTest15MemoryOutStreamD1Ev
 7187      00
 7188 4514 4889DF   		movq	%rbx, %rdi
 7189              	.LEHB198:
 7190 4517 E8000000 		call	_Unwind_Resume
 7190      00
 7191              	.LEHE198:
 7192              	.L701:
 7193 451c 8B50F8   		movl	-8(%rax), %edx
 7194 451f 8D4AFF   		leal	-1(%rdx), %ecx
 7195 4522 8948F8   		movl	%ecx, -8(%rax)
 7196 4525 89D0     		movl	%edx, %eax
 7197 4527 EBC9     		jmp	.L702
 7198              	.L713:
 7199 4529 488D7C24 		leaq	88(%rsp), %rdi
 7199      58
 7200 452e 4889C3   		movq	%rax, %rbx
 7201 4531 E8000000 		call	_ZNSt15basic_stringbufIcSt11char_traitsIcESaIcEED1Ev
 7201      00
 7202 4536 48C74424 		movq	$_ZTCN8UnitTest15MemoryOutStreamE0_So+24, 80(%rsp)
 7202      50000000 
 7202      00
 7203              	.L692:
 7204 453f 488DBC24 		leaq	176(%rsp), %rdi
 7204      B0000000 
 7205 4547 48C78424 		movq	$_ZTVSt9basic_iosIcSt11char_traitsIcEE+16, 176(%rsp)
 7205      B0000000 
 7205      00000000 
 7206 4553 E8000000 		call	_ZNSt8ios_baseD2Ev
 7206      00
 7207 4558 4889DF   		movq	%rbx, %rdi
 7208              	.LEHB199:
 7209 455b E8000000 		call	_Unwind_Resume
 7209      00
 7210              	.LEHE199:
 7211              	.L712:
 7212 4560 4889C3   		movq	%rax, %rbx
 7213 4563 EBDA     		jmp	.L692
 7214              	.L709:
 7215 4565 4889C7   		movq	%rax, %rdi
 7216 4568 E8000000 		call	__cxa_begin_catch
 7216      00
 7217              	.LEHB200:
 7218 456d E8000000 		call	_ZN8UnitTest11CurrentTest7DetailsEv
 7218      00
 7219 4572 488B30   		movq	(%rax), %rsi
 7220 4575 488D7C24 		leaq	80(%rsp), %rdi
 7220      50
 7221 457a BA6E0000 		movl	$110, %edx
 7221      00
 7222 457f E8000000 		call	_ZN8UnitTest11TestDetailsC1ERKS0_i
 7222      00
 7223 4584 E8000000 		call	_ZN8UnitTest11CurrentTest7ResultsEv
 7223      00
 7224 4589 488B38   		movq	(%rax), %rdi
 7225 458c 488D7424 		leaq	80(%rsp), %rsi
 7225      50
 7226 4591 BA000000 		movl	$.LC49, %edx
 7226      00
 7227 4596 E8000000 		call	_ZN8UnitTest11TestResults13OnTestFailureERKNS_11TestDetailsEPKc
 7227      00
 7228              	.LEHE200:
 7229              	.LEHB201:
 7230 459b E8000000 		call	__cxa_end_catch
 7230      00
 7231              	.LEHE201:
 7232 45a0 E901FFFF 		jmp	.L689
 7232      FF
 7233              	.L696:
 7234 45a5 8B50F8   		movl	-8(%rax), %edx
 7235 45a8 8D4AFF   		leal	-1(%rdx), %ecx
 7236 45ab 8948F8   		movl	%ecx, -8(%rax)
 7237 45ae 89D0     		movl	%edx, %eax
 7238 45b0 E913FFFF 		jmp	.L697
 7238      FF
 7239              	.L710:
 7240 45b5 4889C3   		movq	%rax, %rbx
 7241 45b8 E8000000 		call	__cxa_end_catch
 7241      00
 7242 45bd 4889DF   		movq	%rbx, %rdi
 7243              	.LEHB202:
 7244 45c0 E8000000 		call	_Unwind_Resume
 7244      00
 7245              	.LEHE202:
 7246              		.cfi_endproc
 7247              	.LFE1128:
 7248              		.section	.gcc_except_table
 7249              		.align 4
 7250              	.LLSDA1128:
 7251 0528 FF       		.byte	0xff
 7252 0529 03       		.byte	0x3
 7253 052a 45       		.uleb128 .LLSDATT1128-.LLSDATTD1128
 7254              	.LLSDATTD1128:
 7255 052b 01       		.byte	0x1
 7256 052c 3B       		.uleb128 .LLSDACSE1128-.LLSDACSB1128
 7257              	.LLSDACSB1128:
 7258 052d 17       		.uleb128 .LEHB192-.LFB1128
 7259 052e 1D       		.uleb128 .LEHE192-.LEHB192
 7260 052f 00       		.uleb128 0
 7261 0530 00       		.uleb128 0
 7262 0531 A201     		.uleb128 .LEHB193-.LFB1128
 7263 0533 05       		.uleb128 .LEHE193-.LEHB193
 7264 0534 9007     		.uleb128 .L712-.LFB1128
 7265 0536 00       		.uleb128 0
 7266 0537 C102     		.uleb128 .LEHB194-.LFB1128
 7267 0539 05       		.uleb128 .LEHE194-.LEHB194
 7268 053a D906     		.uleb128 .L713-.LFB1128
 7269 053c 00       		.uleb128 0
 7270 053d F602     		.uleb128 .LEHB195-.LFB1128
 7271 053f 7D       		.uleb128 .LEHE195-.LEHB195
 7272 0540 B706     		.uleb128 .L711-.LFB1128
 7273 0542 00       		.uleb128 0
 7274 0543 8B05     		.uleb128 .LEHB196-.LFB1128
 7275 0545 05       		.uleb128 .LEHE196-.LEHB196
 7276 0546 00       		.uleb128 0
 7277 0547 00       		.uleb128 0
 7278 0548 9005     		.uleb128 .LEHB197-.LFB1128
 7279 054a 46       		.uleb128 .LEHE197-.LEHB197
 7280 054b 9507     		.uleb128 .L709-.LFB1128
 7281 054d 01       		.uleb128 0x1
 7282 054e C706     		.uleb128 .LEHB198-.LFB1128
 7283 0550 05       		.uleb128 .LEHE198-.LEHB198
 7284 0551 00       		.uleb128 0
 7285 0552 00       		.uleb128 0
 7286 0553 8B07     		.uleb128 .LEHB199-.LFB1128
 7287 0555 05       		.uleb128 .LEHE199-.LEHB199
 7288 0556 00       		.uleb128 0
 7289 0557 00       		.uleb128 0
 7290 0558 9D07     		.uleb128 .LEHB200-.LFB1128
 7291 055a 2E       		.uleb128 .LEHE200-.LEHB200
 7292 055b E507     		.uleb128 .L710-.LFB1128
 7293 055d 00       		.uleb128 0
 7294 055e CB07     		.uleb128 .LEHB201-.LFB1128
 7295 0560 05       		.uleb128 .LEHE201-.LEHB201
 7296 0561 00       		.uleb128 0
 7297 0562 00       		.uleb128 0
 7298 0563 F007     		.uleb128 .LEHB202-.LFB1128
 7299 0565 05       		.uleb128 .LEHE202-.LEHB202
 7300 0566 00       		.uleb128 0
 7301 0567 00       		.uleb128 0
 7302              	.LLSDACSE1128:
 7303 0568 01       		.byte	0x1
 7304 0569 00       		.byte	0
 7305 056a 0000     		.align 4
 7306 056c 00000000 		.long	0
 7307              	
 7308              	.LLSDATT1128:
 7309              		.text
 7311 45c5 90       		.align 2
 7312 45c6 662E0F1F 		.p2align 4,,15
 7312      84000000 
 7312      0000
 7314              	_ZNK12_GLOBAL__N_118TestCheckCloseTrue7RunImplEv:
 7315              	.LFB1124:
 7316              		.cfi_startproc
 7317              		.cfi_personality 0x3,__gxx_personality_v0
 7318              		.cfi_lsda 0x3,.LLSDA1124
 7319 45d0 53       		pushq	%rbx
 7320              		.cfi_def_cfa_offset 16
 7321              		.cfi_offset 3, -16
 7322 45d1 31F6     		xorl	%esi, %esi
 7323 45d3 4883EC60 		subq	$96, %rsp
 7324              		.cfi_def_cfa_offset 112
 7325 45d7 488D7C24 		leaq	32(%rsp), %rdi
 7325      20
 7326              	.LEHB203:
 7327 45dc E8000000 		call	_ZN8UnitTest11TestResultsC1EPNS_12TestReporterE
 7327      00
 7328 45e1 B9000000 		movl	$.LC1, %ecx
 7328      00
 7329 45e6 488D7C24 		leaq	64(%rsp), %rdi
 7329      40
 7330 45eb 4531C0   		xorl	%r8d, %r8d
 7331 45ee 4889CA   		movq	%rcx, %rdx
 7332 45f1 4889CE   		movq	%rcx, %rsi
 7333 45f4 E8000000 		call	_ZN8UnitTest11TestDetailsC1EPKcS2_S2_i
 7333      00
 7334              	.LEHE203:
 7335              	.LEHB204:
 7336 45f9 E8000000 		call	_ZN8UnitTest11CurrentTest7DetailsEv
 7336      00
 7337 45fe 488B30   		movq	(%rax), %rsi
 7338 4601 488D7C24 		leaq	64(%rsp), %rdi
 7338      40
 7339 4606 BA670000 		movl	$103, %edx
 7339      00
 7340 460b E8000000 		call	_ZN8UnitTest11TestDetailsC1ERKS0_i
 7340      00
 7341 4610 488D7C24 		leaq	32(%rsp), %rdi
 7341      20
 7342 4615 E8000000 		call	_ZNK8UnitTest11TestResults15GetFailureCountEv
 7342      00
 7343 461a 89442410 		movl	%eax, 16(%rsp)
 7344 461e C7042400 		movl	$0, (%rsp)
 7344      000000
 7345 4625 E8000000 		call	_ZN8UnitTest11CurrentTest7ResultsEv
 7345      00
 7346 462a 488B38   		movq	(%rax), %rdi
 7347 462d 488D4C24 		leaq	64(%rsp), %rcx
 7347      40
 7348 4632 488D5424 		leaq	16(%rsp), %rdx
 7348      10
 7349 4637 4889E6   		movq	%rsp, %rsi
 7350 463a E8000000 		call	_ZN8UnitTest10CheckEqualIiiEEvRNS_11TestResultsERKT_RKT0_RKNS_11TestDetailsE
 7350      00
 7351              	.LEHE204:
 7352              	.L720:
 7353 463f 4883C460 		addq	$96, %rsp
 7354              		.cfi_remember_state
 7355              		.cfi_def_cfa_offset 16
 7356 4643 5B       		popq	%rbx
 7357              		.cfi_def_cfa_offset 8
 7358 4644 C3       		ret
 7359              	.L724:
 7360              		.cfi_restore_state
 7361 4645 4889C7   		movq	%rax, %rdi
 7362 4648 E8000000 		call	__cxa_begin_catch
 7362      00
 7363              	.LEHB205:
 7364 464d E8000000 		call	_ZN8UnitTest11CurrentTest7DetailsEv
 7364      00
 7365 4652 488B30   		movq	(%rax), %rsi
 7366 4655 488D7C24 		leaq	64(%rsp), %rdi
 7366      40
 7367 465a BA670000 		movl	$103, %edx
 7367      00
 7368 465f E8000000 		call	_ZN8UnitTest11TestDetailsC1ERKS0_i
 7368      00
 7369 4664 E8000000 		call	_ZN8UnitTest11CurrentTest7ResultsEv
 7369      00
 7370 4669 488B38   		movq	(%rax), %rdi
 7371 466c 488D7424 		leaq	64(%rsp), %rsi
 7371      40
 7372 4671 BA000000 		movl	$.LC51, %edx
 7372      00
 7373 4676 E8000000 		call	_ZN8UnitTest11TestResults13OnTestFailureERKNS_11TestDetailsEPKc
 7373      00
 7374              	.LEHE205:
 7375              	.LEHB206:
 7376 467b E8000000 		call	__cxa_end_catch
 7376      00
 7377              	.LEHE206:
 7378 4680 EBBD     		jmp	.L720
 7379              	.L725:
 7380 4682 4889C3   		movq	%rax, %rbx
 7381              		.p2align 4,,5
 7382 4685 E8000000 		call	__cxa_end_catch
 7382      00
 7383 468a 4889DF   		movq	%rbx, %rdi
 7384              	.LEHB207:
 7385 468d E8000000 		call	_Unwind_Resume
 7385      00
 7386              	.LEHE207:
 7387              		.cfi_endproc
 7388              	.LFE1124:
 7389              		.section	.gcc_except_table
 7390              		.align 4
 7391              	.LLSDA1124:
 7392 0570 FF       		.byte	0xff
 7393 0571 03       		.byte	0x3
 7394 0572 21       		.uleb128 .LLSDATT1124-.LLSDATTD1124
 7395              	.LLSDATTD1124:
 7396 0573 01       		.byte	0x1
 7397 0574 17       		.uleb128 .LLSDACSE1124-.LLSDACSB1124
 7398              	.LLSDACSB1124:
 7399 0575 0C       		.uleb128 .LEHB203-.LFB1124
 7400 0576 1D       		.uleb128 .LEHE203-.LEHB203
 7401 0577 00       		.uleb128 0
 7402 0578 00       		.uleb128 0
 7403 0579 29       		.uleb128 .LEHB204-.LFB1124
 7404 057a 46       		.uleb128 .LEHE204-.LEHB204
 7405 057b 75       		.uleb128 .L724-.LFB1124
 7406 057c 01       		.uleb128 0x1
 7407 057d 7D       		.uleb128 .LEHB205-.LFB1124
 7408 057e 2E       		.uleb128 .LEHE205-.LEHB205
 7409 057f B201     		.uleb128 .L725-.LFB1124
 7410 0581 00       		.uleb128 0
 7411 0582 AB01     		.uleb128 .LEHB206-.LFB1124
 7412 0584 05       		.uleb128 .LEHE206-.LEHB206
 7413 0585 00       		.uleb128 0
 7414 0586 00       		.uleb128 0
 7415 0587 BD01     		.uleb128 .LEHB207-.LFB1124
 7416 0589 05       		.uleb128 .LEHE207-.LEHB207
 7417 058a 00       		.uleb128 0
 7418 058b 00       		.uleb128 0
 7419              	.LLSDACSE1124:
 7420 058c 01       		.byte	0x1
 7421 058d 00       		.byte	0
 7422 058e 0000     		.align 4
 7423 0590 00000000 		.long	0
 7424              	
 7425              	.LLSDATT1124:
 7426              		.text
 7428              		.align 2
 7429 4692 66666666 		.p2align 4,,15
 7429      662E0F1F 
 7429      84000000 
 7429      0000
 7431              	_ZNK12_GLOBAL__N_147TestCheckCloseWithZeroEpsilonWorksForSameNumber7RunImplEv:
 7432              	.LFB1132:
 7433              		.cfi_startproc
 7434              		.cfi_personality 0x3,__gxx_personality_v0
 7435              		.cfi_lsda 0x3,.LLSDA1132
 7436 46a0 53       		pushq	%rbx
 7437              		.cfi_def_cfa_offset 16
 7438              		.cfi_offset 3, -16
 7439 46a1 31F6     		xorl	%esi, %esi
 7440 46a3 4883EC60 		subq	$96, %rsp
 7441              		.cfi_def_cfa_offset 112
 7442 46a7 488D7C24 		leaq	32(%rsp), %rdi
 7442      20
 7443              	.LEHB208:
 7444 46ac E8000000 		call	_ZN8UnitTest11TestResultsC1EPNS_12TestReporterE
 7444      00
 7445 46b1 B9000000 		movl	$.LC1, %ecx
 7445      00
 7446 46b6 488D7C24 		leaq	64(%rsp), %rdi
 7446      40
 7447 46bb 4531C0   		xorl	%r8d, %r8d
 7448 46be 4889CA   		movq	%rcx, %rdx
 7449 46c1 4889CE   		movq	%rcx, %rsi
 7450 46c4 E8000000 		call	_ZN8UnitTest11TestDetailsC1EPKcS2_S2_i
 7450      00
 7451              	.LEHE208:
 7452              	.LEHB209:
 7453 46c9 E8000000 		call	_ZN8UnitTest11CurrentTest7DetailsEv
 7453      00
 7454 46ce 488B30   		movq	(%rax), %rsi
 7455 46d1 488D7C24 		leaq	64(%rsp), %rdi
 7455      40
 7456 46d6 BA750000 		movl	$117, %edx
 7456      00
 7457 46db E8000000 		call	_ZN8UnitTest11TestDetailsC1ERKS0_i
 7457      00
 7458 46e0 488D7C24 		leaq	32(%rsp), %rdi
 7458      20
 7459 46e5 E8000000 		call	_ZNK8UnitTest11TestResults15GetFailureCountEv
 7459      00
 7460 46ea 89442410 		movl	%eax, 16(%rsp)
 7461 46ee C7042400 		movl	$0, (%rsp)
 7461      000000
 7462 46f5 E8000000 		call	_ZN8UnitTest11CurrentTest7ResultsEv
 7462      00
 7463 46fa 488B38   		movq	(%rax), %rdi
 7464 46fd 488D4C24 		leaq	64(%rsp), %rcx
 7464      40
 7465 4702 488D5424 		leaq	16(%rsp), %rdx
 7465      10
 7466 4707 4889E6   		movq	%rsp, %rsi
 7467 470a E8000000 		call	_ZN8UnitTest10CheckEqualIiiEEvRNS_11TestResultsERKT_RKT0_RKNS_11TestDetailsE
 7467      00
 7468              	.LEHE209:
 7469              	.L727:
 7470 470f 4883C460 		addq	$96, %rsp
 7471              		.cfi_remember_state
 7472              		.cfi_def_cfa_offset 16
 7473 4713 5B       		popq	%rbx
 7474              		.cfi_def_cfa_offset 8
 7475 4714 C3       		ret
 7476              	.L731:
 7477              		.cfi_restore_state
 7478 4715 4889C7   		movq	%rax, %rdi
 7479 4718 E8000000 		call	__cxa_begin_catch
 7479      00
 7480              	.LEHB210:
 7481 471d E8000000 		call	_ZN8UnitTest11CurrentTest7DetailsEv
 7481      00
 7482 4722 488B30   		movq	(%rax), %rsi
 7483 4725 488D7C24 		leaq	64(%rsp), %rdi
 7483      40
 7484 472a BA750000 		movl	$117, %edx
 7484      00
 7485 472f E8000000 		call	_ZN8UnitTest11TestDetailsC1ERKS0_i
 7485      00
 7486 4734 E8000000 		call	_ZN8UnitTest11CurrentTest7ResultsEv
 7486      00
 7487 4739 488B38   		movq	(%rax), %rdi
 7488 473c 488D7424 		leaq	64(%rsp), %rsi
 7488      40
 7489 4741 BA000000 		movl	$.LC51, %edx
 7489      00
 7490 4746 E8000000 		call	_ZN8UnitTest11TestResults13OnTestFailureERKNS_11TestDetailsEPKc
 7490      00
 7491              	.LEHE210:
 7492              	.LEHB211:
 7493 474b E8000000 		call	__cxa_end_catch
 7493      00
 7494              	.LEHE211:
 7495 4750 EBBD     		jmp	.L727
 7496              	.L732:
 7497 4752 4889C3   		movq	%rax, %rbx
 7498              		.p2align 4,,5
 7499 4755 E8000000 		call	__cxa_end_catch
 7499      00
 7500 475a 4889DF   		movq	%rbx, %rdi
 7501              	.LEHB212:
 7502 475d E8000000 		call	_Unwind_Resume
 7502      00
 7503              	.LEHE212:
 7504              		.cfi_endproc
 7505              	.LFE1132:
 7506              		.section	.gcc_except_table
 7507              		.align 4
 7508              	.LLSDA1132:
 7509 0594 FF       		.byte	0xff
 7510 0595 03       		.byte	0x3
 7511 0596 21       		.uleb128 .LLSDATT1132-.LLSDATTD1132
 7512              	.LLSDATTD1132:
 7513 0597 01       		.byte	0x1
 7514 0598 17       		.uleb128 .LLSDACSE1132-.LLSDACSB1132
 7515              	.LLSDACSB1132:
 7516 0599 0C       		.uleb128 .LEHB208-.LFB1132
 7517 059a 1D       		.uleb128 .LEHE208-.LEHB208
 7518 059b 00       		.uleb128 0
 7519 059c 00       		.uleb128 0
 7520 059d 29       		.uleb128 .LEHB209-.LFB1132
 7521 059e 46       		.uleb128 .LEHE209-.LEHB209
 7522 059f 75       		.uleb128 .L731-.LFB1132
 7523 05a0 01       		.uleb128 0x1
 7524 05a1 7D       		.uleb128 .LEHB210-.LFB1132
 7525 05a2 2E       		.uleb128 .LEHE210-.LEHB210
 7526 05a3 B201     		.uleb128 .L732-.LFB1132
 7527 05a5 00       		.uleb128 0
 7528 05a6 AB01     		.uleb128 .LEHB211-.LFB1132
 7529 05a8 05       		.uleb128 .LEHE211-.LEHB211
 7530 05a9 00       		.uleb128 0
 7531 05aa 00       		.uleb128 0
 7532 05ab BD01     		.uleb128 .LEHB212-.LFB1132
 7533 05ad 05       		.uleb128 .LEHE212-.LEHB212
 7534 05ae 00       		.uleb128 0
 7535 05af 00       		.uleb128 0
 7536              	.LLSDACSE1132:
 7537 05b0 01       		.byte	0x1
 7538 05b1 00       		.byte	0
 7539 05b2 0000     		.align 4
 7540 05b4 00000000 		.long	0
 7541              	
 7542              	.LLSDATT1132:
 7543              		.text
 7545              		.section	.text._ZN8UnitTest10CheckCloseIiifEEvRNS_11TestResultsERKT_RKT0_RKT1_RKNS_11TestDetailsE,
 7546              		.p2align 4,,15
 7547              		.weak	_ZN8UnitTest10CheckCloseIiifEEvRNS_11TestResultsERKT_RKT0_RKT1_RKNS_11TestDetailsE
 7549              	_ZN8UnitTest10CheckCloseIiifEEvRNS_11TestResultsERKT_RKT0_RKT1_RKNS_11TestDetailsE:
 7550              	.LFB1225:
 7551              		.cfi_startproc
 7552              		.cfi_personality 0x3,__gxx_personality_v0
 7553              		.cfi_lsda 0x3,.LLSDA1225
 7554 0000 4157     		pushq	%r15
 7555              		.cfi_def_cfa_offset 16
 7556              		.cfi_offset 15, -16
 7557 0002 4D89C7   		movq	%r8, %r15
 7558 0005 4156     		pushq	%r14
 7559              		.cfi_def_cfa_offset 24
 7560              		.cfi_offset 14, -24
 7561 0007 4989FE   		movq	%rdi, %r14
 7562 000a 4155     		pushq	%r13
 7563              		.cfi_def_cfa_offset 32
 7564              		.cfi_offset 13, -32
 7565 000c 4154     		pushq	%r12
 7566              		.cfi_def_cfa_offset 40
 7567              		.cfi_offset 12, -40
 7568 000e 4989CC   		movq	%rcx, %r12
 7569 0011 55       		pushq	%rbp
 7570              		.cfi_def_cfa_offset 48
 7571              		.cfi_offset 6, -48
 7572 0012 4889D5   		movq	%rdx, %rbp
 7573 0015 53       		pushq	%rbx
 7574              		.cfi_def_cfa_offset 56
 7575              		.cfi_offset 3, -56
 7576 0016 4889F3   		movq	%rsi, %rbx
 7577 0019 4881EC98 		subq	$408, %rsp
 7577      010000
 7578              		.cfi_def_cfa_offset 464
 7579 0020 F30F2A0E 		cvtsi2ss	(%rsi), %xmm1
 7580 0024 0F28D9   		movaps	%xmm1, %xmm3
 7581 0027 F30F1011 		movss	(%rcx), %xmm2
 7582 002b F30F2A02 		cvtsi2ss	(%rdx), %xmm0
 7583 002f F30F5CDA 		subss	%xmm2, %xmm3
 7584 0033 0F2EC3   		ucomiss	%xmm3, %xmm0
 7585 0036 720D     		jb	.L735
 7586 0038 F30F58CA 		addss	%xmm2, %xmm1
 7587 003c 0F2EC8   		ucomiss	%xmm0, %xmm1
 7588 003f 0F834302 		jnb	.L734
 7588      0000
 7589              	.L735:
 7590 0045 4C8DAC24 		leaq	128(%rsp), %r13
 7590      80000000 
 7591 004d 4C89EF   		movq	%r13, %rdi
 7592 0050 E8000000 		call	_ZNSt8ios_baseC2Ev
 7592      00
 7593 0055 31F6     		xorl	%esi, %esi
 7594 0057 4C89EF   		movq	%r13, %rdi
 7595 005a 48C78424 		movq	$0, 344(%rsp)
 7595      58010000 
 7595      00000000 
 7596 0066 C6842460 		movb	$0, 352(%rsp)
 7596      01000000 
 7597 006e C6842461 		movb	$0, 353(%rsp)
 7597      01000000 
 7598 0076 48C78424 		movq	$0, 360(%rsp)
 7598      68010000 
 7598      00000000 
 7599 0082 48C78424 		movq	$0, 368(%rsp)
 7599      70010000 
 7599      00000000 
 7600 008e 48C78424 		movq	$0, 376(%rsp)
 7600      78010000 
 7600      00000000 
 7601 009a 48C78424 		movq	$0, 384(%rsp)
 7601      80010000 
 7601      00000000 
 7602 00a6 48C74424 		movq	$_ZTCN8UnitTest15MemoryOutStreamE0_So+24, 32(%rsp)
 7602      20000000 
 7602      00
 7603 00af 48C78424 		movq	$_ZTCN8UnitTest15MemoryOutStreamE0_So+64, 128(%rsp)
 7603      80000000 
 7603      00000000 
 7604              	.LEHB213:
 7605 00bb E8000000 		call	_ZNSt9basic_iosIcSt11char_traitsIcEE4initEPSt15basic_streambufIcS1_E
 7605      00
 7606              	.LEHE213:
 7607 00c0 488D7C24 		leaq	96(%rsp), %rdi
 7607      60
 7608 00c5 48C74424 		movq	$_ZTCN8UnitTest15MemoryOutStreamE0_St19basic_ostringstreamIcSt11char_traitsIcESaIcEE+24, 32(%
 7608      20000000 
 7608      00
 7609 00ce 48C78424 		movq	$_ZTCN8UnitTest15MemoryOutStreamE0_St19basic_ostringstreamIcSt11char_traitsIcESaIcEE+64, 128(
 7609      80000000 
 7609      00000000 
 7610 00da 48C74424 		movq	$_ZTVSt15basic_streambufIcSt11char_traitsIcEE+16, 40(%rsp)
 7610      28000000 
 7610      00
 7611 00e3 48C74424 		movq	$0, 48(%rsp)
 7611      30000000 
 7611      00
 7612 00ec 48C74424 		movq	$0, 56(%rsp)
 7612      38000000 
 7612      00
 7613 00f5 48C74424 		movq	$0, 64(%rsp)
 7613      40000000 
 7613      00
 7614 00fe 48C74424 		movq	$0, 72(%rsp)
 7614      48000000 
 7614      00
 7615 0107 48C74424 		movq	$0, 80(%rsp)
 7615      50000000 
 7615      00
 7616 0110 48C74424 		movq	$0, 88(%rsp)
 7616      58000000 
 7616      00
 7617 0119 E8000000 		call	_ZNSt6localeC1Ev
 7617      00
 7618 011e 488B4424 		movq	32(%rsp), %rax
 7618      20
 7619 0123 488D7C24 		leaq	32(%rsp), %rdi
 7619      20
 7620 0128 488D7424 		leaq	40(%rsp), %rsi
 7620      28
 7621 012d 48C74424 		movq	$_ZTVSt15basic_stringbufIcSt11char_traitsIcESaIcEE+16, 40(%rsp)
 7621      28000000 
 7621      00
 7622 0136 C7442468 		movl	$16, 104(%rsp)
 7622      10000000 
 7623 013e 48C74424 		movq	$_ZNSs4_Rep20_S_empty_rep_storageE+24, 112(%rsp)
 7623      70000000 
 7623      00
 7624 0147 480378E8 		addq	-24(%rax), %rdi
 7625              	.LEHB214:
 7626 014b E8000000 		call	_ZNSt9basic_iosIcSt11char_traitsIcEE4initEPSt15basic_streambufIcS1_E
 7626      00
 7627              	.LEHE214:
 7628 0150 488D7C24 		leaq	32(%rsp), %rdi
 7628      20
 7629 0155 F3410F10 		movss	(%r12), %xmm4
 7629      2424
 7630 015b BA090000 		movl	$9, %edx
 7630      00
 7631 0160 BE000000 		movl	$.LC2, %esi
 7631      00
 7632 0165 48C74424 		movq	$_ZTVN8UnitTest15MemoryOutStreamE+24, 32(%rsp)
 7632      20000000 
 7632      00
 7633 016e 48C78424 		movq	$_ZTVN8UnitTest15MemoryOutStreamE+64, 128(%rsp)
 7633      80000000 
 7633      00000000 
 7634 017a 48C74424 		movq	$_ZNSs4_Rep20_S_empty_rep_storageE+24, 120(%rsp)
 7634      78000000 
 7634      00
 7635 0183 F30F1164 		movss	%xmm4, 12(%rsp)
 7635      240C
 7636 0189 8B6D00   		movl	0(%rbp), %ebp
 7637 018c 8B1B     		movl	(%rbx), %ebx
 7638              	.LEHB215:
 7639 018e E8000000 		call	_ZSt16__ostream_insertIcSt11char_traitsIcEERSt13basic_ostreamIT_T0_ES6_PKS3_l
 7639      00
 7640 0193 488D7C24 		leaq	32(%rsp), %rdi
 7640      20
 7641 0198 89DE     		movl	%ebx, %esi
 7642 019a E8000000 		call	_ZNSolsEi
 7642      00
 7643 019f BA050000 		movl	$5, %edx
 7643      00
 7644 01a4 BE000000 		movl	$.LC4, %esi
 7644      00
 7645 01a9 4889C7   		movq	%rax, %rdi
 7646 01ac 4889C3   		movq	%rax, %rbx
 7647 01af E8000000 		call	_ZSt16__ostream_insertIcSt11char_traitsIcEERSt13basic_ostreamIT_T0_ES6_PKS3_l
 7647      00
 7648 01b4 F30F1044 		movss	12(%rsp), %xmm0
 7648      240C
 7649 01ba 4889DF   		movq	%rbx, %rdi
 7650 01bd 0F5AC0   		cvtps2pd	%xmm0, %xmm0
 7651 01c0 E8000000 		call	_ZNSo9_M_insertIdEERSoT_
 7651      00
 7652 01c5 BA090000 		movl	$9, %edx
 7652      00
 7653 01ca BE000000 		movl	$.LC6, %esi
 7653      00
 7654 01cf 4889C7   		movq	%rax, %rdi
 7655 01d2 4889C3   		movq	%rax, %rbx
 7656 01d5 E8000000 		call	_ZSt16__ostream_insertIcSt11char_traitsIcEERSt13basic_ostreamIT_T0_ES6_PKS3_l
 7656      00
 7657 01da 89EE     		movl	%ebp, %esi
 7658 01dc 4889DF   		movq	%rbx, %rdi
 7659 01df E8000000 		call	_ZNSolsEi
 7659      00
 7660 01e4 488D7C24 		leaq	32(%rsp), %rdi
 7660      20
 7661 01e9 E8000000 		call	_ZNK8UnitTest15MemoryOutStream7GetTextEv
 7661      00
 7662 01ee 4889C2   		movq	%rax, %rdx
 7663 01f1 4C89FE   		movq	%r15, %rsi
 7664 01f4 4C89F7   		movq	%r14, %rdi
 7665 01f7 E8000000 		call	_ZN8UnitTest11TestResults13OnTestFailureERKNS_11TestDetailsEPKc
 7665      00
 7666              	.LEHE215:
 7667 01fc 488B4424 		movq	120(%rsp), %rax
 7667      78
 7668 0201 48C74424 		movq	$_ZTVN8UnitTest15MemoryOutStreamE+24, 32(%rsp)
 7668      20000000 
 7668      00
 7669 020a 48C78424 		movq	$_ZTVN8UnitTest15MemoryOutStreamE+64, 128(%rsp)
 7669      80000000 
 7669      00000000 
 7670 0216 488D78E8 		leaq	-24(%rax), %rdi
 7671 021a 4881FF00 		cmpq	$_ZNSs4_Rep20_S_empty_rep_storageE, %rdi
 7671      000000
 7672 0221 7577     		jne	.L762
 7673              	.L743:
 7674 0223 488B4424 		movq	112(%rsp), %rax
 7674      70
 7675 0228 48C74424 		movq	$_ZTCN8UnitTest15MemoryOutStreamE0_St19basic_ostringstreamIcSt11char_traitsIcESaIcEE+24, 32(%
 7675      20000000 
 7675      00
 7676 0231 48C78424 		movq	$_ZTCN8UnitTest15MemoryOutStreamE0_St19basic_ostringstreamIcSt11char_traitsIcESaIcEE+64, 128(
 7676      80000000 
 7676      00000000 
 7677 023d 48C74424 		movq	$_ZTVSt15basic_stringbufIcSt11char_traitsIcESaIcEE+16, 40(%rsp)
 7677      28000000 
 7677      00
 7678 0246 488D78E8 		leaq	-24(%rax), %rdi
 7679 024a 4881FF00 		cmpq	$_ZNSs4_Rep20_S_empty_rep_storageE, %rdi
 7679      000000
 7680 0251 7577     		jne	.L763
 7681              	.L748:
 7682 0253 488D7C24 		leaq	96(%rsp), %rdi
 7682      60
 7683 0258 48C74424 		movq	$_ZTVSt15basic_streambufIcSt11char_traitsIcEE+16, 40(%rsp)
 7683      28000000 
 7683      00
 7684 0261 E8000000 		call	_ZNSt6localeD1Ev
 7684      00
 7685 0266 488DBC24 		leaq	128(%rsp), %rdi
 7685      80000000 
 7686 026e 48C74424 		movq	$_ZTCN8UnitTest15MemoryOutStreamE0_So+24, 32(%rsp)
 7686      20000000 
 7686      00
 7687 0277 48C78424 		movq	$_ZTVSt9basic_iosIcSt11char_traitsIcEE+16, 128(%rsp)
 7687      80000000 
 7687      00000000 
 7688              	.LEHB216:
 7689 0283 E8000000 		call	_ZNSt8ios_baseD2Ev
 7689      00
 7690              	.LEHE216:
 7691              	.L734:
 7692 0288 4881C498 		addq	$408, %rsp
 7692      010000
 7693              		.cfi_remember_state
 7694              		.cfi_def_cfa_offset 56
 7695 028f 5B       		popq	%rbx
 7696              		.cfi_def_cfa_offset 48
 7697 0290 5D       		popq	%rbp
 7698              		.cfi_def_cfa_offset 40
 7699 0291 415C     		popq	%r12
 7700              		.cfi_def_cfa_offset 32
 7701 0293 415D     		popq	%r13
 7702              		.cfi_def_cfa_offset 24
 7703 0295 415E     		popq	%r14
 7704              		.cfi_def_cfa_offset 16
 7705 0297 415F     		popq	%r15
 7706              		.cfi_def_cfa_offset 8
 7707 0299 C3       		ret
 7708              	.L762:
 7709              		.cfi_restore_state
 7710 029a B9000000 		movl	$_ZL28__gthrw___pthread_key_createPjPFvPvE, %ecx
 7710      00
 7711 029f 488D5710 		leaq	16(%rdi), %rdx
 7712 02a3 4885C9   		testq	%rcx, %rcx
 7713 02a6 0F848300 		je	.L744
 7713      0000
 7714 02ac 83C8FF   		orl	$-1, %eax
 7715 02af F00FC102 		lock xaddl	%eax, (%rdx)
 7716              	.L745:
 7717 02b3 85C0     		testl	%eax, %eax
 7718 02b5 0F8F68FF 		jg	.L743
 7718      FFFF
 7719 02bb 488D7424 		leaq	31(%rsp), %rsi
 7719      1F
 7720 02c0 E8000000 		call	_ZNSs4_Rep10_M_destroyERKSaIcE
 7720      00
 7721 02c5 E959FFFF 		jmp	.L743
 7721      FF
 7722              	.L763:
 7723 02ca B9000000 		movl	$_ZL28__gthrw___pthread_key_createPjPFvPvE, %ecx
 7723      00
 7724 02cf 488D5710 		leaq	16(%rdi), %rdx
 7725 02d3 4885C9   		testq	%rcx, %rcx
 7726 02d6 747F     		je	.L749
 7727 02d8 83C8FF   		orl	$-1, %eax
 7728 02db F00FC102 		lock xaddl	%eax, (%rdx)
 7729              	.L750:
 7730 02df 85C0     		testl	%eax, %eax
 7731 02e1 0F8F6CFF 		jg	.L748
 7731      FFFF
 7732 02e7 488D7424 		leaq	31(%rsp), %rsi
 7732      1F
 7733 02ec E8000000 		call	_ZNSs4_Rep10_M_destroyERKSaIcE
 7733      00
 7734 02f1 E95DFFFF 		jmp	.L748
 7734      FF
 7735              	.L754:
 7736 02f6 488D7C24 		leaq	32(%rsp), %rdi
 7736      20
 7737 02fb 4889C3   		movq	%rax, %rbx
 7738 02fe E8000000 		call	_ZN8UnitTest15MemoryOutStreamD1Ev
 7738      00
 7739 0303 4889DF   		movq	%rbx, %rdi
 7740              	.LEHB217:
 7741 0306 E8000000 		call	_Unwind_Resume
 7741      00
 7742              	.LEHE217:
 7743              	.L755:
 7744 030b 4889C3   		movq	%rax, %rbx
 7745              	.L740:
 7746 030e 488DBC24 		leaq	128(%rsp), %rdi
 7746      80000000 
 7747 0316 48C78424 		movq	$_ZTVSt9basic_iosIcSt11char_traitsIcEE+16, 128(%rsp)
 7747      80000000 
 7747      00000000 
 7748 0322 E8000000 		call	_ZNSt8ios_baseD2Ev
 7748      00
 7749 0327 4889DF   		movq	%rbx, %rdi
 7750              	.LEHB218:
 7751 032a E8000000 		call	_Unwind_Resume
 7751      00
 7752              	.LEHE218:
 7753              	.L744:
 7754 032f 8B50F8   		movl	-8(%rax), %edx
 7755 0332 8D4AFF   		leal	-1(%rdx), %ecx
 7756 0335 8948F8   		movl	%ecx, -8(%rax)
 7757 0338 89D0     		movl	%edx, %eax
 7758 033a E974FFFF 		jmp	.L745
 7758      FF
 7759              	.L756:
 7760 033f 488D7C24 		leaq	40(%rsp), %rdi
 7760      28
 7761 0344 4889C3   		movq	%rax, %rbx
 7762 0347 E8000000 		call	_ZNSt15basic_stringbufIcSt11char_traitsIcESaIcEED1Ev
 7762      00
 7763 034c 48C74424 		movq	$_ZTCN8UnitTest15MemoryOutStreamE0_So+24, 32(%rsp)
 7763      20000000 
 7763      00
 7764 0355 EBB7     		jmp	.L740
 7765              	.L749:
 7766 0357 8B50F8   		movl	-8(%rax), %edx
 7767 035a 8D4AFF   		leal	-1(%rdx), %ecx
 7768 035d 8948F8   		movl	%ecx, -8(%rax)
 7769 0360 89D0     		movl	%edx, %eax
 7770 0362 E978FFFF 		jmp	.L750
 7770      FF
 7771              		.cfi_endproc
 7772              	.LFE1225:
 7773              		.section	.gcc_except_table
 7774              	.LLSDA1225:
 7775 05b8 FF       		.byte	0xff
 7776 05b9 FF       		.byte	0xff
 7777 05ba 01       		.byte	0x1
 7778 05bb 21       		.uleb128 .LLSDACSE1225-.LLSDACSB1225
 7779              	.LLSDACSB1225:
 7780 05bc BB01     		.uleb128 .LEHB213-.LFB1225
 7781 05be 05       		.uleb128 .LEHE213-.LEHB213
 7782 05bf 8B06     		.uleb128 .L755-.LFB1225
 7783 05c1 00       		.uleb128 0
 7784 05c2 CB02     		.uleb128 .LEHB214-.LFB1225
 7785 05c4 05       		.uleb128 .LEHE214-.LEHB214
 7786 05c5 BF06     		.uleb128 .L756-.LFB1225
 7787 05c7 00       		.uleb128 0
 7788 05c8 8E03     		.uleb128 .LEHB215-.LFB1225
 7789 05ca 6E       		.uleb128 .LEHE215-.LEHB215
 7790 05cb F605     		.uleb128 .L754-.LFB1225
 7791 05cd 00       		.uleb128 0
 7792 05ce 8305     		.uleb128 .LEHB216-.LFB1225
 7793 05d0 05       		.uleb128 .LEHE216-.LEHB216
 7794 05d1 00       		.uleb128 0
 7795 05d2 00       		.uleb128 0
 7796 05d3 8606     		.uleb128 .LEHB217-.LFB1225
 7797 05d5 05       		.uleb128 .LEHE217-.LEHB217
 7798 05d6 00       		.uleb128 0
 7799 05d7 00       		.uleb128 0
 7800 05d8 AA06     		.uleb128 .LEHB218-.LFB1225
 7801 05da 05       		.uleb128 .LEHE218-.LEHB218
 7802 05db 00       		.uleb128 0
 7803 05dc 00       		.uleb128 0
 7804              	.LLSDACSE1225:
 7805              		.section	.text._ZN8UnitTest10CheckCloseIiifEEvRNS_11TestResultsERKT_RKT0_RKT1_RKNS_11TestDetailsE,
 7807              		.section	.rodata.str1.1
 7808              	.LC75:
 7809 00dd 68656164 		.string	"header.h"
 7809      65722E68 
 7809      00
 7810              		.section	.rodata.str1.8
 7811 06c2 00000000 		.align 8
 7811      0000
 7812              	.LC77:
 7813 06c8 556E6861 		.string	"Unhandled exception in CHECK_EQUAL(\"header.h\", reporter.lastFailedFile)"
 7813      6E646C65 
 7813      64206578 
 7813      63657074 
 7813      696F6E20 
 7814              		.align 8
 7815              	.LC78:
 7816 0710 556E6861 		.string	"Unhandled exception in CHECK_EQUAL(10, reporter.lastFailedLine)"
 7816      6E646C65 
 7816      64206578 
 7816      63657074 
 7816      696F6E20 
 7817              		.text
 7818              		.align 2
 7819 4762 66666666 		.p2align 4,,15
 7819      662E0F1F 
 7819      84000000 
 7819      0000
 7821              	_ZNK12_GLOBAL__N_136TestCheckCloseFailureIncludesDetails7RunImplEv:
 7822              	.LFB1152:
 7823              		.cfi_startproc
 7824              		.cfi_personality 0x3,__gxx_personality_v0
 7825              		.cfi_lsda 0x3,.LLSDA1152
 7826 4770 53       		pushq	%rbx
 7827              		.cfi_def_cfa_offset 16
 7828              		.cfi_offset 3, -16
 7829 4771 4881ECC0 		subq	$2240, %rsp
 7829      080000
 7830              		.cfi_def_cfa_offset 2256
 7831 4778 488DB424 		leaq	128(%rsp), %rsi
 7831      80000000 
 7832 4780 488D7C24 		leaq	32(%rsp), %rdi
 7832      20
 7833 4785 48C78424 		movq	$_ZTV17RecordingReporter+16, 128(%rsp)
 7833      80000000 
 7833      00000000 
 7834 4791 64488B04 		movq	%fs:40, %rax
 7834      25280000 
 7834      00
 7835 479a 48898424 		movq	%rax, 2232(%rsp)
 7835      B8080000 
 7836 47a2 31C0     		xorl	%eax, %eax
 7837 47a4 C7842488 		movl	$0, 136(%rsp)
 7837      00000000 
 7837      000000
 7838 47af C784248C 		movl	$0, 652(%rsp)
 7838      02000000 
 7838      000000
 7839 47ba C7842490 		movl	$0, 912(%rsp)
 7839      03000000 
 7839      000000
 7840 47c5 C7842494 		movl	$0, 1684(%rsp)
 7840      06000000 
 7840      000000
 7841 47d0 C7842498 		movl	$0x00000000, 2200(%rsp)
 7841      08000000 
 7841      000000
 7842 47db C784249C 		movl	$0, 2204(%rsp)
 7842      08000000 
 7842      000000
 7843 47e6 C78424A0 		movl	$0, 2208(%rsp)
 7843      08000000 
 7843      000000
 7844 47f1 C78424A4 		movl	$0, 2212(%rsp)
 7844      08000000 
 7844      000000
 7845 47fc C78424A8 		movl	$0x00000000, 2216(%rsp)
 7845      08000000 
 7845      000000
 7846 4807 C684248C 		movb	$0, 140(%rsp)
 7846      00000000 
 7847 480f C684248C 		movb	$0, 396(%rsp)
 7847      01000000 
 7848 4817 C6842490 		movb	$0, 656(%rsp)
 7848      02000000 
 7849 481f C6842494 		movb	$0, 916(%rsp)
 7849      03000000 
 7850 4827 C6842494 		movb	$0, 1172(%rsp)
 7850      04000000 
 7851 482f C6842494 		movb	$0, 1428(%rsp)
 7851      05000000 
 7852 4837 C6842498 		movb	$0, 1688(%rsp)
 7852      06000000 
 7853 483f C6842498 		movb	$0, 1944(%rsp)
 7853      07000000 
 7854              	.LEHB219:
 7855 4847 E8000000 		call	_ZN8UnitTest11TestResultsC1EPNS_12TestReporterE
 7855      00
 7856 484c 488D7C24 		leaq	64(%rsp), %rdi
 7856      40
 7857 4851 41B80A00 		movl	$10, %r8d
 7857      0000
 7858 4857 B9000000 		movl	$.LC75, %ecx
 7858      00
 7859 485c BA000000 		movl	$.LC53, %edx
 7859      00
 7860 4861 BE000000 		movl	$.LC54, %esi
 7860      00
 7861 4866 E8000000 		call	_ZN8UnitTest11TestDetailsC1EPKcS2_S2_i
 7861      00
 7862 486b 4C8D4424 		leaq	64(%rsp), %r8
 7862      40
 7863 4870 488D4C24 		leaq	96(%rsp), %rcx
 7863      60
 7864 4875 488D5424 		leaq	16(%rsp), %rdx
 7864      10
 7865 487a 488D7C24 		leaq	32(%rsp), %rdi
 7865      20
 7866 487f 4889E6   		movq	%rsp, %rsi
 7867 4882 C7442460 		movl	$0x3c23d70a, 96(%rsp)
 7867      0AD7233C 
 7868 488a C7442410 		movl	$3, 16(%rsp)
 7868      03000000 
 7869 4892 C7042402 		movl	$2, (%rsp)
 7869      000000
 7870 4899 E8000000 		call	_ZN8UnitTest10CheckCloseIiifEEvRNS_11TestResultsERKT_RKT0_RKT1_RKNS_11TestDetailsE
 7870      00
 7871              	.LEHE219:
 7872              	.LEHB220:
 7873 489e E8000000 		call	_ZN8UnitTest11CurrentTest7DetailsEv
 7873      00
 7874 48a3 488B30   		movq	(%rax), %rsi
 7875 48a6 488D7C24 		leaq	96(%rsp), %rdi
 7875      60
 7876 48ab BAB10000 		movl	$177, %edx
 7876      00
 7877 48b0 E8000000 		call	_ZN8UnitTest11TestDetailsC1ERKS0_i
 7877      00
 7878 48b5 E8000000 		call	_ZN8UnitTest11CurrentTest7ResultsEv
 7878      00
 7879 48ba 488D9C24 		leaq	128(%rsp), %rbx
 7879      80000000 
 7880 48c2 488B38   		movq	(%rax), %rdi
 7881 48c5 488D4C24 		leaq	96(%rsp), %rcx
 7881      60
 7882 48ca BE000000 		movl	$.LC54, %esi
 7882      00
 7883 48cf 488D9314 		leaq	1044(%rbx), %rdx
 7883      040000
 7884 48d6 E8000000 		call	_ZN8UnitTest10CheckEqualERNS_11TestResultsEPKcPcRKNS_11TestDetailsE
 7884      00
 7885              	.LEHE220:
 7886              	.L768:
 7887              	.LEHB221:
 7888 48db E8000000 		call	_ZN8UnitTest11CurrentTest7DetailsEv
 7888      00
 7889 48e0 488B30   		movq	(%rax), %rsi
 7890 48e3 488D7C24 		leaq	96(%rsp), %rdi
 7890      60
 7891 48e8 BAB20000 		movl	$178, %edx
 7891      00
 7892 48ed E8000000 		call	_ZN8UnitTest11TestDetailsC1ERKS0_i
 7892      00
 7893 48f2 E8000000 		call	_ZN8UnitTest11CurrentTest7ResultsEv
 7893      00
 7894 48f7 488D9C24 		leaq	128(%rsp), %rbx
 7894      80000000 
 7895 48ff 488B38   		movq	(%rax), %rdi
 7896 4902 488D4C24 		leaq	96(%rsp), %rcx
 7896      60
 7897 4907 BE000000 		movl	$.LC53, %esi
 7897      00
 7898 490c 488D9314 		leaq	788(%rbx), %rdx
 7898      030000
 7899 4913 E8000000 		call	_ZN8UnitTest10CheckEqualERNS_11TestResultsEPKcPcRKNS_11TestDetailsE
 7899      00
 7900              	.LEHE221:
 7901              	.L771:
 7902              	.LEHB222:
 7903 4918 E8000000 		call	_ZN8UnitTest11CurrentTest7DetailsEv
 7903      00
 7904 491d 488B30   		movq	(%rax), %rsi
 7905 4920 488D7C24 		leaq	96(%rsp), %rdi
 7905      60
 7906 4925 BAB30000 		movl	$179, %edx
 7906      00
 7907 492a E8000000 		call	_ZN8UnitTest11TestDetailsC1ERKS0_i
 7907      00
 7908 492f E8000000 		call	_ZN8UnitTest11CurrentTest7ResultsEv
 7908      00
 7909 4934 488D9C24 		leaq	128(%rsp), %rbx
 7909      80000000 
 7910 493c 488B38   		movq	(%rax), %rdi
 7911 493f 488D4C24 		leaq	96(%rsp), %rcx
 7911      60
 7912 4944 BE000000 		movl	$.LC75, %esi
 7912      00
 7913 4949 488D9310 		leaq	528(%rbx), %rdx
 7913      020000
 7914 4950 E8000000 		call	_ZN8UnitTest10CheckEqualERNS_11TestResultsEPKcPcRKNS_11TestDetailsE
 7914      00
 7915              	.LEHE222:
 7916              	.L774:
 7917              	.LEHB223:
 7918 4955 E8000000 		call	_ZN8UnitTest11CurrentTest7DetailsEv
 7918      00
 7919 495a 488B30   		movq	(%rax), %rsi
 7920 495d 488D7C24 		leaq	96(%rsp), %rdi
 7920      60
 7921 4962 BAB40000 		movl	$180, %edx
 7921      00
 7922 4967 E8000000 		call	_ZN8UnitTest11TestDetailsC1ERKS0_i
 7922      00
 7923 496c C7442410 		movl	$10, 16(%rsp)
 7923      0A000000 
 7924 4974 E8000000 		call	_ZN8UnitTest11CurrentTest7ResultsEv
 7924      00
 7925 4979 488D9C24 		leaq	128(%rsp), %rbx
 7925      80000000 
 7926 4981 488B38   		movq	(%rax), %rdi
 7927 4984 488D4C24 		leaq	96(%rsp), %rcx
 7927      60
 7928 4989 488D7424 		leaq	16(%rsp), %rsi
 7928      10
 7929 498e 488D9310 		leaq	784(%rbx), %rdx
 7929      030000
 7930 4995 E8000000 		call	_ZN8UnitTest10CheckEqualIiiEEvRNS_11TestResultsERKT_RKT0_RKNS_11TestDetailsE
 7930      00
 7931              	.LEHE223:
 7932              	.L777:
 7933 499a 488DBC24 		leaq	128(%rsp), %rdi
 7933      80000000 
 7934 49a2 48C78424 		movq	$_ZTV17RecordingReporter+16, 128(%rsp)
 7934      80000000 
 7934      00000000 
 7935              	.LEHB224:
 7936 49ae E8000000 		call	_ZN8UnitTest12TestReporterD2Ev
 7936      00
 7937              	.LEHE224:
 7938 49b3 488B8424 		movq	2232(%rsp), %rax
 7938      B8080000 
 7939 49bb 64483304 		xorq	%fs:40, %rax
 7939      25280000 
 7939      00
 7940 49c4 7509     		jne	.L790
 7941 49c6 4881C4C0 		addq	$2240, %rsp
 7941      080000
 7942              		.cfi_remember_state
 7943              		.cfi_def_cfa_offset 16
 7944 49cd 5B       		popq	%rbx
 7945              		.cfi_def_cfa_offset 8
 7946 49ce C3       		ret
 7947              	.L790:
 7948              		.cfi_restore_state
 7949 49cf E8000000 		call	__stack_chk_fail
 7949      00
 7950              	.L786:
 7951 49d4 4889C7   		movq	%rax, %rdi
 7952 49d7 E8000000 		call	__cxa_begin_catch
 7952      00
 7953              	.LEHB225:
 7954 49dc E8000000 		call	_ZN8UnitTest11CurrentTest7DetailsEv
 7954      00
 7955 49e1 488B30   		movq	(%rax), %rsi
 7956 49e4 488D7C24 		leaq	96(%rsp), %rdi
 7956      60
 7957 49e9 BAB40000 		movl	$180, %edx
 7957      00
 7958 49ee E8000000 		call	_ZN8UnitTest11TestDetailsC1ERKS0_i
 7958      00
 7959 49f3 E8000000 		call	_ZN8UnitTest11CurrentTest7ResultsEv
 7959      00
 7960 49f8 488B38   		movq	(%rax), %rdi
 7961 49fb 488D7424 		leaq	96(%rsp), %rsi
 7961      60
 7962 4a00 BA000000 		movl	$.LC78, %edx
 7962      00
 7963 4a05 E8000000 		call	_ZN8UnitTest11TestResults13OnTestFailureERKNS_11TestDetailsEPKc
 7963      00
 7964              	.LEHE225:
 7965              	.LEHB226:
 7966 4a0a E8000000 		call	__cxa_end_catch
 7966      00
 7967              	.LEHE226:
 7968 4a0f EB89     		jmp	.L777
 7969              	.L784:
 7970 4a11 4889C7   		movq	%rax, %rdi
 7971              		.p2align 4,,5
 7972 4a14 E8000000 		call	__cxa_begin_catch
 7972      00
 7973              		.p2align 4,,5
 7974              	.LEHB227:
 7975 4a19 E8000000 		call	_ZN8UnitTest11CurrentTest7DetailsEv
 7975      00
 7976 4a1e 488B30   		movq	(%rax), %rsi
 7977 4a21 488D7C24 		leaq	96(%rsp), %rdi
 7977      60
 7978 4a26 BAB30000 		movl	$179, %edx
 7978      00
 7979 4a2b E8000000 		call	_ZN8UnitTest11TestDetailsC1ERKS0_i
 7979      00
 7980 4a30 E8000000 		call	_ZN8UnitTest11CurrentTest7ResultsEv
 7980      00
 7981 4a35 488B38   		movq	(%rax), %rdi
 7982 4a38 488D7424 		leaq	96(%rsp), %rsi
 7982      60
 7983 4a3d BA000000 		movl	$.LC77, %edx
 7983      00
 7984 4a42 E8000000 		call	_ZN8UnitTest11TestResults13OnTestFailureERKNS_11TestDetailsEPKc
 7984      00
 7985              	.LEHE227:
 7986              	.LEHB228:
 7987 4a47 E8000000 		call	__cxa_end_catch
 7987      00
 7988              	.LEHE228:
 7989 4a4c E904FFFF 		jmp	.L774
 7989      FF
 7990              	.L780:
 7991 4a51 4889C7   		movq	%rax, %rdi
 7992              		.p2align 4,,5
 7993 4a54 E8000000 		call	__cxa_begin_catch
 7993      00
 7994              		.p2align 4,,5
 7995              	.LEHB229:
 7996 4a59 E8000000 		call	_ZN8UnitTest11CurrentTest7DetailsEv
 7996      00
 7997 4a5e 488B30   		movq	(%rax), %rsi
 7998 4a61 488D7C24 		leaq	96(%rsp), %rdi
 7998      60
 7999 4a66 BAB10000 		movl	$177, %edx
 7999      00
 8000 4a6b E8000000 		call	_ZN8UnitTest11TestDetailsC1ERKS0_i
 8000      00
 8001 4a70 E8000000 		call	_ZN8UnitTest11CurrentTest7ResultsEv
 8001      00
 8002 4a75 488B38   		movq	(%rax), %rdi
 8003 4a78 488D7424 		leaq	96(%rsp), %rsi
 8003      60
 8004 4a7d BA000000 		movl	$.LC55, %edx
 8004      00
 8005 4a82 E8000000 		call	_ZN8UnitTest11TestResults13OnTestFailureERKNS_11TestDetailsEPKc
 8005      00
 8006              	.LEHE229:
 8007              	.LEHB230:
 8008 4a87 E8000000 		call	__cxa_end_catch
 8008      00
 8009              	.LEHE230:
 8010 4a8c E94AFEFF 		jmp	.L768
 8010      FF
 8011              	.L782:
 8012 4a91 4889C7   		movq	%rax, %rdi
 8013              		.p2align 4,,5
 8014 4a94 E8000000 		call	__cxa_begin_catch
 8014      00
 8015              		.p2align 4,,5
 8016              	.LEHB231:
 8017 4a99 E8000000 		call	_ZN8UnitTest11CurrentTest7DetailsEv
 8017      00
 8018 4a9e 488B30   		movq	(%rax), %rsi
 8019 4aa1 488D7C24 		leaq	96(%rsp), %rdi
 8019      60
 8020 4aa6 BAB20000 		movl	$178, %edx
 8020      00
 8021 4aab E8000000 		call	_ZN8UnitTest11TestDetailsC1ERKS0_i
 8021      00
 8022 4ab0 E8000000 		call	_ZN8UnitTest11CurrentTest7ResultsEv
 8022      00
 8023 4ab5 488B38   		movq	(%rax), %rdi
 8024 4ab8 488D7424 		leaq	96(%rsp), %rsi
 8024      60
 8025 4abd BA000000 		movl	$.LC56, %edx
 8025      00
 8026 4ac2 E8000000 		call	_ZN8UnitTest11TestResults13OnTestFailureERKNS_11TestDetailsEPKc
 8026      00
 8027              	.LEHE231:
 8028              	.LEHB232:
 8029 4ac7 E8000000 		call	__cxa_end_catch
 8029      00
 8030              	.LEHE232:
 8031 4acc E947FEFF 		jmp	.L771
 8031      FF
 8032              	.L779:
 8033 4ad1 4889C3   		movq	%rax, %rbx
 8034              	.L766:
 8035 4ad4 488DBC24 		leaq	128(%rsp), %rdi
 8035      80000000 
 8036 4adc 48C78424 		movq	$_ZTV17RecordingReporter+16, 128(%rsp)
 8036      80000000 
 8036      00000000 
 8037 4ae8 E8000000 		call	_ZN8UnitTest12TestReporterD2Ev
 8037      00
 8038 4aed 4889DF   		movq	%rbx, %rdi
 8039              	.LEHB233:
 8040 4af0 E8000000 		call	_Unwind_Resume
 8040      00
 8041              	.LEHE233:
 8042              	.L787:
 8043 4af5 4889C3   		movq	%rax, %rbx
 8044 4af8 E8000000 		call	__cxa_end_catch
 8044      00
 8045 4afd EBD5     		jmp	.L766
 8046              	.L781:
 8047 4aff 4889C3   		movq	%rax, %rbx
 8048 4b02 E8000000 		call	__cxa_end_catch
 8048      00
 8049              		.p2align 4,,5
 8050 4b07 EBCB     		jmp	.L766
 8051              	.L785:
 8052 4b09 4889C3   		movq	%rax, %rbx
 8053 4b0c E8000000 		call	__cxa_end_catch
 8053      00
 8054              		.p2align 4,,5
 8055 4b11 EBC1     		jmp	.L766
 8056              	.L783:
 8057 4b13 4889C3   		movq	%rax, %rbx
 8058 4b16 E8000000 		call	__cxa_end_catch
 8058      00
 8059 4b1b 0F1F4400 		.p2align 4,,5
 8059      00
 8060 4b20 EBB2     		jmp	.L766
 8061              		.cfi_endproc
 8062              	.LFE1152:
 8063              		.section	.gcc_except_table
 8064 05dd 000000   		.align 4
 8065              	.LLSDA1152:
 8066 05e0 FF       		.byte	0xff
 8067 05e1 03       		.byte	0x3
 8068 05e2 61       		.uleb128 .LLSDATT1152-.LLSDATTD1152
 8069              	.LLSDATTD1152:
 8070 05e3 01       		.byte	0x1
 8071 05e4 58       		.uleb128 .LLSDACSE1152-.LLSDACSB1152
 8072              	.LLSDACSB1152:
 8073 05e5 D701     		.uleb128 .LEHB219-.LFB1152
 8074 05e7 57       		.uleb128 .LEHE219-.LEHB219
 8075 05e8 E106     		.uleb128 .L779-.LFB1152
 8076 05ea 00       		.uleb128 0
 8077 05eb AE02     		.uleb128 .LEHB220-.LFB1152
 8078 05ed 3D       		.uleb128 .LEHE220-.LEHB220
 8079 05ee E105     		.uleb128 .L780-.LFB1152
 8080 05f0 01       		.uleb128 0x1
 8081 05f1 EB02     		.uleb128 .LEHB221-.LFB1152
 8082 05f3 3D       		.uleb128 .LEHE221-.LEHB221
 8083 05f4 A106     		.uleb128 .L782-.LFB1152
 8084 05f6 01       		.uleb128 0x1
 8085 05f7 A803     		.uleb128 .LEHB222-.LFB1152
 8086 05f9 3D       		.uleb128 .LEHE222-.LEHB222
 8087 05fa A105     		.uleb128 .L784-.LFB1152
 8088 05fc 01       		.uleb128 0x1
 8089 05fd E503     		.uleb128 .LEHB223-.LFB1152
 8090 05ff 45       		.uleb128 .LEHE223-.LEHB223
 8091 0600 E404     		.uleb128 .L786-.LFB1152
 8092 0602 01       		.uleb128 0x1
 8093 0603 BE04     		.uleb128 .LEHB224-.LFB1152
 8094 0605 05       		.uleb128 .LEHE224-.LEHB224
 8095 0606 00       		.uleb128 0
 8096 0607 00       		.uleb128 0
 8097 0608 EC04     		.uleb128 .LEHB225-.LFB1152
 8098 060a 2E       		.uleb128 .LEHE225-.LEHB225
 8099 060b 8507     		.uleb128 .L787-.LFB1152
 8100 060d 00       		.uleb128 0
 8101 060e 9A05     		.uleb128 .LEHB226-.LFB1152
 8102 0610 05       		.uleb128 .LEHE226-.LEHB226
 8103 0611 E106     		.uleb128 .L779-.LFB1152
 8104 0613 00       		.uleb128 0
 8105 0614 A905     		.uleb128 .LEHB227-.LFB1152
 8106 0616 2E       		.uleb128 .LEHE227-.LEHB227
 8107 0617 9907     		.uleb128 .L785-.LFB1152
 8108 0619 00       		.uleb128 0
 8109 061a D705     		.uleb128 .LEHB228-.LFB1152
 8110 061c 05       		.uleb128 .LEHE228-.LEHB228
 8111 061d E106     		.uleb128 .L779-.LFB1152
 8112 061f 00       		.uleb128 0
 8113 0620 E905     		.uleb128 .LEHB229-.LFB1152
 8114 0622 2E       		.uleb128 .LEHE229-.LEHB229
 8115 0623 8F07     		.uleb128 .L781-.LFB1152
 8116 0625 00       		.uleb128 0
 8117 0626 9706     		.uleb128 .LEHB230-.LFB1152
 8118 0628 05       		.uleb128 .LEHE230-.LEHB230
 8119 0629 E106     		.uleb128 .L779-.LFB1152
 8120 062b 00       		.uleb128 0
 8121 062c A906     		.uleb128 .LEHB231-.LFB1152
 8122 062e 2E       		.uleb128 .LEHE231-.LEHB231
 8123 062f A307     		.uleb128 .L783-.LFB1152
 8124 0631 00       		.uleb128 0
 8125 0632 D706     		.uleb128 .LEHB232-.LFB1152
 8126 0634 05       		.uleb128 .LEHE232-.LEHB232
 8127 0635 E106     		.uleb128 .L779-.LFB1152
 8128 0637 00       		.uleb128 0
 8129 0638 8007     		.uleb128 .LEHB233-.LFB1152
 8130 063a 05       		.uleb128 .LEHE233-.LEHB233
 8131 063b 00       		.uleb128 0
 8132 063c 00       		.uleb128 0
 8133              	.LLSDACSE1152:
 8134 063d 01       		.byte	0x1
 8135 063e 00       		.byte	0
 8136 063f 00       		.align 4
 8137 0640 00000000 		.long	0
 8138              	
 8139              	.LLSDATT1152:
 8140              		.text
 8142              		.section	.rodata.str1.1
 8143              	.LC79:
 8144 00e6 54657374 		.string	"TestChecks.cpp"
 8144      43686563 
 8144      6B732E63 
 8144      707000
 8145              	.LC80:
 8146 00f5 44656661 		.string	"DefaultSuite"
 8146      756C7453 
 8146      75697465 
 8146      00
 8147              	.LC81:
 8148 0102 43686563 		.string	"CheckEqualWithUnsignedLong"
 8148      6B457175 
 8148      616C5769 
 8148      7468556E 
 8148      7369676E 
 8149              		.section	.rodata.str1.8
 8150              		.align 8
 8151              	.LC82:
 8152 0750 43686563 		.string	"CheckEqualsWithStringsFailsOnDifferentStrings"
 8152      6B457175 
 8152      616C7357 
 8152      69746853 
 8152      7472696E 
 8153 077e 0000     		.align 8
 8154              	.LC83:
 8155 0780 43686563 		.string	"CheckEqualsWithStringsWorksOnContentsNonConstNonConst"
 8155      6B457175 
 8155      616C7357 
 8155      69746853 
 8155      7472696E 
 8156 07b6 0000     		.align 8
 8157              	.LC84:
 8158 07b8 43686563 		.string	"CheckEqualsWithStringsWorksOnContentsConstConst"
 8158      6B457175 
 8158      616C7357 
 8158      69746853 
 8158      7472696E 
 8159              		.align 8
 8160              	.LC85:
 8161 07e8 43686563 		.string	"CheckEqualsWithStringsWorksOnContentsNonConstConst"
 8161      6B457175 
 8161      616C7357 
 8161      69746853 
 8161      7472696E 
 8162 081b 00000000 		.align 8
 8162      00
 8163              	.LC86:
 8164 0820 43686563 		.string	"CheckEqualsWithStringsWorksOnContentsConstNonConst"
 8164      6B457175 
 8164      616C7357 
 8164      69746853 
 8164      7472696E 
 8165 0853 00000000 		.align 8
 8165      00
 8166              	.LC87:
 8167 0858 43686563 		.string	"CheckEqualsWithStringsWorksOnContentsWithALiteral"
 8167      6B457175 
 8167      616C7357 
 8167      69746853 
 8167      7472696E 
 8168 088a 00000000 		.align 8
 8168      0000
 8169              	.LC88:
 8170 0890 43686563 		.string	"CheckEqualFailureIncludesCheckExpectedAndActual"
 8170      6B457175 
 8170      616C4661 
 8170      696C7572 
 8170      65496E63 
 8171              		.align 8
 8172              	.LC89:
 8173 08c0 43686563 		.string	"CheckEqualFailureIncludesDetails"
 8173      6B457175 
 8173      616C4661 
 8173      696C7572 
 8173      65496E63 
 8174              		.section	.rodata.str1.1
 8175              	.LC90:
 8176 011d 43686563 		.string	"CheckCloseTrue"
 8176      6B436C6F 
 8176      73655472 
 8176      756500
 8177              	.LC91:
 8178 012c 43686563 		.string	"CheckCloseFalse"
 8178      6B436C6F 
 8178      73654661 
 8178      6C736500 
 8179              		.section	.rodata.str1.8
 8180 08e1 00000000 		.align 8
 8180      000000
 8181              	.LC92:
 8182 08e8 43686563 		.string	"CheckCloseWithZeroEpsilonWorksForSameNumber"
 8182      6B436C6F 
 8182      73655769 
 8182      74685A65 
 8182      726F4570 
 8183              		.section	.rodata.str1.1
 8184              	.LC93:
 8185 013c 43686563 		.string	"CheckCloseWithNaNFails"
 8185      6B436C6F 
 8185      73655769 
 8185      74684E61 
 8185      4E466169 
 8186              		.section	.rodata.str1.8
 8187 0914 00000000 		.align 8
 8188              	.LC94:
 8189 0918 43686563 		.string	"CheckCloseWithNaNAgainstItselfFails"
 8189      6B436C6F 
 8189      73655769 
 8189      74684E61 
 8189      4E416761 
 8190 093c 00000000 		.align 8
 8191              	.LC95:
 8192 0940 43686563 		.string	"CheckCloseFailureIncludesCheckExpectedAndActual"
 8192      6B436C6F 
 8192      73654661 
 8192      696C7572 
 8192      65496E63 
 8193              		.align 8
 8194              	.LC96:
 8195 0970 43686563 		.string	"CheckCloseFailureIncludesTolerance"
 8195      6B436C6F 
 8195      73654661 
 8195      696C7572 
 8195      65496E63 
 8196 0993 00000000 		.align 8
 8196      00
 8197              	.LC97:
 8198 0998 43686563 		.string	"CheckCloseFailureIncludesDetails"
 8198      6B436C6F 
 8198      73654661 
 8198      696C7572 
 8198      65496E63 
 8199              		.section	.rodata.str1.1
 8200              	.LC98:
 8201 0153 43686563 		.string	"CheckArrayEqualTrue"
 8201      6B417272 
 8201      61794571 
 8201      75616C54 
 8201      72756500 
 8202              	.LC99:
 8203 0167 43686563 		.string	"CheckArrayEqualFalse"
 8203      6B417272 
 8203      61794571 
 8203      75616C46 
 8203      616C7365 
 8204              	.LC100:
 8205 017c 43686563 		.string	"CheckArrayCloseTrue"
 8205      6B417272 
 8205      6179436C 
 8205      6F736554 
 8205      72756500 
 8206              	.LC101:
 8207 0190 43686563 		.string	"CheckArrayCloseFalse"
 8207      6B417272 
 8207      6179436C 
 8207      6F736546 
 8207      616C7365 
 8208              		.section	.rodata.str1.8
 8209 09b9 00000000 		.align 8
 8209      000000
 8210              	.LC102:
 8211 09c0 43686563 		.string	"CheckArrayCloseFailureIncludesDetails"
 8211      6B417272 
 8211      6179436C 
 8211      6F736546 
 8211      61696C75 
 8212              		.section	.rodata.str1.1
 8213              	.LC103:
 8214 01a5 43686563 		.string	"CheckArray2DCloseTrue"
 8214      6B417272 
 8214      61793244 
 8214      436C6F73 
 8214      65547275 
 8215              	.LC104:
 8216 01bb 43686563 		.string	"CheckArray2DCloseFalse"
 8216      6B417272 
 8216      61793244 
 8216      436C6F73 
 8216      6546616C 
 8217              	.LC105:
 8218 01d2 43686563 		.string	"CheckCloseWithDoublesSucceeds"
 8218      6B436C6F 
 8218      73655769 
 8218      7468446F 
 8218      75626C65 
 8219              		.section	.rodata.str1.8
 8220 09e6 0000     		.align 8
 8221              	.LC106:
 8222 09e8 43686563 		.string	"CheckArray2DCloseFailureIncludesDetails"
 8222      6B417272 
 8222      61793244 
 8222      436C6F73 
 8222      65466169 
 8223              		.section	.text.startup,"ax",@progbits
 8224              		.p2align 4,,15
 8226              	_GLOBAL__sub_I_TestChecks.cpp:
 8227              	.LFB1395:
 8228              		.cfi_startproc
 8229 0000 4883EC08 		subq	$8, %rsp
 8230              		.cfi_def_cfa_offset 16
 8231 0004 41B80A00 		movl	$10, %r8d
 8231      0000
 8232 000a B9000000 		movl	$.LC79, %ecx
 8232      00
 8233 000f BA000000 		movl	$.LC80, %edx
 8233      00
 8234 0014 BE000000 		movl	$.LC81, %esi
 8234      00
 8235 0019 BF000000 		movl	$_ZN12_GLOBAL__N_138testCheckEqualWithUnsignedLongInstanceE, %edi
 8235      00
 8236 001e E8000000 		call	_ZN8UnitTest4TestC2EPKcS2_S2_i
 8236      00
 8237 0023 BA000000 		movl	$__dso_handle, %edx
 8237      00
 8238 0028 BE000000 		movl	$_ZN12_GLOBAL__N_138testCheckEqualWithUnsignedLongInstanceE, %esi
 8238      00
 8239 002d BF000000 		movl	$_ZN12_GLOBAL__N_130TestCheckEqualWithUnsignedLongD1Ev, %edi
 8239      00
 8240 0032 48C70500 		movq	$_ZTVN12_GLOBAL__N_130TestCheckEqualWithUnsignedLongE+16, _ZN12_GLOBAL__N_138testCheckEqualWi
 8240      00000000 
 8240      000000
 8241 003d E8000000 		call	__cxa_atexit
 8241      00
 8242 0042 E8000000 		call	_ZN8UnitTest4Test11GetTestListEv
 8242      00
 8243 0047 BA000000 		movl	$_ZN12_GLOBAL__N_138testCheckEqualWithUnsignedLongInstanceE, %edx
 8243      00
 8244 004c 4889C6   		movq	%rax, %rsi
 8245 004f BF000000 		movl	$_ZN12_GLOBAL__N_131adderCheckEqualWithUnsignedLongE, %edi
 8245      00
 8246 0054 E8000000 		call	_ZN8UnitTest9ListAdderC1ERNS_8TestListEPNS_4TestE
 8246      00
 8247 0059 41B81100 		movl	$17, %r8d
 8247      0000
 8248 005f B9000000 		movl	$.LC79, %ecx
 8248      00
 8249 0064 BA000000 		movl	$.LC80, %edx
 8249      00
 8250 0069 BE000000 		movl	$.LC82, %esi
 8250      00
 8251 006e BF000000 		movl	$_ZN12_GLOBAL__N_157testCheckEqualsWithStringsFailsOnDifferentStringsInstanceE, %edi
 8251      00
 8252 0073 E8000000 		call	_ZN8UnitTest4TestC2EPKcS2_S2_i
 8252      00
 8253 0078 BA000000 		movl	$__dso_handle, %edx
 8253      00
 8254 007d BE000000 		movl	$_ZN12_GLOBAL__N_157testCheckEqualsWithStringsFailsOnDifferentStringsInstanceE, %esi
 8254      00
 8255 0082 BF000000 		movl	$_ZN12_GLOBAL__N_149TestCheckEqualsWithStringsFailsOnDifferentStringsD1Ev, %edi
 8255      00
 8256 0087 48C70500 		movq	$_ZTVN12_GLOBAL__N_149TestCheckEqualsWithStringsFailsOnDifferentStringsE+16, _ZN12_GLOBAL__N_
 8256      00000000 
 8256      000000
 8257 0092 E8000000 		call	__cxa_atexit
 8257      00
 8258 0097 E8000000 		call	_ZN8UnitTest4Test11GetTestListEv
 8258      00
 8259 009c BA000000 		movl	$_ZN12_GLOBAL__N_157testCheckEqualsWithStringsFailsOnDifferentStringsInstanceE, %edx
 8259      00
 8260 00a1 4889C6   		movq	%rax, %rsi
 8261 00a4 BF000000 		movl	$_ZN12_GLOBAL__N_150adderCheckEqualsWithStringsFailsOnDifferentStringsE, %edi
 8261      00
 8262 00a9 E8000000 		call	_ZN8UnitTest9ListAdderC1ERNS_8TestListEPNS_4TestE
 8262      00
 8263 00ae 41B81D00 		movl	$29, %r8d
 8263      0000
 8264 00b4 B9000000 		movl	$.LC79, %ecx
 8264      00
 8265 00b9 BA000000 		movl	$.LC80, %edx
 8265      00
 8266 00be BE000000 		movl	$.LC83, %esi
 8266      00
 8267 00c3 BF000000 		movl	$_ZN12_GLOBAL__N_165testCheckEqualsWithStringsWorksOnContentsNonConstNonConstInstanceE, %edi
 8267      00
 8268 00c8 E8000000 		call	_ZN8UnitTest4TestC2EPKcS2_S2_i
 8268      00
 8269 00cd BA000000 		movl	$__dso_handle, %edx
 8269      00
 8270 00d2 BE000000 		movl	$_ZN12_GLOBAL__N_165testCheckEqualsWithStringsWorksOnContentsNonConstNonConstInstanceE, %esi
 8270      00
 8271 00d7 BF000000 		movl	$_ZN12_GLOBAL__N_157TestCheckEqualsWithStringsWorksOnContentsNonConstNonConstD1Ev, %edi
 8271      00
 8272 00dc 48C70500 		movq	$_ZTVN12_GLOBAL__N_157TestCheckEqualsWithStringsWorksOnContentsNonConstNonConstE+16, _ZN12_GL
 8272      00000000 
 8272      000000
 8273 00e7 E8000000 		call	__cxa_atexit
 8273      00
 8274 00ec E8000000 		call	_ZN8UnitTest4Test11GetTestListEv
 8274      00
 8275 00f1 BA000000 		movl	$_ZN12_GLOBAL__N_165testCheckEqualsWithStringsWorksOnContentsNonConstNonConstInstanceE, %edx
 8275      00
 8276 00f6 4889C6   		movq	%rax, %rsi
 8277 00f9 BF000000 		movl	$_ZN12_GLOBAL__N_158adderCheckEqualsWithStringsWorksOnContentsNonConstNonConstE, %edi
 8277      00
 8278 00fe E8000000 		call	_ZN8UnitTest9ListAdderC1ERNS_8TestListEPNS_4TestE
 8278      00
 8279 0103 41B82600 		movl	$38, %r8d
 8279      0000
 8280 0109 B9000000 		movl	$.LC79, %ecx
 8280      00
 8281 010e BA000000 		movl	$.LC80, %edx
 8281      00
 8282 0113 BE000000 		movl	$.LC84, %esi
 8282      00
 8283 0118 BF000000 		movl	$_ZN12_GLOBAL__N_159testCheckEqualsWithStringsWorksOnContentsConstConstInstanceE, %edi
 8283      00
 8284 011d E8000000 		call	_ZN8UnitTest4TestC2EPKcS2_S2_i
 8284      00
 8285 0122 BA000000 		movl	$__dso_handle, %edx
 8285      00
 8286 0127 BE000000 		movl	$_ZN12_GLOBAL__N_159testCheckEqualsWithStringsWorksOnContentsConstConstInstanceE, %esi
 8286      00
 8287 012c BF000000 		movl	$_ZN12_GLOBAL__N_151TestCheckEqualsWithStringsWorksOnContentsConstConstD1Ev, %edi
 8287      00
 8288 0131 48C70500 		movq	$_ZTVN12_GLOBAL__N_151TestCheckEqualsWithStringsWorksOnContentsConstConstE+16, _ZN12_GLOBAL__
 8288      00000000 
 8288      000000
 8289 013c E8000000 		call	__cxa_atexit
 8289      00
 8290 0141 E8000000 		call	_ZN8UnitTest4Test11GetTestListEv
 8290      00
 8291 0146 BA000000 		movl	$_ZN12_GLOBAL__N_159testCheckEqualsWithStringsWorksOnContentsConstConstInstanceE, %edx
 8291      00
 8292 014b 4889C6   		movq	%rax, %rsi
 8293 014e BF000000 		movl	$_ZN12_GLOBAL__N_152adderCheckEqualsWithStringsWorksOnContentsConstConstE, %edi
 8293      00
 8294 0153 E8000000 		call	_ZN8UnitTest9ListAdderC1ERNS_8TestListEPNS_4TestE
 8294      00
 8295 0158 41B82F00 		movl	$47, %r8d
 8295      0000
 8296 015e B9000000 		movl	$.LC79, %ecx
 8296      00
 8297 0163 BA000000 		movl	$.LC80, %edx
 8297      00
 8298 0168 BE000000 		movl	$.LC85, %esi
 8298      00
 8299 016d BF000000 		movl	$_ZN12_GLOBAL__N_162testCheckEqualsWithStringsWorksOnContentsNonConstConstInstanceE, %edi
 8299      00
 8300 0172 E8000000 		call	_ZN8UnitTest4TestC2EPKcS2_S2_i
 8300      00
 8301 0177 BA000000 		movl	$__dso_handle, %edx
 8301      00
 8302 017c BE000000 		movl	$_ZN12_GLOBAL__N_162testCheckEqualsWithStringsWorksOnContentsNonConstConstInstanceE, %esi
 8302      00
 8303 0181 BF000000 		movl	$_ZN12_GLOBAL__N_154TestCheckEqualsWithStringsWorksOnContentsNonConstConstD1Ev, %edi
 8303      00
 8304 0186 48C70500 		movq	$_ZTVN12_GLOBAL__N_154TestCheckEqualsWithStringsWorksOnContentsNonConstConstE+16, _ZN12_GLOBA
 8304      00000000 
 8304      000000
 8305 0191 E8000000 		call	__cxa_atexit
 8305      00
 8306 0196 E8000000 		call	_ZN8UnitTest4Test11GetTestListEv
 8306      00
 8307 019b BA000000 		movl	$_ZN12_GLOBAL__N_162testCheckEqualsWithStringsWorksOnContentsNonConstConstInstanceE, %edx
 8307      00
 8308 01a0 4889C6   		movq	%rax, %rsi
 8309 01a3 BF000000 		movl	$_ZN12_GLOBAL__N_155adderCheckEqualsWithStringsWorksOnContentsNonConstConstE, %edi
 8309      00
 8310 01a8 E8000000 		call	_ZN8UnitTest9ListAdderC1ERNS_8TestListEPNS_4TestE
 8310      00
 8311 01ad 41B83800 		movl	$56, %r8d
 8311      0000
 8312 01b3 B9000000 		movl	$.LC79, %ecx
 8312      00
 8313 01b8 BA000000 		movl	$.LC80, %edx
 8313      00
 8314 01bd BE000000 		movl	$.LC86, %esi
 8314      00
 8315 01c2 BF000000 		movl	$_ZN12_GLOBAL__N_162testCheckEqualsWithStringsWorksOnContentsConstNonConstInstanceE, %edi
 8315      00
 8316 01c7 E8000000 		call	_ZN8UnitTest4TestC2EPKcS2_S2_i
 8316      00
 8317 01cc BA000000 		movl	$__dso_handle, %edx
 8317      00
 8318 01d1 BE000000 		movl	$_ZN12_GLOBAL__N_162testCheckEqualsWithStringsWorksOnContentsConstNonConstInstanceE, %esi
 8318      00
 8319 01d6 BF000000 		movl	$_ZN12_GLOBAL__N_154TestCheckEqualsWithStringsWorksOnContentsConstNonConstD1Ev, %edi
 8319      00
 8320 01db 48C70500 		movq	$_ZTVN12_GLOBAL__N_154TestCheckEqualsWithStringsWorksOnContentsConstNonConstE+16, _ZN12_GLOBA
 8320      00000000 
 8320      000000
 8321 01e6 E8000000 		call	__cxa_atexit
 8321      00
 8322 01eb E8000000 		call	_ZN8UnitTest4Test11GetTestListEv
 8322      00
 8323 01f0 BA000000 		movl	$_ZN12_GLOBAL__N_162testCheckEqualsWithStringsWorksOnContentsConstNonConstInstanceE, %edx
 8323      00
 8324 01f5 4889C6   		movq	%rax, %rsi
 8325 01f8 BF000000 		movl	$_ZN12_GLOBAL__N_155adderCheckEqualsWithStringsWorksOnContentsConstNonConstE, %edi
 8325      00
 8326 01fd E8000000 		call	_ZN8UnitTest9ListAdderC1ERNS_8TestListEPNS_4TestE
 8326      00
 8327 0202 41B84100 		movl	$65, %r8d
 8327      0000
 8328 0208 B9000000 		movl	$.LC79, %ecx
 8328      00
 8329 020d BA000000 		movl	$.LC80, %edx
 8329      00
 8330 0212 BE000000 		movl	$.LC87, %esi
 8330      00
 8331 0217 BF000000 		movl	$_ZN12_GLOBAL__N_161testCheckEqualsWithStringsWorksOnContentsWithALiteralInstanceE, %edi
 8331      00
 8332 021c E8000000 		call	_ZN8UnitTest4TestC2EPKcS2_S2_i
 8332      00
 8333 0221 BA000000 		movl	$__dso_handle, %edx
 8333      00
 8334 0226 BE000000 		movl	$_ZN12_GLOBAL__N_161testCheckEqualsWithStringsWorksOnContentsWithALiteralInstanceE, %esi
 8334      00
 8335 022b BF000000 		movl	$_ZN12_GLOBAL__N_153TestCheckEqualsWithStringsWorksOnContentsWithALiteralD1Ev, %edi
 8335      00
 8336 0230 48C70500 		movq	$_ZTVN12_GLOBAL__N_153TestCheckEqualsWithStringsWorksOnContentsWithALiteralE+16, _ZN12_GLOBAL
 8336      00000000 
 8336      000000
 8337 023b E8000000 		call	__cxa_atexit
 8337      00
 8338 0240 E8000000 		call	_ZN8UnitTest4Test11GetTestListEv
 8338      00
 8339 0245 BA000000 		movl	$_ZN12_GLOBAL__N_161testCheckEqualsWithStringsWorksOnContentsWithALiteralInstanceE, %edx
 8339      00
 8340 024a 4889C6   		movq	%rax, %rsi
 8341 024d BF000000 		movl	$_ZN12_GLOBAL__N_154adderCheckEqualsWithStringsWorksOnContentsWithALiteralE, %edi
 8341      00
 8342 0252 E8000000 		call	_ZN8UnitTest9ListAdderC1ERNS_8TestListEPNS_4TestE
 8342      00
 8343 0257 41B84900 		movl	$73, %r8d
 8343      0000
 8344 025d B9000000 		movl	$.LC79, %ecx
 8344      00
 8345 0262 BA000000 		movl	$.LC80, %edx
 8345      00
 8346 0267 BE000000 		movl	$.LC88, %esi
 8346      00
 8347 026c BF000000 		movl	$_ZN12_GLOBAL__N_159testCheckEqualFailureIncludesCheckExpectedAndActualInstanceE, %edi
 8347      00
 8348 0271 E8000000 		call	_ZN8UnitTest4TestC2EPKcS2_S2_i
 8348      00
 8349 0276 BA000000 		movl	$__dso_handle, %edx
 8349      00
 8350 027b BE000000 		movl	$_ZN12_GLOBAL__N_159testCheckEqualFailureIncludesCheckExpectedAndActualInstanceE, %esi
 8350      00
 8351 0280 BF000000 		movl	$_ZN12_GLOBAL__N_151TestCheckEqualFailureIncludesCheckExpectedAndActualD1Ev, %edi
 8351      00
 8352 0285 48C70500 		movq	$_ZTVN12_GLOBAL__N_151TestCheckEqualFailureIncludesCheckExpectedAndActualE+16, _ZN12_GLOBAL__
 8352      00000000 
 8352      000000
 8353 0290 E8000000 		call	__cxa_atexit
 8353      00
 8354 0295 E8000000 		call	_ZN8UnitTest4Test11GetTestListEv
 8354      00
 8355 029a BA000000 		movl	$_ZN12_GLOBAL__N_159testCheckEqualFailureIncludesCheckExpectedAndActualInstanceE, %edx
 8355      00
 8356 029f 4889C6   		movq	%rax, %rsi
 8357 02a2 BF000000 		movl	$_ZN12_GLOBAL__N_152adderCheckEqualFailureIncludesCheckExpectedAndActualE, %edi
 8357      00
 8358 02a7 E8000000 		call	_ZN8UnitTest9ListAdderC1ERNS_8TestListEPNS_4TestE
 8358      00
 8359 02ac 41B85500 		movl	$85, %r8d
 8359      0000
 8360 02b2 B9000000 		movl	$.LC79, %ecx
 8360      00
 8361 02b7 BA000000 		movl	$.LC80, %edx
 8361      00
 8362 02bc BE000000 		movl	$.LC89, %esi
 8362      00
 8363 02c1 BF000000 		movl	$_ZN12_GLOBAL__N_144testCheckEqualFailureIncludesDetailsInstanceE, %edi
 8363      00
 8364 02c6 E8000000 		call	_ZN8UnitTest4TestC2EPKcS2_S2_i
 8364      00
 8365 02cb BA000000 		movl	$__dso_handle, %edx
 8365      00
 8366 02d0 BE000000 		movl	$_ZN12_GLOBAL__N_144testCheckEqualFailureIncludesDetailsInstanceE, %esi
 8366      00
 8367 02d5 BF000000 		movl	$_ZN12_GLOBAL__N_136TestCheckEqualFailureIncludesDetailsD1Ev, %edi
 8367      00
 8368 02da 48C70500 		movq	$_ZTVN12_GLOBAL__N_136TestCheckEqualFailureIncludesDetailsE+16, _ZN12_GLOBAL__N_144testCheckE
 8368      00000000 
 8368      000000
 8369 02e5 E8000000 		call	__cxa_atexit
 8369      00
 8370 02ea E8000000 		call	_ZN8UnitTest4Test11GetTestListEv
 8370      00
 8371 02ef BA000000 		movl	$_ZN12_GLOBAL__N_144testCheckEqualFailureIncludesDetailsInstanceE, %edx
 8371      00
 8372 02f4 4889C6   		movq	%rax, %rsi
 8373 02f7 BF000000 		movl	$_ZN12_GLOBAL__N_137adderCheckEqualFailureIncludesDetailsE, %edi
 8373      00
 8374 02fc E8000000 		call	_ZN8UnitTest9ListAdderC1ERNS_8TestListEPNS_4TestE
 8374      00
 8375 0301 41B86300 		movl	$99, %r8d
 8375      0000
 8376 0307 B9000000 		movl	$.LC79, %ecx
 8376      00
 8377 030c BA000000 		movl	$.LC80, %edx
 8377      00
 8378 0311 BE000000 		movl	$.LC90, %esi
 8378      00
 8379 0316 BF000000 		movl	$_ZN12_GLOBAL__N_126testCheckCloseTrueInstanceE, %edi
 8379      00
 8380 031b E8000000 		call	_ZN8UnitTest4TestC2EPKcS2_S2_i
 8380      00
 8381 0320 BA000000 		movl	$__dso_handle, %edx
 8381      00
 8382 0325 BE000000 		movl	$_ZN12_GLOBAL__N_126testCheckCloseTrueInstanceE, %esi
 8382      00
 8383 032a BF000000 		movl	$_ZN12_GLOBAL__N_118TestCheckCloseTrueD1Ev, %edi
 8383      00
 8384 032f 48C70500 		movq	$_ZTVN12_GLOBAL__N_118TestCheckCloseTrueE+16, _ZN12_GLOBAL__N_126testCheckCloseTrueInstanceE(
 8384      00000000 
 8384      000000
 8385 033a E8000000 		call	__cxa_atexit
 8385      00
 8386 033f E8000000 		call	_ZN8UnitTest4Test11GetTestListEv
 8386      00
 8387 0344 BA000000 		movl	$_ZN12_GLOBAL__N_126testCheckCloseTrueInstanceE, %edx
 8387      00
 8388 0349 4889C6   		movq	%rax, %rsi
 8389 034c BF000000 		movl	$_ZN12_GLOBAL__N_119adderCheckCloseTrueE, %edi
 8389      00
 8390 0351 E8000000 		call	_ZN8UnitTest9ListAdderC1ERNS_8TestListEPNS_4TestE
 8390      00
 8391 0356 41B86A00 		movl	$106, %r8d
 8391      0000
 8392 035c B9000000 		movl	$.LC79, %ecx
 8392      00
 8393 0361 BA000000 		movl	$.LC80, %edx
 8393      00
 8394 0366 BE000000 		movl	$.LC91, %esi
 8394      00
 8395 036b BF000000 		movl	$_ZN12_GLOBAL__N_127testCheckCloseFalseInstanceE, %edi
 8395      00
 8396 0370 E8000000 		call	_ZN8UnitTest4TestC2EPKcS2_S2_i
 8396      00
 8397 0375 BA000000 		movl	$__dso_handle, %edx
 8397      00
 8398 037a BE000000 		movl	$_ZN12_GLOBAL__N_127testCheckCloseFalseInstanceE, %esi
 8398      00
 8399 037f BF000000 		movl	$_ZN12_GLOBAL__N_119TestCheckCloseFalseD1Ev, %edi
 8399      00
 8400 0384 48C70500 		movq	$_ZTVN12_GLOBAL__N_119TestCheckCloseFalseE+16, _ZN12_GLOBAL__N_127testCheckCloseFalseInstance
 8400      00000000 
 8400      000000
 8401 038f E8000000 		call	__cxa_atexit
 8401      00
 8402 0394 E8000000 		call	_ZN8UnitTest4Test11GetTestListEv
 8402      00
 8403 0399 BA000000 		movl	$_ZN12_GLOBAL__N_127testCheckCloseFalseInstanceE, %edx
 8403      00
 8404 039e 4889C6   		movq	%rax, %rsi
 8405 03a1 BF000000 		movl	$_ZN12_GLOBAL__N_120adderCheckCloseFalseE, %edi
 8405      00
 8406 03a6 E8000000 		call	_ZN8UnitTest9ListAdderC1ERNS_8TestListEPNS_4TestE
 8406      00
 8407 03ab 41B87100 		movl	$113, %r8d
 8407      0000
 8408 03b1 B9000000 		movl	$.LC79, %ecx
 8408      00
 8409 03b6 BA000000 		movl	$.LC80, %edx
 8409      00
 8410 03bb BE000000 		movl	$.LC92, %esi
 8410      00
 8411 03c0 BF000000 		movl	$_ZN12_GLOBAL__N_155testCheckCloseWithZeroEpsilonWorksForSameNumberInstanceE, %edi
 8411      00
 8412 03c5 E8000000 		call	_ZN8UnitTest4TestC2EPKcS2_S2_i
 8412      00
 8413 03ca BA000000 		movl	$__dso_handle, %edx
 8413      00
 8414 03cf BE000000 		movl	$_ZN12_GLOBAL__N_155testCheckCloseWithZeroEpsilonWorksForSameNumberInstanceE, %esi
 8414      00
 8415 03d4 BF000000 		movl	$_ZN12_GLOBAL__N_147TestCheckCloseWithZeroEpsilonWorksForSameNumberD1Ev, %edi
 8415      00
 8416 03d9 48C70500 		movq	$_ZTVN12_GLOBAL__N_147TestCheckCloseWithZeroEpsilonWorksForSameNumberE+16, _ZN12_GLOBAL__N_15
 8416      00000000 
 8416      000000
 8417 03e4 E8000000 		call	__cxa_atexit
 8417      00
 8418 03e9 E8000000 		call	_ZN8UnitTest4Test11GetTestListEv
 8418      00
 8419 03ee BA000000 		movl	$_ZN12_GLOBAL__N_155testCheckCloseWithZeroEpsilonWorksForSameNumberInstanceE, %edx
 8419      00
 8420 03f3 4889C6   		movq	%rax, %rsi
 8421 03f6 BF000000 		movl	$_ZN12_GLOBAL__N_148adderCheckCloseWithZeroEpsilonWorksForSameNumberE, %edi
 8421      00
 8422 03fb E8000000 		call	_ZN8UnitTest9ListAdderC1ERNS_8TestListEPNS_4TestE
 8422      00
 8423 0400 41B87800 		movl	$120, %r8d
 8423      0000
 8424 0406 B9000000 		movl	$.LC79, %ecx
 8424      00
 8425 040b BA000000 		movl	$.LC80, %edx
 8425      00
 8426 0410 BE000000 		movl	$.LC93, %esi
 8426      00
 8427 0415 BF000000 		movl	$_ZN12_GLOBAL__N_134testCheckCloseWithNaNFailsInstanceE, %edi
 8427      00
 8428 041a E8000000 		call	_ZN8UnitTest4TestC2EPKcS2_S2_i
 8428      00
 8429 041f BA000000 		movl	$__dso_handle, %edx
 8429      00
 8430 0424 BE000000 		movl	$_ZN12_GLOBAL__N_134testCheckCloseWithNaNFailsInstanceE, %esi
 8430      00
 8431 0429 BF000000 		movl	$_ZN12_GLOBAL__N_126TestCheckCloseWithNaNFailsD1Ev, %edi
 8431      00
 8432 042e 48C70500 		movq	$_ZTVN12_GLOBAL__N_126TestCheckCloseWithNaNFailsE+16, _ZN12_GLOBAL__N_134testCheckCloseWithNa
 8432      00000000 
 8432      000000
 8433 0439 E8000000 		call	__cxa_atexit
 8433      00
 8434 043e E8000000 		call	_ZN8UnitTest4Test11GetTestListEv
 8434      00
 8435 0443 BA000000 		movl	$_ZN12_GLOBAL__N_134testCheckCloseWithNaNFailsInstanceE, %edx
 8435      00
 8436 0448 4889C6   		movq	%rax, %rsi
 8437 044b BF000000 		movl	$_ZN12_GLOBAL__N_127adderCheckCloseWithNaNFailsE, %edi
 8437      00
 8438 0450 E8000000 		call	_ZN8UnitTest9ListAdderC1ERNS_8TestListEPNS_4TestE
 8438      00
 8439 0455 41B88500 		movl	$133, %r8d
 8439      0000
 8440 045b B9000000 		movl	$.LC79, %ecx
 8440      00
 8441 0460 BA000000 		movl	$.LC80, %edx
 8441      00
 8442 0465 BE000000 		movl	$.LC94, %esi
 8442      00
 8443 046a BF000000 		movl	$_ZN12_GLOBAL__N_147testCheckCloseWithNaNAgainstItselfFailsInstanceE, %edi
 8443      00
 8444 046f E8000000 		call	_ZN8UnitTest4TestC2EPKcS2_S2_i
 8444      00
 8445 0474 BA000000 		movl	$__dso_handle, %edx
 8445      00
 8446 0479 BE000000 		movl	$_ZN12_GLOBAL__N_147testCheckCloseWithNaNAgainstItselfFailsInstanceE, %esi
 8446      00
 8447 047e BF000000 		movl	$_ZN12_GLOBAL__N_139TestCheckCloseWithNaNAgainstItselfFailsD1Ev, %edi
 8447      00
 8448 0483 48C70500 		movq	$_ZTVN12_GLOBAL__N_139TestCheckCloseWithNaNAgainstItselfFailsE+16, _ZN12_GLOBAL__N_147testChe
 8448      00000000 
 8448      000000
 8449 048e E8000000 		call	__cxa_atexit
 8449      00
 8450 0493 E8000000 		call	_ZN8UnitTest4Test11GetTestListEv
 8450      00
 8451 0498 BA000000 		movl	$_ZN12_GLOBAL__N_147testCheckCloseWithNaNAgainstItselfFailsInstanceE, %edx
 8451      00
 8452 049d 4889C6   		movq	%rax, %rsi
 8453 04a0 BF000000 		movl	$_ZN12_GLOBAL__N_140adderCheckCloseWithNaNAgainstItselfFailsE, %edi
 8453      00
 8454 04a5 E8000000 		call	_ZN8UnitTest9ListAdderC1ERNS_8TestListEPNS_4TestE
 8454      00
 8455 04aa 41B89200 		movl	$146, %r8d
 8455      0000
 8456 04b0 B9000000 		movl	$.LC79, %ecx
 8456      00
 8457 04b5 BA000000 		movl	$.LC80, %edx
 8457      00
 8458 04ba BE000000 		movl	$.LC95, %esi
 8458      00
 8459 04bf BF000000 		movl	$_ZN12_GLOBAL__N_159testCheckCloseFailureIncludesCheckExpectedAndActualInstanceE, %edi
 8459      00
 8460 04c4 E8000000 		call	_ZN8UnitTest4TestC2EPKcS2_S2_i
 8460      00
 8461 04c9 BA000000 		movl	$__dso_handle, %edx
 8461      00
 8462 04ce BE000000 		movl	$_ZN12_GLOBAL__N_159testCheckCloseFailureIncludesCheckExpectedAndActualInstanceE, %esi
 8462      00
 8463 04d3 BF000000 		movl	$_ZN12_GLOBAL__N_151TestCheckCloseFailureIncludesCheckExpectedAndActualD1Ev, %edi
 8463      00
 8464 04d8 48C70500 		movq	$_ZTVN12_GLOBAL__N_151TestCheckCloseFailureIncludesCheckExpectedAndActualE+16, _ZN12_GLOBAL__
 8464      00000000 
 8464      000000
 8465 04e3 E8000000 		call	__cxa_atexit
 8465      00
 8466 04e8 E8000000 		call	_ZN8UnitTest4Test11GetTestListEv
 8466      00
 8467 04ed BA000000 		movl	$_ZN12_GLOBAL__N_159testCheckCloseFailureIncludesCheckExpectedAndActualInstanceE, %edx
 8467      00
 8468 04f2 4889C6   		movq	%rax, %rsi
 8469 04f5 BF000000 		movl	$_ZN12_GLOBAL__N_152adderCheckCloseFailureIncludesCheckExpectedAndActualE, %edi
 8469      00
 8470 04fa E8000000 		call	_ZN8UnitTest9ListAdderC1ERNS_8TestListEPNS_4TestE
 8470      00
 8471 04ff 41B89F00 		movl	$159, %r8d
 8471      0000
 8472 0505 B9000000 		movl	$.LC79, %ecx
 8472      00
 8473 050a BA000000 		movl	$.LC80, %edx
 8473      00
 8474 050f BE000000 		movl	$.LC96, %esi
 8474      00
 8475 0514 BF000000 		movl	$_ZN12_GLOBAL__N_146testCheckCloseFailureIncludesToleranceInstanceE, %edi
 8475      00
 8476 0519 E8000000 		call	_ZN8UnitTest4TestC2EPKcS2_S2_i
 8476      00
 8477 051e BA000000 		movl	$__dso_handle, %edx
 8477      00
 8478 0523 BE000000 		movl	$_ZN12_GLOBAL__N_146testCheckCloseFailureIncludesToleranceInstanceE, %esi
 8478      00
 8479 0528 BF000000 		movl	$_ZN12_GLOBAL__N_138TestCheckCloseFailureIncludesToleranceD1Ev, %edi
 8479      00
 8480 052d 48C70500 		movq	$_ZTVN12_GLOBAL__N_138TestCheckCloseFailureIncludesToleranceE+16, _ZN12_GLOBAL__N_146testChec
 8480      00000000 
 8480      000000
 8481 0538 E8000000 		call	__cxa_atexit
 8481      00
 8482 053d E8000000 		call	_ZN8UnitTest4Test11GetTestListEv
 8482      00
 8483 0542 BA000000 		movl	$_ZN12_GLOBAL__N_146testCheckCloseFailureIncludesToleranceInstanceE, %edx
 8483      00
 8484 0547 4889C6   		movq	%rax, %rsi
 8485 054a BF000000 		movl	$_ZN12_GLOBAL__N_139adderCheckCloseFailureIncludesToleranceE, %edi
 8485      00
 8486 054f E8000000 		call	_ZN8UnitTest9ListAdderC1ERNS_8TestListEPNS_4TestE
 8486      00
 8487 0554 41B8A900 		movl	$169, %r8d
 8487      0000
 8488 055a B9000000 		movl	$.LC79, %ecx
 8488      00
 8489 055f BA000000 		movl	$.LC80, %edx
 8489      00
 8490 0564 BE000000 		movl	$.LC97, %esi
 8490      00
 8491 0569 BF000000 		movl	$_ZN12_GLOBAL__N_144testCheckCloseFailureIncludesDetailsInstanceE, %edi
 8491      00
 8492 056e E8000000 		call	_ZN8UnitTest4TestC2EPKcS2_S2_i
 8492      00
 8493 0573 BA000000 		movl	$__dso_handle, %edx
 8493      00
 8494 0578 BE000000 		movl	$_ZN12_GLOBAL__N_144testCheckCloseFailureIncludesDetailsInstanceE, %esi
 8494      00
 8495 057d BF000000 		movl	$_ZN12_GLOBAL__N_136TestCheckCloseFailureIncludesDetailsD1Ev, %edi
 8495      00
 8496 0582 48C70500 		movq	$_ZTVN12_GLOBAL__N_136TestCheckCloseFailureIncludesDetailsE+16, _ZN12_GLOBAL__N_144testCheckC
 8496      00000000 
 8496      000000
 8497 058d E8000000 		call	__cxa_atexit
 8497      00
 8498 0592 E8000000 		call	_ZN8UnitTest4Test11GetTestListEv
 8498      00
 8499 0597 BA000000 		movl	$_ZN12_GLOBAL__N_144testCheckCloseFailureIncludesDetailsInstanceE, %edx
 8499      00
 8500 059c 4889C6   		movq	%rax, %rsi
 8501 059f BF000000 		movl	$_ZN12_GLOBAL__N_137adderCheckCloseFailureIncludesDetailsE, %edi
 8501      00
 8502 05a4 E8000000 		call	_ZN8UnitTest9ListAdderC1ERNS_8TestListEPNS_4TestE
 8502      00
 8503 05a9 41B8B800 		movl	$184, %r8d
 8503      0000
 8504 05af B9000000 		movl	$.LC79, %ecx
 8504      00
 8505 05b4 BA000000 		movl	$.LC80, %edx
 8505      00
 8506 05b9 BE000000 		movl	$.LC98, %esi
 8506      00
 8507 05be BF000000 		movl	$_ZN12_GLOBAL__N_131testCheckArrayEqualTrueInstanceE, %edi
 8507      00
 8508 05c3 E8000000 		call	_ZN8UnitTest4TestC2EPKcS2_S2_i
 8508      00
 8509 05c8 BA000000 		movl	$__dso_handle, %edx
 8509      00
 8510 05cd BE000000 		movl	$_ZN12_GLOBAL__N_131testCheckArrayEqualTrueInstanceE, %esi
 8510      00
 8511 05d2 BF000000 		movl	$_ZN12_GLOBAL__N_123TestCheckArrayEqualTrueD1Ev, %edi
 8511      00
 8512 05d7 48C70500 		movq	$_ZTVN12_GLOBAL__N_123TestCheckArrayEqualTrueE+16, _ZN12_GLOBAL__N_131testCheckArrayEqualTrue
 8512      00000000 
 8512      000000
 8513 05e2 E8000000 		call	__cxa_atexit
 8513      00
 8514 05e7 E8000000 		call	_ZN8UnitTest4Test11GetTestListEv
 8514      00
 8515 05ec BA000000 		movl	$_ZN12_GLOBAL__N_131testCheckArrayEqualTrueInstanceE, %edx
 8515      00
 8516 05f1 4889C6   		movq	%rax, %rsi
 8517 05f4 BF000000 		movl	$_ZN12_GLOBAL__N_124adderCheckArrayEqualTrueE, %edi
 8517      00
 8518 05f9 E8000000 		call	_ZN8UnitTest9ListAdderC1ERNS_8TestListEPNS_4TestE
 8518      00
 8519 05fe 41B8C100 		movl	$193, %r8d
 8519      0000
 8520 0604 B9000000 		movl	$.LC79, %ecx
 8520      00
 8521 0609 BA000000 		movl	$.LC80, %edx
 8521      00
 8522 060e BE000000 		movl	$.LC99, %esi
 8522      00
 8523 0613 BF000000 		movl	$_ZN12_GLOBAL__N_132testCheckArrayEqualFalseInstanceE, %edi
 8523      00
 8524 0618 E8000000 		call	_ZN8UnitTest4TestC2EPKcS2_S2_i
 8524      00
 8525 061d BA000000 		movl	$__dso_handle, %edx
 8525      00
 8526 0622 BE000000 		movl	$_ZN12_GLOBAL__N_132testCheckArrayEqualFalseInstanceE, %esi
 8526      00
 8527 0627 BF000000 		movl	$_ZN12_GLOBAL__N_124TestCheckArrayEqualFalseD1Ev, %edi
 8527      00
 8528 062c 48C70500 		movq	$_ZTVN12_GLOBAL__N_124TestCheckArrayEqualFalseE+16, _ZN12_GLOBAL__N_132testCheckArrayEqualFal
 8528      00000000 
 8528      000000
 8529 0637 E8000000 		call	__cxa_atexit
 8529      00
 8530 063c E8000000 		call	_ZN8UnitTest4Test11GetTestListEv
 8530      00
 8531 0641 BA000000 		movl	$_ZN12_GLOBAL__N_132testCheckArrayEqualFalseInstanceE, %edx
 8531      00
 8532 0646 4889C6   		movq	%rax, %rsi
 8533 0649 BF000000 		movl	$_ZN12_GLOBAL__N_125adderCheckArrayEqualFalseE, %edi
 8533      00
 8534 064e E8000000 		call	_ZN8UnitTest9ListAdderC1ERNS_8TestListEPNS_4TestE
 8534      00
 8535 0653 41B8CB00 		movl	$203, %r8d
 8535      0000
 8536 0659 B9000000 		movl	$.LC79, %ecx
 8536      00
 8537 065e BA000000 		movl	$.LC80, %edx
 8537      00
 8538 0663 BE000000 		movl	$.LC100, %esi
 8538      00
 8539 0668 BF000000 		movl	$_ZN12_GLOBAL__N_131testCheckArrayCloseTrueInstanceE, %edi
 8539      00
 8540 066d E8000000 		call	_ZN8UnitTest4TestC2EPKcS2_S2_i
 8540      00
 8541 0672 BA000000 		movl	$__dso_handle, %edx
 8541      00
 8542 0677 BE000000 		movl	$_ZN12_GLOBAL__N_131testCheckArrayCloseTrueInstanceE, %esi
 8542      00
 8543 067c BF000000 		movl	$_ZN12_GLOBAL__N_123TestCheckArrayCloseTrueD1Ev, %edi
 8543      00
 8544 0681 48C70500 		movq	$_ZTVN12_GLOBAL__N_123TestCheckArrayCloseTrueE+16, _ZN12_GLOBAL__N_131testCheckArrayCloseTrue
 8544      00000000 
 8544      000000
 8545 068c E8000000 		call	__cxa_atexit
 8545      00
 8546 0691 E8000000 		call	_ZN8UnitTest4Test11GetTestListEv
 8546      00
 8547 0696 BA000000 		movl	$_ZN12_GLOBAL__N_131testCheckArrayCloseTrueInstanceE, %edx
 8547      00
 8548 069b 4889C6   		movq	%rax, %rsi
 8549 069e BF000000 		movl	$_ZN12_GLOBAL__N_124adderCheckArrayCloseTrueE, %edi
 8549      00
 8550 06a3 E8000000 		call	_ZN8UnitTest9ListAdderC1ERNS_8TestListEPNS_4TestE
 8550      00
 8551 06a8 41B8D500 		movl	$213, %r8d
 8551      0000
 8552 06ae B9000000 		movl	$.LC79, %ecx
 8552      00
 8553 06b3 BA000000 		movl	$.LC80, %edx
 8553      00
 8554 06b8 BE000000 		movl	$.LC101, %esi
 8554      00
 8555 06bd BF000000 		movl	$_ZN12_GLOBAL__N_132testCheckArrayCloseFalseInstanceE, %edi
 8555      00
 8556 06c2 E8000000 		call	_ZN8UnitTest4TestC2EPKcS2_S2_i
 8556      00
 8557 06c7 BA000000 		movl	$__dso_handle, %edx
 8557      00
 8558 06cc BE000000 		movl	$_ZN12_GLOBAL__N_132testCheckArrayCloseFalseInstanceE, %esi
 8558      00
 8559 06d1 BF000000 		movl	$_ZN12_GLOBAL__N_124TestCheckArrayCloseFalseD1Ev, %edi
 8559      00
 8560 06d6 48C70500 		movq	$_ZTVN12_GLOBAL__N_124TestCheckArrayCloseFalseE+16, _ZN12_GLOBAL__N_132testCheckArrayCloseFal
 8560      00000000 
 8560      000000
 8561 06e1 E8000000 		call	__cxa_atexit
 8561      00
 8562 06e6 E8000000 		call	_ZN8UnitTest4Test11GetTestListEv
 8562      00
 8563 06eb BA000000 		movl	$_ZN12_GLOBAL__N_132testCheckArrayCloseFalseInstanceE, %edx
 8563      00
 8564 06f0 4889C6   		movq	%rax, %rsi
 8565 06f3 BF000000 		movl	$_ZN12_GLOBAL__N_125adderCheckArrayCloseFalseE, %edi
 8565      00
 8566 06f8 E8000000 		call	_ZN8UnitTest9ListAdderC1ERNS_8TestListEPNS_4TestE
 8566      00
 8567 06fd 41B8DF00 		movl	$223, %r8d
 8567      0000
 8568 0703 B9000000 		movl	$.LC79, %ecx
 8568      00
 8569 0708 BA000000 		movl	$.LC80, %edx
 8569      00
 8570 070d BE000000 		movl	$.LC102, %esi
 8570      00
 8571 0712 BF000000 		movl	$_ZN12_GLOBAL__N_149testCheckArrayCloseFailureIncludesDetailsInstanceE, %edi
 8571      00
 8572 0717 E8000000 		call	_ZN8UnitTest4TestC2EPKcS2_S2_i
 8572      00
 8573 071c BA000000 		movl	$__dso_handle, %edx
 8573      00
 8574 0721 BE000000 		movl	$_ZN12_GLOBAL__N_149testCheckArrayCloseFailureIncludesDetailsInstanceE, %esi
 8574      00
 8575 0726 BF000000 		movl	$_ZN12_GLOBAL__N_141TestCheckArrayCloseFailureIncludesDetailsD1Ev, %edi
 8575      00
 8576 072b 48C70500 		movq	$_ZTVN12_GLOBAL__N_141TestCheckArrayCloseFailureIncludesDetailsE+16, _ZN12_GLOBAL__N_149testC
 8576      00000000 
 8576      000000
 8577 0736 E8000000 		call	__cxa_atexit
 8577      00
 8578 073b E8000000 		call	_ZN8UnitTest4Test11GetTestListEv
 8578      00
 8579 0740 BA000000 		movl	$_ZN12_GLOBAL__N_149testCheckArrayCloseFailureIncludesDetailsInstanceE, %edx
 8579      00
 8580 0745 4889C6   		movq	%rax, %rsi
 8581 0748 BF000000 		movl	$_ZN12_GLOBAL__N_142adderCheckArrayCloseFailureIncludesDetailsE, %edi
 8581      00
 8582 074d E8000000 		call	_ZN8UnitTest9ListAdderC1ERNS_8TestListEPNS_4TestE
 8582      00
 8583 0752 41B8F000 		movl	$240, %r8d
 8583      0000
 8584 0758 B9000000 		movl	$.LC79, %ecx
 8584      00
 8585 075d BA000000 		movl	$.LC80, %edx
 8585      00
 8586 0762 BE000000 		movl	$.LC103, %esi
 8586      00
 8587 0767 BF000000 		movl	$_ZN12_GLOBAL__N_133testCheckArray2DCloseTrueInstanceE, %edi
 8587      00
 8588 076c E8000000 		call	_ZN8UnitTest4TestC2EPKcS2_S2_i
 8588      00
 8589 0771 BA000000 		movl	$__dso_handle, %edx
 8589      00
 8590 0776 BE000000 		movl	$_ZN12_GLOBAL__N_133testCheckArray2DCloseTrueInstanceE, %esi
 8590      00
 8591 077b BF000000 		movl	$_ZN12_GLOBAL__N_125TestCheckArray2DCloseTrueD1Ev, %edi
 8591      00
 8592 0780 48C70500 		movq	$_ZTVN12_GLOBAL__N_125TestCheckArray2DCloseTrueE+16, _ZN12_GLOBAL__N_133testCheckArray2DClose
 8592      00000000 
 8592      000000
 8593 078b E8000000 		call	__cxa_atexit
 8593      00
 8594 0790 E8000000 		call	_ZN8UnitTest4Test11GetTestListEv
 8594      00
 8595 0795 BA000000 		movl	$_ZN12_GLOBAL__N_133testCheckArray2DCloseTrueInstanceE, %edx
 8595      00
 8596 079a 4889C6   		movq	%rax, %rsi
 8597 079d BF000000 		movl	$_ZN12_GLOBAL__N_126adderCheckArray2DCloseTrueE, %edi
 8597      00
 8598 07a2 E8000000 		call	_ZN8UnitTest9ListAdderC1ERNS_8TestListEPNS_4TestE
 8598      00
 8599 07a7 41B8FE00 		movl	$254, %r8d
 8599      0000
 8600 07ad B9000000 		movl	$.LC79, %ecx
 8600      00
 8601 07b2 BA000000 		movl	$.LC80, %edx
 8601      00
 8602 07b7 BE000000 		movl	$.LC104, %esi
 8602      00
 8603 07bc BF000000 		movl	$_ZN12_GLOBAL__N_134testCheckArray2DCloseFalseInstanceE, %edi
 8603      00
 8604 07c1 E8000000 		call	_ZN8UnitTest4TestC2EPKcS2_S2_i
 8604      00
 8605 07c6 BA000000 		movl	$__dso_handle, %edx
 8605      00
 8606 07cb BE000000 		movl	$_ZN12_GLOBAL__N_134testCheckArray2DCloseFalseInstanceE, %esi
 8606      00
 8607 07d0 BF000000 		movl	$_ZN12_GLOBAL__N_126TestCheckArray2DCloseFalseD1Ev, %edi
 8607      00
 8608 07d5 48C70500 		movq	$_ZTVN12_GLOBAL__N_126TestCheckArray2DCloseFalseE+16, _ZN12_GLOBAL__N_134testCheckArray2DClos
 8608      00000000 
 8608      000000
 8609 07e0 E8000000 		call	__cxa_atexit
 8609      00
 8610 07e5 E8000000 		call	_ZN8UnitTest4Test11GetTestListEv
 8610      00
 8611 07ea BA000000 		movl	$_ZN12_GLOBAL__N_134testCheckArray2DCloseFalseInstanceE, %edx
 8611      00
 8612 07ef 4889C6   		movq	%rax, %rsi
 8613 07f2 BF000000 		movl	$_ZN12_GLOBAL__N_127adderCheckArray2DCloseFalseE, %edi
 8613      00
 8614 07f7 E8000000 		call	_ZN8UnitTest9ListAdderC1ERNS_8TestListEPNS_4TestE
 8614      00
 8615 07fc 41B80C01 		movl	$268, %r8d
 8615      0000
 8616 0802 B9000000 		movl	$.LC79, %ecx
 8616      00
 8617 0807 BA000000 		movl	$.LC80, %edx
 8617      00
 8618 080c BE000000 		movl	$.LC105, %esi
 8618      00
 8619 0811 BF000000 		movl	$_ZN12_GLOBAL__N_141testCheckCloseWithDoublesSucceedsInstanceE, %edi
 8619      00
 8620 0816 E8000000 		call	_ZN8UnitTest4TestC2EPKcS2_S2_i
 8620      00
 8621 081b BA000000 		movl	$__dso_handle, %edx
 8621      00
 8622 0820 BE000000 		movl	$_ZN12_GLOBAL__N_141testCheckCloseWithDoublesSucceedsInstanceE, %esi
 8622      00
 8623 0825 BF000000 		movl	$_ZN12_GLOBAL__N_133TestCheckCloseWithDoublesSucceedsD1Ev, %edi
 8623      00
 8624 082a 48C70500 		movq	$_ZTVN12_GLOBAL__N_133TestCheckCloseWithDoublesSucceedsE+16, _ZN12_GLOBAL__N_141testCheckClos
 8624      00000000 
 8624      000000
 8625 0835 E8000000 		call	__cxa_atexit
 8625      00
 8626 083a E8000000 		call	_ZN8UnitTest4Test11GetTestListEv
 8626      00
 8627 083f BA000000 		movl	$_ZN12_GLOBAL__N_141testCheckCloseWithDoublesSucceedsInstanceE, %edx
 8627      00
 8628 0844 4889C6   		movq	%rax, %rsi
 8629 0847 BF000000 		movl	$_ZN12_GLOBAL__N_134adderCheckCloseWithDoublesSucceedsE, %edi
 8629      00
 8630 084c E8000000 		call	_ZN8UnitTest9ListAdderC1ERNS_8TestListEPNS_4TestE
 8630      00
 8631 0851 41B81101 		movl	$273, %r8d
 8631      0000
 8632 0857 B9000000 		movl	$.LC79, %ecx
 8632      00
 8633 085c BA000000 		movl	$.LC80, %edx
 8633      00
 8634 0861 BE000000 		movl	$.LC106, %esi
 8634      00
 8635 0866 BF000000 		movl	$_ZN12_GLOBAL__N_151testCheckArray2DCloseFailureIncludesDetailsInstanceE, %edi
 8635      00
 8636 086b E8000000 		call	_ZN8UnitTest4TestC2EPKcS2_S2_i
 8636      00
 8637 0870 BA000000 		movl	$__dso_handle, %edx
 8637      00
 8638 0875 BE000000 		movl	$_ZN12_GLOBAL__N_151testCheckArray2DCloseFailureIncludesDetailsInstanceE, %esi
 8638      00
 8639 087a BF000000 		movl	$_ZN12_GLOBAL__N_143TestCheckArray2DCloseFailureIncludesDetailsD1Ev, %edi
 8639      00
 8640 087f 48C70500 		movq	$_ZTVN12_GLOBAL__N_143TestCheckArray2DCloseFailureIncludesDetailsE+16, _ZN12_GLOBAL__N_151tes
 8640      00000000 
 8640      000000
 8641 088a E8000000 		call	__cxa_atexit
 8641      00
 8642 088f E8000000 		call	_ZN8UnitTest4Test11GetTestListEv
 8642      00
 8643 0894 BA000000 		movl	$_ZN12_GLOBAL__N_151testCheckArray2DCloseFailureIncludesDetailsInstanceE, %edx
 8643      00
 8644 0899 4889C6   		movq	%rax, %rsi
 8645 089c BF000000 		movl	$_ZN12_GLOBAL__N_144adderCheckArray2DCloseFailureIncludesDetailsE, %edi
 8645      00
 8646 08a1 4883C408 		addq	$8, %rsp
 8647              		.cfi_def_cfa_offset 8
 8648 08a5 E9000000 		jmp	_ZN8UnitTest9ListAdderC1ERNS_8TestListEPNS_4TestE
 8648      00
 8649              		.cfi_endproc
 8650              	.LFE1395:
 8652              		.section	.init_array,"aw"
 8653              		.align 8
 8654 0000 00000000 		.quad	_GLOBAL__sub_I_TestChecks.cpp
 8654      00000000 
 8655              		.section	.rodata
 8656              		.align 32
 8659              	_ZTSN12_GLOBAL__N_130TestCheckEqualWithUnsignedLongE:
 8660 0000 2A4E3132 		.string	"*N12_GLOBAL__N_130TestCheckEqualWithUnsignedLongE"
 8660      5F474C4F 
 8660      42414C5F 
 8660      5F4E5F31 
 8660      33305465 
 8661 0032 00000000 		.align 32
 8661      00000000 
 8661      00000000 
 8661      0000
 8664              	_ZTSN12_GLOBAL__N_149TestCheckEqualsWithStringsFailsOnDifferentStringsE:
 8665 0040 2A4E3132 		.string	"*N12_GLOBAL__N_149TestCheckEqualsWithStringsFailsOnDifferentStringsE"
 8665      5F474C4F 
 8665      42414C5F 
 8665      5F4E5F31 
 8665      34395465 
 8666 0085 00000000 		.align 32
 8666      00000000 
 8666      00000000 
 8666      00000000 
 8666      00000000 
 8669              	_ZTSN12_GLOBAL__N_157TestCheckEqualsWithStringsWorksOnContentsNonConstNonConstE:
 8670 00a0 2A4E3132 		.string	"*N12_GLOBAL__N_157TestCheckEqualsWithStringsWorksOnContentsNonConstNonConstE"
 8670      5F474C4F 
 8670      42414C5F 
 8670      5F4E5F31 
 8670      35375465 
 8671 00ed 00000000 		.align 32
 8671      00000000 
 8671      00000000 
 8671      00000000 
 8671      000000
 8674              	_ZTSN12_GLOBAL__N_151TestCheckEqualsWithStringsWorksOnContentsConstConstE:
 8675 0100 2A4E3132 		.string	"*N12_GLOBAL__N_151TestCheckEqualsWithStringsWorksOnContentsConstConstE"
 8675      5F474C4F 
 8675      42414C5F 
 8675      5F4E5F31 
 8675      35315465 
 8676 0147 00000000 		.align 32
 8676      00000000 
 8676      00000000 
 8676      00000000 
 8676      00000000 
 8679              	_ZTSN12_GLOBAL__N_154TestCheckEqualsWithStringsWorksOnContentsNonConstConstE:
 8680 0160 2A4E3132 		.string	"*N12_GLOBAL__N_154TestCheckEqualsWithStringsWorksOnContentsNonConstConstE"
 8680      5F474C4F 
 8680      42414C5F 
 8680      5F4E5F31 
 8680      35345465 
 8681 01aa 00000000 		.align 32
 8681      00000000 
 8681      00000000 
 8681      00000000 
 8681      00000000 
 8684              	_ZTSN12_GLOBAL__N_154TestCheckEqualsWithStringsWorksOnContentsConstNonConstE:
 8685 01c0 2A4E3132 		.string	"*N12_GLOBAL__N_154TestCheckEqualsWithStringsWorksOnContentsConstNonConstE"
 8685      5F474C4F 
 8685      42414C5F 
 8685      5F4E5F31 
 8685      35345465 
 8686 020a 00000000 		.align 32
 8686      00000000 
 8686      00000000 
 8686      00000000 
 8686      00000000 
 8689              	_ZTSN12_GLOBAL__N_153TestCheckEqualsWithStringsWorksOnContentsWithALiteralE:
 8690 0220 2A4E3132 		.string	"*N12_GLOBAL__N_153TestCheckEqualsWithStringsWorksOnContentsWithALiteralE"
 8690      5F474C4F 
 8690      42414C5F 
 8690      5F4E5F31 
 8690      35335465 
 8691 0269 00000000 		.align 32
 8691      00000000 
 8691      00000000 
 8691      00000000 
 8691      00000000 
 8694              	_ZTSN12_GLOBAL__N_151TestCheckEqualFailureIncludesCheckExpectedAndActualE:
 8695 0280 2A4E3132 		.string	"*N12_GLOBAL__N_151TestCheckEqualFailureIncludesCheckExpectedAndActualE"
 8695      5F474C4F 
 8695      42414C5F 
 8695      5F4E5F31 
 8695      35315465 
 8696 02c7 00000000 		.align 32
 8696      00000000 
 8696      00000000 
 8696      00000000 
 8696      00000000 
 8699              	_ZTSN12_GLOBAL__N_136TestCheckEqualFailureIncludesDetailsE:
 8700 02e0 2A4E3132 		.string	"*N12_GLOBAL__N_136TestCheckEqualFailureIncludesDetailsE"
 8700      5F474C4F 
 8700      42414C5F 
 8700      5F4E5F31 
 8700      33365465 
 8701 0318 00000000 		.align 32
 8701      00000000 
 8704              	_ZTSN12_GLOBAL__N_118TestCheckCloseTrueE:
 8705 0320 2A4E3132 		.string	"*N12_GLOBAL__N_118TestCheckCloseTrueE"
 8705      5F474C4F 
 8705      42414C5F 
 8705      5F4E5F31 
 8705      31385465 
 8706 0346 00000000 		.align 32
 8706      00000000 
 8706      00000000 
 8706      00000000 
 8706      00000000 
 8709              	_ZTSN12_GLOBAL__N_119TestCheckCloseFalseE:
 8710 0360 2A4E3132 		.string	"*N12_GLOBAL__N_119TestCheckCloseFalseE"
 8710      5F474C4F 
 8710      42414C5F 
 8710      5F4E5F31 
 8710      31395465 
 8711 0387 00000000 		.align 32
 8711      00000000 
 8711      00000000 
 8711      00000000 
 8711      00000000 
 8714              	_ZTSN12_GLOBAL__N_147TestCheckCloseWithZeroEpsilonWorksForSameNumberE:
 8715 03a0 2A4E3132 		.string	"*N12_GLOBAL__N_147TestCheckCloseWithZeroEpsilonWorksForSameNumberE"
 8715      5F474C4F 
 8715      42414C5F 
 8715      5F4E5F31 
 8715      34375465 
 8716 03e3 00000000 		.align 32
 8716      00000000 
 8716      00000000 
 8716      00000000 
 8716      00000000 
 8719              	_ZTSN12_GLOBAL__N_126TestCheckCloseWithNaNFailsE:
 8720 0400 2A4E3132 		.string	"*N12_GLOBAL__N_126TestCheckCloseWithNaNFailsE"
 8720      5F474C4F 
 8720      42414C5F 
 8720      5F4E5F31 
 8720      32365465 
 8721 042e 00000000 		.align 32
 8721      00000000 
 8721      00000000 
 8721      00000000 
 8721      0000
 8724              	_ZTSN12_GLOBAL__N_139TestCheckCloseWithNaNAgainstItselfFailsE:
 8725 0440 2A4E3132 		.string	"*N12_GLOBAL__N_139TestCheckCloseWithNaNAgainstItselfFailsE"
 8725      5F474C4F 
 8725      42414C5F 
 8725      5F4E5F31 
 8725      33395465 
 8726 047b 00000000 		.align 32
 8726      00
 8729              	_ZTSN12_GLOBAL__N_151TestCheckCloseFailureIncludesCheckExpectedAndActualE:
 8730 0480 2A4E3132 		.string	"*N12_GLOBAL__N_151TestCheckCloseFailureIncludesCheckExpectedAndActualE"
 8730      5F474C4F 
 8730      42414C5F 
 8730      5F4E5F31 
 8730      35315465 
 8731 04c7 00000000 		.align 32
 8731      00000000 
 8731      00000000 
 8731      00000000 
 8731      00000000 
 8734              	_ZTSN12_GLOBAL__N_138TestCheckCloseFailureIncludesToleranceE:
 8735 04e0 2A4E3132 		.string	"*N12_GLOBAL__N_138TestCheckCloseFailureIncludesToleranceE"
 8735      5F474C4F 
 8735      42414C5F 
 8735      5F4E5F31 
 8735      33385465 
 8736 051a 00000000 		.align 32
 8736      0000
 8739              	_ZTSN12_GLOBAL__N_136TestCheckCloseFailureIncludesDetailsE:
 8740 0520 2A4E3132 		.string	"*N12_GLOBAL__N_136TestCheckCloseFailureIncludesDetailsE"
 8740      5F474C4F 
 8740      42414C5F 
 8740      5F4E5F31 
 8740      33365465 
 8741 0558 00000000 		.align 32
 8741      00000000 
 8744              	_ZTSN12_GLOBAL__N_123TestCheckArrayEqualTrueE:
 8745 0560 2A4E3132 		.string	"*N12_GLOBAL__N_123TestCheckArrayEqualTrueE"
 8745      5F474C4F 
 8745      42414C5F 
 8745      5F4E5F31 
 8745      32335465 
 8746 058b 00000000 		.align 32
 8746      00000000 
 8746      00000000 
 8746      00000000 
 8746      00000000 
 8749              	_ZTSN12_GLOBAL__N_124TestCheckArrayEqualFalseE:
 8750 05a0 2A4E3132 		.string	"*N12_GLOBAL__N_124TestCheckArrayEqualFalseE"
 8750      5F474C4F 
 8750      42414C5F 
 8750      5F4E5F31 
 8750      32345465 
 8751 05cc 00000000 		.align 32
 8751      00000000 
 8751      00000000 
 8751      00000000 
 8751      00000000 
 8754              	_ZTSN12_GLOBAL__N_123TestCheckArrayCloseTrueE:
 8755 05e0 2A4E3132 		.string	"*N12_GLOBAL__N_123TestCheckArrayCloseTrueE"
 8755      5F474C4F 
 8755      42414C5F 
 8755      5F4E5F31 
 8755      32335465 
 8756 060b 00000000 		.align 32
 8756      00000000 
 8756      00000000 
 8756      00000000 
 8756      00000000 
 8759              	_ZTSN12_GLOBAL__N_124TestCheckArrayCloseFalseE:
 8760 0620 2A4E3132 		.string	"*N12_GLOBAL__N_124TestCheckArrayCloseFalseE"
 8760      5F474C4F 
 8760      42414C5F 
 8760      5F4E5F31 
 8760      32345465 
 8761 064c 00000000 		.align 32
 8761      00000000 
 8761      00000000 
 8761      00000000 
 8761      00000000 
 8764              	_ZTSN12_GLOBAL__N_141TestCheckArrayCloseFailureIncludesDetailsE:
 8765 0660 2A4E3132 		.string	"*N12_GLOBAL__N_141TestCheckArrayCloseFailureIncludesDetailsE"
 8765      5F474C4F 
 8765      42414C5F 
 8765      5F4E5F31 
 8765      34315465 
 8766 069d 000000   		.align 32
 8769              	_ZTSN12_GLOBAL__N_125TestCheckArray2DCloseTrueE:
 8770 06a0 2A4E3132 		.string	"*N12_GLOBAL__N_125TestCheckArray2DCloseTrueE"
 8770      5F474C4F 
 8770      42414C5F 
 8770      5F4E5F31 
 8770      32355465 
 8771 06cd 00000000 		.align 32
 8771      00000000 
 8771      00000000 
 8771      00000000 
 8771      000000
 8774              	_ZTSN12_GLOBAL__N_126TestCheckArray2DCloseFalseE:
 8775 06e0 2A4E3132 		.string	"*N12_GLOBAL__N_126TestCheckArray2DCloseFalseE"
 8775      5F474C4F 
 8775      42414C5F 
 8775      5F4E5F31 
 8775      32365465 
 8776 070e 00000000 		.align 32
 8776      00000000 
 8776      00000000 
 8776      00000000 
 8776      0000
 8779              	_ZTSN12_GLOBAL__N_133TestCheckCloseWithDoublesSucceedsE:
 8780 0720 2A4E3132 		.string	"*N12_GLOBAL__N_133TestCheckCloseWithDoublesSucceedsE"
 8780      5F474C4F 
 8780      42414C5F 
 8780      5F4E5F31 
 8780      33335465 
 8781 0755 00000000 		.align 32
 8781      00000000 
 8781      000000
 8784              	_ZTSN12_GLOBAL__N_143TestCheckArray2DCloseFailureIncludesDetailsE:
 8785 0760 2A4E3132 		.string	"*N12_GLOBAL__N_143TestCheckArray2DCloseFailureIncludesDetailsE"
 8785      5F474C4F 
 8785      42414C5F 
 8785      5F4E5F31 
 8785      34335465 
 8786 079f 00       		.align 16
 8789              	_ZTIN12_GLOBAL__N_143TestCheckArray2DCloseFailureIncludesDetailsE:
 8790 07a0 00000000 		.quad	_ZTVN10__cxxabiv120__si_class_type_infoE+16
 8790      00000000 
 8791 07a8 00000000 		.quad	_ZTSN12_GLOBAL__N_143TestCheckArray2DCloseFailureIncludesDetailsE
 8791      00000000 
 8792 07b0 00000000 		.quad	_ZTIN8UnitTest4TestE
 8792      00000000 
 8793 07b8 00000000 		.align 16
 8793      00000000 
 8796              	_ZTIN12_GLOBAL__N_133TestCheckCloseWithDoublesSucceedsE:
 8797 07c0 00000000 		.quad	_ZTVN10__cxxabiv120__si_class_type_infoE+16
 8797      00000000 
 8798 07c8 00000000 		.quad	_ZTSN12_GLOBAL__N_133TestCheckCloseWithDoublesSucceedsE
 8798      00000000 
 8799 07d0 00000000 		.quad	_ZTIN8UnitTest4TestE
 8799      00000000 
 8800 07d8 00000000 		.align 16
 8800      00000000 
 8803              	_ZTIN12_GLOBAL__N_126TestCheckArray2DCloseFalseE:
 8804 07e0 00000000 		.quad	_ZTVN10__cxxabiv120__si_class_type_infoE+16
 8804      00000000 
 8805 07e8 00000000 		.quad	_ZTSN12_GLOBAL__N_126TestCheckArray2DCloseFalseE
 8805      00000000 
 8806 07f0 00000000 		.quad	_ZTIN8UnitTest4TestE
 8806      00000000 
 8807 07f8 00000000 		.align 16
 8807      00000000 
 8810              	_ZTIN12_GLOBAL__N_125TestCheckArray2DCloseTrueE:
 8811 0800 00000000 		.quad	_ZTVN10__cxxabiv120__si_class_type_infoE+16
 8811      00000000 
 8812 0808 00000000 		.quad	_ZTSN12_GLOBAL__N_125TestCheckArray2DCloseTrueE
 8812      00000000 
 8813 0810 00000000 		.quad	_ZTIN8UnitTest4TestE
 8813      00000000 
 8814 0818 00000000 		.align 16
 8814      00000000 
 8817              	_ZTIN12_GLOBAL__N_141TestCheckArrayCloseFailureIncludesDetailsE:
 8818 0820 00000000 		.quad	_ZTVN10__cxxabiv120__si_class_type_infoE+16
 8818      00000000 
 8819 0828 00000000 		.quad	_ZTSN12_GLOBAL__N_141TestCheckArrayCloseFailureIncludesDetailsE
 8819      00000000 
 8820 0830 00000000 		.quad	_ZTIN8UnitTest4TestE
 8820      00000000 
 8821 0838 00000000 		.align 16
 8821      00000000 
 8824              	_ZTIN12_GLOBAL__N_124TestCheckArrayCloseFalseE:
 8825 0840 00000000 		.quad	_ZTVN10__cxxabiv120__si_class_type_infoE+16
 8825      00000000 
 8826 0848 00000000 		.quad	_ZTSN12_GLOBAL__N_124TestCheckArrayCloseFalseE
 8826      00000000 
 8827 0850 00000000 		.quad	_ZTIN8UnitTest4TestE
 8827      00000000 
 8828 0858 00000000 		.align 16
 8828      00000000 
 8831              	_ZTIN12_GLOBAL__N_123TestCheckArrayCloseTrueE:
 8832 0860 00000000 		.quad	_ZTVN10__cxxabiv120__si_class_type_infoE+16
 8832      00000000 
 8833 0868 00000000 		.quad	_ZTSN12_GLOBAL__N_123TestCheckArrayCloseTrueE
 8833      00000000 
 8834 0870 00000000 		.quad	_ZTIN8UnitTest4TestE
 8834      00000000 
 8835 0878 00000000 		.align 16
 8835      00000000 
 8838              	_ZTIN12_GLOBAL__N_124TestCheckArrayEqualFalseE:
 8839 0880 00000000 		.quad	_ZTVN10__cxxabiv120__si_class_type_infoE+16
 8839      00000000 
 8840 0888 00000000 		.quad	_ZTSN12_GLOBAL__N_124TestCheckArrayEqualFalseE
 8840      00000000 
 8841 0890 00000000 		.quad	_ZTIN8UnitTest4TestE
 8841      00000000 
 8842 0898 00000000 		.align 16
 8842      00000000 
 8845              	_ZTIN12_GLOBAL__N_123TestCheckArrayEqualTrueE:
 8846 08a0 00000000 		.quad	_ZTVN10__cxxabiv120__si_class_type_infoE+16
 8846      00000000 
 8847 08a8 00000000 		.quad	_ZTSN12_GLOBAL__N_123TestCheckArrayEqualTrueE
 8847      00000000 
 8848 08b0 00000000 		.quad	_ZTIN8UnitTest4TestE
 8848      00000000 
 8849 08b8 00000000 		.align 16
 8849      00000000 
 8852              	_ZTIN12_GLOBAL__N_136TestCheckCloseFailureIncludesDetailsE:
 8853 08c0 00000000 		.quad	_ZTVN10__cxxabiv120__si_class_type_infoE+16
 8853      00000000 
 8854 08c8 00000000 		.quad	_ZTSN12_GLOBAL__N_136TestCheckCloseFailureIncludesDetailsE
 8854      00000000 
 8855 08d0 00000000 		.quad	_ZTIN8UnitTest4TestE
 8855      00000000 
 8856 08d8 00000000 		.align 16
 8856      00000000 
 8859              	_ZTIN12_GLOBAL__N_138TestCheckCloseFailureIncludesToleranceE:
 8860 08e0 00000000 		.quad	_ZTVN10__cxxabiv120__si_class_type_infoE+16
 8860      00000000 
 8861 08e8 00000000 		.quad	_ZTSN12_GLOBAL__N_138TestCheckCloseFailureIncludesToleranceE
 8861      00000000 
 8862 08f0 00000000 		.quad	_ZTIN8UnitTest4TestE
 8862      00000000 
 8863 08f8 00000000 		.align 16
 8863      00000000 
 8866              	_ZTIN12_GLOBAL__N_151TestCheckCloseFailureIncludesCheckExpectedAndActualE:
 8867 0900 00000000 		.quad	_ZTVN10__cxxabiv120__si_class_type_infoE+16
 8867      00000000 
 8868 0908 00000000 		.quad	_ZTSN12_GLOBAL__N_151TestCheckCloseFailureIncludesCheckExpectedAndActualE
 8868      00000000 
 8869 0910 00000000 		.quad	_ZTIN8UnitTest4TestE
 8869      00000000 
 8870 0918 00000000 		.align 16
 8870      00000000 
 8873              	_ZTIN12_GLOBAL__N_139TestCheckCloseWithNaNAgainstItselfFailsE:
 8874 0920 00000000 		.quad	_ZTVN10__cxxabiv120__si_class_type_infoE+16
 8874      00000000 
 8875 0928 00000000 		.quad	_ZTSN12_GLOBAL__N_139TestCheckCloseWithNaNAgainstItselfFailsE
 8875      00000000 
 8876 0930 00000000 		.quad	_ZTIN8UnitTest4TestE
 8876      00000000 
 8877 0938 00000000 		.align 16
 8877      00000000 
 8880              	_ZTIN12_GLOBAL__N_126TestCheckCloseWithNaNFailsE:
 8881 0940 00000000 		.quad	_ZTVN10__cxxabiv120__si_class_type_infoE+16
 8881      00000000 
 8882 0948 00000000 		.quad	_ZTSN12_GLOBAL__N_126TestCheckCloseWithNaNFailsE
 8882      00000000 
 8883 0950 00000000 		.quad	_ZTIN8UnitTest4TestE
 8883      00000000 
 8884 0958 00000000 		.align 16
 8884      00000000 
 8887              	_ZTIN12_GLOBAL__N_147TestCheckCloseWithZeroEpsilonWorksForSameNumberE:
 8888 0960 00000000 		.quad	_ZTVN10__cxxabiv120__si_class_type_infoE+16
 8888      00000000 
 8889 0968 00000000 		.quad	_ZTSN12_GLOBAL__N_147TestCheckCloseWithZeroEpsilonWorksForSameNumberE
 8889      00000000 
 8890 0970 00000000 		.quad	_ZTIN8UnitTest4TestE
 8890      00000000 
 8891 0978 00000000 		.align 16
 8891      00000000 
 8894              	_ZTIN12_GLOBAL__N_119TestCheckCloseFalseE:
 8895 0980 00000000 		.quad	_ZTVN10__cxxabiv120__si_class_type_infoE+16
 8895      00000000 
 8896 0988 00000000 		.quad	_ZTSN12_GLOBAL__N_119TestCheckCloseFalseE
 8896      00000000 
 8897 0990 00000000 		.quad	_ZTIN8UnitTest4TestE
 8897      00000000 
 8898 0998 00000000 		.align 16
 8898      00000000 
 8901              	_ZTIN12_GLOBAL__N_118TestCheckCloseTrueE:
 8902 09a0 00000000 		.quad	_ZTVN10__cxxabiv120__si_class_type_infoE+16
 8902      00000000 
 8903 09a8 00000000 		.quad	_ZTSN12_GLOBAL__N_118TestCheckCloseTrueE
 8903      00000000 
 8904 09b0 00000000 		.quad	_ZTIN8UnitTest4TestE
 8904      00000000 
 8905 09b8 00000000 		.align 16
 8905      00000000 
 8908              	_ZTIN12_GLOBAL__N_136TestCheckEqualFailureIncludesDetailsE:
 8909 09c0 00000000 		.quad	_ZTVN10__cxxabiv120__si_class_type_infoE+16
 8909      00000000 
 8910 09c8 00000000 		.quad	_ZTSN12_GLOBAL__N_136TestCheckEqualFailureIncludesDetailsE
 8910      00000000 
 8911 09d0 00000000 		.quad	_ZTIN8UnitTest4TestE
 8911      00000000 
 8912 09d8 00000000 		.align 16
 8912      00000000 
 8915              	_ZTIN12_GLOBAL__N_151TestCheckEqualFailureIncludesCheckExpectedAndActualE:
 8916 09e0 00000000 		.quad	_ZTVN10__cxxabiv120__si_class_type_infoE+16
 8916      00000000 
 8917 09e8 00000000 		.quad	_ZTSN12_GLOBAL__N_151TestCheckEqualFailureIncludesCheckExpectedAndActualE
 8917      00000000 
 8918 09f0 00000000 		.quad	_ZTIN8UnitTest4TestE
 8918      00000000 
 8919 09f8 00000000 		.align 16
 8919      00000000 
 8922              	_ZTIN12_GLOBAL__N_153TestCheckEqualsWithStringsWorksOnContentsWithALiteralE:
 8923 0a00 00000000 		.quad	_ZTVN10__cxxabiv120__si_class_type_infoE+16
 8923      00000000 
 8924 0a08 00000000 		.quad	_ZTSN12_GLOBAL__N_153TestCheckEqualsWithStringsWorksOnContentsWithALiteralE
 8924      00000000 
 8925 0a10 00000000 		.quad	_ZTIN8UnitTest4TestE
 8925      00000000 
 8926 0a18 00000000 		.align 16
 8926      00000000 
 8929              	_ZTIN12_GLOBAL__N_154TestCheckEqualsWithStringsWorksOnContentsConstNonConstE:
 8930 0a20 00000000 		.quad	_ZTVN10__cxxabiv120__si_class_type_infoE+16
 8930      00000000 
 8931 0a28 00000000 		.quad	_ZTSN12_GLOBAL__N_154TestCheckEqualsWithStringsWorksOnContentsConstNonConstE
 8931      00000000 
 8932 0a30 00000000 		.quad	_ZTIN8UnitTest4TestE
 8932      00000000 
 8933 0a38 00000000 		.align 16
 8933      00000000 
 8936              	_ZTIN12_GLOBAL__N_154TestCheckEqualsWithStringsWorksOnContentsNonConstConstE:
 8937 0a40 00000000 		.quad	_ZTVN10__cxxabiv120__si_class_type_infoE+16
 8937      00000000 
 8938 0a48 00000000 		.quad	_ZTSN12_GLOBAL__N_154TestCheckEqualsWithStringsWorksOnContentsNonConstConstE
 8938      00000000 
 8939 0a50 00000000 		.quad	_ZTIN8UnitTest4TestE
 8939      00000000 
 8940 0a58 00000000 		.align 16
 8940      00000000 
 8943              	_ZTIN12_GLOBAL__N_151TestCheckEqualsWithStringsWorksOnContentsConstConstE:
 8944 0a60 00000000 		.quad	_ZTVN10__cxxabiv120__si_class_type_infoE+16
 8944      00000000 
 8945 0a68 00000000 		.quad	_ZTSN12_GLOBAL__N_151TestCheckEqualsWithStringsWorksOnContentsConstConstE
 8945      00000000 
 8946 0a70 00000000 		.quad	_ZTIN8UnitTest4TestE
 8946      00000000 
 8947 0a78 00000000 		.align 16
 8947      00000000 
 8950              	_ZTIN12_GLOBAL__N_157TestCheckEqualsWithStringsWorksOnContentsNonConstNonConstE:
 8951 0a80 00000000 		.quad	_ZTVN10__cxxabiv120__si_class_type_infoE+16
 8951      00000000 
 8952 0a88 00000000 		.quad	_ZTSN12_GLOBAL__N_157TestCheckEqualsWithStringsWorksOnContentsNonConstNonConstE
 8952      00000000 
 8953 0a90 00000000 		.quad	_ZTIN8UnitTest4TestE
 8953      00000000 
 8954 0a98 00000000 		.align 16
 8954      00000000 
 8957              	_ZTIN12_GLOBAL__N_149TestCheckEqualsWithStringsFailsOnDifferentStringsE:
 8958 0aa0 00000000 		.quad	_ZTVN10__cxxabiv120__si_class_type_infoE+16
 8958      00000000 
 8959 0aa8 00000000 		.quad	_ZTSN12_GLOBAL__N_149TestCheckEqualsWithStringsFailsOnDifferentStringsE
 8959      00000000 
 8960 0ab0 00000000 		.quad	_ZTIN8UnitTest4TestE
 8960      00000000 
 8961 0ab8 00000000 		.align 16
 8961      00000000 
 8964              	_ZTIN12_GLOBAL__N_130TestCheckEqualWithUnsignedLongE:
 8965 0ac0 00000000 		.quad	_ZTVN10__cxxabiv120__si_class_type_infoE+16
 8965      00000000 
 8966 0ac8 00000000 		.quad	_ZTSN12_GLOBAL__N_130TestCheckEqualWithUnsignedLongE
 8966      00000000 
 8967 0ad0 00000000 		.quad	_ZTIN8UnitTest4TestE
 8967      00000000 
 8968              		.weak	_ZTIN8UnitTest15MemoryOutStreamE
 8969              		.section	.rodata._ZTIN8UnitTest15MemoryOutStreamE,"aG",@progbits,_ZTIN8UnitTest15MemoryOutStreamE,
 8970              		.align 16
 8973              	_ZTIN8UnitTest15MemoryOutStreamE:
 8974 0000 00000000 		.quad	_ZTVN10__cxxabiv120__si_class_type_infoE+16
 8974      00000000 
 8975 0008 00000000 		.quad	_ZTSN8UnitTest15MemoryOutStreamE
 8975      00000000 
 8976 0010 00000000 		.quad	_ZTISt19basic_ostringstreamIcSt11char_traitsIcESaIcEE
 8976      00000000 
 8977              		.weak	_ZTSN8UnitTest15MemoryOutStreamE
 8978              		.section	.rodata._ZTSN8UnitTest15MemoryOutStreamE,"aG",@progbits,_ZTSN8UnitTest15MemoryOutStreamE,
 8979              		.align 16
 8982              	_ZTSN8UnitTest15MemoryOutStreamE:
 8983 0000 4E38556E 		.string	"N8UnitTest15MemoryOutStreamE"
 8983      69745465 
 8983      73743135 
 8983      4D656D6F 
 8983      72794F75 
 8984              		.weak	_ZTI17RecordingReporter
 8985              		.section	.rodata._ZTI17RecordingReporter,"aG",@progbits,_ZTI17RecordingReporter,comdat
 8986              		.align 16
 8989              	_ZTI17RecordingReporter:
 8990 0000 00000000 		.quad	_ZTVN10__cxxabiv120__si_class_type_infoE+16
 8990      00000000 
 8991 0008 00000000 		.quad	_ZTS17RecordingReporter
 8991      00000000 
 8992 0010 00000000 		.quad	_ZTIN8UnitTest12TestReporterE
 8992      00000000 
 8993              		.weak	_ZTS17RecordingReporter
 8994              		.section	.rodata._ZTS17RecordingReporter,"aG",@progbits,_ZTS17RecordingReporter,comdat
 8995              		.align 16
 8998              	_ZTS17RecordingReporter:
 8999 0000 31375265 		.string	"17RecordingReporter"
 8999      636F7264 
 8999      696E6752 
 8999      65706F72 
 8999      74657200 
 9000              		.hidden	_ZTCN8UnitTest15MemoryOutStreamE0_So
 9001              		.weak	_ZTCN8UnitTest15MemoryOutStreamE0_So
 9002              		.section	.rodata._ZTCN8UnitTest15MemoryOutStreamE0_So,"aG",@progbits,_ZTVN8UnitTest15MemoryOutStre
 9003              		.align 32
 9006              	_ZTCN8UnitTest15MemoryOutStreamE0_So:
 9007 0000 60000000 		.quad	96
 9007      00000000 
 9008 0008 00000000 		.quad	0
 9008      00000000 
 9009 0010 00000000 		.quad	_ZTISo
 9009      00000000 
 9010 0018 00000000 		.quad	_ZNSoD1Ev
 9010      00000000 
 9011 0020 00000000 		.quad	_ZNSoD0Ev
 9011      00000000 
 9012 0028 A0FFFFFF 		.quad	-96
 9012      FFFFFFFF 
 9013 0030 A0FFFFFF 		.quad	-96
 9013      FFFFFFFF 
 9014 0038 00000000 		.quad	_ZTISo
 9014      00000000 
 9015 0040 00000000 		.quad	_ZTv0_n24_NSoD1Ev
 9015      00000000 
 9016 0048 00000000 		.quad	_ZTv0_n24_NSoD0Ev
 9016      00000000 
 9017              		.hidden	_ZTCN8UnitTest15MemoryOutStreamE0_St19basic_ostringstreamIcSt11char_traitsIcESaIcEE
 9018              		.weak	_ZTCN8UnitTest15MemoryOutStreamE0_St19basic_ostringstreamIcSt11char_traitsIcESaIcEE
 9019              		.section	.rodata._ZTCN8UnitTest15MemoryOutStreamE0_St19basic_ostringstreamIcSt11char_traitsIcESaIc
 9020              		.align 32
 9023              	_ZTCN8UnitTest15MemoryOutStreamE0_St19basic_ostringstreamIcSt11char_traitsIcESaIcEE:
 9024 0000 60000000 		.quad	96
 9024      00000000 
 9025 0008 00000000 		.quad	0
 9025      00000000 
 9026 0010 00000000 		.quad	_ZTISt19basic_ostringstreamIcSt11char_traitsIcESaIcEE
 9026      00000000 
 9027 0018 00000000 		.quad	_ZNSt19basic_ostringstreamIcSt11char_traitsIcESaIcEED1Ev
 9027      00000000 
 9028 0020 00000000 		.quad	_ZNSt19basic_ostringstreamIcSt11char_traitsIcESaIcEED0Ev
 9028      00000000 
 9029 0028 A0FFFFFF 		.quad	-96
 9029      FFFFFFFF 
 9030 0030 A0FFFFFF 		.quad	-96
 9030      FFFFFFFF 
 9031 0038 00000000 		.quad	_ZTISt19basic_ostringstreamIcSt11char_traitsIcESaIcEE
 9031      00000000 
 9032 0040 00000000 		.quad	_ZTv0_n24_NSt19basic_ostringstreamIcSt11char_traitsIcESaIcEED1Ev
 9032      00000000 
 9033 0048 00000000 		.quad	_ZTv0_n24_NSt19basic_ostringstreamIcSt11char_traitsIcESaIcEED0Ev
 9033      00000000 
 9034              		.weak	_ZTTN8UnitTest15MemoryOutStreamE
 9035              		.section	.rodata._ZTTN8UnitTest15MemoryOutStreamE,"aG",@progbits,_ZTVN8UnitTest15MemoryOutStreamE,
 9036              		.align 32
 9039              	_ZTTN8UnitTest15MemoryOutStreamE:
 9040 0000 00000000 		.quad	_ZTVN8UnitTest15MemoryOutStreamE+24
 9040      00000000 
 9041 0008 00000000 		.quad	_ZTCN8UnitTest15MemoryOutStreamE0_St19basic_ostringstreamIcSt11char_traitsIcESaIcEE+24
 9041      00000000 
 9042 0010 00000000 		.quad	_ZTCN8UnitTest15MemoryOutStreamE0_So+24
 9042      00000000 
 9043 0018 00000000 		.quad	_ZTCN8UnitTest15MemoryOutStreamE0_So+64
 9043      00000000 
 9044 0020 00000000 		.quad	_ZTCN8UnitTest15MemoryOutStreamE0_St19basic_ostringstreamIcSt11char_traitsIcESaIcEE+64
 9044      00000000 
 9045 0028 00000000 		.quad	_ZTVN8UnitTest15MemoryOutStreamE+64
 9045      00000000 
 9046              		.weak	_ZTVN8UnitTest15MemoryOutStreamE
 9047              		.section	.rodata._ZTVN8UnitTest15MemoryOutStreamE,"aG",@progbits,_ZTVN8UnitTest15MemoryOutStreamE,
 9048              		.align 32
 9051              	_ZTVN8UnitTest15MemoryOutStreamE:
 9052 0000 60000000 		.quad	96
 9052      00000000 
 9053 0008 00000000 		.quad	0
 9053      00000000 
 9054 0010 00000000 		.quad	_ZTIN8UnitTest15MemoryOutStreamE
 9054      00000000 
 9055 0018 00000000 		.quad	_ZN8UnitTest15MemoryOutStreamD1Ev
 9055      00000000 
 9056 0020 00000000 		.quad	_ZN8UnitTest15MemoryOutStreamD0Ev
 9056      00000000 
 9057 0028 A0FFFFFF 		.quad	-96
 9057      FFFFFFFF 
 9058 0030 A0FFFFFF 		.quad	-96
 9058      FFFFFFFF 
 9059 0038 00000000 		.quad	_ZTIN8UnitTest15MemoryOutStreamE
 9059      00000000 
 9060 0040 00000000 		.quad	_ZTv0_n24_N8UnitTest15MemoryOutStreamD1Ev
 9060      00000000 
 9061 0048 00000000 		.quad	_ZTv0_n24_N8UnitTest15MemoryOutStreamD0Ev
 9061      00000000 
 9062              		.weak	_ZTV17RecordingReporter
 9063              		.section	.rodata._ZTV17RecordingReporter,"aG",@progbits,_ZTV17RecordingReporter,comdat
 9064              		.align 32
 9067              	_ZTV17RecordingReporter:
 9068 0000 00000000 		.quad	0
 9068      00000000 
 9069 0008 00000000 		.quad	_ZTI17RecordingReporter
 9069      00000000 
 9070 0010 00000000 		.quad	_ZN17RecordingReporterD1Ev
 9070      00000000 
 9071 0018 00000000 		.quad	_ZN17RecordingReporterD0Ev
 9071      00000000 
 9072 0020 00000000 		.quad	_ZN17RecordingReporter15ReportTestStartERKN8UnitTest11TestDetailsE
 9072      00000000 
 9073 0028 00000000 		.quad	_ZN17RecordingReporter13ReportFailureERKN8UnitTest11TestDetailsEPKc
 9073      00000000 
 9074 0030 00000000 		.quad	_ZN17RecordingReporter16ReportTestFinishERKN8UnitTest11TestDetailsEf
 9074      00000000 
 9075 0038 00000000 		.quad	_ZN17RecordingReporter13ReportSummaryEiiif
 9075      00000000 
 9076              		.section	.rodata
 9077 0ad8 00000000 		.align 32
 9077      00000000 
 9080              	_ZTVN12_GLOBAL__N_130TestCheckEqualWithUnsignedLongE:
 9081 0ae0 00000000 		.quad	0
 9081      00000000 
 9082 0ae8 00000000 		.quad	_ZTIN12_GLOBAL__N_130TestCheckEqualWithUnsignedLongE
 9082      00000000 
 9083 0af0 00000000 		.quad	_ZN12_GLOBAL__N_130TestCheckEqualWithUnsignedLongD1Ev
 9083      00000000 
 9084 0af8 00000000 		.quad	_ZN12_GLOBAL__N_130TestCheckEqualWithUnsignedLongD0Ev
 9084      00000000 
 9085 0b00 00000000 		.quad	_ZNK12_GLOBAL__N_130TestCheckEqualWithUnsignedLong7RunImplEv
 9085      00000000 
 9086 0b08 00000000 		.align 32
 9086      00000000 
 9086      00000000 
 9086      00000000 
 9086      00000000 
 9089              	_ZTVN12_GLOBAL__N_149TestCheckEqualsWithStringsFailsOnDifferentStringsE:
 9090 0b20 00000000 		.quad	0
 9090      00000000 
 9091 0b28 00000000 		.quad	_ZTIN12_GLOBAL__N_149TestCheckEqualsWithStringsFailsOnDifferentStringsE
 9091      00000000 
 9092 0b30 00000000 		.quad	_ZN12_GLOBAL__N_149TestCheckEqualsWithStringsFailsOnDifferentStringsD1Ev
 9092      00000000 
 9093 0b38 00000000 		.quad	_ZN12_GLOBAL__N_149TestCheckEqualsWithStringsFailsOnDifferentStringsD0Ev
 9093      00000000 
 9094 0b40 00000000 		.quad	_ZNK12_GLOBAL__N_149TestCheckEqualsWithStringsFailsOnDifferentStrings7RunImplEv
 9094      00000000 
 9095 0b48 00000000 		.align 32
 9095      00000000 
 9095      00000000 
 9095      00000000 
 9095      00000000 
 9098              	_ZTVN12_GLOBAL__N_157TestCheckEqualsWithStringsWorksOnContentsNonConstNonConstE:
 9099 0b60 00000000 		.quad	0
 9099      00000000 
 9100 0b68 00000000 		.quad	_ZTIN12_GLOBAL__N_157TestCheckEqualsWithStringsWorksOnContentsNonConstNonConstE
 9100      00000000 
 9101 0b70 00000000 		.quad	_ZN12_GLOBAL__N_157TestCheckEqualsWithStringsWorksOnContentsNonConstNonConstD1Ev
 9101      00000000 
 9102 0b78 00000000 		.quad	_ZN12_GLOBAL__N_157TestCheckEqualsWithStringsWorksOnContentsNonConstNonConstD0Ev
 9102      00000000 
 9103 0b80 00000000 		.quad	_ZNK12_GLOBAL__N_157TestCheckEqualsWithStringsWorksOnContentsNonConstNonConst7RunImplEv
 9103      00000000 
 9104 0b88 00000000 		.align 32
 9104      00000000 
 9104      00000000 
 9104      00000000 
 9104      00000000 
 9107              	_ZTVN12_GLOBAL__N_151TestCheckEqualsWithStringsWorksOnContentsConstConstE:
 9108 0ba0 00000000 		.quad	0
 9108      00000000 
 9109 0ba8 00000000 		.quad	_ZTIN12_GLOBAL__N_151TestCheckEqualsWithStringsWorksOnContentsConstConstE
 9109      00000000 
 9110 0bb0 00000000 		.quad	_ZN12_GLOBAL__N_151TestCheckEqualsWithStringsWorksOnContentsConstConstD1Ev
 9110      00000000 
 9111 0bb8 00000000 		.quad	_ZN12_GLOBAL__N_151TestCheckEqualsWithStringsWorksOnContentsConstConstD0Ev
 9111      00000000 
 9112 0bc0 00000000 		.quad	_ZNK12_GLOBAL__N_151TestCheckEqualsWithStringsWorksOnContentsConstConst7RunImplEv
 9112      00000000 
 9113 0bc8 00000000 		.align 32
 9113      00000000 
 9113      00000000 
 9113      00000000 
 9113      00000000 
 9116              	_ZTVN12_GLOBAL__N_154TestCheckEqualsWithStringsWorksOnContentsNonConstConstE:
 9117 0be0 00000000 		.quad	0
 9117      00000000 
 9118 0be8 00000000 		.quad	_ZTIN12_GLOBAL__N_154TestCheckEqualsWithStringsWorksOnContentsNonConstConstE
 9118      00000000 
 9119 0bf0 00000000 		.quad	_ZN12_GLOBAL__N_154TestCheckEqualsWithStringsWorksOnContentsNonConstConstD1Ev
 9119      00000000 
 9120 0bf8 00000000 		.quad	_ZN12_GLOBAL__N_154TestCheckEqualsWithStringsWorksOnContentsNonConstConstD0Ev
 9120      00000000 
 9121 0c00 00000000 		.quad	_ZNK12_GLOBAL__N_154TestCheckEqualsWithStringsWorksOnContentsNonConstConst7RunImplEv
 9121      00000000 
 9122 0c08 00000000 		.align 32
 9122      00000000 
 9122      00000000 
 9122      00000000 
 9122      00000000 
 9125              	_ZTVN12_GLOBAL__N_154TestCheckEqualsWithStringsWorksOnContentsConstNonConstE:
 9126 0c20 00000000 		.quad	0
 9126      00000000 
 9127 0c28 00000000 		.quad	_ZTIN12_GLOBAL__N_154TestCheckEqualsWithStringsWorksOnContentsConstNonConstE
 9127      00000000 
 9128 0c30 00000000 		.quad	_ZN12_GLOBAL__N_154TestCheckEqualsWithStringsWorksOnContentsConstNonConstD1Ev
 9128      00000000 
 9129 0c38 00000000 		.quad	_ZN12_GLOBAL__N_154TestCheckEqualsWithStringsWorksOnContentsConstNonConstD0Ev
 9129      00000000 
 9130 0c40 00000000 		.quad	_ZNK12_GLOBAL__N_154TestCheckEqualsWithStringsWorksOnContentsConstNonConst7RunImplEv
 9130      00000000 
 9131 0c48 00000000 		.align 32
 9131      00000000 
 9131      00000000 
 9131      00000000 
 9131      00000000 
 9134              	_ZTVN12_GLOBAL__N_153TestCheckEqualsWithStringsWorksOnContentsWithALiteralE:
 9135 0c60 00000000 		.quad	0
 9135      00000000 
 9136 0c68 00000000 		.quad	_ZTIN12_GLOBAL__N_153TestCheckEqualsWithStringsWorksOnContentsWithALiteralE
 9136      00000000 
 9137 0c70 00000000 		.quad	_ZN12_GLOBAL__N_153TestCheckEqualsWithStringsWorksOnContentsWithALiteralD1Ev
 9137      00000000 
 9138 0c78 00000000 		.quad	_ZN12_GLOBAL__N_153TestCheckEqualsWithStringsWorksOnContentsWithALiteralD0Ev
 9138      00000000 
 9139 0c80 00000000 		.quad	_ZNK12_GLOBAL__N_153TestCheckEqualsWithStringsWorksOnContentsWithALiteral7RunImplEv
 9139      00000000 
 9140 0c88 00000000 		.align 32
 9140      00000000 
 9140      00000000 
 9140      00000000 
 9140      00000000 
 9143              	_ZTVN12_GLOBAL__N_151TestCheckEqualFailureIncludesCheckExpectedAndActualE:
 9144 0ca0 00000000 		.quad	0
 9144      00000000 
 9145 0ca8 00000000 		.quad	_ZTIN12_GLOBAL__N_151TestCheckEqualFailureIncludesCheckExpectedAndActualE
 9145      00000000 
 9146 0cb0 00000000 		.quad	_ZN12_GLOBAL__N_151TestCheckEqualFailureIncludesCheckExpectedAndActualD1Ev
 9146      00000000 
 9147 0cb8 00000000 		.quad	_ZN12_GLOBAL__N_151TestCheckEqualFailureIncludesCheckExpectedAndActualD0Ev
 9147      00000000 
 9148 0cc0 00000000 		.quad	_ZNK12_GLOBAL__N_151TestCheckEqualFailureIncludesCheckExpectedAndActual7RunImplEv
 9148      00000000 
 9149 0cc8 00000000 		.align 32
 9149      00000000 
 9149      00000000 
 9149      00000000 
 9149      00000000 
 9152              	_ZTVN12_GLOBAL__N_136TestCheckEqualFailureIncludesDetailsE:
 9153 0ce0 00000000 		.quad	0
 9153      00000000 
 9154 0ce8 00000000 		.quad	_ZTIN12_GLOBAL__N_136TestCheckEqualFailureIncludesDetailsE
 9154      00000000 
 9155 0cf0 00000000 		.quad	_ZN12_GLOBAL__N_136TestCheckEqualFailureIncludesDetailsD1Ev
 9155      00000000 
 9156 0cf8 00000000 		.quad	_ZN12_GLOBAL__N_136TestCheckEqualFailureIncludesDetailsD0Ev
 9156      00000000 
 9157 0d00 00000000 		.quad	_ZNK12_GLOBAL__N_136TestCheckEqualFailureIncludesDetails7RunImplEv
 9157      00000000 
 9158 0d08 00000000 		.align 32
 9158      00000000 
 9158      00000000 
 9158      00000000 
 9158      00000000 
 9161              	_ZTVN12_GLOBAL__N_118TestCheckCloseTrueE:
 9162 0d20 00000000 		.quad	0
 9162      00000000 
 9163 0d28 00000000 		.quad	_ZTIN12_GLOBAL__N_118TestCheckCloseTrueE
 9163      00000000 
 9164 0d30 00000000 		.quad	_ZN12_GLOBAL__N_118TestCheckCloseTrueD1Ev
 9164      00000000 
 9165 0d38 00000000 		.quad	_ZN12_GLOBAL__N_118TestCheckCloseTrueD0Ev
 9165      00000000 
 9166 0d40 00000000 		.quad	_ZNK12_GLOBAL__N_118TestCheckCloseTrue7RunImplEv
 9166      00000000 
 9167 0d48 00000000 		.align 32
 9167      00000000 
 9167      00000000 
 9167      00000000 
 9167      00000000 
 9170              	_ZTVN12_GLOBAL__N_119TestCheckCloseFalseE:
 9171 0d60 00000000 		.quad	0
 9171      00000000 
 9172 0d68 00000000 		.quad	_ZTIN12_GLOBAL__N_119TestCheckCloseFalseE
 9172      00000000 
 9173 0d70 00000000 		.quad	_ZN12_GLOBAL__N_119TestCheckCloseFalseD1Ev
 9173      00000000 
 9174 0d78 00000000 		.quad	_ZN12_GLOBAL__N_119TestCheckCloseFalseD0Ev
 9174      00000000 
 9175 0d80 00000000 		.quad	_ZNK12_GLOBAL__N_119TestCheckCloseFalse7RunImplEv
 9175      00000000 
 9176 0d88 00000000 		.align 32
 9176      00000000 
 9176      00000000 
 9176      00000000 
 9176      00000000 
 9179              	_ZTVN12_GLOBAL__N_147TestCheckCloseWithZeroEpsilonWorksForSameNumberE:
 9180 0da0 00000000 		.quad	0
 9180      00000000 
 9181 0da8 00000000 		.quad	_ZTIN12_GLOBAL__N_147TestCheckCloseWithZeroEpsilonWorksForSameNumberE
 9181      00000000 
 9182 0db0 00000000 		.quad	_ZN12_GLOBAL__N_147TestCheckCloseWithZeroEpsilonWorksForSameNumberD1Ev
 9182      00000000 
 9183 0db8 00000000 		.quad	_ZN12_GLOBAL__N_147TestCheckCloseWithZeroEpsilonWorksForSameNumberD0Ev
 9183      00000000 
 9184 0dc0 00000000 		.quad	_ZNK12_GLOBAL__N_147TestCheckCloseWithZeroEpsilonWorksForSameNumber7RunImplEv
 9184      00000000 
 9185 0dc8 00000000 		.align 32
 9185      00000000 
 9185      00000000 
 9185      00000000 
 9185      00000000 
 9188              	_ZTVN12_GLOBAL__N_126TestCheckCloseWithNaNFailsE:
 9189 0de0 00000000 		.quad	0
 9189      00000000 
 9190 0de8 00000000 		.quad	_ZTIN12_GLOBAL__N_126TestCheckCloseWithNaNFailsE
 9190      00000000 
 9191 0df0 00000000 		.quad	_ZN12_GLOBAL__N_126TestCheckCloseWithNaNFailsD1Ev
 9191      00000000 
 9192 0df8 00000000 		.quad	_ZN12_GLOBAL__N_126TestCheckCloseWithNaNFailsD0Ev
 9192      00000000 
 9193 0e00 00000000 		.quad	_ZNK12_GLOBAL__N_126TestCheckCloseWithNaNFails7RunImplEv
 9193      00000000 
 9194 0e08 00000000 		.align 32
 9194      00000000 
 9194      00000000 
 9194      00000000 
 9194      00000000 
 9197              	_ZTVN12_GLOBAL__N_139TestCheckCloseWithNaNAgainstItselfFailsE:
 9198 0e20 00000000 		.quad	0
 9198      00000000 
 9199 0e28 00000000 		.quad	_ZTIN12_GLOBAL__N_139TestCheckCloseWithNaNAgainstItselfFailsE
 9199      00000000 
 9200 0e30 00000000 		.quad	_ZN12_GLOBAL__N_139TestCheckCloseWithNaNAgainstItselfFailsD1Ev
 9200      00000000 
 9201 0e38 00000000 		.quad	_ZN12_GLOBAL__N_139TestCheckCloseWithNaNAgainstItselfFailsD0Ev
 9201      00000000 
 9202 0e40 00000000 		.quad	_ZNK12_GLOBAL__N_139TestCheckCloseWithNaNAgainstItselfFails7RunImplEv
 9202      00000000 
 9203 0e48 00000000 		.align 32
 9203      00000000 
 9203      00000000 
 9203      00000000 
 9203      00000000 
 9206              	_ZTVN12_GLOBAL__N_151TestCheckCloseFailureIncludesCheckExpectedAndActualE:
 9207 0e60 00000000 		.quad	0
 9207      00000000 
 9208 0e68 00000000 		.quad	_ZTIN12_GLOBAL__N_151TestCheckCloseFailureIncludesCheckExpectedAndActualE
 9208      00000000 
 9209 0e70 00000000 		.quad	_ZN12_GLOBAL__N_151TestCheckCloseFailureIncludesCheckExpectedAndActualD1Ev
 9209      00000000 
 9210 0e78 00000000 		.quad	_ZN12_GLOBAL__N_151TestCheckCloseFailureIncludesCheckExpectedAndActualD0Ev
 9210      00000000 
 9211 0e80 00000000 		.quad	_ZNK12_GLOBAL__N_151TestCheckCloseFailureIncludesCheckExpectedAndActual7RunImplEv
 9211      00000000 
 9212 0e88 00000000 		.align 32
 9212      00000000 
 9212      00000000 
 9212      00000000 
 9212      00000000 
 9215              	_ZTVN12_GLOBAL__N_138TestCheckCloseFailureIncludesToleranceE:
 9216 0ea0 00000000 		.quad	0
 9216      00000000 
 9217 0ea8 00000000 		.quad	_ZTIN12_GLOBAL__N_138TestCheckCloseFailureIncludesToleranceE
 9217      00000000 
 9218 0eb0 00000000 		.quad	_ZN12_GLOBAL__N_138TestCheckCloseFailureIncludesToleranceD1Ev
 9218      00000000 
 9219 0eb8 00000000 		.quad	_ZN12_GLOBAL__N_138TestCheckCloseFailureIncludesToleranceD0Ev
 9219      00000000 
 9220 0ec0 00000000 		.quad	_ZNK12_GLOBAL__N_138TestCheckCloseFailureIncludesTolerance7RunImplEv
 9220      00000000 
 9221 0ec8 00000000 		.align 32
 9221      00000000 
 9221      00000000 
 9221      00000000 
 9221      00000000 
 9224              	_ZTVN12_GLOBAL__N_136TestCheckCloseFailureIncludesDetailsE:
 9225 0ee0 00000000 		.quad	0
 9225      00000000 
 9226 0ee8 00000000 		.quad	_ZTIN12_GLOBAL__N_136TestCheckCloseFailureIncludesDetailsE
 9226      00000000 
 9227 0ef0 00000000 		.quad	_ZN12_GLOBAL__N_136TestCheckCloseFailureIncludesDetailsD1Ev
 9227      00000000 
 9228 0ef8 00000000 		.quad	_ZN12_GLOBAL__N_136TestCheckCloseFailureIncludesDetailsD0Ev
 9228      00000000 
 9229 0f00 00000000 		.quad	_ZNK12_GLOBAL__N_136TestCheckCloseFailureIncludesDetails7RunImplEv
 9229      00000000 
 9230 0f08 00000000 		.align 32
 9230      00000000 
 9230      00000000 
 9230      00000000 
 9230      00000000 
 9233              	_ZTVN12_GLOBAL__N_123TestCheckArrayEqualTrueE:
 9234 0f20 00000000 		.quad	0
 9234      00000000 
 9235 0f28 00000000 		.quad	_ZTIN12_GLOBAL__N_123TestCheckArrayEqualTrueE
 9235      00000000 
 9236 0f30 00000000 		.quad	_ZN12_GLOBAL__N_123TestCheckArrayEqualTrueD1Ev
 9236      00000000 
 9237 0f38 00000000 		.quad	_ZN12_GLOBAL__N_123TestCheckArrayEqualTrueD0Ev
 9237      00000000 
 9238 0f40 00000000 		.quad	_ZNK12_GLOBAL__N_123TestCheckArrayEqualTrue7RunImplEv
 9238      00000000 
 9239 0f48 00000000 		.align 32
 9239      00000000 
 9239      00000000 
 9239      00000000 
 9239      00000000 
 9242              	_ZTVN12_GLOBAL__N_124TestCheckArrayEqualFalseE:
 9243 0f60 00000000 		.quad	0
 9243      00000000 
 9244 0f68 00000000 		.quad	_ZTIN12_GLOBAL__N_124TestCheckArrayEqualFalseE
 9244      00000000 
 9245 0f70 00000000 		.quad	_ZN12_GLOBAL__N_124TestCheckArrayEqualFalseD1Ev
 9245      00000000 
 9246 0f78 00000000 		.quad	_ZN12_GLOBAL__N_124TestCheckArrayEqualFalseD0Ev
 9246      00000000 
 9247 0f80 00000000 		.quad	_ZNK12_GLOBAL__N_124TestCheckArrayEqualFalse7RunImplEv
 9247      00000000 
 9248 0f88 00000000 		.align 32
 9248      00000000 
 9248      00000000 
 9248      00000000 
 9248      00000000 
 9251              	_ZTVN12_GLOBAL__N_123TestCheckArrayCloseTrueE:
 9252 0fa0 00000000 		.quad	0
 9252      00000000 
 9253 0fa8 00000000 		.quad	_ZTIN12_GLOBAL__N_123TestCheckArrayCloseTrueE
 9253      00000000 
 9254 0fb0 00000000 		.quad	_ZN12_GLOBAL__N_123TestCheckArrayCloseTrueD1Ev
 9254      00000000 
 9255 0fb8 00000000 		.quad	_ZN12_GLOBAL__N_123TestCheckArrayCloseTrueD0Ev
 9255      00000000 
 9256 0fc0 00000000 		.quad	_ZNK12_GLOBAL__N_123TestCheckArrayCloseTrue7RunImplEv
 9256      00000000 
 9257 0fc8 00000000 		.align 32
 9257      00000000 
 9257      00000000 
 9257      00000000 
 9257      00000000 
 9260              	_ZTVN12_GLOBAL__N_124TestCheckArrayCloseFalseE:
 9261 0fe0 00000000 		.quad	0
 9261      00000000 
 9262 0fe8 00000000 		.quad	_ZTIN12_GLOBAL__N_124TestCheckArrayCloseFalseE
 9262      00000000 
 9263 0ff0 00000000 		.quad	_ZN12_GLOBAL__N_124TestCheckArrayCloseFalseD1Ev
 9263      00000000 
 9264 0ff8 00000000 		.quad	_ZN12_GLOBAL__N_124TestCheckArrayCloseFalseD0Ev
 9264      00000000 
 9265 1000 00000000 		.quad	_ZNK12_GLOBAL__N_124TestCheckArrayCloseFalse7RunImplEv
 9265      00000000 
 9266 1008 00000000 		.align 32
 9266      00000000 
 9266      00000000 
 9266      00000000 
 9266      00000000 
 9269              	_ZTVN12_GLOBAL__N_141TestCheckArrayCloseFailureIncludesDetailsE:
 9270 1020 00000000 		.quad	0
 9270      00000000 
 9271 1028 00000000 		.quad	_ZTIN12_GLOBAL__N_141TestCheckArrayCloseFailureIncludesDetailsE
 9271      00000000 
 9272 1030 00000000 		.quad	_ZN12_GLOBAL__N_141TestCheckArrayCloseFailureIncludesDetailsD1Ev
 9272      00000000 
 9273 1038 00000000 		.quad	_ZN12_GLOBAL__N_141TestCheckArrayCloseFailureIncludesDetailsD0Ev
 9273      00000000 
 9274 1040 00000000 		.quad	_ZNK12_GLOBAL__N_141TestCheckArrayCloseFailureIncludesDetails7RunImplEv
 9274      00000000 
 9275 1048 00000000 		.align 32
 9275      00000000 
 9275      00000000 
 9275      00000000 
 9275      00000000 
 9278              	_ZTVN12_GLOBAL__N_125TestCheckArray2DCloseTrueE:
 9279 1060 00000000 		.quad	0
 9279      00000000 
 9280 1068 00000000 		.quad	_ZTIN12_GLOBAL__N_125TestCheckArray2DCloseTrueE
 9280      00000000 
 9281 1070 00000000 		.quad	_ZN12_GLOBAL__N_125TestCheckArray2DCloseTrueD1Ev
 9281      00000000 
 9282 1078 00000000 		.quad	_ZN12_GLOBAL__N_125TestCheckArray2DCloseTrueD0Ev
 9282      00000000 
 9283 1080 00000000 		.quad	_ZNK12_GLOBAL__N_125TestCheckArray2DCloseTrue7RunImplEv
 9283      00000000 
 9284 1088 00000000 		.align 32
 9284      00000000 
 9284      00000000 
 9284      00000000 
 9284      00000000 
 9287              	_ZTVN12_GLOBAL__N_126TestCheckArray2DCloseFalseE:
 9288 10a0 00000000 		.quad	0
 9288      00000000 
 9289 10a8 00000000 		.quad	_ZTIN12_GLOBAL__N_126TestCheckArray2DCloseFalseE
 9289      00000000 
 9290 10b0 00000000 		.quad	_ZN12_GLOBAL__N_126TestCheckArray2DCloseFalseD1Ev
 9290      00000000 
 9291 10b8 00000000 		.quad	_ZN12_GLOBAL__N_126TestCheckArray2DCloseFalseD0Ev
 9291      00000000 
 9292 10c0 00000000 		.quad	_ZNK12_GLOBAL__N_126TestCheckArray2DCloseFalse7RunImplEv
 9292      00000000 
 9293 10c8 00000000 		.align 32
 9293      00000000 
 9293      00000000 
 9293      00000000 
 9293      00000000 
 9296              	_ZTVN12_GLOBAL__N_133TestCheckCloseWithDoublesSucceedsE:
 9297 10e0 00000000 		.quad	0
 9297      00000000 
 9298 10e8 00000000 		.quad	_ZTIN12_GLOBAL__N_133TestCheckCloseWithDoublesSucceedsE
 9298      00000000 
 9299 10f0 00000000 		.quad	_ZN12_GLOBAL__N_133TestCheckCloseWithDoublesSucceedsD1Ev
 9299      00000000 
 9300 10f8 00000000 		.quad	_ZN12_GLOBAL__N_133TestCheckCloseWithDoublesSucceedsD0Ev
 9300      00000000 
 9301 1100 00000000 		.quad	_ZNK12_GLOBAL__N_133TestCheckCloseWithDoublesSucceeds7RunImplEv
 9301      00000000 
 9302 1108 00000000 		.align 32
 9302      00000000 
 9302      00000000 
 9302      00000000 
 9302      00000000 
 9305              	_ZTVN12_GLOBAL__N_143TestCheckArray2DCloseFailureIncludesDetailsE:
 9306 1120 00000000 		.quad	0
 9306      00000000 
 9307 1128 00000000 		.quad	_ZTIN12_GLOBAL__N_143TestCheckArray2DCloseFailureIncludesDetailsE
 9307      00000000 
 9308 1130 00000000 		.quad	_ZN12_GLOBAL__N_143TestCheckArray2DCloseFailureIncludesDetailsD1Ev
 9308      00000000 
 9309 1138 00000000 		.quad	_ZN12_GLOBAL__N_143TestCheckArray2DCloseFailureIncludesDetailsD0Ev
 9309      00000000 
 9310 1140 00000000 		.quad	_ZNK12_GLOBAL__N_143TestCheckArray2DCloseFailureIncludesDetails7RunImplEv
 9310      00000000 
 9311              		.local	_ZN12_GLOBAL__N_144adderCheckArray2DCloseFailureIncludesDetailsE
 9312              		.comm	_ZN12_GLOBAL__N_144adderCheckArray2DCloseFailureIncludesDetailsE,1,1
 9313              		.local	_ZN12_GLOBAL__N_151testCheckArray2DCloseFailureIncludesDetailsInstanceE
 9314              		.comm	_ZN12_GLOBAL__N_151testCheckArray2DCloseFailureIncludesDetailsInstanceE,56,32
 9315              		.local	_ZN12_GLOBAL__N_134adderCheckCloseWithDoublesSucceedsE
 9316              		.comm	_ZN12_GLOBAL__N_134adderCheckCloseWithDoublesSucceedsE,1,1
 9317              		.local	_ZN12_GLOBAL__N_141testCheckCloseWithDoublesSucceedsInstanceE
 9318              		.comm	_ZN12_GLOBAL__N_141testCheckCloseWithDoublesSucceedsInstanceE,56,32
 9319              		.local	_ZN12_GLOBAL__N_127adderCheckArray2DCloseFalseE
 9320              		.comm	_ZN12_GLOBAL__N_127adderCheckArray2DCloseFalseE,1,1
 9321              		.local	_ZN12_GLOBAL__N_134testCheckArray2DCloseFalseInstanceE
 9322              		.comm	_ZN12_GLOBAL__N_134testCheckArray2DCloseFalseInstanceE,56,32
 9323              		.local	_ZN12_GLOBAL__N_126adderCheckArray2DCloseTrueE
 9324              		.comm	_ZN12_GLOBAL__N_126adderCheckArray2DCloseTrueE,1,1
 9325              		.local	_ZN12_GLOBAL__N_133testCheckArray2DCloseTrueInstanceE
 9326              		.comm	_ZN12_GLOBAL__N_133testCheckArray2DCloseTrueInstanceE,56,32
 9327              		.local	_ZN12_GLOBAL__N_142adderCheckArrayCloseFailureIncludesDetailsE
 9328              		.comm	_ZN12_GLOBAL__N_142adderCheckArrayCloseFailureIncludesDetailsE,1,1
 9329              		.local	_ZN12_GLOBAL__N_149testCheckArrayCloseFailureIncludesDetailsInstanceE
 9330              		.comm	_ZN12_GLOBAL__N_149testCheckArrayCloseFailureIncludesDetailsInstanceE,56,32
 9331              		.local	_ZN12_GLOBAL__N_125adderCheckArrayCloseFalseE
 9332              		.comm	_ZN12_GLOBAL__N_125adderCheckArrayCloseFalseE,1,1
 9333              		.local	_ZN12_GLOBAL__N_132testCheckArrayCloseFalseInstanceE
 9334              		.comm	_ZN12_GLOBAL__N_132testCheckArrayCloseFalseInstanceE,56,32
 9335              		.local	_ZN12_GLOBAL__N_124adderCheckArrayCloseTrueE
 9336              		.comm	_ZN12_GLOBAL__N_124adderCheckArrayCloseTrueE,1,1
 9337              		.local	_ZN12_GLOBAL__N_131testCheckArrayCloseTrueInstanceE
 9338              		.comm	_ZN12_GLOBAL__N_131testCheckArrayCloseTrueInstanceE,56,32
 9339              		.local	_ZN12_GLOBAL__N_125adderCheckArrayEqualFalseE
 9340              		.comm	_ZN12_GLOBAL__N_125adderCheckArrayEqualFalseE,1,1
 9341              		.local	_ZN12_GLOBAL__N_132testCheckArrayEqualFalseInstanceE
 9342              		.comm	_ZN12_GLOBAL__N_132testCheckArrayEqualFalseInstanceE,56,32
 9343              		.local	_ZN12_GLOBAL__N_124adderCheckArrayEqualTrueE
 9344              		.comm	_ZN12_GLOBAL__N_124adderCheckArrayEqualTrueE,1,1
 9345              		.local	_ZN12_GLOBAL__N_131testCheckArrayEqualTrueInstanceE
 9346              		.comm	_ZN12_GLOBAL__N_131testCheckArrayEqualTrueInstanceE,56,32
 9347              		.local	_ZN12_GLOBAL__N_137adderCheckCloseFailureIncludesDetailsE
 9348              		.comm	_ZN12_GLOBAL__N_137adderCheckCloseFailureIncludesDetailsE,1,1
 9349              		.local	_ZN12_GLOBAL__N_144testCheckCloseFailureIncludesDetailsInstanceE
 9350              		.comm	_ZN12_GLOBAL__N_144testCheckCloseFailureIncludesDetailsInstanceE,56,32
 9351              		.local	_ZN12_GLOBAL__N_139adderCheckCloseFailureIncludesToleranceE
 9352              		.comm	_ZN12_GLOBAL__N_139adderCheckCloseFailureIncludesToleranceE,1,1
 9353              		.local	_ZN12_GLOBAL__N_146testCheckCloseFailureIncludesToleranceInstanceE
 9354              		.comm	_ZN12_GLOBAL__N_146testCheckCloseFailureIncludesToleranceInstanceE,56,32
 9355              		.local	_ZN12_GLOBAL__N_152adderCheckCloseFailureIncludesCheckExpectedAndActualE
 9356              		.comm	_ZN12_GLOBAL__N_152adderCheckCloseFailureIncludesCheckExpectedAndActualE,1,1
 9357              		.local	_ZN12_GLOBAL__N_159testCheckCloseFailureIncludesCheckExpectedAndActualInstanceE
 9358              		.comm	_ZN12_GLOBAL__N_159testCheckCloseFailureIncludesCheckExpectedAndActualInstanceE,56,32
 9359              		.local	_ZN12_GLOBAL__N_140adderCheckCloseWithNaNAgainstItselfFailsE
 9360              		.comm	_ZN12_GLOBAL__N_140adderCheckCloseWithNaNAgainstItselfFailsE,1,1
 9361              		.local	_ZN12_GLOBAL__N_147testCheckCloseWithNaNAgainstItselfFailsInstanceE
 9362              		.comm	_ZN12_GLOBAL__N_147testCheckCloseWithNaNAgainstItselfFailsInstanceE,56,32
 9363              		.local	_ZN12_GLOBAL__N_127adderCheckCloseWithNaNFailsE
 9364              		.comm	_ZN12_GLOBAL__N_127adderCheckCloseWithNaNFailsE,1,1
 9365              		.local	_ZN12_GLOBAL__N_134testCheckCloseWithNaNFailsInstanceE
 9366              		.comm	_ZN12_GLOBAL__N_134testCheckCloseWithNaNFailsInstanceE,56,32
 9367              		.local	_ZN12_GLOBAL__N_148adderCheckCloseWithZeroEpsilonWorksForSameNumberE
 9368              		.comm	_ZN12_GLOBAL__N_148adderCheckCloseWithZeroEpsilonWorksForSameNumberE,1,1
 9369              		.local	_ZN12_GLOBAL__N_155testCheckCloseWithZeroEpsilonWorksForSameNumberInstanceE
 9370              		.comm	_ZN12_GLOBAL__N_155testCheckCloseWithZeroEpsilonWorksForSameNumberInstanceE,56,32
 9371              		.local	_ZN12_GLOBAL__N_120adderCheckCloseFalseE
 9372              		.comm	_ZN12_GLOBAL__N_120adderCheckCloseFalseE,1,1
 9373              		.local	_ZN12_GLOBAL__N_127testCheckCloseFalseInstanceE
 9374              		.comm	_ZN12_GLOBAL__N_127testCheckCloseFalseInstanceE,56,32
 9375              		.local	_ZN12_GLOBAL__N_119adderCheckCloseTrueE
 9376              		.comm	_ZN12_GLOBAL__N_119adderCheckCloseTrueE,1,1
 9377              		.local	_ZN12_GLOBAL__N_126testCheckCloseTrueInstanceE
 9378              		.comm	_ZN12_GLOBAL__N_126testCheckCloseTrueInstanceE,56,32
 9379              		.local	_ZN12_GLOBAL__N_137adderCheckEqualFailureIncludesDetailsE
 9380              		.comm	_ZN12_GLOBAL__N_137adderCheckEqualFailureIncludesDetailsE,1,1
 9381              		.local	_ZN12_GLOBAL__N_144testCheckEqualFailureIncludesDetailsInstanceE
 9382              		.comm	_ZN12_GLOBAL__N_144testCheckEqualFailureIncludesDetailsInstanceE,56,32
 9383              		.local	_ZN12_GLOBAL__N_152adderCheckEqualFailureIncludesCheckExpectedAndActualE
 9384              		.comm	_ZN12_GLOBAL__N_152adderCheckEqualFailureIncludesCheckExpectedAndActualE,1,1
 9385              		.local	_ZN12_GLOBAL__N_159testCheckEqualFailureIncludesCheckExpectedAndActualInstanceE
 9386              		.comm	_ZN12_GLOBAL__N_159testCheckEqualFailureIncludesCheckExpectedAndActualInstanceE,56,32
 9387              		.local	_ZN12_GLOBAL__N_154adderCheckEqualsWithStringsWorksOnContentsWithALiteralE
 9388              		.comm	_ZN12_GLOBAL__N_154adderCheckEqualsWithStringsWorksOnContentsWithALiteralE,1,1
 9389              		.local	_ZN12_GLOBAL__N_161testCheckEqualsWithStringsWorksOnContentsWithALiteralInstanceE
 9390              		.comm	_ZN12_GLOBAL__N_161testCheckEqualsWithStringsWorksOnContentsWithALiteralInstanceE,56,32
 9391              		.local	_ZN12_GLOBAL__N_155adderCheckEqualsWithStringsWorksOnContentsConstNonConstE
 9392              		.comm	_ZN12_GLOBAL__N_155adderCheckEqualsWithStringsWorksOnContentsConstNonConstE,1,1
 9393              		.local	_ZN12_GLOBAL__N_162testCheckEqualsWithStringsWorksOnContentsConstNonConstInstanceE
 9394              		.comm	_ZN12_GLOBAL__N_162testCheckEqualsWithStringsWorksOnContentsConstNonConstInstanceE,56,32
 9395              		.local	_ZN12_GLOBAL__N_155adderCheckEqualsWithStringsWorksOnContentsNonConstConstE
 9396              		.comm	_ZN12_GLOBAL__N_155adderCheckEqualsWithStringsWorksOnContentsNonConstConstE,1,1
 9397              		.local	_ZN12_GLOBAL__N_162testCheckEqualsWithStringsWorksOnContentsNonConstConstInstanceE
 9398              		.comm	_ZN12_GLOBAL__N_162testCheckEqualsWithStringsWorksOnContentsNonConstConstInstanceE,56,32
 9399              		.local	_ZN12_GLOBAL__N_152adderCheckEqualsWithStringsWorksOnContentsConstConstE
 9400              		.comm	_ZN12_GLOBAL__N_152adderCheckEqualsWithStringsWorksOnContentsConstConstE,1,1
 9401              		.local	_ZN12_GLOBAL__N_159testCheckEqualsWithStringsWorksOnContentsConstConstInstanceE
 9402              		.comm	_ZN12_GLOBAL__N_159testCheckEqualsWithStringsWorksOnContentsConstConstInstanceE,56,32
 9403              		.local	_ZN12_GLOBAL__N_158adderCheckEqualsWithStringsWorksOnContentsNonConstNonConstE
 9404              		.comm	_ZN12_GLOBAL__N_158adderCheckEqualsWithStringsWorksOnContentsNonConstNonConstE,1,1
 9405              		.local	_ZN12_GLOBAL__N_165testCheckEqualsWithStringsWorksOnContentsNonConstNonConstInstanceE
 9406              		.comm	_ZN12_GLOBAL__N_165testCheckEqualsWithStringsWorksOnContentsNonConstNonConstInstanceE,56,32
 9407              		.data
 9410              	_ZN12_GLOBAL__N_14txt2E:
 9411 0000 48656C6C 		.string	"Hello"
 9411      6F00
 9414              	_ZN12_GLOBAL__N_14txt1E:
 9415 0006 48656C6C 		.string	"Hello"
 9415      6F00
 9416              		.local	_ZN12_GLOBAL__N_150adderCheckEqualsWithStringsFailsOnDifferentStringsE
 9417              		.comm	_ZN12_GLOBAL__N_150adderCheckEqualsWithStringsFailsOnDifferentStringsE,1,1
 9418              		.local	_ZN12_GLOBAL__N_157testCheckEqualsWithStringsFailsOnDifferentStringsInstanceE
 9419              		.comm	_ZN12_GLOBAL__N_157testCheckEqualsWithStringsFailsOnDifferentStringsInstanceE,56,32
 9420              		.local	_ZN12_GLOBAL__N_131adderCheckEqualWithUnsignedLongE
 9421              		.comm	_ZN12_GLOBAL__N_131adderCheckEqualWithUnsignedLongE,1,1
 9422              		.local	_ZN12_GLOBAL__N_138testCheckEqualWithUnsignedLongInstanceE
 9423              		.comm	_ZN12_GLOBAL__N_138testCheckEqualWithUnsignedLongInstanceE,56,32
 9424              		.weakref	_ZL28__gthrw___pthread_key_createPjPFvPvE,__pthread_key_create
 9425              		.section	.rodata.cst8,"aM",@progbits,8
 9426              		.align 8
 9427              	.LC3:
 9428 0000 000000C0 		.long	3221225472
 9429 0004 CCCCEC3F 		.long	1072483532
 9430              		.align 8
 9431              	.LC5:
 9432 0008 00000040 		.long	1073741824
 9433 000c E17A843F 		.long	1065646817
 9434              		.align 8
 9435              	.LC7:
 9436 0010 000000A0 		.long	2684354560
 9437 0014 9999F13F 		.long	1072798105
 9438              		.align 8
 9439              	.LC71:
 9440 0018 000000E0 		.long	3758096384
 9441 001c FFFFFFFF 		.long	-1
 9442              		.align 8
 9443              	.LC72:
 9444 0020 000000A0 		.long	2684354560
 9445 0024 9999B93F 		.long	1069128089
 9446              		.align 8
 9447              	.LC73:
 9448 0028 00000000 		.long	0
 9449 002c 00000840 		.long	1074266112
 9450              		.align 8
 9451              	.LC74:
 9452 0030 00000080 		.long	2147483648
 9453 0034 C2F50840 		.long	1074329026
 9454              		.hidden	__dso_handle
 9455              		.ident	"GCC: (Ubuntu 4.8.4-2ubuntu1~14.04.3) 4.8.4"
 9456              		.section	.note.GNU-stack,"",@progbits
DEFINED SYMBOLS
                            *ABS*:0000000000000000 TestChecks.cpp
     /tmp/ccHlKXfo.s:7      .text._ZN17RecordingReporter13ReportSummaryEiiif:0000000000000000 _ZN17RecordingReporter13ReportSummaryEiiif
     /tmp/ccHlKXfo.s:23     .text._ZN17RecordingReporter15ReportTestStartERKN8UnitTest11TestDetailsE:0000000000000000 _ZN17RecordingReporter15ReportTestStartERKN8UnitTest11TestDetailsE
     /tmp/ccHlKXfo.s:59     .text._ZN17RecordingReporter13ReportFailureERKN8UnitTest11TestDetailsEPKc:0000000000000000 _ZN17RecordingReporter13ReportFailureERKN8UnitTest11TestDetailsEPKc
     /tmp/ccHlKXfo.s:107    .text._ZN17RecordingReporter16ReportTestFinishERKN8UnitTest11TestDetailsEf:0000000000000000 _ZN17RecordingReporter16ReportTestFinishERKN8UnitTest11TestDetailsEf
     /tmp/ccHlKXfo.s:147    .text._ZN17RecordingReporterD2Ev:0000000000000000 _ZN17RecordingReporterD2Ev
     /tmp/ccHlKXfo.s:9067   .rodata._ZTV17RecordingReporter:0000000000000000 _ZTV17RecordingReporter
     /tmp/ccHlKXfo.s:147    .text._ZN17RecordingReporterD2Ev:0000000000000000 _ZN17RecordingReporterD1Ev
     /tmp/ccHlKXfo.s:162    .text._ZN17RecordingReporterD0Ev:0000000000000000 _ZN17RecordingReporterD0Ev
     /tmp/ccHlKXfo.s:182    .text:0000000000000000 _ZN12_GLOBAL__N_143TestCheckArray2DCloseFailureIncludesDetailsD2Ev
     /tmp/ccHlKXfo.s:9305   .rodata:0000000000001120 _ZTVN12_GLOBAL__N_143TestCheckArray2DCloseFailureIncludesDetailsE
     /tmp/ccHlKXfo.s:182    .text:0000000000000000 _ZN12_GLOBAL__N_143TestCheckArray2DCloseFailureIncludesDetailsD1Ev
     /tmp/ccHlKXfo.s:194    .text:0000000000000010 _ZN12_GLOBAL__N_143TestCheckArray2DCloseFailureIncludesDetailsD0Ev
     /tmp/ccHlKXfo.s:213    .text:0000000000000030 _ZN12_GLOBAL__N_133TestCheckCloseWithDoublesSucceedsD2Ev
     /tmp/ccHlKXfo.s:9296   .rodata:00000000000010e0 _ZTVN12_GLOBAL__N_133TestCheckCloseWithDoublesSucceedsE
     /tmp/ccHlKXfo.s:213    .text:0000000000000030 _ZN12_GLOBAL__N_133TestCheckCloseWithDoublesSucceedsD1Ev
     /tmp/ccHlKXfo.s:225    .text:0000000000000040 _ZN12_GLOBAL__N_133TestCheckCloseWithDoublesSucceedsD0Ev
     /tmp/ccHlKXfo.s:244    .text:0000000000000060 _ZN12_GLOBAL__N_126TestCheckArray2DCloseFalseD2Ev
     /tmp/ccHlKXfo.s:9287   .rodata:00000000000010a0 _ZTVN12_GLOBAL__N_126TestCheckArray2DCloseFalseE
     /tmp/ccHlKXfo.s:244    .text:0000000000000060 _ZN12_GLOBAL__N_126TestCheckArray2DCloseFalseD1Ev
     /tmp/ccHlKXfo.s:256    .text:0000000000000070 _ZN12_GLOBAL__N_126TestCheckArray2DCloseFalseD0Ev
     /tmp/ccHlKXfo.s:275    .text:0000000000000090 _ZN12_GLOBAL__N_125TestCheckArray2DCloseTrueD2Ev
     /tmp/ccHlKXfo.s:9278   .rodata:0000000000001060 _ZTVN12_GLOBAL__N_125TestCheckArray2DCloseTrueE
     /tmp/ccHlKXfo.s:275    .text:0000000000000090 _ZN12_GLOBAL__N_125TestCheckArray2DCloseTrueD1Ev
     /tmp/ccHlKXfo.s:287    .text:00000000000000a0 _ZN12_GLOBAL__N_125TestCheckArray2DCloseTrueD0Ev
     /tmp/ccHlKXfo.s:306    .text:00000000000000c0 _ZN12_GLOBAL__N_141TestCheckArrayCloseFailureIncludesDetailsD2Ev
     /tmp/ccHlKXfo.s:9269   .rodata:0000000000001020 _ZTVN12_GLOBAL__N_141TestCheckArrayCloseFailureIncludesDetailsE
     /tmp/ccHlKXfo.s:306    .text:00000000000000c0 _ZN12_GLOBAL__N_141TestCheckArrayCloseFailureIncludesDetailsD1Ev
     /tmp/ccHlKXfo.s:318    .text:00000000000000d0 _ZN12_GLOBAL__N_141TestCheckArrayCloseFailureIncludesDetailsD0Ev
     /tmp/ccHlKXfo.s:337    .text:00000000000000f0 _ZN12_GLOBAL__N_124TestCheckArrayCloseFalseD2Ev
     /tmp/ccHlKXfo.s:9260   .rodata:0000000000000fe0 _ZTVN12_GLOBAL__N_124TestCheckArrayCloseFalseE
     /tmp/ccHlKXfo.s:337    .text:00000000000000f0 _ZN12_GLOBAL__N_124TestCheckArrayCloseFalseD1Ev
     /tmp/ccHlKXfo.s:349    .text:0000000000000100 _ZN12_GLOBAL__N_124TestCheckArrayCloseFalseD0Ev
     /tmp/ccHlKXfo.s:368    .text:0000000000000120 _ZN12_GLOBAL__N_123TestCheckArrayCloseTrueD2Ev
     /tmp/ccHlKXfo.s:9251   .rodata:0000000000000fa0 _ZTVN12_GLOBAL__N_123TestCheckArrayCloseTrueE
     /tmp/ccHlKXfo.s:368    .text:0000000000000120 _ZN12_GLOBAL__N_123TestCheckArrayCloseTrueD1Ev
     /tmp/ccHlKXfo.s:380    .text:0000000000000130 _ZN12_GLOBAL__N_123TestCheckArrayCloseTrueD0Ev
     /tmp/ccHlKXfo.s:399    .text:0000000000000150 _ZN12_GLOBAL__N_124TestCheckArrayEqualFalseD2Ev
     /tmp/ccHlKXfo.s:9242   .rodata:0000000000000f60 _ZTVN12_GLOBAL__N_124TestCheckArrayEqualFalseE
     /tmp/ccHlKXfo.s:399    .text:0000000000000150 _ZN12_GLOBAL__N_124TestCheckArrayEqualFalseD1Ev
     /tmp/ccHlKXfo.s:411    .text:0000000000000160 _ZN12_GLOBAL__N_124TestCheckArrayEqualFalseD0Ev
     /tmp/ccHlKXfo.s:430    .text:0000000000000180 _ZN12_GLOBAL__N_123TestCheckArrayEqualTrueD2Ev
     /tmp/ccHlKXfo.s:9233   .rodata:0000000000000f20 _ZTVN12_GLOBAL__N_123TestCheckArrayEqualTrueE
     /tmp/ccHlKXfo.s:430    .text:0000000000000180 _ZN12_GLOBAL__N_123TestCheckArrayEqualTrueD1Ev
     /tmp/ccHlKXfo.s:442    .text:0000000000000190 _ZN12_GLOBAL__N_123TestCheckArrayEqualTrueD0Ev
     /tmp/ccHlKXfo.s:461    .text:00000000000001b0 _ZN12_GLOBAL__N_136TestCheckCloseFailureIncludesDetailsD2Ev
     /tmp/ccHlKXfo.s:9224   .rodata:0000000000000ee0 _ZTVN12_GLOBAL__N_136TestCheckCloseFailureIncludesDetailsE
     /tmp/ccHlKXfo.s:461    .text:00000000000001b0 _ZN12_GLOBAL__N_136TestCheckCloseFailureIncludesDetailsD1Ev
     /tmp/ccHlKXfo.s:473    .text:00000000000001c0 _ZN12_GLOBAL__N_136TestCheckCloseFailureIncludesDetailsD0Ev
     /tmp/ccHlKXfo.s:492    .text:00000000000001e0 _ZN12_GLOBAL__N_138TestCheckCloseFailureIncludesToleranceD2Ev
     /tmp/ccHlKXfo.s:9215   .rodata:0000000000000ea0 _ZTVN12_GLOBAL__N_138TestCheckCloseFailureIncludesToleranceE
     /tmp/ccHlKXfo.s:492    .text:00000000000001e0 _ZN12_GLOBAL__N_138TestCheckCloseFailureIncludesToleranceD1Ev
     /tmp/ccHlKXfo.s:504    .text:00000000000001f0 _ZN12_GLOBAL__N_138TestCheckCloseFailureIncludesToleranceD0Ev
     /tmp/ccHlKXfo.s:523    .text:0000000000000210 _ZN12_GLOBAL__N_151TestCheckCloseFailureIncludesCheckExpectedAndActualD2Ev
     /tmp/ccHlKXfo.s:9206   .rodata:0000000000000e60 _ZTVN12_GLOBAL__N_151TestCheckCloseFailureIncludesCheckExpectedAndActualE
     /tmp/ccHlKXfo.s:523    .text:0000000000000210 _ZN12_GLOBAL__N_151TestCheckCloseFailureIncludesCheckExpectedAndActualD1Ev
     /tmp/ccHlKXfo.s:535    .text:0000000000000220 _ZN12_GLOBAL__N_151TestCheckCloseFailureIncludesCheckExpectedAndActualD0Ev
     /tmp/ccHlKXfo.s:554    .text:0000000000000240 _ZN12_GLOBAL__N_139TestCheckCloseWithNaNAgainstItselfFailsD2Ev
     /tmp/ccHlKXfo.s:9197   .rodata:0000000000000e20 _ZTVN12_GLOBAL__N_139TestCheckCloseWithNaNAgainstItselfFailsE
     /tmp/ccHlKXfo.s:554    .text:0000000000000240 _ZN12_GLOBAL__N_139TestCheckCloseWithNaNAgainstItselfFailsD1Ev
     /tmp/ccHlKXfo.s:566    .text:0000000000000250 _ZN12_GLOBAL__N_139TestCheckCloseWithNaNAgainstItselfFailsD0Ev
     /tmp/ccHlKXfo.s:585    .text:0000000000000270 _ZN12_GLOBAL__N_126TestCheckCloseWithNaNFailsD2Ev
     /tmp/ccHlKXfo.s:9188   .rodata:0000000000000de0 _ZTVN12_GLOBAL__N_126TestCheckCloseWithNaNFailsE
     /tmp/ccHlKXfo.s:585    .text:0000000000000270 _ZN12_GLOBAL__N_126TestCheckCloseWithNaNFailsD1Ev
     /tmp/ccHlKXfo.s:597    .text:0000000000000280 _ZN12_GLOBAL__N_126TestCheckCloseWithNaNFailsD0Ev
     /tmp/ccHlKXfo.s:616    .text:00000000000002a0 _ZN12_GLOBAL__N_147TestCheckCloseWithZeroEpsilonWorksForSameNumberD2Ev
     /tmp/ccHlKXfo.s:9179   .rodata:0000000000000da0 _ZTVN12_GLOBAL__N_147TestCheckCloseWithZeroEpsilonWorksForSameNumberE
     /tmp/ccHlKXfo.s:616    .text:00000000000002a0 _ZN12_GLOBAL__N_147TestCheckCloseWithZeroEpsilonWorksForSameNumberD1Ev
     /tmp/ccHlKXfo.s:628    .text:00000000000002b0 _ZN12_GLOBAL__N_147TestCheckCloseWithZeroEpsilonWorksForSameNumberD0Ev
     /tmp/ccHlKXfo.s:647    .text:00000000000002d0 _ZN12_GLOBAL__N_119TestCheckCloseFalseD2Ev
     /tmp/ccHlKXfo.s:9170   .rodata:0000000000000d60 _ZTVN12_GLOBAL__N_119TestCheckCloseFalseE
     /tmp/ccHlKXfo.s:647    .text:00000000000002d0 _ZN12_GLOBAL__N_119TestCheckCloseFalseD1Ev
     /tmp/ccHlKXfo.s:659    .text:00000000000002e0 _ZN12_GLOBAL__N_119TestCheckCloseFalseD0Ev
     /tmp/ccHlKXfo.s:678    .text:0000000000000300 _ZN12_GLOBAL__N_118TestCheckCloseTrueD2Ev
     /tmp/ccHlKXfo.s:9161   .rodata:0000000000000d20 _ZTVN12_GLOBAL__N_118TestCheckCloseTrueE
     /tmp/ccHlKXfo.s:678    .text:0000000000000300 _ZN12_GLOBAL__N_118TestCheckCloseTrueD1Ev
     /tmp/ccHlKXfo.s:690    .text:0000000000000310 _ZN12_GLOBAL__N_118TestCheckCloseTrueD0Ev
     /tmp/ccHlKXfo.s:709    .text:0000000000000330 _ZN12_GLOBAL__N_136TestCheckEqualFailureIncludesDetailsD2Ev
     /tmp/ccHlKXfo.s:9152   .rodata:0000000000000ce0 _ZTVN12_GLOBAL__N_136TestCheckEqualFailureIncludesDetailsE
     /tmp/ccHlKXfo.s:709    .text:0000000000000330 _ZN12_GLOBAL__N_136TestCheckEqualFailureIncludesDetailsD1Ev
     /tmp/ccHlKXfo.s:721    .text:0000000000000340 _ZN12_GLOBAL__N_136TestCheckEqualFailureIncludesDetailsD0Ev
     /tmp/ccHlKXfo.s:740    .text:0000000000000360 _ZN12_GLOBAL__N_151TestCheckEqualFailureIncludesCheckExpectedAndActualD2Ev
     /tmp/ccHlKXfo.s:9143   .rodata:0000000000000ca0 _ZTVN12_GLOBAL__N_151TestCheckEqualFailureIncludesCheckExpectedAndActualE
     /tmp/ccHlKXfo.s:740    .text:0000000000000360 _ZN12_GLOBAL__N_151TestCheckEqualFailureIncludesCheckExpectedAndActualD1Ev
     /tmp/ccHlKXfo.s:752    .text:0000000000000370 _ZN12_GLOBAL__N_151TestCheckEqualFailureIncludesCheckExpectedAndActualD0Ev
     /tmp/ccHlKXfo.s:771    .text:0000000000000390 _ZN12_GLOBAL__N_153TestCheckEqualsWithStringsWorksOnContentsWithALiteralD2Ev
     /tmp/ccHlKXfo.s:9134   .rodata:0000000000000c60 _ZTVN12_GLOBAL__N_153TestCheckEqualsWithStringsWorksOnContentsWithALiteralE
     /tmp/ccHlKXfo.s:771    .text:0000000000000390 _ZN12_GLOBAL__N_153TestCheckEqualsWithStringsWorksOnContentsWithALiteralD1Ev
     /tmp/ccHlKXfo.s:783    .text:00000000000003a0 _ZN12_GLOBAL__N_153TestCheckEqualsWithStringsWorksOnContentsWithALiteralD0Ev
     /tmp/ccHlKXfo.s:802    .text:00000000000003c0 _ZN12_GLOBAL__N_154TestCheckEqualsWithStringsWorksOnContentsConstNonConstD2Ev
     /tmp/ccHlKXfo.s:9125   .rodata:0000000000000c20 _ZTVN12_GLOBAL__N_154TestCheckEqualsWithStringsWorksOnContentsConstNonConstE
     /tmp/ccHlKXfo.s:802    .text:00000000000003c0 _ZN12_GLOBAL__N_154TestCheckEqualsWithStringsWorksOnContentsConstNonConstD1Ev
     /tmp/ccHlKXfo.s:814    .text:00000000000003d0 _ZN12_GLOBAL__N_154TestCheckEqualsWithStringsWorksOnContentsConstNonConstD0Ev
     /tmp/ccHlKXfo.s:833    .text:00000000000003f0 _ZN12_GLOBAL__N_154TestCheckEqualsWithStringsWorksOnContentsNonConstConstD2Ev
     /tmp/ccHlKXfo.s:9116   .rodata:0000000000000be0 _ZTVN12_GLOBAL__N_154TestCheckEqualsWithStringsWorksOnContentsNonConstConstE
     /tmp/ccHlKXfo.s:833    .text:00000000000003f0 _ZN12_GLOBAL__N_154TestCheckEqualsWithStringsWorksOnContentsNonConstConstD1Ev
     /tmp/ccHlKXfo.s:845    .text:0000000000000400 _ZN12_GLOBAL__N_154TestCheckEqualsWithStringsWorksOnContentsNonConstConstD0Ev
     /tmp/ccHlKXfo.s:864    .text:0000000000000420 _ZN12_GLOBAL__N_151TestCheckEqualsWithStringsWorksOnContentsConstConstD2Ev
     /tmp/ccHlKXfo.s:9107   .rodata:0000000000000ba0 _ZTVN12_GLOBAL__N_151TestCheckEqualsWithStringsWorksOnContentsConstConstE
     /tmp/ccHlKXfo.s:864    .text:0000000000000420 _ZN12_GLOBAL__N_151TestCheckEqualsWithStringsWorksOnContentsConstConstD1Ev
     /tmp/ccHlKXfo.s:876    .text:0000000000000430 _ZN12_GLOBAL__N_151TestCheckEqualsWithStringsWorksOnContentsConstConstD0Ev
     /tmp/ccHlKXfo.s:895    .text:0000000000000450 _ZN12_GLOBAL__N_157TestCheckEqualsWithStringsWorksOnContentsNonConstNonConstD2Ev
     /tmp/ccHlKXfo.s:9098   .rodata:0000000000000b60 _ZTVN12_GLOBAL__N_157TestCheckEqualsWithStringsWorksOnContentsNonConstNonConstE
     /tmp/ccHlKXfo.s:895    .text:0000000000000450 _ZN12_GLOBAL__N_157TestCheckEqualsWithStringsWorksOnContentsNonConstNonConstD1Ev
     /tmp/ccHlKXfo.s:907    .text:0000000000000460 _ZN12_GLOBAL__N_157TestCheckEqualsWithStringsWorksOnContentsNonConstNonConstD0Ev
     /tmp/ccHlKXfo.s:926    .text:0000000000000480 _ZN12_GLOBAL__N_149TestCheckEqualsWithStringsFailsOnDifferentStringsD2Ev
     /tmp/ccHlKXfo.s:9089   .rodata:0000000000000b20 _ZTVN12_GLOBAL__N_149TestCheckEqualsWithStringsFailsOnDifferentStringsE
     /tmp/ccHlKXfo.s:926    .text:0000000000000480 _ZN12_GLOBAL__N_149TestCheckEqualsWithStringsFailsOnDifferentStringsD1Ev
     /tmp/ccHlKXfo.s:938    .text:0000000000000490 _ZN12_GLOBAL__N_149TestCheckEqualsWithStringsFailsOnDifferentStringsD0Ev
     /tmp/ccHlKXfo.s:957    .text:00000000000004b0 _ZN12_GLOBAL__N_130TestCheckEqualWithUnsignedLongD2Ev
     /tmp/ccHlKXfo.s:9080   .rodata:0000000000000ae0 _ZTVN12_GLOBAL__N_130TestCheckEqualWithUnsignedLongE
     /tmp/ccHlKXfo.s:957    .text:00000000000004b0 _ZN12_GLOBAL__N_130TestCheckEqualWithUnsignedLongD1Ev
     /tmp/ccHlKXfo.s:969    .text:00000000000004c0 _ZN12_GLOBAL__N_130TestCheckEqualWithUnsignedLongD0Ev
     /tmp/ccHlKXfo.s:987    .text.unlikely:0000000000000000 _ZStlsISt11char_traitsIcEERSt13basic_ostreamIcT_ES5_PKc.part.1
     /tmp/ccHlKXfo.s:1008   .text._ZNSt15basic_stringbufIcSt11char_traitsIcESaIcEED2Ev:0000000000000000 _ZNSt15basic_stringbufIcSt11char_traitsIcESaIcEED2Ev
     /tmp/ccHlKXfo.s:1008   .text._ZNSt15basic_stringbufIcSt11char_traitsIcESaIcEED2Ev:0000000000000000 _ZNSt15basic_stringbufIcSt11char_traitsIcESaIcEED1Ev
     /tmp/ccHlKXfo.s:1062   .text._ZNSt15basic_stringbufIcSt11char_traitsIcESaIcEED0Ev:0000000000000000 _ZNSt15basic_stringbufIcSt11char_traitsIcESaIcEED0Ev
     /tmp/ccHlKXfo.s:1116   .text._ZN8UnitTest15MemoryOutStreamD1Ev:0000000000000000 _ZN8UnitTest15MemoryOutStreamD1Ev
     /tmp/ccHlKXfo.s:9051   .rodata._ZTVN8UnitTest15MemoryOutStreamE:0000000000000000 _ZTVN8UnitTest15MemoryOutStreamE
     /tmp/ccHlKXfo.s:9023   .rodata._ZTCN8UnitTest15MemoryOutStreamE0_St19basic_ostringstreamIcSt11char_traitsIcESaIcEE:0000000000000000 _ZTCN8UnitTest15MemoryOutStreamE0_St19basic_ostringstreamIcSt11char_traitsIcESaIcEE
     /tmp/ccHlKXfo.s:9006   .rodata._ZTCN8UnitTest15MemoryOutStreamE0_So:0000000000000000 _ZTCN8UnitTest15MemoryOutStreamE0_So
     /tmp/ccHlKXfo.s:1199   .text._ZN8UnitTest15MemoryOutStreamD1Ev:00000000000000f0 _ZTv0_n24_N8UnitTest15MemoryOutStreamD1Ev
     /tmp/ccHlKXfo.s:1213   .text._ZN8UnitTest15MemoryOutStreamD0Ev:0000000000000000 _ZN8UnitTest15MemoryOutStreamD0Ev
     /tmp/ccHlKXfo.s:1298   .text._ZN8UnitTest15MemoryOutStreamD0Ev:0000000000000100 _ZTv0_n24_N8UnitTest15MemoryOutStreamD0Ev
     /tmp/ccHlKXfo.s:1339   .text:00000000000004e0 _ZNK12_GLOBAL__N_151TestCheckCloseFailureIncludesCheckExpectedAndActual7RunImplEv
     /tmp/ccHlKXfo.s:1735   .text:0000000000000aa0 _ZNK12_GLOBAL__N_130TestCheckEqualWithUnsignedLong7RunImplEv
     /tmp/ccHlKXfo.s:1842   .text:0000000000000b20 _ZNK12_GLOBAL__N_133TestCheckCloseWithDoublesSucceeds7RunImplEv
     /tmp/ccHlKXfo.s:1946   .text:0000000000000b90 _ZNK12_GLOBAL__N_138TestCheckCloseFailureIncludesTolerance7RunImplEv
     /tmp/ccHlKXfo.s:2288   .text:00000000000010a0 _ZN8UnitTest15CheckArrayEqualIA3_iS1_EEvRNS_11TestResultsERKT_RKT0_iRKNS_11TestDetailsE.constprop.12
     /tmp/ccHlKXfo.s:2577   .text:0000000000001420 _ZN8UnitTest15CheckArrayCloseIA3_fS1_fEEvRNS_11TestResultsERKT_RKT0_iRKT1_RKNS_11TestDetailsE.constprop.11
     /tmp/ccHlKXfo.s:2901   .text:0000000000001870 _ZN8UnitTest17CheckArray2DCloseIA3_A3_fS2_fEEvRNS_11TestResultsERKT_RKT0_iiRKT1_RKNS_11TestDetailsE.constprop.10
     /tmp/ccHlKXfo.s:3327   .text._ZN8UnitTest10CheckEqualIiiEEvRNS_11TestResultsERKT_RKT0_RKNS_11TestDetailsE:0000000000000000 _ZN8UnitTest10CheckEqualIiiEEvRNS_11TestResultsERKT_RKT0_RKNS_11TestDetailsE
     /tmp/ccHlKXfo.s:3584   .text:0000000000001e40 _ZNK12_GLOBAL__N_143TestCheckArray2DCloseFailureIncludesDetails7RunImplEv
     /tmp/ccHlKXfo.s:3929   .text:00000000000022a0 _ZNK12_GLOBAL__N_126TestCheckArray2DCloseFalse7RunImplEv
     /tmp/ccHlKXfo.s:4076   .text:0000000000002440 _ZNK12_GLOBAL__N_125TestCheckArray2DCloseTrue7RunImplEv
     /tmp/ccHlKXfo.s:4239   .text:00000000000025e0 _ZNK12_GLOBAL__N_136TestCheckEqualFailureIncludesDetails7RunImplEv
     /tmp/ccHlKXfo.s:4582   .text:0000000000002970 _ZNK12_GLOBAL__N_151TestCheckEqualFailureIncludesCheckExpectedAndActual7RunImplEv
     /tmp/ccHlKXfo.s:4816   .text:0000000000002c10 _ZNK12_GLOBAL__N_153TestCheckEqualsWithStringsWorksOnContentsWithALiteral7RunImplEv
     /tmp/ccHlKXfo.s:9414   .data:0000000000000006 _ZN12_GLOBAL__N_14txt1E
     /tmp/ccHlKXfo.s:4938   .text:0000000000002cf0 _ZNK12_GLOBAL__N_154TestCheckEqualsWithStringsWorksOnContentsConstNonConst7RunImplEv
     /tmp/ccHlKXfo.s:9410   .data:0000000000000000 _ZN12_GLOBAL__N_14txt2E
     /tmp/ccHlKXfo.s:5060   .text:0000000000002dd0 _ZNK12_GLOBAL__N_154TestCheckEqualsWithStringsWorksOnContentsNonConstConst7RunImplEv
     /tmp/ccHlKXfo.s:5182   .text:0000000000002eb0 _ZNK12_GLOBAL__N_151TestCheckEqualsWithStringsWorksOnContentsConstConst7RunImplEv
     /tmp/ccHlKXfo.s:5304   .text:0000000000002f90 _ZNK12_GLOBAL__N_157TestCheckEqualsWithStringsWorksOnContentsNonConstNonConst7RunImplEv
     /tmp/ccHlKXfo.s:5426   .text:0000000000003070 _ZNK12_GLOBAL__N_149TestCheckEqualsWithStringsFailsOnDifferentStrings7RunImplEv
     /tmp/ccHlKXfo.s:5579   .text:00000000000031a0 _ZNK12_GLOBAL__N_141TestCheckArrayCloseFailureIncludesDetails7RunImplEv
     /tmp/ccHlKXfo.s:5907   .text:0000000000003580 _ZNK12_GLOBAL__N_124TestCheckArrayCloseFalse7RunImplEv
     /tmp/ccHlKXfo.s:6037   .text:00000000000036a0 _ZNK12_GLOBAL__N_123TestCheckArrayCloseTrue7RunImplEv
     /tmp/ccHlKXfo.s:6167   .text:00000000000037c0 _ZNK12_GLOBAL__N_124TestCheckArrayEqualFalse7RunImplEv
     /tmp/ccHlKXfo.s:6295   .text:00000000000038d0 _ZNK12_GLOBAL__N_123TestCheckArrayEqualTrue7RunImplEv
     /tmp/ccHlKXfo.s:6420   .text:00000000000039d0 _ZNK12_GLOBAL__N_139TestCheckCloseWithNaNAgainstItselfFails7RunImplEv
     /tmp/ccHlKXfo.s:6718   .text:0000000000003dd0 _ZNK12_GLOBAL__N_126TestCheckCloseWithNaNFails7RunImplEv
     /tmp/ccHlKXfo.s:7016   .text:00000000000041d0 _ZNK12_GLOBAL__N_119TestCheckCloseFalse7RunImplEv
     /tmp/ccHlKXfo.s:7314   .text:00000000000045d0 _ZNK12_GLOBAL__N_118TestCheckCloseTrue7RunImplEv
     /tmp/ccHlKXfo.s:7431   .text:00000000000046a0 _ZNK12_GLOBAL__N_147TestCheckCloseWithZeroEpsilonWorksForSameNumber7RunImplEv
     /tmp/ccHlKXfo.s:7549   .text._ZN8UnitTest10CheckCloseIiifEEvRNS_11TestResultsERKT_RKT0_RKT1_RKNS_11TestDetailsE:0000000000000000 _ZN8UnitTest10CheckCloseIiifEEvRNS_11TestResultsERKT_RKT0_RKT1_RKNS_11TestDetailsE
     /tmp/ccHlKXfo.s:7821   .text:0000000000004770 _ZNK12_GLOBAL__N_136TestCheckCloseFailureIncludesDetails7RunImplEv
     /tmp/ccHlKXfo.s:8226   .text.startup:0000000000000000 _GLOBAL__sub_I_TestChecks.cpp
     /tmp/ccHlKXfo.s:9423   .bss:0000000000000660 _ZN12_GLOBAL__N_138testCheckEqualWithUnsignedLongInstanceE
     /tmp/ccHlKXfo.s:9419   .bss:0000000000000658 _ZN12_GLOBAL__N_131adderCheckEqualWithUnsignedLongE
     /tmp/ccHlKXfo.s:9419   .bss:0000000000000620 _ZN12_GLOBAL__N_157testCheckEqualsWithStringsFailsOnDifferentStringsInstanceE
     /tmp/ccHlKXfo.s:9406   .bss:0000000000000618 _ZN12_GLOBAL__N_150adderCheckEqualsWithStringsFailsOnDifferentStringsE
     /tmp/ccHlKXfo.s:9406   .bss:00000000000005e0 _ZN12_GLOBAL__N_165testCheckEqualsWithStringsWorksOnContentsNonConstNonConstInstanceE
     /tmp/ccHlKXfo.s:9402   .bss:00000000000005d8 _ZN12_GLOBAL__N_158adderCheckEqualsWithStringsWorksOnContentsNonConstNonConstE
     /tmp/ccHlKXfo.s:9402   .bss:00000000000005a0 _ZN12_GLOBAL__N_159testCheckEqualsWithStringsWorksOnContentsConstConstInstanceE
     /tmp/ccHlKXfo.s:9398   .bss:0000000000000598 _ZN12_GLOBAL__N_152adderCheckEqualsWithStringsWorksOnContentsConstConstE
     /tmp/ccHlKXfo.s:9398   .bss:0000000000000560 _ZN12_GLOBAL__N_162testCheckEqualsWithStringsWorksOnContentsNonConstConstInstanceE
     /tmp/ccHlKXfo.s:9394   .bss:0000000000000558 _ZN12_GLOBAL__N_155adderCheckEqualsWithStringsWorksOnContentsNonConstConstE
     /tmp/ccHlKXfo.s:9394   .bss:0000000000000520 _ZN12_GLOBAL__N_162testCheckEqualsWithStringsWorksOnContentsConstNonConstInstanceE
     /tmp/ccHlKXfo.s:9390   .bss:0000000000000518 _ZN12_GLOBAL__N_155adderCheckEqualsWithStringsWorksOnContentsConstNonConstE
     /tmp/ccHlKXfo.s:9390   .bss:00000000000004e0 _ZN12_GLOBAL__N_161testCheckEqualsWithStringsWorksOnContentsWithALiteralInstanceE
     /tmp/ccHlKXfo.s:9386   .bss:00000000000004d8 _ZN12_GLOBAL__N_154adderCheckEqualsWithStringsWorksOnContentsWithALiteralE
     /tmp/ccHlKXfo.s:9386   .bss:00000000000004a0 _ZN12_GLOBAL__N_159testCheckEqualFailureIncludesCheckExpectedAndActualInstanceE
     /tmp/ccHlKXfo.s:9382   .bss:0000000000000498 _ZN12_GLOBAL__N_152adderCheckEqualFailureIncludesCheckExpectedAndActualE
     /tmp/ccHlKXfo.s:9382   .bss:0000000000000460 _ZN12_GLOBAL__N_144testCheckEqualFailureIncludesDetailsInstanceE
     /tmp/ccHlKXfo.s:9378   .bss:0000000000000458 _ZN12_GLOBAL__N_137adderCheckEqualFailureIncludesDetailsE
     /tmp/ccHlKXfo.s:9378   .bss:0000000000000420 _ZN12_GLOBAL__N_126testCheckCloseTrueInstanceE
     /tmp/ccHlKXfo.s:9374   .bss:0000000000000418 _ZN12_GLOBAL__N_119adderCheckCloseTrueE
     /tmp/ccHlKXfo.s:9374   .bss:00000000000003e0 _ZN12_GLOBAL__N_127testCheckCloseFalseInstanceE
     /tmp/ccHlKXfo.s:9370   .bss:00000000000003d8 _ZN12_GLOBAL__N_120adderCheckCloseFalseE
     /tmp/ccHlKXfo.s:9370   .bss:00000000000003a0 _ZN12_GLOBAL__N_155testCheckCloseWithZeroEpsilonWorksForSameNumberInstanceE
     /tmp/ccHlKXfo.s:9366   .bss:0000000000000398 _ZN12_GLOBAL__N_148adderCheckCloseWithZeroEpsilonWorksForSameNumberE
     /tmp/ccHlKXfo.s:9366   .bss:0000000000000360 _ZN12_GLOBAL__N_134testCheckCloseWithNaNFailsInstanceE
     /tmp/ccHlKXfo.s:9362   .bss:0000000000000358 _ZN12_GLOBAL__N_127adderCheckCloseWithNaNFailsE
     /tmp/ccHlKXfo.s:9362   .bss:0000000000000320 _ZN12_GLOBAL__N_147testCheckCloseWithNaNAgainstItselfFailsInstanceE
     /tmp/ccHlKXfo.s:9358   .bss:0000000000000318 _ZN12_GLOBAL__N_140adderCheckCloseWithNaNAgainstItselfFailsE
     /tmp/ccHlKXfo.s:9358   .bss:00000000000002e0 _ZN12_GLOBAL__N_159testCheckCloseFailureIncludesCheckExpectedAndActualInstanceE
     /tmp/ccHlKXfo.s:9354   .bss:00000000000002d8 _ZN12_GLOBAL__N_152adderCheckCloseFailureIncludesCheckExpectedAndActualE
     /tmp/ccHlKXfo.s:9354   .bss:00000000000002a0 _ZN12_GLOBAL__N_146testCheckCloseFailureIncludesToleranceInstanceE
     /tmp/ccHlKXfo.s:9350   .bss:0000000000000298 _ZN12_GLOBAL__N_139adderCheckCloseFailureIncludesToleranceE
     /tmp/ccHlKXfo.s:9350   .bss:0000000000000260 _ZN12_GLOBAL__N_144testCheckCloseFailureIncludesDetailsInstanceE
     /tmp/ccHlKXfo.s:9346   .bss:0000000000000258 _ZN12_GLOBAL__N_137adderCheckCloseFailureIncludesDetailsE
     /tmp/ccHlKXfo.s:9346   .bss:0000000000000220 _ZN12_GLOBAL__N_131testCheckArrayEqualTrueInstanceE
     /tmp/ccHlKXfo.s:9342   .bss:0000000000000218 _ZN12_GLOBAL__N_124adderCheckArrayEqualTrueE
     /tmp/ccHlKXfo.s:9342   .bss:00000000000001e0 _ZN12_GLOBAL__N_132testCheckArrayEqualFalseInstanceE
     /tmp/ccHlKXfo.s:9338   .bss:00000000000001d8 _ZN12_GLOBAL__N_125adderCheckArrayEqualFalseE
     /tmp/ccHlKXfo.s:9338   .bss:00000000000001a0 _ZN12_GLOBAL__N_131testCheckArrayCloseTrueInstanceE
     /tmp/ccHlKXfo.s:9334   .bss:0000000000000198 _ZN12_GLOBAL__N_124adderCheckArrayCloseTrueE
     /tmp/ccHlKXfo.s:9334   .bss:0000000000000160 _ZN12_GLOBAL__N_132testCheckArrayCloseFalseInstanceE
     /tmp/ccHlKXfo.s:9330   .bss:0000000000000158 _ZN12_GLOBAL__N_125adderCheckArrayCloseFalseE
     /tmp/ccHlKXfo.s:9330   .bss:0000000000000120 _ZN12_GLOBAL__N_149testCheckArrayCloseFailureIncludesDetailsInstanceE
     /tmp/ccHlKXfo.s:9326   .bss:0000000000000118 _ZN12_GLOBAL__N_142adderCheckArrayCloseFailureIncludesDetailsE
     /tmp/ccHlKXfo.s:9326   .bss:00000000000000e0 _ZN12_GLOBAL__N_133testCheckArray2DCloseTrueInstanceE
     /tmp/ccHlKXfo.s:9322   .bss:00000000000000d8 _ZN12_GLOBAL__N_126adderCheckArray2DCloseTrueE
     /tmp/ccHlKXfo.s:9322   .bss:00000000000000a0 _ZN12_GLOBAL__N_134testCheckArray2DCloseFalseInstanceE
     /tmp/ccHlKXfo.s:9318   .bss:0000000000000098 _ZN12_GLOBAL__N_127adderCheckArray2DCloseFalseE
     /tmp/ccHlKXfo.s:9318   .bss:0000000000000060 _ZN12_GLOBAL__N_141testCheckCloseWithDoublesSucceedsInstanceE
     /tmp/ccHlKXfo.s:9314   .bss:0000000000000058 _ZN12_GLOBAL__N_134adderCheckCloseWithDoublesSucceedsE
     /tmp/ccHlKXfo.s:9314   .bss:0000000000000020 _ZN12_GLOBAL__N_151testCheckArray2DCloseFailureIncludesDetailsInstanceE
                             .bss:0000000000000000 _ZN12_GLOBAL__N_144adderCheckArray2DCloseFailureIncludesDetailsE
     /tmp/ccHlKXfo.s:8659   .rodata:0000000000000000 _ZTSN12_GLOBAL__N_130TestCheckEqualWithUnsignedLongE
     /tmp/ccHlKXfo.s:8664   .rodata:0000000000000040 _ZTSN12_GLOBAL__N_149TestCheckEqualsWithStringsFailsOnDifferentStringsE
     /tmp/ccHlKXfo.s:8669   .rodata:00000000000000a0 _ZTSN12_GLOBAL__N_157TestCheckEqualsWithStringsWorksOnContentsNonConstNonConstE
     /tmp/ccHlKXfo.s:8674   .rodata:0000000000000100 _ZTSN12_GLOBAL__N_151TestCheckEqualsWithStringsWorksOnContentsConstConstE
     /tmp/ccHlKXfo.s:8679   .rodata:0000000000000160 _ZTSN12_GLOBAL__N_154TestCheckEqualsWithStringsWorksOnContentsNonConstConstE
     /tmp/ccHlKXfo.s:8684   .rodata:00000000000001c0 _ZTSN12_GLOBAL__N_154TestCheckEqualsWithStringsWorksOnContentsConstNonConstE
     /tmp/ccHlKXfo.s:8689   .rodata:0000000000000220 _ZTSN12_GLOBAL__N_153TestCheckEqualsWithStringsWorksOnContentsWithALiteralE
     /tmp/ccHlKXfo.s:8694   .rodata:0000000000000280 _ZTSN12_GLOBAL__N_151TestCheckEqualFailureIncludesCheckExpectedAndActualE
     /tmp/ccHlKXfo.s:8699   .rodata:00000000000002e0 _ZTSN12_GLOBAL__N_136TestCheckEqualFailureIncludesDetailsE
     /tmp/ccHlKXfo.s:8704   .rodata:0000000000000320 _ZTSN12_GLOBAL__N_118TestCheckCloseTrueE
     /tmp/ccHlKXfo.s:8709   .rodata:0000000000000360 _ZTSN12_GLOBAL__N_119TestCheckCloseFalseE
     /tmp/ccHlKXfo.s:8714   .rodata:00000000000003a0 _ZTSN12_GLOBAL__N_147TestCheckCloseWithZeroEpsilonWorksForSameNumberE
     /tmp/ccHlKXfo.s:8719   .rodata:0000000000000400 _ZTSN12_GLOBAL__N_126TestCheckCloseWithNaNFailsE
     /tmp/ccHlKXfo.s:8724   .rodata:0000000000000440 _ZTSN12_GLOBAL__N_139TestCheckCloseWithNaNAgainstItselfFailsE
     /tmp/ccHlKXfo.s:8729   .rodata:0000000000000480 _ZTSN12_GLOBAL__N_151TestCheckCloseFailureIncludesCheckExpectedAndActualE
     /tmp/ccHlKXfo.s:8734   .rodata:00000000000004e0 _ZTSN12_GLOBAL__N_138TestCheckCloseFailureIncludesToleranceE
     /tmp/ccHlKXfo.s:8739   .rodata:0000000000000520 _ZTSN12_GLOBAL__N_136TestCheckCloseFailureIncludesDetailsE
     /tmp/ccHlKXfo.s:8744   .rodata:0000000000000560 _ZTSN12_GLOBAL__N_123TestCheckArrayEqualTrueE
     /tmp/ccHlKXfo.s:8749   .rodata:00000000000005a0 _ZTSN12_GLOBAL__N_124TestCheckArrayEqualFalseE
     /tmp/ccHlKXfo.s:8754   .rodata:00000000000005e0 _ZTSN12_GLOBAL__N_123TestCheckArrayCloseTrueE
     /tmp/ccHlKXfo.s:8759   .rodata:0000000000000620 _ZTSN12_GLOBAL__N_124TestCheckArrayCloseFalseE
     /tmp/ccHlKXfo.s:8764   .rodata:0000000000000660 _ZTSN12_GLOBAL__N_141TestCheckArrayCloseFailureIncludesDetailsE
     /tmp/ccHlKXfo.s:8769   .rodata:00000000000006a0 _ZTSN12_GLOBAL__N_125TestCheckArray2DCloseTrueE
     /tmp/ccHlKXfo.s:8774   .rodata:00000000000006e0 _ZTSN12_GLOBAL__N_126TestCheckArray2DCloseFalseE
     /tmp/ccHlKXfo.s:8779   .rodata:0000000000000720 _ZTSN12_GLOBAL__N_133TestCheckCloseWithDoublesSucceedsE
     /tmp/ccHlKXfo.s:8784   .rodata:0000000000000760 _ZTSN12_GLOBAL__N_143TestCheckArray2DCloseFailureIncludesDetailsE
     /tmp/ccHlKXfo.s:8789   .rodata:00000000000007a0 _ZTIN12_GLOBAL__N_143TestCheckArray2DCloseFailureIncludesDetailsE
     /tmp/ccHlKXfo.s:8796   .rodata:00000000000007c0 _ZTIN12_GLOBAL__N_133TestCheckCloseWithDoublesSucceedsE
     /tmp/ccHlKXfo.s:8803   .rodata:00000000000007e0 _ZTIN12_GLOBAL__N_126TestCheckArray2DCloseFalseE
     /tmp/ccHlKXfo.s:8810   .rodata:0000000000000800 _ZTIN12_GLOBAL__N_125TestCheckArray2DCloseTrueE
     /tmp/ccHlKXfo.s:8817   .rodata:0000000000000820 _ZTIN12_GLOBAL__N_141TestCheckArrayCloseFailureIncludesDetailsE
     /tmp/ccHlKXfo.s:8824   .rodata:0000000000000840 _ZTIN12_GLOBAL__N_124TestCheckArrayCloseFalseE
     /tmp/ccHlKXfo.s:8831   .rodata:0000000000000860 _ZTIN12_GLOBAL__N_123TestCheckArrayCloseTrueE
     /tmp/ccHlKXfo.s:8838   .rodata:0000000000000880 _ZTIN12_GLOBAL__N_124TestCheckArrayEqualFalseE
     /tmp/ccHlKXfo.s:8845   .rodata:00000000000008a0 _ZTIN12_GLOBAL__N_123TestCheckArrayEqualTrueE
     /tmp/ccHlKXfo.s:8852   .rodata:00000000000008c0 _ZTIN12_GLOBAL__N_136TestCheckCloseFailureIncludesDetailsE
     /tmp/ccHlKXfo.s:8859   .rodata:00000000000008e0 _ZTIN12_GLOBAL__N_138TestCheckCloseFailureIncludesToleranceE
     /tmp/ccHlKXfo.s:8866   .rodata:0000000000000900 _ZTIN12_GLOBAL__N_151TestCheckCloseFailureIncludesCheckExpectedAndActualE
     /tmp/ccHlKXfo.s:8873   .rodata:0000000000000920 _ZTIN12_GLOBAL__N_139TestCheckCloseWithNaNAgainstItselfFailsE
     /tmp/ccHlKXfo.s:8880   .rodata:0000000000000940 _ZTIN12_GLOBAL__N_126TestCheckCloseWithNaNFailsE
     /tmp/ccHlKXfo.s:8887   .rodata:0000000000000960 _ZTIN12_GLOBAL__N_147TestCheckCloseWithZeroEpsilonWorksForSameNumberE
     /tmp/ccHlKXfo.s:8894   .rodata:0000000000000980 _ZTIN12_GLOBAL__N_119TestCheckCloseFalseE
     /tmp/ccHlKXfo.s:8901   .rodata:00000000000009a0 _ZTIN12_GLOBAL__N_118TestCheckCloseTrueE
     /tmp/ccHlKXfo.s:8908   .rodata:00000000000009c0 _ZTIN12_GLOBAL__N_136TestCheckEqualFailureIncludesDetailsE
     /tmp/ccHlKXfo.s:8915   .rodata:00000000000009e0 _ZTIN12_GLOBAL__N_151TestCheckEqualFailureIncludesCheckExpectedAndActualE
     /tmp/ccHlKXfo.s:8922   .rodata:0000000000000a00 _ZTIN12_GLOBAL__N_153TestCheckEqualsWithStringsWorksOnContentsWithALiteralE
     /tmp/ccHlKXfo.s:8929   .rodata:0000000000000a20 _ZTIN12_GLOBAL__N_154TestCheckEqualsWithStringsWorksOnContentsConstNonConstE
     /tmp/ccHlKXfo.s:8936   .rodata:0000000000000a40 _ZTIN12_GLOBAL__N_154TestCheckEqualsWithStringsWorksOnContentsNonConstConstE
     /tmp/ccHlKXfo.s:8943   .rodata:0000000000000a60 _ZTIN12_GLOBAL__N_151TestCheckEqualsWithStringsWorksOnContentsConstConstE
     /tmp/ccHlKXfo.s:8950   .rodata:0000000000000a80 _ZTIN12_GLOBAL__N_157TestCheckEqualsWithStringsWorksOnContentsNonConstNonConstE
     /tmp/ccHlKXfo.s:8957   .rodata:0000000000000aa0 _ZTIN12_GLOBAL__N_149TestCheckEqualsWithStringsFailsOnDifferentStringsE
     /tmp/ccHlKXfo.s:8964   .rodata:0000000000000ac0 _ZTIN12_GLOBAL__N_130TestCheckEqualWithUnsignedLongE
     /tmp/ccHlKXfo.s:8973   .rodata._ZTIN8UnitTest15MemoryOutStreamE:0000000000000000 _ZTIN8UnitTest15MemoryOutStreamE
     /tmp/ccHlKXfo.s:8982   .rodata._ZTSN8UnitTest15MemoryOutStreamE:0000000000000000 _ZTSN8UnitTest15MemoryOutStreamE
     /tmp/ccHlKXfo.s:8989   .rodata._ZTI17RecordingReporter:0000000000000000 _ZTI17RecordingReporter
     /tmp/ccHlKXfo.s:8998   .rodata._ZTS17RecordingReporter:0000000000000000 _ZTS17RecordingReporter
     /tmp/ccHlKXfo.s:9039   .rodata._ZTTN8UnitTest15MemoryOutStreamE:0000000000000000 _ZTTN8UnitTest15MemoryOutStreamE
     /tmp/ccHlKXfo.s:9427   .rodata.cst8:0000000000000000 .LC3
     /tmp/ccHlKXfo.s:9431   .rodata.cst8:0000000000000008 .LC5
     /tmp/ccHlKXfo.s:9435   .rodata.cst8:0000000000000010 .LC7
     /tmp/ccHlKXfo.s:9439   .rodata.cst8:0000000000000018 .LC71
     /tmp/ccHlKXfo.s:9443   .rodata.cst8:0000000000000020 .LC72
     /tmp/ccHlKXfo.s:9447   .rodata.cst8:0000000000000028 .LC73
     /tmp/ccHlKXfo.s:9451   .rodata.cst8:0000000000000030 .LC74
                           .group:0000000000000000 _ZN17RecordingReporterD5Ev
                           .group:0000000000000000 _ZNSt15basic_stringbufIcSt11char_traitsIcESaIcEED5Ev

UNDEFINED SYMBOLS
__strcpy_chk
_ZN8UnitTest12TestReporterD2Ev
_ZdlPv
_ZN8UnitTest4TestD2Ev
_ZNSt9basic_iosIcSt11char_traitsIcEE5clearESt12_Ios_Iostate
_ZTVSt15basic_stringbufIcSt11char_traitsIcESaIcEE
_ZNSs4_Rep20_S_empty_rep_storageE
_ZTVSt15basic_streambufIcSt11char_traitsIcEE
_ZNSt6localeD1Ev
_ZNSs4_Rep10_M_destroyERKSaIcE
_ZTVSt9basic_iosIcSt11char_traitsIcEE
_ZNSt8ios_baseD2Ev
__gxx_personality_v0
_ZN8UnitTest11TestResultsC1EPNS_12TestReporterE
_ZN8UnitTest11TestDetailsC1EPKcS2_S2_i
_ZNSt8ios_baseC2Ev
_ZNSt9basic_iosIcSt11char_traitsIcEE4initEPSt15basic_streambufIcS1_E
_ZNSt6localeC1Ev
_ZSt16__ostream_insertIcSt11char_traitsIcEERSt13basic_ostreamIT_T0_ES6_PKS3_l
_ZNSo9_M_insertIdEERSoT_
_ZNK8UnitTest15MemoryOutStream7GetTextEv
_ZN8UnitTest11TestResults13OnTestFailureERKNS_11TestDetailsEPKc
strstr
_ZN8UnitTest11CurrentTest7DetailsEv
_ZN8UnitTest11TestDetailsC1ERKS0_i
_ZN8UnitTest11CurrentTest7ResultsEv
__stack_chk_fail
_Unwind_Resume
__cxa_begin_catch
__cxa_end_catch
_ZNSolsEi
_ZN8UnitTest10CheckEqualERNS_11TestResultsEPKcPcRKNS_11TestDetailsE
_ZNK8UnitTest11TestResults15GetFailureCountEv
_ZN8UnitTest10CheckEqualERNS_11TestResultsEPKcS3_RKNS_11TestDetailsE
_ZN8UnitTest10CheckEqualERNS_11TestResultsEPcPKcRKNS_11TestDetailsE
_ZN8UnitTest10CheckEqualERNS_11TestResultsEPcS2_RKNS_11TestDetailsE
_ZN8UnitTest4TestC2EPKcS2_S2_i
__dso_handle
__cxa_atexit
_ZN8UnitTest4Test11GetTestListEv
_ZN8UnitTest9ListAdderC1ERNS_8TestListEPNS_4TestE
_ZTVN10__cxxabiv120__si_class_type_infoE
_ZTIN8UnitTest4TestE
_ZTISt19basic_ostringstreamIcSt11char_traitsIcESaIcEE
_ZTIN8UnitTest12TestReporterE
_ZTISo
_ZNSoD1Ev
_ZNSoD0Ev
_ZTv0_n24_NSoD1Ev
_ZTv0_n24_NSoD0Ev
_ZNSt19basic_ostringstreamIcSt11char_traitsIcESaIcEED1Ev
_ZNSt19basic_ostringstreamIcSt11char_traitsIcESaIcEED0Ev
_ZTv0_n24_NSt19basic_ostringstreamIcSt11char_traitsIcESaIcEED1Ev
_ZTv0_n24_NSt19basic_ostringstreamIcSt11char_traitsIcESaIcEED0Ev
__pthread_key_create
