   1              		.file	"TestChecks.cpp"
   2              		.section	.text._ZN17RecordingReporter13ReportSummaryEiiif,"axG",@progbits,_ZN17RecordingReporter13
   3              		.align 2
   4              		.p2align 4,,15
   5              		.weak	_ZN17RecordingReporter13ReportSummaryEiiif
   7              	_ZN17RecordingReporter13ReportSummaryEiiif:
   8              	.LFB1084:
   9              		.cfi_startproc
  10 0000 89B71C08 		movl	%esi, 2076(%rdi)
  10      0000
  11 0006 89972008 		movl	%edx, 2080(%rdi)
  11      0000
  12 000c F30F1187 		movss	%xmm0, 2088(%rdi)
  12      28080000 
  13 0014 898F2408 		movl	%ecx, 2084(%rdi)
  13      0000
  14 001a C3       		ret
  15              		.cfi_endproc
  16              	.LFE1084:
  18              		.section	.text._ZN17RecordingReporter15ReportTestStartERKN8UnitTest11TestDetailsE,"axG",@progbits,
  19              		.align 2
  20              		.p2align 4,,15
  21              		.weak	_ZN17RecordingReporter15ReportTestStartERKN8UnitTest11TestDetailsE
  23              	_ZN17RecordingReporter15ReportTestStartERKN8UnitTest11TestDetailsE:
  24              	.LFB1081:
  25              		.cfi_startproc
  26 0000 55       		pushq	%rbp
  27              		.cfi_def_cfa_offset 16
  28              		.cfi_offset 6, -16
  29 0001 4889F5   		movq	%rsi, %rbp
  30 0004 BA000100 		movl	$256, %edx
  30      00
  31 0009 53       		pushq	%rbx
  32              		.cfi_def_cfa_offset 24
  33              		.cfi_offset 3, -24
  34 000a 4889FB   		movq	%rdi, %rbx
  35 000d 4883EC08 		subq	$8, %rsp
  36              		.cfi_def_cfa_offset 32
  37 0011 83470801 		addl	$1, 8(%rdi)
  38 0015 488B36   		movq	(%rsi), %rsi
  39 0018 488D7F0C 		leaq	12(%rdi), %rdi
  40 001c E8000000 		call	__strcpy_chk
  40      00
  41 0021 488B7508 		movq	8(%rbp), %rsi
  42 0025 4883C408 		addq	$8, %rsp
  43              		.cfi_def_cfa_offset 24
  44 0029 488DBB0C 		leaq	268(%rbx), %rdi
  44      010000
  45 0030 5B       		popq	%rbx
  46              		.cfi_def_cfa_offset 16
  47 0031 5D       		popq	%rbp
  48              		.cfi_def_cfa_offset 8
  49 0032 BA000100 		movl	$256, %edx
  49      00
  50 0037 E9000000 		jmp	__strcpy_chk
  50      00
  51              		.cfi_endproc
  52              	.LFE1081:
  54              		.section	.text._ZN17RecordingReporter13ReportFailureERKN8UnitTest11TestDetailsEPKc,"axG",@progbits
  55              		.align 2
  56              		.p2align 4,,15
  57              		.weak	_ZN17RecordingReporter13ReportFailureERKN8UnitTest11TestDetailsEPKc
  59              	_ZN17RecordingReporter13ReportFailureERKN8UnitTest11TestDetailsEPKc:
  60              	.LFB1082:
  61              		.cfi_startproc
  62 0000 4154     		pushq	%r12
  63              		.cfi_def_cfa_offset 16
  64              		.cfi_offset 12, -16
  65 0002 4989D4   		movq	%rdx, %r12
  66 0005 BA000100 		movl	$256, %edx
  66      00
  67 000a 55       		pushq	%rbp
  68              		.cfi_def_cfa_offset 24
  69              		.cfi_offset 6, -24
  70 000b 4889F5   		movq	%rsi, %rbp
  71 000e 53       		pushq	%rbx
  72              		.cfi_def_cfa_offset 32
  73              		.cfi_offset 3, -32
  74 000f 83870C02 		addl	$1, 524(%rdi)
  74      000001
  75 0016 4889FB   		movq	%rdi, %rbx
  76 0019 488B7610 		movq	16(%rsi), %rsi
  77 001d 488DBF10 		leaq	528(%rdi), %rdi
  77      020000
  78 0024 E8000000 		call	__strcpy_chk
  78      00
  79 0029 8B4518   		movl	24(%rbp), %eax
  80 002c 488B7500 		movq	0(%rbp), %rsi
  81 0030 488DBB14 		leaq	788(%rbx), %rdi
  81      030000
  82 0037 BA000100 		movl	$256, %edx
  82      00
  83 003c 89831003 		movl	%eax, 784(%rbx)
  83      0000
  84 0042 E8000000 		call	__strcpy_chk
  84      00
  85 0047 488B7508 		movq	8(%rbp), %rsi
  86 004b 488DBB14 		leaq	1044(%rbx), %rdi
  86      040000
  87 0052 BA000100 		movl	$256, %edx
  87      00
  88 0057 E8000000 		call	__strcpy_chk
  88      00
  89 005c 488DBB14 		leaq	1300(%rbx), %rdi
  89      050000
  90 0063 4C89E6   		movq	%r12, %rsi
  91 0066 BA000100 		movl	$256, %edx
  91      00
  92 006b 5B       		popq	%rbx
  93              		.cfi_def_cfa_offset 24
  94 006c 5D       		popq	%rbp
  95              		.cfi_def_cfa_offset 16
  96 006d 415C     		popq	%r12
  97              		.cfi_def_cfa_offset 8
  98 006f E9000000 		jmp	__strcpy_chk
  98      00
  99              		.cfi_endproc
 100              	.LFE1082:
 102              		.section	.text._ZN17RecordingReporter16ReportTestFinishERKN8UnitTest11TestDetailsEf,"axG",@progbit
 103              		.align 2
 104              		.p2align 4,,15
 105              		.weak	_ZN17RecordingReporter16ReportTestFinishERKN8UnitTest11TestDetailsEf
 107              	_ZN17RecordingReporter16ReportTestFinishERKN8UnitTest11TestDetailsEf:
 108              	.LFB1083:
 109              		.cfi_startproc
 110 0000 55       		pushq	%rbp
 111              		.cfi_def_cfa_offset 16
 112              		.cfi_offset 6, -16
 113 0001 4889F5   		movq	%rsi, %rbp
 114 0004 BA000100 		movl	$256, %edx
 114      00
 115 0009 53       		pushq	%rbx
 116              		.cfi_def_cfa_offset 24
 117              		.cfi_offset 3, -24
 118 000a 4889FB   		movq	%rdi, %rbx
 119 000d 4883EC18 		subq	$24, %rsp
 120              		.cfi_def_cfa_offset 48
 121 0011 83871406 		addl	$1, 1556(%rdi)
 121      000001
 122 0018 488B36   		movq	(%rsi), %rsi
 123 001b 488DBF18 		leaq	1560(%rdi), %rdi
 123      060000
 124 0022 F30F1144 		movss	%xmm0, 12(%rsp)
 124      240C
 125 0028 E8000000 		call	__strcpy_chk
 125      00
 126 002d 488B7508 		movq	8(%rbp), %rsi
 127 0031 488DBB18 		leaq	1816(%rbx), %rdi
 127      070000
 128 0038 BA000100 		movl	$256, %edx
 128      00
 129 003d E8000000 		call	__strcpy_chk
 129      00
 130 0042 F30F1044 		movss	12(%rsp), %xmm0
 130      240C
 131 0048 F30F1183 		movss	%xmm0, 2072(%rbx)
 131      18080000 
 132 0050 4883C418 		addq	$24, %rsp
 133              		.cfi_def_cfa_offset 24
 134 0054 5B       		popq	%rbx
 135              		.cfi_def_cfa_offset 16
 136 0055 5D       		popq	%rbp
 137              		.cfi_def_cfa_offset 8
 138 0056 C3       		ret
 139              		.cfi_endproc
 140              	.LFE1083:
 142              		.section	.text._ZN17RecordingReporterD2Ev,"axG",@progbits,_ZN17RecordingReporterD5Ev,comdat
 143              		.align 2
 144              		.p2align 4,,15
 145              		.weak	_ZN17RecordingReporterD2Ev
 147              	_ZN17RecordingReporterD2Ev:
 148              	.LFB1391:
 149              		.cfi_startproc
 150 0000 48C70700 		movq	$_ZTV17RecordingReporter+16, (%rdi)
 150      000000
 151 0007 E9000000 		jmp	_ZN8UnitTest12TestReporterD2Ev
 151      00
 152              		.cfi_endproc
 153              	.LFE1391:
 155              		.weak	_ZN17RecordingReporterD1Ev
 156              		.set	_ZN17RecordingReporterD1Ev,_ZN17RecordingReporterD2Ev
 157              		.section	.text._ZN17RecordingReporterD0Ev,"axG",@progbits,_ZN17RecordingReporterD0Ev,comdat
 158              		.align 2
 159              		.p2align 4,,15
 160              		.weak	_ZN17RecordingReporterD0Ev
 162              	_ZN17RecordingReporterD0Ev:
 163              	.LFB1393:
 164              		.cfi_startproc
 165 0000 53       		pushq	%rbx
 166              		.cfi_def_cfa_offset 16
 167              		.cfi_offset 3, -16
 168 0001 4889FB   		movq	%rdi, %rbx
 169 0004 48C70700 		movq	$_ZTV17RecordingReporter+16, (%rdi)
 169      000000
 170 000b E8000000 		call	_ZN8UnitTest12TestReporterD2Ev
 170      00
 171 0010 4889DF   		movq	%rbx, %rdi
 172 0013 5B       		popq	%rbx
 173              		.cfi_def_cfa_offset 8
 174 0014 E9000000 		jmp	_ZdlPv
 174      00
 175              		.cfi_endproc
 176              	.LFE1393:
 178              		.text
 179              		.align 2
 180              		.p2align 4,,15
 182              	_ZN12_GLOBAL__N_143TestCheckArray2DCloseFailureIncludesDetailsD2Ev:
 183              	.LFB1287:
 184              		.cfi_startproc
 185 0000 48C70700 		movq	$_ZTVN12_GLOBAL__N_143TestCheckArray2DCloseFailureIncludesDetailsE+16, (%rdi)
 185      000000
 186 0007 E9000000 		jmp	_ZN8UnitTest4TestD2Ev
 186      00
 187              		.cfi_endproc
 188              	.LFE1287:
 190              		.set	_ZN12_GLOBAL__N_143TestCheckArray2DCloseFailureIncludesDetailsD1Ev,_ZN12_GLOBAL__N_143TestChe
 191              		.align 2
 192 000c 0F1F4000 		.p2align 4,,15
 194              	_ZN12_GLOBAL__N_143TestCheckArray2DCloseFailureIncludesDetailsD0Ev:
 195              	.LFB1289:
 196              		.cfi_startproc
 197 0010 53       		pushq	%rbx
 198              		.cfi_def_cfa_offset 16
 199              		.cfi_offset 3, -16
 200 0011 4889FB   		movq	%rdi, %rbx
 201 0014 48C70700 		movq	$_ZTVN12_GLOBAL__N_143TestCheckArray2DCloseFailureIncludesDetailsE+16, (%rdi)
 201      000000
 202 001b E8000000 		call	_ZN8UnitTest4TestD2Ev
 202      00
 203 0020 4889DF   		movq	%rbx, %rdi
 204 0023 5B       		popq	%rbx
 205              		.cfi_def_cfa_offset 8
 206 0024 E9000000 		jmp	_ZdlPv
 206      00
 207              		.cfi_endproc
 208              	.LFE1289:
 210 0029 90       		.align 2
 211 002a 660F1F44 		.p2align 4,,15
 211      0000
 213              	_ZN12_GLOBAL__N_133TestCheckCloseWithDoublesSucceedsD2Ev:
 214              	.LFB1291:
 215              		.cfi_startproc
 216 0030 48C70700 		movq	$_ZTVN12_GLOBAL__N_133TestCheckCloseWithDoublesSucceedsE+16, (%rdi)
 216      000000
 217 0037 E9000000 		jmp	_ZN8UnitTest4TestD2Ev
 217      00
 218              		.cfi_endproc
 219              	.LFE1291:
 221              		.set	_ZN12_GLOBAL__N_133TestCheckCloseWithDoublesSucceedsD1Ev,_ZN12_GLOBAL__N_133TestCheckCloseWit
 222              		.align 2
 223 003c 0F1F4000 		.p2align 4,,15
 225              	_ZN12_GLOBAL__N_133TestCheckCloseWithDoublesSucceedsD0Ev:
 226              	.LFB1293:
 227              		.cfi_startproc
 228 0040 53       		pushq	%rbx
 229              		.cfi_def_cfa_offset 16
 230              		.cfi_offset 3, -16
 231 0041 4889FB   		movq	%rdi, %rbx
 232 0044 48C70700 		movq	$_ZTVN12_GLOBAL__N_133TestCheckCloseWithDoublesSucceedsE+16, (%rdi)
 232      000000
 233 004b E8000000 		call	_ZN8UnitTest4TestD2Ev
 233      00
 234 0050 4889DF   		movq	%rbx, %rdi
 235 0053 5B       		popq	%rbx
 236              		.cfi_def_cfa_offset 8
 237 0054 E9000000 		jmp	_ZdlPv
 237      00
 238              		.cfi_endproc
 239              	.LFE1293:
 241 0059 90       		.align 2
 242 005a 660F1F44 		.p2align 4,,15
 242      0000
 244              	_ZN12_GLOBAL__N_126TestCheckArray2DCloseFalseD2Ev:
 245              	.LFB1295:
 246              		.cfi_startproc
 247 0060 48C70700 		movq	$_ZTVN12_GLOBAL__N_126TestCheckArray2DCloseFalseE+16, (%rdi)
 247      000000
 248 0067 E9000000 		jmp	_ZN8UnitTest4TestD2Ev
 248      00
 249              		.cfi_endproc
 250              	.LFE1295:
 252              		.set	_ZN12_GLOBAL__N_126TestCheckArray2DCloseFalseD1Ev,_ZN12_GLOBAL__N_126TestCheckArray2DCloseFal
 253              		.align 2
 254 006c 0F1F4000 		.p2align 4,,15
 256              	_ZN12_GLOBAL__N_126TestCheckArray2DCloseFalseD0Ev:
 257              	.LFB1297:
 258              		.cfi_startproc
 259 0070 53       		pushq	%rbx
 260              		.cfi_def_cfa_offset 16
 261              		.cfi_offset 3, -16
 262 0071 4889FB   		movq	%rdi, %rbx
 263 0074 48C70700 		movq	$_ZTVN12_GLOBAL__N_126TestCheckArray2DCloseFalseE+16, (%rdi)
 263      000000
 264 007b E8000000 		call	_ZN8UnitTest4TestD2Ev
 264      00
 265 0080 4889DF   		movq	%rbx, %rdi
 266 0083 5B       		popq	%rbx
 267              		.cfi_def_cfa_offset 8
 268 0084 E9000000 		jmp	_ZdlPv
 268      00
 269              		.cfi_endproc
 270              	.LFE1297:
 272 0089 90       		.align 2
 273 008a 660F1F44 		.p2align 4,,15
 273      0000
 275              	_ZN12_GLOBAL__N_125TestCheckArray2DCloseTrueD2Ev:
 276              	.LFB1299:
 277              		.cfi_startproc
 278 0090 48C70700 		movq	$_ZTVN12_GLOBAL__N_125TestCheckArray2DCloseTrueE+16, (%rdi)
 278      000000
 279 0097 E9000000 		jmp	_ZN8UnitTest4TestD2Ev
 279      00
 280              		.cfi_endproc
 281              	.LFE1299:
 283              		.set	_ZN12_GLOBAL__N_125TestCheckArray2DCloseTrueD1Ev,_ZN12_GLOBAL__N_125TestCheckArray2DCloseTrue
 284              		.align 2
 285 009c 0F1F4000 		.p2align 4,,15
 287              	_ZN12_GLOBAL__N_125TestCheckArray2DCloseTrueD0Ev:
 288              	.LFB1301:
 289              		.cfi_startproc
 290 00a0 53       		pushq	%rbx
 291              		.cfi_def_cfa_offset 16
 292              		.cfi_offset 3, -16
 293 00a1 4889FB   		movq	%rdi, %rbx
 294 00a4 48C70700 		movq	$_ZTVN12_GLOBAL__N_125TestCheckArray2DCloseTrueE+16, (%rdi)
 294      000000
 295 00ab E8000000 		call	_ZN8UnitTest4TestD2Ev
 295      00
 296 00b0 4889DF   		movq	%rbx, %rdi
 297 00b3 5B       		popq	%rbx
 298              		.cfi_def_cfa_offset 8
 299 00b4 E9000000 		jmp	_ZdlPv
 299      00
 300              		.cfi_endproc
 301              	.LFE1301:
 303 00b9 90       		.align 2
 304 00ba 660F1F44 		.p2align 4,,15
 304      0000
 306              	_ZN12_GLOBAL__N_141TestCheckArrayCloseFailureIncludesDetailsD2Ev:
 307              	.LFB1303:
 308              		.cfi_startproc
 309 00c0 48C70700 		movq	$_ZTVN12_GLOBAL__N_141TestCheckArrayCloseFailureIncludesDetailsE+16, (%rdi)
 309      000000
 310 00c7 E9000000 		jmp	_ZN8UnitTest4TestD2Ev
 310      00
 311              		.cfi_endproc
 312              	.LFE1303:
 314              		.set	_ZN12_GLOBAL__N_141TestCheckArrayCloseFailureIncludesDetailsD1Ev,_ZN12_GLOBAL__N_141TestCheck
 315              		.align 2
 316 00cc 0F1F4000 		.p2align 4,,15
 318              	_ZN12_GLOBAL__N_141TestCheckArrayCloseFailureIncludesDetailsD0Ev:
 319              	.LFB1305:
 320              		.cfi_startproc
 321 00d0 53       		pushq	%rbx
 322              		.cfi_def_cfa_offset 16
 323              		.cfi_offset 3, -16
 324 00d1 4889FB   		movq	%rdi, %rbx
 325 00d4 48C70700 		movq	$_ZTVN12_GLOBAL__N_141TestCheckArrayCloseFailureIncludesDetailsE+16, (%rdi)
 325      000000
 326 00db E8000000 		call	_ZN8UnitTest4TestD2Ev
 326      00
 327 00e0 4889DF   		movq	%rbx, %rdi
 328 00e3 5B       		popq	%rbx
 329              		.cfi_def_cfa_offset 8
 330 00e4 E9000000 		jmp	_ZdlPv
 330      00
 331              		.cfi_endproc
 332              	.LFE1305:
 334 00e9 90       		.align 2
 335 00ea 660F1F44 		.p2align 4,,15
 335      0000
 337              	_ZN12_GLOBAL__N_124TestCheckArrayCloseFalseD2Ev:
 338              	.LFB1307:
 339              		.cfi_startproc
 340 00f0 48C70700 		movq	$_ZTVN12_GLOBAL__N_124TestCheckArrayCloseFalseE+16, (%rdi)
 340      000000
 341 00f7 E9000000 		jmp	_ZN8UnitTest4TestD2Ev
 341      00
 342              		.cfi_endproc
 343              	.LFE1307:
 345              		.set	_ZN12_GLOBAL__N_124TestCheckArrayCloseFalseD1Ev,_ZN12_GLOBAL__N_124TestCheckArrayCloseFalseD2
 346              		.align 2
 347 00fc 0F1F4000 		.p2align 4,,15
 349              	_ZN12_GLOBAL__N_124TestCheckArrayCloseFalseD0Ev:
 350              	.LFB1309:
 351              		.cfi_startproc
 352 0100 53       		pushq	%rbx
 353              		.cfi_def_cfa_offset 16
 354              		.cfi_offset 3, -16
 355 0101 4889FB   		movq	%rdi, %rbx
 356 0104 48C70700 		movq	$_ZTVN12_GLOBAL__N_124TestCheckArrayCloseFalseE+16, (%rdi)
 356      000000
 357 010b E8000000 		call	_ZN8UnitTest4TestD2Ev
 357      00
 358 0110 4889DF   		movq	%rbx, %rdi
 359 0113 5B       		popq	%rbx
 360              		.cfi_def_cfa_offset 8
 361 0114 E9000000 		jmp	_ZdlPv
 361      00
 362              		.cfi_endproc
 363              	.LFE1309:
 365 0119 90       		.align 2
 366 011a 660F1F44 		.p2align 4,,15
 366      0000
 368              	_ZN12_GLOBAL__N_123TestCheckArrayCloseTrueD2Ev:
 369              	.LFB1311:
 370              		.cfi_startproc
 371 0120 48C70700 		movq	$_ZTVN12_GLOBAL__N_123TestCheckArrayCloseTrueE+16, (%rdi)
 371      000000
 372 0127 E9000000 		jmp	_ZN8UnitTest4TestD2Ev
 372      00
 373              		.cfi_endproc
 374              	.LFE1311:
 376              		.set	_ZN12_GLOBAL__N_123TestCheckArrayCloseTrueD1Ev,_ZN12_GLOBAL__N_123TestCheckArrayCloseTrueD2Ev
 377              		.align 2
 378 012c 0F1F4000 		.p2align 4,,15
 380              	_ZN12_GLOBAL__N_123TestCheckArrayCloseTrueD0Ev:
 381              	.LFB1313:
 382              		.cfi_startproc
 383 0130 53       		pushq	%rbx
 384              		.cfi_def_cfa_offset 16
 385              		.cfi_offset 3, -16
 386 0131 4889FB   		movq	%rdi, %rbx
 387 0134 48C70700 		movq	$_ZTVN12_GLOBAL__N_123TestCheckArrayCloseTrueE+16, (%rdi)
 387      000000
 388 013b E8000000 		call	_ZN8UnitTest4TestD2Ev
 388      00
 389 0140 4889DF   		movq	%rbx, %rdi
 390 0143 5B       		popq	%rbx
 391              		.cfi_def_cfa_offset 8
 392 0144 E9000000 		jmp	_ZdlPv
 392      00
 393              		.cfi_endproc
 394              	.LFE1313:
 396 0149 90       		.align 2
 397 014a 660F1F44 		.p2align 4,,15
 397      0000
 399              	_ZN12_GLOBAL__N_124TestCheckArrayEqualFalseD2Ev:
 400              	.LFB1315:
 401              		.cfi_startproc
 402 0150 48C70700 		movq	$_ZTVN12_GLOBAL__N_124TestCheckArrayEqualFalseE+16, (%rdi)
 402      000000
 403 0157 E9000000 		jmp	_ZN8UnitTest4TestD2Ev
 403      00
 404              		.cfi_endproc
 405              	.LFE1315:
 407              		.set	_ZN12_GLOBAL__N_124TestCheckArrayEqualFalseD1Ev,_ZN12_GLOBAL__N_124TestCheckArrayEqualFalseD2
 408              		.align 2
 409 015c 0F1F4000 		.p2align 4,,15
 411              	_ZN12_GLOBAL__N_124TestCheckArrayEqualFalseD0Ev:
 412              	.LFB1317:
 413              		.cfi_startproc
 414 0160 53       		pushq	%rbx
 415              		.cfi_def_cfa_offset 16
 416              		.cfi_offset 3, -16
 417 0161 4889FB   		movq	%rdi, %rbx
 418 0164 48C70700 		movq	$_ZTVN12_GLOBAL__N_124TestCheckArrayEqualFalseE+16, (%rdi)
 418      000000
 419 016b E8000000 		call	_ZN8UnitTest4TestD2Ev
 419      00
 420 0170 4889DF   		movq	%rbx, %rdi
 421 0173 5B       		popq	%rbx
 422              		.cfi_def_cfa_offset 8
 423 0174 E9000000 		jmp	_ZdlPv
 423      00
 424              		.cfi_endproc
 425              	.LFE1317:
 427 0179 90       		.align 2
 428 017a 660F1F44 		.p2align 4,,15
 428      0000
 430              	_ZN12_GLOBAL__N_123TestCheckArrayEqualTrueD2Ev:
 431              	.LFB1319:
 432              		.cfi_startproc
 433 0180 48C70700 		movq	$_ZTVN12_GLOBAL__N_123TestCheckArrayEqualTrueE+16, (%rdi)
 433      000000
 434 0187 E9000000 		jmp	_ZN8UnitTest4TestD2Ev
 434      00
 435              		.cfi_endproc
 436              	.LFE1319:
 438              		.set	_ZN12_GLOBAL__N_123TestCheckArrayEqualTrueD1Ev,_ZN12_GLOBAL__N_123TestCheckArrayEqualTrueD2Ev
 439              		.align 2
 440 018c 0F1F4000 		.p2align 4,,15
 442              	_ZN12_GLOBAL__N_123TestCheckArrayEqualTrueD0Ev:
 443              	.LFB1321:
 444              		.cfi_startproc
 445 0190 53       		pushq	%rbx
 446              		.cfi_def_cfa_offset 16
 447              		.cfi_offset 3, -16
 448 0191 4889FB   		movq	%rdi, %rbx
 449 0194 48C70700 		movq	$_ZTVN12_GLOBAL__N_123TestCheckArrayEqualTrueE+16, (%rdi)
 449      000000
 450 019b E8000000 		call	_ZN8UnitTest4TestD2Ev
 450      00
 451 01a0 4889DF   		movq	%rbx, %rdi
 452 01a3 5B       		popq	%rbx
 453              		.cfi_def_cfa_offset 8
 454 01a4 E9000000 		jmp	_ZdlPv
 454      00
 455              		.cfi_endproc
 456              	.LFE1321:
 458 01a9 90       		.align 2
 459 01aa 660F1F44 		.p2align 4,,15
 459      0000
 461              	_ZN12_GLOBAL__N_136TestCheckCloseFailureIncludesDetailsD2Ev:
 462              	.LFB1323:
 463              		.cfi_startproc
 464 01b0 48C70700 		movq	$_ZTVN12_GLOBAL__N_136TestCheckCloseFailureIncludesDetailsE+16, (%rdi)
 464      000000
 465 01b7 E9000000 		jmp	_ZN8UnitTest4TestD2Ev
 465      00
 466              		.cfi_endproc
 467              	.LFE1323:
 469              		.set	_ZN12_GLOBAL__N_136TestCheckCloseFailureIncludesDetailsD1Ev,_ZN12_GLOBAL__N_136TestCheckClose
 470              		.align 2
 471 01bc 0F1F4000 		.p2align 4,,15
 473              	_ZN12_GLOBAL__N_136TestCheckCloseFailureIncludesDetailsD0Ev:
 474              	.LFB1325:
 475              		.cfi_startproc
 476 01c0 53       		pushq	%rbx
 477              		.cfi_def_cfa_offset 16
 478              		.cfi_offset 3, -16
 479 01c1 4889FB   		movq	%rdi, %rbx
 480 01c4 48C70700 		movq	$_ZTVN12_GLOBAL__N_136TestCheckCloseFailureIncludesDetailsE+16, (%rdi)
 480      000000
 481 01cb E8000000 		call	_ZN8UnitTest4TestD2Ev
 481      00
 482 01d0 4889DF   		movq	%rbx, %rdi
 483 01d3 5B       		popq	%rbx
 484              		.cfi_def_cfa_offset 8
 485 01d4 E9000000 		jmp	_ZdlPv
 485      00
 486              		.cfi_endproc
 487              	.LFE1325:
 489 01d9 90       		.align 2
 490 01da 660F1F44 		.p2align 4,,15
 490      0000
 492              	_ZN12_GLOBAL__N_138TestCheckCloseFailureIncludesToleranceD2Ev:
 493              	.LFB1327:
 494              		.cfi_startproc
 495 01e0 48C70700 		movq	$_ZTVN12_GLOBAL__N_138TestCheckCloseFailureIncludesToleranceE+16, (%rdi)
 495      000000
 496 01e7 E9000000 		jmp	_ZN8UnitTest4TestD2Ev
 496      00
 497              		.cfi_endproc
 498              	.LFE1327:
 500              		.set	_ZN12_GLOBAL__N_138TestCheckCloseFailureIncludesToleranceD1Ev,_ZN12_GLOBAL__N_138TestCheckClo
 501              		.align 2
 502 01ec 0F1F4000 		.p2align 4,,15
 504              	_ZN12_GLOBAL__N_138TestCheckCloseFailureIncludesToleranceD0Ev:
 505              	.LFB1329:
 506              		.cfi_startproc
 507 01f0 53       		pushq	%rbx
 508              		.cfi_def_cfa_offset 16
 509              		.cfi_offset 3, -16
 510 01f1 4889FB   		movq	%rdi, %rbx
 511 01f4 48C70700 		movq	$_ZTVN12_GLOBAL__N_138TestCheckCloseFailureIncludesToleranceE+16, (%rdi)
 511      000000
 512 01fb E8000000 		call	_ZN8UnitTest4TestD2Ev
 512      00
 513 0200 4889DF   		movq	%rbx, %rdi
 514 0203 5B       		popq	%rbx
 515              		.cfi_def_cfa_offset 8
 516 0204 E9000000 		jmp	_ZdlPv
 516      00
 517              		.cfi_endproc
 518              	.LFE1329:
 520 0209 90       		.align 2
 521 020a 660F1F44 		.p2align 4,,15
 521      0000
 523              	_ZN12_GLOBAL__N_151TestCheckCloseFailureIncludesCheckExpectedAndActualD2Ev:
 524              	.LFB1331:
 525              		.cfi_startproc
 526 0210 48C70700 		movq	$_ZTVN12_GLOBAL__N_151TestCheckCloseFailureIncludesCheckExpectedAndActualE+16, (%rdi)
 526      000000
 527 0217 E9000000 		jmp	_ZN8UnitTest4TestD2Ev
 527      00
 528              		.cfi_endproc
 529              	.LFE1331:
 531              		.set	_ZN12_GLOBAL__N_151TestCheckCloseFailureIncludesCheckExpectedAndActualD1Ev,_ZN12_GLOBAL__N_15
 532              		.align 2
 533 021c 0F1F4000 		.p2align 4,,15
 535              	_ZN12_GLOBAL__N_151TestCheckCloseFailureIncludesCheckExpectedAndActualD0Ev:
 536              	.LFB1333:
 537              		.cfi_startproc
 538 0220 53       		pushq	%rbx
 539              		.cfi_def_cfa_offset 16
 540              		.cfi_offset 3, -16
 541 0221 4889FB   		movq	%rdi, %rbx
 542 0224 48C70700 		movq	$_ZTVN12_GLOBAL__N_151TestCheckCloseFailureIncludesCheckExpectedAndActualE+16, (%rdi)
 542      000000
 543 022b E8000000 		call	_ZN8UnitTest4TestD2Ev
 543      00
 544 0230 4889DF   		movq	%rbx, %rdi
 545 0233 5B       		popq	%rbx
 546              		.cfi_def_cfa_offset 8
 547 0234 E9000000 		jmp	_ZdlPv
 547      00
 548              		.cfi_endproc
 549              	.LFE1333:
 551 0239 90       		.align 2
 552 023a 660F1F44 		.p2align 4,,15
 552      0000
 554              	_ZN12_GLOBAL__N_139TestCheckCloseWithNaNAgainstItselfFailsD2Ev:
 555              	.LFB1335:
 556              		.cfi_startproc
 557 0240 48C70700 		movq	$_ZTVN12_GLOBAL__N_139TestCheckCloseWithNaNAgainstItselfFailsE+16, (%rdi)
 557      000000
 558 0247 E9000000 		jmp	_ZN8UnitTest4TestD2Ev
 558      00
 559              		.cfi_endproc
 560              	.LFE1335:
 562              		.set	_ZN12_GLOBAL__N_139TestCheckCloseWithNaNAgainstItselfFailsD1Ev,_ZN12_GLOBAL__N_139TestCheckCl
 563              		.align 2
 564 024c 0F1F4000 		.p2align 4,,15
 566              	_ZN12_GLOBAL__N_139TestCheckCloseWithNaNAgainstItselfFailsD0Ev:
 567              	.LFB1337:
 568              		.cfi_startproc
 569 0250 53       		pushq	%rbx
 570              		.cfi_def_cfa_offset 16
 571              		.cfi_offset 3, -16
 572 0251 4889FB   		movq	%rdi, %rbx
 573 0254 48C70700 		movq	$_ZTVN12_GLOBAL__N_139TestCheckCloseWithNaNAgainstItselfFailsE+16, (%rdi)
 573      000000
 574 025b E8000000 		call	_ZN8UnitTest4TestD2Ev
 574      00
 575 0260 4889DF   		movq	%rbx, %rdi
 576 0263 5B       		popq	%rbx
 577              		.cfi_def_cfa_offset 8
 578 0264 E9000000 		jmp	_ZdlPv
 578      00
 579              		.cfi_endproc
 580              	.LFE1337:
 582 0269 90       		.align 2
 583 026a 660F1F44 		.p2align 4,,15
 583      0000
 585              	_ZN12_GLOBAL__N_126TestCheckCloseWithNaNFailsD2Ev:
 586              	.LFB1339:
 587              		.cfi_startproc
 588 0270 48C70700 		movq	$_ZTVN12_GLOBAL__N_126TestCheckCloseWithNaNFailsE+16, (%rdi)
 588      000000
 589 0277 E9000000 		jmp	_ZN8UnitTest4TestD2Ev
 589      00
 590              		.cfi_endproc
 591              	.LFE1339:
 593              		.set	_ZN12_GLOBAL__N_126TestCheckCloseWithNaNFailsD1Ev,_ZN12_GLOBAL__N_126TestCheckCloseWithNaNFai
 594              		.align 2
 595 027c 0F1F4000 		.p2align 4,,15
 597              	_ZN12_GLOBAL__N_126TestCheckCloseWithNaNFailsD0Ev:
 598              	.LFB1341:
 599              		.cfi_startproc
 600 0280 53       		pushq	%rbx
 601              		.cfi_def_cfa_offset 16
 602              		.cfi_offset 3, -16
 603 0281 4889FB   		movq	%rdi, %rbx
 604 0284 48C70700 		movq	$_ZTVN12_GLOBAL__N_126TestCheckCloseWithNaNFailsE+16, (%rdi)
 604      000000
 605 028b E8000000 		call	_ZN8UnitTest4TestD2Ev
 605      00
 606 0290 4889DF   		movq	%rbx, %rdi
 607 0293 5B       		popq	%rbx
 608              		.cfi_def_cfa_offset 8
 609 0294 E9000000 		jmp	_ZdlPv
 609      00
 610              		.cfi_endproc
 611              	.LFE1341:
 613 0299 90       		.align 2
 614 029a 660F1F44 		.p2align 4,,15
 614      0000
 616              	_ZN12_GLOBAL__N_147TestCheckCloseWithZeroEpsilonWorksForSameNumberD2Ev:
 617              	.LFB1343:
 618              		.cfi_startproc
 619 02a0 48C70700 		movq	$_ZTVN12_GLOBAL__N_147TestCheckCloseWithZeroEpsilonWorksForSameNumberE+16, (%rdi)
 619      000000
 620 02a7 E9000000 		jmp	_ZN8UnitTest4TestD2Ev
 620      00
 621              		.cfi_endproc
 622              	.LFE1343:
 624              		.set	_ZN12_GLOBAL__N_147TestCheckCloseWithZeroEpsilonWorksForSameNumberD1Ev,_ZN12_GLOBAL__N_147Tes
 625              		.align 2
 626 02ac 0F1F4000 		.p2align 4,,15
 628              	_ZN12_GLOBAL__N_147TestCheckCloseWithZeroEpsilonWorksForSameNumberD0Ev:
 629              	.LFB1345:
 630              		.cfi_startproc
 631 02b0 53       		pushq	%rbx
 632              		.cfi_def_cfa_offset 16
 633              		.cfi_offset 3, -16
 634 02b1 4889FB   		movq	%rdi, %rbx
 635 02b4 48C70700 		movq	$_ZTVN12_GLOBAL__N_147TestCheckCloseWithZeroEpsilonWorksForSameNumberE+16, (%rdi)
 635      000000
 636 02bb E8000000 		call	_ZN8UnitTest4TestD2Ev
 636      00
 637 02c0 4889DF   		movq	%rbx, %rdi
 638 02c3 5B       		popq	%rbx
 639              		.cfi_def_cfa_offset 8
 640 02c4 E9000000 		jmp	_ZdlPv
 640      00
 641              		.cfi_endproc
 642              	.LFE1345:
 644 02c9 90       		.align 2
 645 02ca 660F1F44 		.p2align 4,,15
 645      0000
 647              	_ZN12_GLOBAL__N_119TestCheckCloseFalseD2Ev:
 648              	.LFB1347:
 649              		.cfi_startproc
 650 02d0 48C70700 		movq	$_ZTVN12_GLOBAL__N_119TestCheckCloseFalseE+16, (%rdi)
 650      000000
 651 02d7 E9000000 		jmp	_ZN8UnitTest4TestD2Ev
 651      00
 652              		.cfi_endproc
 653              	.LFE1347:
 655              		.set	_ZN12_GLOBAL__N_119TestCheckCloseFalseD1Ev,_ZN12_GLOBAL__N_119TestCheckCloseFalseD2Ev
 656              		.align 2
 657 02dc 0F1F4000 		.p2align 4,,15
 659              	_ZN12_GLOBAL__N_119TestCheckCloseFalseD0Ev:
 660              	.LFB1349:
 661              		.cfi_startproc
 662 02e0 53       		pushq	%rbx
 663              		.cfi_def_cfa_offset 16
 664              		.cfi_offset 3, -16
 665 02e1 4889FB   		movq	%rdi, %rbx
 666 02e4 48C70700 		movq	$_ZTVN12_GLOBAL__N_119TestCheckCloseFalseE+16, (%rdi)
 666      000000
 667 02eb E8000000 		call	_ZN8UnitTest4TestD2Ev
 667      00
 668 02f0 4889DF   		movq	%rbx, %rdi
 669 02f3 5B       		popq	%rbx
 670              		.cfi_def_cfa_offset 8
 671 02f4 E9000000 		jmp	_ZdlPv
 671      00
 672              		.cfi_endproc
 673              	.LFE1349:
 675 02f9 90       		.align 2
 676 02fa 660F1F44 		.p2align 4,,15
 676      0000
 678              	_ZN12_GLOBAL__N_118TestCheckCloseTrueD2Ev:
 679              	.LFB1351:
 680              		.cfi_startproc
 681 0300 48C70700 		movq	$_ZTVN12_GLOBAL__N_118TestCheckCloseTrueE+16, (%rdi)
 681      000000
 682 0307 E9000000 		jmp	_ZN8UnitTest4TestD2Ev
 682      00
 683              		.cfi_endproc
 684              	.LFE1351:
 686              		.set	_ZN12_GLOBAL__N_118TestCheckCloseTrueD1Ev,_ZN12_GLOBAL__N_118TestCheckCloseTrueD2Ev
 687              		.align 2
 688 030c 0F1F4000 		.p2align 4,,15
 690              	_ZN12_GLOBAL__N_118TestCheckCloseTrueD0Ev:
 691              	.LFB1353:
 692              		.cfi_startproc
 693 0310 53       		pushq	%rbx
 694              		.cfi_def_cfa_offset 16
 695              		.cfi_offset 3, -16
 696 0311 4889FB   		movq	%rdi, %rbx
 697 0314 48C70700 		movq	$_ZTVN12_GLOBAL__N_118TestCheckCloseTrueE+16, (%rdi)
 697      000000
 698 031b E8000000 		call	_ZN8UnitTest4TestD2Ev
 698      00
 699 0320 4889DF   		movq	%rbx, %rdi
 700 0323 5B       		popq	%rbx
 701              		.cfi_def_cfa_offset 8
 702 0324 E9000000 		jmp	_ZdlPv
 702      00
 703              		.cfi_endproc
 704              	.LFE1353:
 706 0329 90       		.align 2
 707 032a 660F1F44 		.p2align 4,,15
 707      0000
 709              	_ZN12_GLOBAL__N_136TestCheckEqualFailureIncludesDetailsD2Ev:
 710              	.LFB1355:
 711              		.cfi_startproc
 712 0330 48C70700 		movq	$_ZTVN12_GLOBAL__N_136TestCheckEqualFailureIncludesDetailsE+16, (%rdi)
 712      000000
 713 0337 E9000000 		jmp	_ZN8UnitTest4TestD2Ev
 713      00
 714              		.cfi_endproc
 715              	.LFE1355:
 717              		.set	_ZN12_GLOBAL__N_136TestCheckEqualFailureIncludesDetailsD1Ev,_ZN12_GLOBAL__N_136TestCheckEqual
 718              		.align 2
 719 033c 0F1F4000 		.p2align 4,,15
 721              	_ZN12_GLOBAL__N_136TestCheckEqualFailureIncludesDetailsD0Ev:
 722              	.LFB1357:
 723              		.cfi_startproc
 724 0340 53       		pushq	%rbx
 725              		.cfi_def_cfa_offset 16
 726              		.cfi_offset 3, -16
 727 0341 4889FB   		movq	%rdi, %rbx
 728 0344 48C70700 		movq	$_ZTVN12_GLOBAL__N_136TestCheckEqualFailureIncludesDetailsE+16, (%rdi)
 728      000000
 729 034b E8000000 		call	_ZN8UnitTest4TestD2Ev
 729      00
 730 0350 4889DF   		movq	%rbx, %rdi
 731 0353 5B       		popq	%rbx
 732              		.cfi_def_cfa_offset 8
 733 0354 E9000000 		jmp	_ZdlPv
 733      00
 734              		.cfi_endproc
 735              	.LFE1357:
 737 0359 90       		.align 2
 738 035a 660F1F44 		.p2align 4,,15
 738      0000
 740              	_ZN12_GLOBAL__N_151TestCheckEqualFailureIncludesCheckExpectedAndActualD2Ev:
 741              	.LFB1359:
 742              		.cfi_startproc
 743 0360 48C70700 		movq	$_ZTVN12_GLOBAL__N_151TestCheckEqualFailureIncludesCheckExpectedAndActualE+16, (%rdi)
 743      000000
 744 0367 E9000000 		jmp	_ZN8UnitTest4TestD2Ev
 744      00
 745              		.cfi_endproc
 746              	.LFE1359:
 748              		.set	_ZN12_GLOBAL__N_151TestCheckEqualFailureIncludesCheckExpectedAndActualD1Ev,_ZN12_GLOBAL__N_15
 749              		.align 2
 750 036c 0F1F4000 		.p2align 4,,15
 752              	_ZN12_GLOBAL__N_151TestCheckEqualFailureIncludesCheckExpectedAndActualD0Ev:
 753              	.LFB1361:
 754              		.cfi_startproc
 755 0370 53       		pushq	%rbx
 756              		.cfi_def_cfa_offset 16
 757              		.cfi_offset 3, -16
 758 0371 4889FB   		movq	%rdi, %rbx
 759 0374 48C70700 		movq	$_ZTVN12_GLOBAL__N_151TestCheckEqualFailureIncludesCheckExpectedAndActualE+16, (%rdi)
 759      000000
 760 037b E8000000 		call	_ZN8UnitTest4TestD2Ev
 760      00
 761 0380 4889DF   		movq	%rbx, %rdi
 762 0383 5B       		popq	%rbx
 763              		.cfi_def_cfa_offset 8
 764 0384 E9000000 		jmp	_ZdlPv
 764      00
 765              		.cfi_endproc
 766              	.LFE1361:
 768 0389 90       		.align 2
 769 038a 660F1F44 		.p2align 4,,15
 769      0000
 771              	_ZN12_GLOBAL__N_153TestCheckEqualsWithStringsWorksOnContentsWithALiteralD2Ev:
 772              	.LFB1363:
 773              		.cfi_startproc
 774 0390 48C70700 		movq	$_ZTVN12_GLOBAL__N_153TestCheckEqualsWithStringsWorksOnContentsWithALiteralE+16, (%rdi)
 774      000000
 775 0397 E9000000 		jmp	_ZN8UnitTest4TestD2Ev
 775      00
 776              		.cfi_endproc
 777              	.LFE1363:
 779              		.set	_ZN12_GLOBAL__N_153TestCheckEqualsWithStringsWorksOnContentsWithALiteralD1Ev,_ZN12_GLOBAL__N_
 780              		.align 2
 781 039c 0F1F4000 		.p2align 4,,15
 783              	_ZN12_GLOBAL__N_153TestCheckEqualsWithStringsWorksOnContentsWithALiteralD0Ev:
 784              	.LFB1365:
 785              		.cfi_startproc
 786 03a0 53       		pushq	%rbx
 787              		.cfi_def_cfa_offset 16
 788              		.cfi_offset 3, -16
 789 03a1 4889FB   		movq	%rdi, %rbx
 790 03a4 48C70700 		movq	$_ZTVN12_GLOBAL__N_153TestCheckEqualsWithStringsWorksOnContentsWithALiteralE+16, (%rdi)
 790      000000
 791 03ab E8000000 		call	_ZN8UnitTest4TestD2Ev
 791      00
 792 03b0 4889DF   		movq	%rbx, %rdi
 793 03b3 5B       		popq	%rbx
 794              		.cfi_def_cfa_offset 8
 795 03b4 E9000000 		jmp	_ZdlPv
 795      00
 796              		.cfi_endproc
 797              	.LFE1365:
 799 03b9 90       		.align 2
 800 03ba 660F1F44 		.p2align 4,,15
 800      0000
 802              	_ZN12_GLOBAL__N_154TestCheckEqualsWithStringsWorksOnContentsConstNonConstD2Ev:
 803              	.LFB1367:
 804              		.cfi_startproc
 805 03c0 48C70700 		movq	$_ZTVN12_GLOBAL__N_154TestCheckEqualsWithStringsWorksOnContentsConstNonConstE+16, (%rdi)
 805      000000
 806 03c7 E9000000 		jmp	_ZN8UnitTest4TestD2Ev
 806      00
 807              		.cfi_endproc
 808              	.LFE1367:
 810              		.set	_ZN12_GLOBAL__N_154TestCheckEqualsWithStringsWorksOnContentsConstNonConstD1Ev,_ZN12_GLOBAL__N
 811              		.align 2
 812 03cc 0F1F4000 		.p2align 4,,15
 814              	_ZN12_GLOBAL__N_154TestCheckEqualsWithStringsWorksOnContentsConstNonConstD0Ev:
 815              	.LFB1369:
 816              		.cfi_startproc
 817 03d0 53       		pushq	%rbx
 818              		.cfi_def_cfa_offset 16
 819              		.cfi_offset 3, -16
 820 03d1 4889FB   		movq	%rdi, %rbx
 821 03d4 48C70700 		movq	$_ZTVN12_GLOBAL__N_154TestCheckEqualsWithStringsWorksOnContentsConstNonConstE+16, (%rdi)
 821      000000
 822 03db E8000000 		call	_ZN8UnitTest4TestD2Ev
 822      00
 823 03e0 4889DF   		movq	%rbx, %rdi
 824 03e3 5B       		popq	%rbx
 825              		.cfi_def_cfa_offset 8
 826 03e4 E9000000 		jmp	_ZdlPv
 826      00
 827              		.cfi_endproc
 828              	.LFE1369:
 830 03e9 90       		.align 2
 831 03ea 660F1F44 		.p2align 4,,15
 831      0000
 833              	_ZN12_GLOBAL__N_154TestCheckEqualsWithStringsWorksOnContentsNonConstConstD2Ev:
 834              	.LFB1371:
 835              		.cfi_startproc
 836 03f0 48C70700 		movq	$_ZTVN12_GLOBAL__N_154TestCheckEqualsWithStringsWorksOnContentsNonConstConstE+16, (%rdi)
 836      000000
 837 03f7 E9000000 		jmp	_ZN8UnitTest4TestD2Ev
 837      00
 838              		.cfi_endproc
 839              	.LFE1371:
 841              		.set	_ZN12_GLOBAL__N_154TestCheckEqualsWithStringsWorksOnContentsNonConstConstD1Ev,_ZN12_GLOBAL__N
 842              		.align 2
 843 03fc 0F1F4000 		.p2align 4,,15
 845              	_ZN12_GLOBAL__N_154TestCheckEqualsWithStringsWorksOnContentsNonConstConstD0Ev:
 846              	.LFB1373:
 847              		.cfi_startproc
 848 0400 53       		pushq	%rbx
 849              		.cfi_def_cfa_offset 16
 850              		.cfi_offset 3, -16
 851 0401 4889FB   		movq	%rdi, %rbx
 852 0404 48C70700 		movq	$_ZTVN12_GLOBAL__N_154TestCheckEqualsWithStringsWorksOnContentsNonConstConstE+16, (%rdi)
 852      000000
 853 040b E8000000 		call	_ZN8UnitTest4TestD2Ev
 853      00
 854 0410 4889DF   		movq	%rbx, %rdi
 855 0413 5B       		popq	%rbx
 856              		.cfi_def_cfa_offset 8
 857 0414 E9000000 		jmp	_ZdlPv
 857      00
 858              		.cfi_endproc
 859              	.LFE1373:
 861 0419 90       		.align 2
 862 041a 660F1F44 		.p2align 4,,15
 862      0000
 864              	_ZN12_GLOBAL__N_151TestCheckEqualsWithStringsWorksOnContentsConstConstD2Ev:
 865              	.LFB1375:
 866              		.cfi_startproc
 867 0420 48C70700 		movq	$_ZTVN12_GLOBAL__N_151TestCheckEqualsWithStringsWorksOnContentsConstConstE+16, (%rdi)
 867      000000
 868 0427 E9000000 		jmp	_ZN8UnitTest4TestD2Ev
 868      00
 869              		.cfi_endproc
 870              	.LFE1375:
 872              		.set	_ZN12_GLOBAL__N_151TestCheckEqualsWithStringsWorksOnContentsConstConstD1Ev,_ZN12_GLOBAL__N_15
 873              		.align 2
 874 042c 0F1F4000 		.p2align 4,,15
 876              	_ZN12_GLOBAL__N_151TestCheckEqualsWithStringsWorksOnContentsConstConstD0Ev:
 877              	.LFB1377:
 878              		.cfi_startproc
 879 0430 53       		pushq	%rbx
 880              		.cfi_def_cfa_offset 16
 881              		.cfi_offset 3, -16
 882 0431 4889FB   		movq	%rdi, %rbx
 883 0434 48C70700 		movq	$_ZTVN12_GLOBAL__N_151TestCheckEqualsWithStringsWorksOnContentsConstConstE+16, (%rdi)
 883      000000
 884 043b E8000000 		call	_ZN8UnitTest4TestD2Ev
 884      00
 885 0440 4889DF   		movq	%rbx, %rdi
 886 0443 5B       		popq	%rbx
 887              		.cfi_def_cfa_offset 8
 888 0444 E9000000 		jmp	_ZdlPv
 888      00
 889              		.cfi_endproc
 890              	.LFE1377:
 892 0449 90       		.align 2
 893 044a 660F1F44 		.p2align 4,,15
 893      0000
 895              	_ZN12_GLOBAL__N_157TestCheckEqualsWithStringsWorksOnContentsNonConstNonConstD2Ev:
 896              	.LFB1379:
 897              		.cfi_startproc
 898 0450 48C70700 		movq	$_ZTVN12_GLOBAL__N_157TestCheckEqualsWithStringsWorksOnContentsNonConstNonConstE+16, (%rdi)
 898      000000
 899 0457 E9000000 		jmp	_ZN8UnitTest4TestD2Ev
 899      00
 900              		.cfi_endproc
 901              	.LFE1379:
 903              		.set	_ZN12_GLOBAL__N_157TestCheckEqualsWithStringsWorksOnContentsNonConstNonConstD1Ev,_ZN12_GLOBAL
 904              		.align 2
 905 045c 0F1F4000 		.p2align 4,,15
 907              	_ZN12_GLOBAL__N_157TestCheckEqualsWithStringsWorksOnContentsNonConstNonConstD0Ev:
 908              	.LFB1381:
 909              		.cfi_startproc
 910 0460 53       		pushq	%rbx
 911              		.cfi_def_cfa_offset 16
 912              		.cfi_offset 3, -16
 913 0461 4889FB   		movq	%rdi, %rbx
 914 0464 48C70700 		movq	$_ZTVN12_GLOBAL__N_157TestCheckEqualsWithStringsWorksOnContentsNonConstNonConstE+16, (%rdi)
 914      000000
 915 046b E8000000 		call	_ZN8UnitTest4TestD2Ev
 915      00
 916 0470 4889DF   		movq	%rbx, %rdi
 917 0473 5B       		popq	%rbx
 918              		.cfi_def_cfa_offset 8
 919 0474 E9000000 		jmp	_ZdlPv
 919      00
 920              		.cfi_endproc
 921              	.LFE1381:
 923 0479 90       		.align 2
 924 047a 660F1F44 		.p2align 4,,15
 924      0000
 926              	_ZN12_GLOBAL__N_149TestCheckEqualsWithStringsFailsOnDifferentStringsD2Ev:
 927              	.LFB1383:
 928              		.cfi_startproc
 929 0480 48C70700 		movq	$_ZTVN12_GLOBAL__N_149TestCheckEqualsWithStringsFailsOnDifferentStringsE+16, (%rdi)
 929      000000
 930 0487 E9000000 		jmp	_ZN8UnitTest4TestD2Ev
 930      00
 931              		.cfi_endproc
 932              	.LFE1383:
 934              		.set	_ZN12_GLOBAL__N_149TestCheckEqualsWithStringsFailsOnDifferentStringsD1Ev,_ZN12_GLOBAL__N_149T
 935              		.align 2
 936 048c 0F1F4000 		.p2align 4,,15
 938              	_ZN12_GLOBAL__N_149TestCheckEqualsWithStringsFailsOnDifferentStringsD0Ev:
 939              	.LFB1385:
 940              		.cfi_startproc
 941 0490 53       		pushq	%rbx
 942              		.cfi_def_cfa_offset 16
 943              		.cfi_offset 3, -16
 944 0491 4889FB   		movq	%rdi, %rbx
 945 0494 48C70700 		movq	$_ZTVN12_GLOBAL__N_149TestCheckEqualsWithStringsFailsOnDifferentStringsE+16, (%rdi)
 945      000000
 946 049b E8000000 		call	_ZN8UnitTest4TestD2Ev
 946      00
 947 04a0 4889DF   		movq	%rbx, %rdi
 948 04a3 5B       		popq	%rbx
 949              		.cfi_def_cfa_offset 8
 950 04a4 E9000000 		jmp	_ZdlPv
 950      00
 951              		.cfi_endproc
 952              	.LFE1385:
 954 04a9 90       		.align 2
 955 04aa 660F1F44 		.p2align 4,,15
 955      0000
 957              	_ZN12_GLOBAL__N_130TestCheckEqualWithUnsignedLongD2Ev:
 958              	.LFB1387:
 959              		.cfi_startproc
 960 04b0 48C70700 		movq	$_ZTVN12_GLOBAL__N_130TestCheckEqualWithUnsignedLongE+16, (%rdi)
 960      000000
 961 04b7 E9000000 		jmp	_ZN8UnitTest4TestD2Ev
 961      00
 962              		.cfi_endproc
 963              	.LFE1387:
 965              		.set	_ZN12_GLOBAL__N_130TestCheckEqualWithUnsignedLongD1Ev,_ZN12_GLOBAL__N_130TestCheckEqualWithUn
 966              		.align 2
 967 04bc 0F1F4000 		.p2align 4,,15
 969              	_ZN12_GLOBAL__N_130TestCheckEqualWithUnsignedLongD0Ev:
 970              	.LFB1389:
 971              		.cfi_startproc
 972 04c0 53       		pushq	%rbx
 973              		.cfi_def_cfa_offset 16
 974              		.cfi_offset 3, -16
 975 04c1 4889FB   		movq	%rdi, %rbx
 976 04c4 48C70700 		movq	$_ZTVN12_GLOBAL__N_130TestCheckEqualWithUnsignedLongE+16, (%rdi)
 976      000000
 977 04cb E8000000 		call	_ZN8UnitTest4TestD2Ev
 977      00
 978 04d0 4889DF   		movq	%rbx, %rdi
 979 04d3 5B       		popq	%rbx
 980              		.cfi_def_cfa_offset 8
 981 04d4 E9000000 		jmp	_ZdlPv
 981      00
 982              		.cfi_endproc
 983              	.LFE1389:
 985              		.section	.text.unlikely,"ax",@progbits
 987              	_ZStlsISt11char_traitsIcEERSt13basic_ostreamIcT_ES5_PKc.part.1:
 988              	.LFB1397:
 989              		.cfi_startproc
 990 0000 50       		pushq	%rax
 991              		.cfi_def_cfa_offset 16
 992 0001 488B07   		movq	(%rdi), %rax
 993 0004 480378E8 		addq	-24(%rax), %rdi
 994 0008 8B7720   		movl	32(%rdi), %esi
 995 000b 83CE01   		orl	$1, %esi
 996 000e E8000000 		call	_ZNSt9basic_iosIcSt11char_traitsIcEE5clearESt12_Ios_Iostate
 996      00
 997 0013 5A       		popq	%rdx
 998              		.cfi_def_cfa_offset 8
 999 0014 C3       		ret
 1000              		.cfi_endproc
 1001              	.LFE1397:
 1003              		.section	.text._ZNSt15basic_stringbufIcSt11char_traitsIcESaIcEED2Ev,"axG",@progbits,_ZNSt15basic_s
 1004              		.align 2
 1005              		.p2align 4,,15
 1006              		.weak	_ZNSt15basic_stringbufIcSt11char_traitsIcESaIcEED2Ev
 1008              	_ZNSt15basic_stringbufIcSt11char_traitsIcESaIcEED2Ev:
 1009              	.LFB1198:
 1010              		.cfi_startproc
 1011 0000 53       		pushq	%rbx
 1012              		.cfi_def_cfa_offset 16
 1013              		.cfi_offset 3, -16
 1014 0001 4889FB   		movq	%rdi, %rbx
 1015 0004 4883EC10 		subq	$16, %rsp
 1016              		.cfi_def_cfa_offset 32
 1017 0008 488B4748 		movq	72(%rdi), %rax
 1018 000c 48C70700 		movq	$_ZTVSt15basic_stringbufIcSt11char_traitsIcESaIcEE+16, (%rdi)
 1018      000000
 1019 0013 488D78E8 		leaq	-24(%rax), %rdi
 1020 0017 4881FF00 		cmpq	$_ZNSs4_Rep20_S_empty_rep_storageE, %rdi
 1020      000000
 1021 001e 7516     		jne	.L99
 1022              	.L93:
 1023 0020 488D7B38 		leaq	56(%rbx), %rdi
 1024 0024 48C70300 		movq	$_ZTVSt15basic_streambufIcSt11char_traitsIcEE+16, (%rbx)
 1024      000000
 1025 002b E8000000 		call	_ZNSt6localeD1Ev
 1025      00
 1026 0030 4883C410 		addq	$16, %rsp
 1027              		.cfi_remember_state
 1028              		.cfi_def_cfa_offset 16
 1029 0034 5B       		popq	%rbx
 1030              		.cfi_def_cfa_offset 8
 1031 0035 C3       		ret
 1032              	.L99:
 1033              		.cfi_restore_state
 1034 0036 B9000000 		movl	$_ZL28__gthrw___pthread_key_createPjPFvPvE, %ecx
 1034      00
 1035 003b 488D5710 		leaq	16(%rdi), %rdx
 1036 003f 4885C9   		testq	%rcx, %rcx
 1037 0042 7417     		je	.L94
 1038 0044 83C8FF   		orl	$-1, %eax
 1039 0047 F00FC102 		lock xaddl	%eax, (%rdx)
 1040              	.L95:
 1041 004b 85C0     		testl	%eax, %eax
 1042 004d 7FD1     		jg	.L93
 1043 004f 488D7424 		leaq	15(%rsp), %rsi
 1043      0F
 1044 0054 E8000000 		call	_ZNSs4_Rep10_M_destroyERKSaIcE
 1044      00
 1045 0059 EBC5     		jmp	.L93
 1046              	.L94:
 1047 005b 8B50F8   		movl	-8(%rax), %edx
 1048 005e 8D4AFF   		leal	-1(%rdx), %ecx
 1049 0061 8948F8   		movl	%ecx, -8(%rax)
 1050 0064 89D0     		movl	%edx, %eax
 1051 0066 EBE3     		jmp	.L95
 1052              		.cfi_endproc
 1053              	.LFE1198:
 1055              		.weak	_ZNSt15basic_stringbufIcSt11char_traitsIcESaIcEED1Ev
 1056              		.set	_ZNSt15basic_stringbufIcSt11char_traitsIcESaIcEED1Ev,_ZNSt15basic_stringbufIcSt11char_traitsI
 1057              		.section	.text._ZNSt15basic_stringbufIcSt11char_traitsIcESaIcEED0Ev,"axG",@progbits,_ZNSt15basic_s
 1058              		.align 2
 1059              		.p2align 4,,15
 1060              		.weak	_ZNSt15basic_stringbufIcSt11char_traitsIcESaIcEED0Ev
 1062              	_ZNSt15basic_stringbufIcSt11char_traitsIcESaIcEED0Ev:
 1063              	.LFB1200:
 1064              		.cfi_startproc
 1065 0000 53       		pushq	%rbx
 1066              		.cfi_def_cfa_offset 16
 1067              		.cfi_offset 3, -16
 1068 0001 4889FB   		movq	%rdi, %rbx
 1069 0004 4883EC10 		subq	$16, %rsp
 1070              		.cfi_def_cfa_offset 32
 1071 0008 488B4748 		movq	72(%rdi), %rax
 1072 000c 48C70700 		movq	$_ZTVSt15basic_stringbufIcSt11char_traitsIcESaIcEE+16, (%rdi)
 1072      000000
 1073 0013 488D78E8 		leaq	-24(%rax), %rdi
 1074 0017 4881FF00 		cmpq	$_ZNSs4_Rep20_S_empty_rep_storageE, %rdi
 1074      000000
 1075 001e 751E     		jne	.L107
 1076              	.L102:
 1077 0020 488D7B38 		leaq	56(%rbx), %rdi
 1078 0024 48C70300 		movq	$_ZTVSt15basic_streambufIcSt11char_traitsIcEE+16, (%rbx)
 1078      000000
 1079 002b E8000000 		call	_ZNSt6localeD1Ev
 1079      00
 1080 0030 4889DF   		movq	%rbx, %rdi
 1081 0033 E8000000 		call	_ZdlPv
 1081      00
 1082 0038 4883C410 		addq	$16, %rsp
 1083              		.cfi_remember_state
 1084              		.cfi_def_cfa_offset 16
 1085 003c 5B       		popq	%rbx
 1086              		.cfi_def_cfa_offset 8
 1087 003d C3       		ret
 1088              	.L107:
 1089              		.cfi_restore_state
 1090 003e B9000000 		movl	$_ZL28__gthrw___pthread_key_createPjPFvPvE, %ecx
 1090      00
 1091 0043 488D5710 		leaq	16(%rdi), %rdx
 1092 0047 4885C9   		testq	%rcx, %rcx
 1093 004a 7417     		je	.L103
 1094 004c 83C8FF   		orl	$-1, %eax
 1095 004f F00FC102 		lock xaddl	%eax, (%rdx)
 1096              	.L104:
 1097 0053 85C0     		testl	%eax, %eax
 1098 0055 7FC9     		jg	.L102
 1099 0057 488D7424 		leaq	15(%rsp), %rsi
 1099      0F
 1100 005c E8000000 		call	_ZNSs4_Rep10_M_destroyERKSaIcE
 1100      00
 1101 0061 EBBD     		jmp	.L102
 1102              	.L103:
 1103 0063 8B50F8   		movl	-8(%rax), %edx
 1104 0066 8D4AFF   		leal	-1(%rdx), %ecx
 1105 0069 8948F8   		movl	%ecx, -8(%rax)
 1106 006c 89D0     		movl	%edx, %eax
 1107 006e EBE3     		jmp	.L104
 1108              		.cfi_endproc
 1109              	.LFE1200:
 1111              		.section	.text._ZN8UnitTest15MemoryOutStreamD1Ev,"axG",@progbits,_ZN8UnitTest15MemoryOutStreamD1Ev
 1112              		.align 2
 1113              		.p2align 4,,15
 1114              		.weak	_ZN8UnitTest15MemoryOutStreamD1Ev
 1116              	_ZN8UnitTest15MemoryOutStreamD1Ev:
 1117              	.LFB1219:
 1118              		.cfi_startproc
 1119 0000 53       		pushq	%rbx
 1120              		.cfi_def_cfa_offset 16
 1121              		.cfi_offset 3, -16
 1122 0001 4889FB   		movq	%rdi, %rbx
 1123 0004 4883EC10 		subq	$16, %rsp
 1124              		.cfi_def_cfa_offset 32
 1125 0008 488B4758 		movq	88(%rdi), %rax
 1126 000c 48C70700 		movq	$_ZTVN8UnitTest15MemoryOutStreamE+24, (%rdi)
 1126      000000
 1127 0013 48C74760 		movq	$_ZTVN8UnitTest15MemoryOutStreamE+64, 96(%rdi)
 1127      00000000 
 1128 001b 488D78E8 		leaq	-24(%rax), %rdi
 1129 001f 4881FF00 		cmpq	$_ZNSs4_Rep20_S_empty_rep_storageE, %rdi
 1129      000000
 1130 0026 7557     		jne	.L120
 1131              	.L110:
 1132 0028 488B4350 		movq	80(%rbx), %rax
 1133 002c 48C70300 		movq	$_ZTCN8UnitTest15MemoryOutStreamE0_St19basic_ostringstreamIcSt11char_traitsIcESaIcEE+24, (%rb
 1133      000000
 1134 0033 48C74360 		movq	$_ZTCN8UnitTest15MemoryOutStreamE0_St19basic_ostringstreamIcSt11char_traitsIcESaIcEE+64, 96(%
 1134      00000000 
 1135 003b 48C74308 		movq	$_ZTVSt15basic_stringbufIcSt11char_traitsIcESaIcEE+16, 8(%rbx)
 1135      00000000 
 1136 0043 488D78E8 		leaq	-24(%rax), %rdi
 1137 0047 4881FF00 		cmpq	$_ZNSs4_Rep20_S_empty_rep_storageE, %rdi
 1137      000000
 1138 004e 7554     		jne	.L121
 1139              	.L115:
 1140 0050 488D7B40 		leaq	64(%rbx), %rdi
 1141 0054 48C74308 		movq	$_ZTVSt15basic_streambufIcSt11char_traitsIcEE+16, 8(%rbx)
 1141      00000000 
 1142 005c E8000000 		call	_ZNSt6localeD1Ev
 1142      00
 1143 0061 488D7B60 		leaq	96(%rbx), %rdi
 1144 0065 48C70300 		movq	$_ZTCN8UnitTest15MemoryOutStreamE0_So+24, (%rbx)
 1144      000000
 1145 006c 48C74360 		movq	$_ZTVSt9basic_iosIcSt11char_traitsIcEE+16, 96(%rbx)
 1145      00000000 
 1146 0074 E8000000 		call	_ZNSt8ios_baseD2Ev
 1146      00
 1147 0079 4883C410 		addq	$16, %rsp
 1148              		.cfi_remember_state
 1149              		.cfi_def_cfa_offset 16
 1150 007d 5B       		popq	%rbx
 1151              		.cfi_def_cfa_offset 8
 1152 007e C3       		ret
 1153              	.L120:
 1154              		.cfi_restore_state
 1155 007f B9000000 		movl	$_ZL28__gthrw___pthread_key_createPjPFvPvE, %ecx
 1155      00
 1156 0084 488D5710 		leaq	16(%rdi), %rdx
 1157 0088 4885C9   		testq	%rcx, %rcx
 1158 008b 743C     		je	.L111
 1159 008d 83C8FF   		orl	$-1, %eax
 1160 0090 F00FC102 		lock xaddl	%eax, (%rdx)
 1161              	.L112:
 1162 0094 85C0     		testl	%eax, %eax
 1163 0096 7F90     		jg	.L110
 1164 0098 488D7424 		leaq	15(%rsp), %rsi
 1164      0F
 1165 009d E8000000 		call	_ZNSs4_Rep10_M_destroyERKSaIcE
 1165      00
 1166 00a2 EB84     		jmp	.L110
 1167              	.L121:
 1168 00a4 B9000000 		movl	$_ZL28__gthrw___pthread_key_createPjPFvPvE, %ecx
 1168      00
 1169 00a9 488D5710 		leaq	16(%rdi), %rdx
 1170 00ad 4885C9   		testq	%rcx, %rcx
 1171 00b0 7424     		je	.L116
 1172 00b2 83C8FF   		orl	$-1, %eax
 1173 00b5 F00FC102 		lock xaddl	%eax, (%rdx)
 1174              	.L117:
 1175 00b9 85C0     		testl	%eax, %eax
 1176 00bb 7F93     		jg	.L115
 1177 00bd 488D7424 		leaq	15(%rsp), %rsi
 1177      0F
 1178 00c2 E8000000 		call	_ZNSs4_Rep10_M_destroyERKSaIcE
 1178      00
 1179 00c7 EB87     		jmp	.L115
 1180              	.L111:
 1181 00c9 8B50F8   		movl	-8(%rax), %edx
 1182 00cc 8D4AFF   		leal	-1(%rdx), %ecx
 1183 00cf 8948F8   		movl	%ecx, -8(%rax)
 1184 00d2 89D0     		movl	%edx, %eax
 1185 00d4 EBBE     		jmp	.L112
 1186              	.L116:
 1187 00d6 8B50F8   		movl	-8(%rax), %edx
 1188 00d9 8D4AFF   		leal	-1(%rdx), %ecx
 1189 00dc 8948F8   		movl	%ecx, -8(%rax)
 1190 00df 89D0     		movl	%edx, %eax
 1191 00e1 EBD6     		jmp	.L117
 1192              		.cfi_endproc
 1193              	.LFE1219:
 1195              		.set	.LTHUNK0,_ZN8UnitTest15MemoryOutStreamD1Ev
 1196 00e3 66666666 		.p2align 4,,15
 1196      2E0F1F84 
 1196      00000000 
 1196      00
 1197              		.weak	_ZTv0_n24_N8UnitTest15MemoryOutStreamD1Ev
 1199              	_ZTv0_n24_N8UnitTest15MemoryOutStreamD1Ev:
 1200              	.LFB1411:
 1201              		.cfi_startproc
 1202 00f0 4C8B17   		movq	(%rdi), %r10
 1203 00f3 49037AE8 		addq	-24(%r10), %rdi
 1204 00f7 E904FFFF 		jmp	.LTHUNK0
 1204      FF
 1205              		.cfi_endproc
 1206              	.LFE1411:
 1208              		.section	.text._ZN8UnitTest15MemoryOutStreamD0Ev,"axG",@progbits,_ZN8UnitTest15MemoryOutStreamD0Ev
 1209              		.align 2
 1210              		.p2align 4,,15
 1211              		.weak	_ZN8UnitTest15MemoryOutStreamD0Ev
 1213              	_ZN8UnitTest15MemoryOutStreamD0Ev:
 1214              	.LFB1220:
 1215              		.cfi_startproc
 1216 0000 53       		pushq	%rbx
 1217              		.cfi_def_cfa_offset 16
 1218              		.cfi_offset 3, -16
 1219 0001 4889FB   		movq	%rdi, %rbx
 1220 0004 4883EC10 		subq	$16, %rsp
 1221              		.cfi_def_cfa_offset 32
 1222 0008 488B4758 		movq	88(%rdi), %rax
 1223 000c 48C70700 		movq	$_ZTVN8UnitTest15MemoryOutStreamE+24, (%rdi)
 1223      000000
 1224 0013 48C74760 		movq	$_ZTVN8UnitTest15MemoryOutStreamE+64, 96(%rdi)
 1224      00000000 
 1225 001b 488D78E8 		leaq	-24(%rax), %rdi
 1226 001f 4881FF00 		cmpq	$_ZNSs4_Rep20_S_empty_rep_storageE, %rdi
 1226      000000
 1227 0026 755F     		jne	.L134
 1228              	.L124:
 1229 0028 488B4350 		movq	80(%rbx), %rax
 1230 002c 48C70300 		movq	$_ZTCN8UnitTest15MemoryOutStreamE0_St19basic_ostringstreamIcSt11char_traitsIcESaIcEE+24, (%rb
 1230      000000
 1231 0033 48C74360 		movq	$_ZTCN8UnitTest15MemoryOutStreamE0_St19basic_ostringstreamIcSt11char_traitsIcESaIcEE+64, 96(%
 1231      00000000 
 1232 003b 48C74308 		movq	$_ZTVSt15basic_stringbufIcSt11char_traitsIcESaIcEE+16, 8(%rbx)
 1232      00000000 
 1233 0043 488D78E8 		leaq	-24(%rax), %rdi
 1234 0047 4881FF00 		cmpq	$_ZNSs4_Rep20_S_empty_rep_storageE, %rdi
 1234      000000
 1235 004e 755F     		jne	.L135
 1236              	.L129:
 1237 0050 488D7B40 		leaq	64(%rbx), %rdi
 1238 0054 48C74308 		movq	$_ZTVSt15basic_streambufIcSt11char_traitsIcEE+16, 8(%rbx)
 1238      00000000 
 1239 005c E8000000 		call	_ZNSt6localeD1Ev
 1239      00
 1240 0061 488D7B60 		leaq	96(%rbx), %rdi
 1241 0065 48C70300 		movq	$_ZTCN8UnitTest15MemoryOutStreamE0_So+24, (%rbx)
 1241      000000
 1242 006c 48C74360 		movq	$_ZTVSt9basic_iosIcSt11char_traitsIcEE+16, 96(%rbx)
 1242      00000000 
 1243 0074 E8000000 		call	_ZNSt8ios_baseD2Ev
 1243      00
 1244 0079 4889DF   		movq	%rbx, %rdi
 1245 007c E8000000 		call	_ZdlPv
 1245      00
 1246 0081 4883C410 		addq	$16, %rsp
 1247              		.cfi_remember_state
 1248              		.cfi_def_cfa_offset 16
 1249 0085 5B       		popq	%rbx
 1250              		.cfi_def_cfa_offset 8
 1251 0086 C3       		ret
 1252              	.L134:
 1253              		.cfi_restore_state
 1254 0087 B9000000 		movl	$_ZL28__gthrw___pthread_key_createPjPFvPvE, %ecx
 1254      00
 1255 008c 488D5710 		leaq	16(%rdi), %rdx
 1256 0090 4885C9   		testq	%rcx, %rcx
 1257 0093 7442     		je	.L125
 1258 0095 83C8FF   		orl	$-1, %eax
 1259 0098 F00FC102 		lock xaddl	%eax, (%rdx)
 1260              	.L126:
 1261 009c 85C0     		testl	%eax, %eax
 1262 009e 7F88     		jg	.L124
 1263 00a0 488D7424 		leaq	15(%rsp), %rsi
 1263      0F
 1264 00a5 E8000000 		call	_ZNSs4_Rep10_M_destroyERKSaIcE
 1264      00
 1265 00aa E979FFFF 		jmp	.L124
 1265      FF
 1266              	.L135:
 1267 00af B9000000 		movl	$_ZL28__gthrw___pthread_key_createPjPFvPvE, %ecx
 1267      00
 1268 00b4 488D5710 		leaq	16(%rdi), %rdx
 1269 00b8 4885C9   		testq	%rcx, %rcx
 1270 00bb 7427     		je	.L130
 1271 00bd 83C8FF   		orl	$-1, %eax
 1272 00c0 F00FC102 		lock xaddl	%eax, (%rdx)
 1273              	.L131:
 1274 00c4 85C0     		testl	%eax, %eax
 1275 00c6 7F88     		jg	.L129
 1276 00c8 488D7424 		leaq	15(%rsp), %rsi
 1276      0F
 1277 00cd E8000000 		call	_ZNSs4_Rep10_M_destroyERKSaIcE
 1277      00
 1278 00d2 E979FFFF 		jmp	.L129
 1278      FF
 1279              	.L125:
 1280 00d7 8B50F8   		movl	-8(%rax), %edx
 1281 00da 8D4AFF   		leal	-1(%rdx), %ecx
 1282 00dd 8948F8   		movl	%ecx, -8(%rax)
 1283 00e0 89D0     		movl	%edx, %eax
 1284 00e2 EBB8     		jmp	.L126
 1285              	.L130:
 1286 00e4 8B50F8   		movl	-8(%rax), %edx
 1287 00e7 8D4AFF   		leal	-1(%rdx), %ecx
 1288 00ea 8948F8   		movl	%ecx, -8(%rax)
 1289 00ed 89D0     		movl	%edx, %eax
 1290 00ef EBD3     		jmp	.L131
 1291              		.cfi_endproc
 1292              	.LFE1220:
 1294              		.set	.LTHUNK1,_ZN8UnitTest15MemoryOutStreamD0Ev
 1295 00f1 66666666 		.p2align 4,,15
 1295      66662E0F 
 1295      1F840000 
 1295      000000
 1296              		.weak	_ZTv0_n24_N8UnitTest15MemoryOutStreamD0Ev
 1298              	_ZTv0_n24_N8UnitTest15MemoryOutStreamD0Ev:
 1299              	.LFB1412:
 1300              		.cfi_startproc
 1301 0100 4C8B17   		movq	(%rdi), %r10
 1302 0103 49037AE8 		addq	-24(%r10), %rdi
 1303 0107 E9F4FEFF 		jmp	.LTHUNK1
 1303      FF
 1304              		.cfi_endproc
 1305              	.LFE1412:
 1307              		.section	.rodata.str1.1,"aMS",@progbits,1
 1308              	.LC1:
 1309 0000 00       		.string	""
 1310              	.LC2:
 1311 0001 45787065 		.string	"Expected "
 1311      63746564 
 1311      2000
 1312              	.LC4:
 1313 000b 202B2F2D 		.string	" +/- "
 1313      2000
 1314              	.LC6:
 1315 0011 20627574 		.string	" but was "
 1315      20776173 
 1315      2000
 1316              	.LC8:
 1317 001b 78706563 		.string	"xpected 0.9"
 1317      74656420 
 1317      302E3900 
 1318              		.section	.rodata.str1.8,"aMS",@progbits,1
 1319              		.align 8
 1320              	.LC9:
 1321 0000 73747273 		.string	"strstr(reporter.lastFailedMessage, \"xpected 0.9\")"
 1321      74722872 
 1321      65706F72 
 1321      7465722E 
 1321      6C617374 
 1322              		.section	.rodata.str1.1
 1323              	.LC10:
 1324 0027 77617320 		.string	"was 1.1"
 1324      312E3100 
 1325              		.section	.rodata.str1.8
 1326 0032 00000000 		.align 8
 1326      0000
 1327              	.LC11:
 1328 0038 73747273 		.string	"strstr(reporter.lastFailedMessage, \"was 1.1\")"
 1328      74722872 
 1328      65706F72 
 1328      7465722E 
 1328      6C617374 
 1329 0066 0000     		.align 8
 1330              	.LC12:
 1331 0068 556E6861 		.string	"Unhandled exception in CHECK(strstr(reporter.lastFailedMessage, \"xpected 0.9\"))"
 1331      6E646C65 
 1331      64206578 
 1331      63657074 
 1331      696F6E20 
 1332              		.align 8
 1333              	.LC13:
 1334 00b8 556E6861 		.string	"Unhandled exception in CHECK(strstr(reporter.lastFailedMessage, \"was 1.1\"))"
 1334      6E646C65 
 1334      64206578 
 1334      63657074 
 1334      696F6E20 
 1335              		.text
 1336 04d9 90       		.align 2
 1337 04da 660F1F44 		.p2align 4,,15
 1337      0000
 1339              	_ZNK12_GLOBAL__N_151TestCheckCloseFailureIncludesCheckExpectedAndActual7RunImplEv:
 1340              	.LFB1144:
 1341              		.cfi_startproc
 1342              		.cfi_personality 0x3,__gxx_personality_v0
 1343              		.cfi_lsda 0x3,.LLSDA1144
 1344 04e0 53       		pushq	%rbx
 1345              		.cfi_def_cfa_offset 16
 1346              		.cfi_offset 3, -16
 1347 04e1 4881EC00 		subq	$2560, %rsp
 1347      0A0000
 1348              		.cfi_def_cfa_offset 2576
 1349 04e8 488DB424 		leaq	448(%rsp), %rsi
 1349      C0010000 
 1350 04f0 488D7C24 		leaq	16(%rsp), %rdi
 1350      10
 1351 04f5 48C78424 		movq	$_ZTV17RecordingReporter+16, 448(%rsp)
 1351      C0010000 
 1351      00000000 
 1352 0501 64488B04 		movq	%fs:40, %rax
 1352      25280000 
 1352      00
 1353 050a 48898424 		movq	%rax, 2552(%rsp)
 1353      F8090000 
 1354 0512 31C0     		xorl	%eax, %eax
 1355 0514 C78424C8 		movl	$0, 456(%rsp)
 1355      01000000 
 1355      000000
 1356 051f C78424CC 		movl	$0, 972(%rsp)
 1356      03000000 
 1356      000000
 1357 052a C78424D0 		movl	$0, 1232(%rsp)
 1357      04000000 
 1357      000000
 1358 0535 C78424D4 		movl	$0, 2004(%rsp)
 1358      07000000 
 1358      000000
 1359 0540 C78424D8 		movl	$0x00000000, 2520(%rsp)
 1359      09000000 
 1359      000000
 1360 054b C78424DC 		movl	$0, 2524(%rsp)
 1360      09000000 
 1360      000000
 1361 0556 C78424E0 		movl	$0, 2528(%rsp)
 1361      09000000 
 1361      000000
 1362 0561 C78424E4 		movl	$0, 2532(%rsp)
 1362      09000000 
 1362      000000
 1363 056c C78424E8 		movl	$0x00000000, 2536(%rsp)
 1363      09000000 
 1363      000000
 1364 0577 C68424CC 		movb	$0, 460(%rsp)
 1364      01000000 
 1365 057f C68424CC 		movb	$0, 716(%rsp)
 1365      02000000 
 1366 0587 C68424D0 		movb	$0, 976(%rsp)
 1366      03000000 
 1367 058f C68424D4 		movb	$0, 1236(%rsp)
 1367      04000000 
 1368 0597 C68424D4 		movb	$0, 1492(%rsp)
 1368      05000000 
 1369 059f C68424D4 		movb	$0, 1748(%rsp)
 1369      06000000 
 1370 05a7 C68424D8 		movb	$0, 2008(%rsp)
 1370      07000000 
 1371 05af C68424D8 		movb	$0, 2264(%rsp)
 1371      08000000 
 1372              	.LEHB0:
 1373 05b7 E8000000 		call	_ZN8UnitTest11TestResultsC1EPNS_12TestReporterE
 1373      00
 1374 05bc B9000000 		movl	$.LC1, %ecx
 1374      00
 1375 05c1 488D7C24 		leaq	48(%rsp), %rdi
 1375      30
 1376 05c6 4531C0   		xorl	%r8d, %r8d
 1377 05c9 4889CA   		movq	%rcx, %rdx
 1378 05cc 4889CE   		movq	%rcx, %rsi
 1379 05cf E8000000 		call	_ZN8UnitTest11TestDetailsC1EPKcS2_S2_i
 1379      00
 1380              	.LEHE0:
 1381 05d4 488D9C24 		leaq	176(%rsp), %rbx
 1381      B0000000 
 1382 05dc 4889DF   		movq	%rbx, %rdi
 1383 05df E8000000 		call	_ZNSt8ios_baseC2Ev
 1383      00
 1384 05e4 31F6     		xorl	%esi, %esi
 1385 05e6 4889DF   		movq	%rbx, %rdi
 1386 05e9 48C78424 		movq	$0, 392(%rsp)
 1386      88010000 
 1386      00000000 
 1387 05f5 C6842490 		movb	$0, 400(%rsp)
 1387      01000000 
 1388 05fd C6842491 		movb	$0, 401(%rsp)
 1388      01000000 
 1389 0605 48C78424 		movq	$0, 408(%rsp)
 1389      98010000 
 1389      00000000 
 1390 0611 48C78424 		movq	$0, 416(%rsp)
 1390      A0010000 
 1390      00000000 
 1391 061d 48C78424 		movq	$0, 424(%rsp)
 1391      A8010000 
 1391      00000000 
 1392 0629 48C78424 		movq	$0, 432(%rsp)
 1392      B0010000 
 1392      00000000 
 1393 0635 48C74424 		movq	$_ZTCN8UnitTest15MemoryOutStreamE0_So+24, 80(%rsp)
 1393      50000000 
 1393      00
 1394 063e 48C78424 		movq	$_ZTCN8UnitTest15MemoryOutStreamE0_So+64, 176(%rsp)
 1394      B0000000 
 1394      00000000 
 1395              	.LEHB1:
 1396 064a E8000000 		call	_ZNSt9basic_iosIcSt11char_traitsIcEE4initEPSt15basic_streambufIcS1_E
 1396      00
 1397              	.LEHE1:
 1398 064f 488DBC24 		leaq	144(%rsp), %rdi
 1398      90000000 
 1399 0657 48C74424 		movq	$_ZTCN8UnitTest15MemoryOutStreamE0_St19basic_ostringstreamIcSt11char_traitsIcESaIcEE+24, 80(%
 1399      50000000 
 1399      00
 1400 0660 48C78424 		movq	$_ZTCN8UnitTest15MemoryOutStreamE0_St19basic_ostringstreamIcSt11char_traitsIcESaIcEE+64, 176(
 1400      B0000000 
 1400      00000000 
 1401 066c 48C74424 		movq	$_ZTVSt15basic_streambufIcSt11char_traitsIcEE+16, 88(%rsp)
 1401      58000000 
 1401      00
 1402 0675 48C74424 		movq	$0, 96(%rsp)
 1402      60000000 
 1402      00
 1403 067e 48C74424 		movq	$0, 104(%rsp)
 1403      68000000 
 1403      00
 1404 0687 48C74424 		movq	$0, 112(%rsp)
 1404      70000000 
 1404      00
 1405 0690 48C74424 		movq	$0, 120(%rsp)
 1405      78000000 
 1405      00
 1406 0699 48C78424 		movq	$0, 128(%rsp)
 1406      80000000 
 1406      00000000 
 1407 06a5 48C78424 		movq	$0, 136(%rsp)
 1407      88000000 
 1407      00000000 
 1408 06b1 E8000000 		call	_ZNSt6localeC1Ev
 1408      00
 1409 06b6 488B4424 		movq	80(%rsp), %rax
 1409      50
 1410 06bb 488D7C24 		leaq	80(%rsp), %rdi
 1410      50
 1411 06c0 488D7424 		leaq	88(%rsp), %rsi
 1411      58
 1412 06c5 48C74424 		movq	$_ZTVSt15basic_stringbufIcSt11char_traitsIcESaIcEE+16, 88(%rsp)
 1412      58000000 
 1412      00
 1413 06ce C7842498 		movl	$16, 152(%rsp)
 1413      00000010 
 1413      000000
 1414 06d9 48C78424 		movq	$_ZNSs4_Rep20_S_empty_rep_storageE+24, 160(%rsp)
 1414      A0000000 
 1414      00000000 
 1415 06e5 480378E8 		addq	-24(%rax), %rdi
 1416              	.LEHB2:
 1417 06e9 E8000000 		call	_ZNSt9basic_iosIcSt11char_traitsIcEE4initEPSt15basic_streambufIcS1_E
 1417      00
 1418              	.LEHE2:
 1419 06ee 488D7C24 		leaq	80(%rsp), %rdi
 1419      50
 1420 06f3 BA090000 		movl	$9, %edx
 1420      00
 1421 06f8 BE000000 		movl	$.LC2, %esi
 1421      00
 1422 06fd 48C74424 		movq	$_ZTVN8UnitTest15MemoryOutStreamE+24, 80(%rsp)
 1422      50000000 
 1422      00
 1423 0706 48C78424 		movq	$_ZTVN8UnitTest15MemoryOutStreamE+64, 176(%rsp)
 1423      B0000000 
 1423      00000000 
 1424 0712 48C78424 		movq	$_ZNSs4_Rep20_S_empty_rep_storageE+24, 168(%rsp)
 1424      A8000000 
 1424      00000000 
 1425              	.LEHB3:
 1426 071e E8000000 		call	_ZSt16__ostream_insertIcSt11char_traitsIcEERSt13basic_ostreamIT_T0_ES6_PKS3_l
 1426      00
 1427 0723 F20F1005 		movsd	.LC3(%rip), %xmm0
 1427      00000000 
 1428 072b 488D7C24 		leaq	80(%rsp), %rdi
 1428      50
 1429 0730 E8000000 		call	_ZNSo9_M_insertIdEERSoT_
 1429      00
 1430 0735 BA050000 		movl	$5, %edx
 1430      00
 1431 073a BE000000 		movl	$.LC4, %esi
 1431      00
 1432 073f 4889C7   		movq	%rax, %rdi
 1433 0742 4889C3   		movq	%rax, %rbx
 1434 0745 E8000000 		call	_ZSt16__ostream_insertIcSt11char_traitsIcEERSt13basic_ostreamIT_T0_ES6_PKS3_l
 1434      00
 1435 074a F20F1005 		movsd	.LC5(%rip), %xmm0
 1435      00000000 
 1436 0752 4889DF   		movq	%rbx, %rdi
 1437 0755 E8000000 		call	_ZNSo9_M_insertIdEERSoT_
 1437      00
 1438 075a BA090000 		movl	$9, %edx
 1438      00
 1439 075f BE000000 		movl	$.LC6, %esi
 1439      00
 1440 0764 4889C7   		movq	%rax, %rdi
 1441 0767 4889C3   		movq	%rax, %rbx
 1442 076a E8000000 		call	_ZSt16__ostream_insertIcSt11char_traitsIcEERSt13basic_ostreamIT_T0_ES6_PKS3_l
 1442      00
 1443 076f F20F1005 		movsd	.LC7(%rip), %xmm0
 1443      00000000 
 1444 0777 4889DF   		movq	%rbx, %rdi
 1445 077a E8000000 		call	_ZNSo9_M_insertIdEERSoT_
 1445      00
 1446 077f 488D7C24 		leaq	80(%rsp), %rdi
 1446      50
 1447 0784 E8000000 		call	_ZNK8UnitTest15MemoryOutStream7GetTextEv
 1447      00
 1448 0789 488D7424 		leaq	48(%rsp), %rsi
 1448      30
 1449 078e 488D7C24 		leaq	16(%rsp), %rdi
 1449      10
 1450 0793 4889C2   		movq	%rax, %rdx
 1451 0796 E8000000 		call	_ZN8UnitTest11TestResults13OnTestFailureERKNS_11TestDetailsEPKc
 1451      00
 1452              	.LEHE3:
 1453 079b 488B8424 		movq	168(%rsp), %rax
 1453      A8000000 
 1454 07a3 48C74424 		movq	$_ZTVN8UnitTest15MemoryOutStreamE+24, 80(%rsp)
 1454      50000000 
 1454      00
 1455 07ac 48C78424 		movq	$_ZTVN8UnitTest15MemoryOutStreamE+64, 176(%rsp)
 1455      B0000000 
 1455      00000000 
 1456 07b8 488D78E8 		leaq	-24(%rax), %rdi
 1457 07bc 4881FF00 		cmpq	$_ZNSs4_Rep20_S_empty_rep_storageE, %rdi
 1457      000000
 1458 07c3 0F854A01 		jne	.L176
 1458      0000
 1459              	.L143:
 1460 07c9 488B8424 		movq	160(%rsp), %rax
 1460      A0000000 
 1461 07d1 48C74424 		movq	$_ZTCN8UnitTest15MemoryOutStreamE0_St19basic_ostringstreamIcSt11char_traitsIcESaIcEE+24, 80(%
 1461      50000000 
 1461      00
 1462 07da 48C78424 		movq	$_ZTCN8UnitTest15MemoryOutStreamE0_St19basic_ostringstreamIcSt11char_traitsIcESaIcEE+64, 176(
 1462      B0000000 
 1462      00000000 
 1463 07e6 48C74424 		movq	$_ZTVSt15basic_stringbufIcSt11char_traitsIcESaIcEE+16, 88(%rsp)
 1463      58000000 
 1463      00
 1464 07ef 488D78E8 		leaq	-24(%rax), %rdi
 1465 07f3 4881FF00 		cmpq	$_ZNSs4_Rep20_S_empty_rep_storageE, %rdi
 1465      000000
 1466 07fa 0F854801 		jne	.L177
 1466      0000
 1467              	.L148:
 1468 0800 488DBC24 		leaq	144(%rsp), %rdi
 1468      90000000 
 1469 0808 48C74424 		movq	$_ZTVSt15basic_streambufIcSt11char_traitsIcEE+16, 88(%rsp)
 1469      58000000 
 1469      00
 1470 0811 E8000000 		call	_ZNSt6localeD1Ev
 1470      00
 1471 0816 488D4424 		leaq	80(%rsp), %rax
 1471      50
 1472 081b 48C74424 		movq	$_ZTCN8UnitTest15MemoryOutStreamE0_So+24, 80(%rsp)
 1472      50000000 
 1472      00
 1473 0824 48C78424 		movq	$_ZTVSt9basic_iosIcSt11char_traitsIcEE+16, 176(%rsp)
 1473      B0000000 
 1473      00000000 
 1474 0830 488D7860 		leaq	96(%rax), %rdi
 1475              	.LEHB4:
 1476 0834 E8000000 		call	_ZNSt8ios_baseD2Ev
 1476      00
 1477              	.LEHE4:
 1478 0839 488DBC24 		leaq	1748(%rsp), %rdi
 1478      D4060000 
 1479 0841 BE000000 		movl	$.LC8, %esi
 1479      00
 1480 0846 E8000000 		call	strstr
 1480      00
 1481 084b 4885C0   		testq	%rax, %rax
 1482 084e 0F848C00 		je	.L178
 1482      0000
 1483              	.L153:
 1484 0854 488DBC24 		leaq	1748(%rsp), %rdi
 1484      D4060000 
 1485 085c BE000000 		movl	$.LC10, %esi
 1485      00
 1486 0861 E8000000 		call	strstr
 1486      00
 1487 0866 4885C0   		testq	%rax, %rax
 1488 0869 743D     		je	.L179
 1489              	.L156:
 1490 086b 488DBC24 		leaq	448(%rsp), %rdi
 1490      C0010000 
 1491 0873 48C78424 		movq	$_ZTV17RecordingReporter+16, 448(%rsp)
 1491      C0010000 
 1491      00000000 
 1492              	.LEHB5:
 1493 087f E8000000 		call	_ZN8UnitTest12TestReporterD2Ev
 1493      00
 1494              	.LEHE5:
 1495 0884 488B8424 		movq	2552(%rsp), %rax
 1495      F8090000 
 1496 088c 64483304 		xorq	%fs:40, %rax
 1496      25280000 
 1496      00
 1497 0895 0F85A800 		jne	.L180
 1497      0000
 1498 089b 4881C400 		addq	$2560, %rsp
 1498      0A0000
 1499              		.cfi_remember_state
 1500              		.cfi_def_cfa_offset 16
 1501 08a2 5B       		popq	%rbx
 1502              		.cfi_def_cfa_offset 8
 1503 08a3 C3       		ret
 1504              		.p2align 4,,10
 1505 08a4 0F1F4000 		.p2align 3
 1506              	.L179:
 1507              		.cfi_restore_state
 1508              	.LEHB6:
 1509 08a8 E8000000 		call	_ZN8UnitTest11CurrentTest7DetailsEv
 1509      00
 1510 08ad 488B30   		movq	(%rax), %rsi
 1511 08b0 488D7C24 		leaq	80(%rsp), %rdi
 1511      50
 1512 08b5 BA9C0000 		movl	$156, %edx
 1512      00
 1513 08ba E8000000 		call	_ZN8UnitTest11TestDetailsC1ERKS0_i
 1513      00
 1514 08bf E8000000 		call	_ZN8UnitTest11CurrentTest7ResultsEv
 1514      00
 1515 08c4 488B38   		movq	(%rax), %rdi
 1516 08c7 488D7424 		leaq	80(%rsp), %rsi
 1516      50
 1517 08cc BA000000 		movl	$.LC11, %edx
 1517      00
 1518 08d1 E8000000 		call	_ZN8UnitTest11TestResults13OnTestFailureERKNS_11TestDetailsEPKc
 1518      00
 1519              	.LEHE6:
 1520 08d6 EB93     		jmp	.L156
 1521 08d8 0F1F8400 		.p2align 4,,10
 1521      00000000 
 1522              		.p2align 3
 1523              	.L178:
 1524              	.LEHB7:
 1525 08e0 E8000000 		call	_ZN8UnitTest11CurrentTest7DetailsEv
 1525      00
 1526 08e5 488B30   		movq	(%rax), %rsi
 1527 08e8 488D7C24 		leaq	80(%rsp), %rdi
 1527      50
 1528 08ed BA9B0000 		movl	$155, %edx
 1528      00
 1529 08f2 E8000000 		call	_ZN8UnitTest11TestDetailsC1ERKS0_i
 1529      00
 1530 08f7 E8000000 		call	_ZN8UnitTest11CurrentTest7ResultsEv
 1530      00
 1531 08fc 488B38   		movq	(%rax), %rdi
 1532 08ff 488D7424 		leaq	80(%rsp), %rsi
 1532      50
 1533 0904 BA000000 		movl	$.LC9, %edx
 1533      00
 1534 0909 E8000000 		call	_ZN8UnitTest11TestResults13OnTestFailureERKNS_11TestDetailsEPKc
 1534      00
 1535              	.LEHE7:
 1536 090e E941FFFF 		jmp	.L153
 1536      FF
 1537              	.L176:
 1538 0913 B9000000 		movl	$_ZL28__gthrw___pthread_key_createPjPFvPvE, %ecx
 1538      00
 1539 0918 488D5710 		leaq	16(%rdi), %rdx
 1540 091c 4885C9   		testq	%rcx, %rcx
 1541 091f 0F84C000 		je	.L144
 1541      0000
 1542 0925 83C8FF   		orl	$-1, %eax
 1543 0928 F00FC102 		lock xaddl	%eax, (%rdx)
 1544              	.L145:
 1545 092c 85C0     		testl	%eax, %eax
 1546 092e 0F8F95FE 		jg	.L143
 1546      FFFF
 1547 0934 488D7424 		leaq	15(%rsp), %rsi
 1547      0F
 1548 0939 E8000000 		call	_ZNSs4_Rep10_M_destroyERKSaIcE
 1548      00
 1549 093e E986FEFF 		jmp	.L143
 1549      FF
 1550              	.L180:
 1551 0943 E8000000 		call	__stack_chk_fail
 1551      00
 1552              	.L177:
 1553 0948 B9000000 		movl	$_ZL28__gthrw___pthread_key_createPjPFvPvE, %ecx
 1553      00
 1554 094d 488D5710 		leaq	16(%rdi), %rdx
 1555 0951 4885C9   		testq	%rcx, %rcx
 1556 0954 7442     		je	.L149
 1557 0956 83C8FF   		orl	$-1, %eax
 1558 0959 F00FC102 		lock xaddl	%eax, (%rdx)
 1559              	.L150:
 1560 095d 85C0     		testl	%eax, %eax
 1561 095f 0F8F9BFE 		jg	.L148
 1561      FFFF
 1562 0965 488D7424 		leaq	15(%rsp), %rsi
 1562      0F
 1563 096a E8000000 		call	_ZNSs4_Rep10_M_destroyERKSaIcE
 1563      00
 1564 096f E98CFEFF 		jmp	.L148
 1564      FF
 1565              	.L164:
 1566 0974 4889C3   		movq	%rax, %rbx
 1567              	.L141:
 1568 0977 488DBC24 		leaq	448(%rsp), %rdi
 1568      C0010000 
 1569 097f 48C78424 		movq	$_ZTV17RecordingReporter+16, 448(%rsp)
 1569      C0010000 
 1569      00000000 
 1570 098b E8000000 		call	_ZN8UnitTest12TestReporterD2Ev
 1570      00
 1571 0990 4889DF   		movq	%rbx, %rdi
 1572              	.LEHB8:
 1573 0993 E8000000 		call	_Unwind_Resume
 1573      00
 1574              	.LEHE8:
 1575              	.L149:
 1576 0998 8B50F8   		movl	-8(%rax), %edx
 1577 099b 8D4AFF   		leal	-1(%rdx), %ecx
 1578 099e 8948F8   		movl	%ecx, -8(%rax)
 1579 09a1 89D0     		movl	%edx, %eax
 1580 09a3 EBB8     		jmp	.L150
 1581              	.L165:
 1582 09a5 4889C7   		movq	%rax, %rdi
 1583 09a8 E8000000 		call	__cxa_begin_catch
 1583      00
 1584              	.LEHB9:
 1585 09ad E8000000 		call	_ZN8UnitTest11CurrentTest7DetailsEv
 1585      00
 1586 09b2 488B30   		movq	(%rax), %rsi
 1587 09b5 488D7C24 		leaq	80(%rsp), %rdi
 1587      50
 1588 09ba BA9B0000 		movl	$155, %edx
 1588      00
 1589 09bf E8000000 		call	_ZN8UnitTest11TestDetailsC1ERKS0_i
 1589      00
 1590 09c4 E8000000 		call	_ZN8UnitTest11CurrentTest7ResultsEv
 1590      00
 1591 09c9 488B38   		movq	(%rax), %rdi
 1592 09cc 488D7424 		leaq	80(%rsp), %rsi
 1592      50
 1593 09d1 BA000000 		movl	$.LC12, %edx
 1593      00
 1594 09d6 E8000000 		call	_ZN8UnitTest11TestResults13OnTestFailureERKNS_11TestDetailsEPKc
 1594      00
 1595              	.LEHE9:
 1596              	.LEHB10:
 1597 09db E8000000 		call	__cxa_end_catch
 1597      00
 1598              	.LEHE10:
 1599 09e0 E96FFEFF 		jmp	.L153
 1599      FF
 1600              	.L144:
 1601 09e5 8B50F8   		movl	-8(%rax), %edx
 1602 09e8 8D4AFF   		leal	-1(%rdx), %ecx
 1603 09eb 8948F8   		movl	%ecx, -8(%rax)
 1604 09ee 89D0     		movl	%edx, %eax
 1605 09f0 E937FFFF 		jmp	.L145
 1605      FF
 1606              	.L166:
 1607 09f5 4889C3   		movq	%rax, %rbx
 1608 09f8 E8000000 		call	__cxa_end_catch
 1608      00
 1609 09fd E975FFFF 		jmp	.L141
 1609      FF
 1610              	.L167:
 1611 0a02 4889C7   		movq	%rax, %rdi
 1612 0a05 E8000000 		call	__cxa_begin_catch
 1612      00
 1613              		.p2align 4,,5
 1614              	.LEHB11:
 1615 0a0a E8000000 		call	_ZN8UnitTest11CurrentTest7DetailsEv
 1615      00
 1616 0a0f 488B30   		movq	(%rax), %rsi
 1617 0a12 488D7C24 		leaq	80(%rsp), %rdi
 1617      50
 1618 0a17 BA9C0000 		movl	$156, %edx
 1618      00
 1619 0a1c E8000000 		call	_ZN8UnitTest11TestDetailsC1ERKS0_i
 1619      00
 1620 0a21 E8000000 		call	_ZN8UnitTest11CurrentTest7ResultsEv
 1620      00
 1621 0a26 488B38   		movq	(%rax), %rdi
 1622 0a29 488D7424 		leaq	80(%rsp), %rsi
 1622      50
 1623 0a2e BA000000 		movl	$.LC13, %edx
 1623      00
 1624 0a33 E8000000 		call	_ZN8UnitTest11TestResults13OnTestFailureERKNS_11TestDetailsEPKc
 1624      00
 1625              	.LEHE11:
 1626              	.LEHB12:
 1627 0a38 E8000000 		call	__cxa_end_catch
 1627      00
 1628              	.LEHE12:
 1629 0a3d E929FEFF 		jmp	.L156
 1629      FF
 1630              	.L169:
 1631 0a42 488D7C24 		leaq	80(%rsp), %rdi
 1631      50
 1632 0a47 4889C3   		movq	%rax, %rbx
 1633 0a4a E8000000 		call	_ZN8UnitTest15MemoryOutStreamD1Ev
 1633      00
 1634 0a4f E923FFFF 		jmp	.L141
 1634      FF
 1635              	.L168:
 1636 0a54 4889C3   		movq	%rax, %rbx
 1637 0a57 E8000000 		call	__cxa_end_catch
 1637      00
 1638 0a5c 0F1F4000 		.p2align 4,,5
 1639 0a60 E912FFFF 		jmp	.L141
 1639      FF
 1640              	.L171:
 1641 0a65 488D7C24 		leaq	88(%rsp), %rdi
 1641      58
 1642 0a6a 4889C3   		movq	%rax, %rbx
 1643 0a6d E8000000 		call	_ZNSt15basic_stringbufIcSt11char_traitsIcESaIcEED1Ev
 1643      00
 1644 0a72 48C74424 		movq	$_ZTCN8UnitTest15MemoryOutStreamE0_So+24, 80(%rsp)
 1644      50000000 
 1644      00
 1645              	.L139:
 1646 0a7b 488DBC24 		leaq	176(%rsp), %rdi
 1646      B0000000 
 1647 0a83 48C78424 		movq	$_ZTVSt9basic_iosIcSt11char_traitsIcEE+16, 176(%rsp)
 1647      B0000000 
 1647      00000000 
 1648 0a8f E8000000 		call	_ZNSt8ios_baseD2Ev
 1648      00
 1649 0a94 E9DEFEFF 		jmp	.L141
 1649      FF
 1650              	.L170:
 1651 0a99 4889C3   		movq	%rax, %rbx
 1652 0a9c EBDD     		jmp	.L139
 1653              		.cfi_endproc
 1654              	.LFE1144:
 1655              		.globl	__gxx_personality_v0
 1656              		.section	.gcc_except_table,"a",@progbits
 1657              		.align 4
 1658              	.LLSDA1144:
 1659 0000 FF       		.byte	0xff
 1660 0001 03       		.byte	0x3
 1661 0002 55       		.uleb128 .LLSDATT1144-.LLSDATTD1144
 1662              	.LLSDATTD1144:
 1663 0003 01       		.byte	0x1
 1664 0004 4C       		.uleb128 .LLSDACSE1144-.LLSDACSB1144
 1665              	.LLSDACSB1144:
 1666 0005 D701     		.uleb128 .LEHB0-.LFB1144
 1667 0007 1D       		.uleb128 .LEHE0-.LEHB0
 1668 0008 9409     		.uleb128 .L164-.LFB1144
 1669 000a 00       		.uleb128 0
 1670 000b EA02     		.uleb128 .LEHB1-.LFB1144
 1671 000d 05       		.uleb128 .LEHE1-.LEHB1
 1672 000e B90B     		.uleb128 .L170-.LFB1144
 1673 0010 00       		.uleb128 0
 1674 0011 8904     		.uleb128 .LEHB2-.LFB1144
 1675 0013 05       		.uleb128 .LEHE2-.LEHB2
 1676 0014 850B     		.uleb128 .L171-.LFB1144
 1677 0016 00       		.uleb128 0
 1678 0017 BE04     		.uleb128 .LEHB3-.LFB1144
 1679 0019 7D       		.uleb128 .LEHE3-.LEHB3
 1680 001a E20A     		.uleb128 .L169-.LFB1144
 1681 001c 00       		.uleb128 0
 1682 001d D406     		.uleb128 .LEHB4-.LFB1144
 1683 001f 05       		.uleb128 .LEHE4-.LEHB4
 1684 0020 9409     		.uleb128 .L164-.LFB1144
 1685 0022 00       		.uleb128 0
 1686 0023 9F07     		.uleb128 .LEHB5-.LFB1144
 1687 0025 05       		.uleb128 .LEHE5-.LEHB5
 1688 0026 00       		.uleb128 0
 1689 0027 00       		.uleb128 0
 1690 0028 C807     		.uleb128 .LEHB6-.LFB1144
 1691 002a 2E       		.uleb128 .LEHE6-.LEHB6
 1692 002b A20A     		.uleb128 .L167-.LFB1144
 1693 002d 01       		.uleb128 0x1
 1694 002e 8008     		.uleb128 .LEHB7-.LFB1144
 1695 0030 2E       		.uleb128 .LEHE7-.LEHB7
 1696 0031 C509     		.uleb128 .L165-.LFB1144
 1697 0033 01       		.uleb128 0x1
 1698 0034 B309     		.uleb128 .LEHB8-.LFB1144
 1699 0036 05       		.uleb128 .LEHE8-.LEHB8
 1700 0037 00       		.uleb128 0
 1701 0038 00       		.uleb128 0
 1702 0039 CD09     		.uleb128 .LEHB9-.LFB1144
 1703 003b 2E       		.uleb128 .LEHE9-.LEHB9
 1704 003c 950A     		.uleb128 .L166-.LFB1144
 1705 003e 00       		.uleb128 0
 1706 003f FB09     		.uleb128 .LEHB10-.LFB1144
 1707 0041 05       		.uleb128 .LEHE10-.LEHB10
 1708 0042 9409     		.uleb128 .L164-.LFB1144
 1709 0044 00       		.uleb128 0
 1710 0045 AA0A     		.uleb128 .LEHB11-.LFB1144
 1711 0047 2E       		.uleb128 .LEHE11-.LEHB11
 1712 0048 F40A     		.uleb128 .L168-.LFB1144
 1713 004a 00       		.uleb128 0
 1714 004b D80A     		.uleb128 .LEHB12-.LFB1144
 1715 004d 05       		.uleb128 .LEHE12-.LEHB12
 1716 004e 9409     		.uleb128 .L164-.LFB1144
 1717 0050 00       		.uleb128 0
 1718              	.LLSDACSE1144:
 1719 0051 01       		.byte	0x1
 1720 0052 00       		.byte	0
 1721 0053 00       		.align 4
 1722 0054 00000000 		.long	0
 1723              	
 1724              	.LLSDATT1144:
 1725              		.text
 1727              		.section	.rodata.str1.8
 1728 0104 00000000 		.align 8
 1729              	.LC14:
 1730 0108 556E6861 		.string	"Unhandled exception in CHECK_EQUAL(something, something)"
 1730      6E646C65 
 1730      64206578 
 1730      63657074 
 1730      696F6E20 
 1731              		.text
 1732              		.align 2
 1733 0a9e 6690     		.p2align 4,,15
 1735              	_ZNK12_GLOBAL__N_130TestCheckEqualWithUnsignedLong7RunImplEv:
 1736              	.LFB1088:
 1737              		.cfi_startproc
 1738              		.cfi_personality 0x3,__gxx_personality_v0
 1739              		.cfi_lsda 0x3,.LLSDA1088
 1740 0aa0 53       		pushq	%rbx
 1741              		.cfi_def_cfa_offset 16
 1742              		.cfi_offset 3, -16
 1743 0aa1 31F6     		xorl	%esi, %esi
 1744 0aa3 4883EC40 		subq	$64, %rsp
 1745              		.cfi_def_cfa_offset 80
 1746 0aa7 4889E7   		movq	%rsp, %rdi
 1747              	.LEHB13:
 1748 0aaa E8000000 		call	_ZN8UnitTest11TestResultsC1EPNS_12TestReporterE
 1748      00
 1749              	.LEHE13:
 1750              	.LEHB14:
 1751 0aaf E8000000 		call	_ZN8UnitTest11CurrentTest7DetailsEv
 1751      00
 1752 0ab4 488B30   		movq	(%rax), %rsi
 1753 0ab7 488D7C24 		leaq	32(%rsp), %rdi
 1753      20
 1754 0abc BA0E0000 		movl	$14, %edx
 1754      00
 1755 0ac1 E8000000 		call	_ZN8UnitTest11TestDetailsC1ERKS0_i
 1755      00
 1756 0ac6 E8000000 		call	_ZN8UnitTest11CurrentTest7ResultsEv
 1756      00
 1757              	.LEHE14:
 1758              	.L181:
 1759 0acb 4883C440 		addq	$64, %rsp
 1760              		.cfi_remember_state
 1761              		.cfi_def_cfa_offset 16
 1762 0acf 5B       		popq	%rbx
 1763              		.cfi_def_cfa_offset 8
 1764 0ad0 C3       		ret
 1765              	.L185:
 1766              		.cfi_restore_state
 1767 0ad1 4889C7   		movq	%rax, %rdi
 1768 0ad4 E8000000 		call	__cxa_begin_catch
 1768      00
 1769              	.LEHB15:
 1770 0ad9 E8000000 		call	_ZN8UnitTest11CurrentTest7DetailsEv
 1770      00
 1771 0ade 488B30   		movq	(%rax), %rsi
 1772 0ae1 488D7C24 		leaq	32(%rsp), %rdi
 1772      20
 1773 0ae6 BA0E0000 		movl	$14, %edx
 1773      00
 1774 0aeb E8000000 		call	_ZN8UnitTest11TestDetailsC1ERKS0_i
 1774      00
 1775 0af0 E8000000 		call	_ZN8UnitTest11CurrentTest7ResultsEv
 1775      00
 1776 0af5 488B38   		movq	(%rax), %rdi
 1777 0af8 488D7424 		leaq	32(%rsp), %rsi
 1777      20
 1778 0afd BA000000 		movl	$.LC14, %edx
 1778      00
 1779 0b02 E8000000 		call	_ZN8UnitTest11TestResults13OnTestFailureERKNS_11TestDetailsEPKc
 1779      00
 1780              	.LEHE15:
 1781              	.LEHB16:
 1782 0b07 E8000000 		call	__cxa_end_catch
 1782      00
 1783              	.LEHE16:
 1784 0b0c EBBD     		jmp	.L181
 1785              	.L186:
 1786 0b0e 4889C3   		movq	%rax, %rbx
 1787              		.p2align 4,,5
 1788 0b11 E8000000 		call	__cxa_end_catch
 1788      00
 1789 0b16 4889DF   		movq	%rbx, %rdi
 1790              	.LEHB17:
 1791 0b19 E8000000 		call	_Unwind_Resume
 1791      00
 1792              	.LEHE17:
 1793              		.cfi_endproc
 1794              	.LFE1088:
 1795              		.section	.gcc_except_table
 1796              		.align 4
 1797              	.LLSDA1088:
 1798 0058 FF       		.byte	0xff
 1799 0059 03       		.byte	0x3
 1800 005a 1D       		.uleb128 .LLSDATT1088-.LLSDATTD1088
 1801              	.LLSDATTD1088:
 1802 005b 01       		.byte	0x1
 1803 005c 14       		.uleb128 .LLSDACSE1088-.LLSDACSB1088
 1804              	.LLSDACSB1088:
 1805 005d 0A       		.uleb128 .LEHB13-.LFB1088
 1806 005e 05       		.uleb128 .LEHE13-.LEHB13
 1807 005f 00       		.uleb128 0
 1808 0060 00       		.uleb128 0
 1809 0061 0F       		.uleb128 .LEHB14-.LFB1088
 1810 0062 1C       		.uleb128 .LEHE14-.LEHB14
 1811 0063 31       		.uleb128 .L185-.LFB1088
 1812 0064 01       		.uleb128 0x1
 1813 0065 39       		.uleb128 .LEHB15-.LFB1088
 1814 0066 2E       		.uleb128 .LEHE15-.LEHB15
 1815 0067 6E       		.uleb128 .L186-.LFB1088
 1816 0068 00       		.uleb128 0
 1817 0069 67       		.uleb128 .LEHB16-.LFB1088
 1818 006a 05       		.uleb128 .LEHE16-.LEHB16
 1819 006b 00       		.uleb128 0
 1820 006c 00       		.uleb128 0
 1821 006d 79       		.uleb128 .LEHB17-.LFB1088
 1822 006e 05       		.uleb128 .LEHE17-.LEHB17
 1823 006f 00       		.uleb128 0
 1824 0070 00       		.uleb128 0
 1825              	.LLSDACSE1088:
 1826 0071 01       		.byte	0x1
 1827 0072 00       		.byte	0
 1828 0073 00       		.align 4
 1829 0074 00000000 		.long	0
 1830              	
 1831              	.LLSDATT1088:
 1832              		.text
 1834              		.section	.rodata.str1.8
 1835 0141 00000000 		.align 8
 1835      000000
 1836              	.LC15:
 1837 0148 556E6861 		.string	"Unhandled exception in CHECK_CLOSE(0.5, 0.5)"
 1837      6E646C65 
 1837      64206578 
 1837      63657074 
 1837      696F6E20 
 1838              		.text
 1839              		.align 2
 1840 0b1e 6690     		.p2align 4,,15
 1842              	_ZNK12_GLOBAL__N_133TestCheckCloseWithDoublesSucceeds7RunImplEv:
 1843              	.LFB1184:
 1844              		.cfi_startproc
 1845              		.cfi_personality 0x3,__gxx_personality_v0
 1846              		.cfi_lsda 0x3,.LLSDA1184
 1847 0b20 53       		pushq	%rbx
 1848              		.cfi_def_cfa_offset 16
 1849              		.cfi_offset 3, -16
 1850 0b21 4883EC20 		subq	$32, %rsp
 1851              		.cfi_def_cfa_offset 48
 1852              	.LEHB18:
 1853 0b25 E8000000 		call	_ZN8UnitTest11CurrentTest7DetailsEv
 1853      00
 1854 0b2a 488B30   		movq	(%rax), %rsi
 1855 0b2d BA0E0100 		movl	$270, %edx
 1855      00
 1856 0b32 4889E7   		movq	%rsp, %rdi
 1857 0b35 E8000000 		call	_ZN8UnitTest11TestDetailsC1ERKS0_i
 1857      00
 1858 0b3a E8000000 		call	_ZN8UnitTest11CurrentTest7ResultsEv
 1858      00
 1859              	.LEHE18:
 1860              	.L188:
 1861 0b3f 4883C420 		addq	$32, %rsp
 1862              		.cfi_remember_state
 1863              		.cfi_def_cfa_offset 16
 1864 0b43 5B       		popq	%rbx
 1865              		.cfi_def_cfa_offset 8
 1866 0b44 C3       		ret
 1867              	.L192:
 1868              		.cfi_restore_state
 1869 0b45 4889C7   		movq	%rax, %rdi
 1870 0b48 E8000000 		call	__cxa_begin_catch
 1870      00
 1871              	.LEHB19:
 1872 0b4d E8000000 		call	_ZN8UnitTest11CurrentTest7DetailsEv
 1872      00
 1873 0b52 488B30   		movq	(%rax), %rsi
 1874 0b55 BA0E0100 		movl	$270, %edx
 1874      00
 1875 0b5a 4889E7   		movq	%rsp, %rdi
 1876 0b5d E8000000 		call	_ZN8UnitTest11TestDetailsC1ERKS0_i
 1876      00
 1877 0b62 E8000000 		call	_ZN8UnitTest11CurrentTest7ResultsEv
 1877      00
 1878 0b67 488B38   		movq	(%rax), %rdi
 1879 0b6a BA000000 		movl	$.LC15, %edx
 1879      00
 1880 0b6f 4889E6   		movq	%rsp, %rsi
 1881 0b72 E8000000 		call	_ZN8UnitTest11TestResults13OnTestFailureERKNS_11TestDetailsEPKc
 1881      00
 1882              	.LEHE19:
 1883              	.LEHB20:
 1884 0b77 E8000000 		call	__cxa_end_catch
 1884      00
 1885              	.LEHE20:
 1886 0b7c EBC1     		jmp	.L188
 1887              	.L193:
 1888 0b7e 4889C3   		movq	%rax, %rbx
 1889              		.p2align 4,,5
 1890 0b81 E8000000 		call	__cxa_end_catch
 1890      00
 1891 0b86 4889DF   		movq	%rbx, %rdi
 1892              	.LEHB21:
 1893 0b89 E8000000 		call	_Unwind_Resume
 1893      00
 1894              	.LEHE21:
 1895              		.cfi_endproc
 1896              	.LFE1184:
 1897              		.section	.gcc_except_table
 1898              		.align 4
 1899              	.LLSDA1184:
 1900 0078 FF       		.byte	0xff
 1901 0079 03       		.byte	0x3
 1902 007a 19       		.uleb128 .LLSDATT1184-.LLSDATTD1184
 1903              	.LLSDATTD1184:
 1904 007b 01       		.byte	0x1
 1905 007c 10       		.uleb128 .LLSDACSE1184-.LLSDACSB1184
 1906              	.LLSDACSB1184:
 1907 007d 05       		.uleb128 .LEHB18-.LFB1184
 1908 007e 1A       		.uleb128 .LEHE18-.LEHB18
 1909 007f 25       		.uleb128 .L192-.LFB1184
 1910 0080 01       		.uleb128 0x1
 1911 0081 2D       		.uleb128 .LEHB19-.LFB1184
 1912 0082 2A       		.uleb128 .LEHE19-.LEHB19
 1913 0083 5E       		.uleb128 .L193-.LFB1184
 1914 0084 00       		.uleb128 0
 1915 0085 57       		.uleb128 .LEHB20-.LFB1184
 1916 0086 05       		.uleb128 .LEHE20-.LEHB20
 1917 0087 00       		.uleb128 0
 1918 0088 00       		.uleb128 0
 1919 0089 69       		.uleb128 .LEHB21-.LFB1184
 1920 008a 05       		.uleb128 .LEHE21-.LEHB21
 1921 008b 00       		.uleb128 0
 1922 008c 00       		.uleb128 0
 1923              	.LLSDACSE1184:
 1924 008d 01       		.byte	0x1
 1925 008e 00       		.byte	0
 1926 008f 00       		.align 4
 1927 0090 00000000 		.long	0
 1928              	
 1929              	.LLSDATT1184:
 1930              		.text
 1932              		.section	.rodata.str1.1
 1933              	.LC16:
 1934 002f 302E3031 		.string	"0.01"
 1934      00
 1935              		.section	.rodata.str1.8
 1936 0175 000000   		.align 8
 1937              	.LC17:
 1938 0178 73747273 		.string	"strstr(reporter.lastFailedMessage, \"0.01\")"
 1938      74722872 
 1938      65706F72 
 1938      7465722E 
 1938      6C617374 
 1939 01a3 00000000 		.align 8
 1939      00
 1940              	.LC18:
 1941 01a8 556E6861 		.string	"Unhandled exception in CHECK(strstr(reporter.lastFailedMessage, \"0.01\"))"
 1941      6E646C65 
 1941      64206578 
 1941      63657074 
 1941      696F6E20 
 1942              		.text
 1943              		.align 2
 1944 0b8e 6690     		.p2align 4,,15
 1946              	_ZNK12_GLOBAL__N_138TestCheckCloseFailureIncludesTolerance7RunImplEv:
 1947              	.LFB1148:
 1948              		.cfi_startproc
 1949              		.cfi_personality 0x3,__gxx_personality_v0
 1950              		.cfi_lsda 0x3,.LLSDA1148
 1951 0b90 53       		pushq	%rbx
 1952              		.cfi_def_cfa_offset 16
 1953              		.cfi_offset 3, -16
 1954 0b91 4881EC00 		subq	$2560, %rsp
 1954      0A0000
 1955              		.cfi_def_cfa_offset 2576
 1956 0b98 488DB424 		leaq	448(%rsp), %rsi
 1956      C0010000 
 1957 0ba0 488D7C24 		leaq	16(%rsp), %rdi
 1957      10
 1958 0ba5 48C78424 		movq	$_ZTV17RecordingReporter+16, 448(%rsp)
 1958      C0010000 
 1958      00000000 
 1959 0bb1 64488B04 		movq	%fs:40, %rax
 1959      25280000 
 1959      00
 1960 0bba 48898424 		movq	%rax, 2552(%rsp)
 1960      F8090000 
 1961 0bc2 31C0     		xorl	%eax, %eax
 1962 0bc4 C78424C8 		movl	$0, 456(%rsp)
 1962      01000000 
 1962      000000
 1963 0bcf C78424CC 		movl	$0, 972(%rsp)
 1963      03000000 
 1963      000000
 1964 0bda C78424D0 		movl	$0, 1232(%rsp)
 1964      04000000 
 1964      000000
 1965 0be5 C78424D4 		movl	$0, 2004(%rsp)
 1965      07000000 
 1965      000000
 1966 0bf0 C78424D8 		movl	$0x00000000, 2520(%rsp)
 1966      09000000 
 1966      000000
 1967 0bfb C78424DC 		movl	$0, 2524(%rsp)
 1967      09000000 
 1967      000000
 1968 0c06 C78424E0 		movl	$0, 2528(%rsp)
 1968      09000000 
 1968      000000
 1969 0c11 C78424E4 		movl	$0, 2532(%rsp)
 1969      09000000 
 1969      000000
 1970 0c1c C78424E8 		movl	$0x00000000, 2536(%rsp)
 1970      09000000 
 1970      000000
 1971 0c27 C68424CC 		movb	$0, 460(%rsp)
 1971      01000000 
 1972 0c2f C68424CC 		movb	$0, 716(%rsp)
 1972      02000000 
 1973 0c37 C68424D0 		movb	$0, 976(%rsp)
 1973      03000000 
 1974 0c3f C68424D4 		movb	$0, 1236(%rsp)
 1974      04000000 
 1975 0c47 C68424D4 		movb	$0, 1492(%rsp)
 1975      05000000 
 1976 0c4f C68424D4 		movb	$0, 1748(%rsp)
 1976      06000000 
 1977 0c57 C68424D8 		movb	$0, 2008(%rsp)
 1977      07000000 
 1978 0c5f C68424D8 		movb	$0, 2264(%rsp)
 1978      08000000 
 1979              	.LEHB22:
 1980 0c67 E8000000 		call	_ZN8UnitTest11TestResultsC1EPNS_12TestReporterE
 1980      00
 1981 0c6c B9000000 		movl	$.LC1, %ecx
 1981      00
 1982 0c71 488D7C24 		leaq	48(%rsp), %rdi
 1982      30
 1983 0c76 4531C0   		xorl	%r8d, %r8d
 1984 0c79 4889CA   		movq	%rcx, %rdx
 1985 0c7c 4889CE   		movq	%rcx, %rsi
 1986 0c7f E8000000 		call	_ZN8UnitTest11TestDetailsC1EPKcS2_S2_i
 1986      00
 1987              	.LEHE22:
 1988 0c84 488D9C24 		leaq	176(%rsp), %rbx
 1988      B0000000 
 1989 0c8c 4889DF   		movq	%rbx, %rdi
 1990 0c8f E8000000 		call	_ZNSt8ios_baseC2Ev
 1990      00
 1991 0c94 31F6     		xorl	%esi, %esi
 1992 0c96 4889DF   		movq	%rbx, %rdi
 1993 0c99 48C78424 		movq	$0, 392(%rsp)
 1993      88010000 
 1993      00000000 
 1994 0ca5 C6842490 		movb	$0, 400(%rsp)
 1994      01000000 
 1995 0cad C6842491 		movb	$0, 401(%rsp)
 1995      01000000 
 1996 0cb5 48C78424 		movq	$0, 408(%rsp)
 1996      98010000 
 1996      00000000 
 1997 0cc1 48C78424 		movq	$0, 416(%rsp)
 1997      A0010000 
 1997      00000000 
 1998 0ccd 48C78424 		movq	$0, 424(%rsp)
 1998      A8010000 
 1998      00000000 
 1999 0cd9 48C78424 		movq	$0, 432(%rsp)
 1999      B0010000 
 1999      00000000 
 2000 0ce5 48C74424 		movq	$_ZTCN8UnitTest15MemoryOutStreamE0_So+24, 80(%rsp)
 2000      50000000 
 2000      00
 2001 0cee 48C78424 		movq	$_ZTCN8UnitTest15MemoryOutStreamE0_So+64, 176(%rsp)
 2001      B0000000 
 2001      00000000 
 2002              	.LEHB23:
 2003 0cfa E8000000 		call	_ZNSt9basic_iosIcSt11char_traitsIcEE4initEPSt15basic_streambufIcS1_E
 2003      00
 2004              	.LEHE23:
 2005 0cff 488DBC24 		leaq	144(%rsp), %rdi
 2005      90000000 
 2006 0d07 48C74424 		movq	$_ZTCN8UnitTest15MemoryOutStreamE0_St19basic_ostringstreamIcSt11char_traitsIcESaIcEE+24, 80(%
 2006      50000000 
 2006      00
 2007 0d10 48C78424 		movq	$_ZTCN8UnitTest15MemoryOutStreamE0_St19basic_ostringstreamIcSt11char_traitsIcESaIcEE+64, 176(
 2007      B0000000 
 2007      00000000 
 2008 0d1c 48C74424 		movq	$_ZTVSt15basic_streambufIcSt11char_traitsIcEE+16, 88(%rsp)
 2008      58000000 
 2008      00
 2009 0d25 48C74424 		movq	$0, 96(%rsp)
 2009      60000000 
 2009      00
 2010 0d2e 48C74424 		movq	$0, 104(%rsp)
 2010      68000000 
 2010      00
 2011 0d37 48C74424 		movq	$0, 112(%rsp)
 2011      70000000 
 2011      00
 2012 0d40 48C74424 		movq	$0, 120(%rsp)
 2012      78000000 
 2012      00
 2013 0d49 48C78424 		movq	$0, 128(%rsp)
 2013      80000000 
 2013      00000000 
 2014 0d55 48C78424 		movq	$0, 136(%rsp)
 2014      88000000 
 2014      00000000 
 2015 0d61 E8000000 		call	_ZNSt6localeC1Ev
 2015      00
 2016 0d66 488B4424 		movq	80(%rsp), %rax
 2016      50
 2017 0d6b 488D7C24 		leaq	80(%rsp), %rdi
 2017      50
 2018 0d70 488D7424 		leaq	88(%rsp), %rsi
 2018      58
 2019 0d75 48C74424 		movq	$_ZTVSt15basic_stringbufIcSt11char_traitsIcESaIcEE+16, 88(%rsp)
 2019      58000000 
 2019      00
 2020 0d7e C7842498 		movl	$16, 152(%rsp)
 2020      00000010 
 2020      000000
 2021 0d89 48C78424 		movq	$_ZNSs4_Rep20_S_empty_rep_storageE+24, 160(%rsp)
 2021      A0000000 
 2021      00000000 
 2022 0d95 480378E8 		addq	-24(%rax), %rdi
 2023              	.LEHB24:
 2024 0d99 E8000000 		call	_ZNSt9basic_iosIcSt11char_traitsIcEE4initEPSt15basic_streambufIcS1_E
 2024      00
 2025              	.LEHE24:
 2026 0d9e 488D7C24 		leaq	80(%rsp), %rdi
 2026      50
 2027 0da3 BA090000 		movl	$9, %edx
 2027      00
 2028 0da8 BE000000 		movl	$.LC2, %esi
 2028      00
 2029 0dad 48C74424 		movq	$_ZTVN8UnitTest15MemoryOutStreamE+24, 80(%rsp)
 2029      50000000 
 2029      00
 2030 0db6 48C78424 		movq	$_ZTVN8UnitTest15MemoryOutStreamE+64, 176(%rsp)
 2030      B0000000 
 2030      00000000 
 2031 0dc2 48C78424 		movq	$_ZNSs4_Rep20_S_empty_rep_storageE+24, 168(%rsp)
 2031      A8000000 
 2031      00000000 
 2032              	.LEHB25:
 2033 0dce E8000000 		call	_ZSt16__ostream_insertIcSt11char_traitsIcEERSt13basic_ostreamIT_T0_ES6_PKS3_l
 2033      00
 2034 0dd3 488D7C24 		leaq	80(%rsp), %rdi
 2034      50
 2035 0dd8 BE020000 		movl	$2, %esi
 2035      00
 2036 0ddd E8000000 		call	_ZNSolsEi
 2036      00
 2037 0de2 BA050000 		movl	$5, %edx
 2037      00
 2038 0de7 BE000000 		movl	$.LC4, %esi
 2038      00
 2039 0dec 4889C7   		movq	%rax, %rdi
 2040 0def 4889C3   		movq	%rax, %rbx
 2041 0df2 E8000000 		call	_ZSt16__ostream_insertIcSt11char_traitsIcEERSt13basic_ostreamIT_T0_ES6_PKS3_l
 2041      00
 2042 0df7 F20F1005 		movsd	.LC5(%rip), %xmm0
 2042      00000000 
 2043 0dff 4889DF   		movq	%rbx, %rdi
 2044 0e02 E8000000 		call	_ZNSo9_M_insertIdEERSoT_
 2044      00
 2045 0e07 BA090000 		movl	$9, %edx
 2045      00
 2046 0e0c BE000000 		movl	$.LC6, %esi
 2046      00
 2047 0e11 4889C7   		movq	%rax, %rdi
 2048 0e14 4889C3   		movq	%rax, %rbx
 2049 0e17 E8000000 		call	_ZSt16__ostream_insertIcSt11char_traitsIcEERSt13basic_ostreamIT_T0_ES6_PKS3_l
 2049      00
 2050 0e1c BE030000 		movl	$3, %esi
 2050      00
 2051 0e21 4889DF   		movq	%rbx, %rdi
 2052 0e24 E8000000 		call	_ZNSolsEi
 2052      00
 2053 0e29 488D7C24 		leaq	80(%rsp), %rdi
 2053      50
 2054 0e2e E8000000 		call	_ZNK8UnitTest15MemoryOutStream7GetTextEv
 2054      00
 2055 0e33 488D7424 		leaq	48(%rsp), %rsi
 2055      30
 2056 0e38 488D7C24 		leaq	16(%rsp), %rdi
 2056      10
 2057 0e3d 4889C2   		movq	%rax, %rdx
 2058 0e40 E8000000 		call	_ZN8UnitTest11TestResults13OnTestFailureERKNS_11TestDetailsEPKc
 2058      00
 2059              	.LEHE25:
 2060 0e45 488B8424 		movq	168(%rsp), %rax
 2060      A8000000 
 2061 0e4d 48C74424 		movq	$_ZTVN8UnitTest15MemoryOutStreamE+24, 80(%rsp)
 2061      50000000 
 2061      00
 2062 0e56 48C78424 		movq	$_ZTVN8UnitTest15MemoryOutStreamE+64, 176(%rsp)
 2062      B0000000 
 2062      00000000 
 2063 0e62 488D78E8 		leaq	-24(%rax), %rdi
 2064 0e66 4881FF00 		cmpq	$_ZNSs4_Rep20_S_empty_rep_storageE, %rdi
 2064      000000
 2065 0e6d 0F85ED00 		jne	.L228
 2065      0000
 2066              	.L202:
 2067 0e73 488B8424 		movq	160(%rsp), %rax
 2067      A0000000 
 2068 0e7b 48C74424 		movq	$_ZTCN8UnitTest15MemoryOutStreamE0_St19basic_ostringstreamIcSt11char_traitsIcESaIcEE+24, 80(%
 2068      50000000 
 2068      00
 2069 0e84 48C78424 		movq	$_ZTCN8UnitTest15MemoryOutStreamE0_St19basic_ostringstreamIcSt11char_traitsIcESaIcEE+64, 176(
 2069      B0000000 
 2069      00000000 
 2070 0e90 48C74424 		movq	$_ZTVSt15basic_stringbufIcSt11char_traitsIcESaIcEE+16, 88(%rsp)
 2070      58000000 
 2070      00
 2071 0e99 488D78E8 		leaq	-24(%rax), %rdi
 2072 0e9d 4881FF00 		cmpq	$_ZNSs4_Rep20_S_empty_rep_storageE, %rdi
 2072      000000
 2073 0ea4 0F85EB00 		jne	.L229
 2073      0000
 2074              	.L207:
 2075 0eaa 488DBC24 		leaq	144(%rsp), %rdi
 2075      90000000 
 2076 0eb2 48C74424 		movq	$_ZTVSt15basic_streambufIcSt11char_traitsIcEE+16, 88(%rsp)
 2076      58000000 
 2076      00
 2077 0ebb E8000000 		call	_ZNSt6localeD1Ev
 2077      00
 2078 0ec0 488D4424 		leaq	80(%rsp), %rax
 2078      50
 2079 0ec5 48C74424 		movq	$_ZTCN8UnitTest15MemoryOutStreamE0_So+24, 80(%rsp)
 2079      50000000 
 2079      00
 2080 0ece 48C78424 		movq	$_ZTVSt9basic_iosIcSt11char_traitsIcEE+16, 176(%rsp)
 2080      B0000000 
 2080      00000000 
 2081 0eda 488D7860 		leaq	96(%rax), %rdi
 2082              	.LEHB26:
 2083 0ede E8000000 		call	_ZNSt8ios_baseD2Ev
 2083      00
 2084              	.LEHE26:
 2085 0ee3 488DBC24 		leaq	1748(%rsp), %rdi
 2085      D4060000 
 2086 0eeb BE000000 		movl	$.LC16, %esi
 2086      00
 2087 0ef0 E8000000 		call	strstr
 2087      00
 2088 0ef5 4885C0   		testq	%rax, %rax
 2089 0ef8 7436     		je	.L230
 2090              	.L212:
 2091 0efa 488DBC24 		leaq	448(%rsp), %rdi
 2091      C0010000 
 2092 0f02 48C78424 		movq	$_ZTV17RecordingReporter+16, 448(%rsp)
 2092      C0010000 
 2092      00000000 
 2093              	.LEHB27:
 2094 0f0e E8000000 		call	_ZN8UnitTest12TestReporterD2Ev
 2094      00
 2095              	.LEHE27:
 2096 0f13 488B8424 		movq	2552(%rsp), %rax
 2096      F8090000 
 2097 0f1b 64483304 		xorq	%fs:40, %rax
 2097      25280000 
 2097      00
 2098 0f24 756A     		jne	.L231
 2099 0f26 4881C400 		addq	$2560, %rsp
 2099      0A0000
 2100              		.cfi_remember_state
 2101              		.cfi_def_cfa_offset 16
 2102 0f2d 5B       		popq	%rbx
 2103              		.cfi_def_cfa_offset 8
 2104 0f2e C3       		ret
 2105 0f2f 90       		.p2align 4,,10
 2106              		.p2align 3
 2107              	.L230:
 2108              		.cfi_restore_state
 2109              	.LEHB28:
 2110 0f30 E8000000 		call	_ZN8UnitTest11CurrentTest7DetailsEv
 2110      00
 2111 0f35 488B30   		movq	(%rax), %rsi
 2112 0f38 488D7C24 		leaq	80(%rsp), %rdi
 2112      50
 2113 0f3d BAA60000 		movl	$166, %edx
 2113      00
 2114 0f42 E8000000 		call	_ZN8UnitTest11TestDetailsC1ERKS0_i
 2114      00
 2115 0f47 E8000000 		call	_ZN8UnitTest11CurrentTest7ResultsEv
 2115      00
 2116 0f4c 488B38   		movq	(%rax), %rdi
 2117 0f4f 488D7424 		leaq	80(%rsp), %rsi
 2117      50
 2118 0f54 BA000000 		movl	$.LC17, %edx
 2118      00
 2119 0f59 E8000000 		call	_ZN8UnitTest11TestResults13OnTestFailureERKNS_11TestDetailsEPKc
 2119      00
 2120              	.LEHE28:
 2121 0f5e EB9A     		jmp	.L212
 2122              	.L228:
 2123 0f60 B9000000 		movl	$_ZL28__gthrw___pthread_key_createPjPFvPvE, %ecx
 2123      00
 2124 0f65 488D5710 		leaq	16(%rdi), %rdx
 2125 0f69 4885C9   		testq	%rcx, %rcx
 2126 0f6c 0F84FE00 		je	.L203
 2126      0000
 2127 0f72 83C8FF   		orl	$-1, %eax
 2128 0f75 F00FC102 		lock xaddl	%eax, (%rdx)
 2129              	.L204:
 2130 0f79 85C0     		testl	%eax, %eax
 2131 0f7b 0F8FF2FE 		jg	.L202
 2131      FFFF
 2132 0f81 488D7424 		leaq	15(%rsp), %rsi
 2132      0F
 2133 0f86 E8000000 		call	_ZNSs4_Rep10_M_destroyERKSaIcE
 2133      00
 2134 0f8b E9E3FEFF 		jmp	.L202
 2134      FF
 2135              	.L231:
 2136 0f90 E8000000 		call	__stack_chk_fail
 2136      00
 2137              	.L229:
 2138 0f95 B9000000 		movl	$_ZL28__gthrw___pthread_key_createPjPFvPvE, %ecx
 2138      00
 2139 0f9a 488D5710 		leaq	16(%rdi), %rdx
 2140 0f9e 4885C9   		testq	%rcx, %rcx
 2141 0fa1 747D     		je	.L208
 2142 0fa3 83C8FF   		orl	$-1, %eax
 2143 0fa6 F00FC102 		lock xaddl	%eax, (%rdx)
 2144              	.L209:
 2145 0faa 85C0     		testl	%eax, %eax
 2146 0fac 0F8FF8FE 		jg	.L207
 2146      FFFF
 2147 0fb2 488D7424 		leaq	15(%rsp), %rsi
 2147      0F
 2148 0fb7 E8000000 		call	_ZNSs4_Rep10_M_destroyERKSaIcE
 2148      00
 2149 0fbc E9E9FEFF 		jmp	.L207
 2149      FF
 2150              	.L221:
 2151 0fc1 488D7C24 		leaq	80(%rsp), %rdi
 2151      50
 2152 0fc6 4889C3   		movq	%rax, %rbx
 2153 0fc9 E8000000 		call	_ZN8UnitTest15MemoryOutStreamD1Ev
 2153      00
 2154              	.L200:
 2155 0fce 488DBC24 		leaq	448(%rsp), %rdi
 2155      C0010000 
 2156 0fd6 48C78424 		movq	$_ZTV17RecordingReporter+16, 448(%rsp)
 2156      C0010000 
 2156      00000000 
 2157 0fe2 E8000000 		call	_ZN8UnitTest12TestReporterD2Ev
 2157      00
 2158 0fe7 4889DF   		movq	%rbx, %rdi
 2159              	.LEHB29:
 2160 0fea E8000000 		call	_Unwind_Resume
 2160      00
 2161              	.LEHE29:
 2162              	.L223:
 2163 0fef 488D7C24 		leaq	88(%rsp), %rdi
 2163      58
 2164 0ff4 4889C3   		movq	%rax, %rbx
 2165 0ff7 E8000000 		call	_ZNSt15basic_stringbufIcSt11char_traitsIcESaIcEED1Ev
 2165      00
 2166 0ffc 48C74424 		movq	$_ZTCN8UnitTest15MemoryOutStreamE0_So+24, 80(%rsp)
 2166      50000000 
 2166      00
 2167              	.L198:
 2168 1005 488DBC24 		leaq	176(%rsp), %rdi
 2168      B0000000 
 2169 100d 48C78424 		movq	$_ZTVSt9basic_iosIcSt11char_traitsIcEE+16, 176(%rsp)
 2169      B0000000 
 2169      00000000 
 2170 1019 E8000000 		call	_ZNSt8ios_baseD2Ev
 2170      00
 2171 101e EBAE     		jmp	.L200
 2172              	.L208:
 2173 1020 8B50F8   		movl	-8(%rax), %edx
 2174 1023 8D4AFF   		leal	-1(%rdx), %ecx
 2175 1026 8948F8   		movl	%ecx, -8(%rax)
 2176 1029 89D0     		movl	%edx, %eax
 2177 102b E97AFFFF 		jmp	.L209
 2177      FF
 2178              	.L219:
 2179 1030 4889C7   		movq	%rax, %rdi
 2180 1033 E8000000 		call	__cxa_begin_catch
 2180      00
 2181              	.LEHB30:
 2182 1038 E8000000 		call	_ZN8UnitTest11CurrentTest7DetailsEv
 2182      00
 2183 103d 488B30   		movq	(%rax), %rsi
 2184 1040 488D7C24 		leaq	80(%rsp), %rdi
 2184      50
 2185 1045 BAA60000 		movl	$166, %edx
 2185      00
 2186 104a E8000000 		call	_ZN8UnitTest11TestDetailsC1ERKS0_i
 2186      00
 2187 104f E8000000 		call	_ZN8UnitTest11CurrentTest7ResultsEv
 2187      00
 2188 1054 488B38   		movq	(%rax), %rdi
 2189 1057 488D7424 		leaq	80(%rsp), %rsi
 2189      50
 2190 105c BA000000 		movl	$.LC18, %edx
 2190      00
 2191 1061 E8000000 		call	_ZN8UnitTest11TestResults13OnTestFailureERKNS_11TestDetailsEPKc
 2191      00
 2192              	.LEHE30:
 2193              	.LEHB31:
 2194 1066 E8000000 		call	__cxa_end_catch
 2194      00
 2195              	.LEHE31:
 2196 106b E98AFEFF 		jmp	.L212
 2196      FF
 2197              	.L203:
 2198 1070 8B50F8   		movl	-8(%rax), %edx
 2199 1073 8D4AFF   		leal	-1(%rdx), %ecx
 2200 1076 8948F8   		movl	%ecx, -8(%rax)
 2201 1079 89D0     		movl	%edx, %eax
 2202 107b E9F9FEFF 		jmp	.L204
 2202      FF
 2203              	.L220:
 2204 1080 4889C3   		movq	%rax, %rbx
 2205 1083 E8000000 		call	__cxa_end_catch
 2205      00
 2206 1088 E941FFFF 		jmp	.L200
 2206      FF
 2207              	.L222:
 2208 108d 4889C3   		movq	%rax, %rbx
 2209              		.p2align 4,,2
 2210 1090 E970FFFF 		jmp	.L198
 2210      FF
 2211              	.L218:
 2212 1095 4889C3   		movq	%rax, %rbx
 2213              		.p2align 4,,5
 2214 1098 E931FFFF 		jmp	.L200
 2214      FF
 2215              		.cfi_endproc
 2216              	.LFE1148:
 2217              		.section	.gcc_except_table
 2218              		.align 4
 2219              	.LLSDA1148:
 2220 0094 FF       		.byte	0xff
 2221 0095 03       		.byte	0x3
 2222 0096 45       		.uleb128 .LLSDATT1148-.LLSDATTD1148
 2223              	.LLSDATTD1148:
 2224 0097 01       		.byte	0x1
 2225 0098 3A       		.uleb128 .LLSDACSE1148-.LLSDACSB1148
 2226              	.LLSDACSB1148:
 2227 0099 D701     		.uleb128 .LEHB22-.LFB1148
 2228 009b 1D       		.uleb128 .LEHE22-.LEHB22
 2229 009c 850A     		.uleb128 .L218-.LFB1148
 2230 009e 00       		.uleb128 0
 2231 009f EA02     		.uleb128 .LEHB23-.LFB1148
 2232 00a1 05       		.uleb128 .LEHE23-.LEHB23
 2233 00a2 FD09     		.uleb128 .L222-.LFB1148
 2234 00a4 00       		.uleb128 0
 2235 00a5 8904     		.uleb128 .LEHB24-.LFB1148
 2236 00a7 05       		.uleb128 .LEHE24-.LEHB24
 2237 00a8 DF08     		.uleb128 .L223-.LFB1148
 2238 00aa 00       		.uleb128 0
 2239 00ab BE04     		.uleb128 .LEHB25-.LFB1148
 2240 00ad 77       		.uleb128 .LEHE25-.LEHB25
 2241 00ae B108     		.uleb128 .L221-.LFB1148
 2242 00b0 00       		.uleb128 0
 2243 00b1 CE06     		.uleb128 .LEHB26-.LFB1148
 2244 00b3 05       		.uleb128 .LEHE26-.LEHB26
 2245 00b4 850A     		.uleb128 .L218-.LFB1148
 2246 00b6 00       		.uleb128 0
 2247 00b7 FE06     		.uleb128 .LEHB27-.LFB1148
 2248 00b9 05       		.uleb128 .LEHE27-.LEHB27
 2249 00ba 00       		.uleb128 0
 2250 00bb 00       		.uleb128 0
 2251 00bc A007     		.uleb128 .LEHB28-.LFB1148
 2252 00be 2E       		.uleb128 .LEHE28-.LEHB28
 2253 00bf A009     		.uleb128 .L219-.LFB1148
 2254 00c1 01       		.uleb128 0x1
 2255 00c2 DA08     		.uleb128 .LEHB29-.LFB1148
 2256 00c4 05       		.uleb128 .LEHE29-.LEHB29
 2257 00c5 00       		.uleb128 0
 2258 00c6 00       		.uleb128 0
 2259 00c7 A809     		.uleb128 .LEHB30-.LFB1148
 2260 00c9 2E       		.uleb128 .LEHE30-.LEHB30
 2261 00ca F009     		.uleb128 .L220-.LFB1148
 2262 00cc 00       		.uleb128 0
 2263 00cd D609     		.uleb128 .LEHB31-.LFB1148
 2264 00cf 05       		.uleb128 .LEHE31-.LEHB31
 2265 00d0 850A     		.uleb128 .L218-.LFB1148
 2266 00d2 00       		.uleb128 0
 2267              	.LLSDACSE1148:
 2268 00d3 01       		.byte	0x1
 2269 00d4 00       		.byte	0
 2270 00d5 000000   		.align 4
 2271 00d8 00000000 		.long	0
 2272              	
 2273              	.LLSDATT1148:
 2274              		.text
 2276              		.section	.rodata.str1.1
 2277              	.LC19:
 2278 0034 45787065 		.string	"Expected [ "
 2278      63746564 
 2278      205B2000 
 2279              	.LC20:
 2280 0040 2000     		.string	" "
 2281              	.LC21:
 2282 0042 5D206275 		.string	"] but was [ "
 2282      74207761 
 2282      73205B20 
 2282      00
 2283              	.LC22:
 2284 004f 5D00     		.string	"]"
 2285              		.text
 2286 109d 0F1F00   		.p2align 4,,15
 2288              	_ZN8UnitTest15CheckArrayEqualIA3_iS1_EEvRNS_11TestResultsERKT_RKT0_iRKNS_11TestDetailsE.constprop.1
 2289              	.LFB1405:
 2290              		.cfi_startproc
 2291              		.cfi_personality 0x3,__gxx_personality_v0
 2292              		.cfi_lsda 0x3,.LLSDA1405
 2293 10a0 4156     		pushq	%r14
 2294              		.cfi_def_cfa_offset 16
 2295              		.cfi_offset 14, -16
 2296 10a2 4989F6   		movq	%rsi, %r14
 2297 10a5 4155     		pushq	%r13
 2298              		.cfi_def_cfa_offset 24
 2299              		.cfi_offset 13, -24
 2300 10a7 4989CD   		movq	%rcx, %r13
 2301 10aa 4154     		pushq	%r12
 2302              		.cfi_def_cfa_offset 32
 2303              		.cfi_offset 12, -32
 2304 10ac 4989FC   		movq	%rdi, %r12
 2305 10af 55       		pushq	%rbp
 2306              		.cfi_def_cfa_offset 40
 2307              		.cfi_offset 6, -40
 2308 10b0 4889D5   		movq	%rdx, %rbp
 2309 10b3 53       		pushq	%rbx
 2310              		.cfi_def_cfa_offset 48
 2311              		.cfi_offset 3, -48
 2312 10b4 4881EC80 		subq	$384, %rsp
 2312      010000
 2313              		.cfi_def_cfa_offset 432
 2314 10bb 8B02     		movl	(%rdx), %eax
 2315 10bd 3906     		cmpl	%eax, (%rsi)
 2316 10bf 8B4504   		movl	4(%rbp), %eax
 2317 10c2 0F94C2   		sete	%dl
 2318 10c5 394604   		cmpl	%eax, 4(%rsi)
 2319 10c8 0F94C0   		sete	%al
 2320 10cb 84C2     		testb	%al, %dl
 2321 10cd 7421     		je	.L257
 2322 10cf 8B4508   		movl	8(%rbp), %eax
 2323 10d2 394608   		cmpl	%eax, 8(%rsi)
 2324 10d5 7519     		jne	.L257
 2325 10d7 4881C480 		addq	$384, %rsp
 2325      010000
 2326              		.cfi_remember_state
 2327              		.cfi_def_cfa_offset 48
 2328 10de 5B       		popq	%rbx
 2329              		.cfi_def_cfa_offset 40
 2330 10df 5D       		popq	%rbp
 2331              		.cfi_def_cfa_offset 32
 2332 10e0 415C     		popq	%r12
 2333              		.cfi_def_cfa_offset 24
 2334 10e2 415D     		popq	%r13
 2335              		.cfi_def_cfa_offset 16
 2336 10e4 415E     		popq	%r14
 2337              		.cfi_def_cfa_offset 8
 2338 10e6 C3       		ret
 2339 10e7 660F1F84 		.p2align 4,,10
 2339      00000000 
 2339      00
 2340              		.p2align 3
 2341              	.L257:
 2342              		.cfi_restore_state
 2343 10f0 488D5C24 		leaq	112(%rsp), %rbx
 2343      70
 2344 10f5 4889DF   		movq	%rbx, %rdi
 2345 10f8 E8000000 		call	_ZNSt8ios_baseC2Ev
 2345      00
 2346 10fd 31F6     		xorl	%esi, %esi
 2347 10ff 4889DF   		movq	%rbx, %rdi
 2348 1102 48C78424 		movq	$0, 328(%rsp)
 2348      48010000 
 2348      00000000 
 2349 110e C6842450 		movb	$0, 336(%rsp)
 2349      01000000 
 2350 1116 C6842451 		movb	$0, 337(%rsp)
 2350      01000000 
 2351 111e 48C78424 		movq	$0, 344(%rsp)
 2351      58010000 
 2351      00000000 
 2352 112a 48C78424 		movq	$0, 352(%rsp)
 2352      60010000 
 2352      00000000 
 2353 1136 48C78424 		movq	$0, 360(%rsp)
 2353      68010000 
 2353      00000000 
 2354 1142 48C78424 		movq	$0, 368(%rsp)
 2354      70010000 
 2354      00000000 
 2355 114e 48C74424 		movq	$_ZTCN8UnitTest15MemoryOutStreamE0_So+24, 16(%rsp)
 2355      10000000 
 2355      00
 2356 1157 48C74424 		movq	$_ZTCN8UnitTest15MemoryOutStreamE0_So+64, 112(%rsp)
 2356      70000000 
 2356      00
 2357              	.LEHB32:
 2358 1160 E8000000 		call	_ZNSt9basic_iosIcSt11char_traitsIcEE4initEPSt15basic_streambufIcS1_E
 2358      00
 2359              	.LEHE32:
 2360 1165 488D7C24 		leaq	80(%rsp), %rdi
 2360      50
 2361 116a 48C74424 		movq	$_ZTCN8UnitTest15MemoryOutStreamE0_St19basic_ostringstreamIcSt11char_traitsIcESaIcEE+24, 16(%
 2361      10000000 
 2361      00
 2362 1173 48C74424 		movq	$_ZTCN8UnitTest15MemoryOutStreamE0_St19basic_ostringstreamIcSt11char_traitsIcESaIcEE+64, 112(
 2362      70000000 
 2362      00
 2363 117c 48C74424 		movq	$_ZTVSt15basic_streambufIcSt11char_traitsIcEE+16, 24(%rsp)
 2363      18000000 
 2363      00
 2364 1185 48C74424 		movq	$0, 32(%rsp)
 2364      20000000 
 2364      00
 2365 118e 48C74424 		movq	$0, 40(%rsp)
 2365      28000000 
 2365      00
 2366 1197 48C74424 		movq	$0, 48(%rsp)
 2366      30000000 
 2366      00
 2367 11a0 48C74424 		movq	$0, 56(%rsp)
 2367      38000000 
 2367      00
 2368 11a9 48C74424 		movq	$0, 64(%rsp)
 2368      40000000 
 2368      00
 2369 11b2 48C74424 		movq	$0, 72(%rsp)
 2369      48000000 
 2369      00
 2370 11bb E8000000 		call	_ZNSt6localeC1Ev
 2370      00
 2371 11c0 488B4424 		movq	16(%rsp), %rax
 2371      10
 2372 11c5 488D7C24 		leaq	16(%rsp), %rdi
 2372      10
 2373 11ca 488D7424 		leaq	24(%rsp), %rsi
 2373      18
 2374 11cf 48C74424 		movq	$_ZTVSt15basic_stringbufIcSt11char_traitsIcESaIcEE+16, 24(%rsp)
 2374      18000000 
 2374      00
 2375 11d8 C7442458 		movl	$16, 88(%rsp)
 2375      10000000 
 2376 11e0 48C74424 		movq	$_ZNSs4_Rep20_S_empty_rep_storageE+24, 96(%rsp)
 2376      60000000 
 2376      00
 2377 11e9 480378E8 		addq	-24(%rax), %rdi
 2378              	.LEHB33:
 2379 11ed E8000000 		call	_ZNSt9basic_iosIcSt11char_traitsIcEE4initEPSt15basic_streambufIcS1_E
 2379      00
 2380              	.LEHE33:
 2381 11f2 488D7C24 		leaq	16(%rsp), %rdi
 2381      10
 2382 11f7 BA0B0000 		movl	$11, %edx
 2382      00
 2383 11fc BE000000 		movl	$.LC19, %esi
 2383      00
 2384 1201 48C74424 		movq	$_ZTVN8UnitTest15MemoryOutStreamE+24, 16(%rsp)
 2384      10000000 
 2384      00
 2385 120a 48C74424 		movq	$_ZTVN8UnitTest15MemoryOutStreamE+64, 112(%rsp)
 2385      70000000 
 2385      00
 2386 1213 48C74424 		movq	$_ZNSs4_Rep20_S_empty_rep_storageE+24, 104(%rsp)
 2386      68000000 
 2386      00
 2387              	.LEHB34:
 2388 121c E8000000 		call	_ZSt16__ostream_insertIcSt11char_traitsIcEERSt13basic_ostreamIT_T0_ES6_PKS3_l
 2388      00
 2389 1221 31DB     		xorl	%ebx, %ebx
 2390              		.p2align 4,,10
 2391 1223 0F1F4400 		.p2align 3
 2391      00
 2392              	.L240:
 2393 1228 418B341E 		movl	(%r14,%rbx), %esi
 2394 122c 488D7C24 		leaq	16(%rsp), %rdi
 2394      10
 2395 1231 E8000000 		call	_ZNSolsEi
 2395      00
 2396 1236 BA010000 		movl	$1, %edx
 2396      00
 2397 123b BE000000 		movl	$.LC20, %esi
 2397      00
 2398 1240 4889C7   		movq	%rax, %rdi
 2399 1243 E8000000 		call	_ZSt16__ostream_insertIcSt11char_traitsIcEERSt13basic_ostreamIT_T0_ES6_PKS3_l
 2399      00
 2400 1248 4883C304 		addq	$4, %rbx
 2401 124c 4883FB0C 		cmpq	$12, %rbx
 2402 1250 75D6     		jne	.L240
 2403 1252 488D7C24 		leaq	16(%rsp), %rdi
 2403      10
 2404 1257 BA0C0000 		movl	$12, %edx
 2404      00
 2405 125c BE000000 		movl	$.LC21, %esi
 2405      00
 2406 1261 E8000000 		call	_ZSt16__ostream_insertIcSt11char_traitsIcEERSt13basic_ostreamIT_T0_ES6_PKS3_l
 2406      00
 2407 1266 30DB     		xorb	%bl, %bl
 2408 1268 0F1F8400 		.p2align 4,,10
 2408      00000000 
 2409              		.p2align 3
 2410              	.L242:
 2411 1270 8B741D00 		movl	0(%rbp,%rbx), %esi
 2412 1274 488D7C24 		leaq	16(%rsp), %rdi
 2412      10
 2413 1279 E8000000 		call	_ZNSolsEi
 2413      00
 2414 127e BA010000 		movl	$1, %edx
 2414      00
 2415 1283 BE000000 		movl	$.LC20, %esi
 2415      00
 2416 1288 4889C7   		movq	%rax, %rdi
 2417 128b E8000000 		call	_ZSt16__ostream_insertIcSt11char_traitsIcEERSt13basic_ostreamIT_T0_ES6_PKS3_l
 2417      00
 2418 1290 4883C304 		addq	$4, %rbx
 2419 1294 4883FB0C 		cmpq	$12, %rbx
 2420 1298 75D6     		jne	.L242
 2421 129a 488D7C24 		leaq	16(%rsp), %rdi
 2421      10
 2422 129f BA010000 		movl	$1, %edx
 2422      00
 2423 12a4 BE000000 		movl	$.LC22, %esi
 2423      00
 2424 12a9 E8000000 		call	_ZSt16__ostream_insertIcSt11char_traitsIcEERSt13basic_ostreamIT_T0_ES6_PKS3_l
 2424      00
 2425 12ae 488D7C24 		leaq	16(%rsp), %rdi
 2425      10
 2426 12b3 E8000000 		call	_ZNK8UnitTest15MemoryOutStream7GetTextEv
 2426      00
 2427 12b8 4889C2   		movq	%rax, %rdx
 2428 12bb 4C89EE   		movq	%r13, %rsi
 2429 12be 4C89E7   		movq	%r12, %rdi
 2430 12c1 E8000000 		call	_ZN8UnitTest11TestResults13OnTestFailureERKNS_11TestDetailsEPKc
 2430      00
 2431              	.LEHE34:
 2432 12c6 488B4424 		movq	104(%rsp), %rax
 2432      68
 2433 12cb 48C74424 		movq	$_ZTVN8UnitTest15MemoryOutStreamE+24, 16(%rsp)
 2433      10000000 
 2433      00
 2434 12d4 48C74424 		movq	$_ZTVN8UnitTest15MemoryOutStreamE+64, 112(%rsp)
 2434      70000000 
 2434      00
 2435 12dd 488D78E8 		leaq	-24(%rax), %rdi
 2436 12e1 4881FF00 		cmpq	$_ZNSs4_Rep20_S_empty_rep_storageE, %rdi
 2436      000000
 2437 12e8 0F85BB00 		jne	.L264
 2437      0000
 2438              	.L244:
 2439 12ee 488B4424 		movq	96(%rsp), %rax
 2439      60
 2440 12f3 48C74424 		movq	$_ZTCN8UnitTest15MemoryOutStreamE0_St19basic_ostringstreamIcSt11char_traitsIcESaIcEE+24, 16(%
 2440      10000000 
 2440      00
 2441 12fc 48C74424 		movq	$_ZTCN8UnitTest15MemoryOutStreamE0_St19basic_ostringstreamIcSt11char_traitsIcESaIcEE+64, 112(
 2441      70000000 
 2441      00
 2442 1305 48C74424 		movq	$_ZTVSt15basic_stringbufIcSt11char_traitsIcESaIcEE+16, 24(%rsp)
 2442      18000000 
 2442      00
 2443 130e 488D78E8 		leaq	-24(%rax), %rdi
 2444 1312 4881FF00 		cmpq	$_ZNSs4_Rep20_S_empty_rep_storageE, %rdi
 2444      000000
 2445 1319 0F85B800 		jne	.L265
 2445      0000
 2446              	.L249:
 2447 131f 488D7C24 		leaq	80(%rsp), %rdi
 2447      50
 2448 1324 48C74424 		movq	$_ZTVSt15basic_streambufIcSt11char_traitsIcEE+16, 24(%rsp)
 2448      18000000 
 2448      00
 2449 132d E8000000 		call	_ZNSt6localeD1Ev
 2449      00
 2450 1332 488D7C24 		leaq	112(%rsp), %rdi
 2450      70
 2451 1337 48C74424 		movq	$_ZTCN8UnitTest15MemoryOutStreamE0_So+24, 16(%rsp)
 2451      10000000 
 2451      00
 2452 1340 48C74424 		movq	$_ZTVSt9basic_iosIcSt11char_traitsIcEE+16, 112(%rsp)
 2452      70000000 
 2452      00
 2453              	.LEHB35:
 2454 1349 E8000000 		call	_ZNSt8ios_baseD2Ev
 2454      00
 2455              	.LEHE35:
 2456 134e 4881C480 		addq	$384, %rsp
 2456      010000
 2457              		.cfi_remember_state
 2458              		.cfi_def_cfa_offset 48
 2459 1355 5B       		popq	%rbx
 2460              		.cfi_def_cfa_offset 40
 2461 1356 5D       		popq	%rbp
 2462              		.cfi_def_cfa_offset 32
 2463 1357 415C     		popq	%r12
 2464              		.cfi_def_cfa_offset 24
 2465 1359 415D     		popq	%r13
 2466              		.cfi_def_cfa_offset 16
 2467 135b 415E     		popq	%r14
 2468              		.cfi_def_cfa_offset 8
 2469 135d C3       		ret
 2470              	.L255:
 2471              		.cfi_restore_state
 2472 135e 4889C3   		movq	%rax, %rbx
 2473              	.L237:
 2474 1361 488D7C24 		leaq	112(%rsp), %rdi
 2474      70
 2475 1366 48C74424 		movq	$_ZTVSt9basic_iosIcSt11char_traitsIcEE+16, 112(%rsp)
 2475      70000000 
 2475      00
 2476 136f E8000000 		call	_ZNSt8ios_baseD2Ev
 2476      00
 2477 1374 4889DF   		movq	%rbx, %rdi
 2478              	.LEHB36:
 2479 1377 E8000000 		call	_Unwind_Resume
 2479      00
 2480              	.LEHE36:
 2481              	.L256:
 2482 137c 488D7C24 		leaq	24(%rsp), %rdi
 2482      18
 2483 1381 4889C3   		movq	%rax, %rbx
 2484 1384 E8000000 		call	_ZNSt15basic_stringbufIcSt11char_traitsIcESaIcEED1Ev
 2484      00
 2485 1389 48C74424 		movq	$_ZTCN8UnitTest15MemoryOutStreamE0_So+24, 16(%rsp)
 2485      10000000 
 2485      00
 2486 1392 EBCD     		jmp	.L237
 2487              	.L254:
 2488 1394 488D7C24 		leaq	16(%rsp), %rdi
 2488      10
 2489 1399 4889C3   		movq	%rax, %rbx
 2490 139c E8000000 		call	_ZN8UnitTest15MemoryOutStreamD1Ev
 2490      00
 2491 13a1 4889DF   		movq	%rbx, %rdi
 2492              	.LEHB37:
 2493 13a4 E8000000 		call	_Unwind_Resume
 2493      00
 2494              	.LEHE37:
 2495              	.L264:
 2496 13a9 B9000000 		movl	$_ZL28__gthrw___pthread_key_createPjPFvPvE, %ecx
 2496      00
 2497 13ae 488D5710 		leaq	16(%rdi), %rdx
 2498 13b2 4885C9   		testq	%rcx, %rcx
 2499 13b5 744E     		je	.L245
 2500 13b7 B8FFFFFF 		movl	$-1, %eax
 2500      FF
 2501 13bc F00FC102 		lock xaddl	%eax, (%rdx)
 2502              	.L246:
 2503 13c0 85C0     		testl	%eax, %eax
 2504 13c2 0F8F26FF 		jg	.L244
 2504      FFFF
 2505 13c8 488D7424 		leaq	15(%rsp), %rsi
 2505      0F
 2506 13cd E8000000 		call	_ZNSs4_Rep10_M_destroyERKSaIcE
 2506      00
 2507 13d2 E917FFFF 		jmp	.L244
 2507      FF
 2508              	.L265:
 2509 13d7 B9000000 		movl	$_ZL28__gthrw___pthread_key_createPjPFvPvE, %ecx
 2509      00
 2510 13dc 488D5710 		leaq	16(%rdi), %rdx
 2511 13e0 4885C9   		testq	%rcx, %rcx
 2512 13e3 742D     		je	.L250
 2513 13e5 B8FFFFFF 		movl	$-1, %eax
 2513      FF
 2514 13ea F00FC102 		lock xaddl	%eax, (%rdx)
 2515              	.L251:
 2516 13ee 85C0     		testl	%eax, %eax
 2517 13f0 0F8F29FF 		jg	.L249
 2517      FFFF
 2518 13f6 488D7424 		leaq	15(%rsp), %rsi
 2518      0F
 2519 13fb E8000000 		call	_ZNSs4_Rep10_M_destroyERKSaIcE
 2519      00
 2520 1400 E91AFFFF 		jmp	.L249
 2520      FF
 2521              	.L245:
 2522 1405 8B50F8   		movl	-8(%rax), %edx
 2523 1408 8D4AFF   		leal	-1(%rdx), %ecx
 2524 140b 8948F8   		movl	%ecx, -8(%rax)
 2525 140e 89D0     		movl	%edx, %eax
 2526 1410 EBAE     		jmp	.L246
 2527              	.L250:
 2528 1412 8B50F8   		movl	-8(%rax), %edx
 2529 1415 8D4AFF   		leal	-1(%rdx), %ecx
 2530 1418 8948F8   		movl	%ecx, -8(%rax)
 2531 141b 89D0     		movl	%edx, %eax
 2532 141d EBCF     		jmp	.L251
 2533              		.cfi_endproc
 2534              	.LFE1405:
 2535              		.section	.gcc_except_table
 2536              	.LLSDA1405:
 2537 00dc FF       		.byte	0xff
 2538 00dd FF       		.byte	0xff
 2539 00de 01       		.byte	0x1
 2540 00df 22       		.uleb128 .LLSDACSE1405-.LLSDACSB1405
 2541              	.LLSDACSB1405:
 2542 00e0 C001     		.uleb128 .LEHB32-.LFB1405
 2543 00e2 05       		.uleb128 .LEHE32-.LEHB32
 2544 00e3 BE05     		.uleb128 .L255-.LFB1405
 2545 00e5 00       		.uleb128 0
 2546 00e6 CD02     		.uleb128 .LEHB33-.LFB1405
 2547 00e8 05       		.uleb128 .LEHE33-.LEHB33
 2548 00e9 DC05     		.uleb128 .L256-.LFB1405
 2549 00eb 00       		.uleb128 0
 2550 00ec FC02     		.uleb128 .LEHB34-.LFB1405
 2551 00ee AA01     		.uleb128 .LEHE34-.LEHB34
 2552 00f0 F405     		.uleb128 .L254-.LFB1405
 2553 00f2 00       		.uleb128 0
 2554 00f3 A905     		.uleb128 .LEHB35-.LFB1405
 2555 00f5 05       		.uleb128 .LEHE35-.LEHB35
 2556 00f6 00       		.uleb128 0
 2557 00f7 00       		.uleb128 0
 2558 00f8 D705     		.uleb128 .LEHB36-.LFB1405
 2559 00fa 05       		.uleb128 .LEHE36-.LEHB36
 2560 00fb 00       		.uleb128 0
 2561 00fc 00       		.uleb128 0
 2562 00fd 8406     		.uleb128 .LEHB37-.LFB1405
 2563 00ff 05       		.uleb128 .LEHE37-.LEHB37
 2564 0100 00       		.uleb128 0
 2565 0101 00       		.uleb128 0
 2566              	.LLSDACSE1405:
 2567              		.text
 2569              		.section	.rodata.str1.1
 2570              	.LC23:
 2571 0051 5D202B2F 		.string	"] +/- "
 2571      2D2000
 2572              	.LC24:
 2573 0058 20627574 		.string	" but was [ "
 2573      20776173 
 2573      205B2000 
 2574              		.text
 2575 141f 90       		.p2align 4,,15
 2577              	_ZN8UnitTest15CheckArrayCloseIA3_fS1_fEEvRNS_11TestResultsERKT_RKT0_iRKT1_RKNS_11TestDetailsE.const
 2578              	.LFB1406:
 2579              		.cfi_startproc
 2580              		.cfi_personality 0x3,__gxx_personality_v0
 2581              		.cfi_lsda 0x3,.LLSDA1406
 2582 1420 4157     		pushq	%r15
 2583              		.cfi_def_cfa_offset 16
 2584              		.cfi_offset 15, -16
 2585 1422 31C0     		xorl	%eax, %eax
 2586 1424 4989CF   		movq	%rcx, %r15
 2587 1427 4156     		pushq	%r14
 2588              		.cfi_def_cfa_offset 24
 2589              		.cfi_offset 14, -24
 2590 1429 4989F6   		movq	%rsi, %r14
 2591 142c 4155     		pushq	%r13
 2592              		.cfi_def_cfa_offset 32
 2593              		.cfi_offset 13, -32
 2594 142e 4D89C5   		movq	%r8, %r13
 2595 1431 4154     		pushq	%r12
 2596              		.cfi_def_cfa_offset 40
 2597              		.cfi_offset 12, -40
 2598 1433 4989FC   		movq	%rdi, %r12
 2599 1436 55       		pushq	%rbp
 2600              		.cfi_def_cfa_offset 48
 2601              		.cfi_offset 6, -48
 2602 1437 4889D5   		movq	%rdx, %rbp
 2603 143a 53       		pushq	%rbx
 2604              		.cfi_def_cfa_offset 56
 2605              		.cfi_offset 3, -56
 2606 143b 4881EC98 		subq	$408, %rsp
 2606      010000
 2607              		.cfi_def_cfa_offset 464
 2608 1442 F30F1016 		movss	(%rsi), %xmm2
 2609 1446 0F28DA   		movaps	%xmm2, %xmm3
 2610 1449 F30F1001 		movss	(%rcx), %xmm0
 2611 144d F30F100A 		movss	(%rdx), %xmm1
 2612 1451 F30F5CD8 		subss	%xmm0, %xmm3
 2613 1455 0F2ECB   		ucomiss	%xmm3, %xmm1
 2614 1458 720A     		jb	.L267
 2615 145a F30F58D0 		addss	%xmm0, %xmm2
 2616 145e 0F2ED1   		ucomiss	%xmm1, %xmm2
 2617 1461 0F93C0   		setnb	%al
 2618              	.L267:
 2619 1464 F3410F10 		movss	4(%r14), %xmm2
 2619      5604
 2620 146a 0F28DA   		movaps	%xmm2, %xmm3
 2621 146d F30F104D 		movss	4(%rbp), %xmm1
 2621      04
 2622 1472 F30F5CD8 		subss	%xmm0, %xmm3
 2623 1476 0F2ECB   		ucomiss	%xmm3, %xmm1
 2624 1479 0F82F102 		jb	.L306
 2624      0000
 2625 147f F30F58D0 		addss	%xmm0, %xmm2
 2626 1483 BA000000 		movl	$0, %edx
 2626      00
 2627 1488 0F2ED1   		ucomiss	%xmm1, %xmm2
 2628 148b 0F42C2   		cmovb	%edx, %eax
 2629              	.L269:
 2630 148e F3410F10 		movss	8(%r14), %xmm2
 2630      5608
 2631 1494 0F28DA   		movaps	%xmm2, %xmm3
 2632 1497 F30F104D 		movss	8(%rbp), %xmm1
 2632      08
 2633 149c F30F5CD8 		subss	%xmm0, %xmm3
 2634 14a0 0F2ECB   		ucomiss	%xmm3, %xmm1
 2635 14a3 0F83D702 		jnb	.L310
 2635      0000
 2636              	.L272:
 2637 14a9 488D9C24 		leaq	128(%rsp), %rbx
 2637      80000000 
 2638 14b1 4889DF   		movq	%rbx, %rdi
 2639 14b4 E8000000 		call	_ZNSt8ios_baseC2Ev
 2639      00
 2640 14b9 31F6     		xorl	%esi, %esi
 2641 14bb 4889DF   		movq	%rbx, %rdi
 2642 14be 48C78424 		movq	$0, 344(%rsp)
 2642      58010000 
 2642      00000000 
 2643 14ca C6842460 		movb	$0, 352(%rsp)
 2643      01000000 
 2644 14d2 C6842461 		movb	$0, 353(%rsp)
 2644      01000000 
 2645 14da 48C78424 		movq	$0, 360(%rsp)
 2645      68010000 
 2645      00000000 
 2646 14e6 48C78424 		movq	$0, 368(%rsp)
 2646      70010000 
 2646      00000000 
 2647 14f2 48C78424 		movq	$0, 376(%rsp)
 2647      78010000 
 2647      00000000 
 2648 14fe 48C78424 		movq	$0, 384(%rsp)
 2648      80010000 
 2648      00000000 
 2649 150a 48C74424 		movq	$_ZTCN8UnitTest15MemoryOutStreamE0_So+24, 32(%rsp)
 2649      20000000 
 2649      00
 2650 1513 48C78424 		movq	$_ZTCN8UnitTest15MemoryOutStreamE0_So+64, 128(%rsp)
 2650      80000000 
 2650      00000000 
 2651              	.LEHB38:
 2652 151f E8000000 		call	_ZNSt9basic_iosIcSt11char_traitsIcEE4initEPSt15basic_streambufIcS1_E
 2652      00
 2653              	.LEHE38:
 2654 1524 488D7C24 		leaq	96(%rsp), %rdi
 2654      60
 2655 1529 48C74424 		movq	$_ZTCN8UnitTest15MemoryOutStreamE0_St19basic_ostringstreamIcSt11char_traitsIcESaIcEE+24, 32(%
 2655      20000000 
 2655      00
 2656 1532 48C78424 		movq	$_ZTCN8UnitTest15MemoryOutStreamE0_St19basic_ostringstreamIcSt11char_traitsIcESaIcEE+64, 128(
 2656      80000000 
 2656      00000000 
 2657 153e 48C74424 		movq	$_ZTVSt15basic_streambufIcSt11char_traitsIcEE+16, 40(%rsp)
 2657      28000000 
 2657      00
 2658 1547 48C74424 		movq	$0, 48(%rsp)
 2658      30000000 
 2658      00
 2659 1550 48C74424 		movq	$0, 56(%rsp)
 2659      38000000 
 2659      00
 2660 1559 48C74424 		movq	$0, 64(%rsp)
 2660      40000000 
 2660      00
 2661 1562 48C74424 		movq	$0, 72(%rsp)
 2661      48000000 
 2661      00
 2662 156b 48C74424 		movq	$0, 80(%rsp)
 2662      50000000 
 2662      00
 2663 1574 48C74424 		movq	$0, 88(%rsp)
 2663      58000000 
 2663      00
 2664 157d E8000000 		call	_ZNSt6localeC1Ev
 2664      00
 2665 1582 488B4424 		movq	32(%rsp), %rax
 2665      20
 2666 1587 488D7C24 		leaq	32(%rsp), %rdi
 2666      20
 2667 158c 488D7424 		leaq	40(%rsp), %rsi
 2667      28
 2668 1591 48C74424 		movq	$_ZTVSt15basic_stringbufIcSt11char_traitsIcESaIcEE+16, 40(%rsp)
 2668      28000000 
 2668      00
 2669 159a C7442468 		movl	$16, 104(%rsp)
 2669      10000000 
 2670 15a2 48C74424 		movq	$_ZNSs4_Rep20_S_empty_rep_storageE+24, 112(%rsp)
 2670      70000000 
 2670      00
 2671 15ab 480378E8 		addq	-24(%rax), %rdi
 2672              	.LEHB39:
 2673 15af E8000000 		call	_ZNSt9basic_iosIcSt11char_traitsIcEE4initEPSt15basic_streambufIcS1_E
 2673      00
 2674              	.LEHE39:
 2675 15b4 488D7C24 		leaq	32(%rsp), %rdi
 2675      20
 2676 15b9 BA0B0000 		movl	$11, %edx
 2676      00
 2677 15be BE000000 		movl	$.LC19, %esi
 2677      00
 2678 15c3 48C74424 		movq	$_ZTVN8UnitTest15MemoryOutStreamE+24, 32(%rsp)
 2678      20000000 
 2678      00
 2679 15cc 48C78424 		movq	$_ZTVN8UnitTest15MemoryOutStreamE+64, 128(%rsp)
 2679      80000000 
 2679      00000000 
 2680 15d8 48C74424 		movq	$_ZNSs4_Rep20_S_empty_rep_storageE+24, 120(%rsp)
 2680      78000000 
 2680      00
 2681              	.LEHB40:
 2682 15e1 E8000000 		call	_ZSt16__ostream_insertIcSt11char_traitsIcEERSt13basic_ostreamIT_T0_ES6_PKS3_l
 2682      00
 2683 15e6 31DB     		xorl	%ebx, %ebx
 2684 15e8 0F1F8400 		.p2align 4,,10
 2684      00000000 
 2685              		.p2align 3
 2686              	.L281:
 2687 15f0 F3410F10 		movss	(%r14,%rbx), %xmm0
 2687      041E
 2688 15f6 488D7C24 		leaq	32(%rsp), %rdi
 2688      20
 2689 15fb 0F5AC0   		cvtps2pd	%xmm0, %xmm0
 2690 15fe E8000000 		call	_ZNSo9_M_insertIdEERSoT_
 2690      00
 2691 1603 BA010000 		movl	$1, %edx
 2691      00
 2692 1608 BE000000 		movl	$.LC20, %esi
 2692      00
 2693 160d 4889C7   		movq	%rax, %rdi
 2694 1610 E8000000 		call	_ZSt16__ostream_insertIcSt11char_traitsIcEERSt13basic_ostreamIT_T0_ES6_PKS3_l
 2694      00
 2695 1615 4883C304 		addq	$4, %rbx
 2696 1619 4883FB0C 		cmpq	$12, %rbx
 2697 161d 75D1     		jne	.L281
 2698 161f 488D7C24 		leaq	32(%rsp), %rdi
 2698      20
 2699 1624 F3410F10 		movss	(%r15), %xmm4
 2699      27
 2700 1629 BA060000 		movl	$6, %edx
 2700      00
 2701 162e BE000000 		movl	$.LC23, %esi
 2701      00
 2702 1633 F30F1164 		movss	%xmm4, 12(%rsp)
 2702      240C
 2703 1639 E8000000 		call	_ZSt16__ostream_insertIcSt11char_traitsIcEERSt13basic_ostreamIT_T0_ES6_PKS3_l
 2703      00
 2704 163e F30F1044 		movss	12(%rsp), %xmm0
 2704      240C
 2705 1644 488D7C24 		leaq	32(%rsp), %rdi
 2705      20
 2706 1649 0F5AC0   		cvtps2pd	%xmm0, %xmm0
 2707 164c E8000000 		call	_ZNSo9_M_insertIdEERSoT_
 2707      00
 2708 1651 BA0B0000 		movl	$11, %edx
 2708      00
 2709 1656 BE000000 		movl	$.LC24, %esi
 2709      00
 2710 165b 4889C7   		movq	%rax, %rdi
 2711 165e E8000000 		call	_ZSt16__ostream_insertIcSt11char_traitsIcEERSt13basic_ostreamIT_T0_ES6_PKS3_l
 2711      00
 2712 1663 30DB     		xorb	%bl, %bl
 2713              		.p2align 4,,10
 2714 1665 0F1F00   		.p2align 3
 2715              	.L283:
 2716 1668 F30F1044 		movss	0(%rbp,%rbx), %xmm0
 2716      1D00
 2717 166e 488D7C24 		leaq	32(%rsp), %rdi
 2717      20
 2718 1673 0F5AC0   		cvtps2pd	%xmm0, %xmm0
 2719 1676 E8000000 		call	_ZNSo9_M_insertIdEERSoT_
 2719      00
 2720 167b BA010000 		movl	$1, %edx
 2720      00
 2721 1680 BE000000 		movl	$.LC20, %esi
 2721      00
 2722 1685 4889C7   		movq	%rax, %rdi
 2723 1688 E8000000 		call	_ZSt16__ostream_insertIcSt11char_traitsIcEERSt13basic_ostreamIT_T0_ES6_PKS3_l
 2723      00
 2724 168d 4883C304 		addq	$4, %rbx
 2725 1691 4883FB0C 		cmpq	$12, %rbx
 2726 1695 75D1     		jne	.L283
 2727 1697 488D7C24 		leaq	32(%rsp), %rdi
 2727      20
 2728 169c BA010000 		movl	$1, %edx
 2728      00
 2729 16a1 BE000000 		movl	$.LC22, %esi
 2729      00
 2730 16a6 E8000000 		call	_ZSt16__ostream_insertIcSt11char_traitsIcEERSt13basic_ostreamIT_T0_ES6_PKS3_l
 2730      00
 2731 16ab 488D7C24 		leaq	32(%rsp), %rdi
 2731      20
 2732 16b0 E8000000 		call	_ZNK8UnitTest15MemoryOutStream7GetTextEv
 2732      00
 2733 16b5 4889C2   		movq	%rax, %rdx
 2734 16b8 4C89EE   		movq	%r13, %rsi
 2735 16bb 4C89E7   		movq	%r12, %rdi
 2736 16be E8000000 		call	_ZN8UnitTest11TestResults13OnTestFailureERKNS_11TestDetailsEPKc
 2736      00
 2737              	.LEHE40:
 2738 16c3 488B4424 		movq	120(%rsp), %rax
 2738      78
 2739 16c8 48C74424 		movq	$_ZTVN8UnitTest15MemoryOutStreamE+24, 32(%rsp)
 2739      20000000 
 2739      00
 2740 16d1 48C78424 		movq	$_ZTVN8UnitTest15MemoryOutStreamE+64, 128(%rsp)
 2740      80000000 
 2740      00000000 
 2741 16dd 488D78E8 		leaq	-24(%rax), %rdi
 2742 16e1 4881FF00 		cmpq	$_ZNSs4_Rep20_S_empty_rep_storageE, %rdi
 2742      000000
 2743 16e8 0F85A800 		jne	.L311
 2743      0000
 2744              	.L285:
 2745 16ee 488B4424 		movq	112(%rsp), %rax
 2745      70
 2746 16f3 48C74424 		movq	$_ZTCN8UnitTest15MemoryOutStreamE0_St19basic_ostringstreamIcSt11char_traitsIcESaIcEE+24, 32(%
 2746      20000000 
 2746      00
 2747 16fc 48C78424 		movq	$_ZTCN8UnitTest15MemoryOutStreamE0_St19basic_ostringstreamIcSt11char_traitsIcESaIcEE+64, 128(
 2747      80000000 
 2747      00000000 
 2748 1708 48C74424 		movq	$_ZTVSt15basic_stringbufIcSt11char_traitsIcESaIcEE+16, 40(%rsp)
 2748      28000000 
 2748      00
 2749 1711 488D78E8 		leaq	-24(%rax), %rdi
 2750 1715 4881FF00 		cmpq	$_ZNSs4_Rep20_S_empty_rep_storageE, %rdi
 2750      000000
 2751 171c 0F85A600 		jne	.L312
 2751      0000
 2752              	.L290:
 2753 1722 488D7C24 		leaq	96(%rsp), %rdi
 2753      60
 2754 1727 48C74424 		movq	$_ZTVSt15basic_streambufIcSt11char_traitsIcEE+16, 40(%rsp)
 2754      28000000 
 2754      00
 2755 1730 E8000000 		call	_ZNSt6localeD1Ev
 2755      00
 2756 1735 488DBC24 		leaq	128(%rsp), %rdi
 2756      80000000 
 2757 173d 48C74424 		movq	$_ZTCN8UnitTest15MemoryOutStreamE0_So+24, 32(%rsp)
 2757      20000000 
 2757      00
 2758 1746 48C78424 		movq	$_ZTVSt9basic_iosIcSt11char_traitsIcEE+16, 128(%rsp)
 2758      80000000 
 2758      00000000 
 2759              	.LEHB41:
 2760 1752 E8000000 		call	_ZNSt8ios_baseD2Ev
 2760      00
 2761              	.LEHE41:
 2762              	.L266:
 2763 1757 4881C498 		addq	$408, %rsp
 2763      010000
 2764              		.cfi_remember_state
 2765              		.cfi_def_cfa_offset 56
 2766 175e 5B       		popq	%rbx
 2767              		.cfi_def_cfa_offset 48
 2768 175f 5D       		popq	%rbp
 2769              		.cfi_def_cfa_offset 40
 2770 1760 415C     		popq	%r12
 2771              		.cfi_def_cfa_offset 32
 2772 1762 415D     		popq	%r13
 2773              		.cfi_def_cfa_offset 24
 2774 1764 415E     		popq	%r14
 2775              		.cfi_def_cfa_offset 16
 2776 1766 415F     		popq	%r15
 2777              		.cfi_def_cfa_offset 8
 2778 1768 C3       		ret
 2779 1769 0F1F8000 		.p2align 4,,10
 2779      000000
 2780              		.p2align 3
 2781              	.L306:
 2782              		.cfi_restore_state
 2783 1770 31C0     		xorl	%eax, %eax
 2784 1772 E917FDFF 		jmp	.L269
 2784      FF
 2785 1777 660F1F84 		.p2align 4,,10
 2785      00000000 
 2785      00
 2786              		.p2align 3
 2787              	.L310:
 2788 1780 F30F58C2 		addss	%xmm2, %xmm0
 2789 1784 0F2EC1   		ucomiss	%xmm1, %xmm0
 2790 1787 0F821CFD 		jb	.L272
 2790      FFFF
 2791 178d 84C0     		testb	%al, %al
 2792 178f 75C6     		jne	.L266
 2793              		.p2align 4,,2
 2794 1791 E913FDFF 		jmp	.L272
 2794      FF
 2795              	.L311:
 2796 1796 B9000000 		movl	$_ZL28__gthrw___pthread_key_createPjPFvPvE, %ecx
 2796      00
 2797 179b 488D5710 		leaq	16(%rdi), %rdx
 2798 179f 4885C9   		testq	%rcx, %rcx
 2799 17a2 0F848B00 		je	.L286
 2799      0000
 2800 17a8 B8FFFFFF 		movl	$-1, %eax
 2800      FF
 2801 17ad F00FC102 		lock xaddl	%eax, (%rdx)
 2802              	.L287:
 2803 17b1 85C0     		testl	%eax, %eax
 2804 17b3 0F8F35FF 		jg	.L285
 2804      FFFF
 2805 17b9 488D7424 		leaq	31(%rsp), %rsi
 2805      1F
 2806 17be E8000000 		call	_ZNSs4_Rep10_M_destroyERKSaIcE
 2806      00
 2807 17c3 E926FFFF 		jmp	.L285
 2807      FF
 2808              	.L312:
 2809 17c8 B9000000 		movl	$_ZL28__gthrw___pthread_key_createPjPFvPvE, %ecx
 2809      00
 2810 17cd 488D5710 		leaq	16(%rdi), %rdx
 2811 17d1 4885C9   		testq	%rcx, %rcx
 2812 17d4 0F848100 		je	.L291
 2812      0000
 2813 17da B8FFFFFF 		movl	$-1, %eax
 2813      FF
 2814 17df F00FC102 		lock xaddl	%eax, (%rdx)
 2815              	.L292:
 2816 17e3 85C0     		testl	%eax, %eax
 2817 17e5 0F8F37FF 		jg	.L290
 2817      FFFF
 2818 17eb 488D7424 		leaq	31(%rsp), %rsi
 2818      1F
 2819 17f0 E8000000 		call	_ZNSs4_Rep10_M_destroyERKSaIcE
 2819      00
 2820 17f5 E928FFFF 		jmp	.L290
 2820      FF
 2821              	.L298:
 2822 17fa 488D7C24 		leaq	32(%rsp), %rdi
 2822      20
 2823 17ff 4889C3   		movq	%rax, %rbx
 2824 1802 E8000000 		call	_ZN8UnitTest15MemoryOutStreamD1Ev
 2824      00
 2825 1807 4889DF   		movq	%rbx, %rdi
 2826              	.LEHB42:
 2827 180a E8000000 		call	_Unwind_Resume
 2827      00
 2828              	.LEHE42:
 2829              	.L299:
 2830 180f 4889C3   		movq	%rax, %rbx
 2831              	.L278:
 2832 1812 488DBC24 		leaq	128(%rsp), %rdi
 2832      80000000 
 2833 181a 48C78424 		movq	$_ZTVSt9basic_iosIcSt11char_traitsIcEE+16, 128(%rsp)
 2833      80000000 
 2833      00000000 
 2834 1826 E8000000 		call	_ZNSt8ios_baseD2Ev
 2834      00
 2835 182b 4889DF   		movq	%rbx, %rdi
 2836              	.LEHB43:
 2837 182e E8000000 		call	_Unwind_Resume
 2837      00
 2838              	.LEHE43:
 2839              	.L286:
 2840 1833 8B50F8   		movl	-8(%rax), %edx
 2841 1836 8D4AFF   		leal	-1(%rdx), %ecx
 2842 1839 8948F8   		movl	%ecx, -8(%rax)
 2843 183c 89D0     		movl	%edx, %eax
 2844 183e E96EFFFF 		jmp	.L287
 2844      FF
 2845              	.L300:
 2846 1843 488D7C24 		leaq	40(%rsp), %rdi
 2846      28
 2847 1848 4889C3   		movq	%rax, %rbx
 2848 184b E8000000 		call	_ZNSt15basic_stringbufIcSt11char_traitsIcESaIcEED1Ev
 2848      00
 2849 1850 48C74424 		movq	$_ZTCN8UnitTest15MemoryOutStreamE0_So+24, 32(%rsp)
 2849      20000000 
 2849      00
 2850 1859 EBB7     		jmp	.L278
 2851              	.L291:
 2852 185b 8B50F8   		movl	-8(%rax), %edx
 2853 185e 8D4AFF   		leal	-1(%rdx), %ecx
 2854 1861 8948F8   		movl	%ecx, -8(%rax)
 2855 1864 89D0     		movl	%edx, %eax
 2856 1866 E978FFFF 		jmp	.L292
 2856      FF
 2857              		.cfi_endproc
 2858              	.LFE1406:
 2859              		.section	.gcc_except_table
 2860              	.LLSDA1406:
 2861 0102 FF       		.byte	0xff
 2862 0103 FF       		.byte	0xff
 2863 0104 01       		.byte	0x1
 2864 0105 22       		.uleb128 .LLSDACSE1406-.LLSDACSB1406
 2865              	.LLSDACSB1406:
 2866 0106 FF01     		.uleb128 .LEHB38-.LFB1406
 2867 0108 05       		.uleb128 .LEHE38-.LEHB38
 2868 0109 EF07     		.uleb128 .L299-.LFB1406
 2869 010b 00       		.uleb128 0
 2870 010c 8F03     		.uleb128 .LEHB39-.LFB1406
 2871 010e 05       		.uleb128 .LEHE39-.LEHB39
 2872 010f A308     		.uleb128 .L300-.LFB1406
 2873 0111 00       		.uleb128 0
 2874 0112 C103     		.uleb128 .LEHB40-.LFB1406
 2875 0114 E201     		.uleb128 .LEHE40-.LEHB40
 2876 0116 DA07     		.uleb128 .L298-.LFB1406
 2877 0118 00       		.uleb128 0
 2878 0119 B206     		.uleb128 .LEHB41-.LFB1406
 2879 011b 05       		.uleb128 .LEHE41-.LEHB41
 2880 011c 00       		.uleb128 0
 2881 011d 00       		.uleb128 0
 2882 011e EA07     		.uleb128 .LEHB42-.LFB1406
 2883 0120 05       		.uleb128 .LEHE42-.LEHB42
 2884 0121 00       		.uleb128 0
 2885 0122 00       		.uleb128 0
 2886 0123 8E08     		.uleb128 .LEHB43-.LFB1406
 2887 0125 05       		.uleb128 .LEHE43-.LEHB43
 2888 0126 00       		.uleb128 0
 2889 0127 00       		.uleb128 0
 2890              	.LLSDACSE1406:
 2891              		.text
 2893              		.section	.rodata.str1.1
 2894              	.LC25:
 2895 0064 5B2000   		.string	"[ "
 2896              	.LC26:
 2897 0067 5D2000   		.string	"] "
 2898              		.text
 2899 186b 0F1F4400 		.p2align 4,,15
 2899      00
 2901              	_ZN8UnitTest17CheckArray2DCloseIA3_A3_fS2_fEEvRNS_11TestResultsERKT_RKT0_iiRKT1_RKNS_11TestDetailsE
 2902              	.LFB1407:
 2903              		.cfi_startproc
 2904              		.cfi_personality 0x3,__gxx_personality_v0
 2905              		.cfi_lsda 0x3,.LLSDA1407
 2906 1870 4157     		pushq	%r15
 2907              		.cfi_def_cfa_offset 16
 2908              		.cfi_offset 15, -16
 2909 1872 4989CF   		movq	%rcx, %r15
 2910 1875 4156     		pushq	%r14
 2911              		.cfi_def_cfa_offset 24
 2912              		.cfi_offset 14, -24
 2913 1877 4989F6   		movq	%rsi, %r14
 2914 187a 4155     		pushq	%r13
 2915              		.cfi_def_cfa_offset 32
 2916              		.cfi_offset 13, -32
 2917 187c 4989D5   		movq	%rdx, %r13
 2918 187f 4154     		pushq	%r12
 2919              		.cfi_def_cfa_offset 40
 2920              		.cfi_offset 12, -40
 2921 1881 55       		pushq	%rbp
 2922              		.cfi_def_cfa_offset 48
 2923              		.cfi_offset 6, -48
 2924 1882 53       		pushq	%rbx
 2925              		.cfi_def_cfa_offset 56
 2926              		.cfi_offset 3, -56
 2927 1883 4881ECA8 		subq	$424, %rsp
 2927      010000
 2928              		.cfi_def_cfa_offset 480
 2929 188a F30F1016 		movss	(%rsi), %xmm2
 2930 188e 48897C24 		movq	%rdi, 16(%rsp)
 2930      10
 2931 1893 0F28DA   		movaps	%xmm2, %xmm3
 2932 1896 F30F1001 		movss	(%rcx), %xmm0
 2933 189a F30F100A 		movss	(%rdx), %xmm1
 2934 189e 31D2     		xorl	%edx, %edx
 2935 18a0 F30F5CD8 		subss	%xmm0, %xmm3
 2936 18a4 4C894424 		movq	%r8, 24(%rsp)
 2936      18
 2937 18a9 0F2ECB   		ucomiss	%xmm3, %xmm1
 2938 18ac 720A     		jb	.L314
 2939 18ae F30F58D0 		addss	%xmm0, %xmm2
 2940 18b2 0F2ED1   		ucomiss	%xmm1, %xmm2
 2941 18b5 0F93C2   		setnb	%dl
 2942              	.L314:
 2943 18b8 F3410F10 		movss	4(%r14), %xmm2
 2943      5604
 2944 18be 31C0     		xorl	%eax, %eax
 2945 18c0 0F28DA   		movaps	%xmm2, %xmm3
 2946 18c3 F3410F10 		movss	4(%r13), %xmm1
 2946      4D04
 2947 18c9 F30F5CD8 		subss	%xmm0, %xmm3
 2948 18cd 0F2ECB   		ucomiss	%xmm3, %xmm1
 2949 18d0 720C     		jb	.L316
 2950 18d2 F30F58D0 		addss	%xmm0, %xmm2
 2951 18d6 31C0     		xorl	%eax, %eax
 2952 18d8 0F2ED1   		ucomiss	%xmm1, %xmm2
 2953 18db 0F43C2   		cmovnb	%edx, %eax
 2954              	.L316:
 2955 18de F3410F10 		movss	8(%r14), %xmm2
 2955      5608
 2956 18e4 0F28DA   		movaps	%xmm2, %xmm3
 2957 18e7 F3410F10 		movss	8(%r13), %xmm1
 2957      4D08
 2958 18ed F30F5CD8 		subss	%xmm0, %xmm3
 2959 18f1 0F2ECB   		ucomiss	%xmm3, %xmm1
 2960 18f4 0F826504 		jb	.L398
 2960      0000
 2961 18fa F30F58D0 		addss	%xmm0, %xmm2
 2962 18fe BA000000 		movl	$0, %edx
 2962      00
 2963 1903 0F2ED1   		ucomiss	%xmm1, %xmm2
 2964 1906 0F42C2   		cmovb	%edx, %eax
 2965              	.L319:
 2966 1909 F3410F10 		movss	12(%r14), %xmm2
 2966      560C
 2967 190f 31C9     		xorl	%ecx, %ecx
 2968 1911 0F28DA   		movaps	%xmm2, %xmm3
 2969 1914 F3410F10 		movss	12(%r13), %xmm1
 2969      4D0C
 2970 191a F30F5CD8 		subss	%xmm0, %xmm3
 2971 191e 0F2ECB   		ucomiss	%xmm3, %xmm1
 2972 1921 720A     		jb	.L322
 2973 1923 F30F58D0 		addss	%xmm0, %xmm2
 2974 1927 0F2ED1   		ucomiss	%xmm1, %xmm2
 2975 192a 0F93C1   		setnb	%cl
 2976              	.L322:
 2977 192d F3410F10 		movss	16(%r14), %xmm2
 2977      5610
 2978 1933 31D2     		xorl	%edx, %edx
 2979 1935 0F28DA   		movaps	%xmm2, %xmm3
 2980 1938 F3410F10 		movss	16(%r13), %xmm1
 2980      4D10
 2981 193e F30F5CD8 		subss	%xmm0, %xmm3
 2982 1942 0F2ECB   		ucomiss	%xmm3, %xmm1
 2983 1945 720C     		jb	.L324
 2984 1947 F30F58D0 		addss	%xmm0, %xmm2
 2985 194b 31D2     		xorl	%edx, %edx
 2986 194d 0F2ED1   		ucomiss	%xmm1, %xmm2
 2987 1950 0F43D1   		cmovnb	%ecx, %edx
 2988              	.L324:
 2989 1953 F3410F10 		movss	20(%r14), %xmm2
 2989      5614
 2990 1959 0F28DA   		movaps	%xmm2, %xmm3
 2991 195c F3410F10 		movss	20(%r13), %xmm1
 2991      4D14
 2992 1962 F30F5CD8 		subss	%xmm0, %xmm3
 2993 1966 0F2ECB   		ucomiss	%xmm3, %xmm1
 2994 1969 0F82E903 		jb	.L401
 2994      0000
 2995 196f F30F58D0 		addss	%xmm0, %xmm2
 2996 1973 21D0     		andl	%edx, %eax
 2997 1975 31D2     		xorl	%edx, %edx
 2998 1977 0F2ED1   		ucomiss	%xmm1, %xmm2
 2999 197a 0F43D0   		cmovnb	%eax, %edx
 3000              	.L327:
 3001 197d F3410F10 		movss	24(%r14), %xmm2
 3001      5618
 3002 1983 31C9     		xorl	%ecx, %ecx
 3003 1985 0F28DA   		movaps	%xmm2, %xmm3
 3004 1988 F3410F10 		movss	24(%r13), %xmm1
 3004      4D18
 3005 198e F30F5CD8 		subss	%xmm0, %xmm3
 3006 1992 0F2ECB   		ucomiss	%xmm3, %xmm1
 3007 1995 720A     		jb	.L330
 3008 1997 F30F58D0 		addss	%xmm0, %xmm2
 3009 199b 0F2ED1   		ucomiss	%xmm1, %xmm2
 3010 199e 0F93C1   		setnb	%cl
 3011              	.L330:
 3012 19a1 F3410F10 		movss	28(%r14), %xmm2
 3012      561C
 3013 19a7 31C0     		xorl	%eax, %eax
 3014 19a9 0F28DA   		movaps	%xmm2, %xmm3
 3015 19ac F3410F10 		movss	28(%r13), %xmm1
 3015      4D1C
 3016 19b2 F30F5CD8 		subss	%xmm0, %xmm3
 3017 19b6 0F2ECB   		ucomiss	%xmm3, %xmm1
 3018 19b9 720C     		jb	.L332
 3019 19bb F30F58D0 		addss	%xmm0, %xmm2
 3020 19bf 31C0     		xorl	%eax, %eax
 3021 19c1 0F2ED1   		ucomiss	%xmm1, %xmm2
 3022 19c4 0F43C1   		cmovnb	%ecx, %eax
 3023              	.L332:
 3024 19c7 F3410F10 		movss	32(%r14), %xmm2
 3024      5620
 3025 19cd 0F28DA   		movaps	%xmm2, %xmm3
 3026 19d0 F3410F10 		movss	32(%r13), %xmm1
 3026      4D20
 3027 19d6 F30F5CD8 		subss	%xmm0, %xmm3
 3028 19da 0F2ECB   		ucomiss	%xmm3, %xmm1
 3029 19dd 0F834E03 		jnb	.L407
 3029      0000
 3030              	.L335:
 3031 19e3 488D9C24 		leaq	144(%rsp), %rbx
 3031      90000000 
 3032 19eb 4889DF   		movq	%rbx, %rdi
 3033 19ee E8000000 		call	_ZNSt8ios_baseC2Ev
 3033      00
 3034 19f3 31F6     		xorl	%esi, %esi
 3035 19f5 4889DF   		movq	%rbx, %rdi
 3036 19f8 48C78424 		movq	$0, 360(%rsp)
 3036      68010000 
 3036      00000000 
 3037 1a04 C6842470 		movb	$0, 368(%rsp)
 3037      01000000 
 3038 1a0c C6842471 		movb	$0, 369(%rsp)
 3038      01000000 
 3039 1a14 48C78424 		movq	$0, 376(%rsp)
 3039      78010000 
 3039      00000000 
 3040 1a20 48C78424 		movq	$0, 384(%rsp)
 3040      80010000 
 3040      00000000 
 3041 1a2c 48C78424 		movq	$0, 392(%rsp)
 3041      88010000 
 3041      00000000 
 3042 1a38 48C78424 		movq	$0, 400(%rsp)
 3042      90010000 
 3042      00000000 
 3043 1a44 48C74424 		movq	$_ZTCN8UnitTest15MemoryOutStreamE0_So+24, 48(%rsp)
 3043      30000000 
 3043      00
 3044 1a4d 48C78424 		movq	$_ZTCN8UnitTest15MemoryOutStreamE0_So+64, 144(%rsp)
 3044      90000000 
 3044      00000000 
 3045              	.LEHB44:
 3046 1a59 E8000000 		call	_ZNSt9basic_iosIcSt11char_traitsIcEE4initEPSt15basic_streambufIcS1_E
 3046      00
 3047              	.LEHE44:
 3048 1a5e 488D7C24 		leaq	112(%rsp), %rdi
 3048      70
 3049 1a63 48C74424 		movq	$_ZTCN8UnitTest15MemoryOutStreamE0_St19basic_ostringstreamIcSt11char_traitsIcESaIcEE+24, 48(%
 3049      30000000 
 3049      00
 3050 1a6c 48C78424 		movq	$_ZTCN8UnitTest15MemoryOutStreamE0_St19basic_ostringstreamIcSt11char_traitsIcESaIcEE+64, 144(
 3050      90000000 
 3050      00000000 
 3051 1a78 48C74424 		movq	$_ZTVSt15basic_streambufIcSt11char_traitsIcEE+16, 56(%rsp)
 3051      38000000 
 3051      00
 3052 1a81 48C74424 		movq	$0, 64(%rsp)
 3052      40000000 
 3052      00
 3053 1a8a 48C74424 		movq	$0, 72(%rsp)
 3053      48000000 
 3053      00
 3054 1a93 48C74424 		movq	$0, 80(%rsp)
 3054      50000000 
 3054      00
 3055 1a9c 48C74424 		movq	$0, 88(%rsp)
 3055      58000000 
 3055      00
 3056 1aa5 48C74424 		movq	$0, 96(%rsp)
 3056      60000000 
 3056      00
 3057 1aae 48C74424 		movq	$0, 104(%rsp)
 3057      68000000 
 3057      00
 3058 1ab7 E8000000 		call	_ZNSt6localeC1Ev
 3058      00
 3059 1abc 488B4424 		movq	48(%rsp), %rax
 3059      30
 3060 1ac1 488D7C24 		leaq	48(%rsp), %rdi
 3060      30
 3061 1ac6 488D7424 		leaq	56(%rsp), %rsi
 3061      38
 3062 1acb 48C74424 		movq	$_ZTVSt15basic_stringbufIcSt11char_traitsIcESaIcEE+16, 56(%rsp)
 3062      38000000 
 3062      00
 3063 1ad4 C7442478 		movl	$16, 120(%rsp)
 3063      10000000 
 3064 1adc 48C78424 		movq	$_ZNSs4_Rep20_S_empty_rep_storageE+24, 128(%rsp)
 3064      80000000 
 3064      00000000 
 3065 1ae8 480378E8 		addq	-24(%rax), %rdi
 3066              	.LEHB45:
 3067 1aec E8000000 		call	_ZNSt9basic_iosIcSt11char_traitsIcEE4initEPSt15basic_streambufIcS1_E
 3067      00
 3068              	.LEHE45:
 3069 1af1 488D7C24 		leaq	48(%rsp), %rdi
 3069      30
 3070 1af6 BA0B0000 		movl	$11, %edx
 3070      00
 3071 1afb BE000000 		movl	$.LC19, %esi
 3071      00
 3072 1b00 48C74424 		movq	$_ZTVN8UnitTest15MemoryOutStreamE+24, 48(%rsp)
 3072      30000000 
 3072      00
 3073 1b09 48C78424 		movq	$_ZTVN8UnitTest15MemoryOutStreamE+64, 144(%rsp)
 3073      90000000 
 3073      00000000 
 3074 1b15 48C78424 		movq	$_ZNSs4_Rep20_S_empty_rep_storageE+24, 136(%rsp)
 3074      88000000 
 3074      00000000 
 3075              	.LEHB46:
 3076 1b21 E8000000 		call	_ZSt16__ostream_insertIcSt11char_traitsIcEERSt13basic_ostreamIT_T0_ES6_PKS3_l
 3076      00
 3077 1b26 4531E4   		xorl	%r12d, %r12d
 3078 1b29 0F1F8000 		.p2align 4,,10
 3078      000000
 3079              		.p2align 3
 3080              	.L347:
 3081 1b30 488D7C24 		leaq	48(%rsp), %rdi
 3081      30
 3082 1b35 BA020000 		movl	$2, %edx
 3082      00
 3083 1b3a BE000000 		movl	$.LC25, %esi
 3083      00
 3084 1b3f E8000000 		call	_ZSt16__ostream_insertIcSt11char_traitsIcEERSt13basic_ostreamIT_T0_ES6_PKS3_l
 3084      00
 3085 1b44 4B8D2C26 		leaq	(%r14,%r12), %rbp
 3086 1b48 31DB     		xorl	%ebx, %ebx
 3087 1b4a 660F1F44 		.p2align 4,,10
 3087      0000
 3088              		.p2align 3
 3089              	.L345:
 3090 1b50 F30F1044 		movss	0(%rbp,%rbx), %xmm0
 3090      1D00
 3091 1b56 488D7C24 		leaq	48(%rsp), %rdi
 3091      30
 3092 1b5b 0F5AC0   		cvtps2pd	%xmm0, %xmm0
 3093 1b5e E8000000 		call	_ZNSo9_M_insertIdEERSoT_
 3093      00
 3094 1b63 BA010000 		movl	$1, %edx
 3094      00
 3095 1b68 BE000000 		movl	$.LC20, %esi
 3095      00
 3096 1b6d 4889C7   		movq	%rax, %rdi
 3097 1b70 E8000000 		call	_ZSt16__ostream_insertIcSt11char_traitsIcEERSt13basic_ostreamIT_T0_ES6_PKS3_l
 3097      00
 3098 1b75 4883C304 		addq	$4, %rbx
 3099 1b79 4883FB0C 		cmpq	$12, %rbx
 3100 1b7d 75D1     		jne	.L345
 3101 1b7f 488D7C24 		leaq	48(%rsp), %rdi
 3101      30
 3102 1b84 BA020000 		movl	$2, %edx
 3102      00
 3103 1b89 BE000000 		movl	$.LC26, %esi
 3103      00
 3104 1b8e E8000000 		call	_ZSt16__ostream_insertIcSt11char_traitsIcEERSt13basic_ostreamIT_T0_ES6_PKS3_l
 3104      00
 3105 1b93 4983C40C 		addq	$12, %r12
 3106 1b97 4983FC24 		cmpq	$36, %r12
 3107 1b9b 7593     		jne	.L347
 3108 1b9d 488D7C24 		leaq	48(%rsp), %rdi
 3108      30
 3109 1ba2 F3410F10 		movss	(%r15), %xmm4
 3109      27
 3110 1ba7 BA060000 		movl	$6, %edx
 3110      00
 3111 1bac BE000000 		movl	$.LC23, %esi
 3111      00
 3112 1bb1 F30F1164 		movss	%xmm4, 12(%rsp)
 3112      240C
 3113 1bb7 E8000000 		call	_ZSt16__ostream_insertIcSt11char_traitsIcEERSt13basic_ostreamIT_T0_ES6_PKS3_l
 3113      00
 3114 1bbc F30F1044 		movss	12(%rsp), %xmm0
 3114      240C
 3115 1bc2 488D7C24 		leaq	48(%rsp), %rdi
 3115      30
 3116 1bc7 0F5AC0   		cvtps2pd	%xmm0, %xmm0
 3117 1bca E8000000 		call	_ZNSo9_M_insertIdEERSoT_
 3117      00
 3118 1bcf BA0B0000 		movl	$11, %edx
 3118      00
 3119 1bd4 BE000000 		movl	$.LC24, %esi
 3119      00
 3120 1bd9 4889C7   		movq	%rax, %rdi
 3121 1bdc E8000000 		call	_ZSt16__ostream_insertIcSt11char_traitsIcEERSt13basic_ostreamIT_T0_ES6_PKS3_l
 3121      00
 3122 1be1 4530E4   		xorb	%r12b, %r12b
 3123              		.p2align 4,,10
 3124 1be4 0F1F4000 		.p2align 3
 3125              	.L351:
 3126 1be8 488D7C24 		leaq	48(%rsp), %rdi
 3126      30
 3127 1bed BA020000 		movl	$2, %edx
 3127      00
 3128 1bf2 BE000000 		movl	$.LC25, %esi
 3128      00
 3129 1bf7 E8000000 		call	_ZSt16__ostream_insertIcSt11char_traitsIcEERSt13basic_ostreamIT_T0_ES6_PKS3_l
 3129      00
 3130 1bfc 4B8D6C25 		leaq	0(%r13,%r12), %rbp
 3130      00
 3131 1c01 31DB     		xorl	%ebx, %ebx
 3132              		.p2align 4,,10
 3133 1c03 0F1F4400 		.p2align 3
 3133      00
 3134              	.L349:
 3135 1c08 F30F1044 		movss	0(%rbp,%rbx), %xmm0
 3135      1D00
 3136 1c0e 488D7C24 		leaq	48(%rsp), %rdi
 3136      30
 3137 1c13 0F5AC0   		cvtps2pd	%xmm0, %xmm0
 3138 1c16 E8000000 		call	_ZNSo9_M_insertIdEERSoT_
 3138      00
 3139 1c1b BA010000 		movl	$1, %edx
 3139      00
 3140 1c20 BE000000 		movl	$.LC20, %esi
 3140      00
 3141 1c25 4889C7   		movq	%rax, %rdi
 3142 1c28 E8000000 		call	_ZSt16__ostream_insertIcSt11char_traitsIcEERSt13basic_ostreamIT_T0_ES6_PKS3_l
 3142      00
 3143 1c2d 4883C304 		addq	$4, %rbx
 3144 1c31 4883FB0C 		cmpq	$12, %rbx
 3145 1c35 75D1     		jne	.L349
 3146 1c37 488D7C24 		leaq	48(%rsp), %rdi
 3146      30
 3147 1c3c BA020000 		movl	$2, %edx
 3147      00
 3148 1c41 BE000000 		movl	$.LC26, %esi
 3148      00
 3149 1c46 E8000000 		call	_ZSt16__ostream_insertIcSt11char_traitsIcEERSt13basic_ostreamIT_T0_ES6_PKS3_l
 3149      00
 3150 1c4b 4983C40C 		addq	$12, %r12
 3151 1c4f 4983FC24 		cmpq	$36, %r12
 3152 1c53 7593     		jne	.L351
 3153 1c55 488D7C24 		leaq	48(%rsp), %rdi
 3153      30
 3154 1c5a BA010000 		movl	$1, %edx
 3154      00
 3155 1c5f BE000000 		movl	$.LC22, %esi
 3155      00
 3156 1c64 E8000000 		call	_ZSt16__ostream_insertIcSt11char_traitsIcEERSt13basic_ostreamIT_T0_ES6_PKS3_l
 3156      00
 3157 1c69 488D7C24 		leaq	48(%rsp), %rdi
 3157      30
 3158 1c6e E8000000 		call	_ZNK8UnitTest15MemoryOutStream7GetTextEv
 3158      00
 3159 1c73 488B7424 		movq	24(%rsp), %rsi
 3159      18
 3160 1c78 488B7C24 		movq	16(%rsp), %rdi
 3160      10
 3161 1c7d 4889C2   		movq	%rax, %rdx
 3162 1c80 E8000000 		call	_ZN8UnitTest11TestResults13OnTestFailureERKNS_11TestDetailsEPKc
 3162      00
 3163              	.LEHE46:
 3164 1c85 488B8424 		movq	136(%rsp), %rax
 3164      88000000 
 3165 1c8d 48C74424 		movq	$_ZTVN8UnitTest15MemoryOutStreamE+24, 48(%rsp)
 3165      30000000 
 3165      00
 3166 1c96 48C78424 		movq	$_ZTVN8UnitTest15MemoryOutStreamE+64, 144(%rsp)
 3166      90000000 
 3166      00000000 
 3167 1ca2 488D78E8 		leaq	-24(%rax), %rdi
 3168 1ca6 4881FF00 		cmpq	$_ZNSs4_Rep20_S_empty_rep_storageE, %rdi
 3168      000000
 3169 1cad 0F85B300 		jne	.L408
 3169      0000
 3170              	.L353:
 3171 1cb3 488B8424 		movq	128(%rsp), %rax
 3171      80000000 
 3172 1cbb 48C74424 		movq	$_ZTCN8UnitTest15MemoryOutStreamE0_St19basic_ostringstreamIcSt11char_traitsIcESaIcEE+24, 48(%
 3172      30000000 
 3172      00
 3173 1cc4 48C78424 		movq	$_ZTCN8UnitTest15MemoryOutStreamE0_St19basic_ostringstreamIcSt11char_traitsIcESaIcEE+64, 144(
 3173      90000000 
 3173      00000000 
 3174 1cd0 48C74424 		movq	$_ZTVSt15basic_stringbufIcSt11char_traitsIcESaIcEE+16, 56(%rsp)
 3174      38000000 
 3174      00
 3175 1cd9 488D78E8 		leaq	-24(%rax), %rdi
 3176 1cdd 4881FF00 		cmpq	$_ZNSs4_Rep20_S_empty_rep_storageE, %rdi
 3176      000000
 3177 1ce4 0F85EA00 		jne	.L409
 3177      0000
 3178              	.L358:
 3179 1cea 488D7C24 		leaq	112(%rsp), %rdi
 3179      70
 3180 1cef 48C74424 		movq	$_ZTVSt15basic_streambufIcSt11char_traitsIcEE+16, 56(%rsp)
 3180      38000000 
 3180      00
 3181 1cf8 E8000000 		call	_ZNSt6localeD1Ev
 3181      00
 3182 1cfd 488DBC24 		leaq	144(%rsp), %rdi
 3182      90000000 
 3183 1d05 48C74424 		movq	$_ZTCN8UnitTest15MemoryOutStreamE0_So+24, 48(%rsp)
 3183      30000000 
 3183      00
 3184 1d0e 48C78424 		movq	$_ZTVSt9basic_iosIcSt11char_traitsIcEE+16, 144(%rsp)
 3184      90000000 
 3184      00000000 
 3185              	.LEHB47:
 3186 1d1a E8000000 		call	_ZNSt8ios_baseD2Ev
 3186      00
 3187              	.LEHE47:
 3188              	.L313:
 3189 1d1f 4881C4A8 		addq	$424, %rsp
 3189      010000
 3190              		.cfi_remember_state
 3191              		.cfi_def_cfa_offset 56
 3192 1d26 5B       		popq	%rbx
 3193              		.cfi_def_cfa_offset 48
 3194 1d27 5D       		popq	%rbp
 3195              		.cfi_def_cfa_offset 40
 3196 1d28 415C     		popq	%r12
 3197              		.cfi_def_cfa_offset 32
 3198 1d2a 415D     		popq	%r13
 3199              		.cfi_def_cfa_offset 24
 3200 1d2c 415E     		popq	%r14
 3201              		.cfi_def_cfa_offset 16
 3202 1d2e 415F     		popq	%r15
 3203              		.cfi_def_cfa_offset 8
 3204 1d30 C3       		ret
 3205              	.L407:
 3206              		.cfi_restore_state
 3207 1d31 F30F58C2 		addss	%xmm2, %xmm0
 3208 1d35 0F2EC1   		ucomiss	%xmm1, %xmm0
 3209 1d38 0F82A5FC 		jb	.L335
 3209      FFFF
 3210 1d3e 84C0     		testb	%al, %al
 3211 1d40 0F849DFC 		je	.L335
 3211      FFFF
 3212 1d46 84D2     		testb	%dl, %dl
 3213 1d48 75D5     		jne	.L313
 3214 1d4a 660F1F44 		.p2align 4,,7
 3214      0000
 3215 1d50 E98EFCFF 		jmp	.L335
 3215      FF
 3216              		.p2align 4,,10
 3217 1d55 0F1F00   		.p2align 3
 3218              	.L401:
 3219 1d58 31D2     		xorl	%edx, %edx
 3220 1d5a E91EFCFF 		jmp	.L327
 3220      FF
 3221              	.L398:
 3222 1d5f 31C0     		xorl	%eax, %eax
 3223              		.p2align 4,,7
 3224 1d61 E9A3FBFF 		jmp	.L319
 3224      FF
 3225              	.L408:
 3226 1d66 B9000000 		movl	$_ZL28__gthrw___pthread_key_createPjPFvPvE, %ecx
 3226      00
 3227 1d6b 488D5710 		leaq	16(%rdi), %rdx
 3228 1d6f 4885C9   		testq	%rcx, %rcx
 3229 1d72 0F849F00 		je	.L354
 3229      0000
 3230 1d78 B8FFFFFF 		movl	$-1, %eax
 3230      FF
 3231 1d7d F00FC102 		lock xaddl	%eax, (%rdx)
 3232              	.L355:
 3233 1d81 85C0     		testl	%eax, %eax
 3234 1d83 0F8F2AFF 		jg	.L353
 3234      FFFF
 3235 1d89 488D7424 		leaq	47(%rsp), %rsi
 3235      2F
 3236 1d8e E8000000 		call	_ZNSs4_Rep10_M_destroyERKSaIcE
 3236      00
 3237 1d93 E91BFFFF 		jmp	.L353
 3237      FF
 3238              	.L378:
 3239 1d98 488D7C24 		leaq	56(%rsp), %rdi
 3239      38
 3240 1d9d 4889C3   		movq	%rax, %rbx
 3241 1da0 E8000000 		call	_ZNSt15basic_stringbufIcSt11char_traitsIcESaIcEED1Ev
 3241      00
 3242 1da5 48C74424 		movq	$_ZTCN8UnitTest15MemoryOutStreamE0_So+24, 48(%rsp)
 3242      30000000 
 3242      00
 3243              	.L342:
 3244 1dae 488DBC24 		leaq	144(%rsp), %rdi
 3244      90000000 
 3245 1db6 48C78424 		movq	$_ZTVSt9basic_iosIcSt11char_traitsIcEE+16, 144(%rsp)
 3245      90000000 
 3245      00000000 
 3246 1dc2 E8000000 		call	_ZNSt8ios_baseD2Ev
 3246      00
 3247 1dc7 4889DF   		movq	%rbx, %rdi
 3248              	.LEHB48:
 3249 1dca E8000000 		call	_Unwind_Resume
 3249      00
 3250              	.LEHE48:
 3251              	.L377:
 3252 1dcf 4889C3   		movq	%rax, %rbx
 3253 1dd2 EBDA     		jmp	.L342
 3254              	.L409:
 3255 1dd4 B9000000 		movl	$_ZL28__gthrw___pthread_key_createPjPFvPvE, %ecx
 3255      00
 3256 1dd9 488D5710 		leaq	16(%rdi), %rdx
 3257 1ddd 4885C9   		testq	%rcx, %rcx
 3258 1de0 7445     		je	.L359
 3259 1de2 B8FFFFFF 		movl	$-1, %eax
 3259      FF
 3260 1de7 F00FC102 		lock xaddl	%eax, (%rdx)
 3261              	.L360:
 3262 1deb 85C0     		testl	%eax, %eax
 3263 1ded 0F8FF7FE 		jg	.L358
 3263      FFFF
 3264 1df3 488D7424 		leaq	47(%rsp), %rsi
 3264      2F
 3265 1df8 E8000000 		call	_ZNSs4_Rep10_M_destroyERKSaIcE
 3265      00
 3266 1dfd E9E8FEFF 		jmp	.L358
 3266      FF
 3267              	.L376:
 3268 1e02 488D7C24 		leaq	48(%rsp), %rdi
 3268      30
 3269 1e07 4889C3   		movq	%rax, %rbx
 3270 1e0a E8000000 		call	_ZN8UnitTest15MemoryOutStreamD1Ev
 3270      00
 3271 1e0f 4889DF   		movq	%rbx, %rdi
 3272              	.LEHB49:
 3273 1e12 E8000000 		call	_Unwind_Resume
 3273      00
 3274              	.LEHE49:
 3275              	.L354:
 3276 1e17 8B50F8   		movl	-8(%rax), %edx
 3277 1e1a 8D4AFF   		leal	-1(%rdx), %ecx
 3278 1e1d 8948F8   		movl	%ecx, -8(%rax)
 3279 1e20 89D0     		movl	%edx, %eax
 3280 1e22 E95AFFFF 		jmp	.L355
 3280      FF
 3281              	.L359:
 3282 1e27 8B50F8   		movl	-8(%rax), %edx
 3283 1e2a 8D4AFF   		leal	-1(%rdx), %ecx
 3284 1e2d 8948F8   		movl	%ecx, -8(%rax)
 3285 1e30 89D0     		movl	%edx, %eax
 3286 1e32 EBB7     		jmp	.L360
 3287              		.cfi_endproc
 3288              	.LFE1407:
 3289              		.section	.gcc_except_table
 3290              	.LLSDA1407:
 3291 0128 FF       		.byte	0xff
 3292 0129 FF       		.byte	0xff
 3293 012a 01       		.byte	0x1
 3294 012b 22       		.uleb128 .LLSDACSE1407-.LLSDACSB1407
 3295              	.LLSDACSB1407:
 3296 012c E903     		.uleb128 .LEHB44-.LFB1407
 3297 012e 05       		.uleb128 .LEHE44-.LEHB44
 3298 012f DF0A     		.uleb128 .L377-.LFB1407
 3299 0131 00       		.uleb128 0
 3300 0132 FC04     		.uleb128 .LEHB45-.LFB1407
 3301 0134 05       		.uleb128 .LEHE45-.LEHB45
 3302 0135 A80A     		.uleb128 .L378-.LFB1407
 3303 0137 00       		.uleb128 0
 3304 0138 B105     		.uleb128 .LEHB46-.LFB1407
 3305 013a E402     		.uleb128 .LEHE46-.LEHB46
 3306 013c 920B     		.uleb128 .L376-.LFB1407
 3307 013e 00       		.uleb128 0
 3308 013f AA09     		.uleb128 .LEHB47-.LFB1407
 3309 0141 05       		.uleb128 .LEHE47-.LEHB47
 3310 0142 00       		.uleb128 0
 3311 0143 00       		.uleb128 0
 3312 0144 DA0A     		.uleb128 .LEHB48-.LFB1407
 3313 0146 05       		.uleb128 .LEHE48-.LEHB48
 3314 0147 00       		.uleb128 0
 3315 0148 00       		.uleb128 0
 3316 0149 A20B     		.uleb128 .LEHB49-.LFB1407
 3317 014b 05       		.uleb128 .LEHE49-.LEHB49
 3318 014c 00       		.uleb128 0
 3319 014d 00       		.uleb128 0
 3320              	.LLSDACSE1407:
 3321              		.text
 3323              		.section	.text._ZN8UnitTest10CheckEqualIiiEEvRNS_11TestResultsERKT_RKT0_RKNS_11TestDetailsE,"axG",
 3324              		.p2align 4,,15
 3325              		.weak	_ZN8UnitTest10CheckEqualIiiEEvRNS_11TestResultsERKT_RKT0_RKNS_11TestDetailsE
 3327              	_ZN8UnitTest10CheckEqualIiiEEvRNS_11TestResultsERKT_RKT0_RKNS_11TestDetailsE:
 3328              	.LFB1221:
 3329              		.cfi_startproc
 3330              		.cfi_personality 0x3,__gxx_personality_v0
 3331              		.cfi_lsda 0x3,.LLSDA1221
 3332 0000 4156     		pushq	%r14
 3333              		.cfi_def_cfa_offset 16
 3334              		.cfi_offset 14, -16
 3335 0002 4155     		pushq	%r13
 3336              		.cfi_def_cfa_offset 24
 3337              		.cfi_offset 13, -24
 3338 0004 4154     		pushq	%r12
 3339              		.cfi_def_cfa_offset 32
 3340              		.cfi_offset 12, -32
 3341 0006 55       		pushq	%rbp
 3342              		.cfi_def_cfa_offset 40
 3343              		.cfi_offset 6, -40
 3344 0007 4889D5   		movq	%rdx, %rbp
 3345 000a 53       		pushq	%rbx
 3346              		.cfi_def_cfa_offset 48
 3347              		.cfi_offset 3, -48
 3348 000b 4889F3   		movq	%rsi, %rbx
 3349 000e 4881EC80 		subq	$384, %rsp
 3349      010000
 3350              		.cfi_def_cfa_offset 432
 3351 0015 8B02     		movl	(%rdx), %eax
 3352 0017 3906     		cmpl	%eax, (%rsi)
 3353 0019 0F84FF01 		je	.L410
 3353      0000
 3354 001f 4C8D6424 		leaq	112(%rsp), %r12
 3354      70
 3355 0024 4989FD   		movq	%rdi, %r13
 3356 0027 4989CE   		movq	%rcx, %r14
 3357 002a 4C89E7   		movq	%r12, %rdi
 3358 002d E8000000 		call	_ZNSt8ios_baseC2Ev
 3358      00
 3359 0032 31F6     		xorl	%esi, %esi
 3360 0034 4C89E7   		movq	%r12, %rdi
 3361 0037 48C78424 		movq	$0, 328(%rsp)
 3361      48010000 
 3361      00000000 
 3362 0043 C6842450 		movb	$0, 336(%rsp)
 3362      01000000 
 3363 004b C6842451 		movb	$0, 337(%rsp)
 3363      01000000 
 3364 0053 48C78424 		movq	$0, 344(%rsp)
 3364      58010000 
 3364      00000000 
 3365 005f 48C78424 		movq	$0, 352(%rsp)
 3365      60010000 
 3365      00000000 
 3366 006b 48C78424 		movq	$0, 360(%rsp)
 3366      68010000 
 3366      00000000 
 3367 0077 48C78424 		movq	$0, 368(%rsp)
 3367      70010000 
 3367      00000000 
 3368 0083 48C74424 		movq	$_ZTCN8UnitTest15MemoryOutStreamE0_So+24, 16(%rsp)
 3368      10000000 
 3368      00
 3369 008c 48C74424 		movq	$_ZTCN8UnitTest15MemoryOutStreamE0_So+64, 112(%rsp)
 3369      70000000 
 3369      00
 3370              	.LEHB50:
 3371 0095 E8000000 		call	_ZNSt9basic_iosIcSt11char_traitsIcEE4initEPSt15basic_streambufIcS1_E
 3371      00
 3372              	.LEHE50:
 3373 009a 488D7C24 		leaq	80(%rsp), %rdi
 3373      50
 3374 009f 48C74424 		movq	$_ZTCN8UnitTest15MemoryOutStreamE0_St19basic_ostringstreamIcSt11char_traitsIcESaIcEE+24, 16(%
 3374      10000000 
 3374      00
 3375 00a8 48C74424 		movq	$_ZTCN8UnitTest15MemoryOutStreamE0_St19basic_ostringstreamIcSt11char_traitsIcESaIcEE+64, 112(
 3375      70000000 
 3375      00
 3376 00b1 48C74424 		movq	$_ZTVSt15basic_streambufIcSt11char_traitsIcEE+16, 24(%rsp)
 3376      18000000 
 3376      00
 3377 00ba 48C74424 		movq	$0, 32(%rsp)
 3377      20000000 
 3377      00
 3378 00c3 48C74424 		movq	$0, 40(%rsp)
 3378      28000000 
 3378      00
 3379 00cc 48C74424 		movq	$0, 48(%rsp)
 3379      30000000 
 3379      00
 3380 00d5 48C74424 		movq	$0, 56(%rsp)
 3380      38000000 
 3380      00
 3381 00de 48C74424 		movq	$0, 64(%rsp)
 3381      40000000 
 3381      00
 3382 00e7 48C74424 		movq	$0, 72(%rsp)
 3382      48000000 
 3382      00
 3383 00f0 E8000000 		call	_ZNSt6localeC1Ev
 3383      00
 3384 00f5 488B4424 		movq	16(%rsp), %rax
 3384      10
 3385 00fa 488D7C24 		leaq	16(%rsp), %rdi
 3385      10
 3386 00ff 488D7424 		leaq	24(%rsp), %rsi
 3386      18
 3387 0104 48C74424 		movq	$_ZTVSt15basic_stringbufIcSt11char_traitsIcESaIcEE+16, 24(%rsp)
 3387      18000000 
 3387      00
 3388 010d C7442458 		movl	$16, 88(%rsp)
 3388      10000000 
 3389 0115 48C74424 		movq	$_ZNSs4_Rep20_S_empty_rep_storageE+24, 96(%rsp)
 3389      60000000 
 3389      00
 3390 011e 480378E8 		addq	-24(%rax), %rdi
 3391              	.LEHB51:
 3392 0122 E8000000 		call	_ZNSt9basic_iosIcSt11char_traitsIcEE4initEPSt15basic_streambufIcS1_E
 3392      00
 3393              	.LEHE51:
 3394 0127 488D7C24 		leaq	16(%rsp), %rdi
 3394      10
 3395 012c BA090000 		movl	$9, %edx
 3395      00
 3396 0131 BE000000 		movl	$.LC2, %esi
 3396      00
 3397 0136 48C74424 		movq	$_ZTVN8UnitTest15MemoryOutStreamE+24, 16(%rsp)
 3397      10000000 
 3397      00
 3398 013f 48C74424 		movq	$_ZTVN8UnitTest15MemoryOutStreamE+64, 112(%rsp)
 3398      70000000 
 3398      00
 3399 0148 48C74424 		movq	$_ZNSs4_Rep20_S_empty_rep_storageE+24, 104(%rsp)
 3399      68000000 
 3399      00
 3400 0151 8B6D00   		movl	0(%rbp), %ebp
 3401 0154 8B1B     		movl	(%rbx), %ebx
 3402              	.LEHB52:
 3403 0156 E8000000 		call	_ZSt16__ostream_insertIcSt11char_traitsIcEERSt13basic_ostreamIT_T0_ES6_PKS3_l
 3403      00
 3404 015b 488D7C24 		leaq	16(%rsp), %rdi
 3404      10
 3405 0160 89DE     		movl	%ebx, %esi
 3406 0162 E8000000 		call	_ZNSolsEi
 3406      00
 3407 0167 BA090000 		movl	$9, %edx
 3407      00
 3408 016c BE000000 		movl	$.LC6, %esi
 3408      00
 3409 0171 4889C7   		movq	%rax, %rdi
 3410 0174 4889C3   		movq	%rax, %rbx
 3411 0177 E8000000 		call	_ZSt16__ostream_insertIcSt11char_traitsIcEERSt13basic_ostreamIT_T0_ES6_PKS3_l
 3411      00
 3412 017c 89EE     		movl	%ebp, %esi
 3413 017e 4889DF   		movq	%rbx, %rdi
 3414 0181 E8000000 		call	_ZNSolsEi
 3414      00
 3415 0186 488D7C24 		leaq	16(%rsp), %rdi
 3415      10
 3416 018b E8000000 		call	_ZNK8UnitTest15MemoryOutStream7GetTextEv
 3416      00
 3417 0190 4889C2   		movq	%rax, %rdx
 3418 0193 4C89F6   		movq	%r14, %rsi
 3419 0196 4C89EF   		movq	%r13, %rdi
 3420 0199 E8000000 		call	_ZN8UnitTest11TestResults13OnTestFailureERKNS_11TestDetailsEPKc
 3420      00
 3421              	.LEHE52:
 3422 019e 488B4424 		movq	104(%rsp), %rax
 3422      68
 3423 01a3 48C74424 		movq	$_ZTVN8UnitTest15MemoryOutStreamE+24, 16(%rsp)
 3423      10000000 
 3423      00
 3424 01ac 48C74424 		movq	$_ZTVN8UnitTest15MemoryOutStreamE+64, 112(%rsp)
 3424      70000000 
 3424      00
 3425 01b5 488D78E8 		leaq	-24(%rax), %rdi
 3426 01b9 4881FF00 		cmpq	$_ZNSs4_Rep20_S_empty_rep_storageE, %rdi
 3426      000000
 3427 01c0 756C     		jne	.L433
 3428              	.L417:
 3429 01c2 488B4424 		movq	96(%rsp), %rax
 3429      60
 3430 01c7 48C74424 		movq	$_ZTCN8UnitTest15MemoryOutStreamE0_St19basic_ostringstreamIcSt11char_traitsIcESaIcEE+24, 16(%
 3430      10000000 
 3430      00
 3431 01d0 48C74424 		movq	$_ZTCN8UnitTest15MemoryOutStreamE0_St19basic_ostringstreamIcSt11char_traitsIcESaIcEE+64, 112(
 3431      70000000 
 3431      00
 3432 01d9 48C74424 		movq	$_ZTVSt15basic_stringbufIcSt11char_traitsIcESaIcEE+16, 24(%rsp)
 3432      18000000 
 3432      00
 3433 01e2 488D78E8 		leaq	-24(%rax), %rdi
 3434 01e6 4881FF00 		cmpq	$_ZNSs4_Rep20_S_empty_rep_storageE, %rdi
 3434      000000
 3435 01ed 756B     		jne	.L434
 3436              	.L422:
 3437 01ef 488D7C24 		leaq	80(%rsp), %rdi
 3437      50
 3438 01f4 48C74424 		movq	$_ZTVSt15basic_streambufIcSt11char_traitsIcEE+16, 24(%rsp)
 3438      18000000 
 3438      00
 3439 01fd E8000000 		call	_ZNSt6localeD1Ev
 3439      00
 3440 0202 488D7C24 		leaq	112(%rsp), %rdi
 3440      70
 3441 0207 48C74424 		movq	$_ZTCN8UnitTest15MemoryOutStreamE0_So+24, 16(%rsp)
 3441      10000000 
 3441      00
 3442 0210 48C74424 		movq	$_ZTVSt9basic_iosIcSt11char_traitsIcEE+16, 112(%rsp)
 3442      70000000 
 3442      00
 3443              	.LEHB53:
 3444 0219 E8000000 		call	_ZNSt8ios_baseD2Ev
 3444      00
 3445              	.LEHE53:
 3446              	.L410:
 3447 021e 4881C480 		addq	$384, %rsp
 3447      010000
 3448              		.cfi_remember_state
 3449              		.cfi_def_cfa_offset 48
 3450 0225 5B       		popq	%rbx
 3451              		.cfi_def_cfa_offset 40
 3452 0226 5D       		popq	%rbp
 3453              		.cfi_def_cfa_offset 32
 3454 0227 415C     		popq	%r12
 3455              		.cfi_def_cfa_offset 24
 3456 0229 415D     		popq	%r13
 3457              		.cfi_def_cfa_offset 16
 3458 022b 415E     		popq	%r14
 3459              		.cfi_def_cfa_offset 8
 3460 022d C3       		ret
 3461              	.L433:
 3462              		.cfi_restore_state
 3463 022e B9000000 		movl	$_ZL28__gthrw___pthread_key_createPjPFvPvE, %ecx
 3463      00
 3464 0233 488D5710 		leaq	16(%rdi), %rdx
 3465 0237 4885C9   		testq	%rcx, %rcx
 3466 023a 747D     		je	.L418
 3467 023c 83C8FF   		orl	$-1, %eax
 3468 023f F00FC102 		lock xaddl	%eax, (%rdx)
 3469              	.L419:
 3470 0243 85C0     		testl	%eax, %eax
 3471 0245 0F8F77FF 		jg	.L417
 3471      FFFF
 3472 024b 488D7424 		leaq	15(%rsp), %rsi
 3472      0F
 3473 0250 E8000000 		call	_ZNSs4_Rep10_M_destroyERKSaIcE
 3473      00
 3474 0255 E968FFFF 		jmp	.L417
 3474      FF
 3475              	.L434:
 3476 025a B9000000 		movl	$_ZL28__gthrw___pthread_key_createPjPFvPvE, %ecx
 3476      00
 3477 025f 488D5710 		leaq	16(%rdi), %rdx
 3478 0263 4885C9   		testq	%rcx, %rcx
 3479 0266 7479     		je	.L423
 3480 0268 83C8FF   		orl	$-1, %eax
 3481 026b F00FC102 		lock xaddl	%eax, (%rdx)
 3482              	.L424:
 3483 026f 85C0     		testl	%eax, %eax
 3484 0271 0F8F78FF 		jg	.L422
 3484      FFFF
 3485 0277 488D7424 		leaq	15(%rsp), %rsi
 3485      0F
 3486 027c E8000000 		call	_ZNSs4_Rep10_M_destroyERKSaIcE
 3486      00
 3487 0281 E969FFFF 		jmp	.L422
 3487      FF
 3488              	.L427:
 3489 0286 488D7C24 		leaq	16(%rsp), %rdi
 3489      10
 3490 028b 4889C3   		movq	%rax, %rbx
 3491 028e E8000000 		call	_ZN8UnitTest15MemoryOutStreamD1Ev
 3491      00
 3492 0293 4889DF   		movq	%rbx, %rdi
 3493              	.LEHB54:
 3494 0296 E8000000 		call	_Unwind_Resume
 3494      00
 3495              	.LEHE54:
 3496              	.L428:
 3497 029b 4889C3   		movq	%rax, %rbx
 3498              	.L414:
 3499 029e 488D7C24 		leaq	112(%rsp), %rdi
 3499      70
 3500 02a3 48C74424 		movq	$_ZTVSt9basic_iosIcSt11char_traitsIcEE+16, 112(%rsp)
 3500      70000000 
 3500      00
 3501 02ac E8000000 		call	_ZNSt8ios_baseD2Ev
 3501      00
 3502 02b1 4889DF   		movq	%rbx, %rdi
 3503              	.LEHB55:
 3504 02b4 E8000000 		call	_Unwind_Resume
 3504      00
 3505              	.LEHE55:
 3506              	.L418:
 3507 02b9 8B50F8   		movl	-8(%rax), %edx
 3508 02bc 8D4AFF   		leal	-1(%rdx), %ecx
 3509 02bf 8948F8   		movl	%ecx, -8(%rax)
 3510 02c2 89D0     		movl	%edx, %eax
 3511 02c4 E97AFFFF 		jmp	.L419
 3511      FF
 3512              	.L429:
 3513 02c9 488D7C24 		leaq	24(%rsp), %rdi
 3513      18
 3514 02ce 4889C3   		movq	%rax, %rbx
 3515 02d1 E8000000 		call	_ZNSt15basic_stringbufIcSt11char_traitsIcESaIcEED1Ev
 3515      00
 3516 02d6 48C74424 		movq	$_ZTCN8UnitTest15MemoryOutStreamE0_So+24, 16(%rsp)
 3516      10000000 
 3516      00
 3517 02df EBBD     		jmp	.L414
 3518              	.L423:
 3519 02e1 8B50F8   		movl	-8(%rax), %edx
 3520 02e4 8D4AFF   		leal	-1(%rdx), %ecx
 3521 02e7 8948F8   		movl	%ecx, -8(%rax)
 3522 02ea 89D0     		movl	%edx, %eax
 3523 02ec EB81     		jmp	.L424
 3524              		.cfi_endproc
 3525              	.LFE1221:
 3526              		.section	.gcc_except_table
 3527              	.LLSDA1221:
 3528 014e FF       		.byte	0xff
 3529 014f FF       		.byte	0xff
 3530 0150 01       		.byte	0x1
 3531 0151 21       		.uleb128 .LLSDACSE1221-.LLSDACSB1221
 3532              	.LLSDACSB1221:
 3533 0152 9501     		.uleb128 .LEHB50-.LFB1221
 3534 0154 05       		.uleb128 .LEHE50-.LEHB50
 3535 0155 9B05     		.uleb128 .L428-.LFB1221
 3536 0157 00       		.uleb128 0
 3537 0158 A202     		.uleb128 .LEHB51-.LFB1221
 3538 015a 05       		.uleb128 .LEHE51-.LEHB51
 3539 015b C905     		.uleb128 .L429-.LFB1221
 3540 015d 00       		.uleb128 0
 3541 015e D602     		.uleb128 .LEHB52-.LFB1221
 3542 0160 48       		.uleb128 .LEHE52-.LEHB52
 3543 0161 8605     		.uleb128 .L427-.LFB1221
 3544 0163 00       		.uleb128 0
 3545 0164 9904     		.uleb128 .LEHB53-.LFB1221
 3546 0166 05       		.uleb128 .LEHE53-.LEHB53
 3547 0167 00       		.uleb128 0
 3548 0168 00       		.uleb128 0
 3549 0169 9605     		.uleb128 .LEHB54-.LFB1221
 3550 016b 05       		.uleb128 .LEHE54-.LEHB54
 3551 016c 00       		.uleb128 0
 3552 016d 00       		.uleb128 0
 3553 016e B405     		.uleb128 .LEHB55-.LFB1221
 3554 0170 05       		.uleb128 .LEHE55-.LEHB55
 3555 0171 00       		.uleb128 0
 3556 0172 00       		.uleb128 0
 3557              	.LLSDACSE1221:
 3558              		.section	.text._ZN8UnitTest10CheckEqualIiiEEvRNS_11TestResultsERKT_RKT0_RKNS_11TestDetailsE,"axG",
 3560              		.section	.rodata.str1.1
 3561              	.LC27:
 3562 006a 66696C65 		.string	"file"
 3562      00
 3563              	.LC28:
 3564 006f 61727261 		.string	"array2DCloseSuite"
 3564      79324443 
 3564      6C6F7365 
 3564      53756974 
 3564      6500
 3565              	.LC29:
 3566 0081 61727261 		.string	"array2DCloseTest"
 3566      79324443 
 3566      6C6F7365 
 3566      54657374 
 3566      00
 3567              		.section	.rodata.str1.8
 3568 01f1 00000000 		.align 8
 3568      000000
 3569              	.LC45:
 3570 01f8 556E6861 		.string	"Unhandled exception in CHECK_EQUAL(\"array2DCloseTest\", reporter.lastFailedTest)"
 3570      6E646C65 
 3570      64206578 
 3570      63657074 
 3570      696F6E20 
 3571              		.align 8
 3572              	.LC46:
 3573 0248 556E6861 		.string	"Unhandled exception in CHECK_EQUAL(\"array2DCloseSuite\", reporter.lastFailedSuite)"
 3573      6E646C65 
 3573      64206578 
 3573      63657074 
 3573      696F6E20 
 3574 029a 00000000 		.align 8
 3574      0000
 3575              	.LC47:
 3576 02a0 556E6861 		.string	"Unhandled exception in CHECK_EQUAL(\"file\", reporter.lastFailedFile)"
 3576      6E646C65 
 3576      64206578 
 3576      63657074 
 3576      696F6E20 
 3577 02e4 00000000 		.align 8
 3578              	.LC48:
 3579 02e8 556E6861 		.string	"Unhandled exception in CHECK_EQUAL(1234, reporter.lastFailedLine)"
 3579      6E646C65 
 3579      64206578 
 3579      63657074 
 3579      696F6E20 
 3580              		.text
 3581              		.align 2
 3582 1e34 6666662E 		.p2align 4,,15
 3582      0F1F8400 
 3582      00000000 
 3584              	_ZNK12_GLOBAL__N_143TestCheckArray2DCloseFailureIncludesDetails7RunImplEv:
 3585              	.LFB1188:
 3586              		.cfi_startproc
 3587              		.cfi_personality 0x3,__gxx_personality_v0
 3588              		.cfi_lsda 0x3,.LLSDA1188
 3589 1e40 53       		pushq	%rbx
 3590              		.cfi_def_cfa_offset 16
 3591              		.cfi_offset 3, -16
 3592 1e41 4881EC10 		subq	$2320, %rsp
 3592      090000
 3593              		.cfi_def_cfa_offset 2336
 3594 1e48 488DB424 		leaq	208(%rsp), %rsi
 3594      D0000000 
 3595 1e50 488D7C24 		leaq	16(%rsp), %rdi
 3595      10
 3596 1e55 48C78424 		movq	$_ZTV17RecordingReporter+16, 208(%rsp)
 3596      D0000000 
 3596      00000000 
 3597 1e61 64488B04 		movq	%fs:40, %rax
 3597      25280000 
 3597      00
 3598 1e6a 48898424 		movq	%rax, 2312(%rsp)
 3598      08090000 
 3599 1e72 31C0     		xorl	%eax, %eax
 3600 1e74 C78424D8 		movl	$0, 216(%rsp)
 3600      00000000 
 3600      000000
 3601 1e7f C78424DC 		movl	$0, 732(%rsp)
 3601      02000000 
 3601      000000
 3602 1e8a C78424E0 		movl	$0, 992(%rsp)
 3602      03000000 
 3602      000000
 3603 1e95 C78424E4 		movl	$0, 1764(%rsp)
 3603      06000000 
 3603      000000
 3604 1ea0 C78424E8 		movl	$0x00000000, 2280(%rsp)
 3604      08000000 
 3604      000000
 3605 1eab C78424EC 		movl	$0, 2284(%rsp)
 3605      08000000 
 3605      000000
 3606 1eb6 C78424F0 		movl	$0, 2288(%rsp)
 3606      08000000 
 3606      000000
 3607 1ec1 C78424F4 		movl	$0, 2292(%rsp)
 3607      08000000 
 3607      000000
 3608 1ecc C78424F8 		movl	$0x00000000, 2296(%rsp)
 3608      08000000 
 3608      000000
 3609 1ed7 C68424DC 		movb	$0, 220(%rsp)
 3609      00000000 
 3610 1edf C68424DC 		movb	$0, 476(%rsp)
 3610      01000000 
 3611 1ee7 C68424E0 		movb	$0, 736(%rsp)
 3611      02000000 
 3612 1eef C68424E4 		movb	$0, 996(%rsp)
 3612      03000000 
 3613 1ef7 C68424E4 		movb	$0, 1252(%rsp)
 3613      04000000 
 3614 1eff C68424E4 		movb	$0, 1508(%rsp)
 3614      05000000 
 3615 1f07 C68424E8 		movb	$0, 1768(%rsp)
 3615      06000000 
 3616 1f0f C68424E8 		movb	$0, 2024(%rsp)
 3616      07000000 
 3617              	.LEHB56:
 3618 1f17 E8000000 		call	_ZN8UnitTest11TestResultsC1EPNS_12TestReporterE
 3618      00
 3619 1f1c 488D7C24 		leaq	48(%rsp), %rdi
 3619      30
 3620 1f21 41B8D204 		movl	$1234, %r8d
 3620      0000
 3621 1f27 B9000000 		movl	$.LC27, %ecx
 3621      00
 3622 1f2c BA000000 		movl	$.LC28, %edx
 3622      00
 3623 1f31 BE000000 		movl	$.LC29, %esi
 3623      00
 3624 1f36 E8000000 		call	_ZN8UnitTest11TestDetailsC1EPKcS2_S2_i
 3624      00
 3625 1f3b 4C8D4424 		leaq	48(%rsp), %r8
 3625      30
 3626 1f40 488D4C24 		leaq	80(%rsp), %rcx
 3626      50
 3627 1f45 488D9424 		leaq	160(%rsp), %rdx
 3627      A0000000 
 3628 1f4d 488D7424 		leaq	112(%rsp), %rsi
 3628      70
 3629 1f52 488D7C24 		leaq	16(%rsp), %rdi
 3629      10
 3630 1f57 C7442470 		movl	$0x3f800000, 112(%rsp)
 3630      0000803F 
 3631 1f5f C7442474 		movl	$0x3fc00000, 116(%rsp)
 3631      0000C03F 
 3632 1f67 C7442478 		movl	$0x40000000, 120(%rsp)
 3632      00000040 
 3633 1f6f C744247C 		movl	$0x40000000, 124(%rsp)
 3633      00000040 
 3634 1f77 C7842480 		movl	$0x40200000, 128(%rsp)
 3634      00000000 
 3634      002040
 3635 1f82 C7842484 		movl	$0x40400000, 132(%rsp)
 3635      00000000 
 3635      004040
 3636 1f8d C7842488 		movl	$0x40400000, 136(%rsp)
 3636      00000000 
 3636      004040
 3637 1f98 C784248C 		movl	$0x40600000, 140(%rsp)
 3637      00000000 
 3637      006040
 3638 1fa3 C7842490 		movl	$0x40800000, 144(%rsp)
 3638      00000000 
 3638      008040
 3639 1fae C78424A0 		movl	$0x3f8147ae, 160(%rsp)
 3639      000000AE 
 3639      47813F
 3640 1fb9 C78424A4 		movl	$0x3fc147ae, 164(%rsp)
 3640      000000AE 
 3640      47C13F
 3641 1fc4 C78424A8 		movl	$0x4000a3d7, 168(%rsp)
 3641      000000D7 
 3641      A30040
 3642 1fcf C78424AC 		movl	$0x4000a3d7, 172(%rsp)
 3642      000000D7 
 3642      A30040
 3643 1fda C78424B0 		movl	$0x4020a3d7, 176(%rsp)
 3643      000000D7 
 3643      A32040
 3644 1fe5 C78424B4 		movl	$0x4040a3d7, 180(%rsp)
 3644      000000D7 
 3644      A34040
 3645 1ff0 C78424B8 		movl	$0x4040a3d7, 184(%rsp)
 3645      000000D7 
 3645      A34040
 3646 1ffb C78424BC 		movl	$0x4060a3d7, 188(%rsp)
 3646      000000D7 
 3646      A36040
 3647 2006 C78424C0 		movl	$0x408051ec, 192(%rsp)
 3647      000000EC 
 3647      518040
 3648 2011 C7442450 		movl	$0x3a83126f, 80(%rsp)
 3648      6F12833A 
 3649 2019 E852F8FF 		call	_ZN8UnitTest17CheckArray2DCloseIA3_A3_fS2_fEEvRNS_11TestResultsERKT_RKT0_iiRKT1_RKNS_11TestDe
 3649      FF
 3650              	.LEHE56:
 3651              	.LEHB57:
 3652 201e E8000000 		call	_ZN8UnitTest11CurrentTest7DetailsEv
 3652      00
 3653 2023 488B30   		movq	(%rax), %rsi
 3654 2026 488D7C24 		leaq	80(%rsp), %rdi
 3654      50
 3655 202b BA1F0100 		movl	$287, %edx
 3655      00
 3656 2030 E8000000 		call	_ZN8UnitTest11TestDetailsC1ERKS0_i
 3656      00
 3657 2035 E8000000 		call	_ZN8UnitTest11CurrentTest7ResultsEv
 3657      00
 3658 203a 488D9C24 		leaq	208(%rsp), %rbx
 3658      D0000000 
 3659 2042 488B38   		movq	(%rax), %rdi
 3660 2045 488D4C24 		leaq	80(%rsp), %rcx
 3660      50
 3661 204a BE000000 		movl	$.LC29, %esi
 3661      00
 3662 204f 488D9314 		leaq	1044(%rbx), %rdx
 3662      040000
 3663 2056 E8000000 		call	_ZN8UnitTest10CheckEqualERNS_11TestResultsEPKcPcRKNS_11TestDetailsE
 3663      00
 3664              	.LEHE57:
 3665              	.L439:
 3666              	.LEHB58:
 3667 205b E8000000 		call	_ZN8UnitTest11CurrentTest7DetailsEv
 3667      00
 3668 2060 488B30   		movq	(%rax), %rsi
 3669 2063 488D7C24 		leaq	80(%rsp), %rdi
 3669      50
 3670 2068 BA200100 		movl	$288, %edx
 3670      00
 3671 206d E8000000 		call	_ZN8UnitTest11TestDetailsC1ERKS0_i
 3671      00
 3672 2072 E8000000 		call	_ZN8UnitTest11CurrentTest7ResultsEv
 3672      00
 3673 2077 488D9C24 		leaq	208(%rsp), %rbx
 3673      D0000000 
 3674 207f 488B38   		movq	(%rax), %rdi
 3675 2082 488D4C24 		leaq	80(%rsp), %rcx
 3675      50
 3676 2087 BE000000 		movl	$.LC28, %esi
 3676      00
 3677 208c 488D9314 		leaq	788(%rbx), %rdx
 3677      030000
 3678 2093 E8000000 		call	_ZN8UnitTest10CheckEqualERNS_11TestResultsEPKcPcRKNS_11TestDetailsE
 3678      00
 3679              	.LEHE58:
 3680              	.L442:
 3681              	.LEHB59:
 3682 2098 E8000000 		call	_ZN8UnitTest11CurrentTest7DetailsEv
 3682      00
 3683 209d 488B30   		movq	(%rax), %rsi
 3684 20a0 488D7C24 		leaq	80(%rsp), %rdi
 3684      50
 3685 20a5 BA210100 		movl	$289, %edx
 3685      00
 3686 20aa E8000000 		call	_ZN8UnitTest11TestDetailsC1ERKS0_i
 3686      00
 3687 20af E8000000 		call	_ZN8UnitTest11CurrentTest7ResultsEv
 3687      00
 3688 20b4 488D9C24 		leaq	208(%rsp), %rbx
 3688      D0000000 
 3689 20bc 488B38   		movq	(%rax), %rdi
 3690 20bf 488D4C24 		leaq	80(%rsp), %rcx
 3690      50
 3691 20c4 BE000000 		movl	$.LC27, %esi
 3691      00
 3692 20c9 488D9310 		leaq	528(%rbx), %rdx
 3692      020000
 3693 20d0 E8000000 		call	_ZN8UnitTest10CheckEqualERNS_11TestResultsEPKcPcRKNS_11TestDetailsE
 3693      00
 3694              	.LEHE59:
 3695              	.L445:
 3696              	.LEHB60:
 3697 20d5 E8000000 		call	_ZN8UnitTest11CurrentTest7DetailsEv
 3697      00
 3698 20da 488B30   		movq	(%rax), %rsi
 3699 20dd 488D7C24 		leaq	80(%rsp), %rdi
 3699      50
 3700 20e2 BA220100 		movl	$290, %edx
 3700      00
 3701 20e7 E8000000 		call	_ZN8UnitTest11TestDetailsC1ERKS0_i
 3701      00
 3702 20ec C70424D2 		movl	$1234, (%rsp)
 3702      040000
 3703 20f3 E8000000 		call	_ZN8UnitTest11CurrentTest7ResultsEv
 3703      00
 3704 20f8 488D9C24 		leaq	208(%rsp), %rbx
 3704      D0000000 
 3705 2100 488B38   		movq	(%rax), %rdi
 3706 2103 488D4C24 		leaq	80(%rsp), %rcx
 3706      50
 3707 2108 4889E6   		movq	%rsp, %rsi
 3708 210b 488D9310 		leaq	784(%rbx), %rdx
 3708      030000
 3709 2112 E8000000 		call	_ZN8UnitTest10CheckEqualIiiEEvRNS_11TestResultsERKT_RKT0_RKNS_11TestDetailsE
 3709      00
 3710              	.LEHE60:
 3711              	.L448:
 3712 2117 488DBC24 		leaq	208(%rsp), %rdi
 3712      D0000000 
 3713 211f 48C78424 		movq	$_ZTV17RecordingReporter+16, 208(%rsp)
 3713      D0000000 
 3713      00000000 
 3714              	.LEHB61:
 3715 212b E8000000 		call	_ZN8UnitTest12TestReporterD2Ev
 3715      00
 3716              	.LEHE61:
 3717 2130 488B8424 		movq	2312(%rsp), %rax
 3717      08090000 
 3718 2138 64483304 		xorq	%fs:40, %rax
 3718      25280000 
 3718      00
 3719 2141 7509     		jne	.L461
 3720 2143 4881C410 		addq	$2320, %rsp
 3720      090000
 3721              		.cfi_remember_state
 3722              		.cfi_def_cfa_offset 16
 3723 214a 5B       		popq	%rbx
 3724              		.cfi_def_cfa_offset 8
 3725 214b C3       		ret
 3726              	.L461:
 3727              		.cfi_restore_state
 3728 214c E8000000 		call	__stack_chk_fail
 3728      00
 3729              	.L457:
 3730 2151 4889C7   		movq	%rax, %rdi
 3731 2154 E8000000 		call	__cxa_begin_catch
 3731      00
 3732              	.LEHB62:
 3733 2159 E8000000 		call	_ZN8UnitTest11CurrentTest7DetailsEv
 3733      00
 3734 215e 488B30   		movq	(%rax), %rsi
 3735 2161 488D7C24 		leaq	80(%rsp), %rdi
 3735      50
 3736 2166 BA220100 		movl	$290, %edx
 3736      00
 3737 216b E8000000 		call	_ZN8UnitTest11TestDetailsC1ERKS0_i
 3737      00
 3738 2170 E8000000 		call	_ZN8UnitTest11CurrentTest7ResultsEv
 3738      00
 3739 2175 488B38   		movq	(%rax), %rdi
 3740 2178 488D7424 		leaq	80(%rsp), %rsi
 3740      50
 3741 217d BA000000 		movl	$.LC48, %edx
 3741      00
 3742 2182 E8000000 		call	_ZN8UnitTest11TestResults13OnTestFailureERKNS_11TestDetailsEPKc
 3742      00
 3743              	.LEHE62:
 3744              	.LEHB63:
 3745 2187 E8000000 		call	__cxa_end_catch
 3745      00
 3746              	.LEHE63:
 3747 218c EB89     		jmp	.L448
 3748              	.L455:
 3749 218e 4889C7   		movq	%rax, %rdi
 3750              		.p2align 4,,5
 3751 2191 E8000000 		call	__cxa_begin_catch
 3751      00
 3752              		.p2align 4,,5
 3753              	.LEHB64:
 3754 2196 E8000000 		call	_ZN8UnitTest11CurrentTest7DetailsEv
 3754      00
 3755 219b 488B30   		movq	(%rax), %rsi
 3756 219e 488D7C24 		leaq	80(%rsp), %rdi
 3756      50
 3757 21a3 BA210100 		movl	$289, %edx
 3757      00
 3758 21a8 E8000000 		call	_ZN8UnitTest11TestDetailsC1ERKS0_i
 3758      00
 3759 21ad E8000000 		call	_ZN8UnitTest11CurrentTest7ResultsEv
 3759      00
 3760 21b2 488B38   		movq	(%rax), %rdi
 3761 21b5 488D7424 		leaq	80(%rsp), %rsi
 3761      50
 3762 21ba BA000000 		movl	$.LC47, %edx
 3762      00
 3763 21bf E8000000 		call	_ZN8UnitTest11TestResults13OnTestFailureERKNS_11TestDetailsEPKc
 3763      00
 3764              	.LEHE64:
 3765              	.LEHB65:
 3766 21c4 E8000000 		call	__cxa_end_catch
 3766      00
 3767              	.LEHE65:
 3768 21c9 E907FFFF 		jmp	.L445
 3768      FF
 3769              	.L451:
 3770 21ce 4889C7   		movq	%rax, %rdi
 3771              		.p2align 4,,5
 3772 21d1 E8000000 		call	__cxa_begin_catch
 3772      00
 3773              		.p2align 4,,5
 3774              	.LEHB66:
 3775 21d6 E8000000 		call	_ZN8UnitTest11CurrentTest7DetailsEv
 3775      00
 3776 21db 488B30   		movq	(%rax), %rsi
 3777 21de 488D7C24 		leaq	80(%rsp), %rdi
 3777      50
 3778 21e3 BA1F0100 		movl	$287, %edx
 3778      00
 3779 21e8 E8000000 		call	_ZN8UnitTest11TestDetailsC1ERKS0_i
 3779      00
 3780 21ed E8000000 		call	_ZN8UnitTest11CurrentTest7ResultsEv
 3780      00
 3781 21f2 488B38   		movq	(%rax), %rdi
 3782 21f5 488D7424 		leaq	80(%rsp), %rsi
 3782      50
 3783 21fa BA000000 		movl	$.LC45, %edx
 3783      00
 3784 21ff E8000000 		call	_ZN8UnitTest11TestResults13OnTestFailureERKNS_11TestDetailsEPKc
 3784      00
 3785              	.LEHE66:
 3786              	.LEHB67:
 3787 2204 E8000000 		call	__cxa_end_catch
 3787      00
 3788              	.LEHE67:
 3789 2209 E94DFEFF 		jmp	.L439
 3789      FF
 3790              	.L453:
 3791 220e 4889C7   		movq	%rax, %rdi
 3792              		.p2align 4,,5
 3793 2211 E8000000 		call	__cxa_begin_catch
 3793      00
 3794              		.p2align 4,,5
 3795              	.LEHB68:
 3796 2216 E8000000 		call	_ZN8UnitTest11CurrentTest7DetailsEv
 3796      00
 3797 221b 488B30   		movq	(%rax), %rsi
 3798 221e 488D7C24 		leaq	80(%rsp), %rdi
 3798      50
 3799 2223 BA200100 		movl	$288, %edx
 3799      00
 3800 2228 E8000000 		call	_ZN8UnitTest11TestDetailsC1ERKS0_i
 3800      00
 3801 222d E8000000 		call	_ZN8UnitTest11CurrentTest7ResultsEv
 3801      00
 3802 2232 488B38   		movq	(%rax), %rdi
 3803 2235 488D7424 		leaq	80(%rsp), %rsi
 3803      50
 3804 223a BA000000 		movl	$.LC46, %edx
 3804      00
 3805 223f E8000000 		call	_ZN8UnitTest11TestResults13OnTestFailureERKNS_11TestDetailsEPKc
 3805      00
 3806              	.LEHE68:
 3807              	.LEHB69:
 3808 2244 E8000000 		call	__cxa_end_catch
 3808      00
 3809              	.LEHE69:
 3810 2249 E94AFEFF 		jmp	.L442
 3810      FF
 3811              	.L450:
 3812 224e 4889C3   		movq	%rax, %rbx
 3813              	.L437:
 3814 2251 488DBC24 		leaq	208(%rsp), %rdi
 3814      D0000000 
 3815 2259 48C78424 		movq	$_ZTV17RecordingReporter+16, 208(%rsp)
 3815      D0000000 
 3815      00000000 
 3816 2265 E8000000 		call	_ZN8UnitTest12TestReporterD2Ev
 3816      00
 3817 226a 4889DF   		movq	%rbx, %rdi
 3818              	.LEHB70:
 3819 226d E8000000 		call	_Unwind_Resume
 3819      00
 3820              	.LEHE70:
 3821              	.L458:
 3822 2272 4889C3   		movq	%rax, %rbx
 3823 2275 E8000000 		call	__cxa_end_catch
 3823      00
 3824 227a EBD5     		jmp	.L437
 3825              	.L452:
 3826 227c 4889C3   		movq	%rax, %rbx
 3827 227f E8000000 		call	__cxa_end_catch
 3827      00
 3828              		.p2align 4,,5
 3829 2284 EBCB     		jmp	.L437
 3830              	.L456:
 3831 2286 4889C3   		movq	%rax, %rbx
 3832 2289 E8000000 		call	__cxa_end_catch
 3832      00
 3833 228e 6690     		.p2align 4,,5
 3834 2290 EBBF     		jmp	.L437
 3835              	.L454:
 3836 2292 4889C3   		movq	%rax, %rbx
 3837 2295 E8000000 		call	__cxa_end_catch
 3837      00
 3838              		.p2align 4,,5
 3839 229a EBB5     		jmp	.L437
 3840              		.cfi_endproc
 3841              	.LFE1188:
 3842              		.section	.gcc_except_table
 3843 0173 00       		.align 4
 3844              	.LLSDA1188:
 3845 0174 FF       		.byte	0xff
 3846 0175 03       		.byte	0x3
 3847 0176 61       		.uleb128 .LLSDATT1188-.LLSDATTD1188
 3848              	.LLSDATTD1188:
 3849 0177 01       		.byte	0x1
 3850 0178 59       		.uleb128 .LLSDACSE1188-.LLSDACSB1188
 3851              	.LLSDACSB1188:
 3852 0179 D701     		.uleb128 .LEHB56-.LFB1188
 3853 017b 8702     		.uleb128 .LEHE56-.LEHB56
 3854 017d 8E08     		.uleb128 .L450-.LFB1188
 3855 017f 00       		.uleb128 0
 3856 0180 DE03     		.uleb128 .LEHB57-.LFB1188
 3857 0182 3D       		.uleb128 .LEHE57-.LEHB57
 3858 0183 8E07     		.uleb128 .L451-.LFB1188
 3859 0185 01       		.uleb128 0x1
 3860 0186 9B04     		.uleb128 .LEHB58-.LFB1188
 3861 0188 3D       		.uleb128 .LEHE58-.LEHB58
 3862 0189 CE07     		.uleb128 .L453-.LFB1188
 3863 018b 01       		.uleb128 0x1
 3864 018c D804     		.uleb128 .LEHB59-.LFB1188
 3865 018e 3D       		.uleb128 .LEHE59-.LEHB59
 3866 018f CE06     		.uleb128 .L455-.LFB1188
 3867 0191 01       		.uleb128 0x1
 3868 0192 9505     		.uleb128 .LEHB60-.LFB1188
 3869 0194 42       		.uleb128 .LEHE60-.LEHB60
 3870 0195 9106     		.uleb128 .L457-.LFB1188
 3871 0197 01       		.uleb128 0x1
 3872 0198 EB05     		.uleb128 .LEHB61-.LFB1188
 3873 019a 05       		.uleb128 .LEHE61-.LEHB61
 3874 019b 00       		.uleb128 0
 3875 019c 00       		.uleb128 0
 3876 019d 9906     		.uleb128 .LEHB62-.LFB1188
 3877 019f 2E       		.uleb128 .LEHE62-.LEHB62
 3878 01a0 B208     		.uleb128 .L458-.LFB1188
 3879 01a2 00       		.uleb128 0
 3880 01a3 C706     		.uleb128 .LEHB63-.LFB1188
 3881 01a5 05       		.uleb128 .LEHE63-.LEHB63
 3882 01a6 8E08     		.uleb128 .L450-.LFB1188
 3883 01a8 00       		.uleb128 0
 3884 01a9 D606     		.uleb128 .LEHB64-.LFB1188
 3885 01ab 2E       		.uleb128 .LEHE64-.LEHB64
 3886 01ac C608     		.uleb128 .L456-.LFB1188
 3887 01ae 00       		.uleb128 0
 3888 01af 8407     		.uleb128 .LEHB65-.LFB1188
 3889 01b1 05       		.uleb128 .LEHE65-.LEHB65
 3890 01b2 8E08     		.uleb128 .L450-.LFB1188
 3891 01b4 00       		.uleb128 0
 3892 01b5 9607     		.uleb128 .LEHB66-.LFB1188
 3893 01b7 2E       		.uleb128 .LEHE66-.LEHB66
 3894 01b8 BC08     		.uleb128 .L452-.LFB1188
 3895 01ba 00       		.uleb128 0
 3896 01bb C407     		.uleb128 .LEHB67-.LFB1188
 3897 01bd 05       		.uleb128 .LEHE67-.LEHB67
 3898 01be 8E08     		.uleb128 .L450-.LFB1188
 3899 01c0 00       		.uleb128 0
 3900 01c1 D607     		.uleb128 .LEHB68-.LFB1188
 3901 01c3 2E       		.uleb128 .LEHE68-.LEHB68
 3902 01c4 D208     		.uleb128 .L454-.LFB1188
 3903 01c6 00       		.uleb128 0
 3904 01c7 8408     		.uleb128 .LEHB69-.LFB1188
 3905 01c9 05       		.uleb128 .LEHE69-.LEHB69
 3906 01ca 8E08     		.uleb128 .L450-.LFB1188
 3907 01cc 00       		.uleb128 0
 3908 01cd AD08     		.uleb128 .LEHB70-.LFB1188
 3909 01cf 05       		.uleb128 .LEHE70-.LEHB70
 3910 01d0 00       		.uleb128 0
 3911 01d1 00       		.uleb128 0
 3912              	.LLSDACSE1188:
 3913 01d2 01       		.byte	0x1
 3914 01d3 00       		.byte	0
 3915              		.align 4
 3916 01d4 00000000 		.long	0
 3917              	
 3918              	.LLSDATT1188:
 3919              		.text
 3921              		.section	.rodata.str1.8
 3922 032a 00000000 		.align 8
 3922      0000
 3923              	.LC49:
 3924 0330 556E6861 		.string	"Unhandled exception in CHECK_EQUAL(1, results.GetFailureCount())"
 3924      6E646C65 
 3924      64206578 
 3924      63657074 
 3924      696F6E20 
 3925              		.text
 3926              		.align 2
 3927 229c 0F1F4000 		.p2align 4,,15
 3929              	_ZNK12_GLOBAL__N_126TestCheckArray2DCloseFalse7RunImplEv:
 3930              	.LFB1180:
 3931              		.cfi_startproc
 3932              		.cfi_personality 0x3,__gxx_personality_v0
 3933              		.cfi_lsda 0x3,.LLSDA1180
 3934 22a0 53       		pushq	%rbx
 3935              		.cfi_def_cfa_offset 16
 3936              		.cfi_offset 3, -16
 3937 22a1 31F6     		xorl	%esi, %esi
 3938 22a3 4881ECC0 		subq	$192, %rsp
 3938      000000
 3939              		.cfi_def_cfa_offset 208
 3940 22aa 488D7C24 		leaq	32(%rsp), %rdi
 3940      20
 3941              	.LEHB71:
 3942 22af E8000000 		call	_ZN8UnitTest11TestResultsC1EPNS_12TestReporterE
 3942      00
 3943 22b4 B9000000 		movl	$.LC1, %ecx
 3943      00
 3944 22b9 488D7C24 		leaq	64(%rsp), %rdi
 3944      40
 3945 22be 4531C0   		xorl	%r8d, %r8d
 3946 22c1 4889CA   		movq	%rcx, %rdx
 3947 22c4 4889CE   		movq	%rcx, %rsi
 3948 22c7 C7442460 		movl	$0x3f800000, 96(%rsp)
 3948      0000803F 
 3949 22cf C7442464 		movl	$0x3fc00000, 100(%rsp)
 3949      0000C03F 
 3950 22d7 C7442468 		movl	$0x40000000, 104(%rsp)
 3950      00000040 
 3951 22df C744246C 		movl	$0x40000000, 108(%rsp)
 3951      00000040 
 3952 22e7 C7442470 		movl	$0x40200000, 112(%rsp)
 3952      00002040 
 3953 22ef C7442474 		movl	$0x40400000, 116(%rsp)
 3953      00004040 
 3954 22f7 C7442478 		movl	$0x40400000, 120(%rsp)
 3954      00004040 
 3955 22ff C744247C 		movl	$0x40600000, 124(%rsp)
 3955      00006040 
 3956 2307 C7842480 		movl	$0x40800000, 128(%rsp)
 3956      00000000 
 3956      008040
 3957 2312 C7842490 		movl	$0x3f8147ae, 144(%rsp)
 3957      000000AE 
 3957      47813F
 3958 231d C7842494 		movl	$0x3fc147ae, 148(%rsp)
 3958      000000AE 
 3958      47C13F
 3959 2328 C7842498 		movl	$0x4000a3d7, 152(%rsp)
 3959      000000D7 
 3959      A30040
 3960 2333 C784249C 		movl	$0x4000a3d7, 156(%rsp)
 3960      000000D7 
 3960      A30040
 3961 233e C78424A0 		movl	$0x4020a3d7, 160(%rsp)
 3961      000000D7 
 3961      A32040
 3962 2349 C78424A4 		movl	$0x4040a3d7, 164(%rsp)
 3962      000000D7 
 3962      A34040
 3963 2354 C78424A8 		movl	$0x4040a3d7, 168(%rsp)
 3963      000000D7 
 3963      A34040
 3964 235f C78424AC 		movl	$0x4060a3d7, 172(%rsp)
 3964      000000D7 
 3964      A36040
 3965 236a C78424B0 		movl	$0x408051ec, 176(%rsp)
 3965      000000EC 
 3965      518040
 3966 2375 E8000000 		call	_ZN8UnitTest11TestDetailsC1EPKcS2_S2_i
 3966      00
 3967 237a 4C8D4424 		leaq	64(%rsp), %r8
 3967      40
 3968 237f 488D4C24 		leaq	16(%rsp), %rcx
 3968      10
 3969 2384 488D9424 		leaq	144(%rsp), %rdx
 3969      90000000 
 3970 238c 488D7424 		leaq	96(%rsp), %rsi
 3970      60
 3971 2391 488D7C24 		leaq	32(%rsp), %rdi
 3971      20
 3972 2396 C7442410 		movl	$0x3a83126f, 16(%rsp)
 3972      6F12833A 
 3973 239e E8CDF4FF 		call	_ZN8UnitTest17CheckArray2DCloseIA3_A3_fS2_fEEvRNS_11TestResultsERKT_RKT0_iiRKT1_RKNS_11TestDe
 3973      FF
 3974              	.LEHE71:
 3975              	.LEHB72:
 3976 23a3 E8000000 		call	_ZN8UnitTest11CurrentTest7DetailsEv
 3976      00
 3977 23a8 488B30   		movq	(%rax), %rsi
 3978 23ab 488D7C24 		leaq	64(%rsp), %rdi
 3978      40
 3979 23b0 BA090100 		movl	$265, %edx
 3979      00
 3980 23b5 E8000000 		call	_ZN8UnitTest11TestDetailsC1ERKS0_i
 3980      00
 3981 23ba 488D7C24 		leaq	32(%rsp), %rdi
 3981      20
 3982 23bf E8000000 		call	_ZNK8UnitTest11TestResults15GetFailureCountEv
 3982      00
 3983 23c4 89442410 		movl	%eax, 16(%rsp)
 3984 23c8 C7042401 		movl	$1, (%rsp)
 3984      000000
 3985 23cf E8000000 		call	_ZN8UnitTest11CurrentTest7ResultsEv
 3985      00
 3986 23d4 488B38   		movq	(%rax), %rdi
 3987 23d7 488D4C24 		leaq	64(%rsp), %rcx
 3987      40
 3988 23dc 488D5424 		leaq	16(%rsp), %rdx
 3988      10
 3989 23e1 4889E6   		movq	%rsp, %rsi
 3990 23e4 E8000000 		call	_ZN8UnitTest10CheckEqualIiiEEvRNS_11TestResultsERKT_RKT0_RKNS_11TestDetailsE
 3990      00
 3991              	.LEHE72:
 3992              	.L462:
 3993 23e9 4881C4C0 		addq	$192, %rsp
 3993      000000
 3994              		.cfi_remember_state
 3995              		.cfi_def_cfa_offset 16
 3996 23f0 5B       		popq	%rbx
 3997              		.cfi_def_cfa_offset 8
 3998 23f1 C3       		ret
 3999              	.L466:
 4000              		.cfi_restore_state
 4001 23f2 4889C7   		movq	%rax, %rdi
 4002 23f5 E8000000 		call	__cxa_begin_catch
 4002      00
 4003              	.LEHB73:
 4004 23fa E8000000 		call	_ZN8UnitTest11CurrentTest7DetailsEv
 4004      00
 4005 23ff 488B30   		movq	(%rax), %rsi
 4006 2402 488D7C24 		leaq	64(%rsp), %rdi
 4006      40
 4007 2407 BA090100 		movl	$265, %edx
 4007      00
 4008 240c E8000000 		call	_ZN8UnitTest11TestDetailsC1ERKS0_i
 4008      00
 4009 2411 E8000000 		call	_ZN8UnitTest11CurrentTest7ResultsEv
 4009      00
 4010 2416 488B38   		movq	(%rax), %rdi
 4011 2419 488D7424 		leaq	64(%rsp), %rsi
 4011      40
 4012 241e BA000000 		movl	$.LC49, %edx
 4012      00
 4013 2423 E8000000 		call	_ZN8UnitTest11TestResults13OnTestFailureERKNS_11TestDetailsEPKc
 4013      00
 4014              	.LEHE73:
 4015              	.LEHB74:
 4016 2428 E8000000 		call	__cxa_end_catch
 4016      00
 4017              	.LEHE74:
 4018 242d EBBA     		jmp	.L462
 4019              	.L467:
 4020 242f 4889C3   		movq	%rax, %rbx
 4021              		.p2align 4,,5
 4022 2432 E8000000 		call	__cxa_end_catch
 4022      00
 4023 2437 4889DF   		movq	%rbx, %rdi
 4024              	.LEHB75:
 4025 243a E8000000 		call	_Unwind_Resume
 4025      00
 4026              	.LEHE75:
 4027              		.cfi_endproc
 4028              	.LFE1180:
 4029              		.section	.gcc_except_table
 4030              		.align 4
 4031              	.LLSDA1180:
 4032 01d8 FF       		.byte	0xff
 4033 01d9 03       		.byte	0x3
 4034 01da 25       		.uleb128 .LLSDATT1180-.LLSDATTD1180
 4035              	.LLSDATTD1180:
 4036 01db 01       		.byte	0x1
 4037 01dc 1B       		.uleb128 .LLSDACSE1180-.LLSDACSB1180
 4038              	.LLSDACSB1180:
 4039 01dd 0F       		.uleb128 .LEHB71-.LFB1180
 4040 01de F401     		.uleb128 .LEHE71-.LEHB71
 4041 01e0 00       		.uleb128 0
 4042 01e1 00       		.uleb128 0
 4043 01e2 8302     		.uleb128 .LEHB72-.LFB1180
 4044 01e4 46       		.uleb128 .LEHE72-.LEHB72
 4045 01e5 D202     		.uleb128 .L466-.LFB1180
 4046 01e7 01       		.uleb128 0x1
 4047 01e8 DA02     		.uleb128 .LEHB73-.LFB1180
 4048 01ea 2E       		.uleb128 .LEHE73-.LEHB73
 4049 01eb 8F03     		.uleb128 .L467-.LFB1180
 4050 01ed 00       		.uleb128 0
 4051 01ee 8803     		.uleb128 .LEHB74-.LFB1180
 4052 01f0 05       		.uleb128 .LEHE74-.LEHB74
 4053 01f1 00       		.uleb128 0
 4054 01f2 00       		.uleb128 0
 4055 01f3 9A03     		.uleb128 .LEHB75-.LFB1180
 4056 01f5 05       		.uleb128 .LEHE75-.LEHB75
 4057 01f6 00       		.uleb128 0
 4058 01f7 00       		.uleb128 0
 4059              	.LLSDACSE1180:
 4060 01f8 01       		.byte	0x1
 4061 01f9 00       		.byte	0
 4062 01fa 0000     		.align 4
 4063 01fc 00000000 		.long	0
 4064              	
 4065              	.LLSDATT1180:
 4066              		.text
 4068              		.section	.rodata.str1.8
 4069 0371 00000000 		.align 8
 4069      000000
 4070              	.LC51:
 4071 0378 556E6861 		.string	"Unhandled exception in CHECK_EQUAL(0, results.GetFailureCount())"
 4071      6E646C65 
 4071      64206578 
 4071      63657074 
 4071      696F6E20 
 4072              		.text
 4073 243f 90       		.align 2
 4074              		.p2align 4,,15
 4076              	_ZNK12_GLOBAL__N_125TestCheckArray2DCloseTrue7RunImplEv:
 4077              	.LFB1176:
 4078              		.cfi_startproc
 4079              		.cfi_personality 0x3,__gxx_personality_v0
 4080              		.cfi_lsda 0x3,.LLSDA1176
 4081 2440 53       		pushq	%rbx
 4082              		.cfi_def_cfa_offset 16
 4083              		.cfi_offset 3, -16
 4084 2441 31F6     		xorl	%esi, %esi
 4085 2443 4881ECC0 		subq	$192, %rsp
 4085      000000
 4086              		.cfi_def_cfa_offset 208
 4087 244a 488D7C24 		leaq	32(%rsp), %rdi
 4087      20
 4088              	.LEHB76:
 4089 244f E8000000 		call	_ZN8UnitTest11TestResultsC1EPNS_12TestReporterE
 4089      00
 4090 2454 B9000000 		movl	$.LC1, %ecx
 4090      00
 4091 2459 488D7C24 		leaq	64(%rsp), %rdi
 4091      40
 4092 245e 4531C0   		xorl	%r8d, %r8d
 4093 2461 4889CA   		movq	%rcx, %rdx
 4094 2464 4889CE   		movq	%rcx, %rsi
 4095 2467 C7442460 		movl	$0x3f800000, 96(%rsp)
 4095      0000803F 
 4096 246f C7442464 		movl	$0x3fc00000, 100(%rsp)
 4096      0000C03F 
 4097 2477 C7442468 		movl	$0x40000000, 104(%rsp)
 4097      00000040 
 4098 247f C744246C 		movl	$0x40000000, 108(%rsp)
 4098      00000040 
 4099 2487 C7442470 		movl	$0x40200000, 112(%rsp)
 4099      00002040 
 4100 248f C7442474 		movl	$0x40400000, 116(%rsp)
 4100      00004040 
 4101 2497 C7442478 		movl	$0x40400000, 120(%rsp)
 4101      00004040 
 4102 249f C744247C 		movl	$0x40600000, 124(%rsp)
 4102      00006040 
 4103 24a7 C7842480 		movl	$0x40800000, 128(%rsp)
 4103      00000000 
 4103      008040
 4104 24b2 C7842490 		movl	$0x3f8147ae, 144(%rsp)
 4104      000000AE 
 4104      47813F
 4105 24bd C7842494 		movl	$0x3fc147ae, 148(%rsp)
 4105      000000AE 
 4105      47C13F
 4106 24c8 C7842498 		movl	$0x4000a3d7, 152(%rsp)
 4106      000000D7 
 4106      A30040
 4107 24d3 C784249C 		movl	$0x4000a3d7, 156(%rsp)
 4107      000000D7 
 4107      A30040
 4108 24de C78424A0 		movl	$0x4020a3d7, 160(%rsp)
 4108      000000D7 
 4108      A32040
 4109 24e9 C78424A4 		movl	$0x4040a3d7, 164(%rsp)
 4109      000000D7 
 4109      A34040
 4110 24f4 C78424A8 		movl	$0x4040a3d7, 168(%rsp)
 4110      000000D7 
 4110      A34040
 4111 24ff C78424AC 		movl	$0x4060a3d7, 172(%rsp)
 4111      000000D7 
 4111      A36040
 4112 250a C78424B0 		movl	$0x408051ec, 176(%rsp)
 4112      000000EC 
 4112      518040
 4113 2515 E8000000 		call	_ZN8UnitTest11TestDetailsC1EPKcS2_S2_i
 4113      00
 4114 251a 4C8D4424 		leaq	64(%rsp), %r8
 4114      40
 4115 251f 488D4C24 		leaq	16(%rsp), %rcx
 4115      10
 4116 2524 488D9424 		leaq	144(%rsp), %rdx
 4116      90000000 
 4117 252c 488D7424 		leaq	96(%rsp), %rsi
 4117      60
 4118 2531 488D7C24 		leaq	32(%rsp), %rdi
 4118      20
 4119 2536 C7442410 		movl	$0x3ca3d70a, 16(%rsp)
 4119      0AD7A33C 
 4120 253e E82DF3FF 		call	_ZN8UnitTest17CheckArray2DCloseIA3_A3_fS2_fEEvRNS_11TestResultsERKT_RKT0_iiRKT1_RKNS_11TestDe
 4120      FF
 4121              	.LEHE76:
 4122              	.LEHB77:
 4123 2543 E8000000 		call	_ZN8UnitTest11CurrentTest7DetailsEv
 4123      00
 4124 2548 488B30   		movq	(%rax), %rsi
 4125 254b 488D7C24 		leaq	64(%rsp), %rdi
 4125      40
 4126 2550 BAFB0000 		movl	$251, %edx
 4126      00
 4127 2555 E8000000 		call	_ZN8UnitTest11TestDetailsC1ERKS0_i
 4127      00
 4128 255a 488D7C24 		leaq	32(%rsp), %rdi
 4128      20
 4129 255f E8000000 		call	_ZNK8UnitTest11TestResults15GetFailureCountEv
 4129      00
 4130 2564 89442410 		movl	%eax, 16(%rsp)
 4131 2568 C7042400 		movl	$0, (%rsp)
 4131      000000
 4132 256f E8000000 		call	_ZN8UnitTest11CurrentTest7ResultsEv
 4132      00
 4133 2574 488B38   		movq	(%rax), %rdi
 4134 2577 488D4C24 		leaq	64(%rsp), %rcx
 4134      40
 4135 257c 488D5424 		leaq	16(%rsp), %rdx
 4135      10
 4136 2581 4889E6   		movq	%rsp, %rsi
 4137 2584 E8000000 		call	_ZN8UnitTest10CheckEqualIiiEEvRNS_11TestResultsERKT_RKT0_RKNS_11TestDetailsE
 4137      00
 4138              	.LEHE77:
 4139              	.L469:
 4140 2589 4881C4C0 		addq	$192, %rsp
 4140      000000
 4141              		.cfi_remember_state
 4142              		.cfi_def_cfa_offset 16
 4143 2590 5B       		popq	%rbx
 4144              		.cfi_def_cfa_offset 8
 4145 2591 C3       		ret
 4146              	.L473:
 4147              		.cfi_restore_state
 4148 2592 4889C7   		movq	%rax, %rdi
 4149 2595 E8000000 		call	__cxa_begin_catch
 4149      00
 4150              	.LEHB78:
 4151 259a E8000000 		call	_ZN8UnitTest11CurrentTest7DetailsEv
 4151      00
 4152 259f 488B30   		movq	(%rax), %rsi
 4153 25a2 488D7C24 		leaq	64(%rsp), %rdi
 4153      40
 4154 25a7 BAFB0000 		movl	$251, %edx
 4154      00
 4155 25ac E8000000 		call	_ZN8UnitTest11TestDetailsC1ERKS0_i
 4155      00
 4156 25b1 E8000000 		call	_ZN8UnitTest11CurrentTest7ResultsEv
 4156      00
 4157 25b6 488B38   		movq	(%rax), %rdi
 4158 25b9 488D7424 		leaq	64(%rsp), %rsi
 4158      40
 4159 25be BA000000 		movl	$.LC51, %edx
 4159      00
 4160 25c3 E8000000 		call	_ZN8UnitTest11TestResults13OnTestFailureERKNS_11TestDetailsEPKc
 4160      00
 4161              	.LEHE78:
 4162              	.LEHB79:
 4163 25c8 E8000000 		call	__cxa_end_catch
 4163      00
 4164              	.LEHE79:
 4165 25cd EBBA     		jmp	.L469
 4166              	.L474:
 4167 25cf 4889C3   		movq	%rax, %rbx
 4168              		.p2align 4,,5
 4169 25d2 E8000000 		call	__cxa_end_catch
 4169      00
 4170 25d7 4889DF   		movq	%rbx, %rdi
 4171              	.LEHB80:
 4172 25da E8000000 		call	_Unwind_Resume
 4172      00
 4173              	.LEHE80:
 4174              		.cfi_endproc
 4175              	.LFE1176:
 4176              		.section	.gcc_except_table
 4177              		.align 4
 4178              	.LLSDA1176:
 4179 0200 FF       		.byte	0xff
 4180 0201 03       		.byte	0x3
 4181 0202 25       		.uleb128 .LLSDATT1176-.LLSDATTD1176
 4182              	.LLSDATTD1176:
 4183 0203 01       		.byte	0x1
 4184 0204 1B       		.uleb128 .LLSDACSE1176-.LLSDACSB1176
 4185              	.LLSDACSB1176:
 4186 0205 0F       		.uleb128 .LEHB76-.LFB1176
 4187 0206 F401     		.uleb128 .LEHE76-.LEHB76
 4188 0208 00       		.uleb128 0
 4189 0209 00       		.uleb128 0
 4190 020a 8302     		.uleb128 .LEHB77-.LFB1176
 4191 020c 46       		.uleb128 .LEHE77-.LEHB77
 4192 020d D202     		.uleb128 .L473-.LFB1176
 4193 020f 01       		.uleb128 0x1
 4194 0210 DA02     		.uleb128 .LEHB78-.LFB1176
 4195 0212 2E       		.uleb128 .LEHE78-.LEHB78
 4196 0213 8F03     		.uleb128 .L474-.LFB1176
 4197 0215 00       		.uleb128 0
 4198 0216 8803     		.uleb128 .LEHB79-.LFB1176
 4199 0218 05       		.uleb128 .LEHE79-.LEHB79
 4200 0219 00       		.uleb128 0
 4201 021a 00       		.uleb128 0
 4202 021b 9A03     		.uleb128 .LEHB80-.LFB1176
 4203 021d 05       		.uleb128 .LEHE80-.LEHB80
 4204 021e 00       		.uleb128 0
 4205 021f 00       		.uleb128 0
 4206              	.LLSDACSE1176:
 4207 0220 01       		.byte	0x1
 4208 0221 00       		.byte	0
 4209 0222 0000     		.align 4
 4210 0224 00000000 		.long	0
 4211              	
 4212              	.LLSDATT1176:
 4213              		.text
 4215              		.section	.rodata.str1.1
 4216              	.LC52:
 4217 0092 66696C65 		.string	"file.h"
 4217      2E6800
 4218              	.LC53:
 4219 0099 6D797375 		.string	"mysuite"
 4219      69746500 
 4220              	.LC54:
 4221 00a1 6D797465 		.string	"mytest"
 4221      737400
 4222              		.section	.rodata.str1.8
 4223 03b9 00000000 		.align 8
 4223      000000
 4224              	.LC55:
 4225 03c0 556E6861 		.string	"Unhandled exception in CHECK_EQUAL(\"mytest\", reporter.lastFailedTest)"
 4225      6E646C65 
 4225      64206578 
 4225      63657074 
 4225      696F6E20 
 4226 0406 0000     		.align 8
 4227              	.LC56:
 4228 0408 556E6861 		.string	"Unhandled exception in CHECK_EQUAL(\"mysuite\", reporter.lastFailedSuite)"
 4228      6E646C65 
 4228      64206578 
 4228      63657074 
 4228      696F6E20 
 4229              		.align 8
 4230              	.LC57:
 4231 0450 556E6861 		.string	"Unhandled exception in CHECK_EQUAL(\"file.h\", reporter.lastFailedFile)"
 4231      6E646C65 
 4231      64206578 
 4231      63657074 
 4231      696F6E20 
 4232 0496 0000     		.align 8
 4233              	.LC58:
 4234 0498 556E6861 		.string	"Unhandled exception in CHECK_EQUAL(101, reporter.lastFailedLine)"
 4234      6E646C65 
 4234      64206578 
 4234      63657074 
 4234      696F6E20 
 4235              		.text
 4236 25df 90       		.align 2
 4237              		.p2align 4,,15
 4239              	_ZNK12_GLOBAL__N_136TestCheckEqualFailureIncludesDetails7RunImplEv:
 4240              	.LFB1120:
 4241              		.cfi_startproc
 4242              		.cfi_personality 0x3,__gxx_personality_v0
 4243              		.cfi_lsda 0x3,.LLSDA1120
 4244 25e0 53       		pushq	%rbx
 4245              		.cfi_def_cfa_offset 16
 4246              		.cfi_offset 3, -16
 4247 25e1 4881ECB0 		subq	$2224, %rsp
 4247      080000
 4248              		.cfi_def_cfa_offset 2240
 4249 25e8 488D7424 		leaq	112(%rsp), %rsi
 4249      70
 4250 25ed 488D7C24 		leaq	16(%rsp), %rdi
 4250      10
 4251 25f2 48C74424 		movq	$_ZTV17RecordingReporter+16, 112(%rsp)
 4251      70000000 
 4251      00
 4252 25fb 64488B04 		movq	%fs:40, %rax
 4252      25280000 
 4252      00
 4253 2604 48898424 		movq	%rax, 2216(%rsp)
 4253      A8080000 
 4254 260c 31C0     		xorl	%eax, %eax
 4255 260e C7442478 		movl	$0, 120(%rsp)
 4255      00000000 
 4256 2616 C784247C 		movl	$0, 636(%rsp)
 4256      02000000 
 4256      000000
 4257 2621 C7842480 		movl	$0, 896(%rsp)
 4257      03000000 
 4257      000000
 4258 262c C7842484 		movl	$0, 1668(%rsp)
 4258      06000000 
 4258      000000
 4259 2637 C7842488 		movl	$0x00000000, 2184(%rsp)
 4259      08000000 
 4259      000000
 4260 2642 C784248C 		movl	$0, 2188(%rsp)
 4260      08000000 
 4260      000000
 4261 264d C7842490 		movl	$0, 2192(%rsp)
 4261      08000000 
 4261      000000
 4262 2658 C7842494 		movl	$0, 2196(%rsp)
 4262      08000000 
 4262      000000
 4263 2663 C7842498 		movl	$0x00000000, 2200(%rsp)
 4263      08000000 
 4263      000000
 4264 266e C644247C 		movb	$0, 124(%rsp)
 4264      00
 4265 2673 C684247C 		movb	$0, 380(%rsp)
 4265      01000000 
 4266 267b C6842480 		movb	$0, 640(%rsp)
 4266      02000000 
 4267 2683 C6842484 		movb	$0, 900(%rsp)
 4267      03000000 
 4268 268b C6842484 		movb	$0, 1156(%rsp)
 4268      04000000 
 4269 2693 C6842484 		movb	$0, 1412(%rsp)
 4269      05000000 
 4270 269b C6842488 		movb	$0, 1672(%rsp)
 4270      06000000 
 4271 26a3 C6842488 		movb	$0, 1928(%rsp)
 4271      07000000 
 4272              	.LEHB81:
 4273 26ab E8000000 		call	_ZN8UnitTest11TestResultsC1EPNS_12TestReporterE
 4273      00
 4274 26b0 488D7C24 		leaq	48(%rsp), %rdi
 4274      30
 4275 26b5 41B86500 		movl	$101, %r8d
 4275      0000
 4276 26bb B9000000 		movl	$.LC52, %ecx
 4276      00
 4277 26c0 BA000000 		movl	$.LC53, %edx
 4277      00
 4278 26c5 BE000000 		movl	$.LC54, %esi
 4278      00
 4279 26ca E8000000 		call	_ZN8UnitTest11TestDetailsC1EPKcS2_S2_i
 4279      00
 4280 26cf 488D4C24 		leaq	48(%rsp), %rcx
 4280      30
 4281 26d4 488D5424 		leaq	80(%rsp), %rdx
 4281      50
 4282 26d9 488D7C24 		leaq	16(%rsp), %rdi
 4282      10
 4283 26de 4889E6   		movq	%rsp, %rsi
 4284 26e1 C7442450 		movl	$2, 80(%rsp)
 4284      02000000 
 4285 26e9 C7042401 		movl	$1, (%rsp)
 4285      000000
 4286 26f0 E8000000 		call	_ZN8UnitTest10CheckEqualIiiEEvRNS_11TestResultsERKT_RKT0_RKNS_11TestDetailsE
 4286      00
 4287              	.LEHE81:
 4288              	.LEHB82:
 4289 26f5 E8000000 		call	_ZN8UnitTest11CurrentTest7DetailsEv
 4289      00
 4290 26fa 488B30   		movq	(%rax), %rsi
 4291 26fd 488D7C24 		leaq	80(%rsp), %rdi
 4291      50
 4292 2702 BA5D0000 		movl	$93, %edx
 4292      00
 4293 2707 E8000000 		call	_ZN8UnitTest11TestDetailsC1ERKS0_i
 4293      00
 4294 270c E8000000 		call	_ZN8UnitTest11CurrentTest7ResultsEv
 4294      00
 4295 2711 488D5C24 		leaq	112(%rsp), %rbx
 4295      70
 4296 2716 488B38   		movq	(%rax), %rdi
 4297 2719 488D4C24 		leaq	80(%rsp), %rcx
 4297      50
 4298 271e BE000000 		movl	$.LC54, %esi
 4298      00
 4299 2723 488D9314 		leaq	1044(%rbx), %rdx
 4299      040000
 4300 272a E8000000 		call	_ZN8UnitTest10CheckEqualERNS_11TestResultsEPKcPcRKNS_11TestDetailsE
 4300      00
 4301              	.LEHE82:
 4302              	.L480:
 4303              	.LEHB83:
 4304 272f E8000000 		call	_ZN8UnitTest11CurrentTest7DetailsEv
 4304      00
 4305 2734 488B30   		movq	(%rax), %rsi
 4306 2737 488D7C24 		leaq	80(%rsp), %rdi
 4306      50
 4307 273c BA5E0000 		movl	$94, %edx
 4307      00
 4308 2741 E8000000 		call	_ZN8UnitTest11TestDetailsC1ERKS0_i
 4308      00
 4309 2746 E8000000 		call	_ZN8UnitTest11CurrentTest7ResultsEv
 4309      00
 4310 274b 488D5C24 		leaq	112(%rsp), %rbx
 4310      70
 4311 2750 488B38   		movq	(%rax), %rdi
 4312 2753 488D4C24 		leaq	80(%rsp), %rcx
 4312      50
 4313 2758 BE000000 		movl	$.LC53, %esi
 4313      00
 4314 275d 488D9314 		leaq	788(%rbx), %rdx
 4314      030000
 4315 2764 E8000000 		call	_ZN8UnitTest10CheckEqualERNS_11TestResultsEPKcPcRKNS_11TestDetailsE
 4315      00
 4316              	.LEHE83:
 4317              	.L483:
 4318              	.LEHB84:
 4319 2769 E8000000 		call	_ZN8UnitTest11CurrentTest7DetailsEv
 4319      00
 4320 276e 488B30   		movq	(%rax), %rsi
 4321 2771 488D7C24 		leaq	80(%rsp), %rdi
 4321      50
 4322 2776 BA5F0000 		movl	$95, %edx
 4322      00
 4323 277b E8000000 		call	_ZN8UnitTest11TestDetailsC1ERKS0_i
 4323      00
 4324 2780 E8000000 		call	_ZN8UnitTest11CurrentTest7ResultsEv
 4324      00
 4325 2785 488D5C24 		leaq	112(%rsp), %rbx
 4325      70
 4326 278a 488B38   		movq	(%rax), %rdi
 4327 278d 488D4C24 		leaq	80(%rsp), %rcx
 4327      50
 4328 2792 BE000000 		movl	$.LC52, %esi
 4328      00
 4329 2797 488D9310 		leaq	528(%rbx), %rdx
 4329      020000
 4330 279e E8000000 		call	_ZN8UnitTest10CheckEqualERNS_11TestResultsEPKcPcRKNS_11TestDetailsE
 4330      00
 4331              	.LEHE84:
 4332              	.L486:
 4333              	.LEHB85:
 4334 27a3 E8000000 		call	_ZN8UnitTest11CurrentTest7DetailsEv
 4334      00
 4335 27a8 488B30   		movq	(%rax), %rsi
 4336 27ab 488D7C24 		leaq	80(%rsp), %rdi
 4336      50
 4337 27b0 BA600000 		movl	$96, %edx
 4337      00
 4338 27b5 E8000000 		call	_ZN8UnitTest11TestDetailsC1ERKS0_i
 4338      00
 4339 27ba C7042465 		movl	$101, (%rsp)
 4339      000000
 4340 27c1 E8000000 		call	_ZN8UnitTest11CurrentTest7ResultsEv
 4340      00
 4341 27c6 488D5C24 		leaq	112(%rsp), %rbx
 4341      70
 4342 27cb 488B38   		movq	(%rax), %rdi
 4343 27ce 488D4C24 		leaq	80(%rsp), %rcx
 4343      50
 4344 27d3 4889E6   		movq	%rsp, %rsi
 4345 27d6 488D9310 		leaq	784(%rbx), %rdx
 4345      030000
 4346 27dd E8000000 		call	_ZN8UnitTest10CheckEqualIiiEEvRNS_11TestResultsERKT_RKT0_RKNS_11TestDetailsE
 4346      00
 4347              	.LEHE85:
 4348              	.L489:
 4349 27e2 488D7C24 		leaq	112(%rsp), %rdi
 4349      70
 4350 27e7 48C74424 		movq	$_ZTV17RecordingReporter+16, 112(%rsp)
 4350      70000000 
 4350      00
 4351              	.LEHB86:
 4352 27f0 E8000000 		call	_ZN8UnitTest12TestReporterD2Ev
 4352      00
 4353              	.LEHE86:
 4354 27f5 488B8424 		movq	2216(%rsp), %rax
 4354      A8080000 
 4355 27fd 64483304 		xorq	%fs:40, %rax
 4355      25280000 
 4355      00
 4356 2806 7509     		jne	.L502
 4357 2808 4881C4B0 		addq	$2224, %rsp
 4357      080000
 4358              		.cfi_remember_state
 4359              		.cfi_def_cfa_offset 16
 4360 280f 5B       		popq	%rbx
 4361              		.cfi_def_cfa_offset 8
 4362 2810 C3       		ret
 4363              	.L502:
 4364              		.cfi_restore_state
 4365 2811 E8000000 		call	__stack_chk_fail
 4365      00
 4366              	.L498:
 4367 2816 4889C7   		movq	%rax, %rdi
 4368 2819 E8000000 		call	__cxa_begin_catch
 4368      00
 4369              	.LEHB87:
 4370 281e E8000000 		call	_ZN8UnitTest11CurrentTest7DetailsEv
 4370      00
 4371 2823 488B30   		movq	(%rax), %rsi
 4372 2826 488D7C24 		leaq	80(%rsp), %rdi
 4372      50
 4373 282b BA600000 		movl	$96, %edx
 4373      00
 4374 2830 E8000000 		call	_ZN8UnitTest11TestDetailsC1ERKS0_i
 4374      00
 4375 2835 E8000000 		call	_ZN8UnitTest11CurrentTest7ResultsEv
 4375      00
 4376 283a 488B38   		movq	(%rax), %rdi
 4377 283d 488D7424 		leaq	80(%rsp), %rsi
 4377      50
 4378 2842 BA000000 		movl	$.LC58, %edx
 4378      00
 4379 2847 E8000000 		call	_ZN8UnitTest11TestResults13OnTestFailureERKNS_11TestDetailsEPKc
 4379      00
 4380              	.LEHE87:
 4381              	.LEHB88:
 4382 284c E8000000 		call	__cxa_end_catch
 4382      00
 4383              	.LEHE88:
 4384 2851 EB8F     		jmp	.L489
 4385              	.L496:
 4386 2853 4889C7   		movq	%rax, %rdi
 4387              		.p2align 4,,5
 4388 2856 E8000000 		call	__cxa_begin_catch
 4388      00
 4389 285b 0F1F4400 		.p2align 4,,5
 4389      00
 4390              	.LEHB89:
 4391 2860 E8000000 		call	_ZN8UnitTest11CurrentTest7DetailsEv
 4391      00
 4392 2865 488B30   		movq	(%rax), %rsi
 4393 2868 488D7C24 		leaq	80(%rsp), %rdi
 4393      50
 4394 286d BA5F0000 		movl	$95, %edx
 4394      00
 4395 2872 E8000000 		call	_ZN8UnitTest11TestDetailsC1ERKS0_i
 4395      00
 4396 2877 E8000000 		call	_ZN8UnitTest11CurrentTest7ResultsEv
 4396      00
 4397 287c 488B38   		movq	(%rax), %rdi
 4398 287f 488D7424 		leaq	80(%rsp), %rsi
 4398      50
 4399 2884 BA000000 		movl	$.LC57, %edx
 4399      00
 4400 2889 E8000000 		call	_ZN8UnitTest11TestResults13OnTestFailureERKNS_11TestDetailsEPKc
 4400      00
 4401              	.LEHE89:
 4402              	.LEHB90:
 4403 288e E8000000 		call	__cxa_end_catch
 4403      00
 4404              	.LEHE90:
 4405 2893 E90BFFFF 		jmp	.L486
 4405      FF
 4406              	.L492:
 4407 2898 4889C7   		movq	%rax, %rdi
 4408 289b 0F1F4400 		.p2align 4,,5
 4408      00
 4409 28a0 E8000000 		call	__cxa_begin_catch
 4409      00
 4410              		.p2align 4,,5
 4411              	.LEHB91:
 4412 28a5 E8000000 		call	_ZN8UnitTest11CurrentTest7DetailsEv
 4412      00
 4413 28aa 488B30   		movq	(%rax), %rsi
 4414 28ad 488D7C24 		leaq	80(%rsp), %rdi
 4414      50
 4415 28b2 BA5D0000 		movl	$93, %edx
 4415      00
 4416 28b7 E8000000 		call	_ZN8UnitTest11TestDetailsC1ERKS0_i
 4416      00
 4417 28bc E8000000 		call	_ZN8UnitTest11CurrentTest7ResultsEv
 4417      00
 4418 28c1 488B38   		movq	(%rax), %rdi
 4419 28c4 488D7424 		leaq	80(%rsp), %rsi
 4419      50
 4420 28c9 BA000000 		movl	$.LC55, %edx
 4420      00
 4421 28ce E8000000 		call	_ZN8UnitTest11TestResults13OnTestFailureERKNS_11TestDetailsEPKc
 4421      00
 4422              	.LEHE91:
 4423              	.LEHB92:
 4424 28d3 E8000000 		call	__cxa_end_catch
 4424      00
 4425              	.LEHE92:
 4426 28d8 E952FEFF 		jmp	.L480
 4426      FF
 4427              	.L494:
 4428 28dd 4889C7   		movq	%rax, %rdi
 4429              		.p2align 4,,5
 4430 28e0 E8000000 		call	__cxa_begin_catch
 4430      00
 4431              		.p2align 4,,5
 4432              	.LEHB93:
 4433 28e5 E8000000 		call	_ZN8UnitTest11CurrentTest7DetailsEv
 4433      00
 4434 28ea 488B30   		movq	(%rax), %rsi
 4435 28ed 488D7C24 		leaq	80(%rsp), %rdi
 4435      50
 4436 28f2 BA5E0000 		movl	$94, %edx
 4436      00
 4437 28f7 E8000000 		call	_ZN8UnitTest11TestDetailsC1ERKS0_i
 4437      00
 4438 28fc E8000000 		call	_ZN8UnitTest11CurrentTest7ResultsEv
 4438      00
 4439 2901 488B38   		movq	(%rax), %rdi
 4440 2904 488D7424 		leaq	80(%rsp), %rsi
 4440      50
 4441 2909 BA000000 		movl	$.LC56, %edx
 4441      00
 4442 290e E8000000 		call	_ZN8UnitTest11TestResults13OnTestFailureERKNS_11TestDetailsEPKc
 4442      00
 4443              	.LEHE93:
 4444              	.LEHB94:
 4445 2913 E8000000 		call	__cxa_end_catch
 4445      00
 4446              	.LEHE94:
 4447 2918 E94CFEFF 		jmp	.L483
 4447      FF
 4448              	.L491:
 4449 291d 4889C3   		movq	%rax, %rbx
 4450              	.L478:
 4451 2920 488D7C24 		leaq	112(%rsp), %rdi
 4451      70
 4452 2925 48C74424 		movq	$_ZTV17RecordingReporter+16, 112(%rsp)
 4452      70000000 
 4452      00
 4453 292e E8000000 		call	_ZN8UnitTest12TestReporterD2Ev
 4453      00
 4454 2933 4889DF   		movq	%rbx, %rdi
 4455              	.LEHB95:
 4456 2936 E8000000 		call	_Unwind_Resume
 4456      00
 4457              	.LEHE95:
 4458              	.L499:
 4459 293b 4889C3   		movq	%rax, %rbx
 4460 293e E8000000 		call	__cxa_end_catch
 4460      00
 4461 2943 EBDB     		jmp	.L478
 4462              	.L493:
 4463 2945 4889C3   		movq	%rax, %rbx
 4464 2948 E8000000 		call	__cxa_end_catch
 4464      00
 4465 294d 0F1F00   		.p2align 4,,5
 4466 2950 EBCE     		jmp	.L478
 4467              	.L497:
 4468 2952 4889C3   		movq	%rax, %rbx
 4469 2955 E8000000 		call	__cxa_end_catch
 4469      00
 4470              		.p2align 4,,5
 4471 295a EBC4     		jmp	.L478
 4472              	.L495:
 4473 295c 4889C3   		movq	%rax, %rbx
 4474 295f E8000000 		call	__cxa_end_catch
 4474      00
 4475              		.p2align 4,,5
 4476 2964 EBBA     		jmp	.L478
 4477              		.cfi_endproc
 4478              	.LFE1120:
 4479              		.section	.gcc_except_table
 4480              		.align 4
 4481              	.LLSDA1120:
 4482 0228 FF       		.byte	0xff
 4483 0229 03       		.byte	0x3
 4484 022a 61       		.uleb128 .LLSDATT1120-.LLSDATTD1120
 4485              	.LLSDATTD1120:
 4486 022b 01       		.byte	0x1
 4487 022c 58       		.uleb128 .LLSDACSE1120-.LLSDACSB1120
 4488              	.LLSDACSB1120:
 4489 022d CB01     		.uleb128 .LEHB81-.LFB1120
 4490 022f 4A       		.uleb128 .LEHE81-.LEHB81
 4491 0230 BD06     		.uleb128 .L491-.LFB1120
 4492 0232 00       		.uleb128 0
 4493 0233 9502     		.uleb128 .LEHB82-.LFB1120
 4494 0235 3A       		.uleb128 .LEHE82-.LEHB82
 4495 0236 B805     		.uleb128 .L492-.LFB1120
 4496 0238 01       		.uleb128 0x1
 4497 0239 CF02     		.uleb128 .LEHB83-.LFB1120
 4498 023b 3A       		.uleb128 .LEHE83-.LEHB83
 4499 023c FD05     		.uleb128 .L494-.LFB1120
 4500 023e 01       		.uleb128 0x1
 4501 023f 8903     		.uleb128 .LEHB84-.LFB1120
 4502 0241 3A       		.uleb128 .LEHE84-.LEHB84
 4503 0242 F304     		.uleb128 .L496-.LFB1120
 4504 0244 01       		.uleb128 0x1
 4505 0245 C303     		.uleb128 .LEHB85-.LFB1120
 4506 0247 3F       		.uleb128 .LEHE85-.LEHB85
 4507 0248 B604     		.uleb128 .L498-.LFB1120
 4508 024a 01       		.uleb128 0x1
 4509 024b 9004     		.uleb128 .LEHB86-.LFB1120
 4510 024d 05       		.uleb128 .LEHE86-.LEHB86
 4511 024e 00       		.uleb128 0
 4512 024f 00       		.uleb128 0
 4513 0250 BE04     		.uleb128 .LEHB87-.LFB1120
 4514 0252 2E       		.uleb128 .LEHE87-.LEHB87
 4515 0253 DB06     		.uleb128 .L499-.LFB1120
 4516 0255 00       		.uleb128 0
 4517 0256 EC04     		.uleb128 .LEHB88-.LFB1120
 4518 0258 05       		.uleb128 .LEHE88-.LEHB88
 4519 0259 BD06     		.uleb128 .L491-.LFB1120
 4520 025b 00       		.uleb128 0
 4521 025c 8005     		.uleb128 .LEHB89-.LFB1120
 4522 025e 2E       		.uleb128 .LEHE89-.LEHB89
 4523 025f F206     		.uleb128 .L497-.LFB1120
 4524 0261 00       		.uleb128 0
 4525 0262 AE05     		.uleb128 .LEHB90-.LFB1120
 4526 0264 05       		.uleb128 .LEHE90-.LEHB90
 4527 0265 BD06     		.uleb128 .L491-.LFB1120
 4528 0267 00       		.uleb128 0
 4529 0268 C505     		.uleb128 .LEHB91-.LFB1120
 4530 026a 2E       		.uleb128 .LEHE91-.LEHB91
 4531 026b E506     		.uleb128 .L493-.LFB1120
 4532 026d 00       		.uleb128 0
 4533 026e F305     		.uleb128 .LEHB92-.LFB1120
 4534 0270 05       		.uleb128 .LEHE92-.LEHB92
 4535 0271 BD06     		.uleb128 .L491-.LFB1120
 4536 0273 00       		.uleb128 0
 4537 0274 8506     		.uleb128 .LEHB93-.LFB1120
 4538 0276 2E       		.uleb128 .LEHE93-.LEHB93
 4539 0277 FC06     		.uleb128 .L495-.LFB1120
 4540 0279 00       		.uleb128 0
 4541 027a B306     		.uleb128 .LEHB94-.LFB1120
 4542 027c 05       		.uleb128 .LEHE94-.LEHB94
 4543 027d BD06     		.uleb128 .L491-.LFB1120
 4544 027f 00       		.uleb128 0
 4545 0280 D606     		.uleb128 .LEHB95-.LFB1120
 4546 0282 05       		.uleb128 .LEHE95-.LEHB95
 4547 0283 00       		.uleb128 0
 4548 0284 00       		.uleb128 0
 4549              	.LLSDACSE1120:
 4550 0285 01       		.byte	0x1
 4551 0286 00       		.byte	0
 4552 0287 00       		.align 4
 4553 0288 00000000 		.long	0
 4554              	
 4555              	.LLSDATT1120:
 4556              		.text
 4558              		.section	.rodata.str1.1
 4559              	.LC59:
 4560 00a8 78706563 		.string	"xpected 1"
 4560      74656420 
 4560      3100
 4561              		.section	.rodata.str1.8
 4562 04d9 00000000 		.align 8
 4562      000000
 4563              	.LC60:
 4564 04e0 73747273 		.string	"strstr(reporter.lastFailedMessage, \"xpected 1\")"
 4564      74722872 
 4564      65706F72 
 4564      7465722E 
 4564      6C617374 
 4565              		.section	.rodata.str1.1
 4566              	.LC61:
 4567 00b2 77617320 		.string	"was 2"
 4567      3200
 4568              		.section	.rodata.str1.8
 4569              		.align 8
 4570              	.LC62:
 4571 0510 73747273 		.string	"strstr(reporter.lastFailedMessage, \"was 2\")"
 4571      74722872 
 4571      65706F72 
 4571      7465722E 
 4571      6C617374 
 4572 053c 00000000 		.align 8
 4573              	.LC63:
 4574 0540 556E6861 		.string	"Unhandled exception in CHECK(strstr(reporter.lastFailedMessage, \"xpected 1\"))"
 4574      6E646C65 
 4574      64206578 
 4574      63657074 
 4574      696F6E20 
 4575 058e 0000     		.align 8
 4576              	.LC64:
 4577 0590 556E6861 		.string	"Unhandled exception in CHECK(strstr(reporter.lastFailedMessage, \"was 2\"))"
 4577      6E646C65 
 4577      64206578 
 4577      63657074 
 4577      696F6E20 
 4578              		.text
 4579              		.align 2
 4580 2966 662E0F1F 		.p2align 4,,15
 4580      84000000 
 4580      0000
 4582              	_ZNK12_GLOBAL__N_151TestCheckEqualFailureIncludesCheckExpectedAndActual7RunImplEv:
 4583              	.LFB1116:
 4584              		.cfi_startproc
 4585              		.cfi_personality 0x3,__gxx_personality_v0
 4586              		.cfi_lsda 0x3,.LLSDA1116
 4587 2970 53       		pushq	%rbx
 4588              		.cfi_def_cfa_offset 16
 4589              		.cfi_offset 3, -16
 4590 2971 4881ECA0 		subq	$2208, %rsp
 4590      080000
 4591              		.cfi_def_cfa_offset 2224
 4592 2978 488D7424 		leaq	96(%rsp), %rsi
 4592      60
 4593 297d 488D7C24 		leaq	32(%rsp), %rdi
 4593      20
 4594 2982 48C74424 		movq	$_ZTV17RecordingReporter+16, 96(%rsp)
 4594      60000000 
 4594      00
 4595 298b 64488B04 		movq	%fs:40, %rax
 4595      25280000 
 4595      00
 4596 2994 48898424 		movq	%rax, 2200(%rsp)
 4596      98080000 
 4597 299c 31C0     		xorl	%eax, %eax
 4598 299e C7442468 		movl	$0, 104(%rsp)
 4598      00000000 
 4599 29a6 C784246C 		movl	$0, 620(%rsp)
 4599      02000000 
 4599      000000
 4600 29b1 C7842470 		movl	$0, 880(%rsp)
 4600      03000000 
 4600      000000
 4601 29bc C7842474 		movl	$0, 1652(%rsp)
 4601      06000000 
 4601      000000
 4602 29c7 C7842478 		movl	$0x00000000, 2168(%rsp)
 4602      08000000 
 4602      000000
 4603 29d2 C784247C 		movl	$0, 2172(%rsp)
 4603      08000000 
 4603      000000
 4604 29dd C7842480 		movl	$0, 2176(%rsp)
 4604      08000000 
 4604      000000
 4605 29e8 C7842484 		movl	$0, 2180(%rsp)
 4605      08000000 
 4605      000000
 4606 29f3 C7842488 		movl	$0x00000000, 2184(%rsp)
 4606      08000000 
 4606      000000
 4607 29fe C644246C 		movb	$0, 108(%rsp)
 4607      00
 4608 2a03 C684246C 		movb	$0, 364(%rsp)
 4608      01000000 
 4609 2a0b C6842470 		movb	$0, 624(%rsp)
 4609      02000000 
 4610 2a13 C6842474 		movb	$0, 884(%rsp)
 4610      03000000 
 4611 2a1b C6842474 		movb	$0, 1140(%rsp)
 4611      04000000 
 4612 2a23 C6842474 		movb	$0, 1396(%rsp)
 4612      05000000 
 4613 2a2b C6842478 		movb	$0, 1656(%rsp)
 4613      06000000 
 4614 2a33 C6842478 		movb	$0, 1912(%rsp)
 4614      07000000 
 4615              	.LEHB96:
 4616 2a3b E8000000 		call	_ZN8UnitTest11TestResultsC1EPNS_12TestReporterE
 4616      00
 4617 2a40 B9000000 		movl	$.LC1, %ecx
 4617      00
 4618 2a45 488D7C24 		leaq	64(%rsp), %rdi
 4618      40
 4619 2a4a 4531C0   		xorl	%r8d, %r8d
 4620 2a4d 4889CA   		movq	%rcx, %rdx
 4621 2a50 4889CE   		movq	%rcx, %rsi
 4622 2a53 C7042402 		movl	$2, (%rsp)
 4622      000000
 4623 2a5a E8000000 		call	_ZN8UnitTest11TestDetailsC1EPKcS2_S2_i
 4623      00
 4624 2a5f 488D4C24 		leaq	64(%rsp), %rcx
 4624      40
 4625 2a64 488D7424 		leaq	16(%rsp), %rsi
 4625      10
 4626 2a69 488D7C24 		leaq	32(%rsp), %rdi
 4626      20
 4627 2a6e 4889E2   		movq	%rsp, %rdx
 4628 2a71 C7442410 		movl	$1, 16(%rsp)
 4628      01000000 
 4629 2a79 E8000000 		call	_ZN8UnitTest10CheckEqualIiiEEvRNS_11TestResultsERKT_RKT0_RKNS_11TestDetailsE
 4629      00
 4630              	.LEHE96:
 4631 2a7e 488DBC24 		leaq	1396(%rsp), %rdi
 4631      74050000 
 4632 2a86 BE000000 		movl	$.LC59, %esi
 4632      00
 4633 2a8b E8000000 		call	strstr
 4633      00
 4634 2a90 4885C0   		testq	%rax, %rax
 4635 2a93 747B     		je	.L523
 4636              	.L505:
 4637 2a95 488DBC24 		leaq	1396(%rsp), %rdi
 4637      74050000 
 4638 2a9d BE000000 		movl	$.LC61, %esi
 4638      00
 4639 2aa2 E8000000 		call	strstr
 4639      00
 4640 2aa7 4885C0   		testq	%rax, %rax
 4641 2aaa 7434     		je	.L524
 4642              	.L507:
 4643 2aac 488D7C24 		leaq	96(%rsp), %rdi
 4643      60
 4644 2ab1 48C74424 		movq	$_ZTV17RecordingReporter+16, 96(%rsp)
 4644      60000000 
 4644      00
 4645              	.LEHB97:
 4646 2aba E8000000 		call	_ZN8UnitTest12TestReporterD2Ev
 4646      00
 4647              	.LEHE97:
 4648 2abf 488B8424 		movq	2200(%rsp), %rax
 4648      98080000 
 4649 2ac7 64483304 		xorq	%fs:40, %rax
 4649      25280000 
 4649      00
 4650 2ad0 7571     		jne	.L525
 4651 2ad2 4881C4A0 		addq	$2208, %rsp
 4651      080000
 4652              		.cfi_remember_state
 4653              		.cfi_def_cfa_offset 16
 4654 2ad9 5B       		popq	%rbx
 4655              		.cfi_def_cfa_offset 8
 4656 2ada C3       		ret
 4657 2adb 0F1F4400 		.p2align 4,,10
 4657      00
 4658              		.p2align 3
 4659              	.L524:
 4660              		.cfi_restore_state
 4661              	.LEHB98:
 4662 2ae0 E8000000 		call	_ZN8UnitTest11CurrentTest7DetailsEv
 4662      00
 4663 2ae5 488B30   		movq	(%rax), %rsi
 4664 2ae8 488D7C24 		leaq	64(%rsp), %rdi
 4664      40
 4665 2aed BA520000 		movl	$82, %edx
 4665      00
 4666 2af2 E8000000 		call	_ZN8UnitTest11TestDetailsC1ERKS0_i
 4666      00
 4667 2af7 E8000000 		call	_ZN8UnitTest11CurrentTest7ResultsEv
 4667      00
 4668 2afc 488B38   		movq	(%rax), %rdi
 4669 2aff 488D7424 		leaq	64(%rsp), %rsi
 4669      40
 4670 2b04 BA000000 		movl	$.LC62, %edx
 4670      00
 4671 2b09 E8000000 		call	_ZN8UnitTest11TestResults13OnTestFailureERKNS_11TestDetailsEPKc
 4671      00
 4672              	.LEHE98:
 4673 2b0e EB9C     		jmp	.L507
 4674              		.p2align 4,,10
 4675              		.p2align 3
 4676              	.L523:
 4677              	.LEHB99:
 4678 2b10 E8000000 		call	_ZN8UnitTest11CurrentTest7DetailsEv
 4678      00
 4679 2b15 488B30   		movq	(%rax), %rsi
 4680 2b18 488D7C24 		leaq	64(%rsp), %rdi
 4680      40
 4681 2b1d BA510000 		movl	$81, %edx
 4681      00
 4682 2b22 E8000000 		call	_ZN8UnitTest11TestDetailsC1ERKS0_i
 4682      00
 4683 2b27 E8000000 		call	_ZN8UnitTest11CurrentTest7ResultsEv
 4683      00
 4684 2b2c 488B38   		movq	(%rax), %rdi
 4685 2b2f 488D7424 		leaq	64(%rsp), %rsi
 4685      40
 4686 2b34 BA000000 		movl	$.LC60, %edx
 4686      00
 4687 2b39 E8000000 		call	_ZN8UnitTest11TestResults13OnTestFailureERKNS_11TestDetailsEPKc
 4687      00
 4688              	.LEHE99:
 4689 2b3e E952FFFF 		jmp	.L505
 4689      FF
 4690              	.L525:
 4691 2b43 E8000000 		call	__stack_chk_fail
 4691      00
 4692              	.L517:
 4693 2b48 4889C7   		movq	%rax, %rdi
 4694 2b4b 0F1F4400 		.p2align 4,,5
 4694      00
 4695 2b50 E8000000 		call	__cxa_begin_catch
 4695      00
 4696              	.LEHB100:
 4697 2b55 E8000000 		call	_ZN8UnitTest11CurrentTest7DetailsEv
 4697      00
 4698 2b5a 488B30   		movq	(%rax), %rsi
 4699 2b5d 488D7C24 		leaq	64(%rsp), %rdi
 4699      40
 4700 2b62 BA510000 		movl	$81, %edx
 4700      00
 4701 2b67 E8000000 		call	_ZN8UnitTest11TestDetailsC1ERKS0_i
 4701      00
 4702 2b6c E8000000 		call	_ZN8UnitTest11CurrentTest7ResultsEv
 4702      00
 4703 2b71 488B38   		movq	(%rax), %rdi
 4704 2b74 488D7424 		leaq	64(%rsp), %rsi
 4704      40
 4705 2b79 BA000000 		movl	$.LC63, %edx
 4705      00
 4706 2b7e E8000000 		call	_ZN8UnitTest11TestResults13OnTestFailureERKNS_11TestDetailsEPKc
 4706      00
 4707              	.LEHE100:
 4708              	.LEHB101:
 4709 2b83 E8000000 		call	__cxa_end_catch
 4709      00
 4710              	.LEHE101:
 4711 2b88 E908FFFF 		jmp	.L505
 4711      FF
 4712              	.L516:
 4713 2b8d 4889C3   		movq	%rax, %rbx
 4714              	.L509:
 4715 2b90 488D7C24 		leaq	96(%rsp), %rdi
 4715      60
 4716 2b95 48C74424 		movq	$_ZTV17RecordingReporter+16, 96(%rsp)
 4716      60000000 
 4716      00
 4717 2b9e E8000000 		call	_ZN8UnitTest12TestReporterD2Ev
 4717      00
 4718 2ba3 4889DF   		movq	%rbx, %rdi
 4719              	.LEHB102:
 4720 2ba6 E8000000 		call	_Unwind_Resume
 4720      00
 4721              	.LEHE102:
 4722              	.L519:
 4723 2bab 4889C7   		movq	%rax, %rdi
 4724 2bae E8000000 		call	__cxa_begin_catch
 4724      00
 4725              	.LEHB103:
 4726 2bb3 E8000000 		call	_ZN8UnitTest11CurrentTest7DetailsEv
 4726      00
 4727 2bb8 488B30   		movq	(%rax), %rsi
 4728 2bbb 488D7C24 		leaq	64(%rsp), %rdi
 4728      40
 4729 2bc0 BA520000 		movl	$82, %edx
 4729      00
 4730 2bc5 E8000000 		call	_ZN8UnitTest11TestDetailsC1ERKS0_i
 4730      00
 4731 2bca E8000000 		call	_ZN8UnitTest11CurrentTest7ResultsEv
 4731      00
 4732 2bcf 488B38   		movq	(%rax), %rdi
 4733 2bd2 488D7424 		leaq	64(%rsp), %rsi
 4733      40
 4734 2bd7 BA000000 		movl	$.LC64, %edx
 4734      00
 4735 2bdc E8000000 		call	_ZN8UnitTest11TestResults13OnTestFailureERKNS_11TestDetailsEPKc
 4735      00
 4736              	.LEHE103:
 4737              	.LEHB104:
 4738 2be1 E8000000 		call	__cxa_end_catch
 4738      00
 4739              	.LEHE104:
 4740 2be6 E9C1FEFF 		jmp	.L507
 4740      FF
 4741              	.L518:
 4742 2beb 4889C3   		movq	%rax, %rbx
 4743 2bee 6690     		.p2align 4,,5
 4744 2bf0 E8000000 		call	__cxa_end_catch
 4744      00
 4745              		.p2align 4,,5
 4746 2bf5 EB99     		jmp	.L509
 4747              	.L520:
 4748 2bf7 4889C3   		movq	%rax, %rbx
 4749 2bfa E8000000 		call	__cxa_end_catch
 4749      00
 4750 2bff 90       		.p2align 4,,5
 4751 2c00 EB8E     		jmp	.L509
 4752              		.cfi_endproc
 4753              	.LFE1116:
 4754              		.section	.gcc_except_table
 4755              		.align 4
 4756              	.LLSDA1116:
 4757 028c FF       		.byte	0xff
 4758 028d 03       		.byte	0x3
 4759 028e 3D       		.uleb128 .LLSDATT1116-.LLSDATTD1116
 4760              	.LLSDATTD1116:
 4761 028f 01       		.byte	0x1
 4762 0290 34       		.uleb128 .LLSDACSE1116-.LLSDACSB1116
 4763              	.LLSDACSB1116:
 4764 0291 CB01     		.uleb128 .LEHB96-.LFB1116
 4765 0293 43       		.uleb128 .LEHE96-.LEHB96
 4766 0294 9D04     		.uleb128 .L516-.LFB1116
 4767 0296 00       		.uleb128 0
 4768 0297 CA02     		.uleb128 .LEHB97-.LFB1116
 4769 0299 05       		.uleb128 .LEHE97-.LEHB97
 4770 029a 00       		.uleb128 0
 4771 029b 00       		.uleb128 0
 4772 029c F002     		.uleb128 .LEHB98-.LFB1116
 4773 029e 2E       		.uleb128 .LEHE98-.LEHB98
 4774 029f BB04     		.uleb128 .L519-.LFB1116
 4775 02a1 01       		.uleb128 0x1
 4776 02a2 A003     		.uleb128 .LEHB99-.LFB1116
 4777 02a4 2E       		.uleb128 .LEHE99-.LEHB99
 4778 02a5 D803     		.uleb128 .L517-.LFB1116
 4779 02a7 01       		.uleb128 0x1
 4780 02a8 E503     		.uleb128 .LEHB100-.LFB1116
 4781 02aa 2E       		.uleb128 .LEHE100-.LEHB100
 4782 02ab FB04     		.uleb128 .L518-.LFB1116
 4783 02ad 00       		.uleb128 0
 4784 02ae 9304     		.uleb128 .LEHB101-.LFB1116
 4785 02b0 05       		.uleb128 .LEHE101-.LEHB101
 4786 02b1 9D04     		.uleb128 .L516-.LFB1116
 4787 02b3 00       		.uleb128 0
 4788 02b4 B604     		.uleb128 .LEHB102-.LFB1116
 4789 02b6 05       		.uleb128 .LEHE102-.LEHB102
 4790 02b7 00       		.uleb128 0
 4791 02b8 00       		.uleb128 0
 4792 02b9 C304     		.uleb128 .LEHB103-.LFB1116
 4793 02bb 2E       		.uleb128 .LEHE103-.LEHB103
 4794 02bc 8705     		.uleb128 .L520-.LFB1116
 4795 02be 00       		.uleb128 0
 4796 02bf F104     		.uleb128 .LEHB104-.LFB1116
 4797 02c1 05       		.uleb128 .LEHE104-.LEHB104
 4798 02c2 9D04     		.uleb128 .L516-.LFB1116
 4799 02c4 00       		.uleb128 0
 4800              	.LLSDACSE1116:
 4801 02c5 01       		.byte	0x1
 4802 02c6 00       		.byte	0
 4803 02c7 00       		.align 4
 4804 02c8 00000000 		.long	0
 4805              	
 4806              	.LLSDATT1116:
 4807              		.text
 4809              		.section	.rodata.str1.1
 4810              	.LC65:
 4811 00b8 48656C6C 		.string	"Hello"
 4811      6F00
 4812              		.text
 4813              		.align 2
 4814 2c02 66666666 		.p2align 4,,15
 4814      662E0F1F 
 4814      84000000 
 4814      0000
 4816              	_ZNK12_GLOBAL__N_153TestCheckEqualsWithStringsWorksOnContentsWithALiteral7RunImplEv:
 4817              	.LFB1112:
 4818              		.cfi_startproc
 4819              		.cfi_personality 0x3,__gxx_personality_v0
 4820              		.cfi_lsda 0x3,.LLSDA1112
 4821 2c10 53       		pushq	%rbx
 4822              		.cfi_def_cfa_offset 16
 4823              		.cfi_offset 3, -16
 4824 2c11 31F6     		xorl	%esi, %esi
 4825 2c13 4883EC60 		subq	$96, %rsp
 4826              		.cfi_def_cfa_offset 112
 4827 2c17 488D7C24 		leaq	32(%rsp), %rdi
 4827      20
 4828              	.LEHB105:
 4829 2c1c E8000000 		call	_ZN8UnitTest11TestResultsC1EPNS_12TestReporterE
 4829      00
 4830 2c21 B9000000 		movl	$.LC1, %ecx
 4830      00
 4831 2c26 488D7C24 		leaq	64(%rsp), %rdi
 4831      40
 4832 2c2b 4531C0   		xorl	%r8d, %r8d
 4833 2c2e 4889CA   		movq	%rcx, %rdx
 4834 2c31 4889CE   		movq	%rcx, %rsi
 4835 2c34 E8000000 		call	_ZN8UnitTest11TestDetailsC1EPKcS2_S2_i
 4835      00
 4836 2c39 488D4C24 		leaq	64(%rsp), %rcx
 4836      40
 4837 2c3e 488D7C24 		leaq	32(%rsp), %rdi
 4837      20
 4838 2c43 BA000000 		movl	$_ZN12_GLOBAL__N_14txt1E, %edx
 4838      00
 4839 2c48 BE000000 		movl	$.LC65, %esi
 4839      00
 4840 2c4d E8000000 		call	_ZN8UnitTest10CheckEqualERNS_11TestResultsEPKcS3_RKNS_11TestDetailsE
 4840      00
 4841              	.LEHE105:
 4842              	.LEHB106:
 4843 2c52 E8000000 		call	_ZN8UnitTest11CurrentTest7DetailsEv
 4843      00
 4844 2c57 488B30   		movq	(%rax), %rsi
 4845 2c5a 488D7C24 		leaq	64(%rsp), %rdi
 4845      40
 4846 2c5f BA460000 		movl	$70, %edx
 4846      00
 4847 2c64 E8000000 		call	_ZN8UnitTest11TestDetailsC1ERKS0_i
 4847      00
 4848 2c69 488D7C24 		leaq	32(%rsp), %rdi
 4848      20
 4849 2c6e E8000000 		call	_ZNK8UnitTest11TestResults15GetFailureCountEv
 4849      00
 4850 2c73 89442410 		movl	%eax, 16(%rsp)
 4851 2c77 C7042400 		movl	$0, (%rsp)
 4851      000000
 4852 2c7e E8000000 		call	_ZN8UnitTest11CurrentTest7ResultsEv
 4852      00
 4853 2c83 488B38   		movq	(%rax), %rdi
 4854 2c86 488D4C24 		leaq	64(%rsp), %rcx
 4854      40
 4855 2c8b 488D5424 		leaq	16(%rsp), %rdx
 4855      10
 4856 2c90 4889E6   		movq	%rsp, %rsi
 4857 2c93 E8000000 		call	_ZN8UnitTest10CheckEqualIiiEEvRNS_11TestResultsERKT_RKT0_RKNS_11TestDetailsE
 4857      00
 4858              	.LEHE106:
 4859              	.L526:
 4860 2c98 4883C460 		addq	$96, %rsp
 4861              		.cfi_remember_state
 4862              		.cfi_def_cfa_offset 16
 4863 2c9c 5B       		popq	%rbx
 4864              		.cfi_def_cfa_offset 8
 4865 2c9d C3       		ret
 4866              	.L530:
 4867              		.cfi_restore_state
 4868 2c9e 4889C7   		movq	%rax, %rdi
 4869 2ca1 E8000000 		call	__cxa_begin_catch
 4869      00
 4870              	.LEHB107:
 4871 2ca6 E8000000 		call	_ZN8UnitTest11CurrentTest7DetailsEv
 4871      00
 4872 2cab 488B30   		movq	(%rax), %rsi
 4873 2cae 488D7C24 		leaq	64(%rsp), %rdi
 4873      40
 4874 2cb3 BA460000 		movl	$70, %edx
 4874      00
 4875 2cb8 E8000000 		call	_ZN8UnitTest11TestDetailsC1ERKS0_i
 4875      00
 4876 2cbd E8000000 		call	_ZN8UnitTest11CurrentTest7ResultsEv
 4876      00
 4877 2cc2 488B38   		movq	(%rax), %rdi
 4878 2cc5 488D7424 		leaq	64(%rsp), %rsi
 4878      40
 4879 2cca BA000000 		movl	$.LC51, %edx
 4879      00
 4880 2ccf E8000000 		call	_ZN8UnitTest11TestResults13OnTestFailureERKNS_11TestDetailsEPKc
 4880      00
 4881              	.LEHE107:
 4882              	.LEHB108:
 4883 2cd4 E8000000 		call	__cxa_end_catch
 4883      00
 4884              	.LEHE108:
 4885 2cd9 EBBD     		jmp	.L526
 4886              	.L531:
 4887 2cdb 4889C3   		movq	%rax, %rbx
 4888 2cde 6690     		.p2align 4,,5
 4889 2ce0 E8000000 		call	__cxa_end_catch
 4889      00
 4890 2ce5 4889DF   		movq	%rbx, %rdi
 4891              	.LEHB109:
 4892 2ce8 E8000000 		call	_Unwind_Resume
 4892      00
 4893              	.LEHE109:
 4894              		.cfi_endproc
 4895              	.LFE1112:
 4896              		.section	.gcc_except_table
 4897              		.align 4
 4898              	.LLSDA1112:
 4899 02cc FF       		.byte	0xff
 4900 02cd 03       		.byte	0x3
 4901 02ce 21       		.uleb128 .LLSDATT1112-.LLSDATTD1112
 4902              	.LLSDATTD1112:
 4903 02cf 01       		.byte	0x1
 4904 02d0 19       		.uleb128 .LLSDACSE1112-.LLSDACSB1112
 4905              	.LLSDACSB1112:
 4906 02d1 0C       		.uleb128 .LEHB105-.LFB1112
 4907 02d2 36       		.uleb128 .LEHE105-.LEHB105
 4908 02d3 00       		.uleb128 0
 4909 02d4 00       		.uleb128 0
 4910 02d5 42       		.uleb128 .LEHB106-.LFB1112
 4911 02d6 46       		.uleb128 .LEHE106-.LEHB106
 4912 02d7 8E01     		.uleb128 .L530-.LFB1112
 4913 02d9 01       		.uleb128 0x1
 4914 02da 9601     		.uleb128 .LEHB107-.LFB1112
 4915 02dc 2E       		.uleb128 .LEHE107-.LEHB107
 4916 02dd CB01     		.uleb128 .L531-.LFB1112
 4917 02df 00       		.uleb128 0
 4918 02e0 C401     		.uleb128 .LEHB108-.LFB1112
 4919 02e2 05       		.uleb128 .LEHE108-.LEHB108
 4920 02e3 00       		.uleb128 0
 4921 02e4 00       		.uleb128 0
 4922 02e5 D801     		.uleb128 .LEHB109-.LFB1112
 4923 02e7 05       		.uleb128 .LEHE109-.LEHB109
 4924 02e8 00       		.uleb128 0
 4925 02e9 00       		.uleb128 0
 4926              	.LLSDACSE1112:
 4927 02ea 01       		.byte	0x1
 4928 02eb 00       		.byte	0
 4929              		.align 4
 4930 02ec 00000000 		.long	0
 4931              	
 4932              	.LLSDATT1112:
 4933              		.text
 4935 2ced 90       		.align 2
 4936 2cee 6690     		.p2align 4,,15
 4938              	_ZNK12_GLOBAL__N_154TestCheckEqualsWithStringsWorksOnContentsConstNonConst7RunImplEv:
 4939              	.LFB1108:
 4940              		.cfi_startproc
 4941              		.cfi_personality 0x3,__gxx_personality_v0
 4942              		.cfi_lsda 0x3,.LLSDA1108
 4943 2cf0 53       		pushq	%rbx
 4944              		.cfi_def_cfa_offset 16
 4945              		.cfi_offset 3, -16
 4946 2cf1 31F6     		xorl	%esi, %esi
 4947 2cf3 4883EC60 		subq	$96, %rsp
 4948              		.cfi_def_cfa_offset 112
 4949 2cf7 488D7C24 		leaq	32(%rsp), %rdi
 4949      20
 4950              	.LEHB110:
 4951 2cfc E8000000 		call	_ZN8UnitTest11TestResultsC1EPNS_12TestReporterE
 4951      00
 4952 2d01 B9000000 		movl	$.LC1, %ecx
 4952      00
 4953 2d06 488D7C24 		leaq	64(%rsp), %rdi
 4953      40
 4954 2d0b 4531C0   		xorl	%r8d, %r8d
 4955 2d0e 4889CA   		movq	%rcx, %rdx
 4956 2d11 4889CE   		movq	%rcx, %rsi
 4957 2d14 E8000000 		call	_ZN8UnitTest11TestDetailsC1EPKcS2_S2_i
 4957      00
 4958 2d19 488D4C24 		leaq	64(%rsp), %rcx
 4958      40
 4959 2d1e 488D7C24 		leaq	32(%rsp), %rdi
 4959      20
 4960 2d23 BA000000 		movl	$_ZN12_GLOBAL__N_14txt2E, %edx
 4960      00
 4961 2d28 BE000000 		movl	$_ZN12_GLOBAL__N_14txt1E, %esi
 4961      00
 4962 2d2d E8000000 		call	_ZN8UnitTest10CheckEqualERNS_11TestResultsEPKcPcRKNS_11TestDetailsE
 4962      00
 4963              	.LEHE110:
 4964              	.LEHB111:
 4965 2d32 E8000000 		call	_ZN8UnitTest11CurrentTest7DetailsEv
 4965      00
 4966 2d37 488B30   		movq	(%rax), %rsi
 4967 2d3a 488D7C24 		leaq	64(%rsp), %rdi
 4967      40
 4968 2d3f BA3E0000 		movl	$62, %edx
 4968      00
 4969 2d44 E8000000 		call	_ZN8UnitTest11TestDetailsC1ERKS0_i
 4969      00
 4970 2d49 488D7C24 		leaq	32(%rsp), %rdi
 4970      20
 4971 2d4e E8000000 		call	_ZNK8UnitTest11TestResults15GetFailureCountEv
 4971      00
 4972 2d53 89442410 		movl	%eax, 16(%rsp)
 4973 2d57 C7042400 		movl	$0, (%rsp)
 4973      000000
 4974 2d5e E8000000 		call	_ZN8UnitTest11CurrentTest7ResultsEv
 4974      00
 4975 2d63 488B38   		movq	(%rax), %rdi
 4976 2d66 488D4C24 		leaq	64(%rsp), %rcx
 4976      40
 4977 2d6b 488D5424 		leaq	16(%rsp), %rdx
 4977      10
 4978 2d70 4889E6   		movq	%rsp, %rsi
 4979 2d73 E8000000 		call	_ZN8UnitTest10CheckEqualIiiEEvRNS_11TestResultsERKT_RKT0_RKNS_11TestDetailsE
 4979      00
 4980              	.LEHE111:
 4981              	.L533:
 4982 2d78 4883C460 		addq	$96, %rsp
 4983              		.cfi_remember_state
 4984              		.cfi_def_cfa_offset 16
 4985 2d7c 5B       		popq	%rbx
 4986              		.cfi_def_cfa_offset 8
 4987 2d7d C3       		ret
 4988              	.L537:
 4989              		.cfi_restore_state
 4990 2d7e 4889C7   		movq	%rax, %rdi
 4991 2d81 E8000000 		call	__cxa_begin_catch
 4991      00
 4992              	.LEHB112:
 4993 2d86 E8000000 		call	_ZN8UnitTest11CurrentTest7DetailsEv
 4993      00
 4994 2d8b 488B30   		movq	(%rax), %rsi
 4995 2d8e 488D7C24 		leaq	64(%rsp), %rdi
 4995      40
 4996 2d93 BA3E0000 		movl	$62, %edx
 4996      00
 4997 2d98 E8000000 		call	_ZN8UnitTest11TestDetailsC1ERKS0_i
 4997      00
 4998 2d9d E8000000 		call	_ZN8UnitTest11CurrentTest7ResultsEv
 4998      00
 4999 2da2 488B38   		movq	(%rax), %rdi
 5000 2da5 488D7424 		leaq	64(%rsp), %rsi
 5000      40
 5001 2daa BA000000 		movl	$.LC51, %edx
 5001      00
 5002 2daf E8000000 		call	_ZN8UnitTest11TestResults13OnTestFailureERKNS_11TestDetailsEPKc
 5002      00
 5003              	.LEHE112:
 5004              	.LEHB113:
 5005 2db4 E8000000 		call	__cxa_end_catch
 5005      00
 5006              	.LEHE113:
 5007 2db9 EBBD     		jmp	.L533
 5008              	.L538:
 5009 2dbb 4889C3   		movq	%rax, %rbx
 5010 2dbe 6690     		.p2align 4,,5
 5011 2dc0 E8000000 		call	__cxa_end_catch
 5011      00
 5012 2dc5 4889DF   		movq	%rbx, %rdi
 5013              	.LEHB114:
 5014 2dc8 E8000000 		call	_Unwind_Resume
 5014      00
 5015              	.LEHE114:
 5016              		.cfi_endproc
 5017              	.LFE1108:
 5018              		.section	.gcc_except_table
 5019              		.align 4
 5020              	.LLSDA1108:
 5021 02f0 FF       		.byte	0xff
 5022 02f1 03       		.byte	0x3
 5023 02f2 21       		.uleb128 .LLSDATT1108-.LLSDATTD1108
 5024              	.LLSDATTD1108:
 5025 02f3 01       		.byte	0x1
 5026 02f4 19       		.uleb128 .LLSDACSE1108-.LLSDACSB1108
 5027              	.LLSDACSB1108:
 5028 02f5 0C       		.uleb128 .LEHB110-.LFB1108
 5029 02f6 36       		.uleb128 .LEHE110-.LEHB110
 5030 02f7 00       		.uleb128 0
 5031 02f8 00       		.uleb128 0
 5032 02f9 42       		.uleb128 .LEHB111-.LFB1108
 5033 02fa 46       		.uleb128 .LEHE111-.LEHB111
 5034 02fb 8E01     		.uleb128 .L537-.LFB1108
 5035 02fd 01       		.uleb128 0x1
 5036 02fe 9601     		.uleb128 .LEHB112-.LFB1108
 5037 0300 2E       		.uleb128 .LEHE112-.LEHB112
 5038 0301 CB01     		.uleb128 .L538-.LFB1108
 5039 0303 00       		.uleb128 0
 5040 0304 C401     		.uleb128 .LEHB113-.LFB1108
 5041 0306 05       		.uleb128 .LEHE113-.LEHB113
 5042 0307 00       		.uleb128 0
 5043 0308 00       		.uleb128 0
 5044 0309 D801     		.uleb128 .LEHB114-.LFB1108
 5045 030b 05       		.uleb128 .LEHE114-.LEHB114
 5046 030c 00       		.uleb128 0
 5047 030d 00       		.uleb128 0
 5048              	.LLSDACSE1108:
 5049 030e 01       		.byte	0x1
 5050 030f 00       		.byte	0
 5051              		.align 4
 5052 0310 00000000 		.long	0
 5053              	
 5054              	.LLSDATT1108:
 5055              		.text
 5057 2dcd 90       		.align 2
 5058 2dce 6690     		.p2align 4,,15
