   1              		.file	"TestTestResults.cpp"
   2              		.section	.text._ZN17RecordingReporter13ReportSummaryEiiif,"axG",@progbits,_ZN17RecordingReporter13
   3              		.align 2
   4              		.p2align 4,,15
   5              		.weak	_ZN17RecordingReporter13ReportSummaryEiiif
   7              	_ZN17RecordingReporter13ReportSummaryEiiif:
   8              	.LFB1084:
   9              		.cfi_startproc
  10 0000 89B71C08 		movl	%esi, 2076(%rdi)
  10      0000
  11 0006 89972008 		movl	%edx, 2080(%rdi)
  11      0000
  12 000c F30F1187 		movss	%xmm0, 2088(%rdi)
  12      28080000 
  13 0014 898F2408 		movl	%ecx, 2084(%rdi)
  13      0000
  14 001a C3       		ret
  15              		.cfi_endproc
  16              	.LFE1084:
  18              		.section	.text._ZN17RecordingReporter15ReportTestStartERKN8UnitTest11TestDetailsE,"axG",@progbits,
  19              		.align 2
  20              		.p2align 4,,15
  21              		.weak	_ZN17RecordingReporter15ReportTestStartERKN8UnitTest11TestDetailsE
  23              	_ZN17RecordingReporter15ReportTestStartERKN8UnitTest11TestDetailsE:
  24              	.LFB1081:
  25              		.cfi_startproc
  26 0000 55       		pushq	%rbp
  27              		.cfi_def_cfa_offset 16
  28              		.cfi_offset 6, -16
  29 0001 4889F5   		movq	%rsi, %rbp
  30 0004 BA000100 		movl	$256, %edx
  30      00
  31 0009 53       		pushq	%rbx
  32              		.cfi_def_cfa_offset 24
  33              		.cfi_offset 3, -24
  34 000a 4889FB   		movq	%rdi, %rbx
  35 000d 4883EC08 		subq	$8, %rsp
  36              		.cfi_def_cfa_offset 32
  37 0011 83470801 		addl	$1, 8(%rdi)
  38 0015 488B36   		movq	(%rsi), %rsi
  39 0018 488D7F0C 		leaq	12(%rdi), %rdi
  40 001c E8000000 		call	__strcpy_chk
  40      00
  41 0021 488B7508 		movq	8(%rbp), %rsi
  42 0025 4883C408 		addq	$8, %rsp
  43              		.cfi_def_cfa_offset 24
  44 0029 488DBB0C 		leaq	268(%rbx), %rdi
  44      010000
  45 0030 5B       		popq	%rbx
  46              		.cfi_def_cfa_offset 16
  47 0031 5D       		popq	%rbp
  48              		.cfi_def_cfa_offset 8
  49 0032 BA000100 		movl	$256, %edx
  49      00
  50 0037 E9000000 		jmp	__strcpy_chk
  50      00
  51              		.cfi_endproc
  52              	.LFE1081:
  54              		.section	.text._ZN17RecordingReporter13ReportFailureERKN8UnitTest11TestDetailsEPKc,"axG",@progbits
  55              		.align 2
  56              		.p2align 4,,15
  57              		.weak	_ZN17RecordingReporter13ReportFailureERKN8UnitTest11TestDetailsEPKc
  59              	_ZN17RecordingReporter13ReportFailureERKN8UnitTest11TestDetailsEPKc:
  60              	.LFB1082:
  61              		.cfi_startproc
  62 0000 4154     		pushq	%r12
  63              		.cfi_def_cfa_offset 16
  64              		.cfi_offset 12, -16
  65 0002 4989D4   		movq	%rdx, %r12
  66 0005 BA000100 		movl	$256, %edx
  66      00
  67 000a 55       		pushq	%rbp
  68              		.cfi_def_cfa_offset 24
  69              		.cfi_offset 6, -24
  70 000b 4889F5   		movq	%rsi, %rbp
  71 000e 53       		pushq	%rbx
  72              		.cfi_def_cfa_offset 32
  73              		.cfi_offset 3, -32
  74 000f 83870C02 		addl	$1, 524(%rdi)
  74      000001
  75 0016 4889FB   		movq	%rdi, %rbx
  76 0019 488B7610 		movq	16(%rsi), %rsi
  77 001d 488DBF10 		leaq	528(%rdi), %rdi
  77      020000
  78 0024 E8000000 		call	__strcpy_chk
  78      00
  79 0029 8B4518   		movl	24(%rbp), %eax
  80 002c 488B7500 		movq	0(%rbp), %rsi
  81 0030 488DBB14 		leaq	788(%rbx), %rdi
  81      030000
  82 0037 BA000100 		movl	$256, %edx
  82      00
  83 003c 89831003 		movl	%eax, 784(%rbx)
  83      0000
  84 0042 E8000000 		call	__strcpy_chk
  84      00
  85 0047 488B7508 		movq	8(%rbp), %rsi
  86 004b 488DBB14 		leaq	1044(%rbx), %rdi
  86      040000
  87 0052 BA000100 		movl	$256, %edx
  87      00
  88 0057 E8000000 		call	__strcpy_chk
  88      00
  89 005c 488DBB14 		leaq	1300(%rbx), %rdi
  89      050000
  90 0063 4C89E6   		movq	%r12, %rsi
  91 0066 BA000100 		movl	$256, %edx
  91      00
  92 006b 5B       		popq	%rbx
  93              		.cfi_def_cfa_offset 24
  94 006c 5D       		popq	%rbp
  95              		.cfi_def_cfa_offset 16
  96 006d 415C     		popq	%r12
  97              		.cfi_def_cfa_offset 8
  98 006f E9000000 		jmp	__strcpy_chk
  98      00
  99              		.cfi_endproc
 100              	.LFE1082:
 102              		.section	.text._ZN17RecordingReporter16ReportTestFinishERKN8UnitTest11TestDetailsEf,"axG",@progbit
 103              		.align 2
 104              		.p2align 4,,15
 105              		.weak	_ZN17RecordingReporter16ReportTestFinishERKN8UnitTest11TestDetailsEf
 107              	_ZN17RecordingReporter16ReportTestFinishERKN8UnitTest11TestDetailsEf:
 108              	.LFB1083:
 109              		.cfi_startproc
 110 0000 55       		pushq	%rbp
 111              		.cfi_def_cfa_offset 16
 112              		.cfi_offset 6, -16
 113 0001 4889F5   		movq	%rsi, %rbp
 114 0004 BA000100 		movl	$256, %edx
 114      00
 115 0009 53       		pushq	%rbx
 116              		.cfi_def_cfa_offset 24
 117              		.cfi_offset 3, -24
 118 000a 4889FB   		movq	%rdi, %rbx
 119 000d 4883EC18 		subq	$24, %rsp
 120              		.cfi_def_cfa_offset 48
 121 0011 83871406 		addl	$1, 1556(%rdi)
 121      000001
 122 0018 488B36   		movq	(%rsi), %rsi
 123 001b 488DBF18 		leaq	1560(%rdi), %rdi
 123      060000
 124 0022 F30F1144 		movss	%xmm0, 12(%rsp)
 124      240C
 125 0028 E8000000 		call	__strcpy_chk
 125      00
 126 002d 488B7508 		movq	8(%rbp), %rsi
 127 0031 488DBB18 		leaq	1816(%rbx), %rdi
 127      070000
 128 0038 BA000100 		movl	$256, %edx
 128      00
 129 003d E8000000 		call	__strcpy_chk
 129      00
 130 0042 F30F1044 		movss	12(%rsp), %xmm0
 130      240C
 131 0048 F30F1183 		movss	%xmm0, 2072(%rbx)
 131      18080000 
 132 0050 4883C418 		addq	$24, %rsp
 133              		.cfi_def_cfa_offset 24
 134 0054 5B       		popq	%rbx
 135              		.cfi_def_cfa_offset 16
 136 0055 5D       		popq	%rbp
 137              		.cfi_def_cfa_offset 8
 138 0056 C3       		ret
 139              		.cfi_endproc
 140              	.LFE1083:
 142              		.section	.text._ZN17RecordingReporterD2Ev,"axG",@progbits,_ZN17RecordingReporterD5Ev,comdat
 143              		.align 2
 144              		.p2align 4,,15
 145              		.weak	_ZN17RecordingReporterD2Ev
 147              	_ZN17RecordingReporterD2Ev:
 148              	.LFB1241:
 149              		.cfi_startproc
 150 0000 48C70700 		movq	$_ZTV17RecordingReporter+16, (%rdi)
 150      000000
 151 0007 E9000000 		jmp	_ZN8UnitTest12TestReporterD2Ev
 151      00
 152              		.cfi_endproc
 153              	.LFE1241:
 155              		.weak	_ZN17RecordingReporterD1Ev
 156              		.set	_ZN17RecordingReporterD1Ev,_ZN17RecordingReporterD2Ev
 157              		.section	.text._ZN17RecordingReporterD0Ev,"axG",@progbits,_ZN17RecordingReporterD0Ev,comdat
 158              		.align 2
 159              		.p2align 4,,15
 160              		.weak	_ZN17RecordingReporterD0Ev
 162              	_ZN17RecordingReporterD0Ev:
 163              	.LFB1243:
 164              		.cfi_startproc
 165 0000 53       		pushq	%rbx
 166              		.cfi_def_cfa_offset 16
 167              		.cfi_offset 3, -16
 168 0001 4889FB   		movq	%rdi, %rbx
 169 0004 48C70700 		movq	$_ZTV17RecordingReporter+16, (%rdi)
 169      000000
 170 000b E8000000 		call	_ZN8UnitTest12TestReporterD2Ev
 170      00
 171 0010 4889DF   		movq	%rbx, %rdi
 172 0013 5B       		popq	%rbx
 173              		.cfi_def_cfa_offset 8
 174 0014 E9000000 		jmp	_ZdlPv
 174      00
 175              		.cfi_endproc
 176              	.LFE1243:
 178              		.text
 179              		.align 2
 180              		.p2align 4,,15
 182              	_ZN12_GLOBAL__N_129TestNotifiesReporterOfTestEndD2Ev:
 183              	.LFB1205:
 184              		.cfi_startproc
 185 0000 48C70700 		movq	$_ZTVN12_GLOBAL__N_129TestNotifiesReporterOfTestEndE+16, (%rdi)
 185      000000
 186 0007 E9000000 		jmp	_ZN8UnitTest4TestD2Ev
 186      00
 187              		.cfi_endproc
 188              	.LFE1205:
 190              		.set	_ZN12_GLOBAL__N_129TestNotifiesReporterOfTestEndD1Ev,_ZN12_GLOBAL__N_129TestNotifiesReporterO
 191              		.align 2
 192 000c 0F1F4000 		.p2align 4,,15
 194              	_ZN12_GLOBAL__N_129TestNotifiesReporterOfTestEndD0Ev:
 195              	.LFB1207:
 196              		.cfi_startproc
 197 0010 53       		pushq	%rbx
 198              		.cfi_def_cfa_offset 16
 199              		.cfi_offset 3, -16
 200 0011 4889FB   		movq	%rdi, %rbx
 201 0014 48C70700 		movq	$_ZTVN12_GLOBAL__N_129TestNotifiesReporterOfTestEndE+16, (%rdi)
 201      000000
 202 001b E8000000 		call	_ZN8UnitTest4TestD2Ev
 202      00
 203 0020 4889DF   		movq	%rbx, %rdi
 204 0023 5B       		popq	%rbx
 205              		.cfi_def_cfa_offset 8
 206 0024 E9000000 		jmp	_ZdlPv
 206      00
 207              		.cfi_endproc
 208              	.LFE1207:
 210 0029 90       		.align 2
 211 002a 660F1F44 		.p2align 4,,15
 211      0000
 213              	_ZN12_GLOBAL__N_149TestNotifiesReporterOfCheckFailureWithCorrectInfoD2Ev:
 214              	.LFB1209:
 215              		.cfi_startproc
 216 0030 48C70700 		movq	$_ZTVN12_GLOBAL__N_149TestNotifiesReporterOfCheckFailureWithCorrectInfoE+16, (%rdi)
 216      000000
 217 0037 E9000000 		jmp	_ZN8UnitTest4TestD2Ev
 217      00
 218              		.cfi_endproc
 219              	.LFE1209:
 221              		.set	_ZN12_GLOBAL__N_149TestNotifiesReporterOfCheckFailureWithCorrectInfoD1Ev,_ZN12_GLOBAL__N_149T
 222              		.align 2
 223 003c 0F1F4000 		.p2align 4,,15
 225              	_ZN12_GLOBAL__N_149TestNotifiesReporterOfCheckFailureWithCorrectInfoD0Ev:
 226              	.LFB1211:
 227              		.cfi_startproc
 228 0040 53       		pushq	%rbx
 229              		.cfi_def_cfa_offset 16
 230              		.cfi_offset 3, -16
 231 0041 4889FB   		movq	%rdi, %rbx
 232 0044 48C70700 		movq	$_ZTVN12_GLOBAL__N_149TestNotifiesReporterOfCheckFailureWithCorrectInfoE+16, (%rdi)
 232      000000
 233 004b E8000000 		call	_ZN8UnitTest4TestD2Ev
 233      00
 234 0050 4889DF   		movq	%rbx, %rdi
 235 0053 5B       		popq	%rbx
 236              		.cfi_def_cfa_offset 8
 237 0054 E9000000 		jmp	_ZdlPv
 237      00
 238              		.cfi_endproc
 239              	.LFE1211:
 241 0059 90       		.align 2
 242 005a 660F1F44 		.p2align 4,,15
 242      0000
 244              	_ZN12_GLOBAL__N_148TestNotifiesReporterOfTestFailureWithCorrectInfoD2Ev:
 245              	.LFB1213:
 246              		.cfi_startproc
 247 0060 48C70700 		movq	$_ZTVN12_GLOBAL__N_148TestNotifiesReporterOfTestFailureWithCorrectInfoE+16, (%rdi)
 247      000000
 248 0067 E9000000 		jmp	_ZN8UnitTest4TestD2Ev
 248      00
 249              		.cfi_endproc
 250              	.LFE1213:
 252              		.set	_ZN12_GLOBAL__N_148TestNotifiesReporterOfTestFailureWithCorrectInfoD1Ev,_ZN12_GLOBAL__N_148Te
 253              		.align 2
 254 006c 0F1F4000 		.p2align 4,,15
 256              	_ZN12_GLOBAL__N_148TestNotifiesReporterOfTestFailureWithCorrectInfoD0Ev:
 257              	.LFB1215:
 258              		.cfi_startproc
 259 0070 53       		pushq	%rbx
 260              		.cfi_def_cfa_offset 16
 261              		.cfi_offset 3, -16
 262 0071 4889FB   		movq	%rdi, %rbx
 263 0074 48C70700 		movq	$_ZTVN12_GLOBAL__N_148TestNotifiesReporterOfTestFailureWithCorrectInfoE+16, (%rdi)
 263      000000
 264 007b E8000000 		call	_ZN8UnitTest4TestD2Ev
 264      00
 265 0080 4889DF   		movq	%rbx, %rdi
 266 0083 5B       		popq	%rbx
 267              		.cfi_def_cfa_offset 8
 268 0084 E9000000 		jmp	_ZdlPv
 268      00
 269              		.cfi_endproc
 270              	.LFE1215:
 272 0089 90       		.align 2
 273 008a 660F1F44 		.p2align 4,,15
 273      0000
 275              	_ZN12_GLOBAL__N_146TestNotifiesReporterOfTestStartWithCorrectInfoD2Ev:
 276              	.LFB1217:
 277              		.cfi_startproc
 278 0090 48C70700 		movq	$_ZTVN12_GLOBAL__N_146TestNotifiesReporterOfTestStartWithCorrectInfoE+16, (%rdi)
 278      000000
 279 0097 E9000000 		jmp	_ZN8UnitTest4TestD2Ev
 279      00
 280              		.cfi_endproc
 281              	.LFE1217:
 283              		.set	_ZN12_GLOBAL__N_146TestNotifiesReporterOfTestStartWithCorrectInfoD1Ev,_ZN12_GLOBAL__N_146Test
 284              		.align 2
 285 009c 0F1F4000 		.p2align 4,,15
 287              	_ZN12_GLOBAL__N_146TestNotifiesReporterOfTestStartWithCorrectInfoD0Ev:
 288              	.LFB1219:
 289              		.cfi_startproc
 290 00a0 53       		pushq	%rbx
 291              		.cfi_def_cfa_offset 16
 292              		.cfi_offset 3, -16
 293 00a1 4889FB   		movq	%rdi, %rbx
 294 00a4 48C70700 		movq	$_ZTVN12_GLOBAL__N_146TestNotifiesReporterOfTestStartWithCorrectInfoE+16, (%rdi)
 294      000000
 295 00ab E8000000 		call	_ZN8UnitTest4TestD2Ev
 295      00
 296 00b0 4889DF   		movq	%rbx, %rdi
 297 00b3 5B       		popq	%rbx
 298              		.cfi_def_cfa_offset 8
 299 00b4 E9000000 		jmp	_ZdlPv
 299      00
 300              		.cfi_endproc
 301              	.LFE1219:
 303 00b9 90       		.align 2
 304 00ba 660F1F44 		.p2align 4,,15
 304      0000
 306              	_ZN12_GLOBAL__N_130TestRecordsNumberOfFailedTestsD2Ev:
 307              	.LFB1221:
 308              		.cfi_startproc
 309 00c0 48C70700 		movq	$_ZTVN12_GLOBAL__N_130TestRecordsNumberOfFailedTestsE+16, (%rdi)
 309      000000
 310 00c7 E9000000 		jmp	_ZN8UnitTest4TestD2Ev
 310      00
 311              		.cfi_endproc
 312              	.LFE1221:
 314              		.set	_ZN12_GLOBAL__N_130TestRecordsNumberOfFailedTestsD1Ev,_ZN12_GLOBAL__N_130TestRecordsNumberOfF
 315              		.align 2
 316 00cc 0F1F4000 		.p2align 4,,15
 318              	_ZN12_GLOBAL__N_130TestRecordsNumberOfFailedTestsD0Ev:
 319              	.LFB1223:
 320              		.cfi_startproc
 321 00d0 53       		pushq	%rbx
 322              		.cfi_def_cfa_offset 16
 323              		.cfi_offset 3, -16
 324 00d1 4889FB   		movq	%rdi, %rbx
 325 00d4 48C70700 		movq	$_ZTVN12_GLOBAL__N_130TestRecordsNumberOfFailedTestsE+16, (%rdi)
 325      000000
 326 00db E8000000 		call	_ZN8UnitTest4TestD2Ev
 326      00
 327 00e0 4889DF   		movq	%rbx, %rdi
 328 00e3 5B       		popq	%rbx
 329              		.cfi_def_cfa_offset 8
 330 00e4 E9000000 		jmp	_ZdlPv
 330      00
 331              		.cfi_endproc
 332              	.LFE1223:
 334 00e9 90       		.align 2
 335 00ea 660F1F44 		.p2align 4,,15
 335      0000
 337              	_ZN12_GLOBAL__N_127TestRecordsNumberOfFailuresD2Ev:
 338              	.LFB1225:
 339              		.cfi_startproc
 340 00f0 48C70700 		movq	$_ZTVN12_GLOBAL__N_127TestRecordsNumberOfFailuresE+16, (%rdi)
 340      000000
 341 00f7 E9000000 		jmp	_ZN8UnitTest4TestD2Ev
 341      00
 342              		.cfi_endproc
 343              	.LFE1225:
 345              		.set	_ZN12_GLOBAL__N_127TestRecordsNumberOfFailuresD1Ev,_ZN12_GLOBAL__N_127TestRecordsNumberOfFail
 346              		.align 2
 347 00fc 0F1F4000 		.p2align 4,,15
 349              	_ZN12_GLOBAL__N_127TestRecordsNumberOfFailuresD0Ev:
 350              	.LFB1227:
 351              		.cfi_startproc
 352 0100 53       		pushq	%rbx
 353              		.cfi_def_cfa_offset 16
 354              		.cfi_offset 3, -16
 355 0101 4889FB   		movq	%rdi, %rbx
 356 0104 48C70700 		movq	$_ZTVN12_GLOBAL__N_127TestRecordsNumberOfFailuresE+16, (%rdi)
 356      000000
 357 010b E8000000 		call	_ZN8UnitTest4TestD2Ev
 357      00
 358 0110 4889DF   		movq	%rbx, %rdi
 359 0113 5B       		popq	%rbx
 360              		.cfi_def_cfa_offset 8
 361 0114 E9000000 		jmp	_ZdlPv
 361      00
 362              		.cfi_endproc
 363              	.LFE1227:
 365 0119 90       		.align 2
 366 011a 660F1F44 		.p2align 4,,15
 366      0000
 368              	_ZN12_GLOBAL__N_128TestStartsWithNoTestsFailingD2Ev:
 369              	.LFB1229:
 370              		.cfi_startproc
 371 0120 48C70700 		movq	$_ZTVN12_GLOBAL__N_128TestStartsWithNoTestsFailingE+16, (%rdi)
 371      000000
 372 0127 E9000000 		jmp	_ZN8UnitTest4TestD2Ev
 372      00
 373              		.cfi_endproc
 374              	.LFE1229:
 376              		.set	_ZN12_GLOBAL__N_128TestStartsWithNoTestsFailingD1Ev,_ZN12_GLOBAL__N_128TestStartsWithNoTestsF
 377              		.align 2
 378 012c 0F1F4000 		.p2align 4,,15
 380              	_ZN12_GLOBAL__N_128TestStartsWithNoTestsFailingD0Ev:
 381              	.LFB1231:
 382              		.cfi_startproc
 383 0130 53       		pushq	%rbx
 384              		.cfi_def_cfa_offset 16
 385              		.cfi_offset 3, -16
 386 0131 4889FB   		movq	%rdi, %rbx
 387 0134 48C70700 		movq	$_ZTVN12_GLOBAL__N_128TestStartsWithNoTestsFailingE+16, (%rdi)
 387      000000
 388 013b E8000000 		call	_ZN8UnitTest4TestD2Ev
 388      00
 389 0140 4889DF   		movq	%rbx, %rdi
 390 0143 5B       		popq	%rbx
 391              		.cfi_def_cfa_offset 8
 392 0144 E9000000 		jmp	_ZdlPv
 392      00
 393              		.cfi_endproc
 394              	.LFE1231:
 396 0149 90       		.align 2
 397 014a 660F1F44 		.p2align 4,,15
 397      0000
 399              	_ZN12_GLOBAL__N_125TestRecordsNumbersOfTestsD2Ev:
 400              	.LFB1233:
 401              		.cfi_startproc
 402 0150 48C70700 		movq	$_ZTVN12_GLOBAL__N_125TestRecordsNumbersOfTestsE+16, (%rdi)
 402      000000
 403 0157 E9000000 		jmp	_ZN8UnitTest4TestD2Ev
 403      00
 404              		.cfi_endproc
 405              	.LFE1233:
 407              		.set	_ZN12_GLOBAL__N_125TestRecordsNumbersOfTestsD1Ev,_ZN12_GLOBAL__N_125TestRecordsNumbersOfTests
 408              		.align 2
 409 015c 0F1F4000 		.p2align 4,,15
 411              	_ZN12_GLOBAL__N_125TestRecordsNumbersOfTestsD0Ev:
 412              	.LFB1235:
 413              		.cfi_startproc
 414 0160 53       		pushq	%rbx
 415              		.cfi_def_cfa_offset 16
 416              		.cfi_offset 3, -16
 417 0161 4889FB   		movq	%rdi, %rbx
 418 0164 48C70700 		movq	$_ZTVN12_GLOBAL__N_125TestRecordsNumbersOfTestsE+16, (%rdi)
 418      000000
 419 016b E8000000 		call	_ZN8UnitTest4TestD2Ev
 419      00
 420 0170 4889DF   		movq	%rbx, %rdi
 421 0173 5B       		popq	%rbx
 422              		.cfi_def_cfa_offset 8
 423 0174 E9000000 		jmp	_ZdlPv
 423      00
 424              		.cfi_endproc
 425              	.LFE1235:
 427 0179 90       		.align 2
 428 017a 660F1F44 		.p2align 4,,15
 428      0000
 430              	_ZN12_GLOBAL__N_124TestStartsWithNoTestsRunD2Ev:
 431              	.LFB1237:
 432              		.cfi_startproc
 433 0180 48C70700 		movq	$_ZTVN12_GLOBAL__N_124TestStartsWithNoTestsRunE+16, (%rdi)
 433      000000
 434 0187 E9000000 		jmp	_ZN8UnitTest4TestD2Ev
 434      00
 435              		.cfi_endproc
 436              	.LFE1237:
 438              		.set	_ZN12_GLOBAL__N_124TestStartsWithNoTestsRunD1Ev,_ZN12_GLOBAL__N_124TestStartsWithNoTestsRunD2
 439              		.align 2
 440 018c 0F1F4000 		.p2align 4,,15
 442              	_ZN12_GLOBAL__N_124TestStartsWithNoTestsRunD0Ev:
 443              	.LFB1239:
 444              		.cfi_startproc
 445 0190 53       		pushq	%rbx
 446              		.cfi_def_cfa_offset 16
 447              		.cfi_offset 3, -16
 448 0191 4889FB   		movq	%rdi, %rbx
 449 0194 48C70700 		movq	$_ZTVN12_GLOBAL__N_124TestStartsWithNoTestsRunE+16, (%rdi)
 449      000000
 450 019b E8000000 		call	_ZN8UnitTest4TestD2Ev
 450      00
 451 01a0 4889DF   		movq	%rbx, %rdi
 452 01a3 5B       		popq	%rbx
 453              		.cfi_def_cfa_offset 8
 454 01a4 E9000000 		jmp	_ZdlPv
 454      00
 455              		.cfi_endproc
 456              	.LFE1239:
 458              		.section	.text.unlikely,"ax",@progbits
 460              	_ZStlsISt11char_traitsIcEERSt13basic_ostreamIcT_ES5_PKc.part.1:
 461              	.LFB1247:
 462              		.cfi_startproc
 463 0000 50       		pushq	%rax
 464              		.cfi_def_cfa_offset 16
 465 0001 488B07   		movq	(%rdi), %rax
 466 0004 480378E8 		addq	-24(%rax), %rdi
 467 0008 8B7720   		movl	32(%rdi), %esi
 468 000b 83CE01   		orl	$1, %esi
 469 000e E8000000 		call	_ZNSt9basic_iosIcSt11char_traitsIcEE5clearESt12_Ios_Iostate
 469      00
 470 0013 5A       		popq	%rdx
 471              		.cfi_def_cfa_offset 8
 472 0014 C3       		ret
 473              		.cfi_endproc
 474              	.LFE1247:
 476              		.section	.text._ZNSt15basic_stringbufIcSt11char_traitsIcESaIcEED2Ev,"axG",@progbits,_ZNSt15basic_s
 477              		.align 2
 478              		.p2align 4,,15
 479              		.weak	_ZNSt15basic_stringbufIcSt11char_traitsIcESaIcEED2Ev
 481              	_ZNSt15basic_stringbufIcSt11char_traitsIcESaIcEED2Ev:
 482              	.LFB1130:
 483              		.cfi_startproc
 484 0000 53       		pushq	%rbx
 485              		.cfi_def_cfa_offset 16
 486              		.cfi_offset 3, -16
 487 0001 4889FB   		movq	%rdi, %rbx
 488 0004 4883EC10 		subq	$16, %rsp
 489              		.cfi_def_cfa_offset 32
 490 0008 488B4748 		movq	72(%rdi), %rax
 491 000c 48C70700 		movq	$_ZTVSt15basic_stringbufIcSt11char_traitsIcESaIcEE+16, (%rdi)
 491      000000
 492 0013 488D78E8 		leaq	-24(%rax), %rdi
 493 0017 4881FF00 		cmpq	$_ZNSs4_Rep20_S_empty_rep_storageE, %rdi
 493      000000
 494 001e 7516     		jne	.L48
 495              	.L42:
 496 0020 488D7B38 		leaq	56(%rbx), %rdi
 497 0024 48C70300 		movq	$_ZTVSt15basic_streambufIcSt11char_traitsIcEE+16, (%rbx)
 497      000000
 498 002b E8000000 		call	_ZNSt6localeD1Ev
 498      00
 499 0030 4883C410 		addq	$16, %rsp
 500              		.cfi_remember_state
 501              		.cfi_def_cfa_offset 16
 502 0034 5B       		popq	%rbx
 503              		.cfi_def_cfa_offset 8
 504 0035 C3       		ret
 505              	.L48:
 506              		.cfi_restore_state
 507 0036 B9000000 		movl	$_ZL28__gthrw___pthread_key_createPjPFvPvE, %ecx
 507      00
 508 003b 488D5710 		leaq	16(%rdi), %rdx
 509 003f 4885C9   		testq	%rcx, %rcx
 510 0042 7417     		je	.L43
 511 0044 83C8FF   		orl	$-1, %eax
 512 0047 F00FC102 		lock xaddl	%eax, (%rdx)
 513              	.L44:
 514 004b 85C0     		testl	%eax, %eax
 515 004d 7FD1     		jg	.L42
 516 004f 488D7424 		leaq	15(%rsp), %rsi
 516      0F
 517 0054 E8000000 		call	_ZNSs4_Rep10_M_destroyERKSaIcE
 517      00
 518 0059 EBC5     		jmp	.L42
 519              	.L43:
 520 005b 8B50F8   		movl	-8(%rax), %edx
 521 005e 8D4AFF   		leal	-1(%rdx), %ecx
 522 0061 8948F8   		movl	%ecx, -8(%rax)
 523 0064 89D0     		movl	%edx, %eax
 524 0066 EBE3     		jmp	.L44
 525              		.cfi_endproc
 526              	.LFE1130:
 528              		.weak	_ZNSt15basic_stringbufIcSt11char_traitsIcESaIcEED1Ev
 529              		.set	_ZNSt15basic_stringbufIcSt11char_traitsIcESaIcEED1Ev,_ZNSt15basic_stringbufIcSt11char_traitsI
 530              		.section	.text._ZNSt15basic_stringbufIcSt11char_traitsIcESaIcEED0Ev,"axG",@progbits,_ZNSt15basic_s
 531              		.align 2
 532              		.p2align 4,,15
 533              		.weak	_ZNSt15basic_stringbufIcSt11char_traitsIcESaIcEED0Ev
 535              	_ZNSt15basic_stringbufIcSt11char_traitsIcESaIcEED0Ev:
 536              	.LFB1132:
 537              		.cfi_startproc
 538 0000 53       		pushq	%rbx
 539              		.cfi_def_cfa_offset 16
 540              		.cfi_offset 3, -16
 541 0001 4889FB   		movq	%rdi, %rbx
 542 0004 4883EC10 		subq	$16, %rsp
 543              		.cfi_def_cfa_offset 32
 544 0008 488B4748 		movq	72(%rdi), %rax
 545 000c 48C70700 		movq	$_ZTVSt15basic_stringbufIcSt11char_traitsIcESaIcEE+16, (%rdi)
 545      000000
 546 0013 488D78E8 		leaq	-24(%rax), %rdi
 547 0017 4881FF00 		cmpq	$_ZNSs4_Rep20_S_empty_rep_storageE, %rdi
 547      000000
 548 001e 751E     		jne	.L56
 549              	.L51:
 550 0020 488D7B38 		leaq	56(%rbx), %rdi
 551 0024 48C70300 		movq	$_ZTVSt15basic_streambufIcSt11char_traitsIcEE+16, (%rbx)
 551      000000
 552 002b E8000000 		call	_ZNSt6localeD1Ev
 552      00
 553 0030 4889DF   		movq	%rbx, %rdi
 554 0033 E8000000 		call	_ZdlPv
 554      00
 555 0038 4883C410 		addq	$16, %rsp
 556              		.cfi_remember_state
 557              		.cfi_def_cfa_offset 16
 558 003c 5B       		popq	%rbx
 559              		.cfi_def_cfa_offset 8
 560 003d C3       		ret
 561              	.L56:
 562              		.cfi_restore_state
 563 003e B9000000 		movl	$_ZL28__gthrw___pthread_key_createPjPFvPvE, %ecx
 563      00
 564 0043 488D5710 		leaq	16(%rdi), %rdx
 565 0047 4885C9   		testq	%rcx, %rcx
 566 004a 7417     		je	.L52
 567 004c 83C8FF   		orl	$-1, %eax
 568 004f F00FC102 		lock xaddl	%eax, (%rdx)
 569              	.L53:
 570 0053 85C0     		testl	%eax, %eax
 571 0055 7FC9     		jg	.L51
 572 0057 488D7424 		leaq	15(%rsp), %rsi
 572      0F
 573 005c E8000000 		call	_ZNSs4_Rep10_M_destroyERKSaIcE
 573      00
 574 0061 EBBD     		jmp	.L51
 575              	.L52:
 576 0063 8B50F8   		movl	-8(%rax), %edx
 577 0066 8D4AFF   		leal	-1(%rdx), %ecx
 578 0069 8948F8   		movl	%ecx, -8(%rax)
 579 006c 89D0     		movl	%edx, %eax
 580 006e EBE3     		jmp	.L53
 581              		.cfi_endproc
 582              	.LFE1132:
 584              		.section	.text._ZN8UnitTest15MemoryOutStreamD1Ev,"axG",@progbits,_ZN8UnitTest15MemoryOutStreamD1Ev
 585              		.align 2
 586              		.p2align 4,,15
 587              		.weak	_ZN8UnitTest15MemoryOutStreamD1Ev
 589              	_ZN8UnitTest15MemoryOutStreamD1Ev:
 590              	.LFB1151:
 591              		.cfi_startproc
 592 0000 53       		pushq	%rbx
 593              		.cfi_def_cfa_offset 16
 594              		.cfi_offset 3, -16
 595 0001 4889FB   		movq	%rdi, %rbx
 596 0004 4883EC10 		subq	$16, %rsp
 597              		.cfi_def_cfa_offset 32
 598 0008 488B4758 		movq	88(%rdi), %rax
 599 000c 48C70700 		movq	$_ZTVN8UnitTest15MemoryOutStreamE+24, (%rdi)
 599      000000
 600 0013 48C74760 		movq	$_ZTVN8UnitTest15MemoryOutStreamE+64, 96(%rdi)
 600      00000000 
 601 001b 488D78E8 		leaq	-24(%rax), %rdi
 602 001f 4881FF00 		cmpq	$_ZNSs4_Rep20_S_empty_rep_storageE, %rdi
 602      000000
 603 0026 7557     		jne	.L69
 604              	.L59:
 605 0028 488B4350 		movq	80(%rbx), %rax
 606 002c 48C70300 		movq	$_ZTCN8UnitTest15MemoryOutStreamE0_St19basic_ostringstreamIcSt11char_traitsIcESaIcEE+24, (%rb
 606      000000
 607 0033 48C74360 		movq	$_ZTCN8UnitTest15MemoryOutStreamE0_St19basic_ostringstreamIcSt11char_traitsIcESaIcEE+64, 96(%
 607      00000000 
 608 003b 48C74308 		movq	$_ZTVSt15basic_stringbufIcSt11char_traitsIcESaIcEE+16, 8(%rbx)
 608      00000000 
 609 0043 488D78E8 		leaq	-24(%rax), %rdi
 610 0047 4881FF00 		cmpq	$_ZNSs4_Rep20_S_empty_rep_storageE, %rdi
 610      000000
 611 004e 7554     		jne	.L70
 612              	.L64:
 613 0050 488D7B40 		leaq	64(%rbx), %rdi
 614 0054 48C74308 		movq	$_ZTVSt15basic_streambufIcSt11char_traitsIcEE+16, 8(%rbx)
 614      00000000 
 615 005c E8000000 		call	_ZNSt6localeD1Ev
 615      00
 616 0061 488D7B60 		leaq	96(%rbx), %rdi
 617 0065 48C70300 		movq	$_ZTCN8UnitTest15MemoryOutStreamE0_So+24, (%rbx)
 617      000000
 618 006c 48C74360 		movq	$_ZTVSt9basic_iosIcSt11char_traitsIcEE+16, 96(%rbx)
 618      00000000 
 619 0074 E8000000 		call	_ZNSt8ios_baseD2Ev
 619      00
 620 0079 4883C410 		addq	$16, %rsp
 621              		.cfi_remember_state
 622              		.cfi_def_cfa_offset 16
 623 007d 5B       		popq	%rbx
 624              		.cfi_def_cfa_offset 8
 625 007e C3       		ret
 626              	.L69:
 627              		.cfi_restore_state
 628 007f B9000000 		movl	$_ZL28__gthrw___pthread_key_createPjPFvPvE, %ecx
 628      00
 629 0084 488D5710 		leaq	16(%rdi), %rdx
 630 0088 4885C9   		testq	%rcx, %rcx
 631 008b 743C     		je	.L60
 632 008d 83C8FF   		orl	$-1, %eax
 633 0090 F00FC102 		lock xaddl	%eax, (%rdx)
 634              	.L61:
 635 0094 85C0     		testl	%eax, %eax
 636 0096 7F90     		jg	.L59
 637 0098 488D7424 		leaq	15(%rsp), %rsi
 637      0F
 638 009d E8000000 		call	_ZNSs4_Rep10_M_destroyERKSaIcE
 638      00
 639 00a2 EB84     		jmp	.L59
 640              	.L70:
 641 00a4 B9000000 		movl	$_ZL28__gthrw___pthread_key_createPjPFvPvE, %ecx
 641      00
 642 00a9 488D5710 		leaq	16(%rdi), %rdx
 643 00ad 4885C9   		testq	%rcx, %rcx
 644 00b0 7424     		je	.L65
 645 00b2 83C8FF   		orl	$-1, %eax
 646 00b5 F00FC102 		lock xaddl	%eax, (%rdx)
 647              	.L66:
 648 00b9 85C0     		testl	%eax, %eax
 649 00bb 7F93     		jg	.L64
 650 00bd 488D7424 		leaq	15(%rsp), %rsi
 650      0F
 651 00c2 E8000000 		call	_ZNSs4_Rep10_M_destroyERKSaIcE
 651      00
 652 00c7 EB87     		jmp	.L64
 653              	.L60:
 654 00c9 8B50F8   		movl	-8(%rax), %edx
 655 00cc 8D4AFF   		leal	-1(%rdx), %ecx
 656 00cf 8948F8   		movl	%ecx, -8(%rax)
 657 00d2 89D0     		movl	%edx, %eax
 658 00d4 EBBE     		jmp	.L61
 659              	.L65:
 660 00d6 8B50F8   		movl	-8(%rax), %edx
 661 00d9 8D4AFF   		leal	-1(%rdx), %ecx
 662 00dc 8948F8   		movl	%ecx, -8(%rax)
 663 00df 89D0     		movl	%edx, %eax
 664 00e1 EBD6     		jmp	.L66
 665              		.cfi_endproc
 666              	.LFE1151:
 668              		.set	.LTHUNK0,_ZN8UnitTest15MemoryOutStreamD1Ev
 669 00e3 66666666 		.p2align 4,,15
 669      2E0F1F84 
 669      00000000 
 669      00
 670              		.weak	_ZTv0_n24_N8UnitTest15MemoryOutStreamD1Ev
 672              	_ZTv0_n24_N8UnitTest15MemoryOutStreamD1Ev:
 673              	.LFB1257:
 674              		.cfi_startproc
 675 00f0 4C8B17   		movq	(%rdi), %r10
 676 00f3 49037AE8 		addq	-24(%r10), %rdi
 677 00f7 E904FFFF 		jmp	.LTHUNK0
 677      FF
 678              		.cfi_endproc
 679              	.LFE1257:
 681              		.section	.text._ZN8UnitTest15MemoryOutStreamD0Ev,"axG",@progbits,_ZN8UnitTest15MemoryOutStreamD0Ev
 682              		.align 2
 683              		.p2align 4,,15
 684              		.weak	_ZN8UnitTest15MemoryOutStreamD0Ev
 686              	_ZN8UnitTest15MemoryOutStreamD0Ev:
 687              	.LFB1152:
 688              		.cfi_startproc
 689 0000 53       		pushq	%rbx
 690              		.cfi_def_cfa_offset 16
 691              		.cfi_offset 3, -16
 692 0001 4889FB   		movq	%rdi, %rbx
 693 0004 4883EC10 		subq	$16, %rsp
 694              		.cfi_def_cfa_offset 32
 695 0008 488B4758 		movq	88(%rdi), %rax
 696 000c 48C70700 		movq	$_ZTVN8UnitTest15MemoryOutStreamE+24, (%rdi)
 696      000000
 697 0013 48C74760 		movq	$_ZTVN8UnitTest15MemoryOutStreamE+64, 96(%rdi)
 697      00000000 
 698 001b 488D78E8 		leaq	-24(%rax), %rdi
 699 001f 4881FF00 		cmpq	$_ZNSs4_Rep20_S_empty_rep_storageE, %rdi
 699      000000
 700 0026 755F     		jne	.L83
 701              	.L73:
 702 0028 488B4350 		movq	80(%rbx), %rax
 703 002c 48C70300 		movq	$_ZTCN8UnitTest15MemoryOutStreamE0_St19basic_ostringstreamIcSt11char_traitsIcESaIcEE+24, (%rb
 703      000000
 704 0033 48C74360 		movq	$_ZTCN8UnitTest15MemoryOutStreamE0_St19basic_ostringstreamIcSt11char_traitsIcESaIcEE+64, 96(%
 704      00000000 
 705 003b 48C74308 		movq	$_ZTVSt15basic_stringbufIcSt11char_traitsIcESaIcEE+16, 8(%rbx)
 705      00000000 
 706 0043 488D78E8 		leaq	-24(%rax), %rdi
 707 0047 4881FF00 		cmpq	$_ZNSs4_Rep20_S_empty_rep_storageE, %rdi
 707      000000
 708 004e 755F     		jne	.L84
 709              	.L78:
 710 0050 488D7B40 		leaq	64(%rbx), %rdi
 711 0054 48C74308 		movq	$_ZTVSt15basic_streambufIcSt11char_traitsIcEE+16, 8(%rbx)
 711      00000000 
 712 005c E8000000 		call	_ZNSt6localeD1Ev
 712      00
 713 0061 488D7B60 		leaq	96(%rbx), %rdi
 714 0065 48C70300 		movq	$_ZTCN8UnitTest15MemoryOutStreamE0_So+24, (%rbx)
 714      000000
 715 006c 48C74360 		movq	$_ZTVSt9basic_iosIcSt11char_traitsIcEE+16, 96(%rbx)
 715      00000000 
 716 0074 E8000000 		call	_ZNSt8ios_baseD2Ev
 716      00
 717 0079 4889DF   		movq	%rbx, %rdi
 718 007c E8000000 		call	_ZdlPv
 718      00
 719 0081 4883C410 		addq	$16, %rsp
 720              		.cfi_remember_state
 721              		.cfi_def_cfa_offset 16
 722 0085 5B       		popq	%rbx
 723              		.cfi_def_cfa_offset 8
 724 0086 C3       		ret
 725              	.L83:
 726              		.cfi_restore_state
 727 0087 B9000000 		movl	$_ZL28__gthrw___pthread_key_createPjPFvPvE, %ecx
 727      00
 728 008c 488D5710 		leaq	16(%rdi), %rdx
 729 0090 4885C9   		testq	%rcx, %rcx
 730 0093 7442     		je	.L74
 731 0095 83C8FF   		orl	$-1, %eax
 732 0098 F00FC102 		lock xaddl	%eax, (%rdx)
 733              	.L75:
 734 009c 85C0     		testl	%eax, %eax
 735 009e 7F88     		jg	.L73
 736 00a0 488D7424 		leaq	15(%rsp), %rsi
 736      0F
 737 00a5 E8000000 		call	_ZNSs4_Rep10_M_destroyERKSaIcE
 737      00
 738 00aa E979FFFF 		jmp	.L73
 738      FF
 739              	.L84:
 740 00af B9000000 		movl	$_ZL28__gthrw___pthread_key_createPjPFvPvE, %ecx
 740      00
 741 00b4 488D5710 		leaq	16(%rdi), %rdx
 742 00b8 4885C9   		testq	%rcx, %rcx
 743 00bb 7427     		je	.L79
 744 00bd 83C8FF   		orl	$-1, %eax
 745 00c0 F00FC102 		lock xaddl	%eax, (%rdx)
 746              	.L80:
 747 00c4 85C0     		testl	%eax, %eax
 748 00c6 7F88     		jg	.L78
 749 00c8 488D7424 		leaq	15(%rsp), %rsi
 749      0F
 750 00cd E8000000 		call	_ZNSs4_Rep10_M_destroyERKSaIcE
 750      00
 751 00d2 E979FFFF 		jmp	.L78
 751      FF
 752              	.L74:
 753 00d7 8B50F8   		movl	-8(%rax), %edx
 754 00da 8D4AFF   		leal	-1(%rdx), %ecx
 755 00dd 8948F8   		movl	%ecx, -8(%rax)
 756 00e0 89D0     		movl	%edx, %eax
 757 00e2 EBB8     		jmp	.L75
 758              	.L79:
 759 00e4 8B50F8   		movl	-8(%rax), %edx
 760 00e7 8D4AFF   		leal	-1(%rdx), %ecx
 761 00ea 8948F8   		movl	%ecx, -8(%rax)
 762 00ed 89D0     		movl	%edx, %eax
 763 00ef EBD3     		jmp	.L80
 764              		.cfi_endproc
 765              	.LFE1152:
 767              		.set	.LTHUNK1,_ZN8UnitTest15MemoryOutStreamD0Ev
 768 00f1 66666666 		.p2align 4,,15
 768      66662E0F 
 768      1F840000 
 768      000000
 769              		.weak	_ZTv0_n24_N8UnitTest15MemoryOutStreamD0Ev
 771              	_ZTv0_n24_N8UnitTest15MemoryOutStreamD0Ev:
 772              	.LFB1258:
 773              		.cfi_startproc
 774 0100 4C8B17   		movq	(%rdi), %r10
 775 0103 49037AE8 		addq	-24(%r10), %rdi
 776 0107 E9F4FEFF 		jmp	.LTHUNK1
 776      FF
 777              		.cfi_endproc
 778              	.LFE1258:
 780              		.section	.rodata.str1.1,"aMS",@progbits,1
 781              	.LC0:
 782 0000 45787065 		.string	"Expected "
 782      63746564 
 782      2000
 783              	.LC1:
 784 000a 20627574 		.string	" but was "
 784      20776173 
 784      2000
 785              		.section	.text._ZN8UnitTest10CheckEqualIiiEEvRNS_11TestResultsERKT_RKT0_RKNS_11TestDetailsE,"axG",
 786              		.p2align 4,,15
 787              		.weak	_ZN8UnitTest10CheckEqualIiiEEvRNS_11TestResultsERKT_RKT0_RKNS_11TestDetailsE
 789              	_ZN8UnitTest10CheckEqualIiiEEvRNS_11TestResultsERKT_RKT0_RKNS_11TestDetailsE:
 790              	.LFB1148:
 791              		.cfi_startproc
 792              		.cfi_personality 0x3,__gxx_personality_v0
 793              		.cfi_lsda 0x3,.LLSDA1148
 794 0000 4156     		pushq	%r14
 795              		.cfi_def_cfa_offset 16
 796              		.cfi_offset 14, -16
 797 0002 4155     		pushq	%r13
 798              		.cfi_def_cfa_offset 24
 799              		.cfi_offset 13, -24
 800 0004 4154     		pushq	%r12
 801              		.cfi_def_cfa_offset 32
 802              		.cfi_offset 12, -32
 803 0006 55       		pushq	%rbp
 804              		.cfi_def_cfa_offset 40
 805              		.cfi_offset 6, -40
 806 0007 4889D5   		movq	%rdx, %rbp
 807 000a 53       		pushq	%rbx
 808              		.cfi_def_cfa_offset 48
 809              		.cfi_offset 3, -48
 810 000b 4889F3   		movq	%rsi, %rbx
 811 000e 4881EC80 		subq	$384, %rsp
 811      010000
 812              		.cfi_def_cfa_offset 432
 813 0015 8B02     		movl	(%rdx), %eax
 814 0017 3906     		cmpl	%eax, (%rsi)
 815 0019 0F84FF01 		je	.L85
 815      0000
 816 001f 4C8D6424 		leaq	112(%rsp), %r12
 816      70
 817 0024 4989FD   		movq	%rdi, %r13
 818 0027 4989CE   		movq	%rcx, %r14
 819 002a 4C89E7   		movq	%r12, %rdi
 820 002d E8000000 		call	_ZNSt8ios_baseC2Ev
 820      00
 821 0032 31F6     		xorl	%esi, %esi
 822 0034 4C89E7   		movq	%r12, %rdi
 823 0037 48C78424 		movq	$0, 328(%rsp)
 823      48010000 
 823      00000000 
 824 0043 C6842450 		movb	$0, 336(%rsp)
 824      01000000 
 825 004b C6842451 		movb	$0, 337(%rsp)
 825      01000000 
 826 0053 48C78424 		movq	$0, 344(%rsp)
 826      58010000 
 826      00000000 
 827 005f 48C78424 		movq	$0, 352(%rsp)
 827      60010000 
 827      00000000 
 828 006b 48C78424 		movq	$0, 360(%rsp)
 828      68010000 
 828      00000000 
 829 0077 48C78424 		movq	$0, 368(%rsp)
 829      70010000 
 829      00000000 
 830 0083 48C74424 		movq	$_ZTCN8UnitTest15MemoryOutStreamE0_So+24, 16(%rsp)
 830      10000000 
 830      00
 831 008c 48C74424 		movq	$_ZTCN8UnitTest15MemoryOutStreamE0_So+64, 112(%rsp)
 831      70000000 
 831      00
 832              	.LEHB0:
 833 0095 E8000000 		call	_ZNSt9basic_iosIcSt11char_traitsIcEE4initEPSt15basic_streambufIcS1_E
 833      00
 834              	.LEHE0:
 835 009a 488D7C24 		leaq	80(%rsp), %rdi
 835      50
 836 009f 48C74424 		movq	$_ZTCN8UnitTest15MemoryOutStreamE0_St19basic_ostringstreamIcSt11char_traitsIcESaIcEE+24, 16(%
 836      10000000 
 836      00
 837 00a8 48C74424 		movq	$_ZTCN8UnitTest15MemoryOutStreamE0_St19basic_ostringstreamIcSt11char_traitsIcESaIcEE+64, 112(
 837      70000000 
 837      00
 838 00b1 48C74424 		movq	$_ZTVSt15basic_streambufIcSt11char_traitsIcEE+16, 24(%rsp)
 838      18000000 
 838      00
 839 00ba 48C74424 		movq	$0, 32(%rsp)
 839      20000000 
 839      00
 840 00c3 48C74424 		movq	$0, 40(%rsp)
 840      28000000 
 840      00
 841 00cc 48C74424 		movq	$0, 48(%rsp)
 841      30000000 
 841      00
 842 00d5 48C74424 		movq	$0, 56(%rsp)
 842      38000000 
 842      00
 843 00de 48C74424 		movq	$0, 64(%rsp)
 843      40000000 
 843      00
 844 00e7 48C74424 		movq	$0, 72(%rsp)
 844      48000000 
 844      00
 845 00f0 E8000000 		call	_ZNSt6localeC1Ev
 845      00
 846 00f5 488B4424 		movq	16(%rsp), %rax
 846      10
 847 00fa 488D7C24 		leaq	16(%rsp), %rdi
 847      10
 848 00ff 488D7424 		leaq	24(%rsp), %rsi
 848      18
 849 0104 48C74424 		movq	$_ZTVSt15basic_stringbufIcSt11char_traitsIcESaIcEE+16, 24(%rsp)
 849      18000000 
 849      00
 850 010d C7442458 		movl	$16, 88(%rsp)
 850      10000000 
 851 0115 48C74424 		movq	$_ZNSs4_Rep20_S_empty_rep_storageE+24, 96(%rsp)
 851      60000000 
 851      00
 852 011e 480378E8 		addq	-24(%rax), %rdi
 853              	.LEHB1:
 854 0122 E8000000 		call	_ZNSt9basic_iosIcSt11char_traitsIcEE4initEPSt15basic_streambufIcS1_E
 854      00
 855              	.LEHE1:
 856 0127 488D7C24 		leaq	16(%rsp), %rdi
 856      10
 857 012c BA090000 		movl	$9, %edx
 857      00
 858 0131 BE000000 		movl	$.LC0, %esi
 858      00
 859 0136 48C74424 		movq	$_ZTVN8UnitTest15MemoryOutStreamE+24, 16(%rsp)
 859      10000000 
 859      00
 860 013f 48C74424 		movq	$_ZTVN8UnitTest15MemoryOutStreamE+64, 112(%rsp)
 860      70000000 
 860      00
 861 0148 48C74424 		movq	$_ZNSs4_Rep20_S_empty_rep_storageE+24, 104(%rsp)
 861      68000000 
 861      00
 862 0151 8B6D00   		movl	0(%rbp), %ebp
 863 0154 8B1B     		movl	(%rbx), %ebx
 864              	.LEHB2:
 865 0156 E8000000 		call	_ZSt16__ostream_insertIcSt11char_traitsIcEERSt13basic_ostreamIT_T0_ES6_PKS3_l
 865      00
 866 015b 488D7C24 		leaq	16(%rsp), %rdi
 866      10
 867 0160 89DE     		movl	%ebx, %esi
 868 0162 E8000000 		call	_ZNSolsEi
 868      00
 869 0167 BA090000 		movl	$9, %edx
 869      00
 870 016c BE000000 		movl	$.LC1, %esi
 870      00
 871 0171 4889C7   		movq	%rax, %rdi
 872 0174 4889C3   		movq	%rax, %rbx
 873 0177 E8000000 		call	_ZSt16__ostream_insertIcSt11char_traitsIcEERSt13basic_ostreamIT_T0_ES6_PKS3_l
 873      00
 874 017c 89EE     		movl	%ebp, %esi
 875 017e 4889DF   		movq	%rbx, %rdi
 876 0181 E8000000 		call	_ZNSolsEi
 876      00
 877 0186 488D7C24 		leaq	16(%rsp), %rdi
 877      10
 878 018b E8000000 		call	_ZNK8UnitTest15MemoryOutStream7GetTextEv
 878      00
 879 0190 4889C2   		movq	%rax, %rdx
 880 0193 4C89F6   		movq	%r14, %rsi
 881 0196 4C89EF   		movq	%r13, %rdi
 882 0199 E8000000 		call	_ZN8UnitTest11TestResults13OnTestFailureERKNS_11TestDetailsEPKc
 882      00
 883              	.LEHE2:
 884 019e 488B4424 		movq	104(%rsp), %rax
 884      68
 885 01a3 48C74424 		movq	$_ZTVN8UnitTest15MemoryOutStreamE+24, 16(%rsp)
 885      10000000 
 885      00
 886 01ac 48C74424 		movq	$_ZTVN8UnitTest15MemoryOutStreamE+64, 112(%rsp)
 886      70000000 
 886      00
 887 01b5 488D78E8 		leaq	-24(%rax), %rdi
 888 01b9 4881FF00 		cmpq	$_ZNSs4_Rep20_S_empty_rep_storageE, %rdi
 888      000000
 889 01c0 756C     		jne	.L108
 890              	.L92:
 891 01c2 488B4424 		movq	96(%rsp), %rax
 891      60
 892 01c7 48C74424 		movq	$_ZTCN8UnitTest15MemoryOutStreamE0_St19basic_ostringstreamIcSt11char_traitsIcESaIcEE+24, 16(%
 892      10000000 
 892      00
 893 01d0 48C74424 		movq	$_ZTCN8UnitTest15MemoryOutStreamE0_St19basic_ostringstreamIcSt11char_traitsIcESaIcEE+64, 112(
 893      70000000 
 893      00
 894 01d9 48C74424 		movq	$_ZTVSt15basic_stringbufIcSt11char_traitsIcESaIcEE+16, 24(%rsp)
 894      18000000 
 894      00
 895 01e2 488D78E8 		leaq	-24(%rax), %rdi
 896 01e6 4881FF00 		cmpq	$_ZNSs4_Rep20_S_empty_rep_storageE, %rdi
 896      000000
 897 01ed 756B     		jne	.L109
 898              	.L97:
 899 01ef 488D7C24 		leaq	80(%rsp), %rdi
 899      50
 900 01f4 48C74424 		movq	$_ZTVSt15basic_streambufIcSt11char_traitsIcEE+16, 24(%rsp)
 900      18000000 
 900      00
 901 01fd E8000000 		call	_ZNSt6localeD1Ev
 901      00
 902 0202 488D7C24 		leaq	112(%rsp), %rdi
 902      70
 903 0207 48C74424 		movq	$_ZTCN8UnitTest15MemoryOutStreamE0_So+24, 16(%rsp)
 903      10000000 
 903      00
 904 0210 48C74424 		movq	$_ZTVSt9basic_iosIcSt11char_traitsIcEE+16, 112(%rsp)
 904      70000000 
 904      00
 905              	.LEHB3:
 906 0219 E8000000 		call	_ZNSt8ios_baseD2Ev
 906      00
 907              	.LEHE3:
 908              	.L85:
 909 021e 4881C480 		addq	$384, %rsp
 909      010000
 910              		.cfi_remember_state
 911              		.cfi_def_cfa_offset 48
 912 0225 5B       		popq	%rbx
 913              		.cfi_def_cfa_offset 40
 914 0226 5D       		popq	%rbp
 915              		.cfi_def_cfa_offset 32
 916 0227 415C     		popq	%r12
 917              		.cfi_def_cfa_offset 24
 918 0229 415D     		popq	%r13
 919              		.cfi_def_cfa_offset 16
 920 022b 415E     		popq	%r14
 921              		.cfi_def_cfa_offset 8
 922 022d C3       		ret
 923              	.L108:
 924              		.cfi_restore_state
 925 022e B9000000 		movl	$_ZL28__gthrw___pthread_key_createPjPFvPvE, %ecx
 925      00
 926 0233 488D5710 		leaq	16(%rdi), %rdx
 927 0237 4885C9   		testq	%rcx, %rcx
 928 023a 747D     		je	.L93
 929 023c 83C8FF   		orl	$-1, %eax
 930 023f F00FC102 		lock xaddl	%eax, (%rdx)
 931              	.L94:
 932 0243 85C0     		testl	%eax, %eax
 933 0245 0F8F77FF 		jg	.L92
 933      FFFF
 934 024b 488D7424 		leaq	15(%rsp), %rsi
 934      0F
 935 0250 E8000000 		call	_ZNSs4_Rep10_M_destroyERKSaIcE
 935      00
 936 0255 E968FFFF 		jmp	.L92
 936      FF
 937              	.L109:
 938 025a B9000000 		movl	$_ZL28__gthrw___pthread_key_createPjPFvPvE, %ecx
 938      00
 939 025f 488D5710 		leaq	16(%rdi), %rdx
 940 0263 4885C9   		testq	%rcx, %rcx
 941 0266 7479     		je	.L98
 942 0268 83C8FF   		orl	$-1, %eax
 943 026b F00FC102 		lock xaddl	%eax, (%rdx)
 944              	.L99:
 945 026f 85C0     		testl	%eax, %eax
 946 0271 0F8F78FF 		jg	.L97
 946      FFFF
 947 0277 488D7424 		leaq	15(%rsp), %rsi
 947      0F
 948 027c E8000000 		call	_ZNSs4_Rep10_M_destroyERKSaIcE
 948      00
 949 0281 E969FFFF 		jmp	.L97
 949      FF
 950              	.L102:
 951 0286 488D7C24 		leaq	16(%rsp), %rdi
 951      10
 952 028b 4889C3   		movq	%rax, %rbx
 953 028e E8000000 		call	_ZN8UnitTest15MemoryOutStreamD1Ev
 953      00
 954 0293 4889DF   		movq	%rbx, %rdi
 955              	.LEHB4:
 956 0296 E8000000 		call	_Unwind_Resume
 956      00
 957              	.LEHE4:
 958              	.L103:
 959 029b 4889C3   		movq	%rax, %rbx
 960              	.L89:
 961 029e 488D7C24 		leaq	112(%rsp), %rdi
 961      70
 962 02a3 48C74424 		movq	$_ZTVSt9basic_iosIcSt11char_traitsIcEE+16, 112(%rsp)
 962      70000000 
 962      00
 963 02ac E8000000 		call	_ZNSt8ios_baseD2Ev
 963      00
 964 02b1 4889DF   		movq	%rbx, %rdi
 965              	.LEHB5:
 966 02b4 E8000000 		call	_Unwind_Resume
 966      00
 967              	.LEHE5:
 968              	.L93:
 969 02b9 8B50F8   		movl	-8(%rax), %edx
 970 02bc 8D4AFF   		leal	-1(%rdx), %ecx
 971 02bf 8948F8   		movl	%ecx, -8(%rax)
 972 02c2 89D0     		movl	%edx, %eax
 973 02c4 E97AFFFF 		jmp	.L94
 973      FF
 974              	.L104:
 975 02c9 488D7C24 		leaq	24(%rsp), %rdi
 975      18
 976 02ce 4889C3   		movq	%rax, %rbx
 977 02d1 E8000000 		call	_ZNSt15basic_stringbufIcSt11char_traitsIcESaIcEED1Ev
 977      00
 978 02d6 48C74424 		movq	$_ZTCN8UnitTest15MemoryOutStreamE0_So+24, 16(%rsp)
 978      10000000 
 978      00
 979 02df EBBD     		jmp	.L89
 980              	.L98:
 981 02e1 8B50F8   		movl	-8(%rax), %edx
 982 02e4 8D4AFF   		leal	-1(%rdx), %ecx
 983 02e7 8948F8   		movl	%ecx, -8(%rax)
 984 02ea 89D0     		movl	%edx, %eax
 985 02ec EB81     		jmp	.L99
 986              		.cfi_endproc
 987              	.LFE1148:
 988              		.globl	__gxx_personality_v0
 989              		.section	.gcc_except_table._ZN8UnitTest10CheckEqualIiiEEvRNS_11TestResultsERKT_RKT0_RKNS_11TestDet
 990              	.LLSDA1148:
 991 0000 FF       		.byte	0xff
 992 0001 FF       		.byte	0xff
 993 0002 01       		.byte	0x1
 994 0003 21       		.uleb128 .LLSDACSE1148-.LLSDACSB1148
 995              	.LLSDACSB1148:
 996 0004 9501     		.uleb128 .LEHB0-.LFB1148
 997 0006 05       		.uleb128 .LEHE0-.LEHB0
 998 0007 9B05     		.uleb128 .L103-.LFB1148
 999 0009 00       		.uleb128 0
 1000 000a A202     		.uleb128 .LEHB1-.LFB1148
 1001 000c 05       		.uleb128 .LEHE1-.LEHB1
 1002 000d C905     		.uleb128 .L104-.LFB1148
 1003 000f 00       		.uleb128 0
 1004 0010 D602     		.uleb128 .LEHB2-.LFB1148
 1005 0012 48       		.uleb128 .LEHE2-.LEHB2
 1006 0013 8605     		.uleb128 .L102-.LFB1148
 1007 0015 00       		.uleb128 0
 1008 0016 9904     		.uleb128 .LEHB3-.LFB1148
 1009 0018 05       		.uleb128 .LEHE3-.LEHB3
 1010 0019 00       		.uleb128 0
 1011 001a 00       		.uleb128 0
 1012 001b 9605     		.uleb128 .LEHB4-.LFB1148
 1013 001d 05       		.uleb128 .LEHE4-.LEHB4
 1014 001e 00       		.uleb128 0
 1015 001f 00       		.uleb128 0
 1016 0020 B405     		.uleb128 .LEHB5-.LFB1148
 1017 0022 05       		.uleb128 .LEHE5-.LEHB5
 1018 0023 00       		.uleb128 0
 1019 0024 00       		.uleb128 0
 1020              	.LLSDACSE1148:
 1021              		.section	.text._ZN8UnitTest10CheckEqualIiiEEvRNS_11TestResultsERKT_RKT0_RKNS_11TestDetailsE,"axG",
 1023              		.section	.rodata.str1.1
 1024              	.LC3:
 1025 0014 6661696C 		.string	"failurestring"
 1025      75726573 
 1025      7472696E 
 1025      6700
 1026              	.LC4:
 1027 0022 66696C65 		.string	"filename"
 1027      6E616D65 
 1027      00
 1028              	.LC5:
 1029 002b 74657374 		.string	"testname"
 1029      6E616D65 
 1029      00
 1030              	.LC6:
 1031 0034 73756974 		.string	"suitename"
 1031      656E616D 
 1031      6500
 1032              		.section	.rodata.str1.8,"aMS",@progbits,1
 1033              		.align 8
 1034              	.LC7:
 1035 0000 556E6861 		.string	"Unhandled exception in CHECK_EQUAL(1, reporter.testFailedCount)"
 1035      6E646C65 
 1035      64206578 
 1035      63657074 
 1035      696F6E20 
 1036              		.align 8
 1037              	.LC8:
 1038 0040 556E6861 		.string	"Unhandled exception in CHECK_EQUAL(\"filename\", reporter.lastFailedFile)"
 1038      6E646C65 
 1038      64206578 
 1038      63657074 
 1038      696F6E20 
 1039              		.align 8
 1040              	.LC9:
 1041 0088 556E6861 		.string	"Unhandled exception in CHECK_EQUAL(123, reporter.lastFailedLine)"
 1041      6E646C65 
 1041      64206578 
 1041      63657074 
 1041      696F6E20 
 1042 00c9 00000000 		.align 8
 1042      000000
 1043              	.LC10:
 1044 00d0 556E6861 		.string	"Unhandled exception in CHECK_EQUAL(\"testname\", reporter.lastFailedTest)"
 1044      6E646C65 
 1044      64206578 
 1044      63657074 
 1044      696F6E20 
 1045              		.align 8
 1046              	.LC11:
 1047 0118 556E6861 		.string	"Unhandled exception in CHECK_EQUAL(\"suitename\", reporter.lastFailedSuite)"
 1047      6E646C65 
 1047      64206578 
 1047      63657074 
 1047      696F6E20 
 1048 0162 00000000 		.align 8
 1048      0000
 1049              	.LC12:
 1050 0168 556E6861 		.string	"Unhandled exception in CHECK_EQUAL(\"failurestring\", reporter.lastFailedMessage)"
 1050      6E646C65 
 1050      64206578 
 1050      63657074 
 1050      696F6E20 
 1051              		.text
 1052 01a9 90       		.align 2
 1053 01aa 660F1F44 		.p2align 4,,15
 1053      0000
 1055              	_ZNK12_GLOBAL__N_149TestNotifiesReporterOfCheckFailureWithCorrectInfo7RunImplEv:
 1056              	.LFB1116:
 1057              		.cfi_startproc
 1058              		.cfi_personality 0x3,__gxx_personality_v0
 1059              		.cfi_lsda 0x3,.LLSDA1116
 1060 01b0 53       		pushq	%rbx
 1061              		.cfi_def_cfa_offset 16
 1062              		.cfi_offset 3, -16
 1063 01b1 4881EC90 		subq	$2192, %rsp
 1063      080000
 1064              		.cfi_def_cfa_offset 2208
 1065 01b8 488D7424 		leaq	80(%rsp), %rsi
 1065      50
 1066 01bd 488D7C24 		leaq	16(%rsp), %rdi
 1066      10
 1067 01c2 48C74424 		movq	$_ZTV17RecordingReporter+16, 80(%rsp)
 1067      50000000 
 1067      00
 1068 01cb 64488B04 		movq	%fs:40, %rax
 1068      25280000 
 1068      00
 1069 01d4 48898424 		movq	%rax, 2184(%rsp)
 1069      88080000 
 1070 01dc 31C0     		xorl	%eax, %eax
 1071 01de C7442458 		movl	$0, 88(%rsp)
 1071      00000000 
 1072 01e6 C784245C 		movl	$0, 604(%rsp)
 1072      02000000 
 1072      000000
 1073 01f1 C7842460 		movl	$0, 864(%rsp)
 1073      03000000 
 1073      000000
 1074 01fc C7842464 		movl	$0, 1636(%rsp)
 1074      06000000 
 1074      000000
 1075 0207 C7842468 		movl	$0x00000000, 2152(%rsp)
 1075      08000000 
 1075      000000
 1076 0212 C784246C 		movl	$0, 2156(%rsp)
 1076      08000000 
 1076      000000
 1077 021d C7842470 		movl	$0, 2160(%rsp)
 1077      08000000 
 1077      000000
 1078 0228 C7842474 		movl	$0, 2164(%rsp)
 1078      08000000 
 1078      000000
 1079 0233 C7842478 		movl	$0x00000000, 2168(%rsp)
 1079      08000000 
 1079      000000
 1080 023e C644245C 		movb	$0, 92(%rsp)
 1080      00
 1081 0243 C684245C 		movb	$0, 348(%rsp)
 1081      01000000 
 1082 024b C6842460 		movb	$0, 608(%rsp)
 1082      02000000 
 1083 0253 C6842464 		movb	$0, 868(%rsp)
 1083      03000000 
 1084 025b C6842464 		movb	$0, 1124(%rsp)
 1084      04000000 
 1085 0263 C6842464 		movb	$0, 1380(%rsp)
 1085      05000000 
 1086 026b C6842468 		movb	$0, 1640(%rsp)
 1086      06000000 
 1087 0273 C6842468 		movb	$0, 1896(%rsp)
 1087      07000000 
 1088              	.LEHB6:
 1089 027b E8000000 		call	_ZN8UnitTest11TestResultsC1EPNS_12TestReporterE
 1089      00
 1090 0280 488D7C24 		leaq	16(%rsp), %rdi
 1090      10
 1091 0285 BA000000 		movl	$.LC3, %edx
 1091      00
 1092 028a BE000000 		movl	$_ZN12_GLOBAL__N_1L7detailsE, %esi
 1092      00
 1093 028f E8000000 		call	_ZN8UnitTest11TestResults13OnTestFailureERKNS_11TestDetailsEPKc
 1093      00
 1094              	.LEHE6:
 1095              	.LEHB7:
 1096 0294 E8000000 		call	_ZN8UnitTest11CurrentTest7DetailsEv
 1096      00
 1097 0299 488D5C24 		leaq	48(%rsp), %rbx
 1097      30
 1098 029e 488B30   		movq	(%rax), %rsi
 1099 02a1 BA590000 		movl	$89, %edx
 1099      00
 1100 02a6 4889DF   		movq	%rbx, %rdi
 1101 02a9 E8000000 		call	_ZN8UnitTest11TestDetailsC1ERKS0_i
 1101      00
 1102 02ae C7042401 		movl	$1, (%rsp)
 1102      000000
 1103 02b5 E8000000 		call	_ZN8UnitTest11CurrentTest7ResultsEv
 1103      00
 1104 02ba 488B38   		movq	(%rax), %rdi
 1105 02bd 488D9424 		leaq	604(%rsp), %rdx
 1105      5C020000 
 1106 02c5 4889D9   		movq	%rbx, %rcx
 1107 02c8 4889E6   		movq	%rsp, %rsi
 1108 02cb E8000000 		call	_ZN8UnitTest10CheckEqualIiiEEvRNS_11TestResultsERKT_RKT0_RKNS_11TestDetailsE
 1108      00
 1109              	.LEHE7:
 1110              	.L114:
 1111              	.LEHB8:
 1112 02d0 E8000000 		call	_ZN8UnitTest11CurrentTest7DetailsEv
 1112      00
 1113 02d5 488B30   		movq	(%rax), %rsi
 1114 02d8 BA5B0000 		movl	$91, %edx
 1114      00
 1115 02dd 4889DF   		movq	%rbx, %rdi
 1116 02e0 E8000000 		call	_ZN8UnitTest11TestDetailsC1ERKS0_i
 1116      00
 1117 02e5 E8000000 		call	_ZN8UnitTest11CurrentTest7ResultsEv
 1117      00
 1118 02ea 488B38   		movq	(%rax), %rdi
 1119 02ed 488D9424 		leaq	608(%rsp), %rdx
 1119      60020000 
 1120 02f5 4889D9   		movq	%rbx, %rcx
 1121 02f8 BE000000 		movl	$.LC4, %esi
 1121      00
 1122 02fd E8000000 		call	_ZN8UnitTest10CheckEqualERNS_11TestResultsEPKcPcRKNS_11TestDetailsE
 1122      00
 1123              	.LEHE8:
 1124              	.L117:
 1125              	.LEHB9:
 1126 0302 E8000000 		call	_ZN8UnitTest11CurrentTest7DetailsEv
 1126      00
 1127 0307 488B30   		movq	(%rax), %rsi
 1128 030a BA5C0000 		movl	$92, %edx
 1128      00
 1129 030f 4889DF   		movq	%rbx, %rdi
 1130 0312 E8000000 		call	_ZN8UnitTest11TestDetailsC1ERKS0_i
 1130      00
 1131 0317 C704247B 		movl	$123, (%rsp)
 1131      000000
 1132 031e E8000000 		call	_ZN8UnitTest11CurrentTest7ResultsEv
 1132      00
 1133 0323 488B38   		movq	(%rax), %rdi
 1134 0326 488D9424 		leaq	864(%rsp), %rdx
 1134      60030000 
 1135 032e 4889D9   		movq	%rbx, %rcx
 1136 0331 4889E6   		movq	%rsp, %rsi
 1137 0334 E8000000 		call	_ZN8UnitTest10CheckEqualIiiEEvRNS_11TestResultsERKT_RKT0_RKNS_11TestDetailsE
 1137      00
 1138              	.LEHE9:
 1139              	.L120:
 1140              	.LEHB10:
 1141 0339 E8000000 		call	_ZN8UnitTest11CurrentTest7DetailsEv
 1141      00
 1142 033e 488B30   		movq	(%rax), %rsi
 1143 0341 BA5D0000 		movl	$93, %edx
 1143      00
 1144 0346 4889DF   		movq	%rbx, %rdi
 1145 0349 E8000000 		call	_ZN8UnitTest11TestDetailsC1ERKS0_i
 1145      00
 1146 034e E8000000 		call	_ZN8UnitTest11CurrentTest7ResultsEv
 1146      00
 1147 0353 488B38   		movq	(%rax), %rdi
 1148 0356 488D9424 		leaq	1124(%rsp), %rdx
 1148      64040000 
 1149 035e 4889D9   		movq	%rbx, %rcx
 1150 0361 BE000000 		movl	$.LC5, %esi
 1150      00
 1151 0366 E8000000 		call	_ZN8UnitTest10CheckEqualERNS_11TestResultsEPKcPcRKNS_11TestDetailsE
 1151      00
 1152              	.LEHE10:
 1153              	.L123:
 1154              	.LEHB11:
 1155 036b E8000000 		call	_ZN8UnitTest11CurrentTest7DetailsEv
 1155      00
 1156 0370 488B30   		movq	(%rax), %rsi
 1157 0373 BA5E0000 		movl	$94, %edx
 1157      00
 1158 0378 4889DF   		movq	%rbx, %rdi
 1159 037b E8000000 		call	_ZN8UnitTest11TestDetailsC1ERKS0_i
 1159      00
 1160 0380 E8000000 		call	_ZN8UnitTest11CurrentTest7ResultsEv
 1160      00
 1161 0385 488B38   		movq	(%rax), %rdi
 1162 0388 488D9424 		leaq	868(%rsp), %rdx
 1162      64030000 
 1163 0390 4889D9   		movq	%rbx, %rcx
 1164 0393 BE000000 		movl	$.LC6, %esi
 1164      00
 1165 0398 E8000000 		call	_ZN8UnitTest10CheckEqualERNS_11TestResultsEPKcPcRKNS_11TestDetailsE
 1165      00
 1166              	.LEHE11:
 1167              	.L126:
 1168              	.LEHB12:
 1169 039d E8000000 		call	_ZN8UnitTest11CurrentTest7DetailsEv
 1169      00
 1170 03a2 488B30   		movq	(%rax), %rsi
 1171 03a5 BA5F0000 		movl	$95, %edx
 1171      00
 1172 03aa 4889DF   		movq	%rbx, %rdi
 1173 03ad E8000000 		call	_ZN8UnitTest11TestDetailsC1ERKS0_i
 1173      00
 1174 03b2 E8000000 		call	_ZN8UnitTest11CurrentTest7ResultsEv
 1174      00
 1175 03b7 488B38   		movq	(%rax), %rdi
 1176 03ba 488D9424 		leaq	1380(%rsp), %rdx
 1176      64050000 
 1177 03c2 4889D9   		movq	%rbx, %rcx
 1178 03c5 BE000000 		movl	$.LC3, %esi
 1178      00
 1179 03ca E8000000 		call	_ZN8UnitTest10CheckEqualERNS_11TestResultsEPKcPcRKNS_11TestDetailsE
 1179      00
 1180              	.LEHE12:
 1181              	.L129:
 1182 03cf 488D7C24 		leaq	80(%rsp), %rdi
 1182      50
 1183 03d4 48C74424 		movq	$_ZTV17RecordingReporter+16, 80(%rsp)
 1183      50000000 
 1183      00
 1184              	.LEHB13:
 1185 03dd E8000000 		call	_ZN8UnitTest12TestReporterD2Ev
 1185      00
 1186              	.LEHE13:
 1187 03e2 488B8424 		movq	2184(%rsp), %rax
 1187      88080000 
 1188 03ea 64483304 		xorq	%fs:40, %rax
 1188      25280000 
 1188      00
 1189 03f3 7509     		jne	.L146
 1190 03f5 4881C490 		addq	$2192, %rsp
 1190      080000
 1191              		.cfi_remember_state
 1192              		.cfi_def_cfa_offset 16
 1193 03fc 5B       		popq	%rbx
 1194              		.cfi_def_cfa_offset 8
 1195 03fd C3       		ret
 1196              	.L146:
 1197              		.cfi_restore_state
 1198 03fe E8000000 		call	__stack_chk_fail
 1198      00
 1199              	.L142:
 1200 0403 4889C7   		movq	%rax, %rdi
 1201 0406 E8000000 		call	__cxa_begin_catch
 1201      00
 1202              	.LEHB14:
 1203 040b E8000000 		call	_ZN8UnitTest11CurrentTest7DetailsEv
 1203      00
 1204 0410 488B30   		movq	(%rax), %rsi
 1205 0413 BA5F0000 		movl	$95, %edx
 1205      00
 1206 0418 4889DF   		movq	%rbx, %rdi
 1207 041b E8000000 		call	_ZN8UnitTest11TestDetailsC1ERKS0_i
 1207      00
 1208 0420 E8000000 		call	_ZN8UnitTest11CurrentTest7ResultsEv
 1208      00
 1209 0425 488B38   		movq	(%rax), %rdi
 1210 0428 BA000000 		movl	$.LC12, %edx
 1210      00
 1211 042d 4889DE   		movq	%rbx, %rsi
 1212 0430 E8000000 		call	_ZN8UnitTest11TestResults13OnTestFailureERKNS_11TestDetailsEPKc
 1212      00
 1213              	.LEHE14:
 1214              	.LEHB15:
 1215 0435 E8000000 		call	__cxa_end_catch
 1215      00
 1216              	.LEHE15:
 1217 043a EB93     		jmp	.L129
 1218              	.L140:
 1219 043c 4889C7   		movq	%rax, %rdi
 1220 043f 90       		.p2align 4,,5
 1221 0440 E8000000 		call	__cxa_begin_catch
 1221      00
 1222              		.p2align 4,,5
 1223              	.LEHB16:
 1224 0445 E8000000 		call	_ZN8UnitTest11CurrentTest7DetailsEv
 1224      00
 1225 044a 488B30   		movq	(%rax), %rsi
 1226 044d BA5E0000 		movl	$94, %edx
 1226      00
 1227 0452 4889DF   		movq	%rbx, %rdi
 1228 0455 E8000000 		call	_ZN8UnitTest11TestDetailsC1ERKS0_i
 1228      00
 1229 045a E8000000 		call	_ZN8UnitTest11CurrentTest7ResultsEv
 1229      00
 1230 045f 488B38   		movq	(%rax), %rdi
 1231 0462 BA000000 		movl	$.LC11, %edx
 1231      00
 1232 0467 4889DE   		movq	%rbx, %rsi
 1233 046a E8000000 		call	_ZN8UnitTest11TestResults13OnTestFailureERKNS_11TestDetailsEPKc
 1233      00
 1234              	.LEHE16:
 1235              	.LEHB17:
 1236 046f E8000000 		call	__cxa_end_catch
 1236      00
 1237              	.LEHE17:
 1238 0474 E924FFFF 		jmp	.L126
 1238      FF
 1239              	.L138:
 1240 0479 4889C7   		movq	%rax, %rdi
 1241 047c 0F1F4000 		.p2align 4,,5
 1242 0480 E8000000 		call	__cxa_begin_catch
 1242      00
 1243              		.p2align 4,,5
 1244              	.LEHB18:
 1245 0485 E8000000 		call	_ZN8UnitTest11CurrentTest7DetailsEv
 1245      00
 1246 048a 488B30   		movq	(%rax), %rsi
 1247 048d BA5D0000 		movl	$93, %edx
 1247      00
 1248 0492 4889DF   		movq	%rbx, %rdi
 1249 0495 E8000000 		call	_ZN8UnitTest11TestDetailsC1ERKS0_i
 1249      00
 1250 049a E8000000 		call	_ZN8UnitTest11CurrentTest7ResultsEv
 1250      00
 1251 049f 488B38   		movq	(%rax), %rdi
 1252 04a2 BA000000 		movl	$.LC10, %edx
 1252      00
 1253 04a7 4889DE   		movq	%rbx, %rsi
 1254 04aa E8000000 		call	_ZN8UnitTest11TestResults13OnTestFailureERKNS_11TestDetailsEPKc
 1254      00
 1255              	.LEHE18:
 1256              	.LEHB19:
 1257 04af E8000000 		call	__cxa_end_catch
 1257      00
 1258              	.LEHE19:
 1259 04b4 E9B2FEFF 		jmp	.L123
 1259      FF
 1260              	.L143:
 1261 04b9 4889C3   		movq	%rax, %rbx
 1262 04bc 0F1F4000 		.p2align 4,,5
 1263 04c0 E8000000 		call	__cxa_end_catch
 1263      00
 1264              	.L112:
 1265 04c5 488D7C24 		leaq	80(%rsp), %rdi
 1265      50
 1266 04ca 48C74424 		movq	$_ZTV17RecordingReporter+16, 80(%rsp)
 1266      50000000 
 1266      00
 1267 04d3 E8000000 		call	_ZN8UnitTest12TestReporterD2Ev
 1267      00
 1268 04d8 4889DF   		movq	%rbx, %rdi
 1269              	.LEHB20:
 1270 04db E8000000 		call	_Unwind_Resume
 1270      00
 1271              	.LEHE20:
 1272              	.L141:
 1273 04e0 4889C3   		movq	%rax, %rbx
 1274 04e3 E8000000 		call	__cxa_end_catch
 1274      00
 1275 04e8 EBDB     		jmp	.L112
 1276              	.L139:
 1277 04ea 4889C3   		movq	%rax, %rbx
 1278 04ed E8000000 		call	__cxa_end_catch
 1278      00
 1279              		.p2align 4,,5
 1280 04f2 EBD1     		jmp	.L112
 1281              	.L136:
 1282 04f4 4889C7   		movq	%rax, %rdi
 1283 04f7 E8000000 		call	__cxa_begin_catch
 1283      00
 1284 04fc 0F1F4000 		.p2align 4,,5
 1285              	.LEHB21:
 1286 0500 E8000000 		call	_ZN8UnitTest11CurrentTest7DetailsEv
 1286      00
 1287 0505 488B30   		movq	(%rax), %rsi
 1288 0508 BA5C0000 		movl	$92, %edx
 1288      00
 1289 050d 4889DF   		movq	%rbx, %rdi
 1290 0510 E8000000 		call	_ZN8UnitTest11TestDetailsC1ERKS0_i
 1290      00
 1291 0515 E8000000 		call	_ZN8UnitTest11CurrentTest7ResultsEv
 1291      00
 1292 051a 488B38   		movq	(%rax), %rdi
 1293 051d BA000000 		movl	$.LC9, %edx
 1293      00
 1294 0522 4889DE   		movq	%rbx, %rsi
 1295 0525 E8000000 		call	_ZN8UnitTest11TestResults13OnTestFailureERKNS_11TestDetailsEPKc
 1295      00
 1296              	.LEHE21:
 1297              	.LEHB22:
 1298 052a E8000000 		call	__cxa_end_catch
 1298      00
 1299              	.LEHE22:
 1300 052f E905FEFF 		jmp	.L120
 1300      FF
 1301              	.L134:
 1302 0534 4889C7   		movq	%rax, %rdi
 1303              		.p2align 4,,5
 1304 0537 E8000000 		call	__cxa_begin_catch
 1304      00
 1305 053c 0F1F4000 		.p2align 4,,5
 1306              	.LEHB23:
 1307 0540 E8000000 		call	_ZN8UnitTest11CurrentTest7DetailsEv
 1307      00
 1308 0545 488B30   		movq	(%rax), %rsi
 1309 0548 BA5B0000 		movl	$91, %edx
 1309      00
 1310 054d 4889DF   		movq	%rbx, %rdi
 1311 0550 E8000000 		call	_ZN8UnitTest11TestDetailsC1ERKS0_i
 1311      00
 1312 0555 E8000000 		call	_ZN8UnitTest11CurrentTest7ResultsEv
 1312      00
 1313 055a 488B38   		movq	(%rax), %rdi
 1314 055d BA000000 		movl	$.LC8, %edx
 1314      00
 1315 0562 4889DE   		movq	%rbx, %rsi
 1316 0565 E8000000 		call	_ZN8UnitTest11TestResults13OnTestFailureERKNS_11TestDetailsEPKc
 1316      00
 1317              	.LEHE23:
 1318              	.LEHB24:
 1319 056a E8000000 		call	__cxa_end_catch
 1319      00
 1320              	.LEHE24:
 1321 056f E98EFDFF 		jmp	.L117
 1321      FF
 1322              	.L137:
 1323 0574 4889C3   		movq	%rax, %rbx
 1324              		.p2align 4,,5
 1325 0577 E8000000 		call	__cxa_end_catch
 1325      00
 1326 057c 0F1F4000 		.p2align 4,,5
 1327 0580 E940FFFF 		jmp	.L112
 1327      FF
 1328              	.L135:
 1329 0585 4889C3   		movq	%rax, %rbx
 1330 0588 E8000000 		call	__cxa_end_catch
 1330      00
 1331 058d 0F1F00   		.p2align 4,,5
 1332 0590 E930FFFF 		jmp	.L112
 1332      FF
 1333              	.L132:
 1334 0595 4889C7   		movq	%rax, %rdi
 1335 0598 E8000000 		call	__cxa_begin_catch
 1335      00
 1336 059d 0F1F00   		.p2align 4,,5
 1337              	.LEHB25:
 1338 05a0 E8000000 		call	_ZN8UnitTest11CurrentTest7DetailsEv
 1338      00
 1339 05a5 488D5C24 		leaq	48(%rsp), %rbx
 1339      30
 1340 05aa 488B30   		movq	(%rax), %rsi
 1341 05ad BA590000 		movl	$89, %edx
 1341      00
 1342 05b2 4889DF   		movq	%rbx, %rdi
 1343 05b5 E8000000 		call	_ZN8UnitTest11TestDetailsC1ERKS0_i
 1343      00
 1344 05ba E8000000 		call	_ZN8UnitTest11CurrentTest7ResultsEv
 1344      00
 1345 05bf 488B38   		movq	(%rax), %rdi
 1346 05c2 BA000000 		movl	$.LC7, %edx
 1346      00
 1347 05c7 4889DE   		movq	%rbx, %rsi
 1348 05ca E8000000 		call	_ZN8UnitTest11TestResults13OnTestFailureERKNS_11TestDetailsEPKc
 1348      00
 1349              	.LEHE25:
 1350              	.LEHB26:
 1351 05cf E8000000 		call	__cxa_end_catch
 1351      00
 1352              	.LEHE26:
 1353 05d4 E9F7FCFF 		jmp	.L114
 1353      FF
 1354              	.L131:
 1355 05d9 4889C3   		movq	%rax, %rbx
 1356 05dc 0F1F4000 		.p2align 4,,5
 1357 05e0 E9E0FEFF 		jmp	.L112
 1357      FF
 1358              	.L133:
 1359 05e5 4889C3   		movq	%rax, %rbx
 1360              		.p2align 4,,5
 1361 05e8 E8000000 		call	__cxa_end_catch
 1361      00
 1362              		.p2align 4,,2
 1363 05ed E9D3FEFF 		jmp	.L112
 1363      FF
 1364              		.cfi_endproc
 1365              	.LFE1116:
 1366              		.section	.gcc_except_table,"a",@progbits
 1367              		.align 4
 1368              	.LLSDA1116:
 1369 0000 FF       		.byte	0xff
 1370 0001 03       		.byte	0x3
 1371 0002 8401     		.uleb128 .LLSDATT1116-.LLSDATTD1116
 1372              	.LLSDATTD1116:
 1373 0004 01       		.byte	0x1
 1374 0005 7C       		.uleb128 .LLSDACSE1116-.LLSDACSB1116
 1375              	.LLSDACSB1116:
 1376 0006 CB01     		.uleb128 .LEHB6-.LFB1116
 1377 0008 19       		.uleb128 .LEHE6-.LEHB6
 1378 0009 A908     		.uleb128 .L131-.LFB1116
 1379 000b 00       		.uleb128 0
 1380 000c E401     		.uleb128 .LEHB7-.LFB1116
 1381 000e 3C       		.uleb128 .LEHE7-.LEHB7
 1382 000f E507     		.uleb128 .L132-.LFB1116
 1383 0011 01       		.uleb128 0x1
 1384 0012 A002     		.uleb128 .LEHB8-.LFB1116
 1385 0014 32       		.uleb128 .LEHE8-.LEHB8
 1386 0015 8407     		.uleb128 .L134-.LFB1116
 1387 0017 01       		.uleb128 0x1
 1388 0018 D202     		.uleb128 .LEHB9-.LFB1116
 1389 001a 37       		.uleb128 .LEHE9-.LEHB9
 1390 001b C406     		.uleb128 .L136-.LFB1116
 1391 001d 01       		.uleb128 0x1
 1392 001e 8903     		.uleb128 .LEHB10-.LFB1116
 1393 0020 32       		.uleb128 .LEHE10-.LEHB10
 1394 0021 C905     		.uleb128 .L138-.LFB1116
 1395 0023 01       		.uleb128 0x1
 1396 0024 BB03     		.uleb128 .LEHB11-.LFB1116
 1397 0026 32       		.uleb128 .LEHE11-.LEHB11
 1398 0027 8C05     		.uleb128 .L140-.LFB1116
 1399 0029 01       		.uleb128 0x1
 1400 002a ED03     		.uleb128 .LEHB12-.LFB1116
 1401 002c 32       		.uleb128 .LEHE12-.LEHB12
 1402 002d D304     		.uleb128 .L142-.LFB1116
 1403 002f 01       		.uleb128 0x1
 1404 0030 AD04     		.uleb128 .LEHB13-.LFB1116
 1405 0032 05       		.uleb128 .LEHE13-.LEHB13
 1406 0033 00       		.uleb128 0
 1407 0034 00       		.uleb128 0
 1408 0035 DB04     		.uleb128 .LEHB14-.LFB1116
 1409 0037 2A       		.uleb128 .LEHE14-.LEHB14
 1410 0038 8906     		.uleb128 .L143-.LFB1116
 1411 003a 00       		.uleb128 0
 1412 003b 8505     		.uleb128 .LEHB15-.LFB1116
 1413 003d 05       		.uleb128 .LEHE15-.LEHB15
 1414 003e A908     		.uleb128 .L131-.LFB1116
 1415 0040 00       		.uleb128 0
 1416 0041 9505     		.uleb128 .LEHB16-.LFB1116
 1417 0043 2A       		.uleb128 .LEHE16-.LEHB16
 1418 0044 B006     		.uleb128 .L141-.LFB1116
 1419 0046 00       		.uleb128 0
 1420 0047 BF05     		.uleb128 .LEHB17-.LFB1116
 1421 0049 05       		.uleb128 .LEHE17-.LEHB17
 1422 004a A908     		.uleb128 .L131-.LFB1116
 1423 004c 00       		.uleb128 0
 1424 004d D505     		.uleb128 .LEHB18-.LFB1116
 1425 004f 2A       		.uleb128 .LEHE18-.LEHB18
 1426 0050 BA06     		.uleb128 .L139-.LFB1116
 1427 0052 00       		.uleb128 0
 1428 0053 FF05     		.uleb128 .LEHB19-.LFB1116
 1429 0055 05       		.uleb128 .LEHE19-.LEHB19
 1430 0056 A908     		.uleb128 .L131-.LFB1116
 1431 0058 00       		.uleb128 0
 1432 0059 AB06     		.uleb128 .LEHB20-.LFB1116
 1433 005b 05       		.uleb128 .LEHE20-.LEHB20
 1434 005c 00       		.uleb128 0
 1435 005d 00       		.uleb128 0
 1436 005e D006     		.uleb128 .LEHB21-.LFB1116
 1437 0060 2A       		.uleb128 .LEHE21-.LEHB21
 1438 0061 C407     		.uleb128 .L137-.LFB1116
 1439 0063 00       		.uleb128 0
 1440 0064 FA06     		.uleb128 .LEHB22-.LFB1116
 1441 0066 05       		.uleb128 .LEHE22-.LEHB22
 1442 0067 A908     		.uleb128 .L131-.LFB1116
 1443 0069 00       		.uleb128 0
 1444 006a 9007     		.uleb128 .LEHB23-.LFB1116
 1445 006c 2A       		.uleb128 .LEHE23-.LEHB23
 1446 006d D507     		.uleb128 .L135-.LFB1116
 1447 006f 00       		.uleb128 0
 1448 0070 BA07     		.uleb128 .LEHB24-.LFB1116
 1449 0072 05       		.uleb128 .LEHE24-.LEHB24
 1450 0073 A908     		.uleb128 .L131-.LFB1116
 1451 0075 00       		.uleb128 0
 1452 0076 F007     		.uleb128 .LEHB25-.LFB1116
 1453 0078 2F       		.uleb128 .LEHE25-.LEHB25
 1454 0079 B508     		.uleb128 .L133-.LFB1116
 1455 007b 00       		.uleb128 0
 1456 007c 9F08     		.uleb128 .LEHB26-.LFB1116
 1457 007e 05       		.uleb128 .LEHE26-.LEHB26
 1458 007f A908     		.uleb128 .L131-.LFB1116
 1459 0081 00       		.uleb128 0
 1460              	.LLSDACSE1116:
 1461 0082 01       		.byte	0x1
 1462 0083 00       		.byte	0
 1463              		.align 4
 1464 0084 00000000 		.long	0
 1465              	
 1466              	.LLSDATT1116:
 1467              		.text
 1469              		.align 2
 1470 05f2 66666666 		.p2align 4,,15
 1470      662E0F1F 
 1470      84000000 
 1470      0000
 1472              	_ZNK12_GLOBAL__N_148TestNotifiesReporterOfTestFailureWithCorrectInfo7RunImplEv:
 1473              	.LFB1112:
 1474              		.cfi_startproc
 1475              		.cfi_personality 0x3,__gxx_personality_v0
 1476              		.cfi_lsda 0x3,.LLSDA1112
 1477 0600 53       		pushq	%rbx
 1478              		.cfi_def_cfa_offset 16
 1479              		.cfi_offset 3, -16
 1480 0601 4881EC90 		subq	$2192, %rsp
 1480      080000
 1481              		.cfi_def_cfa_offset 2208
 1482 0608 488D7424 		leaq	80(%rsp), %rsi
 1482      50
 1483 060d 488D7C24 		leaq	16(%rsp), %rdi
 1483      10
 1484 0612 48C74424 		movq	$_ZTV17RecordingReporter+16, 80(%rsp)
 1484      50000000 
 1484      00
 1485 061b 64488B04 		movq	%fs:40, %rax
 1485      25280000 
 1485      00
 1486 0624 48898424 		movq	%rax, 2184(%rsp)
 1486      88080000 
 1487 062c 31C0     		xorl	%eax, %eax
 1488 062e C7442458 		movl	$0, 88(%rsp)
 1488      00000000 
 1489 0636 C784245C 		movl	$0, 604(%rsp)
 1489      02000000 
 1489      000000
 1490 0641 C7842460 		movl	$0, 864(%rsp)
 1490      03000000 
 1490      000000
 1491 064c C7842464 		movl	$0, 1636(%rsp)
 1491      06000000 
 1491      000000
 1492 0657 C7842468 		movl	$0x00000000, 2152(%rsp)
 1492      08000000 
 1492      000000
 1493 0662 C784246C 		movl	$0, 2156(%rsp)
 1493      08000000 
 1493      000000
 1494 066d C7842470 		movl	$0, 2160(%rsp)
 1494      08000000 
 1494      000000
 1495 0678 C7842474 		movl	$0, 2164(%rsp)
 1495      08000000 
 1495      000000
 1496 0683 C7842478 		movl	$0x00000000, 2168(%rsp)
 1496      08000000 
 1496      000000
 1497 068e C644245C 		movb	$0, 92(%rsp)
 1497      00
 1498 0693 C684245C 		movb	$0, 348(%rsp)
 1498      01000000 
 1499 069b C6842460 		movb	$0, 608(%rsp)
 1499      02000000 
 1500 06a3 C6842464 		movb	$0, 868(%rsp)
 1500      03000000 
 1501 06ab C6842464 		movb	$0, 1124(%rsp)
 1501      04000000 
 1502 06b3 C6842464 		movb	$0, 1380(%rsp)
 1502      05000000 
 1503 06bb C6842468 		movb	$0, 1640(%rsp)
 1503      06000000 
 1504 06c3 C6842468 		movb	$0, 1896(%rsp)
 1504      07000000 
 1505              	.LEHB27:
 1506 06cb E8000000 		call	_ZN8UnitTest11TestResultsC1EPNS_12TestReporterE
 1506      00
 1507 06d0 488D7C24 		leaq	16(%rsp), %rdi
 1507      10
 1508 06d5 BA000000 		movl	$.LC3, %edx
 1508      00
 1509 06da BE000000 		movl	$_ZN12_GLOBAL__N_1L7detailsE, %esi
 1509      00
 1510 06df E8000000 		call	_ZN8UnitTest11TestResults13OnTestFailureERKNS_11TestDetailsEPKc
 1510      00
 1511              	.LEHE27:
 1512              	.LEHB28:
 1513 06e4 E8000000 		call	_ZN8UnitTest11CurrentTest7DetailsEv
 1513      00
 1514 06e9 488D5C24 		leaq	48(%rsp), %rbx
 1514      30
 1515 06ee 488B30   		movq	(%rax), %rsi
 1516 06f1 BA4B0000 		movl	$75, %edx
 1516      00
 1517 06f6 4889DF   		movq	%rbx, %rdi
 1518 06f9 E8000000 		call	_ZN8UnitTest11TestDetailsC1ERKS0_i
 1518      00
 1519 06fe C7042401 		movl	$1, (%rsp)
 1519      000000
 1520 0705 E8000000 		call	_ZN8UnitTest11CurrentTest7ResultsEv
 1520      00
 1521 070a 488B38   		movq	(%rax), %rdi
 1522 070d 488D9424 		leaq	604(%rsp), %rdx
 1522      5C020000 
 1523 0715 4889D9   		movq	%rbx, %rcx
 1524 0718 4889E6   		movq	%rsp, %rsi
 1525 071b E8000000 		call	_ZN8UnitTest10CheckEqualIiiEEvRNS_11TestResultsERKT_RKT0_RKNS_11TestDetailsE
 1525      00
 1526              	.LEHE28:
 1527              	.L151:
 1528              	.LEHB29:
 1529 0720 E8000000 		call	_ZN8UnitTest11CurrentTest7DetailsEv
 1529      00
 1530 0725 488B30   		movq	(%rax), %rsi
 1531 0728 BA4C0000 		movl	$76, %edx
 1531      00
 1532 072d 4889DF   		movq	%rbx, %rdi
 1533 0730 E8000000 		call	_ZN8UnitTest11TestDetailsC1ERKS0_i
 1533      00
 1534 0735 E8000000 		call	_ZN8UnitTest11CurrentTest7ResultsEv
 1534      00
 1535 073a 488B38   		movq	(%rax), %rdi
 1536 073d 488D9424 		leaq	608(%rsp), %rdx
 1536      60020000 
 1537 0745 4889D9   		movq	%rbx, %rcx
 1538 0748 BE000000 		movl	$.LC4, %esi
 1538      00
 1539 074d E8000000 		call	_ZN8UnitTest10CheckEqualERNS_11TestResultsEPKcPcRKNS_11TestDetailsE
 1539      00
 1540              	.LEHE29:
 1541              	.L154:
 1542              	.LEHB30:
 1543 0752 E8000000 		call	_ZN8UnitTest11CurrentTest7DetailsEv
 1543      00
 1544 0757 488B30   		movq	(%rax), %rsi
 1545 075a BA4D0000 		movl	$77, %edx
 1545      00
 1546 075f 4889DF   		movq	%rbx, %rdi
 1547 0762 E8000000 		call	_ZN8UnitTest11TestDetailsC1ERKS0_i
 1547      00
 1548 0767 C704247B 		movl	$123, (%rsp)
 1548      000000
 1549 076e E8000000 		call	_ZN8UnitTest11CurrentTest7ResultsEv
 1549      00
 1550 0773 488B38   		movq	(%rax), %rdi
 1551 0776 488D9424 		leaq	864(%rsp), %rdx
 1551      60030000 
 1552 077e 4889D9   		movq	%rbx, %rcx
 1553 0781 4889E6   		movq	%rsp, %rsi
 1554 0784 E8000000 		call	_ZN8UnitTest10CheckEqualIiiEEvRNS_11TestResultsERKT_RKT0_RKNS_11TestDetailsE
 1554      00
 1555              	.LEHE30:
 1556              	.L157:
 1557              	.LEHB31:
 1558 0789 E8000000 		call	_ZN8UnitTest11CurrentTest7DetailsEv
 1558      00
 1559 078e 488B30   		movq	(%rax), %rsi
 1560 0791 BA4E0000 		movl	$78, %edx
 1560      00
 1561 0796 4889DF   		movq	%rbx, %rdi
 1562 0799 E8000000 		call	_ZN8UnitTest11TestDetailsC1ERKS0_i
 1562      00
 1563 079e E8000000 		call	_ZN8UnitTest11CurrentTest7ResultsEv
 1563      00
 1564 07a3 488B38   		movq	(%rax), %rdi
 1565 07a6 488D9424 		leaq	868(%rsp), %rdx
 1565      64030000 
 1566 07ae 4889D9   		movq	%rbx, %rcx
 1567 07b1 BE000000 		movl	$.LC6, %esi
 1567      00
 1568 07b6 E8000000 		call	_ZN8UnitTest10CheckEqualERNS_11TestResultsEPKcPcRKNS_11TestDetailsE
 1568      00
 1569              	.LEHE31:
 1570              	.L160:
 1571              	.LEHB32:
 1572 07bb E8000000 		call	_ZN8UnitTest11CurrentTest7DetailsEv
 1572      00
 1573 07c0 488B30   		movq	(%rax), %rsi
 1574 07c3 BA4F0000 		movl	$79, %edx
 1574      00
 1575 07c8 4889DF   		movq	%rbx, %rdi
 1576 07cb E8000000 		call	_ZN8UnitTest11TestDetailsC1ERKS0_i
 1576      00
 1577 07d0 E8000000 		call	_ZN8UnitTest11CurrentTest7ResultsEv
 1577      00
 1578 07d5 488B38   		movq	(%rax), %rdi
 1579 07d8 488D9424 		leaq	1124(%rsp), %rdx
 1579      64040000 
 1580 07e0 4889D9   		movq	%rbx, %rcx
 1581 07e3 BE000000 		movl	$.LC5, %esi
 1581      00
 1582 07e8 E8000000 		call	_ZN8UnitTest10CheckEqualERNS_11TestResultsEPKcPcRKNS_11TestDetailsE
 1582      00
 1583              	.LEHE32:
 1584              	.L163:
 1585              	.LEHB33:
 1586 07ed E8000000 		call	_ZN8UnitTest11CurrentTest7DetailsEv
 1586      00
 1587 07f2 488B30   		movq	(%rax), %rsi
 1588 07f5 BA500000 		movl	$80, %edx
 1588      00
 1589 07fa 4889DF   		movq	%rbx, %rdi
 1590 07fd E8000000 		call	_ZN8UnitTest11TestDetailsC1ERKS0_i
 1590      00
 1591 0802 E8000000 		call	_ZN8UnitTest11CurrentTest7ResultsEv
 1591      00
 1592 0807 488B38   		movq	(%rax), %rdi
 1593 080a 488D9424 		leaq	1380(%rsp), %rdx
 1593      64050000 
 1594 0812 4889D9   		movq	%rbx, %rcx
 1595 0815 BE000000 		movl	$.LC3, %esi
 1595      00
 1596 081a E8000000 		call	_ZN8UnitTest10CheckEqualERNS_11TestResultsEPKcPcRKNS_11TestDetailsE
 1596      00
 1597              	.LEHE33:
 1598              	.L166:
 1599 081f 488D7C24 		leaq	80(%rsp), %rdi
 1599      50
 1600 0824 48C74424 		movq	$_ZTV17RecordingReporter+16, 80(%rsp)
 1600      50000000 
 1600      00
 1601              	.LEHB34:
 1602 082d E8000000 		call	_ZN8UnitTest12TestReporterD2Ev
 1602      00
 1603              	.LEHE34:
 1604 0832 488B8424 		movq	2184(%rsp), %rax
 1604      88080000 
 1605 083a 64483304 		xorq	%fs:40, %rax
 1605      25280000 
 1605      00
 1606 0843 7509     		jne	.L183
 1607 0845 4881C490 		addq	$2192, %rsp
 1607      080000
 1608              		.cfi_remember_state
 1609              		.cfi_def_cfa_offset 16
 1610 084c 5B       		popq	%rbx
 1611              		.cfi_def_cfa_offset 8
 1612 084d C3       		ret
 1613              	.L183:
 1614              		.cfi_restore_state
 1615 084e E8000000 		call	__stack_chk_fail
 1615      00
 1616              	.L179:
 1617 0853 4889C7   		movq	%rax, %rdi
 1618 0856 E8000000 		call	__cxa_begin_catch
 1618      00
 1619              	.LEHB35:
 1620 085b E8000000 		call	_ZN8UnitTest11CurrentTest7DetailsEv
 1620      00
 1621 0860 488B30   		movq	(%rax), %rsi
 1622 0863 BA500000 		movl	$80, %edx
 1622      00
 1623 0868 4889DF   		movq	%rbx, %rdi
 1624 086b E8000000 		call	_ZN8UnitTest11TestDetailsC1ERKS0_i
 1624      00
 1625 0870 E8000000 		call	_ZN8UnitTest11CurrentTest7ResultsEv
 1625      00
 1626 0875 488B38   		movq	(%rax), %rdi
 1627 0878 BA000000 		movl	$.LC12, %edx
 1627      00
 1628 087d 4889DE   		movq	%rbx, %rsi
 1629 0880 E8000000 		call	_ZN8UnitTest11TestResults13OnTestFailureERKNS_11TestDetailsEPKc
 1629      00
 1630              	.LEHE35:
 1631              	.LEHB36:
 1632 0885 E8000000 		call	__cxa_end_catch
 1632      00
 1633              	.LEHE36:
 1634 088a EB93     		jmp	.L166
 1635              	.L177:
 1636 088c 4889C7   		movq	%rax, %rdi
 1637 088f 90       		.p2align 4,,5
 1638 0890 E8000000 		call	__cxa_begin_catch
 1638      00
 1639              		.p2align 4,,5
 1640              	.LEHB37:
 1641 0895 E8000000 		call	_ZN8UnitTest11CurrentTest7DetailsEv
 1641      00
 1642 089a 488B30   		movq	(%rax), %rsi
 1643 089d BA4F0000 		movl	$79, %edx
 1643      00
 1644 08a2 4889DF   		movq	%rbx, %rdi
 1645 08a5 E8000000 		call	_ZN8UnitTest11TestDetailsC1ERKS0_i
 1645      00
 1646 08aa E8000000 		call	_ZN8UnitTest11CurrentTest7ResultsEv
 1646      00
 1647 08af 488B38   		movq	(%rax), %rdi
 1648 08b2 BA000000 		movl	$.LC10, %edx
 1648      00
 1649 08b7 4889DE   		movq	%rbx, %rsi
 1650 08ba E8000000 		call	_ZN8UnitTest11TestResults13OnTestFailureERKNS_11TestDetailsEPKc
 1650      00
 1651              	.LEHE37:
 1652              	.LEHB38:
 1653 08bf E8000000 		call	__cxa_end_catch
 1653      00
 1654              	.LEHE38:
 1655 08c4 E924FFFF 		jmp	.L163
 1655      FF
 1656              	.L175:
 1657 08c9 4889C7   		movq	%rax, %rdi
 1658 08cc 0F1F4000 		.p2align 4,,5
 1659 08d0 E8000000 		call	__cxa_begin_catch
 1659      00
 1660              		.p2align 4,,5
 1661              	.LEHB39:
 1662 08d5 E8000000 		call	_ZN8UnitTest11CurrentTest7DetailsEv
 1662      00
 1663 08da 488B30   		movq	(%rax), %rsi
 1664 08dd BA4E0000 		movl	$78, %edx
 1664      00
 1665 08e2 4889DF   		movq	%rbx, %rdi
 1666 08e5 E8000000 		call	_ZN8UnitTest11TestDetailsC1ERKS0_i
 1666      00
 1667 08ea E8000000 		call	_ZN8UnitTest11CurrentTest7ResultsEv
 1667      00
 1668 08ef 488B38   		movq	(%rax), %rdi
 1669 08f2 BA000000 		movl	$.LC11, %edx
 1669      00
 1670 08f7 4889DE   		movq	%rbx, %rsi
 1671 08fa E8000000 		call	_ZN8UnitTest11TestResults13OnTestFailureERKNS_11TestDetailsEPKc
 1671      00
 1672              	.LEHE39:
 1673              	.LEHB40:
 1674 08ff E8000000 		call	__cxa_end_catch
 1674      00
 1675              	.LEHE40:
 1676 0904 E9B2FEFF 		jmp	.L160
 1676      FF
 1677              	.L180:
 1678 0909 4889C3   		movq	%rax, %rbx
 1679 090c 0F1F4000 		.p2align 4,,5
 1680 0910 E8000000 		call	__cxa_end_catch
 1680      00
 1681              	.L149:
 1682 0915 488D7C24 		leaq	80(%rsp), %rdi
 1682      50
 1683 091a 48C74424 		movq	$_ZTV17RecordingReporter+16, 80(%rsp)
 1683      50000000 
 1683      00
 1684 0923 E8000000 		call	_ZN8UnitTest12TestReporterD2Ev
 1684      00
 1685 0928 4889DF   		movq	%rbx, %rdi
 1686              	.LEHB41:
 1687 092b E8000000 		call	_Unwind_Resume
 1687      00
 1688              	.LEHE41:
 1689              	.L178:
 1690 0930 4889C3   		movq	%rax, %rbx
 1691 0933 E8000000 		call	__cxa_end_catch
 1691      00
 1692 0938 EBDB     		jmp	.L149
 1693              	.L176:
 1694 093a 4889C3   		movq	%rax, %rbx
 1695 093d E8000000 		call	__cxa_end_catch
 1695      00
 1696              		.p2align 4,,5
 1697 0942 EBD1     		jmp	.L149
 1698              	.L173:
 1699 0944 4889C7   		movq	%rax, %rdi
 1700 0947 E8000000 		call	__cxa_begin_catch
 1700      00
 1701 094c 0F1F4000 		.p2align 4,,5
 1702              	.LEHB42:
 1703 0950 E8000000 		call	_ZN8UnitTest11CurrentTest7DetailsEv
 1703      00
 1704 0955 488B30   		movq	(%rax), %rsi
 1705 0958 BA4D0000 		movl	$77, %edx
 1705      00
 1706 095d 4889DF   		movq	%rbx, %rdi
 1707 0960 E8000000 		call	_ZN8UnitTest11TestDetailsC1ERKS0_i
 1707      00
 1708 0965 E8000000 		call	_ZN8UnitTest11CurrentTest7ResultsEv
 1708      00
 1709 096a 488B38   		movq	(%rax), %rdi
 1710 096d BA000000 		movl	$.LC9, %edx
 1710      00
 1711 0972 4889DE   		movq	%rbx, %rsi
 1712 0975 E8000000 		call	_ZN8UnitTest11TestResults13OnTestFailureERKNS_11TestDetailsEPKc
 1712      00
 1713              	.LEHE42:
 1714              	.LEHB43:
 1715 097a E8000000 		call	__cxa_end_catch
 1715      00
 1716              	.LEHE43:
 1717 097f E905FEFF 		jmp	.L157
 1717      FF
 1718              	.L171:
 1719 0984 4889C7   		movq	%rax, %rdi
 1720              		.p2align 4,,5
 1721 0987 E8000000 		call	__cxa_begin_catch
 1721      00
 1722 098c 0F1F4000 		.p2align 4,,5
 1723              	.LEHB44:
 1724 0990 E8000000 		call	_ZN8UnitTest11CurrentTest7DetailsEv
 1724      00
 1725 0995 488B30   		movq	(%rax), %rsi
 1726 0998 BA4C0000 		movl	$76, %edx
 1726      00
 1727 099d 4889DF   		movq	%rbx, %rdi
 1728 09a0 E8000000 		call	_ZN8UnitTest11TestDetailsC1ERKS0_i
 1728      00
 1729 09a5 E8000000 		call	_ZN8UnitTest11CurrentTest7ResultsEv
 1729      00
 1730 09aa 488B38   		movq	(%rax), %rdi
 1731 09ad BA000000 		movl	$.LC8, %edx
 1731      00
 1732 09b2 4889DE   		movq	%rbx, %rsi
 1733 09b5 E8000000 		call	_ZN8UnitTest11TestResults13OnTestFailureERKNS_11TestDetailsEPKc
 1733      00
 1734              	.LEHE44:
 1735              	.LEHB45:
 1736 09ba E8000000 		call	__cxa_end_catch
 1736      00
 1737              	.LEHE45:
 1738 09bf E98EFDFF 		jmp	.L154
 1738      FF
 1739              	.L174:
 1740 09c4 4889C3   		movq	%rax, %rbx
 1741              		.p2align 4,,5
 1742 09c7 E8000000 		call	__cxa_end_catch
 1742      00
 1743 09cc 0F1F4000 		.p2align 4,,5
 1744 09d0 E940FFFF 		jmp	.L149
 1744      FF
 1745              	.L172:
 1746 09d5 4889C3   		movq	%rax, %rbx
 1747 09d8 E8000000 		call	__cxa_end_catch
 1747      00
 1748 09dd 0F1F00   		.p2align 4,,5
 1749 09e0 E930FFFF 		jmp	.L149
 1749      FF
 1750              	.L169:
 1751 09e5 4889C7   		movq	%rax, %rdi
 1752 09e8 E8000000 		call	__cxa_begin_catch
 1752      00
 1753 09ed 0F1F00   		.p2align 4,,5
 1754              	.LEHB46:
 1755 09f0 E8000000 		call	_ZN8UnitTest11CurrentTest7DetailsEv
 1755      00
 1756 09f5 488D5C24 		leaq	48(%rsp), %rbx
 1756      30
 1757 09fa 488B30   		movq	(%rax), %rsi
 1758 09fd BA4B0000 		movl	$75, %edx
 1758      00
 1759 0a02 4889DF   		movq	%rbx, %rdi
 1760 0a05 E8000000 		call	_ZN8UnitTest11TestDetailsC1ERKS0_i
 1760      00
 1761 0a0a E8000000 		call	_ZN8UnitTest11CurrentTest7ResultsEv
 1761      00
 1762 0a0f 488B38   		movq	(%rax), %rdi
 1763 0a12 BA000000 		movl	$.LC7, %edx
 1763      00
 1764 0a17 4889DE   		movq	%rbx, %rsi
 1765 0a1a E8000000 		call	_ZN8UnitTest11TestResults13OnTestFailureERKNS_11TestDetailsEPKc
 1765      00
 1766              	.LEHE46:
 1767              	.LEHB47:
 1768 0a1f E8000000 		call	__cxa_end_catch
 1768      00
 1769              	.LEHE47:
 1770 0a24 E9F7FCFF 		jmp	.L151
 1770      FF
 1771              	.L168:
 1772 0a29 4889C3   		movq	%rax, %rbx
 1773 0a2c 0F1F4000 		.p2align 4,,5
 1774 0a30 E9E0FEFF 		jmp	.L149
 1774      FF
 1775              	.L170:
 1776 0a35 4889C3   		movq	%rax, %rbx
 1777              		.p2align 4,,5
 1778 0a38 E8000000 		call	__cxa_end_catch
 1778      00
 1779              		.p2align 4,,2
 1780 0a3d E9D3FEFF 		jmp	.L149
 1780      FF
 1781              		.cfi_endproc
 1782              	.LFE1112:
 1783              		.section	.gcc_except_table
 1784              		.align 4
 1785              	.LLSDA1112:
 1786 0088 FF       		.byte	0xff
 1787 0089 03       		.byte	0x3
 1788 008a 8401     		.uleb128 .LLSDATT1112-.LLSDATTD1112
 1789              	.LLSDATTD1112:
 1790 008c 01       		.byte	0x1
 1791 008d 7C       		.uleb128 .LLSDACSE1112-.LLSDACSB1112
 1792              	.LLSDACSB1112:
 1793 008e CB01     		.uleb128 .LEHB27-.LFB1112
 1794 0090 19       		.uleb128 .LEHE27-.LEHB27
 1795 0091 A908     		.uleb128 .L168-.LFB1112
 1796 0093 00       		.uleb128 0
 1797 0094 E401     		.uleb128 .LEHB28-.LFB1112
 1798 0096 3C       		.uleb128 .LEHE28-.LEHB28
 1799 0097 E507     		.uleb128 .L169-.LFB1112
 1800 0099 01       		.uleb128 0x1
 1801 009a A002     		.uleb128 .LEHB29-.LFB1112
 1802 009c 32       		.uleb128 .LEHE29-.LEHB29
 1803 009d 8407     		.uleb128 .L171-.LFB1112
 1804 009f 01       		.uleb128 0x1
 1805 00a0 D202     		.uleb128 .LEHB30-.LFB1112
 1806 00a2 37       		.uleb128 .LEHE30-.LEHB30
 1807 00a3 C406     		.uleb128 .L173-.LFB1112
 1808 00a5 01       		.uleb128 0x1
 1809 00a6 8903     		.uleb128 .LEHB31-.LFB1112
 1810 00a8 32       		.uleb128 .LEHE31-.LEHB31
 1811 00a9 C905     		.uleb128 .L175-.LFB1112
 1812 00ab 01       		.uleb128 0x1
 1813 00ac BB03     		.uleb128 .LEHB32-.LFB1112
 1814 00ae 32       		.uleb128 .LEHE32-.LEHB32
 1815 00af 8C05     		.uleb128 .L177-.LFB1112
 1816 00b1 01       		.uleb128 0x1
 1817 00b2 ED03     		.uleb128 .LEHB33-.LFB1112
 1818 00b4 32       		.uleb128 .LEHE33-.LEHB33
 1819 00b5 D304     		.uleb128 .L179-.LFB1112
 1820 00b7 01       		.uleb128 0x1
 1821 00b8 AD04     		.uleb128 .LEHB34-.LFB1112
 1822 00ba 05       		.uleb128 .LEHE34-.LEHB34
 1823 00bb 00       		.uleb128 0
 1824 00bc 00       		.uleb128 0
 1825 00bd DB04     		.uleb128 .LEHB35-.LFB1112
 1826 00bf 2A       		.uleb128 .LEHE35-.LEHB35
 1827 00c0 8906     		.uleb128 .L180-.LFB1112
 1828 00c2 00       		.uleb128 0
 1829 00c3 8505     		.uleb128 .LEHB36-.LFB1112
 1830 00c5 05       		.uleb128 .LEHE36-.LEHB36
 1831 00c6 A908     		.uleb128 .L168-.LFB1112
 1832 00c8 00       		.uleb128 0
 1833 00c9 9505     		.uleb128 .LEHB37-.LFB1112
 1834 00cb 2A       		.uleb128 .LEHE37-.LEHB37
 1835 00cc B006     		.uleb128 .L178-.LFB1112
 1836 00ce 00       		.uleb128 0
 1837 00cf BF05     		.uleb128 .LEHB38-.LFB1112
 1838 00d1 05       		.uleb128 .LEHE38-.LEHB38
 1839 00d2 A908     		.uleb128 .L168-.LFB1112
 1840 00d4 00       		.uleb128 0
 1841 00d5 D505     		.uleb128 .LEHB39-.LFB1112
 1842 00d7 2A       		.uleb128 .LEHE39-.LEHB39
 1843 00d8 BA06     		.uleb128 .L176-.LFB1112
 1844 00da 00       		.uleb128 0
 1845 00db FF05     		.uleb128 .LEHB40-.LFB1112
 1846 00dd 05       		.uleb128 .LEHE40-.LEHB40
 1847 00de A908     		.uleb128 .L168-.LFB1112
 1848 00e0 00       		.uleb128 0
 1849 00e1 AB06     		.uleb128 .LEHB41-.LFB1112
 1850 00e3 05       		.uleb128 .LEHE41-.LEHB41
 1851 00e4 00       		.uleb128 0
 1852 00e5 00       		.uleb128 0
 1853 00e6 D006     		.uleb128 .LEHB42-.LFB1112
 1854 00e8 2A       		.uleb128 .LEHE42-.LEHB42
 1855 00e9 C407     		.uleb128 .L174-.LFB1112
 1856 00eb 00       		.uleb128 0
 1857 00ec FA06     		.uleb128 .LEHB43-.LFB1112
 1858 00ee 05       		.uleb128 .LEHE43-.LEHB43
 1859 00ef A908     		.uleb128 .L168-.LFB1112
 1860 00f1 00       		.uleb128 0
 1861 00f2 9007     		.uleb128 .LEHB44-.LFB1112
 1862 00f4 2A       		.uleb128 .LEHE44-.LEHB44
 1863 00f5 D507     		.uleb128 .L172-.LFB1112
 1864 00f7 00       		.uleb128 0
 1865 00f8 BA07     		.uleb128 .LEHB45-.LFB1112
 1866 00fa 05       		.uleb128 .LEHE45-.LEHB45
 1867 00fb A908     		.uleb128 .L168-.LFB1112
 1868 00fd 00       		.uleb128 0
 1869 00fe F007     		.uleb128 .LEHB46-.LFB1112
 1870 0100 2F       		.uleb128 .LEHE46-.LEHB46
 1871 0101 B508     		.uleb128 .L170-.LFB1112
 1872 0103 00       		.uleb128 0
 1873 0104 9F08     		.uleb128 .LEHB47-.LFB1112
 1874 0106 05       		.uleb128 .LEHE47-.LEHB47
 1875 0107 A908     		.uleb128 .L168-.LFB1112
 1876 0109 00       		.uleb128 0
 1877              	.LLSDACSE1112:
 1878 010a 01       		.byte	0x1
 1879 010b 00       		.byte	0
 1880              		.align 4
 1881 010c 00000000 		.long	0
 1882              	
 1883              	.LLSDATT1112:
 1884              		.text
 1886              		.section	.rodata.str1.8
 1887              		.align 8
 1888              	.LC13:
 1889 01b8 556E6861 		.string	"Unhandled exception in CHECK_EQUAL(1, reporter.testRunCount)"
 1889      6E646C65 
 1889      64206578 
 1889      63657074 
 1889      696F6E20 
 1890 01f5 000000   		.align 8
 1891              	.LC14:
 1892 01f8 556E6861 		.string	"Unhandled exception in CHECK_EQUAL(\"suitename\", reporter.lastStartedSuite)"
 1892      6E646C65 
 1892      64206578 
 1892      63657074 
 1892      696F6E20 
 1893 0243 00000000 		.align 8
 1893      00
 1894              	.LC15:
 1895 0248 556E6861 		.string	"Unhandled exception in CHECK_EQUAL(\"testname\", reporter.lastStartedTest)"
 1895      6E646C65 
 1895      64206578 
 1895      63657074 
 1895      696F6E20 
 1896              		.text
 1897              		.align 2
 1898 0a42 66666666 		.p2align 4,,15
 1898      662E0F1F 
 1898      84000000 
 1898      0000
 1900              	_ZNK12_GLOBAL__N_146TestNotifiesReporterOfTestStartWithCorrectInfo7RunImplEv:
 1901              	.LFB1108:
 1902              		.cfi_startproc
 1903              		.cfi_personality 0x3,__gxx_personality_v0
 1904              		.cfi_lsda 0x3,.LLSDA1108
 1905 0a50 53       		pushq	%rbx
 1906              		.cfi_def_cfa_offset 16
 1907              		.cfi_offset 3, -16
 1908 0a51 4881EC90 		subq	$2192, %rsp
 1908      080000
 1909              		.cfi_def_cfa_offset 2208
 1910 0a58 488D7424 		leaq	80(%rsp), %rsi
 1910      50
 1911 0a5d 488D7C24 		leaq	16(%rsp), %rdi
 1911      10
 1912 0a62 48C74424 		movq	$_ZTV17RecordingReporter+16, 80(%rsp)
 1912      50000000 
 1912      00
 1913 0a6b 64488B04 		movq	%fs:40, %rax
 1913      25280000 
 1913      00
 1914 0a74 48898424 		movq	%rax, 2184(%rsp)
 1914      88080000 
 1915 0a7c 31C0     		xorl	%eax, %eax
 1916 0a7e C7442458 		movl	$0, 88(%rsp)
 1916      00000000 
 1917 0a86 C784245C 		movl	$0, 604(%rsp)
 1917      02000000 
 1917      000000
 1918 0a91 C7842460 		movl	$0, 864(%rsp)
 1918      03000000 
 1918      000000
 1919 0a9c C7842464 		movl	$0, 1636(%rsp)
 1919      06000000 
 1919      000000
 1920 0aa7 C7842468 		movl	$0x00000000, 2152(%rsp)
 1920      08000000 
 1920      000000
 1921 0ab2 C784246C 		movl	$0, 2156(%rsp)
 1921      08000000 
 1921      000000
 1922 0abd C7842470 		movl	$0, 2160(%rsp)
 1922      08000000 
 1922      000000
 1923 0ac8 C7842474 		movl	$0, 2164(%rsp)
 1923      08000000 
 1923      000000
 1924 0ad3 C7842478 		movl	$0x00000000, 2168(%rsp)
 1924      08000000 
 1924      000000
 1925 0ade C644245C 		movb	$0, 92(%rsp)
 1925      00
 1926 0ae3 C684245C 		movb	$0, 348(%rsp)
 1926      01000000 
 1927 0aeb C6842460 		movb	$0, 608(%rsp)
 1927      02000000 
 1928 0af3 C6842464 		movb	$0, 868(%rsp)
 1928      03000000 
 1929 0afb C6842464 		movb	$0, 1124(%rsp)
 1929      04000000 
 1930 0b03 C6842464 		movb	$0, 1380(%rsp)
 1930      05000000 
 1931 0b0b C6842468 		movb	$0, 1640(%rsp)
 1931      06000000 
 1932 0b13 C6842468 		movb	$0, 1896(%rsp)
 1932      07000000 
 1933              	.LEHB48:
 1934 0b1b E8000000 		call	_ZN8UnitTest11TestResultsC1EPNS_12TestReporterE
 1934      00
 1935 0b20 488D7C24 		leaq	16(%rsp), %rdi
 1935      10
 1936 0b25 BE000000 		movl	$_ZN12_GLOBAL__N_1L7detailsE, %esi
 1936      00
 1937 0b2a E8000000 		call	_ZN8UnitTest11TestResults11OnTestStartERKNS_11TestDetailsE
 1937      00
 1938              	.LEHE48:
 1939              	.LEHB49:
 1940 0b2f E8000000 		call	_ZN8UnitTest11CurrentTest7DetailsEv
 1940      00
 1941 0b34 488D5C24 		leaq	48(%rsp), %rbx
 1941      30
 1942 0b39 488B30   		movq	(%rax), %rsi
 1943 0b3c BA400000 		movl	$64, %edx
 1943      00
 1944 0b41 4889DF   		movq	%rbx, %rdi
 1945 0b44 E8000000 		call	_ZN8UnitTest11TestDetailsC1ERKS0_i
 1945      00
 1946 0b49 C7042401 		movl	$1, (%rsp)
 1946      000000
 1947 0b50 E8000000 		call	_ZN8UnitTest11CurrentTest7ResultsEv
 1947      00
 1948 0b55 488B38   		movq	(%rax), %rdi
 1949 0b58 488D5424 		leaq	88(%rsp), %rdx
 1949      58
 1950 0b5d 4889D9   		movq	%rbx, %rcx
 1951 0b60 4889E6   		movq	%rsp, %rsi
 1952 0b63 E8000000 		call	_ZN8UnitTest10CheckEqualIiiEEvRNS_11TestResultsERKT_RKT0_RKNS_11TestDetailsE
 1952      00
 1953              	.LEHE49:
 1954              	.L188:
 1955              	.LEHB50:
 1956 0b68 E8000000 		call	_ZN8UnitTest11CurrentTest7DetailsEv
 1956      00
 1957 0b6d 488B30   		movq	(%rax), %rsi
 1958 0b70 BA410000 		movl	$65, %edx
 1958      00
 1959 0b75 4889DF   		movq	%rbx, %rdi
 1960 0b78 E8000000 		call	_ZN8UnitTest11TestDetailsC1ERKS0_i
 1960      00
 1961 0b7d E8000000 		call	_ZN8UnitTest11CurrentTest7ResultsEv
 1961      00
 1962 0b82 488B38   		movq	(%rax), %rdi
 1963 0b85 488D5424 		leaq	92(%rsp), %rdx
 1963      5C
 1964 0b8a 4889D9   		movq	%rbx, %rcx
 1965 0b8d BE000000 		movl	$.LC6, %esi
 1965      00
 1966 0b92 E8000000 		call	_ZN8UnitTest10CheckEqualERNS_11TestResultsEPKcPcRKNS_11TestDetailsE
 1966      00
 1967              	.LEHE50:
 1968              	.L191:
 1969              	.LEHB51:
 1970 0b97 E8000000 		call	_ZN8UnitTest11CurrentTest7DetailsEv
 1970      00
 1971 0b9c 488B30   		movq	(%rax), %rsi
 1972 0b9f BA420000 		movl	$66, %edx
 1972      00
 1973 0ba4 4889DF   		movq	%rbx, %rdi
 1974 0ba7 E8000000 		call	_ZN8UnitTest11TestDetailsC1ERKS0_i
 1974      00
 1975 0bac E8000000 		call	_ZN8UnitTest11CurrentTest7ResultsEv
 1975      00
 1976 0bb1 488B38   		movq	(%rax), %rdi
 1977 0bb4 488D9424 		leaq	348(%rsp), %rdx
 1977      5C010000 
 1978 0bbc 4889D9   		movq	%rbx, %rcx
 1979 0bbf BE000000 		movl	$.LC5, %esi
 1979      00
 1980 0bc4 E8000000 		call	_ZN8UnitTest10CheckEqualERNS_11TestResultsEPKcPcRKNS_11TestDetailsE
 1980      00
 1981              	.LEHE51:
 1982              	.L194:
 1983 0bc9 488D7C24 		leaq	80(%rsp), %rdi
 1983      50
 1984 0bce 48C74424 		movq	$_ZTV17RecordingReporter+16, 80(%rsp)
 1984      50000000 
 1984      00
 1985              	.LEHB52:
 1986 0bd7 E8000000 		call	_ZN8UnitTest12TestReporterD2Ev
 1986      00
 1987              	.LEHE52:
 1988 0bdc 488B8424 		movq	2184(%rsp), %rax
 1988      88080000 
 1989 0be4 64483304 		xorq	%fs:40, %rax
 1989      25280000 
 1989      00
 1990 0bed 7509     		jne	.L205
 1991 0bef 4881C490 		addq	$2192, %rsp
 1991      080000
 1992              		.cfi_remember_state
 1993              		.cfi_def_cfa_offset 16
 1994 0bf6 5B       		popq	%rbx
 1995              		.cfi_def_cfa_offset 8
 1996 0bf7 C3       		ret
 1997              	.L205:
 1998              		.cfi_restore_state
 1999 0bf8 E8000000 		call	__stack_chk_fail
 1999      00
 2000              	.L201:
 2001 0bfd 4889C7   		movq	%rax, %rdi
 2002 0c00 E8000000 		call	__cxa_begin_catch
 2002      00
 2003              	.LEHB53:
 2004 0c05 E8000000 		call	_ZN8UnitTest11CurrentTest7DetailsEv
 2004      00
 2005 0c0a 488B30   		movq	(%rax), %rsi
 2006 0c0d BA420000 		movl	$66, %edx
 2006      00
 2007 0c12 4889DF   		movq	%rbx, %rdi
 2008 0c15 E8000000 		call	_ZN8UnitTest11TestDetailsC1ERKS0_i
 2008      00
 2009 0c1a E8000000 		call	_ZN8UnitTest11CurrentTest7ResultsEv
 2009      00
 2010 0c1f 488B38   		movq	(%rax), %rdi
 2011 0c22 BA000000 		movl	$.LC15, %edx
 2011      00
 2012 0c27 4889DE   		movq	%rbx, %rsi
 2013 0c2a E8000000 		call	_ZN8UnitTest11TestResults13OnTestFailureERKNS_11TestDetailsEPKc
 2013      00
 2014              	.LEHE53:
 2015              	.LEHB54:
 2016 0c2f E8000000 		call	__cxa_end_catch
 2016      00
 2017              	.LEHE54:
 2018 0c34 EB93     		jmp	.L194
 2019              	.L199:
 2020 0c36 4889C7   		movq	%rax, %rdi
 2021              		.p2align 4,,5
 2022 0c39 E8000000 		call	__cxa_begin_catch
 2022      00
 2023 0c3e 6690     		.p2align 4,,5
 2024              	.LEHB55:
 2025 0c40 E8000000 		call	_ZN8UnitTest11CurrentTest7DetailsEv
 2025      00
 2026 0c45 488B30   		movq	(%rax), %rsi
 2027 0c48 BA410000 		movl	$65, %edx
 2027      00
 2028 0c4d 4889DF   		movq	%rbx, %rdi
 2029 0c50 E8000000 		call	_ZN8UnitTest11TestDetailsC1ERKS0_i
 2029      00
 2030 0c55 E8000000 		call	_ZN8UnitTest11CurrentTest7ResultsEv
 2030      00
 2031 0c5a 488B38   		movq	(%rax), %rdi
 2032 0c5d BA000000 		movl	$.LC14, %edx
 2032      00
 2033 0c62 4889DE   		movq	%rbx, %rsi
 2034 0c65 E8000000 		call	_ZN8UnitTest11TestResults13OnTestFailureERKNS_11TestDetailsEPKc
 2034      00
 2035              	.LEHE55:
 2036              	.LEHB56:
 2037 0c6a E8000000 		call	__cxa_end_catch
 2037      00
 2038              	.LEHE56:
 2039 0c6f E923FFFF 		jmp	.L191
 2039      FF
 2040              	.L202:
 2041 0c74 4889C3   		movq	%rax, %rbx
 2042              		.p2align 4,,5
 2043 0c77 E8000000 		call	__cxa_end_catch
 2043      00
 2044              	.L186:
 2045 0c7c 488D7C24 		leaq	80(%rsp), %rdi
 2045      50
 2046 0c81 48C74424 		movq	$_ZTV17RecordingReporter+16, 80(%rsp)
 2046      50000000 
 2046      00
 2047 0c8a E8000000 		call	_ZN8UnitTest12TestReporterD2Ev
 2047      00
 2048 0c8f 4889DF   		movq	%rbx, %rdi
 2049              	.LEHB57:
 2050 0c92 E8000000 		call	_Unwind_Resume
 2050      00
 2051              	.LEHE57:
 2052              	.L200:
 2053 0c97 4889C3   		movq	%rax, %rbx
 2054 0c9a E8000000 		call	__cxa_end_catch
 2054      00
 2055 0c9f EBDB     		jmp	.L186
 2056              	.L197:
 2057 0ca1 4889C7   		movq	%rax, %rdi
 2058 0ca4 E8000000 		call	__cxa_begin_catch
 2058      00
 2059              		.p2align 4,,5
 2060              	.LEHB58:
 2061 0ca9 E8000000 		call	_ZN8UnitTest11CurrentTest7DetailsEv
 2061      00
 2062 0cae 488D5C24 		leaq	48(%rsp), %rbx
 2062      30
 2063 0cb3 488B30   		movq	(%rax), %rsi
 2064 0cb6 BA400000 		movl	$64, %edx
 2064      00
 2065 0cbb 4889DF   		movq	%rbx, %rdi
 2066 0cbe E8000000 		call	_ZN8UnitTest11TestDetailsC1ERKS0_i
 2066      00
 2067 0cc3 E8000000 		call	_ZN8UnitTest11CurrentTest7ResultsEv
 2067      00
 2068 0cc8 488B38   		movq	(%rax), %rdi
 2069 0ccb BA000000 		movl	$.LC13, %edx
 2069      00
 2070 0cd0 4889DE   		movq	%rbx, %rsi
 2071 0cd3 E8000000 		call	_ZN8UnitTest11TestResults13OnTestFailureERKNS_11TestDetailsEPKc
 2071      00
 2072              	.LEHE58:
 2073              	.LEHB59:
 2074 0cd8 E8000000 		call	__cxa_end_catch
 2074      00
 2075              	.LEHE59:
 2076 0cdd E986FEFF 		jmp	.L188
 2076      FF
 2077              	.L196:
 2078 0ce2 4889C3   		movq	%rax, %rbx
 2079              		.p2align 4,,5
 2080 0ce5 EB95     		jmp	.L186
 2081              	.L198:
 2082 0ce7 4889C3   		movq	%rax, %rbx
 2083              		.p2align 4,,5
 2084 0cea E8000000 		call	__cxa_end_catch
 2084      00
 2085 0cef 90       		.p2align 4,,2
 2086 0cf0 EB8A     		jmp	.L186
 2087              		.cfi_endproc
 2088              	.LFE1108:
 2089              		.section	.gcc_except_table
 2090              		.align 4
 2091              	.LLSDA1108:
 2092 0110 FF       		.byte	0xff
 2093 0111 03       		.byte	0x3
 2094 0112 51       		.uleb128 .LLSDATT1108-.LLSDATTD1108
 2095              	.LLSDATTD1108:
 2096 0113 01       		.byte	0x1
 2097 0114 46       		.uleb128 .LLSDACSE1108-.LLSDACSB1108
 2098              	.LLSDACSB1108:
 2099 0115 CB01     		.uleb128 .LEHB48-.LFB1108
 2100 0117 14       		.uleb128 .LEHE48-.LEHB48
 2101 0118 9205     		.uleb128 .L196-.LFB1108
 2102 011a 00       		.uleb128 0
 2103 011b DF01     		.uleb128 .LEHB49-.LFB1108
 2104 011d 39       		.uleb128 .LEHE49-.LEHB49
 2105 011e D104     		.uleb128 .L197-.LFB1108
 2106 0120 01       		.uleb128 0x1
 2107 0121 9802     		.uleb128 .LEHB50-.LFB1108
 2108 0123 2F       		.uleb128 .LEHE50-.LEHB50
 2109 0124 E603     		.uleb128 .L199-.LFB1108
 2110 0126 01       		.uleb128 0x1
 2111 0127 C702     		.uleb128 .LEHB51-.LFB1108
 2112 0129 32       		.uleb128 .LEHE51-.LEHB51
 2113 012a AD03     		.uleb128 .L201-.LFB1108
 2114 012c 01       		.uleb128 0x1
 2115 012d 8703     		.uleb128 .LEHB52-.LFB1108
 2116 012f 05       		.uleb128 .LEHE52-.LEHB52
 2117 0130 00       		.uleb128 0
 2118 0131 00       		.uleb128 0
 2119 0132 B503     		.uleb128 .LEHB53-.LFB1108
 2120 0134 2A       		.uleb128 .LEHE53-.LEHB53
 2121 0135 A404     		.uleb128 .L202-.LFB1108
 2122 0137 00       		.uleb128 0
 2123 0138 DF03     		.uleb128 .LEHB54-.LFB1108
 2124 013a 05       		.uleb128 .LEHE54-.LEHB54
 2125 013b 9205     		.uleb128 .L196-.LFB1108
 2126 013d 00       		.uleb128 0
 2127 013e F003     		.uleb128 .LEHB55-.LFB1108
 2128 0140 2A       		.uleb128 .LEHE55-.LEHB55
 2129 0141 C704     		.uleb128 .L200-.LFB1108
 2130 0143 00       		.uleb128 0
 2131 0144 9A04     		.uleb128 .LEHB56-.LFB1108
 2132 0146 05       		.uleb128 .LEHE56-.LEHB56
 2133 0147 9205     		.uleb128 .L196-.LFB1108
 2134 0149 00       		.uleb128 0
 2135 014a C204     		.uleb128 .LEHB57-.LFB1108
 2136 014c 05       		.uleb128 .LEHE57-.LEHB57
 2137 014d 00       		.uleb128 0
 2138 014e 00       		.uleb128 0
 2139 014f D904     		.uleb128 .LEHB58-.LFB1108
 2140 0151 2F       		.uleb128 .LEHE58-.LEHB58
 2141 0152 9705     		.uleb128 .L198-.LFB1108
 2142 0154 00       		.uleb128 0
 2143 0155 8805     		.uleb128 .LEHB59-.LFB1108
 2144 0157 05       		.uleb128 .LEHE59-.LEHB59
 2145 0158 9205     		.uleb128 .L196-.LFB1108
 2146 015a 00       		.uleb128 0
 2147              	.LLSDACSE1108:
 2148 015b 01       		.byte	0x1
 2149 015c 00       		.byte	0
 2150 015d 000000   		.align 4
 2151 0160 00000000 		.long	0
 2152              	
 2153              	.LLSDATT1108:
 2154              		.text
 2156              		.section	.rodata.str1.1
 2157              	.LC16:
 2158 003e 00       		.string	""
 2159              		.section	.rodata.str1.8
 2160 0291 00000000 		.align 8
 2160      000000
 2161              	.LC17:
 2162 0298 556E6861 		.string	"Unhandled exception in CHECK_EQUAL(2, results.GetFailedTestCount())"
 2162      6E646C65 
 2162      64206578 
 2162      63657074 
 2162      696F6E20 
 2163              		.text
 2164              		.align 2
 2165 0cf2 66666666 		.p2align 4,,15
 2165      662E0F1F 
 2165      84000000 
 2165      0000
 2167              	_ZNK12_GLOBAL__N_130TestRecordsNumberOfFailedTests7RunImplEv:
 2168              	.LFB1104:
 2169              		.cfi_startproc
 2170              		.cfi_personality 0x3,__gxx_personality_v0
 2171              		.cfi_lsda 0x3,.LLSDA1104
 2172 0d00 53       		pushq	%rbx
 2173              		.cfi_def_cfa_offset 16
 2174              		.cfi_offset 3, -16
 2175 0d01 31F6     		xorl	%esi, %esi
 2176 0d03 4883EC60 		subq	$96, %rsp
 2177              		.cfi_def_cfa_offset 112
 2178 0d07 488D7C24 		leaq	32(%rsp), %rdi
 2178      20
 2179              	.LEHB60:
 2180 0d0c E8000000 		call	_ZN8UnitTest11TestResultsC1EPNS_12TestReporterE
 2180      00
 2181 0d11 488D7C24 		leaq	32(%rsp), %rdi
 2181      20
 2182 0d16 BE000000 		movl	$_ZN12_GLOBAL__N_1L7detailsE, %esi
 2182      00
 2183 0d1b E8000000 		call	_ZN8UnitTest11TestResults11OnTestStartERKNS_11TestDetailsE
 2183      00
 2184 0d20 488D7C24 		leaq	32(%rsp), %rdi
 2184      20
 2185 0d25 BA000000 		movl	$.LC16, %edx
 2185      00
 2186 0d2a BE000000 		movl	$_ZN12_GLOBAL__N_1L7detailsE, %esi
 2186      00
 2187 0d2f E8000000 		call	_ZN8UnitTest11TestResults13OnTestFailureERKNS_11TestDetailsEPKc
 2187      00
 2188 0d34 0F57C0   		xorps	%xmm0, %xmm0
 2189 0d37 488D7C24 		leaq	32(%rsp), %rdi
 2189      20
 2190 0d3c BE000000 		movl	$_ZN12_GLOBAL__N_1L7detailsE, %esi
 2190      00
 2191 0d41 E8000000 		call	_ZN8UnitTest11TestResults12OnTestFinishERKNS_11TestDetailsEf
 2191      00
 2192 0d46 488D7C24 		leaq	32(%rsp), %rdi
 2192      20
 2193 0d4b BE000000 		movl	$_ZN12_GLOBAL__N_1L7detailsE, %esi
 2193      00
 2194 0d50 E8000000 		call	_ZN8UnitTest11TestResults11OnTestStartERKNS_11TestDetailsE
 2194      00
 2195 0d55 488D7C24 		leaq	32(%rsp), %rdi
 2195      20
 2196 0d5a BA000000 		movl	$.LC16, %edx
 2196      00
 2197 0d5f BE000000 		movl	$_ZN12_GLOBAL__N_1L7detailsE, %esi
 2197      00
 2198 0d64 E8000000 		call	_ZN8UnitTest11TestResults13OnTestFailureERKNS_11TestDetailsEPKc
 2198      00
 2199 0d69 488D7C24 		leaq	32(%rsp), %rdi
 2199      20
 2200 0d6e BA000000 		movl	$.LC16, %edx
 2200      00
 2201 0d73 BE000000 		movl	$_ZN12_GLOBAL__N_1L7detailsE, %esi
 2201      00
 2202 0d78 E8000000 		call	_ZN8UnitTest11TestResults13OnTestFailureERKNS_11TestDetailsEPKc
 2202      00
 2203 0d7d 488D7C24 		leaq	32(%rsp), %rdi
 2203      20
 2204 0d82 BA000000 		movl	$.LC16, %edx
 2204      00
 2205 0d87 BE000000 		movl	$_ZN12_GLOBAL__N_1L7detailsE, %esi
 2205      00
 2206 0d8c E8000000 		call	_ZN8UnitTest11TestResults13OnTestFailureERKNS_11TestDetailsEPKc
 2206      00
 2207 0d91 0F57C0   		xorps	%xmm0, %xmm0
 2208 0d94 488D7C24 		leaq	32(%rsp), %rdi
 2208      20
 2209 0d99 BE000000 		movl	$_ZN12_GLOBAL__N_1L7detailsE, %esi
 2209      00
 2210 0d9e E8000000 		call	_ZN8UnitTest11TestResults12OnTestFinishERKNS_11TestDetailsEf
 2210      00
 2211              	.LEHE60:
 2212              	.LEHB61:
 2213 0da3 E8000000 		call	_ZN8UnitTest11CurrentTest7DetailsEv
 2213      00
 2214 0da8 488D5C24 		leaq	64(%rsp), %rbx
 2214      40
 2215 0dad 488B30   		movq	(%rax), %rsi
 2216 0db0 BA370000 		movl	$55, %edx
 2216      00
 2217 0db5 4889DF   		movq	%rbx, %rdi
 2218 0db8 E8000000 		call	_ZN8UnitTest11TestDetailsC1ERKS0_i
 2218      00
 2219 0dbd 488D7C24 		leaq	32(%rsp), %rdi
 2219      20
 2220 0dc2 E8000000 		call	_ZNK8UnitTest11TestResults18GetFailedTestCountEv
 2220      00
 2221 0dc7 89442410 		movl	%eax, 16(%rsp)
 2222 0dcb C7042402 		movl	$2, (%rsp)
 2222      000000
 2223 0dd2 E8000000 		call	_ZN8UnitTest11CurrentTest7ResultsEv
 2223      00
 2224 0dd7 488B38   		movq	(%rax), %rdi
 2225 0dda 488D5424 		leaq	16(%rsp), %rdx
 2225      10
 2226 0ddf 4889D9   		movq	%rbx, %rcx
 2227 0de2 4889E6   		movq	%rsp, %rsi
 2228 0de5 E8000000 		call	_ZN8UnitTest10CheckEqualIiiEEvRNS_11TestResultsERKT_RKT0_RKNS_11TestDetailsE
 2228      00
 2229              	.LEHE61:
 2230              	.L206:
 2231 0dea 4883C460 		addq	$96, %rsp
 2232              		.cfi_remember_state
 2233              		.cfi_def_cfa_offset 16
 2234 0dee 5B       		popq	%rbx
 2235              		.cfi_def_cfa_offset 8
 2236 0def C3       		ret
 2237              	.L210:
 2238              		.cfi_restore_state
 2239 0df0 4889C7   		movq	%rax, %rdi
 2240 0df3 E8000000 		call	__cxa_begin_catch
 2240      00
 2241              	.LEHB62:
 2242 0df8 E8000000 		call	_ZN8UnitTest11CurrentTest7DetailsEv
 2242      00
 2243 0dfd 488D5C24 		leaq	64(%rsp), %rbx
 2243      40
 2244 0e02 488B30   		movq	(%rax), %rsi
 2245 0e05 BA370000 		movl	$55, %edx
 2245      00
 2246 0e0a 4889DF   		movq	%rbx, %rdi
 2247 0e0d E8000000 		call	_ZN8UnitTest11TestDetailsC1ERKS0_i
 2247      00
 2248 0e12 E8000000 		call	_ZN8UnitTest11CurrentTest7ResultsEv
 2248      00
 2249 0e17 488B38   		movq	(%rax), %rdi
 2250 0e1a BA000000 		movl	$.LC17, %edx
 2250      00
 2251 0e1f 4889DE   		movq	%rbx, %rsi
 2252 0e22 E8000000 		call	_ZN8UnitTest11TestResults13OnTestFailureERKNS_11TestDetailsEPKc
 2252      00
 2253              	.LEHE62:
 2254              	.LEHB63:
 2255 0e27 E8000000 		call	__cxa_end_catch
 2255      00
 2256              	.LEHE63:
 2257 0e2c EBBC     		jmp	.L206
 2258              	.L211:
 2259 0e2e 4889C3   		movq	%rax, %rbx
 2260              		.p2align 4,,5
 2261 0e31 E8000000 		call	__cxa_end_catch
 2261      00
 2262 0e36 4889DF   		movq	%rbx, %rdi
 2263              	.LEHB64:
 2264 0e39 E8000000 		call	_Unwind_Resume
 2264      00
 2265              	.LEHE64:
 2266              		.cfi_endproc
 2267              	.LFE1104:
 2268              		.section	.gcc_except_table
 2269              		.align 4
 2270              	.LLSDA1104:
 2271 0164 FF       		.byte	0xff
 2272 0165 03       		.byte	0x3
 2273 0166 25       		.uleb128 .LLSDATT1104-.LLSDATTD1104
 2274              	.LLSDATTD1104:
 2275 0167 01       		.byte	0x1
 2276 0168 1B       		.uleb128 .LLSDACSE1104-.LLSDACSB1104
 2277              	.LLSDACSB1104:
 2278 0169 0C       		.uleb128 .LEHB60-.LFB1104
 2279 016a 9701     		.uleb128 .LEHE60-.LEHB60
 2280 016c 00       		.uleb128 0
 2281 016d 00       		.uleb128 0
 2282 016e A301     		.uleb128 .LEHB61-.LFB1104
 2283 0170 47       		.uleb128 .LEHE61-.LEHB61
 2284 0171 F001     		.uleb128 .L210-.LFB1104
 2285 0173 01       		.uleb128 0x1
 2286 0174 F801     		.uleb128 .LEHB62-.LFB1104
 2287 0176 2F       		.uleb128 .LEHE62-.LEHB62
 2288 0177 AE02     		.uleb128 .L211-.LFB1104
 2289 0179 00       		.uleb128 0
 2290 017a A702     		.uleb128 .LEHB63-.LFB1104
 2291 017c 05       		.uleb128 .LEHE63-.LEHB63
 2292 017d 00       		.uleb128 0
 2293 017e 00       		.uleb128 0
 2294 017f B902     		.uleb128 .LEHB64-.LFB1104
 2295 0181 05       		.uleb128 .LEHE64-.LEHB64
 2296 0182 00       		.uleb128 0
 2297 0183 00       		.uleb128 0
 2298              	.LLSDACSE1104:
 2299 0184 01       		.byte	0x1
 2300 0185 00       		.byte	0
 2301 0186 0000     		.align 4
 2302 0188 00000000 		.long	0
 2303              	
 2304              	.LLSDATT1104:
 2305              		.text
 2307              		.section	.rodata.str1.8
 2308 02dc 00000000 		.align 8
 2309              	.LC18:
 2310 02e0 556E6861 		.string	"Unhandled exception in CHECK_EQUAL(2, results.GetFailureCount())"
 2310      6E646C65 
 2310      64206578 
 2310      63657074 
 2310      696F6E20 
 2311              		.text
 2312              		.align 2
 2313 0e3e 6690     		.p2align 4,,15
 2315              	_ZNK12_GLOBAL__N_127TestRecordsNumberOfFailures7RunImplEv:
 2316              	.LFB1100:
 2317              		.cfi_startproc
 2318              		.cfi_personality 0x3,__gxx_personality_v0
 2319              		.cfi_lsda 0x3,.LLSDA1100
 2320 0e40 53       		pushq	%rbx
 2321              		.cfi_def_cfa_offset 16
 2322              		.cfi_offset 3, -16
 2323 0e41 31F6     		xorl	%esi, %esi
 2324 0e43 4883EC60 		subq	$96, %rsp
 2325              		.cfi_def_cfa_offset 112
 2326 0e47 488D7C24 		leaq	32(%rsp), %rdi
 2326      20
 2327              	.LEHB65:
 2328 0e4c E8000000 		call	_ZN8UnitTest11TestResultsC1EPNS_12TestReporterE
 2328      00
 2329 0e51 488D7C24 		leaq	32(%rsp), %rdi
 2329      20
 2330 0e56 BA000000 		movl	$.LC16, %edx
 2330      00
 2331 0e5b BE000000 		movl	$_ZN12_GLOBAL__N_1L7detailsE, %esi
 2331      00
 2332 0e60 E8000000 		call	_ZN8UnitTest11TestResults13OnTestFailureERKNS_11TestDetailsEPKc
 2332      00
 2333 0e65 488D7C24 		leaq	32(%rsp), %rdi
 2333      20
 2334 0e6a BA000000 		movl	$.LC16, %edx
 2334      00
 2335 0e6f BE000000 		movl	$_ZN12_GLOBAL__N_1L7detailsE, %esi
 2335      00
 2336 0e74 E8000000 		call	_ZN8UnitTest11TestResults13OnTestFailureERKNS_11TestDetailsEPKc
 2336      00
 2337              	.LEHE65:
 2338              	.LEHB66:
 2339 0e79 E8000000 		call	_ZN8UnitTest11CurrentTest7DetailsEv
 2339      00
 2340 0e7e 488D5C24 		leaq	64(%rsp), %rbx
 2340      40
 2341 0e83 488B30   		movq	(%rax), %rsi
 2342 0e86 BA260000 		movl	$38, %edx
 2342      00
 2343 0e8b 4889DF   		movq	%rbx, %rdi
 2344 0e8e E8000000 		call	_ZN8UnitTest11TestDetailsC1ERKS0_i
 2344      00
 2345 0e93 488D7C24 		leaq	32(%rsp), %rdi
 2345      20
 2346 0e98 E8000000 		call	_ZNK8UnitTest11TestResults15GetFailureCountEv
 2346      00
 2347 0e9d 89442410 		movl	%eax, 16(%rsp)
 2348 0ea1 C7042402 		movl	$2, (%rsp)
 2348      000000
 2349 0ea8 E8000000 		call	_ZN8UnitTest11CurrentTest7ResultsEv
 2349      00
 2350 0ead 488B38   		movq	(%rax), %rdi
 2351 0eb0 488D5424 		leaq	16(%rsp), %rdx
 2351      10
 2352 0eb5 4889D9   		movq	%rbx, %rcx
 2353 0eb8 4889E6   		movq	%rsp, %rsi
 2354 0ebb E8000000 		call	_ZN8UnitTest10CheckEqualIiiEEvRNS_11TestResultsERKT_RKT0_RKNS_11TestDetailsE
 2354      00
 2355              	.LEHE66:
 2356              	.L213:
 2357 0ec0 4883C460 		addq	$96, %rsp
 2358              		.cfi_remember_state
 2359              		.cfi_def_cfa_offset 16
 2360 0ec4 5B       		popq	%rbx
 2361              		.cfi_def_cfa_offset 8
 2362 0ec5 C3       		ret
 2363              	.L217:
 2364              		.cfi_restore_state
 2365 0ec6 4889C7   		movq	%rax, %rdi
 2366 0ec9 E8000000 		call	__cxa_begin_catch
 2366      00
 2367              	.LEHB67:
 2368 0ece E8000000 		call	_ZN8UnitTest11CurrentTest7DetailsEv
 2368      00
 2369 0ed3 488D5C24 		leaq	64(%rsp), %rbx
 2369      40
 2370 0ed8 488B30   		movq	(%rax), %rsi
 2371 0edb BA260000 		movl	$38, %edx
 2371      00
 2372 0ee0 4889DF   		movq	%rbx, %rdi
 2373 0ee3 E8000000 		call	_ZN8UnitTest11TestDetailsC1ERKS0_i
 2373      00
 2374 0ee8 E8000000 		call	_ZN8UnitTest11CurrentTest7ResultsEv
 2374      00
 2375 0eed 488B38   		movq	(%rax), %rdi
 2376 0ef0 BA000000 		movl	$.LC18, %edx
 2376      00
 2377 0ef5 4889DE   		movq	%rbx, %rsi
 2378 0ef8 E8000000 		call	_ZN8UnitTest11TestResults13OnTestFailureERKNS_11TestDetailsEPKc
 2378      00
 2379              	.LEHE67:
 2380              	.LEHB68:
 2381 0efd E8000000 		call	__cxa_end_catch
 2381      00
 2382              	.LEHE68:
 2383 0f02 EBBC     		jmp	.L213
 2384              	.L218:
 2385 0f04 4889C3   		movq	%rax, %rbx
 2386              		.p2align 4,,5
 2387 0f07 E8000000 		call	__cxa_end_catch
 2387      00
 2388 0f0c 4889DF   		movq	%rbx, %rdi
 2389              	.LEHB69:
 2390 0f0f E8000000 		call	_Unwind_Resume
 2390      00
 2391              	.LEHE69:
 2392              		.cfi_endproc
 2393              	.LFE1100:
 2394              		.section	.gcc_except_table
 2395              		.align 4
 2396              	.LLSDA1100:
 2397 018c FF       		.byte	0xff
 2398 018d 03       		.byte	0x3
 2399 018e 21       		.uleb128 .LLSDATT1100-.LLSDATTD1100
 2400              	.LLSDATTD1100:
 2401 018f 01       		.byte	0x1
 2402 0190 19       		.uleb128 .LLSDACSE1100-.LLSDACSB1100
 2403              	.LLSDACSB1100:
 2404 0191 0C       		.uleb128 .LEHB65-.LFB1100
 2405 0192 2D       		.uleb128 .LEHE65-.LEHB65
 2406 0193 00       		.uleb128 0
 2407 0194 00       		.uleb128 0
 2408 0195 39       		.uleb128 .LEHB66-.LFB1100
 2409 0196 47       		.uleb128 .LEHE66-.LEHB66
 2410 0197 8601     		.uleb128 .L217-.LFB1100
 2411 0199 01       		.uleb128 0x1
 2412 019a 8E01     		.uleb128 .LEHB67-.LFB1100
 2413 019c 2F       		.uleb128 .LEHE67-.LEHB67
 2414 019d C401     		.uleb128 .L218-.LFB1100
 2415 019f 00       		.uleb128 0
 2416 01a0 BD01     		.uleb128 .LEHB68-.LFB1100
 2417 01a2 05       		.uleb128 .LEHE68-.LEHB68
 2418 01a3 00       		.uleb128 0
 2419 01a4 00       		.uleb128 0
 2420 01a5 CF01     		.uleb128 .LEHB69-.LFB1100
 2421 01a7 05       		.uleb128 .LEHE69-.LEHB69
 2422 01a8 00       		.uleb128 0
 2423 01a9 00       		.uleb128 0
 2424              	.LLSDACSE1100:
 2425 01aa 01       		.byte	0x1
 2426 01ab 00       		.byte	0
 2427              		.align 4
 2428 01ac 00000000 		.long	0
 2429              	
 2430              	.LLSDATT1100:
 2431              		.text
 2433              		.section	.rodata.str1.8
 2434 0321 00000000 		.align 8
 2434      000000
 2435              	.LC19:
 2436 0328 556E6861 		.string	"Unhandled exception in CHECK_EQUAL(0, results.GetFailureCount())"
 2436      6E646C65 
 2436      64206578 
 2436      63657074 
 2436      696F6E20 
 2437              		.text
 2438              		.align 2
 2439 0f14 6666662E 		.p2align 4,,15
 2439      0F1F8400 
 2439      00000000 
 2441              	_ZNK12_GLOBAL__N_128TestStartsWithNoTestsFailing7RunImplEv:
 2442              	.LFB1096:
 2443              		.cfi_startproc
 2444              		.cfi_personality 0x3,__gxx_personality_v0
 2445              		.cfi_lsda 0x3,.LLSDA1096
 2446 0f20 53       		pushq	%rbx
 2447              		.cfi_def_cfa_offset 16
 2448              		.cfi_offset 3, -16
 2449 0f21 31F6     		xorl	%esi, %esi
 2450 0f23 4883EC60 		subq	$96, %rsp
 2451              		.cfi_def_cfa_offset 112
 2452 0f27 488D7C24 		leaq	32(%rsp), %rdi
 2452      20
 2453              	.LEHB70:
 2454 0f2c E8000000 		call	_ZN8UnitTest11TestResultsC1EPNS_12TestReporterE
 2454      00
 2455              	.LEHE70:
 2456              	.LEHB71:
 2457 0f31 E8000000 		call	_ZN8UnitTest11CurrentTest7DetailsEv
 2457      00
 2458 0f36 488D5C24 		leaq	64(%rsp), %rbx
 2458      40
 2459 0f3b 488B30   		movq	(%rax), %rsi
 2460 0f3e BA1E0000 		movl	$30, %edx
 2460      00
 2461 0f43 4889DF   		movq	%rbx, %rdi
 2462 0f46 E8000000 		call	_ZN8UnitTest11TestDetailsC1ERKS0_i
 2462      00
 2463 0f4b 488D7C24 		leaq	32(%rsp), %rdi
 2463      20
 2464 0f50 E8000000 		call	_ZNK8UnitTest11TestResults15GetFailureCountEv
 2464      00
 2465 0f55 89442410 		movl	%eax, 16(%rsp)
 2466 0f59 C7042400 		movl	$0, (%rsp)
 2466      000000
 2467 0f60 E8000000 		call	_ZN8UnitTest11CurrentTest7ResultsEv
 2467      00
 2468 0f65 488B38   		movq	(%rax), %rdi
 2469 0f68 488D5424 		leaq	16(%rsp), %rdx
 2469      10
 2470 0f6d 4889D9   		movq	%rbx, %rcx
 2471 0f70 4889E6   		movq	%rsp, %rsi
 2472 0f73 E8000000 		call	_ZN8UnitTest10CheckEqualIiiEEvRNS_11TestResultsERKT_RKT0_RKNS_11TestDetailsE
 2472      00
 2473              	.LEHE71:
 2474              	.L220:
 2475 0f78 4883C460 		addq	$96, %rsp
 2476              		.cfi_remember_state
 2477              		.cfi_def_cfa_offset 16
 2478 0f7c 5B       		popq	%rbx
 2479              		.cfi_def_cfa_offset 8
 2480 0f7d C3       		ret
 2481              	.L224:
 2482              		.cfi_restore_state
 2483 0f7e 4889C7   		movq	%rax, %rdi
 2484 0f81 E8000000 		call	__cxa_begin_catch
 2484      00
 2485              	.LEHB72:
 2486 0f86 E8000000 		call	_ZN8UnitTest11CurrentTest7DetailsEv
 2486      00
 2487 0f8b 488D5C24 		leaq	64(%rsp), %rbx
 2487      40
 2488 0f90 488B30   		movq	(%rax), %rsi
 2489 0f93 BA1E0000 		movl	$30, %edx
 2489      00
 2490 0f98 4889DF   		movq	%rbx, %rdi
 2491 0f9b E8000000 		call	_ZN8UnitTest11TestDetailsC1ERKS0_i
 2491      00
 2492 0fa0 E8000000 		call	_ZN8UnitTest11CurrentTest7ResultsEv
 2492      00
 2493 0fa5 488B38   		movq	(%rax), %rdi
 2494 0fa8 BA000000 		movl	$.LC19, %edx
 2494      00
 2495 0fad 4889DE   		movq	%rbx, %rsi
 2496 0fb0 E8000000 		call	_ZN8UnitTest11TestResults13OnTestFailureERKNS_11TestDetailsEPKc
 2496      00
 2497              	.LEHE72:
 2498              	.LEHB73:
 2499 0fb5 E8000000 		call	__cxa_end_catch
 2499      00
 2500              	.LEHE73:
 2501 0fba EBBC     		jmp	.L220
 2502              	.L225:
 2503 0fbc 4889C3   		movq	%rax, %rbx
 2504 0fbf 90       		.p2align 4,,5
 2505 0fc0 E8000000 		call	__cxa_end_catch
 2505      00
 2506 0fc5 4889DF   		movq	%rbx, %rdi
 2507              	.LEHB74:
 2508 0fc8 E8000000 		call	_Unwind_Resume
 2508      00
 2509              	.LEHE74:
 2510              		.cfi_endproc
 2511              	.LFE1096:
 2512              		.section	.gcc_except_table
 2513              		.align 4
 2514              	.LLSDA1096:
 2515 01b0 FF       		.byte	0xff
 2516 01b1 03       		.byte	0x3
 2517 01b2 21       		.uleb128 .LLSDATT1096-.LLSDATTD1096
 2518              	.LLSDATTD1096:
 2519 01b3 01       		.byte	0x1
 2520 01b4 17       		.uleb128 .LLSDACSE1096-.LLSDACSB1096
 2521              	.LLSDACSB1096:
 2522 01b5 0C       		.uleb128 .LEHB70-.LFB1096
 2523 01b6 05       		.uleb128 .LEHE70-.LEHB70
 2524 01b7 00       		.uleb128 0
 2525 01b8 00       		.uleb128 0
 2526 01b9 11       		.uleb128 .LEHB71-.LFB1096
 2527 01ba 47       		.uleb128 .LEHE71-.LEHB71
 2528 01bb 5E       		.uleb128 .L224-.LFB1096
 2529 01bc 01       		.uleb128 0x1
 2530 01bd 66       		.uleb128 .LEHB72-.LFB1096
 2531 01be 2F       		.uleb128 .LEHE72-.LEHB72
 2532 01bf 9C01     		.uleb128 .L225-.LFB1096
 2533 01c1 00       		.uleb128 0
 2534 01c2 9501     		.uleb128 .LEHB73-.LFB1096
 2535 01c4 05       		.uleb128 .LEHE73-.LEHB73
 2536 01c5 00       		.uleb128 0
 2537 01c6 00       		.uleb128 0
 2538 01c7 A801     		.uleb128 .LEHB74-.LFB1096
 2539 01c9 05       		.uleb128 .LEHE74-.LEHB74
 2540 01ca 00       		.uleb128 0
 2541 01cb 00       		.uleb128 0
 2542              	.LLSDACSE1096:
 2543 01cc 01       		.byte	0x1
 2544 01cd 00       		.byte	0
 2545 01ce 0000     		.align 4
 2546 01d0 00000000 		.long	0
 2547              	
 2548              	.LLSDATT1096:
 2549              		.text
 2551              		.section	.rodata.str1.8
 2552 0369 00000000 		.align 8
 2552      000000
 2553              	.LC20:
 2554 0370 556E6861 		.string	"Unhandled exception in CHECK_EQUAL(3, results.GetTotalTestCount())"
 2554      6E646C65 
 2554      64206578 
 2554      63657074 
 2554      696F6E20 
 2555              		.text
 2556 0fcd 90       		.align 2
 2557 0fce 6690     		.p2align 4,,15
 2559              	_ZNK12_GLOBAL__N_125TestRecordsNumbersOfTests7RunImplEv:
 2560              	.LFB1092:
 2561              		.cfi_startproc
 2562              		.cfi_personality 0x3,__gxx_personality_v0
 2563              		.cfi_lsda 0x3,.LLSDA1092
 2564 0fd0 53       		pushq	%rbx
 2565              		.cfi_def_cfa_offset 16
 2566              		.cfi_offset 3, -16
 2567 0fd1 31F6     		xorl	%esi, %esi
 2568 0fd3 4883EC60 		subq	$96, %rsp
 2569              		.cfi_def_cfa_offset 112
 2570 0fd7 488D7C24 		leaq	32(%rsp), %rdi
 2570      20
 2571              	.LEHB75:
 2572 0fdc E8000000 		call	_ZN8UnitTest11TestResultsC1EPNS_12TestReporterE
 2572      00
 2573 0fe1 488D7C24 		leaq	32(%rsp), %rdi
 2573      20
 2574 0fe6 BE000000 		movl	$_ZN12_GLOBAL__N_1L7detailsE, %esi
 2574      00
 2575 0feb E8000000 		call	_ZN8UnitTest11TestResults11OnTestStartERKNS_11TestDetailsE
 2575      00
 2576 0ff0 488D7C24 		leaq	32(%rsp), %rdi
 2576      20
 2577 0ff5 BE000000 		movl	$_ZN12_GLOBAL__N_1L7detailsE, %esi
 2577      00
 2578 0ffa E8000000 		call	_ZN8UnitTest11TestResults11OnTestStartERKNS_11TestDetailsE
 2578      00
 2579 0fff 488D7C24 		leaq	32(%rsp), %rdi
 2579      20
 2580 1004 BE000000 		movl	$_ZN12_GLOBAL__N_1L7detailsE, %esi
 2580      00
 2581 1009 E8000000 		call	_ZN8UnitTest11TestResults11OnTestStartERKNS_11TestDetailsE
 2581      00
 2582              	.LEHE75:
 2583              	.LEHB76:
 2584 100e E8000000 		call	_ZN8UnitTest11CurrentTest7DetailsEv
 2584      00
 2585 1013 488D5C24 		leaq	64(%rsp), %rbx
 2585      40
 2586 1018 488B30   		movq	(%rax), %rsi
 2587 101b BA180000 		movl	$24, %edx
 2587      00
 2588 1020 4889DF   		movq	%rbx, %rdi
 2589 1023 E8000000 		call	_ZN8UnitTest11TestDetailsC1ERKS0_i
 2589      00
 2590 1028 488D7C24 		leaq	32(%rsp), %rdi
 2590      20
 2591 102d E8000000 		call	_ZNK8UnitTest11TestResults17GetTotalTestCountEv
 2591      00
 2592 1032 89442410 		movl	%eax, 16(%rsp)
 2593 1036 C7042403 		movl	$3, (%rsp)
 2593      000000
 2594 103d E8000000 		call	_ZN8UnitTest11CurrentTest7ResultsEv
 2594      00
 2595 1042 488B38   		movq	(%rax), %rdi
 2596 1045 488D5424 		leaq	16(%rsp), %rdx
 2596      10
 2597 104a 4889D9   		movq	%rbx, %rcx
 2598 104d 4889E6   		movq	%rsp, %rsi
 2599 1050 E8000000 		call	_ZN8UnitTest10CheckEqualIiiEEvRNS_11TestResultsERKT_RKT0_RKNS_11TestDetailsE
 2599      00
 2600              	.LEHE76:
 2601              	.L227:
 2602 1055 4883C460 		addq	$96, %rsp
 2603              		.cfi_remember_state
 2604              		.cfi_def_cfa_offset 16
 2605 1059 5B       		popq	%rbx
 2606              		.cfi_def_cfa_offset 8
 2607 105a C3       		ret
 2608              	.L231:
 2609              		.cfi_restore_state
 2610 105b 4889C7   		movq	%rax, %rdi
 2611 105e E8000000 		call	__cxa_begin_catch
 2611      00
 2612              	.LEHB77:
 2613 1063 E8000000 		call	_ZN8UnitTest11CurrentTest7DetailsEv
 2613      00
 2614 1068 488D5C24 		leaq	64(%rsp), %rbx
 2614      40
 2615 106d 488B30   		movq	(%rax), %rsi
 2616 1070 BA180000 		movl	$24, %edx
 2616      00
 2617 1075 4889DF   		movq	%rbx, %rdi
 2618 1078 E8000000 		call	_ZN8UnitTest11TestDetailsC1ERKS0_i
 2618      00
 2619 107d E8000000 		call	_ZN8UnitTest11CurrentTest7ResultsEv
 2619      00
 2620 1082 488B38   		movq	(%rax), %rdi
 2621 1085 BA000000 		movl	$.LC20, %edx
 2621      00
 2622 108a 4889DE   		movq	%rbx, %rsi
 2623 108d E8000000 		call	_ZN8UnitTest11TestResults13OnTestFailureERKNS_11TestDetailsEPKc
 2623      00
 2624              	.LEHE77:
 2625              	.LEHB78:
 2626 1092 E8000000 		call	__cxa_end_catch
 2626      00
 2627              	.LEHE78:
 2628 1097 EBBC     		jmp	.L227
 2629              	.L232:
 2630 1099 4889C3   		movq	%rax, %rbx
 2631 109c 0F1F4000 		.p2align 4,,5
 2632 10a0 E8000000 		call	__cxa_end_catch
 2632      00
 2633 10a5 4889DF   		movq	%rbx, %rdi
 2634              	.LEHB79:
 2635 10a8 E8000000 		call	_Unwind_Resume
 2635      00
 2636              	.LEHE79:
 2637              		.cfi_endproc
 2638              	.LFE1092:
 2639              		.section	.gcc_except_table
 2640              		.align 4
 2641              	.LLSDA1092:
 2642 01d4 FF       		.byte	0xff
 2643 01d5 03       		.byte	0x3
 2644 01d6 21       		.uleb128 .LLSDATT1092-.LLSDATTD1092
 2645              	.LLSDATTD1092:
 2646 01d7 01       		.byte	0x1
 2647 01d8 19       		.uleb128 .LLSDACSE1092-.LLSDACSB1092
 2648              	.LLSDACSB1092:
 2649 01d9 0C       		.uleb128 .LEHB75-.LFB1092
 2650 01da 32       		.uleb128 .LEHE75-.LEHB75
 2651 01db 00       		.uleb128 0
 2652 01dc 00       		.uleb128 0
 2653 01dd 3E       		.uleb128 .LEHB76-.LFB1092
 2654 01de 47       		.uleb128 .LEHE76-.LEHB76
 2655 01df 8B01     		.uleb128 .L231-.LFB1092
 2656 01e1 01       		.uleb128 0x1
 2657 01e2 9301     		.uleb128 .LEHB77-.LFB1092
 2658 01e4 2F       		.uleb128 .LEHE77-.LEHB77
 2659 01e5 C901     		.uleb128 .L232-.LFB1092
 2660 01e7 00       		.uleb128 0
 2661 01e8 C201     		.uleb128 .LEHB78-.LFB1092
 2662 01ea 05       		.uleb128 .LEHE78-.LEHB78
 2663 01eb 00       		.uleb128 0
 2664 01ec 00       		.uleb128 0
 2665 01ed D801     		.uleb128 .LEHB79-.LFB1092
 2666 01ef 05       		.uleb128 .LEHE79-.LEHB79
 2667 01f0 00       		.uleb128 0
 2668 01f1 00       		.uleb128 0
 2669              	.LLSDACSE1092:
 2670 01f2 01       		.byte	0x1
 2671 01f3 00       		.byte	0
 2672              		.align 4
 2673 01f4 00000000 		.long	0
 2674              	
 2675              	.LLSDATT1092:
 2676              		.text
 2678              		.section	.rodata.str1.8
 2679 03b3 00000000 		.align 8
 2679      00
 2680              	.LC21:
 2681 03b8 556E6861 		.string	"Unhandled exception in CHECK_EQUAL(0, results.GetTotalTestCount())"
 2681      6E646C65 
 2681      64206578 
 2681      63657074 
 2681      696F6E20 
 2682              		.text
 2683 10ad 90       		.align 2
 2684 10ae 6690     		.p2align 4,,15
 2686              	_ZNK12_GLOBAL__N_124TestStartsWithNoTestsRun7RunImplEv:
 2687              	.LFB1088:
 2688              		.cfi_startproc
 2689              		.cfi_personality 0x3,__gxx_personality_v0
 2690              		.cfi_lsda 0x3,.LLSDA1088
 2691 10b0 53       		pushq	%rbx
 2692              		.cfi_def_cfa_offset 16
 2693              		.cfi_offset 3, -16
 2694 10b1 31F6     		xorl	%esi, %esi
 2695 10b3 4883EC60 		subq	$96, %rsp
 2696              		.cfi_def_cfa_offset 112
 2697 10b7 488D7C24 		leaq	32(%rsp), %rdi
 2697      20
 2698              	.LEHB80:
 2699 10bc E8000000 		call	_ZN8UnitTest11TestResultsC1EPNS_12TestReporterE
 2699      00
 2700              	.LEHE80:
 2701              	.LEHB81:
 2702 10c1 E8000000 		call	_ZN8UnitTest11CurrentTest7DetailsEv
 2702      00
 2703 10c6 488D5C24 		leaq	64(%rsp), %rbx
 2703      40
 2704 10cb 488B30   		movq	(%rax), %rsi
 2705 10ce BA0F0000 		movl	$15, %edx
 2705      00
 2706 10d3 4889DF   		movq	%rbx, %rdi
 2707 10d6 E8000000 		call	_ZN8UnitTest11TestDetailsC1ERKS0_i
 2707      00
 2708 10db 488D7C24 		leaq	32(%rsp), %rdi
 2708      20
 2709 10e0 E8000000 		call	_ZNK8UnitTest11TestResults17GetTotalTestCountEv
 2709      00
 2710 10e5 89442410 		movl	%eax, 16(%rsp)
 2711 10e9 C7042400 		movl	$0, (%rsp)
 2711      000000
 2712 10f0 E8000000 		call	_ZN8UnitTest11CurrentTest7ResultsEv
 2712      00
 2713 10f5 488B38   		movq	(%rax), %rdi
 2714 10f8 488D5424 		leaq	16(%rsp), %rdx
 2714      10
 2715 10fd 4889D9   		movq	%rbx, %rcx
 2716 1100 4889E6   		movq	%rsp, %rsi
 2717 1103 E8000000 		call	_ZN8UnitTest10CheckEqualIiiEEvRNS_11TestResultsERKT_RKT0_RKNS_11TestDetailsE
 2717      00
 2718              	.LEHE81:
 2719              	.L234:
 2720 1108 4883C460 		addq	$96, %rsp
 2721              		.cfi_remember_state
 2722              		.cfi_def_cfa_offset 16
 2723 110c 5B       		popq	%rbx
 2724              		.cfi_def_cfa_offset 8
 2725 110d C3       		ret
 2726              	.L238:
 2727              		.cfi_restore_state
 2728 110e 4889C7   		movq	%rax, %rdi
 2729 1111 E8000000 		call	__cxa_begin_catch
 2729      00
 2730              	.LEHB82:
 2731 1116 E8000000 		call	_ZN8UnitTest11CurrentTest7DetailsEv
 2731      00
 2732 111b 488D5C24 		leaq	64(%rsp), %rbx
 2732      40
 2733 1120 488B30   		movq	(%rax), %rsi
 2734 1123 BA0F0000 		movl	$15, %edx
 2734      00
 2735 1128 4889DF   		movq	%rbx, %rdi
 2736 112b E8000000 		call	_ZN8UnitTest11TestDetailsC1ERKS0_i
 2736      00
 2737 1130 E8000000 		call	_ZN8UnitTest11CurrentTest7ResultsEv
 2737      00
 2738 1135 488B38   		movq	(%rax), %rdi
 2739 1138 BA000000 		movl	$.LC21, %edx
 2739      00
 2740 113d 4889DE   		movq	%rbx, %rsi
 2741 1140 E8000000 		call	_ZN8UnitTest11TestResults13OnTestFailureERKNS_11TestDetailsEPKc
 2741      00
 2742              	.LEHE82:
 2743              	.LEHB83:
 2744 1145 E8000000 		call	__cxa_end_catch
 2744      00
 2745              	.LEHE83:
 2746 114a EBBC     		jmp	.L234
 2747              	.L239:
 2748 114c 4889C3   		movq	%rax, %rbx
 2749 114f 90       		.p2align 4,,5
 2750 1150 E8000000 		call	__cxa_end_catch
 2750      00
 2751 1155 4889DF   		movq	%rbx, %rdi
 2752              	.LEHB84:
 2753 1158 E8000000 		call	_Unwind_Resume
 2753      00
 2754              	.LEHE84:
 2755              		.cfi_endproc
 2756              	.LFE1088:
 2757              		.section	.gcc_except_table
 2758              		.align 4
 2759              	.LLSDA1088:
 2760 01f8 FF       		.byte	0xff
 2761 01f9 03       		.byte	0x3
 2762 01fa 21       		.uleb128 .LLSDATT1088-.LLSDATTD1088
 2763              	.LLSDATTD1088:
 2764 01fb 01       		.byte	0x1
 2765 01fc 17       		.uleb128 .LLSDACSE1088-.LLSDACSB1088
 2766              	.LLSDACSB1088:
 2767 01fd 0C       		.uleb128 .LEHB80-.LFB1088
 2768 01fe 05       		.uleb128 .LEHE80-.LEHB80
 2769 01ff 00       		.uleb128 0
 2770 0200 00       		.uleb128 0
 2771 0201 11       		.uleb128 .LEHB81-.LFB1088
 2772 0202 47       		.uleb128 .LEHE81-.LEHB81
 2773 0203 5E       		.uleb128 .L238-.LFB1088
 2774 0204 01       		.uleb128 0x1
 2775 0205 66       		.uleb128 .LEHB82-.LFB1088
 2776 0206 2F       		.uleb128 .LEHE82-.LEHB82
 2777 0207 9C01     		.uleb128 .L239-.LFB1088
 2778 0209 00       		.uleb128 0
 2779 020a 9501     		.uleb128 .LEHB83-.LFB1088
 2780 020c 05       		.uleb128 .LEHE83-.LEHB83
 2781 020d 00       		.uleb128 0
 2782 020e 00       		.uleb128 0
 2783 020f A801     		.uleb128 .LEHB84-.LFB1088
 2784 0211 05       		.uleb128 .LEHE84-.LEHB84
 2785 0212 00       		.uleb128 0
 2786 0213 00       		.uleb128 0
 2787              	.LLSDACSE1088:
 2788 0214 01       		.byte	0x1
 2789 0215 00       		.byte	0
 2790 0216 0000     		.align 4
 2791 0218 00000000 		.long	0
 2792              	
 2793              	.LLSDATT1088:
 2794              		.text
 2796              		.section	.rodata.str1.1
 2797              	.LC22:
 2798 003f 202B2F2D 		.string	" +/- "
 2798      2000
 2799              		.section	.text._ZN8UnitTest10CheckCloseIfffEEvRNS_11TestResultsERKT_RKT0_RKT1_RKNS_11TestDetailsE,
 2800              		.p2align 4,,15
 2801              		.weak	_ZN8UnitTest10CheckCloseIfffEEvRNS_11TestResultsERKT_RKT0_RKT1_RKNS_11TestDetailsE
 2803              	_ZN8UnitTest10CheckCloseIfffEEvRNS_11TestResultsERKT_RKT0_RKT1_RKNS_11TestDetailsE:
 2804              	.LFB1153:
 2805              		.cfi_startproc
 2806              		.cfi_personality 0x3,__gxx_personality_v0
 2807              		.cfi_lsda 0x3,.LLSDA1153
 2808 0000 4157     		pushq	%r15
 2809              		.cfi_def_cfa_offset 16
 2810              		.cfi_offset 15, -16
 2811 0002 4D89C7   		movq	%r8, %r15
 2812 0005 4156     		pushq	%r14
 2813              		.cfi_def_cfa_offset 24
 2814              		.cfi_offset 14, -24
 2815 0007 4989FE   		movq	%rdi, %r14
 2816 000a 4155     		pushq	%r13
 2817              		.cfi_def_cfa_offset 32
 2818              		.cfi_offset 13, -32
 2819 000c 4154     		pushq	%r12
 2820              		.cfi_def_cfa_offset 40
 2821              		.cfi_offset 12, -40
 2822 000e 4989CC   		movq	%rcx, %r12
 2823 0011 55       		pushq	%rbp
 2824              		.cfi_def_cfa_offset 48
 2825              		.cfi_offset 6, -48
 2826 0012 4889D5   		movq	%rdx, %rbp
 2827 0015 53       		pushq	%rbx
 2828              		.cfi_def_cfa_offset 56
 2829              		.cfi_offset 3, -56
 2830 0016 4889F3   		movq	%rsi, %rbx
 2831 0019 4881EC98 		subq	$408, %rsp
 2831      010000
 2832              		.cfi_def_cfa_offset 464
 2833 0020 F30F1016 		movss	(%rsi), %xmm2
 2834 0024 0F28DA   		movaps	%xmm2, %xmm3
 2835 0027 F30F1009 		movss	(%rcx), %xmm1
 2836 002b F30F1002 		movss	(%rdx), %xmm0
 2837 002f F30F5CD9 		subss	%xmm1, %xmm3
 2838 0033 0F2EC3   		ucomiss	%xmm3, %xmm0
 2839 0036 720D     		jb	.L242
 2840 0038 F30F58CA 		addss	%xmm2, %xmm1
 2841 003c 0F2EC8   		ucomiss	%xmm0, %xmm1
 2842 003f 0F836102 		jnb	.L241
 2842      0000
 2843              	.L242:
 2844 0045 4C8DAC24 		leaq	128(%rsp), %r13
 2844      80000000 
 2845 004d 4C89EF   		movq	%r13, %rdi
 2846 0050 E8000000 		call	_ZNSt8ios_baseC2Ev
 2846      00
 2847 0055 31F6     		xorl	%esi, %esi
 2848 0057 4C89EF   		movq	%r13, %rdi
 2849 005a 48C78424 		movq	$0, 344(%rsp)
 2849      58010000 
 2849      00000000 
 2850 0066 C6842460 		movb	$0, 352(%rsp)
 2850      01000000 
 2851 006e C6842461 		movb	$0, 353(%rsp)
 2851      01000000 
 2852 0076 48C78424 		movq	$0, 360(%rsp)
 2852      68010000 
 2852      00000000 
 2853 0082 48C78424 		movq	$0, 368(%rsp)
 2853      70010000 
 2853      00000000 
 2854 008e 48C78424 		movq	$0, 376(%rsp)
 2854      78010000 
 2854      00000000 
 2855 009a 48C78424 		movq	$0, 384(%rsp)
 2855      80010000 
 2855      00000000 
 2856 00a6 48C74424 		movq	$_ZTCN8UnitTest15MemoryOutStreamE0_So+24, 32(%rsp)
 2856      20000000 
 2856      00
 2857 00af 48C78424 		movq	$_ZTCN8UnitTest15MemoryOutStreamE0_So+64, 128(%rsp)
 2857      80000000 
 2857      00000000 
 2858              	.LEHB85:
 2859 00bb E8000000 		call	_ZNSt9basic_iosIcSt11char_traitsIcEE4initEPSt15basic_streambufIcS1_E
 2859      00
 2860              	.LEHE85:
 2861 00c0 488D7C24 		leaq	96(%rsp), %rdi
 2861      60
 2862 00c5 48C74424 		movq	$_ZTCN8UnitTest15MemoryOutStreamE0_St19basic_ostringstreamIcSt11char_traitsIcESaIcEE+24, 32(%
 2862      20000000 
 2862      00
 2863 00ce 48C78424 		movq	$_ZTCN8UnitTest15MemoryOutStreamE0_St19basic_ostringstreamIcSt11char_traitsIcESaIcEE+64, 128(
 2863      80000000 
 2863      00000000 
 2864 00da 48C74424 		movq	$_ZTVSt15basic_streambufIcSt11char_traitsIcEE+16, 40(%rsp)
 2864      28000000 
 2864      00
 2865 00e3 48C74424 		movq	$0, 48(%rsp)
 2865      30000000 
 2865      00
 2866 00ec 48C74424 		movq	$0, 56(%rsp)
 2866      38000000 
 2866      00
 2867 00f5 48C74424 		movq	$0, 64(%rsp)
 2867      40000000 
 2867      00
 2868 00fe 48C74424 		movq	$0, 72(%rsp)
 2868      48000000 
 2868      00
 2869 0107 48C74424 		movq	$0, 80(%rsp)
 2869      50000000 
 2869      00
 2870 0110 48C74424 		movq	$0, 88(%rsp)
 2870      58000000 
 2870      00
 2871 0119 E8000000 		call	_ZNSt6localeC1Ev
 2871      00
 2872 011e 488B4424 		movq	32(%rsp), %rax
 2872      20
 2873 0123 488D7C24 		leaq	32(%rsp), %rdi
 2873      20
 2874 0128 488D7424 		leaq	40(%rsp), %rsi
 2874      28
 2875 012d 48C74424 		movq	$_ZTVSt15basic_stringbufIcSt11char_traitsIcESaIcEE+16, 40(%rsp)
 2875      28000000 
 2875      00
 2876 0136 C7442468 		movl	$16, 104(%rsp)
 2876      10000000 
 2877 013e 48C74424 		movq	$_ZNSs4_Rep20_S_empty_rep_storageE+24, 112(%rsp)
 2877      70000000 
 2877      00
 2878 0147 480378E8 		addq	-24(%rax), %rdi
 2879              	.LEHB86:
 2880 014b E8000000 		call	_ZNSt9basic_iosIcSt11char_traitsIcEE4initEPSt15basic_streambufIcS1_E
 2880      00
 2881              	.LEHE86:
 2882 0150 488D7C24 		leaq	32(%rsp), %rdi
 2882      20
 2883 0155 F30F1065 		movss	0(%rbp), %xmm4
 2883      00
 2884 015a F3410F10 		movss	(%r12), %xmm5
 2884      2C24
 2885 0160 BA090000 		movl	$9, %edx
 2885      00
 2886 0165 F30F1033 		movss	(%rbx), %xmm6
 2887 0169 BE000000 		movl	$.LC0, %esi
 2887      00
 2888 016e 48C74424 		movq	$_ZTVN8UnitTest15MemoryOutStreamE+24, 32(%rsp)
 2888      20000000 
 2888      00
 2889 0177 48C78424 		movq	$_ZTVN8UnitTest15MemoryOutStreamE+64, 128(%rsp)
 2889      80000000 
 2889      00000000 
 2890 0183 F30F1164 		movss	%xmm4, 4(%rsp)
 2890      2404
 2891 0189 48C74424 		movq	$_ZNSs4_Rep20_S_empty_rep_storageE+24, 120(%rsp)
 2891      78000000 
 2891      00
 2892 0192 F30F116C 		movss	%xmm5, 8(%rsp)
 2892      2408
 2893 0198 F30F1174 		movss	%xmm6, 12(%rsp)
 2893      240C
 2894              	.LEHB87:
 2895 019e E8000000 		call	_ZSt16__ostream_insertIcSt11char_traitsIcEERSt13basic_ostreamIT_T0_ES6_PKS3_l
 2895      00
 2896 01a3 F30F1044 		movss	12(%rsp), %xmm0
 2896      240C
 2897 01a9 488D7C24 		leaq	32(%rsp), %rdi
 2897      20
 2898 01ae 0F5AC0   		cvtps2pd	%xmm0, %xmm0
 2899 01b1 E8000000 		call	_ZNSo9_M_insertIdEERSoT_
 2899      00
 2900 01b6 BA050000 		movl	$5, %edx
 2900      00
 2901 01bb BE000000 		movl	$.LC22, %esi
 2901      00
 2902 01c0 4889C7   		movq	%rax, %rdi
 2903 01c3 4889C3   		movq	%rax, %rbx
 2904 01c6 E8000000 		call	_ZSt16__ostream_insertIcSt11char_traitsIcEERSt13basic_ostreamIT_T0_ES6_PKS3_l
 2904      00
 2905 01cb F30F1044 		movss	8(%rsp), %xmm0
 2905      2408
 2906 01d1 4889DF   		movq	%rbx, %rdi
 2907 01d4 0F5AC0   		cvtps2pd	%xmm0, %xmm0
 2908 01d7 E8000000 		call	_ZNSo9_M_insertIdEERSoT_
 2908      00
 2909 01dc BA090000 		movl	$9, %edx
 2909      00
 2910 01e1 BE000000 		movl	$.LC1, %esi
 2910      00
 2911 01e6 4889C7   		movq	%rax, %rdi
 2912 01e9 4889C3   		movq	%rax, %rbx
 2913 01ec E8000000 		call	_ZSt16__ostream_insertIcSt11char_traitsIcEERSt13basic_ostreamIT_T0_ES6_PKS3_l
 2913      00
 2914 01f1 F30F1044 		movss	4(%rsp), %xmm0
 2914      2404
 2915 01f7 4889DF   		movq	%rbx, %rdi
 2916 01fa 0F5AC0   		cvtps2pd	%xmm0, %xmm0
 2917 01fd E8000000 		call	_ZNSo9_M_insertIdEERSoT_
 2917      00
 2918 0202 488D7C24 		leaq	32(%rsp), %rdi
 2918      20
 2919 0207 E8000000 		call	_ZNK8UnitTest15MemoryOutStream7GetTextEv
 2919      00
 2920 020c 4889C2   		movq	%rax, %rdx
 2921 020f 4C89FE   		movq	%r15, %rsi
 2922 0212 4C89F7   		movq	%r14, %rdi
 2923 0215 E8000000 		call	_ZN8UnitTest11TestResults13OnTestFailureERKNS_11TestDetailsEPKc
 2923      00
 2924              	.LEHE87:
 2925 021a 488B4424 		movq	120(%rsp), %rax
 2925      78
 2926 021f 48C74424 		movq	$_ZTVN8UnitTest15MemoryOutStreamE+24, 32(%rsp)
 2926      20000000 
 2926      00
 2927 0228 48C78424 		movq	$_ZTVN8UnitTest15MemoryOutStreamE+64, 128(%rsp)
 2927      80000000 
 2927      00000000 
 2928 0234 488D78E8 		leaq	-24(%rax), %rdi
 2929 0238 4881FF00 		cmpq	$_ZNSs4_Rep20_S_empty_rep_storageE, %rdi
 2929      000000
 2930 023f 7577     		jne	.L269
 2931              	.L250:
 2932 0241 488B4424 		movq	112(%rsp), %rax
 2932      70
 2933 0246 48C74424 		movq	$_ZTCN8UnitTest15MemoryOutStreamE0_St19basic_ostringstreamIcSt11char_traitsIcESaIcEE+24, 32(%
 2933      20000000 
 2933      00
 2934 024f 48C78424 		movq	$_ZTCN8UnitTest15MemoryOutStreamE0_St19basic_ostringstreamIcSt11char_traitsIcESaIcEE+64, 128(
 2934      80000000 
 2934      00000000 
 2935 025b 48C74424 		movq	$_ZTVSt15basic_stringbufIcSt11char_traitsIcESaIcEE+16, 40(%rsp)
 2935      28000000 
 2935      00
 2936 0264 488D78E8 		leaq	-24(%rax), %rdi
 2937 0268 4881FF00 		cmpq	$_ZNSs4_Rep20_S_empty_rep_storageE, %rdi
 2937      000000
 2938 026f 7577     		jne	.L270
 2939              	.L255:
 2940 0271 488D7C24 		leaq	96(%rsp), %rdi
 2940      60
 2941 0276 48C74424 		movq	$_ZTVSt15basic_streambufIcSt11char_traitsIcEE+16, 40(%rsp)
 2941      28000000 
 2941      00
 2942 027f E8000000 		call	_ZNSt6localeD1Ev
 2942      00
 2943 0284 488DBC24 		leaq	128(%rsp), %rdi
 2943      80000000 
 2944 028c 48C74424 		movq	$_ZTCN8UnitTest15MemoryOutStreamE0_So+24, 32(%rsp)
 2944      20000000 
 2944      00
 2945 0295 48C78424 		movq	$_ZTVSt9basic_iosIcSt11char_traitsIcEE+16, 128(%rsp)
 2945      80000000 
 2945      00000000 
 2946              	.LEHB88:
 2947 02a1 E8000000 		call	_ZNSt8ios_baseD2Ev
 2947      00
 2948              	.LEHE88:
 2949              	.L241:
 2950 02a6 4881C498 		addq	$408, %rsp
 2950      010000
 2951              		.cfi_remember_state
 2952              		.cfi_def_cfa_offset 56
 2953 02ad 5B       		popq	%rbx
 2954              		.cfi_def_cfa_offset 48
 2955 02ae 5D       		popq	%rbp
 2956              		.cfi_def_cfa_offset 40
 2957 02af 415C     		popq	%r12
 2958              		.cfi_def_cfa_offset 32
 2959 02b1 415D     		popq	%r13
 2960              		.cfi_def_cfa_offset 24
 2961 02b3 415E     		popq	%r14
 2962              		.cfi_def_cfa_offset 16
 2963 02b5 415F     		popq	%r15
 2964              		.cfi_def_cfa_offset 8
 2965 02b7 C3       		ret
 2966              	.L269:
 2967              		.cfi_restore_state
 2968 02b8 B9000000 		movl	$_ZL28__gthrw___pthread_key_createPjPFvPvE, %ecx
 2968      00
 2969 02bd 488D5710 		leaq	16(%rdi), %rdx
 2970 02c1 4885C9   		testq	%rcx, %rcx
 2971 02c4 0F848300 		je	.L251
 2971      0000
 2972 02ca 83C8FF   		orl	$-1, %eax
 2973 02cd F00FC102 		lock xaddl	%eax, (%rdx)
 2974              	.L252:
 2975 02d1 85C0     		testl	%eax, %eax
 2976 02d3 0F8F68FF 		jg	.L250
 2976      FFFF
 2977 02d9 488D7424 		leaq	31(%rsp), %rsi
 2977      1F
 2978 02de E8000000 		call	_ZNSs4_Rep10_M_destroyERKSaIcE
 2978      00
 2979 02e3 E959FFFF 		jmp	.L250
 2979      FF
 2980              	.L270:
 2981 02e8 B9000000 		movl	$_ZL28__gthrw___pthread_key_createPjPFvPvE, %ecx
 2981      00
 2982 02ed 488D5710 		leaq	16(%rdi), %rdx
 2983 02f1 4885C9   		testq	%rcx, %rcx
 2984 02f4 747F     		je	.L256
 2985 02f6 83C8FF   		orl	$-1, %eax
 2986 02f9 F00FC102 		lock xaddl	%eax, (%rdx)
 2987              	.L257:
 2988 02fd 85C0     		testl	%eax, %eax
 2989 02ff 0F8F6CFF 		jg	.L255
 2989      FFFF
 2990 0305 488D7424 		leaq	31(%rsp), %rsi
 2990      1F
 2991 030a E8000000 		call	_ZNSs4_Rep10_M_destroyERKSaIcE
 2991      00
 2992 030f E95DFFFF 		jmp	.L255
 2992      FF
 2993              	.L261:
 2994 0314 488D7C24 		leaq	32(%rsp), %rdi
 2994      20
 2995 0319 4889C3   		movq	%rax, %rbx
 2996 031c E8000000 		call	_ZN8UnitTest15MemoryOutStreamD1Ev
 2996      00
 2997 0321 4889DF   		movq	%rbx, %rdi
 2998              	.LEHB89:
 2999 0324 E8000000 		call	_Unwind_Resume
 2999      00
 3000              	.LEHE89:
 3001              	.L262:
 3002 0329 4889C3   		movq	%rax, %rbx
 3003              	.L247:
 3004 032c 488DBC24 		leaq	128(%rsp), %rdi
 3004      80000000 
 3005 0334 48C78424 		movq	$_ZTVSt9basic_iosIcSt11char_traitsIcEE+16, 128(%rsp)
 3005      80000000 
 3005      00000000 
 3006 0340 E8000000 		call	_ZNSt8ios_baseD2Ev
 3006      00
 3007 0345 4889DF   		movq	%rbx, %rdi
 3008              	.LEHB90:
 3009 0348 E8000000 		call	_Unwind_Resume
 3009      00
 3010              	.LEHE90:
 3011              	.L251:
 3012 034d 8B50F8   		movl	-8(%rax), %edx
 3013 0350 8D4AFF   		leal	-1(%rdx), %ecx
 3014 0353 8948F8   		movl	%ecx, -8(%rax)
 3015 0356 89D0     		movl	%edx, %eax
 3016 0358 E974FFFF 		jmp	.L252
 3016      FF
 3017              	.L263:
 3018 035d 488D7C24 		leaq	40(%rsp), %rdi
 3018      28
 3019 0362 4889C3   		movq	%rax, %rbx
 3020 0365 E8000000 		call	_ZNSt15basic_stringbufIcSt11char_traitsIcESaIcEED1Ev
 3020      00
 3021 036a 48C74424 		movq	$_ZTCN8UnitTest15MemoryOutStreamE0_So+24, 32(%rsp)
 3021      20000000 
 3021      00
 3022 0373 EBB7     		jmp	.L247
 3023              	.L256:
 3024 0375 8B50F8   		movl	-8(%rax), %edx
 3025 0378 8D4AFF   		leal	-1(%rdx), %ecx
 3026 037b 8948F8   		movl	%ecx, -8(%rax)
 3027 037e 89D0     		movl	%edx, %eax
 3028 0380 E978FFFF 		jmp	.L257
 3028      FF
 3029              		.cfi_endproc
 3030              	.LFE1153:
 3031              		.section	.gcc_except_table
 3032              	.LLSDA1153:
 3033 021c FF       		.byte	0xff
 3034 021d FF       		.byte	0xff
 3035 021e 01       		.byte	0x1
 3036 021f 21       		.uleb128 .LLSDACSE1153-.LLSDACSB1153
 3037              	.LLSDACSB1153:
 3038 0220 BB01     		.uleb128 .LEHB85-.LFB1153
 3039 0222 05       		.uleb128 .LEHE85-.LEHB85
 3040 0223 A906     		.uleb128 .L262-.LFB1153
 3041 0225 00       		.uleb128 0
 3042 0226 CB02     		.uleb128 .LEHB86-.LFB1153
 3043 0228 05       		.uleb128 .LEHE86-.LEHB86
 3044 0229 DD06     		.uleb128 .L263-.LFB1153
 3045 022b 00       		.uleb128 0
 3046 022c 9E03     		.uleb128 .LEHB87-.LFB1153
 3047 022e 7C       		.uleb128 .LEHE87-.LEHB87
 3048 022f 9406     		.uleb128 .L261-.LFB1153
 3049 0231 00       		.uleb128 0
 3050 0232 A105     		.uleb128 .LEHB88-.LFB1153
 3051 0234 05       		.uleb128 .LEHE88-.LEHB88
 3052 0235 00       		.uleb128 0
 3053 0236 00       		.uleb128 0
 3054 0237 A406     		.uleb128 .LEHB89-.LFB1153
 3055 0239 05       		.uleb128 .LEHE89-.LEHB89
 3056 023a 00       		.uleb128 0
 3057 023b 00       		.uleb128 0
 3058 023c C806     		.uleb128 .LEHB90-.LFB1153
 3059 023e 05       		.uleb128 .LEHE90-.LEHB90
 3060 023f 00       		.uleb128 0
 3061 0240 00       		.uleb128 0
 3062              	.LLSDACSE1153:
 3063              		.section	.text._ZN8UnitTest10CheckCloseIfffEEvRNS_11TestResultsERKT_RKT0_RKT1_RKNS_11TestDetailsE,
 3065              		.section	.rodata.str1.8
 3066 03fb 00000000 		.align 8
 3066      00
 3067              	.LC25:
 3068 0400 556E6861 		.string	"Unhandled exception in CHECK_EQUAL(1, reporter.testFinishedCount)"
 3068      6E646C65 
 3068      64206578 
 3068      63657074 
 3068      696F6E20 
 3069 0442 00000000 		.align 8
 3069      0000
 3070              	.LC26:
 3071 0448 556E6861 		.string	"Unhandled exception in CHECK_EQUAL(\"testname\", reporter.lastFinishedTest)"
 3071      6E646C65 
 3071      64206578 
 3071      63657074 
 3071      696F6E20 
 3072 0492 00000000 		.align 8
 3072      0000
 3073              	.LC27:
 3074 0498 556E6861 		.string	"Unhandled exception in CHECK_EQUAL(\"suitename\", reporter.lastFinishedSuite)"
 3074      6E646C65 
 3074      64206578 
 3074      63657074 
 3074      696F6E20 
 3075 04e4 00000000 		.align 8
 3076              	.LC28:
 3077 04e8 556E6861 		.string	"Unhandled exception in CHECK_CLOSE(0.1234f, reporter.lastFinishedTestTime)"
 3077      6E646C65 
 3077      64206578 
 3077      63657074 
 3077      696F6E20 
 3078              		.text
 3079 115d 90       		.align 2
 3080 115e 6690     		.p2align 4,,15
 3082              	_ZNK12_GLOBAL__N_129TestNotifiesReporterOfTestEnd7RunImplEv:
 3083              	.LFB1120:
 3084              		.cfi_startproc
 3085              		.cfi_personality 0x3,__gxx_personality_v0
 3086              		.cfi_lsda 0x3,.LLSDA1120
 3087 1160 53       		pushq	%rbx
 3088              		.cfi_def_cfa_offset 16
 3089              		.cfi_offset 3, -16
 3090 1161 4881ECA0 		subq	$2208, %rsp
 3090      080000
 3091              		.cfi_def_cfa_offset 2224
 3092 1168 488D7424 		leaq	96(%rsp), %rsi
 3092      60
 3093 116d 488D7C24 		leaq	32(%rsp), %rdi
 3093      20
 3094 1172 48C74424 		movq	$_ZTV17RecordingReporter+16, 96(%rsp)
 3094      60000000 
 3094      00
 3095 117b 64488B04 		movq	%fs:40, %rax
 3095      25280000 
 3095      00
 3096 1184 48898424 		movq	%rax, 2200(%rsp)
 3096      98080000 
 3097 118c 31C0     		xorl	%eax, %eax
 3098 118e C7442468 		movl	$0, 104(%rsp)
 3098      00000000 
 3099 1196 C784246C 		movl	$0, 620(%rsp)
 3099      02000000 
 3099      000000
 3100 11a1 C7842470 		movl	$0, 880(%rsp)
 3100      03000000 
 3100      000000
 3101 11ac C7842474 		movl	$0, 1652(%rsp)
 3101      06000000 
 3101      000000
 3102 11b7 C7842478 		movl	$0x00000000, 2168(%rsp)
 3102      08000000 
 3102      000000
 3103 11c2 C784247C 		movl	$0, 2172(%rsp)
 3103      08000000 
 3103      000000
 3104 11cd C7842480 		movl	$0, 2176(%rsp)
 3104      08000000 
 3104      000000
 3105 11d8 C7842484 		movl	$0, 2180(%rsp)
 3105      08000000 
 3105      000000
 3106 11e3 C7842488 		movl	$0x00000000, 2184(%rsp)
 3106      08000000 
 3106      000000
 3107 11ee C644246C 		movb	$0, 108(%rsp)
 3107      00
 3108 11f3 C684246C 		movb	$0, 364(%rsp)
 3108      01000000 
 3109 11fb C6842470 		movb	$0, 624(%rsp)
 3109      02000000 
 3110 1203 C6842474 		movb	$0, 884(%rsp)
 3110      03000000 
 3111 120b C6842474 		movb	$0, 1140(%rsp)
 3111      04000000 
 3112 1213 C6842474 		movb	$0, 1396(%rsp)
 3112      05000000 
 3113 121b C6842478 		movb	$0, 1656(%rsp)
 3113      06000000 
 3114 1223 C6842478 		movb	$0, 1912(%rsp)
 3114      07000000 
 3115              	.LEHB91:
 3116 122b E8000000 		call	_ZN8UnitTest11TestResultsC1EPNS_12TestReporterE
 3116      00
 3117 1230 488D7C24 		leaq	32(%rsp), %rdi
 3117      20
 3118 1235 F30F1005 		movss	.LC23(%rip), %xmm0
 3118      00000000 
 3119 123d BE000000 		movl	$_ZN12_GLOBAL__N_1L7detailsE, %esi
 3119      00
 3120 1242 E8000000 		call	_ZN8UnitTest11TestResults12OnTestFinishERKNS_11TestDetailsEf
 3120      00
 3121              	.LEHE91:
 3122              	.LEHB92:
 3123 1247 E8000000 		call	_ZN8UnitTest11CurrentTest7DetailsEv
 3123      00
 3124 124c 488D5C24 		leaq	64(%rsp), %rbx
 3124      40
 3125 1251 488B30   		movq	(%rax), %rsi
 3126 1254 BA680000 		movl	$104, %edx
 3126      00
 3127 1259 4889DF   		movq	%rbx, %rdi
 3128 125c E8000000 		call	_ZN8UnitTest11TestDetailsC1ERKS0_i
 3128      00
 3129 1261 C7442410 		movl	$1, 16(%rsp)
 3129      01000000 
 3130 1269 E8000000 		call	_ZN8UnitTest11CurrentTest7ResultsEv
 3130      00
 3131 126e 488B38   		movq	(%rax), %rdi
 3132 1271 488D9424 		leaq	1652(%rsp), %rdx
 3132      74060000 
 3133 1279 488D7424 		leaq	16(%rsp), %rsi
 3133      10
 3134 127e 4889D9   		movq	%rbx, %rcx
 3135 1281 E8000000 		call	_ZN8UnitTest10CheckEqualIiiEEvRNS_11TestResultsERKT_RKT0_RKNS_11TestDetailsE
 3135      00
 3136              	.LEHE92:
 3137              	.L275:
 3138              	.LEHB93:
 3139 1286 E8000000 		call	_ZN8UnitTest11CurrentTest7DetailsEv
 3139      00
 3140 128b 488B30   		movq	(%rax), %rsi
 3141 128e BA690000 		movl	$105, %edx
 3141      00
 3142 1293 4889DF   		movq	%rbx, %rdi
 3143 1296 E8000000 		call	_ZN8UnitTest11TestDetailsC1ERKS0_i
 3143      00
 3144 129b E8000000 		call	_ZN8UnitTest11CurrentTest7ResultsEv
 3144      00
 3145 12a0 488B38   		movq	(%rax), %rdi
 3146 12a3 488D9424 		leaq	1912(%rsp), %rdx
 3146      78070000 
 3147 12ab 4889D9   		movq	%rbx, %rcx
 3148 12ae BE000000 		movl	$.LC5, %esi
 3148      00
 3149 12b3 E8000000 		call	_ZN8UnitTest10CheckEqualERNS_11TestResultsEPKcPcRKNS_11TestDetailsE
 3149      00
 3150              	.LEHE93:
 3151              	.L278:
 3152              	.LEHB94:
 3153 12b8 E8000000 		call	_ZN8UnitTest11CurrentTest7DetailsEv
 3153      00
 3154 12bd 488B30   		movq	(%rax), %rsi
 3155 12c0 BA6A0000 		movl	$106, %edx
 3155      00
 3156 12c5 4889DF   		movq	%rbx, %rdi
 3157 12c8 E8000000 		call	_ZN8UnitTest11TestDetailsC1ERKS0_i
 3157      00
 3158 12cd E8000000 		call	_ZN8UnitTest11CurrentTest7ResultsEv
 3158      00
 3159 12d2 488B38   		movq	(%rax), %rdi
 3160 12d5 488D9424 		leaq	1656(%rsp), %rdx
 3160      78060000 
 3161 12dd 4889D9   		movq	%rbx, %rcx
 3162 12e0 BE000000 		movl	$.LC6, %esi
 3162      00
 3163 12e5 E8000000 		call	_ZN8UnitTest10CheckEqualERNS_11TestResultsEPKcPcRKNS_11TestDetailsE
 3163      00
 3164              	.LEHE94:
 3165              	.L281:
 3166              	.LEHB95:
 3167 12ea E8000000 		call	_ZN8UnitTest11CurrentTest7DetailsEv
 3167      00
 3168 12ef 488B30   		movq	(%rax), %rsi
 3169 12f2 BA6B0000 		movl	$107, %edx
 3169      00
 3170 12f7 4889DF   		movq	%rbx, %rdi
 3171 12fa E8000000 		call	_ZN8UnitTest11TestDetailsC1ERKS0_i
 3171      00
 3172 12ff C7442410 		movl	$0x38d1b717, 16(%rsp)
 3172      17B7D138 
 3173 1307 C7042424 		movl	$0x3dfcb924, (%rsp)
 3173      B9FC3D
 3174 130e E8000000 		call	_ZN8UnitTest11CurrentTest7ResultsEv
 3174      00
 3175 1313 488B38   		movq	(%rax), %rdi
 3176 1316 488D9424 		leaq	2168(%rsp), %rdx
 3176      78080000 
 3177 131e 488D4C24 		leaq	16(%rsp), %rcx
 3177      10
 3178 1323 4989D8   		movq	%rbx, %r8
 3179 1326 4889E6   		movq	%rsp, %rsi
 3180 1329 E8000000 		call	_ZN8UnitTest10CheckCloseIfffEEvRNS_11TestResultsERKT_RKT0_RKT1_RKNS_11TestDetailsE
 3180      00
 3181              	.LEHE95:
 3182              	.L284:
 3183 132e 488D7C24 		leaq	96(%rsp), %rdi
 3183      60
 3184 1333 48C74424 		movq	$_ZTV17RecordingReporter+16, 96(%rsp)
 3184      60000000 
 3184      00
 3185              	.LEHB96:
 3186 133c E8000000 		call	_ZN8UnitTest12TestReporterD2Ev
 3186      00
 3187              	.LEHE96:
 3188 1341 488B8424 		movq	2200(%rsp), %rax
 3188      98080000 
 3189 1349 64483304 		xorq	%fs:40, %rax
 3189      25280000 
 3189      00
 3190 1352 7509     		jne	.L297
 3191 1354 4881C4A0 		addq	$2208, %rsp
 3191      080000
 3192              		.cfi_remember_state
 3193              		.cfi_def_cfa_offset 16
 3194 135b 5B       		popq	%rbx
 3195              		.cfi_def_cfa_offset 8
 3196 135c C3       		ret
 3197              	.L297:
 3198              		.cfi_restore_state
 3199 135d E8000000 		call	__stack_chk_fail
 3199      00
 3200              	.L293:
 3201 1362 4889C7   		movq	%rax, %rdi
 3202 1365 E8000000 		call	__cxa_begin_catch
 3202      00
 3203              	.LEHB97:
 3204 136a E8000000 		call	_ZN8UnitTest11CurrentTest7DetailsEv
 3204      00
 3205 136f 488B30   		movq	(%rax), %rsi
 3206 1372 BA6B0000 		movl	$107, %edx
 3206      00
 3207 1377 4889DF   		movq	%rbx, %rdi
 3208 137a E8000000 		call	_ZN8UnitTest11TestDetailsC1ERKS0_i
 3208      00
 3209 137f E8000000 		call	_ZN8UnitTest11CurrentTest7ResultsEv
 3209      00
 3210 1384 488B38   		movq	(%rax), %rdi
 3211 1387 BA000000 		movl	$.LC28, %edx
 3211      00
 3212 138c 4889DE   		movq	%rbx, %rsi
 3213 138f E8000000 		call	_ZN8UnitTest11TestResults13OnTestFailureERKNS_11TestDetailsEPKc
 3213      00
 3214              	.LEHE97:
 3215              	.LEHB98:
 3216 1394 E8000000 		call	__cxa_end_catch
 3216      00
 3217              	.LEHE98:
 3218 1399 EB93     		jmp	.L284
 3219              	.L291:
 3220 139b 4889C7   		movq	%rax, %rdi
 3221 139e 6690     		.p2align 4,,5
 3222 13a0 E8000000 		call	__cxa_begin_catch
 3222      00
 3223              		.p2align 4,,5
 3224              	.LEHB99:
 3225 13a5 E8000000 		call	_ZN8UnitTest11CurrentTest7DetailsEv
 3225      00
 3226 13aa 488B30   		movq	(%rax), %rsi
 3227 13ad BA6A0000 		movl	$106, %edx
 3227      00
 3228 13b2 4889DF   		movq	%rbx, %rdi
 3229 13b5 E8000000 		call	_ZN8UnitTest11TestDetailsC1ERKS0_i
 3229      00
 3230 13ba E8000000 		call	_ZN8UnitTest11CurrentTest7ResultsEv
 3230      00
 3231 13bf 488B38   		movq	(%rax), %rdi
 3232 13c2 BA000000 		movl	$.LC27, %edx
 3232      00
 3233 13c7 4889DE   		movq	%rbx, %rsi
 3234 13ca E8000000 		call	_ZN8UnitTest11TestResults13OnTestFailureERKNS_11TestDetailsEPKc
 3234      00
 3235              	.LEHE99:
 3236              	.LEHB100:
 3237 13cf E8000000 		call	__cxa_end_catch
 3237      00
 3238              	.LEHE100:
 3239 13d4 E911FFFF 		jmp	.L281
 3239      FF
 3240              	.L287:
 3241 13d9 4889C7   		movq	%rax, %rdi
 3242 13dc 0F1F4000 		.p2align 4,,5
 3243 13e0 E8000000 		call	__cxa_begin_catch
 3243      00
 3244              		.p2align 4,,5
 3245              	.LEHB101:
 3246 13e5 E8000000 		call	_ZN8UnitTest11CurrentTest7DetailsEv
 3246      00
 3247 13ea 488D5C24 		leaq	64(%rsp), %rbx
 3247      40
 3248 13ef 488B30   		movq	(%rax), %rsi
 3249 13f2 BA680000 		movl	$104, %edx
 3249      00
 3250 13f7 4889DF   		movq	%rbx, %rdi
 3251 13fa E8000000 		call	_ZN8UnitTest11TestDetailsC1ERKS0_i
 3251      00
 3252 13ff E8000000 		call	_ZN8UnitTest11CurrentTest7ResultsEv
 3252      00
 3253 1404 488B38   		movq	(%rax), %rdi
 3254 1407 BA000000 		movl	$.LC25, %edx
 3254      00
 3255 140c 4889DE   		movq	%rbx, %rsi
 3256 140f E8000000 		call	_ZN8UnitTest11TestResults13OnTestFailureERKNS_11TestDetailsEPKc
 3256      00
 3257              	.LEHE101:
 3258              	.LEHB102:
 3259 1414 E8000000 		call	__cxa_end_catch
 3259      00
 3260              	.LEHE102:
 3261 1419 E968FEFF 		jmp	.L275
 3261      FF
 3262              	.L289:
 3263 141e 4889C7   		movq	%rax, %rdi
 3264              		.p2align 4,,5
 3265 1421 E8000000 		call	__cxa_begin_catch
 3265      00
 3266              		.p2align 4,,5
 3267              	.LEHB103:
 3268 1426 E8000000 		call	_ZN8UnitTest11CurrentTest7DetailsEv
 3268      00
 3269 142b 488B30   		movq	(%rax), %rsi
 3270 142e BA690000 		movl	$105, %edx
 3270      00
 3271 1433 4889DF   		movq	%rbx, %rdi
 3272 1436 E8000000 		call	_ZN8UnitTest11TestDetailsC1ERKS0_i
 3272      00
 3273 143b E8000000 		call	_ZN8UnitTest11CurrentTest7ResultsEv
 3273      00
 3274 1440 488B38   		movq	(%rax), %rdi
 3275 1443 BA000000 		movl	$.LC26, %edx
 3275      00
 3276 1448 4889DE   		movq	%rbx, %rsi
 3277 144b E8000000 		call	_ZN8UnitTest11TestResults13OnTestFailureERKNS_11TestDetailsEPKc
 3277      00
 3278              	.LEHE103:
 3279              	.LEHB104:
 3280 1450 E8000000 		call	__cxa_end_catch
 3280      00
 3281              	.LEHE104:
 3282 1455 E95EFEFF 		jmp	.L278
 3282      FF
 3283              	.L286:
 3284 145a 4889C3   		movq	%rax, %rbx
 3285              	.L273:
 3286 145d 488D7C24 		leaq	96(%rsp), %rdi
 3286      60
 3287 1462 48C74424 		movq	$_ZTV17RecordingReporter+16, 96(%rsp)
 3287      60000000 
 3287      00
 3288 146b E8000000 		call	_ZN8UnitTest12TestReporterD2Ev
 3288      00
 3289 1470 4889DF   		movq	%rbx, %rdi
 3290              	.LEHB105:
 3291 1473 E8000000 		call	_Unwind_Resume
 3291      00
 3292              	.LEHE105:
 3293              	.L294:
 3294 1478 4889C3   		movq	%rax, %rbx
 3295 147b E8000000 		call	__cxa_end_catch
 3295      00
 3296 1480 EBDB     		jmp	.L273
 3297              	.L288:
 3298 1482 4889C3   		movq	%rax, %rbx
 3299 1485 E8000000 		call	__cxa_end_catch
 3299      00
 3300              		.p2align 4,,5
 3301 148a EBD1     		jmp	.L273
 3302              	.L292:
 3303 148c 4889C3   		movq	%rax, %rbx
 3304 148f E8000000 		call	__cxa_end_catch
 3304      00
 3305              		.p2align 4,,5
 3306 1494 EBC7     		jmp	.L273
 3307              	.L290:
 3308 1496 4889C3   		movq	%rax, %rbx
 3309 1499 E8000000 		call	__cxa_end_catch
 3309      00
 3310 149e 6690     		.p2align 4,,5
 3311 14a0 EBBB     		jmp	.L273
 3312              		.cfi_endproc
 3313              	.LFE1120:
 3314              		.section	.gcc_except_table
 3315 0241 000000   		.align 4
 3316              	.LLSDA1120:
 3317 0244 FF       		.byte	0xff
 3318 0245 03       		.byte	0x3
 3319 0246 61       		.uleb128 .LLSDATT1120-.LLSDATTD1120
 3320              	.LLSDATTD1120:
 3321 0247 01       		.byte	0x1
 3322 0248 58       		.uleb128 .LLSDACSE1120-.LLSDACSB1120
 3323              	.LLSDACSB1120:
 3324 0249 CB01     		.uleb128 .LEHB91-.LFB1120
 3325 024b 1C       		.uleb128 .LEHE91-.LEHB91
 3326 024c FA05     		.uleb128 .L286-.LFB1120
 3327 024e 00       		.uleb128 0
 3328 024f E701     		.uleb128 .LEHB92-.LFB1120
 3329 0251 3F       		.uleb128 .LEHE92-.LEHB92
 3330 0252 F904     		.uleb128 .L287-.LFB1120
 3331 0254 01       		.uleb128 0x1
 3332 0255 A602     		.uleb128 .LEHB93-.LFB1120
 3333 0257 32       		.uleb128 .LEHE93-.LEHB93
 3334 0258 BE05     		.uleb128 .L289-.LFB1120
 3335 025a 01       		.uleb128 0x1
 3336 025b D802     		.uleb128 .LEHB94-.LFB1120
 3337 025d 32       		.uleb128 .LEHE94-.LEHB94
 3338 025e BB04     		.uleb128 .L291-.LFB1120
 3339 0260 01       		.uleb128 0x1
 3340 0261 8A03     		.uleb128 .LEHB95-.LFB1120
 3341 0263 44       		.uleb128 .LEHE95-.LEHB95
 3342 0264 8204     		.uleb128 .L293-.LFB1120
 3343 0266 01       		.uleb128 0x1
 3344 0267 DC03     		.uleb128 .LEHB96-.LFB1120
 3345 0269 05       		.uleb128 .LEHE96-.LEHB96
 3346 026a 00       		.uleb128 0
 3347 026b 00       		.uleb128 0
 3348 026c 8A04     		.uleb128 .LEHB97-.LFB1120
 3349 026e 2A       		.uleb128 .LEHE97-.LEHB97
 3350 026f 9806     		.uleb128 .L294-.LFB1120
 3351 0271 00       		.uleb128 0
 3352 0272 B404     		.uleb128 .LEHB98-.LFB1120
 3353 0274 05       		.uleb128 .LEHE98-.LEHB98
 3354 0275 FA05     		.uleb128 .L286-.LFB1120
 3355 0277 00       		.uleb128 0
 3356 0278 C504     		.uleb128 .LEHB99-.LFB1120
 3357 027a 2A       		.uleb128 .LEHE99-.LEHB99
 3358 027b AC06     		.uleb128 .L292-.LFB1120
 3359 027d 00       		.uleb128 0
 3360 027e EF04     		.uleb128 .LEHB100-.LFB1120
 3361 0280 05       		.uleb128 .LEHE100-.LEHB100
 3362 0281 FA05     		.uleb128 .L286-.LFB1120
 3363 0283 00       		.uleb128 0
 3364 0284 8505     		.uleb128 .LEHB101-.LFB1120
 3365 0286 2F       		.uleb128 .LEHE101-.LEHB101
 3366 0287 A206     		.uleb128 .L288-.LFB1120
 3367 0289 00       		.uleb128 0
 3368 028a B405     		.uleb128 .LEHB102-.LFB1120
 3369 028c 05       		.uleb128 .LEHE102-.LEHB102
 3370 028d FA05     		.uleb128 .L286-.LFB1120
 3371 028f 00       		.uleb128 0
 3372 0290 C605     		.uleb128 .LEHB103-.LFB1120
 3373 0292 2A       		.uleb128 .LEHE103-.LEHB103
 3374 0293 B606     		.uleb128 .L290-.LFB1120
 3375 0295 00       		.uleb128 0
 3376 0296 F005     		.uleb128 .LEHB104-.LFB1120
 3377 0298 05       		.uleb128 .LEHE104-.LEHB104
 3378 0299 FA05     		.uleb128 .L286-.LFB1120
 3379 029b 00       		.uleb128 0
 3380 029c 9306     		.uleb128 .LEHB105-.LFB1120
 3381 029e 05       		.uleb128 .LEHE105-.LEHB105
 3382 029f 00       		.uleb128 0
 3383 02a0 00       		.uleb128 0
 3384              	.LLSDACSE1120:
 3385 02a1 01       		.byte	0x1
 3386 02a2 00       		.byte	0
 3387 02a3 00       		.align 4
 3388 02a4 00000000 		.long	0
 3389              	
 3390              	.LLSDATT1120:
 3391              		.text
 3393              		.section	.rodata.str1.1
 3394              	.LC29:
 3395 0045 54657374 		.string	"TestTestResults.cpp"
 3395      54657374 
 3395      52657375 
 3395      6C74732E 
 3395      63707000 
 3396              	.LC30:
 3397 0059 44656661 		.string	"DefaultSuite"
 3397      756C7453 
 3397      75697465 
 3397      00
 3398              	.LC31:
 3399 0066 53746172 		.string	"StartsWithNoTestsRun"
 3399      74735769 
 3399      74684E6F 
 3399      54657374 
 3399      7352756E 
 3400              	.LC32:
 3401 007b 5265636F 		.string	"RecordsNumbersOfTests"
 3401      7264734E 
 3401      756D6265 
 3401      72734F66 
 3401      54657374 
 3402              	.LC33:
 3403 0091 53746172 		.string	"StartsWithNoTestsFailing"
 3403      74735769 
 3403      74684E6F 
 3403      54657374 
 3403      73466169 
 3404              	.LC34:
 3405 00aa 5265636F 		.string	"RecordsNumberOfFailures"
 3405      7264734E 
 3405      756D6265 
 3405      724F6646 
 3405      61696C75 
 3406              	.LC35:
 3407 00c2 5265636F 		.string	"RecordsNumberOfFailedTests"
 3407      7264734E 
 3407      756D6265 
 3407      724F6646 
 3407      61696C65 
 3408              		.section	.rodata.str1.8
 3409 0533 00000000 		.align 8
 3409      00
 3410              	.LC36:
 3411 0538 4E6F7469 		.string	"NotifiesReporterOfTestStartWithCorrectInfo"
 3411      66696573 
 3411      5265706F 
 3411      72746572 
 3411      4F665465 
 3412 0563 00000000 		.align 8
 3412      00
 3413              	.LC37:
 3414 0568 4E6F7469 		.string	"NotifiesReporterOfTestFailureWithCorrectInfo"
 3414      66696573 
 3414      5265706F 
 3414      72746572 
 3414      4F665465 
 3415 0595 000000   		.align 8
 3416              	.LC38:
 3417 0598 4E6F7469 		.string	"NotifiesReporterOfCheckFailureWithCorrectInfo"
 3417      66696573 
 3417      5265706F 
 3417      72746572 
 3417      4F664368 
 3418              		.section	.rodata.str1.1
 3419              	.LC39:
 3420 00dd 4E6F7469 		.string	"NotifiesReporterOfTestEnd"
 3420      66696573 
 3420      5265706F 
 3420      72746572 
 3420      4F665465 
 3421              		.section	.text.startup,"ax",@progbits
 3422              		.p2align 4,,15
 3424              	_GLOBAL__sub_I_TestTestResults.cpp:
 3425              	.LFB1245:
 3426              		.cfi_startproc
 3427 0000 4883EC08 		subq	$8, %rsp
 3428              		.cfi_def_cfa_offset 16
 3429 0004 41B87B00 		movl	$123, %r8d
 3429      0000
 3430 000a B9000000 		movl	$.LC4, %ecx
 3430      00
 3431 000f BA000000 		movl	$.LC6, %edx
 3431      00
 3432 0014 BE000000 		movl	$.LC5, %esi
 3432      00
 3433 0019 BF000000 		movl	$_ZN12_GLOBAL__N_1L7detailsE, %edi
 3433      00
 3434 001e E8000000 		call	_ZN8UnitTest11TestDetailsC1EPKcS2_S2_i
 3434      00
 3435 0023 41B80C00 		movl	$12, %r8d
 3435      0000
 3436 0029 B9000000 		movl	$.LC29, %ecx
 3436      00
 3437 002e BA000000 		movl	$.LC30, %edx
 3437      00
 3438 0033 BE000000 		movl	$.LC31, %esi
 3438      00
 3439 0038 BF000000 		movl	$_ZN12_GLOBAL__N_132testStartsWithNoTestsRunInstanceE, %edi
 3439      00
 3440 003d E8000000 		call	_ZN8UnitTest4TestC2EPKcS2_S2_i
 3440      00
 3441 0042 BA000000 		movl	$__dso_handle, %edx
 3441      00
 3442 0047 BE000000 		movl	$_ZN12_GLOBAL__N_132testStartsWithNoTestsRunInstanceE, %esi
 3442      00
 3443 004c BF000000 		movl	$_ZN12_GLOBAL__N_124TestStartsWithNoTestsRunD1Ev, %edi
 3443      00
 3444 0051 48C70500 		movq	$_ZTVN12_GLOBAL__N_124TestStartsWithNoTestsRunE+16, _ZN12_GLOBAL__N_132testStartsWithNoTestsR
 3444      00000000 
 3444      000000
 3445 005c E8000000 		call	__cxa_atexit
 3445      00
 3446 0061 E8000000 		call	_ZN8UnitTest4Test11GetTestListEv
 3446      00
 3447 0066 BA000000 		movl	$_ZN12_GLOBAL__N_132testStartsWithNoTestsRunInstanceE, %edx
 3447      00
 3448 006b 4889C6   		movq	%rax, %rsi
 3449 006e BF000000 		movl	$_ZN12_GLOBAL__N_125adderStartsWithNoTestsRunE, %edi
 3449      00
 3450 0073 E8000000 		call	_ZN8UnitTest9ListAdderC1ERNS_8TestListEPNS_4TestE
 3450      00
 3451 0078 41B81200 		movl	$18, %r8d
 3451      0000
 3452 007e B9000000 		movl	$.LC29, %ecx
 3452      00
 3453 0083 BA000000 		movl	$.LC30, %edx
 3453      00
 3454 0088 BE000000 		movl	$.LC32, %esi
 3454      00
 3455 008d BF000000 		movl	$_ZN12_GLOBAL__N_133testRecordsNumbersOfTestsInstanceE, %edi
 3455      00
 3456 0092 E8000000 		call	_ZN8UnitTest4TestC2EPKcS2_S2_i
 3456      00
 3457 0097 BA000000 		movl	$__dso_handle, %edx
 3457      00
 3458 009c BE000000 		movl	$_ZN12_GLOBAL__N_133testRecordsNumbersOfTestsInstanceE, %esi
 3458      00
 3459 00a1 BF000000 		movl	$_ZN12_GLOBAL__N_125TestRecordsNumbersOfTestsD1Ev, %edi
 3459      00
 3460 00a6 48C70500 		movq	$_ZTVN12_GLOBAL__N_125TestRecordsNumbersOfTestsE+16, _ZN12_GLOBAL__N_133testRecordsNumbersOfT
 3460      00000000 
 3460      000000
 3461 00b1 E8000000 		call	__cxa_atexit
 3461      00
 3462 00b6 E8000000 		call	_ZN8UnitTest4Test11GetTestListEv
 3462      00
 3463 00bb BA000000 		movl	$_ZN12_GLOBAL__N_133testRecordsNumbersOfTestsInstanceE, %edx
 3463      00
 3464 00c0 4889C6   		movq	%rax, %rsi
 3465 00c3 BF000000 		movl	$_ZN12_GLOBAL__N_126adderRecordsNumbersOfTestsE, %edi
 3465      00
 3466 00c8 E8000000 		call	_ZN8UnitTest9ListAdderC1ERNS_8TestListEPNS_4TestE
 3466      00
 3467 00cd 41B81B00 		movl	$27, %r8d
 3467      0000
 3468 00d3 B9000000 		movl	$.LC29, %ecx
 3468      00
 3469 00d8 BA000000 		movl	$.LC30, %edx
 3469      00
 3470 00dd BE000000 		movl	$.LC33, %esi
 3470      00
 3471 00e2 BF000000 		movl	$_ZN12_GLOBAL__N_136testStartsWithNoTestsFailingInstanceE, %edi
 3471      00
 3472 00e7 E8000000 		call	_ZN8UnitTest4TestC2EPKcS2_S2_i
 3472      00
 3473 00ec BA000000 		movl	$__dso_handle, %edx
 3473      00
 3474 00f1 BE000000 		movl	$_ZN12_GLOBAL__N_136testStartsWithNoTestsFailingInstanceE, %esi
 3474      00
 3475 00f6 BF000000 		movl	$_ZN12_GLOBAL__N_128TestStartsWithNoTestsFailingD1Ev, %edi
 3475      00
 3476 00fb 48C70500 		movq	$_ZTVN12_GLOBAL__N_128TestStartsWithNoTestsFailingE+16, _ZN12_GLOBAL__N_136testStartsWithNoTe
 3476      00000000 
 3476      000000
 3477 0106 E8000000 		call	__cxa_atexit
 3477      00
 3478 010b E8000000 		call	_ZN8UnitTest4Test11GetTestListEv
 3478      00
 3479 0110 BA000000 		movl	$_ZN12_GLOBAL__N_136testStartsWithNoTestsFailingInstanceE, %edx
 3479      00
 3480 0115 4889C6   		movq	%rax, %rsi
 3481 0118 BF000000 		movl	$_ZN12_GLOBAL__N_129adderStartsWithNoTestsFailingE, %edi
 3481      00
 3482 011d E8000000 		call	_ZN8UnitTest9ListAdderC1ERNS_8TestListEPNS_4TestE
 3482      00
 3483 0122 41B82100 		movl	$33, %r8d
 3483      0000
 3484 0128 B9000000 		movl	$.LC29, %ecx
 3484      00
 3485 012d BA000000 		movl	$.LC30, %edx
 3485      00
 3486 0132 BE000000 		movl	$.LC34, %esi
 3486      00
 3487 0137 BF000000 		movl	$_ZN12_GLOBAL__N_135testRecordsNumberOfFailuresInstanceE, %edi
 3487      00
 3488 013c E8000000 		call	_ZN8UnitTest4TestC2EPKcS2_S2_i
 3488      00
 3489 0141 BA000000 		movl	$__dso_handle, %edx
 3489      00
 3490 0146 BE000000 		movl	$_ZN12_GLOBAL__N_135testRecordsNumberOfFailuresInstanceE, %esi
 3490      00
 3491 014b BF000000 		movl	$_ZN12_GLOBAL__N_127TestRecordsNumberOfFailuresD1Ev, %edi
 3491      00
 3492 0150 48C70500 		movq	$_ZTVN12_GLOBAL__N_127TestRecordsNumberOfFailuresE+16, _ZN12_GLOBAL__N_135testRecordsNumberOf
 3492      00000000 
 3492      000000
 3493 015b E8000000 		call	__cxa_atexit
 3493      00
 3494 0160 E8000000 		call	_ZN8UnitTest4Test11GetTestListEv
 3494      00
 3495 0165 BA000000 		movl	$_ZN12_GLOBAL__N_135testRecordsNumberOfFailuresInstanceE, %edx
 3495      00
 3496 016a 4889C6   		movq	%rax, %rsi
 3497 016d BF000000 		movl	$_ZN12_GLOBAL__N_128adderRecordsNumberOfFailuresE, %edi
 3497      00
 3498 0172 E8000000 		call	_ZN8UnitTest9ListAdderC1ERNS_8TestListEPNS_4TestE
 3498      00
 3499 0177 41B82900 		movl	$41, %r8d
 3499      0000
 3500 017d B9000000 		movl	$.LC29, %ecx
 3500      00
 3501 0182 BA000000 		movl	$.LC30, %edx
 3501      00
 3502 0187 BE000000 		movl	$.LC35, %esi
 3502      00
 3503 018c BF000000 		movl	$_ZN12_GLOBAL__N_138testRecordsNumberOfFailedTestsInstanceE, %edi
 3503      00
 3504 0191 E8000000 		call	_ZN8UnitTest4TestC2EPKcS2_S2_i
 3504      00
 3505 0196 BA000000 		movl	$__dso_handle, %edx
 3505      00
 3506 019b BE000000 		movl	$_ZN12_GLOBAL__N_138testRecordsNumberOfFailedTestsInstanceE, %esi
 3506      00
 3507 01a0 BF000000 		movl	$_ZN12_GLOBAL__N_130TestRecordsNumberOfFailedTestsD1Ev, %edi
 3507      00
 3508 01a5 48C70500 		movq	$_ZTVN12_GLOBAL__N_130TestRecordsNumberOfFailedTestsE+16, _ZN12_GLOBAL__N_138testRecordsNumbe
 3508      00000000 
 3508      000000
 3509 01b0 E8000000 		call	__cxa_atexit
 3509      00
 3510 01b5 E8000000 		call	_ZN8UnitTest4Test11GetTestListEv
 3510      00
 3511 01ba BA000000 		movl	$_ZN12_GLOBAL__N_138testRecordsNumberOfFailedTestsInstanceE, %edx
 3511      00
 3512 01bf 4889C6   		movq	%rax, %rsi
 3513 01c2 BF000000 		movl	$_ZN12_GLOBAL__N_131adderRecordsNumberOfFailedTestsE, %edi
 3513      00
 3514 01c7 E8000000 		call	_ZN8UnitTest9ListAdderC1ERNS_8TestListEPNS_4TestE
 3514      00
 3515 01cc 41B83A00 		movl	$58, %r8d
 3515      0000
 3516 01d2 B9000000 		movl	$.LC29, %ecx
 3516      00
 3517 01d7 BA000000 		movl	$.LC30, %edx
 3517      00
 3518 01dc BE000000 		movl	$.LC36, %esi
 3518      00
 3519 01e1 BF000000 		movl	$_ZN12_GLOBAL__N_154testNotifiesReporterOfTestStartWithCorrectInfoInstanceE, %edi
 3519      00
 3520 01e6 E8000000 		call	_ZN8UnitTest4TestC2EPKcS2_S2_i
 3520      00
 3521 01eb BA000000 		movl	$__dso_handle, %edx
 3521      00
 3522 01f0 BE000000 		movl	$_ZN12_GLOBAL__N_154testNotifiesReporterOfTestStartWithCorrectInfoInstanceE, %esi
 3522      00
 3523 01f5 BF000000 		movl	$_ZN12_GLOBAL__N_146TestNotifiesReporterOfTestStartWithCorrectInfoD1Ev, %edi
 3523      00
 3524 01fa 48C70500 		movq	$_ZTVN12_GLOBAL__N_146TestNotifiesReporterOfTestStartWithCorrectInfoE+16, _ZN12_GLOBAL__N_154
 3524      00000000 
 3524      000000
 3525 0205 E8000000 		call	__cxa_atexit
 3525      00
 3526 020a E8000000 		call	_ZN8UnitTest4Test11GetTestListEv
 3526      00
 3527 020f BA000000 		movl	$_ZN12_GLOBAL__N_154testNotifiesReporterOfTestStartWithCorrectInfoInstanceE, %edx
 3527      00
 3528 0214 4889C6   		movq	%rax, %rsi
 3529 0217 BF000000 		movl	$_ZN12_GLOBAL__N_147adderNotifiesReporterOfTestStartWithCorrectInfoE, %edi
 3529      00
 3530 021c E8000000 		call	_ZN8UnitTest9ListAdderC1ERNS_8TestListEPNS_4TestE
 3530      00
 3531 0221 41B84500 		movl	$69, %r8d
 3531      0000
 3532 0227 B9000000 		movl	$.LC29, %ecx
 3532      00
 3533 022c BA000000 		movl	$.LC30, %edx
 3533      00
 3534 0231 BE000000 		movl	$.LC37, %esi
 3534      00
 3535 0236 BF000000 		movl	$_ZN12_GLOBAL__N_156testNotifiesReporterOfTestFailureWithCorrectInfoInstanceE, %edi
 3535      00
 3536 023b E8000000 		call	_ZN8UnitTest4TestC2EPKcS2_S2_i
 3536      00
 3537 0240 BA000000 		movl	$__dso_handle, %edx
 3537      00
 3538 0245 BE000000 		movl	$_ZN12_GLOBAL__N_156testNotifiesReporterOfTestFailureWithCorrectInfoInstanceE, %esi
 3538      00
 3539 024a BF000000 		movl	$_ZN12_GLOBAL__N_148TestNotifiesReporterOfTestFailureWithCorrectInfoD1Ev, %edi
 3539      00
 3540 024f 48C70500 		movq	$_ZTVN12_GLOBAL__N_148TestNotifiesReporterOfTestFailureWithCorrectInfoE+16, _ZN12_GLOBAL__N_1
 3540      00000000 
 3540      000000
 3541 025a E8000000 		call	__cxa_atexit
 3541      00
 3542 025f E8000000 		call	_ZN8UnitTest4Test11GetTestListEv
 3542      00
 3543 0264 BA000000 		movl	$_ZN12_GLOBAL__N_156testNotifiesReporterOfTestFailureWithCorrectInfoInstanceE, %edx
 3543      00
 3544 0269 4889C6   		movq	%rax, %rsi
 3545 026c BF000000 		movl	$_ZN12_GLOBAL__N_149adderNotifiesReporterOfTestFailureWithCorrectInfoE, %edi
 3545      00
 3546 0271 E8000000 		call	_ZN8UnitTest9ListAdderC1ERNS_8TestListEPNS_4TestE
 3546      00
 3547 0276 41B85300 		movl	$83, %r8d
 3547      0000
 3548 027c B9000000 		movl	$.LC29, %ecx
 3548      00
 3549 0281 BA000000 		movl	$.LC30, %edx
 3549      00
 3550 0286 BE000000 		movl	$.LC38, %esi
 3550      00
 3551 028b BF000000 		movl	$_ZN12_GLOBAL__N_157testNotifiesReporterOfCheckFailureWithCorrectInfoInstanceE, %edi
 3551      00
 3552 0290 E8000000 		call	_ZN8UnitTest4TestC2EPKcS2_S2_i
 3552      00
 3553 0295 BA000000 		movl	$__dso_handle, %edx
 3553      00
 3554 029a BE000000 		movl	$_ZN12_GLOBAL__N_157testNotifiesReporterOfCheckFailureWithCorrectInfoInstanceE, %esi
 3554      00
 3555 029f BF000000 		movl	$_ZN12_GLOBAL__N_149TestNotifiesReporterOfCheckFailureWithCorrectInfoD1Ev, %edi
 3555      00
 3556 02a4 48C70500 		movq	$_ZTVN12_GLOBAL__N_149TestNotifiesReporterOfCheckFailureWithCorrectInfoE+16, _ZN12_GLOBAL__N_
 3556      00000000 
 3556      000000
 3557 02af E8000000 		call	__cxa_atexit
 3557      00
 3558 02b4 E8000000 		call	_ZN8UnitTest4Test11GetTestListEv
 3558      00
 3559 02b9 BA000000 		movl	$_ZN12_GLOBAL__N_157testNotifiesReporterOfCheckFailureWithCorrectInfoInstanceE, %edx
 3559      00
 3560 02be 4889C6   		movq	%rax, %rsi
 3561 02c1 BF000000 		movl	$_ZN12_GLOBAL__N_150adderNotifiesReporterOfCheckFailureWithCorrectInfoE, %edi
 3561      00
 3562 02c6 E8000000 		call	_ZN8UnitTest9ListAdderC1ERNS_8TestListEPNS_4TestE
 3562      00
 3563 02cb 41B86200 		movl	$98, %r8d
 3563      0000
 3564 02d1 B9000000 		movl	$.LC29, %ecx
 3564      00
 3565 02d6 BA000000 		movl	$.LC30, %edx
 3565      00
 3566 02db BE000000 		movl	$.LC39, %esi
 3566      00
 3567 02e0 BF000000 		movl	$_ZN12_GLOBAL__N_137testNotifiesReporterOfTestEndInstanceE, %edi
 3567      00
 3568 02e5 E8000000 		call	_ZN8UnitTest4TestC2EPKcS2_S2_i
 3568      00
 3569 02ea BA000000 		movl	$__dso_handle, %edx
 3569      00
 3570 02ef BE000000 		movl	$_ZN12_GLOBAL__N_137testNotifiesReporterOfTestEndInstanceE, %esi
 3570      00
 3571 02f4 BF000000 		movl	$_ZN12_GLOBAL__N_129TestNotifiesReporterOfTestEndD1Ev, %edi
 3571      00
 3572 02f9 48C70500 		movq	$_ZTVN12_GLOBAL__N_129TestNotifiesReporterOfTestEndE+16, _ZN12_GLOBAL__N_137testNotifiesRepor
 3572      00000000 
 3572      000000
 3573 0304 E8000000 		call	__cxa_atexit
 3573      00
 3574 0309 E8000000 		call	_ZN8UnitTest4Test11GetTestListEv
 3574      00
 3575 030e BA000000 		movl	$_ZN12_GLOBAL__N_137testNotifiesReporterOfTestEndInstanceE, %edx
 3575      00
 3576 0313 4889C6   		movq	%rax, %rsi
 3577 0316 BF000000 		movl	$_ZN12_GLOBAL__N_130adderNotifiesReporterOfTestEndE, %edi
 3577      00
 3578 031b 4883C408 		addq	$8, %rsp
 3579              		.cfi_def_cfa_offset 8
 3580 031f E9000000 		jmp	_ZN8UnitTest9ListAdderC1ERNS_8TestListEPNS_4TestE
 3580      00
 3581              		.cfi_endproc
 3582              	.LFE1245:
 3584              		.section	.init_array,"aw"
 3585              		.align 8
 3586 0000 00000000 		.quad	_GLOBAL__sub_I_TestTestResults.cpp
 3586      00000000 
 3587              		.section	.rodata
 3588              		.align 32
 3591              	_ZTSN12_GLOBAL__N_124TestStartsWithNoTestsRunE:
 3592 0000 2A4E3132 		.string	"*N12_GLOBAL__N_124TestStartsWithNoTestsRunE"
 3592      5F474C4F 
 3592      42414C5F 
 3592      5F4E5F31 
 3592      32345465 
 3593 002c 00000000 		.align 32
 3593      00000000 
 3593      00000000 
 3593      00000000 
 3593      00000000 
 3596              	_ZTSN12_GLOBAL__N_125TestRecordsNumbersOfTestsE:
 3597 0040 2A4E3132 		.string	"*N12_GLOBAL__N_125TestRecordsNumbersOfTestsE"
 3597      5F474C4F 
 3597      42414C5F 
 3597      5F4E5F31 
 3597      32355465 
 3598 006d 00000000 		.align 32
 3598      00000000 
 3598      00000000 
 3598      00000000 
 3598      000000
 3601              	_ZTSN12_GLOBAL__N_128TestStartsWithNoTestsFailingE:
 3602 0080 2A4E3132 		.string	"*N12_GLOBAL__N_128TestStartsWithNoTestsFailingE"
 3602      5F474C4F 
 3602      42414C5F 
 3602      5F4E5F31 
 3602      32385465 
 3603 00b0 00000000 		.align 32
 3603      00000000 
 3603      00000000 
 3603      00000000 
 3606              	_ZTSN12_GLOBAL__N_127TestRecordsNumberOfFailuresE:
 3607 00c0 2A4E3132 		.string	"*N12_GLOBAL__N_127TestRecordsNumberOfFailuresE"
 3607      5F474C4F 
 3607      42414C5F 
 3607      5F4E5F31 
 3607      32375465 
 3608 00ef 00000000 		.align 32
 3608      00000000 
 3608      00000000 
 3608      00000000 
 3608      00
 3611              	_ZTSN12_GLOBAL__N_130TestRecordsNumberOfFailedTestsE:
 3612 0100 2A4E3132 		.string	"*N12_GLOBAL__N_130TestRecordsNumberOfFailedTestsE"
 3612      5F474C4F 
 3612      42414C5F 
 3612      5F4E5F31 
 3612      33305465 
 3613 0132 00000000 		.align 32
 3613      00000000 
 3613      00000000 
 3613      0000
 3616              	_ZTSN12_GLOBAL__N_146TestNotifiesReporterOfTestStartWithCorrectInfoE:
 3617 0140 2A4E3132 		.string	"*N12_GLOBAL__N_146TestNotifiesReporterOfTestStartWithCorrectInfoE"
 3617      5F474C4F 
 3617      42414C5F 
 3617      5F4E5F31 
 3617      34365465 
 3618 0182 00000000 		.align 32
 3618      00000000 
 3618      00000000 
 3618      00000000 
 3618      00000000 
 3621              	_ZTSN12_GLOBAL__N_148TestNotifiesReporterOfTestFailureWithCorrectInfoE:
 3622 01a0 2A4E3132 		.string	"*N12_GLOBAL__N_148TestNotifiesReporterOfTestFailureWithCorrectInfoE"
 3622      5F474C4F 
 3622      42414C5F 
 3622      5F4E5F31 
 3622      34385465 
 3623 01e4 00000000 		.align 32
 3623      00000000 
 3623      00000000 
 3623      00000000 
 3623      00000000 
 3626              	_ZTSN12_GLOBAL__N_149TestNotifiesReporterOfCheckFailureWithCorrectInfoE:
 3627 0200 2A4E3132 		.string	"*N12_GLOBAL__N_149TestNotifiesReporterOfCheckFailureWithCorrectInfoE"
 3627      5F474C4F 
 3627      42414C5F 
 3627      5F4E5F31 
 3627      34395465 
 3628 0245 00000000 		.align 32
 3628      00000000 
 3628      00000000 
 3628      00000000 
 3628      00000000 
 3631              	_ZTSN12_GLOBAL__N_129TestNotifiesReporterOfTestEndE:
 3632 0260 2A4E3132 		.string	"*N12_GLOBAL__N_129TestNotifiesReporterOfTestEndE"
 3632      5F474C4F 
 3632      42414C5F 
 3632      5F4E5F31 
 3632      32395465 
 3633 0291 00000000 		.align 16
 3633      00000000 
 3633      00000000 
 3633      000000
 3636              	_ZTIN12_GLOBAL__N_129TestNotifiesReporterOfTestEndE:
 3637 02a0 00000000 		.quad	_ZTVN10__cxxabiv120__si_class_type_infoE+16
 3637      00000000 
 3638 02a8 00000000 		.quad	_ZTSN12_GLOBAL__N_129TestNotifiesReporterOfTestEndE
 3638      00000000 
 3639 02b0 00000000 		.quad	_ZTIN8UnitTest4TestE
 3639      00000000 
 3640 02b8 00000000 		.align 16
 3640      00000000 
 3643              	_ZTIN12_GLOBAL__N_149TestNotifiesReporterOfCheckFailureWithCorrectInfoE:
 3644 02c0 00000000 		.quad	_ZTVN10__cxxabiv120__si_class_type_infoE+16
 3644      00000000 
 3645 02c8 00000000 		.quad	_ZTSN12_GLOBAL__N_149TestNotifiesReporterOfCheckFailureWithCorrectInfoE
 3645      00000000 
 3646 02d0 00000000 		.quad	_ZTIN8UnitTest4TestE
 3646      00000000 
 3647 02d8 00000000 		.align 16
 3647      00000000 
 3650              	_ZTIN12_GLOBAL__N_148TestNotifiesReporterOfTestFailureWithCorrectInfoE:
 3651 02e0 00000000 		.quad	_ZTVN10__cxxabiv120__si_class_type_infoE+16
 3651      00000000 
 3652 02e8 00000000 		.quad	_ZTSN12_GLOBAL__N_148TestNotifiesReporterOfTestFailureWithCorrectInfoE
 3652      00000000 
 3653 02f0 00000000 		.quad	_ZTIN8UnitTest4TestE
 3653      00000000 
 3654 02f8 00000000 		.align 16
 3654      00000000 
 3657              	_ZTIN12_GLOBAL__N_146TestNotifiesReporterOfTestStartWithCorrectInfoE:
 3658 0300 00000000 		.quad	_ZTVN10__cxxabiv120__si_class_type_infoE+16
 3658      00000000 
 3659 0308 00000000 		.quad	_ZTSN12_GLOBAL__N_146TestNotifiesReporterOfTestStartWithCorrectInfoE
 3659      00000000 
 3660 0310 00000000 		.quad	_ZTIN8UnitTest4TestE
 3660      00000000 
 3661 0318 00000000 		.align 16
 3661      00000000 
 3664              	_ZTIN12_GLOBAL__N_130TestRecordsNumberOfFailedTestsE:
 3665 0320 00000000 		.quad	_ZTVN10__cxxabiv120__si_class_type_infoE+16
 3665      00000000 
 3666 0328 00000000 		.quad	_ZTSN12_GLOBAL__N_130TestRecordsNumberOfFailedTestsE
 3666      00000000 
 3667 0330 00000000 		.quad	_ZTIN8UnitTest4TestE
 3667      00000000 
 3668 0338 00000000 		.align 16
 3668      00000000 
 3671              	_ZTIN12_GLOBAL__N_127TestRecordsNumberOfFailuresE:
 3672 0340 00000000 		.quad	_ZTVN10__cxxabiv120__si_class_type_infoE+16
 3672      00000000 
 3673 0348 00000000 		.quad	_ZTSN12_GLOBAL__N_127TestRecordsNumberOfFailuresE
 3673      00000000 
 3674 0350 00000000 		.quad	_ZTIN8UnitTest4TestE
 3674      00000000 
 3675 0358 00000000 		.align 16
 3675      00000000 
 3678              	_ZTIN12_GLOBAL__N_128TestStartsWithNoTestsFailingE:
 3679 0360 00000000 		.quad	_ZTVN10__cxxabiv120__si_class_type_infoE+16
 3679      00000000 
 3680 0368 00000000 		.quad	_ZTSN12_GLOBAL__N_128TestStartsWithNoTestsFailingE
 3680      00000000 
 3681 0370 00000000 		.quad	_ZTIN8UnitTest4TestE
 3681      00000000 
 3682 0378 00000000 		.align 16
 3682      00000000 
 3685              	_ZTIN12_GLOBAL__N_125TestRecordsNumbersOfTestsE:
 3686 0380 00000000 		.quad	_ZTVN10__cxxabiv120__si_class_type_infoE+16
 3686      00000000 
 3687 0388 00000000 		.quad	_ZTSN12_GLOBAL__N_125TestRecordsNumbersOfTestsE
 3687      00000000 
 3688 0390 00000000 		.quad	_ZTIN8UnitTest4TestE
 3688      00000000 
 3689 0398 00000000 		.align 16
 3689      00000000 
 3692              	_ZTIN12_GLOBAL__N_124TestStartsWithNoTestsRunE:
 3693 03a0 00000000 		.quad	_ZTVN10__cxxabiv120__si_class_type_infoE+16
 3693      00000000 
 3694 03a8 00000000 		.quad	_ZTSN12_GLOBAL__N_124TestStartsWithNoTestsRunE
 3694      00000000 
 3695 03b0 00000000 		.quad	_ZTIN8UnitTest4TestE
 3695      00000000 
 3696              		.weak	_ZTIN8UnitTest15MemoryOutStreamE
 3697              		.section	.rodata._ZTIN8UnitTest15MemoryOutStreamE,"aG",@progbits,_ZTIN8UnitTest15MemoryOutStreamE,
 3698              		.align 16
 3701              	_ZTIN8UnitTest15MemoryOutStreamE:
 3702 0000 00000000 		.quad	_ZTVN10__cxxabiv120__si_class_type_infoE+16
 3702      00000000 
 3703 0008 00000000 		.quad	_ZTSN8UnitTest15MemoryOutStreamE
 3703      00000000 
 3704 0010 00000000 		.quad	_ZTISt19basic_ostringstreamIcSt11char_traitsIcESaIcEE
 3704      00000000 
 3705              		.weak	_ZTSN8UnitTest15MemoryOutStreamE
 3706              		.section	.rodata._ZTSN8UnitTest15MemoryOutStreamE,"aG",@progbits,_ZTSN8UnitTest15MemoryOutStreamE,
 3707              		.align 16
 3710              	_ZTSN8UnitTest15MemoryOutStreamE:
 3711 0000 4E38556E 		.string	"N8UnitTest15MemoryOutStreamE"
 3711      69745465 
 3711      73743135 
 3711      4D656D6F 
 3711      72794F75 
 3712              		.weak	_ZTI17RecordingReporter
 3713              		.section	.rodata._ZTI17RecordingReporter,"aG",@progbits,_ZTI17RecordingReporter,comdat
 3714              		.align 16
 3717              	_ZTI17RecordingReporter:
 3718 0000 00000000 		.quad	_ZTVN10__cxxabiv120__si_class_type_infoE+16
 3718      00000000 
 3719 0008 00000000 		.quad	_ZTS17RecordingReporter
 3719      00000000 
 3720 0010 00000000 		.quad	_ZTIN8UnitTest12TestReporterE
 3720      00000000 
 3721              		.weak	_ZTS17RecordingReporter
 3722              		.section	.rodata._ZTS17RecordingReporter,"aG",@progbits,_ZTS17RecordingReporter,comdat
 3723              		.align 16
 3726              	_ZTS17RecordingReporter:
 3727 0000 31375265 		.string	"17RecordingReporter"
 3727      636F7264 
 3727      696E6752 
 3727      65706F72 
 3727      74657200 
 3728              		.hidden	_ZTCN8UnitTest15MemoryOutStreamE0_So
 3729              		.weak	_ZTCN8UnitTest15MemoryOutStreamE0_So
 3730              		.section	.rodata._ZTCN8UnitTest15MemoryOutStreamE0_So,"aG",@progbits,_ZTVN8UnitTest15MemoryOutStre
 3731              		.align 32
 3734              	_ZTCN8UnitTest15MemoryOutStreamE0_So:
 3735 0000 60000000 		.quad	96
 3735      00000000 
 3736 0008 00000000 		.quad	0
 3736      00000000 
 3737 0010 00000000 		.quad	_ZTISo
 3737      00000000 
 3738 0018 00000000 		.quad	_ZNSoD1Ev
 3738      00000000 
 3739 0020 00000000 		.quad	_ZNSoD0Ev
 3739      00000000 
 3740 0028 A0FFFFFF 		.quad	-96
 3740      FFFFFFFF 
 3741 0030 A0FFFFFF 		.quad	-96
 3741      FFFFFFFF 
 3742 0038 00000000 		.quad	_ZTISo
 3742      00000000 
 3743 0040 00000000 		.quad	_ZTv0_n24_NSoD1Ev
 3743      00000000 
 3744 0048 00000000 		.quad	_ZTv0_n24_NSoD0Ev
 3744      00000000 
 3745              		.hidden	_ZTCN8UnitTest15MemoryOutStreamE0_St19basic_ostringstreamIcSt11char_traitsIcESaIcEE
 3746              		.weak	_ZTCN8UnitTest15MemoryOutStreamE0_St19basic_ostringstreamIcSt11char_traitsIcESaIcEE
 3747              		.section	.rodata._ZTCN8UnitTest15MemoryOutStreamE0_St19basic_ostringstreamIcSt11char_traitsIcESaIc
 3748              		.align 32
 3751              	_ZTCN8UnitTest15MemoryOutStreamE0_St19basic_ostringstreamIcSt11char_traitsIcESaIcEE:
 3752 0000 60000000 		.quad	96
 3752      00000000 
 3753 0008 00000000 		.quad	0
 3753      00000000 
 3754 0010 00000000 		.quad	_ZTISt19basic_ostringstreamIcSt11char_traitsIcESaIcEE
 3754      00000000 
 3755 0018 00000000 		.quad	_ZNSt19basic_ostringstreamIcSt11char_traitsIcESaIcEED1Ev
 3755      00000000 
 3756 0020 00000000 		.quad	_ZNSt19basic_ostringstreamIcSt11char_traitsIcESaIcEED0Ev
 3756      00000000 
 3757 0028 A0FFFFFF 		.quad	-96
 3757      FFFFFFFF 
 3758 0030 A0FFFFFF 		.quad	-96
 3758      FFFFFFFF 
 3759 0038 00000000 		.quad	_ZTISt19basic_ostringstreamIcSt11char_traitsIcESaIcEE
 3759      00000000 
 3760 0040 00000000 		.quad	_ZTv0_n24_NSt19basic_ostringstreamIcSt11char_traitsIcESaIcEED1Ev
 3760      00000000 
 3761 0048 00000000 		.quad	_ZTv0_n24_NSt19basic_ostringstreamIcSt11char_traitsIcESaIcEED0Ev
 3761      00000000 
 3762              		.weak	_ZTTN8UnitTest15MemoryOutStreamE
 3763              		.section	.rodata._ZTTN8UnitTest15MemoryOutStreamE,"aG",@progbits,_ZTVN8UnitTest15MemoryOutStreamE,
 3764              		.align 32
 3767              	_ZTTN8UnitTest15MemoryOutStreamE:
 3768 0000 00000000 		.quad	_ZTVN8UnitTest15MemoryOutStreamE+24
 3768      00000000 
 3769 0008 00000000 		.quad	_ZTCN8UnitTest15MemoryOutStreamE0_St19basic_ostringstreamIcSt11char_traitsIcESaIcEE+24
 3769      00000000 
 3770 0010 00000000 		.quad	_ZTCN8UnitTest15MemoryOutStreamE0_So+24
 3770      00000000 
 3771 0018 00000000 		.quad	_ZTCN8UnitTest15MemoryOutStreamE0_So+64
 3771      00000000 
 3772 0020 00000000 		.quad	_ZTCN8UnitTest15MemoryOutStreamE0_St19basic_ostringstreamIcSt11char_traitsIcESaIcEE+64
 3772      00000000 
 3773 0028 00000000 		.quad	_ZTVN8UnitTest15MemoryOutStreamE+64
 3773      00000000 
 3774              		.weak	_ZTVN8UnitTest15MemoryOutStreamE
 3775              		.section	.rodata._ZTVN8UnitTest15MemoryOutStreamE,"aG",@progbits,_ZTVN8UnitTest15MemoryOutStreamE,
 3776              		.align 32
 3779              	_ZTVN8UnitTest15MemoryOutStreamE:
 3780 0000 60000000 		.quad	96
 3780      00000000 
 3781 0008 00000000 		.quad	0
 3781      00000000 
 3782 0010 00000000 		.quad	_ZTIN8UnitTest15MemoryOutStreamE
 3782      00000000 
 3783 0018 00000000 		.quad	_ZN8UnitTest15MemoryOutStreamD1Ev
 3783      00000000 
 3784 0020 00000000 		.quad	_ZN8UnitTest15MemoryOutStreamD0Ev
 3784      00000000 
 3785 0028 A0FFFFFF 		.quad	-96
 3785      FFFFFFFF 
 3786 0030 A0FFFFFF 		.quad	-96
 3786      FFFFFFFF 
 3787 0038 00000000 		.quad	_ZTIN8UnitTest15MemoryOutStreamE
 3787      00000000 
 3788 0040 00000000 		.quad	_ZTv0_n24_N8UnitTest15MemoryOutStreamD1Ev
 3788      00000000 
 3789 0048 00000000 		.quad	_ZTv0_n24_N8UnitTest15MemoryOutStreamD0Ev
 3789      00000000 
 3790              		.weak	_ZTV17RecordingReporter
 3791              		.section	.rodata._ZTV17RecordingReporter,"aG",@progbits,_ZTV17RecordingReporter,comdat
 3792              		.align 32
 3795              	_ZTV17RecordingReporter:
 3796 0000 00000000 		.quad	0
 3796      00000000 
 3797 0008 00000000 		.quad	_ZTI17RecordingReporter
 3797      00000000 
 3798 0010 00000000 		.quad	_ZN17RecordingReporterD1Ev
 3798      00000000 
 3799 0018 00000000 		.quad	_ZN17RecordingReporterD0Ev
 3799      00000000 
 3800 0020 00000000 		.quad	_ZN17RecordingReporter15ReportTestStartERKN8UnitTest11TestDetailsE
 3800      00000000 
 3801 0028 00000000 		.quad	_ZN17RecordingReporter13ReportFailureERKN8UnitTest11TestDetailsEPKc
 3801      00000000 
 3802 0030 00000000 		.quad	_ZN17RecordingReporter16ReportTestFinishERKN8UnitTest11TestDetailsEf
 3802      00000000 
 3803 0038 00000000 		.quad	_ZN17RecordingReporter13ReportSummaryEiiif
 3803      00000000 
 3804              		.section	.rodata
 3805 03b8 00000000 		.align 32
 3805      00000000 
 3808              	_ZTVN12_GLOBAL__N_124TestStartsWithNoTestsRunE:
 3809 03c0 00000000 		.quad	0
 3809      00000000 
 3810 03c8 00000000 		.quad	_ZTIN12_GLOBAL__N_124TestStartsWithNoTestsRunE
 3810      00000000 
 3811 03d0 00000000 		.quad	_ZN12_GLOBAL__N_124TestStartsWithNoTestsRunD1Ev
 3811      00000000 
 3812 03d8 00000000 		.quad	_ZN12_GLOBAL__N_124TestStartsWithNoTestsRunD0Ev
 3812      00000000 
 3813 03e0 00000000 		.quad	_ZNK12_GLOBAL__N_124TestStartsWithNoTestsRun7RunImplEv
 3813      00000000 
 3814 03e8 00000000 		.align 32
 3814      00000000 
 3814      00000000 
 3814      00000000 
 3814      00000000 
 3817              	_ZTVN12_GLOBAL__N_125TestRecordsNumbersOfTestsE:
 3818 0400 00000000 		.quad	0
 3818      00000000 
 3819 0408 00000000 		.quad	_ZTIN12_GLOBAL__N_125TestRecordsNumbersOfTestsE
 3819      00000000 
 3820 0410 00000000 		.quad	_ZN12_GLOBAL__N_125TestRecordsNumbersOfTestsD1Ev
 3820      00000000 
 3821 0418 00000000 		.quad	_ZN12_GLOBAL__N_125TestRecordsNumbersOfTestsD0Ev
 3821      00000000 
 3822 0420 00000000 		.quad	_ZNK12_GLOBAL__N_125TestRecordsNumbersOfTests7RunImplEv
 3822      00000000 
 3823 0428 00000000 		.align 32
 3823      00000000 
 3823      00000000 
 3823      00000000 
 3823      00000000 
 3826              	_ZTVN12_GLOBAL__N_128TestStartsWithNoTestsFailingE:
 3827 0440 00000000 		.quad	0
 3827      00000000 
 3828 0448 00000000 		.quad	_ZTIN12_GLOBAL__N_128TestStartsWithNoTestsFailingE
 3828      00000000 
 3829 0450 00000000 		.quad	_ZN12_GLOBAL__N_128TestStartsWithNoTestsFailingD1Ev
 3829      00000000 
 3830 0458 00000000 		.quad	_ZN12_GLOBAL__N_128TestStartsWithNoTestsFailingD0Ev
 3830      00000000 
 3831 0460 00000000 		.quad	_ZNK12_GLOBAL__N_128TestStartsWithNoTestsFailing7RunImplEv
 3831      00000000 
 3832 0468 00000000 		.align 32
 3832      00000000 
 3832      00000000 
 3832      00000000 
 3832      00000000 
 3835              	_ZTVN12_GLOBAL__N_127TestRecordsNumberOfFailuresE:
 3836 0480 00000000 		.quad	0
 3836      00000000 
 3837 0488 00000000 		.quad	_ZTIN12_GLOBAL__N_127TestRecordsNumberOfFailuresE
 3837      00000000 
 3838 0490 00000000 		.quad	_ZN12_GLOBAL__N_127TestRecordsNumberOfFailuresD1Ev
 3838      00000000 
 3839 0498 00000000 		.quad	_ZN12_GLOBAL__N_127TestRecordsNumberOfFailuresD0Ev
 3839      00000000 
 3840 04a0 00000000 		.quad	_ZNK12_GLOBAL__N_127TestRecordsNumberOfFailures7RunImplEv
 3840      00000000 
 3841 04a8 00000000 		.align 32
 3841      00000000 
 3841      00000000 
 3841      00000000 
 3841      00000000 
 3844              	_ZTVN12_GLOBAL__N_130TestRecordsNumberOfFailedTestsE:
 3845 04c0 00000000 		.quad	0
 3845      00000000 
 3846 04c8 00000000 		.quad	_ZTIN12_GLOBAL__N_130TestRecordsNumberOfFailedTestsE
 3846      00000000 
 3847 04d0 00000000 		.quad	_ZN12_GLOBAL__N_130TestRecordsNumberOfFailedTestsD1Ev
 3847      00000000 
 3848 04d8 00000000 		.quad	_ZN12_GLOBAL__N_130TestRecordsNumberOfFailedTestsD0Ev
 3848      00000000 
 3849 04e0 00000000 		.quad	_ZNK12_GLOBAL__N_130TestRecordsNumberOfFailedTests7RunImplEv
 3849      00000000 
 3850 04e8 00000000 		.align 32
 3850      00000000 
 3850      00000000 
 3850      00000000 
 3850      00000000 
 3853              	_ZTVN12_GLOBAL__N_146TestNotifiesReporterOfTestStartWithCorrectInfoE:
 3854 0500 00000000 		.quad	0
 3854      00000000 
 3855 0508 00000000 		.quad	_ZTIN12_GLOBAL__N_146TestNotifiesReporterOfTestStartWithCorrectInfoE
 3855      00000000 
 3856 0510 00000000 		.quad	_ZN12_GLOBAL__N_146TestNotifiesReporterOfTestStartWithCorrectInfoD1Ev
 3856      00000000 
 3857 0518 00000000 		.quad	_ZN12_GLOBAL__N_146TestNotifiesReporterOfTestStartWithCorrectInfoD0Ev
 3857      00000000 
 3858 0520 00000000 		.quad	_ZNK12_GLOBAL__N_146TestNotifiesReporterOfTestStartWithCorrectInfo7RunImplEv
 3858      00000000 
 3859 0528 00000000 		.align 32
 3859      00000000 
 3859      00000000 
 3859      00000000 
 3859      00000000 
 3862              	_ZTVN12_GLOBAL__N_148TestNotifiesReporterOfTestFailureWithCorrectInfoE:
 3863 0540 00000000 		.quad	0
 3863      00000000 
 3864 0548 00000000 		.quad	_ZTIN12_GLOBAL__N_148TestNotifiesReporterOfTestFailureWithCorrectInfoE
 3864      00000000 
 3865 0550 00000000 		.quad	_ZN12_GLOBAL__N_148TestNotifiesReporterOfTestFailureWithCorrectInfoD1Ev
 3865      00000000 
 3866 0558 00000000 		.quad	_ZN12_GLOBAL__N_148TestNotifiesReporterOfTestFailureWithCorrectInfoD0Ev
 3866      00000000 
 3867 0560 00000000 		.quad	_ZNK12_GLOBAL__N_148TestNotifiesReporterOfTestFailureWithCorrectInfo7RunImplEv
 3867      00000000 
 3868 0568 00000000 		.align 32
 3868      00000000 
 3868      00000000 
 3868      00000000 
 3868      00000000 
 3871              	_ZTVN12_GLOBAL__N_149TestNotifiesReporterOfCheckFailureWithCorrectInfoE:
 3872 0580 00000000 		.quad	0
 3872      00000000 
 3873 0588 00000000 		.quad	_ZTIN12_GLOBAL__N_149TestNotifiesReporterOfCheckFailureWithCorrectInfoE
 3873      00000000 
 3874 0590 00000000 		.quad	_ZN12_GLOBAL__N_149TestNotifiesReporterOfCheckFailureWithCorrectInfoD1Ev
 3874      00000000 
 3875 0598 00000000 		.quad	_ZN12_GLOBAL__N_149TestNotifiesReporterOfCheckFailureWithCorrectInfoD0Ev
 3875      00000000 
 3876 05a0 00000000 		.quad	_ZNK12_GLOBAL__N_149TestNotifiesReporterOfCheckFailureWithCorrectInfo7RunImplEv
 3876      00000000 
 3877 05a8 00000000 		.align 32
 3877      00000000 
 3877      00000000 
 3877      00000000 
 3877      00000000 
 3880              	_ZTVN12_GLOBAL__N_129TestNotifiesReporterOfTestEndE:
 3881 05c0 00000000 		.quad	0
 3881      00000000 
 3882 05c8 00000000 		.quad	_ZTIN12_GLOBAL__N_129TestNotifiesReporterOfTestEndE
 3882      00000000 
 3883 05d0 00000000 		.quad	_ZN12_GLOBAL__N_129TestNotifiesReporterOfTestEndD1Ev
 3883      00000000 
 3884 05d8 00000000 		.quad	_ZN12_GLOBAL__N_129TestNotifiesReporterOfTestEndD0Ev
 3884      00000000 
 3885 05e0 00000000 		.quad	_ZNK12_GLOBAL__N_129TestNotifiesReporterOfTestEnd7RunImplEv
 3885      00000000 
 3886              		.local	_ZN12_GLOBAL__N_130adderNotifiesReporterOfTestEndE
 3887              		.comm	_ZN12_GLOBAL__N_130adderNotifiesReporterOfTestEndE,1,1
 3888              		.local	_ZN12_GLOBAL__N_137testNotifiesReporterOfTestEndInstanceE
 3889              		.comm	_ZN12_GLOBAL__N_137testNotifiesReporterOfTestEndInstanceE,56,32
 3890              		.local	_ZN12_GLOBAL__N_150adderNotifiesReporterOfCheckFailureWithCorrectInfoE
 3891              		.comm	_ZN12_GLOBAL__N_150adderNotifiesReporterOfCheckFailureWithCorrectInfoE,1,1
 3892              		.local	_ZN12_GLOBAL__N_157testNotifiesReporterOfCheckFailureWithCorrectInfoInstanceE
 3893              		.comm	_ZN12_GLOBAL__N_157testNotifiesReporterOfCheckFailureWithCorrectInfoInstanceE,56,32
 3894              		.local	_ZN12_GLOBAL__N_149adderNotifiesReporterOfTestFailureWithCorrectInfoE
 3895              		.comm	_ZN12_GLOBAL__N_149adderNotifiesReporterOfTestFailureWithCorrectInfoE,1,1
 3896              		.local	_ZN12_GLOBAL__N_156testNotifiesReporterOfTestFailureWithCorrectInfoInstanceE
 3897              		.comm	_ZN12_GLOBAL__N_156testNotifiesReporterOfTestFailureWithCorrectInfoInstanceE,56,32
 3898              		.local	_ZN12_GLOBAL__N_147adderNotifiesReporterOfTestStartWithCorrectInfoE
 3899              		.comm	_ZN12_GLOBAL__N_147adderNotifiesReporterOfTestStartWithCorrectInfoE,1,1
 3900              		.local	_ZN12_GLOBAL__N_154testNotifiesReporterOfTestStartWithCorrectInfoInstanceE
 3901              		.comm	_ZN12_GLOBAL__N_154testNotifiesReporterOfTestStartWithCorrectInfoInstanceE,56,32
 3902              		.local	_ZN12_GLOBAL__N_131adderRecordsNumberOfFailedTestsE
 3903              		.comm	_ZN12_GLOBAL__N_131adderRecordsNumberOfFailedTestsE,1,1
 3904              		.local	_ZN12_GLOBAL__N_138testRecordsNumberOfFailedTestsInstanceE
 3905              		.comm	_ZN12_GLOBAL__N_138testRecordsNumberOfFailedTestsInstanceE,56,32
 3906              		.local	_ZN12_GLOBAL__N_128adderRecordsNumberOfFailuresE
 3907              		.comm	_ZN12_GLOBAL__N_128adderRecordsNumberOfFailuresE,1,1
 3908              		.local	_ZN12_GLOBAL__N_135testRecordsNumberOfFailuresInstanceE
 3909              		.comm	_ZN12_GLOBAL__N_135testRecordsNumberOfFailuresInstanceE,56,32
 3910              		.local	_ZN12_GLOBAL__N_129adderStartsWithNoTestsFailingE
 3911              		.comm	_ZN12_GLOBAL__N_129adderStartsWithNoTestsFailingE,1,1
 3912              		.local	_ZN12_GLOBAL__N_136testStartsWithNoTestsFailingInstanceE
 3913              		.comm	_ZN12_GLOBAL__N_136testStartsWithNoTestsFailingInstanceE,56,32
 3914              		.local	_ZN12_GLOBAL__N_126adderRecordsNumbersOfTestsE
 3915              		.comm	_ZN12_GLOBAL__N_126adderRecordsNumbersOfTestsE,1,1
 3916              		.local	_ZN12_GLOBAL__N_133testRecordsNumbersOfTestsInstanceE
 3917              		.comm	_ZN12_GLOBAL__N_133testRecordsNumbersOfTestsInstanceE,56,32
 3918              		.local	_ZN12_GLOBAL__N_125adderStartsWithNoTestsRunE
 3919              		.comm	_ZN12_GLOBAL__N_125adderStartsWithNoTestsRunE,1,1
 3920              		.local	_ZN12_GLOBAL__N_132testStartsWithNoTestsRunInstanceE
 3921              		.comm	_ZN12_GLOBAL__N_132testStartsWithNoTestsRunInstanceE,56,32
 3922              		.local	_ZN12_GLOBAL__N_1L7detailsE
 3923              		.comm	_ZN12_GLOBAL__N_1L7detailsE,32,32
 3924              		.weakref	_ZL28__gthrw___pthread_key_createPjPFvPvE,__pthread_key_create
 3925              		.section	.rodata.cst4,"aM",@progbits,4
 3926              		.align 4
 3927              	.LC23:
 3928 0000 24B9FC3D 		.long	1039972644
 3929              		.hidden	__dso_handle
 3930              		.ident	"GCC: (Ubuntu 4.8.4-2ubuntu1~14.04.3) 4.8.4"
 3931              		.section	.note.GNU-stack,"",@progbits