   1              		.file	"TestTest.cpp"
   2              		.text
   3              		.align 2
   4              		.p2align 4,,15
   6              	_ZZNK12_GLOBAL__N_128TestPassingTestHasNoFailures7RunImplEvENK11PassingTest7RunImplEv:
   7              	.LFB1065:
   8              		.cfi_startproc
   9 0000 F3C3     		rep ret
  10              		.cfi_endproc
  11              	.LFE1065:
  13              		.align 2
  14 0002 66666666 		.p2align 4,,15
  14      662E0F1F 
  14      84000000 
  14      0000
  16              	_ZZNK12_GLOBAL__N_138TestCrashingTestsAreReportedAsFailures7RunImplEvENK12CrashingTest7RunImplEv:
  17              	.LFB1089:
  18              		.cfi_startproc
  19 0010 C7042500 		movl	$42, 0
  19      0000002A 
  19      000000
  20 001b C3       		ret
  21              		.cfi_endproc
  22              	.LFE1089:
  24              		.align 2
  25 001c 0F1F4000 		.p2align 4,,15
  27              	_ZN12_GLOBAL__N_136TestOutOfCoreCHECKMacrosCanFailTestsD2Ev:
  28              	.LFB1185:
  29              		.cfi_startproc
  30 0020 48C70700 		movq	$_ZTVN12_GLOBAL__N_136TestOutOfCoreCHECKMacrosCanFailTestsE+16, (%rdi)
  30      000000
  31 0027 E9000000 		jmp	_ZN8UnitTest4TestD2Ev
  31      00
  32              		.cfi_endproc
  33              	.LFE1185:
  35              		.set	_ZN12_GLOBAL__N_136TestOutOfCoreCHECKMacrosCanFailTestsD1Ev,_ZN12_GLOBAL__N_136TestOutOfCoreC
  36              		.align 2
  37 002c 0F1F4000 		.p2align 4,,15
  39              	_ZN12_GLOBAL__N_136TestOutOfCoreCHECKMacrosCanFailTestsD0Ev:
  40              	.LFB1187:
  41              		.cfi_startproc
  42 0030 53       		pushq	%rbx
  43              		.cfi_def_cfa_offset 16
  44              		.cfi_offset 3, -16
  45 0031 4889FB   		movq	%rdi, %rbx
  46 0034 48C70700 		movq	$_ZTVN12_GLOBAL__N_136TestOutOfCoreCHECKMacrosCanFailTestsE+16, (%rdi)
  46      000000
  47 003b E8000000 		call	_ZN8UnitTest4TestD2Ev
  47      00
  48 0040 4889DF   		movq	%rbx, %rdi
  49 0043 5B       		popq	%rbx
  50              		.cfi_def_cfa_offset 8
  51 0044 E9000000 		jmp	_ZdlPv
  51      00
  52              		.cfi_endproc
  53              	.LFE1187:
  55 0049 90       		.align 2
  56 004a 660F1F44 		.p2align 4,,15
  56      0000
  58              	_ZN12_GLOBAL__N_134TestTestReflectsSpecifiedSuiteNameD2Ev:
  59              	.LFB1189:
  60              		.cfi_startproc
  61 0050 48C70700 		movq	$_ZTVN12_GLOBAL__N_134TestTestReflectsSpecifiedSuiteNameE+16, (%rdi)
  61      000000
  62 0057 E9000000 		jmp	_ZN8UnitTest4TestD2Ev
  62      00
  63              		.cfi_endproc
  64              	.LFE1189:
  66              		.set	_ZN12_GLOBAL__N_134TestTestReflectsSpecifiedSuiteNameD1Ev,_ZN12_GLOBAL__N_134TestTestReflects
  67              		.align 2
  68 005c 0F1F4000 		.p2align 4,,15
  70              	_ZN12_GLOBAL__N_134TestTestReflectsSpecifiedSuiteNameD0Ev:
  71              	.LFB1191:
  72              		.cfi_startproc
  73 0060 53       		pushq	%rbx
  74              		.cfi_def_cfa_offset 16
  75              		.cfi_offset 3, -16
  76 0061 4889FB   		movq	%rdi, %rbx
  77 0064 48C70700 		movq	$_ZTVN12_GLOBAL__N_134TestTestReflectsSpecifiedSuiteNameE+16, (%rdi)
  77      000000
  78 006b E8000000 		call	_ZN8UnitTest4TestD2Ev
  78      00
  79 0070 4889DF   		movq	%rbx, %rdi
  80 0073 5B       		popq	%rbx
  81              		.cfi_def_cfa_offset 8
  82 0074 E9000000 		jmp	_ZdlPv
  82      00
  83              		.cfi_endproc
  84              	.LFE1191:
  86 0079 90       		.align 2
  87 007a 660F1F44 		.p2align 4,,15
  87      0000
  89              	_ZN12_GLOBAL__N_144TestTestWithUnspecifiedSuiteGetsDefaultSuiteD2Ev:
  90              	.LFB1193:
  91              		.cfi_startproc
  92 0080 48C70700 		movq	$_ZTVN12_GLOBAL__N_144TestTestWithUnspecifiedSuiteGetsDefaultSuiteE+16, (%rdi)
  92      000000
  93 0087 E9000000 		jmp	_ZN8UnitTest4TestD2Ev
  93      00
  94              		.cfi_endproc
  95              	.LFE1193:
  97              		.set	_ZN12_GLOBAL__N_144TestTestWithUnspecifiedSuiteGetsDefaultSuiteD1Ev,_ZN12_GLOBAL__N_144TestTe
  98              		.align 2
  99 008c 0F1F4000 		.p2align 4,,15
 101              	_ZN12_GLOBAL__N_144TestTestWithUnspecifiedSuiteGetsDefaultSuiteD0Ev:
 102              	.LFB1195:
 103              		.cfi_startproc
 104 0090 53       		pushq	%rbx
 105              		.cfi_def_cfa_offset 16
 106              		.cfi_offset 3, -16
 107 0091 4889FB   		movq	%rdi, %rbx
 108 0094 48C70700 		movq	$_ZTVN12_GLOBAL__N_144TestTestWithUnspecifiedSuiteGetsDefaultSuiteE+16, (%rdi)
 108      000000
 109 009b E8000000 		call	_ZN8UnitTest4TestD2Ev
 109      00
 110 00a0 4889DF   		movq	%rbx, %rdi
 111 00a3 5B       		popq	%rbx
 112              		.cfi_def_cfa_offset 8
 113 00a4 E9000000 		jmp	_ZdlPv
 113      00
 114              		.cfi_endproc
 115              	.LFE1195:
 117 00a9 90       		.align 2
 118 00aa 660F1F44 		.p2align 4,,15
 118      0000
 120              	_ZN12_GLOBAL__N_138TestCrashingTestsAreReportedAsFailuresD2Ev:
 121              	.LFB1197:
 122              		.cfi_startproc
 123 00b0 48C70700 		movq	$_ZTVN12_GLOBAL__N_138TestCrashingTestsAreReportedAsFailuresE+16, (%rdi)
 123      000000
 124 00b7 E9000000 		jmp	_ZN8UnitTest4TestD2Ev
 124      00
 125              		.cfi_endproc
 126              	.LFE1197:
 128              		.set	_ZN12_GLOBAL__N_138TestCrashingTestsAreReportedAsFailuresD1Ev,_ZN12_GLOBAL__N_138TestCrashing
 129              		.align 2
 130 00bc 0F1F4000 		.p2align 4,,15
 132              	_ZN12_GLOBAL__N_138TestCrashingTestsAreReportedAsFailuresD0Ev:
 133              	.LFB1199:
 134              		.cfi_startproc
 135 00c0 53       		pushq	%rbx
 136              		.cfi_def_cfa_offset 16
 137              		.cfi_offset 3, -16
 138 00c1 4889FB   		movq	%rdi, %rbx
 139 00c4 48C70700 		movq	$_ZTVN12_GLOBAL__N_138TestCrashingTestsAreReportedAsFailuresE+16, (%rdi)
 139      000000
 140 00cb E8000000 		call	_ZN8UnitTest4TestD2Ev
 140      00
 141 00d0 4889DF   		movq	%rbx, %rdi
 142 00d3 5B       		popq	%rbx
 143              		.cfi_def_cfa_offset 8
 144 00d4 E9000000 		jmp	_ZdlPv
 144      00
 145              		.cfi_endproc
 146              	.LFE1199:
 148 00d9 90       		.align 2
 149 00da 660F1F44 		.p2align 4,,15
 149      0000
 151              	_ZZNK12_GLOBAL__N_138TestCrashingTestsAreReportedAsFailures7RunImplEvEN12CrashingTestD2Ev:
 152              	.LFB1201:
 153              		.cfi_startproc
 154 00e0 48C70700 		movq	$_ZTVZNK12_GLOBAL__N_138TestCrashingTestsAreReportedAsFailures7RunImplEvE12CrashingTest+16, (
 154      000000
 155 00e7 E9000000 		jmp	_ZN8UnitTest4TestD2Ev
 155      00
 156              		.cfi_endproc
 157              	.LFE1201:
 159              		.set	_ZZNK12_GLOBAL__N_138TestCrashingTestsAreReportedAsFailures7RunImplEvEN12CrashingTestD1Ev,_ZZ
 160              		.align 2
 161 00ec 0F1F4000 		.p2align 4,,15
 163              	_ZZNK12_GLOBAL__N_138TestCrashingTestsAreReportedAsFailures7RunImplEvEN12CrashingTestD0Ev:
 164              	.LFB1203:
 165              		.cfi_startproc
 166 00f0 53       		pushq	%rbx
 167              		.cfi_def_cfa_offset 16
 168              		.cfi_offset 3, -16
 169 00f1 4889FB   		movq	%rdi, %rbx
 170 00f4 48C70700 		movq	$_ZTVZNK12_GLOBAL__N_138TestCrashingTestsAreReportedAsFailures7RunImplEvE12CrashingTest+16, (
 170      000000
 171 00fb E8000000 		call	_ZN8UnitTest4TestD2Ev
 171      00
 172 0100 4889DF   		movq	%rbx, %rdi
 173 0103 5B       		popq	%rbx
 174              		.cfi_def_cfa_offset 8
 175 0104 E9000000 		jmp	_ZdlPv
 175      00
 176              		.cfi_endproc
 177              	.LFE1203:
 179 0109 90       		.align 2
 180 010a 660F1F44 		.p2align 4,,15
 180      0000
 182              	_ZN12_GLOBAL__N_138TestThrowingTestsAreReportedAsFailuresD2Ev:
 183              	.LFB1205:
 184              		.cfi_startproc
 185 0110 48C70700 		movq	$_ZTVN12_GLOBAL__N_138TestThrowingTestsAreReportedAsFailuresE+16, (%rdi)
 185      000000
 186 0117 E9000000 		jmp	_ZN8UnitTest4TestD2Ev
 186      00
 187              		.cfi_endproc
 188              	.LFE1205:
 190              		.set	_ZN12_GLOBAL__N_138TestThrowingTestsAreReportedAsFailuresD1Ev,_ZN12_GLOBAL__N_138TestThrowing
 191              		.align 2
 192 011c 0F1F4000 		.p2align 4,,15
 194              	_ZN12_GLOBAL__N_138TestThrowingTestsAreReportedAsFailuresD0Ev:
 195              	.LFB1207:
 196              		.cfi_startproc
 197 0120 53       		pushq	%rbx
 198              		.cfi_def_cfa_offset 16
 199              		.cfi_offset 3, -16
 200 0121 4889FB   		movq	%rdi, %rbx
 201 0124 48C70700 		movq	$_ZTVN12_GLOBAL__N_138TestThrowingTestsAreReportedAsFailuresE+16, (%rdi)
 201      000000
 202 012b E8000000 		call	_ZN8UnitTest4TestD2Ev
 202      00
 203 0130 4889DF   		movq	%rbx, %rdi
 204 0133 5B       		popq	%rbx
 205              		.cfi_def_cfa_offset 8
 206 0134 E9000000 		jmp	_ZdlPv
 206      00
 207              		.cfi_endproc
 208              	.LFE1207:
 210 0139 90       		.align 2
 211 013a 660F1F44 		.p2align 4,,15
 211      0000
 213              	_ZZNK12_GLOBAL__N_138TestThrowingTestsAreReportedAsFailures7RunImplEvEN12CrashingTestD2Ev:
 214              	.LFB1209:
 215              		.cfi_startproc
 216 0140 48C70700 		movq	$_ZTVZNK12_GLOBAL__N_138TestThrowingTestsAreReportedAsFailures7RunImplEvE12CrashingTest+16, (
 216      000000
 217 0147 E9000000 		jmp	_ZN8UnitTest4TestD2Ev
 217      00
 218              		.cfi_endproc
 219              	.LFE1209:
 221              		.set	_ZZNK12_GLOBAL__N_138TestThrowingTestsAreReportedAsFailures7RunImplEvEN12CrashingTestD1Ev,_ZZ
 222              		.align 2
 223 014c 0F1F4000 		.p2align 4,,15
 225              	_ZZNK12_GLOBAL__N_138TestThrowingTestsAreReportedAsFailures7RunImplEvEN12CrashingTestD0Ev:
 226              	.LFB1211:
 227              		.cfi_startproc
 228 0150 53       		pushq	%rbx
 229              		.cfi_def_cfa_offset 16
 230              		.cfi_offset 3, -16
 231 0151 4889FB   		movq	%rdi, %rbx
 232 0154 48C70700 		movq	$_ZTVZNK12_GLOBAL__N_138TestThrowingTestsAreReportedAsFailures7RunImplEvE12CrashingTest+16, (
 232      000000
 233 015b E8000000 		call	_ZN8UnitTest4TestD2Ev
 233      00
 234 0160 4889DF   		movq	%rbx, %rdi
 235 0163 5B       		popq	%rbx
 236              		.cfi_def_cfa_offset 8
 237 0164 E9000000 		jmp	_ZdlPv
 237      00
 238              		.cfi_endproc
 239              	.LFE1211:
 241 0169 90       		.align 2
 242 016a 660F1F44 		.p2align 4,,15
 242      0000
 244              	_ZN12_GLOBAL__N_126TestFailingTestHasFailuresD2Ev:
 245              	.LFB1213:
 246              		.cfi_startproc
 247 0170 48C70700 		movq	$_ZTVN12_GLOBAL__N_126TestFailingTestHasFailuresE+16, (%rdi)
 247      000000
 248 0177 E9000000 		jmp	_ZN8UnitTest4TestD2Ev
 248      00
 249              		.cfi_endproc
 250              	.LFE1213:
 252              		.set	_ZN12_GLOBAL__N_126TestFailingTestHasFailuresD1Ev,_ZN12_GLOBAL__N_126TestFailingTestHasFailur
 253              		.align 2
 254 017c 0F1F4000 		.p2align 4,,15
 256              	_ZN12_GLOBAL__N_126TestFailingTestHasFailuresD0Ev:
 257              	.LFB1215:
 258              		.cfi_startproc
 259 0180 53       		pushq	%rbx
 260              		.cfi_def_cfa_offset 16
 261              		.cfi_offset 3, -16
 262 0181 4889FB   		movq	%rdi, %rbx
 263 0184 48C70700 		movq	$_ZTVN12_GLOBAL__N_126TestFailingTestHasFailuresE+16, (%rdi)
 263      000000
 264 018b E8000000 		call	_ZN8UnitTest4TestD2Ev
 264      00
 265 0190 4889DF   		movq	%rbx, %rdi
 266 0193 5B       		popq	%rbx
 267              		.cfi_def_cfa_offset 8
 268 0194 E9000000 		jmp	_ZdlPv
 268      00
 269              		.cfi_endproc
 270              	.LFE1215:
 272 0199 90       		.align 2
 273 019a 660F1F44 		.p2align 4,,15
 273      0000
 275              	_ZZNK12_GLOBAL__N_126TestFailingTestHasFailures7RunImplEvEN11FailingTestD2Ev:
 276              	.LFB1217:
 277              		.cfi_startproc
 278 01a0 48C70700 		movq	$_ZTVZNK12_GLOBAL__N_126TestFailingTestHasFailures7RunImplEvE11FailingTest+16, (%rdi)
 278      000000
 279 01a7 E9000000 		jmp	_ZN8UnitTest4TestD2Ev
 279      00
 280              		.cfi_endproc
 281              	.LFE1217:
 283              		.set	_ZZNK12_GLOBAL__N_126TestFailingTestHasFailures7RunImplEvEN11FailingTestD1Ev,_ZZNK12_GLOBAL__
 284              		.align 2
 285 01ac 0F1F4000 		.p2align 4,,15
 287              	_ZZNK12_GLOBAL__N_126TestFailingTestHasFailures7RunImplEvEN11FailingTestD0Ev:
 288              	.LFB1219:
 289              		.cfi_startproc
 290 01b0 53       		pushq	%rbx
 291              		.cfi_def_cfa_offset 16
 292              		.cfi_offset 3, -16
 293 01b1 4889FB   		movq	%rdi, %rbx
 294 01b4 48C70700 		movq	$_ZTVZNK12_GLOBAL__N_126TestFailingTestHasFailures7RunImplEvE11FailingTest+16, (%rdi)
 294      000000
 295 01bb E8000000 		call	_ZN8UnitTest4TestD2Ev
 295      00
 296 01c0 4889DF   		movq	%rbx, %rdi
 297 01c3 5B       		popq	%rbx
 298              		.cfi_def_cfa_offset 8
 299 01c4 E9000000 		jmp	_ZdlPv
 299      00
 300              		.cfi_endproc
 301              	.LFE1219:
 303 01c9 90       		.align 2
 304 01ca 660F1F44 		.p2align 4,,15
 304      0000
 306              	_ZN12_GLOBAL__N_128TestPassingTestHasNoFailuresD2Ev:
 307              	.LFB1221:
 308              		.cfi_startproc
 309 01d0 48C70700 		movq	$_ZTVN12_GLOBAL__N_128TestPassingTestHasNoFailuresE+16, (%rdi)
 309      000000
 310 01d7 E9000000 		jmp	_ZN8UnitTest4TestD2Ev
 310      00
 311              		.cfi_endproc
 312              	.LFE1221:
 314              		.set	_ZN12_GLOBAL__N_128TestPassingTestHasNoFailuresD1Ev,_ZN12_GLOBAL__N_128TestPassingTestHasNoFa
 315              		.align 2
 316 01dc 0F1F4000 		.p2align 4,,15
 318              	_ZN12_GLOBAL__N_128TestPassingTestHasNoFailuresD0Ev:
 319              	.LFB1223:
 320              		.cfi_startproc
 321 01e0 53       		pushq	%rbx
 322              		.cfi_def_cfa_offset 16
 323              		.cfi_offset 3, -16
 324 01e1 4889FB   		movq	%rdi, %rbx
 325 01e4 48C70700 		movq	$_ZTVN12_GLOBAL__N_128TestPassingTestHasNoFailuresE+16, (%rdi)
 325      000000
 326 01eb E8000000 		call	_ZN8UnitTest4TestD2Ev
 326      00
 327 01f0 4889DF   		movq	%rbx, %rdi
 328 01f3 5B       		popq	%rbx
 329              		.cfi_def_cfa_offset 8
 330 01f4 E9000000 		jmp	_ZdlPv
 330      00
 331              		.cfi_endproc
 332              	.LFE1223:
 334 01f9 90       		.align 2
 335 01fa 660F1F44 		.p2align 4,,15
 335      0000
 337              	_ZZNK12_GLOBAL__N_128TestPassingTestHasNoFailures7RunImplEvEN11PassingTestD2Ev:
 338              	.LFB1225:
 339              		.cfi_startproc
 340 0200 48C70700 		movq	$_ZTVZNK12_GLOBAL__N_128TestPassingTestHasNoFailures7RunImplEvE11PassingTest+16, (%rdi)
 340      000000
 341 0207 E9000000 		jmp	_ZN8UnitTest4TestD2Ev
 341      00
 342              		.cfi_endproc
 343              	.LFE1225:
 345              		.set	_ZZNK12_GLOBAL__N_128TestPassingTestHasNoFailures7RunImplEvEN11PassingTestD1Ev,_ZZNK12_GLOBAL
 346              		.align 2
 347 020c 0F1F4000 		.p2align 4,,15
 349              	_ZZNK12_GLOBAL__N_128TestPassingTestHasNoFailures7RunImplEvEN11PassingTestD0Ev:
 350              	.LFB1227:
 351              		.cfi_startproc
 352 0210 53       		pushq	%rbx
 353              		.cfi_def_cfa_offset 16
 354              		.cfi_offset 3, -16
 355 0211 4889FB   		movq	%rdi, %rbx
 356 0214 48C70700 		movq	$_ZTVZNK12_GLOBAL__N_128TestPassingTestHasNoFailures7RunImplEvE11PassingTest+16, (%rdi)
 356      000000
 357 021b E8000000 		call	_ZN8UnitTest4TestD2Ev
 357      00
 358 0220 4889DF   		movq	%rbx, %rdi
 359 0223 5B       		popq	%rbx
 360              		.cfi_def_cfa_offset 8
 361 0224 E9000000 		jmp	_ZdlPv
 361      00
 362              		.cfi_endproc
 363              	.LFE1227:
 365              		.section	.rodata.str1.1,"aMS",@progbits,1
 366              	.LC0:
 367 0000 66616C73 		.string	"false"
 367      6500
 368              		.section	.rodata.str1.8,"aMS",@progbits,1
 369              		.align 8
 370              	.LC1:
 371 0000 556E6861 		.string	"Unhandled exception in CHECK(false)"
 371      6E646C65 
 371      64206578 
 371      63657074 
 371      696F6E20 
 372              		.text
 373 0229 90       		.align 2
 374 022a 660F1F44 		.p2align 4,,15
 374      0000
 376              	_ZZNK12_GLOBAL__N_126TestFailingTestHasFailures7RunImplEvENK11FailingTest7RunImplEv:
 377              	.LFB1073:
 378              		.cfi_startproc
 379              		.cfi_personality 0x3,__gxx_personality_v0
 380              		.cfi_lsda 0x3,.LLSDA1073
 381 0230 53       		pushq	%rbx
 382              		.cfi_def_cfa_offset 16
 383              		.cfi_offset 3, -16
 384 0231 4883EC20 		subq	$32, %rsp
 385              		.cfi_def_cfa_offset 48
 386              	.LEHB0:
 387 0235 E8000000 		call	_ZN8UnitTest11CurrentTest7DetailsEv
 387      00
 388 023a 488B30   		movq	(%rax), %rsi
 389 023d BA280000 		movl	$40, %edx
 389      00
 390 0242 4889E7   		movq	%rsp, %rdi
 391 0245 E8000000 		call	_ZN8UnitTest11TestDetailsC1ERKS0_i
 391      00
 392 024a E8000000 		call	_ZN8UnitTest11CurrentTest7ResultsEv
 392      00
 393 024f 488B38   		movq	(%rax), %rdi
 394 0252 BA000000 		movl	$.LC0, %edx
 394      00
 395 0257 4889E6   		movq	%rsp, %rsi
 396 025a E8000000 		call	_ZN8UnitTest11TestResults13OnTestFailureERKNS_11TestDetailsEPKc
 396      00
 397              	.LEHE0:
 398              	.L36:
 399 025f 4883C420 		addq	$32, %rsp
 400              		.cfi_remember_state
 401              		.cfi_def_cfa_offset 16
 402 0263 5B       		popq	%rbx
 403              		.cfi_def_cfa_offset 8
 404 0264 C3       		ret
 405              	.L40:
 406              		.cfi_restore_state
 407 0265 4889C7   		movq	%rax, %rdi
 408 0268 E8000000 		call	__cxa_begin_catch
 408      00
 409              	.LEHB1:
 410 026d E8000000 		call	_ZN8UnitTest11CurrentTest7DetailsEv
 410      00
 411 0272 488B30   		movq	(%rax), %rsi
 412 0275 BA280000 		movl	$40, %edx
 412      00
 413 027a 4889E7   		movq	%rsp, %rdi
 414 027d E8000000 		call	_ZN8UnitTest11TestDetailsC1ERKS0_i
 414      00
 415 0282 E8000000 		call	_ZN8UnitTest11CurrentTest7ResultsEv
 415      00
 416 0287 488B38   		movq	(%rax), %rdi
 417 028a BA000000 		movl	$.LC1, %edx
 417      00
 418 028f 4889E6   		movq	%rsp, %rsi
 419 0292 E8000000 		call	_ZN8UnitTest11TestResults13OnTestFailureERKNS_11TestDetailsEPKc
 419      00
 420              	.LEHE1:
 421              	.LEHB2:
 422 0297 E8000000 		call	__cxa_end_catch
 422      00
 423              	.LEHE2:
 424 029c EBC1     		jmp	.L36
 425              	.L41:
 426 029e 4889C3   		movq	%rax, %rbx
 427              		.p2align 4,,5
 428 02a1 E8000000 		call	__cxa_end_catch
 428      00
 429 02a6 4889DF   		movq	%rbx, %rdi
 430              	.LEHB3:
 431 02a9 E8000000 		call	_Unwind_Resume
 431      00
 432              	.LEHE3:
 433              		.cfi_endproc
 434              	.LFE1073:
 435              		.globl	__gxx_personality_v0
 436              		.section	.gcc_except_table,"a",@progbits
 437              		.align 4
 438              	.LLSDA1073:
 439 0000 FF       		.byte	0xff
 440 0001 03       		.byte	0x3
 441 0002 19       		.uleb128 .LLSDATT1073-.LLSDATTD1073
 442              	.LLSDATTD1073:
 443 0003 01       		.byte	0x1
 444 0004 10       		.uleb128 .LLSDACSE1073-.LLSDACSB1073
 445              	.LLSDACSB1073:
 446 0005 05       		.uleb128 .LEHB0-.LFB1073
 447 0006 2A       		.uleb128 .LEHE0-.LEHB0
 448 0007 35       		.uleb128 .L40-.LFB1073
 449 0008 01       		.uleb128 0x1
 450 0009 3D       		.uleb128 .LEHB1-.LFB1073
 451 000a 2A       		.uleb128 .LEHE1-.LEHB1
 452 000b 6E       		.uleb128 .L41-.LFB1073
 453 000c 00       		.uleb128 0
 454 000d 67       		.uleb128 .LEHB2-.LFB1073
 455 000e 05       		.uleb128 .LEHE2-.LEHB2
 456 000f 00       		.uleb128 0
 457 0010 00       		.uleb128 0
 458 0011 79       		.uleb128 .LEHB3-.LFB1073
 459 0012 05       		.uleb128 .LEHE3-.LEHB3
 460 0013 00       		.uleb128 0
 461 0014 00       		.uleb128 0
 462              	.LLSDACSE1073:
 463 0015 01       		.byte	0x1
 464 0016 00       		.byte	0
 465 0017 00       		.align 4
 466 0018 00000000 		.long	0
 467              	
 468              	.LLSDATT1073:
 469              		.text
 471              		.section	.rodata.str1.1
 472              	.LC2:
 473 0006 426C6168 		.string	"Blah"
 473      00
 474              		.text
 475              		.align 2
 476 02ae 6690     		.p2align 4,,15
 478              	_ZZNK12_GLOBAL__N_138TestThrowingTestsAreReportedAsFailures7RunImplEvENK12CrashingTest7RunImplEv:
 479              	.LFB1081:
 480              		.cfi_startproc
 481 02b0 BF080000 		movl	$8, %edi
 481      00
 482 02b5 4883EC08 		subq	$8, %rsp
 483              		.cfi_def_cfa_offset 16
 484 02b9 E8000000 		call	__cxa_allocate_exception
 484      00
 485 02be 31D2     		xorl	%edx, %edx
 486 02c0 48C70000 		movq	$.LC2, (%rax)
 486      000000
 487 02c7 BE000000 		movl	$_ZTIPKc, %esi
 487      00
 488 02cc 4889C7   		movq	%rax, %rdi
 489 02cf E8000000 		call	__cxa_throw
 489      00
 490              		.cfi_endproc
 491              	.LFE1081:
 493              		.section	.text.unlikely,"ax",@progbits
 495              	_ZStlsISt11char_traitsIcEERSt13basic_ostreamIcT_ES5_PKc.part.1:
 496              	.LFB1231:
 497              		.cfi_startproc
 498 0000 50       		pushq	%rax
 499              		.cfi_def_cfa_offset 16
 500 0001 488B07   		movq	(%rdi), %rax
 501 0004 480378E8 		addq	-24(%rax), %rdi
 502 0008 8B7720   		movl	32(%rdi), %esi
 503 000b 83CE01   		orl	$1, %esi
 504 000e E8000000 		call	_ZNSt9basic_iosIcSt11char_traitsIcEE5clearESt12_Ios_Iostate
 504      00
 505 0013 5A       		popq	%rdx
 506              		.cfi_def_cfa_offset 8
 507 0014 C3       		ret
 508              		.cfi_endproc
 509              	.LFE1231:
 511              		.section	.text._ZNSt15basic_stringbufIcSt11char_traitsIcESaIcEED2Ev,"axG",@progbits,_ZNSt15basic_s
 512              		.align 2
 513              		.p2align 4,,15
 514              		.weak	_ZNSt15basic_stringbufIcSt11char_traitsIcESaIcEED2Ev
 516              	_ZNSt15basic_stringbufIcSt11char_traitsIcESaIcEED2Ev:
 517              	.LFB1112:
 518              		.cfi_startproc
 519 0000 53       		pushq	%rbx
 520              		.cfi_def_cfa_offset 16
 521              		.cfi_offset 3, -16
 522 0001 4889FB   		movq	%rdi, %rbx
 523 0004 4883EC10 		subq	$16, %rsp
 524              		.cfi_def_cfa_offset 32
 525 0008 488B4748 		movq	72(%rdi), %rax
 526 000c 48C70700 		movq	$_ZTVSt15basic_stringbufIcSt11char_traitsIcESaIcEE+16, (%rdi)
 526      000000
 527 0013 488D78E8 		leaq	-24(%rax), %rdi
 528 0017 4881FF00 		cmpq	$_ZNSs4_Rep20_S_empty_rep_storageE, %rdi
 528      000000
 529 001e 7516     		jne	.L55
 530              	.L50:
 531 0020 488D7B38 		leaq	56(%rbx), %rdi
 532 0024 48C70300 		movq	$_ZTVSt15basic_streambufIcSt11char_traitsIcEE+16, (%rbx)
 532      000000
 533 002b E8000000 		call	_ZNSt6localeD1Ev
 533      00
 534 0030 4883C410 		addq	$16, %rsp
 535              		.cfi_remember_state
 536              		.cfi_def_cfa_offset 16
 537 0034 5B       		popq	%rbx
 538              		.cfi_def_cfa_offset 8
 539 0035 C3       		ret
 540              	.L55:
 541              		.cfi_restore_state
 542 0036 B9000000 		movl	$_ZL28__gthrw___pthread_key_createPjPFvPvE, %ecx
 542      00
 543 003b 488D5710 		leaq	16(%rdi), %rdx
 544 003f 4885C9   		testq	%rcx, %rcx
 545 0042 7417     		je	.L51
 546 0044 83C8FF   		orl	$-1, %eax
 547 0047 F00FC102 		lock xaddl	%eax, (%rdx)
 548              	.L52:
 549 004b 85C0     		testl	%eax, %eax
 550 004d 7FD1     		jg	.L50
 551 004f 488D7424 		leaq	15(%rsp), %rsi
 551      0F
 552 0054 E8000000 		call	_ZNSs4_Rep10_M_destroyERKSaIcE
 552      00
 553 0059 EBC5     		jmp	.L50
 554              	.L51:
 555 005b 8B50F8   		movl	-8(%rax), %edx
 556 005e 8D4AFF   		leal	-1(%rdx), %ecx
 557 0061 8948F8   		movl	%ecx, -8(%rax)
 558 0064 89D0     		movl	%edx, %eax
 559 0066 EBE3     		jmp	.L52
 560              		.cfi_endproc
 561              	.LFE1112:
 563              		.weak	_ZNSt15basic_stringbufIcSt11char_traitsIcESaIcEED1Ev
 564              		.set	_ZNSt15basic_stringbufIcSt11char_traitsIcESaIcEED1Ev,_ZNSt15basic_stringbufIcSt11char_traitsI
 565              		.section	.text._ZNSt15basic_stringbufIcSt11char_traitsIcESaIcEED0Ev,"axG",@progbits,_ZNSt15basic_s
 566              		.align 2
 567              		.p2align 4,,15
 568              		.weak	_ZNSt15basic_stringbufIcSt11char_traitsIcESaIcEED0Ev
 570              	_ZNSt15basic_stringbufIcSt11char_traitsIcESaIcEED0Ev:
 571              	.LFB1114:
 572              		.cfi_startproc
 573 0000 53       		pushq	%rbx
 574              		.cfi_def_cfa_offset 16
 575              		.cfi_offset 3, -16
 576 0001 4889FB   		movq	%rdi, %rbx
 577 0004 4883EC10 		subq	$16, %rsp
 578              		.cfi_def_cfa_offset 32
 579 0008 488B4748 		movq	72(%rdi), %rax
 580 000c 48C70700 		movq	$_ZTVSt15basic_stringbufIcSt11char_traitsIcESaIcEE+16, (%rdi)
 580      000000
 581 0013 488D78E8 		leaq	-24(%rax), %rdi
 582 0017 4881FF00 		cmpq	$_ZNSs4_Rep20_S_empty_rep_storageE, %rdi
 582      000000
 583 001e 751E     		jne	.L63
 584              	.L58:
 585 0020 488D7B38 		leaq	56(%rbx), %rdi
 586 0024 48C70300 		movq	$_ZTVSt15basic_streambufIcSt11char_traitsIcEE+16, (%rbx)
 586      000000
 587 002b E8000000 		call	_ZNSt6localeD1Ev
 587      00
 588 0030 4889DF   		movq	%rbx, %rdi
 589 0033 E8000000 		call	_ZdlPv
 589      00
 590 0038 4883C410 		addq	$16, %rsp
 591              		.cfi_remember_state
 592              		.cfi_def_cfa_offset 16
 593 003c 5B       		popq	%rbx
 594              		.cfi_def_cfa_offset 8
 595 003d C3       		ret
 596              	.L63:
 597              		.cfi_restore_state
 598 003e B9000000 		movl	$_ZL28__gthrw___pthread_key_createPjPFvPvE, %ecx
 598      00
 599 0043 488D5710 		leaq	16(%rdi), %rdx
 600 0047 4885C9   		testq	%rcx, %rcx
 601 004a 7417     		je	.L59
 602 004c 83C8FF   		orl	$-1, %eax
 603 004f F00FC102 		lock xaddl	%eax, (%rdx)
 604              	.L60:
 605 0053 85C0     		testl	%eax, %eax
 606 0055 7FC9     		jg	.L58
 607 0057 488D7424 		leaq	15(%rsp), %rsi
 607      0F
 608 005c E8000000 		call	_ZNSs4_Rep10_M_destroyERKSaIcE
 608      00
 609 0061 EBBD     		jmp	.L58
 610              	.L59:
 611 0063 8B50F8   		movl	-8(%rax), %edx
 612 0066 8D4AFF   		leal	-1(%rdx), %ecx
 613 0069 8948F8   		movl	%ecx, -8(%rax)
 614 006c 89D0     		movl	%edx, %eax
 615 006e EBE3     		jmp	.L60
 616              		.cfi_endproc
 617              	.LFE1114:
 619              		.section	.text._ZN8UnitTest15MemoryOutStreamD1Ev,"axG",@progbits,_ZN8UnitTest15MemoryOutStreamD1Ev
 620              		.align 2
 621              		.p2align 4,,15
 622              		.weak	_ZN8UnitTest15MemoryOutStreamD1Ev
 624              	_ZN8UnitTest15MemoryOutStreamD1Ev:
 625              	.LFB1134:
 626              		.cfi_startproc
 627 0000 53       		pushq	%rbx
 628              		.cfi_def_cfa_offset 16
 629              		.cfi_offset 3, -16
 630 0001 4889FB   		movq	%rdi, %rbx
 631 0004 4883EC10 		subq	$16, %rsp
 632              		.cfi_def_cfa_offset 32
 633 0008 488B4758 		movq	88(%rdi), %rax
 634 000c 48C70700 		movq	$_ZTVN8UnitTest15MemoryOutStreamE+24, (%rdi)
 634      000000
 635 0013 48C74760 		movq	$_ZTVN8UnitTest15MemoryOutStreamE+64, 96(%rdi)
 635      00000000 
 636 001b 488D78E8 		leaq	-24(%rax), %rdi
 637 001f 4881FF00 		cmpq	$_ZNSs4_Rep20_S_empty_rep_storageE, %rdi
 637      000000
 638 0026 7557     		jne	.L76
 639              	.L66:
 640 0028 488B4350 		movq	80(%rbx), %rax
 641 002c 48C70300 		movq	$_ZTCN8UnitTest15MemoryOutStreamE0_St19basic_ostringstreamIcSt11char_traitsIcESaIcEE+24, (%rb
 641      000000
 642 0033 48C74360 		movq	$_ZTCN8UnitTest15MemoryOutStreamE0_St19basic_ostringstreamIcSt11char_traitsIcESaIcEE+64, 96(%
 642      00000000 
 643 003b 48C74308 		movq	$_ZTVSt15basic_stringbufIcSt11char_traitsIcESaIcEE+16, 8(%rbx)
 643      00000000 
 644 0043 488D78E8 		leaq	-24(%rax), %rdi
 645 0047 4881FF00 		cmpq	$_ZNSs4_Rep20_S_empty_rep_storageE, %rdi
 645      000000
 646 004e 7554     		jne	.L77
 647              	.L71:
 648 0050 488D7B40 		leaq	64(%rbx), %rdi
 649 0054 48C74308 		movq	$_ZTVSt15basic_streambufIcSt11char_traitsIcEE+16, 8(%rbx)
 649      00000000 
 650 005c E8000000 		call	_ZNSt6localeD1Ev
 650      00
 651 0061 488D7B60 		leaq	96(%rbx), %rdi
 652 0065 48C70300 		movq	$_ZTCN8UnitTest15MemoryOutStreamE0_So+24, (%rbx)
 652      000000
 653 006c 48C74360 		movq	$_ZTVSt9basic_iosIcSt11char_traitsIcEE+16, 96(%rbx)
 653      00000000 
 654 0074 E8000000 		call	_ZNSt8ios_baseD2Ev
 654      00
 655 0079 4883C410 		addq	$16, %rsp
 656              		.cfi_remember_state
 657              		.cfi_def_cfa_offset 16
 658 007d 5B       		popq	%rbx
 659              		.cfi_def_cfa_offset 8
 660 007e C3       		ret
 661              	.L76:
 662              		.cfi_restore_state
 663 007f B9000000 		movl	$_ZL28__gthrw___pthread_key_createPjPFvPvE, %ecx
 663      00
 664 0084 488D5710 		leaq	16(%rdi), %rdx
 665 0088 4885C9   		testq	%rcx, %rcx
 666 008b 743C     		je	.L67
 667 008d 83C8FF   		orl	$-1, %eax
 668 0090 F00FC102 		lock xaddl	%eax, (%rdx)
 669              	.L68:
 670 0094 85C0     		testl	%eax, %eax
 671 0096 7F90     		jg	.L66
 672 0098 488D7424 		leaq	15(%rsp), %rsi
 672      0F
 673 009d E8000000 		call	_ZNSs4_Rep10_M_destroyERKSaIcE
 673      00
 674 00a2 EB84     		jmp	.L66
 675              	.L77:
 676 00a4 B9000000 		movl	$_ZL28__gthrw___pthread_key_createPjPFvPvE, %ecx
 676      00
 677 00a9 488D5710 		leaq	16(%rdi), %rdx
 678 00ad 4885C9   		testq	%rcx, %rcx
 679 00b0 7424     		je	.L72
 680 00b2 83C8FF   		orl	$-1, %eax
 681 00b5 F00FC102 		lock xaddl	%eax, (%rdx)
 682              	.L73:
 683 00b9 85C0     		testl	%eax, %eax
 684 00bb 7F93     		jg	.L71
 685 00bd 488D7424 		leaq	15(%rsp), %rsi
 685      0F
 686 00c2 E8000000 		call	_ZNSs4_Rep10_M_destroyERKSaIcE
 686      00
 687 00c7 EB87     		jmp	.L71
 688              	.L67:
 689 00c9 8B50F8   		movl	-8(%rax), %edx
 690 00cc 8D4AFF   		leal	-1(%rdx), %ecx
 691 00cf 8948F8   		movl	%ecx, -8(%rax)
 692 00d2 89D0     		movl	%edx, %eax
 693 00d4 EBBE     		jmp	.L68
 694              	.L72:
 695 00d6 8B50F8   		movl	-8(%rax), %edx
 696 00d9 8D4AFF   		leal	-1(%rdx), %ecx
 697 00dc 8948F8   		movl	%ecx, -8(%rax)
 698 00df 89D0     		movl	%edx, %eax
 699 00e1 EBD6     		jmp	.L73
 700              		.cfi_endproc
 701              	.LFE1134:
 703              		.set	.LTHUNK0,_ZN8UnitTest15MemoryOutStreamD1Ev
 704 00e3 66666666 		.p2align 4,,15
 704      2E0F1F84 
 704      00000000 
 704      00
 705              		.weak	_ZTv0_n24_N8UnitTest15MemoryOutStreamD1Ev
 707              	_ZTv0_n24_N8UnitTest15MemoryOutStreamD1Ev:
 708              	.LFB1239:
 709              		.cfi_startproc
 710 00f0 4C8B17   		movq	(%rdi), %r10
 711 00f3 49037AE8 		addq	-24(%r10), %rdi
 712 00f7 E904FFFF 		jmp	.LTHUNK0
 712      FF
 713              		.cfi_endproc
 714              	.LFE1239:
 716              		.section	.text._ZN8UnitTest15MemoryOutStreamD0Ev,"axG",@progbits,_ZN8UnitTest15MemoryOutStreamD0Ev
 717              		.align 2
 718              		.p2align 4,,15
 719              		.weak	_ZN8UnitTest15MemoryOutStreamD0Ev
 721              	_ZN8UnitTest15MemoryOutStreamD0Ev:
 722              	.LFB1135:
 723              		.cfi_startproc
 724 0000 53       		pushq	%rbx
 725              		.cfi_def_cfa_offset 16
 726              		.cfi_offset 3, -16
 727 0001 4889FB   		movq	%rdi, %rbx
 728 0004 4883EC10 		subq	$16, %rsp
 729              		.cfi_def_cfa_offset 32
 730 0008 488B4758 		movq	88(%rdi), %rax
 731 000c 48C70700 		movq	$_ZTVN8UnitTest15MemoryOutStreamE+24, (%rdi)
 731      000000
 732 0013 48C74760 		movq	$_ZTVN8UnitTest15MemoryOutStreamE+64, 96(%rdi)
 732      00000000 
 733 001b 488D78E8 		leaq	-24(%rax), %rdi
 734 001f 4881FF00 		cmpq	$_ZNSs4_Rep20_S_empty_rep_storageE, %rdi
 734      000000
 735 0026 755F     		jne	.L90
 736              	.L80:
 737 0028 488B4350 		movq	80(%rbx), %rax
 738 002c 48C70300 		movq	$_ZTCN8UnitTest15MemoryOutStreamE0_St19basic_ostringstreamIcSt11char_traitsIcESaIcEE+24, (%rb
 738      000000
 739 0033 48C74360 		movq	$_ZTCN8UnitTest15MemoryOutStreamE0_St19basic_ostringstreamIcSt11char_traitsIcESaIcEE+64, 96(%
 739      00000000 
 740 003b 48C74308 		movq	$_ZTVSt15basic_stringbufIcSt11char_traitsIcESaIcEE+16, 8(%rbx)
 740      00000000 
 741 0043 488D78E8 		leaq	-24(%rax), %rdi
 742 0047 4881FF00 		cmpq	$_ZNSs4_Rep20_S_empty_rep_storageE, %rdi
 742      000000
 743 004e 755F     		jne	.L91
 744              	.L85:
 745 0050 488D7B40 		leaq	64(%rbx), %rdi
 746 0054 48C74308 		movq	$_ZTVSt15basic_streambufIcSt11char_traitsIcEE+16, 8(%rbx)
 746      00000000 
 747 005c E8000000 		call	_ZNSt6localeD1Ev
 747      00
 748 0061 488D7B60 		leaq	96(%rbx), %rdi
 749 0065 48C70300 		movq	$_ZTCN8UnitTest15MemoryOutStreamE0_So+24, (%rbx)
 749      000000
 750 006c 48C74360 		movq	$_ZTVSt9basic_iosIcSt11char_traitsIcEE+16, 96(%rbx)
 750      00000000 
 751 0074 E8000000 		call	_ZNSt8ios_baseD2Ev
 751      00
 752 0079 4889DF   		movq	%rbx, %rdi
 753 007c E8000000 		call	_ZdlPv
 753      00
 754 0081 4883C410 		addq	$16, %rsp
 755              		.cfi_remember_state
 756              		.cfi_def_cfa_offset 16
 757 0085 5B       		popq	%rbx
 758              		.cfi_def_cfa_offset 8
 759 0086 C3       		ret
 760              	.L90:
 761              		.cfi_restore_state
 762 0087 B9000000 		movl	$_ZL28__gthrw___pthread_key_createPjPFvPvE, %ecx
 762      00
 763 008c 488D5710 		leaq	16(%rdi), %rdx
 764 0090 4885C9   		testq	%rcx, %rcx
 765 0093 7442     		je	.L81
 766 0095 83C8FF   		orl	$-1, %eax
 767 0098 F00FC102 		lock xaddl	%eax, (%rdx)
 768              	.L82:
 769 009c 85C0     		testl	%eax, %eax
 770 009e 7F88     		jg	.L80
 771 00a0 488D7424 		leaq	15(%rsp), %rsi
 771      0F
 772 00a5 E8000000 		call	_ZNSs4_Rep10_M_destroyERKSaIcE
 772      00
 773 00aa E979FFFF 		jmp	.L80
 773      FF
 774              	.L91:
 775 00af B9000000 		movl	$_ZL28__gthrw___pthread_key_createPjPFvPvE, %ecx
 775      00
 776 00b4 488D5710 		leaq	16(%rdi), %rdx
 777 00b8 4885C9   		testq	%rcx, %rcx
 778 00bb 7427     		je	.L86
 779 00bd 83C8FF   		orl	$-1, %eax
 780 00c0 F00FC102 		lock xaddl	%eax, (%rdx)
 781              	.L87:
 782 00c4 85C0     		testl	%eax, %eax
 783 00c6 7F88     		jg	.L85
 784 00c8 488D7424 		leaq	15(%rsp), %rsi
 784      0F
 785 00cd E8000000 		call	_ZNSs4_Rep10_M_destroyERKSaIcE
 785      00
 786 00d2 E979FFFF 		jmp	.L85
 786      FF
 787              	.L81:
 788 00d7 8B50F8   		movl	-8(%rax), %edx
 789 00da 8D4AFF   		leal	-1(%rdx), %ecx
 790 00dd 8948F8   		movl	%ecx, -8(%rax)
 791 00e0 89D0     		movl	%edx, %eax
 792 00e2 EBB8     		jmp	.L82
 793              	.L86:
 794 00e4 8B50F8   		movl	-8(%rax), %edx
 795 00e7 8D4AFF   		leal	-1(%rdx), %ecx
 796 00ea 8948F8   		movl	%ecx, -8(%rax)
 797 00ed 89D0     		movl	%edx, %eax
 798 00ef EBD3     		jmp	.L87
 799              		.cfi_endproc
 800              	.LFE1135:
 802              		.set	.LTHUNK1,_ZN8UnitTest15MemoryOutStreamD0Ev
 803 00f1 66666666 		.p2align 4,,15
 803      66662E0F 
 803      1F840000 
 803      000000
 804              		.weak	_ZTv0_n24_N8UnitTest15MemoryOutStreamD0Ev
 806              	_ZTv0_n24_N8UnitTest15MemoryOutStreamD0Ev:
 807              	.LFB1240:
 808              		.cfi_startproc
 809 0100 4C8B17   		movq	(%rdi), %r10
 810 0103 49037AE8 		addq	-24(%r10), %rdi
 811 0107 E9F4FEFF 		jmp	.LTHUNK1
 811      FF
 812              		.cfi_endproc
 813              	.LFE1240:
 815              		.section	.text._ZN17ScopedCurrentTestD2Ev,"axG",@progbits,_ZN17ScopedCurrentTestD5Ev,comdat
 816              		.align 2
 817              		.p2align 4,,15
 818              		.weak	_ZN17ScopedCurrentTestD2Ev
 820              	_ZN17ScopedCurrentTestD2Ev:
 821              	.LFB1056:
 822              		.cfi_startproc
 823 0000 53       		pushq	%rbx
 824              		.cfi_def_cfa_offset 16
 825              		.cfi_offset 3, -16
 826 0001 4889FB   		movq	%rdi, %rbx
 827 0004 E8000000 		call	_ZN8UnitTest11CurrentTest7ResultsEv
 827      00
 828 0009 488B13   		movq	(%rbx), %rdx
 829 000c 488910   		movq	%rdx, (%rax)
 830 000f E8000000 		call	_ZN8UnitTest11CurrentTest7DetailsEv
 830      00
 831 0014 488B5308 		movq	8(%rbx), %rdx
 832 0018 488910   		movq	%rdx, (%rax)
 833 001b 5B       		popq	%rbx
 834              		.cfi_def_cfa_offset 8
 835 001c C3       		ret
 836              		.cfi_endproc
 837              	.LFE1056:
 839              		.weak	_ZN17ScopedCurrentTestD1Ev
 840              		.set	_ZN17ScopedCurrentTestD1Ev,_ZN17ScopedCurrentTestD2Ev
 841              		.section	.rodata.str1.1
 842              	.LC3:
 843 000b 45787065 		.string	"Expected "
 843      63746564 
 843      2000
 844              	.LC4:
 845 0015 20627574 		.string	" but was "
 845      20776173 
 845      2000
 846              		.section	.text._ZN8UnitTest10CheckEqualIiiEEvRNS_11TestResultsERKT_RKT0_RKNS_11TestDetailsE,"axG",
 847              		.p2align 4,,15
 848              		.weak	_ZN8UnitTest10CheckEqualIiiEEvRNS_11TestResultsERKT_RKT0_RKNS_11TestDetailsE
 850              	_ZN8UnitTest10CheckEqualIiiEEvRNS_11TestResultsERKT_RKT0_RKNS_11TestDetailsE:
 851              	.LFB1131:
 852              		.cfi_startproc
 853              		.cfi_personality 0x3,__gxx_personality_v0
 854              		.cfi_lsda 0x3,.LLSDA1131
 855 0000 4156     		pushq	%r14
 856              		.cfi_def_cfa_offset 16
 857              		.cfi_offset 14, -16
 858 0002 4155     		pushq	%r13
 859              		.cfi_def_cfa_offset 24
 860              		.cfi_offset 13, -24
 861 0004 4154     		pushq	%r12
 862              		.cfi_def_cfa_offset 32
 863              		.cfi_offset 12, -32
 864 0006 55       		pushq	%rbp
 865              		.cfi_def_cfa_offset 40
 866              		.cfi_offset 6, -40
 867 0007 4889D5   		movq	%rdx, %rbp
 868 000a 53       		pushq	%rbx
 869              		.cfi_def_cfa_offset 48
 870              		.cfi_offset 3, -48
 871 000b 4889F3   		movq	%rsi, %rbx
 872 000e 4881EC80 		subq	$384, %rsp
 872      010000
 873              		.cfi_def_cfa_offset 432
 874 0015 8B02     		movl	(%rdx), %eax
 875 0017 3906     		cmpl	%eax, (%rsi)
 876 0019 0F84FF01 		je	.L94
 876      0000
 877 001f 4C8D6424 		leaq	112(%rsp), %r12
 877      70
 878 0024 4989FD   		movq	%rdi, %r13
 879 0027 4989CE   		movq	%rcx, %r14
 880 002a 4C89E7   		movq	%r12, %rdi
 881 002d E8000000 		call	_ZNSt8ios_baseC2Ev
 881      00
 882 0032 31F6     		xorl	%esi, %esi
 883 0034 4C89E7   		movq	%r12, %rdi
 884 0037 48C78424 		movq	$0, 328(%rsp)
 884      48010000 
 884      00000000 
 885 0043 C6842450 		movb	$0, 336(%rsp)
 885      01000000 
 886 004b C6842451 		movb	$0, 337(%rsp)
 886      01000000 
 887 0053 48C78424 		movq	$0, 344(%rsp)
 887      58010000 
 887      00000000 
 888 005f 48C78424 		movq	$0, 352(%rsp)
 888      60010000 
 888      00000000 
 889 006b 48C78424 		movq	$0, 360(%rsp)
 889      68010000 
 889      00000000 
 890 0077 48C78424 		movq	$0, 368(%rsp)
 890      70010000 
 890      00000000 
 891 0083 48C74424 		movq	$_ZTCN8UnitTest15MemoryOutStreamE0_So+24, 16(%rsp)
 891      10000000 
 891      00
 892 008c 48C74424 		movq	$_ZTCN8UnitTest15MemoryOutStreamE0_So+64, 112(%rsp)
 892      70000000 
 892      00
 893              	.LEHB4:
 894 0095 E8000000 		call	_ZNSt9basic_iosIcSt11char_traitsIcEE4initEPSt15basic_streambufIcS1_E
 894      00
 895              	.LEHE4:
 896 009a 488D7C24 		leaq	80(%rsp), %rdi
 896      50
 897 009f 48C74424 		movq	$_ZTCN8UnitTest15MemoryOutStreamE0_St19basic_ostringstreamIcSt11char_traitsIcESaIcEE+24, 16(%
 897      10000000 
 897      00
 898 00a8 48C74424 		movq	$_ZTCN8UnitTest15MemoryOutStreamE0_St19basic_ostringstreamIcSt11char_traitsIcESaIcEE+64, 112(
 898      70000000 
 898      00
 899 00b1 48C74424 		movq	$_ZTVSt15basic_streambufIcSt11char_traitsIcEE+16, 24(%rsp)
 899      18000000 
 899      00
 900 00ba 48C74424 		movq	$0, 32(%rsp)
 900      20000000 
 900      00
 901 00c3 48C74424 		movq	$0, 40(%rsp)
 901      28000000 
 901      00
 902 00cc 48C74424 		movq	$0, 48(%rsp)
 902      30000000 
 902      00
 903 00d5 48C74424 		movq	$0, 56(%rsp)
 903      38000000 
 903      00
 904 00de 48C74424 		movq	$0, 64(%rsp)
 904      40000000 
 904      00
 905 00e7 48C74424 		movq	$0, 72(%rsp)
 905      48000000 
 905      00
 906 00f0 E8000000 		call	_ZNSt6localeC1Ev
 906      00
 907 00f5 488B4424 		movq	16(%rsp), %rax
 907      10
 908 00fa 488D7C24 		leaq	16(%rsp), %rdi
 908      10
 909 00ff 488D7424 		leaq	24(%rsp), %rsi
 909      18
 910 0104 48C74424 		movq	$_ZTVSt15basic_stringbufIcSt11char_traitsIcESaIcEE+16, 24(%rsp)
 910      18000000 
 910      00
 911 010d C7442458 		movl	$16, 88(%rsp)
 911      10000000 
 912 0115 48C74424 		movq	$_ZNSs4_Rep20_S_empty_rep_storageE+24, 96(%rsp)
 912      60000000 
 912      00
 913 011e 480378E8 		addq	-24(%rax), %rdi
 914              	.LEHB5:
 915 0122 E8000000 		call	_ZNSt9basic_iosIcSt11char_traitsIcEE4initEPSt15basic_streambufIcS1_E
 915      00
 916              	.LEHE5:
 917 0127 488D7C24 		leaq	16(%rsp), %rdi
 917      10
 918 012c BA090000 		movl	$9, %edx
 918      00
 919 0131 BE000000 		movl	$.LC3, %esi
 919      00
 920 0136 48C74424 		movq	$_ZTVN8UnitTest15MemoryOutStreamE+24, 16(%rsp)
 920      10000000 
 920      00
 921 013f 48C74424 		movq	$_ZTVN8UnitTest15MemoryOutStreamE+64, 112(%rsp)
 921      70000000 
 921      00
 922 0148 48C74424 		movq	$_ZNSs4_Rep20_S_empty_rep_storageE+24, 104(%rsp)
 922      68000000 
 922      00
 923 0151 8B6D00   		movl	0(%rbp), %ebp
 924 0154 8B1B     		movl	(%rbx), %ebx
 925              	.LEHB6:
 926 0156 E8000000 		call	_ZSt16__ostream_insertIcSt11char_traitsIcEERSt13basic_ostreamIT_T0_ES6_PKS3_l
 926      00
 927 015b 488D7C24 		leaq	16(%rsp), %rdi
 927      10
 928 0160 89DE     		movl	%ebx, %esi
 929 0162 E8000000 		call	_ZNSolsEi
 929      00
 930 0167 BA090000 		movl	$9, %edx
 930      00
 931 016c BE000000 		movl	$.LC4, %esi
 931      00
 932 0171 4889C7   		movq	%rax, %rdi
 933 0174 4889C3   		movq	%rax, %rbx
 934 0177 E8000000 		call	_ZSt16__ostream_insertIcSt11char_traitsIcEERSt13basic_ostreamIT_T0_ES6_PKS3_l
 934      00
 935 017c 89EE     		movl	%ebp, %esi
 936 017e 4889DF   		movq	%rbx, %rdi
 937 0181 E8000000 		call	_ZNSolsEi
 937      00
 938 0186 488D7C24 		leaq	16(%rsp), %rdi
 938      10
 939 018b E8000000 		call	_ZNK8UnitTest15MemoryOutStream7GetTextEv
 939      00
 940 0190 4889C2   		movq	%rax, %rdx
 941 0193 4C89F6   		movq	%r14, %rsi
 942 0196 4C89EF   		movq	%r13, %rdi
 943 0199 E8000000 		call	_ZN8UnitTest11TestResults13OnTestFailureERKNS_11TestDetailsEPKc
 943      00
 944              	.LEHE6:
 945 019e 488B4424 		movq	104(%rsp), %rax
 945      68
 946 01a3 48C74424 		movq	$_ZTVN8UnitTest15MemoryOutStreamE+24, 16(%rsp)
 946      10000000 
 946      00
 947 01ac 48C74424 		movq	$_ZTVN8UnitTest15MemoryOutStreamE+64, 112(%rsp)
 947      70000000 
 947      00
 948 01b5 488D78E8 		leaq	-24(%rax), %rdi
 949 01b9 4881FF00 		cmpq	$_ZNSs4_Rep20_S_empty_rep_storageE, %rdi
 949      000000
 950 01c0 756C     		jne	.L117
 951              	.L101:
 952 01c2 488B4424 		movq	96(%rsp), %rax
 952      60
 953 01c7 48C74424 		movq	$_ZTCN8UnitTest15MemoryOutStreamE0_St19basic_ostringstreamIcSt11char_traitsIcESaIcEE+24, 16(%
 953      10000000 
 953      00
 954 01d0 48C74424 		movq	$_ZTCN8UnitTest15MemoryOutStreamE0_St19basic_ostringstreamIcSt11char_traitsIcESaIcEE+64, 112(
 954      70000000 
 954      00
 955 01d9 48C74424 		movq	$_ZTVSt15basic_stringbufIcSt11char_traitsIcESaIcEE+16, 24(%rsp)
 955      18000000 
 955      00
 956 01e2 488D78E8 		leaq	-24(%rax), %rdi
 957 01e6 4881FF00 		cmpq	$_ZNSs4_Rep20_S_empty_rep_storageE, %rdi
 957      000000
 958 01ed 756B     		jne	.L118
 959              	.L106:
 960 01ef 488D7C24 		leaq	80(%rsp), %rdi
 960      50
 961 01f4 48C74424 		movq	$_ZTVSt15basic_streambufIcSt11char_traitsIcEE+16, 24(%rsp)
 961      18000000 
 961      00
 962 01fd E8000000 		call	_ZNSt6localeD1Ev
 962      00
 963 0202 488D7C24 		leaq	112(%rsp), %rdi
 963      70
 964 0207 48C74424 		movq	$_ZTCN8UnitTest15MemoryOutStreamE0_So+24, 16(%rsp)
 964      10000000 
 964      00
 965 0210 48C74424 		movq	$_ZTVSt9basic_iosIcSt11char_traitsIcEE+16, 112(%rsp)
 965      70000000 
 965      00
 966              	.LEHB7:
 967 0219 E8000000 		call	_ZNSt8ios_baseD2Ev
 967      00
 968              	.LEHE7:
 969              	.L94:
 970 021e 4881C480 		addq	$384, %rsp
 970      010000
 971              		.cfi_remember_state
 972              		.cfi_def_cfa_offset 48
 973 0225 5B       		popq	%rbx
 974              		.cfi_def_cfa_offset 40
 975 0226 5D       		popq	%rbp
 976              		.cfi_def_cfa_offset 32
 977 0227 415C     		popq	%r12
 978              		.cfi_def_cfa_offset 24
 979 0229 415D     		popq	%r13
 980              		.cfi_def_cfa_offset 16
 981 022b 415E     		popq	%r14
 982              		.cfi_def_cfa_offset 8
 983 022d C3       		ret
 984              	.L117:
 985              		.cfi_restore_state
 986 022e B9000000 		movl	$_ZL28__gthrw___pthread_key_createPjPFvPvE, %ecx
 986      00
 987 0233 488D5710 		leaq	16(%rdi), %rdx
 988 0237 4885C9   		testq	%rcx, %rcx
 989 023a 747D     		je	.L102
 990 023c 83C8FF   		orl	$-1, %eax
 991 023f F00FC102 		lock xaddl	%eax, (%rdx)
 992              	.L103:
 993 0243 85C0     		testl	%eax, %eax
 994 0245 0F8F77FF 		jg	.L101
 994      FFFF
 995 024b 488D7424 		leaq	15(%rsp), %rsi
 995      0F
 996 0250 E8000000 		call	_ZNSs4_Rep10_M_destroyERKSaIcE
 996      00
 997 0255 E968FFFF 		jmp	.L101
 997      FF
 998              	.L118:
 999 025a B9000000 		movl	$_ZL28__gthrw___pthread_key_createPjPFvPvE, %ecx
 999      00
 1000 025f 488D5710 		leaq	16(%rdi), %rdx
 1001 0263 4885C9   		testq	%rcx, %rcx
 1002 0266 7479     		je	.L107
 1003 0268 83C8FF   		orl	$-1, %eax
 1004 026b F00FC102 		lock xaddl	%eax, (%rdx)
 1005              	.L108:
 1006 026f 85C0     		testl	%eax, %eax
 1007 0271 0F8F78FF 		jg	.L106
 1007      FFFF
 1008 0277 488D7424 		leaq	15(%rsp), %rsi
 1008      0F
 1009 027c E8000000 		call	_ZNSs4_Rep10_M_destroyERKSaIcE
 1009      00
 1010 0281 E969FFFF 		jmp	.L106
 1010      FF
 1011              	.L111:
 1012 0286 488D7C24 		leaq	16(%rsp), %rdi
 1012      10
 1013 028b 4889C3   		movq	%rax, %rbx
 1014 028e E8000000 		call	_ZN8UnitTest15MemoryOutStreamD1Ev
 1014      00
 1015 0293 4889DF   		movq	%rbx, %rdi
 1016              	.LEHB8:
 1017 0296 E8000000 		call	_Unwind_Resume
 1017      00
 1018              	.LEHE8:
 1019              	.L112:
 1020 029b 4889C3   		movq	%rax, %rbx
 1021              	.L98:
 1022 029e 488D7C24 		leaq	112(%rsp), %rdi
 1022      70
 1023 02a3 48C74424 		movq	$_ZTVSt9basic_iosIcSt11char_traitsIcEE+16, 112(%rsp)
 1023      70000000 
 1023      00
 1024 02ac E8000000 		call	_ZNSt8ios_baseD2Ev
 1024      00
 1025 02b1 4889DF   		movq	%rbx, %rdi
 1026              	.LEHB9:
 1027 02b4 E8000000 		call	_Unwind_Resume
 1027      00
 1028              	.LEHE9:
 1029              	.L102:
 1030 02b9 8B50F8   		movl	-8(%rax), %edx
 1031 02bc 8D4AFF   		leal	-1(%rdx), %ecx
 1032 02bf 8948F8   		movl	%ecx, -8(%rax)
 1033 02c2 89D0     		movl	%edx, %eax
 1034 02c4 E97AFFFF 		jmp	.L103
 1034      FF
 1035              	.L113:
 1036 02c9 488D7C24 		leaq	24(%rsp), %rdi
 1036      18
 1037 02ce 4889C3   		movq	%rax, %rbx
 1038 02d1 E8000000 		call	_ZNSt15basic_stringbufIcSt11char_traitsIcESaIcEED1Ev
 1038      00
 1039 02d6 48C74424 		movq	$_ZTCN8UnitTest15MemoryOutStreamE0_So+24, 16(%rsp)
 1039      10000000 
 1039      00
 1040 02df EBBD     		jmp	.L98
 1041              	.L107:
 1042 02e1 8B50F8   		movl	-8(%rax), %edx
 1043 02e4 8D4AFF   		leal	-1(%rdx), %ecx
 1044 02e7 8948F8   		movl	%ecx, -8(%rax)
 1045 02ea 89D0     		movl	%edx, %eax
 1046 02ec EB81     		jmp	.L108
 1047              		.cfi_endproc
 1048              	.LFE1131:
 1049              		.section	.gcc_except_table
 1050              	.LLSDA1131:
 1051 001c FF       		.byte	0xff
 1052 001d FF       		.byte	0xff
 1053 001e 01       		.byte	0x1
 1054 001f 21       		.uleb128 .LLSDACSE1131-.LLSDACSB1131
 1055              	.LLSDACSB1131:
 1056 0020 9501     		.uleb128 .LEHB4-.LFB1131
 1057 0022 05       		.uleb128 .LEHE4-.LEHB4
 1058 0023 9B05     		.uleb128 .L112-.LFB1131
 1059 0025 00       		.uleb128 0
 1060 0026 A202     		.uleb128 .LEHB5-.LFB1131
 1061 0028 05       		.uleb128 .LEHE5-.LEHB5
 1062 0029 C905     		.uleb128 .L113-.LFB1131
 1063 002b 00       		.uleb128 0
 1064 002c D602     		.uleb128 .LEHB6-.LFB1131
 1065 002e 48       		.uleb128 .LEHE6-.LEHB6
 1066 002f 8605     		.uleb128 .L111-.LFB1131
 1067 0031 00       		.uleb128 0
 1068 0032 9904     		.uleb128 .LEHB7-.LFB1131
 1069 0034 05       		.uleb128 .LEHE7-.LEHB7
 1070 0035 00       		.uleb128 0
 1071 0036 00       		.uleb128 0
 1072 0037 9605     		.uleb128 .LEHB8-.LFB1131
 1073 0039 05       		.uleb128 .LEHE8-.LEHB8
 1074 003a 00       		.uleb128 0
 1075 003b 00       		.uleb128 0
 1076 003c B405     		.uleb128 .LEHB9-.LFB1131
 1077 003e 05       		.uleb128 .LEHE9-.LEHB9
 1078 003f 00       		.uleb128 0
 1079 0040 00       		.uleb128 0
 1080              	.LLSDACSE1131:
 1081              		.section	.text._ZN8UnitTest10CheckEqualIiiEEvRNS_11TestResultsERKT_RKT0_RKNS_11TestDetailsE,"axG",
 1083              		.section	.rodata.str1.8
 1084 0024 00000000 		.align 8
 1085              	.LC5:
 1086 0028 556E6861 		.string	"Unhandled exception in CHECK_EQUAL(1, results.GetFailureCount())"
 1086      6E646C65 
 1086      64206578 
 1086      63657074 
 1086      696F6E20 
 1087              		.text
 1088              		.align 2
 1089 02d4 6666662E 		.p2align 4,,15
 1089      0F1F8400 
 1089      00000000 
 1091              	_ZNK12_GLOBAL__N_136TestOutOfCoreCHECKMacrosCanFailTests7RunImplEv:
 1092              	.LFB1102:
 1093              		.cfi_startproc
 1094              		.cfi_personality 0x3,__gxx_personality_v0
 1095              		.cfi_lsda 0x3,.LLSDA1102
 1096 02e0 55       		pushq	%rbp
 1097              		.cfi_def_cfa_offset 16
 1098              		.cfi_offset 6, -16
 1099 02e1 31F6     		xorl	%esi, %esi
 1100 02e3 53       		pushq	%rbx
 1101              		.cfi_def_cfa_offset 24
 1102              		.cfi_offset 3, -24
 1103 02e4 4883EC68 		subq	$104, %rsp
 1104              		.cfi_def_cfa_offset 128
 1105 02e8 488D6C24 		leaq	32(%rsp), %rbp
 1105      20
 1106 02ed 4889EF   		movq	%rbp, %rdi
 1107              	.LEHB10:
 1108 02f0 E8000000 		call	_ZN8UnitTest11TestResultsC1EPNS_12TestReporterE
 1108      00
 1109 02f5 E8000000 		call	_ZN8UnitTest11CurrentTest7ResultsEv
 1109      00
 1110 02fa 488B00   		movq	(%rax), %rax
 1111 02fd 48894424 		movq	%rax, 16(%rsp)
 1111      10
 1112 0302 E8000000 		call	_ZN8UnitTest11CurrentTest7DetailsEv
 1112      00
 1113 0307 488B00   		movq	(%rax), %rax
 1114 030a 48894424 		movq	%rax, 24(%rsp)
 1114      18
 1115 030f E8000000 		call	_ZN8UnitTest11CurrentTest7ResultsEv
 1115      00
 1116              	.LEHE10:
 1117 0314 488928   		movq	%rbp, (%rax)
 1118              	.LEHB11:
 1119 0317 E8000000 		call	_ZN8UnitTest11CurrentTest7DetailsEv
 1119      00
 1120 031c 488D5C24 		leaq	64(%rsp), %rbx
 1120      40
 1121 0321 488B30   		movq	(%rax), %rsi
 1122 0324 BA760000 		movl	$118, %edx
 1122      00
 1123 0329 4889DF   		movq	%rbx, %rdi
 1124 032c E8000000 		call	_ZN8UnitTest11TestDetailsC1ERKS0_i
 1124      00
 1125 0331 E8000000 		call	_ZN8UnitTest11CurrentTest7ResultsEv
 1125      00
 1126 0336 488B38   		movq	(%rax), %rdi
 1127 0339 BA000000 		movl	$.LC0, %edx
 1127      00
 1128 033e 4889DE   		movq	%rbx, %rsi
 1129 0341 E8000000 		call	_ZN8UnitTest11TestResults13OnTestFailureERKNS_11TestDetailsEPKc
 1129      00
 1130              	.LEHE11:
 1131              	.L120:
 1132              	.LEHB12:
 1133 0346 E8000000 		call	_ZN8UnitTest11CurrentTest7ResultsEv
 1133      00
 1134 034b 488B5424 		movq	16(%rsp), %rdx
 1134      10
 1135 0350 488910   		movq	%rdx, (%rax)
 1136 0353 E8000000 		call	_ZN8UnitTest11CurrentTest7DetailsEv
 1136      00
 1137              	.LEHE12:
 1138 0358 488B5424 		movq	24(%rsp), %rdx
 1138      18
 1139 035d 488910   		movq	%rdx, (%rax)
 1140              	.LEHB13:
 1141 0360 E8000000 		call	_ZN8UnitTest11CurrentTest7DetailsEv
 1141      00
 1142 0365 488B30   		movq	(%rax), %rsi
 1143 0368 BA810000 		movl	$129, %edx
 1143      00
 1144 036d 4889DF   		movq	%rbx, %rdi
 1145 0370 E8000000 		call	_ZN8UnitTest11TestDetailsC1ERKS0_i
 1145      00
 1146 0375 4889EF   		movq	%rbp, %rdi
 1147 0378 E8000000 		call	_ZNK8UnitTest11TestResults15GetFailureCountEv
 1147      00
 1148 037d 89442410 		movl	%eax, 16(%rsp)
 1149 0381 C7042401 		movl	$1, (%rsp)
 1149      000000
 1150 0388 E8000000 		call	_ZN8UnitTest11CurrentTest7ResultsEv
 1150      00
 1151 038d 488B38   		movq	(%rax), %rdi
 1152 0390 488D5424 		leaq	16(%rsp), %rdx
 1152      10
 1153 0395 4889D9   		movq	%rbx, %rcx
 1154 0398 4889E6   		movq	%rsp, %rsi
 1155 039b E8000000 		call	_ZN8UnitTest10CheckEqualIiiEEvRNS_11TestResultsERKT_RKT0_RKNS_11TestDetailsE
 1155      00
 1156              	.LEHE13:
 1157              	.L119:
 1158 03a0 4883C468 		addq	$104, %rsp
 1159              		.cfi_remember_state
 1160              		.cfi_def_cfa_offset 24
 1161 03a4 5B       		popq	%rbx
 1162              		.cfi_def_cfa_offset 16
 1163 03a5 5D       		popq	%rbp
 1164              		.cfi_def_cfa_offset 8
 1165 03a6 C3       		ret
 1166              	.L131:
 1167              		.cfi_restore_state
 1168 03a7 4889C7   		movq	%rax, %rdi
 1169 03aa E8000000 		call	__cxa_begin_catch
 1169      00
 1170              	.LEHB14:
 1171 03af E8000000 		call	_ZN8UnitTest11CurrentTest7DetailsEv
 1171      00
 1172 03b4 488D5C24 		leaq	64(%rsp), %rbx
 1172      40
 1173 03b9 488B30   		movq	(%rax), %rsi
 1174 03bc BA760000 		movl	$118, %edx
 1174      00
 1175 03c1 4889DF   		movq	%rbx, %rdi
 1176 03c4 E8000000 		call	_ZN8UnitTest11TestDetailsC1ERKS0_i
 1176      00
 1177 03c9 E8000000 		call	_ZN8UnitTest11CurrentTest7ResultsEv
 1177      00
 1178 03ce 488B38   		movq	(%rax), %rdi
 1179 03d1 BA000000 		movl	$.LC1, %edx
 1179      00
 1180 03d6 4889DE   		movq	%rbx, %rsi
 1181 03d9 E8000000 		call	_ZN8UnitTest11TestResults13OnTestFailureERKNS_11TestDetailsEPKc
 1181      00
 1182              	.LEHE14:
 1183              	.LEHB15:
 1184 03de E8000000 		call	__cxa_end_catch
 1184      00
 1185              	.LEHE15:
 1186 03e3 E95EFFFF 		jmp	.L120
 1186      FF
 1187              	.L128:
 1188 03e8 4889C7   		movq	%rax, %rdi
 1189 03eb 0F1F4400 		.p2align 4,,5
 1189      00
 1190 03f0 E8000000 		call	__cxa_begin_catch
 1190      00
 1191              		.p2align 4,,5
 1192              	.LEHB16:
 1193 03f5 E8000000 		call	_ZN8UnitTest11CurrentTest7DetailsEv
 1193      00
 1194 03fa 488B30   		movq	(%rax), %rsi
 1195 03fd BA810000 		movl	$129, %edx
 1195      00
 1196 0402 4889DF   		movq	%rbx, %rdi
 1197 0405 E8000000 		call	_ZN8UnitTest11TestDetailsC1ERKS0_i
 1197      00
 1198 040a E8000000 		call	_ZN8UnitTest11CurrentTest7ResultsEv
 1198      00
 1199 040f 488B38   		movq	(%rax), %rdi
 1200 0412 BA000000 		movl	$.LC5, %edx
 1200      00
 1201 0417 4889DE   		movq	%rbx, %rsi
 1202 041a E8000000 		call	_ZN8UnitTest11TestResults13OnTestFailureERKNS_11TestDetailsEPKc
 1202      00
 1203              	.LEHE16:
 1204              	.LEHB17:
 1205 041f E8000000 		call	__cxa_end_catch
 1205      00
 1206              	.LEHE17:
 1207 0424 E977FFFF 		jmp	.L119
 1207      FF
 1208              	.L127:
 1209 0429 4889C3   		movq	%rax, %rbx
 1210              	.L122:
 1211 042c 488D7C24 		leaq	16(%rsp), %rdi
 1211      10
 1212 0431 E8000000 		call	_ZN17ScopedCurrentTestD1Ev
 1212      00
 1213 0436 4889DF   		movq	%rbx, %rdi
 1214              	.LEHB18:
 1215 0439 E8000000 		call	_Unwind_Resume
 1215      00
 1216              	.LEHE18:
 1217              	.L130:
 1218 043e 4889C3   		movq	%rax, %rbx
 1219 0441 E8000000 		call	__cxa_end_catch
 1219      00
 1220 0446 EBE4     		jmp	.L122
 1221              	.L129:
 1222 0448 4889C3   		movq	%rax, %rbx
 1223 044b E8000000 		call	__cxa_end_catch
 1223      00
 1224 0450 4889DF   		movq	%rbx, %rdi
 1225              	.LEHB19:
 1226 0453 E8000000 		call	_Unwind_Resume
 1226      00
 1227              	.LEHE19:
 1228              		.cfi_endproc
 1229              	.LFE1102:
 1230              		.section	.gcc_except_table
 1231 0041 000000   		.align 4
 1232              	.LLSDA1102:
 1233 0044 FF       		.byte	0xff
 1234 0045 03       		.byte	0x3
 1235 0046 3D       		.uleb128 .LLSDATT1102-.LLSDATTD1102
 1236              	.LLSDATTD1102:
 1237 0047 01       		.byte	0x1
 1238 0048 34       		.uleb128 .LLSDACSE1102-.LLSDACSB1102
 1239              	.LLSDACSB1102:
 1240 0049 10       		.uleb128 .LEHB10-.LFB1102
 1241 004a 24       		.uleb128 .LEHE10-.LEHB10
 1242 004b 00       		.uleb128 0
 1243 004c 00       		.uleb128 0
 1244 004d 37       		.uleb128 .LEHB11-.LFB1102
 1245 004e 2F       		.uleb128 .LEHE11-.LEHB11
 1246 004f C701     		.uleb128 .L131-.LFB1102
 1247 0051 01       		.uleb128 0x1
 1248 0052 66       		.uleb128 .LEHB12-.LFB1102
 1249 0053 12       		.uleb128 .LEHE12-.LEHB12
 1250 0054 00       		.uleb128 0
 1251 0055 00       		.uleb128 0
 1252 0056 8001     		.uleb128 .LEHB13-.LFB1102
 1253 0058 40       		.uleb128 .LEHE13-.LEHB13
 1254 0059 8802     		.uleb128 .L128-.LFB1102
 1255 005b 01       		.uleb128 0x1
 1256 005c CF01     		.uleb128 .LEHB14-.LFB1102
 1257 005e 2F       		.uleb128 .LEHE14-.LEHB14
 1258 005f DE02     		.uleb128 .L130-.LFB1102
 1259 0061 00       		.uleb128 0
 1260 0062 FE01     		.uleb128 .LEHB15-.LFB1102
 1261 0064 05       		.uleb128 .LEHE15-.LEHB15
 1262 0065 C902     		.uleb128 .L127-.LFB1102
 1263 0067 00       		.uleb128 0
 1264 0068 9502     		.uleb128 .LEHB16-.LFB1102
 1265 006a 2A       		.uleb128 .LEHE16-.LEHB16
 1266 006b E802     		.uleb128 .L129-.LFB1102
 1267 006d 00       		.uleb128 0
 1268 006e BF02     		.uleb128 .LEHB17-.LFB1102
 1269 0070 05       		.uleb128 .LEHE17-.LEHB17
 1270 0071 00       		.uleb128 0
 1271 0072 00       		.uleb128 0
 1272 0073 D902     		.uleb128 .LEHB18-.LFB1102
 1273 0075 05       		.uleb128 .LEHE18-.LEHB18
 1274 0076 00       		.uleb128 0
 1275 0077 00       		.uleb128 0
 1276 0078 F302     		.uleb128 .LEHB19-.LFB1102
 1277 007a 05       		.uleb128 .LEHE19-.LEHB19
 1278 007b 00       		.uleb128 0
 1279 007c 00       		.uleb128 0
 1280              	.LLSDACSE1102:
 1281 007d 01       		.byte	0x1
 1282 007e 00       		.byte	0
 1283 007f 00       		.align 4
 1284 0080 00000000 		.long	0
 1285              	
 1286              	.LLSDATT1102:
 1287              		.text
 1289              		.section	.rodata.str1.1
 1290              	.LC6:
 1291 001f 00       		.string	""
 1292              	.LC7:
 1293 0020 44656661 		.string	"DefaultSuite"
 1293      756C7453 
 1293      75697465 
 1293      00
 1294              	.LC8:
 1295 002d 63726173 		.string	"crashing"
 1295      68696E67 
 1295      00
 1296              		.text
 1297              		.align 2
 1298 0458 0F1F8400 		.p2align 4,,15
 1298      00000000 
 1300              	_ZNK12_GLOBAL__N_138TestCrashingTestsAreReportedAsFailures7RunImplEv:
 1301              	.LFB1085:
 1302              		.cfi_startproc
 1303              		.cfi_personality 0x3,__gxx_personality_v0
 1304              		.cfi_lsda 0x3,.LLSDA1085
 1305 0460 53       		pushq	%rbx
 1306              		.cfi_def_cfa_offset 16
 1307              		.cfi_offset 3, -16
 1308 0461 31F6     		xorl	%esi, %esi
 1309 0463 4883C480 		addq	$-128, %rsp
 1310              		.cfi_def_cfa_offset 144
 1311 0467 488D5C24 		leaq	32(%rsp), %rbx
 1311      20
 1312 046c 4889DF   		movq	%rbx, %rdi
 1313              	.LEHB20:
 1314 046f E8000000 		call	_ZN8UnitTest11TestResultsC1EPNS_12TestReporterE
 1314      00
 1315 0474 E8000000 		call	_ZN8UnitTest11CurrentTest7ResultsEv
 1315      00
 1316 0479 488B00   		movq	(%rax), %rax
 1317 047c 48894424 		movq	%rax, 16(%rsp)
 1317      10
 1318 0481 E8000000 		call	_ZN8UnitTest11CurrentTest7DetailsEv
 1318      00
 1319 0486 488B00   		movq	(%rax), %rax
 1320 0489 48894424 		movq	%rax, 24(%rsp)
 1320      18
 1321 048e E8000000 		call	_ZN8UnitTest11CurrentTest7ResultsEv
 1321      00
 1322              	.LEHE20:
 1323 0493 488D7C24 		leaq	64(%rsp), %rdi
 1323      40
 1324 0498 488918   		movq	%rbx, (%rax)
 1325 049b 4531C0   		xorl	%r8d, %r8d
 1326 049e B9000000 		movl	$.LC6, %ecx
 1326      00
 1327 04a3 BA000000 		movl	$.LC7, %edx
 1327      00
 1328 04a8 BE000000 		movl	$.LC8, %esi
 1328      00
 1329              	.LEHB21:
 1330 04ad E8000000 		call	_ZN8UnitTest4TestC2EPKcS2_S2_i
 1330      00
 1331              	.LEHE21:
 1332 04b2 488D7C24 		leaq	64(%rsp), %rdi
 1332      40
 1333 04b7 48C74424 		movq	$_ZTVZNK12_GLOBAL__N_138TestCrashingTestsAreReportedAsFailures7RunImplEvE12CrashingTest+16, 6
 1333      40000000 
 1333      00
 1334              	.LEHB22:
 1335 04c0 E8000000 		call	_ZN8UnitTest4Test3RunEv
 1335      00
 1336              	.LEHE22:
 1337 04c5 488D7C24 		leaq	64(%rsp), %rdi
 1337      40
 1338 04ca 48C74424 		movq	$_ZTVZNK12_GLOBAL__N_138TestCrashingTestsAreReportedAsFailures7RunImplEvE12CrashingTest+16, 6
 1338      40000000 
 1338      00
 1339              	.LEHB23:
 1340 04d3 E8000000 		call	_ZN8UnitTest4TestD2Ev
 1340      00
 1341              	.LEHE23:
 1342              	.LEHB24:
 1343 04d8 E8000000 		call	_ZN8UnitTest11CurrentTest7ResultsEv
 1343      00
 1344 04dd 488B5424 		movq	16(%rsp), %rdx
 1344      10
 1345 04e2 488910   		movq	%rdx, (%rax)
 1346 04e5 E8000000 		call	_ZN8UnitTest11CurrentTest7DetailsEv
 1346      00
 1347              	.LEHE24:
 1348 04ea 488B5424 		movq	24(%rsp), %rdx
 1348      18
 1349 04ef 488910   		movq	%rdx, (%rax)
 1350              	.LEHB25:
 1351 04f2 E8000000 		call	_ZN8UnitTest11CurrentTest7DetailsEv
 1351      00
 1352 04f7 488B30   		movq	(%rax), %rsi
 1353 04fa 488D7C24 		leaq	64(%rsp), %rdi
 1353      40
 1354 04ff BA620000 		movl	$98, %edx
 1354      00
 1355 0504 E8000000 		call	_ZN8UnitTest11TestDetailsC1ERKS0_i
 1355      00
 1356 0509 4889DF   		movq	%rbx, %rdi
 1357 050c E8000000 		call	_ZNK8UnitTest11TestResults15GetFailureCountEv
 1357      00
 1358 0511 89442410 		movl	%eax, 16(%rsp)
 1359 0515 C7042401 		movl	$1, (%rsp)
 1359      000000
 1360 051c E8000000 		call	_ZN8UnitTest11CurrentTest7ResultsEv
 1360      00
 1361 0521 488B38   		movq	(%rax), %rdi
 1362 0524 488D4C24 		leaq	64(%rsp), %rcx
 1362      40
 1363 0529 488D5424 		leaq	16(%rsp), %rdx
 1363      10
 1364 052e 4889E6   		movq	%rsp, %rsi
 1365 0531 E8000000 		call	_ZN8UnitTest10CheckEqualIiiEEvRNS_11TestResultsERKT_RKT0_RKNS_11TestDetailsE
 1365      00
 1366              	.LEHE25:
 1367              	.L133:
 1368 0536 4883EC80 		subq	$-128, %rsp
 1369              		.cfi_remember_state
 1370              		.cfi_def_cfa_offset 16
 1371 053a 5B       		popq	%rbx
 1372              		.cfi_def_cfa_offset 8
 1373 053b C3       		ret
 1374              	.L139:
 1375              		.cfi_restore_state
 1376 053c 4889C3   		movq	%rax, %rbx
 1377              	.L135:
 1378 053f 488D7C24 		leaq	16(%rsp), %rdi
 1378      10
 1379 0544 E8000000 		call	_ZN17ScopedCurrentTestD1Ev
 1379      00
 1380 0549 4889DF   		movq	%rbx, %rdi
 1381              	.LEHB26:
 1382 054c E8000000 		call	_Unwind_Resume
 1382      00
 1383              	.LEHE26:
 1384              	.L141:
 1385 0551 4889C7   		movq	%rax, %rdi
 1386 0554 E8000000 		call	__cxa_begin_catch
 1386      00
 1387              	.LEHB27:
 1388 0559 E8000000 		call	_ZN8UnitTest11CurrentTest7DetailsEv
 1388      00
 1389 055e 488B30   		movq	(%rax), %rsi
 1390 0561 488D7C24 		leaq	64(%rsp), %rdi
 1390      40
 1391 0566 BA620000 		movl	$98, %edx
 1391      00
 1392 056b E8000000 		call	_ZN8UnitTest11TestDetailsC1ERKS0_i
 1392      00
 1393 0570 E8000000 		call	_ZN8UnitTest11CurrentTest7ResultsEv
 1393      00
 1394 0575 488B38   		movq	(%rax), %rdi
 1395 0578 488D7424 		leaq	64(%rsp), %rsi
 1395      40
 1396 057d BA000000 		movl	$.LC5, %edx
 1396      00
 1397 0582 E8000000 		call	_ZN8UnitTest11TestResults13OnTestFailureERKNS_11TestDetailsEPKc
 1397      00
 1398              	.LEHE27:
 1399              	.LEHB28:
 1400 0587 E8000000 		call	__cxa_end_catch
 1400      00
 1401              	.LEHE28:
 1402 058c EBA8     		jmp	.L133
 1403              	.L140:
 1404 058e 488D7C24 		leaq	64(%rsp), %rdi
 1404      40
 1405 0593 4889C3   		movq	%rax, %rbx
 1406 0596 48C74424 		movq	$_ZTVZNK12_GLOBAL__N_138TestCrashingTestsAreReportedAsFailures7RunImplEvE12CrashingTest+16, 6
 1406      40000000 
 1406      00
 1407 059f E8000000 		call	_ZN8UnitTest4TestD2Ev
 1407      00
 1408 05a4 EB99     		jmp	.L135
 1409              	.L142:
 1410 05a6 4889C3   		movq	%rax, %rbx
 1411 05a9 E8000000 		call	__cxa_end_catch
 1411      00
 1412 05ae 4889DF   		movq	%rbx, %rdi
 1413              	.LEHB29:
 1414 05b1 E8000000 		call	_Unwind_Resume
 1414      00
 1415              	.LEHE29:
 1416              		.cfi_endproc
 1417              	.LFE1085:
 1418              		.section	.gcc_except_table
 1419              		.align 4
 1420              	.LLSDA1085:
 1421 0084 FF       		.byte	0xff
 1422 0085 03       		.byte	0x3
 1423 0086 3D       		.uleb128 .LLSDATT1085-.LLSDATTD1085
 1424              	.LLSDATTD1085:
 1425 0087 01       		.byte	0x1
 1426 0088 32       		.uleb128 .LLSDACSE1085-.LLSDACSB1085
 1427              	.LLSDACSB1085:
 1428 0089 0F       		.uleb128 .LEHB20-.LFB1085
 1429 008a 24       		.uleb128 .LEHE20-.LEHB20
 1430 008b 00       		.uleb128 0
 1431 008c 00       		.uleb128 0
 1432 008d 4D       		.uleb128 .LEHB21-.LFB1085
 1433 008e 05       		.uleb128 .LEHE21-.LEHB21
 1434 008f DC01     		.uleb128 .L139-.LFB1085
 1435 0091 00       		.uleb128 0
 1436 0092 60       		.uleb128 .LEHB22-.LFB1085
 1437 0093 05       		.uleb128 .LEHE22-.LEHB22
 1438 0094 AE02     		.uleb128 .L140-.LFB1085
 1439 0096 00       		.uleb128 0
 1440 0097 73       		.uleb128 .LEHB23-.LFB1085
 1441 0098 05       		.uleb128 .LEHE23-.LEHB23
 1442 0099 DC01     		.uleb128 .L139-.LFB1085
 1443 009b 00       		.uleb128 0
 1444 009c 78       		.uleb128 .LEHB24-.LFB1085
 1445 009d 12       		.uleb128 .LEHE24-.LEHB24
 1446 009e 00       		.uleb128 0
 1447 009f 00       		.uleb128 0
 1448 00a0 9201     		.uleb128 .LEHB25-.LFB1085
 1449 00a2 44       		.uleb128 .LEHE25-.LEHB25
 1450 00a3 F101     		.uleb128 .L141-.LFB1085
 1451 00a5 01       		.uleb128 0x1
 1452 00a6 EC01     		.uleb128 .LEHB26-.LFB1085
 1453 00a8 05       		.uleb128 .LEHE26-.LEHB26
 1454 00a9 00       		.uleb128 0
 1455 00aa 00       		.uleb128 0
 1456 00ab F901     		.uleb128 .LEHB27-.LFB1085
 1457 00ad 2E       		.uleb128 .LEHE27-.LEHB27
 1458 00ae C602     		.uleb128 .L142-.LFB1085
 1459 00b0 00       		.uleb128 0
 1460 00b1 A702     		.uleb128 .LEHB28-.LFB1085
 1461 00b3 05       		.uleb128 .LEHE28-.LEHB28
 1462 00b4 00       		.uleb128 0
 1463 00b5 00       		.uleb128 0
 1464 00b6 D102     		.uleb128 .LEHB29-.LFB1085
 1465 00b8 05       		.uleb128 .LEHE29-.LEHB29
 1466 00b9 00       		.uleb128 0
 1467 00ba 00       		.uleb128 0
 1468              	.LLSDACSE1085:
 1469 00bb 01       		.byte	0x1
 1470 00bc 00       		.byte	0
 1471 00bd 000000   		.align 4
 1472 00c0 00000000 		.long	0
 1473              	
 1474              	.LLSDATT1085:
 1475              		.text
 1477              		.section	.rodata.str1.1
 1478              	.LC9:
 1479 0036 7468726F 		.string	"throwing"
 1479      77696E67 
 1479      00
 1480              		.text
 1481              		.align 2
 1482 05b6 662E0F1F 		.p2align 4,,15
 1482      84000000 
 1482      0000
 1484              	_ZNK12_GLOBAL__N_138TestThrowingTestsAreReportedAsFailures7RunImplEv:
 1485              	.LFB1077:
 1486              		.cfi_startproc
 1487              		.cfi_personality 0x3,__gxx_personality_v0
 1488              		.cfi_lsda 0x3,.LLSDA1077
 1489 05c0 53       		pushq	%rbx
 1490              		.cfi_def_cfa_offset 16
 1491              		.cfi_offset 3, -16
 1492 05c1 31F6     		xorl	%esi, %esi
 1493 05c3 4883C480 		addq	$-128, %rsp
 1494              		.cfi_def_cfa_offset 144
 1495 05c7 488D5C24 		leaq	32(%rsp), %rbx
 1495      20
 1496 05cc 4889DF   		movq	%rbx, %rdi
 1497              	.LEHB30:
 1498 05cf E8000000 		call	_ZN8UnitTest11TestResultsC1EPNS_12TestReporterE
 1498      00
 1499 05d4 E8000000 		call	_ZN8UnitTest11CurrentTest7ResultsEv
 1499      00
 1500 05d9 488B00   		movq	(%rax), %rax
 1501 05dc 48894424 		movq	%rax, 16(%rsp)
 1501      10
 1502 05e1 E8000000 		call	_ZN8UnitTest11CurrentTest7DetailsEv
 1502      00
 1503 05e6 488B00   		movq	(%rax), %rax
 1504 05e9 48894424 		movq	%rax, 24(%rsp)
 1504      18
 1505 05ee E8000000 		call	_ZN8UnitTest11CurrentTest7ResultsEv
 1505      00
 1506              	.LEHE30:
 1507 05f3 488D7C24 		leaq	64(%rsp), %rdi
 1507      40
 1508 05f8 488918   		movq	%rbx, (%rax)
 1509 05fb 4531C0   		xorl	%r8d, %r8d
 1510 05fe B9000000 		movl	$.LC6, %ecx
 1510      00
 1511 0603 BA000000 		movl	$.LC7, %edx
 1511      00
 1512 0608 BE000000 		movl	$.LC9, %esi
 1512      00
 1513              	.LEHB31:
 1514 060d E8000000 		call	_ZN8UnitTest4TestC2EPKcS2_S2_i
 1514      00
 1515              	.LEHE31:
 1516 0612 488D7C24 		leaq	64(%rsp), %rdi
 1516      40
 1517 0617 48C74424 		movq	$_ZTVZNK12_GLOBAL__N_138TestThrowingTestsAreReportedAsFailures7RunImplEvE12CrashingTest+16, 6
 1517      40000000 
 1517      00
 1518              	.LEHB32:
 1519 0620 E8000000 		call	_ZN8UnitTest4Test3RunEv
 1519      00
 1520              	.LEHE32:
 1521 0625 488D7C24 		leaq	64(%rsp), %rdi
 1521      40
 1522 062a 48C74424 		movq	$_ZTVZNK12_GLOBAL__N_138TestThrowingTestsAreReportedAsFailures7RunImplEvE12CrashingTest+16, 6
 1522      40000000 
 1522      00
 1523              	.LEHB33:
 1524 0633 E8000000 		call	_ZN8UnitTest4TestD2Ev
 1524      00
 1525              	.LEHE33:
 1526              	.LEHB34:
 1527 0638 E8000000 		call	_ZN8UnitTest11CurrentTest7ResultsEv
 1527      00
 1528 063d 488B5424 		movq	16(%rsp), %rdx
 1528      10
 1529 0642 488910   		movq	%rdx, (%rax)
 1530 0645 E8000000 		call	_ZN8UnitTest11CurrentTest7DetailsEv
 1530      00
 1531              	.LEHE34:
 1532 064a 488B5424 		movq	24(%rsp), %rdx
 1532      18
 1533 064f 488910   		movq	%rdx, (%rax)
 1534              	.LEHB35:
 1535 0652 E8000000 		call	_ZN8UnitTest11CurrentTest7DetailsEv
 1535      00
 1536 0657 488B30   		movq	(%rax), %rsi
 1537 065a 488D7C24 		leaq	64(%rsp), %rdi
 1537      40
 1538 065f BA480000 		movl	$72, %edx
 1538      00
 1539 0664 E8000000 		call	_ZN8UnitTest11TestDetailsC1ERKS0_i
 1539      00
 1540 0669 4889DF   		movq	%rbx, %rdi
 1541 066c E8000000 		call	_ZNK8UnitTest11TestResults15GetFailureCountEv
 1541      00
 1542 0671 89442410 		movl	%eax, 16(%rsp)
 1543 0675 C7042401 		movl	$1, (%rsp)
 1543      000000
 1544 067c E8000000 		call	_ZN8UnitTest11CurrentTest7ResultsEv
 1544      00
 1545 0681 488B38   		movq	(%rax), %rdi
 1546 0684 488D4C24 		leaq	64(%rsp), %rcx
 1546      40
 1547 0689 488D5424 		leaq	16(%rsp), %rdx
 1547      10
 1548 068e 4889E6   		movq	%rsp, %rsi
 1549 0691 E8000000 		call	_ZN8UnitTest10CheckEqualIiiEEvRNS_11TestResultsERKT_RKT0_RKNS_11TestDetailsE
 1549      00
 1550              	.LEHE35:
 1551              	.L144:
 1552 0696 4883EC80 		subq	$-128, %rsp
 1553              		.cfi_remember_state
 1554              		.cfi_def_cfa_offset 16
 1555 069a 5B       		popq	%rbx
 1556              		.cfi_def_cfa_offset 8
 1557 069b C3       		ret
 1558              	.L150:
 1559              		.cfi_restore_state
 1560 069c 4889C3   		movq	%rax, %rbx
 1561              	.L146:
 1562 069f 488D7C24 		leaq	16(%rsp), %rdi
 1562      10
 1563 06a4 E8000000 		call	_ZN17ScopedCurrentTestD1Ev
 1563      00
 1564 06a9 4889DF   		movq	%rbx, %rdi
 1565              	.LEHB36:
 1566 06ac E8000000 		call	_Unwind_Resume
 1566      00
 1567              	.LEHE36:
 1568              	.L152:
 1569 06b1 4889C7   		movq	%rax, %rdi
 1570 06b4 E8000000 		call	__cxa_begin_catch
 1570      00
 1571              	.LEHB37:
 1572 06b9 E8000000 		call	_ZN8UnitTest11CurrentTest7DetailsEv
 1572      00
 1573 06be 488B30   		movq	(%rax), %rsi
 1574 06c1 488D7C24 		leaq	64(%rsp), %rdi
 1574      40
 1575 06c6 BA480000 		movl	$72, %edx
 1575      00
 1576 06cb E8000000 		call	_ZN8UnitTest11TestDetailsC1ERKS0_i
 1576      00
 1577 06d0 E8000000 		call	_ZN8UnitTest11CurrentTest7ResultsEv
 1577      00
 1578 06d5 488B38   		movq	(%rax), %rdi
 1579 06d8 488D7424 		leaq	64(%rsp), %rsi
 1579      40
 1580 06dd BA000000 		movl	$.LC5, %edx
 1580      00
 1581 06e2 E8000000 		call	_ZN8UnitTest11TestResults13OnTestFailureERKNS_11TestDetailsEPKc
 1581      00
 1582              	.LEHE37:
 1583              	.LEHB38:
 1584 06e7 E8000000 		call	__cxa_end_catch
 1584      00
 1585              	.LEHE38:
 1586 06ec EBA8     		jmp	.L144
 1587              	.L151:
 1588 06ee 488D7C24 		leaq	64(%rsp), %rdi
 1588      40
 1589 06f3 4889C3   		movq	%rax, %rbx
 1590 06f6 48C74424 		movq	$_ZTVZNK12_GLOBAL__N_138TestThrowingTestsAreReportedAsFailures7RunImplEvE12CrashingTest+16, 6
 1590      40000000 
 1590      00
 1591 06ff E8000000 		call	_ZN8UnitTest4TestD2Ev
 1591      00
 1592 0704 EB99     		jmp	.L146
 1593              	.L153:
 1594 0706 4889C3   		movq	%rax, %rbx
 1595 0709 E8000000 		call	__cxa_end_catch
 1595      00
 1596 070e 4889DF   		movq	%rbx, %rdi
 1597              	.LEHB39:
 1598 0711 E8000000 		call	_Unwind_Resume
 1598      00
 1599              	.LEHE39:
 1600              		.cfi_endproc
 1601              	.LFE1077:
 1602              		.section	.gcc_except_table
 1603              		.align 4
 1604              	.LLSDA1077:
 1605 00c4 FF       		.byte	0xff
 1606 00c5 03       		.byte	0x3
 1607 00c6 3D       		.uleb128 .LLSDATT1077-.LLSDATTD1077
 1608              	.LLSDATTD1077:
 1609 00c7 01       		.byte	0x1
 1610 00c8 32       		.uleb128 .LLSDACSE1077-.LLSDACSB1077
 1611              	.LLSDACSB1077:
 1612 00c9 0F       		.uleb128 .LEHB30-.LFB1077
 1613 00ca 24       		.uleb128 .LEHE30-.LEHB30
 1614 00cb 00       		.uleb128 0
 1615 00cc 00       		.uleb128 0
 1616 00cd 4D       		.uleb128 .LEHB31-.LFB1077
 1617 00ce 05       		.uleb128 .LEHE31-.LEHB31
 1618 00cf DC01     		.uleb128 .L150-.LFB1077
 1619 00d1 00       		.uleb128 0
 1620 00d2 60       		.uleb128 .LEHB32-.LFB1077
 1621 00d3 05       		.uleb128 .LEHE32-.LEHB32
 1622 00d4 AE02     		.uleb128 .L151-.LFB1077
 1623 00d6 00       		.uleb128 0
 1624 00d7 73       		.uleb128 .LEHB33-.LFB1077
 1625 00d8 05       		.uleb128 .LEHE33-.LEHB33
 1626 00d9 DC01     		.uleb128 .L150-.LFB1077
 1627 00db 00       		.uleb128 0
 1628 00dc 78       		.uleb128 .LEHB34-.LFB1077
 1629 00dd 12       		.uleb128 .LEHE34-.LEHB34
 1630 00de 00       		.uleb128 0
 1631 00df 00       		.uleb128 0
 1632 00e0 9201     		.uleb128 .LEHB35-.LFB1077
 1633 00e2 44       		.uleb128 .LEHE35-.LEHB35
 1634 00e3 F101     		.uleb128 .L152-.LFB1077
 1635 00e5 01       		.uleb128 0x1
 1636 00e6 EC01     		.uleb128 .LEHB36-.LFB1077
 1637 00e8 05       		.uleb128 .LEHE36-.LEHB36
 1638 00e9 00       		.uleb128 0
 1639 00ea 00       		.uleb128 0
 1640 00eb F901     		.uleb128 .LEHB37-.LFB1077
 1641 00ed 2E       		.uleb128 .LEHE37-.LEHB37
 1642 00ee C602     		.uleb128 .L153-.LFB1077
 1643 00f0 00       		.uleb128 0
 1644 00f1 A702     		.uleb128 .LEHB38-.LFB1077
 1645 00f3 05       		.uleb128 .LEHE38-.LEHB38
 1646 00f4 00       		.uleb128 0
 1647 00f5 00       		.uleb128 0
 1648 00f6 D102     		.uleb128 .LEHB39-.LFB1077
 1649 00f8 05       		.uleb128 .LEHE39-.LEHB39
 1650 00f9 00       		.uleb128 0
 1651 00fa 00       		.uleb128 0
 1652              	.LLSDACSE1077:
 1653 00fb 01       		.byte	0x1
 1654 00fc 00       		.byte	0
 1655 00fd 000000   		.align 4
 1656 0100 00000000 		.long	0
 1657              	
 1658              	.LLSDATT1077:
 1659              		.text
 1661              		.section	.rodata.str1.1
 1662              	.LC10:
 1663 003f 6661696C 		.string	"failing"
 1663      696E6700 
 1664              		.text
 1665              		.align 2
 1666 0716 662E0F1F 		.p2align 4,,15
 1666      84000000 
 1666      0000
 1668              	_ZNK12_GLOBAL__N_126TestFailingTestHasFailures7RunImplEv:
 1669              	.LFB1069:
 1670              		.cfi_startproc
 1671              		.cfi_personality 0x3,__gxx_personality_v0
 1672              		.cfi_lsda 0x3,.LLSDA1069
 1673 0720 53       		pushq	%rbx
 1674              		.cfi_def_cfa_offset 16
 1675              		.cfi_offset 3, -16
 1676 0721 31F6     		xorl	%esi, %esi
 1677 0723 4883C480 		addq	$-128, %rsp
 1678              		.cfi_def_cfa_offset 144
 1679 0727 488D5C24 		leaq	32(%rsp), %rbx
 1679      20
 1680 072c 4889DF   		movq	%rbx, %rdi
 1681              	.LEHB40:
 1682 072f E8000000 		call	_ZN8UnitTest11TestResultsC1EPNS_12TestReporterE
 1682      00
 1683 0734 E8000000 		call	_ZN8UnitTest11CurrentTest7ResultsEv
 1683      00
 1684 0739 488B00   		movq	(%rax), %rax
 1685 073c 48894424 		movq	%rax, 16(%rsp)
 1685      10
 1686 0741 E8000000 		call	_ZN8UnitTest11CurrentTest7DetailsEv
 1686      00
 1687 0746 488B00   		movq	(%rax), %rax
 1688 0749 48894424 		movq	%rax, 24(%rsp)
 1688      18
 1689 074e E8000000 		call	_ZN8UnitTest11CurrentTest7ResultsEv
 1689      00
 1690              	.LEHE40:
 1691 0753 488D7C24 		leaq	64(%rsp), %rdi
 1691      40
 1692 0758 488918   		movq	%rbx, (%rax)
 1693 075b 4531C0   		xorl	%r8d, %r8d
 1694 075e B9000000 		movl	$.LC6, %ecx
 1694      00
 1695 0763 BA000000 		movl	$.LC7, %edx
 1695      00
 1696 0768 BE000000 		movl	$.LC10, %esi
 1696      00
 1697              	.LEHB41:
 1698 076d E8000000 		call	_ZN8UnitTest4TestC2EPKcS2_S2_i
 1698      00
 1699              	.LEHE41:
 1700 0772 488D7C24 		leaq	64(%rsp), %rdi
 1700      40
 1701 0777 48C74424 		movq	$_ZTVZNK12_GLOBAL__N_126TestFailingTestHasFailures7RunImplEvE11FailingTest+16, 64(%rsp)
 1701      40000000 
 1701      00
 1702              	.LEHB42:
 1703 0780 E8000000 		call	_ZN8UnitTest4Test3RunEv
 1703      00
 1704              	.LEHE42:
 1705 0785 488D7C24 		leaq	64(%rsp), %rdi
 1705      40
 1706 078a 48C74424 		movq	$_ZTVZNK12_GLOBAL__N_126TestFailingTestHasFailures7RunImplEvE11FailingTest+16, 64(%rsp)
 1706      40000000 
 1706      00
 1707              	.LEHB43:
 1708 0793 E8000000 		call	_ZN8UnitTest4TestD2Ev
 1708      00
 1709              	.LEHE43:
 1710              	.LEHB44:
 1711 0798 E8000000 		call	_ZN8UnitTest11CurrentTest7ResultsEv
 1711      00
 1712 079d 488B5424 		movq	16(%rsp), %rdx
 1712      10
 1713 07a2 488910   		movq	%rdx, (%rax)
 1714 07a5 E8000000 		call	_ZN8UnitTest11CurrentTest7DetailsEv
 1714      00
 1715              	.LEHE44:
 1716 07aa 488B5424 		movq	24(%rsp), %rdx
 1716      18
 1717 07af 488910   		movq	%rdx, (%rax)
 1718              	.LEHB45:
 1719 07b2 E8000000 		call	_ZN8UnitTest11CurrentTest7DetailsEv
 1719      00
 1720 07b7 488B30   		movq	(%rax), %rsi
 1721 07ba 488D7C24 		leaq	64(%rsp), %rdi
 1721      40
 1722 07bf BA320000 		movl	$50, %edx
 1722      00
 1723 07c4 E8000000 		call	_ZN8UnitTest11TestDetailsC1ERKS0_i
 1723      00
 1724 07c9 4889DF   		movq	%rbx, %rdi
 1725 07cc E8000000 		call	_ZNK8UnitTest11TestResults15GetFailureCountEv
 1725      00
 1726 07d1 89442410 		movl	%eax, 16(%rsp)
 1727 07d5 C7042401 		movl	$1, (%rsp)
 1727      000000
 1728 07dc E8000000 		call	_ZN8UnitTest11CurrentTest7ResultsEv
 1728      00
 1729 07e1 488B38   		movq	(%rax), %rdi
 1730 07e4 488D4C24 		leaq	64(%rsp), %rcx
 1730      40
 1731 07e9 488D5424 		leaq	16(%rsp), %rdx
 1731      10
 1732 07ee 4889E6   		movq	%rsp, %rsi
 1733 07f1 E8000000 		call	_ZN8UnitTest10CheckEqualIiiEEvRNS_11TestResultsERKT_RKT0_RKNS_11TestDetailsE
 1733      00
 1734              	.LEHE45:
 1735              	.L155:
 1736 07f6 4883EC80 		subq	$-128, %rsp
 1737              		.cfi_remember_state
 1738              		.cfi_def_cfa_offset 16
 1739 07fa 5B       		popq	%rbx
 1740              		.cfi_def_cfa_offset 8
 1741 07fb C3       		ret
 1742              	.L161:
 1743              		.cfi_restore_state
 1744 07fc 4889C3   		movq	%rax, %rbx
 1745              	.L157:
 1746 07ff 488D7C24 		leaq	16(%rsp), %rdi
 1746      10
 1747 0804 E8000000 		call	_ZN17ScopedCurrentTestD1Ev
 1747      00
 1748 0809 4889DF   		movq	%rbx, %rdi
 1749              	.LEHB46:
 1750 080c E8000000 		call	_Unwind_Resume
 1750      00
 1751              	.LEHE46:
 1752              	.L163:
 1753 0811 4889C7   		movq	%rax, %rdi
 1754 0814 E8000000 		call	__cxa_begin_catch
 1754      00
 1755              	.LEHB47:
 1756 0819 E8000000 		call	_ZN8UnitTest11CurrentTest7DetailsEv
 1756      00
 1757 081e 488B30   		movq	(%rax), %rsi
 1758 0821 488D7C24 		leaq	64(%rsp), %rdi
 1758      40
 1759 0826 BA320000 		movl	$50, %edx
 1759      00
 1760 082b E8000000 		call	_ZN8UnitTest11TestDetailsC1ERKS0_i
 1760      00
 1761 0830 E8000000 		call	_ZN8UnitTest11CurrentTest7ResultsEv
 1761      00
 1762 0835 488B38   		movq	(%rax), %rdi
 1763 0838 488D7424 		leaq	64(%rsp), %rsi
 1763      40
 1764 083d BA000000 		movl	$.LC5, %edx
 1764      00
 1765 0842 E8000000 		call	_ZN8UnitTest11TestResults13OnTestFailureERKNS_11TestDetailsEPKc
 1765      00
 1766              	.LEHE47:
 1767              	.LEHB48:
 1768 0847 E8000000 		call	__cxa_end_catch
 1768      00
 1769              	.LEHE48:
 1770 084c EBA8     		jmp	.L155
 1771              	.L162:
 1772 084e 488D7C24 		leaq	64(%rsp), %rdi
 1772      40
 1773 0853 4889C3   		movq	%rax, %rbx
 1774 0856 48C74424 		movq	$_ZTVZNK12_GLOBAL__N_126TestFailingTestHasFailures7RunImplEvE11FailingTest+16, 64(%rsp)
 1774      40000000 
 1774      00
 1775 085f E8000000 		call	_ZN8UnitTest4TestD2Ev
 1775      00
 1776 0864 EB99     		jmp	.L157
 1777              	.L164:
 1778 0866 4889C3   		movq	%rax, %rbx
 1779 0869 E8000000 		call	__cxa_end_catch
 1779      00
 1780 086e 4889DF   		movq	%rbx, %rdi
 1781              	.LEHB49:
 1782 0871 E8000000 		call	_Unwind_Resume
 1782      00
 1783              	.LEHE49:
 1784              		.cfi_endproc
 1785              	.LFE1069:
 1786              		.section	.gcc_except_table
 1787              		.align 4
 1788              	.LLSDA1069:
 1789 0104 FF       		.byte	0xff
 1790 0105 03       		.byte	0x3
 1791 0106 3D       		.uleb128 .LLSDATT1069-.LLSDATTD1069
 1792              	.LLSDATTD1069:
 1793 0107 01       		.byte	0x1
 1794 0108 32       		.uleb128 .LLSDACSE1069-.LLSDACSB1069
 1795              	.LLSDACSB1069:
 1796 0109 0F       		.uleb128 .LEHB40-.LFB1069
 1797 010a 24       		.uleb128 .LEHE40-.LEHB40
 1798 010b 00       		.uleb128 0
 1799 010c 00       		.uleb128 0
 1800 010d 4D       		.uleb128 .LEHB41-.LFB1069
 1801 010e 05       		.uleb128 .LEHE41-.LEHB41
 1802 010f DC01     		.uleb128 .L161-.LFB1069
 1803 0111 00       		.uleb128 0
 1804 0112 60       		.uleb128 .LEHB42-.LFB1069
 1805 0113 05       		.uleb128 .LEHE42-.LEHB42
 1806 0114 AE02     		.uleb128 .L162-.LFB1069
 1807 0116 00       		.uleb128 0
 1808 0117 73       		.uleb128 .LEHB43-.LFB1069
 1809 0118 05       		.uleb128 .LEHE43-.LEHB43
 1810 0119 DC01     		.uleb128 .L161-.LFB1069
 1811 011b 00       		.uleb128 0
 1812 011c 78       		.uleb128 .LEHB44-.LFB1069
 1813 011d 12       		.uleb128 .LEHE44-.LEHB44
 1814 011e 00       		.uleb128 0
 1815 011f 00       		.uleb128 0
 1816 0120 9201     		.uleb128 .LEHB45-.LFB1069
 1817 0122 44       		.uleb128 .LEHE45-.LEHB45
 1818 0123 F101     		.uleb128 .L163-.LFB1069
 1819 0125 01       		.uleb128 0x1
 1820 0126 EC01     		.uleb128 .LEHB46-.LFB1069
 1821 0128 05       		.uleb128 .LEHE46-.LEHB46
 1822 0129 00       		.uleb128 0
 1823 012a 00       		.uleb128 0
 1824 012b F901     		.uleb128 .LEHB47-.LFB1069
 1825 012d 2E       		.uleb128 .LEHE47-.LEHB47
 1826 012e C602     		.uleb128 .L164-.LFB1069
 1827 0130 00       		.uleb128 0
 1828 0131 A702     		.uleb128 .LEHB48-.LFB1069
 1829 0133 05       		.uleb128 .LEHE48-.LEHB48
 1830 0134 00       		.uleb128 0
 1831 0135 00       		.uleb128 0
 1832 0136 D102     		.uleb128 .LEHB49-.LFB1069
 1833 0138 05       		.uleb128 .LEHE49-.LEHB49
 1834 0139 00       		.uleb128 0
 1835 013a 00       		.uleb128 0
 1836              	.LLSDACSE1069:
 1837 013b 01       		.byte	0x1
 1838 013c 00       		.byte	0
 1839 013d 000000   		.align 4
 1840 0140 00000000 		.long	0
 1841              	
 1842              	.LLSDATT1069:
 1843              		.text
 1845              		.section	.rodata.str1.1
 1846              	.LC11:
 1847 0047 70617373 		.string	"passing"
 1847      696E6700 
 1848              		.section	.rodata.str1.8
 1849 0069 00000000 		.align 8
 1849      000000
 1850              	.LC12:
 1851 0070 556E6861 		.string	"Unhandled exception in CHECK_EQUAL(0, results.GetFailureCount())"
 1851      6E646C65 
 1851      64206578 
 1851      63657074 
 1851      696F6E20 
 1852              		.text
 1853              		.align 2
 1854 0876 662E0F1F 		.p2align 4,,15
 1854      84000000 
 1854      0000
 1856              	_ZNK12_GLOBAL__N_128TestPassingTestHasNoFailures7RunImplEv:
 1857              	.LFB1061:
 1858              		.cfi_startproc
 1859              		.cfi_personality 0x3,__gxx_personality_v0
 1860              		.cfi_lsda 0x3,.LLSDA1061
 1861 0880 53       		pushq	%rbx
 1862              		.cfi_def_cfa_offset 16
 1863              		.cfi_offset 3, -16
 1864 0881 31F6     		xorl	%esi, %esi
 1865 0883 4883C480 		addq	$-128, %rsp
 1866              		.cfi_def_cfa_offset 144
 1867 0887 488D5C24 		leaq	32(%rsp), %rbx
 1867      20
 1868 088c 4889DF   		movq	%rbx, %rdi
 1869              	.LEHB50:
 1870 088f E8000000 		call	_ZN8UnitTest11TestResultsC1EPNS_12TestReporterE
 1870      00
 1871 0894 E8000000 		call	_ZN8UnitTest11CurrentTest7ResultsEv
 1871      00
 1872 0899 488B00   		movq	(%rax), %rax
 1873 089c 48894424 		movq	%rax, 16(%rsp)
 1873      10
 1874 08a1 E8000000 		call	_ZN8UnitTest11CurrentTest7DetailsEv
 1874      00
 1875 08a6 488B00   		movq	(%rax), %rax
 1876 08a9 48894424 		movq	%rax, 24(%rsp)
 1876      18
 1877 08ae E8000000 		call	_ZN8UnitTest11CurrentTest7ResultsEv
 1877      00
 1878              	.LEHE50:
 1879 08b3 488D7C24 		leaq	64(%rsp), %rdi
 1879      40
 1880 08b8 488918   		movq	%rbx, (%rax)
 1881 08bb 4531C0   		xorl	%r8d, %r8d
 1882 08be B9000000 		movl	$.LC6, %ecx
 1882      00
 1883 08c3 BA000000 		movl	$.LC7, %edx
 1883      00
 1884 08c8 BE000000 		movl	$.LC11, %esi
 1884      00
 1885              	.LEHB51:
 1886 08cd E8000000 		call	_ZN8UnitTest4TestC2EPKcS2_S2_i
 1886      00
 1887              	.LEHE51:
 1888 08d2 488D7C24 		leaq	64(%rsp), %rdi
 1888      40
 1889 08d7 48C74424 		movq	$_ZTVZNK12_GLOBAL__N_128TestPassingTestHasNoFailures7RunImplEvE11PassingTest+16, 64(%rsp)
 1889      40000000 
 1889      00
 1890              	.LEHB52:
 1891 08e0 E8000000 		call	_ZN8UnitTest4Test3RunEv
 1891      00
 1892              	.LEHE52:
 1893 08e5 488D7C24 		leaq	64(%rsp), %rdi
 1893      40
 1894 08ea 48C74424 		movq	$_ZTVZNK12_GLOBAL__N_128TestPassingTestHasNoFailures7RunImplEvE11PassingTest+16, 64(%rsp)
 1894      40000000 
 1894      00
 1895              	.LEHB53:
 1896 08f3 E8000000 		call	_ZN8UnitTest4TestD2Ev
 1896      00
 1897              	.LEHE53:
 1898              	.LEHB54:
 1899 08f8 E8000000 		call	_ZN8UnitTest11CurrentTest7ResultsEv
 1899      00
 1900 08fd 488B5424 		movq	16(%rsp), %rdx
 1900      10
 1901 0902 488910   		movq	%rdx, (%rax)
 1902 0905 E8000000 		call	_ZN8UnitTest11CurrentTest7DetailsEv
 1902      00
 1903              	.LEHE54:
 1904 090a 488B5424 		movq	24(%rsp), %rdx
 1904      18
 1905 090f 488910   		movq	%rdx, (%rax)
 1906              	.LEHB55:
 1907 0912 E8000000 		call	_ZN8UnitTest11CurrentTest7DetailsEv
 1907      00
 1908 0917 488B30   		movq	(%rax), %rsi
 1909 091a 488D7C24 		leaq	64(%rsp), %rdi
 1909      40
 1910 091f BA1C0000 		movl	$28, %edx
 1910      00
 1911 0924 E8000000 		call	_ZN8UnitTest11TestDetailsC1ERKS0_i
 1911      00
 1912 0929 4889DF   		movq	%rbx, %rdi
 1913 092c E8000000 		call	_ZNK8UnitTest11TestResults15GetFailureCountEv
 1913      00
 1914 0931 89442410 		movl	%eax, 16(%rsp)
 1915 0935 C7042400 		movl	$0, (%rsp)
 1915      000000
 1916 093c E8000000 		call	_ZN8UnitTest11CurrentTest7ResultsEv
 1916      00
 1917 0941 488B38   		movq	(%rax), %rdi
 1918 0944 488D4C24 		leaq	64(%rsp), %rcx
 1918      40
 1919 0949 488D5424 		leaq	16(%rsp), %rdx
 1919      10
 1920 094e 4889E6   		movq	%rsp, %rsi
 1921 0951 E8000000 		call	_ZN8UnitTest10CheckEqualIiiEEvRNS_11TestResultsERKT_RKT0_RKNS_11TestDetailsE
 1921      00
 1922              	.LEHE55:
 1923              	.L166:
 1924 0956 4883EC80 		subq	$-128, %rsp
 1925              		.cfi_remember_state
 1926              		.cfi_def_cfa_offset 16
 1927 095a 5B       		popq	%rbx
 1928              		.cfi_def_cfa_offset 8
 1929 095b C3       		ret
 1930              	.L172:
 1931              		.cfi_restore_state
 1932 095c 4889C3   		movq	%rax, %rbx
 1933              	.L168:
 1934 095f 488D7C24 		leaq	16(%rsp), %rdi
 1934      10
 1935 0964 E8000000 		call	_ZN17ScopedCurrentTestD1Ev
 1935      00
 1936 0969 4889DF   		movq	%rbx, %rdi
 1937              	.LEHB56:
 1938 096c E8000000 		call	_Unwind_Resume
 1938      00
 1939              	.LEHE56:
 1940              	.L174:
 1941 0971 4889C7   		movq	%rax, %rdi
 1942 0974 E8000000 		call	__cxa_begin_catch
 1942      00
 1943              	.LEHB57:
 1944 0979 E8000000 		call	_ZN8UnitTest11CurrentTest7DetailsEv
 1944      00
 1945 097e 488B30   		movq	(%rax), %rsi
 1946 0981 488D7C24 		leaq	64(%rsp), %rdi
 1946      40
 1947 0986 BA1C0000 		movl	$28, %edx
 1947      00
 1948 098b E8000000 		call	_ZN8UnitTest11TestDetailsC1ERKS0_i
 1948      00
 1949 0990 E8000000 		call	_ZN8UnitTest11CurrentTest7ResultsEv
 1949      00
 1950 0995 488B38   		movq	(%rax), %rdi
 1951 0998 488D7424 		leaq	64(%rsp), %rsi
 1951      40
 1952 099d BA000000 		movl	$.LC12, %edx
 1952      00
 1953 09a2 E8000000 		call	_ZN8UnitTest11TestResults13OnTestFailureERKNS_11TestDetailsEPKc
 1953      00
 1954              	.LEHE57:
 1955              	.LEHB58:
 1956 09a7 E8000000 		call	__cxa_end_catch
 1956      00
 1957              	.LEHE58:
 1958 09ac EBA8     		jmp	.L166
 1959              	.L173:
 1960 09ae 488D7C24 		leaq	64(%rsp), %rdi
 1960      40
 1961 09b3 4889C3   		movq	%rax, %rbx
 1962 09b6 48C74424 		movq	$_ZTVZNK12_GLOBAL__N_128TestPassingTestHasNoFailures7RunImplEvE11PassingTest+16, 64(%rsp)
 1962      40000000 
 1962      00
 1963 09bf E8000000 		call	_ZN8UnitTest4TestD2Ev
 1963      00
 1964 09c4 EB99     		jmp	.L168
 1965              	.L175:
 1966 09c6 4889C3   		movq	%rax, %rbx
 1967 09c9 E8000000 		call	__cxa_end_catch
 1967      00
 1968 09ce 4889DF   		movq	%rbx, %rdi
 1969              	.LEHB59:
 1970 09d1 E8000000 		call	_Unwind_Resume
 1970      00
 1971              	.LEHE59:
 1972              		.cfi_endproc
 1973              	.LFE1061:
 1974              		.section	.gcc_except_table
 1975              		.align 4
 1976              	.LLSDA1061:
 1977 0144 FF       		.byte	0xff
 1978 0145 03       		.byte	0x3
 1979 0146 3D       		.uleb128 .LLSDATT1061-.LLSDATTD1061
 1980              	.LLSDATTD1061:
 1981 0147 01       		.byte	0x1
 1982 0148 32       		.uleb128 .LLSDACSE1061-.LLSDACSB1061
 1983              	.LLSDACSB1061:
 1984 0149 0F       		.uleb128 .LEHB50-.LFB1061
 1985 014a 24       		.uleb128 .LEHE50-.LEHB50
 1986 014b 00       		.uleb128 0
 1987 014c 00       		.uleb128 0
 1988 014d 4D       		.uleb128 .LEHB51-.LFB1061
 1989 014e 05       		.uleb128 .LEHE51-.LEHB51
 1990 014f DC01     		.uleb128 .L172-.LFB1061
 1991 0151 00       		.uleb128 0
 1992 0152 60       		.uleb128 .LEHB52-.LFB1061
 1993 0153 05       		.uleb128 .LEHE52-.LEHB52
 1994 0154 AE02     		.uleb128 .L173-.LFB1061
 1995 0156 00       		.uleb128 0
 1996 0157 73       		.uleb128 .LEHB53-.LFB1061
 1997 0158 05       		.uleb128 .LEHE53-.LEHB53
 1998 0159 DC01     		.uleb128 .L172-.LFB1061
 1999 015b 00       		.uleb128 0
 2000 015c 78       		.uleb128 .LEHB54-.LFB1061
 2001 015d 12       		.uleb128 .LEHE54-.LEHB54
 2002 015e 00       		.uleb128 0
 2003 015f 00       		.uleb128 0
 2004 0160 9201     		.uleb128 .LEHB55-.LFB1061
 2005 0162 44       		.uleb128 .LEHE55-.LEHB55
 2006 0163 F101     		.uleb128 .L174-.LFB1061
 2007 0165 01       		.uleb128 0x1
 2008 0166 EC01     		.uleb128 .LEHB56-.LFB1061
 2009 0168 05       		.uleb128 .LEHE56-.LEHB56
 2010 0169 00       		.uleb128 0
 2011 016a 00       		.uleb128 0
 2012 016b F901     		.uleb128 .LEHB57-.LFB1061
 2013 016d 2E       		.uleb128 .LEHE57-.LEHB57
 2014 016e C602     		.uleb128 .L175-.LFB1061
 2015 0170 00       		.uleb128 0
 2016 0171 A702     		.uleb128 .LEHB58-.LFB1061
 2017 0173 05       		.uleb128 .LEHE58-.LEHB58
 2018 0174 00       		.uleb128 0
 2019 0175 00       		.uleb128 0
 2020 0176 D102     		.uleb128 .LEHB59-.LFB1061
 2021 0178 05       		.uleb128 .LEHE59-.LEHB59
 2022 0179 00       		.uleb128 0
 2023 017a 00       		.uleb128 0
 2024              	.LLSDACSE1061:
 2025 017b 01       		.byte	0x1
 2026 017c 00       		.byte	0
 2027 017d 000000   		.align 4
 2028 0180 00000000 		.long	0
 2029              	
 2030              	.LLSDATT1061:
 2031              		.text
 2033              		.section	.rodata.str1.1
 2034              	.LC13:
 2035 004f 54657374 		.string	"TestTest.cpp"
 2035      54657374 
 2035      2E637070 
 2035      00
 2036              	.LC14:
 2037 005c 50617373 		.string	"PassingTestHasNoFailures"
 2037      696E6754 
 2037      65737448 
 2037      61734E6F 
 2037      4661696C 
 2038              	.LC15:
 2039 0075 4661696C 		.string	"FailingTestHasFailures"
 2039      696E6754 
 2039      65737448 
 2039      61734661 
 2039      696C7572 
 2040              		.section	.rodata.str1.8
 2041 00b1 00000000 		.align 8
 2041      000000
 2042              	.LC16:
 2043 00b8 5468726F 		.string	"ThrowingTestsAreReportedAsFailures"
 2043      77696E67 
 2043      54657374 
 2043      73417265 
 2043      5265706F 
 2044 00db 00000000 		.align 8
 2044      00
 2045              	.LC17:
 2046 00e0 43726173 		.string	"CrashingTestsAreReportedAsFailures"
 2046      68696E67 
 2046      54657374 
 2046      73417265 
 2046      5265706F 
 2047 0103 00000000 		.align 8
 2047      00
 2048              	.LC18:
 2049 0108 54657374 		.string	"TestWithUnspecifiedSuiteGetsDefaultSuite"
 2049      57697468 
 2049      556E7370 
 2049      65636966 
 2049      69656453 
 2050 0131 00000000 		.align 8
 2050      000000
 2051              	.LC19:
 2052 0138 54657374 		.string	"TestReflectsSpecifiedSuiteName"
 2052      5265666C 
 2052      65637473 
 2052      53706563 
 2052      69666965 
 2053 0157 00       		.align 8
 2054              	.LC20:
 2055 0158 4F75744F 		.string	"OutOfCoreCHECKMacrosCanFailTests"
 2055      66436F72 
 2055      65434845 
 2055      434B4D61 
 2055      63726F73 
 2056              		.section	.text.startup,"ax",@progbits
 2057              		.p2align 4,,15
 2059              	_GLOBAL__sub_I_TestTest.cpp:
 2060              	.LFB1229:
 2061              		.cfi_startproc
 2062 0000 4883EC08 		subq	$8, %rsp
 2063              		.cfi_def_cfa_offset 16
 2064 0004 41B80A00 		movl	$10, %r8d
 2064      0000
 2065 000a B9000000 		movl	$.LC13, %ecx
 2065      00
 2066 000f BA000000 		movl	$.LC7, %edx
 2066      00
 2067 0014 BE000000 		movl	$.LC14, %esi
 2067      00
 2068 0019 BF000000 		movl	$_ZN12_GLOBAL__N_136testPassingTestHasNoFailuresInstanceE, %edi
 2068      00
 2069 001e E8000000 		call	_ZN8UnitTest4TestC2EPKcS2_S2_i
 2069      00
 2070 0023 BA000000 		movl	$__dso_handle, %edx
 2070      00
 2071 0028 BE000000 		movl	$_ZN12_GLOBAL__N_136testPassingTestHasNoFailuresInstanceE, %esi
 2071      00
 2072 002d BF000000 		movl	$_ZN12_GLOBAL__N_128TestPassingTestHasNoFailuresD1Ev, %edi
 2072      00
 2073 0032 48C70500 		movq	$_ZTVN12_GLOBAL__N_128TestPassingTestHasNoFailuresE+16, _ZN12_GLOBAL__N_136testPassingTestHas
 2073      00000000 
 2073      000000
 2074 003d E8000000 		call	__cxa_atexit
 2074      00
 2075 0042 E8000000 		call	_ZN8UnitTest4Test11GetTestListEv
 2075      00
 2076 0047 BA000000 		movl	$_ZN12_GLOBAL__N_136testPassingTestHasNoFailuresInstanceE, %edx
 2076      00
 2077 004c 4889C6   		movq	%rax, %rsi
 2078 004f BF000000 		movl	$_ZN12_GLOBAL__N_129adderPassingTestHasNoFailuresE, %edi
 2078      00
 2079 0054 E8000000 		call	_ZN8UnitTest9ListAdderC1ERNS_8TestListEPNS_4TestE
 2079      00
 2080 0059 41B82000 		movl	$32, %r8d
 2080      0000
 2081 005f B9000000 		movl	$.LC13, %ecx
 2081      00
 2082 0064 BA000000 		movl	$.LC7, %edx
 2082      00
 2083 0069 BE000000 		movl	$.LC15, %esi
 2083      00
 2084 006e BF000000 		movl	$_ZN12_GLOBAL__N_134testFailingTestHasFailuresInstanceE, %edi
 2084      00
 2085 0073 E8000000 		call	_ZN8UnitTest4TestC2EPKcS2_S2_i
 2085      00
 2086 0078 BA000000 		movl	$__dso_handle, %edx
 2086      00
 2087 007d BE000000 		movl	$_ZN12_GLOBAL__N_134testFailingTestHasFailuresInstanceE, %esi
 2087      00
 2088 0082 BF000000 		movl	$_ZN12_GLOBAL__N_126TestFailingTestHasFailuresD1Ev, %edi
 2088      00
 2089 0087 48C70500 		movq	$_ZTVN12_GLOBAL__N_126TestFailingTestHasFailuresE+16, _ZN12_GLOBAL__N_134testFailingTestHasFa
 2089      00000000 
 2089      000000
 2090 0092 E8000000 		call	__cxa_atexit
 2090      00
 2091 0097 E8000000 		call	_ZN8UnitTest4Test11GetTestListEv
 2091      00
 2092 009c BA000000 		movl	$_ZN12_GLOBAL__N_134testFailingTestHasFailuresInstanceE, %edx
 2092      00
 2093 00a1 4889C6   		movq	%rax, %rsi
 2094 00a4 BF000000 		movl	$_ZN12_GLOBAL__N_127adderFailingTestHasFailuresE, %edi
 2094      00
 2095 00a9 E8000000 		call	_ZN8UnitTest9ListAdderC1ERNS_8TestListEPNS_4TestE
 2095      00
 2096 00ae 41B83600 		movl	$54, %r8d
 2096      0000
 2097 00b4 B9000000 		movl	$.LC13, %ecx
 2097      00
 2098 00b9 BA000000 		movl	$.LC7, %edx
 2098      00
 2099 00be BE000000 		movl	$.LC16, %esi
 2099      00
 2100 00c3 BF000000 		movl	$_ZN12_GLOBAL__N_146testThrowingTestsAreReportedAsFailuresInstanceE, %edi
 2100      00
 2101 00c8 E8000000 		call	_ZN8UnitTest4TestC2EPKcS2_S2_i
 2101      00
 2102 00cd BA000000 		movl	$__dso_handle, %edx
 2102      00
 2103 00d2 BE000000 		movl	$_ZN12_GLOBAL__N_146testThrowingTestsAreReportedAsFailuresInstanceE, %esi
 2103      00
 2104 00d7 BF000000 		movl	$_ZN12_GLOBAL__N_138TestThrowingTestsAreReportedAsFailuresD1Ev, %edi
 2104      00
 2105 00dc 48C70500 		movq	$_ZTVN12_GLOBAL__N_138TestThrowingTestsAreReportedAsFailuresE+16, _ZN12_GLOBAL__N_146testThro
 2105      00000000 
 2105      000000
 2106 00e7 E8000000 		call	__cxa_atexit
 2106      00
 2107 00ec E8000000 		call	_ZN8UnitTest4Test11GetTestListEv
 2107      00
 2108 00f1 BA000000 		movl	$_ZN12_GLOBAL__N_146testThrowingTestsAreReportedAsFailuresInstanceE, %edx
 2108      00
 2109 00f6 4889C6   		movq	%rax, %rsi
 2110 00f9 BF000000 		movl	$_ZN12_GLOBAL__N_139adderThrowingTestsAreReportedAsFailuresE, %edi
 2110      00
 2111 00fe E8000000 		call	_ZN8UnitTest9ListAdderC1ERNS_8TestListEPNS_4TestE
 2111      00
 2112 0103 41B84D00 		movl	$77, %r8d
 2112      0000
 2113 0109 B9000000 		movl	$.LC13, %ecx
 2113      00
 2114 010e BA000000 		movl	$.LC7, %edx
 2114      00
 2115 0113 BE000000 		movl	$.LC17, %esi
 2115      00
 2116 0118 BF000000 		movl	$_ZN12_GLOBAL__N_146testCrashingTestsAreReportedAsFailuresInstanceE, %edi
 2116      00
 2117 011d E8000000 		call	_ZN8UnitTest4TestC2EPKcS2_S2_i
 2117      00
 2118 0122 BA000000 		movl	$__dso_handle, %edx
 2118      00
 2119 0127 BE000000 		movl	$_ZN12_GLOBAL__N_146testCrashingTestsAreReportedAsFailuresInstanceE, %esi
 2119      00
 2120 012c BF000000 		movl	$_ZN12_GLOBAL__N_138TestCrashingTestsAreReportedAsFailuresD1Ev, %edi
 2120      00
 2121 0131 48C70500 		movq	$_ZTVN12_GLOBAL__N_138TestCrashingTestsAreReportedAsFailuresE+16, _ZN12_GLOBAL__N_146testCras
 2121      00000000 
 2121      000000
 2122 013c E8000000 		call	__cxa_atexit
 2122      00
 2123 0141 E8000000 		call	_ZN8UnitTest4Test11GetTestListEv
 2123      00
 2124 0146 BA000000 		movl	$_ZN12_GLOBAL__N_146testCrashingTestsAreReportedAsFailuresInstanceE, %edx
 2124      00
 2125 014b 4889C6   		movq	%rax, %rsi
 2126 014e BF000000 		movl	$_ZN12_GLOBAL__N_139adderCrashingTestsAreReportedAsFailuresE, %edi
 2126      00
 2127 0153 E8000000 		call	_ZN8UnitTest9ListAdderC1ERNS_8TestListEPNS_4TestE
 2127      00
 2128 0158 41B86600 		movl	$102, %r8d
 2128      0000
 2129 015e B9000000 		movl	$.LC13, %ecx
 2129      00
 2130 0163 BA000000 		movl	$.LC7, %edx
 2130      00
 2131 0168 BE000000 		movl	$.LC18, %esi
 2131      00
 2132 016d BF000000 		movl	$_ZN12_GLOBAL__N_152testTestWithUnspecifiedSuiteGetsDefaultSuiteInstanceE, %edi
 2132      00
 2133 0172 E8000000 		call	_ZN8UnitTest4TestC2EPKcS2_S2_i
 2133      00
 2134 0177 BA000000 		movl	$__dso_handle, %edx
 2134      00
 2135 017c BE000000 		movl	$_ZN12_GLOBAL__N_152testTestWithUnspecifiedSuiteGetsDefaultSuiteInstanceE, %esi
 2135      00
 2136 0181 BF000000 		movl	$_ZN12_GLOBAL__N_144TestTestWithUnspecifiedSuiteGetsDefaultSuiteD1Ev, %edi
 2136      00
 2137 0186 48C70500 		movq	$_ZTVN12_GLOBAL__N_144TestTestWithUnspecifiedSuiteGetsDefaultSuiteE+16, _ZN12_GLOBAL__N_152te
 2137      00000000 
 2137      000000
 2138 0191 E8000000 		call	__cxa_atexit
 2138      00
 2139 0196 E8000000 		call	_ZN8UnitTest4Test11GetTestListEv
 2139      00
 2140 019b BA000000 		movl	$_ZN12_GLOBAL__N_152testTestWithUnspecifiedSuiteGetsDefaultSuiteInstanceE, %edx
 2140      00
 2141 01a0 4889C6   		movq	%rax, %rsi
 2142 01a3 BF000000 		movl	$_ZN12_GLOBAL__N_145adderTestWithUnspecifiedSuiteGetsDefaultSuiteE, %edi
 2142      00
 2143 01a8 E8000000 		call	_ZN8UnitTest9ListAdderC1ERNS_8TestListEPNS_4TestE
 2143      00
 2144 01ad 41B86D00 		movl	$109, %r8d
 2144      0000
 2145 01b3 B9000000 		movl	$.LC13, %ecx
 2145      00
 2146 01b8 BA000000 		movl	$.LC7, %edx
 2146      00
 2147 01bd BE000000 		movl	$.LC19, %esi
 2147      00
 2148 01c2 BF000000 		movl	$_ZN12_GLOBAL__N_142testTestReflectsSpecifiedSuiteNameInstanceE, %edi
 2148      00
 2149 01c7 E8000000 		call	_ZN8UnitTest4TestC2EPKcS2_S2_i
 2149      00
 2150 01cc BA000000 		movl	$__dso_handle, %edx
 2150      00
 2151 01d1 BE000000 		movl	$_ZN12_GLOBAL__N_142testTestReflectsSpecifiedSuiteNameInstanceE, %esi
 2151      00
 2152 01d6 BF000000 		movl	$_ZN12_GLOBAL__N_134TestTestReflectsSpecifiedSuiteNameD1Ev, %edi
 2152      00
 2153 01db 48C70500 		movq	$_ZTVN12_GLOBAL__N_134TestTestReflectsSpecifiedSuiteNameE+16, _ZN12_GLOBAL__N_142testTestRefl
 2153      00000000 
 2153      000000
 2154 01e6 E8000000 		call	__cxa_atexit
 2154      00
 2155 01eb E8000000 		call	_ZN8UnitTest4Test11GetTestListEv
 2155      00
 2156 01f0 BA000000 		movl	$_ZN12_GLOBAL__N_142testTestReflectsSpecifiedSuiteNameInstanceE, %edx
 2156      00
 2157 01f5 4889C6   		movq	%rax, %rsi
 2158 01f8 BF000000 		movl	$_ZN12_GLOBAL__N_135adderTestReflectsSpecifiedSuiteNameE, %edi
 2158      00
 2159 01fd E8000000 		call	_ZN8UnitTest9ListAdderC1ERNS_8TestListEPNS_4TestE
 2159      00
 2160 0202 41B87900 		movl	$121, %r8d
 2160      0000
 2161 0208 B9000000 		movl	$.LC13, %ecx
 2161      00
 2162 020d BA000000 		movl	$.LC7, %edx
 2162      00
 2163 0212 BE000000 		movl	$.LC20, %esi
 2163      00
 2164 0217 BF000000 		movl	$_ZN12_GLOBAL__N_144testOutOfCoreCHECKMacrosCanFailTestsInstanceE, %edi
 2164      00
 2165 021c E8000000 		call	_ZN8UnitTest4TestC2EPKcS2_S2_i
 2165      00
 2166 0221 BA000000 		movl	$__dso_handle, %edx
 2166      00
 2167 0226 BE000000 		movl	$_ZN12_GLOBAL__N_144testOutOfCoreCHECKMacrosCanFailTestsInstanceE, %esi
 2167      00
 2168 022b BF000000 		movl	$_ZN12_GLOBAL__N_136TestOutOfCoreCHECKMacrosCanFailTestsD1Ev, %edi
 2168      00
 2169 0230 48C70500 		movq	$_ZTVN12_GLOBAL__N_136TestOutOfCoreCHECKMacrosCanFailTestsE+16, _ZN12_GLOBAL__N_144testOutOfC
 2169      00000000 
 2169      000000
 2170 023b E8000000 		call	__cxa_atexit
 2170      00
 2171 0240 E8000000 		call	_ZN8UnitTest4Test11GetTestListEv
 2171      00
 2172 0245 BA000000 		movl	$_ZN12_GLOBAL__N_144testOutOfCoreCHECKMacrosCanFailTestsInstanceE, %edx
 2172      00
 2173 024a 4889C6   		movq	%rax, %rsi
 2174 024d BF000000 		movl	$_ZN12_GLOBAL__N_137adderOutOfCoreCHECKMacrosCanFailTestsE, %edi
 2174      00
 2175 0252 4883C408 		addq	$8, %rsp
 2176              		.cfi_def_cfa_offset 8
 2177 0256 E9000000 		jmp	_ZN8UnitTest9ListAdderC1ERNS_8TestListEPNS_4TestE
 2177      00
 2178              		.cfi_endproc
 2179              	.LFE1229:
 2181              		.section	.init_array,"aw"
 2182              		.align 8
 2183 0000 00000000 		.quad	_GLOBAL__sub_I_TestTest.cpp
 2183      00000000 
 2184              		.section	.rodata.str1.1
 2185              	.LC21:
 2186 008c 74657374 		.string	"testSuite"
 2186      53756974 
 2186      6500
 2187              	.LC22:
 2188 0096 74657374 		.string	"test"
 2188      00
 2189              		.section	.rodata.str1.8
 2190 0179 00000000 		.align 8
 2190      000000
 2191              	.LC23:
 2192 0180 74657374 		.string	"test.m_details.suiteName != NULL"
 2192      2E6D5F64 
 2192      65746169 
 2192      6C732E73 
 2192      75697465 
 2193 01a1 00000000 		.align 8
 2193      000000
 2194              	.LC24:
 2195 01a8 556E6861 		.string	"Unhandled exception in CHECK(test.m_details.suiteName != NULL)"
 2195      6E646C65 
 2195      64206578 
 2195      63657074 
 2195      696F6E20 
 2196 01e7 00       		.align 8
 2197              	.LC25:
 2198 01e8 556E6861 		.string	"Unhandled exception in CHECK_EQUAL(\"testSuite\", test.m_details.suiteName)"
 2198      6E646C65 
 2198      64206578 
 2198      63657074 
 2198      696F6E20 
 2199              		.text
 2200              		.align 2
 2201 09d6 662E0F1F 		.p2align 4,,15
 2201      84000000 
 2201      0000
 2203              	_ZNK12_GLOBAL__N_134TestTestReflectsSpecifiedSuiteName7RunImplEv:
 2204              	.LFB1097:
 2205              		.cfi_startproc
 2206              		.cfi_personality 0x3,__gxx_personality_v0
 2207              		.cfi_lsda 0x3,.LLSDA1097
 2208 09e0 55       		pushq	%rbp
 2209              		.cfi_def_cfa_offset 16
 2210              		.cfi_offset 6, -16
 2211 09e1 4531C0   		xorl	%r8d, %r8d
 2212 09e4 B9000000 		movl	$.LC6, %ecx
 2212      00
 2213 09e9 BA000000 		movl	$.LC21, %edx
 2213      00
 2214 09ee BE000000 		movl	$.LC22, %esi
 2214      00
 2215 09f3 53       		pushq	%rbx
 2216              		.cfi_def_cfa_offset 24
 2217              		.cfi_offset 3, -24
 2218 09f4 4883EC68 		subq	$104, %rsp
 2219              		.cfi_def_cfa_offset 128
 2220 09f8 488D7C24 		leaq	32(%rsp), %rdi
 2220      20
 2221              	.LEHB60:
 2222 09fd E8000000 		call	_ZN8UnitTest4TestC1EPKcS2_S2_i
 2222      00
 2223              	.LEHE60:
 2224 0a02 48837C24 		cmpq	$0, 40(%rsp)
 2224      2800
 2225 0a08 7446     		je	.L196
 2226              	.L181:
 2227              	.LEHB61:
 2228 0a0a E8000000 		call	_ZN8UnitTest11CurrentTest7DetailsEv
 2228      00
 2229 0a0f 488B30   		movq	(%rax), %rsi
 2230 0a12 BA710000 		movl	$113, %edx
 2230      00
 2231 0a17 4889E7   		movq	%rsp, %rdi
 2232 0a1a E8000000 		call	_ZN8UnitTest11TestDetailsC1ERKS0_i
 2232      00
 2233 0a1f 488B6C24 		movq	40(%rsp), %rbp
 2233      28
 2234 0a24 E8000000 		call	_ZN8UnitTest11CurrentTest7ResultsEv
 2234      00
 2235 0a29 488B38   		movq	(%rax), %rdi
 2236 0a2c 4889E1   		movq	%rsp, %rcx
 2237 0a2f 4889EA   		movq	%rbp, %rdx
 2238 0a32 BE000000 		movl	$.LC21, %esi
 2238      00
 2239 0a37 E8000000 		call	_ZN8UnitTest10CheckEqualERNS_11TestResultsEPKcS3_RKNS_11TestDetailsE
 2239      00
 2240              	.LEHE61:
 2241              	.L188:
 2242 0a3c 488D7C24 		leaq	32(%rsp), %rdi
 2242      20
 2243              	.LEHB62:
 2244 0a41 E8000000 		call	_ZN8UnitTest4TestD1Ev
 2244      00
 2245              	.LEHE62:
 2246 0a46 4883C468 		addq	$104, %rsp
 2247              		.cfi_remember_state
 2248              		.cfi_def_cfa_offset 24
 2249 0a4a 5B       		popq	%rbx
 2250              		.cfi_def_cfa_offset 16
 2251 0a4b 5D       		popq	%rbp
 2252              		.cfi_def_cfa_offset 8
 2253 0a4c C3       		ret
 2254 0a4d 0F1F00   		.p2align 4,,10
 2255              		.p2align 3
 2256              	.L196:
 2257              		.cfi_restore_state
 2258              	.LEHB63:
 2259 0a50 E8000000 		call	_ZN8UnitTest11CurrentTest7DetailsEv
 2259      00
 2260 0a55 488B30   		movq	(%rax), %rsi
 2261 0a58 BA700000 		movl	$112, %edx
 2261      00
 2262 0a5d 4889E7   		movq	%rsp, %rdi
 2263 0a60 E8000000 		call	_ZN8UnitTest11TestDetailsC1ERKS0_i
 2263      00
 2264 0a65 E8000000 		call	_ZN8UnitTest11CurrentTest7ResultsEv
 2264      00
 2265 0a6a 488B38   		movq	(%rax), %rdi
 2266 0a6d BA000000 		movl	$.LC23, %edx
 2266      00
 2267 0a72 4889E6   		movq	%rsp, %rsi
 2268 0a75 E8000000 		call	_ZN8UnitTest11TestResults13OnTestFailureERKNS_11TestDetailsEPKc
 2268      00
 2269              	.LEHE63:
 2270 0a7a EB8E     		jmp	.L181
 2271              	.L189:
 2272 0a7c 4889C7   		movq	%rax, %rdi
 2273 0a7f E8000000 		call	__cxa_begin_catch
 2273      00
 2274              		.p2align 4,,5
 2275              	.LEHB64:
 2276 0a84 E8000000 		call	_ZN8UnitTest11CurrentTest7DetailsEv
 2276      00
 2277 0a89 488B30   		movq	(%rax), %rsi
 2278 0a8c BA700000 		movl	$112, %edx
 2278      00
 2279 0a91 4889E7   		movq	%rsp, %rdi
 2280 0a94 E8000000 		call	_ZN8UnitTest11TestDetailsC1ERKS0_i
 2280      00
 2281 0a99 E8000000 		call	_ZN8UnitTest11CurrentTest7ResultsEv
 2281      00
 2282 0a9e 488B38   		movq	(%rax), %rdi
 2283 0aa1 BA000000 		movl	$.LC24, %edx
 2283      00
 2284 0aa6 4889E6   		movq	%rsp, %rsi
 2285 0aa9 E8000000 		call	_ZN8UnitTest11TestResults13OnTestFailureERKNS_11TestDetailsEPKc
 2285      00
 2286              	.LEHE64:
 2287              	.LEHB65:
 2288 0aae E8000000 		call	__cxa_end_catch
 2288      00
 2289              	.LEHE65:
 2290 0ab3 E952FFFF 		jmp	.L181
 2290      FF
 2291              	.L192:
 2292 0ab8 4889C7   		movq	%rax, %rdi
 2293 0abb 0F1F4400 		.p2align 4,,5
 2293      00
 2294 0ac0 E8000000 		call	__cxa_begin_catch
 2294      00
 2295              		.p2align 4,,5
 2296              	.LEHB66:
 2297 0ac5 E8000000 		call	_ZN8UnitTest11CurrentTest7DetailsEv
 2297      00
 2298 0aca 488B30   		movq	(%rax), %rsi
 2299 0acd BA710000 		movl	$113, %edx
 2299      00
 2300 0ad2 4889E7   		movq	%rsp, %rdi
 2301 0ad5 E8000000 		call	_ZN8UnitTest11TestDetailsC1ERKS0_i
 2301      00
 2302 0ada E8000000 		call	_ZN8UnitTest11CurrentTest7ResultsEv
 2302      00
 2303 0adf 488B38   		movq	(%rax), %rdi
 2304 0ae2 BA000000 		movl	$.LC25, %edx
 2304      00
 2305 0ae7 4889E6   		movq	%rsp, %rsi
 2306 0aea E8000000 		call	_ZN8UnitTest11TestResults13OnTestFailureERKNS_11TestDetailsEPKc
 2306      00
 2307              	.LEHE66:
 2308              	.LEHB67:
 2309 0aef E8000000 		call	__cxa_end_catch
 2309      00
 2310              	.LEHE67:
 2311 0af4 E943FFFF 		jmp	.L188
 2311      FF
 2312              	.L190:
 2313 0af9 4889C3   		movq	%rax, %rbx
 2314              	.L183:
 2315 0afc 488D7C24 		leaq	32(%rsp), %rdi
 2315      20
 2316 0b01 E8000000 		call	_ZN8UnitTest4TestD1Ev
 2316      00
 2317 0b06 4889DF   		movq	%rbx, %rdi
 2318              	.LEHB68:
 2319 0b09 E8000000 		call	_Unwind_Resume
 2319      00
 2320              	.LEHE68:
 2321              	.L191:
 2322 0b0e 4889C3   		movq	%rax, %rbx
 2323 0b11 E8000000 		call	__cxa_end_catch
 2323      00
 2324 0b16 EBE4     		jmp	.L183
 2325              	.L193:
 2326 0b18 4889C3   		movq	%rax, %rbx
 2327 0b1b E8000000 		call	__cxa_end_catch
 2327      00
 2328              		.p2align 4,,5
 2329 0b20 EBDA     		jmp	.L183
 2330              		.cfi_endproc
 2331              	.LFE1097:
 2332              		.section	.gcc_except_table
 2333              		.align 4
 2334              	.LLSDA1097:
 2335 0184 FF       		.byte	0xff
 2336 0185 03       		.byte	0x3
 2337 0186 39       		.uleb128 .LLSDATT1097-.LLSDATTD1097
 2338              	.LLSDATTD1097:
 2339 0187 01       		.byte	0x1
 2340 0188 2F       		.uleb128 .LLSDACSE1097-.LLSDACSB1097
 2341              	.LLSDACSB1097:
 2342 0189 1D       		.uleb128 .LEHB60-.LFB1097
 2343 018a 05       		.uleb128 .LEHE60-.LEHB60
 2344 018b 00       		.uleb128 0
 2345 018c 00       		.uleb128 0
 2346 018d 2A       		.uleb128 .LEHB61-.LFB1097
 2347 018e 32       		.uleb128 .LEHE61-.LEHB61
 2348 018f D801     		.uleb128 .L192-.LFB1097
 2349 0191 01       		.uleb128 0x1
 2350 0192 61       		.uleb128 .LEHB62-.LFB1097
 2351 0193 05       		.uleb128 .LEHE62-.LEHB62
 2352 0194 00       		.uleb128 0
 2353 0195 00       		.uleb128 0
 2354 0196 70       		.uleb128 .LEHB63-.LFB1097
 2355 0197 2A       		.uleb128 .LEHE63-.LEHB63
 2356 0198 9C01     		.uleb128 .L189-.LFB1097
 2357 019a 01       		.uleb128 0x1
 2358 019b A401     		.uleb128 .LEHB64-.LFB1097
 2359 019d 2A       		.uleb128 .LEHE64-.LEHB64
 2360 019e AE02     		.uleb128 .L191-.LFB1097
 2361 01a0 00       		.uleb128 0
 2362 01a1 CE01     		.uleb128 .LEHB65-.LFB1097
 2363 01a3 05       		.uleb128 .LEHE65-.LEHB65
 2364 01a4 9902     		.uleb128 .L190-.LFB1097
 2365 01a6 00       		.uleb128 0
 2366 01a7 E501     		.uleb128 .LEHB66-.LFB1097
 2367 01a9 2A       		.uleb128 .LEHE66-.LEHB66
 2368 01aa B802     		.uleb128 .L193-.LFB1097
 2369 01ac 00       		.uleb128 0
 2370 01ad 8F02     		.uleb128 .LEHB67-.LFB1097
 2371 01af 05       		.uleb128 .LEHE67-.LEHB67
 2372 01b0 9902     		.uleb128 .L190-.LFB1097
 2373 01b2 00       		.uleb128 0
 2374 01b3 A902     		.uleb128 .LEHB68-.LFB1097
 2375 01b5 05       		.uleb128 .LEHE68-.LEHB68
 2376 01b6 00       		.uleb128 0
 2377 01b7 00       		.uleb128 0
 2378              	.LLSDACSE1097:
 2379 01b8 01       		.byte	0x1
 2380 01b9 00       		.byte	0
 2381 01ba 0000     		.align 4
 2382 01bc 00000000 		.long	0
 2383              	
 2384              	.LLSDATT1097:
 2385              		.text
 2387              		.section	.rodata.str1.8
 2388 0232 00000000 		.align 8
 2388      0000
 2389              	.LC26:
 2390 0238 556E6861 		.string	"Unhandled exception in CHECK_EQUAL(\"DefaultSuite\", test.m_details.suiteName)"
 2390      6E646C65 
 2390      64206578 
 2390      63657074 
 2390      696F6E20 
 2391              		.text
 2392              		.align 2
 2393 0b22 66666666 		.p2align 4,,15
 2393      662E0F1F 
 2393      84000000 
 2393      0000
 2395              	_ZNK12_GLOBAL__N_144TestTestWithUnspecifiedSuiteGetsDefaultSuite7RunImplEv:
 2396              	.LFB1093:
 2397              		.cfi_startproc
 2398              		.cfi_personality 0x3,__gxx_personality_v0
 2399              		.cfi_lsda 0x3,.LLSDA1093
 2400 0b30 55       		pushq	%rbp
 2401              		.cfi_def_cfa_offset 16
 2402              		.cfi_offset 6, -16
 2403 0b31 4531C0   		xorl	%r8d, %r8d
 2404 0b34 B9000000 		movl	$.LC6, %ecx
 2404      00
 2405 0b39 BA000000 		movl	$.LC7, %edx
 2405      00
 2406 0b3e BE000000 		movl	$.LC22, %esi
 2406      00
 2407 0b43 53       		pushq	%rbx
 2408              		.cfi_def_cfa_offset 24
 2409              		.cfi_offset 3, -24
 2410 0b44 4883EC68 		subq	$104, %rsp
 2411              		.cfi_def_cfa_offset 128
 2412 0b48 488D7C24 		leaq	32(%rsp), %rdi
 2412      20
 2413              	.LEHB69:
 2414 0b4d E8000000 		call	_ZN8UnitTest4TestC1EPKcS2_S2_i
 2414      00
 2415              	.LEHE69:
 2416 0b52 48837C24 		cmpq	$0, 40(%rsp)
 2416      2800
 2417 0b58 7446     		je	.L214
 2418              	.L199:
 2419              	.LEHB70:
 2420 0b5a E8000000 		call	_ZN8UnitTest11CurrentTest7DetailsEv
 2420      00
 2421 0b5f 488B30   		movq	(%rax), %rsi
 2422 0b62 BA6A0000 		movl	$106, %edx
 2422      00
 2423 0b67 4889E7   		movq	%rsp, %rdi
 2424 0b6a E8000000 		call	_ZN8UnitTest11TestDetailsC1ERKS0_i
 2424      00
 2425 0b6f 488B6C24 		movq	40(%rsp), %rbp
 2425      28
 2426 0b74 E8000000 		call	_ZN8UnitTest11CurrentTest7ResultsEv
 2426      00
 2427 0b79 488B38   		movq	(%rax), %rdi
 2428 0b7c 4889E1   		movq	%rsp, %rcx
 2429 0b7f 4889EA   		movq	%rbp, %rdx
 2430 0b82 BE000000 		movl	$.LC7, %esi
 2430      00
 2431 0b87 E8000000 		call	_ZN8UnitTest10CheckEqualERNS_11TestResultsEPKcS3_RKNS_11TestDetailsE
 2431      00
 2432              	.LEHE70:
 2433              	.L206:
 2434 0b8c 488D7C24 		leaq	32(%rsp), %rdi
 2434      20
 2435              	.LEHB71:
 2436 0b91 E8000000 		call	_ZN8UnitTest4TestD1Ev
 2436      00
 2437              	.LEHE71:
 2438 0b96 4883C468 		addq	$104, %rsp
 2439              		.cfi_remember_state
 2440              		.cfi_def_cfa_offset 24
 2441 0b9a 5B       		popq	%rbx
 2442              		.cfi_def_cfa_offset 16
 2443 0b9b 5D       		popq	%rbp
 2444              		.cfi_def_cfa_offset 8
 2445 0b9c C3       		ret
 2446 0b9d 0F1F00   		.p2align 4,,10
 2447              		.p2align 3
 2448              	.L214:
 2449              		.cfi_restore_state
 2450              	.LEHB72:
 2451 0ba0 E8000000 		call	_ZN8UnitTest11CurrentTest7DetailsEv
 2451      00
 2452 0ba5 488B30   		movq	(%rax), %rsi
 2453 0ba8 BA690000 		movl	$105, %edx
 2453      00
 2454 0bad 4889E7   		movq	%rsp, %rdi
 2455 0bb0 E8000000 		call	_ZN8UnitTest11TestDetailsC1ERKS0_i
 2455      00
 2456 0bb5 E8000000 		call	_ZN8UnitTest11CurrentTest7ResultsEv
 2456      00
 2457 0bba 488B38   		movq	(%rax), %rdi
 2458 0bbd BA000000 		movl	$.LC23, %edx
 2458      00
 2459 0bc2 4889E6   		movq	%rsp, %rsi
 2460 0bc5 E8000000 		call	_ZN8UnitTest11TestResults13OnTestFailureERKNS_11TestDetailsEPKc
 2460      00
 2461              	.LEHE72:
 2462 0bca EB8E     		jmp	.L199
 2463              	.L207:
 2464 0bcc 4889C7   		movq	%rax, %rdi
 2465 0bcf E8000000 		call	__cxa_begin_catch
 2465      00
 2466              		.p2align 4,,5
 2467              	.LEHB73:
 2468 0bd4 E8000000 		call	_ZN8UnitTest11CurrentTest7DetailsEv
 2468      00
 2469 0bd9 488B30   		movq	(%rax), %rsi
 2470 0bdc BA690000 		movl	$105, %edx
 2470      00
 2471 0be1 4889E7   		movq	%rsp, %rdi
 2472 0be4 E8000000 		call	_ZN8UnitTest11TestDetailsC1ERKS0_i
 2472      00
 2473 0be9 E8000000 		call	_ZN8UnitTest11CurrentTest7ResultsEv
 2473      00
 2474 0bee 488B38   		movq	(%rax), %rdi
 2475 0bf1 BA000000 		movl	$.LC24, %edx
 2475      00
 2476 0bf6 4889E6   		movq	%rsp, %rsi
 2477 0bf9 E8000000 		call	_ZN8UnitTest11TestResults13OnTestFailureERKNS_11TestDetailsEPKc
 2477      00
 2478              	.LEHE73:
 2479              	.LEHB74:
 2480 0bfe E8000000 		call	__cxa_end_catch
 2480      00
 2481              	.LEHE74:
 2482 0c03 E952FFFF 		jmp	.L199
 2482      FF
 2483              	.L210:
 2484 0c08 4889C7   		movq	%rax, %rdi
 2485 0c0b 0F1F4400 		.p2align 4,,5
 2485      00
 2486 0c10 E8000000 		call	__cxa_begin_catch
 2486      00
 2487              		.p2align 4,,5
 2488              	.LEHB75:
 2489 0c15 E8000000 		call	_ZN8UnitTest11CurrentTest7DetailsEv
 2489      00
 2490 0c1a 488B30   		movq	(%rax), %rsi
 2491 0c1d BA6A0000 		movl	$106, %edx
 2491      00
 2492 0c22 4889E7   		movq	%rsp, %rdi
 2493 0c25 E8000000 		call	_ZN8UnitTest11TestDetailsC1ERKS0_i
 2493      00
 2494 0c2a E8000000 		call	_ZN8UnitTest11CurrentTest7ResultsEv
 2494      00
 2495 0c2f 488B38   		movq	(%rax), %rdi
 2496 0c32 BA000000 		movl	$.LC26, %edx
 2496      00
 2497 0c37 4889E6   		movq	%rsp, %rsi
 2498 0c3a E8000000 		call	_ZN8UnitTest11TestResults13OnTestFailureERKNS_11TestDetailsEPKc
 2498      00
 2499              	.LEHE75:
 2500              	.LEHB76:
 2501 0c3f E8000000 		call	__cxa_end_catch
 2501      00
 2502              	.LEHE76:
 2503 0c44 E943FFFF 		jmp	.L206
 2503      FF
 2504              	.L208:
 2505 0c49 4889C3   		movq	%rax, %rbx
 2506              	.L201:
 2507 0c4c 488D7C24 		leaq	32(%rsp), %rdi
 2507      20
 2508 0c51 E8000000 		call	_ZN8UnitTest4TestD1Ev
 2508      00
 2509 0c56 4889DF   		movq	%rbx, %rdi
 2510              	.LEHB77:
 2511 0c59 E8000000 		call	_Unwind_Resume
 2511      00
 2512              	.LEHE77:
 2513              	.L209:
 2514 0c5e 4889C3   		movq	%rax, %rbx
 2515 0c61 E8000000 		call	__cxa_end_catch
 2515      00
 2516 0c66 EBE4     		jmp	.L201
 2517              	.L211:
 2518 0c68 4889C3   		movq	%rax, %rbx
 2519 0c6b E8000000 		call	__cxa_end_catch
 2519      00
 2520              		.p2align 4,,5
 2521 0c70 EBDA     		jmp	.L201
 2522              		.cfi_endproc
 2523              	.LFE1093:
 2524              		.section	.gcc_except_table
 2525              		.align 4
 2526              	.LLSDA1093:
 2527 01c0 FF       		.byte	0xff
 2528 01c1 03       		.byte	0x3
 2529 01c2 39       		.uleb128 .LLSDATT1093-.LLSDATTD1093
 2530              	.LLSDATTD1093:
 2531 01c3 01       		.byte	0x1
 2532 01c4 2F       		.uleb128 .LLSDACSE1093-.LLSDACSB1093
 2533              	.LLSDACSB1093:
 2534 01c5 1D       		.uleb128 .LEHB69-.LFB1093
 2535 01c6 05       		.uleb128 .LEHE69-.LEHB69
 2536 01c7 00       		.uleb128 0
 2537 01c8 00       		.uleb128 0
 2538 01c9 2A       		.uleb128 .LEHB70-.LFB1093
 2539 01ca 32       		.uleb128 .LEHE70-.LEHB70
 2540 01cb D801     		.uleb128 .L210-.LFB1093
 2541 01cd 01       		.uleb128 0x1
 2542 01ce 61       		.uleb128 .LEHB71-.LFB1093
 2543 01cf 05       		.uleb128 .LEHE71-.LEHB71
 2544 01d0 00       		.uleb128 0
 2545 01d1 00       		.uleb128 0
 2546 01d2 70       		.uleb128 .LEHB72-.LFB1093
 2547 01d3 2A       		.uleb128 .LEHE72-.LEHB72
 2548 01d4 9C01     		.uleb128 .L207-.LFB1093
 2549 01d6 01       		.uleb128 0x1
 2550 01d7 A401     		.uleb128 .LEHB73-.LFB1093
 2551 01d9 2A       		.uleb128 .LEHE73-.LEHB73
 2552 01da AE02     		.uleb128 .L209-.LFB1093
 2553 01dc 00       		.uleb128 0
 2554 01dd CE01     		.uleb128 .LEHB74-.LFB1093
 2555 01df 05       		.uleb128 .LEHE74-.LEHB74
 2556 01e0 9902     		.uleb128 .L208-.LFB1093
 2557 01e2 00       		.uleb128 0
 2558 01e3 E501     		.uleb128 .LEHB75-.LFB1093
 2559 01e5 2A       		.uleb128 .LEHE75-.LEHB75
 2560 01e6 B802     		.uleb128 .L211-.LFB1093
 2561 01e8 00       		.uleb128 0
 2562 01e9 8F02     		.uleb128 .LEHB76-.LFB1093
 2563 01eb 05       		.uleb128 .LEHE76-.LEHB76
 2564 01ec 9902     		.uleb128 .L208-.LFB1093
 2565 01ee 00       		.uleb128 0
 2566 01ef A902     		.uleb128 .LEHB77-.LFB1093
 2567 01f1 05       		.uleb128 .LEHE77-.LEHB77
 2568 01f2 00       		.uleb128 0
 2569 01f3 00       		.uleb128 0
 2570              	.LLSDACSE1093:
 2571 01f4 01       		.byte	0x1
 2572 01f5 00       		.byte	0
 2573 01f6 0000     		.align 4
 2574 01f8 00000000 		.long	0
 2575              	
 2576              	.LLSDATT1093:
 2577              		.text
 2579              		.section	.rodata
 2580              		.align 32
 2583              	_ZTSN12_GLOBAL__N_128TestPassingTestHasNoFailuresE:
 2584 0000 2A4E3132 		.string	"*N12_GLOBAL__N_128TestPassingTestHasNoFailuresE"
 2584      5F474C4F 
 2584      42414C5F 
 2584      5F4E5F31 
 2584      32385465 
 2585 0030 00000000 		.align 32
 2585      00000000 
 2585      00000000 
 2585      00000000 
 2588              	_ZTSZNK12_GLOBAL__N_128TestPassingTestHasNoFailures7RunImplEvE11PassingTest:
 2589 0040 2A5A4E4B 		.string	"*ZNK12_GLOBAL__N_128TestPassingTestHasNoFailures7RunImplEvE11PassingTest"
 2589      31325F47 
 2589      4C4F4241 
 2589      4C5F5F4E 
 2589      5F313238 
 2590 0089 00000000 		.align 32
 2590      00000000 
 2590      00000000 
 2590      00000000 
 2590      00000000 
 2593              	_ZTSN12_GLOBAL__N_126TestFailingTestHasFailuresE:
 2594 00a0 2A4E3132 		.string	"*N12_GLOBAL__N_126TestFailingTestHasFailuresE"
 2594      5F474C4F 
 2594      42414C5F 
 2594      5F4E5F31 
 2594      32365465 
 2595 00ce 00000000 		.align 32
 2595      00000000 
 2595      00000000 
 2595      00000000 
 2595      0000
 2598              	_ZTSZNK12_GLOBAL__N_126TestFailingTestHasFailures7RunImplEvE11FailingTest:
 2599 00e0 2A5A4E4B 		.string	"*ZNK12_GLOBAL__N_126TestFailingTestHasFailures7RunImplEvE11FailingTest"
 2599      31325F47 
 2599      4C4F4241 
 2599      4C5F5F4E 
 2599      5F313236 
 2600 0127 00000000 		.align 32
 2600      00000000 
 2600      00000000 
 2600      00000000 
 2600      00000000 
 2603              	_ZTSN12_GLOBAL__N_138TestThrowingTestsAreReportedAsFailuresE:
 2604 0140 2A4E3132 		.string	"*N12_GLOBAL__N_138TestThrowingTestsAreReportedAsFailuresE"
 2604      5F474C4F 
 2604      42414C5F 
 2604      5F4E5F31 
 2604      33385465 
 2605 017a 00000000 		.align 32
 2605      0000
 2608              	_ZTSZNK12_GLOBAL__N_138TestThrowingTestsAreReportedAsFailures7RunImplEvE12CrashingTest:
 2609 0180 2A5A4E4B 		.string	"*ZNK12_GLOBAL__N_138TestThrowingTestsAreReportedAsFailures7RunImplEvE12CrashingTest"
 2609      31325F47 
 2609      4C4F4241 
 2609      4C5F5F4E 
 2609      5F313338 
 2610 01d4 00000000 		.align 32
 2610      00000000 
 2610      00000000 
 2613              	_ZTSN12_GLOBAL__N_138TestCrashingTestsAreReportedAsFailuresE:
 2614 01e0 2A4E3132 		.string	"*N12_GLOBAL__N_138TestCrashingTestsAreReportedAsFailuresE"
 2614      5F474C4F 
 2614      42414C5F 
 2614      5F4E5F31 
 2614      33385465 
 2615 021a 00000000 		.align 32
 2615      0000
 2618              	_ZTSZNK12_GLOBAL__N_138TestCrashingTestsAreReportedAsFailures7RunImplEvE12CrashingTest:
 2619 0220 2A5A4E4B 		.string	"*ZNK12_GLOBAL__N_138TestCrashingTestsAreReportedAsFailures7RunImplEvE12CrashingTest"
 2619      31325F47 
 2619      4C4F4241 
 2619      4C5F5F4E 
 2619      5F313338 
 2620 0274 00000000 		.align 32
 2620      00000000 
 2620      00000000 
 2623              	_ZTSN12_GLOBAL__N_144TestTestWithUnspecifiedSuiteGetsDefaultSuiteE:
 2624 0280 2A4E3132 		.string	"*N12_GLOBAL__N_144TestTestWithUnspecifiedSuiteGetsDefaultSuiteE"
 2624      5F474C4F 
 2624      42414C5F 
 2624      5F4E5F31 
 2624      34345465 
 2625              		.align 32
 2628              	_ZTSN12_GLOBAL__N_134TestTestReflectsSpecifiedSuiteNameE:
 2629 02c0 2A4E3132 		.string	"*N12_GLOBAL__N_134TestTestReflectsSpecifiedSuiteNameE"
 2629      5F474C4F 
 2629      42414C5F 
 2629      5F4E5F31 
 2629      33345465 
 2630 02f6 00000000 		.align 32
 2630      00000000 
 2630      0000
 2633              	_ZTSN12_GLOBAL__N_136TestOutOfCoreCHECKMacrosCanFailTestsE:
 2634 0300 2A4E3132 		.string	"*N12_GLOBAL__N_136TestOutOfCoreCHECKMacrosCanFailTestsE"
 2634      5F474C4F 
 2634      42414C5F 
 2634      5F4E5F31 
 2634      33365465 
 2635 0338 00000000 		.align 16
 2635      00000000 
 2638              	_ZTIN12_GLOBAL__N_136TestOutOfCoreCHECKMacrosCanFailTestsE:
 2639 0340 00000000 		.quad	_ZTVN10__cxxabiv120__si_class_type_infoE+16
 2639      00000000 
 2640 0348 00000000 		.quad	_ZTSN12_GLOBAL__N_136TestOutOfCoreCHECKMacrosCanFailTestsE
 2640      00000000 
 2641 0350 00000000 		.quad	_ZTIN8UnitTest4TestE
 2641      00000000 
 2642 0358 00000000 		.align 16
 2642      00000000 
 2645              	_ZTIN12_GLOBAL__N_134TestTestReflectsSpecifiedSuiteNameE:
 2646 0360 00000000 		.quad	_ZTVN10__cxxabiv120__si_class_type_infoE+16
 2646      00000000 
 2647 0368 00000000 		.quad	_ZTSN12_GLOBAL__N_134TestTestReflectsSpecifiedSuiteNameE
 2647      00000000 
 2648 0370 00000000 		.quad	_ZTIN8UnitTest4TestE
 2648      00000000 
 2649 0378 00000000 		.align 16
 2649      00000000 
 2652              	_ZTIN12_GLOBAL__N_144TestTestWithUnspecifiedSuiteGetsDefaultSuiteE:
 2653 0380 00000000 		.quad	_ZTVN10__cxxabiv120__si_class_type_infoE+16
 2653      00000000 
 2654 0388 00000000 		.quad	_ZTSN12_GLOBAL__N_144TestTestWithUnspecifiedSuiteGetsDefaultSuiteE
 2654      00000000 
 2655 0390 00000000 		.quad	_ZTIN8UnitTest4TestE
 2655      00000000 
 2656 0398 00000000 		.align 16
 2656      00000000 
 2659              	_ZTIZNK12_GLOBAL__N_138TestCrashingTestsAreReportedAsFailures7RunImplEvE12CrashingTest:
 2660 03a0 00000000 		.quad	_ZTVN10__cxxabiv120__si_class_type_infoE+16
 2660      00000000 
 2661 03a8 00000000 		.quad	_ZTSZNK12_GLOBAL__N_138TestCrashingTestsAreReportedAsFailures7RunImplEvE12CrashingTest
 2661      00000000 
 2662 03b0 00000000 		.quad	_ZTIN8UnitTest4TestE
 2662      00000000 
 2663 03b8 00000000 		.align 16
 2663      00000000 
 2666              	_ZTIN12_GLOBAL__N_138TestCrashingTestsAreReportedAsFailuresE:
 2667 03c0 00000000 		.quad	_ZTVN10__cxxabiv120__si_class_type_infoE+16
 2667      00000000 
 2668 03c8 00000000 		.quad	_ZTSN12_GLOBAL__N_138TestCrashingTestsAreReportedAsFailuresE
 2668      00000000 
 2669 03d0 00000000 		.quad	_ZTIN8UnitTest4TestE
 2669      00000000 
 2670 03d8 00000000 		.align 16
 2670      00000000 
 2673              	_ZTIZNK12_GLOBAL__N_138TestThrowingTestsAreReportedAsFailures7RunImplEvE12CrashingTest:
 2674 03e0 00000000 		.quad	_ZTVN10__cxxabiv120__si_class_type_infoE+16
 2674      00000000 
 2675 03e8 00000000 		.quad	_ZTSZNK12_GLOBAL__N_138TestThrowingTestsAreReportedAsFailures7RunImplEvE12CrashingTest
 2675      00000000 
 2676 03f0 00000000 		.quad	_ZTIN8UnitTest4TestE
 2676      00000000 
 2677 03f8 00000000 		.align 16
 2677      00000000 
 2680              	_ZTIN12_GLOBAL__N_138TestThrowingTestsAreReportedAsFailuresE:
 2681 0400 00000000 		.quad	_ZTVN10__cxxabiv120__si_class_type_infoE+16
 2681      00000000 
 2682 0408 00000000 		.quad	_ZTSN12_GLOBAL__N_138TestThrowingTestsAreReportedAsFailuresE
 2682      00000000 
 2683 0410 00000000 		.quad	_ZTIN8UnitTest4TestE
 2683      00000000 
 2684 0418 00000000 		.align 16
 2684      00000000 
 2687              	_ZTIZNK12_GLOBAL__N_126TestFailingTestHasFailures7RunImplEvE11FailingTest:
 2688 0420 00000000 		.quad	_ZTVN10__cxxabiv120__si_class_type_infoE+16
 2688      00000000 
 2689 0428 00000000 		.quad	_ZTSZNK12_GLOBAL__N_126TestFailingTestHasFailures7RunImplEvE11FailingTest
 2689      00000000 
 2690 0430 00000000 		.quad	_ZTIN8UnitTest4TestE
 2690      00000000 
 2691 0438 00000000 		.align 16
 2691      00000000 
 2694              	_ZTIN12_GLOBAL__N_126TestFailingTestHasFailuresE:
 2695 0440 00000000 		.quad	_ZTVN10__cxxabiv120__si_class_type_infoE+16
 2695      00000000 
 2696 0448 00000000 		.quad	_ZTSN12_GLOBAL__N_126TestFailingTestHasFailuresE
 2696      00000000 
 2697 0450 00000000 		.quad	_ZTIN8UnitTest4TestE
 2697      00000000 
 2698 0458 00000000 		.align 16
 2698      00000000 
 2701              	_ZTIZNK12_GLOBAL__N_128TestPassingTestHasNoFailures7RunImplEvE11PassingTest:
 2702 0460 00000000 		.quad	_ZTVN10__cxxabiv120__si_class_type_infoE+16
 2702      00000000 
 2703 0468 00000000 		.quad	_ZTSZNK12_GLOBAL__N_128TestPassingTestHasNoFailures7RunImplEvE11PassingTest
 2703      00000000 
 2704 0470 00000000 		.quad	_ZTIN8UnitTest4TestE
 2704      00000000 
 2705 0478 00000000 		.align 16
 2705      00000000 
 2708              	_ZTIN12_GLOBAL__N_128TestPassingTestHasNoFailuresE:
 2709 0480 00000000 		.quad	_ZTVN10__cxxabiv120__si_class_type_infoE+16
 2709      00000000 
 2710 0488 00000000 		.quad	_ZTSN12_GLOBAL__N_128TestPassingTestHasNoFailuresE
 2710      00000000 
 2711 0490 00000000 		.quad	_ZTIN8UnitTest4TestE
 2711      00000000 
 2712              		.weak	_ZTIN8UnitTest15MemoryOutStreamE
 2713              		.section	.rodata._ZTIN8UnitTest15MemoryOutStreamE,"aG",@progbits,_ZTIN8UnitTest15MemoryOutStreamE,
 2714              		.align 16
 2717              	_ZTIN8UnitTest15MemoryOutStreamE:
 2718 0000 00000000 		.quad	_ZTVN10__cxxabiv120__si_class_type_infoE+16
 2718      00000000 
 2719 0008 00000000 		.quad	_ZTSN8UnitTest15MemoryOutStreamE
 2719      00000000 
 2720 0010 00000000 		.quad	_ZTISt19basic_ostringstreamIcSt11char_traitsIcESaIcEE
 2720      00000000 
 2721              		.weak	_ZTSN8UnitTest15MemoryOutStreamE
 2722              		.section	.rodata._ZTSN8UnitTest15MemoryOutStreamE,"aG",@progbits,_ZTSN8UnitTest15MemoryOutStreamE,
 2723              		.align 16
 2726              	_ZTSN8UnitTest15MemoryOutStreamE:
 2727 0000 4E38556E 		.string	"N8UnitTest15MemoryOutStreamE"
 2727      69745465 
 2727      73743135 
 2727      4D656D6F 
 2727      72794F75 
 2728              		.hidden	_ZTCN8UnitTest15MemoryOutStreamE0_So
 2729              		.weak	_ZTCN8UnitTest15MemoryOutStreamE0_So
 2730              		.section	.rodata._ZTCN8UnitTest15MemoryOutStreamE0_So,"aG",@progbits,_ZTVN8UnitTest15MemoryOutStre
 2731              		.align 32
 2734              	_ZTCN8UnitTest15MemoryOutStreamE0_So:
 2735 0000 60000000 		.quad	96
 2735      00000000 
 2736 0008 00000000 		.quad	0
 2736      00000000 
 2737 0010 00000000 		.quad	_ZTISo
 2737      00000000 
 2738 0018 00000000 		.quad	_ZNSoD1Ev
 2738      00000000 
 2739 0020 00000000 		.quad	_ZNSoD0Ev
 2739      00000000 
 2740 0028 A0FFFFFF 		.quad	-96
 2740      FFFFFFFF 
 2741 0030 A0FFFFFF 		.quad	-96
 2741      FFFFFFFF 
 2742 0038 00000000 		.quad	_ZTISo
 2742      00000000 
 2743 0040 00000000 		.quad	_ZTv0_n24_NSoD1Ev
 2743      00000000 
 2744 0048 00000000 		.quad	_ZTv0_n24_NSoD0Ev
 2744      00000000 
 2745              		.hidden	_ZTCN8UnitTest15MemoryOutStreamE0_St19basic_ostringstreamIcSt11char_traitsIcESaIcEE
 2746              		.weak	_ZTCN8UnitTest15MemoryOutStreamE0_St19basic_ostringstreamIcSt11char_traitsIcESaIcEE
 2747              		.section	.rodata._ZTCN8UnitTest15MemoryOutStreamE0_St19basic_ostringstreamIcSt11char_traitsIcESaIc
 2748              		.align 32
 2751              	_ZTCN8UnitTest15MemoryOutStreamE0_St19basic_ostringstreamIcSt11char_traitsIcESaIcEE:
 2752 0000 60000000 		.quad	96
 2752      00000000 
 2753 0008 00000000 		.quad	0
 2753      00000000 
 2754 0010 00000000 		.quad	_ZTISt19basic_ostringstreamIcSt11char_traitsIcESaIcEE
 2754      00000000 
 2755 0018 00000000 		.quad	_ZNSt19basic_ostringstreamIcSt11char_traitsIcESaIcEED1Ev
 2755      00000000 
 2756 0020 00000000 		.quad	_ZNSt19basic_ostringstreamIcSt11char_traitsIcESaIcEED0Ev
 2756      00000000 
 2757 0028 A0FFFFFF 		.quad	-96
 2757      FFFFFFFF 
 2758 0030 A0FFFFFF 		.quad	-96
 2758      FFFFFFFF 
 2759 0038 00000000 		.quad	_ZTISt19basic_ostringstreamIcSt11char_traitsIcESaIcEE
 2759      00000000 
 2760 0040 00000000 		.quad	_ZTv0_n24_NSt19basic_ostringstreamIcSt11char_traitsIcESaIcEED1Ev
 2760      00000000 
 2761 0048 00000000 		.quad	_ZTv0_n24_NSt19basic_ostringstreamIcSt11char_traitsIcESaIcEED0Ev
 2761      00000000 
 2762              		.weak	_ZTTN8UnitTest15MemoryOutStreamE
 2763              		.section	.rodata._ZTTN8UnitTest15MemoryOutStreamE,"aG",@progbits,_ZTVN8UnitTest15MemoryOutStreamE,
 2764              		.align 32
 2767              	_ZTTN8UnitTest15MemoryOutStreamE:
 2768 0000 00000000 		.quad	_ZTVN8UnitTest15MemoryOutStreamE+24
 2768      00000000 
 2769 0008 00000000 		.quad	_ZTCN8UnitTest15MemoryOutStreamE0_St19basic_ostringstreamIcSt11char_traitsIcESaIcEE+24
 2769      00000000 
 2770 0010 00000000 		.quad	_ZTCN8UnitTest15MemoryOutStreamE0_So+24
 2770      00000000 
 2771 0018 00000000 		.quad	_ZTCN8UnitTest15MemoryOutStreamE0_So+64
 2771      00000000 
 2772 0020 00000000 		.quad	_ZTCN8UnitTest15MemoryOutStreamE0_St19basic_ostringstreamIcSt11char_traitsIcESaIcEE+64
 2772      00000000 
 2773 0028 00000000 		.quad	_ZTVN8UnitTest15MemoryOutStreamE+64
 2773      00000000 
 2774              		.weak	_ZTVN8UnitTest15MemoryOutStreamE
 2775              		.section	.rodata._ZTVN8UnitTest15MemoryOutStreamE,"aG",@progbits,_ZTVN8UnitTest15MemoryOutStreamE,
 2776              		.align 32
 2779              	_ZTVN8UnitTest15MemoryOutStreamE:
 2780 0000 60000000 		.quad	96
 2780      00000000 
 2781 0008 00000000 		.quad	0
 2781      00000000 
 2782 0010 00000000 		.quad	_ZTIN8UnitTest15MemoryOutStreamE
 2782      00000000 
 2783 0018 00000000 		.quad	_ZN8UnitTest15MemoryOutStreamD1Ev
 2783      00000000 
 2784 0020 00000000 		.quad	_ZN8UnitTest15MemoryOutStreamD0Ev
 2784      00000000 
 2785 0028 A0FFFFFF 		.quad	-96
 2785      FFFFFFFF 
 2786 0030 A0FFFFFF 		.quad	-96
 2786      FFFFFFFF 
 2787 0038 00000000 		.quad	_ZTIN8UnitTest15MemoryOutStreamE
 2787      00000000 
 2788 0040 00000000 		.quad	_ZTv0_n24_N8UnitTest15MemoryOutStreamD1Ev
 2788      00000000 
 2789 0048 00000000 		.quad	_ZTv0_n24_N8UnitTest15MemoryOutStreamD0Ev
 2789      00000000 
 2790              		.section	.rodata
 2791 0498 00000000 		.align 32
 2791      00000000 
 2794              	_ZTVZNK12_GLOBAL__N_128TestPassingTestHasNoFailures7RunImplEvE11PassingTest:
 2795 04a0 00000000 		.quad	0
 2795      00000000 
 2796 04a8 00000000 		.quad	_ZTIZNK12_GLOBAL__N_128TestPassingTestHasNoFailures7RunImplEvE11PassingTest
 2796      00000000 
 2797 04b0 00000000 		.quad	_ZZNK12_GLOBAL__N_128TestPassingTestHasNoFailures7RunImplEvEN11PassingTestD1Ev
 2797      00000000 
 2798 04b8 00000000 		.quad	_ZZNK12_GLOBAL__N_128TestPassingTestHasNoFailures7RunImplEvEN11PassingTestD0Ev
 2798      00000000 
 2799 04c0 00000000 		.quad	_ZZNK12_GLOBAL__N_128TestPassingTestHasNoFailures7RunImplEvENK11PassingTest7RunImplEv
 2799      00000000 
 2800 04c8 00000000 		.align 32
 2800      00000000 
 2800      00000000 
 2800      00000000 
 2800      00000000 
 2803              	_ZTVN12_GLOBAL__N_128TestPassingTestHasNoFailuresE:
 2804 04e0 00000000 		.quad	0
 2804      00000000 
 2805 04e8 00000000 		.quad	_ZTIN12_GLOBAL__N_128TestPassingTestHasNoFailuresE
 2805      00000000 
 2806 04f0 00000000 		.quad	_ZN12_GLOBAL__N_128TestPassingTestHasNoFailuresD1Ev
 2806      00000000 
 2807 04f8 00000000 		.quad	_ZN12_GLOBAL__N_128TestPassingTestHasNoFailuresD0Ev
 2807      00000000 
 2808 0500 00000000 		.quad	_ZNK12_GLOBAL__N_128TestPassingTestHasNoFailures7RunImplEv
 2808      00000000 
 2809 0508 00000000 		.align 32
 2809      00000000 
 2809      00000000 
 2809      00000000 
 2809      00000000 
 2812              	_ZTVZNK12_GLOBAL__N_126TestFailingTestHasFailures7RunImplEvE11FailingTest:
 2813 0520 00000000 		.quad	0
 2813      00000000 
 2814 0528 00000000 		.quad	_ZTIZNK12_GLOBAL__N_126TestFailingTestHasFailures7RunImplEvE11FailingTest
 2814      00000000 
 2815 0530 00000000 		.quad	_ZZNK12_GLOBAL__N_126TestFailingTestHasFailures7RunImplEvEN11FailingTestD1Ev
 2815      00000000 
 2816 0538 00000000 		.quad	_ZZNK12_GLOBAL__N_126TestFailingTestHasFailures7RunImplEvEN11FailingTestD0Ev
 2816      00000000 
 2817 0540 00000000 		.quad	_ZZNK12_GLOBAL__N_126TestFailingTestHasFailures7RunImplEvENK11FailingTest7RunImplEv
 2817      00000000 
 2818 0548 00000000 		.align 32
 2818      00000000 
 2818      00000000 
 2818      00000000 
 2818      00000000 
 2821              	_ZTVN12_GLOBAL__N_126TestFailingTestHasFailuresE:
 2822 0560 00000000 		.quad	0
 2822      00000000 
 2823 0568 00000000 		.quad	_ZTIN12_GLOBAL__N_126TestFailingTestHasFailuresE
 2823      00000000 
 2824 0570 00000000 		.quad	_ZN12_GLOBAL__N_126TestFailingTestHasFailuresD1Ev
 2824      00000000 
 2825 0578 00000000 		.quad	_ZN12_GLOBAL__N_126TestFailingTestHasFailuresD0Ev
 2825      00000000 
 2826 0580 00000000 		.quad	_ZNK12_GLOBAL__N_126TestFailingTestHasFailures7RunImplEv
 2826      00000000 
 2827 0588 00000000 		.align 32
 2827      00000000 
 2827      00000000 
 2827      00000000 
 2827      00000000 
 2830              	_ZTVZNK12_GLOBAL__N_138TestThrowingTestsAreReportedAsFailures7RunImplEvE12CrashingTest:
 2831 05a0 00000000 		.quad	0
 2831      00000000 
 2832 05a8 00000000 		.quad	_ZTIZNK12_GLOBAL__N_138TestThrowingTestsAreReportedAsFailures7RunImplEvE12CrashingTest
 2832      00000000 
 2833 05b0 00000000 		.quad	_ZZNK12_GLOBAL__N_138TestThrowingTestsAreReportedAsFailures7RunImplEvEN12CrashingTestD1Ev
 2833      00000000 
 2834 05b8 00000000 		.quad	_ZZNK12_GLOBAL__N_138TestThrowingTestsAreReportedAsFailures7RunImplEvEN12CrashingTestD0Ev
 2834      00000000 
 2835 05c0 00000000 		.quad	_ZZNK12_GLOBAL__N_138TestThrowingTestsAreReportedAsFailures7RunImplEvENK12CrashingTest7RunIm
 2835      00000000 
 2836 05c8 00000000 		.align 32
 2836      00000000 
 2836      00000000 
 2836      00000000 
 2836      00000000 
 2839              	_ZTVN12_GLOBAL__N_138TestThrowingTestsAreReportedAsFailuresE:
 2840 05e0 00000000 		.quad	0
 2840      00000000 
 2841 05e8 00000000 		.quad	_ZTIN12_GLOBAL__N_138TestThrowingTestsAreReportedAsFailuresE
 2841      00000000 
 2842 05f0 00000000 		.quad	_ZN12_GLOBAL__N_138TestThrowingTestsAreReportedAsFailuresD1Ev
 2842      00000000 
 2843 05f8 00000000 		.quad	_ZN12_GLOBAL__N_138TestThrowingTestsAreReportedAsFailuresD0Ev
 2843      00000000 
 2844 0600 00000000 		.quad	_ZNK12_GLOBAL__N_138TestThrowingTestsAreReportedAsFailures7RunImplEv
 2844      00000000 
 2845 0608 00000000 		.align 32
 2845      00000000 
 2845      00000000 
 2845      00000000 
 2845      00000000 
 2848              	_ZTVZNK12_GLOBAL__N_138TestCrashingTestsAreReportedAsFailures7RunImplEvE12CrashingTest:
 2849 0620 00000000 		.quad	0
 2849      00000000 
 2850 0628 00000000 		.quad	_ZTIZNK12_GLOBAL__N_138TestCrashingTestsAreReportedAsFailures7RunImplEvE12CrashingTest
 2850      00000000 
 2851 0630 00000000 		.quad	_ZZNK12_GLOBAL__N_138TestCrashingTestsAreReportedAsFailures7RunImplEvEN12CrashingTestD1Ev
 2851      00000000 
 2852 0638 00000000 		.quad	_ZZNK12_GLOBAL__N_138TestCrashingTestsAreReportedAsFailures7RunImplEvEN12CrashingTestD0Ev
 2852      00000000 
 2853 0640 00000000 		.quad	_ZZNK12_GLOBAL__N_138TestCrashingTestsAreReportedAsFailures7RunImplEvENK12CrashingTest7RunIm
 2853      00000000 
 2854 0648 00000000 		.align 32
 2854      00000000 
 2854      00000000 
 2854      00000000 
 2854      00000000 
 2857              	_ZTVN12_GLOBAL__N_138TestCrashingTestsAreReportedAsFailuresE:
 2858 0660 00000000 		.quad	0
 2858      00000000 
 2859 0668 00000000 		.quad	_ZTIN12_GLOBAL__N_138TestCrashingTestsAreReportedAsFailuresE
 2859      00000000 
 2860 0670 00000000 		.quad	_ZN12_GLOBAL__N_138TestCrashingTestsAreReportedAsFailuresD1Ev
 2860      00000000 
 2861 0678 00000000 		.quad	_ZN12_GLOBAL__N_138TestCrashingTestsAreReportedAsFailuresD0Ev
 2861      00000000 
 2862 0680 00000000 		.quad	_ZNK12_GLOBAL__N_138TestCrashingTestsAreReportedAsFailures7RunImplEv
 2862      00000000 
 2863 0688 00000000 		.align 32
 2863      00000000 
 2863      00000000 
 2863      00000000 
 2863      00000000 
 2866              	_ZTVN12_GLOBAL__N_144TestTestWithUnspecifiedSuiteGetsDefaultSuiteE:
 2867 06a0 00000000 		.quad	0
 2867      00000000 
 2868 06a8 00000000 		.quad	_ZTIN12_GLOBAL__N_144TestTestWithUnspecifiedSuiteGetsDefaultSuiteE
 2868      00000000 
 2869 06b0 00000000 		.quad	_ZN12_GLOBAL__N_144TestTestWithUnspecifiedSuiteGetsDefaultSuiteD1Ev
 2869      00000000 
 2870 06b8 00000000 		.quad	_ZN12_GLOBAL__N_144TestTestWithUnspecifiedSuiteGetsDefaultSuiteD0Ev
 2870      00000000 
 2871 06c0 00000000 		.quad	_ZNK12_GLOBAL__N_144TestTestWithUnspecifiedSuiteGetsDefaultSuite7RunImplEv
 2871      00000000 
 2872 06c8 00000000 		.align 32
 2872      00000000 
 2872      00000000 
 2872      00000000 
 2872      00000000 
 2875              	_ZTVN12_GLOBAL__N_134TestTestReflectsSpecifiedSuiteNameE:
 2876 06e0 00000000 		.quad	0
 2876      00000000 
 2877 06e8 00000000 		.quad	_ZTIN12_GLOBAL__N_134TestTestReflectsSpecifiedSuiteNameE
 2877      00000000 
 2878 06f0 00000000 		.quad	_ZN12_GLOBAL__N_134TestTestReflectsSpecifiedSuiteNameD1Ev
 2878      00000000 
 2879 06f8 00000000 		.quad	_ZN12_GLOBAL__N_134TestTestReflectsSpecifiedSuiteNameD0Ev
 2879      00000000 
 2880 0700 00000000 		.quad	_ZNK12_GLOBAL__N_134TestTestReflectsSpecifiedSuiteName7RunImplEv
 2880      00000000 
 2881 0708 00000000 		.align 32
 2881      00000000 
 2881      00000000 
 2881      00000000 
 2881      00000000 
 2884              	_ZTVN12_GLOBAL__N_136TestOutOfCoreCHECKMacrosCanFailTestsE:
 2885 0720 00000000 		.quad	0
 2885      00000000 
 2886 0728 00000000 		.quad	_ZTIN12_GLOBAL__N_136TestOutOfCoreCHECKMacrosCanFailTestsE
 2886      00000000 
 2887 0730 00000000 		.quad	_ZN12_GLOBAL__N_136TestOutOfCoreCHECKMacrosCanFailTestsD1Ev
 2887      00000000 
 2888 0738 00000000 		.quad	_ZN12_GLOBAL__N_136TestOutOfCoreCHECKMacrosCanFailTestsD0Ev
 2888      00000000 
 2889 0740 00000000 		.quad	_ZNK12_GLOBAL__N_136TestOutOfCoreCHECKMacrosCanFailTests7RunImplEv
 2889      00000000 
 2890              		.local	_ZN12_GLOBAL__N_137adderOutOfCoreCHECKMacrosCanFailTestsE
 2891              		.comm	_ZN12_GLOBAL__N_137adderOutOfCoreCHECKMacrosCanFailTestsE,1,1
 2892              		.local	_ZN12_GLOBAL__N_144testOutOfCoreCHECKMacrosCanFailTestsInstanceE
 2893              		.comm	_ZN12_GLOBAL__N_144testOutOfCoreCHECKMacrosCanFailTestsInstanceE,56,32
 2894              		.local	_ZN12_GLOBAL__N_135adderTestReflectsSpecifiedSuiteNameE
 2895              		.comm	_ZN12_GLOBAL__N_135adderTestReflectsSpecifiedSuiteNameE,1,1
 2896              		.local	_ZN12_GLOBAL__N_142testTestReflectsSpecifiedSuiteNameInstanceE
 2897              		.comm	_ZN12_GLOBAL__N_142testTestReflectsSpecifiedSuiteNameInstanceE,56,32
 2898              		.local	_ZN12_GLOBAL__N_145adderTestWithUnspecifiedSuiteGetsDefaultSuiteE
 2899              		.comm	_ZN12_GLOBAL__N_145adderTestWithUnspecifiedSuiteGetsDefaultSuiteE,1,1
 2900              		.local	_ZN12_GLOBAL__N_152testTestWithUnspecifiedSuiteGetsDefaultSuiteInstanceE
 2901              		.comm	_ZN12_GLOBAL__N_152testTestWithUnspecifiedSuiteGetsDefaultSuiteInstanceE,56,32
 2902              		.local	_ZN12_GLOBAL__N_139adderCrashingTestsAreReportedAsFailuresE
 2903              		.comm	_ZN12_GLOBAL__N_139adderCrashingTestsAreReportedAsFailuresE,1,1
 2904              		.local	_ZN12_GLOBAL__N_146testCrashingTestsAreReportedAsFailuresInstanceE
 2905              		.comm	_ZN12_GLOBAL__N_146testCrashingTestsAreReportedAsFailuresInstanceE,56,32
 2906              		.local	_ZN12_GLOBAL__N_139adderThrowingTestsAreReportedAsFailuresE
 2907              		.comm	_ZN12_GLOBAL__N_139adderThrowingTestsAreReportedAsFailuresE,1,1
 2908              		.local	_ZN12_GLOBAL__N_146testThrowingTestsAreReportedAsFailuresInstanceE
 2909              		.comm	_ZN12_GLOBAL__N_146testThrowingTestsAreReportedAsFailuresInstanceE,56,32
 2910              		.local	_ZN12_GLOBAL__N_127adderFailingTestHasFailuresE
 2911              		.comm	_ZN12_GLOBAL__N_127adderFailingTestHasFailuresE,1,1
 2912              		.local	_ZN12_GLOBAL__N_134testFailingTestHasFailuresInstanceE
 2913              		.comm	_ZN12_GLOBAL__N_134testFailingTestHasFailuresInstanceE,56,32
 2914              		.local	_ZN12_GLOBAL__N_129adderPassingTestHasNoFailuresE
 2915              		.comm	_ZN12_GLOBAL__N_129adderPassingTestHasNoFailuresE,1,1
 2916              		.local	_ZN12_GLOBAL__N_136testPassingTestHasNoFailuresInstanceE
 2917              		.comm	_ZN12_GLOBAL__N_136testPassingTestHasNoFailuresInstanceE,56,32
 2918              		.weakref	_ZL28__gthrw___pthread_key_createPjPFvPvE,__pthread_key_create
 2919              		.hidden	__dso_handle
 2920              		.ident	"GCC: (Ubuntu 4.8.4-2ubuntu1~14.04.3) 4.8.4"
 2921              		.section	.note.GNU-stack,"",@progbits