   1              		.file	"TestTestMacros.cpp"
   2              		.text
   3              	.Ltext0:
   4              		.section	.rodata
   5              	.LC0:
   6 0000 44656661 		.string	"DefaultSuite"
   6      756C7453 
   6      75697465 
   6      00
   7              		.section	.text._ZN13UnitTestSuite12GetSuiteNameEv,"axG",@progbits,_ZN13UnitTestSuite12GetSuiteName
   8              		.weak	_ZN13UnitTestSuite12GetSuiteNameEv
  10              	_ZN13UnitTestSuite12GetSuiteNameEv:
  11              	.LFB0:
  12              		.file 1 "../TestSuite.h"
   1:../TestSuite.h **** #ifndef UNITTEST_TESTSUITE_H
   2:../TestSuite.h **** #define UNITTEST_TESTSUITE_H
   3:../TestSuite.h **** 
   4:../TestSuite.h **** namespace UnitTestSuite {
   5:../TestSuite.h **** 
   6:../TestSuite.h ****     inline char const* GetSuiteName ()
   7:../TestSuite.h ****     {
  13              		.loc 1 7 0
  14              		.cfi_startproc
  15 0000 55       		pushq	%rbp
  16              		.cfi_def_cfa_offset 16
  17              		.cfi_offset 6, -16
  18 0001 4889E5   		movq	%rsp, %rbp
  19              		.cfi_def_cfa_register 6
   8:../TestSuite.h ****         return "DefaultSuite";
  20              		.loc 1 8 0
  21 0004 B8000000 		movl	$.LC0, %eax
  21      00
   9:../TestSuite.h ****     }
  22              		.loc 1 9 0
  23 0009 5D       		popq	%rbp
  24              		.cfi_def_cfa 7, 8
  25 000a C3       		ret
  26              		.cfi_endproc
  27              	.LFE0:
  29              		.section	.text._ZN8UnitTest15MemoryOutStreamC1Ev,"axG",@progbits,_ZN8UnitTest15MemoryOutStreamC1Ev
  30              		.align 2
  31              		.weak	_ZN8UnitTest15MemoryOutStreamC1Ev
  33              	_ZN8UnitTest15MemoryOutStreamC1Ev:
  34              	.LFB1007:
  35              		.file 2 "../MemoryOutStream.h"
   1:../MemoryOutStream.h **** #ifndef UNITTEST_MEMORYOUTSTREAM_H
   2:../MemoryOutStream.h **** #define UNITTEST_MEMORYOUTSTREAM_H
   3:../MemoryOutStream.h **** 
   4:../MemoryOutStream.h **** #include "Config.h"
   5:../MemoryOutStream.h **** 
   6:../MemoryOutStream.h **** #ifndef UNITTEST_USE_CUSTOM_STREAMS
   7:../MemoryOutStream.h **** 
   8:../MemoryOutStream.h **** #include <sstream>
   9:../MemoryOutStream.h **** 
  10:../MemoryOutStream.h **** namespace UnitTest
  11:../MemoryOutStream.h **** {
  12:../MemoryOutStream.h **** 
  13:../MemoryOutStream.h **** class MemoryOutStream : public std::ostringstream
  14:../MemoryOutStream.h **** {
  15:../MemoryOutStream.h **** public:
  16:../MemoryOutStream.h ****     MemoryOutStream() {}
  36              		.loc 2 16 0
  37              		.cfi_startproc
  38              		.cfi_personality 0x3,__gxx_personality_v0
  39              		.cfi_lsda 0x3,.LLSDA1007
  40 0000 55       		pushq	%rbp
  41              		.cfi_def_cfa_offset 16
  42              		.cfi_offset 6, -16
  43 0001 4889E5   		movq	%rsp, %rbp
  44              		.cfi_def_cfa_register 6
  45 0004 53       		pushq	%rbx
  46 0005 4883EC18 		subq	$24, %rsp
  47              		.cfi_offset 3, -24
  48 0009 48897DE8 		movq	%rdi, -24(%rbp)
  49              	.LBB2:
  50              		.loc 2 16 0
  51 000d 488B45E8 		movq	-24(%rbp), %rax
  52 0011 4883C060 		addq	$96, %rax
  53 0015 4889C7   		movq	%rax, %rdi
  54              	.LEHB0:
  55 0018 E8000000 		call	_ZNSt9basic_iosIcSt11char_traitsIcEEC2Ev
  55      00
  56              	.LEHE0:
  57 001d B9000000 		movl	$_ZTTN8UnitTest15MemoryOutStreamE+8, %ecx
  57      00
  58 0022 488B45E8 		movq	-24(%rbp), %rax
  59 0026 BA100000 		movl	$16, %edx
  59      00
  60 002b 4889CE   		movq	%rcx, %rsi
  61 002e 4889C7   		movq	%rax, %rdi
  62              	.LEHB1:
  63 0031 E8000000 		call	_ZNSt19basic_ostringstreamIcSt11char_traitsIcESaIcEEC2ESt13_Ios_Openmode
  63      00
  64              	.LEHE1:
  65              		.loc 2 16 0 is_stmt 0 discriminator 6
  66 0036 BA000000 		movl	$_ZTVN8UnitTest15MemoryOutStreamE+24, %edx
  66      00
  67 003b 488B45E8 		movq	-24(%rbp), %rax
  68 003f 488910   		movq	%rdx, (%rax)
  69 0042 BA600000 		movl	$96, %edx
  69      00
  70 0047 488B45E8 		movq	-24(%rbp), %rax
  71 004b 4801C2   		addq	%rax, %rdx
  72 004e B8000000 		movl	$_ZTVN8UnitTest15MemoryOutStreamE+64, %eax
  72      00
  73 0053 488902   		movq	%rax, (%rdx)
  74 0056 488B45E8 		movq	-24(%rbp), %rax
  75 005a 4883C058 		addq	$88, %rax
  76 005e 4889C7   		movq	%rax, %rdi
  77              	.LEHB2:
  78 0061 E8000000 		call	_ZNSsC1Ev
  78      00
  79              	.LEHE2:
  80              	.LBE2:
  81              		.loc 2 16 0
  82 0066 EB37     		jmp	.L8
  83              	.L6:
  84 0068 4889C3   		movq	%rax, %rbx
  85              	.LBB3:
  86 006b BA000000 		movl	$_ZTTN8UnitTest15MemoryOutStreamE+8, %edx
  86      00
  87 0070 488B45E8 		movq	-24(%rbp), %rax
  88 0074 4889D6   		movq	%rdx, %rsi
  89 0077 4889C7   		movq	%rax, %rdi
  90 007a E8000000 		call	_ZNSt19basic_ostringstreamIcSt11char_traitsIcESaIcEED2Ev
  90      00
  91 007f EB03     		jmp	.L5
  92              	.L7:
  93 0081 4889C3   		movq	%rax, %rbx
  94              	.L5:
  95              		.loc 2 16 0 discriminator 19
  96 0084 488B45E8 		movq	-24(%rbp), %rax
  97 0088 4883C060 		addq	$96, %rax
  98 008c 4889C7   		movq	%rax, %rdi
  99 008f E8000000 		call	_ZNSt9basic_iosIcSt11char_traitsIcEED2Ev
  99      00
 100 0094 4889D8   		movq	%rbx, %rax
 101 0097 4889C7   		movq	%rax, %rdi
 102              	.LEHB3:
 103 009a E8000000 		call	_Unwind_Resume
 103      00
 104              	.LEHE3:
 105              	.L8:
 106              	.LBE3:
 107              		.loc 2 16 0
 108 009f 4883C418 		addq	$24, %rsp
 109 00a3 5B       		popq	%rbx
 110 00a4 5D       		popq	%rbp
 111              		.cfi_def_cfa 7, 8
 112 00a5 C3       		ret
 113              		.cfi_endproc
 114              	.LFE1007:
 115              		.globl	__gxx_personality_v0
 116              		.section	.gcc_except_table._ZN8UnitTest15MemoryOutStreamC1Ev,"aG",@progbits,_ZN8UnitTest15MemoryOu
 117              	.LLSDA1007:
 118 0000 FF       		.byte	0xff
 119 0001 FF       		.byte	0xff
 120 0002 01       		.byte	0x1
 121 0003 12       		.uleb128 .LLSDACSE1007-.LLSDACSB1007
 122              	.LLSDACSB1007:
 123 0004 18       		.uleb128 .LEHB0-.LFB1007
 124 0005 05       		.uleb128 .LEHE0-.LEHB0
 125 0006 00       		.uleb128 0
 126 0007 00       		.uleb128 0
 127 0008 31       		.uleb128 .LEHB1-.LFB1007
 128 0009 05       		.uleb128 .LEHE1-.LEHB1
 129 000a 8101     		.uleb128 .L7-.LFB1007
 130 000c 00       		.uleb128 0
 131 000d 61       		.uleb128 .LEHB2-.LFB1007
 132 000e 05       		.uleb128 .LEHE2-.LEHB2
 133 000f 68       		.uleb128 .L6-.LFB1007
 134 0010 00       		.uleb128 0
 135 0011 9A01     		.uleb128 .LEHB3-.LFB1007
 136 0013 05       		.uleb128 .LEHE3-.LEHB3
 137 0014 00       		.uleb128 0
 138 0015 00       		.uleb128 0
 139              	.LLSDACSE1007:
 140              		.section	.text._ZN8UnitTest15MemoryOutStreamC1Ev,"axG",@progbits,_ZN8UnitTest15MemoryOutStreamC1Ev
 142              		.section	.text._ZN8UnitTest12TestReporterC2Ev,"axG",@progbits,_ZN8UnitTest12TestReporterC5Ev,comda
 143              		.align 2
 144              		.weak	_ZN8UnitTest12TestReporterC2Ev
 146              	_ZN8UnitTest12TestReporterC2Ev:
 147              	.LFB1021:
 148              		.file 3 "../TestReporter.h"
   1:../TestReporter.h **** #ifndef UNITTEST_TESTREPORTER_H
   2:../TestReporter.h **** #define UNITTEST_TESTREPORTER_H
   3:../TestReporter.h **** 
   4:../TestReporter.h **** namespace UnitTest {
   5:../TestReporter.h **** 
   6:../TestReporter.h **** class TestDetails;
   7:../TestReporter.h **** 
   8:../TestReporter.h **** class TestReporter
 149              		.loc 3 8 0 is_stmt 1
 150              		.cfi_startproc
 151 0000 55       		pushq	%rbp
 152              		.cfi_def_cfa_offset 16
 153              		.cfi_offset 6, -16
 154 0001 4889E5   		movq	%rsp, %rbp
 155              		.cfi_def_cfa_register 6
 156 0004 48897DF8 		movq	%rdi, -8(%rbp)
 157              	.LBB4:
 158              		.loc 3 8 0
 159 0008 488B45F8 		movq	-8(%rbp), %rax
 160 000c 48C70000 		movq	$_ZTVN8UnitTest12TestReporterE+16, (%rax)
 160      000000
 161              	.LBE4:
 162 0013 5D       		popq	%rbp
 163              		.cfi_def_cfa 7, 8
 164 0014 C3       		ret
 165              		.cfi_endproc
 166              	.LFE1021:
 168              		.weak	_ZN8UnitTest12TestReporterC1Ev
 169              		.set	_ZN8UnitTest12TestReporterC1Ev,_ZN8UnitTest12TestReporterC2Ev
 170              		.section	.text._ZN17RecordingReporterC2Ev,"axG",@progbits,_ZN17RecordingReporterC5Ev,comdat
 171              		.align 2
 172              		.weak	_ZN17RecordingReporterC2Ev
 174              	_ZN17RecordingReporterC2Ev:
 175              	.LFB1023:
 176              		.file 4 "RecordingReporter.h"
   1:RecordingReporter.h **** #ifndef UNITTEST_RECORDINGREPORTER_H
   2:RecordingReporter.h **** #define UNITTEST_RECORDINGREPORTER_H
   3:RecordingReporter.h **** 
   4:RecordingReporter.h **** #include "../TestReporter.h"
   5:RecordingReporter.h **** #include <cstring>
   6:RecordingReporter.h **** 
   7:RecordingReporter.h **** #include "../TestDetails.h"
   8:RecordingReporter.h **** 
   9:RecordingReporter.h **** struct RecordingReporter : public UnitTest::TestReporter
  10:RecordingReporter.h **** {
  11:RecordingReporter.h **** private:
  12:RecordingReporter.h ****     enum { kMaxStringLength = 256 };
  13:RecordingReporter.h **** 
  14:RecordingReporter.h **** public:
  15:RecordingReporter.h ****     RecordingReporter()
 177              		.loc 4 15 0
 178              		.cfi_startproc
 179 0000 55       		pushq	%rbp
 180              		.cfi_def_cfa_offset 16
 181              		.cfi_offset 6, -16
 182 0001 4889E5   		movq	%rsp, %rbp
 183              		.cfi_def_cfa_register 6
 184 0004 4883EC10 		subq	$16, %rsp
 185 0008 48897DF8 		movq	%rdi, -8(%rbp)
 186              	.LBB5:
  16:RecordingReporter.h ****         : testRunCount(0)
  17:RecordingReporter.h ****         , testFailedCount(0)
  18:RecordingReporter.h ****         , lastFailedLine(0)
  19:RecordingReporter.h ****         , testFinishedCount(0)
  20:RecordingReporter.h ****         , lastFinishedTestTime(0)
  21:RecordingReporter.h ****         , summaryTotalTestCount(0)
  22:RecordingReporter.h ****         , summaryFailedTestCount(0)
  23:RecordingReporter.h ****         , summaryFailureCount(0)
  24:RecordingReporter.h ****         , summarySecondsElapsed(0)
 187              		.loc 4 24 0
 188 000c 488B45F8 		movq	-8(%rbp), %rax
 189 0010 4889C7   		movq	%rax, %rdi
 190 0013 E8000000 		call	_ZN8UnitTest12TestReporterC2Ev
 190      00
 191 0018 488B45F8 		movq	-8(%rbp), %rax
 192 001c 48C70000 		movq	$_ZTV17RecordingReporter+16, (%rax)
 192      000000
 193 0023 488B45F8 		movq	-8(%rbp), %rax
 194 0027 C7400800 		movl	$0, 8(%rax)
 194      000000
 195 002e 488B45F8 		movq	-8(%rbp), %rax
 196 0032 C7800C02 		movl	$0, 524(%rax)
 196      00000000 
 196      0000
 197 003c 488B45F8 		movq	-8(%rbp), %rax
 198 0040 C7801003 		movl	$0, 784(%rax)
 198      00000000 
 198      0000
 199 004a 488B45F8 		movq	-8(%rbp), %rax
 200 004e C7801406 		movl	$0, 1556(%rax)
 200      00000000 
 200      0000
 201 0058 488B55F8 		movq	-8(%rbp), %rdx
 202 005c 8B050000 		movl	.LC1(%rip), %eax
 202      0000
 203 0062 89821808 		movl	%eax, 2072(%rdx)
 203      0000
 204 0068 488B45F8 		movq	-8(%rbp), %rax
 205 006c C7801C08 		movl	$0, 2076(%rax)
 205      00000000 
 205      0000
 206 0076 488B45F8 		movq	-8(%rbp), %rax
 207 007a C7802008 		movl	$0, 2080(%rax)
 207      00000000 
 207      0000
 208 0084 488B45F8 		movq	-8(%rbp), %rax
 209 0088 C7802408 		movl	$0, 2084(%rax)
 209      00000000 
 209      0000
 210 0092 488B55F8 		movq	-8(%rbp), %rdx
 211 0096 8B050000 		movl	.LC1(%rip), %eax
 211      0000
 212 009c 89822808 		movl	%eax, 2088(%rdx)
 212      0000
  25:RecordingReporter.h ****     {
  26:RecordingReporter.h ****         lastStartedSuite[0] = '\0';
 213              		.loc 4 26 0
 214 00a2 488B45F8 		movq	-8(%rbp), %rax
 215 00a6 C6400C00 		movb	$0, 12(%rax)
  27:RecordingReporter.h ****         lastStartedTest[0] = '\0';
 216              		.loc 4 27 0
 217 00aa 488B45F8 		movq	-8(%rbp), %rax
 218 00ae C6800C01 		movb	$0, 268(%rax)
 218      000000
  28:RecordingReporter.h ****         lastFailedFile[0] = '\0';
 219              		.loc 4 28 0
 220 00b5 488B45F8 		movq	-8(%rbp), %rax
 221 00b9 C6801002 		movb	$0, 528(%rax)
 221      000000
  29:RecordingReporter.h ****         lastFailedSuite[0] = '\0';
 222              		.loc 4 29 0
 223 00c0 488B45F8 		movq	-8(%rbp), %rax
 224 00c4 C6801403 		movb	$0, 788(%rax)
 224      000000
  30:RecordingReporter.h ****         lastFailedTest[0] = '\0';
 225              		.loc 4 30 0
 226 00cb 488B45F8 		movq	-8(%rbp), %rax
 227 00cf C6801404 		movb	$0, 1044(%rax)
 227      000000
  31:RecordingReporter.h ****         lastFailedMessage[0] = '\0';
 228              		.loc 4 31 0
 229 00d6 488B45F8 		movq	-8(%rbp), %rax
 230 00da C6801405 		movb	$0, 1300(%rax)
 230      000000
  32:RecordingReporter.h ****         lastFinishedSuite[0] = '\0';
 231              		.loc 4 32 0
 232 00e1 488B45F8 		movq	-8(%rbp), %rax
 233 00e5 C6801806 		movb	$0, 1560(%rax)
 233      000000
  33:RecordingReporter.h ****         lastFinishedTest[0] = '\0';
 234              		.loc 4 33 0
 235 00ec 488B45F8 		movq	-8(%rbp), %rax
 236 00f0 C6801807 		movb	$0, 1816(%rax)
 236      000000
 237              	.LBE5:
  34:RecordingReporter.h ****     }
 238              		.loc 4 34 0
 239 00f7 C9       		leave
 240              		.cfi_def_cfa 7, 8
 241 00f8 C3       		ret
 242              		.cfi_endproc
 243              	.LFE1023:
 245              		.weak	_ZN17RecordingReporterC1Ev
 246              		.set	_ZN17RecordingReporterC1Ev,_ZN17RecordingReporterC2Ev
 247              		.section	.text._ZN17RecordingReporter15ReportTestStartERKN8UnitTest11TestDetailsE,"axG",@progbits,
 248              		.align 2
 249              		.weak	_ZN17RecordingReporter15ReportTestStartERKN8UnitTest11TestDetailsE
 251              	_ZN17RecordingReporter15ReportTestStartERKN8UnitTest11TestDetailsE:
 252              	.LFB1025:
  35:RecordingReporter.h **** 
  36:RecordingReporter.h ****     virtual void ReportTestStart(UnitTest::TestDetails const& test)
 253              		.loc 4 36 0
 254              		.cfi_startproc
 255 0000 55       		pushq	%rbp
 256              		.cfi_def_cfa_offset 16
 257              		.cfi_offset 6, -16
 258 0001 4889E5   		movq	%rsp, %rbp
 259              		.cfi_def_cfa_register 6
 260 0004 4883EC10 		subq	$16, %rsp
 261 0008 48897DF8 		movq	%rdi, -8(%rbp)
 262 000c 488975F0 		movq	%rsi, -16(%rbp)
 263              	.LBB6:
  37:RecordingReporter.h ****     {
  38:RecordingReporter.h **** 		using namespace std;
  39:RecordingReporter.h **** 
  40:RecordingReporter.h ****         ++testRunCount;
 264              		.loc 4 40 0
 265 0010 488B45F8 		movq	-8(%rbp), %rax
 266 0014 8B4008   		movl	8(%rax), %eax
 267 0017 8D5001   		leal	1(%rax), %edx
 268 001a 488B45F8 		movq	-8(%rbp), %rax
 269 001e 895008   		movl	%edx, 8(%rax)
  41:RecordingReporter.h ****         strcpy(lastStartedSuite, test.suiteName);
 270              		.loc 4 41 0
 271 0021 488B45F0 		movq	-16(%rbp), %rax
 272 0025 488B00   		movq	(%rax), %rax
 273 0028 488B55F8 		movq	-8(%rbp), %rdx
 274 002c 4883C20C 		addq	$12, %rdx
 275 0030 4889C6   		movq	%rax, %rsi
 276 0033 4889D7   		movq	%rdx, %rdi
 277 0036 E8000000 		call	strcpy
 277      00
  42:RecordingReporter.h ****         strcpy(lastStartedTest, test.testName);
 278              		.loc 4 42 0
 279 003b 488B45F0 		movq	-16(%rbp), %rax
 280 003f 488B4008 		movq	8(%rax), %rax
 281 0043 488B55F8 		movq	-8(%rbp), %rdx
 282 0047 4881C20C 		addq	$268, %rdx
 282      010000
 283 004e 4889C6   		movq	%rax, %rsi
 284 0051 4889D7   		movq	%rdx, %rdi
 285 0054 E8000000 		call	strcpy
 285      00
 286              	.LBE6:
  43:RecordingReporter.h ****     }
 287              		.loc 4 43 0
 288 0059 C9       		leave
 289              		.cfi_def_cfa 7, 8
 290 005a C3       		ret
 291              		.cfi_endproc
 292              	.LFE1025:
 294              		.section	.text._ZN17RecordingReporter13ReportFailureERKN8UnitTest11TestDetailsEPKc,"axG",@progbits
 295              		.align 2
 296              		.weak	_ZN17RecordingReporter13ReportFailureERKN8UnitTest11TestDetailsEPKc
 298              	_ZN17RecordingReporter13ReportFailureERKN8UnitTest11TestDetailsEPKc:
 299              	.LFB1026:
  44:RecordingReporter.h **** 
  45:RecordingReporter.h ****     virtual void ReportFailure(UnitTest::TestDetails const& test, char const* failure)
 300              		.loc 4 45 0
 301              		.cfi_startproc
 302 0000 55       		pushq	%rbp
 303              		.cfi_def_cfa_offset 16
 304              		.cfi_offset 6, -16
 305 0001 4889E5   		movq	%rsp, %rbp
 306              		.cfi_def_cfa_register 6
 307 0004 4883EC20 		subq	$32, %rsp
 308 0008 48897DF8 		movq	%rdi, -8(%rbp)
 309 000c 488975F0 		movq	%rsi, -16(%rbp)
 310 0010 488955E8 		movq	%rdx, -24(%rbp)
 311              	.LBB7:
  46:RecordingReporter.h ****     {
  47:RecordingReporter.h **** 		using namespace std;
  48:RecordingReporter.h **** 
  49:RecordingReporter.h **** 		++testFailedCount;
 312              		.loc 4 49 0
 313 0014 488B45F8 		movq	-8(%rbp), %rax
 314 0018 8B800C02 		movl	524(%rax), %eax
 314      0000
 315 001e 8D5001   		leal	1(%rax), %edx
 316 0021 488B45F8 		movq	-8(%rbp), %rax
 317 0025 89900C02 		movl	%edx, 524(%rax)
 317      0000
  50:RecordingReporter.h ****         strcpy(lastFailedFile, test.filename);
 318              		.loc 4 50 0
 319 002b 488B45F0 		movq	-16(%rbp), %rax
 320 002f 488B4010 		movq	16(%rax), %rax
 321 0033 488B55F8 		movq	-8(%rbp), %rdx
 322 0037 4881C210 		addq	$528, %rdx
 322      020000
 323 003e 4889C6   		movq	%rax, %rsi
 324 0041 4889D7   		movq	%rdx, %rdi
 325 0044 E8000000 		call	strcpy
 325      00
  51:RecordingReporter.h ****         lastFailedLine = test.lineNumber;
 326              		.loc 4 51 0
 327 0049 488B45F0 		movq	-16(%rbp), %rax
 328 004d 8B5018   		movl	24(%rax), %edx
 329 0050 488B45F8 		movq	-8(%rbp), %rax
 330 0054 89901003 		movl	%edx, 784(%rax)
 330      0000
  52:RecordingReporter.h ****         strcpy(lastFailedSuite, test.suiteName);
 331              		.loc 4 52 0
 332 005a 488B45F0 		movq	-16(%rbp), %rax
 333 005e 488B00   		movq	(%rax), %rax
 334 0061 488B55F8 		movq	-8(%rbp), %rdx
 335 0065 4881C214 		addq	$788, %rdx
 335      030000
 336 006c 4889C6   		movq	%rax, %rsi
 337 006f 4889D7   		movq	%rdx, %rdi
 338 0072 E8000000 		call	strcpy
 338      00
  53:RecordingReporter.h ****         strcpy(lastFailedTest, test.testName);
 339              		.loc 4 53 0
 340 0077 488B45F0 		movq	-16(%rbp), %rax
 341 007b 488B4008 		movq	8(%rax), %rax
 342 007f 488B55F8 		movq	-8(%rbp), %rdx
 343 0083 4881C214 		addq	$1044, %rdx
 343      040000
 344 008a 4889C6   		movq	%rax, %rsi
 345 008d 4889D7   		movq	%rdx, %rdi
 346 0090 E8000000 		call	strcpy
 346      00
  54:RecordingReporter.h ****         strcpy(lastFailedMessage, failure);
 347              		.loc 4 54 0
 348 0095 488B45F8 		movq	-8(%rbp), %rax
 349 0099 488D9014 		leaq	1300(%rax), %rdx
 349      050000
 350 00a0 488B45E8 		movq	-24(%rbp), %rax
 351 00a4 4889C6   		movq	%rax, %rsi
 352 00a7 4889D7   		movq	%rdx, %rdi
 353 00aa E8000000 		call	strcpy
 353      00
 354              	.LBE7:
  55:RecordingReporter.h ****     }
 355              		.loc 4 55 0
 356 00af C9       		leave
 357              		.cfi_def_cfa 7, 8
 358 00b0 C3       		ret
 359              		.cfi_endproc
 360              	.LFE1026:
 362              		.section	.text._ZN17RecordingReporter16ReportTestFinishERKN8UnitTest11TestDetailsEf,"axG",@progbit
 363              		.align 2
 364              		.weak	_ZN17RecordingReporter16ReportTestFinishERKN8UnitTest11TestDetailsEf
 366              	_ZN17RecordingReporter16ReportTestFinishERKN8UnitTest11TestDetailsEf:
 367              	.LFB1027:
  56:RecordingReporter.h **** 
  57:RecordingReporter.h ****     virtual void ReportTestFinish(UnitTest::TestDetails const& test, float testDuration)
 368              		.loc 4 57 0
 369              		.cfi_startproc
 370 0000 55       		pushq	%rbp
 371              		.cfi_def_cfa_offset 16
 372              		.cfi_offset 6, -16
 373 0001 4889E5   		movq	%rsp, %rbp
 374              		.cfi_def_cfa_register 6
 375 0004 4883EC20 		subq	$32, %rsp
 376 0008 48897DF8 		movq	%rdi, -8(%rbp)
 377 000c 488975F0 		movq	%rsi, -16(%rbp)
 378 0010 F30F1145 		movss	%xmm0, -20(%rbp)
 378      EC
 379              	.LBB8:
  58:RecordingReporter.h ****     {
  59:RecordingReporter.h **** 		using namespace std;
  60:RecordingReporter.h **** 
  61:RecordingReporter.h **** 		++testFinishedCount;
 380              		.loc 4 61 0
 381 0015 488B45F8 		movq	-8(%rbp), %rax
 382 0019 8B801406 		movl	1556(%rax), %eax
 382      0000
 383 001f 8D5001   		leal	1(%rax), %edx
 384 0022 488B45F8 		movq	-8(%rbp), %rax
 385 0026 89901406 		movl	%edx, 1556(%rax)
 385      0000
  62:RecordingReporter.h ****         strcpy(lastFinishedSuite, test.suiteName);
 386              		.loc 4 62 0
 387 002c 488B45F0 		movq	-16(%rbp), %rax
 388 0030 488B00   		movq	(%rax), %rax
 389 0033 488B55F8 		movq	-8(%rbp), %rdx
 390 0037 4881C218 		addq	$1560, %rdx
 390      060000
 391 003e 4889C6   		movq	%rax, %rsi
 392 0041 4889D7   		movq	%rdx, %rdi
 393 0044 E8000000 		call	strcpy
 393      00
  63:RecordingReporter.h ****         strcpy(lastFinishedTest, test.testName);
 394              		.loc 4 63 0
 395 0049 488B45F0 		movq	-16(%rbp), %rax
 396 004d 488B4008 		movq	8(%rax), %rax
 397 0051 488B55F8 		movq	-8(%rbp), %rdx
 398 0055 4881C218 		addq	$1816, %rdx
 398      070000
 399 005c 4889C6   		movq	%rax, %rsi
 400 005f 4889D7   		movq	%rdx, %rdi
 401 0062 E8000000 		call	strcpy
 401      00
  64:RecordingReporter.h ****         lastFinishedTestTime = testDuration;
 402              		.loc 4 64 0
 403 0067 488B55F8 		movq	-8(%rbp), %rdx
 404 006b 8B45EC   		movl	-20(%rbp), %eax
 405 006e 89821808 		movl	%eax, 2072(%rdx)
 405      0000
 406              	.LBE8:
  65:RecordingReporter.h ****     }
 407              		.loc 4 65 0
 408 0074 C9       		leave
 409              		.cfi_def_cfa 7, 8
 410 0075 C3       		ret
 411              		.cfi_endproc
 412              	.LFE1027:
 414              		.section	.text._ZN17RecordingReporter13ReportSummaryEiiif,"axG",@progbits,_ZN17RecordingReporter13
 415              		.align 2
 416              		.weak	_ZN17RecordingReporter13ReportSummaryEiiif
 418              	_ZN17RecordingReporter13ReportSummaryEiiif:
 419              	.LFB1028:
  66:RecordingReporter.h **** 
  67:RecordingReporter.h ****     virtual void ReportSummary(int totalTestCount, int failedTestCount, int failureCount, float sec
 420              		.loc 4 67 0
 421              		.cfi_startproc
 422 0000 55       		pushq	%rbp
 423              		.cfi_def_cfa_offset 16
 424              		.cfi_offset 6, -16
 425 0001 4889E5   		movq	%rsp, %rbp
 426              		.cfi_def_cfa_register 6
 427 0004 48897DF8 		movq	%rdi, -8(%rbp)
 428 0008 8975F4   		movl	%esi, -12(%rbp)
 429 000b 8955F0   		movl	%edx, -16(%rbp)
 430 000e 894DEC   		movl	%ecx, -20(%rbp)
 431 0011 F30F1145 		movss	%xmm0, -24(%rbp)
 431      E8
  68:RecordingReporter.h ****     {
  69:RecordingReporter.h ****         summaryTotalTestCount = totalTestCount;
 432              		.loc 4 69 0
 433 0016 488B45F8 		movq	-8(%rbp), %rax
 434 001a 8B55F4   		movl	-12(%rbp), %edx
 435 001d 89901C08 		movl	%edx, 2076(%rax)
 435      0000
  70:RecordingReporter.h ****         summaryFailedTestCount = failedTestCount;
 436              		.loc 4 70 0
 437 0023 488B45F8 		movq	-8(%rbp), %rax
 438 0027 8B55F0   		movl	-16(%rbp), %edx
 439 002a 89902008 		movl	%edx, 2080(%rax)
 439      0000
  71:RecordingReporter.h ****         summaryFailureCount = failureCount;
 440              		.loc 4 71 0
 441 0030 488B45F8 		movq	-8(%rbp), %rax
 442 0034 8B55EC   		movl	-20(%rbp), %edx
 443 0037 89902408 		movl	%edx, 2084(%rax)
 443      0000
  72:RecordingReporter.h ****         summarySecondsElapsed = secondsElapsed;
 444              		.loc 4 72 0
 445 003d 488B55F8 		movq	-8(%rbp), %rdx
 446 0041 8B45E8   		movl	-24(%rbp), %eax
 447 0044 89822808 		movl	%eax, 2088(%rdx)
 447      0000
  73:RecordingReporter.h ****     }
 448              		.loc 4 73 0
 449 004a 5D       		popq	%rbp
 450              		.cfi_def_cfa 7, 8
 451 004b C3       		ret
 452              		.cfi_endproc
 453              	.LFE1028:
 455              		.section	.text._ZN17ScopedCurrentTestC2ERN8UnitTest11TestResultsEPKNS0_11TestDetailsE,"axG",@progb
 456              		.align 2
 457              		.weak	_ZN17ScopedCurrentTestC2ERN8UnitTest11TestResultsEPKNS0_11TestDetailsE
 459              	_ZN17ScopedCurrentTestC2ERN8UnitTest11TestResultsEPKNS0_11TestDetailsE:
 460              	.LFB1033:
 461              		.file 5 "ScopedCurrentTest.h"
   1:ScopedCurrentTest.h **** #ifndef UNITTEST_SCOPEDCURRENTTEST_H
   2:ScopedCurrentTest.h **** #define UNITTEST_SCOPEDCURRENTTEST_H
   3:ScopedCurrentTest.h **** 
   4:ScopedCurrentTest.h **** #include "../CurrentTest.h"
   5:ScopedCurrentTest.h **** #include <cstddef>
   6:ScopedCurrentTest.h **** 
   7:ScopedCurrentTest.h **** class ScopedCurrentTest
   8:ScopedCurrentTest.h **** {
   9:ScopedCurrentTest.h **** public:
  10:ScopedCurrentTest.h **** 	ScopedCurrentTest()
  11:ScopedCurrentTest.h **** 		: m_oldTestResults(UnitTest::CurrentTest::Results())
  12:ScopedCurrentTest.h **** 		, m_oldTestDetails(UnitTest::CurrentTest::Details())
  13:ScopedCurrentTest.h **** 	{
  14:ScopedCurrentTest.h **** 	}
  15:ScopedCurrentTest.h **** 
  16:ScopedCurrentTest.h **** 	explicit ScopedCurrentTest(UnitTest::TestResults& newResults, const UnitTest::TestDetails* newDeta
 462              		.loc 5 16 0
 463              		.cfi_startproc
 464 0000 55       		pushq	%rbp
 465              		.cfi_def_cfa_offset 16
 466              		.cfi_offset 6, -16
 467 0001 4889E5   		movq	%rsp, %rbp
 468              		.cfi_def_cfa_register 6
 469 0004 4883EC20 		subq	$32, %rsp
 470 0008 48897DF8 		movq	%rdi, -8(%rbp)
 471 000c 488975F0 		movq	%rsi, -16(%rbp)
 472 0010 488955E8 		movq	%rdx, -24(%rbp)
 473              	.LBB9:
  17:ScopedCurrentTest.h **** 		: m_oldTestResults(UnitTest::CurrentTest::Results())
 474              		.loc 5 17 0
 475 0014 E8000000 		call	_ZN8UnitTest11CurrentTest7ResultsEv
 475      00
  18:ScopedCurrentTest.h **** 		, m_oldTestDetails(UnitTest::CurrentTest::Details())
 476              		.loc 5 18 0
 477 0019 488B10   		movq	(%rax), %rdx
 478 001c 488B45F8 		movq	-8(%rbp), %rax
 479 0020 488910   		movq	%rdx, (%rax)
 480 0023 E8000000 		call	_ZN8UnitTest11CurrentTest7DetailsEv
 480      00
 481 0028 488B10   		movq	(%rax), %rdx
 482 002b 488B45F8 		movq	-8(%rbp), %rax
 483 002f 48895008 		movq	%rdx, 8(%rax)
  19:ScopedCurrentTest.h **** 	{
  20:ScopedCurrentTest.h **** 		UnitTest::CurrentTest::Results() = &newResults;
 484              		.loc 5 20 0
 485 0033 E8000000 		call	_ZN8UnitTest11CurrentTest7ResultsEv
 485      00
 486 0038 488B55F0 		movq	-16(%rbp), %rdx
 487 003c 488910   		movq	%rdx, (%rax)
  21:ScopedCurrentTest.h **** 
  22:ScopedCurrentTest.h **** 		if (newDetails != NULL)
 488              		.loc 5 22 0
 489 003f 48837DE8 		cmpq	$0, -24(%rbp)
 489      00
 490 0044 740C     		je	.L15
  23:ScopedCurrentTest.h **** 			UnitTest::CurrentTest::Details() = newDetails;
 491              		.loc 5 23 0
 492 0046 E8000000 		call	_ZN8UnitTest11CurrentTest7DetailsEv
 492      00
 493 004b 488B55E8 		movq	-24(%rbp), %rdx
 494 004f 488910   		movq	%rdx, (%rax)
 495              	.L15:
 496              	.LBE9:
  24:ScopedCurrentTest.h **** 	}
 497              		.loc 5 24 0
 498 0052 C9       		leave
 499              		.cfi_def_cfa 7, 8
 500 0053 C3       		ret
 501              		.cfi_endproc
 502              	.LFE1033:
 504              		.weak	_ZN17ScopedCurrentTestC1ERN8UnitTest11TestResultsEPKNS0_11TestDetailsE
 505              		.set	_ZN17ScopedCurrentTestC1ERN8UnitTest11TestResultsEPKNS0_11TestDetailsE,_ZN17ScopedCurrentTest
 506              		.section	.text._ZN17ScopedCurrentTestD2Ev,"axG",@progbits,_ZN17ScopedCurrentTestD5Ev,comdat
 507              		.align 2
 508              		.weak	_ZN17ScopedCurrentTestD2Ev
 510              	_ZN17ScopedCurrentTestD2Ev:
 511              	.LFB1036:
  25:ScopedCurrentTest.h **** 
  26:ScopedCurrentTest.h **** 	~ScopedCurrentTest()
 512              		.loc 5 26 0
 513              		.cfi_startproc
 514 0000 55       		pushq	%rbp
 515              		.cfi_def_cfa_offset 16
 516              		.cfi_offset 6, -16
 517 0001 4889E5   		movq	%rsp, %rbp
 518              		.cfi_def_cfa_register 6
 519 0004 4883EC10 		subq	$16, %rsp
 520 0008 48897DF8 		movq	%rdi, -8(%rbp)
 521              	.LBB10:
  27:ScopedCurrentTest.h **** 	{
  28:ScopedCurrentTest.h **** 		UnitTest::CurrentTest::Results() = m_oldTestResults;
 522              		.loc 5 28 0
 523 000c E8000000 		call	_ZN8UnitTest11CurrentTest7ResultsEv
 523      00
 524 0011 488B55F8 		movq	-8(%rbp), %rdx
 525 0015 488B12   		movq	(%rdx), %rdx
 526 0018 488910   		movq	%rdx, (%rax)
  29:ScopedCurrentTest.h **** 		UnitTest::CurrentTest::Details() = m_oldTestDetails;
 527              		.loc 5 29 0
 528 001b E8000000 		call	_ZN8UnitTest11CurrentTest7DetailsEv
 528      00
 529 0020 488B55F8 		movq	-8(%rbp), %rdx
 530 0024 488B5208 		movq	8(%rdx), %rdx
 531 0028 488910   		movq	%rdx, (%rax)
 532              	.LBE10:
  30:ScopedCurrentTest.h **** 	}
 533              		.loc 5 30 0
 534 002b C9       		leave
 535              		.cfi_def_cfa 7, 8
 536 002c C3       		ret
 537              		.cfi_endproc
 538              	.LFE1036:
 540              		.weak	_ZN17ScopedCurrentTestD1Ev
 541              		.set	_ZN17ScopedCurrentTestD1Ev,_ZN17ScopedCurrentTestD2Ev
 542              		.local	_ZN12_GLOBAL__N_15list1E
 543              		.comm	_ZN12_GLOBAL__N_15list1E,16,16
 544              		.section	.rodata
 545              	.LC2:
 546 000d 54657374 		.string	"TestTestMacros.cpp"
 546      54657374 
 546      4D616372 
 546      6F732E63 
 546      707000
 547              	.LC3:
 548 0020 44756D6D 		.string	"DummyTest"
 548      79546573 
 548      7400
 549              		.text
 550              		.align 2
 552              	_ZN12_GLOBAL__N_113TestDummyTestC2Ev:
 553              	.LFB1039:
 554              		.file 6 "TestTestMacros.cpp"
   1:TestTestMacros.cpp **** #include "../UnitTest++.h"
   2:TestTestMacros.cpp **** #include "../TestMacros.h"
   3:TestTestMacros.cpp **** #include "../TestList.h"
   4:TestTestMacros.cpp **** #include "../TestResults.h"
   5:TestTestMacros.cpp **** #include "../TestReporter.h"
   6:TestTestMacros.cpp **** #include "../ReportAssert.h"
   7:TestTestMacros.cpp **** #include "RecordingReporter.h"
   8:TestTestMacros.cpp **** #include "ScopedCurrentTest.h"
   9:TestTestMacros.cpp **** 
  10:TestTestMacros.cpp **** using namespace UnitTest;
  11:TestTestMacros.cpp **** 
  12:TestTestMacros.cpp **** namespace {
  13:TestTestMacros.cpp **** 
  14:TestTestMacros.cpp **** TestList list1;
  15:TestTestMacros.cpp **** TEST_EX(DummyTest, list1)
 555              		.loc 6 15 0
 556              		.cfi_startproc
 557 0000 55       		pushq	%rbp
 558              		.cfi_def_cfa_offset 16
 559              		.cfi_offset 6, -16
 560 0001 4889E5   		movq	%rsp, %rbp
 561              		.cfi_def_cfa_register 6
 562 0004 4883EC10 		subq	$16, %rsp
 563 0008 48897DF8 		movq	%rdi, -8(%rbp)
 564              	.LBB11:
 565              		.loc 6 15 0
 566 000c E8000000 		call	_ZN13UnitTestSuite12GetSuiteNameEv
 566      00
 567 0011 4889C2   		movq	%rax, %rdx
 568 0014 488B45F8 		movq	-8(%rbp), %rax
 569 0018 41B80F00 		movl	$15, %r8d
 569      0000
 570 001e B9000000 		movl	$.LC2, %ecx
 570      00
 571 0023 BE000000 		movl	$.LC3, %esi
 571      00
 572 0028 4889C7   		movq	%rax, %rdi
 573 002b E8000000 		call	_ZN8UnitTest4TestC2EPKcS2_S2_i
 573      00
 574 0030 488B45F8 		movq	-8(%rbp), %rax
 575 0034 48C70000 		movq	$_ZTVN12_GLOBAL__N_113TestDummyTestE+16, (%rax)
 575      000000
 576              	.LBE11:
 577 003b C9       		leave
 578              		.cfi_def_cfa 7, 8
 579 003c C3       		ret
 580              		.cfi_endproc
 581              	.LFE1039:
 583              		.set	_ZN12_GLOBAL__N_113TestDummyTestC1Ev,_ZN12_GLOBAL__N_113TestDummyTestC2Ev
 584              		.local	_ZN12_GLOBAL__N_121testDummyTestInstanceE
 585              		.comm	_ZN12_GLOBAL__N_121testDummyTestInstanceE,56,32
 586              		.local	_ZN12_GLOBAL__N_114adderDummyTestE
 587              		.comm	_ZN12_GLOBAL__N_114adderDummyTestE,1,1
 588 003d 90       		.align 2
 590              	_ZNK12_GLOBAL__N_113TestDummyTest7RunImplEv:
 591              	.LFB1041:
  16:TestTestMacros.cpp **** {
 592              		.loc 6 16 0
 593              		.cfi_startproc
 594 003e 55       		pushq	%rbp
 595              		.cfi_def_cfa_offset 16
 596              		.cfi_offset 6, -16
 597 003f 4889E5   		movq	%rsp, %rbp
 598              		.cfi_def_cfa_register 6
 599 0042 48897DF8 		movq	%rdi, -8(%rbp)
  17:TestTestMacros.cpp **** }
 600              		.loc 6 17 0
 601 0046 5D       		popq	%rbp
 602              		.cfi_def_cfa 7, 8
 603 0047 C3       		ret
 604              		.cfi_endproc
 605              	.LFE1041:
 607              		.section	.rodata
 608 002a 00000000 		.align 8
 608      0000
 609              	.LC4:
 610 0030 54657374 		.string	"TestsAreAddedToTheListThroughMacro"
 610      73417265 
 610      41646465 
 610      64546F54 
 610      68654C69 
 611              		.text
 612              		.align 2
 614              	_ZN12_GLOBAL__N_138TestTestsAreAddedToTheListThroughMacroC2Ev:
 615              	.LFB1043:
  18:TestTestMacros.cpp **** 
  19:TestTestMacros.cpp **** TEST (TestsAreAddedToTheListThroughMacro)
 616              		.loc 6 19 0
 617              		.cfi_startproc
 618 0048 55       		pushq	%rbp
 619              		.cfi_def_cfa_offset 16
 620              		.cfi_offset 6, -16
 621 0049 4889E5   		movq	%rsp, %rbp
 622              		.cfi_def_cfa_register 6
 623 004c 4883EC10 		subq	$16, %rsp
 624 0050 48897DF8 		movq	%rdi, -8(%rbp)
 625              	.LBB12:
 626              		.loc 6 19 0
 627 0054 E8000000 		call	_ZN13UnitTestSuite12GetSuiteNameEv
 627      00
 628 0059 4889C2   		movq	%rax, %rdx
 629 005c 488B45F8 		movq	-8(%rbp), %rax
 630 0060 41B81300 		movl	$19, %r8d
 630      0000
 631 0066 B9000000 		movl	$.LC2, %ecx
 631      00
 632 006b BE000000 		movl	$.LC4, %esi
 632      00
 633 0070 4889C7   		movq	%rax, %rdi
 634 0073 E8000000 		call	_ZN8UnitTest4TestC2EPKcS2_S2_i
 634      00
 635 0078 488B45F8 		movq	-8(%rbp), %rax
 636 007c 48C70000 		movq	$_ZTVN12_GLOBAL__N_138TestTestsAreAddedToTheListThroughMacroE+16, (%rax)
 636      000000
 637              	.LBE12:
 638 0083 C9       		leave
 639              		.cfi_def_cfa 7, 8
 640 0084 C3       		ret
 641              		.cfi_endproc
 642              	.LFE1043:
 644              		.set	_ZN12_GLOBAL__N_138TestTestsAreAddedToTheListThroughMacroC1Ev,_ZN12_GLOBAL__N_138TestTestsAre
 645              		.local	_ZN12_GLOBAL__N_146testTestsAreAddedToTheListThroughMacroInstanceE
 646              		.comm	_ZN12_GLOBAL__N_146testTestsAreAddedToTheListThroughMacroInstanceE,56,32
 647              		.local	_ZN12_GLOBAL__N_139adderTestsAreAddedToTheListThroughMacroE
 648              		.comm	_ZN12_GLOBAL__N_139adderTestsAreAddedToTheListThroughMacroE,1,1
 649              		.section	.rodata
 650              	.LC5:
 651 0053 6C697374 		.string	"list1.GetHead() != 0"
 651      312E4765 
 651      74486561 
 651      64282920 
 651      213D2030 
 652              	.LC6:
 653 0068 6C697374 		.string	"list1.GetHead()->next == 0"
 653      312E4765 
 653      74486561 
 653      6428292D 
 653      3E6E6578 
 654 0083 00000000 		.align 8
 654      00
 655              	.LC7:
 656 0088 556E6861 		.string	"Unhandled exception in CHECK(list1.GetHead() != 0)"
 656      6E646C65 
 656      64206578 
 656      63657074 
 656      696F6E20 
 657 00bb 00000000 		.align 8
 657      00
 658              	.LC8:
 659 00c0 556E6861 		.string	"Unhandled exception in CHECK(list1.GetHead()->next == 0)"
 659      6E646C65 
 659      64206578 
 659      63657074 
 659      696F6E20 
 660              		.text
 661 0085 90       		.align 2
 663              	_ZNK12_GLOBAL__N_138TestTestsAreAddedToTheListThroughMacro7RunImplEv:
 664              	.LFB1045:
  20:TestTestMacros.cpp **** {
 665              		.loc 6 20 0
 666              		.cfi_startproc
 667              		.cfi_personality 0x3,__gxx_personality_v0
 668              		.cfi_lsda 0x3,.LLSDA1045
 669 0086 55       		pushq	%rbp
 670              		.cfi_def_cfa_offset 16
 671              		.cfi_offset 6, -16
 672 0087 4889E5   		movq	%rsp, %rbp
 673              		.cfi_def_cfa_register 6
 674 008a 53       		pushq	%rbx
 675 008b 4883EC38 		subq	$56, %rsp
 676              		.cfi_offset 3, -24
 677 008f 48897DC8 		movq	%rdi, -56(%rbp)
  21:TestTestMacros.cpp ****     CHECK(list1.GetHead() != 0);
 678              		.loc 6 21 0
 679 0093 BF000000 		movl	$_ZN12_GLOBAL__N_15list1E, %edi
 679      00
 680              	.LEHB4:
 681 0098 E8000000 		call	_ZNK8UnitTest8TestList7GetHeadEv
 681      00
 682 009d 4885C0   		testq	%rax, %rax
 683 00a0 0F95C0   		setne	%al
 684 00a3 0FB6C0   		movzbl	%al, %eax
 685 00a6 89C7     		movl	%eax, %edi
 686 00a8 E8000000 		call	_ZN8UnitTest5CheckIbEEbT_
 686      00
 687 00ad 83F001   		xorl	$1, %eax
 688 00b0 84C0     		testb	%al, %al
 689 00b2 7438     		je	.L23
 690              		.loc 6 21 0 is_stmt 0 discriminator 1
 691 00b4 E8000000 		call	_ZN8UnitTest11CurrentTest7DetailsEv
 691      00
 692 00b9 488B08   		movq	(%rax), %rcx
 693 00bc 488D45D0 		leaq	-48(%rbp), %rax
 694 00c0 BA150000 		movl	$21, %edx
 694      00
 695 00c5 4889CE   		movq	%rcx, %rsi
 696 00c8 4889C7   		movq	%rax, %rdi
 697 00cb E8000000 		call	_ZN8UnitTest11TestDetailsC1ERKS0_i
 697      00
 698 00d0 E8000000 		call	_ZN8UnitTest11CurrentTest7ResultsEv
 698      00
 699 00d5 488B00   		movq	(%rax), %rax
 700 00d8 488D4DD0 		leaq	-48(%rbp), %rcx
 701 00dc BA000000 		movl	$.LC5, %edx
 701      00
 702 00e1 4889CE   		movq	%rcx, %rsi
 703 00e4 4889C7   		movq	%rax, %rdi
 704 00e7 E8000000 		call	_ZN8UnitTest11TestResults13OnTestFailureERKNS_11TestDetailsEPKc
 704      00
 705              	.LEHE4:
 706              	.L23:
  22:TestTestMacros.cpp ****     CHECK(list1.GetHead()->next == 0);
 707              		.loc 6 22 0 is_stmt 1
 708 00ec BF000000 		movl	$_ZN12_GLOBAL__N_15list1E, %edi
 708      00
 709              	.LEHB5:
 710 00f1 E8000000 		call	_ZNK8UnitTest8TestList7GetHeadEv
 710      00
 711 00f6 488B4028 		movq	40(%rax), %rax
 712 00fa 4885C0   		testq	%rax, %rax
 713 00fd 0F94C0   		sete	%al
 714 0100 0FB6C0   		movzbl	%al, %eax
 715 0103 89C7     		movl	%eax, %edi
 716 0105 E8000000 		call	_ZN8UnitTest5CheckIbEEbT_
 716      00
 717 010a 83F001   		xorl	$1, %eax
 718 010d 84C0     		testb	%al, %al
 719 010f 0F84F300 		je	.L22
 719      0000
 720              		.loc 6 22 0 is_stmt 0 discriminator 1
 721 0115 E8000000 		call	_ZN8UnitTest11CurrentTest7DetailsEv
 721      00
 722 011a 488B08   		movq	(%rax), %rcx
 723 011d 488D45D0 		leaq	-48(%rbp), %rax
 724 0121 BA160000 		movl	$22, %edx
 724      00
 725 0126 4889CE   		movq	%rcx, %rsi
 726 0129 4889C7   		movq	%rax, %rdi
 727 012c E8000000 		call	_ZN8UnitTest11TestDetailsC1ERKS0_i
 727      00
 728 0131 E8000000 		call	_ZN8UnitTest11CurrentTest7ResultsEv
 728      00
 729 0136 488B00   		movq	(%rax), %rax
 730 0139 488D4DD0 		leaq	-48(%rbp), %rcx
 731 013d BA000000 		movl	$.LC6, %edx
 731      00
 732 0142 4889CE   		movq	%rcx, %rsi
 733 0145 4889C7   		movq	%rax, %rdi
 734 0148 E8000000 		call	_ZN8UnitTest11TestResults13OnTestFailureERKNS_11TestDetailsEPKc
 734      00
 735              	.LEHE5:
 736 014d E9B60000 		jmp	.L22
 736      00
 737              	.L30:
 738 0152 4889C3   		movq	%rax, %rbx
  21:TestTestMacros.cpp ****     CHECK(list1.GetHead() != 0);
 739              		.loc 6 21 0 is_stmt 1
 740 0155 E8000000 		call	__cxa_end_catch
 740      00
 741 015a 4889D8   		movq	%rbx, %rax
 742 015d 4889C7   		movq	%rax, %rdi
 743              	.LEHB6:
 744 0160 E8000000 		call	_Unwind_Resume
 744      00
 745              	.LEHE6:
 746              	.L29:
 747 0165 4889C7   		movq	%rax, %rdi
 748 0168 E8000000 		call	__cxa_begin_catch
 748      00
 749              	.LEHB7:
 750 016d E8000000 		call	_ZN8UnitTest11CurrentTest7DetailsEv
 750      00
 751 0172 488B08   		movq	(%rax), %rcx
 752 0175 488D45D0 		leaq	-48(%rbp), %rax
 753 0179 BA150000 		movl	$21, %edx
 753      00
 754 017e 4889CE   		movq	%rcx, %rsi
 755 0181 4889C7   		movq	%rax, %rdi
 756 0184 E8000000 		call	_ZN8UnitTest11TestDetailsC1ERKS0_i
 756      00
  21:TestTestMacros.cpp ****     CHECK(list1.GetHead() != 0);
 757              		.loc 6 21 0 is_stmt 0 discriminator 1
 758 0189 E8000000 		call	_ZN8UnitTest11CurrentTest7ResultsEv
 758      00
 759 018e 488B00   		movq	(%rax), %rax
 760 0191 488D4DD0 		leaq	-48(%rbp), %rcx
 761 0195 BA000000 		movl	$.LC7, %edx
 761      00
 762 019a 4889CE   		movq	%rcx, %rsi
 763 019d 4889C7   		movq	%rax, %rdi
 764 01a0 E8000000 		call	_ZN8UnitTest11TestResults13OnTestFailureERKNS_11TestDetailsEPKc
 764      00
 765              	.LEHE7:
 766              	.LEHB8:
 767 01a5 E8000000 		call	__cxa_end_catch
 767      00
 768              	.LEHE8:
 769 01aa E93DFFFF 		jmp	.L23
 769      FF
 770              	.L32:
 771 01af 4889C3   		movq	%rax, %rbx
 772              		.loc 6 22 0 is_stmt 1
 773 01b2 E8000000 		call	__cxa_end_catch
 773      00
 774 01b7 4889D8   		movq	%rbx, %rax
 775 01ba 4889C7   		movq	%rax, %rdi
 776              	.LEHB9:
 777 01bd E8000000 		call	_Unwind_Resume
 777      00
 778              	.LEHE9:
 779              	.L31:
 780 01c2 4889C7   		movq	%rax, %rdi
 781 01c5 E8000000 		call	__cxa_begin_catch
 781      00
 782              	.LEHB10:
 783 01ca E8000000 		call	_ZN8UnitTest11CurrentTest7DetailsEv
 783      00
 784 01cf 488B08   		movq	(%rax), %rcx
 785 01d2 488D45D0 		leaq	-48(%rbp), %rax
 786 01d6 BA160000 		movl	$22, %edx
 786      00
 787 01db 4889CE   		movq	%rcx, %rsi
 788 01de 4889C7   		movq	%rax, %rdi
 789 01e1 E8000000 		call	_ZN8UnitTest11TestDetailsC1ERKS0_i
 789      00
 790              		.loc 6 22 0 is_stmt 0 discriminator 1
 791 01e6 E8000000 		call	_ZN8UnitTest11CurrentTest7ResultsEv
 791      00
 792 01eb 488B00   		movq	(%rax), %rax
 793 01ee 488D4DD0 		leaq	-48(%rbp), %rcx
 794 01f2 BA000000 		movl	$.LC8, %edx
 794      00
 795 01f7 4889CE   		movq	%rcx, %rsi
 796 01fa 4889C7   		movq	%rax, %rdi
 797 01fd E8000000 		call	_ZN8UnitTest11TestResults13OnTestFailureERKNS_11TestDetailsEPKc
 797      00
 798              	.LEHE10:
 799              	.LEHB11:
 800 0202 E8000000 		call	__cxa_end_catch
 800      00
 801              	.LEHE11:
  23:TestTestMacros.cpp **** }
 802              		.loc 6 23 0 is_stmt 1 discriminator 1
 803 0207 90       		nop
 804              	.L22:
 805              		.loc 6 23 0 is_stmt 0
 806 0208 4883C438 		addq	$56, %rsp
 807 020c 5B       		popq	%rbx
 808 020d 5D       		popq	%rbp
 809              		.cfi_def_cfa 7, 8
 810 020e C3       		ret
 811              		.cfi_endproc
 812              	.LFE1045:
 813              		.section	.gcc_except_table,"a",@progbits
 814              		.align 4
 815              	.LLSDA1045:
 816 0000 FF       		.byte	0xff
 817 0001 03       		.byte	0x3
 818 0002 35       		.uleb128 .LLSDATT1045-.LLSDATTD1045
 819              	.LLSDATTD1045:
 820 0003 01       		.byte	0x1
 821 0004 2A       		.uleb128 .LLSDACSE1045-.LLSDACSB1045
 822              	.LLSDACSB1045:
 823 0005 12       		.uleb128 .LEHB4-.LFB1045
 824 0006 54       		.uleb128 .LEHE4-.LEHB4
 825 0007 DF01     		.uleb128 .L29-.LFB1045
 826 0009 01       		.uleb128 0x1
 827 000a 6B       		.uleb128 .LEHB5-.LFB1045
 828 000b 5C       		.uleb128 .LEHE5-.LEHB5
 829 000c BC02     		.uleb128 .L31-.LFB1045
 830 000e 01       		.uleb128 0x1
 831 000f DA01     		.uleb128 .LEHB6-.LFB1045
 832 0011 05       		.uleb128 .LEHE6-.LEHB6
 833 0012 00       		.uleb128 0
 834 0013 00       		.uleb128 0
 835 0014 E701     		.uleb128 .LEHB7-.LFB1045
 836 0016 38       		.uleb128 .LEHE7-.LEHB7
 837 0017 CC01     		.uleb128 .L30-.LFB1045
 838 0019 00       		.uleb128 0
 839 001a 9F02     		.uleb128 .LEHB8-.LFB1045
 840 001c 05       		.uleb128 .LEHE8-.LEHB8
 841 001d 00       		.uleb128 0
 842 001e 00       		.uleb128 0
 843 001f B702     		.uleb128 .LEHB9-.LFB1045
 844 0021 05       		.uleb128 .LEHE9-.LEHB9
 845 0022 00       		.uleb128 0
 846 0023 00       		.uleb128 0
 847 0024 C402     		.uleb128 .LEHB10-.LFB1045
 848 0026 38       		.uleb128 .LEHE10-.LEHB10
 849 0027 A902     		.uleb128 .L32-.LFB1045
 850 0029 00       		.uleb128 0
 851 002a FC02     		.uleb128 .LEHB11-.LFB1045
 852 002c 05       		.uleb128 .LEHE11-.LEHB11
 853 002d 00       		.uleb128 0
 854 002e 00       		.uleb128 0
 855              	.LLSDACSE1045:
 856 002f 01       		.byte	0x1
 857 0030 00       		.byte	0
 858 0031 000000   		.align 4
 859 0034 00000000 		.long	0
 860              	
 861              	.LLSDATT1045:
 862              		.text
 864              		.section	.rodata
 865              	.LC9:
 866 00f9 4F6F7073 		.string	"Oops"
 866      00
 867              		.text
 868 020f 90       		.align 2
 870              	_ZN12_GLOBAL__N_115ThrowingThingieC2Ev:
 871              	.LFB1047:
  24:TestTestMacros.cpp **** 
  25:TestTestMacros.cpp **** struct ThrowingThingie
  26:TestTestMacros.cpp **** {
  27:TestTestMacros.cpp ****     ThrowingThingie() : dummy(false)
 872              		.loc 6 27 0 is_stmt 1
 873              		.cfi_startproc
 874 0210 55       		pushq	%rbp
 875              		.cfi_def_cfa_offset 16
 876              		.cfi_offset 6, -16
 877 0211 4889E5   		movq	%rsp, %rbp
 878              		.cfi_def_cfa_register 6
 879 0214 4883EC10 		subq	$16, %rsp
 880 0218 48897DF8 		movq	%rdi, -8(%rbp)
 881              	.LBB13:
 882              		.loc 6 27 0
 883 021c 488B45F8 		movq	-8(%rbp), %rax
 884 0220 C60000   		movb	$0, (%rax)
  28:TestTestMacros.cpp ****     {
  29:TestTestMacros.cpp ****         if (!dummy)
 885              		.loc 6 29 0
 886 0223 488B45F8 		movq	-8(%rbp), %rax
 887 0227 0FB600   		movzbl	(%rax), %eax
 888 022a 83F001   		xorl	$1, %eax
 889 022d 84C0     		testb	%al, %al
 890 022f 7423     		je	.L33
  30:TestTestMacros.cpp ****             throw "Oops";
 891              		.loc 6 30 0
 892 0231 BF080000 		movl	$8, %edi
 892      00
 893 0236 E8000000 		call	__cxa_allocate_exception
 893      00
 894 023b 48C70000 		movq	$.LC9, (%rax)
 894      000000
 895 0242 BA000000 		movl	$0, %edx
 895      00
 896 0247 BE000000 		movl	$_ZTIPKc, %esi
 896      00
 897 024c 4889C7   		movq	%rax, %rdi
 898 024f E8000000 		call	__cxa_throw
 898      00
 899              	.L33:
 900              	.LBE13:
  31:TestTestMacros.cpp ****     }
 901              		.loc 6 31 0
 902 0254 C9       		leave
 903              		.cfi_def_cfa 7, 8
 904 0255 C3       		ret
 905              		.cfi_endproc
 906              	.LFE1047:
 908              		.local	_ZN12_GLOBAL__N_15list2E
 909              		.comm	_ZN12_GLOBAL__N_15list2E,16,16
 910              		.align 2
 912              	_ZN12_GLOBAL__N_134ThrowingThingieDummyTestNameHelperC2ERKN8UnitTest11TestDetailsE:
 913              	.LFB1050:
  32:TestTestMacros.cpp **** 
  33:TestTestMacros.cpp ****     bool dummy;
  34:TestTestMacros.cpp **** };
  35:TestTestMacros.cpp **** 
  36:TestTestMacros.cpp **** TestList list2;
  37:TestTestMacros.cpp **** TEST_FIXTURE_EX(ThrowingThingie, DummyTestName, list2)
 914              		.loc 6 37 0
 915              		.cfi_startproc
 916 0256 55       		pushq	%rbp
 917              		.cfi_def_cfa_offset 16
 918              		.cfi_offset 6, -16
 919 0257 4889E5   		movq	%rsp, %rbp
 920              		.cfi_def_cfa_register 6
 921 025a 4883EC10 		subq	$16, %rsp
 922 025e 48897DF8 		movq	%rdi, -8(%rbp)
 923 0262 488975F0 		movq	%rsi, -16(%rbp)
 924              	.LBB14:
 925              		.loc 6 37 0
 926 0266 488B45F8 		movq	-8(%rbp), %rax
 927 026a 4889C7   		movq	%rax, %rdi
 928 026d E89EFFFF 		call	_ZN12_GLOBAL__N_115ThrowingThingieC2Ev
 928      FF
 929 0272 488B45F8 		movq	-8(%rbp), %rax
 930 0276 488B55F0 		movq	-16(%rbp), %rdx
 931 027a 48895008 		movq	%rdx, 8(%rax)
 932              	.LBE14:
 933 027e C9       		leave
 934              		.cfi_def_cfa 7, 8
 935 027f C3       		ret
 936              		.cfi_endproc
 937              	.LFE1050:
 939              		.set	_ZN12_GLOBAL__N_134ThrowingThingieDummyTestNameHelperC1ERKN8UnitTest11TestDetailsE,_ZN12_GLOB
 940              		.section	.rodata
 941              	.LC10:
 942 00fe 44756D6D 		.string	"DummyTestName"
 942      79546573 
 942      744E616D 
 942      6500
 943              		.text
 944              		.align 2
 946              	_ZN12_GLOBAL__N_132TestThrowingThingieDummyTestNameC2Ev:
 947              	.LFB1053:
 948              		.loc 6 37 0
 949              		.cfi_startproc
 950 0280 55       		pushq	%rbp
 951              		.cfi_def_cfa_offset 16
 952              		.cfi_offset 6, -16
 953 0281 4889E5   		movq	%rsp, %rbp
 954              		.cfi_def_cfa_register 6
 955 0284 4883EC10 		subq	$16, %rsp
 956 0288 48897DF8 		movq	%rdi, -8(%rbp)
 957              	.LBB15:
 958              		.loc 6 37 0
 959 028c E8000000 		call	_ZN13UnitTestSuite12GetSuiteNameEv
 959      00
 960 0291 4889C2   		movq	%rax, %rdx
 961 0294 488B45F8 		movq	-8(%rbp), %rax
 962 0298 41B82500 		movl	$37, %r8d
 962      0000
 963 029e B9000000 		movl	$.LC2, %ecx
 963      00
 964 02a3 BE000000 		movl	$.LC10, %esi
 964      00
 965 02a8 4889C7   		movq	%rax, %rdi
 966 02ab E8000000 		call	_ZN8UnitTest4TestC2EPKcS2_S2_i
 966      00
 967 02b0 488B45F8 		movq	-8(%rbp), %rax
 968 02b4 48C70000 		movq	$_ZTVN12_GLOBAL__N_132TestThrowingThingieDummyTestNameE+16, (%rax)
 968      000000
 969              	.LBE15:
 970 02bb C9       		leave
 971              		.cfi_def_cfa 7, 8
 972 02bc C3       		ret
 973              		.cfi_endproc
 974              	.LFE1053:
 976              		.set	_ZN12_GLOBAL__N_132TestThrowingThingieDummyTestNameC1Ev,_ZN12_GLOBAL__N_132TestThrowingThingi
 977              		.local	_ZN12_GLOBAL__N_140testThrowingThingieDummyTestNameInstanceE
 978              		.comm	_ZN12_GLOBAL__N_140testThrowingThingieDummyTestNameInstanceE,56,32
 979              		.local	_ZN12_GLOBAL__N_133adderThrowingThingieDummyTestNameE
 980              		.comm	_ZN12_GLOBAL__N_133adderThrowingThingieDummyTestNameE,1,1
 981              		.section	.rodata
 982              	.LC11:
 983 010c 556E6861 		.string	"Unhandled exception: "
 983      6E646C65 
 983      64206578 
 983      63657074 
 983      696F6E3A 
 984 0122 00000000 		.align 8
 984      0000
 985              	.LC12:
 986 0128 556E6861 		.string	"Unhandled exception while destroying fixture ThrowingThingie"
 986      6E646C65 
 986      64206578 
 986      63657074 
 986      696F6E20 
 987 0165 000000   		.align 8
 988              	.LC13:
 989 0168 556E6861 		.string	"Unhandled exception while constructing fixture ThrowingThingie"
 989      6E646C65 
 989      64206578 
 989      63657074 
 989      696F6E20 
 990              		.text
 991 02bd 90       		.align 2
 993              	_ZNK12_GLOBAL__N_132TestThrowingThingieDummyTestName7RunImplEv:
 994              	.LFB1055:
 995              		.loc 6 37 0
 996              		.cfi_startproc
 997              		.cfi_personality 0x3,__gxx_personality_v0
 998              		.cfi_lsda 0x3,.LLSDA1055
 999 02be 55       		pushq	%rbp
 1000              		.cfi_def_cfa_offset 16
 1001              		.cfi_offset 6, -16
 1002 02bf 4889E5   		movq	%rsp, %rbp
 1003              		.cfi_def_cfa_register 6
 1004 02c2 4154     		pushq	%r12
 1005 02c4 53       		pushq	%rbx
 1006 02c5 4881ECA0 		subq	$416, %rsp
 1006      010000
 1007              		.cfi_offset 12, -24
 1008              		.cfi_offset 3, -32
 1009 02cc 4889BD58 		movq	%rdi, -424(%rbp)
 1009      FEFFFF
 1010              	.LBB16:
 1011              		.loc 6 37 0
 1012 02d3 C6856FFE 		movb	$0, -401(%rbp)
 1012      FFFF00
 1013              	.LBB17:
 1014 02da 488B8558 		movq	-424(%rbp), %rax
 1014      FEFFFF
 1015 02e1 488D5008 		leaq	8(%rax), %rdx
 1016 02e5 488D8580 		leaq	-384(%rbp), %rax
 1016      FEFFFF
 1017 02ec 4889D6   		movq	%rdx, %rsi
 1018 02ef 4889C7   		movq	%rax, %rdi
 1019              	.LEHB12:
 1020 02f2 E85FFFFF 		call	_ZN12_GLOBAL__N_134ThrowingThingieDummyTestNameHelperC1ERKN8UnitTest11TestDetailsE
 1020      FF
 1021              		.loc 6 37 0 is_stmt 0 discriminator 1
 1022 02f7 C6856FFE 		movb	$1, -401(%rbp)
 1022      FFFF01
 1023 02fe 488B8558 		movq	-424(%rbp), %rax
 1023      FEFFFF
 1024 0305 488D5008 		leaq	8(%rax), %rdx
 1025 0309 488D8580 		leaq	-384(%rbp), %rax
 1025      FEFFFF
 1026 0310 4889D6   		movq	%rdx, %rsi
 1027 0313 4889C7   		movq	%rax, %rdi
 1028 0316 E8532A00 		call	_ZN8UnitTest11ExecuteTestIN12_GLOBAL__N_134ThrowingThingieDummyTestNameHelperEEEvRT_RKNS_11Te
 1028      00
 1029              	.LEHE12:
 1030              	.LBE17:
 1031              	.LBE16:
 1032              		.loc 6 37 0
 1033 031b E9470200 		jmp	.L55
 1033      00
 1034              	.L49:
 1035 0320 4883FA01 		cmpq	$1, %rdx
 1036 0324 745C     		je	.L40
 1037 0326 4883FA02 		cmpq	$2, %rdx
 1038 032a 0F84F400 		je	.L41
 1038      0000
 1039 0330 E9980100 		jmp	.L54
 1039      00
 1040              	.L50:
 1041 0335 4889C3   		movq	%rax, %rbx
 1042              	.LBB24:
 1043              	.LBB18:
 1044 0338 E8000000 		call	__cxa_end_catch
 1044      00
 1045 033d 4889D8   		movq	%rbx, %rax
 1046 0340 4889C7   		movq	%rax, %rdi
 1047              	.LEHB13:
 1048 0343 E8000000 		call	_Unwind_Resume
 1048      00
 1049              	.LEHE13:
 1050              	.L51:
 1051 0348 4889C3   		movq	%rax, %rbx
 1052              	.LBE18:
 1053              	.LBB19:
 1054              	.LBB20:
 1055 034b 488D8580 		leaq	-384(%rbp), %rax
 1055      FEFFFF
 1056 0352 4889C7   		movq	%rax, %rdi
 1057 0355 E8000000 		call	_ZN8UnitTest15MemoryOutStreamD1Ev
 1057      00
 1058 035a EB03     		jmp	.L44
 1059              	.L52:
 1060 035c 4889C3   		movq	%rax, %rbx
 1061              	.L44:
 1062              	.LBE20:
 1063 035f E8000000 		call	__cxa_end_catch
 1063      00
 1064 0364 4889D8   		movq	%rbx, %rax
 1065 0367 4889C7   		movq	%rax, %rdi
 1066              	.LEHB14:
 1067 036a E8000000 		call	_Unwind_Resume
 1067      00
 1068              	.LEHE14:
 1069              	.L53:
 1070 036f 4889C3   		movq	%rax, %rbx
 1071              	.LBE19:
 1072 0372 E8000000 		call	__cxa_end_catch
 1072      00
 1073 0377 4889D8   		movq	%rbx, %rax
 1074 037a 4889C7   		movq	%rax, %rdi
 1075              	.LEHB15:
 1076 037d E8000000 		call	_Unwind_Resume
 1076      00
 1077              	.LEHE15:
 1078              	.L40:
 1079              	.LBB22:
 1080 0382 4889C7   		movq	%rax, %rdi
 1081 0385 E8000000 		call	__cxa_begin_catch
 1081      00
 1082 038a 48898570 		movq	%rax, -400(%rbp)
 1082      FEFFFF
 1083 0391 488B8570 		movq	-400(%rbp), %rax
 1083      FEFFFF
 1084 0398 488B00   		movq	(%rax), %rax
 1085 039b 4883C010 		addq	$16, %rax
 1086 039f 488B00   		movq	(%rax), %rax
 1087 03a2 488B9570 		movq	-400(%rbp), %rdx
 1087      FEFFFF
 1088 03a9 4889D7   		movq	%rdx, %rdi
 1089 03ac FFD0     		call	*%rax
 1090 03ae 4889C3   		movq	%rax, %rbx
 1091 03b1 488B8570 		movq	-400(%rbp), %rax
 1091      FEFFFF
 1092 03b8 4889C7   		movq	%rax, %rdi
 1093              	.LEHB16:
 1094 03bb E8000000 		call	_ZNK8UnitTest15AssertException10LineNumberEv
 1094      00
 1095 03c0 4189C4   		movl	%eax, %r12d
 1096 03c3 488B8570 		movq	-400(%rbp), %rax
 1096      FEFFFF
 1097 03ca 4889C7   		movq	%rax, %rdi
 1098 03cd E8000000 		call	_ZNK8UnitTest15AssertException8FilenameEv
 1098      00
 1099              		.loc 6 37 0 discriminator 1
 1100 03d2 4889C1   		movq	%rax, %rcx
 1101 03d5 488B8558 		movq	-424(%rbp), %rax
 1101      FEFFFF
 1102 03dc 488B5008 		movq	8(%rax), %rdx
 1103 03e0 488B8558 		movq	-424(%rbp), %rax
 1103      FEFFFF
 1104 03e7 488B7010 		movq	16(%rax), %rsi
 1105 03eb 488D8580 		leaq	-384(%rbp), %rax
 1105      FEFFFF
 1106 03f2 4589E0   		movl	%r12d, %r8d
 1107 03f5 4889C7   		movq	%rax, %rdi
 1108 03f8 E8000000 		call	_ZN8UnitTest11TestDetailsC1EPKcS2_S2_i
 1108      00
 1109              		.loc 6 37 0 discriminator 3
 1110 03fd E8000000 		call	_ZN8UnitTest11CurrentTest7ResultsEv
 1110      00
 1111 0402 488B00   		movq	(%rax), %rax
 1112 0405 488D8D80 		leaq	-384(%rbp), %rcx
 1112      FEFFFF
 1113 040c 4889DA   		movq	%rbx, %rdx
 1114 040f 4889CE   		movq	%rcx, %rsi
 1115 0412 4889C7   		movq	%rax, %rdi
 1116 0415 E8000000 		call	_ZN8UnitTest11TestResults13OnTestFailureERKNS_11TestDetailsEPKc
 1116      00
 1117              	.LEHE16:
 1118              		.loc 6 37 0 discriminator 1
 1119 041a E8000000 		call	__cxa_end_catch
 1119      00
 1120              	.LBE22:
 1121              	.LBE24:
 1122 041f E9430100 		jmp	.L55
 1122      00
 1123              	.L41:
 1124              	.LBB25:
 1125              	.LBB23:
 1126              		.loc 6 37 0
 1127 0424 4889C7   		movq	%rax, %rdi
 1128 0427 E8000000 		call	__cxa_begin_catch
 1128      00
 1129 042c 48898578 		movq	%rax, -392(%rbp)
 1129      FEFFFF
 1130              	.LBB21:
 1131 0433 488D8580 		leaq	-384(%rbp), %rax
 1131      FEFFFF
 1132 043a 4889C7   		movq	%rax, %rdi
 1133              	.LEHB17:
 1134 043d E8000000 		call	_ZN8UnitTest15MemoryOutStreamC1Ev
 1134      00
 1135              	.LEHE17:
 1136              		.loc 6 37 0 discriminator 1
 1137 0442 488B8578 		movq	-392(%rbp), %rax
 1137      FEFFFF
 1138 0449 488B00   		movq	(%rax), %rax
 1139 044c 4883C010 		addq	$16, %rax
 1140 0450 488B00   		movq	(%rax), %rax
 1141 0453 488B9578 		movq	-392(%rbp), %rdx
 1141      FEFFFF
 1142 045a 4889D7   		movq	%rdx, %rdi
 1143 045d FFD0     		call	*%rax
 1144 045f 4889C3   		movq	%rax, %rbx
 1145 0462 488D8580 		leaq	-384(%rbp), %rax
 1145      FEFFFF
 1146 0469 BE000000 		movl	$.LC11, %esi
 1146      00
 1147 046e 4889C7   		movq	%rax, %rdi
 1148              	.LEHB18:
 1149 0471 E8000000 		call	_ZStlsISt11char_traitsIcEERSt13basic_ostreamIcT_ES5_PKc
 1149      00
 1150 0476 4889DE   		movq	%rbx, %rsi
 1151 0479 4889C7   		movq	%rax, %rdi
 1152 047c E8000000 		call	_ZStlsISt11char_traitsIcEERSt13basic_ostreamIcT_ES5_PKc
 1152      00
 1153 0481 488D8580 		leaq	-384(%rbp), %rax
 1153      FEFFFF
 1154 0488 4889C7   		movq	%rax, %rdi
 1155 048b E8000000 		call	_ZNK8UnitTest15MemoryOutStream7GetTextEv
 1155      00
 1156 0490 4889C3   		movq	%rax, %rbx
 1157 0493 488B8558 		movq	-424(%rbp), %rax
 1157      FEFFFF
 1158 049a 4C8D6008 		leaq	8(%rax), %r12
 1159 049e E8000000 		call	_ZN8UnitTest11CurrentTest7ResultsEv
 1159      00
 1160 04a3 488B00   		movq	(%rax), %rax
 1161 04a6 4889DA   		movq	%rbx, %rdx
 1162 04a9 4C89E6   		movq	%r12, %rsi
 1163 04ac 4889C7   		movq	%rax, %rdi
 1164 04af E8000000 		call	_ZN8UnitTest11TestResults13OnTestFailureERKNS_11TestDetailsEPKc
 1164      00
 1165              	.LEHE18:
 1166 04b4 488D8580 		leaq	-384(%rbp), %rax
 1166      FEFFFF
 1167 04bb 4889C7   		movq	%rax, %rdi
 1168              	.LEHB19:
 1169 04be E8000000 		call	_ZN8UnitTest15MemoryOutStreamD1Ev
 1169      00
 1170              	.LEHE19:
 1171              	.LBE21:
 1172              		.loc 6 37 0
 1173 04c3 E8000000 		call	__cxa_end_catch
 1173      00
 1174              	.LBE23:
 1175              	.LBE25:
 1176 04c8 E99A0000 		jmp	.L55
 1176      00
 1177              	.L54:
 1178              	.LBB26:
 1179 04cd 4889C7   		movq	%rax, %rdi
 1180 04d0 E8000000 		call	__cxa_begin_catch
 1180      00
 1181 04d5 80BD6FFE 		cmpb	$0, -401(%rbp)
 1181      FFFF00
 1182 04dc 7443     		je	.L47
 1183              		.loc 6 37 0 discriminator 1
 1184 04de 488B8558 		movq	-424(%rbp), %rax
 1184      FEFFFF
 1185 04e5 488D4808 		leaq	8(%rax), %rcx
 1186 04e9 488D8580 		leaq	-384(%rbp), %rax
 1186      FEFFFF
 1187 04f0 BA250000 		movl	$37, %edx
 1187      00
 1188 04f5 4889CE   		movq	%rcx, %rsi
 1189 04f8 4889C7   		movq	%rax, %rdi
 1190              	.LEHB20:
 1191 04fb E8000000 		call	_ZN8UnitTest11TestDetailsC1ERKS0_i
 1191      00
 1192 0500 E8000000 		call	_ZN8UnitTest11CurrentTest7ResultsEv
 1192      00
 1193 0505 488B00   		movq	(%rax), %rax
 1194 0508 488D8D80 		leaq	-384(%rbp), %rcx
 1194      FEFFFF
 1195 050f BA000000 		movl	$.LC12, %edx
 1195      00
 1196 0514 4889CE   		movq	%rcx, %rsi
 1197 0517 4889C7   		movq	%rax, %rdi
 1198 051a E8000000 		call	_ZN8UnitTest11TestResults13OnTestFailureERKNS_11TestDetailsEPKc
 1198      00
 1199 051f EB41     		jmp	.L48
 1200              	.L47:
 1201              		.loc 6 37 0 discriminator 2
 1202 0521 488B8558 		movq	-424(%rbp), %rax
 1202      FEFFFF
 1203 0528 488D4808 		leaq	8(%rax), %rcx
 1204 052c 488D8580 		leaq	-384(%rbp), %rax
 1204      FEFFFF
 1205 0533 BA250000 		movl	$37, %edx
 1205      00
 1206 0538 4889CE   		movq	%rcx, %rsi
 1207 053b 4889C7   		movq	%rax, %rdi
 1208 053e E8000000 		call	_ZN8UnitTest11TestDetailsC1ERKS0_i
 1208      00
 1209              		.loc 6 37 0 discriminator 1
 1210 0543 E8000000 		call	_ZN8UnitTest11CurrentTest7ResultsEv
 1210      00
 1211 0548 488B00   		movq	(%rax), %rax
 1212 054b 488D8D80 		leaq	-384(%rbp), %rcx
 1212      FEFFFF
 1213 0552 BA000000 		movl	$.LC13, %edx
 1213      00
 1214 0557 4889CE   		movq	%rcx, %rsi
 1215 055a 4889C7   		movq	%rax, %rdi
 1216 055d E8000000 		call	_ZN8UnitTest11TestResults13OnTestFailureERKNS_11TestDetailsEPKc
 1216      00
 1217              	.LEHE20:
 1218              	.L48:
 1219              	.LEHB21:
 1220 0562 E8000000 		call	__cxa_end_catch
 1220      00
 1221              	.LEHE21:
 1222              	.L55:
 1223              	.LBE26:
 1224              		.loc 6 37 0
 1225 0567 90       		nop
 1226 0568 4881C4A0 		addq	$416, %rsp
 1226      010000
 1227 056f 5B       		popq	%rbx
 1228 0570 415C     		popq	%r12
 1229 0572 5D       		popq	%rbp
 1230              		.cfi_def_cfa 7, 8
 1231 0573 C3       		ret
 1232              		.cfi_endproc
 1233              	.LFE1055:
 1234              		.section	.gcc_except_table
 1235              		.align 4
 1236              	.LLSDA1055:
 1237 0038 FF       		.byte	0xff
 1238 0039 03       		.byte	0x3
 1239 003a 49       		.uleb128 .LLSDATT1055-.LLSDATTD1055
 1240              	.LLSDATTD1055:
 1241 003b 01       		.byte	0x1
 1242 003c 35       		.uleb128 .LLSDACSE1055-.LLSDACSB1055
 1243              	.LLSDACSB1055:
 1244 003d 34       		.uleb128 .LEHB12-.LFB1055
 1245 003e 29       		.uleb128 .LEHE12-.LEHB12
 1246 003f 62       		.uleb128 .L49-.LFB1055
 1247 0040 05       		.uleb128 0x5
 1248 0041 8501     		.uleb128 .LEHB13-.LFB1055
 1249 0043 05       		.uleb128 .LEHE13-.LEHB13
 1250 0044 00       		.uleb128 0
 1251 0045 00       		.uleb128 0
 1252 0046 AC01     		.uleb128 .LEHB14-.LFB1055
 1253 0048 05       		.uleb128 .LEHE14-.LEHB14
 1254 0049 00       		.uleb128 0
 1255 004a 00       		.uleb128 0
 1256 004b BF01     		.uleb128 .LEHB15-.LFB1055
 1257 004d 05       		.uleb128 .LEHE15-.LEHB15
 1258 004e 00       		.uleb128 0
 1259 004f 00       		.uleb128 0
 1260 0050 FD01     		.uleb128 .LEHB16-.LFB1055
 1261 0052 5F       		.uleb128 .LEHE16-.LEHB16
 1262 0053 77       		.uleb128 .L50-.LFB1055
 1263 0054 00       		.uleb128 0
 1264 0055 FF02     		.uleb128 .LEHB17-.LFB1055
 1265 0057 05       		.uleb128 .LEHE17-.LEHB17
 1266 0058 9E01     		.uleb128 .L52-.LFB1055
 1267 005a 00       		.uleb128 0
 1268 005b B303     		.uleb128 .LEHB18-.LFB1055
 1269 005d 43       		.uleb128 .LEHE18-.LEHB18
 1270 005e 8A01     		.uleb128 .L51-.LFB1055
 1271 0060 00       		.uleb128 0
 1272 0061 8004     		.uleb128 .LEHB19-.LFB1055
 1273 0063 05       		.uleb128 .LEHE19-.LEHB19
 1274 0064 9E01     		.uleb128 .L52-.LFB1055
 1275 0066 00       		.uleb128 0
 1276 0067 BD04     		.uleb128 .LEHB20-.LFB1055
 1277 0069 67       		.uleb128 .LEHE20-.LEHB20
 1278 006a B101     		.uleb128 .L53-.LFB1055
 1279 006c 00       		.uleb128 0
 1280 006d A405     		.uleb128 .LEHB21-.LFB1055
 1281 006f 05       		.uleb128 .LEHE21-.LEHB21
 1282 0070 00       		.uleb128 0
 1283 0071 00       		.uleb128 0
 1284              	.LLSDACSE1055:
 1285 0072 03       		.byte	0x3
 1286 0073 00       		.byte	0
 1287 0074 02       		.byte	0x2
 1288 0075 7D       		.byte	0x7d
 1289 0076 01       		.byte	0x1
 1290 0077 7D       		.byte	0x7d
 1291              		.align 4
 1292 0078 00000000 		.long	0
 1293              	
 1294 007c 00000000 		.long	_ZTISt9exception
 1295 0080 00000000 		.long	_ZTIN8UnitTest15AssertExceptionE
 1296              	.LLSDATT1055:
 1297              		.text
 1299              		.align 2
 1301              	_ZN12_GLOBAL__N_134ThrowingThingieDummyTestNameHelper7RunImplEv:
 1302              	.LFB1056:
  38:TestTestMacros.cpp **** {
 1303              		.loc 6 38 0 is_stmt 1
 1304              		.cfi_startproc
 1305 0574 55       		pushq	%rbp
 1306              		.cfi_def_cfa_offset 16
 1307              		.cfi_offset 6, -16
 1308 0575 4889E5   		movq	%rsp, %rbp
 1309              		.cfi_def_cfa_register 6
 1310 0578 48897DF8 		movq	%rdi, -8(%rbp)
  39:TestTestMacros.cpp **** }
 1311              		.loc 6 39 0
 1312 057c 5D       		popq	%rbp
 1313              		.cfi_def_cfa 7, 8
 1314 057d C3       		ret
 1315              		.cfi_endproc
 1316              	.LFE1056:
 1318              		.section	.rodata
 1319 01a7 00       		.align 8
 1320              	.LC14:
 1321 01a8 45786365 		.string	"ExceptionsInFixtureAreReportedAsHappeningInTheFixture"
 1321      7074696F 
 1321      6E73496E 
 1321      46697874 
 1321      75726541 
 1322              		.text
 1323              		.align 2
 1325              	_ZN12_GLOBAL__N_157TestExceptionsInFixtureAreReportedAsHappeningInTheFixtureC2Ev:
 1326              	.LFB1058:
  40:TestTestMacros.cpp **** 
  41:TestTestMacros.cpp **** TEST (ExceptionsInFixtureAreReportedAsHappeningInTheFixture)
 1327              		.loc 6 41 0
 1328              		.cfi_startproc
 1329 057e 55       		pushq	%rbp
 1330              		.cfi_def_cfa_offset 16
 1331              		.cfi_offset 6, -16
 1332 057f 4889E5   		movq	%rsp, %rbp
 1333              		.cfi_def_cfa_register 6
 1334 0582 4883EC10 		subq	$16, %rsp
 1335 0586 48897DF8 		movq	%rdi, -8(%rbp)
 1336              	.LBB27:
 1337              		.loc 6 41 0
 1338 058a E8000000 		call	_ZN13UnitTestSuite12GetSuiteNameEv
 1338      00
 1339 058f 4889C2   		movq	%rax, %rdx
 1340 0592 488B45F8 		movq	-8(%rbp), %rax
 1341 0596 41B82900 		movl	$41, %r8d
 1341      0000
 1342 059c B9000000 		movl	$.LC2, %ecx
 1342      00
 1343 05a1 BE000000 		movl	$.LC14, %esi
 1343      00
 1344 05a6 4889C7   		movq	%rax, %rdi
 1345 05a9 E8000000 		call	_ZN8UnitTest4TestC2EPKcS2_S2_i
 1345      00
 1346 05ae 488B45F8 		movq	-8(%rbp), %rax
 1347 05b2 48C70000 		movq	$_ZTVN12_GLOBAL__N_157TestExceptionsInFixtureAreReportedAsHappeningInTheFixtureE+16, (%rax)
 1347      000000
 1348              	.LBE27:
 1349 05b9 C9       		leave
 1350              		.cfi_def_cfa 7, 8
 1351 05ba C3       		ret
 1352              		.cfi_endproc
 1353              	.LFE1058:
 1355              		.set	_ZN12_GLOBAL__N_157TestExceptionsInFixtureAreReportedAsHappeningInTheFixtureC1Ev,_ZN12_GLOBAL
 1356              		.local	_ZN12_GLOBAL__N_165testExceptionsInFixtureAreReportedAsHappeningInTheFixtureInstanceE
 1357              		.comm	_ZN12_GLOBAL__N_165testExceptionsInFixtureAreReportedAsHappeningInTheFixtureInstanceE,56,32
 1358              		.local	_ZN12_GLOBAL__N_158adderExceptionsInFixtureAreReportedAsHappeningInTheFixtureE
 1359              		.comm	_ZN12_GLOBAL__N_158adderExceptionsInFixtureAreReportedAsHappeningInTheFixtureE,1,1
 1360              		.section	.rodata
 1361              	.LC15:
 1362 01de 78636570 		.string	"xception"
 1362      74696F6E 
 1362      00
 1363 01e7 00       		.align 8
 1364              	.LC16:
 1365 01e8 73747273 		.string	"strstr(reporter.lastFailedMessage, \"xception\")"
 1365      74722872 
 1365      65706F72 
 1365      7465722E 
 1365      6C617374 
 1366              	.LC17:
 1367 0217 66697874 		.string	"fixture"
 1367      75726500 
 1368 021f 00       		.align 8
 1369              	.LC18:
 1370 0220 73747273 		.string	"strstr(reporter.lastFailedMessage, \"fixture\")"
 1370      74722872 
 1370      65706F72 
 1370      7465722E 
 1370      6C617374 
 1371              	.LC19:
 1372 024e 5468726F 		.string	"ThrowingThingie"
 1372      77696E67 
 1372      5468696E 
 1372      67696500 
 1373 025e 0000     		.align 8
 1374              	.LC20:
 1375 0260 73747273 		.string	"strstr(reporter.lastFailedMessage, \"ThrowingThingie\")"
 1375      74722872 
 1375      65706F72 
 1375      7465722E 
 1375      6C617374 
 1376 0296 0000     		.align 8
 1377              	.LC21:
 1378 0298 556E6861 		.string	"Unhandled exception in CHECK(strstr(reporter.lastFailedMessage, \"xception\"))"
 1378      6E646C65 
 1378      64206578 
 1378      63657074 
 1378      696F6E20 
 1379 02e5 000000   		.align 8
 1380              	.LC22:
 1381 02e8 556E6861 		.string	"Unhandled exception in CHECK(strstr(reporter.lastFailedMessage, \"fixture\"))"
 1381      6E646C65 
 1381      64206578 
 1381      63657074 
 1381      696F6E20 
 1382 0334 00000000 		.align 8
 1383              	.LC23:
 1384 0338 556E6861 		.string	"Unhandled exception in CHECK(strstr(reporter.lastFailedMessage, \"ThrowingThingie\"))"
 1384      6E646C65 
 1384      64206578 
 1384      63657074 
 1384      696F6E20 
 1385              		.text
 1386 05bb 90       		.align 2
 1388              	_ZNK12_GLOBAL__N_157TestExceptionsInFixtureAreReportedAsHappeningInTheFixture7RunImplEv:
 1389              	.LFB1060:
  42:TestTestMacros.cpp **** {
 1390              		.loc 6 42 0
 1391              		.cfi_startproc
 1392              		.cfi_personality 0x3,__gxx_personality_v0
 1393              		.cfi_lsda 0x3,.LLSDA1060
 1394 05bc 55       		pushq	%rbp
 1395              		.cfi_def_cfa_offset 16
 1396              		.cfi_offset 6, -16
 1397 05bd 4889E5   		movq	%rsp, %rbp
 1398              		.cfi_def_cfa_register 6
 1399 05c0 53       		pushq	%rbx
 1400 05c1 4881EC98 		subq	$2200, %rsp
 1400      080000
 1401              		.cfi_offset 3, -24
 1402 05c8 4889BD68 		movq	%rdi, -2200(%rbp)
 1402      F7FFFF
 1403              		.loc 6 42 0
 1404 05cf 64488B04 		movq	%fs:40, %rax
 1404      25280000 
 1404      00
 1405 05d8 488945E8 		movq	%rax, -24(%rbp)
 1406 05dc 31C0     		xorl	%eax, %eax
 1407              	.LBB28:
  43:TestTestMacros.cpp ****     RecordingReporter reporter;
 1408              		.loc 6 43 0
 1409 05de 488D85B0 		leaq	-2128(%rbp), %rax
 1409      F7FFFF
 1410 05e5 4889C7   		movq	%rax, %rdi
 1411 05e8 E8000000 		call	_ZN17RecordingReporterC1Ev
 1411      00
  44:TestTestMacros.cpp ****     TestResults result(&reporter);
 1412              		.loc 6 44 0
 1413 05ed 488D95B0 		leaq	-2128(%rbp), %rdx
 1413      F7FFFF
 1414 05f4 488D8570 		leaq	-2192(%rbp), %rax
 1414      F7FFFF
 1415 05fb 4889D6   		movq	%rdx, %rsi
 1416 05fe 4889C7   		movq	%rax, %rdi
 1417              	.LEHB22:
 1418 0601 E8000000 		call	_ZN8UnitTest11TestResultsC1EPNS_12TestReporterE
 1418      00
 1419              	.LBB29:
  45:TestTestMacros.cpp **** 	{
  46:TestTestMacros.cpp **** 		ScopedCurrentTest scopedResults(result);
 1420              		.loc 6 46 0
 1421 0606 488D8D70 		leaq	-2192(%rbp), %rcx
 1421      F7FFFF
 1422 060d 488D8590 		leaq	-2160(%rbp), %rax
 1422      F7FFFF
 1423 0614 BA000000 		movl	$0, %edx
 1423      00
 1424 0619 4889CE   		movq	%rcx, %rsi
 1425 061c 4889C7   		movq	%rax, %rdi
 1426 061f E8000000 		call	_ZN17ScopedCurrentTestC1ERN8UnitTest11TestResultsEPKNS0_11TestDetailsE
 1426      00
 1427              	.LEHE22:
  47:TestTestMacros.cpp **** 		list2.GetHead()->Run();
 1428              		.loc 6 47 0
 1429 0624 BF000000 		movl	$_ZN12_GLOBAL__N_15list2E, %edi
 1429      00
 1430              	.LEHB23:
 1431 0629 E8000000 		call	_ZNK8UnitTest8TestList7GetHeadEv
 1431      00
 1432 062e 4889C7   		movq	%rax, %rdi
 1433 0631 E8000000 		call	_ZN8UnitTest4Test3RunEv
 1433      00
 1434              	.LEHE23:
 1435              		.loc 6 47 0 is_stmt 0 discriminator 1
 1436 0636 488D8590 		leaq	-2160(%rbp), %rax
 1436      F7FFFF
 1437 063d 4889C7   		movq	%rax, %rdi
 1438              	.LEHB24:
 1439 0640 E8000000 		call	_ZN17ScopedCurrentTestD1Ev
 1439      00
 1440              	.LEHE24:
 1441              	.LBE29:
  48:TestTestMacros.cpp **** 	}
  49:TestTestMacros.cpp **** 
  50:TestTestMacros.cpp ****     CHECK(strstr(reporter.lastFailedMessage, "xception"));
 1442              		.loc 6 50 0 is_stmt 1
 1443 0645 488D85B0 		leaq	-2128(%rbp), %rax
 1443      F7FFFF
 1444 064c 48051405 		addq	$1300, %rax
 1444      0000
 1445 0652 BE000000 		movl	$.LC15, %esi
 1445      00
 1446 0657 4889C7   		movq	%rax, %rdi
 1447 065a E8000000 		call	strstr
 1447      00
 1448 065f 4889C7   		movq	%rax, %rdi
 1449 0662 E8000000 		call	_ZN8UnitTest5CheckIPcEEbT_
 1449      00
 1450 0667 83F001   		xorl	$1, %eax
 1451 066a 84C0     		testb	%al, %al
 1452 066c 743E     		je	.L59
 1453              	.LEHB25:
 1454              		.loc 6 50 0 is_stmt 0 discriminator 1
 1455 066e E8000000 		call	_ZN8UnitTest11CurrentTest7DetailsEv
 1455      00
 1456 0673 488B08   		movq	(%rax), %rcx
 1457 0676 488D8590 		leaq	-2160(%rbp), %rax
 1457      F7FFFF
 1458 067d BA320000 		movl	$50, %edx
 1458      00
 1459 0682 4889CE   		movq	%rcx, %rsi
 1460 0685 4889C7   		movq	%rax, %rdi
 1461 0688 E8000000 		call	_ZN8UnitTest11TestDetailsC1ERKS0_i
 1461      00
 1462 068d E8000000 		call	_ZN8UnitTest11CurrentTest7ResultsEv
 1462      00
 1463 0692 488B00   		movq	(%rax), %rax
 1464 0695 488D8D90 		leaq	-2160(%rbp), %rcx
 1464      F7FFFF
 1465 069c BA000000 		movl	$.LC16, %edx
 1465      00
 1466 06a1 4889CE   		movq	%rcx, %rsi
 1467 06a4 4889C7   		movq	%rax, %rdi
 1468 06a7 E8000000 		call	_ZN8UnitTest11TestResults13OnTestFailureERKNS_11TestDetailsEPKc
 1468      00
 1469              	.LEHE25:
 1470              	.L59:
  51:TestTestMacros.cpp ****     CHECK(strstr(reporter.lastFailedMessage, "fixture"));
 1471              		.loc 6 51 0 is_stmt 1
 1472 06ac 488D85B0 		leaq	-2128(%rbp), %rax
 1472      F7FFFF
 1473 06b3 48051405 		addq	$1300, %rax
 1473      0000
 1474 06b9 BE000000 		movl	$.LC17, %esi
 1474      00
 1475 06be 4889C7   		movq	%rax, %rdi
 1476 06c1 E8000000 		call	strstr
 1476      00
 1477 06c6 4889C7   		movq	%rax, %rdi
 1478 06c9 E8000000 		call	_ZN8UnitTest5CheckIPcEEbT_
 1478      00
 1479 06ce 83F001   		xorl	$1, %eax
 1480 06d1 84C0     		testb	%al, %al
 1481 06d3 743E     		je	.L60
 1482              	.LEHB26:
 1483              		.loc 6 51 0 is_stmt 0 discriminator 1
 1484 06d5 E8000000 		call	_ZN8UnitTest11CurrentTest7DetailsEv
 1484      00
 1485 06da 488B08   		movq	(%rax), %rcx
 1486 06dd 488D8590 		leaq	-2160(%rbp), %rax
 1486      F7FFFF
 1487 06e4 BA330000 		movl	$51, %edx
 1487      00
 1488 06e9 4889CE   		movq	%rcx, %rsi
 1489 06ec 4889C7   		movq	%rax, %rdi
 1490 06ef E8000000 		call	_ZN8UnitTest11TestDetailsC1ERKS0_i
 1490      00
 1491 06f4 E8000000 		call	_ZN8UnitTest11CurrentTest7ResultsEv
 1491      00
 1492 06f9 488B00   		movq	(%rax), %rax
 1493 06fc 488D8D90 		leaq	-2160(%rbp), %rcx
 1493      F7FFFF
 1494 0703 BA000000 		movl	$.LC18, %edx
 1494      00
 1495 0708 4889CE   		movq	%rcx, %rsi
 1496 070b 4889C7   		movq	%rax, %rdi
 1497 070e E8000000 		call	_ZN8UnitTest11TestResults13OnTestFailureERKNS_11TestDetailsEPKc
 1497      00
 1498              	.LEHE26:
 1499              	.L60:
  52:TestTestMacros.cpp ****     CHECK(strstr(reporter.lastFailedMessage, "ThrowingThingie"));
 1500              		.loc 6 52 0 is_stmt 1
 1501 0713 488D85B0 		leaq	-2128(%rbp), %rax
 1501      F7FFFF
 1502 071a 48051405 		addq	$1300, %rax
 1502      0000
 1503 0720 BE000000 		movl	$.LC19, %esi
 1503      00
 1504 0725 4889C7   		movq	%rax, %rdi
 1505 0728 E8000000 		call	strstr
 1505      00
 1506 072d 4889C7   		movq	%rax, %rdi
 1507 0730 E8000000 		call	_ZN8UnitTest5CheckIPcEEbT_
 1507      00
 1508 0735 83F001   		xorl	$1, %eax
 1509 0738 84C0     		testb	%al, %al
 1510 073a 743E     		je	.L61
 1511              	.LEHB27:
 1512              		.loc 6 52 0 is_stmt 0 discriminator 1
 1513 073c E8000000 		call	_ZN8UnitTest11CurrentTest7DetailsEv
 1513      00
 1514 0741 488B08   		movq	(%rax), %rcx
 1515 0744 488D8590 		leaq	-2160(%rbp), %rax
 1515      F7FFFF
 1516 074b BA340000 		movl	$52, %edx
 1516      00
 1517 0750 4889CE   		movq	%rcx, %rsi
 1518 0753 4889C7   		movq	%rax, %rdi
 1519 0756 E8000000 		call	_ZN8UnitTest11TestDetailsC1ERKS0_i
 1519      00
 1520 075b E8000000 		call	_ZN8UnitTest11CurrentTest7ResultsEv
 1520      00
 1521 0760 488B00   		movq	(%rax), %rax
 1522 0763 488D8D90 		leaq	-2160(%rbp), %rcx
 1522      F7FFFF
 1523 076a BA000000 		movl	$.LC20, %edx
 1523      00
 1524 076f 4889CE   		movq	%rcx, %rsi
 1525 0772 4889C7   		movq	%rax, %rdi
 1526 0775 E8000000 		call	_ZN8UnitTest11TestResults13OnTestFailureERKNS_11TestDetailsEPKc
 1526      00
 1527              	.LEHE27:
 1528              	.L61:
 1529              		.loc 6 52 0 discriminator 2
 1530 077a 488D85B0 		leaq	-2128(%rbp), %rax
 1530      F7FFFF
 1531 0781 4889C7   		movq	%rax, %rdi
 1532              	.LEHB28:
 1533 0784 E8000000 		call	_ZN17RecordingReporterD1Ev
 1533      00
 1534              	.LEHE28:
 1535              	.LBE28:
  53:TestTestMacros.cpp **** }
 1536              		.loc 6 53 0 is_stmt 1 discriminator 2
 1537 0789 488B45E8 		movq	-24(%rbp), %rax
 1538 078d 64483304 		xorq	%fs:40, %rax
 1538      25280000 
 1538      00
 1539 0796 0F845201 		je	.L70
 1539      0000
 1540 079c E9480100 		jmp	.L79
 1540      00
 1541              	.L72:
 1542 07a1 4889C3   		movq	%rax, %rbx
 1543              	.LBB31:
 1544              	.LBB30:
  47:TestTestMacros.cpp **** 	}
 1545              		.loc 6 47 0
 1546 07a4 488D8590 		leaq	-2160(%rbp), %rax
 1546      F7FFFF
 1547 07ab 4889C7   		movq	%rax, %rdi
 1548 07ae E8000000 		call	_ZN17ScopedCurrentTestD1Ev
 1548      00
 1549 07b3 E9170100 		jmp	.L63
 1549      00
 1550              	.L74:
 1551 07b8 4889C3   		movq	%rax, %rbx
 1552              	.LBE30:
  50:TestTestMacros.cpp ****     CHECK(strstr(reporter.lastFailedMessage, "fixture"));
 1553              		.loc 6 50 0
 1554 07bb E8000000 		call	__cxa_end_catch
 1554      00
 1555 07c0 E90A0100 		jmp	.L63
 1555      00
 1556              	.L73:
 1557 07c5 4889C7   		movq	%rax, %rdi
 1558 07c8 E8000000 		call	__cxa_begin_catch
 1558      00
 1559              	.LEHB29:
 1560 07cd E8000000 		call	_ZN8UnitTest11CurrentTest7DetailsEv
 1560      00
 1561 07d2 488B08   		movq	(%rax), %rcx
 1562 07d5 488D8590 		leaq	-2160(%rbp), %rax
 1562      F7FFFF
 1563 07dc BA320000 		movl	$50, %edx
 1563      00
 1564 07e1 4889CE   		movq	%rcx, %rsi
 1565 07e4 4889C7   		movq	%rax, %rdi
 1566 07e7 E8000000 		call	_ZN8UnitTest11TestDetailsC1ERKS0_i
 1566      00
  50:TestTestMacros.cpp ****     CHECK(strstr(reporter.lastFailedMessage, "fixture"));
 1567              		.loc 6 50 0 is_stmt 0 discriminator 1
 1568 07ec E8000000 		call	_ZN8UnitTest11CurrentTest7ResultsEv
 1568      00
 1569 07f1 488B00   		movq	(%rax), %rax
 1570 07f4 488D8D90 		leaq	-2160(%rbp), %rcx
 1570      F7FFFF
 1571 07fb BA000000 		movl	$.LC21, %edx
 1571      00
 1572 0800 4889CE   		movq	%rcx, %rsi
 1573 0803 4889C7   		movq	%rax, %rdi
 1574 0806 E8000000 		call	_ZN8UnitTest11TestResults13OnTestFailureERKNS_11TestDetailsEPKc
 1574      00
 1575              	.LEHE29:
 1576              	.LEHB30:
 1577 080b E8000000 		call	__cxa_end_catch
 1577      00
 1578              	.LEHE30:
  50:TestTestMacros.cpp ****     CHECK(strstr(reporter.lastFailedMessage, "fixture"));
 1579              		.loc 6 50 0
 1580 0810 E997FEFF 		jmp	.L59
 1580      FF
 1581              	.L76:
 1582 0815 4889C3   		movq	%rax, %rbx
  51:TestTestMacros.cpp ****     CHECK(strstr(reporter.lastFailedMessage, "ThrowingThingie"));
 1583              		.loc 6 51 0 is_stmt 1
 1584 0818 E8000000 		call	__cxa_end_catch
 1584      00
 1585 081d E9AD0000 		jmp	.L63
 1585      00
 1586              	.L75:
 1587 0822 4889C7   		movq	%rax, %rdi
 1588 0825 E8000000 		call	__cxa_begin_catch
 1588      00
 1589              	.LEHB31:
 1590 082a E8000000 		call	_ZN8UnitTest11CurrentTest7DetailsEv
 1590      00
 1591 082f 488B08   		movq	(%rax), %rcx
 1592 0832 488D8590 		leaq	-2160(%rbp), %rax
 1592      F7FFFF
 1593 0839 BA330000 		movl	$51, %edx
 1593      00
 1594 083e 4889CE   		movq	%rcx, %rsi
 1595 0841 4889C7   		movq	%rax, %rdi
 1596 0844 E8000000 		call	_ZN8UnitTest11TestDetailsC1ERKS0_i
 1596      00
  51:TestTestMacros.cpp ****     CHECK(strstr(reporter.lastFailedMessage, "ThrowingThingie"));
 1597              		.loc 6 51 0 is_stmt 0 discriminator 1
 1598 0849 E8000000 		call	_ZN8UnitTest11CurrentTest7ResultsEv
 1598      00
 1599 084e 488B00   		movq	(%rax), %rax
 1600 0851 488D8D90 		leaq	-2160(%rbp), %rcx
 1600      F7FFFF
 1601 0858 BA000000 		movl	$.LC22, %edx
 1601      00
 1602 085d 4889CE   		movq	%rcx, %rsi
 1603 0860 4889C7   		movq	%rax, %rdi
 1604 0863 E8000000 		call	_ZN8UnitTest11TestResults13OnTestFailureERKNS_11TestDetailsEPKc
 1604      00
 1605              	.LEHE31:
 1606              	.LEHB32:
 1607 0868 E8000000 		call	__cxa_end_catch
 1607      00
 1608              	.LEHE32:
  51:TestTestMacros.cpp ****     CHECK(strstr(reporter.lastFailedMessage, "ThrowingThingie"));
 1609              		.loc 6 51 0
 1610 086d E9A1FEFF 		jmp	.L60
 1610      FF
 1611              	.L78:
 1612 0872 4889C3   		movq	%rax, %rbx
  52:TestTestMacros.cpp **** }
 1613              		.loc 6 52 0 is_stmt 1
 1614 0875 E8000000 		call	__cxa_end_catch
 1614      00
 1615 087a EB53     		jmp	.L63
 1616              	.L77:
 1617 087c 4889C7   		movq	%rax, %rdi
 1618 087f E8000000 		call	__cxa_begin_catch
 1618      00
 1619              	.LEHB33:
 1620 0884 E8000000 		call	_ZN8UnitTest11CurrentTest7DetailsEv
 1620      00
 1621 0889 488B08   		movq	(%rax), %rcx
 1622 088c 488D8590 		leaq	-2160(%rbp), %rax
 1622      F7FFFF
 1623 0893 BA340000 		movl	$52, %edx
 1623      00
 1624 0898 4889CE   		movq	%rcx, %rsi
 1625 089b 4889C7   		movq	%rax, %rdi
 1626 089e E8000000 		call	_ZN8UnitTest11TestDetailsC1ERKS0_i
 1626      00
  52:TestTestMacros.cpp **** }
 1627              		.loc 6 52 0 is_stmt 0 discriminator 1
 1628 08a3 E8000000 		call	_ZN8UnitTest11CurrentTest7ResultsEv
 1628      00
 1629 08a8 488B00   		movq	(%rax), %rax
 1630 08ab 488D8D90 		leaq	-2160(%rbp), %rcx
 1630      F7FFFF
 1631 08b2 BA000000 		movl	$.LC23, %edx
 1631      00
 1632 08b7 4889CE   		movq	%rcx, %rsi
 1633 08ba 4889C7   		movq	%rax, %rdi
 1634 08bd E8000000 		call	_ZN8UnitTest11TestResults13OnTestFailureERKNS_11TestDetailsEPKc
 1634      00
 1635              	.LEHE33:
 1636              	.LEHB34:
 1637 08c2 E8000000 		call	__cxa_end_catch
 1637      00
 1638              	.LEHE34:
  52:TestTestMacros.cpp **** }
 1639              		.loc 6 52 0
 1640 08c7 E9AEFEFF 		jmp	.L61
 1640      FF
 1641              	.L71:
 1642 08cc 4889C3   		movq	%rax, %rbx
 1643              	.L63:
 1644 08cf 488D85B0 		leaq	-2128(%rbp), %rax
 1644      F7FFFF
 1645 08d6 4889C7   		movq	%rax, %rdi
 1646 08d9 E8000000 		call	_ZN17RecordingReporterD1Ev
 1646      00
 1647 08de 4889D8   		movq	%rbx, %rax
 1648 08e1 4889C7   		movq	%rax, %rdi
 1649              	.LEHB35:
 1650 08e4 E8000000 		call	_Unwind_Resume
 1650      00
 1651              	.LEHE35:
 1652              	.L79:
 1653              	.LBE31:
 1654              		.loc 6 53 0 is_stmt 1
 1655 08e9 E8000000 		call	__stack_chk_fail
 1655      00
 1656              	.L70:
 1657 08ee 4881C498 		addq	$2200, %rsp
 1657      080000
 1658 08f5 5B       		popq	%rbx
 1659 08f6 5D       		popq	%rbp
 1660              		.cfi_def_cfa 7, 8
 1661 08f7 C3       		ret
 1662              		.cfi_endproc
 1663              	.LFE1060:
 1664              		.section	.gcc_except_table
 1665              		.align 4
 1666              	.LLSDA1060:
 1667 0084 FF       		.byte	0xff
 1668 0085 03       		.byte	0x3
 1669 0086 59       		.uleb128 .LLSDATT1060-.LLSDATTD1060
 1670              	.LLSDATTD1060:
 1671 0087 01       		.byte	0x1
 1672 0088 50       		.uleb128 .LLSDACSE1060-.LLSDACSB1060
 1673              	.LLSDACSB1060:
 1674 0089 45       		.uleb128 .LEHB22-.LFB1060
 1675 008a 23       		.uleb128 .LEHE22-.LEHB22
 1676 008b 9006     		.uleb128 .L71-.LFB1060
 1677 008d 00       		.uleb128 0
 1678 008e 6D       		.uleb128 .LEHB23-.LFB1060
 1679 008f 0D       		.uleb128 .LEHE23-.LEHB23
 1680 0090 E503     		.uleb128 .L72-.LFB1060
 1681 0092 00       		.uleb128 0
 1682 0093 8401     		.uleb128 .LEHB24-.LFB1060
 1683 0095 05       		.uleb128 .LEHE24-.LEHB24
 1684 0096 9006     		.uleb128 .L71-.LFB1060
 1685 0098 00       		.uleb128 0
 1686 0099 B201     		.uleb128 .LEHB25-.LFB1060
 1687 009b 3E       		.uleb128 .LEHE25-.LEHB25
 1688 009c 8904     		.uleb128 .L73-.LFB1060
 1689 009e 01       		.uleb128 0x1
 1690 009f 9902     		.uleb128 .LEHB26-.LFB1060
 1691 00a1 3E       		.uleb128 .LEHE26-.LEHB26
 1692 00a2 E604     		.uleb128 .L75-.LFB1060
 1693 00a4 01       		.uleb128 0x1
 1694 00a5 8003     		.uleb128 .LEHB27-.LFB1060
 1695 00a7 3E       		.uleb128 .LEHE27-.LEHB27
 1696 00a8 C005     		.uleb128 .L77-.LFB1060
 1697 00aa 01       		.uleb128 0x1
 1698 00ab C803     		.uleb128 .LEHB28-.LFB1060
 1699 00ad 05       		.uleb128 .LEHE28-.LEHB28
 1700 00ae 00       		.uleb128 0
 1701 00af 00       		.uleb128 0
 1702 00b0 9104     		.uleb128 .LEHB29-.LFB1060
 1703 00b2 3E       		.uleb128 .LEHE29-.LEHB29
 1704 00b3 FC03     		.uleb128 .L74-.LFB1060
 1705 00b5 00       		.uleb128 0
 1706 00b6 CF04     		.uleb128 .LEHB30-.LFB1060
 1707 00b8 05       		.uleb128 .LEHE30-.LEHB30
 1708 00b9 9006     		.uleb128 .L71-.LFB1060
 1709 00bb 00       		.uleb128 0
 1710 00bc EE04     		.uleb128 .LEHB31-.LFB1060
 1711 00be 3E       		.uleb128 .LEHE31-.LEHB31
 1712 00bf D904     		.uleb128 .L76-.LFB1060
 1713 00c1 00       		.uleb128 0
 1714 00c2 AC05     		.uleb128 .LEHB32-.LFB1060
 1715 00c4 05       		.uleb128 .LEHE32-.LEHB32
 1716 00c5 9006     		.uleb128 .L71-.LFB1060
 1717 00c7 00       		.uleb128 0
 1718 00c8 C805     		.uleb128 .LEHB33-.LFB1060
 1719 00ca 3E       		.uleb128 .LEHE33-.LEHB33
 1720 00cb B605     		.uleb128 .L78-.LFB1060
 1721 00cd 00       		.uleb128 0
 1722 00ce 8606     		.uleb128 .LEHB34-.LFB1060
 1723 00d0 05       		.uleb128 .LEHE34-.LEHB34
 1724 00d1 9006     		.uleb128 .L71-.LFB1060
 1725 00d3 00       		.uleb128 0
 1726 00d4 A806     		.uleb128 .LEHB35-.LFB1060
 1727 00d6 05       		.uleb128 .LEHE35-.LEHB35
 1728 00d7 00       		.uleb128 0
 1729 00d8 00       		.uleb128 0
 1730              	.LLSDACSE1060:
 1731 00d9 01       		.byte	0x1
 1732 00da 00       		.byte	0
 1733 00db 00       		.align 4
 1734 00dc 00000000 		.long	0
 1735              	
 1736              	.LLSDATT1060:
 1737              		.text
 1739              		.section	.rodata
 1740              	.LC24:
 1741 038c 54657374 		.string	"TestSuite1"
 1741      53756974 
 1741      653100
 1742              		.text
 1744              	_ZN12_GLOBAL__N_115SuiteTestSuite113UnitTestSuite12GetSuiteNameEv:
 1745              	.LFB1061:
  54:TestTestMacros.cpp **** 
  55:TestTestMacros.cpp **** struct DummyFixture
  56:TestTestMacros.cpp **** {
  57:TestTestMacros.cpp ****     int x;
  58:TestTestMacros.cpp **** };
  59:TestTestMacros.cpp **** 
  60:TestTestMacros.cpp **** // We're really testing the macros so we just want them to compile and link
  61:TestTestMacros.cpp **** SUITE(TestSuite1)
 1746              		.loc 6 61 0
 1747              		.cfi_startproc
 1748 08f8 55       		pushq	%rbp
 1749              		.cfi_def_cfa_offset 16
 1750              		.cfi_offset 6, -16
 1751 08f9 4889E5   		movq	%rsp, %rbp
 1752              		.cfi_def_cfa_register 6
 1753              		.loc 6 61 0
 1754 08fc B8000000 		movl	$.LC24, %eax
 1754      00
 1755 0901 5D       		popq	%rbp
 1756              		.cfi_def_cfa 7, 8
 1757 0902 C3       		ret
 1758              		.cfi_endproc
 1759              	.LFE1061:
 1761              		.section	.rodata
 1762 0397 00       		.align 8
 1763              	.LC25:
 1764 0398 53696D69 		.string	"SimilarlyNamedTestsInDifferentSuitesWork"
 1764      6C61726C 
 1764      794E616D 
 1764      65645465 
 1764      73747349 
 1765              		.text
 1766 0903 90       		.align 2
 1768              	_ZN12_GLOBAL__N_115SuiteTestSuite144TestSimilarlyNamedTestsInDifferentSuitesWorkC2Ev:
 1769              	.LFB1063:
  62:TestTestMacros.cpp **** {
  63:TestTestMacros.cpp **** 	TEST(SimilarlyNamedTestsInDifferentSuitesWork)
 1770              		.loc 6 63 0
 1771              		.cfi_startproc
 1772 0904 55       		pushq	%rbp
 1773              		.cfi_def_cfa_offset 16
 1774              		.cfi_offset 6, -16
 1775 0905 4889E5   		movq	%rsp, %rbp
 1776              		.cfi_def_cfa_register 6
 1777 0908 4883EC10 		subq	$16, %rsp
 1778 090c 48897DF8 		movq	%rdi, -8(%rbp)
 1779              	.LBB32:
 1780              		.loc 6 63 0
 1781 0910 E8E3FFFF 		call	_ZN12_GLOBAL__N_115SuiteTestSuite113UnitTestSuite12GetSuiteNameEv
 1781      FF
 1782 0915 4889C2   		movq	%rax, %rdx
 1783 0918 488B45F8 		movq	-8(%rbp), %rax
 1784 091c 41B83F00 		movl	$63, %r8d
 1784      0000
 1785 0922 B9000000 		movl	$.LC2, %ecx
 1785      00
 1786 0927 BE000000 		movl	$.LC25, %esi
 1786      00
 1787 092c 4889C7   		movq	%rax, %rdi
 1788 092f E8000000 		call	_ZN8UnitTest4TestC2EPKcS2_S2_i
 1788      00
 1789 0934 488B45F8 		movq	-8(%rbp), %rax
 1790 0938 48C70000 		movq	$_ZTVN12_GLOBAL__N_115SuiteTestSuite144TestSimilarlyNamedTestsInDifferentSuitesWorkE+16, (%ra
 1790      000000
 1791              	.LBE32:
 1792 093f C9       		leave
 1793              		.cfi_def_cfa 7, 8
 1794 0940 C3       		ret
 1795              		.cfi_endproc
 1796              	.LFE1063:
 1798              		.set	_ZN12_GLOBAL__N_115SuiteTestSuite144TestSimilarlyNamedTestsInDifferentSuitesWorkC1Ev,_ZN12_GL
 1799              		.local	_ZN12_GLOBAL__N_115SuiteTestSuite152testSimilarlyNamedTestsInDifferentSuitesWorkInstanceE
 1800              		.comm	_ZN12_GLOBAL__N_115SuiteTestSuite152testSimilarlyNamedTestsInDifferentSuitesWorkInstanceE,56
 1801              		.local	_ZN12_GLOBAL__N_115SuiteTestSuite145adderSimilarlyNamedTestsInDifferentSuitesWorkE
 1802              		.comm	_ZN12_GLOBAL__N_115SuiteTestSuite145adderSimilarlyNamedTestsInDifferentSuitesWorkE,1,1
 1803 0941 90       		.align 2
 1805              	_ZNK12_GLOBAL__N_115SuiteTestSuite144TestSimilarlyNamedTestsInDifferentSuitesWork7RunImplEv:
 1806              	.LFB1065:
  64:TestTestMacros.cpp **** 	{
 1807              		.loc 6 64 0
 1808              		.cfi_startproc
 1809 0942 55       		pushq	%rbp
 1810              		.cfi_def_cfa_offset 16
 1811              		.cfi_offset 6, -16
 1812 0943 4889E5   		movq	%rsp, %rbp
 1813              		.cfi_def_cfa_register 6
 1814 0946 48897DF8 		movq	%rdi, -8(%rbp)
  65:TestTestMacros.cpp **** 	}
 1815              		.loc 6 65 0
 1816 094a 5D       		popq	%rbp
 1817              		.cfi_def_cfa 7, 8
 1818 094b C3       		ret
 1819              		.cfi_endproc
 1820              	.LFE1065:
 1822              		.align 2
 1824              	_ZN12_GLOBAL__N_112DummyFixtureC2Ev:
 1825              	.LFB1068:
  55:TestTestMacros.cpp **** {
 1826              		.loc 6 55 0
 1827              		.cfi_startproc
 1828 094c 55       		pushq	%rbp
 1829              		.cfi_def_cfa_offset 16
 1830              		.cfi_offset 6, -16
 1831 094d 4889E5   		movq	%rsp, %rbp
 1832              		.cfi_def_cfa_register 6
 1833 0950 48897DF8 		movq	%rdi, -8(%rbp)
  55:TestTestMacros.cpp **** {
 1834              		.loc 6 55 0
 1835 0954 5D       		popq	%rbp
 1836              		.cfi_def_cfa 7, 8
 1837 0955 C3       		ret
 1838              		.cfi_endproc
 1839              	.LFE1068:
 1841              		.align 2
 1843              	_ZN12_GLOBAL__N_115SuiteTestSuite165DummyFixtureSimilarlyNamedFixtureTestsInDifferentSuitesWorkHelp
 1844              	.LFB1070:
  66:TestTestMacros.cpp **** 
  67:TestTestMacros.cpp **** 	TEST_FIXTURE(DummyFixture, SimilarlyNamedFixtureTestsInDifferentSuitesWork)
 1845              		.loc 6 67 0
 1846              		.cfi_startproc
 1847 0956 55       		pushq	%rbp
 1848              		.cfi_def_cfa_offset 16
 1849              		.cfi_offset 6, -16
 1850 0957 4889E5   		movq	%rsp, %rbp
 1851              		.cfi_def_cfa_register 6
 1852 095a 4883EC10 		subq	$16, %rsp
 1853 095e 48897DF8 		movq	%rdi, -8(%rbp)
 1854 0962 488975F0 		movq	%rsi, -16(%rbp)
 1855              	.LBB33:
 1856              		.loc 6 67 0
 1857 0966 488B45F8 		movq	-8(%rbp), %rax
 1858 096a 4889C7   		movq	%rax, %rdi
 1859 096d E8DAFFFF 		call	_ZN12_GLOBAL__N_112DummyFixtureC2Ev
 1859      FF
 1860 0972 488B45F8 		movq	-8(%rbp), %rax
 1861 0976 488B55F0 		movq	-16(%rbp), %rdx
 1862 097a 48895008 		movq	%rdx, 8(%rax)
 1863              	.LBE33:
 1864 097e C9       		leave
 1865              		.cfi_def_cfa 7, 8
 1866 097f C3       		ret
 1867              		.cfi_endproc
 1868              	.LFE1070:
 1870              		.set	_ZN12_GLOBAL__N_115SuiteTestSuite165DummyFixtureSimilarlyNamedFixtureTestsInDifferentSuitesWo
 1871              		.section	.rodata
 1872 03c1 00000000 		.align 8
 1872      000000
 1873              	.LC26:
 1874 03c8 53696D69 		.string	"SimilarlyNamedFixtureTestsInDifferentSuitesWork"
 1874      6C61726C 
 1874      794E616D 
 1874      65644669 
 1874      78747572 
 1875              		.text
 1876              		.align 2
 1878              	_ZN12_GLOBAL__N_115SuiteTestSuite163TestDummyFixtureSimilarlyNamedFixtureTestsInDifferentSuitesWork
 1879              	.LFB1073:
 1880              		.loc 6 67 0
 1881              		.cfi_startproc
 1882 0980 55       		pushq	%rbp
 1883              		.cfi_def_cfa_offset 16
 1884              		.cfi_offset 6, -16
 1885 0981 4889E5   		movq	%rsp, %rbp
 1886              		.cfi_def_cfa_register 6
 1887 0984 4883EC10 		subq	$16, %rsp
 1888 0988 48897DF8 		movq	%rdi, -8(%rbp)
 1889              	.LBB34:
 1890              		.loc 6 67 0
 1891 098c E867FFFF 		call	_ZN12_GLOBAL__N_115SuiteTestSuite113UnitTestSuite12GetSuiteNameEv
 1891      FF
 1892 0991 4889C2   		movq	%rax, %rdx
 1893 0994 488B45F8 		movq	-8(%rbp), %rax
 1894 0998 41B84300 		movl	$67, %r8d
 1894      0000
 1895 099e B9000000 		movl	$.LC2, %ecx
 1895      00
 1896 09a3 BE000000 		movl	$.LC26, %esi
 1896      00
 1897 09a8 4889C7   		movq	%rax, %rdi
 1898 09ab E8000000 		call	_ZN8UnitTest4TestC2EPKcS2_S2_i
 1898      00
 1899 09b0 488B45F8 		movq	-8(%rbp), %rax
 1900 09b4 48C70000 		movq	$_ZTVN12_GLOBAL__N_115SuiteTestSuite163TestDummyFixtureSimilarlyNamedFixtureTestsInDifferentS
 1900      000000
 1901              	.LBE34:
 1902 09bb C9       		leave
 1903              		.cfi_def_cfa 7, 8
 1904 09bc C3       		ret
 1905              		.cfi_endproc
 1906              	.LFE1073:
 1908              		.set	_ZN12_GLOBAL__N_115SuiteTestSuite163TestDummyFixtureSimilarlyNamedFixtureTestsInDifferentSuit
 1909              		.local	_ZN12_GLOBAL__N_115SuiteTestSuite171testDummyFixtureSimilarlyNamedFixtureTestsInDifferentSu
 1910              		.comm	_ZN12_GLOBAL__N_115SuiteTestSuite171testDummyFixtureSimilarlyNamedFixtureTestsInDifferentSui
 1911              		.local	_ZN12_GLOBAL__N_115SuiteTestSuite164adderDummyFixtureSimilarlyNamedFixtureTestsInDifferentS
 1912              		.comm	_ZN12_GLOBAL__N_115SuiteTestSuite164adderDummyFixtureSimilarlyNamedFixtureTestsInDifferentSu
 1913              		.section	.rodata
 1914              		.align 8
 1915              	.LC27:
 1916 03f8 556E6861 		.string	"Unhandled exception while destroying fixture DummyFixture"
 1916      6E646C65 
 1916      64206578 
 1916      63657074 
 1916      696F6E20 
 1917 0432 00000000 		.align 8
 1917      0000
 1918              	.LC28:
 1919 0438 556E6861 		.string	"Unhandled exception while constructing fixture DummyFixture"
 1919      6E646C65 
 1919      64206578 
 1919      63657074 
 1919      696F6E20 
 1920              		.text
 1921 09bd 90       		.align 2
 1923              	_ZNK12_GLOBAL__N_115SuiteTestSuite163TestDummyFixtureSimilarlyNamedFixtureTestsInDifferentSuitesWor
 1924              	.LFB1075:
 1925              		.loc 6 67 0
 1926              		.cfi_startproc
 1927              		.cfi_personality 0x3,__gxx_personality_v0
 1928              		.cfi_lsda 0x3,.LLSDA1075
 1929 09be 55       		pushq	%rbp
 1930              		.cfi_def_cfa_offset 16
 1931              		.cfi_offset 6, -16
 1932 09bf 4889E5   		movq	%rsp, %rbp
 1933              		.cfi_def_cfa_register 6
 1934 09c2 4154     		pushq	%r12
 1935 09c4 53       		pushq	%rbx
 1936 09c5 4881ECA0 		subq	$416, %rsp
 1936      010000
 1937              		.cfi_offset 12, -24
 1938              		.cfi_offset 3, -32
 1939 09cc 4889BD58 		movq	%rdi, -424(%rbp)
 1939      FEFFFF
 1940              	.LBB35:
 1941              		.loc 6 67 0
 1942 09d3 C6856FFE 		movb	$0, -401(%rbp)
 1942      FFFF00
 1943              	.LBB36:
 1944 09da 488B8558 		movq	-424(%rbp), %rax
 1944      FEFFFF
 1945 09e1 488D5008 		leaq	8(%rax), %rdx
 1946 09e5 488D8580 		leaq	-384(%rbp), %rax
 1946      FEFFFF
 1947 09ec 4889D6   		movq	%rdx, %rsi
 1948 09ef 4889C7   		movq	%rax, %rdi
 1949 09f2 E85FFFFF 		call	_ZN12_GLOBAL__N_115SuiteTestSuite165DummyFixtureSimilarlyNamedFixtureTestsInDifferentSuitesWo
 1949      FF
 1950 09f7 C6856FFE 		movb	$1, -401(%rbp)
 1950      FFFF01
 1951 09fe 488B8558 		movq	-424(%rbp), %rax
 1951      FEFFFF
 1952 0a05 488D5008 		leaq	8(%rax), %rdx
 1953 0a09 488D8580 		leaq	-384(%rbp), %rax
 1953      FEFFFF
 1954 0a10 4889D6   		movq	%rdx, %rsi
 1955 0a13 4889C7   		movq	%rax, %rdi
 1956              	.LEHB36:
 1957 0a16 E8EB2500 		call	_ZN8UnitTest11ExecuteTestIN12_GLOBAL__N_115SuiteTestSuite165DummyFixtureSimilarlyNamedFixture
 1957      00
 1958              	.LEHE36:
 1959              	.LBE36:
 1960              	.LBE35:
 1961 0a1b E9470200 		jmp	.L105
 1961      00
 1962              	.L100:
 1963 0a20 4889C3   		movq	%rax, %rbx
 1964              	.LBB43:
 1965              	.LBB37:
 1966 0a23 E8000000 		call	__cxa_end_catch
 1966      00
 1967 0a28 4889D8   		movq	%rbx, %rax
 1968 0a2b 4889C7   		movq	%rax, %rdi
 1969              	.LEHB37:
 1970 0a2e E8000000 		call	_Unwind_Resume
 1970      00
 1971              	.LEHE37:
 1972              	.L101:
 1973 0a33 4889C3   		movq	%rax, %rbx
 1974              	.LBE37:
 1975              	.LBB38:
 1976              	.LBB39:
 1977 0a36 488D8580 		leaq	-384(%rbp), %rax
 1977      FEFFFF
 1978 0a3d 4889C7   		movq	%rax, %rdi
 1979 0a40 E8000000 		call	_ZN8UnitTest15MemoryOutStreamD1Ev
 1979      00
 1980 0a45 EB03     		jmp	.L90
 1981              	.L102:
 1982 0a47 4889C3   		movq	%rax, %rbx
 1983              	.L90:
 1984              	.LBE39:
 1985 0a4a E8000000 		call	__cxa_end_catch
 1985      00
 1986 0a4f 4889D8   		movq	%rbx, %rax
 1987 0a52 4889C7   		movq	%rax, %rdi
 1988              	.LEHB38:
 1989 0a55 E8000000 		call	_Unwind_Resume
 1989      00
 1990              	.LEHE38:
 1991              	.L103:
 1992 0a5a 4889C3   		movq	%rax, %rbx
 1993              	.LBE38:
 1994 0a5d E8000000 		call	__cxa_end_catch
 1994      00
 1995 0a62 4889D8   		movq	%rbx, %rax
 1996 0a65 4889C7   		movq	%rax, %rdi
 1997              	.LEHB39:
 1998 0a68 E8000000 		call	_Unwind_Resume
 1998      00
 1999              	.LEHE39:
 2000              	.L99:
 2001 0a6d 4883FA01 		cmpq	$1, %rdx
 2002 0a71 740F     		je	.L94
 2003 0a73 4883FA02 		cmpq	$2, %rdx
 2004 0a77 0F84A700 		je	.L95
 2004      0000
 2005 0a7d E94B0100 		jmp	.L104
 2005      00
 2006              	.L94:
 2007              	.LBB41:
 2008 0a82 4889C7   		movq	%rax, %rdi
 2009 0a85 E8000000 		call	__cxa_begin_catch
 2009      00
 2010 0a8a 48898570 		movq	%rax, -400(%rbp)
 2010      FEFFFF
 2011 0a91 488B8570 		movq	-400(%rbp), %rax
 2011      FEFFFF
 2012 0a98 488B00   		movq	(%rax), %rax
 2013 0a9b 4883C010 		addq	$16, %rax
 2014 0a9f 488B00   		movq	(%rax), %rax
 2015 0aa2 488B9570 		movq	-400(%rbp), %rdx
 2015      FEFFFF
 2016 0aa9 4889D7   		movq	%rdx, %rdi
 2017 0aac FFD0     		call	*%rax
 2018 0aae 4889C3   		movq	%rax, %rbx
 2019 0ab1 488B8570 		movq	-400(%rbp), %rax
 2019      FEFFFF
 2020 0ab8 4889C7   		movq	%rax, %rdi
 2021              	.LEHB40:
 2022 0abb E8000000 		call	_ZNK8UnitTest15AssertException10LineNumberEv
 2022      00
 2023 0ac0 4189C4   		movl	%eax, %r12d
 2024 0ac3 488B8570 		movq	-400(%rbp), %rax
 2024      FEFFFF
 2025 0aca 4889C7   		movq	%rax, %rdi
 2026 0acd E8000000 		call	_ZNK8UnitTest15AssertException8FilenameEv
 2026      00
 2027              		.loc 6 67 0 is_stmt 0 discriminator 1
 2028 0ad2 4889C1   		movq	%rax, %rcx
 2029 0ad5 488B8558 		movq	-424(%rbp), %rax
 2029      FEFFFF
 2030 0adc 488B5008 		movq	8(%rax), %rdx
 2031 0ae0 488B8558 		movq	-424(%rbp), %rax
 2031      FEFFFF
 2032 0ae7 488B7010 		movq	16(%rax), %rsi
 2033 0aeb 488D8580 		leaq	-384(%rbp), %rax
 2033      FEFFFF
 2034 0af2 4589E0   		movl	%r12d, %r8d
 2035 0af5 4889C7   		movq	%rax, %rdi
 2036 0af8 E8000000 		call	_ZN8UnitTest11TestDetailsC1EPKcS2_S2_i
 2036      00
 2037              		.loc 6 67 0 discriminator 3
 2038 0afd E8000000 		call	_ZN8UnitTest11CurrentTest7ResultsEv
 2038      00
 2039 0b02 488B00   		movq	(%rax), %rax
 2040 0b05 488D8D80 		leaq	-384(%rbp), %rcx
 2040      FEFFFF
 2041 0b0c 4889DA   		movq	%rbx, %rdx
 2042 0b0f 4889CE   		movq	%rcx, %rsi
 2043 0b12 4889C7   		movq	%rax, %rdi
 2044 0b15 E8000000 		call	_ZN8UnitTest11TestResults13OnTestFailureERKNS_11TestDetailsEPKc
 2044      00
 2045              	.LEHE40:
 2046              		.loc 6 67 0 discriminator 1
 2047 0b1a E8000000 		call	__cxa_end_catch
 2047      00
 2048              	.LBE41:
 2049              	.LBE43:
 2050 0b1f E9430100 		jmp	.L105
 2050      00
 2051              	.L95:
 2052              	.LBB44:
 2053              	.LBB42:
 2054              		.loc 6 67 0
 2055 0b24 4889C7   		movq	%rax, %rdi
 2056 0b27 E8000000 		call	__cxa_begin_catch
 2056      00
 2057 0b2c 48898578 		movq	%rax, -392(%rbp)
 2057      FEFFFF
 2058              	.LBB40:
 2059 0b33 488D8580 		leaq	-384(%rbp), %rax
 2059      FEFFFF
 2060 0b3a 4889C7   		movq	%rax, %rdi
 2061              	.LEHB41:
 2062 0b3d E8000000 		call	_ZN8UnitTest15MemoryOutStreamC1Ev
 2062      00
 2063              	.LEHE41:
 2064              		.loc 6 67 0 discriminator 1
 2065 0b42 488B8578 		movq	-392(%rbp), %rax
 2065      FEFFFF
 2066 0b49 488B00   		movq	(%rax), %rax
 2067 0b4c 4883C010 		addq	$16, %rax
 2068 0b50 488B00   		movq	(%rax), %rax
 2069 0b53 488B9578 		movq	-392(%rbp), %rdx
 2069      FEFFFF
 2070 0b5a 4889D7   		movq	%rdx, %rdi
 2071 0b5d FFD0     		call	*%rax
 2072 0b5f 4889C3   		movq	%rax, %rbx
 2073 0b62 488D8580 		leaq	-384(%rbp), %rax
 2073      FEFFFF
 2074 0b69 BE000000 		movl	$.LC11, %esi
 2074      00
 2075 0b6e 4889C7   		movq	%rax, %rdi
 2076              	.LEHB42:
 2077 0b71 E8000000 		call	_ZStlsISt11char_traitsIcEERSt13basic_ostreamIcT_ES5_PKc
 2077      00
 2078 0b76 4889DE   		movq	%rbx, %rsi
 2079 0b79 4889C7   		movq	%rax, %rdi
 2080 0b7c E8000000 		call	_ZStlsISt11char_traitsIcEERSt13basic_ostreamIcT_ES5_PKc
 2080      00
 2081 0b81 488D8580 		leaq	-384(%rbp), %rax
 2081      FEFFFF
 2082 0b88 4889C7   		movq	%rax, %rdi
 2083 0b8b E8000000 		call	_ZNK8UnitTest15MemoryOutStream7GetTextEv
 2083      00
 2084 0b90 4889C3   		movq	%rax, %rbx
 2085 0b93 488B8558 		movq	-424(%rbp), %rax
 2085      FEFFFF
 2086 0b9a 4C8D6008 		leaq	8(%rax), %r12
 2087 0b9e E8000000 		call	_ZN8UnitTest11CurrentTest7ResultsEv
 2087      00
 2088 0ba3 488B00   		movq	(%rax), %rax
 2089 0ba6 4889DA   		movq	%rbx, %rdx
 2090 0ba9 4C89E6   		movq	%r12, %rsi
 2091 0bac 4889C7   		movq	%rax, %rdi
 2092 0baf E8000000 		call	_ZN8UnitTest11TestResults13OnTestFailureERKNS_11TestDetailsEPKc
 2092      00
 2093              	.LEHE42:
 2094 0bb4 488D8580 		leaq	-384(%rbp), %rax
 2094      FEFFFF
 2095 0bbb 4889C7   		movq	%rax, %rdi
 2096              	.LEHB43:
 2097 0bbe E8000000 		call	_ZN8UnitTest15MemoryOutStreamD1Ev
 2097      00
 2098              	.LEHE43:
 2099              	.LBE40:
 2100              		.loc 6 67 0
 2101 0bc3 E8000000 		call	__cxa_end_catch
 2101      00
 2102              	.LBE42:
 2103              	.LBE44:
 2104 0bc8 E99A0000 		jmp	.L105
 2104      00
 2105              	.L104:
 2106              	.LBB45:
 2107 0bcd 4889C7   		movq	%rax, %rdi
 2108 0bd0 E8000000 		call	__cxa_begin_catch
 2108      00
 2109 0bd5 80BD6FFE 		cmpb	$0, -401(%rbp)
 2109      FFFF00
 2110 0bdc 7443     		je	.L97
 2111              		.loc 6 67 0 discriminator 1
 2112 0bde 488B8558 		movq	-424(%rbp), %rax
 2112      FEFFFF
 2113 0be5 488D4808 		leaq	8(%rax), %rcx
 2114 0be9 488D8580 		leaq	-384(%rbp), %rax
 2114      FEFFFF
 2115 0bf0 BA430000 		movl	$67, %edx
 2115      00
 2116 0bf5 4889CE   		movq	%rcx, %rsi
 2117 0bf8 4889C7   		movq	%rax, %rdi
 2118              	.LEHB44:
 2119 0bfb E8000000 		call	_ZN8UnitTest11TestDetailsC1ERKS0_i
 2119      00
 2120 0c00 E8000000 		call	_ZN8UnitTest11CurrentTest7ResultsEv
 2120      00
 2121 0c05 488B00   		movq	(%rax), %rax
 2122 0c08 488D8D80 		leaq	-384(%rbp), %rcx
 2122      FEFFFF
 2123 0c0f BA000000 		movl	$.LC27, %edx
 2123      00
 2124 0c14 4889CE   		movq	%rcx, %rsi
 2125 0c17 4889C7   		movq	%rax, %rdi
 2126 0c1a E8000000 		call	_ZN8UnitTest11TestResults13OnTestFailureERKNS_11TestDetailsEPKc
 2126      00
 2127 0c1f EB41     		jmp	.L98
 2128              	.L97:
 2129              		.loc 6 67 0 discriminator 2
 2130 0c21 488B8558 		movq	-424(%rbp), %rax
 2130      FEFFFF
 2131 0c28 488D4808 		leaq	8(%rax), %rcx
 2132 0c2c 488D8580 		leaq	-384(%rbp), %rax
 2132      FEFFFF
 2133 0c33 BA430000 		movl	$67, %edx
 2133      00
 2134 0c38 4889CE   		movq	%rcx, %rsi
 2135 0c3b 4889C7   		movq	%rax, %rdi
 2136 0c3e E8000000 		call	_ZN8UnitTest11TestDetailsC1ERKS0_i
 2136      00
 2137              		.loc 6 67 0 discriminator 1
 2138 0c43 E8000000 		call	_ZN8UnitTest11CurrentTest7ResultsEv
 2138      00
 2139 0c48 488B00   		movq	(%rax), %rax
 2140 0c4b 488D8D80 		leaq	-384(%rbp), %rcx
 2140      FEFFFF
 2141 0c52 BA000000 		movl	$.LC28, %edx
 2141      00
 2142 0c57 4889CE   		movq	%rcx, %rsi
 2143 0c5a 4889C7   		movq	%rax, %rdi
 2144 0c5d E8000000 		call	_ZN8UnitTest11TestResults13OnTestFailureERKNS_11TestDetailsEPKc
 2144      00
 2145              	.LEHE44:
 2146              	.L98:
 2147              	.LEHB45:
 2148 0c62 E8000000 		call	__cxa_end_catch
 2148      00
 2149              	.LEHE45:
 2150              	.L105:
 2151              	.LBE45:
 2152              		.loc 6 67 0
 2153 0c67 90       		nop
 2154 0c68 4881C4A0 		addq	$416, %rsp
 2154      010000
 2155 0c6f 5B       		popq	%rbx
 2156 0c70 415C     		popq	%r12
 2157 0c72 5D       		popq	%rbp
 2158              		.cfi_def_cfa 7, 8
 2159 0c73 C3       		ret
 2160              		.cfi_endproc
 2161              	.LFE1075:
 2162              		.section	.gcc_except_table
 2163              		.align 4
 2164              	.LLSDA1075:
 2165 00e0 FF       		.byte	0xff
 2166 00e1 03       		.byte	0x3
 2167 00e2 49       		.uleb128 .LLSDATT1075-.LLSDATTD1075
 2168              	.LLSDATTD1075:
 2169 00e3 01       		.byte	0x1
 2170 00e4 34       		.uleb128 .LLSDACSE1075-.LLSDACSB1075
 2171              	.LLSDACSB1075:
 2172 00e5 58       		.uleb128 .LEHB36-.LFB1075
 2173 00e6 05       		.uleb128 .LEHE36-.LEHB36
 2174 00e7 AF01     		.uleb128 .L99-.LFB1075
 2175 00e9 05       		.uleb128 0x5
 2176 00ea 70       		.uleb128 .LEHB37-.LFB1075
 2177 00eb 05       		.uleb128 .LEHE37-.LEHB37
 2178 00ec 00       		.uleb128 0
 2179 00ed 00       		.uleb128 0
 2180 00ee 9701     		.uleb128 .LEHB38-.LFB1075
 2181 00f0 05       		.uleb128 .LEHE38-.LEHB38
 2182 00f1 00       		.uleb128 0
 2183 00f2 00       		.uleb128 0
 2184 00f3 AA01     		.uleb128 .LEHB39-.LFB1075
 2185 00f5 05       		.uleb128 .LEHE39-.LEHB39
 2186 00f6 00       		.uleb128 0
 2187 00f7 00       		.uleb128 0
 2188 00f8 FD01     		.uleb128 .LEHB40-.LFB1075
 2189 00fa 5F       		.uleb128 .LEHE40-.LEHB40
 2190 00fb 62       		.uleb128 .L100-.LFB1075
 2191 00fc 00       		.uleb128 0
 2192 00fd FF02     		.uleb128 .LEHB41-.LFB1075
 2193 00ff 05       		.uleb128 .LEHE41-.LEHB41
 2194 0100 8901     		.uleb128 .L102-.LFB1075
 2195 0102 00       		.uleb128 0
 2196 0103 B303     		.uleb128 .LEHB42-.LFB1075
 2197 0105 43       		.uleb128 .LEHE42-.LEHB42
 2198 0106 75       		.uleb128 .L101-.LFB1075
 2199 0107 00       		.uleb128 0
 2200 0108 8004     		.uleb128 .LEHB43-.LFB1075
 2201 010a 05       		.uleb128 .LEHE43-.LEHB43
 2202 010b 8901     		.uleb128 .L102-.LFB1075
 2203 010d 00       		.uleb128 0
 2204 010e BD04     		.uleb128 .LEHB44-.LFB1075
 2205 0110 67       		.uleb128 .LEHE44-.LEHB44
 2206 0111 9C01     		.uleb128 .L103-.LFB1075
 2207 0113 00       		.uleb128 0
 2208 0114 A405     		.uleb128 .LEHB45-.LFB1075
 2209 0116 05       		.uleb128 .LEHE45-.LEHB45
 2210 0117 00       		.uleb128 0
 2211 0118 00       		.uleb128 0
 2212              	.LLSDACSE1075:
 2213 0119 03       		.byte	0x3
 2214 011a 00       		.byte	0
 2215 011b 02       		.byte	0x2
 2216 011c 7D       		.byte	0x7d
 2217 011d 01       		.byte	0x1
 2218 011e 7D       		.byte	0x7d
 2219 011f 00       		.align 4
 2220 0120 00000000 		.long	0
 2221              	
 2222 0124 00000000 		.long	_ZTISt9exception
 2223 0128 00000000 		.long	_ZTIN8UnitTest15AssertExceptionE
 2224              	.LLSDATT1075:
 2225              		.text
 2227              		.align 2
 2229              	_ZN12_GLOBAL__N_115SuiteTestSuite165DummyFixtureSimilarlyNamedFixtureTestsInDifferentSuitesWorkHelp
 2230              	.LFB1076:
  68:TestTestMacros.cpp **** 	{
 2231              		.loc 6 68 0 is_stmt 1
 2232              		.cfi_startproc
 2233 0c74 55       		pushq	%rbp
 2234              		.cfi_def_cfa_offset 16
 2235              		.cfi_offset 6, -16
 2236 0c75 4889E5   		movq	%rsp, %rbp
 2237              		.cfi_def_cfa_register 6
 2238 0c78 48897DF8 		movq	%rdi, -8(%rbp)
  69:TestTestMacros.cpp **** 	}
 2239              		.loc 6 69 0
 2240 0c7c 5D       		popq	%rbp
 2241              		.cfi_def_cfa 7, 8
 2242 0c7d C3       		ret
 2243              		.cfi_endproc
 2244              	.LFE1076:
 2246              		.section	.rodata
 2247              	.LC29:
 2248 0474 54657374 		.string	"TestSuite2"
 2248      53756974 
 2248      653200
 2249              		.text
 2251              	_ZN12_GLOBAL__N_115SuiteTestSuite213UnitTestSuite12GetSuiteNameEv:
 2252              	.LFB1077:
  70:TestTestMacros.cpp **** }
  71:TestTestMacros.cpp **** 
  72:TestTestMacros.cpp **** SUITE(TestSuite2)
 2253              		.loc 6 72 0
 2254              		.cfi_startproc
 2255 0c7e 55       		pushq	%rbp
 2256              		.cfi_def_cfa_offset 16
 2257              		.cfi_offset 6, -16
 2258 0c7f 4889E5   		movq	%rsp, %rbp
 2259              		.cfi_def_cfa_register 6
 2260              		.loc 6 72 0
 2261 0c82 B8000000 		movl	$.LC29, %eax
 2261      00
 2262 0c87 5D       		popq	%rbp
 2263              		.cfi_def_cfa 7, 8
 2264 0c88 C3       		ret
 2265              		.cfi_endproc
 2266              	.LFE1077:
 2268 0c89 90       		.align 2
 2270              	_ZN12_GLOBAL__N_115SuiteTestSuite244TestSimilarlyNamedTestsInDifferentSuitesWorkC2Ev:
 2271              	.LFB1079:
  73:TestTestMacros.cpp **** {
  74:TestTestMacros.cpp **** 	TEST(SimilarlyNamedTestsInDifferentSuitesWork)
 2272              		.loc 6 74 0
 2273              		.cfi_startproc
 2274 0c8a 55       		pushq	%rbp
 2275              		.cfi_def_cfa_offset 16
 2276              		.cfi_offset 6, -16
 2277 0c8b 4889E5   		movq	%rsp, %rbp
 2278              		.cfi_def_cfa_register 6
 2279 0c8e 4883EC10 		subq	$16, %rsp
 2280 0c92 48897DF8 		movq	%rdi, -8(%rbp)
 2281              	.LBB46:
 2282              		.loc 6 74 0
 2283 0c96 E8E3FFFF 		call	_ZN12_GLOBAL__N_115SuiteTestSuite213UnitTestSuite12GetSuiteNameEv
 2283      FF
 2284 0c9b 4889C2   		movq	%rax, %rdx
 2285 0c9e 488B45F8 		movq	-8(%rbp), %rax
 2286 0ca2 41B84A00 		movl	$74, %r8d
 2286      0000
 2287 0ca8 B9000000 		movl	$.LC2, %ecx
 2287      00
 2288 0cad BE000000 		movl	$.LC25, %esi
 2288      00
 2289 0cb2 4889C7   		movq	%rax, %rdi
 2290 0cb5 E8000000 		call	_ZN8UnitTest4TestC2EPKcS2_S2_i
 2290      00
 2291 0cba 488B45F8 		movq	-8(%rbp), %rax
 2292 0cbe 48C70000 		movq	$_ZTVN12_GLOBAL__N_115SuiteTestSuite244TestSimilarlyNamedTestsInDifferentSuitesWorkE+16, (%ra
 2292      000000
 2293              	.LBE46:
 2294 0cc5 C9       		leave
 2295              		.cfi_def_cfa 7, 8
 2296 0cc6 C3       		ret
 2297              		.cfi_endproc
 2298              	.LFE1079:
 2300              		.set	_ZN12_GLOBAL__N_115SuiteTestSuite244TestSimilarlyNamedTestsInDifferentSuitesWorkC1Ev,_ZN12_GL
 2301              		.local	_ZN12_GLOBAL__N_115SuiteTestSuite252testSimilarlyNamedTestsInDifferentSuitesWorkInstanceE
 2302              		.comm	_ZN12_GLOBAL__N_115SuiteTestSuite252testSimilarlyNamedTestsInDifferentSuitesWorkInstanceE,56
 2303              		.local	_ZN12_GLOBAL__N_115SuiteTestSuite245adderSimilarlyNamedTestsInDifferentSuitesWorkE
 2304              		.comm	_ZN12_GLOBAL__N_115SuiteTestSuite245adderSimilarlyNamedTestsInDifferentSuitesWorkE,1,1
 2305 0cc7 90       		.align 2
 2307              	_ZNK12_GLOBAL__N_115SuiteTestSuite244TestSimilarlyNamedTestsInDifferentSuitesWork7RunImplEv:
 2308              	.LFB1081:
  75:TestTestMacros.cpp **** 	{
 2309              		.loc 6 75 0
 2310              		.cfi_startproc
 2311 0cc8 55       		pushq	%rbp
 2312              		.cfi_def_cfa_offset 16
 2313              		.cfi_offset 6, -16
 2314 0cc9 4889E5   		movq	%rsp, %rbp
 2315              		.cfi_def_cfa_register 6
 2316 0ccc 48897DF8 		movq	%rdi, -8(%rbp)
  76:TestTestMacros.cpp **** 	}
 2317              		.loc 6 76 0
 2318 0cd0 5D       		popq	%rbp
 2319              		.cfi_def_cfa 7, 8
 2320 0cd1 C3       		ret
 2321              		.cfi_endproc
 2322              	.LFE1081:
 2324              		.align 2
 2326              	_ZN12_GLOBAL__N_115SuiteTestSuite265DummyFixtureSimilarlyNamedFixtureTestsInDifferentSuitesWorkHelp
 2327              	.LFB1083:
  77:TestTestMacros.cpp **** 
  78:TestTestMacros.cpp **** 	TEST_FIXTURE(DummyFixture,SimilarlyNamedFixtureTestsInDifferentSuitesWork)
 2328              		.loc 6 78 0
 2329              		.cfi_startproc
 2330 0cd2 55       		pushq	%rbp
 2331              		.cfi_def_cfa_offset 16
 2332              		.cfi_offset 6, -16
 2333 0cd3 4889E5   		movq	%rsp, %rbp
 2334              		.cfi_def_cfa_register 6
 2335 0cd6 4883EC10 		subq	$16, %rsp
 2336 0cda 48897DF8 		movq	%rdi, -8(%rbp)
 2337 0cde 488975F0 		movq	%rsi, -16(%rbp)
 2338              	.LBB47:
 2339              		.loc 6 78 0
 2340 0ce2 488B45F8 		movq	-8(%rbp), %rax
 2341 0ce6 4889C7   		movq	%rax, %rdi
 2342 0ce9 E85EFCFF 		call	_ZN12_GLOBAL__N_112DummyFixtureC2Ev
 2342      FF
 2343 0cee 488B45F8 		movq	-8(%rbp), %rax
 2344 0cf2 488B55F0 		movq	-16(%rbp), %rdx
 2345 0cf6 48895008 		movq	%rdx, 8(%rax)
 2346              	.LBE47:
 2347 0cfa C9       		leave
 2348              		.cfi_def_cfa 7, 8
 2349 0cfb C3       		ret
 2350              		.cfi_endproc
 2351              	.LFE1083:
 2353              		.set	_ZN12_GLOBAL__N_115SuiteTestSuite265DummyFixtureSimilarlyNamedFixtureTestsInDifferentSuitesWo
 2354              		.align 2
 2356              	_ZN12_GLOBAL__N_115SuiteTestSuite263TestDummyFixtureSimilarlyNamedFixtureTestsInDifferentSuitesWork
 2357              	.LFB1086:
 2358              		.loc 6 78 0
 2359              		.cfi_startproc
 2360 0cfc 55       		pushq	%rbp
 2361              		.cfi_def_cfa_offset 16
 2362              		.cfi_offset 6, -16
 2363 0cfd 4889E5   		movq	%rsp, %rbp
 2364              		.cfi_def_cfa_register 6
 2365 0d00 4883EC10 		subq	$16, %rsp
 2366 0d04 48897DF8 		movq	%rdi, -8(%rbp)
 2367              	.LBB48:
 2368              		.loc 6 78 0
 2369 0d08 E871FFFF 		call	_ZN12_GLOBAL__N_115SuiteTestSuite213UnitTestSuite12GetSuiteNameEv
 2369      FF
 2370 0d0d 4889C2   		movq	%rax, %rdx
 2371 0d10 488B45F8 		movq	-8(%rbp), %rax
 2372 0d14 41B84E00 		movl	$78, %r8d
 2372      0000
 2373 0d1a B9000000 		movl	$.LC2, %ecx
 2373      00
 2374 0d1f BE000000 		movl	$.LC26, %esi
 2374      00
 2375 0d24 4889C7   		movq	%rax, %rdi
 2376 0d27 E8000000 		call	_ZN8UnitTest4TestC2EPKcS2_S2_i
 2376      00
 2377 0d2c 488B45F8 		movq	-8(%rbp), %rax
 2378 0d30 48C70000 		movq	$_ZTVN12_GLOBAL__N_115SuiteTestSuite263TestDummyFixtureSimilarlyNamedFixtureTestsInDifferentS
 2378      000000
 2379              	.LBE48:
 2380 0d37 C9       		leave
 2381              		.cfi_def_cfa 7, 8
 2382 0d38 C3       		ret
 2383              		.cfi_endproc
 2384              	.LFE1086:
 2386              		.set	_ZN12_GLOBAL__N_115SuiteTestSuite263TestDummyFixtureSimilarlyNamedFixtureTestsInDifferentSuit
 2387              		.local	_ZN12_GLOBAL__N_115SuiteTestSuite271testDummyFixtureSimilarlyNamedFixtureTestsInDifferentSu
 2388              		.comm	_ZN12_GLOBAL__N_115SuiteTestSuite271testDummyFixtureSimilarlyNamedFixtureTestsInDifferentSui
 2389              		.local	_ZN12_GLOBAL__N_115SuiteTestSuite264adderDummyFixtureSimilarlyNamedFixtureTestsInDifferentS
 2390              		.comm	_ZN12_GLOBAL__N_115SuiteTestSuite264adderDummyFixtureSimilarlyNamedFixtureTestsInDifferentSu
 2391 0d39 90       		.align 2
 2393              	_ZNK12_GLOBAL__N_115SuiteTestSuite263TestDummyFixtureSimilarlyNamedFixtureTestsInDifferentSuitesWor
 2394              	.LFB1088:
 2395              		.loc 6 78 0
 2396              		.cfi_startproc
 2397              		.cfi_personality 0x3,__gxx_personality_v0
 2398              		.cfi_lsda 0x3,.LLSDA1088
 2399 0d3a 55       		pushq	%rbp
 2400              		.cfi_def_cfa_offset 16
 2401              		.cfi_offset 6, -16
 2402 0d3b 4889E5   		movq	%rsp, %rbp
 2403              		.cfi_def_cfa_register 6
 2404 0d3e 4154     		pushq	%r12
 2405 0d40 53       		pushq	%rbx
 2406 0d41 4881ECA0 		subq	$416, %rsp
 2406      010000
 2407              		.cfi_offset 12, -24
 2408              		.cfi_offset 3, -32
 2409 0d48 4889BD58 		movq	%rdi, -424(%rbp)
 2409      FEFFFF
 2410              	.LBB49:
 2411              		.loc 6 78 0
 2412 0d4f C6856FFE 		movb	$0, -401(%rbp)
 2412      FFFF00
 2413              	.LBB50:
 2414 0d56 488B8558 		movq	-424(%rbp), %rax
 2414      FEFFFF
 2415 0d5d 488D5008 		leaq	8(%rax), %rdx
 2416 0d61 488D8580 		leaq	-384(%rbp), %rax
 2416      FEFFFF
 2417 0d68 4889D6   		movq	%rdx, %rsi
 2418 0d6b 4889C7   		movq	%rax, %rdi
 2419 0d6e E85FFFFF 		call	_ZN12_GLOBAL__N_115SuiteTestSuite265DummyFixtureSimilarlyNamedFixtureTestsInDifferentSuitesWo
 2419      FF
 2420 0d73 C6856FFE 		movb	$1, -401(%rbp)
 2420      FFFF01
 2421 0d7a 488B8558 		movq	-424(%rbp), %rax
 2421      FEFFFF
 2422 0d81 488D5008 		leaq	8(%rax), %rdx
 2423 0d85 488D8580 		leaq	-384(%rbp), %rax
 2423      FEFFFF
 2424 0d8c 4889D6   		movq	%rdx, %rsi
 2425 0d8f 4889C7   		movq	%rax, %rdi
 2426              	.LEHB46:
 2427 0d92 E8072500 		call	_ZN8UnitTest11ExecuteTestIN12_GLOBAL__N_115SuiteTestSuite265DummyFixtureSimilarlyNamedFixture
 2427      00
 2428              	.LEHE46:
 2429              	.LBE50:
 2430              	.LBE49:
 2431 0d97 E9470200 		jmp	.L131
 2431      00
 2432              	.L126:
 2433 0d9c 4889C3   		movq	%rax, %rbx
 2434              	.LBB57:
 2435              	.LBB51:
 2436 0d9f E8000000 		call	__cxa_end_catch
 2436      00
 2437 0da4 4889D8   		movq	%rbx, %rax
 2438 0da7 4889C7   		movq	%rax, %rdi
 2439              	.LEHB47:
 2440 0daa E8000000 		call	_Unwind_Resume
 2440      00
 2441              	.LEHE47:
 2442              	.L127:
 2443 0daf 4889C3   		movq	%rax, %rbx
 2444              	.LBE51:
 2445              	.LBB52:
 2446              	.LBB53:
 2447 0db2 488D8580 		leaq	-384(%rbp), %rax
 2447      FEFFFF
 2448 0db9 4889C7   		movq	%rax, %rdi
 2449 0dbc E8000000 		call	_ZN8UnitTest15MemoryOutStreamD1Ev
 2449      00
 2450 0dc1 EB03     		jmp	.L116
 2451              	.L128:
 2452 0dc3 4889C3   		movq	%rax, %rbx
 2453              	.L116:
 2454              	.LBE53:
 2455 0dc6 E8000000 		call	__cxa_end_catch
 2455      00
 2456 0dcb 4889D8   		movq	%rbx, %rax
 2457 0dce 4889C7   		movq	%rax, %rdi
 2458              	.LEHB48:
 2459 0dd1 E8000000 		call	_Unwind_Resume
 2459      00
 2460              	.LEHE48:
 2461              	.L129:
 2462 0dd6 4889C3   		movq	%rax, %rbx
 2463              	.LBE52:
 2464 0dd9 E8000000 		call	__cxa_end_catch
 2464      00
 2465 0dde 4889D8   		movq	%rbx, %rax
 2466 0de1 4889C7   		movq	%rax, %rdi
 2467              	.LEHB49:
 2468 0de4 E8000000 		call	_Unwind_Resume
 2468      00
 2469              	.LEHE49:
 2470              	.L125:
 2471 0de9 4883FA01 		cmpq	$1, %rdx
 2472 0ded 740F     		je	.L120
 2473 0def 4883FA02 		cmpq	$2, %rdx
 2474 0df3 0F84A700 		je	.L121
 2474      0000
 2475 0df9 E94B0100 		jmp	.L130
 2475      00
 2476              	.L120:
 2477              	.LBB55:
 2478 0dfe 4889C7   		movq	%rax, %rdi
 2479 0e01 E8000000 		call	__cxa_begin_catch
 2479      00
 2480 0e06 48898570 		movq	%rax, -400(%rbp)
 2480      FEFFFF
 2481 0e0d 488B8570 		movq	-400(%rbp), %rax
 2481      FEFFFF
 2482 0e14 488B00   		movq	(%rax), %rax
 2483 0e17 4883C010 		addq	$16, %rax
 2484 0e1b 488B00   		movq	(%rax), %rax
 2485 0e1e 488B9570 		movq	-400(%rbp), %rdx
 2485      FEFFFF
 2486 0e25 4889D7   		movq	%rdx, %rdi
 2487 0e28 FFD0     		call	*%rax
 2488 0e2a 4889C3   		movq	%rax, %rbx
 2489 0e2d 488B8570 		movq	-400(%rbp), %rax
 2489      FEFFFF
 2490 0e34 4889C7   		movq	%rax, %rdi
 2491              	.LEHB50:
 2492 0e37 E8000000 		call	_ZNK8UnitTest15AssertException10LineNumberEv
 2492      00
 2493 0e3c 4189C4   		movl	%eax, %r12d
 2494 0e3f 488B8570 		movq	-400(%rbp), %rax
 2494      FEFFFF
 2495 0e46 4889C7   		movq	%rax, %rdi
 2496 0e49 E8000000 		call	_ZNK8UnitTest15AssertException8FilenameEv
 2496      00
 2497              		.loc 6 78 0 is_stmt 0 discriminator 1
 2498 0e4e 4889C1   		movq	%rax, %rcx
 2499 0e51 488B8558 		movq	-424(%rbp), %rax
 2499      FEFFFF
 2500 0e58 488B5008 		movq	8(%rax), %rdx
 2501 0e5c 488B8558 		movq	-424(%rbp), %rax
 2501      FEFFFF
 2502 0e63 488B7010 		movq	16(%rax), %rsi
 2503 0e67 488D8580 		leaq	-384(%rbp), %rax
 2503      FEFFFF
 2504 0e6e 4589E0   		movl	%r12d, %r8d
 2505 0e71 4889C7   		movq	%rax, %rdi
 2506 0e74 E8000000 		call	_ZN8UnitTest11TestDetailsC1EPKcS2_S2_i
 2506      00
 2507              		.loc 6 78 0 discriminator 3
 2508 0e79 E8000000 		call	_ZN8UnitTest11CurrentTest7ResultsEv
 2508      00
 2509 0e7e 488B00   		movq	(%rax), %rax
 2510 0e81 488D8D80 		leaq	-384(%rbp), %rcx
 2510      FEFFFF
 2511 0e88 4889DA   		movq	%rbx, %rdx
 2512 0e8b 4889CE   		movq	%rcx, %rsi
 2513 0e8e 4889C7   		movq	%rax, %rdi
 2514 0e91 E8000000 		call	_ZN8UnitTest11TestResults13OnTestFailureERKNS_11TestDetailsEPKc
 2514      00
 2515              	.LEHE50:
 2516              		.loc 6 78 0 discriminator 1
 2517 0e96 E8000000 		call	__cxa_end_catch
 2517      00
 2518              	.LBE55:
 2519              	.LBE57:
 2520 0e9b E9430100 		jmp	.L131
 2520      00
 2521              	.L121:
 2522              	.LBB58:
 2523              	.LBB56:
 2524              		.loc 6 78 0
 2525 0ea0 4889C7   		movq	%rax, %rdi
 2526 0ea3 E8000000 		call	__cxa_begin_catch
 2526      00
 2527 0ea8 48898578 		movq	%rax, -392(%rbp)
 2527      FEFFFF
 2528              	.LBB54:
 2529 0eaf 488D8580 		leaq	-384(%rbp), %rax
 2529      FEFFFF
 2530 0eb6 4889C7   		movq	%rax, %rdi
 2531              	.LEHB51:
 2532 0eb9 E8000000 		call	_ZN8UnitTest15MemoryOutStreamC1Ev
 2532      00
 2533              	.LEHE51:
 2534              		.loc 6 78 0 discriminator 1
 2535 0ebe 488B8578 		movq	-392(%rbp), %rax
 2535      FEFFFF
 2536 0ec5 488B00   		movq	(%rax), %rax
 2537 0ec8 4883C010 		addq	$16, %rax
 2538 0ecc 488B00   		movq	(%rax), %rax
 2539 0ecf 488B9578 		movq	-392(%rbp), %rdx
 2539      FEFFFF
 2540 0ed6 4889D7   		movq	%rdx, %rdi
 2541 0ed9 FFD0     		call	*%rax
 2542 0edb 4889C3   		movq	%rax, %rbx
 2543 0ede 488D8580 		leaq	-384(%rbp), %rax
 2543      FEFFFF
 2544 0ee5 BE000000 		movl	$.LC11, %esi
 2544      00
 2545 0eea 4889C7   		movq	%rax, %rdi
 2546              	.LEHB52:
 2547 0eed E8000000 		call	_ZStlsISt11char_traitsIcEERSt13basic_ostreamIcT_ES5_PKc
 2547      00
 2548 0ef2 4889DE   		movq	%rbx, %rsi
 2549 0ef5 4889C7   		movq	%rax, %rdi
 2550 0ef8 E8000000 		call	_ZStlsISt11char_traitsIcEERSt13basic_ostreamIcT_ES5_PKc
 2550      00
 2551 0efd 488D8580 		leaq	-384(%rbp), %rax
 2551      FEFFFF
 2552 0f04 4889C7   		movq	%rax, %rdi
 2553 0f07 E8000000 		call	_ZNK8UnitTest15MemoryOutStream7GetTextEv
 2553      00
 2554 0f0c 4889C3   		movq	%rax, %rbx
 2555 0f0f 488B8558 		movq	-424(%rbp), %rax
 2555      FEFFFF
 2556 0f16 4C8D6008 		leaq	8(%rax), %r12
 2557 0f1a E8000000 		call	_ZN8UnitTest11CurrentTest7ResultsEv
 2557      00
 2558 0f1f 488B00   		movq	(%rax), %rax
 2559 0f22 4889DA   		movq	%rbx, %rdx
 2560 0f25 4C89E6   		movq	%r12, %rsi
 2561 0f28 4889C7   		movq	%rax, %rdi
 2562 0f2b E8000000 		call	_ZN8UnitTest11TestResults13OnTestFailureERKNS_11TestDetailsEPKc
 2562      00
 2563              	.LEHE52:
 2564 0f30 488D8580 		leaq	-384(%rbp), %rax
 2564      FEFFFF
 2565 0f37 4889C7   		movq	%rax, %rdi
 2566              	.LEHB53:
 2567 0f3a E8000000 		call	_ZN8UnitTest15MemoryOutStreamD1Ev
 2567      00
 2568              	.LEHE53:
 2569              	.LBE54:
 2570              		.loc 6 78 0
 2571 0f3f E8000000 		call	__cxa_end_catch
 2571      00
 2572              	.LBE56:
 2573              	.LBE58:
 2574 0f44 E99A0000 		jmp	.L131
 2574      00
 2575              	.L130:
 2576              	.LBB59:
 2577 0f49 4889C7   		movq	%rax, %rdi
 2578 0f4c E8000000 		call	__cxa_begin_catch
 2578      00
 2579 0f51 80BD6FFE 		cmpb	$0, -401(%rbp)
 2579      FFFF00
 2580 0f58 7443     		je	.L123
 2581              		.loc 6 78 0 discriminator 1
 2582 0f5a 488B8558 		movq	-424(%rbp), %rax
 2582      FEFFFF
 2583 0f61 488D4808 		leaq	8(%rax), %rcx
 2584 0f65 488D8580 		leaq	-384(%rbp), %rax
 2584      FEFFFF
 2585 0f6c BA4E0000 		movl	$78, %edx
 2585      00
 2586 0f71 4889CE   		movq	%rcx, %rsi
 2587 0f74 4889C7   		movq	%rax, %rdi
 2588              	.LEHB54:
 2589 0f77 E8000000 		call	_ZN8UnitTest11TestDetailsC1ERKS0_i
 2589      00
 2590 0f7c E8000000 		call	_ZN8UnitTest11CurrentTest7ResultsEv
 2590      00
 2591 0f81 488B00   		movq	(%rax), %rax
 2592 0f84 488D8D80 		leaq	-384(%rbp), %rcx
 2592      FEFFFF
 2593 0f8b BA000000 		movl	$.LC27, %edx
 2593      00
 2594 0f90 4889CE   		movq	%rcx, %rsi
 2595 0f93 4889C7   		movq	%rax, %rdi
 2596 0f96 E8000000 		call	_ZN8UnitTest11TestResults13OnTestFailureERKNS_11TestDetailsEPKc
 2596      00
 2597 0f9b EB41     		jmp	.L124
 2598              	.L123:
 2599              		.loc 6 78 0 discriminator 2
 2600 0f9d 488B8558 		movq	-424(%rbp), %rax
 2600      FEFFFF
 2601 0fa4 488D4808 		leaq	8(%rax), %rcx
 2602 0fa8 488D8580 		leaq	-384(%rbp), %rax
 2602      FEFFFF
 2603 0faf BA4E0000 		movl	$78, %edx
 2603      00
 2604 0fb4 4889CE   		movq	%rcx, %rsi
 2605 0fb7 4889C7   		movq	%rax, %rdi
 2606 0fba E8000000 		call	_ZN8UnitTest11TestDetailsC1ERKS0_i
 2606      00
 2607              		.loc 6 78 0 discriminator 1
 2608 0fbf E8000000 		call	_ZN8UnitTest11CurrentTest7ResultsEv
 2608      00
 2609 0fc4 488B00   		movq	(%rax), %rax
 2610 0fc7 488D8D80 		leaq	-384(%rbp), %rcx
 2610      FEFFFF
 2611 0fce BA000000 		movl	$.LC28, %edx
 2611      00
 2612 0fd3 4889CE   		movq	%rcx, %rsi
 2613 0fd6 4889C7   		movq	%rax, %rdi
 2614 0fd9 E8000000 		call	_ZN8UnitTest11TestResults13OnTestFailureERKNS_11TestDetailsEPKc
 2614      00
 2615              	.LEHE54:
 2616              	.L124:
 2617              	.LEHB55:
 2618 0fde E8000000 		call	__cxa_end_catch
 2618      00
 2619              	.LEHE55:
 2620              	.L131:
 2621              	.LBE59:
 2622              		.loc 6 78 0
 2623 0fe3 90       		nop
 2624 0fe4 4881C4A0 		addq	$416, %rsp
 2624      010000
 2625 0feb 5B       		popq	%rbx
 2626 0fec 415C     		popq	%r12
 2627 0fee 5D       		popq	%rbp
 2628              		.cfi_def_cfa 7, 8
 2629 0fef C3       		ret
 2630              		.cfi_endproc
 2631              	.LFE1088:
 2632              		.section	.gcc_except_table
 2633              		.align 4
 2634              	.LLSDA1088:
 2635 012c FF       		.byte	0xff
 2636 012d 03       		.byte	0x3
 2637 012e 49       		.uleb128 .LLSDATT1088-.LLSDATTD1088
 2638              	.LLSDATTD1088:
 2639 012f 01       		.byte	0x1
 2640 0130 34       		.uleb128 .LLSDACSE1088-.LLSDACSB1088
 2641              	.LLSDACSB1088:
 2642 0131 58       		.uleb128 .LEHB46-.LFB1088
 2643 0132 05       		.uleb128 .LEHE46-.LEHB46
 2644 0133 AF01     		.uleb128 .L125-.LFB1088
 2645 0135 05       		.uleb128 0x5
 2646 0136 70       		.uleb128 .LEHB47-.LFB1088
 2647 0137 05       		.uleb128 .LEHE47-.LEHB47
 2648 0138 00       		.uleb128 0
 2649 0139 00       		.uleb128 0
 2650 013a 9701     		.uleb128 .LEHB48-.LFB1088
 2651 013c 05       		.uleb128 .LEHE48-.LEHB48
 2652 013d 00       		.uleb128 0
 2653 013e 00       		.uleb128 0
 2654 013f AA01     		.uleb128 .LEHB49-.LFB1088
 2655 0141 05       		.uleb128 .LEHE49-.LEHB49
 2656 0142 00       		.uleb128 0
 2657 0143 00       		.uleb128 0
 2658 0144 FD01     		.uleb128 .LEHB50-.LFB1088
 2659 0146 5F       		.uleb128 .LEHE50-.LEHB50
 2660 0147 62       		.uleb128 .L126-.LFB1088
 2661 0148 00       		.uleb128 0
 2662 0149 FF02     		.uleb128 .LEHB51-.LFB1088
 2663 014b 05       		.uleb128 .LEHE51-.LEHB51
 2664 014c 8901     		.uleb128 .L128-.LFB1088
 2665 014e 00       		.uleb128 0
 2666 014f B303     		.uleb128 .LEHB52-.LFB1088
 2667 0151 43       		.uleb128 .LEHE52-.LEHB52
 2668 0152 75       		.uleb128 .L127-.LFB1088
 2669 0153 00       		.uleb128 0
 2670 0154 8004     		.uleb128 .LEHB53-.LFB1088
 2671 0156 05       		.uleb128 .LEHE53-.LEHB53
 2672 0157 8901     		.uleb128 .L128-.LFB1088
 2673 0159 00       		.uleb128 0
 2674 015a BD04     		.uleb128 .LEHB54-.LFB1088
 2675 015c 67       		.uleb128 .LEHE54-.LEHB54
 2676 015d 9C01     		.uleb128 .L129-.LFB1088
 2677 015f 00       		.uleb128 0
 2678 0160 A405     		.uleb128 .LEHB55-.LFB1088
 2679 0162 05       		.uleb128 .LEHE55-.LEHB55
 2680 0163 00       		.uleb128 0
 2681 0164 00       		.uleb128 0
 2682              	.LLSDACSE1088:
 2683 0165 03       		.byte	0x3
 2684 0166 00       		.byte	0
 2685 0167 02       		.byte	0x2
 2686 0168 7D       		.byte	0x7d
 2687 0169 01       		.byte	0x1
 2688 016a 7D       		.byte	0x7d
 2689 016b 00       		.align 4
 2690 016c 00000000 		.long	0
 2691              	
 2692 0170 00000000 		.long	_ZTISt9exception
 2693 0174 00000000 		.long	_ZTIN8UnitTest15AssertExceptionE
 2694              	.LLSDATT1088:
 2695              		.text
 2697              		.align 2
 2699              	_ZN12_GLOBAL__N_115SuiteTestSuite265DummyFixtureSimilarlyNamedFixtureTestsInDifferentSuitesWorkHelp
 2700              	.LFB1089:
  79:TestTestMacros.cpp **** 	{
 2701              		.loc 6 79 0 is_stmt 1
 2702              		.cfi_startproc
 2703 0ff0 55       		pushq	%rbp
 2704              		.cfi_def_cfa_offset 16
 2705              		.cfi_offset 6, -16
 2706 0ff1 4889E5   		movq	%rsp, %rbp
 2707              		.cfi_def_cfa_register 6
 2708 0ff4 48897DF8 		movq	%rdi, -8(%rbp)
  80:TestTestMacros.cpp **** 	}
 2709              		.loc 6 80 0
 2710 0ff8 5D       		popq	%rbp
 2711              		.cfi_def_cfa 7, 8
 2712 0ff9 C3       		ret
 2713              		.cfi_endproc
 2714              	.LFE1089:
 2716              		.local	_ZN12_GLOBAL__N_114macroTestList1E
 2717              		.comm	_ZN12_GLOBAL__N_114macroTestList1E,16,16
 2718              		.section	.rodata
 2719              	.LC30:
 2720 047f 4D616372 		.string	"MacroTestHelper1"
 2720      6F546573 
 2720      7448656C 
 2720      70657231 
 2720      00
 2721              		.text
 2722              		.align 2
 2724              	_ZN12_GLOBAL__N_120TestMacroTestHelper1C2Ev:
 2725              	.LFB1091:
  81:TestTestMacros.cpp **** }
  82:TestTestMacros.cpp **** 
  83:TestTestMacros.cpp **** TestList macroTestList1;
  84:TestTestMacros.cpp **** TEST_EX(MacroTestHelper1, macroTestList1)
 2726              		.loc 6 84 0
 2727              		.cfi_startproc
 2728 0ffa 55       		pushq	%rbp
 2729              		.cfi_def_cfa_offset 16
 2730              		.cfi_offset 6, -16
 2731 0ffb 4889E5   		movq	%rsp, %rbp
 2732              		.cfi_def_cfa_register 6
 2733 0ffe 4883EC10 		subq	$16, %rsp
 2734 1002 48897DF8 		movq	%rdi, -8(%rbp)
 2735              	.LBB60:
 2736              		.loc 6 84 0
 2737 1006 E8000000 		call	_ZN13UnitTestSuite12GetSuiteNameEv
 2737      00
 2738 100b 4889C2   		movq	%rax, %rdx
 2739 100e 488B45F8 		movq	-8(%rbp), %rax
 2740 1012 41B85400 		movl	$84, %r8d
 2740      0000
 2741 1018 B9000000 		movl	$.LC2, %ecx
 2741      00
 2742 101d BE000000 		movl	$.LC30, %esi
 2742      00
 2743 1022 4889C7   		movq	%rax, %rdi
 2744 1025 E8000000 		call	_ZN8UnitTest4TestC2EPKcS2_S2_i
 2744      00
 2745 102a 488B45F8 		movq	-8(%rbp), %rax
 2746 102e 48C70000 		movq	$_ZTVN12_GLOBAL__N_120TestMacroTestHelper1E+16, (%rax)
 2746      000000
 2747              	.LBE60:
 2748 1035 C9       		leave
 2749              		.cfi_def_cfa 7, 8
 2750 1036 C3       		ret
 2751              		.cfi_endproc
 2752              	.LFE1091:
 2754              		.set	_ZN12_GLOBAL__N_120TestMacroTestHelper1C1Ev,_ZN12_GLOBAL__N_120TestMacroTestHelper1C2Ev
 2755              		.local	_ZN12_GLOBAL__N_128testMacroTestHelper1InstanceE
 2756              		.comm	_ZN12_GLOBAL__N_128testMacroTestHelper1InstanceE,56,32
 2757              		.local	_ZN12_GLOBAL__N_121adderMacroTestHelper1E
 2758              		.comm	_ZN12_GLOBAL__N_121adderMacroTestHelper1E,1,1
 2759 1037 90       		.align 2
 2761              	_ZNK12_GLOBAL__N_120TestMacroTestHelper17RunImplEv:
 2762              	.LFB1093:
  85:TestTestMacros.cpp **** {
 2763              		.loc 6 85 0
 2764              		.cfi_startproc
 2765 1038 55       		pushq	%rbp
 2766              		.cfi_def_cfa_offset 16
 2767              		.cfi_offset 6, -16
 2768 1039 4889E5   		movq	%rsp, %rbp
 2769              		.cfi_def_cfa_register 6
 2770 103c 48897DF8 		movq	%rdi, -8(%rbp)
  86:TestTestMacros.cpp **** }
 2771              		.loc 6 86 0
 2772 1040 5D       		popq	%rbp
 2773              		.cfi_def_cfa 7, 8
 2774 1041 C3       		ret
 2775              		.cfi_endproc
 2776              	.LFE1093:
 2778              		.section	.rodata
 2779              		.align 8
 2780              	.LC31:
 2781 0490 54657374 		.string	"TestAddedWithTEST_EXMacroGetsDefaultSuite"
 2781      41646465 
 2781      64576974 
 2781      68544553 
 2781      545F4558 
 2782              		.text
 2783              		.align 2
 2785              	_ZN12_GLOBAL__N_145TestTestAddedWithTEST_EXMacroGetsDefaultSuiteC2Ev:
 2786              	.LFB1095:
  87:TestTestMacros.cpp **** 
  88:TestTestMacros.cpp **** TEST(TestAddedWithTEST_EXMacroGetsDefaultSuite)
 2787              		.loc 6 88 0
 2788              		.cfi_startproc
 2789 1042 55       		pushq	%rbp
 2790              		.cfi_def_cfa_offset 16
 2791              		.cfi_offset 6, -16
 2792 1043 4889E5   		movq	%rsp, %rbp
 2793              		.cfi_def_cfa_register 6
 2794 1046 4883EC10 		subq	$16, %rsp
 2795 104a 48897DF8 		movq	%rdi, -8(%rbp)
 2796              	.LBB61:
 2797              		.loc 6 88 0
 2798 104e E8000000 		call	_ZN13UnitTestSuite12GetSuiteNameEv
 2798      00
 2799 1053 4889C2   		movq	%rax, %rdx
 2800 1056 488B45F8 		movq	-8(%rbp), %rax
 2801 105a 41B85800 		movl	$88, %r8d
 2801      0000
 2802 1060 B9000000 		movl	$.LC2, %ecx
 2802      00
 2803 1065 BE000000 		movl	$.LC31, %esi
 2803      00
 2804 106a 4889C7   		movq	%rax, %rdi
 2805 106d E8000000 		call	_ZN8UnitTest4TestC2EPKcS2_S2_i
 2805      00
 2806 1072 488B45F8 		movq	-8(%rbp), %rax
 2807 1076 48C70000 		movq	$_ZTVN12_GLOBAL__N_145TestTestAddedWithTEST_EXMacroGetsDefaultSuiteE+16, (%rax)
 2807      000000
 2808              	.LBE61:
 2809 107d C9       		leave
 2810              		.cfi_def_cfa 7, 8
 2811 107e C3       		ret
 2812              		.cfi_endproc
 2813              	.LFE1095:
 2815              		.set	_ZN12_GLOBAL__N_145TestTestAddedWithTEST_EXMacroGetsDefaultSuiteC1Ev,_ZN12_GLOBAL__N_145TestT
 2816              		.local	_ZN12_GLOBAL__N_153testTestAddedWithTEST_EXMacroGetsDefaultSuiteInstanceE
 2817              		.comm	_ZN12_GLOBAL__N_153testTestAddedWithTEST_EXMacroGetsDefaultSuiteInstanceE,56,32
 2818              		.local	_ZN12_GLOBAL__N_146adderTestAddedWithTEST_EXMacroGetsDefaultSuiteE
 2819              		.comm	_ZN12_GLOBAL__N_146adderTestAddedWithTEST_EXMacroGetsDefaultSuiteE,1,1
 2820              		.section	.rodata
 2821 04ba 00000000 		.align 8
 2821      0000
 2822              	.LC32:
 2823 04c0 6D616372 		.string	"macroTestList1.GetHead() != NULL"
 2823      6F546573 
 2823      744C6973 
 2823      74312E47 
 2823      65744865 
 2824 04e1 00000000 		.align 8
 2824      000000
 2825              	.LC33:
 2826 04e8 556E6861 		.string	"Unhandled exception in CHECK(macroTestList1.GetHead() != NULL)"
 2826      6E646C65 
 2826      64206578 
 2826      63657074 
 2826      696F6E20 
 2827 0527 00       		.align 8
 2828              	.LC34:
 2829 0528 556E6861 		.string	"Unhandled exception in CHECK_EQUAL(\"MacroTestHelper1\", macroTestList1.GetHead()->m_deta
 2829      6E646C65 
 2829      64206578 
 2829      63657074 
 2829      696F6E20 
 2830 058d 000000   		.align 8
 2831              	.LC35:
 2832 0590 556E6861 		.string	"Unhandled exception in CHECK_EQUAL(\"DefaultSuite\", macroTestList1.GetHead()->m_details.
 2832      6E646C65 
 2832      64206578 
 2832      63657074 
 2832      696F6E20 
 2833              		.text
 2834 107f 90       		.align 2
 2836              	_ZNK12_GLOBAL__N_145TestTestAddedWithTEST_EXMacroGetsDefaultSuite7RunImplEv:
 2837              	.LFB1097:
  89:TestTestMacros.cpp **** {
 2838              		.loc 6 89 0
 2839              		.cfi_startproc
 2840              		.cfi_personality 0x3,__gxx_personality_v0
 2841              		.cfi_lsda 0x3,.LLSDA1097
 2842 1080 55       		pushq	%rbp
 2843              		.cfi_def_cfa_offset 16
 2844              		.cfi_offset 6, -16
 2845 1081 4889E5   		movq	%rsp, %rbp
 2846              		.cfi_def_cfa_register 6
 2847 1084 53       		pushq	%rbx
 2848 1085 4883EC38 		subq	$56, %rsp
 2849              		.cfi_offset 3, -24
 2850 1089 48897DC8 		movq	%rdi, -56(%rbp)
  90:TestTestMacros.cpp ****     CHECK(macroTestList1.GetHead() != NULL);
 2851              		.loc 6 90 0
 2852 108d BF000000 		movl	$_ZN12_GLOBAL__N_114macroTestList1E, %edi
 2852      00
 2853              	.LEHB56:
 2854 1092 E8000000 		call	_ZNK8UnitTest8TestList7GetHeadEv
 2854      00
 2855 1097 4885C0   		testq	%rax, %rax
 2856 109a 0F95C0   		setne	%al
 2857 109d 0FB6C0   		movzbl	%al, %eax
 2858 10a0 89C7     		movl	%eax, %edi
 2859 10a2 E8000000 		call	_ZN8UnitTest5CheckIbEEbT_
 2859      00
 2860 10a7 83F001   		xorl	$1, %eax
 2861 10aa 84C0     		testb	%al, %al
 2862 10ac 7438     		je	.L137
 2863              		.loc 6 90 0 is_stmt 0 discriminator 1
 2864 10ae E8000000 		call	_ZN8UnitTest11CurrentTest7DetailsEv
 2864      00
 2865 10b3 488B08   		movq	(%rax), %rcx
 2866 10b6 488D45D0 		leaq	-48(%rbp), %rax
 2867 10ba BA5A0000 		movl	$90, %edx
 2867      00
 2868 10bf 4889CE   		movq	%rcx, %rsi
 2869 10c2 4889C7   		movq	%rax, %rdi
 2870 10c5 E8000000 		call	_ZN8UnitTest11TestDetailsC1ERKS0_i
 2870      00
 2871 10ca E8000000 		call	_ZN8UnitTest11CurrentTest7ResultsEv
 2871      00
 2872 10cf 488B00   		movq	(%rax), %rax
 2873 10d2 488D4DD0 		leaq	-48(%rbp), %rcx
 2874 10d6 BA000000 		movl	$.LC32, %edx
 2874      00
 2875 10db 4889CE   		movq	%rcx, %rsi
 2876 10de 4889C7   		movq	%rax, %rdi
 2877 10e1 E8000000 		call	_ZN8UnitTest11TestResults13OnTestFailureERKNS_11TestDetailsEPKc
 2877      00
 2878              	.LEHE56:
 2879              	.L137:
 2880              	.LEHB57:
  91:TestTestMacros.cpp ****     CHECK_EQUAL ("MacroTestHelper1", macroTestList1.GetHead()->m_details.testName);
 2881              		.loc 6 91 0 is_stmt 1
 2882 10e6 E8000000 		call	_ZN8UnitTest11CurrentTest7DetailsEv
 2882      00
 2883 10eb 488B08   		movq	(%rax), %rcx
 2884 10ee 488D45D0 		leaq	-48(%rbp), %rax
 2885 10f2 BA5B0000 		movl	$91, %edx
 2885      00
 2886 10f7 4889CE   		movq	%rcx, %rsi
 2887 10fa 4889C7   		movq	%rax, %rdi
 2888 10fd E8000000 		call	_ZN8UnitTest11TestDetailsC1ERKS0_i
 2888      00
 2889              		.loc 6 91 0 is_stmt 0 discriminator 1
 2890 1102 BF000000 		movl	$_ZN12_GLOBAL__N_114macroTestList1E, %edi
 2890      00
 2891 1107 E8000000 		call	_ZNK8UnitTest8TestList7GetHeadEv
 2891      00
 2892 110c 488B5810 		movq	16(%rax), %rbx
 2893 1110 E8000000 		call	_ZN8UnitTest11CurrentTest7ResultsEv
 2893      00
 2894 1115 488B00   		movq	(%rax), %rax
 2895 1118 488D55D0 		leaq	-48(%rbp), %rdx
 2896 111c 4889D1   		movq	%rdx, %rcx
 2897 111f 4889DA   		movq	%rbx, %rdx
 2898 1122 BE000000 		movl	$.LC30, %esi
 2898      00
 2899 1127 4889C7   		movq	%rax, %rdi
 2900 112a E8000000 		call	_ZN8UnitTest10CheckEqualERNS_11TestResultsEPKcS3_RKNS_11TestDetailsE
 2900      00
 2901              	.LEHE57:
 2902              	.L142:
 2903              	.LEHB58:
  92:TestTestMacros.cpp ****     CHECK_EQUAL ("DefaultSuite", macroTestList1.GetHead()->m_details.suiteName);
 2904              		.loc 6 92 0 is_stmt 1
 2905 112f E8000000 		call	_ZN8UnitTest11CurrentTest7DetailsEv
 2905      00
 2906 1134 488B08   		movq	(%rax), %rcx
 2907 1137 488D45D0 		leaq	-48(%rbp), %rax
 2908 113b BA5C0000 		movl	$92, %edx
 2908      00
 2909 1140 4889CE   		movq	%rcx, %rsi
 2910 1143 4889C7   		movq	%rax, %rdi
 2911 1146 E8000000 		call	_ZN8UnitTest11TestDetailsC1ERKS0_i
 2911      00
 2912              		.loc 6 92 0 is_stmt 0 discriminator 1
 2913 114b BF000000 		movl	$_ZN12_GLOBAL__N_114macroTestList1E, %edi
 2913      00
 2914 1150 E8000000 		call	_ZNK8UnitTest8TestList7GetHeadEv
 2914      00
 2915 1155 488B5808 		movq	8(%rax), %rbx
 2916 1159 E8000000 		call	_ZN8UnitTest11CurrentTest7ResultsEv
 2916      00
 2917 115e 488B00   		movq	(%rax), %rax
 2918 1161 488D55D0 		leaq	-48(%rbp), %rdx
 2919 1165 4889D1   		movq	%rdx, %rcx
 2920 1168 4889DA   		movq	%rbx, %rdx
 2921 116b BE000000 		movl	$.LC0, %esi
 2921      00
 2922 1170 4889C7   		movq	%rax, %rdi
 2923 1173 E8000000 		call	_ZN8UnitTest10CheckEqualERNS_11TestResultsEPKcS3_RKNS_11TestDetailsE
 2923      00
 2924              	.LEHE58:
  93:TestTestMacros.cpp **** }
 2925              		.loc 6 93 0 is_stmt 1
 2926 1178 E9120100 		jmp	.L152
 2926      00
 2927              	.L147:
 2928 117d 4889C3   		movq	%rax, %rbx
  90:TestTestMacros.cpp ****     CHECK_EQUAL ("MacroTestHelper1", macroTestList1.GetHead()->m_details.testName);
 2929              		.loc 6 90 0
 2930 1180 E8000000 		call	__cxa_end_catch
 2930      00
 2931 1185 4889D8   		movq	%rbx, %rax
 2932 1188 4889C7   		movq	%rax, %rdi
 2933              	.LEHB59:
 2934 118b E8000000 		call	_Unwind_Resume
 2934      00
 2935              	.LEHE59:
 2936              	.L146:
 2937 1190 4889C7   		movq	%rax, %rdi
 2938 1193 E8000000 		call	__cxa_begin_catch
 2938      00
 2939              	.LEHB60:
 2940 1198 E8000000 		call	_ZN8UnitTest11CurrentTest7DetailsEv
 2940      00
 2941 119d 488B08   		movq	(%rax), %rcx
 2942 11a0 488D45D0 		leaq	-48(%rbp), %rax
 2943 11a4 BA5A0000 		movl	$90, %edx
 2943      00
 2944 11a9 4889CE   		movq	%rcx, %rsi
 2945 11ac 4889C7   		movq	%rax, %rdi
 2946 11af E8000000 		call	_ZN8UnitTest11TestDetailsC1ERKS0_i
 2946      00
  90:TestTestMacros.cpp ****     CHECK_EQUAL ("MacroTestHelper1", macroTestList1.GetHead()->m_details.testName);
 2947              		.loc 6 90 0 is_stmt 0 discriminator 1
 2948 11b4 E8000000 		call	_ZN8UnitTest11CurrentTest7ResultsEv
 2948      00
 2949 11b9 488B00   		movq	(%rax), %rax
 2950 11bc 488D4DD0 		leaq	-48(%rbp), %rcx
 2951 11c0 BA000000 		movl	$.LC33, %edx
 2951      00
 2952 11c5 4889CE   		movq	%rcx, %rsi
 2953 11c8 4889C7   		movq	%rax, %rdi
 2954 11cb E8000000 		call	_ZN8UnitTest11TestResults13OnTestFailureERKNS_11TestDetailsEPKc
 2954      00
 2955              	.LEHE60:
 2956              	.LEHB61:
 2957 11d0 E8000000 		call	__cxa_end_catch
 2957      00
 2958              	.LEHE61:
 2959 11d5 E90CFFFF 		jmp	.L137
 2959      FF
 2960              	.L149:
 2961 11da 4889C3   		movq	%rax, %rbx
  91:TestTestMacros.cpp ****     CHECK_EQUAL ("DefaultSuite", macroTestList1.GetHead()->m_details.suiteName);
 2962              		.loc 6 91 0 is_stmt 1
 2963 11dd E8000000 		call	__cxa_end_catch
 2963      00
 2964 11e2 4889D8   		movq	%rbx, %rax
 2965 11e5 4889C7   		movq	%rax, %rdi
 2966              	.LEHB62:
 2967 11e8 E8000000 		call	_Unwind_Resume
 2967      00
 2968              	.LEHE62:
 2969              	.L148:
 2970 11ed 4889C7   		movq	%rax, %rdi
 2971 11f0 E8000000 		call	__cxa_begin_catch
 2971      00
 2972              	.LEHB63:
 2973 11f5 E8000000 		call	_ZN8UnitTest11CurrentTest7DetailsEv
 2973      00
 2974 11fa 488B08   		movq	(%rax), %rcx
 2975 11fd 488D45D0 		leaq	-48(%rbp), %rax
 2976 1201 BA5B0000 		movl	$91, %edx
 2976      00
 2977 1206 4889CE   		movq	%rcx, %rsi
 2978 1209 4889C7   		movq	%rax, %rdi
 2979 120c E8000000 		call	_ZN8UnitTest11TestDetailsC1ERKS0_i
 2979      00
  91:TestTestMacros.cpp ****     CHECK_EQUAL ("DefaultSuite", macroTestList1.GetHead()->m_details.suiteName);
 2980              		.loc 6 91 0 is_stmt 0 discriminator 1
 2981 1211 E8000000 		call	_ZN8UnitTest11CurrentTest7ResultsEv
 2981      00
 2982 1216 488B00   		movq	(%rax), %rax
 2983 1219 488D4DD0 		leaq	-48(%rbp), %rcx
 2984 121d BA000000 		movl	$.LC34, %edx
 2984      00
 2985 1222 4889CE   		movq	%rcx, %rsi
 2986 1225 4889C7   		movq	%rax, %rdi
 2987 1228 E8000000 		call	_ZN8UnitTest11TestResults13OnTestFailureERKNS_11TestDetailsEPKc
 2987      00
 2988              	.LEHE63:
 2989              	.LEHB64:
 2990 122d E8000000 		call	__cxa_end_catch
 2990      00
 2991              	.LEHE64:
 2992 1232 E9F8FEFF 		jmp	.L142
 2992      FF
 2993              	.L151:
 2994 1237 4889C3   		movq	%rax, %rbx
  92:TestTestMacros.cpp **** }
 2995              		.loc 6 92 0 is_stmt 1
 2996 123a E8000000 		call	__cxa_end_catch
 2996      00
 2997 123f 4889D8   		movq	%rbx, %rax
 2998 1242 4889C7   		movq	%rax, %rdi
 2999              	.LEHB65:
 3000 1245 E8000000 		call	_Unwind_Resume
 3000      00
 3001              	.LEHE65:
 3002              	.L150:
 3003 124a 4889C7   		movq	%rax, %rdi
 3004 124d E8000000 		call	__cxa_begin_catch
 3004      00
 3005              	.LEHB66:
 3006 1252 E8000000 		call	_ZN8UnitTest11CurrentTest7DetailsEv
 3006      00
 3007 1257 488B08   		movq	(%rax), %rcx
 3008 125a 488D45D0 		leaq	-48(%rbp), %rax
 3009 125e BA5C0000 		movl	$92, %edx
 3009      00
 3010 1263 4889CE   		movq	%rcx, %rsi
 3011 1266 4889C7   		movq	%rax, %rdi
 3012 1269 E8000000 		call	_ZN8UnitTest11TestDetailsC1ERKS0_i
 3012      00
  92:TestTestMacros.cpp **** }
 3013              		.loc 6 92 0 is_stmt 0 discriminator 1
 3014 126e E8000000 		call	_ZN8UnitTest11CurrentTest7ResultsEv
 3014      00
 3015 1273 488B00   		movq	(%rax), %rax
 3016 1276 488D4DD0 		leaq	-48(%rbp), %rcx
 3017 127a BA000000 		movl	$.LC35, %edx
 3017      00
 3018 127f 4889CE   		movq	%rcx, %rsi
 3019 1282 4889C7   		movq	%rax, %rdi
 3020 1285 E8000000 		call	_ZN8UnitTest11TestResults13OnTestFailureERKNS_11TestDetailsEPKc
 3020      00
 3021              	.LEHE66:
 3022              	.LEHB67:
 3023 128a E8000000 		call	__cxa_end_catch
 3023      00
 3024              	.LEHE67:
 3025              	.L152:
 3026              		.loc 6 93 0 is_stmt 1
 3027 128f 90       		nop
 3028 1290 4883C438 		addq	$56, %rsp
 3029 1294 5B       		popq	%rbx
 3030 1295 5D       		popq	%rbp
 3031              		.cfi_def_cfa 7, 8
 3032 1296 C3       		ret
 3033              		.cfi_endproc
 3034              	.LFE1097:
 3035              		.section	.gcc_except_table
 3036              		.align 4
 3037              	.LLSDA1097:
 3038 0178 FF       		.byte	0xff
 3039 0179 03       		.byte	0x3
 3040 017a 49       		.uleb128 .LLSDATT1097-.LLSDATTD1097
 3041              	.LLSDATTD1097:
 3042 017b 01       		.byte	0x1
 3043 017c 40       		.uleb128 .LLSDACSE1097-.LLSDACSB1097
 3044              	.LLSDACSB1097:
 3045 017d 12       		.uleb128 .LEHB56-.LFB1097
 3046 017e 54       		.uleb128 .LEHE56-.LEHB56
 3047 017f 9002     		.uleb128 .L146-.LFB1097
 3048 0181 01       		.uleb128 0x1
 3049 0182 66       		.uleb128 .LEHB57-.LFB1097
 3050 0183 49       		.uleb128 .LEHE57-.LEHB57
 3051 0184 ED02     		.uleb128 .L148-.LFB1097
 3052 0186 01       		.uleb128 0x1
 3053 0187 AF01     		.uleb128 .LEHB58-.LFB1097
 3054 0189 49       		.uleb128 .LEHE58-.LEHB58
 3055 018a CA03     		.uleb128 .L150-.LFB1097
 3056 018c 01       		.uleb128 0x1
 3057 018d 8B02     		.uleb128 .LEHB59-.LFB1097
 3058 018f 05       		.uleb128 .LEHE59-.LEHB59
 3059 0190 00       		.uleb128 0
 3060 0191 00       		.uleb128 0
 3061 0192 9802     		.uleb128 .LEHB60-.LFB1097
 3062 0194 38       		.uleb128 .LEHE60-.LEHB60
 3063 0195 FD01     		.uleb128 .L147-.LFB1097
 3064 0197 00       		.uleb128 0
 3065 0198 D002     		.uleb128 .LEHB61-.LFB1097
 3066 019a 05       		.uleb128 .LEHE61-.LEHB61
 3067 019b 00       		.uleb128 0
 3068 019c 00       		.uleb128 0
 3069 019d E802     		.uleb128 .LEHB62-.LFB1097
 3070 019f 05       		.uleb128 .LEHE62-.LEHB62
 3071 01a0 00       		.uleb128 0
 3072 01a1 00       		.uleb128 0
 3073 01a2 F502     		.uleb128 .LEHB63-.LFB1097
 3074 01a4 38       		.uleb128 .LEHE63-.LEHB63
 3075 01a5 DA02     		.uleb128 .L149-.LFB1097
 3076 01a7 00       		.uleb128 0
 3077 01a8 AD03     		.uleb128 .LEHB64-.LFB1097
 3078 01aa 05       		.uleb128 .LEHE64-.LEHB64
 3079 01ab 00       		.uleb128 0
 3080 01ac 00       		.uleb128 0
 3081 01ad C503     		.uleb128 .LEHB65-.LFB1097
 3082 01af 05       		.uleb128 .LEHE65-.LEHB65
 3083 01b0 00       		.uleb128 0
 3084 01b1 00       		.uleb128 0
 3085 01b2 D203     		.uleb128 .LEHB66-.LFB1097
 3086 01b4 38       		.uleb128 .LEHE66-.LEHB66
 3087 01b5 B703     		.uleb128 .L151-.LFB1097
 3088 01b7 00       		.uleb128 0
 3089 01b8 8A04     		.uleb128 .LEHB67-.LFB1097
 3090 01ba 05       		.uleb128 .LEHE67-.LEHB67
 3091 01bb 00       		.uleb128 0
 3092 01bc 00       		.uleb128 0
 3093              	.LLSDACSE1097:
 3094 01bd 01       		.byte	0x1
 3095 01be 00       		.byte	0
 3096 01bf 00       		.align 4
 3097 01c0 00000000 		.long	0
 3098              	
 3099              	.LLSDATT1097:
 3100              		.text
 3102              		.local	_ZN12_GLOBAL__N_114macroTestList2E
 3103              		.comm	_ZN12_GLOBAL__N_114macroTestList2E,16,16
 3104 1297 90       		.align 2
 3106              	_ZN12_GLOBAL__N_134DummyFixtureMacroTestHelper2HelperC2ERKN8UnitTest11TestDetailsE:
 3107              	.LFB1099:
  94:TestTestMacros.cpp **** 
  95:TestTestMacros.cpp **** TestList macroTestList2;
  96:TestTestMacros.cpp **** TEST_FIXTURE_EX(DummyFixture, MacroTestHelper2, macroTestList2)
 3108              		.loc 6 96 0
 3109              		.cfi_startproc
 3110 1298 55       		pushq	%rbp
 3111              		.cfi_def_cfa_offset 16
 3112              		.cfi_offset 6, -16
 3113 1299 4889E5   		movq	%rsp, %rbp
 3114              		.cfi_def_cfa_register 6
 3115 129c 4883EC10 		subq	$16, %rsp
 3116 12a0 48897DF8 		movq	%rdi, -8(%rbp)
 3117 12a4 488975F0 		movq	%rsi, -16(%rbp)
 3118              	.LBB62:
 3119              		.loc 6 96 0
 3120 12a8 488B45F8 		movq	-8(%rbp), %rax
 3121 12ac 4889C7   		movq	%rax, %rdi
 3122 12af E898F6FF 		call	_ZN12_GLOBAL__N_112DummyFixtureC2Ev
 3122      FF
 3123 12b4 488B45F8 		movq	-8(%rbp), %rax
 3124 12b8 488B55F0 		movq	-16(%rbp), %rdx
 3125 12bc 48895008 		movq	%rdx, 8(%rax)
 3126              	.LBE62:
 3127 12c0 C9       		leave
 3128              		.cfi_def_cfa 7, 8
 3129 12c1 C3       		ret
 3130              		.cfi_endproc
 3131              	.LFE1099:
 3133              		.set	_ZN12_GLOBAL__N_134DummyFixtureMacroTestHelper2HelperC1ERKN8UnitTest11TestDetailsE,_ZN12_GLOB
 3134              		.section	.rodata
 3135              	.LC36:
 3136 05f2 4D616372 		.string	"MacroTestHelper2"
 3136      6F546573 
 3136      7448656C 
 3136      70657232 
 3136      00
 3137              		.text
 3138              		.align 2
 3140              	_ZN12_GLOBAL__N_132TestDummyFixtureMacroTestHelper2C2Ev:
 3141              	.LFB1102:
 3142              		.loc 6 96 0
 3143              		.cfi_startproc
 3144 12c2 55       		pushq	%rbp
 3145              		.cfi_def_cfa_offset 16
 3146              		.cfi_offset 6, -16
 3147 12c3 4889E5   		movq	%rsp, %rbp
 3148              		.cfi_def_cfa_register 6
 3149 12c6 4883EC10 		subq	$16, %rsp
 3150 12ca 48897DF8 		movq	%rdi, -8(%rbp)
 3151              	.LBB63:
 3152              		.loc 6 96 0
 3153 12ce E8000000 		call	_ZN13UnitTestSuite12GetSuiteNameEv
 3153      00
 3154 12d3 4889C2   		movq	%rax, %rdx
 3155 12d6 488B45F8 		movq	-8(%rbp), %rax
 3156 12da 41B86000 		movl	$96, %r8d
 3156      0000
 3157 12e0 B9000000 		movl	$.LC2, %ecx
 3157      00
 3158 12e5 BE000000 		movl	$.LC36, %esi
 3158      00
 3159 12ea 4889C7   		movq	%rax, %rdi
 3160 12ed E8000000 		call	_ZN8UnitTest4TestC2EPKcS2_S2_i
 3160      00
 3161 12f2 488B45F8 		movq	-8(%rbp), %rax
 3162 12f6 48C70000 		movq	$_ZTVN12_GLOBAL__N_132TestDummyFixtureMacroTestHelper2E+16, (%rax)
 3162      000000
 3163              	.LBE63:
 3164 12fd C9       		leave
 3165              		.cfi_def_cfa 7, 8
 3166 12fe C3       		ret
 3167              		.cfi_endproc
 3168              	.LFE1102:
 3170              		.set	_ZN12_GLOBAL__N_132TestDummyFixtureMacroTestHelper2C1Ev,_ZN12_GLOBAL__N_132TestDummyFixtureMa
 3171              		.local	_ZN12_GLOBAL__N_140testDummyFixtureMacroTestHelper2InstanceE
 3172              		.comm	_ZN12_GLOBAL__N_140testDummyFixtureMacroTestHelper2InstanceE,56,32
 3173              		.local	_ZN12_GLOBAL__N_133adderDummyFixtureMacroTestHelper2E
 3174              		.comm	_ZN12_GLOBAL__N_133adderDummyFixtureMacroTestHelper2E,1,1
 3175 12ff 90       		.align 2
 3177              	_ZNK12_GLOBAL__N_132TestDummyFixtureMacroTestHelper27RunImplEv:
 3178              	.LFB1104:
 3179              		.loc 6 96 0
 3180              		.cfi_startproc
 3181              		.cfi_personality 0x3,__gxx_personality_v0
 3182              		.cfi_lsda 0x3,.LLSDA1104
 3183 1300 55       		pushq	%rbp
 3184              		.cfi_def_cfa_offset 16
 3185              		.cfi_offset 6, -16
 3186 1301 4889E5   		movq	%rsp, %rbp
 3187              		.cfi_def_cfa_register 6
 3188 1304 4154     		pushq	%r12
 3189 1306 53       		pushq	%rbx
 3190 1307 4881ECA0 		subq	$416, %rsp
 3190      010000
 3191              		.cfi_offset 12, -24
 3192              		.cfi_offset 3, -32
 3193 130e 4889BD58 		movq	%rdi, -424(%rbp)
 3193      FEFFFF
 3194              	.LBB64:
 3195              		.loc 6 96 0
 3196 1315 C6856FFE 		movb	$0, -401(%rbp)
 3196      FFFF00
 3197              	.LBB65:
 3198 131c 488B8558 		movq	-424(%rbp), %rax
 3198      FEFFFF
 3199 1323 488D5008 		leaq	8(%rax), %rdx
 3200 1327 488D8580 		leaq	-384(%rbp), %rax
 3200      FEFFFF
 3201 132e 4889D6   		movq	%rdx, %rsi
 3202 1331 4889C7   		movq	%rax, %rdi
 3203 1334 E85FFFFF 		call	_ZN12_GLOBAL__N_134DummyFixtureMacroTestHelper2HelperC1ERKN8UnitTest11TestDetailsE
 3203      FF
 3204 1339 C6856FFE 		movb	$1, -401(%rbp)
 3204      FFFF01
 3205 1340 488B8558 		movq	-424(%rbp), %rax
 3205      FEFFFF
 3206 1347 488D5008 		leaq	8(%rax), %rdx
 3207 134b 488D8580 		leaq	-384(%rbp), %rax
 3207      FEFFFF
 3208 1352 4889D6   		movq	%rdx, %rsi
 3209 1355 4889C7   		movq	%rax, %rdi
 3210              	.LEHB68:
 3211 1358 E8D92100 		call	_ZN8UnitTest11ExecuteTestIN12_GLOBAL__N_134DummyFixtureMacroTestHelper2HelperEEEvRT_RKNS_11Te
 3211      00
 3212              	.LEHE68:
 3213              	.LBE65:
 3214              	.LBE64:
 3215 135d E9470200 		jmp	.L173
 3215      00
 3216              	.L168:
 3217 1362 4889C3   		movq	%rax, %rbx
 3218              	.LBB72:
 3219              	.LBB66:
 3220 1365 E8000000 		call	__cxa_end_catch
 3220      00
 3221 136a 4889D8   		movq	%rbx, %rax
 3222 136d 4889C7   		movq	%rax, %rdi
 3223              	.LEHB69:
 3224 1370 E8000000 		call	_Unwind_Resume
 3224      00
 3225              	.LEHE69:
 3226              	.L169:
 3227 1375 4889C3   		movq	%rax, %rbx
 3228              	.LBE66:
 3229              	.LBB67:
 3230              	.LBB68:
 3231 1378 488D8580 		leaq	-384(%rbp), %rax
 3231      FEFFFF
 3232 137f 4889C7   		movq	%rax, %rdi
 3233 1382 E8000000 		call	_ZN8UnitTest15MemoryOutStreamD1Ev
 3233      00
 3234 1387 EB03     		jmp	.L158
 3235              	.L170:
 3236 1389 4889C3   		movq	%rax, %rbx
 3237              	.L158:
 3238              	.LBE68:
 3239 138c E8000000 		call	__cxa_end_catch
 3239      00
 3240 1391 4889D8   		movq	%rbx, %rax
 3241 1394 4889C7   		movq	%rax, %rdi
 3242              	.LEHB70:
 3243 1397 E8000000 		call	_Unwind_Resume
 3243      00
 3244              	.LEHE70:
 3245              	.L171:
 3246 139c 4889C3   		movq	%rax, %rbx
 3247              	.LBE67:
 3248 139f E8000000 		call	__cxa_end_catch
 3248      00
 3249 13a4 4889D8   		movq	%rbx, %rax
 3250 13a7 4889C7   		movq	%rax, %rdi
 3251              	.LEHB71:
 3252 13aa E8000000 		call	_Unwind_Resume
 3252      00
 3253              	.LEHE71:
 3254              	.L167:
 3255 13af 4883FA01 		cmpq	$1, %rdx
 3256 13b3 740F     		je	.L162
 3257 13b5 4883FA02 		cmpq	$2, %rdx
 3258 13b9 0F84A700 		je	.L163
 3258      0000
 3259 13bf E94B0100 		jmp	.L172
 3259      00
 3260              	.L162:
 3261              	.LBB70:
 3262 13c4 4889C7   		movq	%rax, %rdi
 3263 13c7 E8000000 		call	__cxa_begin_catch
 3263      00
 3264 13cc 48898570 		movq	%rax, -400(%rbp)
 3264      FEFFFF
 3265 13d3 488B8570 		movq	-400(%rbp), %rax
 3265      FEFFFF
 3266 13da 488B00   		movq	(%rax), %rax
 3267 13dd 4883C010 		addq	$16, %rax
 3268 13e1 488B00   		movq	(%rax), %rax
 3269 13e4 488B9570 		movq	-400(%rbp), %rdx
 3269      FEFFFF
 3270 13eb 4889D7   		movq	%rdx, %rdi
 3271 13ee FFD0     		call	*%rax
 3272 13f0 4889C3   		movq	%rax, %rbx
 3273 13f3 488B8570 		movq	-400(%rbp), %rax
 3273      FEFFFF
 3274 13fa 4889C7   		movq	%rax, %rdi
 3275              	.LEHB72:
 3276 13fd E8000000 		call	_ZNK8UnitTest15AssertException10LineNumberEv
 3276      00
 3277 1402 4189C4   		movl	%eax, %r12d
 3278 1405 488B8570 		movq	-400(%rbp), %rax
 3278      FEFFFF
 3279 140c 4889C7   		movq	%rax, %rdi
 3280 140f E8000000 		call	_ZNK8UnitTest15AssertException8FilenameEv
 3280      00
 3281              		.loc 6 96 0 is_stmt 0 discriminator 1
 3282 1414 4889C1   		movq	%rax, %rcx
 3283 1417 488B8558 		movq	-424(%rbp), %rax
 3283      FEFFFF
 3284 141e 488B5008 		movq	8(%rax), %rdx
 3285 1422 488B8558 		movq	-424(%rbp), %rax
 3285      FEFFFF
 3286 1429 488B7010 		movq	16(%rax), %rsi
 3287 142d 488D8580 		leaq	-384(%rbp), %rax
 3287      FEFFFF
 3288 1434 4589E0   		movl	%r12d, %r8d
 3289 1437 4889C7   		movq	%rax, %rdi
 3290 143a E8000000 		call	_ZN8UnitTest11TestDetailsC1EPKcS2_S2_i
 3290      00
 3291              		.loc 6 96 0 discriminator 3
 3292 143f E8000000 		call	_ZN8UnitTest11CurrentTest7ResultsEv
 3292      00
 3293 1444 488B00   		movq	(%rax), %rax
 3294 1447 488D8D80 		leaq	-384(%rbp), %rcx
 3294      FEFFFF
 3295 144e 4889DA   		movq	%rbx, %rdx
 3296 1451 4889CE   		movq	%rcx, %rsi
 3297 1454 4889C7   		movq	%rax, %rdi
 3298 1457 E8000000 		call	_ZN8UnitTest11TestResults13OnTestFailureERKNS_11TestDetailsEPKc
 3298      00
 3299              	.LEHE72:
 3300              		.loc 6 96 0 discriminator 1
 3301 145c E8000000 		call	__cxa_end_catch
 3301      00
 3302              	.LBE70:
 3303              	.LBE72:
 3304 1461 E9430100 		jmp	.L173
 3304      00
 3305              	.L163:
 3306              	.LBB73:
 3307              	.LBB71:
 3308              		.loc 6 96 0
 3309 1466 4889C7   		movq	%rax, %rdi
 3310 1469 E8000000 		call	__cxa_begin_catch
 3310      00
 3311 146e 48898578 		movq	%rax, -392(%rbp)
 3311      FEFFFF
 3312              	.LBB69:
 3313 1475 488D8580 		leaq	-384(%rbp), %rax
 3313      FEFFFF
 3314 147c 4889C7   		movq	%rax, %rdi
 3315              	.LEHB73:
 3316 147f E8000000 		call	_ZN8UnitTest15MemoryOutStreamC1Ev
 3316      00
 3317              	.LEHE73:
 3318              		.loc 6 96 0 discriminator 1
 3319 1484 488B8578 		movq	-392(%rbp), %rax
 3319      FEFFFF
 3320 148b 488B00   		movq	(%rax), %rax
 3321 148e 4883C010 		addq	$16, %rax
 3322 1492 488B00   		movq	(%rax), %rax
 3323 1495 488B9578 		movq	-392(%rbp), %rdx
 3323      FEFFFF
 3324 149c 4889D7   		movq	%rdx, %rdi
 3325 149f FFD0     		call	*%rax
 3326 14a1 4889C3   		movq	%rax, %rbx
 3327 14a4 488D8580 		leaq	-384(%rbp), %rax
 3327      FEFFFF
 3328 14ab BE000000 		movl	$.LC11, %esi
 3328      00
 3329 14b0 4889C7   		movq	%rax, %rdi
 3330              	.LEHB74:
 3331 14b3 E8000000 		call	_ZStlsISt11char_traitsIcEERSt13basic_ostreamIcT_ES5_PKc
 3331      00
 3332 14b8 4889DE   		movq	%rbx, %rsi
 3333 14bb 4889C7   		movq	%rax, %rdi
 3334 14be E8000000 		call	_ZStlsISt11char_traitsIcEERSt13basic_ostreamIcT_ES5_PKc
 3334      00
 3335 14c3 488D8580 		leaq	-384(%rbp), %rax
 3335      FEFFFF
 3336 14ca 4889C7   		movq	%rax, %rdi
 3337 14cd E8000000 		call	_ZNK8UnitTest15MemoryOutStream7GetTextEv
 3337      00
 3338 14d2 4889C3   		movq	%rax, %rbx
 3339 14d5 488B8558 		movq	-424(%rbp), %rax
 3339      FEFFFF
 3340 14dc 4C8D6008 		leaq	8(%rax), %r12
 3341 14e0 E8000000 		call	_ZN8UnitTest11CurrentTest7ResultsEv
 3341      00
 3342 14e5 488B00   		movq	(%rax), %rax
 3343 14e8 4889DA   		movq	%rbx, %rdx
 3344 14eb 4C89E6   		movq	%r12, %rsi
 3345 14ee 4889C7   		movq	%rax, %rdi
 3346 14f1 E8000000 		call	_ZN8UnitTest11TestResults13OnTestFailureERKNS_11TestDetailsEPKc
 3346      00
 3347              	.LEHE74:
 3348 14f6 488D8580 		leaq	-384(%rbp), %rax
 3348      FEFFFF
 3349 14fd 4889C7   		movq	%rax, %rdi
 3350              	.LEHB75:
 3351 1500 E8000000 		call	_ZN8UnitTest15MemoryOutStreamD1Ev
 3351      00
 3352              	.LEHE75:
 3353              	.LBE69:
 3354              		.loc 6 96 0
 3355 1505 E8000000 		call	__cxa_end_catch
 3355      00
 3356              	.LBE71:
 3357              	.LBE73:
 3358 150a E99A0000 		jmp	.L173
 3358      00
 3359              	.L172:
 3360              	.LBB74:
 3361 150f 4889C7   		movq	%rax, %rdi
 3362 1512 E8000000 		call	__cxa_begin_catch
 3362      00
 3363 1517 80BD6FFE 		cmpb	$0, -401(%rbp)
 3363      FFFF00
 3364 151e 7443     		je	.L165
 3365              		.loc 6 96 0 discriminator 1
 3366 1520 488B8558 		movq	-424(%rbp), %rax
 3366      FEFFFF
 3367 1527 488D4808 		leaq	8(%rax), %rcx
 3368 152b 488D8580 		leaq	-384(%rbp), %rax
 3368      FEFFFF
 3369 1532 BA600000 		movl	$96, %edx
 3369      00
 3370 1537 4889CE   		movq	%rcx, %rsi
 3371 153a 4889C7   		movq	%rax, %rdi
 3372              	.LEHB76:
 3373 153d E8000000 		call	_ZN8UnitTest11TestDetailsC1ERKS0_i
 3373      00
 3374 1542 E8000000 		call	_ZN8UnitTest11CurrentTest7ResultsEv
 3374      00
 3375 1547 488B00   		movq	(%rax), %rax
 3376 154a 488D8D80 		leaq	-384(%rbp), %rcx
 3376      FEFFFF
 3377 1551 BA000000 		movl	$.LC27, %edx
 3377      00
 3378 1556 4889CE   		movq	%rcx, %rsi
 3379 1559 4889C7   		movq	%rax, %rdi
 3380 155c E8000000 		call	_ZN8UnitTest11TestResults13OnTestFailureERKNS_11TestDetailsEPKc
 3380      00
 3381 1561 EB41     		jmp	.L166
 3382              	.L165:
 3383              		.loc 6 96 0 discriminator 2
 3384 1563 488B8558 		movq	-424(%rbp), %rax
 3384      FEFFFF
 3385 156a 488D4808 		leaq	8(%rax), %rcx
 3386 156e 488D8580 		leaq	-384(%rbp), %rax
 3386      FEFFFF
 3387 1575 BA600000 		movl	$96, %edx
 3387      00
 3388 157a 4889CE   		movq	%rcx, %rsi
 3389 157d 4889C7   		movq	%rax, %rdi
 3390 1580 E8000000 		call	_ZN8UnitTest11TestDetailsC1ERKS0_i
 3390      00
 3391              		.loc 6 96 0 discriminator 1
 3392 1585 E8000000 		call	_ZN8UnitTest11CurrentTest7ResultsEv
 3392      00
 3393 158a 488B00   		movq	(%rax), %rax
 3394 158d 488D8D80 		leaq	-384(%rbp), %rcx
 3394      FEFFFF
 3395 1594 BA000000 		movl	$.LC28, %edx
 3395      00
 3396 1599 4889CE   		movq	%rcx, %rsi
 3397 159c 4889C7   		movq	%rax, %rdi
 3398 159f E8000000 		call	_ZN8UnitTest11TestResults13OnTestFailureERKNS_11TestDetailsEPKc
 3398      00
 3399              	.LEHE76:
 3400              	.L166:
 3401              	.LEHB77:
 3402 15a4 E8000000 		call	__cxa_end_catch
 3402      00
 3403              	.LEHE77:
 3404              	.L173:
 3405              	.LBE74:
 3406              		.loc 6 96 0
 3407 15a9 90       		nop
 3408 15aa 4881C4A0 		addq	$416, %rsp
 3408      010000
 3409 15b1 5B       		popq	%rbx
 3410 15b2 415C     		popq	%r12
 3411 15b4 5D       		popq	%rbp
 3412              		.cfi_def_cfa 7, 8
 3413 15b5 C3       		ret
 3414              		.cfi_endproc
 3415              	.LFE1104:
 3416              		.section	.gcc_except_table
 3417              		.align 4
 3418              	.LLSDA1104:
 3419 01c4 FF       		.byte	0xff
 3420 01c5 03       		.byte	0x3
 3421 01c6 49       		.uleb128 .LLSDATT1104-.LLSDATTD1104
 3422              	.LLSDATTD1104:
 3423 01c7 01       		.byte	0x1
 3424 01c8 34       		.uleb128 .LLSDACSE1104-.LLSDACSB1104
 3425              	.LLSDACSB1104:
 3426 01c9 58       		.uleb128 .LEHB68-.LFB1104
 3427 01ca 05       		.uleb128 .LEHE68-.LEHB68
 3428 01cb AF01     		.uleb128 .L167-.LFB1104
 3429 01cd 05       		.uleb128 0x5
 3430 01ce 70       		.uleb128 .LEHB69-.LFB1104
 3431 01cf 05       		.uleb128 .LEHE69-.LEHB69
 3432 01d0 00       		.uleb128 0
 3433 01d1 00       		.uleb128 0
 3434 01d2 9701     		.uleb128 .LEHB70-.LFB1104
 3435 01d4 05       		.uleb128 .LEHE70-.LEHB70
 3436 01d5 00       		.uleb128 0
 3437 01d6 00       		.uleb128 0
 3438 01d7 AA01     		.uleb128 .LEHB71-.LFB1104
 3439 01d9 05       		.uleb128 .LEHE71-.LEHB71
 3440 01da 00       		.uleb128 0
 3441 01db 00       		.uleb128 0
 3442 01dc FD01     		.uleb128 .LEHB72-.LFB1104
 3443 01de 5F       		.uleb128 .LEHE72-.LEHB72
 3444 01df 62       		.uleb128 .L168-.LFB1104
 3445 01e0 00       		.uleb128 0
 3446 01e1 FF02     		.uleb128 .LEHB73-.LFB1104
 3447 01e3 05       		.uleb128 .LEHE73-.LEHB73
 3448 01e4 8901     		.uleb128 .L170-.LFB1104
 3449 01e6 00       		.uleb128 0
 3450 01e7 B303     		.uleb128 .LEHB74-.LFB1104
 3451 01e9 43       		.uleb128 .LEHE74-.LEHB74
 3452 01ea 75       		.uleb128 .L169-.LFB1104
 3453 01eb 00       		.uleb128 0
 3454 01ec 8004     		.uleb128 .LEHB75-.LFB1104
 3455 01ee 05       		.uleb128 .LEHE75-.LEHB75
 3456 01ef 8901     		.uleb128 .L170-.LFB1104
 3457 01f1 00       		.uleb128 0
 3458 01f2 BD04     		.uleb128 .LEHB76-.LFB1104
 3459 01f4 67       		.uleb128 .LEHE76-.LEHB76
 3460 01f5 9C01     		.uleb128 .L171-.LFB1104
 3461 01f7 00       		.uleb128 0
 3462 01f8 A405     		.uleb128 .LEHB77-.LFB1104
 3463 01fa 05       		.uleb128 .LEHE77-.LEHB77
 3464 01fb 00       		.uleb128 0
 3465 01fc 00       		.uleb128 0
 3466              	.LLSDACSE1104:
 3467 01fd 03       		.byte	0x3
 3468 01fe 00       		.byte	0
 3469 01ff 02       		.byte	0x2
 3470 0200 7D       		.byte	0x7d
 3471 0201 01       		.byte	0x1
 3472 0202 7D       		.byte	0x7d
 3473 0203 00       		.align 4
 3474 0204 00000000 		.long	0
 3475              	
 3476 0208 00000000 		.long	_ZTISt9exception
 3477 020c 00000000 		.long	_ZTIN8UnitTest15AssertExceptionE
 3478              	.LLSDATT1104:
 3479              		.text
 3481              		.align 2
 3483              	_ZN12_GLOBAL__N_134DummyFixtureMacroTestHelper2Helper7RunImplEv:
 3484              	.LFB1105:
  97:TestTestMacros.cpp **** {
 3485              		.loc 6 97 0 is_stmt 1
 3486              		.cfi_startproc
 3487 15b6 55       		pushq	%rbp
 3488              		.cfi_def_cfa_offset 16
 3489              		.cfi_offset 6, -16
 3490 15b7 4889E5   		movq	%rsp, %rbp
 3491              		.cfi_def_cfa_register 6
 3492 15ba 48897DF8 		movq	%rdi, -8(%rbp)
  98:TestTestMacros.cpp **** }
 3493              		.loc 6 98 0
 3494 15be 5D       		popq	%rbp
 3495              		.cfi_def_cfa 7, 8
 3496 15bf C3       		ret
 3497              		.cfi_endproc
 3498              	.LFE1105:
 3500              		.section	.rodata
 3501 0603 00000000 		.align 8
 3501      00
 3502              	.LC37:
 3503 0608 54657374 		.string	"TestAddedWithTEST_FIXTURE_EXMacroGetsDefaultSuite"
 3503      41646465 
 3503      64576974 
 3503      68544553 
 3503      545F4649 
 3504              		.text
 3505              		.align 2
 3507              	_ZN12_GLOBAL__N_153TestTestAddedWithTEST_FIXTURE_EXMacroGetsDefaultSuiteC2Ev:
 3508              	.LFB1107:
  99:TestTestMacros.cpp **** 
 100:TestTestMacros.cpp **** TEST(TestAddedWithTEST_FIXTURE_EXMacroGetsDefaultSuite)
 3509              		.loc 6 100 0
 3510              		.cfi_startproc
 3511 15c0 55       		pushq	%rbp
 3512              		.cfi_def_cfa_offset 16
 3513              		.cfi_offset 6, -16
 3514 15c1 4889E5   		movq	%rsp, %rbp
 3515              		.cfi_def_cfa_register 6
 3516 15c4 4883EC10 		subq	$16, %rsp
 3517 15c8 48897DF8 		movq	%rdi, -8(%rbp)
 3518              	.LBB75:
 3519              		.loc 6 100 0
 3520 15cc E8000000 		call	_ZN13UnitTestSuite12GetSuiteNameEv
 3520      00
 3521 15d1 4889C2   		movq	%rax, %rdx
 3522 15d4 488B45F8 		movq	-8(%rbp), %rax
 3523 15d8 41B86400 		movl	$100, %r8d
 3523      0000
 3524 15de B9000000 		movl	$.LC2, %ecx
 3524      00
 3525 15e3 BE000000 		movl	$.LC37, %esi
 3525      00
 3526 15e8 4889C7   		movq	%rax, %rdi
 3527 15eb E8000000 		call	_ZN8UnitTest4TestC2EPKcS2_S2_i
 3527      00
 3528 15f0 488B45F8 		movq	-8(%rbp), %rax
 3529 15f4 48C70000 		movq	$_ZTVN12_GLOBAL__N_153TestTestAddedWithTEST_FIXTURE_EXMacroGetsDefaultSuiteE+16, (%rax)
 3529      000000
 3530              	.LBE75:
 3531 15fb C9       		leave
 3532              		.cfi_def_cfa 7, 8
 3533 15fc C3       		ret
 3534              		.cfi_endproc
 3535              	.LFE1107:
 3537              		.set	_ZN12_GLOBAL__N_153TestTestAddedWithTEST_FIXTURE_EXMacroGetsDefaultSuiteC1Ev,_ZN12_GLOBAL__N_
 3538              		.local	_ZN12_GLOBAL__N_161testTestAddedWithTEST_FIXTURE_EXMacroGetsDefaultSuiteInstanceE
 3539              		.comm	_ZN12_GLOBAL__N_161testTestAddedWithTEST_FIXTURE_EXMacroGetsDefaultSuiteInstanceE,56,32
 3540              		.local	_ZN12_GLOBAL__N_154adderTestAddedWithTEST_FIXTURE_EXMacroGetsDefaultSuiteE
 3541              		.comm	_ZN12_GLOBAL__N_154adderTestAddedWithTEST_FIXTURE_EXMacroGetsDefaultSuiteE,1,1
 3542              		.section	.rodata
 3543 063a 00000000 		.align 8
 3543      0000
 3544              	.LC38:
 3545 0640 6D616372 		.string	"macroTestList2.GetHead() != NULL"
 3545      6F546573 
 3545      744C6973 
 3545      74322E47 
 3545      65744865 
 3546 0661 00000000 		.align 8
 3546      000000
 3547              	.LC39:
 3548 0668 556E6861 		.string	"Unhandled exception in CHECK(macroTestList2.GetHead() != NULL)"
 3548      6E646C65 
 3548      64206578 
 3548      63657074 
 3548      696F6E20 
 3549 06a7 00       		.align 8
 3550              	.LC40:
 3551 06a8 556E6861 		.string	"Unhandled exception in CHECK_EQUAL(\"MacroTestHelper2\", macroTestList2.GetHead()->m_deta
 3551      6E646C65 
 3551      64206578 
 3551      63657074 
 3551      696F6E20 
 3552 070d 000000   		.align 8
 3553              	.LC41:
 3554 0710 556E6861 		.string	"Unhandled exception in CHECK_EQUAL(\"DefaultSuite\", macroTestList2.GetHead()->m_details.
 3554      6E646C65 
 3554      64206578 
 3554      63657074 
 3554      696F6E20 
 3555              		.text
 3556 15fd 90       		.align 2
 3558              	_ZNK12_GLOBAL__N_153TestTestAddedWithTEST_FIXTURE_EXMacroGetsDefaultSuite7RunImplEv:
 3559              	.LFB1109:
 101:TestTestMacros.cpp **** {
 3560              		.loc 6 101 0
 3561              		.cfi_startproc
 3562              		.cfi_personality 0x3,__gxx_personality_v0
 3563              		.cfi_lsda 0x3,.LLSDA1109
 3564 15fe 55       		pushq	%rbp
 3565              		.cfi_def_cfa_offset 16
 3566              		.cfi_offset 6, -16
 3567 15ff 4889E5   		movq	%rsp, %rbp
 3568              		.cfi_def_cfa_register 6
 3569 1602 53       		pushq	%rbx
 3570 1603 4883EC38 		subq	$56, %rsp
 3571              		.cfi_offset 3, -24
 3572 1607 48897DC8 		movq	%rdi, -56(%rbp)
 102:TestTestMacros.cpp ****     CHECK(macroTestList2.GetHead() != NULL);
 3573              		.loc 6 102 0
 3574 160b BF000000 		movl	$_ZN12_GLOBAL__N_114macroTestList2E, %edi
 3574      00
 3575              	.LEHB78:
 3576 1610 E8000000 		call	_ZNK8UnitTest8TestList7GetHeadEv
 3576      00
 3577 1615 4885C0   		testq	%rax, %rax
 3578 1618 0F95C0   		setne	%al
 3579 161b 0FB6C0   		movzbl	%al, %eax
 3580 161e 89C7     		movl	%eax, %edi
 3581 1620 E8000000 		call	_ZN8UnitTest5CheckIbEEbT_
 3581      00
 3582 1625 83F001   		xorl	$1, %eax
 3583 1628 84C0     		testb	%al, %al
 3584 162a 7438     		je	.L177
 3585              		.loc 6 102 0 is_stmt 0 discriminator 1
 3586 162c E8000000 		call	_ZN8UnitTest11CurrentTest7DetailsEv
 3586      00
 3587 1631 488B08   		movq	(%rax), %rcx
 3588 1634 488D45D0 		leaq	-48(%rbp), %rax
 3589 1638 BA660000 		movl	$102, %edx
 3589      00
 3590 163d 4889CE   		movq	%rcx, %rsi
 3591 1640 4889C7   		movq	%rax, %rdi
 3592 1643 E8000000 		call	_ZN8UnitTest11TestDetailsC1ERKS0_i
 3592      00
 3593 1648 E8000000 		call	_ZN8UnitTest11CurrentTest7ResultsEv
 3593      00
 3594 164d 488B00   		movq	(%rax), %rax
 3595 1650 488D4DD0 		leaq	-48(%rbp), %rcx
 3596 1654 BA000000 		movl	$.LC38, %edx
 3596      00
 3597 1659 4889CE   		movq	%rcx, %rsi
 3598 165c 4889C7   		movq	%rax, %rdi
 3599 165f E8000000 		call	_ZN8UnitTest11TestResults13OnTestFailureERKNS_11TestDetailsEPKc
 3599      00
 3600              	.LEHE78:
 3601              	.L177:
 3602              	.LEHB79:
 103:TestTestMacros.cpp ****     CHECK_EQUAL ("MacroTestHelper2", macroTestList2.GetHead()->m_details.testName);
 3603              		.loc 6 103 0 is_stmt 1
 3604 1664 E8000000 		call	_ZN8UnitTest11CurrentTest7DetailsEv
 3604      00
 3605 1669 488B08   		movq	(%rax), %rcx
 3606 166c 488D45D0 		leaq	-48(%rbp), %rax
 3607 1670 BA670000 		movl	$103, %edx
 3607      00
 3608 1675 4889CE   		movq	%rcx, %rsi
 3609 1678 4889C7   		movq	%rax, %rdi
 3610 167b E8000000 		call	_ZN8UnitTest11TestDetailsC1ERKS0_i
 3610      00
 3611              		.loc 6 103 0 is_stmt 0 discriminator 1
 3612 1680 BF000000 		movl	$_ZN12_GLOBAL__N_114macroTestList2E, %edi
 3612      00
 3613 1685 E8000000 		call	_ZNK8UnitTest8TestList7GetHeadEv
 3613      00
 3614 168a 488B5810 		movq	16(%rax), %rbx
 3615 168e E8000000 		call	_ZN8UnitTest11CurrentTest7ResultsEv
 3615      00
 3616 1693 488B00   		movq	(%rax), %rax
 3617 1696 488D55D0 		leaq	-48(%rbp), %rdx
 3618 169a 4889D1   		movq	%rdx, %rcx
 3619 169d 4889DA   		movq	%rbx, %rdx
 3620 16a0 BE000000 		movl	$.LC36, %esi
 3620      00
 3621 16a5 4889C7   		movq	%rax, %rdi
 3622 16a8 E8000000 		call	_ZN8UnitTest10CheckEqualERNS_11TestResultsEPKcS3_RKNS_11TestDetailsE
 3622      00
 3623              	.LEHE79:
 3624              	.L182:
 3625              	.LEHB80:
 104:TestTestMacros.cpp ****     CHECK_EQUAL ("DefaultSuite", macroTestList2.GetHead()->m_details.suiteName);
 3626              		.loc 6 104 0 is_stmt 1
 3627 16ad E8000000 		call	_ZN8UnitTest11CurrentTest7DetailsEv
 3627      00
 3628 16b2 488B08   		movq	(%rax), %rcx
 3629 16b5 488D45D0 		leaq	-48(%rbp), %rax
 3630 16b9 BA680000 		movl	$104, %edx
 3630      00
 3631 16be 4889CE   		movq	%rcx, %rsi
 3632 16c1 4889C7   		movq	%rax, %rdi
 3633 16c4 E8000000 		call	_ZN8UnitTest11TestDetailsC1ERKS0_i
 3633      00
 3634              		.loc 6 104 0 is_stmt 0 discriminator 1
 3635 16c9 BF000000 		movl	$_ZN12_GLOBAL__N_114macroTestList2E, %edi
 3635      00
 3636 16ce E8000000 		call	_ZNK8UnitTest8TestList7GetHeadEv
 3636      00
 3637 16d3 488B5808 		movq	8(%rax), %rbx
 3638 16d7 E8000000 		call	_ZN8UnitTest11CurrentTest7ResultsEv
 3638      00
 3639 16dc 488B00   		movq	(%rax), %rax
 3640 16df 488D55D0 		leaq	-48(%rbp), %rdx
 3641 16e3 4889D1   		movq	%rdx, %rcx
 3642 16e6 4889DA   		movq	%rbx, %rdx
 3643 16e9 BE000000 		movl	$.LC0, %esi
 3643      00
 3644 16ee 4889C7   		movq	%rax, %rdi
 3645 16f1 E8000000 		call	_ZN8UnitTest10CheckEqualERNS_11TestResultsEPKcS3_RKNS_11TestDetailsE
 3645      00
 3646              	.LEHE80:
 105:TestTestMacros.cpp **** }
 3647              		.loc 6 105 0 is_stmt 1
 3648 16f6 E9120100 		jmp	.L192
 3648      00
 3649              	.L187:
 3650 16fb 4889C3   		movq	%rax, %rbx
 102:TestTestMacros.cpp ****     CHECK_EQUAL ("MacroTestHelper2", macroTestList2.GetHead()->m_details.testName);
 3651              		.loc 6 102 0
 3652 16fe E8000000 		call	__cxa_end_catch
 3652      00
 3653 1703 4889D8   		movq	%rbx, %rax
 3654 1706 4889C7   		movq	%rax, %rdi
 3655              	.LEHB81:
 3656 1709 E8000000 		call	_Unwind_Resume
 3656      00
 3657              	.LEHE81:
 3658              	.L186:
 3659 170e 4889C7   		movq	%rax, %rdi
 3660 1711 E8000000 		call	__cxa_begin_catch
 3660      00
 3661              	.LEHB82:
 3662 1716 E8000000 		call	_ZN8UnitTest11CurrentTest7DetailsEv
 3662      00
 3663 171b 488B08   		movq	(%rax), %rcx
 3664 171e 488D45D0 		leaq	-48(%rbp), %rax
 3665 1722 BA660000 		movl	$102, %edx
 3665      00
 3666 1727 4889CE   		movq	%rcx, %rsi
 3667 172a 4889C7   		movq	%rax, %rdi
 3668 172d E8000000 		call	_ZN8UnitTest11TestDetailsC1ERKS0_i
 3668      00
 102:TestTestMacros.cpp ****     CHECK_EQUAL ("MacroTestHelper2", macroTestList2.GetHead()->m_details.testName);
 3669              		.loc 6 102 0 is_stmt 0 discriminator 1
 3670 1732 E8000000 		call	_ZN8UnitTest11CurrentTest7ResultsEv
 3670      00
 3671 1737 488B00   		movq	(%rax), %rax
 3672 173a 488D4DD0 		leaq	-48(%rbp), %rcx
 3673 173e BA000000 		movl	$.LC39, %edx
 3673      00
 3674 1743 4889CE   		movq	%rcx, %rsi
 3675 1746 4889C7   		movq	%rax, %rdi
 3676 1749 E8000000 		call	_ZN8UnitTest11TestResults13OnTestFailureERKNS_11TestDetailsEPKc
 3676      00
 3677              	.LEHE82:
 3678              	.LEHB83:
 3679 174e E8000000 		call	__cxa_end_catch
 3679      00
 3680              	.LEHE83:
 3681 1753 E90CFFFF 		jmp	.L177
 3681      FF
 3682              	.L189:
 3683 1758 4889C3   		movq	%rax, %rbx
 103:TestTestMacros.cpp ****     CHECK_EQUAL ("DefaultSuite", macroTestList2.GetHead()->m_details.suiteName);
 3684              		.loc 6 103 0 is_stmt 1
 3685 175b E8000000 		call	__cxa_end_catch
 3685      00
 3686 1760 4889D8   		movq	%rbx, %rax
 3687 1763 4889C7   		movq	%rax, %rdi
 3688              	.LEHB84:
 3689 1766 E8000000 		call	_Unwind_Resume
 3689      00
 3690              	.LEHE84:
 3691              	.L188:
 3692 176b 4889C7   		movq	%rax, %rdi
 3693 176e E8000000 		call	__cxa_begin_catch
 3693      00
 3694              	.LEHB85:
 3695 1773 E8000000 		call	_ZN8UnitTest11CurrentTest7DetailsEv
 3695      00
 3696 1778 488B08   		movq	(%rax), %rcx
 3697 177b 488D45D0 		leaq	-48(%rbp), %rax
 3698 177f BA670000 		movl	$103, %edx
 3698      00
 3699 1784 4889CE   		movq	%rcx, %rsi
 3700 1787 4889C7   		movq	%rax, %rdi
 3701 178a E8000000 		call	_ZN8UnitTest11TestDetailsC1ERKS0_i
 3701      00
 103:TestTestMacros.cpp ****     CHECK_EQUAL ("DefaultSuite", macroTestList2.GetHead()->m_details.suiteName);
 3702              		.loc 6 103 0 is_stmt 0 discriminator 1
 3703 178f E8000000 		call	_ZN8UnitTest11CurrentTest7ResultsEv
 3703      00
 3704 1794 488B00   		movq	(%rax), %rax
 3705 1797 488D4DD0 		leaq	-48(%rbp), %rcx
 3706 179b BA000000 		movl	$.LC40, %edx
 3706      00
 3707 17a0 4889CE   		movq	%rcx, %rsi
 3708 17a3 4889C7   		movq	%rax, %rdi
 3709 17a6 E8000000 		call	_ZN8UnitTest11TestResults13OnTestFailureERKNS_11TestDetailsEPKc
 3709      00
 3710              	.LEHE85:
 3711              	.LEHB86:
 3712 17ab E8000000 		call	__cxa_end_catch
 3712      00
 3713              	.LEHE86:
 3714 17b0 E9F8FEFF 		jmp	.L182
 3714      FF
 3715              	.L191:
 3716 17b5 4889C3   		movq	%rax, %rbx
 104:TestTestMacros.cpp **** }
 3717              		.loc 6 104 0 is_stmt 1
 3718 17b8 E8000000 		call	__cxa_end_catch
 3718      00
 3719 17bd 4889D8   		movq	%rbx, %rax
 3720 17c0 4889C7   		movq	%rax, %rdi
 3721              	.LEHB87:
 3722 17c3 E8000000 		call	_Unwind_Resume
 3722      00
 3723              	.LEHE87:
 3724              	.L190:
 3725 17c8 4889C7   		movq	%rax, %rdi
 3726 17cb E8000000 		call	__cxa_begin_catch
 3726      00
 3727              	.LEHB88:
 3728 17d0 E8000000 		call	_ZN8UnitTest11CurrentTest7DetailsEv
 3728      00
 3729 17d5 488B08   		movq	(%rax), %rcx
 3730 17d8 488D45D0 		leaq	-48(%rbp), %rax
 3731 17dc BA680000 		movl	$104, %edx
 3731      00
 3732 17e1 4889CE   		movq	%rcx, %rsi
 3733 17e4 4889C7   		movq	%rax, %rdi
 3734 17e7 E8000000 		call	_ZN8UnitTest11TestDetailsC1ERKS0_i
 3734      00
 104:TestTestMacros.cpp **** }
 3735              		.loc 6 104 0 is_stmt 0 discriminator 1
 3736 17ec E8000000 		call	_ZN8UnitTest11CurrentTest7ResultsEv
 3736      00
 3737 17f1 488B00   		movq	(%rax), %rax
 3738 17f4 488D4DD0 		leaq	-48(%rbp), %rcx
 3739 17f8 BA000000 		movl	$.LC41, %edx
 3739      00
 3740 17fd 4889CE   		movq	%rcx, %rsi
 3741 1800 4889C7   		movq	%rax, %rdi
 3742 1803 E8000000 		call	_ZN8UnitTest11TestResults13OnTestFailureERKNS_11TestDetailsEPKc
 3742      00
 3743              	.LEHE88:
 3744              	.LEHB89:
 3745 1808 E8000000 		call	__cxa_end_catch
 3745      00
 3746              	.LEHE89:
 3747              	.L192:
 3748              		.loc 6 105 0 is_stmt 1
 3749 180d 90       		nop
 3750 180e 4883C438 		addq	$56, %rsp
 3751 1812 5B       		popq	%rbx
 3752 1813 5D       		popq	%rbp
 3753              		.cfi_def_cfa 7, 8
 3754 1814 C3       		ret
 3755              		.cfi_endproc
 3756              	.LFE1109:
 3757              		.section	.gcc_except_table
 3758              		.align 4
 3759              	.LLSDA1109:
 3760 0210 FF       		.byte	0xff
 3761 0211 03       		.byte	0x3
 3762 0212 49       		.uleb128 .LLSDATT1109-.LLSDATTD1109
 3763              	.LLSDATTD1109:
 3764 0213 01       		.byte	0x1
 3765 0214 40       		.uleb128 .LLSDACSE1109-.LLSDACSB1109
 3766              	.LLSDACSB1109:
 3767 0215 12       		.uleb128 .LEHB78-.LFB1109
 3768 0216 54       		.uleb128 .LEHE78-.LEHB78
 3769 0217 9002     		.uleb128 .L186-.LFB1109
 3770 0219 01       		.uleb128 0x1
 3771 021a 66       		.uleb128 .LEHB79-.LFB1109
 3772 021b 49       		.uleb128 .LEHE79-.LEHB79
 3773 021c ED02     		.uleb128 .L188-.LFB1109
 3774 021e 01       		.uleb128 0x1
 3775 021f AF01     		.uleb128 .LEHB80-.LFB1109
 3776 0221 49       		.uleb128 .LEHE80-.LEHB80
 3777 0222 CA03     		.uleb128 .L190-.LFB1109
 3778 0224 01       		.uleb128 0x1
 3779 0225 8B02     		.uleb128 .LEHB81-.LFB1109
 3780 0227 05       		.uleb128 .LEHE81-.LEHB81
 3781 0228 00       		.uleb128 0
 3782 0229 00       		.uleb128 0
 3783 022a 9802     		.uleb128 .LEHB82-.LFB1109
 3784 022c 38       		.uleb128 .LEHE82-.LEHB82
 3785 022d FD01     		.uleb128 .L187-.LFB1109
 3786 022f 00       		.uleb128 0
 3787 0230 D002     		.uleb128 .LEHB83-.LFB1109
 3788 0232 05       		.uleb128 .LEHE83-.LEHB83
 3789 0233 00       		.uleb128 0
 3790 0234 00       		.uleb128 0
 3791 0235 E802     		.uleb128 .LEHB84-.LFB1109
 3792 0237 05       		.uleb128 .LEHE84-.LEHB84
 3793 0238 00       		.uleb128 0
 3794 0239 00       		.uleb128 0
 3795 023a F502     		.uleb128 .LEHB85-.LFB1109
 3796 023c 38       		.uleb128 .LEHE85-.LEHB85
 3797 023d DA02     		.uleb128 .L189-.LFB1109
 3798 023f 00       		.uleb128 0
 3799 0240 AD03     		.uleb128 .LEHB86-.LFB1109
 3800 0242 05       		.uleb128 .LEHE86-.LEHB86
 3801 0243 00       		.uleb128 0
 3802 0244 00       		.uleb128 0
 3803 0245 C503     		.uleb128 .LEHB87-.LFB1109
 3804 0247 05       		.uleb128 .LEHE87-.LEHB87
 3805 0248 00       		.uleb128 0
 3806 0249 00       		.uleb128 0
 3807 024a D203     		.uleb128 .LEHB88-.LFB1109
 3808 024c 38       		.uleb128 .LEHE88-.LEHB88
 3809 024d B703     		.uleb128 .L191-.LFB1109
 3810 024f 00       		.uleb128 0
 3811 0250 8A04     		.uleb128 .LEHB89-.LFB1109
 3812 0252 05       		.uleb128 .LEHE89-.LEHB89
 3813 0253 00       		.uleb128 0
 3814 0254 00       		.uleb128 0
 3815              	.LLSDACSE1109:
 3816 0255 01       		.byte	0x1
 3817 0256 00       		.byte	0
 3818 0257 00       		.align 4
 3819 0258 00000000 		.long	0
 3820              	
 3821              	.LLSDATT1109:
 3822              		.text
 3824              		.section	.rodata
 3825              	.LC42:
 3826 0772 65786365 		.string	"exception"
 3826      7074696F 
 3826      6E00
 3827              		.text
 3828 1815 90       		.align 2
 3830              	_ZN12_GLOBAL__N_117FixtureCtorThrowsC2Ev:
 3831              	.LFB1111:
 106:TestTestMacros.cpp **** 
 107:TestTestMacros.cpp **** struct FixtureCtorThrows
 108:TestTestMacros.cpp **** {
 109:TestTestMacros.cpp **** 	FixtureCtorThrows()	{ throw "exception"; }
 3832              		.loc 6 109 0
 3833              		.cfi_startproc
 3834 1816 55       		pushq	%rbp
 3835              		.cfi_def_cfa_offset 16
 3836              		.cfi_offset 6, -16
 3837 1817 4889E5   		movq	%rsp, %rbp
 3838              		.cfi_def_cfa_register 6
 3839 181a 4883EC10 		subq	$16, %rsp
 3840 181e 48897DF8 		movq	%rdi, -8(%rbp)
 3841              	.LBB76:
 3842              		.loc 6 109 0
 3843 1822 BF080000 		movl	$8, %edi
 3843      00
 3844 1827 E8000000 		call	__cxa_allocate_exception
 3844      00
 3845 182c 48C70000 		movq	$.LC42, (%rax)
 3845      000000
 3846 1833 BA000000 		movl	$0, %edx
 3846      00
 3847 1838 BE000000 		movl	$_ZTIPKc, %esi
 3847      00
 3848 183d 4889C7   		movq	%rax, %rdi
 3849 1840 E8000000 		call	__cxa_throw
 3849      00
 3850              	.LBE76:
 3851              		.cfi_endproc
 3852              	.LFE1111:
 3854              		.local	_ZN12_GLOBAL__N_124throwingFixtureTestList1E
 3855              		.comm	_ZN12_GLOBAL__N_124throwingFixtureTestList1E,16,16
 3856 1845 90       		.align 2
 3858              	_ZN12_GLOBAL__N_148FixtureCtorThrowsFixtureCtorThrowsTestNameHelperC2ERKN8UnitTest11TestDetailsE:
 3859              	.LFB1114:
 110:TestTestMacros.cpp **** };
 111:TestTestMacros.cpp **** 
 112:TestTestMacros.cpp **** TestList throwingFixtureTestList1;
 113:TestTestMacros.cpp **** TEST_FIXTURE_EX(FixtureCtorThrows, FixtureCtorThrowsTestName, throwingFixtureTestList1)
 3860              		.loc 6 113 0
 3861              		.cfi_startproc
 3862 1846 55       		pushq	%rbp
 3863              		.cfi_def_cfa_offset 16
 3864              		.cfi_offset 6, -16
 3865 1847 4889E5   		movq	%rsp, %rbp
 3866              		.cfi_def_cfa_register 6
 3867 184a 4883EC10 		subq	$16, %rsp
 3868 184e 48897DF8 		movq	%rdi, -8(%rbp)
 3869 1852 488975F0 		movq	%rsi, -16(%rbp)
 3870              	.LBB77:
 3871              		.loc 6 113 0
 3872 1856 488B45F8 		movq	-8(%rbp), %rax
 3873 185a 4889C7   		movq	%rax, %rdi
 3874 185d E8B4FFFF 		call	_ZN12_GLOBAL__N_117FixtureCtorThrowsC2Ev
 3874      FF
 3875 1862 488B45F8 		movq	-8(%rbp), %rax
 3876 1866 488B55F0 		movq	-16(%rbp), %rdx
 3877 186a 488910   		movq	%rdx, (%rax)
 3878              	.LBE77:
 3879 186d C9       		leave
 3880              		.cfi_def_cfa 7, 8
 3881 186e C3       		ret
 3882              		.cfi_endproc
 3883              	.LFE1114:
 3885              		.set	_ZN12_GLOBAL__N_148FixtureCtorThrowsFixtureCtorThrowsTestNameHelperC1ERKN8UnitTest11TestDetai
 3886              		.section	.rodata
 3887              	.LC43:
 3888 077c 46697874 		.string	"FixtureCtorThrowsTestName"
 3888      75726543 
 3888      746F7254 
 3888      68726F77 
 3888      73546573 
 3889              		.text
 3890 186f 90       		.align 2
 3892              	_ZN12_GLOBAL__N_146TestFixtureCtorThrowsFixtureCtorThrowsTestNameC2Ev:
 3893              	.LFB1117:
 3894              		.loc 6 113 0
 3895              		.cfi_startproc
 3896 1870 55       		pushq	%rbp
 3897              		.cfi_def_cfa_offset 16
 3898              		.cfi_offset 6, -16
 3899 1871 4889E5   		movq	%rsp, %rbp
 3900              		.cfi_def_cfa_register 6
 3901 1874 4883EC10 		subq	$16, %rsp
 3902 1878 48897DF8 		movq	%rdi, -8(%rbp)
 3903              	.LBB78:
 3904              		.loc 6 113 0
 3905 187c E8000000 		call	_ZN13UnitTestSuite12GetSuiteNameEv
 3905      00
 3906 1881 4889C2   		movq	%rax, %rdx
 3907 1884 488B45F8 		movq	-8(%rbp), %rax
 3908 1888 41B87100 		movl	$113, %r8d
 3908      0000
 3909 188e B9000000 		movl	$.LC2, %ecx
 3909      00
 3910 1893 BE000000 		movl	$.LC43, %esi
 3910      00
 3911 1898 4889C7   		movq	%rax, %rdi
 3912 189b E8000000 		call	_ZN8UnitTest4TestC2EPKcS2_S2_i
 3912      00
 3913 18a0 488B45F8 		movq	-8(%rbp), %rax
 3914 18a4 48C70000 		movq	$_ZTVN12_GLOBAL__N_146TestFixtureCtorThrowsFixtureCtorThrowsTestNameE+16, (%rax)
 3914      000000
 3915              	.LBE78:
 3916 18ab C9       		leave
 3917              		.cfi_def_cfa 7, 8
 3918 18ac C3       		ret
 3919              		.cfi_endproc
 3920              	.LFE1117:
 3922              		.set	_ZN12_GLOBAL__N_146TestFixtureCtorThrowsFixtureCtorThrowsTestNameC1Ev,_ZN12_GLOBAL__N_146Test
 3923              		.local	_ZN12_GLOBAL__N_154testFixtureCtorThrowsFixtureCtorThrowsTestNameInstanceE
 3924              		.comm	_ZN12_GLOBAL__N_154testFixtureCtorThrowsFixtureCtorThrowsTestNameInstanceE,56,32
 3925              		.local	_ZN12_GLOBAL__N_147adderFixtureCtorThrowsFixtureCtorThrowsTestNameE
 3926              		.comm	_ZN12_GLOBAL__N_147adderFixtureCtorThrowsFixtureCtorThrowsTestNameE,1,1
 3927              		.section	.rodata
 3928 0796 0000     		.align 8
 3929              	.LC44:
 3930 0798 556E6861 		.string	"Unhandled exception while destroying fixture FixtureCtorThrows"
 3930      6E646C65 
 3930      64206578 
 3930      63657074 
 3930      696F6E20 
 3931 07d7 00       		.align 8
 3932              	.LC45:
 3933 07d8 556E6861 		.string	"Unhandled exception while constructing fixture FixtureCtorThrows"
 3933      6E646C65 
 3933      64206578 
 3933      63657074 
 3933      696F6E20 
 3934              		.text
 3935 18ad 90       		.align 2
 3937              	_ZNK12_GLOBAL__N_146TestFixtureCtorThrowsFixtureCtorThrowsTestName7RunImplEv:
 3938              	.LFB1119:
 3939              		.loc 6 113 0
 3940              		.cfi_startproc
 3941              		.cfi_personality 0x3,__gxx_personality_v0
 3942              		.cfi_lsda 0x3,.LLSDA1119
 3943 18ae 55       		pushq	%rbp
 3944              		.cfi_def_cfa_offset 16
 3945              		.cfi_offset 6, -16
 3946 18af 4889E5   		movq	%rsp, %rbp
 3947              		.cfi_def_cfa_register 6
 3948 18b2 4154     		pushq	%r12
 3949 18b4 53       		pushq	%rbx
 3950 18b5 4881ECA0 		subq	$416, %rsp
 3950      010000
 3951              		.cfi_offset 12, -24
 3952              		.cfi_offset 3, -32
 3953 18bc 4889BD58 		movq	%rdi, -424(%rbp)
 3953      FEFFFF
 3954              	.LBB79:
 3955              		.loc 6 113 0
 3956 18c3 C6856FFE 		movb	$0, -401(%rbp)
 3956      FFFF00
 3957              	.LBB80:
 3958 18ca 488B8558 		movq	-424(%rbp), %rax
 3958      FEFFFF
 3959 18d1 488D5008 		leaq	8(%rax), %rdx
 3960 18d5 488D8580 		leaq	-384(%rbp), %rax
 3960      FEFFFF
 3961 18dc 4889D6   		movq	%rdx, %rsi
 3962 18df 4889C7   		movq	%rax, %rdi
 3963              	.LEHB90:
 3964 18e2 E85FFFFF 		call	_ZN12_GLOBAL__N_148FixtureCtorThrowsFixtureCtorThrowsTestNameHelperC1ERKN8UnitTest11TestDetai
 3964      FF
 3965              		.loc 6 113 0 is_stmt 0 discriminator 1
 3966 18e7 C6856FFE 		movb	$1, -401(%rbp)
 3966      FFFF01
 3967 18ee 488B8558 		movq	-424(%rbp), %rax
 3967      FEFFFF
 3968 18f5 488D5008 		leaq	8(%rax), %rdx
 3969 18f9 488D8580 		leaq	-384(%rbp), %rax
 3969      FEFFFF
 3970 1900 4889D6   		movq	%rdx, %rsi
 3971 1903 4889C7   		movq	%rax, %rdi
 3972 1906 E8C31E00 		call	_ZN8UnitTest11ExecuteTestIN12_GLOBAL__N_148FixtureCtorThrowsFixtureCtorThrowsTestNameHelperEE
 3972      00
 3973              	.LEHE90:
 3974              	.LBE80:
 3975              	.LBE79:
 3976              		.loc 6 113 0
 3977 190b E9470200 		jmp	.L214
 3977      00
 3978              	.L208:
 3979 1910 4883FA01 		cmpq	$1, %rdx
 3980 1914 745C     		je	.L199
 3981 1916 4883FA02 		cmpq	$2, %rdx
 3982 191a 0F84F400 		je	.L200
 3982      0000
 3983 1920 E9980100 		jmp	.L213
 3983      00
 3984              	.L209:
 3985 1925 4889C3   		movq	%rax, %rbx
 3986              	.LBB87:
 3987              	.LBB81:
 3988 1928 E8000000 		call	__cxa_end_catch
 3988      00
 3989 192d 4889D8   		movq	%rbx, %rax
 3990 1930 4889C7   		movq	%rax, %rdi
 3991              	.LEHB91:
 3992 1933 E8000000 		call	_Unwind_Resume
 3992      00
 3993              	.LEHE91:
 3994              	.L210:
 3995 1938 4889C3   		movq	%rax, %rbx
 3996              	.LBE81:
 3997              	.LBB82:
 3998              	.LBB83:
 3999 193b 488D8580 		leaq	-384(%rbp), %rax
 3999      FEFFFF
 4000 1942 4889C7   		movq	%rax, %rdi
 4001 1945 E8000000 		call	_ZN8UnitTest15MemoryOutStreamD1Ev
 4001      00
 4002 194a EB03     		jmp	.L203
 4003              	.L211:
 4004 194c 4889C3   		movq	%rax, %rbx
 4005              	.L203:
 4006              	.LBE83:
 4007 194f E8000000 		call	__cxa_end_catch
 4007      00
 4008 1954 4889D8   		movq	%rbx, %rax
 4009 1957 4889C7   		movq	%rax, %rdi
 4010              	.LEHB92:
 4011 195a E8000000 		call	_Unwind_Resume
 4011      00
 4012              	.LEHE92:
 4013              	.L212:
 4014 195f 4889C3   		movq	%rax, %rbx
 4015              	.LBE82:
 4016 1962 E8000000 		call	__cxa_end_catch
 4016      00
 4017 1967 4889D8   		movq	%rbx, %rax
 4018 196a 4889C7   		movq	%rax, %rdi
 4019              	.LEHB93:
 4020 196d E8000000 		call	_Unwind_Resume
 4020      00
 4021              	.LEHE93:
 4022              	.L199:
 4023              	.LBB85:
 4024 1972 4889C7   		movq	%rax, %rdi
 4025 1975 E8000000 		call	__cxa_begin_catch
 4025      00
 4026 197a 48898570 		movq	%rax, -400(%rbp)
 4026      FEFFFF
 4027 1981 488B8570 		movq	-400(%rbp), %rax
 4027      FEFFFF
 4028 1988 488B00   		movq	(%rax), %rax
 4029 198b 4883C010 		addq	$16, %rax
 4030 198f 488B00   		movq	(%rax), %rax
 4031 1992 488B9570 		movq	-400(%rbp), %rdx
 4031      FEFFFF
 4032 1999 4889D7   		movq	%rdx, %rdi
 4033 199c FFD0     		call	*%rax
 4034 199e 4889C3   		movq	%rax, %rbx
 4035 19a1 488B8570 		movq	-400(%rbp), %rax
 4035      FEFFFF
 4036 19a8 4889C7   		movq	%rax, %rdi
 4037              	.LEHB94:
 4038 19ab E8000000 		call	_ZNK8UnitTest15AssertException10LineNumberEv
 4038      00
 4039 19b0 4189C4   		movl	%eax, %r12d
 4040 19b3 488B8570 		movq	-400(%rbp), %rax
 4040      FEFFFF
 4041 19ba 4889C7   		movq	%rax, %rdi
 4042 19bd E8000000 		call	_ZNK8UnitTest15AssertException8FilenameEv
 4042      00
 4043              		.loc 6 113 0 discriminator 1
 4044 19c2 4889C1   		movq	%rax, %rcx
 4045 19c5 488B8558 		movq	-424(%rbp), %rax
 4045      FEFFFF
 4046 19cc 488B5008 		movq	8(%rax), %rdx
 4047 19d0 488B8558 		movq	-424(%rbp), %rax
 4047      FEFFFF
 4048 19d7 488B7010 		movq	16(%rax), %rsi
 4049 19db 488D8580 		leaq	-384(%rbp), %rax
 4049      FEFFFF
 4050 19e2 4589E0   		movl	%r12d, %r8d
 4051 19e5 4889C7   		movq	%rax, %rdi
 4052 19e8 E8000000 		call	_ZN8UnitTest11TestDetailsC1EPKcS2_S2_i
 4052      00
 4053              		.loc 6 113 0 discriminator 3
 4054 19ed E8000000 		call	_ZN8UnitTest11CurrentTest7ResultsEv
 4054      00
 4055 19f2 488B00   		movq	(%rax), %rax
 4056 19f5 488D8D80 		leaq	-384(%rbp), %rcx
 4056      FEFFFF
 4057 19fc 4889DA   		movq	%rbx, %rdx
 4058 19ff 4889CE   		movq	%rcx, %rsi
 4059 1a02 4889C7   		movq	%rax, %rdi
 4060 1a05 E8000000 		call	_ZN8UnitTest11TestResults13OnTestFailureERKNS_11TestDetailsEPKc
 4060      00
 4061              	.LEHE94:
 4062              		.loc 6 113 0 discriminator 1
 4063 1a0a E8000000 		call	__cxa_end_catch
 4063      00
 4064              	.LBE85:
 4065              	.LBE87:
 4066 1a0f E9430100 		jmp	.L214
 4066      00
 4067              	.L200:
 4068              	.LBB88:
 4069              	.LBB86:
 4070              		.loc 6 113 0
 4071 1a14 4889C7   		movq	%rax, %rdi
 4072 1a17 E8000000 		call	__cxa_begin_catch
 4072      00
 4073 1a1c 48898578 		movq	%rax, -392(%rbp)
 4073      FEFFFF
 4074              	.LBB84:
 4075 1a23 488D8580 		leaq	-384(%rbp), %rax
 4075      FEFFFF
 4076 1a2a 4889C7   		movq	%rax, %rdi
 4077              	.LEHB95:
 4078 1a2d E8000000 		call	_ZN8UnitTest15MemoryOutStreamC1Ev
 4078      00
 4079              	.LEHE95:
 4080              		.loc 6 113 0 discriminator 1
 4081 1a32 488B8578 		movq	-392(%rbp), %rax
 4081      FEFFFF
 4082 1a39 488B00   		movq	(%rax), %rax
 4083 1a3c 4883C010 		addq	$16, %rax
 4084 1a40 488B00   		movq	(%rax), %rax
 4085 1a43 488B9578 		movq	-392(%rbp), %rdx
 4085      FEFFFF
 4086 1a4a 4889D7   		movq	%rdx, %rdi
 4087 1a4d FFD0     		call	*%rax
 4088 1a4f 4889C3   		movq	%rax, %rbx
 4089 1a52 488D8580 		leaq	-384(%rbp), %rax
 4089      FEFFFF
 4090 1a59 BE000000 		movl	$.LC11, %esi
 4090      00
 4091 1a5e 4889C7   		movq	%rax, %rdi
 4092              	.LEHB96:
 4093 1a61 E8000000 		call	_ZStlsISt11char_traitsIcEERSt13basic_ostreamIcT_ES5_PKc
 4093      00
 4094 1a66 4889DE   		movq	%rbx, %rsi
 4095 1a69 4889C7   		movq	%rax, %rdi
 4096 1a6c E8000000 		call	_ZStlsISt11char_traitsIcEERSt13basic_ostreamIcT_ES5_PKc
 4096      00
 4097 1a71 488D8580 		leaq	-384(%rbp), %rax
 4097      FEFFFF
 4098 1a78 4889C7   		movq	%rax, %rdi
 4099 1a7b E8000000 		call	_ZNK8UnitTest15MemoryOutStream7GetTextEv
 4099      00
 4100 1a80 4889C3   		movq	%rax, %rbx
 4101 1a83 488B8558 		movq	-424(%rbp), %rax
 4101      FEFFFF
 4102 1a8a 4C8D6008 		leaq	8(%rax), %r12
 4103 1a8e E8000000 		call	_ZN8UnitTest11CurrentTest7ResultsEv
 4103      00
 4104 1a93 488B00   		movq	(%rax), %rax
 4105 1a96 4889DA   		movq	%rbx, %rdx
 4106 1a99 4C89E6   		movq	%r12, %rsi
 4107 1a9c 4889C7   		movq	%rax, %rdi
 4108 1a9f E8000000 		call	_ZN8UnitTest11TestResults13OnTestFailureERKNS_11TestDetailsEPKc
 4108      00
 4109              	.LEHE96:
 4110 1aa4 488D8580 		leaq	-384(%rbp), %rax
 4110      FEFFFF
 4111 1aab 4889C7   		movq	%rax, %rdi
 4112              	.LEHB97:
 4113 1aae E8000000 		call	_ZN8UnitTest15MemoryOutStreamD1Ev
 4113      00
 4114              	.LEHE97:
 4115              	.LBE84:
 4116              		.loc 6 113 0
 4117 1ab3 E8000000 		call	__cxa_end_catch
 4117      00
 4118              	.LBE86:
 4119              	.LBE88:
 4120 1ab8 E99A0000 		jmp	.L214
 4120      00
 4121              	.L213:
 4122              	.LBB89:
 4123 1abd 4889C7   		movq	%rax, %rdi
 4124 1ac0 E8000000 		call	__cxa_begin_catch
 4124      00
 4125 1ac5 80BD6FFE 		cmpb	$0, -401(%rbp)
 4125      FFFF00
 4126 1acc 7443     		je	.L206
 4127              		.loc 6 113 0 discriminator 1
 4128 1ace 488B8558 		movq	-424(%rbp), %rax
 4128      FEFFFF
 4129 1ad5 488D4808 		leaq	8(%rax), %rcx
 4130 1ad9 488D8580 		leaq	-384(%rbp), %rax
 4130      FEFFFF
 4131 1ae0 BA710000 		movl	$113, %edx
 4131      00
 4132 1ae5 4889CE   		movq	%rcx, %rsi
 4133 1ae8 4889C7   		movq	%rax, %rdi
 4134              	.LEHB98:
 4135 1aeb E8000000 		call	_ZN8UnitTest11TestDetailsC1ERKS0_i
 4135      00
 4136 1af0 E8000000 		call	_ZN8UnitTest11CurrentTest7ResultsEv
 4136      00
 4137 1af5 488B00   		movq	(%rax), %rax
 4138 1af8 488D8D80 		leaq	-384(%rbp), %rcx
 4138      FEFFFF
 4139 1aff BA000000 		movl	$.LC44, %edx
 4139      00
 4140 1b04 4889CE   		movq	%rcx, %rsi
 4141 1b07 4889C7   		movq	%rax, %rdi
 4142 1b0a E8000000 		call	_ZN8UnitTest11TestResults13OnTestFailureERKNS_11TestDetailsEPKc
 4142      00
 4143 1b0f EB41     		jmp	.L207
 4144              	.L206:
 4145              		.loc 6 113 0 discriminator 2
 4146 1b11 488B8558 		movq	-424(%rbp), %rax
 4146      FEFFFF
 4147 1b18 488D4808 		leaq	8(%rax), %rcx
 4148 1b1c 488D8580 		leaq	-384(%rbp), %rax
 4148      FEFFFF
 4149 1b23 BA710000 		movl	$113, %edx
 4149      00
 4150 1b28 4889CE   		movq	%rcx, %rsi
 4151 1b2b 4889C7   		movq	%rax, %rdi
 4152 1b2e E8000000 		call	_ZN8UnitTest11TestDetailsC1ERKS0_i
 4152      00
 4153              		.loc 6 113 0 discriminator 1
 4154 1b33 E8000000 		call	_ZN8UnitTest11CurrentTest7ResultsEv
 4154      00
 4155 1b38 488B00   		movq	(%rax), %rax
 4156 1b3b 488D8D80 		leaq	-384(%rbp), %rcx
 4156      FEFFFF
 4157 1b42 BA000000 		movl	$.LC45, %edx
 4157      00
 4158 1b47 4889CE   		movq	%rcx, %rsi
 4159 1b4a 4889C7   		movq	%rax, %rdi
 4160 1b4d E8000000 		call	_ZN8UnitTest11TestResults13OnTestFailureERKNS_11TestDetailsEPKc
 4160      00
 4161              	.LEHE98:
 4162              	.L207:
 4163              	.LEHB99:
 4164 1b52 E8000000 		call	__cxa_end_catch
 4164      00
 4165              	.LEHE99:
 4166              	.L214:
 4167              	.LBE89:
 4168              		.loc 6 113 0
 4169 1b57 90       		nop
 4170 1b58 4881C4A0 		addq	$416, %rsp
 4170      010000
 4171 1b5f 5B       		popq	%rbx
 4172 1b60 415C     		popq	%r12
 4173 1b62 5D       		popq	%rbp
 4174              		.cfi_def_cfa 7, 8
 4175 1b63 C3       		ret
 4176              		.cfi_endproc
 4177              	.LFE1119:
 4178              		.section	.gcc_except_table
 4179              		.align 4
 4180              	.LLSDA1119:
 4181 025c FF       		.byte	0xff
 4182 025d 03       		.byte	0x3
 4183 025e 49       		.uleb128 .LLSDATT1119-.LLSDATTD1119
 4184              	.LLSDATTD1119:
 4185 025f 01       		.byte	0x1
 4186 0260 35       		.uleb128 .LLSDACSE1119-.LLSDACSB1119
 4187              	.LLSDACSB1119:
 4188 0261 34       		.uleb128 .LEHB90-.LFB1119
 4189 0262 29       		.uleb128 .LEHE90-.LEHB90
 4190 0263 62       		.uleb128 .L208-.LFB1119
 4191 0264 05       		.uleb128 0x5
 4192 0265 8501     		.uleb128 .LEHB91-.LFB1119
 4193 0267 05       		.uleb128 .LEHE91-.LEHB91
 4194 0268 00       		.uleb128 0
 4195 0269 00       		.uleb128 0
 4196 026a AC01     		.uleb128 .LEHB92-.LFB1119
 4197 026c 05       		.uleb128 .LEHE92-.LEHB92
 4198 026d 00       		.uleb128 0
 4199 026e 00       		.uleb128 0
 4200 026f BF01     		.uleb128 .LEHB93-.LFB1119
 4201 0271 05       		.uleb128 .LEHE93-.LEHB93
 4202 0272 00       		.uleb128 0
 4203 0273 00       		.uleb128 0
 4204 0274 FD01     		.uleb128 .LEHB94-.LFB1119
 4205 0276 5F       		.uleb128 .LEHE94-.LEHB94
 4206 0277 77       		.uleb128 .L209-.LFB1119
 4207 0278 00       		.uleb128 0
 4208 0279 FF02     		.uleb128 .LEHB95-.LFB1119
 4209 027b 05       		.uleb128 .LEHE95-.LEHB95
 4210 027c 9E01     		.uleb128 .L211-.LFB1119
 4211 027e 00       		.uleb128 0
 4212 027f B303     		.uleb128 .LEHB96-.LFB1119
 4213 0281 43       		.uleb128 .LEHE96-.LEHB96
 4214 0282 8A01     		.uleb128 .L210-.LFB1119
 4215 0284 00       		.uleb128 0
 4216 0285 8004     		.uleb128 .LEHB97-.LFB1119
 4217 0287 05       		.uleb128 .LEHE97-.LEHB97
 4218 0288 9E01     		.uleb128 .L211-.LFB1119
 4219 028a 00       		.uleb128 0
 4220 028b BD04     		.uleb128 .LEHB98-.LFB1119
 4221 028d 67       		.uleb128 .LEHE98-.LEHB98
 4222 028e B101     		.uleb128 .L212-.LFB1119
 4223 0290 00       		.uleb128 0
 4224 0291 A405     		.uleb128 .LEHB99-.LFB1119
 4225 0293 05       		.uleb128 .LEHE99-.LEHB99
 4226 0294 00       		.uleb128 0
 4227 0295 00       		.uleb128 0
 4228              	.LLSDACSE1119:
 4229 0296 03       		.byte	0x3
 4230 0297 00       		.byte	0
 4231 0298 02       		.byte	0x2
 4232 0299 7D       		.byte	0x7d
 4233 029a 01       		.byte	0x1
 4234 029b 7D       		.byte	0x7d
 4235              		.align 4
 4236 029c 00000000 		.long	0
 4237              	
 4238 02a0 00000000 		.long	_ZTISt9exception
 4239 02a4 00000000 		.long	_ZTIN8UnitTest15AssertExceptionE
 4240              	.LLSDATT1119:
 4241              		.text
 4243              		.align 2
 4245              	_ZN12_GLOBAL__N_148FixtureCtorThrowsFixtureCtorThrowsTestNameHelper7RunImplEv:
 4246              	.LFB1120:
 114:TestTestMacros.cpp **** {
 4247              		.loc 6 114 0 is_stmt 1
 4248              		.cfi_startproc
 4249 1b64 55       		pushq	%rbp
 4250              		.cfi_def_cfa_offset 16
 4251              		.cfi_offset 6, -16
 4252 1b65 4889E5   		movq	%rsp, %rbp
 4253              		.cfi_def_cfa_register 6
 4254 1b68 48897DF8 		movq	%rdi, -8(%rbp)
 115:TestTestMacros.cpp **** }
 4255              		.loc 6 115 0
 4256 1b6c 5D       		popq	%rbp
 4257              		.cfi_def_cfa 7, 8
 4258 1b6d C3       		ret
 4259              		.cfi_endproc
 4260              	.LFE1120:
 4262              		.section	.rodata
 4263 0819 00000000 		.align 8
 4263      000000
 4264              	.LC46:
 4265 0820 46697874 		.string	"FixturesWithThrowingCtorsAreFailures"
 4265      75726573 
 4265      57697468 
 4265      5468726F 
 4265      77696E67 
 4266              		.text
 4267              		.align 2
 4269              	_ZN12_GLOBAL__N_140TestFixturesWithThrowingCtorsAreFailuresC2Ev:
 4270              	.LFB1122:
 116:TestTestMacros.cpp **** 
 117:TestTestMacros.cpp **** TEST(FixturesWithThrowingCtorsAreFailures)
 4271              		.loc 6 117 0
 4272              		.cfi_startproc
 4273 1b6e 55       		pushq	%rbp
 4274              		.cfi_def_cfa_offset 16
 4275              		.cfi_offset 6, -16
 4276 1b6f 4889E5   		movq	%rsp, %rbp
 4277              		.cfi_def_cfa_register 6
 4278 1b72 4883EC10 		subq	$16, %rsp
 4279 1b76 48897DF8 		movq	%rdi, -8(%rbp)
 4280              	.LBB90:
 4281              		.loc 6 117 0
 4282 1b7a E8000000 		call	_ZN13UnitTestSuite12GetSuiteNameEv
 4282      00
 4283 1b7f 4889C2   		movq	%rax, %rdx
 4284 1b82 488B45F8 		movq	-8(%rbp), %rax
 4285 1b86 41B87500 		movl	$117, %r8d
 4285      0000
 4286 1b8c B9000000 		movl	$.LC2, %ecx
 4286      00
 4287 1b91 BE000000 		movl	$.LC46, %esi
 4287      00
 4288 1b96 4889C7   		movq	%rax, %rdi
 4289 1b99 E8000000 		call	_ZN8UnitTest4TestC2EPKcS2_S2_i
 4289      00
 4290 1b9e 488B45F8 		movq	-8(%rbp), %rax
 4291 1ba2 48C70000 		movq	$_ZTVN12_GLOBAL__N_140TestFixturesWithThrowingCtorsAreFailuresE+16, (%rax)
 4291      000000
 4292              	.LBE90:
 4293 1ba9 C9       		leave
 4294              		.cfi_def_cfa 7, 8
 4295 1baa C3       		ret
 4296              		.cfi_endproc
 4297              	.LFE1122:
 4299              		.set	_ZN12_GLOBAL__N_140TestFixturesWithThrowingCtorsAreFailuresC1Ev,_ZN12_GLOBAL__N_140TestFixtur
 4300              		.local	_ZN12_GLOBAL__N_148testFixturesWithThrowingCtorsAreFailuresInstanceE
 4301              		.comm	_ZN12_GLOBAL__N_148testFixturesWithThrowingCtorsAreFailuresInstanceE,56,32
 4302              		.local	_ZN12_GLOBAL__N_141adderFixturesWithThrowingCtorsAreFailuresE
 4303              		.comm	_ZN12_GLOBAL__N_141adderFixturesWithThrowingCtorsAreFailuresE,1,1
 4304              		.section	.rodata
 4305 0845 000000   		.align 8
 4306              	.LC47:
 4307 0848 7468726F 		.string	"throwingFixtureTestList1.GetHead() != NULL"
 4307      77696E67 
 4307      46697874 
 4307      75726554 
 4307      6573744C 
 4308              	.LC48:
 4309 0873 7768696C 		.string	"while constructing fixture"
 4309      6520636F 
 4309      6E737472 
 4309      75637469 
 4309      6E672066 
 4310 088e 0000     		.align 8
 4311              	.LC49:
 4312 0890 73747273 		.string	"strstr(reporter.lastFailedMessage, \"while constructing fixture\")"
 4312      74722872 
 4312      65706F72 
 4312      7465722E 
 4312      6C617374 
 4313 08d1 00000000 		.align 8
 4313      000000
 4314              	.LC50:
 4315 08d8 556E6861 		.string	"Unhandled exception in CHECK(throwingFixtureTestList1.GetHead() != NULL)"
 4315      6E646C65 
 4315      64206578 
 4315      63657074 
 4315      696F6E20 
 4316 0921 00000000 		.align 8
 4316      000000
 4317              	.LC51:
 4318 0928 556E6861 		.string	"Unhandled exception in CHECK_EQUAL(1, failureCount)"
 4318      6E646C65 
 4318      64206578 
 4318      63657074 
 4318      696F6E20 
 4319 095c 00000000 		.align 8
 4320              	.LC52:
 4321 0960 556E6861 		.string	"Unhandled exception in CHECK(strstr(reporter.lastFailedMessage, \"while constructing fixt
 4321      6E646C65 
 4321      64206578 
 4321      63657074 
 4321      696F6E20 
 4322              		.text
 4323 1bab 90       		.align 2
 4325              	_ZNK12_GLOBAL__N_140TestFixturesWithThrowingCtorsAreFailures7RunImplEv:
 4326              	.LFB1124:
 118:TestTestMacros.cpp **** {
 4327              		.loc 6 118 0
 4328              		.cfi_startproc
 4329              		.cfi_personality 0x3,__gxx_personality_v0
 4330              		.cfi_lsda 0x3,.LLSDA1124
 4331 1bac 55       		pushq	%rbp
 4332              		.cfi_def_cfa_offset 16
 4333              		.cfi_offset 6, -16
 4334 1bad 4889E5   		movq	%rsp, %rbp
 4335              		.cfi_def_cfa_register 6
 4336 1bb0 53       		pushq	%rbx
 4337 1bb1 4881ECA8 		subq	$2216, %rsp
 4337      080000
 4338              		.cfi_offset 3, -24
 4339 1bb8 4889BD58 		movq	%rdi, -2216(%rbp)
 4339      F7FFFF
 4340              		.loc 6 118 0
 4341 1bbf 64488B04 		movq	%fs:40, %rax
 4341      25280000 
 4341      00
 4342 1bc8 488945E8 		movq	%rax, -24(%rbp)
 4343 1bcc 31C0     		xorl	%eax, %eax
 4344              	.LBB91:
 119:TestTestMacros.cpp **** 	CHECK(throwingFixtureTestList1.GetHead() != NULL);
 4345              		.loc 6 119 0
 4346 1bce BF000000 		movl	$_ZN12_GLOBAL__N_124throwingFixtureTestList1E, %edi
 4346      00
 4347              	.LEHB100:
 4348 1bd3 E8000000 		call	_ZNK8UnitTest8TestList7GetHeadEv
 4348      00
 4349 1bd8 4885C0   		testq	%rax, %rax
 4350 1bdb 0F95C0   		setne	%al
 4351 1bde 0FB6C0   		movzbl	%al, %eax
 4352 1be1 89C7     		movl	%eax, %edi
 4353 1be3 E8000000 		call	_ZN8UnitTest5CheckIbEEbT_
 4353      00
 4354 1be8 83F001   		xorl	$1, %eax
 4355 1beb 84C0     		testb	%al, %al
 4356 1bed 743E     		je	.L218
 4357              		.loc 6 119 0 is_stmt 0 discriminator 1
 4358 1bef E8000000 		call	_ZN8UnitTest11CurrentTest7DetailsEv
 4358      00
 4359 1bf4 488B08   		movq	(%rax), %rcx
 4360 1bf7 488D8590 		leaq	-2160(%rbp), %rax
 4360      F7FFFF
 4361 1bfe BA770000 		movl	$119, %edx
 4361      00
 4362 1c03 4889CE   		movq	%rcx, %rsi
 4363 1c06 4889C7   		movq	%rax, %rdi
 4364 1c09 E8000000 		call	_ZN8UnitTest11TestDetailsC1ERKS0_i
 4364      00
 4365 1c0e E8000000 		call	_ZN8UnitTest11CurrentTest7ResultsEv
 4365      00
 4366 1c13 488B00   		movq	(%rax), %rax
 4367 1c16 488D8D90 		leaq	-2160(%rbp), %rcx
 4367      F7FFFF
 4368 1c1d BA000000 		movl	$.LC47, %edx
 4368      00
 4369 1c22 4889CE   		movq	%rcx, %rsi
 4370 1c25 4889C7   		movq	%rax, %rdi
 4371 1c28 E8000000 		call	_ZN8UnitTest11TestResults13OnTestFailureERKNS_11TestDetailsEPKc
 4371      00
 4372              	.LEHE100:
 4373              	.L218:
 120:TestTestMacros.cpp **** 	RecordingReporter reporter;
 4374              		.loc 6 120 0 is_stmt 1
 4375 1c2d 488D85B0 		leaq	-2128(%rbp), %rax
 4375      F7FFFF
 4376 1c34 4889C7   		movq	%rax, %rdi
 4377 1c37 E8000000 		call	_ZN17RecordingReporterC1Ev
 4377      00
 121:TestTestMacros.cpp **** 	TestResults result(&reporter);
 4378              		.loc 6 121 0
 4379 1c3c 488D95B0 		leaq	-2128(%rbp), %rdx
 4379      F7FFFF
 4380 1c43 488D8570 		leaq	-2192(%rbp), %rax
 4380      F7FFFF
 4381 1c4a 4889D6   		movq	%rdx, %rsi
 4382 1c4d 4889C7   		movq	%rax, %rdi
 4383              	.LEHB101:
 4384 1c50 E8000000 		call	_ZN8UnitTest11TestResultsC1EPNS_12TestReporterE
 4384      00
 4385              	.LBB92:
 122:TestTestMacros.cpp **** 	{
 123:TestTestMacros.cpp **** 		ScopedCurrentTest scopedResult(result);
 4386              		.loc 6 123 0
 4387 1c55 488D8D70 		leaq	-2192(%rbp), %rcx
 4387      F7FFFF
 4388 1c5c 488D8590 		leaq	-2160(%rbp), %rax
 4388      F7FFFF
 4389 1c63 BA000000 		movl	$0, %edx
 4389      00
 4390 1c68 4889CE   		movq	%rcx, %rsi
 4391 1c6b 4889C7   		movq	%rax, %rdi
 4392 1c6e E8000000 		call	_ZN17ScopedCurrentTestC1ERN8UnitTest11TestResultsEPKNS0_11TestDetailsE
 4392      00
 4393              	.LEHE101:
 124:TestTestMacros.cpp **** 		throwingFixtureTestList1.GetHead()->Run();
 4394              		.loc 6 124 0
 4395 1c73 BF000000 		movl	$_ZN12_GLOBAL__N_124throwingFixtureTestList1E, %edi
 4395      00
 4396              	.LEHB102:
 4397 1c78 E8000000 		call	_ZNK8UnitTest8TestList7GetHeadEv
 4397      00
 4398 1c7d 4889C7   		movq	%rax, %rdi
 4399 1c80 E8000000 		call	_ZN8UnitTest4Test3RunEv
 4399      00
 4400              	.LEHE102:
 4401              		.loc 6 124 0 is_stmt 0 discriminator 1
 4402 1c85 488D8590 		leaq	-2160(%rbp), %rax
 4402      F7FFFF
 4403 1c8c 4889C7   		movq	%rax, %rdi
 4404              	.LEHB103:
 4405 1c8f E8000000 		call	_ZN17ScopedCurrentTestD1Ev
 4405      00
 4406              	.LBE92:
 125:TestTestMacros.cpp **** 	}
 126:TestTestMacros.cpp **** 
 127:TestTestMacros.cpp **** 	int const failureCount = result.GetFailedTestCount();
 4407              		.loc 6 127 0 is_stmt 1
 4408 1c94 488D8570 		leaq	-2192(%rbp), %rax
 4408      F7FFFF
 4409 1c9b 4889C7   		movq	%rax, %rdi
 4410 1c9e E8000000 		call	_ZNK8UnitTest11TestResults18GetFailedTestCountEv
 4410      00
 4411              	.LEHE103:
 4412 1ca3 898568F7 		movl	%eax, -2200(%rbp)
 4412      FFFF
 4413              	.LEHB104:
 128:TestTestMacros.cpp **** 	CHECK_EQUAL(1, failureCount);
 4414              		.loc 6 128 0
 4415 1ca9 E8000000 		call	_ZN8UnitTest11CurrentTest7DetailsEv
 4415      00
 4416              		.loc 6 128 0 is_stmt 0 discriminator 1
 4417 1cae 488B08   		movq	(%rax), %rcx
 4418 1cb1 488D8590 		leaq	-2160(%rbp), %rax
 4418      F7FFFF
 4419 1cb8 BA800000 		movl	$128, %edx
 4419      00
 4420 1cbd 4889CE   		movq	%rcx, %rsi
 4421 1cc0 4889C7   		movq	%rax, %rdi
 4422 1cc3 E8000000 		call	_ZN8UnitTest11TestDetailsC1ERKS0_i
 4422      00
 4423 1cc8 C7856CF7 		movl	$1, -2196(%rbp)
 4423      FFFF0100 
 4423      0000
 4424 1cd2 E8000000 		call	_ZN8UnitTest11CurrentTest7ResultsEv
 4424      00
 4425 1cd7 488B00   		movq	(%rax), %rax
 4426 1cda 488D8D90 		leaq	-2160(%rbp), %rcx
 4426      F7FFFF
 4427 1ce1 488D9568 		leaq	-2200(%rbp), %rdx
 4427      F7FFFF
 4428 1ce8 488DB56C 		leaq	-2196(%rbp), %rsi
 4428      F7FFFF
 4429 1cef 4889C7   		movq	%rax, %rdi
 4430 1cf2 E8000000 		call	_ZN8UnitTest10CheckEqualIiiEEvRNS_11TestResultsERKT_RKT0_RKNS_11TestDetailsE
 4430      00
 4431              	.LEHE104:
 4432              	.L226:
 129:TestTestMacros.cpp **** 	CHECK(strstr(reporter.lastFailedMessage, "while constructing fixture"));
 4433              		.loc 6 129 0 is_stmt 1
 4434 1cf7 488D85B0 		leaq	-2128(%rbp), %rax
 4434      F7FFFF
 4435 1cfe 48051405 		addq	$1300, %rax
 4435      0000
 4436 1d04 BE000000 		movl	$.LC48, %esi
 4436      00
 4437 1d09 4889C7   		movq	%rax, %rdi
 4438 1d0c E8000000 		call	strstr
 4438      00
 4439 1d11 4889C7   		movq	%rax, %rdi
 4440 1d14 E8000000 		call	_ZN8UnitTest5CheckIPcEEbT_
 4440      00
 4441 1d19 83F001   		xorl	$1, %eax
 4442 1d1c 84C0     		testb	%al, %al
 4443 1d1e 743E     		je	.L219
 4444              	.LEHB105:
 4445              		.loc 6 129 0 is_stmt 0 discriminator 1
 4446 1d20 E8000000 		call	_ZN8UnitTest11CurrentTest7DetailsEv
 4446      00
 4447 1d25 488B08   		movq	(%rax), %rcx
 4448 1d28 488D8590 		leaq	-2160(%rbp), %rax
 4448      F7FFFF
 4449 1d2f BA810000 		movl	$129, %edx
 4449      00
 4450 1d34 4889CE   		movq	%rcx, %rsi
 4451 1d37 4889C7   		movq	%rax, %rdi
 4452 1d3a E8000000 		call	_ZN8UnitTest11TestDetailsC1ERKS0_i
 4452      00
 4453 1d3f E8000000 		call	_ZN8UnitTest11CurrentTest7ResultsEv
 4453      00
 4454 1d44 488B00   		movq	(%rax), %rax
 4455 1d47 488D8D90 		leaq	-2160(%rbp), %rcx
 4455      F7FFFF
 4456 1d4e BA000000 		movl	$.LC49, %edx
 4456      00
 4457 1d53 4889CE   		movq	%rcx, %rsi
 4458 1d56 4889C7   		movq	%rax, %rdi
 4459 1d59 E8000000 		call	_ZN8UnitTest11TestResults13OnTestFailureERKNS_11TestDetailsEPKc
 4459      00
 4460              	.LEHE105:
 4461              	.L219:
 4462              		.loc 6 129 0 discriminator 2
 4463 1d5e 488D85B0 		leaq	-2128(%rbp), %rax
 4463      F7FFFF
 4464 1d65 4889C7   		movq	%rax, %rdi
 4465              	.LEHB106:
 4466 1d68 E8000000 		call	_ZN17RecordingReporterD1Ev
 4466      00
 4467              	.LEHE106:
 4468              	.LBE91:
 130:TestTestMacros.cpp **** }
 4469              		.loc 6 130 0 is_stmt 1 discriminator 2
 4470 1d6d 488B45E8 		movq	-24(%rbp), %rax
 4471 1d71 64483304 		xorq	%fs:40, %rax
 4471      25280000 
 4471      00
 4472 1d7a 0F845801 		je	.L229
 4472      0000
 4473 1d80 E94E0100 		jmp	.L238
 4473      00
 4474              	.L231:
 4475 1d85 4889C3   		movq	%rax, %rbx
 4476              	.LBB94:
 119:TestTestMacros.cpp **** 	RecordingReporter reporter;
 4477              		.loc 6 119 0
 4478 1d88 E8000000 		call	__cxa_end_catch
 4478      00
 4479 1d8d 4889D8   		movq	%rbx, %rax
 4480 1d90 4889C7   		movq	%rax, %rdi
 4481              	.LEHB107:
 4482 1d93 E8000000 		call	_Unwind_Resume
 4482      00
 4483              	.LEHE107:
 4484              	.L230:
 4485 1d98 4889C7   		movq	%rax, %rdi
 4486 1d9b E8000000 		call	__cxa_begin_catch
 4486      00
 4487              	.LEHB108:
 4488 1da0 E8000000 		call	_ZN8UnitTest11CurrentTest7DetailsEv
 4488      00
 4489 1da5 488B08   		movq	(%rax), %rcx
 4490 1da8 488D8590 		leaq	-2160(%rbp), %rax
 4490      F7FFFF
 4491 1daf BA770000 		movl	$119, %edx
 4491      00
 4492 1db4 4889CE   		movq	%rcx, %rsi
 4493 1db7 4889C7   		movq	%rax, %rdi
 4494 1dba E8000000 		call	_ZN8UnitTest11TestDetailsC1ERKS0_i
 4494      00
 119:TestTestMacros.cpp **** 	RecordingReporter reporter;
 4495              		.loc 6 119 0 is_stmt 0 discriminator 1
 4496 1dbf E8000000 		call	_ZN8UnitTest11CurrentTest7ResultsEv
 4496      00
 4497 1dc4 488B00   		movq	(%rax), %rax
 4498 1dc7 488D8D90 		leaq	-2160(%rbp), %rcx
 4498      F7FFFF
 4499 1dce BA000000 		movl	$.LC50, %edx
 4499      00
 4500 1dd3 4889CE   		movq	%rcx, %rsi
 4501 1dd6 4889C7   		movq	%rax, %rdi
 4502 1dd9 E8000000 		call	_ZN8UnitTest11TestResults13OnTestFailureERKNS_11TestDetailsEPKc
 4502      00
 4503              	.LEHE108:
 4504              	.LEHB109:
 4505 1dde E8000000 		call	__cxa_end_catch
 4505      00
 4506              	.LEHE109:
 4507 1de3 E945FEFF 		jmp	.L218
 4507      FF
 4508              	.L233:
 4509 1de8 4889C3   		movq	%rax, %rbx
 4510              	.LBB93:
 124:TestTestMacros.cpp **** 	}
 4511              		.loc 6 124 0 is_stmt 1
 4512 1deb 488D8590 		leaq	-2160(%rbp), %rax
 4512      F7FFFF
 4513 1df2 4889C7   		movq	%rax, %rdi
 4514 1df5 E8000000 		call	_ZN17ScopedCurrentTestD1Ev
 4514      00
 4515 1dfa E9BA0000 		jmp	.L223
 4515      00
 4516              	.L235:
 4517 1dff 4889C3   		movq	%rax, %rbx
 4518              	.LBE93:
 128:TestTestMacros.cpp **** 	CHECK(strstr(reporter.lastFailedMessage, "while constructing fixture"));
 4519              		.loc 6 128 0
 4520 1e02 E8000000 		call	__cxa_end_catch
 4520      00
 4521 1e07 E9AD0000 		jmp	.L223
 4521      00
 4522              	.L234:
 4523 1e0c 4889C7   		movq	%rax, %rdi
 4524 1e0f E8000000 		call	__cxa_begin_catch
 4524      00
 4525              	.LEHB110:
 4526 1e14 E8000000 		call	_ZN8UnitTest11CurrentTest7DetailsEv
 4526      00
 4527 1e19 488B08   		movq	(%rax), %rcx
 4528 1e1c 488D8590 		leaq	-2160(%rbp), %rax
 4528      F7FFFF
 4529 1e23 BA800000 		movl	$128, %edx
 4529      00
 4530 1e28 4889CE   		movq	%rcx, %rsi
 4531 1e2b 4889C7   		movq	%rax, %rdi
 4532 1e2e E8000000 		call	_ZN8UnitTest11TestDetailsC1ERKS0_i
 4532      00
 128:TestTestMacros.cpp **** 	CHECK(strstr(reporter.lastFailedMessage, "while constructing fixture"));
 4533              		.loc 6 128 0 is_stmt 0 discriminator 1
 4534 1e33 E8000000 		call	_ZN8UnitTest11CurrentTest7ResultsEv
 4534      00
 4535 1e38 488B00   		movq	(%rax), %rax
 4536 1e3b 488D8D90 		leaq	-2160(%rbp), %rcx
 4536      F7FFFF
 4537 1e42 BA000000 		movl	$.LC51, %edx
 4537      00
 4538 1e47 4889CE   		movq	%rcx, %rsi
 4539 1e4a 4889C7   		movq	%rax, %rdi
 4540 1e4d E8000000 		call	_ZN8UnitTest11TestResults13OnTestFailureERKNS_11TestDetailsEPKc
 4540      00
 4541              	.LEHE110:
 4542              	.LEHB111:
 4543 1e52 E8000000 		call	__cxa_end_catch
 4543      00
 4544              	.LEHE111:
 128:TestTestMacros.cpp **** 	CHECK(strstr(reporter.lastFailedMessage, "while constructing fixture"));
 4545              		.loc 6 128 0
 4546 1e57 E99BFEFF 		jmp	.L226
 4546      FF
 4547              	.L237:
 4548 1e5c 4889C3   		movq	%rax, %rbx
 129:TestTestMacros.cpp **** }
 4549              		.loc 6 129 0 is_stmt 1
 4550 1e5f E8000000 		call	__cxa_end_catch
 4550      00
 4551 1e64 EB53     		jmp	.L223
 4552              	.L236:
 4553 1e66 4889C7   		movq	%rax, %rdi
 4554 1e69 E8000000 		call	__cxa_begin_catch
 4554      00
 4555              	.LEHB112:
 4556 1e6e E8000000 		call	_ZN8UnitTest11CurrentTest7DetailsEv
 4556      00
 4557 1e73 488B08   		movq	(%rax), %rcx
 4558 1e76 488D8590 		leaq	-2160(%rbp), %rax
 4558      F7FFFF
 4559 1e7d BA810000 		movl	$129, %edx
 4559      00
 4560 1e82 4889CE   		movq	%rcx, %rsi
 4561 1e85 4889C7   		movq	%rax, %rdi
 4562 1e88 E8000000 		call	_ZN8UnitTest11TestDetailsC1ERKS0_i
 4562      00
 129:TestTestMacros.cpp **** }
 4563              		.loc 6 129 0 is_stmt 0 discriminator 1
 4564 1e8d E8000000 		call	_ZN8UnitTest11CurrentTest7ResultsEv
 4564      00
 4565 1e92 488B00   		movq	(%rax), %rax
 4566 1e95 488D8D90 		leaq	-2160(%rbp), %rcx
 4566      F7FFFF
 4567 1e9c BA000000 		movl	$.LC52, %edx
 4567      00
 4568 1ea1 4889CE   		movq	%rcx, %rsi
 4569 1ea4 4889C7   		movq	%rax, %rdi
 4570 1ea7 E8000000 		call	_ZN8UnitTest11TestResults13OnTestFailureERKNS_11TestDetailsEPKc
 4570      00
 4571              	.LEHE112:
 4572              	.LEHB113:
 4573 1eac E8000000 		call	__cxa_end_catch
 4573      00
 4574              	.LEHE113:
 129:TestTestMacros.cpp **** }
 4575              		.loc 6 129 0
 4576 1eb1 E9A8FEFF 		jmp	.L219
 4576      FF
 4577              	.L232:
 4578 1eb6 4889C3   		movq	%rax, %rbx
 4579              	.L223:
 4580 1eb9 488D85B0 		leaq	-2128(%rbp), %rax
 4580      F7FFFF
 4581 1ec0 4889C7   		movq	%rax, %rdi
 4582 1ec3 E8000000 		call	_ZN17RecordingReporterD1Ev
 4582      00
 4583 1ec8 4889D8   		movq	%rbx, %rax
 4584 1ecb 4889C7   		movq	%rax, %rdi
 4585              	.LEHB114:
 4586 1ece E8000000 		call	_Unwind_Resume
 4586      00
 4587              	.LEHE114:
 4588              	.L238:
 4589              	.LBE94:
 4590              		.loc 6 130 0 is_stmt 1
 4591 1ed3 E8000000 		call	__stack_chk_fail
 4591      00
 4592              	.L229:
 4593 1ed8 4881C4A8 		addq	$2216, %rsp
 4593      080000
 4594 1edf 5B       		popq	%rbx
 4595 1ee0 5D       		popq	%rbp
 4596              		.cfi_def_cfa 7, 8
 4597 1ee1 C3       		ret
 4598              		.cfi_endproc
 4599              	.LFE1124:
 4600              		.section	.gcc_except_table
 4601              		.align 4
 4602              	.LLSDA1124:
 4603 02a8 FF       		.byte	0xff
 4604 02a9 03       		.byte	0x3
 4605 02aa 5D       		.uleb128 .LLSDATT1124-.LLSDATTD1124
 4606              	.LLSDATTD1124:
 4607 02ab 01       		.byte	0x1
 4608 02ac 55       		.uleb128 .LLSDACSE1124-.LLSDACSB1124
 4609              	.LLSDACSB1124:
 4610 02ad 27       		.uleb128 .LEHB100-.LFB1124
 4611 02ae 5A       		.uleb128 .LEHE100-.LEHB100
 4612 02af EC03     		.uleb128 .L230-.LFB1124
 4613 02b1 01       		.uleb128 0x1
 4614 02b2 A401     		.uleb128 .LEHB101-.LFB1124
 4615 02b4 23       		.uleb128 .LEHE101-.LEHB101
 4616 02b5 8A06     		.uleb128 .L232-.LFB1124
 4617 02b7 00       		.uleb128 0
 4618 02b8 CC01     		.uleb128 .LEHB102-.LFB1124
 4619 02ba 0D       		.uleb128 .LEHE102-.LEHB102
 4620 02bb BC04     		.uleb128 .L233-.LFB1124
 4621 02bd 00       		.uleb128 0
 4622 02be E301     		.uleb128 .LEHB103-.LFB1124
 4623 02c0 14       		.uleb128 .LEHE103-.LEHB103
 4624 02c1 8A06     		.uleb128 .L232-.LFB1124
 4625 02c3 00       		.uleb128 0
 4626 02c4 FD01     		.uleb128 .LEHB104-.LFB1124
 4627 02c6 4E       		.uleb128 .LEHE104-.LEHB104
 4628 02c7 E004     		.uleb128 .L234-.LFB1124
 4629 02c9 01       		.uleb128 0x1
 4630 02ca F402     		.uleb128 .LEHB105-.LFB1124
 4631 02cc 3E       		.uleb128 .LEHE105-.LEHB105
 4632 02cd BA05     		.uleb128 .L236-.LFB1124
 4633 02cf 01       		.uleb128 0x1
 4634 02d0 BC03     		.uleb128 .LEHB106-.LFB1124
 4635 02d2 05       		.uleb128 .LEHE106-.LEHB106
 4636 02d3 00       		.uleb128 0
 4637 02d4 00       		.uleb128 0
 4638 02d5 E703     		.uleb128 .LEHB107-.LFB1124
 4639 02d7 05       		.uleb128 .LEHE107-.LEHB107
 4640 02d8 00       		.uleb128 0
 4641 02d9 00       		.uleb128 0
 4642 02da F403     		.uleb128 .LEHB108-.LFB1124
 4643 02dc 3E       		.uleb128 .LEHE108-.LEHB108
 4644 02dd D903     		.uleb128 .L231-.LFB1124
 4645 02df 00       		.uleb128 0
 4646 02e0 B204     		.uleb128 .LEHB109-.LFB1124
 4647 02e2 05       		.uleb128 .LEHE109-.LEHB109
 4648 02e3 00       		.uleb128 0
 4649 02e4 00       		.uleb128 0
 4650 02e5 E804     		.uleb128 .LEHB110-.LFB1124
 4651 02e7 3E       		.uleb128 .LEHE110-.LEHB110
 4652 02e8 D304     		.uleb128 .L235-.LFB1124
 4653 02ea 00       		.uleb128 0
 4654 02eb A605     		.uleb128 .LEHB111-.LFB1124
 4655 02ed 05       		.uleb128 .LEHE111-.LEHB111
 4656 02ee 8A06     		.uleb128 .L232-.LFB1124
 4657 02f0 00       		.uleb128 0
 4658 02f1 C205     		.uleb128 .LEHB112-.LFB1124
 4659 02f3 3E       		.uleb128 .LEHE112-.LEHB112
 4660 02f4 B005     		.uleb128 .L237-.LFB1124
 4661 02f6 00       		.uleb128 0
 4662 02f7 8006     		.uleb128 .LEHB113-.LFB1124
 4663 02f9 05       		.uleb128 .LEHE113-.LEHB113
 4664 02fa 8A06     		.uleb128 .L232-.LFB1124
 4665 02fc 00       		.uleb128 0
 4666 02fd A206     		.uleb128 .LEHB114-.LFB1124
 4667 02ff 05       		.uleb128 .LEHE114-.LEHB114
 4668 0300 00       		.uleb128 0
 4669 0301 00       		.uleb128 0
 4670              	.LLSDACSE1124:
 4671 0302 01       		.byte	0x1
 4672 0303 00       		.byte	0
 4673              		.align 4
 4674 0304 00000000 		.long	0
 4675              	
 4676              	.LLSDATT1124:
 4677              		.text
 4679              		.align 2
 4681              	_ZN12_GLOBAL__N_117FixtureDtorThrowsD2Ev:
 4682              	.LFB1126:
 131:TestTestMacros.cpp **** 
 132:TestTestMacros.cpp **** struct FixtureDtorThrows
 133:TestTestMacros.cpp **** {
 134:TestTestMacros.cpp **** 	~FixtureDtorThrows() { throw "exception"; }
 4683              		.loc 6 134 0
 4684              		.cfi_startproc
 4685 1ee2 55       		pushq	%rbp
 4686              		.cfi_def_cfa_offset 16
 4687              		.cfi_offset 6, -16
 4688 1ee3 4889E5   		movq	%rsp, %rbp
 4689              		.cfi_def_cfa_register 6
 4690 1ee6 4883EC10 		subq	$16, %rsp
 4691 1eea 48897DF8 		movq	%rdi, -8(%rbp)
 4692              	.LBB95:
 4693              		.loc 6 134 0
 4694 1eee BF080000 		movl	$8, %edi
 4694      00
 4695 1ef3 E8000000 		call	__cxa_allocate_exception
 4695      00
 4696 1ef8 48C70000 		movq	$.LC42, (%rax)
 4696      000000
 4697 1eff BA000000 		movl	$0, %edx
 4697      00
 4698 1f04 BE000000 		movl	$_ZTIPKc, %esi
 4698      00
 4699 1f09 4889C7   		movq	%rax, %rdi
 4700 1f0c E8000000 		call	__cxa_throw
 4700      00
 4701              	.LBE95:
 4702              		.cfi_endproc
 4703              	.LFE1126:
 4705              		.local	_ZN12_GLOBAL__N_124throwingFixtureTestList2E
 4706              		.comm	_ZN12_GLOBAL__N_124throwingFixtureTestList2E,16,16
 4707 1f11 90       		.align 2
 4709              	_ZN12_GLOBAL__N_117FixtureDtorThrowsC2Ev:
 4710              	.LFB1130:
 132:TestTestMacros.cpp **** {
 4711              		.loc 6 132 0
 4712              		.cfi_startproc
 4713 1f12 55       		pushq	%rbp
 4714              		.cfi_def_cfa_offset 16
 4715              		.cfi_offset 6, -16
 4716 1f13 4889E5   		movq	%rsp, %rbp
 4717              		.cfi_def_cfa_register 6
 4718 1f16 48897DF8 		movq	%rdi, -8(%rbp)
 132:TestTestMacros.cpp **** {
 4719              		.loc 6 132 0
 4720 1f1a 5D       		popq	%rbp
 4721              		.cfi_def_cfa 7, 8
 4722 1f1b C3       		ret
 4723              		.cfi_endproc
 4724              	.LFE1130:
 4726              		.align 2
 4728              	_ZN12_GLOBAL__N_148FixtureDtorThrowsFixtureDtorThrowsTestNameHelperC2ERKN8UnitTest11TestDetailsE:
 4729              	.LFB1132:
 135:TestTestMacros.cpp **** };
 136:TestTestMacros.cpp **** 
 137:TestTestMacros.cpp **** TestList throwingFixtureTestList2;
 138:TestTestMacros.cpp **** TEST_FIXTURE_EX(FixtureDtorThrows, FixtureDtorThrowsTestName, throwingFixtureTestList2)
 4730              		.loc 6 138 0
 4731              		.cfi_startproc
 4732 1f1c 55       		pushq	%rbp
 4733              		.cfi_def_cfa_offset 16
 4734              		.cfi_offset 6, -16
 4735 1f1d 4889E5   		movq	%rsp, %rbp
 4736              		.cfi_def_cfa_register 6
 4737 1f20 4883EC10 		subq	$16, %rsp
 4738 1f24 48897DF8 		movq	%rdi, -8(%rbp)
 4739 1f28 488975F0 		movq	%rsi, -16(%rbp)
 4740              	.LBB96:
 4741              		.loc 6 138 0
 4742 1f2c 488B45F8 		movq	-8(%rbp), %rax
 4743 1f30 4889C7   		movq	%rax, %rdi
 4744 1f33 E8DAFFFF 		call	_ZN12_GLOBAL__N_117FixtureDtorThrowsC2Ev
 4744      FF
 4745 1f38 488B45F8 		movq	-8(%rbp), %rax
 4746 1f3c 488B55F0 		movq	-16(%rbp), %rdx
 4747 1f40 488910   		movq	%rdx, (%rax)
 4748              	.LBE96:
 4749 1f43 C9       		leave
 4750              		.cfi_def_cfa 7, 8
 4751 1f44 C3       		ret
 4752              		.cfi_endproc
 4753              	.LFE1132:
 4755              		.set	_ZN12_GLOBAL__N_148FixtureDtorThrowsFixtureDtorThrowsTestNameHelperC1ERKN8UnitTest11TestDetai
 4756              		.section	.rodata
 4757              	.LC53:
 4758 09bf 46697874 		.string	"FixtureDtorThrowsTestName"
 4758      75726544 
 4758      746F7254 
 4758      68726F77 
 4758      73546573 
 4759              		.text
 4760 1f45 90       		.align 2
 4762              	_ZN12_GLOBAL__N_146TestFixtureDtorThrowsFixtureDtorThrowsTestNameC2Ev:
 4763              	.LFB1135:
 4764              		.loc 6 138 0
 4765              		.cfi_startproc
 4766 1f46 55       		pushq	%rbp
 4767              		.cfi_def_cfa_offset 16
 4768              		.cfi_offset 6, -16
 4769 1f47 4889E5   		movq	%rsp, %rbp
 4770              		.cfi_def_cfa_register 6
 4771 1f4a 4883EC10 		subq	$16, %rsp
 4772 1f4e 48897DF8 		movq	%rdi, -8(%rbp)
 4773              	.LBB97:
 4774              		.loc 6 138 0
 4775 1f52 E8000000 		call	_ZN13UnitTestSuite12GetSuiteNameEv
 4775      00
 4776 1f57 4889C2   		movq	%rax, %rdx
 4777 1f5a 488B45F8 		movq	-8(%rbp), %rax
 4778 1f5e 41B88A00 		movl	$138, %r8d
 4778      0000
 4779 1f64 B9000000 		movl	$.LC2, %ecx
 4779      00
 4780 1f69 BE000000 		movl	$.LC53, %esi
 4780      00
 4781 1f6e 4889C7   		movq	%rax, %rdi
 4782 1f71 E8000000 		call	_ZN8UnitTest4TestC2EPKcS2_S2_i
 4782      00
 4783 1f76 488B45F8 		movq	-8(%rbp), %rax
 4784 1f7a 48C70000 		movq	$_ZTVN12_GLOBAL__N_146TestFixtureDtorThrowsFixtureDtorThrowsTestNameE+16, (%rax)
 4784      000000
 4785              	.LBE97:
 4786 1f81 C9       		leave
 4787              		.cfi_def_cfa 7, 8
 4788 1f82 C3       		ret
 4789              		.cfi_endproc
 4790              	.LFE1135:
 4792              		.set	_ZN12_GLOBAL__N_146TestFixtureDtorThrowsFixtureDtorThrowsTestNameC1Ev,_ZN12_GLOBAL__N_146Test
 4793              		.local	_ZN12_GLOBAL__N_154testFixtureDtorThrowsFixtureDtorThrowsTestNameInstanceE
 4794              		.comm	_ZN12_GLOBAL__N_154testFixtureDtorThrowsFixtureDtorThrowsTestNameInstanceE,56,32
 4795              		.local	_ZN12_GLOBAL__N_147adderFixtureDtorThrowsFixtureDtorThrowsTestNameE
 4796              		.comm	_ZN12_GLOBAL__N_147adderFixtureDtorThrowsFixtureDtorThrowsTestNameE,1,1
 4797 1f83 90       		.align 2
 4799              	_ZN12_GLOBAL__N_148FixtureDtorThrowsFixtureDtorThrowsTestNameHelperD2Ev:
 4800              	.LFB1139:
 4801              		.loc 6 138 0
 4802              		.cfi_startproc
 4803 1f84 55       		pushq	%rbp
 4804              		.cfi_def_cfa_offset 16
 4805              		.cfi_offset 6, -16
 4806 1f85 4889E5   		movq	%rsp, %rbp
 4807              		.cfi_def_cfa_register 6
 4808 1f88 4883EC10 		subq	$16, %rsp
 4809 1f8c 48897DF8 		movq	%rdi, -8(%rbp)
 4810              	.LBB98:
 4811              		.loc 6 138 0
 4812 1f90 488B45F8 		movq	-8(%rbp), %rax
 4813 1f94 4889C7   		movq	%rax, %rdi
 4814 1f97 E846FFFF 		call	_ZN12_GLOBAL__N_117FixtureDtorThrowsD2Ev
 4814      FF
 4815              	.LBE98:
 4816 1f9c C9       		leave
 4817              		.cfi_def_cfa 7, 8
 4818 1f9d C3       		ret
 4819              		.cfi_endproc
 4820              	.LFE1139:
 4822              		.set	_ZN12_GLOBAL__N_148FixtureDtorThrowsFixtureDtorThrowsTestNameHelperD1Ev,_ZN12_GLOBAL__N_148Fi
 4823              		.section	.rodata
 4824 09d9 00000000 		.align 8
 4824      000000
 4825              	.LC54:
 4826 09e0 556E6861 		.string	"Unhandled exception while destroying fixture FixtureDtorThrows"
 4826      6E646C65 
 4826      64206578 
 4826      63657074 
 4826      696F6E20 
 4827 0a1f 00       		.align 8
 4828              	.LC55:
 4829 0a20 556E6861 		.string	"Unhandled exception while constructing fixture FixtureDtorThrows"
 4829      6E646C65 
 4829      64206578 
 4829      63657074 
 4829      696F6E20 
 4830              		.text
 4831              		.align 2
 4833              	_ZNK12_GLOBAL__N_146TestFixtureDtorThrowsFixtureDtorThrowsTestName7RunImplEv:
 4834              	.LFB1137:
 4835              		.loc 6 138 0
 4836              		.cfi_startproc
 4837              		.cfi_personality 0x3,__gxx_personality_v0
 4838              		.cfi_lsda 0x3,.LLSDA1137
 4839 1f9e 55       		pushq	%rbp
 4840              		.cfi_def_cfa_offset 16
 4841              		.cfi_offset 6, -16
 4842 1f9f 4889E5   		movq	%rsp, %rbp
 4843              		.cfi_def_cfa_register 6
 4844 1fa2 4154     		pushq	%r12
 4845 1fa4 53       		pushq	%rbx
 4846 1fa5 4881ECA0 		subq	$416, %rsp
 4846      010000
 4847              		.cfi_offset 12, -24
 4848              		.cfi_offset 3, -32
 4849 1fac 4889BD58 		movq	%rdi, -424(%rbp)
 4849      FEFFFF
 4850              	.LBB99:
 4851              		.loc 6 138 0
 4852 1fb3 C6856FFE 		movb	$0, -401(%rbp)
 4852      FFFF00
 4853              	.LBB100:
 4854 1fba 488B8558 		movq	-424(%rbp), %rax
 4854      FEFFFF
 4855 1fc1 488D5008 		leaq	8(%rax), %rdx
 4856 1fc5 488D8580 		leaq	-384(%rbp), %rax
 4856      FEFFFF
 4857 1fcc 4889D6   		movq	%rdx, %rsi
 4858 1fcf 4889C7   		movq	%rax, %rdi
 4859 1fd2 E845FFFF 		call	_ZN12_GLOBAL__N_148FixtureDtorThrowsFixtureDtorThrowsTestNameHelperC1ERKN8UnitTest11TestDetai
 4859      FF
 4860 1fd7 C6856FFE 		movb	$1, -401(%rbp)
 4860      FFFF01
 4861 1fde 488B8558 		movq	-424(%rbp), %rax
 4861      FEFFFF
 4862 1fe5 488D5008 		leaq	8(%rax), %rdx
 4863 1fe9 488D8580 		leaq	-384(%rbp), %rax
 4863      FEFFFF
 4864 1ff0 4889D6   		movq	%rdx, %rsi
 4865 1ff3 4889C7   		movq	%rax, %rdi
 4866              	.LEHB115:
 4867 1ff6 E86B1A00 		call	_ZN8UnitTest11ExecuteTestIN12_GLOBAL__N_148FixtureDtorThrowsFixtureDtorThrowsTestNameHelperEE
 4867      00
 4868              	.LEHE115:
 4869              		.loc 6 138 0 is_stmt 0 discriminator 1
 4870 1ffb 488D8580 		leaq	-384(%rbp), %rax
 4870      FEFFFF
 4871 2002 4889C7   		movq	%rax, %rdi
 4872              	.LEHB116:
 4873 2005 E87AFFFF 		call	_ZN12_GLOBAL__N_148FixtureDtorThrowsFixtureDtorThrowsTestNameHelperD1Ev
 4873      FF
 4874              	.LEHE116:
 4875              	.LBE100:
 4876              	.LBE99:
 4877              		.loc 6 138 0
 4878 200a E9640200 		jmp	.L265
 4878      00
 4879              	.L259:
 4880 200f 4989C4   		movq	%rax, %r12
 4881 2012 4889D3   		movq	%rdx, %rbx
 4882              	.LBB108:
 4883              	.LBB101:
 4884 2015 488D8580 		leaq	-384(%rbp), %rax
 4884      FEFFFF
 4885 201c 4889C7   		movq	%rax, %rdi
 4886 201f E860FFFF 		call	_ZN12_GLOBAL__N_148FixtureDtorThrowsFixtureDtorThrowsTestNameHelperD1Ev
 4886      FF
 4887 2024 4C89E0   		movq	%r12, %rax
 4888 2027 4889DA   		movq	%rbx, %rdx
 4889 202a EB00     		jmp	.L247
 4890              	.L258:
 4891              	.L247:
 4892 202c 4883FA01 		cmpq	$1, %rdx
 4893 2030 745C     		je	.L249
 4894 2032 4883FA02 		cmpq	$2, %rdx
 4895 2036 0F84F400 		je	.L250
 4895      0000
 4896 203c E9980100 		jmp	.L264
 4896      00
 4897              	.L260:
 4898 2041 4889C3   		movq	%rax, %rbx
 4899              	.LBE101:
 4900              	.LBB102:
 4901 2044 E8000000 		call	__cxa_end_catch
 4901      00
 4902 2049 4889D8   		movq	%rbx, %rax
 4903 204c 4889C7   		movq	%rax, %rdi
 4904              	.LEHB117:
 4905 204f E8000000 		call	_Unwind_Resume
 4905      00
 4906              	.LEHE117:
 4907              	.L261:
 4908 2054 4889C3   		movq	%rax, %rbx
 4909              	.LBE102:
 4910              	.LBB103:
 4911              	.LBB104:
 4912 2057 488D8580 		leaq	-384(%rbp), %rax
 4912      FEFFFF
 4913 205e 4889C7   		movq	%rax, %rdi
 4914 2061 E8000000 		call	_ZN8UnitTest15MemoryOutStreamD1Ev
 4914      00
 4915 2066 EB03     		jmp	.L253
 4916              	.L262:
 4917 2068 4889C3   		movq	%rax, %rbx
 4918              	.L253:
 4919              	.LBE104:
 4920 206b E8000000 		call	__cxa_end_catch
 4920      00
 4921 2070 4889D8   		movq	%rbx, %rax
 4922 2073 4889C7   		movq	%rax, %rdi
 4923              	.LEHB118:
 4924 2076 E8000000 		call	_Unwind_Resume
 4924      00
 4925              	.LEHE118:
 4926              	.L263:
 4927 207b 4889C3   		movq	%rax, %rbx
 4928              	.LBE103:
 4929 207e E8000000 		call	__cxa_end_catch
 4929      00
 4930 2083 4889D8   		movq	%rbx, %rax
 4931 2086 4889C7   		movq	%rax, %rdi
 4932              	.LEHB119:
 4933 2089 E8000000 		call	_Unwind_Resume
 4933      00
 4934              	.LEHE119:
 4935              	.L249:
 4936              	.LBB106:
 4937 208e 4889C7   		movq	%rax, %rdi
 4938 2091 E8000000 		call	__cxa_begin_catch
 4938      00
 4939 2096 48898570 		movq	%rax, -400(%rbp)
 4939      FEFFFF
 4940 209d 488B8570 		movq	-400(%rbp), %rax
 4940      FEFFFF
 4941 20a4 488B00   		movq	(%rax), %rax
 4942 20a7 4883C010 		addq	$16, %rax
 4943 20ab 488B00   		movq	(%rax), %rax
 4944 20ae 488B9570 		movq	-400(%rbp), %rdx
 4944      FEFFFF
 4945 20b5 4889D7   		movq	%rdx, %rdi
 4946 20b8 FFD0     		call	*%rax
 4947 20ba 4889C3   		movq	%rax, %rbx
 4948 20bd 488B8570 		movq	-400(%rbp), %rax
 4948      FEFFFF
 4949 20c4 4889C7   		movq	%rax, %rdi
 4950              	.LEHB120:
 4951 20c7 E8000000 		call	_ZNK8UnitTest15AssertException10LineNumberEv
 4951      00
 4952 20cc 4189C4   		movl	%eax, %r12d
 4953 20cf 488B8570 		movq	-400(%rbp), %rax
 4953      FEFFFF
 4954 20d6 4889C7   		movq	%rax, %rdi
 4955 20d9 E8000000 		call	_ZNK8UnitTest15AssertException8FilenameEv
 4955      00
 4956              		.loc 6 138 0 discriminator 1
 4957 20de 4889C1   		movq	%rax, %rcx
 4958 20e1 488B8558 		movq	-424(%rbp), %rax
 4958      FEFFFF
 4959 20e8 488B5008 		movq	8(%rax), %rdx
 4960 20ec 488B8558 		movq	-424(%rbp), %rax
 4960      FEFFFF
 4961 20f3 488B7010 		movq	16(%rax), %rsi
 4962 20f7 488D8580 		leaq	-384(%rbp), %rax
 4962      FEFFFF
 4963 20fe 4589E0   		movl	%r12d, %r8d
 4964 2101 4889C7   		movq	%rax, %rdi
 4965 2104 E8000000 		call	_ZN8UnitTest11TestDetailsC1EPKcS2_S2_i
 4965      00
 4966              		.loc 6 138 0 discriminator 3
 4967 2109 E8000000 		call	_ZN8UnitTest11CurrentTest7ResultsEv
 4967      00
 4968 210e 488B00   		movq	(%rax), %rax
 4969 2111 488D8D80 		leaq	-384(%rbp), %rcx
 4969      FEFFFF
 4970 2118 4889DA   		movq	%rbx, %rdx
 4971 211b 4889CE   		movq	%rcx, %rsi
 4972 211e 4889C7   		movq	%rax, %rdi
 4973 2121 E8000000 		call	_ZN8UnitTest11TestResults13OnTestFailureERKNS_11TestDetailsEPKc
 4973      00
 4974              	.LEHE120:
 4975              		.loc 6 138 0 discriminator 1
 4976 2126 E8000000 		call	__cxa_end_catch
 4976      00
 4977              	.LBE106:
 4978              	.LBE108:
 4979 212b E9430100 		jmp	.L265
 4979      00
 4980              	.L250:
 4981              	.LBB109:
 4982              	.LBB107:
 4983              		.loc 6 138 0
 4984 2130 4889C7   		movq	%rax, %rdi
 4985 2133 E8000000 		call	__cxa_begin_catch
 4985      00
 4986 2138 48898578 		movq	%rax, -392(%rbp)
 4986      FEFFFF
 4987              	.LBB105:
 4988 213f 488D8580 		leaq	-384(%rbp), %rax
 4988      FEFFFF
 4989 2146 4889C7   		movq	%rax, %rdi
 4990              	.LEHB121:
 4991 2149 E8000000 		call	_ZN8UnitTest15MemoryOutStreamC1Ev
 4991      00
 4992              	.LEHE121:
 4993              		.loc 6 138 0 discriminator 1
 4994 214e 488B8578 		movq	-392(%rbp), %rax
 4994      FEFFFF
 4995 2155 488B00   		movq	(%rax), %rax
 4996 2158 4883C010 		addq	$16, %rax
 4997 215c 488B00   		movq	(%rax), %rax
 4998 215f 488B9578 		movq	-392(%rbp), %rdx
 4998      FEFFFF
 4999 2166 4889D7   		movq	%rdx, %rdi
 5000 2169 FFD0     		call	*%rax
 5001 216b 4889C3   		movq	%rax, %rbx
 5002 216e 488D8580 		leaq	-384(%rbp), %rax
 5002      FEFFFF
 5003 2175 BE000000 		movl	$.LC11, %esi
 5003      00
 5004 217a 4889C7   		movq	%rax, %rdi
 5005              	.LEHB122:
 5006 217d E8000000 		call	_ZStlsISt11char_traitsIcEERSt13basic_ostreamIcT_ES5_PKc
 5006      00
 5007 2182 4889DE   		movq	%rbx, %rsi
 5008 2185 4889C7   		movq	%rax, %rdi
 5009 2188 E8000000 		call	_ZStlsISt11char_traitsIcEERSt13basic_ostreamIcT_ES5_PKc
 5009      00
 5010 218d 488D8580 		leaq	-384(%rbp), %rax
 5010      FEFFFF
 5011 2194 4889C7   		movq	%rax, %rdi
 5012 2197 E8000000 		call	_ZNK8UnitTest15MemoryOutStream7GetTextEv
 5012      00
 5013 219c 4889C3   		movq	%rax, %rbx
 5014 219f 488B8558 		movq	-424(%rbp), %rax
 5014      FEFFFF
 5015 21a6 4C8D6008 		leaq	8(%rax), %r12
 5016 21aa E8000000 		call	_ZN8UnitTest11CurrentTest7ResultsEv
 5016      00
 5017 21af 488B00   		movq	(%rax), %rax
 5018 21b2 4889DA   		movq	%rbx, %rdx
 5019 21b5 4C89E6   		movq	%r12, %rsi
 5020 21b8 4889C7   		movq	%rax, %rdi
 5021 21bb E8000000 		call	_ZN8UnitTest11TestResults13OnTestFailureERKNS_11TestDetailsEPKc
 5021      00
 5022              	.LEHE122:
 5023 21c0 488D8580 		leaq	-384(%rbp), %rax
 5023      FEFFFF
 5024 21c7 4889C7   		movq	%rax, %rdi
 5025              	.LEHB123:
 5026 21ca E8000000 		call	_ZN8UnitTest15MemoryOutStreamD1Ev
 5026      00
 5027              	.LEHE123:
 5028              	.LBE105:
 5029              		.loc 6 138 0
 5030 21cf E8000000 		call	__cxa_end_catch
 5030      00
 5031              	.LBE107:
 5032              	.LBE109:
 5033 21d4 E99A0000 		jmp	.L265
 5033      00
 5034              	.L264:
 5035              	.LBB110:
 5036 21d9 4889C7   		movq	%rax, %rdi
 5037 21dc E8000000 		call	__cxa_begin_catch
 5037      00
 5038 21e1 80BD6FFE 		cmpb	$0, -401(%rbp)
 5038      FFFF00
 5039 21e8 7443     		je	.L256
 5040              		.loc 6 138 0 discriminator 1
 5041 21ea 488B8558 		movq	-424(%rbp), %rax
 5041      FEFFFF
 5042 21f1 488D4808 		leaq	8(%rax), %rcx
 5043 21f5 488D8580 		leaq	-384(%rbp), %rax
 5043      FEFFFF
 5044 21fc BA8A0000 		movl	$138, %edx
 5044      00
 5045 2201 4889CE   		movq	%rcx, %rsi
 5046 2204 4889C7   		movq	%rax, %rdi
 5047              	.LEHB124:
 5048 2207 E8000000 		call	_ZN8UnitTest11TestDetailsC1ERKS0_i
 5048      00
 5049 220c E8000000 		call	_ZN8UnitTest11CurrentTest7ResultsEv
 5049      00
 5050 2211 488B00   		movq	(%rax), %rax
 5051 2214 488D8D80 		leaq	-384(%rbp), %rcx
 5051      FEFFFF
 5052 221b BA000000 		movl	$.LC54, %edx
 5052      00
 5053 2220 4889CE   		movq	%rcx, %rsi
 5054 2223 4889C7   		movq	%rax, %rdi
 5055 2226 E8000000 		call	_ZN8UnitTest11TestResults13OnTestFailureERKNS_11TestDetailsEPKc
 5055      00
 5056 222b EB41     		jmp	.L257
 5057              	.L256:
 5058              		.loc 6 138 0 discriminator 2
 5059 222d 488B8558 		movq	-424(%rbp), %rax
 5059      FEFFFF
 5060 2234 488D4808 		leaq	8(%rax), %rcx
 5061 2238 488D8580 		leaq	-384(%rbp), %rax
 5061      FEFFFF
 5062 223f BA8A0000 		movl	$138, %edx
 5062      00
 5063 2244 4889CE   		movq	%rcx, %rsi
 5064 2247 4889C7   		movq	%rax, %rdi
 5065 224a E8000000 		call	_ZN8UnitTest11TestDetailsC1ERKS0_i
 5065      00
 5066              		.loc 6 138 0 discriminator 1
 5067 224f E8000000 		call	_ZN8UnitTest11CurrentTest7ResultsEv
 5067      00
 5068 2254 488B00   		movq	(%rax), %rax
 5069 2257 488D8D80 		leaq	-384(%rbp), %rcx
 5069      FEFFFF
 5070 225e BA000000 		movl	$.LC55, %edx
 5070      00
 5071 2263 4889CE   		movq	%rcx, %rsi
 5072 2266 4889C7   		movq	%rax, %rdi
 5073 2269 E8000000 		call	_ZN8UnitTest11TestResults13OnTestFailureERKNS_11TestDetailsEPKc
 5073      00
 5074              	.LEHE124:
 5075              	.L257:
 5076              	.LEHB125:
 5077 226e E8000000 		call	__cxa_end_catch
 5077      00
 5078              	.LEHE125:
 5079              	.L265:
 5080              	.LBE110:
 5081              		.loc 6 138 0
 5082 2273 90       		nop
 5083 2274 4881C4A0 		addq	$416, %rsp
 5083      010000
 5084 227b 5B       		popq	%rbx
 5085 227c 415C     		popq	%r12
 5086 227e 5D       		popq	%rbp
 5087              		.cfi_def_cfa 7, 8
 5088 227f C3       		ret
 5089              		.cfi_endproc
 5090              	.LFE1137:
 5091              		.section	.gcc_except_table
 5092              		.align 4
 5093              	.LLSDA1137:
 5094 0308 FF       		.byte	0xff
 5095 0309 03       		.byte	0x3
 5096 030a 51       		.uleb128 .LLSDATT1137-.LLSDATTD1137
 5097              	.LLSDATTD1137:
 5098 030b 01       		.byte	0x1
 5099 030c 3B       		.uleb128 .LLSDACSE1137-.LLSDACSB1137
 5100              	.LLSDACSB1137:
 5101 030d 58       		.uleb128 .LEHB115-.LFB1137
 5102 030e 05       		.uleb128 .LEHE115-.LEHB115
 5103 030f 71       		.uleb128 .L259-.LFB1137
 5104 0310 07       		.uleb128 0x7
 5105 0311 67       		.uleb128 .LEHB116-.LFB1137
 5106 0312 05       		.uleb128 .LEHE116-.LEHB116
 5107 0313 8E01     		.uleb128 .L258-.LFB1137
 5108 0315 05       		.uleb128 0x5
 5109 0316 B101     		.uleb128 .LEHB117-.LFB1137
 5110 0318 05       		.uleb128 .LEHE117-.LEHB117
 5111 0319 00       		.uleb128 0
 5112 031a 00       		.uleb128 0
 5113 031b D801     		.uleb128 .LEHB118-.LFB1137
 5114 031d 05       		.uleb128 .LEHE118-.LEHB118
 5115 031e 00       		.uleb128 0
 5116 031f 00       		.uleb128 0
 5117 0320 EB01     		.uleb128 .LEHB119-.LFB1137
 5118 0322 05       		.uleb128 .LEHE119-.LEHB119
 5119 0323 00       		.uleb128 0
 5120 0324 00       		.uleb128 0
 5121 0325 A902     		.uleb128 .LEHB120-.LFB1137
 5122 0327 5F       		.uleb128 .LEHE120-.LEHB120
 5123 0328 A301     		.uleb128 .L260-.LFB1137
 5124 032a 00       		.uleb128 0
 5125 032b AB03     		.uleb128 .LEHB121-.LFB1137
 5126 032d 05       		.uleb128 .LEHE121-.LEHB121
 5127 032e CA01     		.uleb128 .L262-.LFB1137
 5128 0330 00       		.uleb128 0
 5129 0331 DF03     		.uleb128 .LEHB122-.LFB1137
 5130 0333 43       		.uleb128 .LEHE122-.LEHB122
 5131 0334 B601     		.uleb128 .L261-.LFB1137
 5132 0336 00       		.uleb128 0
 5133 0337 AC04     		.uleb128 .LEHB123-.LFB1137
 5134 0339 05       		.uleb128 .LEHE123-.LEHB123
 5135 033a CA01     		.uleb128 .L262-.LFB1137
 5136 033c 00       		.uleb128 0
 5137 033d E904     		.uleb128 .LEHB124-.LFB1137
 5138 033f 67       		.uleb128 .LEHE124-.LEHB124
 5139 0340 DD01     		.uleb128 .L263-.LFB1137
 5140 0342 00       		.uleb128 0
 5141 0343 D005     		.uleb128 .LEHB125-.LFB1137
 5142 0345 05       		.uleb128 .LEHE125-.LEHB125
 5143 0346 00       		.uleb128 0
 5144 0347 00       		.uleb128 0
 5145              	.LLSDACSE1137:
 5146 0348 03       		.byte	0x3
 5147 0349 00       		.byte	0
 5148 034a 02       		.byte	0x2
 5149 034b 7D       		.byte	0x7d
 5150 034c 01       		.byte	0x1
 5151 034d 7D       		.byte	0x7d
 5152 034e 00       		.byte	0
 5153 034f 7D       		.byte	0x7d
 5154              		.align 4
 5155 0350 00000000 		.long	0
 5156              	
 5157 0354 00000000 		.long	_ZTISt9exception
 5158 0358 00000000 		.long	_ZTIN8UnitTest15AssertExceptionE
 5159              	.LLSDATT1137:
 5160              		.text
 5162              		.align 2
 5164              	_ZN12_GLOBAL__N_148FixtureDtorThrowsFixtureDtorThrowsTestNameHelper7RunImplEv:
 5165              	.LFB1141:
 139:TestTestMacros.cpp **** {
 5166              		.loc 6 139 0 is_stmt 1
 5167              		.cfi_startproc
 5168 2280 55       		pushq	%rbp
 5169              		.cfi_def_cfa_offset 16
 5170              		.cfi_offset 6, -16
 5171 2281 4889E5   		movq	%rsp, %rbp
 5172              		.cfi_def_cfa_register 6
 5173 2284 48897DF8 		movq	%rdi, -8(%rbp)
 140:TestTestMacros.cpp **** }
 5174              		.loc 6 140 0
 5175 2288 5D       		popq	%rbp
 5176              		.cfi_def_cfa 7, 8
 5177 2289 C3       		ret
 5178              		.cfi_endproc
 5179              	.LFE1141:
 5181              		.section	.rodata
 5182 0a61 00000000 		.align 8
 5182      000000
 5183              	.LC56:
 5184 0a68 46697874 		.string	"FixturesWithThrowingDtorsAreFailures"
 5184      75726573 
 5184      57697468 
 5184      5468726F 
 5184      77696E67 
 5185              		.text
 5186              		.align 2
 5188              	_ZN12_GLOBAL__N_140TestFixturesWithThrowingDtorsAreFailuresC2Ev:
 5189              	.LFB1143:
 141:TestTestMacros.cpp **** 
 142:TestTestMacros.cpp **** TEST(FixturesWithThrowingDtorsAreFailures)
 5190              		.loc 6 142 0
 5191              		.cfi_startproc
 5192 228a 55       		pushq	%rbp
 5193              		.cfi_def_cfa_offset 16
 5194              		.cfi_offset 6, -16
 5195 228b 4889E5   		movq	%rsp, %rbp
 5196              		.cfi_def_cfa_register 6
 5197 228e 4883EC10 		subq	$16, %rsp
 5198 2292 48897DF8 		movq	%rdi, -8(%rbp)
 5199              	.LBB111:
 5200              		.loc 6 142 0
 5201 2296 E8000000 		call	_ZN13UnitTestSuite12GetSuiteNameEv
 5201      00
 5202 229b 4889C2   		movq	%rax, %rdx
 5203 229e 488B45F8 		movq	-8(%rbp), %rax
 5204 22a2 41B88E00 		movl	$142, %r8d
 5204      0000
 5205 22a8 B9000000 		movl	$.LC2, %ecx
 5205      00
 5206 22ad BE000000 		movl	$.LC56, %esi
 5206      00
 5207 22b2 4889C7   		movq	%rax, %rdi
 5208 22b5 E8000000 		call	_ZN8UnitTest4TestC2EPKcS2_S2_i
 5208      00
 5209 22ba 488B45F8 		movq	-8(%rbp), %rax
 5210 22be 48C70000 		movq	$_ZTVN12_GLOBAL__N_140TestFixturesWithThrowingDtorsAreFailuresE+16, (%rax)
 5210      000000
 5211              	.LBE111:
 5212 22c5 C9       		leave
 5213              		.cfi_def_cfa 7, 8
 5214 22c6 C3       		ret
 5215              		.cfi_endproc
 5216              	.LFE1143:
 5218              		.set	_ZN12_GLOBAL__N_140TestFixturesWithThrowingDtorsAreFailuresC1Ev,_ZN12_GLOBAL__N_140TestFixtur
 5219              		.local	_ZN12_GLOBAL__N_148testFixturesWithThrowingDtorsAreFailuresInstanceE
 5220              		.comm	_ZN12_GLOBAL__N_148testFixturesWithThrowingDtorsAreFailuresInstanceE,56,32
 5221              		.local	_ZN12_GLOBAL__N_141adderFixturesWithThrowingDtorsAreFailuresE
 5222              		.comm	_ZN12_GLOBAL__N_141adderFixturesWithThrowingDtorsAreFailuresE,1,1
 5223              		.section	.rodata
 5224 0a8d 000000   		.align 8
 5225              	.LC57:
 5226 0a90 7468726F 		.string	"throwingFixtureTestList2.GetHead() != NULL"
 5226      77696E67 
 5226      46697874 
 5226      75726554 
 5226      6573744C 
 5227              	.LC58:
 5228 0abb 7768696C 		.string	"while destroying fixture"
 5228      65206465 
 5228      7374726F 
 5228      79696E67 
 5228      20666978 
 5229 0ad4 00000000 		.align 8
 5230              	.LC59:
 5231 0ad8 73747273 		.string	"strstr(reporter.lastFailedMessage, \"while destroying fixture\")"
 5231      74722872 
 5231      65706F72 
 5231      7465722E 
 5231      6C617374 
 5232 0b17 00       		.align 8
 5233              	.LC60:
 5234 0b18 556E6861 		.string	"Unhandled exception in CHECK(throwingFixtureTestList2.GetHead() != NULL)"
 5234      6E646C65 
 5234      64206578 
 5234      63657074 
 5234      696F6E20 
 5235 0b61 00000000 		.align 8
 5235      000000
 5236              	.LC61:
 5237 0b68 556E6861 		.string	"Unhandled exception in CHECK(strstr(reporter.lastFailedMessage, \"while destroying fixtur
 5237      6E646C65 
 5237      64206578 
 5237      63657074 
 5237      696F6E20 
 5238              		.text
 5239 22c7 90       		.align 2
 5241              	_ZNK12_GLOBAL__N_140TestFixturesWithThrowingDtorsAreFailures7RunImplEv:
 5242              	.LFB1145:
 143:TestTestMacros.cpp **** {
 5243              		.loc 6 143 0
 5244              		.cfi_startproc
 5245              		.cfi_personality 0x3,__gxx_personality_v0
 5246              		.cfi_lsda 0x3,.LLSDA1145
 5247 22c8 55       		pushq	%rbp
 5248              		.cfi_def_cfa_offset 16
 5249              		.cfi_offset 6, -16
 5250 22c9 4889E5   		movq	%rsp, %rbp
 5251              		.cfi_def_cfa_register 6
 5252 22cc 53       		pushq	%rbx
 5253 22cd 4881ECA8 		subq	$2216, %rsp
 5253      080000
 5254              		.cfi_offset 3, -24
 5255 22d4 4889BD58 		movq	%rdi, -2216(%rbp)
 5255      F7FFFF
 5256              		.loc 6 143 0
 5257 22db 64488B04 		movq	%fs:40, %rax
 5257      25280000 
 5257      00
 5258 22e4 488945E8 		movq	%rax, -24(%rbp)
 5259 22e8 31C0     		xorl	%eax, %eax
 5260              	.LBB112:
 144:TestTestMacros.cpp **** 	CHECK(throwingFixtureTestList2.GetHead() != NULL);
 5261              		.loc 6 144 0
 5262 22ea BF000000 		movl	$_ZN12_GLOBAL__N_124throwingFixtureTestList2E, %edi
 5262      00
 5263              	.LEHB126:
 5264 22ef E8000000 		call	_ZNK8UnitTest8TestList7GetHeadEv
 5264      00
 5265 22f4 4885C0   		testq	%rax, %rax
 5266 22f7 0F95C0   		setne	%al
 5267 22fa 0FB6C0   		movzbl	%al, %eax
 5268 22fd 89C7     		movl	%eax, %edi
 5269 22ff E8000000 		call	_ZN8UnitTest5CheckIbEEbT_
 5269      00
 5270 2304 83F001   		xorl	$1, %eax
 5271 2307 84C0     		testb	%al, %al
 5272 2309 743E     		je	.L269
 5273              		.loc 6 144 0 is_stmt 0 discriminator 1
 5274 230b E8000000 		call	_ZN8UnitTest11CurrentTest7DetailsEv
 5274      00
 5275 2310 488B08   		movq	(%rax), %rcx
 5276 2313 488D8590 		leaq	-2160(%rbp), %rax
 5276      F7FFFF
 5277 231a BA900000 		movl	$144, %edx
 5277      00
 5278 231f 4889CE   		movq	%rcx, %rsi
 5279 2322 4889C7   		movq	%rax, %rdi
 5280 2325 E8000000 		call	_ZN8UnitTest11TestDetailsC1ERKS0_i
 5280      00
 5281 232a E8000000 		call	_ZN8UnitTest11CurrentTest7ResultsEv
 5281      00
 5282 232f 488B00   		movq	(%rax), %rax
 5283 2332 488D8D90 		leaq	-2160(%rbp), %rcx
 5283      F7FFFF
 5284 2339 BA000000 		movl	$.LC57, %edx
 5284      00
 5285 233e 4889CE   		movq	%rcx, %rsi
 5286 2341 4889C7   		movq	%rax, %rdi
 5287 2344 E8000000 		call	_ZN8UnitTest11TestResults13OnTestFailureERKNS_11TestDetailsEPKc
 5287      00
 5288              	.LEHE126:
 5289              	.L269:
 145:TestTestMacros.cpp **** 
 146:TestTestMacros.cpp **** 	RecordingReporter reporter;
 5290              		.loc 6 146 0 is_stmt 1
 5291 2349 488D85B0 		leaq	-2128(%rbp), %rax
 5291      F7FFFF
 5292 2350 4889C7   		movq	%rax, %rdi
 5293 2353 E8000000 		call	_ZN17RecordingReporterC1Ev
 5293      00
 147:TestTestMacros.cpp **** 	TestResults result(&reporter);
 5294              		.loc 6 147 0
 5295 2358 488D95B0 		leaq	-2128(%rbp), %rdx
 5295      F7FFFF
 5296 235f 488D8570 		leaq	-2192(%rbp), %rax
 5296      F7FFFF
 5297 2366 4889D6   		movq	%rdx, %rsi
 5298 2369 4889C7   		movq	%rax, %rdi
 5299              	.LEHB127:
 5300 236c E8000000 		call	_ZN8UnitTest11TestResultsC1EPNS_12TestReporterE
 5300      00
 5301              	.LBB113:
 148:TestTestMacros.cpp **** 	{
 149:TestTestMacros.cpp **** 		ScopedCurrentTest scopedResult(result);
 5302              		.loc 6 149 0
 5303 2371 488D8D70 		leaq	-2192(%rbp), %rcx
 5303      F7FFFF
 5304 2378 488D8590 		leaq	-2160(%rbp), %rax
 5304      F7FFFF
 5305 237f BA000000 		movl	$0, %edx
 5305      00
 5306 2384 4889CE   		movq	%rcx, %rsi
 5307 2387 4889C7   		movq	%rax, %rdi
 5308 238a E8000000 		call	_ZN17ScopedCurrentTestC1ERN8UnitTest11TestResultsEPKNS0_11TestDetailsE
 5308      00
 5309              	.LEHE127:
 150:TestTestMacros.cpp **** 		throwingFixtureTestList2.GetHead()->Run();
 5310              		.loc 6 150 0
 5311 238f BF000000 		movl	$_ZN12_GLOBAL__N_124throwingFixtureTestList2E, %edi
 5311      00
 5312              	.LEHB128:
 5313 2394 E8000000 		call	_ZNK8UnitTest8TestList7GetHeadEv
 5313      00
 5314 2399 4889C7   		movq	%rax, %rdi
 5315 239c E8000000 		call	_ZN8UnitTest4Test3RunEv
 5315      00
 5316              	.LEHE128:
 5317              		.loc 6 150 0 is_stmt 0 discriminator 1
 5318 23a1 488D8590 		leaq	-2160(%rbp), %rax
 5318      F7FFFF
 5319 23a8 4889C7   		movq	%rax, %rdi
 5320              	.LEHB129:
 5321 23ab E8000000 		call	_ZN17ScopedCurrentTestD1Ev
 5321      00
 5322              	.LBE113:
 151:TestTestMacros.cpp **** 	}
 152:TestTestMacros.cpp **** 
 153:TestTestMacros.cpp **** 	int const failureCount = result.GetFailedTestCount();
 5323              		.loc 6 153 0 is_stmt 1
 5324 23b0 488D8570 		leaq	-2192(%rbp), %rax
 5324      F7FFFF
 5325 23b7 4889C7   		movq	%rax, %rdi
 5326 23ba E8000000 		call	_ZNK8UnitTest11TestResults18GetFailedTestCountEv
 5326      00
 5327              	.LEHE129:
 5328 23bf 898568F7 		movl	%eax, -2200(%rbp)
 5328      FFFF
 5329              	.LEHB130:
 154:TestTestMacros.cpp **** 	CHECK_EQUAL(1, failureCount);
 5330              		.loc 6 154 0
 5331 23c5 E8000000 		call	_ZN8UnitTest11CurrentTest7DetailsEv
 5331      00
 5332              		.loc 6 154 0 is_stmt 0 discriminator 1
 5333 23ca 488B08   		movq	(%rax), %rcx
 5334 23cd 488D8590 		leaq	-2160(%rbp), %rax
 5334      F7FFFF
 5335 23d4 BA9A0000 		movl	$154, %edx
 5335      00
 5336 23d9 4889CE   		movq	%rcx, %rsi
 5337 23dc 4889C7   		movq	%rax, %rdi
 5338 23df E8000000 		call	_ZN8UnitTest11TestDetailsC1ERKS0_i
 5338      00
 5339 23e4 C7856CF7 		movl	$1, -2196(%rbp)
 5339      FFFF0100 
 5339      0000
 5340 23ee E8000000 		call	_ZN8UnitTest11CurrentTest7ResultsEv
 5340      00
 5341 23f3 488B00   		movq	(%rax), %rax
 5342 23f6 488D8D90 		leaq	-2160(%rbp), %rcx
 5342      F7FFFF
 5343 23fd 488D9568 		leaq	-2200(%rbp), %rdx
 5343      F7FFFF
 5344 2404 488DB56C 		leaq	-2196(%rbp), %rsi
 5344      F7FFFF
 5345 240b 4889C7   		movq	%rax, %rdi
 5346 240e E8000000 		call	_ZN8UnitTest10CheckEqualIiiEEvRNS_11TestResultsERKT_RKT0_RKNS_11TestDetailsE
 5346      00
 5347              	.LEHE130:
 5348              	.L277:
 155:TestTestMacros.cpp **** 	CHECK(strstr(reporter.lastFailedMessage, "while destroying fixture"));
 5349              		.loc 6 155 0 is_stmt 1
 5350 2413 488D85B0 		leaq	-2128(%rbp), %rax
 5350      F7FFFF
 5351 241a 48051405 		addq	$1300, %rax
 5351      0000
 5352 2420 BE000000 		movl	$.LC58, %esi
 5352      00
 5353 2425 4889C7   		movq	%rax, %rdi
 5354 2428 E8000000 		call	strstr
 5354      00
 5355 242d 4889C7   		movq	%rax, %rdi
 5356 2430 E8000000 		call	_ZN8UnitTest5CheckIPcEEbT_
 5356      00
 5357 2435 83F001   		xorl	$1, %eax
 5358 2438 84C0     		testb	%al, %al
 5359 243a 743E     		je	.L270
 5360              	.LEHB131:
 5361              		.loc 6 155 0 is_stmt 0 discriminator 1
 5362 243c E8000000 		call	_ZN8UnitTest11CurrentTest7DetailsEv
 5362      00
 5363 2441 488B08   		movq	(%rax), %rcx
 5364 2444 488D8590 		leaq	-2160(%rbp), %rax
 5364      F7FFFF
 5365 244b BA9B0000 		movl	$155, %edx
 5365      00
 5366 2450 4889CE   		movq	%rcx, %rsi
 5367 2453 4889C7   		movq	%rax, %rdi
 5368 2456 E8000000 		call	_ZN8UnitTest11TestDetailsC1ERKS0_i
 5368      00
 5369 245b E8000000 		call	_ZN8UnitTest11CurrentTest7ResultsEv
 5369      00
 5370 2460 488B00   		movq	(%rax), %rax
 5371 2463 488D8D90 		leaq	-2160(%rbp), %rcx
 5371      F7FFFF
 5372 246a BA000000 		movl	$.LC59, %edx
 5372      00
 5373 246f 4889CE   		movq	%rcx, %rsi
 5374 2472 4889C7   		movq	%rax, %rdi
 5375 2475 E8000000 		call	_ZN8UnitTest11TestResults13OnTestFailureERKNS_11TestDetailsEPKc
 5375      00
 5376              	.LEHE131:
 5377              	.L270:
 5378              		.loc 6 155 0 discriminator 2
 5379 247a 488D85B0 		leaq	-2128(%rbp), %rax
 5379      F7FFFF
 5380 2481 4889C7   		movq	%rax, %rdi
 5381              	.LEHB132:
 5382 2484 E8000000 		call	_ZN17RecordingReporterD1Ev
 5382      00
 5383              	.LEHE132:
 5384              	.LBE112:
 156:TestTestMacros.cpp **** }
 5385              		.loc 6 156 0 is_stmt 1 discriminator 2
 5386 2489 488B45E8 		movq	-24(%rbp), %rax
 5387 248d 64483304 		xorq	%fs:40, %rax
 5387      25280000 
 5387      00
 5388 2496 0F845801 		je	.L280
 5388      0000
 5389 249c E94E0100 		jmp	.L289
 5389      00
 5390              	.L282:
 5391 24a1 4889C3   		movq	%rax, %rbx
 5392              	.LBB115:
 144:TestTestMacros.cpp **** 
 5393              		.loc 6 144 0
 5394 24a4 E8000000 		call	__cxa_end_catch
 5394      00
 5395 24a9 4889D8   		movq	%rbx, %rax
 5396 24ac 4889C7   		movq	%rax, %rdi
 5397              	.LEHB133:
 5398 24af E8000000 		call	_Unwind_Resume
 5398      00
 5399              	.LEHE133:
 5400              	.L281:
 5401 24b4 4889C7   		movq	%rax, %rdi
 5402 24b7 E8000000 		call	__cxa_begin_catch
 5402      00
 5403              	.LEHB134:
 5404 24bc E8000000 		call	_ZN8UnitTest11CurrentTest7DetailsEv
 5404      00
 5405 24c1 488B08   		movq	(%rax), %rcx
 5406 24c4 488D8590 		leaq	-2160(%rbp), %rax
 5406      F7FFFF
 5407 24cb BA900000 		movl	$144, %edx
 5407      00
 5408 24d0 4889CE   		movq	%rcx, %rsi
 5409 24d3 4889C7   		movq	%rax, %rdi
 5410 24d6 E8000000 		call	_ZN8UnitTest11TestDetailsC1ERKS0_i
 5410      00
 144:TestTestMacros.cpp **** 
 5411              		.loc 6 144 0 is_stmt 0 discriminator 1
 5412 24db E8000000 		call	_ZN8UnitTest11CurrentTest7ResultsEv
 5412      00
 5413 24e0 488B00   		movq	(%rax), %rax
 5414 24e3 488D8D90 		leaq	-2160(%rbp), %rcx
 5414      F7FFFF
 5415 24ea BA000000 		movl	$.LC60, %edx
 5415      00
 5416 24ef 4889CE   		movq	%rcx, %rsi
 5417 24f2 4889C7   		movq	%rax, %rdi
 5418 24f5 E8000000 		call	_ZN8UnitTest11TestResults13OnTestFailureERKNS_11TestDetailsEPKc
 5418      00
 5419              	.LEHE134:
 5420              	.LEHB135:
 5421 24fa E8000000 		call	__cxa_end_catch
 5421      00
 5422              	.LEHE135:
 5423 24ff E945FEFF 		jmp	.L269
 5423      FF
 5424              	.L284:
 5425 2504 4889C3   		movq	%rax, %rbx
 5426              	.LBB114:
 150:TestTestMacros.cpp **** 	}
 5427              		.loc 6 150 0 is_stmt 1
 5428 2507 488D8590 		leaq	-2160(%rbp), %rax
 5428      F7FFFF
 5429 250e 4889C7   		movq	%rax, %rdi
 5430 2511 E8000000 		call	_ZN17ScopedCurrentTestD1Ev
 5430      00
 5431 2516 E9BA0000 		jmp	.L274
 5431      00
 5432              	.L286:
 5433 251b 4889C3   		movq	%rax, %rbx
 5434              	.LBE114:
 154:TestTestMacros.cpp **** 	CHECK(strstr(reporter.lastFailedMessage, "while destroying fixture"));
 5435              		.loc 6 154 0
 5436 251e E8000000 		call	__cxa_end_catch
 5436      00
 5437 2523 E9AD0000 		jmp	.L274
 5437      00
 5438              	.L285:
 5439 2528 4889C7   		movq	%rax, %rdi
 5440 252b E8000000 		call	__cxa_begin_catch
 5440      00
 5441              	.LEHB136:
 5442 2530 E8000000 		call	_ZN8UnitTest11CurrentTest7DetailsEv
 5442      00
 5443 2535 488B08   		movq	(%rax), %rcx
 5444 2538 488D8590 		leaq	-2160(%rbp), %rax
 5444      F7FFFF
 5445 253f BA9A0000 		movl	$154, %edx
 5445      00
 5446 2544 4889CE   		movq	%rcx, %rsi
 5447 2547 4889C7   		movq	%rax, %rdi
 5448 254a E8000000 		call	_ZN8UnitTest11TestDetailsC1ERKS0_i
 5448      00
 154:TestTestMacros.cpp **** 	CHECK(strstr(reporter.lastFailedMessage, "while destroying fixture"));
 5449              		.loc 6 154 0 is_stmt 0 discriminator 1
 5450 254f E8000000 		call	_ZN8UnitTest11CurrentTest7ResultsEv
 5450      00
 5451 2554 488B00   		movq	(%rax), %rax
 5452 2557 488D8D90 		leaq	-2160(%rbp), %rcx
 5452      F7FFFF
 5453 255e BA000000 		movl	$.LC51, %edx
 5453      00
 5454 2563 4889CE   		movq	%rcx, %rsi
 5455 2566 4889C7   		movq	%rax, %rdi
 5456 2569 E8000000 		call	_ZN8UnitTest11TestResults13OnTestFailureERKNS_11TestDetailsEPKc
 5456      00
 5457              	.LEHE136:
 5458              	.LEHB137:
 5459 256e E8000000 		call	__cxa_end_catch
 5459      00
 5460              	.LEHE137:
 154:TestTestMacros.cpp **** 	CHECK(strstr(reporter.lastFailedMessage, "while destroying fixture"));
 5461              		.loc 6 154 0
 5462 2573 E99BFEFF 		jmp	.L277
 5462      FF
 5463              	.L288:
 5464 2578 4889C3   		movq	%rax, %rbx
 155:TestTestMacros.cpp **** }
 5465              		.loc 6 155 0 is_stmt 1
 5466 257b E8000000 		call	__cxa_end_catch
 5466      00
 5467 2580 EB53     		jmp	.L274
 5468              	.L287:
 5469 2582 4889C7   		movq	%rax, %rdi
 5470 2585 E8000000 		call	__cxa_begin_catch
 5470      00
 5471              	.LEHB138:
 5472 258a E8000000 		call	_ZN8UnitTest11CurrentTest7DetailsEv
 5472      00
 5473 258f 488B08   		movq	(%rax), %rcx
 5474 2592 488D8590 		leaq	-2160(%rbp), %rax
 5474      F7FFFF
 5475 2599 BA9B0000 		movl	$155, %edx
 5475      00
 5476 259e 4889CE   		movq	%rcx, %rsi
 5477 25a1 4889C7   		movq	%rax, %rdi
 5478 25a4 E8000000 		call	_ZN8UnitTest11TestDetailsC1ERKS0_i
 5478      00
 155:TestTestMacros.cpp **** }
 5479              		.loc 6 155 0 is_stmt 0 discriminator 1
 5480 25a9 E8000000 		call	_ZN8UnitTest11CurrentTest7ResultsEv
 5480      00
 5481 25ae 488B00   		movq	(%rax), %rax
 5482 25b1 488D8D90 		leaq	-2160(%rbp), %rcx
 5482      F7FFFF
 5483 25b8 BA000000 		movl	$.LC61, %edx
 5483      00
 5484 25bd 4889CE   		movq	%rcx, %rsi
 5485 25c0 4889C7   		movq	%rax, %rdi
 5486 25c3 E8000000 		call	_ZN8UnitTest11TestResults13OnTestFailureERKNS_11TestDetailsEPKc
 5486      00
 5487              	.LEHE138:
 5488              	.LEHB139:
 5489 25c8 E8000000 		call	__cxa_end_catch
 5489      00
 5490              	.LEHE139:
 155:TestTestMacros.cpp **** }
 5491              		.loc 6 155 0
 5492 25cd E9A8FEFF 		jmp	.L270
 5492      FF
 5493              	.L283:
 5494 25d2 4889C3   		movq	%rax, %rbx
 5495              	.L274:
 5496 25d5 488D85B0 		leaq	-2128(%rbp), %rax
 5496      F7FFFF
 5497 25dc 4889C7   		movq	%rax, %rdi
 5498 25df E8000000 		call	_ZN17RecordingReporterD1Ev
 5498      00
 5499 25e4 4889D8   		movq	%rbx, %rax
 5500 25e7 4889C7   		movq	%rax, %rdi
 5501              	.LEHB140:
 5502 25ea E8000000 		call	_Unwind_Resume
 5502      00
 5503              	.LEHE140:
 5504              	.L289:
 5505              	.LBE115:
 5506              		.loc 6 156 0 is_stmt 1
 5507 25ef E8000000 		call	__stack_chk_fail
 5507      00
 5508              	.L280:
 5509 25f4 4881C4A8 		addq	$2216, %rsp
 5509      080000
 5510 25fb 5B       		popq	%rbx
 5511 25fc 5D       		popq	%rbp
 5512              		.cfi_def_cfa 7, 8
 5513 25fd C3       		ret
 5514              		.cfi_endproc
 5515              	.LFE1145:
 5516              		.section	.gcc_except_table
 5517              		.align 4
 5518              	.LLSDA1145:
 5519 035c FF       		.byte	0xff
 5520 035d 03       		.byte	0x3
 5521 035e 5D       		.uleb128 .LLSDATT1145-.LLSDATTD1145
 5522              	.LLSDATTD1145:
 5523 035f 01       		.byte	0x1
 5524 0360 55       		.uleb128 .LLSDACSE1145-.LLSDACSB1145
 5525              	.LLSDACSB1145:
 5526 0361 27       		.uleb128 .LEHB126-.LFB1145
 5527 0362 5A       		.uleb128 .LEHE126-.LEHB126
 5528 0363 EC03     		.uleb128 .L281-.LFB1145
 5529 0365 01       		.uleb128 0x1
 5530 0366 A401     		.uleb128 .LEHB127-.LFB1145
 5531 0368 23       		.uleb128 .LEHE127-.LEHB127
 5532 0369 8A06     		.uleb128 .L283-.LFB1145
 5533 036b 00       		.uleb128 0
 5534 036c CC01     		.uleb128 .LEHB128-.LFB1145
 5535 036e 0D       		.uleb128 .LEHE128-.LEHB128
 5536 036f BC04     		.uleb128 .L284-.LFB1145
 5537 0371 00       		.uleb128 0
 5538 0372 E301     		.uleb128 .LEHB129-.LFB1145
 5539 0374 14       		.uleb128 .LEHE129-.LEHB129
 5540 0375 8A06     		.uleb128 .L283-.LFB1145
 5541 0377 00       		.uleb128 0
 5542 0378 FD01     		.uleb128 .LEHB130-.LFB1145
 5543 037a 4E       		.uleb128 .LEHE130-.LEHB130
 5544 037b E004     		.uleb128 .L285-.LFB1145
 5545 037d 01       		.uleb128 0x1
 5546 037e F402     		.uleb128 .LEHB131-.LFB1145
 5547 0380 3E       		.uleb128 .LEHE131-.LEHB131
 5548 0381 BA05     		.uleb128 .L287-.LFB1145
 5549 0383 01       		.uleb128 0x1
 5550 0384 BC03     		.uleb128 .LEHB132-.LFB1145
 5551 0386 05       		.uleb128 .LEHE132-.LEHB132
 5552 0387 00       		.uleb128 0
 5553 0388 00       		.uleb128 0
 5554 0389 E703     		.uleb128 .LEHB133-.LFB1145
 5555 038b 05       		.uleb128 .LEHE133-.LEHB133
 5556 038c 00       		.uleb128 0
 5557 038d 00       		.uleb128 0
 5558 038e F403     		.uleb128 .LEHB134-.LFB1145
 5559 0390 3E       		.uleb128 .LEHE134-.LEHB134
 5560 0391 D903     		.uleb128 .L282-.LFB1145
 5561 0393 00       		.uleb128 0
 5562 0394 B204     		.uleb128 .LEHB135-.LFB1145
 5563 0396 05       		.uleb128 .LEHE135-.LEHB135
 5564 0397 00       		.uleb128 0
 5565 0398 00       		.uleb128 0
 5566 0399 E804     		.uleb128 .LEHB136-.LFB1145
 5567 039b 3E       		.uleb128 .LEHE136-.LEHB136
 5568 039c D304     		.uleb128 .L286-.LFB1145
 5569 039e 00       		.uleb128 0
 5570 039f A605     		.uleb128 .LEHB137-.LFB1145
 5571 03a1 05       		.uleb128 .LEHE137-.LEHB137
 5572 03a2 8A06     		.uleb128 .L283-.LFB1145
 5573 03a4 00       		.uleb128 0
 5574 03a5 C205     		.uleb128 .LEHB138-.LFB1145
 5575 03a7 3E       		.uleb128 .LEHE138-.LEHB138
 5576 03a8 B005     		.uleb128 .L288-.LFB1145
 5577 03aa 00       		.uleb128 0
 5578 03ab 8006     		.uleb128 .LEHB139-.LFB1145
 5579 03ad 05       		.uleb128 .LEHE139-.LEHB139
 5580 03ae 8A06     		.uleb128 .L283-.LFB1145
 5581 03b0 00       		.uleb128 0
 5582 03b1 A206     		.uleb128 .LEHB140-.LFB1145
 5583 03b3 05       		.uleb128 .LEHE140-.LEHB140
 5584 03b4 00       		.uleb128 0
 5585 03b5 00       		.uleb128 0
 5586              	.LLSDACSE1145:
 5587 03b6 01       		.byte	0x1
 5588 03b7 00       		.byte	0
 5589              		.align 4
 5590 03b8 00000000 		.long	0
 5591              	
 5592              	.LLSDATT1145:
 5593              		.text
 5595              		.section	.rodata
 5596              	.LC62:
 5597 0bc5 66696C65 		.string	"file"
 5597      00
 5598              	.LC63:
 5599 0bca 61737365 		.string	"assert failure"
 5599      72742066 
 5599      61696C75 
 5599      726500
 5600              		.text
 5601              		.align 2
 5603              	_ZN12_GLOBAL__N_118FixtureCtorAssertsC2Ev:
 5604              	.LFB1147:
 157:TestTestMacros.cpp **** 
 158:TestTestMacros.cpp **** const int FailingLine = 123;
 159:TestTestMacros.cpp **** 
 160:TestTestMacros.cpp **** struct FixtureCtorAsserts
 161:TestTestMacros.cpp **** {
 162:TestTestMacros.cpp **** 	FixtureCtorAsserts()
 5605              		.loc 6 162 0
 5606              		.cfi_startproc
 5607 25fe 55       		pushq	%rbp
 5608              		.cfi_def_cfa_offset 16
 5609              		.cfi_offset 6, -16
 5610 25ff 4889E5   		movq	%rsp, %rbp
 5611              		.cfi_def_cfa_register 6
 5612 2602 4883EC10 		subq	$16, %rsp
 5613 2606 48897DF8 		movq	%rdi, -8(%rbp)
 5614              	.LBB116:
 163:TestTestMacros.cpp **** 	{
 164:TestTestMacros.cpp **** 		UnitTest::ReportAssert("assert failure", "file", FailingLine);
 5615              		.loc 6 164 0
 5616 260a BA7B0000 		movl	$123, %edx
 5616      00
 5617 260f BE000000 		movl	$.LC62, %esi
 5617      00
 5618 2614 BF000000 		movl	$.LC63, %edi
 5618      00
 5619 2619 E8000000 		call	_ZN8UnitTest12ReportAssertEPKcS1_i
 5619      00
 5620              	.LBE116:
 165:TestTestMacros.cpp **** 	}
 5621              		.loc 6 165 0
 5622 261e C9       		leave
 5623              		.cfi_def_cfa 7, 8
 5624 261f C3       		ret
 5625              		.cfi_endproc
 5626              	.LFE1147:
 5628              		.local	_ZN12_GLOBAL__N_125ctorAssertFixtureTestListE
 5629              		.comm	_ZN12_GLOBAL__N_125ctorAssertFixtureTestListE,16,16
 5630              		.align 2
 5632              	_ZN12_GLOBAL__N_159FixtureCtorAssertsCorrectlyReportsAssertFailureInCtorHelperC2ERKN8UnitTest11Test
 5633              	.LFB1150:
 166:TestTestMacros.cpp **** };
 167:TestTestMacros.cpp **** 
 168:TestTestMacros.cpp **** TestList ctorAssertFixtureTestList;
 169:TestTestMacros.cpp **** TEST_FIXTURE_EX(FixtureCtorAsserts, CorrectlyReportsAssertFailureInCtor, ctorAssertFixtureTestList)
 5634              		.loc 6 169 0
 5635              		.cfi_startproc
 5636 2620 55       		pushq	%rbp
 5637              		.cfi_def_cfa_offset 16
 5638              		.cfi_offset 6, -16
 5639 2621 4889E5   		movq	%rsp, %rbp
 5640              		.cfi_def_cfa_register 6
 5641 2624 4883EC10 		subq	$16, %rsp
 5642 2628 48897DF8 		movq	%rdi, -8(%rbp)
 5643 262c 488975F0 		movq	%rsi, -16(%rbp)
 5644              	.LBB117:
 5645              		.loc 6 169 0
 5646 2630 488B45F8 		movq	-8(%rbp), %rax
 5647 2634 4889C7   		movq	%rax, %rdi
 5648 2637 E8C2FFFF 		call	_ZN12_GLOBAL__N_118FixtureCtorAssertsC2Ev
 5648      FF
 5649 263c 488B45F8 		movq	-8(%rbp), %rax
 5650 2640 488B55F0 		movq	-16(%rbp), %rdx
 5651 2644 488910   		movq	%rdx, (%rax)
 5652              	.LBE117:
 5653 2647 C9       		leave
 5654              		.cfi_def_cfa 7, 8
 5655 2648 C3       		ret
 5656              		.cfi_endproc
 5657              	.LFE1150:
 5659              		.set	_ZN12_GLOBAL__N_159FixtureCtorAssertsCorrectlyReportsAssertFailureInCtorHelperC1ERKN8UnitTest
 5660              		.section	.rodata
 5661 0bd9 00000000 		.align 8
 5661      000000
 5662              	.LC64:
 5663 0be0 436F7272 		.string	"CorrectlyReportsAssertFailureInCtor"
 5663      6563746C 
 5663      79526570 
 5663      6F727473 
 5663      41737365 
 5664              		.text
 5665 2649 90       		.align 2
 5667              	_ZN12_GLOBAL__N_157TestFixtureCtorAssertsCorrectlyReportsAssertFailureInCtorC2Ev:
 5668              	.LFB1153:
 5669              		.loc 6 169 0
 5670              		.cfi_startproc
 5671 264a 55       		pushq	%rbp
 5672              		.cfi_def_cfa_offset 16
 5673              		.cfi_offset 6, -16
 5674 264b 4889E5   		movq	%rsp, %rbp
 5675              		.cfi_def_cfa_register 6
 5676 264e 4883EC10 		subq	$16, %rsp
 5677 2652 48897DF8 		movq	%rdi, -8(%rbp)
 5678              	.LBB118:
 5679              		.loc 6 169 0
 5680 2656 E8000000 		call	_ZN13UnitTestSuite12GetSuiteNameEv
 5680      00
 5681 265b 4889C2   		movq	%rax, %rdx
 5682 265e 488B45F8 		movq	-8(%rbp), %rax
 5683 2662 41B8A900 		movl	$169, %r8d
 5683      0000
 5684 2668 B9000000 		movl	$.LC2, %ecx
 5684      00
 5685 266d BE000000 		movl	$.LC64, %esi
 5685      00
 5686 2672 4889C7   		movq	%rax, %rdi
 5687 2675 E8000000 		call	_ZN8UnitTest4TestC2EPKcS2_S2_i
 5687      00
 5688 267a 488B45F8 		movq	-8(%rbp), %rax
 5689 267e 48C70000 		movq	$_ZTVN12_GLOBAL__N_157TestFixtureCtorAssertsCorrectlyReportsAssertFailureInCtorE+16, (%rax)
 5689      000000
 5690              	.LBE118:
 5691 2685 C9       		leave
 5692              		.cfi_def_cfa 7, 8
 5693 2686 C3       		ret
 5694              		.cfi_endproc
 5695              	.LFE1153:
 5697              		.set	_ZN12_GLOBAL__N_157TestFixtureCtorAssertsCorrectlyReportsAssertFailureInCtorC1Ev,_ZN12_GLOBAL
 5698              		.local	_ZN12_GLOBAL__N_165testFixtureCtorAssertsCorrectlyReportsAssertFailureInCtorInstanceE
 5699              		.comm	_ZN12_GLOBAL__N_165testFixtureCtorAssertsCorrectlyReportsAssertFailureInCtorInstanceE,56,32
 5700              		.local	_ZN12_GLOBAL__N_158adderFixtureCtorAssertsCorrectlyReportsAssertFailureInCtorE
 5701              		.comm	_ZN12_GLOBAL__N_158adderFixtureCtorAssertsCorrectlyReportsAssertFailureInCtorE,1,1
 5702              		.section	.rodata
 5703 0c04 00000000 		.align 8
 5704              	.LC65:
 5705 0c08 556E6861 		.string	"Unhandled exception while destroying fixture FixtureCtorAsserts"
 5705      6E646C65 
 5705      64206578 
 5705      63657074 
 5705      696F6E20 
 5706              		.align 8
 5707              	.LC66:
 5708 0c48 556E6861 		.string	"Unhandled exception while constructing fixture FixtureCtorAsserts"
 5708      6E646C65 
 5708      64206578 
 5708      63657074 
 5708      696F6E20 
 5709              		.text
 5710 2687 90       		.align 2
 5712              	_ZNK12_GLOBAL__N_157TestFixtureCtorAssertsCorrectlyReportsAssertFailureInCtor7RunImplEv:
 5713              	.LFB1155:
 5714              		.loc 6 169 0
 5715              		.cfi_startproc
 5716              		.cfi_personality 0x3,__gxx_personality_v0
 5717              		.cfi_lsda 0x3,.LLSDA1155
 5718 2688 55       		pushq	%rbp
 5719              		.cfi_def_cfa_offset 16
 5720              		.cfi_offset 6, -16
 5721 2689 4889E5   		movq	%rsp, %rbp
 5722              		.cfi_def_cfa_register 6
 5723 268c 4154     		pushq	%r12
 5724 268e 53       		pushq	%rbx
 5725 268f 4881ECA0 		subq	$416, %rsp
 5725      010000
 5726              		.cfi_offset 12, -24
 5727              		.cfi_offset 3, -32
 5728 2696 4889BD58 		movq	%rdi, -424(%rbp)
 5728      FEFFFF
 5729              	.LBB119:
 5730              		.loc 6 169 0
 5731 269d C6856FFE 		movb	$0, -401(%rbp)
 5731      FFFF00
 5732              	.LBB120:
 5733 26a4 488B8558 		movq	-424(%rbp), %rax
 5733      FEFFFF
 5734 26ab 488D5008 		leaq	8(%rax), %rdx
 5735 26af 488D8580 		leaq	-384(%rbp), %rax
 5735      FEFFFF
 5736 26b6 4889D6   		movq	%rdx, %rsi
 5737 26b9 4889C7   		movq	%rax, %rdi
 5738              	.LEHB141:
 5739 26bc E85FFFFF 		call	_ZN12_GLOBAL__N_159FixtureCtorAssertsCorrectlyReportsAssertFailureInCtorHelperC1ERKN8UnitTest
 5739      FF
 5740              		.loc 6 169 0 is_stmt 0 discriminator 1
 5741 26c1 C6856FFE 		movb	$1, -401(%rbp)
 5741      FFFF01
 5742 26c8 488B8558 		movq	-424(%rbp), %rax
 5742      FEFFFF
 5743 26cf 488D5008 		leaq	8(%rax), %rdx
 5744 26d3 488D8580 		leaq	-384(%rbp), %rax
 5744      FEFFFF
 5745 26da 4889D6   		movq	%rdx, %rsi
 5746 26dd 4889C7   		movq	%rax, %rdi
 5747 26e0 E8191600 		call	_ZN8UnitTest11ExecuteTestIN12_GLOBAL__N_159FixtureCtorAssertsCorrectlyReportsAssertFailureInC
 5747      00
 5748              	.LEHE141:
 5749              	.LBE120:
 5750              	.LBE119:
 5751              		.loc 6 169 0
 5752 26e5 E9470200 		jmp	.L311
 5752      00
 5753              	.L305:
 5754 26ea 4883FA01 		cmpq	$1, %rdx
 5755 26ee 745C     		je	.L296
 5756 26f0 4883FA02 		cmpq	$2, %rdx
 5757 26f4 0F84F400 		je	.L297
 5757      0000
 5758 26fa E9980100 		jmp	.L310
 5758      00
 5759              	.L306:
 5760 26ff 4889C3   		movq	%rax, %rbx
 5761              	.LBB127:
 5762              	.LBB121:
 5763 2702 E8000000 		call	__cxa_end_catch
 5763      00
 5764 2707 4889D8   		movq	%rbx, %rax
 5765 270a 4889C7   		movq	%rax, %rdi
 5766              	.LEHB142:
 5767 270d E8000000 		call	_Unwind_Resume
 5767      00
 5768              	.LEHE142:
 5769              	.L307:
 5770 2712 4889C3   		movq	%rax, %rbx
 5771              	.LBE121:
 5772              	.LBB122:
 5773              	.LBB123:
 5774 2715 488D8580 		leaq	-384(%rbp), %rax
 5774      FEFFFF
 5775 271c 4889C7   		movq	%rax, %rdi
 5776 271f E8000000 		call	_ZN8UnitTest15MemoryOutStreamD1Ev
 5776      00
 5777 2724 EB03     		jmp	.L300
 5778              	.L308:
 5779 2726 4889C3   		movq	%rax, %rbx
 5780              	.L300:
 5781              	.LBE123:
 5782 2729 E8000000 		call	__cxa_end_catch
 5782      00
 5783 272e 4889D8   		movq	%rbx, %rax
 5784 2731 4889C7   		movq	%rax, %rdi
 5785              	.LEHB143:
 5786 2734 E8000000 		call	_Unwind_Resume
 5786      00
 5787              	.LEHE143:
 5788              	.L309:
 5789 2739 4889C3   		movq	%rax, %rbx
 5790              	.LBE122:
 5791 273c E8000000 		call	__cxa_end_catch
 5791      00
 5792 2741 4889D8   		movq	%rbx, %rax
 5793 2744 4889C7   		movq	%rax, %rdi
 5794              	.LEHB144:
 5795 2747 E8000000 		call	_Unwind_Resume
 5795      00
 5796              	.LEHE144:
 5797              	.L296:
 5798              	.LBB125:
 5799 274c 4889C7   		movq	%rax, %rdi
 5800 274f E8000000 		call	__cxa_begin_catch
 5800      00
 5801 2754 48898570 		movq	%rax, -400(%rbp)
 5801      FEFFFF
 5802 275b 488B8570 		movq	-400(%rbp), %rax
 5802      FEFFFF
 5803 2762 488B00   		movq	(%rax), %rax
 5804 2765 4883C010 		addq	$16, %rax
 5805 2769 488B00   		movq	(%rax), %rax
 5806 276c 488B9570 		movq	-400(%rbp), %rdx
 5806      FEFFFF
 5807 2773 4889D7   		movq	%rdx, %rdi
 5808 2776 FFD0     		call	*%rax
 5809 2778 4889C3   		movq	%rax, %rbx
 5810 277b 488B8570 		movq	-400(%rbp), %rax
 5810      FEFFFF
 5811 2782 4889C7   		movq	%rax, %rdi
 5812              	.LEHB145:
 5813 2785 E8000000 		call	_ZNK8UnitTest15AssertException10LineNumberEv
 5813      00
 5814 278a 4189C4   		movl	%eax, %r12d
 5815 278d 488B8570 		movq	-400(%rbp), %rax
 5815      FEFFFF
 5816 2794 4889C7   		movq	%rax, %rdi
 5817 2797 E8000000 		call	_ZNK8UnitTest15AssertException8FilenameEv
 5817      00
 5818              		.loc 6 169 0 discriminator 1
 5819 279c 4889C1   		movq	%rax, %rcx
 5820 279f 488B8558 		movq	-424(%rbp), %rax
 5820      FEFFFF
 5821 27a6 488B5008 		movq	8(%rax), %rdx
 5822 27aa 488B8558 		movq	-424(%rbp), %rax
 5822      FEFFFF
 5823 27b1 488B7010 		movq	16(%rax), %rsi
 5824 27b5 488D8580 		leaq	-384(%rbp), %rax
 5824      FEFFFF
 5825 27bc 4589E0   		movl	%r12d, %r8d
 5826 27bf 4889C7   		movq	%rax, %rdi
 5827 27c2 E8000000 		call	_ZN8UnitTest11TestDetailsC1EPKcS2_S2_i
 5827      00
 5828              		.loc 6 169 0 discriminator 3
 5829 27c7 E8000000 		call	_ZN8UnitTest11CurrentTest7ResultsEv
 5829      00
 5830 27cc 488B00   		movq	(%rax), %rax
 5831 27cf 488D8D80 		leaq	-384(%rbp), %rcx
 5831      FEFFFF
 5832 27d6 4889DA   		movq	%rbx, %rdx
 5833 27d9 4889CE   		movq	%rcx, %rsi
 5834 27dc 4889C7   		movq	%rax, %rdi
 5835 27df E8000000 		call	_ZN8UnitTest11TestResults13OnTestFailureERKNS_11TestDetailsEPKc
 5835      00
 5836              	.LEHE145:
 5837              		.loc 6 169 0 discriminator 1
 5838 27e4 E8000000 		call	__cxa_end_catch
 5838      00
 5839              	.LBE125:
 5840              	.LBE127:
 5841 27e9 E9430100 		jmp	.L311
 5841      00
 5842              	.L297:
 5843              	.LBB128:
 5844              	.LBB126:
 5845              		.loc 6 169 0
 5846 27ee 4889C7   		movq	%rax, %rdi
 5847 27f1 E8000000 		call	__cxa_begin_catch
 5847      00
 5848 27f6 48898578 		movq	%rax, -392(%rbp)
 5848      FEFFFF
 5849              	.LBB124:
 5850 27fd 488D8580 		leaq	-384(%rbp), %rax
 5850      FEFFFF
 5851 2804 4889C7   		movq	%rax, %rdi
 5852              	.LEHB146:
 5853 2807 E8000000 		call	_ZN8UnitTest15MemoryOutStreamC1Ev
 5853      00
 5854              	.LEHE146:
 5855              		.loc 6 169 0 discriminator 1
 5856 280c 488B8578 		movq	-392(%rbp), %rax
 5856      FEFFFF
 5857 2813 488B00   		movq	(%rax), %rax
 5858 2816 4883C010 		addq	$16, %rax
 5859 281a 488B00   		movq	(%rax), %rax
 5860 281d 488B9578 		movq	-392(%rbp), %rdx
 5860      FEFFFF
 5861 2824 4889D7   		movq	%rdx, %rdi
 5862 2827 FFD0     		call	*%rax
 5863 2829 4889C3   		movq	%rax, %rbx
 5864 282c 488D8580 		leaq	-384(%rbp), %rax
 5864      FEFFFF
 5865 2833 BE000000 		movl	$.LC11, %esi
 5865      00
 5866 2838 4889C7   		movq	%rax, %rdi
 5867              	.LEHB147:
 5868 283b E8000000 		call	_ZStlsISt11char_traitsIcEERSt13basic_ostreamIcT_ES5_PKc
 5868      00
 5869 2840 4889DE   		movq	%rbx, %rsi
 5870 2843 4889C7   		movq	%rax, %rdi
 5871 2846 E8000000 		call	_ZStlsISt11char_traitsIcEERSt13basic_ostreamIcT_ES5_PKc
 5871      00
 5872 284b 488D8580 		leaq	-384(%rbp), %rax
 5872      FEFFFF
 5873 2852 4889C7   		movq	%rax, %rdi
 5874 2855 E8000000 		call	_ZNK8UnitTest15MemoryOutStream7GetTextEv
 5874      00
 5875 285a 4889C3   		movq	%rax, %rbx
 5876 285d 488B8558 		movq	-424(%rbp), %rax
 5876      FEFFFF
 5877 2864 4C8D6008 		leaq	8(%rax), %r12
 5878 2868 E8000000 		call	_ZN8UnitTest11CurrentTest7ResultsEv
 5878      00
 5879 286d 488B00   		movq	(%rax), %rax
 5880 2870 4889DA   		movq	%rbx, %rdx
 5881 2873 4C89E6   		movq	%r12, %rsi
 5882 2876 4889C7   		movq	%rax, %rdi
 5883 2879 E8000000 		call	_ZN8UnitTest11TestResults13OnTestFailureERKNS_11TestDetailsEPKc
 5883      00
 5884              	.LEHE147:
 5885 287e 488D8580 		leaq	-384(%rbp), %rax
 5885      FEFFFF
 5886 2885 4889C7   		movq	%rax, %rdi
 5887              	.LEHB148:
 5888 2888 E8000000 		call	_ZN8UnitTest15MemoryOutStreamD1Ev
 5888      00
 5889              	.LEHE148:
 5890              	.LBE124:
 5891              		.loc 6 169 0
 5892 288d E8000000 		call	__cxa_end_catch
 5892      00
 5893              	.LBE126:
 5894              	.LBE128:
 5895 2892 E99A0000 		jmp	.L311
 5895      00
 5896              	.L310:
 5897              	.LBB129:
 5898 2897 4889C7   		movq	%rax, %rdi
 5899 289a E8000000 		call	__cxa_begin_catch
 5899      00
 5900 289f 80BD6FFE 		cmpb	$0, -401(%rbp)
 5900      FFFF00
 5901 28a6 7443     		je	.L303
 5902              		.loc 6 169 0 discriminator 1
 5903 28a8 488B8558 		movq	-424(%rbp), %rax
 5903      FEFFFF
 5904 28af 488D4808 		leaq	8(%rax), %rcx
 5905 28b3 488D8580 		leaq	-384(%rbp), %rax
 5905      FEFFFF
 5906 28ba BAA90000 		movl	$169, %edx
 5906      00
 5907 28bf 4889CE   		movq	%rcx, %rsi
 5908 28c2 4889C7   		movq	%rax, %rdi
 5909              	.LEHB149:
 5910 28c5 E8000000 		call	_ZN8UnitTest11TestDetailsC1ERKS0_i
 5910      00
 5911 28ca E8000000 		call	_ZN8UnitTest11CurrentTest7ResultsEv
 5911      00
 5912 28cf 488B00   		movq	(%rax), %rax
 5913 28d2 488D8D80 		leaq	-384(%rbp), %rcx
 5913      FEFFFF
 5914 28d9 BA000000 		movl	$.LC65, %edx
 5914      00
 5915 28de 4889CE   		movq	%rcx, %rsi
 5916 28e1 4889C7   		movq	%rax, %rdi
 5917 28e4 E8000000 		call	_ZN8UnitTest11TestResults13OnTestFailureERKNS_11TestDetailsEPKc
 5917      00
 5918 28e9 EB41     		jmp	.L304
 5919              	.L303:
 5920              		.loc 6 169 0 discriminator 2
 5921 28eb 488B8558 		movq	-424(%rbp), %rax
 5921      FEFFFF
 5922 28f2 488D4808 		leaq	8(%rax), %rcx
 5923 28f6 488D8580 		leaq	-384(%rbp), %rax
 5923      FEFFFF
 5924 28fd BAA90000 		movl	$169, %edx
 5924      00
 5925 2902 4889CE   		movq	%rcx, %rsi
 5926 2905 4889C7   		movq	%rax, %rdi
 5927 2908 E8000000 		call	_ZN8UnitTest11TestDetailsC1ERKS0_i
 5927      00
 5928              		.loc 6 169 0 discriminator 1
 5929 290d E8000000 		call	_ZN8UnitTest11CurrentTest7ResultsEv
 5929      00
 5930 2912 488B00   		movq	(%rax), %rax
 5931 2915 488D8D80 		leaq	-384(%rbp), %rcx
 5931      FEFFFF
 5932 291c BA000000 		movl	$.LC66, %edx
 5932      00
 5933 2921 4889CE   		movq	%rcx, %rsi
 5934 2924 4889C7   		movq	%rax, %rdi
 5935 2927 E8000000 		call	_ZN8UnitTest11TestResults13OnTestFailureERKNS_11TestDetailsEPKc
 5935      00
 5936              	.LEHE149:
 5937              	.L304:
 5938              	.LEHB150:
 5939 292c E8000000 		call	__cxa_end_catch
 5939      00
 5940              	.LEHE150:
 5941              	.L311:
 5942              	.LBE129:
 5943              		.loc 6 169 0
 5944 2931 90       		nop
 5945 2932 4881C4A0 		addq	$416, %rsp
 5945      010000
 5946 2939 5B       		popq	%rbx
 5947 293a 415C     		popq	%r12
 5948 293c 5D       		popq	%rbp
 5949              		.cfi_def_cfa 7, 8
 5950 293d C3       		ret
 5951              		.cfi_endproc
 5952              	.LFE1155:
 5953              		.section	.gcc_except_table
 5954              		.align 4
 5955              	.LLSDA1155:
 5956 03bc FF       		.byte	0xff
 5957 03bd 03       		.byte	0x3
 5958 03be 49       		.uleb128 .LLSDATT1155-.LLSDATTD1155
 5959              	.LLSDATTD1155:
 5960 03bf 01       		.byte	0x1
 5961 03c0 35       		.uleb128 .LLSDACSE1155-.LLSDACSB1155
 5962              	.LLSDACSB1155:
 5963 03c1 34       		.uleb128 .LEHB141-.LFB1155
 5964 03c2 29       		.uleb128 .LEHE141-.LEHB141
 5965 03c3 62       		.uleb128 .L305-.LFB1155
 5966 03c4 05       		.uleb128 0x5
 5967 03c5 8501     		.uleb128 .LEHB142-.LFB1155
 5968 03c7 05       		.uleb128 .LEHE142-.LEHB142
 5969 03c8 00       		.uleb128 0
 5970 03c9 00       		.uleb128 0
 5971 03ca AC01     		.uleb128 .LEHB143-.LFB1155
 5972 03cc 05       		.uleb128 .LEHE143-.LEHB143
 5973 03cd 00       		.uleb128 0
 5974 03ce 00       		.uleb128 0
 5975 03cf BF01     		.uleb128 .LEHB144-.LFB1155
 5976 03d1 05       		.uleb128 .LEHE144-.LEHB144
 5977 03d2 00       		.uleb128 0
 5978 03d3 00       		.uleb128 0
 5979 03d4 FD01     		.uleb128 .LEHB145-.LFB1155
 5980 03d6 5F       		.uleb128 .LEHE145-.LEHB145
 5981 03d7 77       		.uleb128 .L306-.LFB1155
 5982 03d8 00       		.uleb128 0
 5983 03d9 FF02     		.uleb128 .LEHB146-.LFB1155
 5984 03db 05       		.uleb128 .LEHE146-.LEHB146
 5985 03dc 9E01     		.uleb128 .L308-.LFB1155
 5986 03de 00       		.uleb128 0
 5987 03df B303     		.uleb128 .LEHB147-.LFB1155
 5988 03e1 43       		.uleb128 .LEHE147-.LEHB147
 5989 03e2 8A01     		.uleb128 .L307-.LFB1155
 5990 03e4 00       		.uleb128 0
 5991 03e5 8004     		.uleb128 .LEHB148-.LFB1155
 5992 03e7 05       		.uleb128 .LEHE148-.LEHB148
 5993 03e8 9E01     		.uleb128 .L308-.LFB1155
 5994 03ea 00       		.uleb128 0
 5995 03eb BD04     		.uleb128 .LEHB149-.LFB1155
 5996 03ed 67       		.uleb128 .LEHE149-.LEHB149
 5997 03ee B101     		.uleb128 .L309-.LFB1155
 5998 03f0 00       		.uleb128 0
 5999 03f1 A405     		.uleb128 .LEHB150-.LFB1155
 6000 03f3 05       		.uleb128 .LEHE150-.LEHB150
 6001 03f4 00       		.uleb128 0
 6002 03f5 00       		.uleb128 0
 6003              	.LLSDACSE1155:
 6004 03f6 03       		.byte	0x3
 6005 03f7 00       		.byte	0
 6006 03f8 02       		.byte	0x2
 6007 03f9 7D       		.byte	0x7d
 6008 03fa 01       		.byte	0x1
 6009 03fb 7D       		.byte	0x7d
 6010              		.align 4
 6011 03fc 00000000 		.long	0
 6012              	
 6013 0400 00000000 		.long	_ZTISt9exception
 6014 0404 00000000 		.long	_ZTIN8UnitTest15AssertExceptionE
 6015              	.LLSDATT1155:
 6016              		.text
 6018              		.align 2
 6020              	_ZN12_GLOBAL__N_159FixtureCtorAssertsCorrectlyReportsAssertFailureInCtorHelper7RunImplEv:
 6021              	.LFB1156:
 170:TestTestMacros.cpp **** {
 6022              		.loc 6 170 0 is_stmt 1
 6023              		.cfi_startproc
 6024 293e 55       		pushq	%rbp
 6025              		.cfi_def_cfa_offset 16
 6026              		.cfi_offset 6, -16
 6027 293f 4889E5   		movq	%rsp, %rbp
 6028              		.cfi_def_cfa_register 6
 6029 2942 48897DF8 		movq	%rdi, -8(%rbp)
 171:TestTestMacros.cpp **** }
 6030              		.loc 6 171 0
 6031 2946 5D       		popq	%rbp
 6032              		.cfi_def_cfa 7, 8
 6033 2947 C3       		ret
 6034              		.cfi_endproc
 6035              	.LFE1156:
 6037              		.section	.rodata
 6038 0c8a 00000000 		.align 8
 6038      0000
 6039              	.LC67:
 6040 0c90 436F7272 		.string	"CorrectlyReportsFixturesWithCtorsThatAssert"
 6040      6563746C 
 6040      79526570 
 6040      6F727473 
 6040      46697874 
 6041              		.text
 6042              		.align 2
 6044              	_ZN12_GLOBAL__N_147TestCorrectlyReportsFixturesWithCtorsThatAssertC2Ev:
 6045              	.LFB1158:
 172:TestTestMacros.cpp **** 
 173:TestTestMacros.cpp **** TEST(CorrectlyReportsFixturesWithCtorsThatAssert)
 6046              		.loc 6 173 0
 6047              		.cfi_startproc
 6048 2948 55       		pushq	%rbp
 6049              		.cfi_def_cfa_offset 16
 6050              		.cfi_offset 6, -16
 6051 2949 4889E5   		movq	%rsp, %rbp
 6052              		.cfi_def_cfa_register 6
 6053 294c 4883EC10 		subq	$16, %rsp
 6054 2950 48897DF8 		movq	%rdi, -8(%rbp)
 6055              	.LBB130:
 6056              		.loc 6 173 0
 6057 2954 E8000000 		call	_ZN13UnitTestSuite12GetSuiteNameEv
 6057      00
 6058 2959 4889C2   		movq	%rax, %rdx
 6059 295c 488B45F8 		movq	-8(%rbp), %rax
 6060 2960 41B8AD00 		movl	$173, %r8d
 6060      0000
 6061 2966 B9000000 		movl	$.LC2, %ecx
 6061      00
 6062 296b BE000000 		movl	$.LC67, %esi
 6062      00
 6063 2970 4889C7   		movq	%rax, %rdi
 6064 2973 E8000000 		call	_ZN8UnitTest4TestC2EPKcS2_S2_i
 6064      00
 6065 2978 488B45F8 		movq	-8(%rbp), %rax
 6066 297c 48C70000 		movq	$_ZTVN12_GLOBAL__N_147TestCorrectlyReportsFixturesWithCtorsThatAssertE+16, (%rax)
 6066      000000
 6067              	.LBE130:
 6068 2983 C9       		leave
 6069              		.cfi_def_cfa 7, 8
 6070 2984 C3       		ret
 6071              		.cfi_endproc
 6072              	.LFE1158:
 6074              		.set	_ZN12_GLOBAL__N_147TestCorrectlyReportsFixturesWithCtorsThatAssertC1Ev,_ZN12_GLOBAL__N_147Tes
 6075              		.local	_ZN12_GLOBAL__N_155testCorrectlyReportsFixturesWithCtorsThatAssertInstanceE
 6076              		.comm	_ZN12_GLOBAL__N_155testCorrectlyReportsFixturesWithCtorsThatAssertInstanceE,56,32
 6077              		.local	_ZN12_GLOBAL__N_148adderCorrectlyReportsFixturesWithCtorsThatAssertE
 6078              		.comm	_ZN12_GLOBAL__N_148adderCorrectlyReportsFixturesWithCtorsThatAssertE,1,1
 6079              		.section	.rodata
 6080 0cbc 00000000 		.align 8
 6081              	.LC68:
 6082 0cc0 73747273 		.string	"strstr(reporter.lastFailedMessage, \"assert failure\")"
 6082      74722872 
 6082      65706F72 
 6082      7465722E 
 6082      6C617374 
 6083 0cf5 000000   		.align 8
 6084              	.LC69:
 6085 0cf8 556E6861 		.string	"Unhandled exception in CHECK_EQUAL(FailingLine, reporter.lastFailedLine)"
 6085      6E646C65 
 6085      64206578 
 6085      63657074 
 6085      696F6E20 
 6086 0d41 00000000 		.align 8
 6086      000000
 6087              	.LC70:
 6088 0d48 556E6861 		.string	"Unhandled exception in CHECK(strstr(reporter.lastFailedMessage, \"assert failure\"))"
 6088      6E646C65 
 6088      64206578 
 6088      63657074 
 6088      696F6E20 
 6089              		.text
 6090 2985 90       		.align 2
 6092              	_ZNK12_GLOBAL__N_147TestCorrectlyReportsFixturesWithCtorsThatAssert7RunImplEv:
 6093              	.LFB1160:
 174:TestTestMacros.cpp **** {
 6094              		.loc 6 174 0
 6095              		.cfi_startproc
 6096              		.cfi_personality 0x3,__gxx_personality_v0
 6097              		.cfi_lsda 0x3,.LLSDA1160
 6098 2986 55       		pushq	%rbp
 6099              		.cfi_def_cfa_offset 16
 6100              		.cfi_offset 6, -16
 6101 2987 4889E5   		movq	%rsp, %rbp
 6102              		.cfi_def_cfa_register 6
 6103 298a 53       		pushq	%rbx
 6104 298b 4881ECA8 		subq	$2216, %rsp
 6104      080000
 6105              		.cfi_offset 3, -24
 6106 2992 4889BD58 		movq	%rdi, -2216(%rbp)
 6106      F7FFFF
 6107              		.loc 6 174 0
 6108 2999 64488B04 		movq	%fs:40, %rax
 6108      25280000 
 6108      00
 6109 29a2 488945E8 		movq	%rax, -24(%rbp)
 6110 29a6 31C0     		xorl	%eax, %eax
 6111              	.LBB131:
 175:TestTestMacros.cpp **** 	RecordingReporter reporter;
 6112              		.loc 6 175 0
 6113 29a8 488D85B0 		leaq	-2128(%rbp), %rax
 6113      F7FFFF
 6114 29af 4889C7   		movq	%rax, %rdi
 6115 29b2 E8000000 		call	_ZN17RecordingReporterC1Ev
 6115      00
 176:TestTestMacros.cpp **** 	TestResults result(&reporter);
 6116              		.loc 6 176 0
 6117 29b7 488D95B0 		leaq	-2128(%rbp), %rdx
 6117      F7FFFF
 6118 29be 488D8570 		leaq	-2192(%rbp), %rax
 6118      F7FFFF
 6119 29c5 4889D6   		movq	%rdx, %rsi
 6120 29c8 4889C7   		movq	%rax, %rdi
 6121              	.LEHB151:
 6122 29cb E8000000 		call	_ZN8UnitTest11TestResultsC1EPNS_12TestReporterE
 6122      00
 6123              	.LBB132:
 177:TestTestMacros.cpp **** 	{
 178:TestTestMacros.cpp **** 		ScopedCurrentTest scopedResults(result);
 6124              		.loc 6 178 0
 6125 29d0 488D8D70 		leaq	-2192(%rbp), %rcx
 6125      F7FFFF
 6126 29d7 488D8590 		leaq	-2160(%rbp), %rax
 6126      F7FFFF
 6127 29de BA000000 		movl	$0, %edx
 6127      00
 6128 29e3 4889CE   		movq	%rcx, %rsi
 6129 29e6 4889C7   		movq	%rax, %rdi
 6130 29e9 E8000000 		call	_ZN17ScopedCurrentTestC1ERN8UnitTest11TestResultsEPKNS0_11TestDetailsE
 6130      00
 6131              	.LEHE151:
 179:TestTestMacros.cpp **** 		ctorAssertFixtureTestList.GetHead()->Run();
 6132              		.loc 6 179 0
 6133 29ee BF000000 		movl	$_ZN12_GLOBAL__N_125ctorAssertFixtureTestListE, %edi
 6133      00
 6134              	.LEHB152:
 6135 29f3 E8000000 		call	_ZNK8UnitTest8TestList7GetHeadEv
 6135      00
 6136 29f8 4889C7   		movq	%rax, %rdi
 6137 29fb E8000000 		call	_ZN8UnitTest4Test3RunEv
 6137      00
 6138              	.LEHE152:
 6139              		.loc 6 179 0 is_stmt 0 discriminator 1
 6140 2a00 488D8590 		leaq	-2160(%rbp), %rax
 6140      F7FFFF
 6141 2a07 4889C7   		movq	%rax, %rdi
 6142              	.LEHB153:
 6143 2a0a E8000000 		call	_ZN17ScopedCurrentTestD1Ev
 6143      00
 6144              	.LBE132:
 180:TestTestMacros.cpp **** 	}
 181:TestTestMacros.cpp **** 
 182:TestTestMacros.cpp **** 	const int failureCount = result.GetFailedTestCount();
 6145              		.loc 6 182 0 is_stmt 1
 6146 2a0f 488D8570 		leaq	-2192(%rbp), %rax
 6146      F7FFFF
 6147 2a16 4889C7   		movq	%rax, %rdi
 6148 2a19 E8000000 		call	_ZNK8UnitTest11TestResults18GetFailedTestCountEv
 6148      00
 6149              	.LEHE153:
 6150 2a1e 898568F7 		movl	%eax, -2200(%rbp)
 6150      FFFF
 6151              	.LEHB154:
 183:TestTestMacros.cpp **** 	CHECK_EQUAL(1, failureCount);
 6152              		.loc 6 183 0
 6153 2a24 E8000000 		call	_ZN8UnitTest11CurrentTest7DetailsEv
 6153      00
 6154              		.loc 6 183 0 is_stmt 0 discriminator 1
 6155 2a29 488B08   		movq	(%rax), %rcx
 6156 2a2c 488D8590 		leaq	-2160(%rbp), %rax
 6156      F7FFFF
 6157 2a33 BAB70000 		movl	$183, %edx
 6157      00
 6158 2a38 4889CE   		movq	%rcx, %rsi
 6159 2a3b 4889C7   		movq	%rax, %rdi
 6160 2a3e E8000000 		call	_ZN8UnitTest11TestDetailsC1ERKS0_i
 6160      00
 6161 2a43 C7856CF7 		movl	$1, -2196(%rbp)
 6161      FFFF0100 
 6161      0000
 6162 2a4d E8000000 		call	_ZN8UnitTest11CurrentTest7ResultsEv
 6162      00
 6163 2a52 488B00   		movq	(%rax), %rax
 6164 2a55 488D8D90 		leaq	-2160(%rbp), %rcx
 6164      F7FFFF
 6165 2a5c 488D9568 		leaq	-2200(%rbp), %rdx
 6165      F7FFFF
 6166 2a63 488DB56C 		leaq	-2196(%rbp), %rsi
 6166      F7FFFF
 6167 2a6a 4889C7   		movq	%rax, %rdi
 6168 2a6d E8000000 		call	_ZN8UnitTest10CheckEqualIiiEEvRNS_11TestResultsERKT_RKT0_RKNS_11TestDetailsE
 6168      00
 6169              	.LEHE154:
 6170              	.L320:
 6171              	.LEHB155:
 184:TestTestMacros.cpp **** 	CHECK_EQUAL(FailingLine, reporter.lastFailedLine);
 6172              		.loc 6 184 0 is_stmt 1
 6173 2a72 E8000000 		call	_ZN8UnitTest11CurrentTest7DetailsEv
 6173      00
 6174 2a77 488B08   		movq	(%rax), %rcx
 6175 2a7a 488D8590 		leaq	-2160(%rbp), %rax
 6175      F7FFFF
 6176 2a81 BAB80000 		movl	$184, %edx
 6176      00
 6177 2a86 4889CE   		movq	%rcx, %rsi
 6178 2a89 4889C7   		movq	%rax, %rdi
 6179 2a8c E8000000 		call	_ZN8UnitTest11TestDetailsC1ERKS0_i
 6179      00
 6180              		.loc 6 184 0 is_stmt 0 discriminator 1
 6181 2a91 E8000000 		call	_ZN8UnitTest11CurrentTest7ResultsEv
 6181      00
 6182 2a96 488B00   		movq	(%rax), %rax
 6183 2a99 488D9590 		leaq	-2160(%rbp), %rdx
 6183      F7FFFF
 6184 2aa0 488D8DB0 		leaq	-2128(%rbp), %rcx
 6184      F7FFFF
 6185 2aa7 488DB110 		leaq	784(%rcx), %rsi
 6185      030000
 6186 2aae 4889D1   		movq	%rdx, %rcx
 6187 2ab1 4889F2   		movq	%rsi, %rdx
 6188 2ab4 BE000000 		movl	$_ZN12_GLOBAL__N_1L11FailingLineE, %esi
 6188      00
 6189 2ab9 4889C7   		movq	%rax, %rdi
 6190 2abc E8000000 		call	_ZN8UnitTest10CheckEqualIiiEEvRNS_11TestResultsERKT_RKT0_RKNS_11TestDetailsE
 6190      00
 6191              	.LEHE155:
 6192              	.L323:
 185:TestTestMacros.cpp **** 	CHECK(strstr(reporter.lastFailedMessage, "assert failure"));
 6193              		.loc 6 185 0 is_stmt 1
 6194 2ac1 488D85B0 		leaq	-2128(%rbp), %rax
 6194      F7FFFF
 6195 2ac8 48051405 		addq	$1300, %rax
 6195      0000
 6196 2ace BE000000 		movl	$.LC63, %esi
 6196      00
 6197 2ad3 4889C7   		movq	%rax, %rdi
 6198 2ad6 E8000000 		call	strstr
 6198      00
 6199 2adb 4889C7   		movq	%rax, %rdi
 6200 2ade E8000000 		call	_ZN8UnitTest5CheckIPcEEbT_
 6200      00
 6201 2ae3 83F001   		xorl	$1, %eax
 6202 2ae6 84C0     		testb	%al, %al
 6203 2ae8 743E     		je	.L315
 6204              	.LEHB156:
 6205              		.loc 6 185 0 is_stmt 0 discriminator 1
 6206 2aea E8000000 		call	_ZN8UnitTest11CurrentTest7DetailsEv
 6206      00
 6207 2aef 488B08   		movq	(%rax), %rcx
 6208 2af2 488D8590 		leaq	-2160(%rbp), %rax
 6208      F7FFFF
 6209 2af9 BAB90000 		movl	$185, %edx
 6209      00
 6210 2afe 4889CE   		movq	%rcx, %rsi
 6211 2b01 4889C7   		movq	%rax, %rdi
 6212 2b04 E8000000 		call	_ZN8UnitTest11TestDetailsC1ERKS0_i
 6212      00
 6213 2b09 E8000000 		call	_ZN8UnitTest11CurrentTest7ResultsEv
 6213      00
 6214 2b0e 488B00   		movq	(%rax), %rax
 6215 2b11 488D8D90 		leaq	-2160(%rbp), %rcx
 6215      F7FFFF
 6216 2b18 BA000000 		movl	$.LC68, %edx
 6216      00
 6217 2b1d 4889CE   		movq	%rcx, %rsi
 6218 2b20 4889C7   		movq	%rax, %rdi
 6219 2b23 E8000000 		call	_ZN8UnitTest11TestResults13OnTestFailureERKNS_11TestDetailsEPKc
 6219      00
 6220              	.LEHE156:
 6221              	.L315:
 6222              		.loc 6 185 0 discriminator 2
 6223 2b28 488D85B0 		leaq	-2128(%rbp), %rax
 6223      F7FFFF
 6224 2b2f 4889C7   		movq	%rax, %rdi
 6225              	.LEHB157:
 6226 2b32 E8000000 		call	_ZN17RecordingReporterD1Ev
 6226      00
 6227              	.LEHE157:
 6228              	.LBE131:
 186:TestTestMacros.cpp **** }
 6229              		.loc 6 186 0 is_stmt 1 discriminator 2
 6230 2b37 488B45E8 		movq	-24(%rbp), %rax
 6231 2b3b 64483304 		xorq	%fs:40, %rax
 6231      25280000 
 6231      00
 6232 2b44 0F845201 		je	.L326
 6232      0000
 6233 2b4a E9480100 		jmp	.L335
 6233      00
 6234              	.L328:
 6235 2b4f 4889C3   		movq	%rax, %rbx
 6236              	.LBB134:
 6237              	.LBB133:
 179:TestTestMacros.cpp **** 	}
 6238              		.loc 6 179 0
 6239 2b52 488D8590 		leaq	-2160(%rbp), %rax
 6239      F7FFFF
 6240 2b59 4889C7   		movq	%rax, %rdi
 6241 2b5c E8000000 		call	_ZN17ScopedCurrentTestD1Ev
 6241      00
 6242 2b61 E9170100 		jmp	.L317
 6242      00
 6243              	.L330:
 6244 2b66 4889C3   		movq	%rax, %rbx
 6245              	.LBE133:
 183:TestTestMacros.cpp **** 	CHECK_EQUAL(FailingLine, reporter.lastFailedLine);
 6246              		.loc 6 183 0
 6247 2b69 E8000000 		call	__cxa_end_catch
 6247      00
 6248 2b6e E90A0100 		jmp	.L317
 6248      00
 6249              	.L329:
 6250 2b73 4889C7   		movq	%rax, %rdi
 6251 2b76 E8000000 		call	__cxa_begin_catch
 6251      00
 6252              	.LEHB158:
 6253 2b7b E8000000 		call	_ZN8UnitTest11CurrentTest7DetailsEv
 6253      00
 6254 2b80 488B08   		movq	(%rax), %rcx
 6255 2b83 488D8590 		leaq	-2160(%rbp), %rax
 6255      F7FFFF
 6256 2b8a BAB70000 		movl	$183, %edx
 6256      00
 6257 2b8f 4889CE   		movq	%rcx, %rsi
 6258 2b92 4889C7   		movq	%rax, %rdi
 6259 2b95 E8000000 		call	_ZN8UnitTest11TestDetailsC1ERKS0_i
 6259      00
 183:TestTestMacros.cpp **** 	CHECK_EQUAL(FailingLine, reporter.lastFailedLine);
 6260              		.loc 6 183 0 is_stmt 0 discriminator 1
 6261 2b9a E8000000 		call	_ZN8UnitTest11CurrentTest7ResultsEv
 6261      00
 6262 2b9f 488B00   		movq	(%rax), %rax
 6263 2ba2 488D8D90 		leaq	-2160(%rbp), %rcx
 6263      F7FFFF
 6264 2ba9 BA000000 		movl	$.LC51, %edx
 6264      00
 6265 2bae 4889CE   		movq	%rcx, %rsi
 6266 2bb1 4889C7   		movq	%rax, %rdi
 6267 2bb4 E8000000 		call	_ZN8UnitTest11TestResults13OnTestFailureERKNS_11TestDetailsEPKc
 6267      00
 6268              	.LEHE158:
 6269              	.LEHB159:
 6270 2bb9 E8000000 		call	__cxa_end_catch
 6270      00
 6271              	.LEHE159:
 183:TestTestMacros.cpp **** 	CHECK_EQUAL(FailingLine, reporter.lastFailedLine);
 6272              		.loc 6 183 0
 6273 2bbe E9AFFEFF 		jmp	.L320
 6273      FF
 6274              	.L332:
 6275 2bc3 4889C3   		movq	%rax, %rbx
 184:TestTestMacros.cpp **** 	CHECK(strstr(reporter.lastFailedMessage, "assert failure"));
 6276              		.loc 6 184 0 is_stmt 1
 6277 2bc6 E8000000 		call	__cxa_end_catch
 6277      00
 6278 2bcb E9AD0000 		jmp	.L317
 6278      00
 6279              	.L331:
 6280 2bd0 4889C7   		movq	%rax, %rdi
 6281 2bd3 E8000000 		call	__cxa_begin_catch
 6281      00
 6282              	.LEHB160:
 6283 2bd8 E8000000 		call	_ZN8UnitTest11CurrentTest7DetailsEv
 6283      00
 6284 2bdd 488B08   		movq	(%rax), %rcx
 6285 2be0 488D8590 		leaq	-2160(%rbp), %rax
 6285      F7FFFF
 6286 2be7 BAB80000 		movl	$184, %edx
 6286      00
 6287 2bec 4889CE   		movq	%rcx, %rsi
 6288 2bef 4889C7   		movq	%rax, %rdi
 6289 2bf2 E8000000 		call	_ZN8UnitTest11TestDetailsC1ERKS0_i
 6289      00
 184:TestTestMacros.cpp **** 	CHECK(strstr(reporter.lastFailedMessage, "assert failure"));
 6290              		.loc 6 184 0 is_stmt 0 discriminator 1
 6291 2bf7 E8000000 		call	_ZN8UnitTest11CurrentTest7ResultsEv
 6291      00
 6292 2bfc 488B00   		movq	(%rax), %rax
 6293 2bff 488D8D90 		leaq	-2160(%rbp), %rcx
 6293      F7FFFF
 6294 2c06 BA000000 		movl	$.LC69, %edx
 6294      00
 6295 2c0b 4889CE   		movq	%rcx, %rsi
 6296 2c0e 4889C7   		movq	%rax, %rdi
 6297 2c11 E8000000 		call	_ZN8UnitTest11TestResults13OnTestFailureERKNS_11TestDetailsEPKc
 6297      00
 6298              	.LEHE160:
 6299              	.LEHB161:
 6300 2c16 E8000000 		call	__cxa_end_catch
 6300      00
 6301              	.LEHE161:
 184:TestTestMacros.cpp **** 	CHECK(strstr(reporter.lastFailedMessage, "assert failure"));
 6302              		.loc 6 184 0
 6303 2c1b E9A1FEFF 		jmp	.L323
 6303      FF
 6304              	.L334:
 6305 2c20 4889C3   		movq	%rax, %rbx
 185:TestTestMacros.cpp **** }
 6306              		.loc 6 185 0 is_stmt 1
 6307 2c23 E8000000 		call	__cxa_end_catch
 6307      00
 6308 2c28 EB53     		jmp	.L317
 6309              	.L333:
 6310 2c2a 4889C7   		movq	%rax, %rdi
 6311 2c2d E8000000 		call	__cxa_begin_catch
 6311      00
 6312              	.LEHB162:
 6313 2c32 E8000000 		call	_ZN8UnitTest11CurrentTest7DetailsEv
 6313      00
 6314 2c37 488B08   		movq	(%rax), %rcx
 6315 2c3a 488D8590 		leaq	-2160(%rbp), %rax
 6315      F7FFFF
 6316 2c41 BAB90000 		movl	$185, %edx
 6316      00
 6317 2c46 4889CE   		movq	%rcx, %rsi
 6318 2c49 4889C7   		movq	%rax, %rdi
 6319 2c4c E8000000 		call	_ZN8UnitTest11TestDetailsC1ERKS0_i
 6319      00
 185:TestTestMacros.cpp **** }
 6320              		.loc 6 185 0 is_stmt 0 discriminator 1
 6321 2c51 E8000000 		call	_ZN8UnitTest11CurrentTest7ResultsEv
 6321      00
 6322 2c56 488B00   		movq	(%rax), %rax
 6323 2c59 488D8D90 		leaq	-2160(%rbp), %rcx
 6323      F7FFFF
 6324 2c60 BA000000 		movl	$.LC70, %edx
 6324      00
 6325 2c65 4889CE   		movq	%rcx, %rsi
 6326 2c68 4889C7   		movq	%rax, %rdi
 6327 2c6b E8000000 		call	_ZN8UnitTest11TestResults13OnTestFailureERKNS_11TestDetailsEPKc
 6327      00
 6328              	.LEHE162:
 6329              	.LEHB163:
 6330 2c70 E8000000 		call	__cxa_end_catch
 6330      00
 6331              	.LEHE163:
 185:TestTestMacros.cpp **** }
 6332              		.loc 6 185 0
 6333 2c75 E9AEFEFF 		jmp	.L315
 6333      FF
 6334              	.L327:
 6335 2c7a 4889C3   		movq	%rax, %rbx
 6336              	.L317:
 6337 2c7d 488D85B0 		leaq	-2128(%rbp), %rax
 6337      F7FFFF
 6338 2c84 4889C7   		movq	%rax, %rdi
 6339 2c87 E8000000 		call	_ZN17RecordingReporterD1Ev
 6339      00
 6340 2c8c 4889D8   		movq	%rbx, %rax
 6341 2c8f 4889C7   		movq	%rax, %rdi
 6342              	.LEHB164:
 6343 2c92 E8000000 		call	_Unwind_Resume
 6343      00
 6344              	.LEHE164:
 6345              	.L335:
 6346              	.LBE134:
 6347              		.loc 6 186 0 is_stmt 1
 6348 2c97 E8000000 		call	__stack_chk_fail
 6348      00
 6349              	.L326:
 6350 2c9c 4881C4A8 		addq	$2216, %rsp
 6350      080000
 6351 2ca3 5B       		popq	%rbx
 6352 2ca4 5D       		popq	%rbp
 6353              		.cfi_def_cfa 7, 8
 6354 2ca5 C3       		ret
 6355              		.cfi_endproc
 6356              	.LFE1160:
 6357              		.section	.gcc_except_table
 6358              		.align 4
 6359              	.LLSDA1160:
 6360 0408 FF       		.byte	0xff
 6361 0409 03       		.byte	0x3
 6362 040a 59       		.uleb128 .LLSDATT1160-.LLSDATTD1160
 6363              	.LLSDATTD1160:
 6364 040b 01       		.byte	0x1
 6365 040c 50       		.uleb128 .LLSDACSE1160-.LLSDACSB1160
 6366              	.LLSDACSB1160:
 6367 040d 45       		.uleb128 .LEHB151-.LFB1160
 6368 040e 23       		.uleb128 .LEHE151-.LEHB151
 6369 040f F405     		.uleb128 .L327-.LFB1160
 6370 0411 00       		.uleb128 0
 6371 0412 6D       		.uleb128 .LEHB152-.LFB1160
 6372 0413 0D       		.uleb128 .LEHE152-.LEHB152
 6373 0414 C903     		.uleb128 .L328-.LFB1160
 6374 0416 00       		.uleb128 0
 6375 0417 8401     		.uleb128 .LEHB153-.LFB1160
 6376 0419 14       		.uleb128 .LEHE153-.LEHB153
 6377 041a F405     		.uleb128 .L327-.LFB1160
 6378 041c 00       		.uleb128 0
 6379 041d 9E01     		.uleb128 .LEHB154-.LFB1160
 6380 041f 4E       		.uleb128 .LEHE154-.LEHB154
 6381 0420 ED03     		.uleb128 .L329-.LFB1160
 6382 0422 01       		.uleb128 0x1
 6383 0423 EC01     		.uleb128 .LEHB155-.LFB1160
 6384 0425 4F       		.uleb128 .LEHE155-.LEHB155
 6385 0426 CA04     		.uleb128 .L331-.LFB1160
 6386 0428 01       		.uleb128 0x1
 6387 0429 E402     		.uleb128 .LEHB156-.LFB1160
 6388 042b 3E       		.uleb128 .LEHE156-.LEHB156
 6389 042c A405     		.uleb128 .L333-.LFB1160
 6390 042e 01       		.uleb128 0x1
 6391 042f AC03     		.uleb128 .LEHB157-.LFB1160
 6392 0431 05       		.uleb128 .LEHE157-.LEHB157
 6393 0432 00       		.uleb128 0
 6394 0433 00       		.uleb128 0
 6395 0434 F503     		.uleb128 .LEHB158-.LFB1160
 6396 0436 3E       		.uleb128 .LEHE158-.LEHB158
 6397 0437 E003     		.uleb128 .L330-.LFB1160
 6398 0439 00       		.uleb128 0
 6399 043a B304     		.uleb128 .LEHB159-.LFB1160
 6400 043c 05       		.uleb128 .LEHE159-.LEHB159
 6401 043d F405     		.uleb128 .L327-.LFB1160
 6402 043f 00       		.uleb128 0
 6403 0440 D204     		.uleb128 .LEHB160-.LFB1160
 6404 0442 3E       		.uleb128 .LEHE160-.LEHB160
 6405 0443 BD04     		.uleb128 .L332-.LFB1160
 6406 0445 00       		.uleb128 0
 6407 0446 9005     		.uleb128 .LEHB161-.LFB1160
 6408 0448 05       		.uleb128 .LEHE161-.LEHB161
 6409 0449 F405     		.uleb128 .L327-.LFB1160
 6410 044b 00       		.uleb128 0
 6411 044c AC05     		.uleb128 .LEHB162-.LFB1160
 6412 044e 3E       		.uleb128 .LEHE162-.LEHB162
 6413 044f 9A05     		.uleb128 .L334-.LFB1160
 6414 0451 00       		.uleb128 0
 6415 0452 EA05     		.uleb128 .LEHB163-.LFB1160
 6416 0454 05       		.uleb128 .LEHE163-.LEHB163
 6417 0455 F405     		.uleb128 .L327-.LFB1160
 6418 0457 00       		.uleb128 0
 6419 0458 8C06     		.uleb128 .LEHB164-.LFB1160
 6420 045a 05       		.uleb128 .LEHE164-.LEHB164
 6421 045b 00       		.uleb128 0
 6422 045c 00       		.uleb128 0
 6423              	.LLSDACSE1160:
 6424 045d 01       		.byte	0x1
 6425 045e 00       		.byte	0
 6426 045f 00       		.align 4
 6427 0460 00000000 		.long	0
 6428              	
 6429              	.LLSDATT1160:
 6430              		.text
 6432              		.section	.rodata
 6433              	.LC71:
 6434 0d9b 53616D65 		.string	"SameTestSuite"
 6434      54657374 
 6434      53756974 
 6434      6500
 6435              		.section	.text._ZN18SuiteSameTestSuite13UnitTestSuite12GetSuiteNameEv,"axG",@progbits,_ZN18SuiteSa
 6436              		.weak	_ZN18SuiteSameTestSuite13UnitTestSuite12GetSuiteNameEv
 6438              	_ZN18SuiteSameTestSuite13UnitTestSuite12GetSuiteNameEv:
 6439              	.LFB1161:
 187:TestTestMacros.cpp **** 
 188:TestTestMacros.cpp **** }
 189:TestTestMacros.cpp **** 
 190:TestTestMacros.cpp **** // We're really testing if it's possible to use the same suite in two files
 191:TestTestMacros.cpp **** // to compile and link successfuly (TestTestSuite.cpp has suite with the same name)
 192:TestTestMacros.cpp **** // Note: we are outside of the anonymous namespace
 193:TestTestMacros.cpp **** SUITE(SameTestSuite)
 6440              		.loc 6 193 0
 6441              		.cfi_startproc
 6442 0000 55       		pushq	%rbp
 6443              		.cfi_def_cfa_offset 16
 6444              		.cfi_offset 6, -16
 6445 0001 4889E5   		movq	%rsp, %rbp
 6446              		.cfi_def_cfa_register 6
 6447              		.loc 6 193 0
 6448 0004 B8000000 		movl	$.LC71, %eax
 6448      00
 6449 0009 5D       		popq	%rbp
 6450              		.cfi_def_cfa 7, 8
 6451 000a C3       		ret
 6452              		.cfi_endproc
 6453              	.LFE1161:
 6455              		.section	.rodata
 6456              	.LC72:
 6457 0da9 44756D6D 		.string	"DummyTest1"
 6457      79546573 
 6457      743100
 6458              		.section	.text._ZN18SuiteSameTestSuite14TestDummyTest1C2Ev,"axG",@progbits,_ZN18SuiteSameTestSuite
 6459              		.align 2
 6460              		.weak	_ZN18SuiteSameTestSuite14TestDummyTest1C2Ev
 6462              	_ZN18SuiteSameTestSuite14TestDummyTest1C2Ev:
 6463              	.LFB1163:
 194:TestTestMacros.cpp **** {
 195:TestTestMacros.cpp **** 	TEST(DummyTest1)
 6464              		.loc 6 195 0
 6465              		.cfi_startproc
 6466 0000 55       		pushq	%rbp
 6467              		.cfi_def_cfa_offset 16
 6468              		.cfi_offset 6, -16
 6469 0001 4889E5   		movq	%rsp, %rbp
 6470              		.cfi_def_cfa_register 6
 6471 0004 4883EC10 		subq	$16, %rsp
 6472 0008 48897DF8 		movq	%rdi, -8(%rbp)
 6473              	.LBB135:
 6474              		.loc 6 195 0
 6475 000c E8000000 		call	_ZN18SuiteSameTestSuite13UnitTestSuite12GetSuiteNameEv
 6475      00
 6476 0011 4889C2   		movq	%rax, %rdx
 6477 0014 488B45F8 		movq	-8(%rbp), %rax
 6478 0018 41B8C300 		movl	$195, %r8d
 6478      0000
 6479 001e B9000000 		movl	$.LC2, %ecx
 6479      00
 6480 0023 BE000000 		movl	$.LC72, %esi
 6480      00
 6481 0028 4889C7   		movq	%rax, %rdi
 6482 002b E8000000 		call	_ZN8UnitTest4TestC2EPKcS2_S2_i
 6482      00
 6483 0030 488B45F8 		movq	-8(%rbp), %rax
 6484 0034 48C70000 		movq	$_ZTVN18SuiteSameTestSuite14TestDummyTest1E+16, (%rax)
 6484      000000
 6485              	.LBE135:
 6486 003b C9       		leave
 6487              		.cfi_def_cfa 7, 8
 6488 003c C3       		ret
 6489              		.cfi_endproc
 6490              	.LFE1163:
 6492              		.weak	_ZN18SuiteSameTestSuite14TestDummyTest1C1Ev
 6493              		.set	_ZN18SuiteSameTestSuite14TestDummyTest1C1Ev,_ZN18SuiteSameTestSuite14TestDummyTest1C2Ev
 6494              		.globl	_ZN18SuiteSameTestSuite22testDummyTest1InstanceE
 6495              		.bss
 6496              		.align 32
 6499              	_ZN18SuiteSameTestSuite22testDummyTest1InstanceE:
 6500 0000 00000000 		.zero	56
 6500      00000000 
 6500      00000000 
 6500      00000000 
 6500      00000000 
 6501              		.globl	_ZN18SuiteSameTestSuite15adderDummyTest1E
 6504              	_ZN18SuiteSameTestSuite15adderDummyTest1E:
 6505 0038 00       		.zero	1
 6506              		.text
 6507              		.align 2
 6508              		.globl	_ZNK18SuiteSameTestSuite14TestDummyTest17RunImplEv
 6510              	_ZNK18SuiteSameTestSuite14TestDummyTest17RunImplEv:
 6511              	.LFB1165:
 196:TestTestMacros.cpp **** 	{
 6512              		.loc 6 196 0
 6513              		.cfi_startproc
 6514 2ca6 55       		pushq	%rbp
 6515              		.cfi_def_cfa_offset 16
 6516              		.cfi_offset 6, -16
 6517 2ca7 4889E5   		movq	%rsp, %rbp
 6518              		.cfi_def_cfa_register 6
 6519 2caa 48897DF8 		movq	%rdi, -8(%rbp)
 197:TestTestMacros.cpp **** 	}
 6520              		.loc 6 197 0
 6521 2cae 5D       		popq	%rbp
 6522              		.cfi_def_cfa 7, 8
 6523 2caf C3       		ret
 6524              		.cfi_endproc
 6525              	.LFE1165:
 6527              		.section	.rodata
 6528 0db4 00000000 		.align 8
 6529              	.LC73:
 6530 0db8 43757272 		.string	"CurrentTestDetailsContainCurrentTestInfo"
 6530      656E7454 
 6530      65737444 
 6530      65746169 
 6530      6C73436F 
 6531              		.section	.text._ZN44TestCurrentTestDetailsContainCurrentTestInfoC2Ev,"axG",@progbits,_ZN44TestCurr
 6532              		.align 2
 6533              		.weak	_ZN44TestCurrentTestDetailsContainCurrentTestInfoC2Ev
 6535              	_ZN44TestCurrentTestDetailsContainCurrentTestInfoC2Ev:
 6536              	.LFB1167:
 198:TestTestMacros.cpp **** }
 199:TestTestMacros.cpp **** 
 200:TestTestMacros.cpp **** #define CUR_TEST_NAME CurrentTestDetailsContainCurrentTestInfo
 201:TestTestMacros.cpp **** #define INNER_STRINGIFY(X) #X
 202:TestTestMacros.cpp **** #define STRINGIFY(X) INNER_STRINGIFY(X)
 203:TestTestMacros.cpp **** 
 204:TestTestMacros.cpp **** TEST(CUR_TEST_NAME)
 6537              		.loc 6 204 0
 6538              		.cfi_startproc
 6539 0000 55       		pushq	%rbp
 6540              		.cfi_def_cfa_offset 16
 6541              		.cfi_offset 6, -16
 6542 0001 4889E5   		movq	%rsp, %rbp
 6543              		.cfi_def_cfa_register 6
 6544 0004 4883EC10 		subq	$16, %rsp
 6545 0008 48897DF8 		movq	%rdi, -8(%rbp)
 6546              	.LBB136:
 6547              		.loc 6 204 0
 6548 000c E8000000 		call	_ZN13UnitTestSuite12GetSuiteNameEv
 6548      00
 6549 0011 4889C2   		movq	%rax, %rdx
 6550 0014 488B45F8 		movq	-8(%rbp), %rax
 6551 0018 41B8CC00 		movl	$204, %r8d
 6551      0000
 6552 001e B9000000 		movl	$.LC2, %ecx
 6552      00
 6553 0023 BE000000 		movl	$.LC73, %esi
 6553      00
 6554 0028 4889C7   		movq	%rax, %rdi
 6555 002b E8000000 		call	_ZN8UnitTest4TestC2EPKcS2_S2_i
 6555      00
 6556 0030 488B45F8 		movq	-8(%rbp), %rax
 6557 0034 48C70000 		movq	$_ZTV44TestCurrentTestDetailsContainCurrentTestInfo+16, (%rax)
 6557      000000
 6558              	.LBE136:
 6559 003b C9       		leave
 6560              		.cfi_def_cfa 7, 8
 6561 003c C3       		ret
 6562              		.cfi_endproc
 6563              	.LFE1167:
 6565              		.weak	_ZN44TestCurrentTestDetailsContainCurrentTestInfoC1Ev
 6566              		.set	_ZN44TestCurrentTestDetailsContainCurrentTestInfoC1Ev,_ZN44TestCurrentTestDetailsContainCurre
 6567              		.globl	testCurrentTestDetailsContainCurrentTestInfoInstance
 6568              		.bss
 6569 0039 00000000 		.align 32
 6569      000000
 6572              	testCurrentTestDetailsContainCurrentTestInfoInstance:
 6573 0040 00000000 		.zero	56
 6573      00000000 
 6573      00000000 
 6573      00000000 
 6573      00000000 
 6574              		.globl	adderCurrentTestDetailsContainCurrentTestInfo
 6577              	adderCurrentTestDetailsContainCurrentTestInfo:
 6578 0078 00       		.zero	1
 6579              		.section	.rodata
 6580 0de1 00000000 		.align 8
 6580      000000
 6581              	.LC74:
 6582 0de8 556E6861 		.string	"Unhandled exception in CHECK_EQUAL(STRINGIFY(CUR_TEST_NAME), details->testName)"
 6582      6E646C65 
 6582      64206578 
 6582      63657074 
 6582      696F6E20 
 6583              		.text
 6584              		.align 2
 6585              		.globl	_ZNK44TestCurrentTestDetailsContainCurrentTestInfo7RunImplEv
 6587              	_ZNK44TestCurrentTestDetailsContainCurrentTestInfo7RunImplEv:
 6588              	.LFB1169:
 205:TestTestMacros.cpp **** {
 6589              		.loc 6 205 0
 6590              		.cfi_startproc
 6591              		.cfi_personality 0x3,__gxx_personality_v0
 6592              		.cfi_lsda 0x3,.LLSDA1169
 6593 2cb0 55       		pushq	%rbp
 6594              		.cfi_def_cfa_offset 16
 6595              		.cfi_offset 6, -16
 6596 2cb1 4889E5   		movq	%rsp, %rbp
 6597              		.cfi_def_cfa_register 6
 6598 2cb4 53       		pushq	%rbx
 6599 2cb5 4883EC48 		subq	$72, %rsp
 6600              		.cfi_offset 3, -24
 6601 2cb9 48897DB8 		movq	%rdi, -72(%rbp)
 6602              	.LEHB165:
 6603              	.LBB137:
 206:TestTestMacros.cpp **** 	const UnitTest::TestDetails* details = CurrentTest::Details();
 6604              		.loc 6 206 0
 6605 2cbd E8000000 		call	_ZN8UnitTest11CurrentTest7DetailsEv
 6605      00
 6606              	.LEHE165:
 6607 2cc2 488B00   		movq	(%rax), %rax
 6608 2cc5 488945C8 		movq	%rax, -56(%rbp)
 6609              	.LEHB166:
 207:TestTestMacros.cpp **** 	CHECK_EQUAL(STRINGIFY(CUR_TEST_NAME), details->testName);
 6610              		.loc 6 207 0
 6611 2cc9 E8000000 		call	_ZN8UnitTest11CurrentTest7DetailsEv
 6611      00
 6612 2cce 488B08   		movq	(%rax), %rcx
 6613 2cd1 488D45D0 		leaq	-48(%rbp), %rax
 6614 2cd5 BACF0000 		movl	$207, %edx
 6614      00
 6615 2cda 4889CE   		movq	%rcx, %rsi
 6616 2cdd 4889C7   		movq	%rax, %rdi
 6617 2ce0 E8000000 		call	_ZN8UnitTest11TestDetailsC1ERKS0_i
 6617      00
 6618              		.loc 6 207 0 is_stmt 0 discriminator 1
 6619 2ce5 488B45C8 		movq	-56(%rbp), %rax
 6620 2ce9 488B5808 		movq	8(%rax), %rbx
 6621 2ced E8000000 		call	_ZN8UnitTest11CurrentTest7ResultsEv
 6621      00
 6622 2cf2 488B00   		movq	(%rax), %rax
 6623 2cf5 488D55D0 		leaq	-48(%rbp), %rdx
 6624 2cf9 4889D1   		movq	%rdx, %rcx
 6625 2cfc 4889DA   		movq	%rbx, %rdx
 6626 2cff BE000000 		movl	$.LC73, %esi
 6626      00
 6627 2d04 4889C7   		movq	%rax, %rdi
 6628 2d07 E8000000 		call	_ZN8UnitTest10CheckEqualERNS_11TestResultsEPKcS3_RKNS_11TestDetailsE
 6628      00
 6629              	.LEHE166:
 6630              	.LBE137:
 208:TestTestMacros.cpp **** }
 6631              		.loc 6 208 0 is_stmt 1
 6632 2d0c EB58     		jmp	.L347
 6633              	.L346:
 6634 2d0e 4889C3   		movq	%rax, %rbx
 6635              	.LBB138:
 207:TestTestMacros.cpp **** 	CHECK_EQUAL(STRINGIFY(CUR_TEST_NAME), details->testName);
 6636              		.loc 6 207 0
 6637 2d11 E8000000 		call	__cxa_end_catch
 6637      00
 6638 2d16 4889D8   		movq	%rbx, %rax
 6639 2d19 4889C7   		movq	%rax, %rdi
 6640              	.LEHB167:
 6641 2d1c E8000000 		call	_Unwind_Resume
 6641      00
 6642              	.LEHE167:
 6643              	.L345:
 6644 2d21 4889C7   		movq	%rax, %rdi
 6645 2d24 E8000000 		call	__cxa_begin_catch
 6645      00
 6646              	.LEHB168:
 6647 2d29 E8000000 		call	_ZN8UnitTest11CurrentTest7DetailsEv
 6647      00
 6648 2d2e 488B08   		movq	(%rax), %rcx
 6649 2d31 488D45D0 		leaq	-48(%rbp), %rax
 6650 2d35 BACF0000 		movl	$207, %edx
 6650      00
 6651 2d3a 4889CE   		movq	%rcx, %rsi
 6652 2d3d 4889C7   		movq	%rax, %rdi
 6653 2d40 E8000000 		call	_ZN8UnitTest11TestDetailsC1ERKS0_i
 6653      00
 207:TestTestMacros.cpp **** 	CHECK_EQUAL(STRINGIFY(CUR_TEST_NAME), details->testName);
 6654              		.loc 6 207 0 is_stmt 0 discriminator 1
 6655 2d45 E8000000 		call	_ZN8UnitTest11CurrentTest7ResultsEv
 6655      00
 6656 2d4a 488B00   		movq	(%rax), %rax
 6657 2d4d 488D4DD0 		leaq	-48(%rbp), %rcx
 6658 2d51 BA000000 		movl	$.LC74, %edx
 6658      00
 6659 2d56 4889CE   		movq	%rcx, %rsi
 6660 2d59 4889C7   		movq	%rax, %rdi
 6661 2d5c E8000000 		call	_ZN8UnitTest11TestResults13OnTestFailureERKNS_11TestDetailsEPKc
 6661      00
 6662              	.LEHE168:
 6663              	.LEHB169:
 6664 2d61 E8000000 		call	__cxa_end_catch
 6664      00
 6665              	.LEHE169:
 6666              	.L347:
 6667              	.LBE138:
 6668              		.loc 6 208 0 is_stmt 1
 6669 2d66 90       		nop
 6670 2d67 4883C448 		addq	$72, %rsp
 6671 2d6b 5B       		popq	%rbx
 6672 2d6c 5D       		popq	%rbp
 6673              		.cfi_def_cfa 7, 8
 6674 2d6d C3       		ret
 6675              		.cfi_endproc
 6676              	.LFE1169:
 6677              		.section	.gcc_except_table
 6678              		.align 4
 6679              	.LLSDA1169:
 6680 0464 FF       		.byte	0xff
 6681 0465 03       		.byte	0x3
 6682 0466 1D       		.uleb128 .LLSDATT1169-.LLSDATTD1169
 6683              	.LLSDATTD1169:
 6684 0467 01       		.byte	0x1
 6685 0468 15       		.uleb128 .LLSDACSE1169-.LLSDACSB1169
 6686              	.LLSDACSB1169:
 6687 0469 0D       		.uleb128 .LEHB165-.LFB1169
 6688 046a 05       		.uleb128 .LEHE165-.LEHB165
 6689 046b 00       		.uleb128 0
 6690 046c 00       		.uleb128 0
 6691 046d 19       		.uleb128 .LEHB166-.LFB1169
 6692 046e 43       		.uleb128 .LEHE166-.LEHB166
 6693 046f 71       		.uleb128 .L345-.LFB1169
 6694 0470 01       		.uleb128 0x1
 6695 0471 6C       		.uleb128 .LEHB167-.LFB1169
 6696 0472 05       		.uleb128 .LEHE167-.LEHB167
 6697 0473 00       		.uleb128 0
 6698 0474 00       		.uleb128 0
 6699 0475 79       		.uleb128 .LEHB168-.LFB1169
 6700 0476 38       		.uleb128 .LEHE168-.LEHB168
 6701 0477 5E       		.uleb128 .L346-.LFB1169
 6702 0478 00       		.uleb128 0
 6703 0479 B101     		.uleb128 .LEHB169-.LFB1169
 6704 047b 05       		.uleb128 .LEHE169-.LEHB169
 6705 047c 00       		.uleb128 0
 6706 047d 00       		.uleb128 0
 6707              	.LLSDACSE1169:
 6708 047e 01       		.byte	0x1
 6709 047f 00       		.byte	0
 6710              		.align 4
 6711 0480 00000000 		.long	0
 6712              	
 6713              	.LLSDATT1169:
 6714              		.text
 6716              		.section	.text._ZN8UnitTest5CheckIbEEbT_,"axG",@progbits,_ZN8UnitTest5CheckIbEEbT_,comdat
 6717              		.weak	_ZN8UnitTest5CheckIbEEbT_
 6719              	_ZN8UnitTest5CheckIbEEbT_:
 6720              	.LFB1197:
 6721              		.file 7 "../Checks.h"
   1:../Checks.h   **** #ifndef UNITTEST_CHECKS_H
   2:../Checks.h   **** #define UNITTEST_CHECKS_H
   3:../Checks.h   **** 
   4:../Checks.h   **** #include "Config.h"
   5:../Checks.h   **** #include "TestResults.h"
   6:../Checks.h   **** #include "MemoryOutStream.h"
   7:../Checks.h   **** 
   8:../Checks.h   **** namespace UnitTest {
   9:../Checks.h   **** 
  10:../Checks.h   **** 
  11:../Checks.h   **** template< typename Value >
  12:../Checks.h   **** bool Check(Value const value)
 6722              		.loc 7 12 0
 6723              		.cfi_startproc
 6724 0000 55       		pushq	%rbp
 6725              		.cfi_def_cfa_offset 16
 6726              		.cfi_offset 6, -16
 6727 0001 4889E5   		movq	%rsp, %rbp
 6728              		.cfi_def_cfa_register 6
 6729 0004 89F8     		movl	%edi, %eax
 6730 0006 8845FC   		movb	%al, -4(%rbp)
  13:../Checks.h   **** {
  14:../Checks.h   ****     return !!value; // doing double negative to avoid silly VS warnings
 6731              		.loc 7 14 0
 6732 0009 0FB645FC 		movzbl	-4(%rbp), %eax
  15:../Checks.h   **** }
 6733              		.loc 7 15 0
 6734 000d 5D       		popq	%rbp
 6735              		.cfi_def_cfa 7, 8
 6736 000e C3       		ret
 6737              		.cfi_endproc
 6738              	.LFE1197:
 6740              		.section	.rodata
 6741              	.LC75:
 6742 0e38 556E6861 		.string	"Unhandled system exception"
 6742      6E646C65 
 6742      64207379 
 6742      7374656D 
 6742      20657863 
 6743              	.LC76:
 6744 0e53 556E6861 		.string	"Unhandled exception: Crash!"
 6744      6E646C65 
 6744      64206578 
 6744      63657074 
 6744      696F6E3A 
 6745              		.text
 6747              	_ZN8UnitTest11ExecuteTestIN12_GLOBAL__N_134ThrowingThingieDummyTestNameHelperEEEvRT_RKNS_11TestDeta
 6748              	.LFB1198:
 6749              		.file 8 "../ExecuteTest.h"
   1:../ExecuteTest.h **** #ifndef UNITTEST_EXECUTE_TEST_H
   2:../ExecuteTest.h **** #define UNITTEST_EXECUTE_TEST_H
   3:../ExecuteTest.h **** 
   4:../ExecuteTest.h **** #include "TestDetails.h"
   5:../ExecuteTest.h **** #include "MemoryOutStream.h"
   6:../ExecuteTest.h **** #include "AssertException.h"
   7:../ExecuteTest.h **** #include "CurrentTest.h"
   8:../ExecuteTest.h **** 
   9:../ExecuteTest.h **** #ifdef UNITTEST_POSIX
  10:../ExecuteTest.h **** 	#include "PosixUtils/SignalTranslator.h"
  11:../ExecuteTest.h **** #endif
  12:../ExecuteTest.h **** 
  13:../ExecuteTest.h **** namespace UnitTest {
  14:../ExecuteTest.h **** 
  15:../ExecuteTest.h **** template< typename T >
  16:../ExecuteTest.h **** void ExecuteTest(T& testObject, TestDetails const& details)
 6750              		.loc 8 16 0
 6751              		.cfi_startproc
 6752              		.cfi_personality 0x3,__gxx_personality_v0
 6753              		.cfi_lsda 0x3,.LLSDA1198
 6754 2d6e 55       		pushq	%rbp
 6755              		.cfi_def_cfa_offset 16
 6756              		.cfi_offset 6, -16
 6757 2d6f 4889E5   		movq	%rsp, %rbp
 6758              		.cfi_def_cfa_register 6
 6759 2d72 4154     		pushq	%r12
 6760 2d74 53       		pushq	%rbx
 6761 2d75 4881EC80 		subq	$1152, %rsp
 6761      040000
 6762              		.cfi_offset 12, -24
 6763              		.cfi_offset 3, -32
 6764 2d7c 4889BD78 		movq	%rdi, -1160(%rbp)
 6764      FBFFFF
 6765 2d83 4889B570 		movq	%rsi, -1168(%rbp)
 6765      FBFFFF
 6766              	.LEHB170:
 6767              	.LBB139:
  17:../ExecuteTest.h **** {
  18:../ExecuteTest.h **** 	CurrentTest::Details() = &details;
 6768              		.loc 8 18 0
 6769 2d8a E8000000 		call	_ZN8UnitTest11CurrentTest7DetailsEv
 6769      00
 6770              	.LEHE170:
 6771 2d8f 488B9570 		movq	-1168(%rbp), %rdx
 6771      FBFFFF
 6772 2d96 488910   		movq	%rdx, (%rax)
 6773              	.LBB140:
  19:../ExecuteTest.h **** 
  20:../ExecuteTest.h **** 	try
  21:../ExecuteTest.h **** 	{
  22:../ExecuteTest.h **** #ifdef UNITTEST_POSIX
  23:../ExecuteTest.h **** 		UNITTEST_THROW_SIGNALS
 6774              		.loc 8 23 0
 6775 2d99 488D8590 		leaq	-1136(%rbp), %rax
 6775      FBFFFF
 6776 2da0 4889C7   		movq	%rax, %rdi
 6777              	.LEHB171:
 6778 2da3 E8000000 		call	_ZN8UnitTest16SignalTranslatorC1Ev
 6778      00
 6779              	.LEHE171:
 6780              		.loc 8 23 0 is_stmt 0 discriminator 1
 6781 2da8 488B0500 		movq	_ZN8UnitTest16SignalTranslator12s_jumpTargetE(%rip), %rax
 6781      000000
 6782 2daf BE010000 		movl	$1, %esi
 6782      00
 6783 2db4 4889C7   		movq	%rax, %rdi
 6784 2db7 E8000000 		call	__sigsetjmp
 6784      00
 6785 2dbc 85C0     		testl	%eax, %eax
 6786 2dbe 0F95C0   		setne	%al
 6787 2dc1 84C0     		testb	%al, %al
 6788 2dc3 7423     		je	.L351
 6789 2dc5 BF080000 		movl	$8, %edi
 6789      00
 6790 2dca E8000000 		call	__cxa_allocate_exception
 6790      00
 6791 2dcf 48C70000 		movq	$.LC75, (%rax)
 6791      000000
 6792 2dd6 BA000000 		movl	$0, %edx
 6792      00
 6793 2ddb BE000000 		movl	$_ZTIPKc, %esi
 6793      00
 6794 2de0 4889C7   		movq	%rax, %rdi
 6795              	.LEHB172:
 6796 2de3 E8000000 		call	__cxa_throw
 6796      00
 6797              	.LEHE172:
 6798              	.L351:
  24:../ExecuteTest.h **** #endif
  25:../ExecuteTest.h **** 		testObject.RunImpl();
 6799              		.loc 8 25 0 is_stmt 1
 6800 2de8 488B8578 		movq	-1160(%rbp), %rax
 6800      FBFFFF
 6801 2def 4889C7   		movq	%rax, %rdi
 6802 2df2 E87DD7FF 		call	_ZN12_GLOBAL__N_134ThrowingThingieDummyTestNameHelper7RunImplEv
 6802      FF
 6803 2df7 488D8590 		leaq	-1136(%rbp), %rax
 6803      FBFFFF
 6804 2dfe 4889C7   		movq	%rax, %rdi
 6805              	.LEHB173:
 6806 2e01 E8000000 		call	_ZN8UnitTest16SignalTranslatorD1Ev
 6806      00
 6807              	.LEHE173:
 6808              	.LBE140:
 6809              	.LBE139:
  26:../ExecuteTest.h **** 	}
  27:../ExecuteTest.h **** 	catch (AssertException const& e)
  28:../ExecuteTest.h **** 	{
  29:../ExecuteTest.h **** 		CurrentTest::Results()->OnTestFailure(
  30:../ExecuteTest.h **** 			TestDetails(details.testName, details.suiteName, e.Filename(), e.LineNumber()), e.what());
  31:../ExecuteTest.h **** 	}
  32:../ExecuteTest.h **** 	catch (std::exception const& e)
  33:../ExecuteTest.h **** 	{
  34:../ExecuteTest.h **** 		MemoryOutStream stream;
  35:../ExecuteTest.h **** 		stream << "Unhandled exception: " << e.what();
  36:../ExecuteTest.h **** 		CurrentTest::Results()->OnTestFailure(details, stream.GetText());
  37:../ExecuteTest.h **** 	}
  38:../ExecuteTest.h **** 	catch (...)
  39:../ExecuteTest.h **** 	{
  40:../ExecuteTest.h **** 		CurrentTest::Results()->OnTestFailure(details, "Unhandled exception: Crash!");
  41:../ExecuteTest.h **** 	}
  42:../ExecuteTest.h **** }
 6810              		.loc 8 42 0
 6811 2e06 E9EE0100 		jmp	.L369
 6811      00
 6812              	.L362:
 6813 2e0b 4989C4   		movq	%rax, %r12
 6814 2e0e 4889D3   		movq	%rdx, %rbx
 6815              	.LBB148:
 6816              	.LBB141:
  25:../ExecuteTest.h **** 	}
 6817              		.loc 8 25 0
 6818 2e11 488D8590 		leaq	-1136(%rbp), %rax
 6818      FBFFFF
 6819 2e18 4889C7   		movq	%rax, %rdi
 6820 2e1b E8000000 		call	_ZN8UnitTest16SignalTranslatorD1Ev
 6820      00
 6821 2e20 4C89E0   		movq	%r12, %rax
 6822 2e23 4889DA   		movq	%rbx, %rdx
 6823 2e26 EB4D     		jmp	.L353
 6824              	.L364:
 6825 2e28 4889C3   		movq	%rax, %rbx
 6826              	.LBE141:
 6827              	.LBB142:
  27:../ExecuteTest.h **** 	{
 6828              		.loc 8 27 0
 6829 2e2b E8000000 		call	__cxa_end_catch
 6829      00
 6830 2e30 4889D8   		movq	%rbx, %rax
 6831 2e33 4889C7   		movq	%rax, %rdi
 6832              	.LEHB174:
 6833 2e36 E8000000 		call	_Unwind_Resume
 6833      00
 6834              	.LEHE174:
 6835              	.L365:
 6836 2e3b 4889C3   		movq	%rax, %rbx
 6837              	.LBE142:
 6838              	.LBB143:
 6839              	.LBB144:
  36:../ExecuteTest.h **** 	}
 6840              		.loc 8 36 0
 6841 2e3e 488D8590 		leaq	-1136(%rbp), %rax
 6841      FBFFFF
 6842 2e45 4889C7   		movq	%rax, %rdi
 6843 2e48 E8000000 		call	_ZN8UnitTest15MemoryOutStreamD1Ev
 6843      00
 6844 2e4d EB03     		jmp	.L356
 6845              	.L366:
 6846 2e4f 4889C3   		movq	%rax, %rbx
 6847              	.L356:
 6848              	.LBE144:
  32:../ExecuteTest.h **** 	{
 6849              		.loc 8 32 0
 6850 2e52 E8000000 		call	__cxa_end_catch
 6850      00
 6851 2e57 4889D8   		movq	%rbx, %rax
 6852 2e5a 4889C7   		movq	%rax, %rdi
 6853              	.LEHB175:
 6854 2e5d E8000000 		call	_Unwind_Resume
 6854      00
 6855              	.LEHE175:
 6856              	.L367:
 6857 2e62 4889C3   		movq	%rax, %rbx
 6858              	.LBE143:
  38:../ExecuteTest.h **** 	{
 6859              		.loc 8 38 0
 6860 2e65 E8000000 		call	__cxa_end_catch
 6860      00
 6861 2e6a 4889D8   		movq	%rbx, %rax
 6862 2e6d 4889C7   		movq	%rax, %rdi
 6863              	.LEHB176:
 6864 2e70 E8000000 		call	_Unwind_Resume
 6864      00
 6865              	.LEHE176:
 6866              	.L363:
 6867              	.L353:
 6868 2e75 4883FA01 		cmpq	$1, %rdx
 6869 2e79 740F     		je	.L359
 6870 2e7b 4883FA02 		cmpq	$2, %rdx
 6871 2e7f 0F84A600 		je	.L360
 6871      0000
 6872 2e85 E9430100 		jmp	.L368
 6872      00
 6873              	.L359:
 6874              	.LBB146:
  27:../ExecuteTest.h **** 	{
 6875              		.loc 8 27 0
 6876 2e8a 4889C7   		movq	%rax, %rdi
 6877 2e8d E8000000 		call	__cxa_begin_catch
 6877      00
 6878 2e92 48898580 		movq	%rax, -1152(%rbp)
 6878      FBFFFF
  30:../ExecuteTest.h **** 	}
 6879              		.loc 8 30 0
 6880 2e99 488B8580 		movq	-1152(%rbp), %rax
 6880      FBFFFF
 6881 2ea0 488B00   		movq	(%rax), %rax
 6882 2ea3 4883C010 		addq	$16, %rax
 6883 2ea7 488B00   		movq	(%rax), %rax
 6884 2eaa 488B9580 		movq	-1152(%rbp), %rdx
 6884      FBFFFF
 6885 2eb1 4889D7   		movq	%rdx, %rdi
 6886 2eb4 FFD0     		call	*%rax
 6887 2eb6 4889C3   		movq	%rax, %rbx
 6888 2eb9 488B8580 		movq	-1152(%rbp), %rax
 6888      FBFFFF
 6889 2ec0 4889C7   		movq	%rax, %rdi
 6890              	.LEHB177:
 6891 2ec3 E8000000 		call	_ZNK8UnitTest15AssertException10LineNumberEv
 6891      00
 6892 2ec8 4189C4   		movl	%eax, %r12d
 6893 2ecb 488B8580 		movq	-1152(%rbp), %rax
 6893      FBFFFF
 6894 2ed2 4889C7   		movq	%rax, %rdi
 6895 2ed5 E8000000 		call	_ZNK8UnitTest15AssertException8FilenameEv
 6895      00
  30:../ExecuteTest.h **** 	}
 6896              		.loc 8 30 0 is_stmt 0 discriminator 1
 6897 2eda 4889C1   		movq	%rax, %rcx
 6898 2edd 488B8570 		movq	-1168(%rbp), %rax
 6898      FBFFFF
 6899 2ee4 488B10   		movq	(%rax), %rdx
 6900 2ee7 488B8570 		movq	-1168(%rbp), %rax
 6900      FBFFFF
 6901 2eee 488B7008 		movq	8(%rax), %rsi
 6902 2ef2 488D8590 		leaq	-1136(%rbp), %rax
 6902      FBFFFF
 6903 2ef9 4589E0   		movl	%r12d, %r8d
 6904 2efc 4889C7   		movq	%rax, %rdi
 6905 2eff E8000000 		call	_ZN8UnitTest11TestDetailsC1EPKcS2_S2_i
 6905      00
  29:../ExecuteTest.h **** 			TestDetails(details.testName, details.suiteName, e.Filename(), e.LineNumber()), e.what());
 6906              		.loc 8 29 0 is_stmt 1
 6907 2f04 E8000000 		call	_ZN8UnitTest11CurrentTest7ResultsEv
 6907      00
  30:../ExecuteTest.h **** 	}
 6908              		.loc 8 30 0
 6909 2f09 488B00   		movq	(%rax), %rax
  29:../ExecuteTest.h **** 			TestDetails(details.testName, details.suiteName, e.Filename(), e.LineNumber()), e.what());
 6910              		.loc 8 29 0
 6911 2f0c 488D8D90 		leaq	-1136(%rbp), %rcx
 6911      FBFFFF
 6912 2f13 4889DA   		movq	%rbx, %rdx
 6913 2f16 4889CE   		movq	%rcx, %rsi
 6914 2f19 4889C7   		movq	%rax, %rdi
 6915 2f1c E8000000 		call	_ZN8UnitTest11TestResults13OnTestFailureERKNS_11TestDetailsEPKc
 6915      00
 6916              	.LEHE177:
  27:../ExecuteTest.h **** 	{
 6917              		.loc 8 27 0
 6918 2f21 E8000000 		call	__cxa_end_catch
 6918      00
 6919              	.LBE146:
 6920              	.LBE148:
 6921              		.loc 8 42 0
 6922 2f26 E9CE0000 		jmp	.L369
 6922      00
 6923              	.L360:
 6924              	.LBB149:
 6925              	.LBB147:
  32:../ExecuteTest.h **** 	{
 6926              		.loc 8 32 0
 6927 2f2b 4889C7   		movq	%rax, %rdi
 6928 2f2e E8000000 		call	__cxa_begin_catch
 6928      00
 6929 2f33 48898588 		movq	%rax, -1144(%rbp)
 6929      FBFFFF
 6930              	.LBB145:
  34:../ExecuteTest.h **** 		stream << "Unhandled exception: " << e.what();
 6931              		.loc 8 34 0
 6932 2f3a 488D8590 		leaq	-1136(%rbp), %rax
 6932      FBFFFF
 6933 2f41 4889C7   		movq	%rax, %rdi
 6934              	.LEHB178:
 6935 2f44 E8000000 		call	_ZN8UnitTest15MemoryOutStreamC1Ev
 6935      00
 6936              	.LEHE178:
  35:../ExecuteTest.h **** 		CurrentTest::Results()->OnTestFailure(details, stream.GetText());
 6937              		.loc 8 35 0
 6938 2f49 488B8588 		movq	-1144(%rbp), %rax
 6938      FBFFFF
 6939 2f50 488B00   		movq	(%rax), %rax
 6940 2f53 4883C010 		addq	$16, %rax
 6941 2f57 488B00   		movq	(%rax), %rax
 6942 2f5a 488B9588 		movq	-1144(%rbp), %rdx
 6942      FBFFFF
 6943 2f61 4889D7   		movq	%rdx, %rdi
 6944 2f64 FFD0     		call	*%rax
 6945 2f66 4889C3   		movq	%rax, %rbx
 6946 2f69 488D8590 		leaq	-1136(%rbp), %rax
 6946      FBFFFF
 6947 2f70 BE000000 		movl	$.LC11, %esi
 6947      00
 6948 2f75 4889C7   		movq	%rax, %rdi
 6949              	.LEHB179:
 6950 2f78 E8000000 		call	_ZStlsISt11char_traitsIcEERSt13basic_ostreamIcT_ES5_PKc
 6950      00
 6951 2f7d 4889DE   		movq	%rbx, %rsi
 6952 2f80 4889C7   		movq	%rax, %rdi
 6953 2f83 E8000000 		call	_ZStlsISt11char_traitsIcEERSt13basic_ostreamIcT_ES5_PKc
 6953      00
  36:../ExecuteTest.h **** 	}
 6954              		.loc 8 36 0
 6955 2f88 488D8590 		leaq	-1136(%rbp), %rax
 6955      FBFFFF
 6956 2f8f 4889C7   		movq	%rax, %rdi
 6957 2f92 E8000000 		call	_ZNK8UnitTest15MemoryOutStream7GetTextEv
 6957      00
 6958 2f97 4889C3   		movq	%rax, %rbx
 6959 2f9a E8000000 		call	_ZN8UnitTest11CurrentTest7ResultsEv
 6959      00
  36:../ExecuteTest.h **** 	}
 6960              		.loc 8 36 0 is_stmt 0 discriminator 1
 6961 2f9f 488B00   		movq	(%rax), %rax
 6962 2fa2 488B8D70 		movq	-1168(%rbp), %rcx
 6962      FBFFFF
 6963 2fa9 4889DA   		movq	%rbx, %rdx
 6964 2fac 4889CE   		movq	%rcx, %rsi
 6965 2faf 4889C7   		movq	%rax, %rdi
 6966 2fb2 E8000000 		call	_ZN8UnitTest11TestResults13OnTestFailureERKNS_11TestDetailsEPKc
 6966      00
 6967              	.LEHE179:
 6968 2fb7 488D8590 		leaq	-1136(%rbp), %rax
 6968      FBFFFF
 6969 2fbe 4889C7   		movq	%rax, %rdi
 6970              	.LEHB180:
 6971 2fc1 E8000000 		call	_ZN8UnitTest15MemoryOutStreamD1Ev
 6971      00
 6972              	.LEHE180:
 6973              	.LBE145:
  32:../ExecuteTest.h **** 	{
 6974              		.loc 8 32 0 is_stmt 1
 6975 2fc6 E8000000 		call	__cxa_end_catch
 6975      00
 6976              	.LBE147:
 6977              	.LBE149:
 6978              		.loc 8 42 0
 6979 2fcb EB2C     		jmp	.L369
 6980              	.L368:
 6981              	.LBB150:
  38:../ExecuteTest.h **** 	{
 6982              		.loc 8 38 0
 6983 2fcd 4889C7   		movq	%rax, %rdi
 6984 2fd0 E8000000 		call	__cxa_begin_catch
 6984      00
 6985              	.LEHB181:
  40:../ExecuteTest.h **** 	}
 6986              		.loc 8 40 0
 6987 2fd5 E8000000 		call	_ZN8UnitTest11CurrentTest7ResultsEv
 6987      00
 6988 2fda 488B00   		movq	(%rax), %rax
 6989 2fdd 488B8D70 		movq	-1168(%rbp), %rcx
 6989      FBFFFF
 6990 2fe4 BA000000 		movl	$.LC76, %edx
 6990      00
 6991 2fe9 4889CE   		movq	%rcx, %rsi
 6992 2fec 4889C7   		movq	%rax, %rdi
 6993 2fef E8000000 		call	_ZN8UnitTest11TestResults13OnTestFailureERKNS_11TestDetailsEPKc
 6993      00
 6994              	.LEHE181:
 6995              	.LEHB182:
  38:../ExecuteTest.h **** 	{
 6996              		.loc 8 38 0
 6997 2ff4 E8000000 		call	__cxa_end_catch
 6997      00
 6998              	.LEHE182:
 6999              	.L369:
 7000              	.LBE150:
 7001              		.loc 8 42 0
 7002 2ff9 90       		nop
 7003 2ffa 4881C480 		addq	$1152, %rsp
 7003      040000
 7004 3001 5B       		popq	%rbx
 7005 3002 415C     		popq	%r12
 7006 3004 5D       		popq	%rbp
 7007              		.cfi_def_cfa 7, 8
 7008 3005 C3       		ret
 7009              		.cfi_endproc
 7010              	.LFE1198:
 7011              		.section	.gcc_except_table
 7012              		.align 4
 7013              	.LLSDA1198:
 7014 0484 FF       		.byte	0xff
 7015 0485 03       		.byte	0x3
 7016 0486 5D       		.uleb128 .LLSDATT1198-.LLSDATTD1198
 7017              	.LLSDATTD1198:
 7018 0487 01       		.byte	0x1
 7019 0488 46       		.uleb128 .LLSDACSE1198-.LLSDACSB1198
 7020              	.LLSDACSB1198:
 7021 0489 1C       		.uleb128 .LEHB170-.LFB1198
 7022 048a 05       		.uleb128 .LEHE170-.LEHB170
 7023 048b 00       		.uleb128 0
 7024 048c 00       		.uleb128 0
 7025 048d 35       		.uleb128 .LEHB171-.LFB1198
 7026 048e 05       		.uleb128 .LEHE171-.LEHB171
 7027 048f 8702     		.uleb128 .L363-.LFB1198
 7028 0491 05       		.uleb128 0x5
 7029 0492 75       		.uleb128 .LEHB172-.LFB1198
 7030 0493 05       		.uleb128 .LEHE172-.LEHB172
 7031 0494 9D01     		.uleb128 .L362-.LFB1198
 7032 0496 07       		.uleb128 0x7
 7033 0497 9301     		.uleb128 .LEHB173-.LFB1198
 7034 0499 05       		.uleb128 .LEHE173-.LEHB173
 7035 049a 8702     		.uleb128 .L363-.LFB1198
 7036 049c 05       		.uleb128 0x5
 7037 049d C801     		.uleb128 .LEHB174-.LFB1198
 7038 049f 05       		.uleb128 .LEHE174-.LEHB174
 7039 04a0 00       		.uleb128 0
 7040 04a1 00       		.uleb128 0
 7041 04a2 EF01     		.uleb128 .LEHB175-.LFB1198
 7042 04a4 05       		.uleb128 .LEHE175-.LEHB175
 7043 04a5 00       		.uleb128 0
 7044 04a6 00       		.uleb128 0
 7045 04a7 8202     		.uleb128 .LEHB176-.LFB1198
 7046 04a9 05       		.uleb128 .LEHE176-.LEHB176
 7047 04aa 00       		.uleb128 0
 7048 04ab 00       		.uleb128 0
 7049 04ac D502     		.uleb128 .LEHB177-.LFB1198
 7050 04ae 5E       		.uleb128 .LEHE177-.LEHB177
 7051 04af BA01     		.uleb128 .L364-.LFB1198
 7052 04b1 00       		.uleb128 0
 7053 04b2 D603     		.uleb128 .LEHB178-.LFB1198
 7054 04b4 05       		.uleb128 .LEHE178-.LEHB178
 7055 04b5 E101     		.uleb128 .L366-.LFB1198
 7056 04b7 00       		.uleb128 0
 7057 04b8 8A04     		.uleb128 .LEHB179-.LFB1198
 7058 04ba 3F       		.uleb128 .LEHE179-.LEHB179
 7059 04bb CD01     		.uleb128 .L365-.LFB1198
 7060 04bd 00       		.uleb128 0
 7061 04be D304     		.uleb128 .LEHB180-.LFB1198
 7062 04c0 05       		.uleb128 .LEHE180-.LEHB180
 7063 04c1 E101     		.uleb128 .L366-.LFB1198
 7064 04c3 00       		.uleb128 0
 7065 04c4 E704     		.uleb128 .LEHB181-.LFB1198
 7066 04c6 1F       		.uleb128 .LEHE181-.LEHB181
 7067 04c7 F401     		.uleb128 .L367-.LFB1198
 7068 04c9 00       		.uleb128 0
 7069 04ca 8605     		.uleb128 .LEHB182-.LFB1198
 7070 04cc 05       		.uleb128 .LEHE182-.LEHB182
 7071 04cd 00       		.uleb128 0
 7072 04ce 00       		.uleb128 0
 7073              	.LLSDACSE1198:
 7074 04cf 03       		.byte	0x3
 7075 04d0 00       		.byte	0
 7076 04d1 02       		.byte	0x2
 7077 04d2 7D       		.byte	0x7d
 7078 04d3 01       		.byte	0x1
 7079 04d4 7D       		.byte	0x7d
 7080 04d5 00       		.byte	0
 7081 04d6 7D       		.byte	0x7d
 7082 04d7 00       		.align 4
 7083 04d8 00000000 		.long	0
 7084              	
 7085 04dc 00000000 		.long	_ZTISt9exception
 7086 04e0 00000000 		.long	_ZTIN8UnitTest15AssertExceptionE
 7087              	.LLSDATT1198:
 7088              		.text
 7090              		.section	.text._ZN8UnitTest5CheckIPcEEbT_,"axG",@progbits,_ZN8UnitTest5CheckIPcEEbT_,comdat
 7091              		.weak	_ZN8UnitTest5CheckIPcEEbT_
 7093              	_ZN8UnitTest5CheckIPcEEbT_:
 7094              	.LFB1200:
  12:../Checks.h   **** {
 7095              		.loc 7 12 0
 7096              		.cfi_startproc
 7097 0000 55       		pushq	%rbp
 7098              		.cfi_def_cfa_offset 16
 7099              		.cfi_offset 6, -16
 7100 0001 4889E5   		movq	%rsp, %rbp
 7101              		.cfi_def_cfa_register 6
 7102 0004 48897DF8 		movq	%rdi, -8(%rbp)
  14:../Checks.h   **** }
 7103              		.loc 7 14 0
 7104 0008 48837DF8 		cmpq	$0, -8(%rbp)
 7104      00
 7105 000d 0F95C0   		setne	%al
 7106              		.loc 7 15 0
 7107 0010 5D       		popq	%rbp
 7108              		.cfi_def_cfa 7, 8
 7109 0011 C3       		ret
 7110              		.cfi_endproc
 7111              	.LFE1200:
 7113              		.text
 7115              	_ZN8UnitTest11ExecuteTestIN12_GLOBAL__N_115SuiteTestSuite165DummyFixtureSimilarlyNamedFixtureTestsI
 7116              	.LFB1201:
  16:../ExecuteTest.h **** {
 7117              		.loc 8 16 0
 7118              		.cfi_startproc
 7119              		.cfi_personality 0x3,__gxx_personality_v0
 7120              		.cfi_lsda 0x3,.LLSDA1201
 7121 3006 55       		pushq	%rbp
 7122              		.cfi_def_cfa_offset 16
 7123              		.cfi_offset 6, -16
 7124 3007 4889E5   		movq	%rsp, %rbp
 7125              		.cfi_def_cfa_register 6
 7126 300a 4154     		pushq	%r12
 7127 300c 53       		pushq	%rbx
 7128 300d 4881EC80 		subq	$1152, %rsp
 7128      040000
 7129              		.cfi_offset 12, -24
 7130              		.cfi_offset 3, -32
 7131 3014 4889BD78 		movq	%rdi, -1160(%rbp)
 7131      FBFFFF
 7132 301b 4889B570 		movq	%rsi, -1168(%rbp)
 7132      FBFFFF
 7133              	.LEHB183:
 7134              	.LBB151:
  18:../ExecuteTest.h **** 
 7135              		.loc 8 18 0
 7136 3022 E8000000 		call	_ZN8UnitTest11CurrentTest7DetailsEv
 7136      00
 7137              	.LEHE183:
 7138 3027 488B9570 		movq	-1168(%rbp), %rdx
 7138      FBFFFF
 7139 302e 488910   		movq	%rdx, (%rax)
 7140              	.LBB152:
  23:../ExecuteTest.h **** #endif
 7141              		.loc 8 23 0
 7142 3031 488D8590 		leaq	-1136(%rbp), %rax
 7142      FBFFFF
 7143 3038 4889C7   		movq	%rax, %rdi
 7144              	.LEHB184:
 7145 303b E8000000 		call	_ZN8UnitTest16SignalTranslatorC1Ev
 7145      00
 7146              	.LEHE184:
  23:../ExecuteTest.h **** #endif
 7147              		.loc 8 23 0 is_stmt 0 discriminator 1
 7148 3040 488B0500 		movq	_ZN8UnitTest16SignalTranslator12s_jumpTargetE(%rip), %rax
 7148      000000
 7149 3047 BE010000 		movl	$1, %esi
 7149      00
 7150 304c 4889C7   		movq	%rax, %rdi
 7151 304f E8000000 		call	__sigsetjmp
 7151      00
 7152 3054 85C0     		testl	%eax, %eax
 7153 3056 0F95C0   		setne	%al
 7154 3059 84C0     		testb	%al, %al
 7155 305b 7423     		je	.L373
 7156 305d BF080000 		movl	$8, %edi
 7156      00
 7157 3062 E8000000 		call	__cxa_allocate_exception
 7157      00
 7158 3067 48C70000 		movq	$.LC75, (%rax)
 7158      000000
 7159 306e BA000000 		movl	$0, %edx
 7159      00
 7160 3073 BE000000 		movl	$_ZTIPKc, %esi
 7160      00
 7161 3078 4889C7   		movq	%rax, %rdi
 7162              	.LEHB185:
 7163 307b E8000000 		call	__cxa_throw
 7163      00
 7164              	.LEHE185:
 7165              	.L373:
  25:../ExecuteTest.h **** 	}
 7166              		.loc 8 25 0 is_stmt 1
 7167 3080 488B8578 		movq	-1160(%rbp), %rax
 7167      FBFFFF
 7168 3087 4889C7   		movq	%rax, %rdi
 7169 308a E8E5DBFF 		call	_ZN12_GLOBAL__N_115SuiteTestSuite165DummyFixtureSimilarlyNamedFixtureTestsInDifferentSuitesWo
 7169      FF
 7170 308f 488D8590 		leaq	-1136(%rbp), %rax
 7170      FBFFFF
 7171 3096 4889C7   		movq	%rax, %rdi
 7172              	.LEHB186:
 7173 3099 E8000000 		call	_ZN8UnitTest16SignalTranslatorD1Ev
 7173      00
 7174              	.LEHE186:
 7175              	.LBE152:
 7176              	.LBE151:
 7177              		.loc 8 42 0
 7178 309e E9EE0100 		jmp	.L391
 7178      00
 7179              	.L384:
 7180 30a3 4989C4   		movq	%rax, %r12
 7181 30a6 4889D3   		movq	%rdx, %rbx
 7182              	.LBB160:
 7183              	.LBB153:
  25:../ExecuteTest.h **** 	}
 7184              		.loc 8 25 0
 7185 30a9 488D8590 		leaq	-1136(%rbp), %rax
 7185      FBFFFF
 7186 30b0 4889C7   		movq	%rax, %rdi
 7187 30b3 E8000000 		call	_ZN8UnitTest16SignalTranslatorD1Ev
 7187      00
 7188 30b8 4C89E0   		movq	%r12, %rax
 7189 30bb 4889DA   		movq	%rbx, %rdx
 7190 30be EB4D     		jmp	.L375
 7191              	.L386:
 7192 30c0 4889C3   		movq	%rax, %rbx
 7193              	.LBE153:
 7194              	.LBB154:
  27:../ExecuteTest.h **** 	{
 7195              		.loc 8 27 0
 7196 30c3 E8000000 		call	__cxa_end_catch
 7196      00
 7197 30c8 4889D8   		movq	%rbx, %rax
 7198 30cb 4889C7   		movq	%rax, %rdi
 7199              	.LEHB187:
 7200 30ce E8000000 		call	_Unwind_Resume
 7200      00
 7201              	.LEHE187:
 7202              	.L387:
 7203 30d3 4889C3   		movq	%rax, %rbx
 7204              	.LBE154:
 7205              	.LBB155:
 7206              	.LBB156:
  36:../ExecuteTest.h **** 	}
 7207              		.loc 8 36 0
 7208 30d6 488D8590 		leaq	-1136(%rbp), %rax
 7208      FBFFFF
 7209 30dd 4889C7   		movq	%rax, %rdi
 7210 30e0 E8000000 		call	_ZN8UnitTest15MemoryOutStreamD1Ev
 7210      00
 7211 30e5 EB03     		jmp	.L378
 7212              	.L388:
 7213 30e7 4889C3   		movq	%rax, %rbx
 7214              	.L378:
 7215              	.LBE156:
  32:../ExecuteTest.h **** 	{
 7216              		.loc 8 32 0
 7217 30ea E8000000 		call	__cxa_end_catch
 7217      00
 7218 30ef 4889D8   		movq	%rbx, %rax
 7219 30f2 4889C7   		movq	%rax, %rdi
 7220              	.LEHB188:
 7221 30f5 E8000000 		call	_Unwind_Resume
 7221      00
 7222              	.LEHE188:
 7223              	.L389:
 7224 30fa 4889C3   		movq	%rax, %rbx
 7225              	.LBE155:
  38:../ExecuteTest.h **** 	{
 7226              		.loc 8 38 0
 7227 30fd E8000000 		call	__cxa_end_catch
 7227      00
 7228 3102 4889D8   		movq	%rbx, %rax
 7229 3105 4889C7   		movq	%rax, %rdi
 7230              	.LEHB189:
 7231 3108 E8000000 		call	_Unwind_Resume
 7231      00
 7232              	.LEHE189:
 7233              	.L385:
 7234              	.L375:
 7235 310d 4883FA01 		cmpq	$1, %rdx
 7236 3111 740F     		je	.L381
 7237 3113 4883FA02 		cmpq	$2, %rdx
 7238 3117 0F84A600 		je	.L382
 7238      0000
 7239 311d E9430100 		jmp	.L390
 7239      00
 7240              	.L381:
 7241              	.LBB158:
  27:../ExecuteTest.h **** 	{
 7242              		.loc 8 27 0
 7243 3122 4889C7   		movq	%rax, %rdi
 7244 3125 E8000000 		call	__cxa_begin_catch
 7244      00
 7245 312a 48898580 		movq	%rax, -1152(%rbp)
 7245      FBFFFF
  30:../ExecuteTest.h **** 	}
 7246              		.loc 8 30 0
 7247 3131 488B8580 		movq	-1152(%rbp), %rax
 7247      FBFFFF
 7248 3138 488B00   		movq	(%rax), %rax
 7249 313b 4883C010 		addq	$16, %rax
 7250 313f 488B00   		movq	(%rax), %rax
 7251 3142 488B9580 		movq	-1152(%rbp), %rdx
 7251      FBFFFF
 7252 3149 4889D7   		movq	%rdx, %rdi
 7253 314c FFD0     		call	*%rax
 7254 314e 4889C3   		movq	%rax, %rbx
 7255 3151 488B8580 		movq	-1152(%rbp), %rax
 7255      FBFFFF
 7256 3158 4889C7   		movq	%rax, %rdi
 7257              	.LEHB190:
 7258 315b E8000000 		call	_ZNK8UnitTest15AssertException10LineNumberEv
 7258      00
 7259 3160 4189C4   		movl	%eax, %r12d
 7260 3163 488B8580 		movq	-1152(%rbp), %rax
 7260      FBFFFF
 7261 316a 4889C7   		movq	%rax, %rdi
 7262 316d E8000000 		call	_ZNK8UnitTest15AssertException8FilenameEv
 7262      00
  30:../ExecuteTest.h **** 	}
 7263              		.loc 8 30 0 is_stmt 0 discriminator 1
 7264 3172 4889C1   		movq	%rax, %rcx
 7265 3175 488B8570 		movq	-1168(%rbp), %rax
 7265      FBFFFF
 7266 317c 488B10   		movq	(%rax), %rdx
 7267 317f 488B8570 		movq	-1168(%rbp), %rax
 7267      FBFFFF
 7268 3186 488B7008 		movq	8(%rax), %rsi
 7269 318a 488D8590 		leaq	-1136(%rbp), %rax
 7269      FBFFFF
 7270 3191 4589E0   		movl	%r12d, %r8d
 7271 3194 4889C7   		movq	%rax, %rdi
 7272 3197 E8000000 		call	_ZN8UnitTest11TestDetailsC1EPKcS2_S2_i
 7272      00
  29:../ExecuteTest.h **** 			TestDetails(details.testName, details.suiteName, e.Filename(), e.LineNumber()), e.what());
 7273              		.loc 8 29 0 is_stmt 1
 7274 319c E8000000 		call	_ZN8UnitTest11CurrentTest7ResultsEv
 7274      00
  30:../ExecuteTest.h **** 	}
 7275              		.loc 8 30 0
 7276 31a1 488B00   		movq	(%rax), %rax
  29:../ExecuteTest.h **** 			TestDetails(details.testName, details.suiteName, e.Filename(), e.LineNumber()), e.what());
 7277              		.loc 8 29 0
 7278 31a4 488D8D90 		leaq	-1136(%rbp), %rcx
 7278      FBFFFF
 7279 31ab 4889DA   		movq	%rbx, %rdx
 7280 31ae 4889CE   		movq	%rcx, %rsi
 7281 31b1 4889C7   		movq	%rax, %rdi
 7282 31b4 E8000000 		call	_ZN8UnitTest11TestResults13OnTestFailureERKNS_11TestDetailsEPKc
 7282      00
 7283              	.LEHE190:
  27:../ExecuteTest.h **** 	{
 7284              		.loc 8 27 0
 7285 31b9 E8000000 		call	__cxa_end_catch
 7285      00
 7286              	.LBE158:
 7287              	.LBE160:
 7288              		.loc 8 42 0
 7289 31be E9CE0000 		jmp	.L391
 7289      00
 7290              	.L382:
 7291              	.LBB161:
 7292              	.LBB159:
  32:../ExecuteTest.h **** 	{
 7293              		.loc 8 32 0
 7294 31c3 4889C7   		movq	%rax, %rdi
 7295 31c6 E8000000 		call	__cxa_begin_catch
 7295      00
 7296 31cb 48898588 		movq	%rax, -1144(%rbp)
 7296      FBFFFF
 7297              	.LBB157:
  34:../ExecuteTest.h **** 		stream << "Unhandled exception: " << e.what();
 7298              		.loc 8 34 0
 7299 31d2 488D8590 		leaq	-1136(%rbp), %rax
 7299      FBFFFF
 7300 31d9 4889C7   		movq	%rax, %rdi
 7301              	.LEHB191:
 7302 31dc E8000000 		call	_ZN8UnitTest15MemoryOutStreamC1Ev
 7302      00
 7303              	.LEHE191:
  35:../ExecuteTest.h **** 		CurrentTest::Results()->OnTestFailure(details, stream.GetText());
 7304              		.loc 8 35 0
 7305 31e1 488B8588 		movq	-1144(%rbp), %rax
 7305      FBFFFF
 7306 31e8 488B00   		movq	(%rax), %rax
 7307 31eb 4883C010 		addq	$16, %rax
 7308 31ef 488B00   		movq	(%rax), %rax
 7309 31f2 488B9588 		movq	-1144(%rbp), %rdx
 7309      FBFFFF
 7310 31f9 4889D7   		movq	%rdx, %rdi
 7311 31fc FFD0     		call	*%rax
 7312 31fe 4889C3   		movq	%rax, %rbx
 7313 3201 488D8590 		leaq	-1136(%rbp), %rax
 7313      FBFFFF
 7314 3208 BE000000 		movl	$.LC11, %esi
 7314      00
 7315 320d 4889C7   		movq	%rax, %rdi
 7316              	.LEHB192:
 7317 3210 E8000000 		call	_ZStlsISt11char_traitsIcEERSt13basic_ostreamIcT_ES5_PKc
 7317      00
 7318 3215 4889DE   		movq	%rbx, %rsi
 7319 3218 4889C7   		movq	%rax, %rdi
 7320 321b E8000000 		call	_ZStlsISt11char_traitsIcEERSt13basic_ostreamIcT_ES5_PKc
 7320      00
  36:../ExecuteTest.h **** 	}
 7321              		.loc 8 36 0
 7322 3220 488D8590 		leaq	-1136(%rbp), %rax
 7322      FBFFFF
 7323 3227 4889C7   		movq	%rax, %rdi
 7324 322a E8000000 		call	_ZNK8UnitTest15MemoryOutStream7GetTextEv
 7324      00
 7325 322f 4889C3   		movq	%rax, %rbx
 7326 3232 E8000000 		call	_ZN8UnitTest11CurrentTest7ResultsEv
 7326      00
  36:../ExecuteTest.h **** 	}
 7327              		.loc 8 36 0 is_stmt 0 discriminator 1
 7328 3237 488B00   		movq	(%rax), %rax
 7329 323a 488B8D70 		movq	-1168(%rbp), %rcx
 7329      FBFFFF
 7330 3241 4889DA   		movq	%rbx, %rdx
 7331 3244 4889CE   		movq	%rcx, %rsi
 7332 3247 4889C7   		movq	%rax, %rdi
 7333 324a E8000000 		call	_ZN8UnitTest11TestResults13OnTestFailureERKNS_11TestDetailsEPKc
 7333      00
 7334              	.LEHE192:
 7335 324f 488D8590 		leaq	-1136(%rbp), %rax
 7335      FBFFFF
 7336 3256 4889C7   		movq	%rax, %rdi
 7337              	.LEHB193:
 7338 3259 E8000000 		call	_ZN8UnitTest15MemoryOutStreamD1Ev
 7338      00
 7339              	.LEHE193:
 7340              	.LBE157:
  32:../ExecuteTest.h **** 	{
 7341              		.loc 8 32 0 is_stmt 1
 7342 325e E8000000 		call	__cxa_end_catch
 7342      00
 7343              	.LBE159:
 7344              	.LBE161:
 7345              		.loc 8 42 0
 7346 3263 EB2C     		jmp	.L391
 7347              	.L390:
 7348              	.LBB162:
  38:../ExecuteTest.h **** 	{
 7349              		.loc 8 38 0
 7350 3265 4889C7   		movq	%rax, %rdi
 7351 3268 E8000000 		call	__cxa_begin_catch
 7351      00
 7352              	.LEHB194:
  40:../ExecuteTest.h **** 	}
 7353              		.loc 8 40 0
 7354 326d E8000000 		call	_ZN8UnitTest11CurrentTest7ResultsEv
 7354      00
 7355 3272 488B00   		movq	(%rax), %rax
 7356 3275 488B8D70 		movq	-1168(%rbp), %rcx
 7356      FBFFFF
 7357 327c BA000000 		movl	$.LC76, %edx
 7357      00
 7358 3281 4889CE   		movq	%rcx, %rsi
 7359 3284 4889C7   		movq	%rax, %rdi
 7360 3287 E8000000 		call	_ZN8UnitTest11TestResults13OnTestFailureERKNS_11TestDetailsEPKc
 7360      00
 7361              	.LEHE194:
 7362              	.LEHB195:
  38:../ExecuteTest.h **** 	{
 7363              		.loc 8 38 0
 7364 328c E8000000 		call	__cxa_end_catch
 7364      00
 7365              	.LEHE195:
 7366              	.L391:
 7367              	.LBE162:
 7368              		.loc 8 42 0
 7369 3291 90       		nop
 7370 3292 4881C480 		addq	$1152, %rsp
 7370      040000
 7371 3299 5B       		popq	%rbx
 7372 329a 415C     		popq	%r12
 7373 329c 5D       		popq	%rbp
 7374              		.cfi_def_cfa 7, 8
 7375 329d C3       		ret
 7376              		.cfi_endproc
 7377              	.LFE1201:
 7378              		.section	.gcc_except_table
 7379              		.align 4
 7380              	.LLSDA1201:
 7381 04e4 FF       		.byte	0xff
 7382 04e5 03       		.byte	0x3
 7383 04e6 5D       		.uleb128 .LLSDATT1201-.LLSDATTD1201
 7384              	.LLSDATTD1201:
 7385 04e7 01       		.byte	0x1
 7386 04e8 46       		.uleb128 .LLSDACSE1201-.LLSDACSB1201
 7387              	.LLSDACSB1201:
 7388 04e9 1C       		.uleb128 .LEHB183-.LFB1201
 7389 04ea 05       		.uleb128 .LEHE183-.LEHB183
 7390 04eb 00       		.uleb128 0
 7391 04ec 00       		.uleb128 0
 7392 04ed 35       		.uleb128 .LEHB184-.LFB1201
 7393 04ee 05       		.uleb128 .LEHE184-.LEHB184
 7394 04ef 8702     		.uleb128 .L385-.LFB1201
 7395 04f1 05       		.uleb128 0x5
 7396 04f2 75       		.uleb128 .LEHB185-.LFB1201
 7397 04f3 05       		.uleb128 .LEHE185-.LEHB185
 7398 04f4 9D01     		.uleb128 .L384-.LFB1201
 7399 04f6 07       		.uleb128 0x7
 7400 04f7 9301     		.uleb128 .LEHB186-.LFB1201
 7401 04f9 05       		.uleb128 .LEHE186-.LEHB186
 7402 04fa 8702     		.uleb128 .L385-.LFB1201
 7403 04fc 05       		.uleb128 0x5
 7404 04fd C801     		.uleb128 .LEHB187-.LFB1201
 7405 04ff 05       		.uleb128 .LEHE187-.LEHB187
 7406 0500 00       		.uleb128 0
 7407 0501 00       		.uleb128 0
 7408 0502 EF01     		.uleb128 .LEHB188-.LFB1201
 7409 0504 05       		.uleb128 .LEHE188-.LEHB188
 7410 0505 00       		.uleb128 0
 7411 0506 00       		.uleb128 0
 7412 0507 8202     		.uleb128 .LEHB189-.LFB1201
 7413 0509 05       		.uleb128 .LEHE189-.LEHB189
 7414 050a 00       		.uleb128 0
 7415 050b 00       		.uleb128 0
 7416 050c D502     		.uleb128 .LEHB190-.LFB1201
 7417 050e 5E       		.uleb128 .LEHE190-.LEHB190
 7418 050f BA01     		.uleb128 .L386-.LFB1201
 7419 0511 00       		.uleb128 0
 7420 0512 D603     		.uleb128 .LEHB191-.LFB1201
 7421 0514 05       		.uleb128 .LEHE191-.LEHB191
 7422 0515 E101     		.uleb128 .L388-.LFB1201
 7423 0517 00       		.uleb128 0
 7424 0518 8A04     		.uleb128 .LEHB192-.LFB1201
 7425 051a 3F       		.uleb128 .LEHE192-.LEHB192
 7426 051b CD01     		.uleb128 .L387-.LFB1201
 7427 051d 00       		.uleb128 0
 7428 051e D304     		.uleb128 .LEHB193-.LFB1201
 7429 0520 05       		.uleb128 .LEHE193-.LEHB193
 7430 0521 E101     		.uleb128 .L388-.LFB1201
 7431 0523 00       		.uleb128 0
 7432 0524 E704     		.uleb128 .LEHB194-.LFB1201
 7433 0526 1F       		.uleb128 .LEHE194-.LEHB194
 7434 0527 F401     		.uleb128 .L389-.LFB1201
 7435 0529 00       		.uleb128 0
 7436 052a 8605     		.uleb128 .LEHB195-.LFB1201
 7437 052c 05       		.uleb128 .LEHE195-.LEHB195
 7438 052d 00       		.uleb128 0
 7439 052e 00       		.uleb128 0
 7440              	.LLSDACSE1201:
 7441 052f 03       		.byte	0x3
 7442 0530 00       		.byte	0
 7443 0531 02       		.byte	0x2
 7444 0532 7D       		.byte	0x7d
 7445 0533 01       		.byte	0x1
 7446 0534 7D       		.byte	0x7d
 7447 0535 00       		.byte	0
 7448 0536 7D       		.byte	0x7d
 7449 0537 00       		.align 4
 7450 0538 00000000 		.long	0
 7451              	
 7452 053c 00000000 		.long	_ZTISt9exception
 7453 0540 00000000 		.long	_ZTIN8UnitTest15AssertExceptionE
 7454              	.LLSDATT1201:
 7455              		.text
 7458              	_ZN8UnitTest11ExecuteTestIN12_GLOBAL__N_115SuiteTestSuite265DummyFixtureSimilarlyNamedFixtureTestsI
 7459              	.LFB1202:
  16:../ExecuteTest.h **** {
 7460              		.loc 8 16 0
 7461              		.cfi_startproc
 7462              		.cfi_personality 0x3,__gxx_personality_v0
 7463              		.cfi_lsda 0x3,.LLSDA1202
 7464 329e 55       		pushq	%rbp
 7465              		.cfi_def_cfa_offset 16
 7466              		.cfi_offset 6, -16
 7467 329f 4889E5   		movq	%rsp, %rbp
 7468              		.cfi_def_cfa_register 6
 7469 32a2 4154     		pushq	%r12
 7470 32a4 53       		pushq	%rbx
 7471 32a5 4881EC80 		subq	$1152, %rsp
 7471      040000
 7472              		.cfi_offset 12, -24
 7473              		.cfi_offset 3, -32
 7474 32ac 4889BD78 		movq	%rdi, -1160(%rbp)
 7474      FBFFFF
 7475 32b3 4889B570 		movq	%rsi, -1168(%rbp)
 7475      FBFFFF
 7476              	.LEHB196:
 7477              	.LBB163:
  18:../ExecuteTest.h **** 
 7478              		.loc 8 18 0
 7479 32ba E8000000 		call	_ZN8UnitTest11CurrentTest7DetailsEv
 7479      00
 7480              	.LEHE196:
 7481 32bf 488B9570 		movq	-1168(%rbp), %rdx
 7481      FBFFFF
 7482 32c6 488910   		movq	%rdx, (%rax)
 7483              	.LBB164:
  23:../ExecuteTest.h **** #endif
 7484              		.loc 8 23 0
 7485 32c9 488D8590 		leaq	-1136(%rbp), %rax
 7485      FBFFFF
 7486 32d0 4889C7   		movq	%rax, %rdi
 7487              	.LEHB197:
 7488 32d3 E8000000 		call	_ZN8UnitTest16SignalTranslatorC1Ev
 7488      00
 7489              	.LEHE197:
  23:../ExecuteTest.h **** #endif
 7490              		.loc 8 23 0 is_stmt 0 discriminator 1
 7491 32d8 488B0500 		movq	_ZN8UnitTest16SignalTranslator12s_jumpTargetE(%rip), %rax
 7491      000000
 7492 32df BE010000 		movl	$1, %esi
 7492      00
 7493 32e4 4889C7   		movq	%rax, %rdi
 7494 32e7 E8000000 		call	__sigsetjmp
 7494      00
 7495 32ec 85C0     		testl	%eax, %eax
 7496 32ee 0F95C0   		setne	%al
 7497 32f1 84C0     		testb	%al, %al
 7498 32f3 7423     		je	.L393
 7499 32f5 BF080000 		movl	$8, %edi
 7499      00
 7500 32fa E8000000 		call	__cxa_allocate_exception
 7500      00
 7501 32ff 48C70000 		movq	$.LC75, (%rax)
 7501      000000
 7502 3306 BA000000 		movl	$0, %edx
 7502      00
 7503 330b BE000000 		movl	$_ZTIPKc, %esi
 7503      00
 7504 3310 4889C7   		movq	%rax, %rdi
 7505              	.LEHB198:
 7506 3313 E8000000 		call	__cxa_throw
 7506      00
 7507              	.LEHE198:
 7508              	.L393:
  25:../ExecuteTest.h **** 	}
 7509              		.loc 8 25 0 is_stmt 1
 7510 3318 488B8578 		movq	-1160(%rbp), %rax
 7510      FBFFFF
 7511 331f 4889C7   		movq	%rax, %rdi
 7512 3322 E8C9DCFF 		call	_ZN12_GLOBAL__N_115SuiteTestSuite265DummyFixtureSimilarlyNamedFixtureTestsInDifferentSuitesWo
 7512      FF
 7513 3327 488D8590 		leaq	-1136(%rbp), %rax
 7513      FBFFFF
 7514 332e 4889C7   		movq	%rax, %rdi
 7515              	.LEHB199:
 7516 3331 E8000000 		call	_ZN8UnitTest16SignalTranslatorD1Ev
 7516      00
 7517              	.LEHE199:
 7518              	.LBE164:
 7519              	.LBE163:
 7520              		.loc 8 42 0
 7521 3336 E9EE0100 		jmp	.L411
 7521      00
 7522              	.L404:
 7523 333b 4989C4   		movq	%rax, %r12
 7524 333e 4889D3   		movq	%rdx, %rbx
 7525              	.LBB172:
 7526              	.LBB165:
  25:../ExecuteTest.h **** 	}
 7527              		.loc 8 25 0
 7528 3341 488D8590 		leaq	-1136(%rbp), %rax
 7528      FBFFFF
 7529 3348 4889C7   		movq	%rax, %rdi
 7530 334b E8000000 		call	_ZN8UnitTest16SignalTranslatorD1Ev
 7530      00
 7531 3350 4C89E0   		movq	%r12, %rax
 7532 3353 4889DA   		movq	%rbx, %rdx
 7533 3356 EB4D     		jmp	.L395
 7534              	.L406:
 7535 3358 4889C3   		movq	%rax, %rbx
 7536              	.LBE165:
 7537              	.LBB166:
  27:../ExecuteTest.h **** 	{
 7538              		.loc 8 27 0
 7539 335b E8000000 		call	__cxa_end_catch
 7539      00
 7540 3360 4889D8   		movq	%rbx, %rax
 7541 3363 4889C7   		movq	%rax, %rdi
 7542              	.LEHB200:
 7543 3366 E8000000 		call	_Unwind_Resume
 7543      00
 7544              	.LEHE200:
 7545              	.L407:
 7546 336b 4889C3   		movq	%rax, %rbx
 7547              	.LBE166:
 7548              	.LBB167:
 7549              	.LBB168:
  36:../ExecuteTest.h **** 	}
 7550              		.loc 8 36 0
 7551 336e 488D8590 		leaq	-1136(%rbp), %rax
 7551      FBFFFF
 7552 3375 4889C7   		movq	%rax, %rdi
 7553 3378 E8000000 		call	_ZN8UnitTest15MemoryOutStreamD1Ev
 7553      00
 7554 337d EB03     		jmp	.L398
 7555              	.L408:
 7556 337f 4889C3   		movq	%rax, %rbx
 7557              	.L398:
 7558              	.LBE168:
  32:../ExecuteTest.h **** 	{
 7559              		.loc 8 32 0
 7560 3382 E8000000 		call	__cxa_end_catch
 7560      00
 7561 3387 4889D8   		movq	%rbx, %rax
 7562 338a 4889C7   		movq	%rax, %rdi
 7563              	.LEHB201:
 7564 338d E8000000 		call	_Unwind_Resume
 7564      00
 7565              	.LEHE201:
 7566              	.L409:
 7567 3392 4889C3   		movq	%rax, %rbx
 7568              	.LBE167:
  38:../ExecuteTest.h **** 	{
 7569              		.loc 8 38 0
 7570 3395 E8000000 		call	__cxa_end_catch
 7570      00
 7571 339a 4889D8   		movq	%rbx, %rax
 7572 339d 4889C7   		movq	%rax, %rdi
 7573              	.LEHB202:
 7574 33a0 E8000000 		call	_Unwind_Resume
 7574      00
 7575              	.LEHE202:
 7576              	.L405:
 7577              	.L395:
 7578 33a5 4883FA01 		cmpq	$1, %rdx
 7579 33a9 740F     		je	.L401
 7580 33ab 4883FA02 		cmpq	$2, %rdx
 7581 33af 0F84A600 		je	.L402
 7581      0000
 7582 33b5 E9430100 		jmp	.L410
 7582      00
 7583              	.L401:
 7584              	.LBB170:
  27:../ExecuteTest.h **** 	{
 7585              		.loc 8 27 0
 7586 33ba 4889C7   		movq	%rax, %rdi
 7587 33bd E8000000 		call	__cxa_begin_catch
 7587      00
 7588 33c2 48898580 		movq	%rax, -1152(%rbp)
 7588      FBFFFF
  30:../ExecuteTest.h **** 	}
 7589              		.loc 8 30 0
 7590 33c9 488B8580 		movq	-1152(%rbp), %rax
 7590      FBFFFF
 7591 33d0 488B00   		movq	(%rax), %rax
 7592 33d3 4883C010 		addq	$16, %rax
 7593 33d7 488B00   		movq	(%rax), %rax
 7594 33da 488B9580 		movq	-1152(%rbp), %rdx
 7594      FBFFFF
 7595 33e1 4889D7   		movq	%rdx, %rdi
 7596 33e4 FFD0     		call	*%rax
 7597 33e6 4889C3   		movq	%rax, %rbx
 7598 33e9 488B8580 		movq	-1152(%rbp), %rax
 7598      FBFFFF
 7599 33f0 4889C7   		movq	%rax, %rdi
 7600              	.LEHB203:
 7601 33f3 E8000000 		call	_ZNK8UnitTest15AssertException10LineNumberEv
 7601      00
 7602 33f8 4189C4   		movl	%eax, %r12d
 7603 33fb 488B8580 		movq	-1152(%rbp), %rax
 7603      FBFFFF
 7604 3402 4889C7   		movq	%rax, %rdi
 7605 3405 E8000000 		call	_ZNK8UnitTest15AssertException8FilenameEv
 7605      00
  30:../ExecuteTest.h **** 	}
 7606              		.loc 8 30 0 is_stmt 0 discriminator 1
 7607 340a 4889C1   		movq	%rax, %rcx
 7608 340d 488B8570 		movq	-1168(%rbp), %rax
 7608      FBFFFF
 7609 3414 488B10   		movq	(%rax), %rdx
 7610 3417 488B8570 		movq	-1168(%rbp), %rax
 7610      FBFFFF
 7611 341e 488B7008 		movq	8(%rax), %rsi
 7612 3422 488D8590 		leaq	-1136(%rbp), %rax
 7612      FBFFFF
 7613 3429 4589E0   		movl	%r12d, %r8d
 7614 342c 4889C7   		movq	%rax, %rdi
 7615 342f E8000000 		call	_ZN8UnitTest11TestDetailsC1EPKcS2_S2_i
 7615      00
  29:../ExecuteTest.h **** 			TestDetails(details.testName, details.suiteName, e.Filename(), e.LineNumber()), e.what());
 7616              		.loc 8 29 0 is_stmt 1
 7617 3434 E8000000 		call	_ZN8UnitTest11CurrentTest7ResultsEv
 7617      00
  30:../ExecuteTest.h **** 	}
 7618              		.loc 8 30 0
 7619 3439 488B00   		movq	(%rax), %rax
  29:../ExecuteTest.h **** 			TestDetails(details.testName, details.suiteName, e.Filename(), e.LineNumber()), e.what());
 7620              		.loc 8 29 0
 7621 343c 488D8D90 		leaq	-1136(%rbp), %rcx
 7621      FBFFFF
 7622 3443 4889DA   		movq	%rbx, %rdx
 7623 3446 4889CE   		movq	%rcx, %rsi
 7624 3449 4889C7   		movq	%rax, %rdi
 7625 344c E8000000 		call	_ZN8UnitTest11TestResults13OnTestFailureERKNS_11TestDetailsEPKc
 7625      00
 7626              	.LEHE203:
  27:../ExecuteTest.h **** 	{
 7627              		.loc 8 27 0
 7628 3451 E8000000 		call	__cxa_end_catch
 7628      00
 7629              	.LBE170:
 7630              	.LBE172:
 7631              		.loc 8 42 0
 7632 3456 E9CE0000 		jmp	.L411
 7632      00
 7633              	.L402:
 7634              	.LBB173:
 7635              	.LBB171:
  32:../ExecuteTest.h **** 	{
 7636              		.loc 8 32 0
 7637 345b 4889C7   		movq	%rax, %rdi
 7638 345e E8000000 		call	__cxa_begin_catch
 7638      00
 7639 3463 48898588 		movq	%rax, -1144(%rbp)
 7639      FBFFFF
 7640              	.LBB169:
  34:../ExecuteTest.h **** 		stream << "Unhandled exception: " << e.what();
 7641              		.loc 8 34 0
 7642 346a 488D8590 		leaq	-1136(%rbp), %rax
 7642      FBFFFF
 7643 3471 4889C7   		movq	%rax, %rdi
 7644              	.LEHB204:
 7645 3474 E8000000 		call	_ZN8UnitTest15MemoryOutStreamC1Ev
 7645      00
 7646              	.LEHE204:
  35:../ExecuteTest.h **** 		CurrentTest::Results()->OnTestFailure(details, stream.GetText());
 7647              		.loc 8 35 0
 7648 3479 488B8588 		movq	-1144(%rbp), %rax
 7648      FBFFFF
 7649 3480 488B00   		movq	(%rax), %rax
 7650 3483 4883C010 		addq	$16, %rax
 7651 3487 488B00   		movq	(%rax), %rax
 7652 348a 488B9588 		movq	-1144(%rbp), %rdx
 7652      FBFFFF
 7653 3491 4889D7   		movq	%rdx, %rdi
 7654 3494 FFD0     		call	*%rax
 7655 3496 4889C3   		movq	%rax, %rbx
 7656 3499 488D8590 		leaq	-1136(%rbp), %rax
 7656      FBFFFF
 7657 34a0 BE000000 		movl	$.LC11, %esi
 7657      00
 7658 34a5 4889C7   		movq	%rax, %rdi
 7659              	.LEHB205:
 7660 34a8 E8000000 		call	_ZStlsISt11char_traitsIcEERSt13basic_ostreamIcT_ES5_PKc
 7660      00
 7661 34ad 4889DE   		movq	%rbx, %rsi
 7662 34b0 4889C7   		movq	%rax, %rdi
 7663 34b3 E8000000 		call	_ZStlsISt11char_traitsIcEERSt13basic_ostreamIcT_ES5_PKc
 7663      00
  36:../ExecuteTest.h **** 	}
 7664              		.loc 8 36 0
 7665 34b8 488D8590 		leaq	-1136(%rbp), %rax
 7665      FBFFFF
 7666 34bf 4889C7   		movq	%rax, %rdi
 7667 34c2 E8000000 		call	_ZNK8UnitTest15MemoryOutStream7GetTextEv
 7667      00
 7668 34c7 4889C3   		movq	%rax, %rbx
 7669 34ca E8000000 		call	_ZN8UnitTest11CurrentTest7ResultsEv
 7669      00
  36:../ExecuteTest.h **** 	}
 7670              		.loc 8 36 0 is_stmt 0 discriminator 1
 7671 34cf 488B00   		movq	(%rax), %rax
 7672 34d2 488B8D70 		movq	-1168(%rbp), %rcx
 7672      FBFFFF
 7673 34d9 4889DA   		movq	%rbx, %rdx
 7674 34dc 4889CE   		movq	%rcx, %rsi
 7675 34df 4889C7   		movq	%rax, %rdi
 7676 34e2 E8000000 		call	_ZN8UnitTest11TestResults13OnTestFailureERKNS_11TestDetailsEPKc
 7676      00
 7677              	.LEHE205:
 7678 34e7 488D8590 		leaq	-1136(%rbp), %rax
 7678      FBFFFF
 7679 34ee 4889C7   		movq	%rax, %rdi
 7680              	.LEHB206:
 7681 34f1 E8000000 		call	_ZN8UnitTest15MemoryOutStreamD1Ev
 7681      00
 7682              	.LEHE206:
 7683              	.LBE169:
  32:../ExecuteTest.h **** 	{
 7684              		.loc 8 32 0 is_stmt 1
 7685 34f6 E8000000 		call	__cxa_end_catch
 7685      00
 7686              	.LBE171:
 7687              	.LBE173:
 7688              		.loc 8 42 0
 7689 34fb EB2C     		jmp	.L411
 7690              	.L410:
 7691              	.LBB174:
  38:../ExecuteTest.h **** 	{
 7692              		.loc 8 38 0
 7693 34fd 4889C7   		movq	%rax, %rdi
 7694 3500 E8000000 		call	__cxa_begin_catch
 7694      00
 7695              	.LEHB207:
  40:../ExecuteTest.h **** 	}
 7696              		.loc 8 40 0
 7697 3505 E8000000 		call	_ZN8UnitTest11CurrentTest7ResultsEv
 7697      00
 7698 350a 488B00   		movq	(%rax), %rax
 7699 350d 488B8D70 		movq	-1168(%rbp), %rcx
 7699      FBFFFF
 7700 3514 BA000000 		movl	$.LC76, %edx
 7700      00
 7701 3519 4889CE   		movq	%rcx, %rsi
 7702 351c 4889C7   		movq	%rax, %rdi
 7703 351f E8000000 		call	_ZN8UnitTest11TestResults13OnTestFailureERKNS_11TestDetailsEPKc
 7703      00
 7704              	.LEHE207:
 7705              	.LEHB208:
  38:../ExecuteTest.h **** 	{
 7706              		.loc 8 38 0
 7707 3524 E8000000 		call	__cxa_end_catch
 7707      00
 7708              	.LEHE208:
 7709              	.L411:
 7710              	.LBE174:
 7711              		.loc 8 42 0
 7712 3529 90       		nop
 7713 352a 4881C480 		addq	$1152, %rsp
 7713      040000
 7714 3531 5B       		popq	%rbx
 7715 3532 415C     		popq	%r12
 7716 3534 5D       		popq	%rbp
 7717              		.cfi_def_cfa 7, 8
 7718 3535 C3       		ret
 7719              		.cfi_endproc
 7720              	.LFE1202:
 7721              		.section	.gcc_except_table
 7722              		.align 4
 7723              	.LLSDA1202:
 7724 0544 FF       		.byte	0xff
 7725 0545 03       		.byte	0x3
 7726 0546 5D       		.uleb128 .LLSDATT1202-.LLSDATTD1202
 7727              	.LLSDATTD1202:
 7728 0547 01       		.byte	0x1
 7729 0548 46       		.uleb128 .LLSDACSE1202-.LLSDACSB1202
 7730              	.LLSDACSB1202:
 7731 0549 1C       		.uleb128 .LEHB196-.LFB1202
 7732 054a 05       		.uleb128 .LEHE196-.LEHB196
 7733 054b 00       		.uleb128 0
 7734 054c 00       		.uleb128 0
 7735 054d 35       		.uleb128 .LEHB197-.LFB1202
 7736 054e 05       		.uleb128 .LEHE197-.LEHB197
 7737 054f 8702     		.uleb128 .L405-.LFB1202
 7738 0551 05       		.uleb128 0x5
 7739 0552 75       		.uleb128 .LEHB198-.LFB1202
 7740 0553 05       		.uleb128 .LEHE198-.LEHB198
 7741 0554 9D01     		.uleb128 .L404-.LFB1202
 7742 0556 07       		.uleb128 0x7
 7743 0557 9301     		.uleb128 .LEHB199-.LFB1202
 7744 0559 05       		.uleb128 .LEHE199-.LEHB199
 7745 055a 8702     		.uleb128 .L405-.LFB1202
 7746 055c 05       		.uleb128 0x5
 7747 055d C801     		.uleb128 .LEHB200-.LFB1202
 7748 055f 05       		.uleb128 .LEHE200-.LEHB200
 7749 0560 00       		.uleb128 0
 7750 0561 00       		.uleb128 0
 7751 0562 EF01     		.uleb128 .LEHB201-.LFB1202
 7752 0564 05       		.uleb128 .LEHE201-.LEHB201
 7753 0565 00       		.uleb128 0
 7754 0566 00       		.uleb128 0
 7755 0567 8202     		.uleb128 .LEHB202-.LFB1202
 7756 0569 05       		.uleb128 .LEHE202-.LEHB202
 7757 056a 00       		.uleb128 0
 7758 056b 00       		.uleb128 0
 7759 056c D502     		.uleb128 .LEHB203-.LFB1202
 7760 056e 5E       		.uleb128 .LEHE203-.LEHB203
 7761 056f BA01     		.uleb128 .L406-.LFB1202
 7762 0571 00       		.uleb128 0
 7763 0572 D603     		.uleb128 .LEHB204-.LFB1202
 7764 0574 05       		.uleb128 .LEHE204-.LEHB204
 7765 0575 E101     		.uleb128 .L408-.LFB1202
 7766 0577 00       		.uleb128 0
 7767 0578 8A04     		.uleb128 .LEHB205-.LFB1202
 7768 057a 3F       		.uleb128 .LEHE205-.LEHB205
 7769 057b CD01     		.uleb128 .L407-.LFB1202
 7770 057d 00       		.uleb128 0
 7771 057e D304     		.uleb128 .LEHB206-.LFB1202
 7772 0580 05       		.uleb128 .LEHE206-.LEHB206
 7773 0581 E101     		.uleb128 .L408-.LFB1202
 7774 0583 00       		.uleb128 0
 7775 0584 E704     		.uleb128 .LEHB207-.LFB1202
 7776 0586 1F       		.uleb128 .LEHE207-.LEHB207
 7777 0587 F401     		.uleb128 .L409-.LFB1202
 7778 0589 00       		.uleb128 0
 7779 058a 8605     		.uleb128 .LEHB208-.LFB1202
 7780 058c 05       		.uleb128 .LEHE208-.LEHB208
 7781 058d 00       		.uleb128 0
 7782 058e 00       		.uleb128 0
 7783              	.LLSDACSE1202:
 7784 058f 03       		.byte	0x3
 7785 0590 00       		.byte	0
 7786 0591 02       		.byte	0x2
 7787 0592 7D       		.byte	0x7d
 7788 0593 01       		.byte	0x1
 7789 0594 7D       		.byte	0x7d
 7790 0595 00       		.byte	0
 7791 0596 7D       		.byte	0x7d
 7792 0597 00       		.align 4
 7793 0598 00000000 		.long	0
 7794              	
 7795 059c 00000000 		.long	_ZTISt9exception
 7796 05a0 00000000 		.long	_ZTIN8UnitTest15AssertExceptionE
 7797              	.LLSDATT1202:
 7798              		.text
 7801              	_ZN8UnitTest11ExecuteTestIN12_GLOBAL__N_134DummyFixtureMacroTestHelper2HelperEEEvRT_RKNS_11TestDeta
 7802              	.LFB1203:
  16:../ExecuteTest.h **** {
 7803              		.loc 8 16 0
 7804              		.cfi_startproc
 7805              		.cfi_personality 0x3,__gxx_personality_v0
 7806              		.cfi_lsda 0x3,.LLSDA1203
 7807 3536 55       		pushq	%rbp
 7808              		.cfi_def_cfa_offset 16
 7809              		.cfi_offset 6, -16
 7810 3537 4889E5   		movq	%rsp, %rbp
 7811              		.cfi_def_cfa_register 6
 7812 353a 4154     		pushq	%r12
 7813 353c 53       		pushq	%rbx
 7814 353d 4881EC80 		subq	$1152, %rsp
 7814      040000
 7815              		.cfi_offset 12, -24
 7816              		.cfi_offset 3, -32
 7817 3544 4889BD78 		movq	%rdi, -1160(%rbp)
 7817      FBFFFF
 7818 354b 4889B570 		movq	%rsi, -1168(%rbp)
 7818      FBFFFF
 7819              	.LEHB209:
 7820              	.LBB175:
  18:../ExecuteTest.h **** 
 7821              		.loc 8 18 0
 7822 3552 E8000000 		call	_ZN8UnitTest11CurrentTest7DetailsEv
 7822      00
 7823              	.LEHE209:
 7824 3557 488B9570 		movq	-1168(%rbp), %rdx
 7824      FBFFFF
 7825 355e 488910   		movq	%rdx, (%rax)
 7826              	.LBB176:
  23:../ExecuteTest.h **** #endif
 7827              		.loc 8 23 0
 7828 3561 488D8590 		leaq	-1136(%rbp), %rax
 7828      FBFFFF
 7829 3568 4889C7   		movq	%rax, %rdi
 7830              	.LEHB210:
 7831 356b E8000000 		call	_ZN8UnitTest16SignalTranslatorC1Ev
 7831      00
 7832              	.LEHE210:
  23:../ExecuteTest.h **** #endif
 7833              		.loc 8 23 0 is_stmt 0 discriminator 1
 7834 3570 488B0500 		movq	_ZN8UnitTest16SignalTranslator12s_jumpTargetE(%rip), %rax
 7834      000000
 7835 3577 BE010000 		movl	$1, %esi
 7835      00
 7836 357c 4889C7   		movq	%rax, %rdi
 7837 357f E8000000 		call	__sigsetjmp
 7837      00
 7838 3584 85C0     		testl	%eax, %eax
 7839 3586 0F95C0   		setne	%al
 7840 3589 84C0     		testb	%al, %al
 7841 358b 7423     		je	.L413
 7842 358d BF080000 		movl	$8, %edi
 7842      00
 7843 3592 E8000000 		call	__cxa_allocate_exception
 7843      00
 7844 3597 48C70000 		movq	$.LC75, (%rax)
 7844      000000
 7845 359e BA000000 		movl	$0, %edx
 7845      00
 7846 35a3 BE000000 		movl	$_ZTIPKc, %esi
 7846      00
 7847 35a8 4889C7   		movq	%rax, %rdi
 7848              	.LEHB211:
 7849 35ab E8000000 		call	__cxa_throw
 7849      00
 7850              	.LEHE211:
 7851              	.L413:
  25:../ExecuteTest.h **** 	}
 7852              		.loc 8 25 0 is_stmt 1
 7853 35b0 488B8578 		movq	-1160(%rbp), %rax
 7853      FBFFFF
 7854 35b7 4889C7   		movq	%rax, %rdi
 7855 35ba E8F7DFFF 		call	_ZN12_GLOBAL__N_134DummyFixtureMacroTestHelper2Helper7RunImplEv
 7855      FF
 7856 35bf 488D8590 		leaq	-1136(%rbp), %rax
 7856      FBFFFF
 7857 35c6 4889C7   		movq	%rax, %rdi
 7858              	.LEHB212:
 7859 35c9 E8000000 		call	_ZN8UnitTest16SignalTranslatorD1Ev
 7859      00
 7860              	.LEHE212:
 7861              	.LBE176:
 7862              	.LBE175:
 7863              		.loc 8 42 0
 7864 35ce E9EE0100 		jmp	.L431
 7864      00
 7865              	.L424:
 7866 35d3 4989C4   		movq	%rax, %r12
 7867 35d6 4889D3   		movq	%rdx, %rbx
 7868              	.LBB184:
 7869              	.LBB177:
  25:../ExecuteTest.h **** 	}
 7870              		.loc 8 25 0
 7871 35d9 488D8590 		leaq	-1136(%rbp), %rax
 7871      FBFFFF
 7872 35e0 4889C7   		movq	%rax, %rdi
 7873 35e3 E8000000 		call	_ZN8UnitTest16SignalTranslatorD1Ev
 7873      00
 7874 35e8 4C89E0   		movq	%r12, %rax
 7875 35eb 4889DA   		movq	%rbx, %rdx
 7876 35ee EB4D     		jmp	.L415
 7877              	.L426:
 7878 35f0 4889C3   		movq	%rax, %rbx
 7879              	.LBE177:
 7880              	.LBB178:
  27:../ExecuteTest.h **** 	{
 7881              		.loc 8 27 0
 7882 35f3 E8000000 		call	__cxa_end_catch
 7882      00
 7883 35f8 4889D8   		movq	%rbx, %rax
 7884 35fb 4889C7   		movq	%rax, %rdi
 7885              	.LEHB213:
 7886 35fe E8000000 		call	_Unwind_Resume
 7886      00
 7887              	.LEHE213:
 7888              	.L427:
 7889 3603 4889C3   		movq	%rax, %rbx
 7890              	.LBE178:
 7891              	.LBB179:
 7892              	.LBB180:
  36:../ExecuteTest.h **** 	}
 7893              		.loc 8 36 0
 7894 3606 488D8590 		leaq	-1136(%rbp), %rax
 7894      FBFFFF
 7895 360d 4889C7   		movq	%rax, %rdi
 7896 3610 E8000000 		call	_ZN8UnitTest15MemoryOutStreamD1Ev
 7896      00
 7897 3615 EB03     		jmp	.L418
 7898              	.L428:
 7899 3617 4889C3   		movq	%rax, %rbx
 7900              	.L418:
 7901              	.LBE180:
  32:../ExecuteTest.h **** 	{
 7902              		.loc 8 32 0
 7903 361a E8000000 		call	__cxa_end_catch
 7903      00
 7904 361f 4889D8   		movq	%rbx, %rax
 7905 3622 4889C7   		movq	%rax, %rdi
 7906              	.LEHB214:
 7907 3625 E8000000 		call	_Unwind_Resume
 7907      00
 7908              	.LEHE214:
 7909              	.L429:
 7910 362a 4889C3   		movq	%rax, %rbx
 7911              	.LBE179:
  38:../ExecuteTest.h **** 	{
 7912              		.loc 8 38 0
 7913 362d E8000000 		call	__cxa_end_catch
 7913      00
 7914 3632 4889D8   		movq	%rbx, %rax
 7915 3635 4889C7   		movq	%rax, %rdi
 7916              	.LEHB215:
 7917 3638 E8000000 		call	_Unwind_Resume
 7917      00
 7918              	.LEHE215:
 7919              	.L425:
 7920              	.L415:
 7921 363d 4883FA01 		cmpq	$1, %rdx
 7922 3641 740F     		je	.L421
 7923 3643 4883FA02 		cmpq	$2, %rdx
 7924 3647 0F84A600 		je	.L422
 7924      0000
 7925 364d E9430100 		jmp	.L430
 7925      00
 7926              	.L421:
 7927              	.LBB182:
  27:../ExecuteTest.h **** 	{
 7928              		.loc 8 27 0
 7929 3652 4889C7   		movq	%rax, %rdi
 7930 3655 E8000000 		call	__cxa_begin_catch
 7930      00
 7931 365a 48898580 		movq	%rax, -1152(%rbp)
 7931      FBFFFF
  30:../ExecuteTest.h **** 	}
 7932              		.loc 8 30 0
 7933 3661 488B8580 		movq	-1152(%rbp), %rax
 7933      FBFFFF
 7934 3668 488B00   		movq	(%rax), %rax
 7935 366b 4883C010 		addq	$16, %rax
 7936 366f 488B00   		movq	(%rax), %rax
 7937 3672 488B9580 		movq	-1152(%rbp), %rdx
 7937      FBFFFF
 7938 3679 4889D7   		movq	%rdx, %rdi
 7939 367c FFD0     		call	*%rax
 7940 367e 4889C3   		movq	%rax, %rbx
 7941 3681 488B8580 		movq	-1152(%rbp), %rax
 7941      FBFFFF
 7942 3688 4889C7   		movq	%rax, %rdi
 7943              	.LEHB216:
 7944 368b E8000000 		call	_ZNK8UnitTest15AssertException10LineNumberEv
 7944      00
 7945 3690 4189C4   		movl	%eax, %r12d
 7946 3693 488B8580 		movq	-1152(%rbp), %rax
 7946      FBFFFF
 7947 369a 4889C7   		movq	%rax, %rdi
 7948 369d E8000000 		call	_ZNK8UnitTest15AssertException8FilenameEv
 7948      00
  30:../ExecuteTest.h **** 	}
 7949              		.loc 8 30 0 is_stmt 0 discriminator 1
 7950 36a2 4889C1   		movq	%rax, %rcx
 7951 36a5 488B8570 		movq	-1168(%rbp), %rax
 7951      FBFFFF
 7952 36ac 488B10   		movq	(%rax), %rdx
 7953 36af 488B8570 		movq	-1168(%rbp), %rax
 7953      FBFFFF
 7954 36b6 488B7008 		movq	8(%rax), %rsi
 7955 36ba 488D8590 		leaq	-1136(%rbp), %rax
 7955      FBFFFF
 7956 36c1 4589E0   		movl	%r12d, %r8d
 7957 36c4 4889C7   		movq	%rax, %rdi
 7958 36c7 E8000000 		call	_ZN8UnitTest11TestDetailsC1EPKcS2_S2_i
 7958      00
  29:../ExecuteTest.h **** 			TestDetails(details.testName, details.suiteName, e.Filename(), e.LineNumber()), e.what());
 7959              		.loc 8 29 0 is_stmt 1
 7960 36cc E8000000 		call	_ZN8UnitTest11CurrentTest7ResultsEv
 7960      00
  30:../ExecuteTest.h **** 	}
 7961              		.loc 8 30 0
 7962 36d1 488B00   		movq	(%rax), %rax
  29:../ExecuteTest.h **** 			TestDetails(details.testName, details.suiteName, e.Filename(), e.LineNumber()), e.what());
 7963              		.loc 8 29 0
 7964 36d4 488D8D90 		leaq	-1136(%rbp), %rcx
 7964      FBFFFF
 7965 36db 4889DA   		movq	%rbx, %rdx
 7966 36de 4889CE   		movq	%rcx, %rsi
 7967 36e1 4889C7   		movq	%rax, %rdi
 7968 36e4 E8000000 		call	_ZN8UnitTest11TestResults13OnTestFailureERKNS_11TestDetailsEPKc
 7968      00
 7969              	.LEHE216:
  27:../ExecuteTest.h **** 	{
 7970              		.loc 8 27 0
 7971 36e9 E8000000 		call	__cxa_end_catch
 7971      00
 7972              	.LBE182:
 7973              	.LBE184:
 7974              		.loc 8 42 0
 7975 36ee E9CE0000 		jmp	.L431
 7975      00
 7976              	.L422:
 7977              	.LBB185:
 7978              	.LBB183:
  32:../ExecuteTest.h **** 	{
 7979              		.loc 8 32 0
 7980 36f3 4889C7   		movq	%rax, %rdi
 7981 36f6 E8000000 		call	__cxa_begin_catch
 7981      00
 7982 36fb 48898588 		movq	%rax, -1144(%rbp)
 7982      FBFFFF
 7983              	.LBB181:
  34:../ExecuteTest.h **** 		stream << "Unhandled exception: " << e.what();
 7984              		.loc 8 34 0
 7985 3702 488D8590 		leaq	-1136(%rbp), %rax
 7985      FBFFFF
 7986 3709 4889C7   		movq	%rax, %rdi
 7987              	.LEHB217:
 7988 370c E8000000 		call	_ZN8UnitTest15MemoryOutStreamC1Ev
 7988      00
 7989              	.LEHE217:
  35:../ExecuteTest.h **** 		CurrentTest::Results()->OnTestFailure(details, stream.GetText());
 7990              		.loc 8 35 0
 7991 3711 488B8588 		movq	-1144(%rbp), %rax
 7991      FBFFFF
 7992 3718 488B00   		movq	(%rax), %rax
 7993 371b 4883C010 		addq	$16, %rax
 7994 371f 488B00   		movq	(%rax), %rax
 7995 3722 488B9588 		movq	-1144(%rbp), %rdx
 7995      FBFFFF
 7996 3729 4889D7   		movq	%rdx, %rdi
 7997 372c FFD0     		call	*%rax
 7998 372e 4889C3   		movq	%rax, %rbx
 7999 3731 488D8590 		leaq	-1136(%rbp), %rax
 7999      FBFFFF
 8000 3738 BE000000 		movl	$.LC11, %esi
 8000      00
 8001 373d 4889C7   		movq	%rax, %rdi
 8002              	.LEHB218:
 8003 3740 E8000000 		call	_ZStlsISt11char_traitsIcEERSt13basic_ostreamIcT_ES5_PKc
 8003      00
 8004 3745 4889DE   		movq	%rbx, %rsi
 8005 3748 4889C7   		movq	%rax, %rdi
 8006 374b E8000000 		call	_ZStlsISt11char_traitsIcEERSt13basic_ostreamIcT_ES5_PKc
 8006      00
  36:../ExecuteTest.h **** 	}
 8007              		.loc 8 36 0
 8008 3750 488D8590 		leaq	-1136(%rbp), %rax
 8008      FBFFFF
 8009 3757 4889C7   		movq	%rax, %rdi
 8010 375a E8000000 		call	_ZNK8UnitTest15MemoryOutStream7GetTextEv
 8010      00
 8011 375f 4889C3   		movq	%rax, %rbx
 8012 3762 E8000000 		call	_ZN8UnitTest11CurrentTest7ResultsEv
 8012      00
  36:../ExecuteTest.h **** 	}
 8013              		.loc 8 36 0 is_stmt 0 discriminator 1
 8014 3767 488B00   		movq	(%rax), %rax
 8015 376a 488B8D70 		movq	-1168(%rbp), %rcx
 8015      FBFFFF
 8016 3771 4889DA   		movq	%rbx, %rdx
 8017 3774 4889CE   		movq	%rcx, %rsi
 8018 3777 4889C7   		movq	%rax, %rdi
 8019 377a E8000000 		call	_ZN8UnitTest11TestResults13OnTestFailureERKNS_11TestDetailsEPKc
 8019      00
 8020              	.LEHE218:
 8021 377f 488D8590 		leaq	-1136(%rbp), %rax
 8021      FBFFFF
 8022 3786 4889C7   		movq	%rax, %rdi
 8023              	.LEHB219:
 8024 3789 E8000000 		call	_ZN8UnitTest15MemoryOutStreamD1Ev
 8024      00
 8025              	.LEHE219:
 8026              	.LBE181:
  32:../ExecuteTest.h **** 	{
 8027              		.loc 8 32 0 is_stmt 1
 8028 378e E8000000 		call	__cxa_end_catch
 8028      00
 8029              	.LBE183:
 8030              	.LBE185:
 8031              		.loc 8 42 0
 8032 3793 EB2C     		jmp	.L431
 8033              	.L430:
 8034              	.LBB186:
  38:../ExecuteTest.h **** 	{
 8035              		.loc 8 38 0
 8036 3795 4889C7   		movq	%rax, %rdi
 8037 3798 E8000000 		call	__cxa_begin_catch
 8037      00
 8038              	.LEHB220:
  40:../ExecuteTest.h **** 	}
 8039              		.loc 8 40 0
 8040 379d E8000000 		call	_ZN8UnitTest11CurrentTest7ResultsEv
 8040      00
 8041 37a2 488B00   		movq	(%rax), %rax
 8042 37a5 488B8D70 		movq	-1168(%rbp), %rcx
 8042      FBFFFF
 8043 37ac BA000000 		movl	$.LC76, %edx
 8043      00
 8044 37b1 4889CE   		movq	%rcx, %rsi
 8045 37b4 4889C7   		movq	%rax, %rdi
 8046 37b7 E8000000 		call	_ZN8UnitTest11TestResults13OnTestFailureERKNS_11TestDetailsEPKc
 8046      00
 8047              	.LEHE220:
 8048              	.LEHB221:
  38:../ExecuteTest.h **** 	{
 8049              		.loc 8 38 0
 8050 37bc E8000000 		call	__cxa_end_catch
 8050      00
 8051              	.LEHE221:
 8052              	.L431:
 8053              	.LBE186:
 8054              		.loc 8 42 0
 8055 37c1 90       		nop
 8056 37c2 4881C480 		addq	$1152, %rsp
 8056      040000
 8057 37c9 5B       		popq	%rbx
 8058 37ca 415C     		popq	%r12
 8059 37cc 5D       		popq	%rbp
 8060              		.cfi_def_cfa 7, 8
 8061 37cd C3       		ret
 8062              		.cfi_endproc
 8063              	.LFE1203:
 8064              		.section	.gcc_except_table
 8065              		.align 4
 8066              	.LLSDA1203:
 8067 05a4 FF       		.byte	0xff
 8068 05a5 03       		.byte	0x3
 8069 05a6 5D       		.uleb128 .LLSDATT1203-.LLSDATTD1203
 8070              	.LLSDATTD1203:
 8071 05a7 01       		.byte	0x1
 8072 05a8 46       		.uleb128 .LLSDACSE1203-.LLSDACSB1203
 8073              	.LLSDACSB1203:
 8074 05a9 1C       		.uleb128 .LEHB209-.LFB1203
 8075 05aa 05       		.uleb128 .LEHE209-.LEHB209
 8076 05ab 00       		.uleb128 0
 8077 05ac 00       		.uleb128 0
 8078 05ad 35       		.uleb128 .LEHB210-.LFB1203
 8079 05ae 05       		.uleb128 .LEHE210-.LEHB210
 8080 05af 8702     		.uleb128 .L425-.LFB1203
 8081 05b1 05       		.uleb128 0x5
 8082 05b2 75       		.uleb128 .LEHB211-.LFB1203
 8083 05b3 05       		.uleb128 .LEHE211-.LEHB211
 8084 05b4 9D01     		.uleb128 .L424-.LFB1203
 8085 05b6 07       		.uleb128 0x7
 8086 05b7 9301     		.uleb128 .LEHB212-.LFB1203
 8087 05b9 05       		.uleb128 .LEHE212-.LEHB212
 8088 05ba 8702     		.uleb128 .L425-.LFB1203
 8089 05bc 05       		.uleb128 0x5
 8090 05bd C801     		.uleb128 .LEHB213-.LFB1203
 8091 05bf 05       		.uleb128 .LEHE213-.LEHB213
 8092 05c0 00       		.uleb128 0
 8093 05c1 00       		.uleb128 0
 8094 05c2 EF01     		.uleb128 .LEHB214-.LFB1203
 8095 05c4 05       		.uleb128 .LEHE214-.LEHB214
 8096 05c5 00       		.uleb128 0
 8097 05c6 00       		.uleb128 0
 8098 05c7 8202     		.uleb128 .LEHB215-.LFB1203
 8099 05c9 05       		.uleb128 .LEHE215-.LEHB215
 8100 05ca 00       		.uleb128 0
 8101 05cb 00       		.uleb128 0
 8102 05cc D502     		.uleb128 .LEHB216-.LFB1203
 8103 05ce 5E       		.uleb128 .LEHE216-.LEHB216
 8104 05cf BA01     		.uleb128 .L426-.LFB1203
 8105 05d1 00       		.uleb128 0
 8106 05d2 D603     		.uleb128 .LEHB217-.LFB1203
 8107 05d4 05       		.uleb128 .LEHE217-.LEHB217
 8108 05d5 E101     		.uleb128 .L428-.LFB1203
 8109 05d7 00       		.uleb128 0
 8110 05d8 8A04     		.uleb128 .LEHB218-.LFB1203
 8111 05da 3F       		.uleb128 .LEHE218-.LEHB218
 8112 05db CD01     		.uleb128 .L427-.LFB1203
 8113 05dd 00       		.uleb128 0
 8114 05de D304     		.uleb128 .LEHB219-.LFB1203
 8115 05e0 05       		.uleb128 .LEHE219-.LEHB219
 8116 05e1 E101     		.uleb128 .L428-.LFB1203
 8117 05e3 00       		.uleb128 0
 8118 05e4 E704     		.uleb128 .LEHB220-.LFB1203
 8119 05e6 1F       		.uleb128 .LEHE220-.LEHB220
 8120 05e7 F401     		.uleb128 .L429-.LFB1203
 8121 05e9 00       		.uleb128 0
 8122 05ea 8605     		.uleb128 .LEHB221-.LFB1203
 8123 05ec 05       		.uleb128 .LEHE221-.LEHB221
 8124 05ed 00       		.uleb128 0
 8125 05ee 00       		.uleb128 0
 8126              	.LLSDACSE1203:
 8127 05ef 03       		.byte	0x3
 8128 05f0 00       		.byte	0
 8129 05f1 02       		.byte	0x2
 8130 05f2 7D       		.byte	0x7d
 8131 05f3 01       		.byte	0x1
 8132 05f4 7D       		.byte	0x7d
 8133 05f5 00       		.byte	0
 8134 05f6 7D       		.byte	0x7d
 8135 05f7 00       		.align 4
 8136 05f8 00000000 		.long	0
 8137              	
 8138 05fc 00000000 		.long	_ZTISt9exception
 8139 0600 00000000 		.long	_ZTIN8UnitTest15AssertExceptionE
 8140              	.LLSDATT1203:
 8141              		.text
 8144              	_ZN8UnitTest11ExecuteTestIN12_GLOBAL__N_148FixtureCtorThrowsFixtureCtorThrowsTestNameHelperEEEvRT_R
 8145              	.LFB1204:
  16:../ExecuteTest.h **** {
 8146              		.loc 8 16 0
 8147              		.cfi_startproc
 8148              		.cfi_personality 0x3,__gxx_personality_v0
 8149              		.cfi_lsda 0x3,.LLSDA1204
 8150 37ce 55       		pushq	%rbp
 8151              		.cfi_def_cfa_offset 16
 8152              		.cfi_offset 6, -16
 8153 37cf 4889E5   		movq	%rsp, %rbp
 8154              		.cfi_def_cfa_register 6
 8155 37d2 4154     		pushq	%r12
 8156 37d4 53       		pushq	%rbx
 8157 37d5 4881EC80 		subq	$1152, %rsp
 8157      040000
 8158              		.cfi_offset 12, -24
 8159              		.cfi_offset 3, -32
 8160 37dc 4889BD78 		movq	%rdi, -1160(%rbp)
 8160      FBFFFF
 8161 37e3 4889B570 		movq	%rsi, -1168(%rbp)
 8161      FBFFFF
 8162              	.LEHB222:
 8163              	.LBB187:
  18:../ExecuteTest.h **** 
 8164              		.loc 8 18 0
 8165 37ea E8000000 		call	_ZN8UnitTest11CurrentTest7DetailsEv
 8165      00
 8166              	.LEHE222:
 8167 37ef 488B9570 		movq	-1168(%rbp), %rdx
 8167      FBFFFF
 8168 37f6 488910   		movq	%rdx, (%rax)
 8169              	.LBB188:
  23:../ExecuteTest.h **** #endif
 8170              		.loc 8 23 0
 8171 37f9 488D8590 		leaq	-1136(%rbp), %rax
 8171      FBFFFF
 8172 3800 4889C7   		movq	%rax, %rdi
 8173              	.LEHB223:
 8174 3803 E8000000 		call	_ZN8UnitTest16SignalTranslatorC1Ev
 8174      00
 8175              	.LEHE223:
  23:../ExecuteTest.h **** #endif
 8176              		.loc 8 23 0 is_stmt 0 discriminator 1
 8177 3808 488B0500 		movq	_ZN8UnitTest16SignalTranslator12s_jumpTargetE(%rip), %rax
 8177      000000
 8178 380f BE010000 		movl	$1, %esi
 8178      00
 8179 3814 4889C7   		movq	%rax, %rdi
 8180 3817 E8000000 		call	__sigsetjmp
 8180      00
 8181 381c 85C0     		testl	%eax, %eax
 8182 381e 0F95C0   		setne	%al
 8183 3821 84C0     		testb	%al, %al
 8184 3823 7423     		je	.L433
 8185 3825 BF080000 		movl	$8, %edi
 8185      00
 8186 382a E8000000 		call	__cxa_allocate_exception
 8186      00
 8187 382f 48C70000 		movq	$.LC75, (%rax)
 8187      000000
 8188 3836 BA000000 		movl	$0, %edx
 8188      00
 8189 383b BE000000 		movl	$_ZTIPKc, %esi
 8189      00
 8190 3840 4889C7   		movq	%rax, %rdi
 8191              	.LEHB224:
 8192 3843 E8000000 		call	__cxa_throw
 8192      00
 8193              	.LEHE224:
 8194              	.L433:
  25:../ExecuteTest.h **** 	}
 8195              		.loc 8 25 0 is_stmt 1
 8196 3848 488B8578 		movq	-1160(%rbp), %rax
 8196      FBFFFF
 8197 384f 4889C7   		movq	%rax, %rdi
 8198 3852 E80DE3FF 		call	_ZN12_GLOBAL__N_148FixtureCtorThrowsFixtureCtorThrowsTestNameHelper7RunImplEv
 8198      FF
 8199 3857 488D8590 		leaq	-1136(%rbp), %rax
 8199      FBFFFF
 8200 385e 4889C7   		movq	%rax, %rdi
 8201              	.LEHB225:
 8202 3861 E8000000 		call	_ZN8UnitTest16SignalTranslatorD1Ev
 8202      00
 8203              	.LEHE225:
 8204              	.LBE188:
 8205              	.LBE187:
 8206              		.loc 8 42 0
 8207 3866 E9EE0100 		jmp	.L451
 8207      00
 8208              	.L444:
 8209 386b 4989C4   		movq	%rax, %r12
 8210 386e 4889D3   		movq	%rdx, %rbx
 8211              	.LBB196:
 8212              	.LBB189:
  25:../ExecuteTest.h **** 	}
 8213              		.loc 8 25 0
 8214 3871 488D8590 		leaq	-1136(%rbp), %rax
 8214      FBFFFF
 8215 3878 4889C7   		movq	%rax, %rdi
 8216 387b E8000000 		call	_ZN8UnitTest16SignalTranslatorD1Ev
 8216      00
 8217 3880 4C89E0   		movq	%r12, %rax
 8218 3883 4889DA   		movq	%rbx, %rdx
 8219 3886 EB4D     		jmp	.L435
 8220              	.L446:
 8221 3888 4889C3   		movq	%rax, %rbx
 8222              	.LBE189:
 8223              	.LBB190:
  27:../ExecuteTest.h **** 	{
 8224              		.loc 8 27 0
 8225 388b E8000000 		call	__cxa_end_catch
 8225      00
 8226 3890 4889D8   		movq	%rbx, %rax
 8227 3893 4889C7   		movq	%rax, %rdi
 8228              	.LEHB226:
 8229 3896 E8000000 		call	_Unwind_Resume
 8229      00
 8230              	.LEHE226:
 8231              	.L447:
 8232 389b 4889C3   		movq	%rax, %rbx
 8233              	.LBE190:
 8234              	.LBB191:
 8235              	.LBB192:
  36:../ExecuteTest.h **** 	}
 8236              		.loc 8 36 0
 8237 389e 488D8590 		leaq	-1136(%rbp), %rax
 8237      FBFFFF
 8238 38a5 4889C7   		movq	%rax, %rdi
 8239 38a8 E8000000 		call	_ZN8UnitTest15MemoryOutStreamD1Ev
 8239      00
 8240 38ad EB03     		jmp	.L438
 8241              	.L448:
 8242 38af 4889C3   		movq	%rax, %rbx
 8243              	.L438:
 8244              	.LBE192:
  32:../ExecuteTest.h **** 	{
 8245              		.loc 8 32 0
 8246 38b2 E8000000 		call	__cxa_end_catch
 8246      00
 8247 38b7 4889D8   		movq	%rbx, %rax
 8248 38ba 4889C7   		movq	%rax, %rdi
 8249              	.LEHB227:
 8250 38bd E8000000 		call	_Unwind_Resume
 8250      00
 8251              	.LEHE227:
 8252              	.L449:
 8253 38c2 4889C3   		movq	%rax, %rbx
 8254              	.LBE191:
  38:../ExecuteTest.h **** 	{
 8255              		.loc 8 38 0
 8256 38c5 E8000000 		call	__cxa_end_catch
 8256      00
 8257 38ca 4889D8   		movq	%rbx, %rax
 8258 38cd 4889C7   		movq	%rax, %rdi
 8259              	.LEHB228:
 8260 38d0 E8000000 		call	_Unwind_Resume
 8260      00
 8261              	.LEHE228:
 8262              	.L445:
 8263              	.L435:
 8264 38d5 4883FA01 		cmpq	$1, %rdx
 8265 38d9 740F     		je	.L441
 8266 38db 4883FA02 		cmpq	$2, %rdx
 8267 38df 0F84A600 		je	.L442
 8267      0000
 8268 38e5 E9430100 		jmp	.L450
 8268      00
 8269              	.L441:
 8270              	.LBB194:
  27:../ExecuteTest.h **** 	{
 8271              		.loc 8 27 0
 8272 38ea 4889C7   		movq	%rax, %rdi
 8273 38ed E8000000 		call	__cxa_begin_catch
 8273      00
 8274 38f2 48898580 		movq	%rax, -1152(%rbp)
 8274      FBFFFF
  30:../ExecuteTest.h **** 	}
 8275              		.loc 8 30 0
 8276 38f9 488B8580 		movq	-1152(%rbp), %rax
 8276      FBFFFF
 8277 3900 488B00   		movq	(%rax), %rax
 8278 3903 4883C010 		addq	$16, %rax
 8279 3907 488B00   		movq	(%rax), %rax
 8280 390a 488B9580 		movq	-1152(%rbp), %rdx
 8280      FBFFFF
 8281 3911 4889D7   		movq	%rdx, %rdi
 8282 3914 FFD0     		call	*%rax
 8283 3916 4889C3   		movq	%rax, %rbx
 8284 3919 488B8580 		movq	-1152(%rbp), %rax
 8284      FBFFFF
 8285 3920 4889C7   		movq	%rax, %rdi
 8286              	.LEHB229:
 8287 3923 E8000000 		call	_ZNK8UnitTest15AssertException10LineNumberEv
 8287      00
 8288 3928 4189C4   		movl	%eax, %r12d
 8289 392b 488B8580 		movq	-1152(%rbp), %rax
 8289      FBFFFF
 8290 3932 4889C7   		movq	%rax, %rdi
 8291 3935 E8000000 		call	_ZNK8UnitTest15AssertException8FilenameEv
 8291      00
  30:../ExecuteTest.h **** 	}
 8292              		.loc 8 30 0 is_stmt 0 discriminator 1
 8293 393a 4889C1   		movq	%rax, %rcx
 8294 393d 488B8570 		movq	-1168(%rbp), %rax
 8294      FBFFFF
 8295 3944 488B10   		movq	(%rax), %rdx
 8296 3947 488B8570 		movq	-1168(%rbp), %rax
 8296      FBFFFF
 8297 394e 488B7008 		movq	8(%rax), %rsi
 8298 3952 488D8590 		leaq	-1136(%rbp), %rax
 8298      FBFFFF
 8299 3959 4589E0   		movl	%r12d, %r8d
 8300 395c 4889C7   		movq	%rax, %rdi
 8301 395f E8000000 		call	_ZN8UnitTest11TestDetailsC1EPKcS2_S2_i
 8301      00
  29:../ExecuteTest.h **** 			TestDetails(details.testName, details.suiteName, e.Filename(), e.LineNumber()), e.what());
 8302              		.loc 8 29 0 is_stmt 1
 8303 3964 E8000000 		call	_ZN8UnitTest11CurrentTest7ResultsEv
 8303      00
  30:../ExecuteTest.h **** 	}
 8304              		.loc 8 30 0
 8305 3969 488B00   		movq	(%rax), %rax
  29:../ExecuteTest.h **** 			TestDetails(details.testName, details.suiteName, e.Filename(), e.LineNumber()), e.what());
 8306              		.loc 8 29 0
 8307 396c 488D8D90 		leaq	-1136(%rbp), %rcx
 8307      FBFFFF
 8308 3973 4889DA   		movq	%rbx, %rdx
 8309 3976 4889CE   		movq	%rcx, %rsi
 8310 3979 4889C7   		movq	%rax, %rdi
 8311 397c E8000000 		call	_ZN8UnitTest11TestResults13OnTestFailureERKNS_11TestDetailsEPKc
 8311      00
 8312              	.LEHE229:
  27:../ExecuteTest.h **** 	{
 8313              		.loc 8 27 0
 8314 3981 E8000000 		call	__cxa_end_catch
 8314      00
 8315              	.LBE194:
 8316              	.LBE196:
 8317              		.loc 8 42 0
 8318 3986 E9CE0000 		jmp	.L451
 8318      00
 8319              	.L442:
 8320              	.LBB197:
 8321              	.LBB195:
  32:../ExecuteTest.h **** 	{
 8322              		.loc 8 32 0
 8323 398b 4889C7   		movq	%rax, %rdi
 8324 398e E8000000 		call	__cxa_begin_catch
 8324      00
 8325 3993 48898588 		movq	%rax, -1144(%rbp)
 8325      FBFFFF
 8326              	.LBB193:
  34:../ExecuteTest.h **** 		stream << "Unhandled exception: " << e.what();
 8327              		.loc 8 34 0
 8328 399a 488D8590 		leaq	-1136(%rbp), %rax
 8328      FBFFFF
 8329 39a1 4889C7   		movq	%rax, %rdi
 8330              	.LEHB230:
 8331 39a4 E8000000 		call	_ZN8UnitTest15MemoryOutStreamC1Ev
 8331      00
 8332              	.LEHE230:
  35:../ExecuteTest.h **** 		CurrentTest::Results()->OnTestFailure(details, stream.GetText());
 8333              		.loc 8 35 0
 8334 39a9 488B8588 		movq	-1144(%rbp), %rax
 8334      FBFFFF
 8335 39b0 488B00   		movq	(%rax), %rax
 8336 39b3 4883C010 		addq	$16, %rax
 8337 39b7 488B00   		movq	(%rax), %rax
 8338 39ba 488B9588 		movq	-1144(%rbp), %rdx
 8338      FBFFFF
 8339 39c1 4889D7   		movq	%rdx, %rdi
 8340 39c4 FFD0     		call	*%rax
 8341 39c6 4889C3   		movq	%rax, %rbx
 8342 39c9 488D8590 		leaq	-1136(%rbp), %rax
 8342      FBFFFF
 8343 39d0 BE000000 		movl	$.LC11, %esi
 8343      00
 8344 39d5 4889C7   		movq	%rax, %rdi
 8345              	.LEHB231:
 8346 39d8 E8000000 		call	_ZStlsISt11char_traitsIcEERSt13basic_ostreamIcT_ES5_PKc
 8346      00
 8347 39dd 4889DE   		movq	%rbx, %rsi
 8348 39e0 4889C7   		movq	%rax, %rdi
 8349 39e3 E8000000 		call	_ZStlsISt11char_traitsIcEERSt13basic_ostreamIcT_ES5_PKc
 8349      00
  36:../ExecuteTest.h **** 	}
 8350              		.loc 8 36 0
 8351 39e8 488D8590 		leaq	-1136(%rbp), %rax
 8351      FBFFFF
 8352 39ef 4889C7   		movq	%rax, %rdi
 8353 39f2 E8000000 		call	_ZNK8UnitTest15MemoryOutStream7GetTextEv
 8353      00
 8354 39f7 4889C3   		movq	%rax, %rbx
 8355 39fa E8000000 		call	_ZN8UnitTest11CurrentTest7ResultsEv
 8355      00
  36:../ExecuteTest.h **** 	}
 8356              		.loc 8 36 0 is_stmt 0 discriminator 1
 8357 39ff 488B00   		movq	(%rax), %rax
 8358 3a02 488B8D70 		movq	-1168(%rbp), %rcx
 8358      FBFFFF
 8359 3a09 4889DA   		movq	%rbx, %rdx
 8360 3a0c 4889CE   		movq	%rcx, %rsi
 8361 3a0f 4889C7   		movq	%rax, %rdi
 8362 3a12 E8000000 		call	_ZN8UnitTest11TestResults13OnTestFailureERKNS_11TestDetailsEPKc
 8362      00
 8363              	.LEHE231:
 8364 3a17 488D8590 		leaq	-1136(%rbp), %rax
 8364      FBFFFF
 8365 3a1e 4889C7   		movq	%rax, %rdi
 8366              	.LEHB232:
 8367 3a21 E8000000 		call	_ZN8UnitTest15MemoryOutStreamD1Ev
 8367      00
 8368              	.LEHE232:
 8369              	.LBE193:
  32:../ExecuteTest.h **** 	{
 8370              		.loc 8 32 0 is_stmt 1
 8371 3a26 E8000000 		call	__cxa_end_catch
 8371      00
 8372              	.LBE195:
 8373              	.LBE197:
 8374              		.loc 8 42 0
 8375 3a2b EB2C     		jmp	.L451
 8376              	.L450:
 8377              	.LBB198:
  38:../ExecuteTest.h **** 	{
 8378              		.loc 8 38 0
 8379 3a2d 4889C7   		movq	%rax, %rdi
 8380 3a30 E8000000 		call	__cxa_begin_catch
 8380      00
 8381              	.LEHB233:
  40:../ExecuteTest.h **** 	}
 8382              		.loc 8 40 0
 8383 3a35 E8000000 		call	_ZN8UnitTest11CurrentTest7ResultsEv
 8383      00
 8384 3a3a 488B00   		movq	(%rax), %rax
 8385 3a3d 488B8D70 		movq	-1168(%rbp), %rcx
 8385      FBFFFF
 8386 3a44 BA000000 		movl	$.LC76, %edx
 8386      00
 8387 3a49 4889CE   		movq	%rcx, %rsi
 8388 3a4c 4889C7   		movq	%rax, %rdi
 8389 3a4f E8000000 		call	_ZN8UnitTest11TestResults13OnTestFailureERKNS_11TestDetailsEPKc
 8389      00
 8390              	.LEHE233:
 8391              	.LEHB234:
  38:../ExecuteTest.h **** 	{
 8392              		.loc 8 38 0
 8393 3a54 E8000000 		call	__cxa_end_catch
 8393      00
 8394              	.LEHE234:
 8395              	.L451:
 8396              	.LBE198:
 8397              		.loc 8 42 0
 8398 3a59 90       		nop
 8399 3a5a 4881C480 		addq	$1152, %rsp
 8399      040000
 8400 3a61 5B       		popq	%rbx
 8401 3a62 415C     		popq	%r12
 8402 3a64 5D       		popq	%rbp
 8403              		.cfi_def_cfa 7, 8
 8404 3a65 C3       		ret
 8405              		.cfi_endproc
 8406              	.LFE1204:
 8407              		.section	.gcc_except_table
 8408              		.align 4
 8409              	.LLSDA1204:
 8410 0604 FF       		.byte	0xff
 8411 0605 03       		.byte	0x3
 8412 0606 5D       		.uleb128 .LLSDATT1204-.LLSDATTD1204
 8413              	.LLSDATTD1204:
 8414 0607 01       		.byte	0x1
 8415 0608 46       		.uleb128 .LLSDACSE1204-.LLSDACSB1204
 8416              	.LLSDACSB1204:
 8417 0609 1C       		.uleb128 .LEHB222-.LFB1204
 8418 060a 05       		.uleb128 .LEHE222-.LEHB222
 8419 060b 00       		.uleb128 0
 8420 060c 00       		.uleb128 0
 8421 060d 35       		.uleb128 .LEHB223-.LFB1204
 8422 060e 05       		.uleb128 .LEHE223-.LEHB223
 8423 060f 8702     		.uleb128 .L445-.LFB1204
 8424 0611 05       		.uleb128 0x5
 8425 0612 75       		.uleb128 .LEHB224-.LFB1204
 8426 0613 05       		.uleb128 .LEHE224-.LEHB224
 8427 0614 9D01     		.uleb128 .L444-.LFB1204
 8428 0616 07       		.uleb128 0x7
 8429 0617 9301     		.uleb128 .LEHB225-.LFB1204
 8430 0619 05       		.uleb128 .LEHE225-.LEHB225
 8431 061a 8702     		.uleb128 .L445-.LFB1204
 8432 061c 05       		.uleb128 0x5
 8433 061d C801     		.uleb128 .LEHB226-.LFB1204
 8434 061f 05       		.uleb128 .LEHE226-.LEHB226
 8435 0620 00       		.uleb128 0
 8436 0621 00       		.uleb128 0
 8437 0622 EF01     		.uleb128 .LEHB227-.LFB1204
 8438 0624 05       		.uleb128 .LEHE227-.LEHB227
 8439 0625 00       		.uleb128 0
 8440 0626 00       		.uleb128 0
 8441 0627 8202     		.uleb128 .LEHB228-.LFB1204
 8442 0629 05       		.uleb128 .LEHE228-.LEHB228
 8443 062a 00       		.uleb128 0
 8444 062b 00       		.uleb128 0
 8445 062c D502     		.uleb128 .LEHB229-.LFB1204
 8446 062e 5E       		.uleb128 .LEHE229-.LEHB229
 8447 062f BA01     		.uleb128 .L446-.LFB1204
 8448 0631 00       		.uleb128 0
 8449 0632 D603     		.uleb128 .LEHB230-.LFB1204
 8450 0634 05       		.uleb128 .LEHE230-.LEHB230
 8451 0635 E101     		.uleb128 .L448-.LFB1204
 8452 0637 00       		.uleb128 0
 8453 0638 8A04     		.uleb128 .LEHB231-.LFB1204
 8454 063a 3F       		.uleb128 .LEHE231-.LEHB231
 8455 063b CD01     		.uleb128 .L447-.LFB1204
 8456 063d 00       		.uleb128 0
 8457 063e D304     		.uleb128 .LEHB232-.LFB1204
 8458 0640 05       		.uleb128 .LEHE232-.LEHB232
 8459 0641 E101     		.uleb128 .L448-.LFB1204
 8460 0643 00       		.uleb128 0
 8461 0644 E704     		.uleb128 .LEHB233-.LFB1204
 8462 0646 1F       		.uleb128 .LEHE233-.LEHB233
 8463 0647 F401     		.uleb128 .L449-.LFB1204
 8464 0649 00       		.uleb128 0
 8465 064a 8605     		.uleb128 .LEHB234-.LFB1204
 8466 064c 05       		.uleb128 .LEHE234-.LEHB234
 8467 064d 00       		.uleb128 0
 8468 064e 00       		.uleb128 0
 8469              	.LLSDACSE1204:
 8470 064f 03       		.byte	0x3
 8471 0650 00       		.byte	0
 8472 0651 02       		.byte	0x2
 8473 0652 7D       		.byte	0x7d
 8474 0653 01       		.byte	0x1
 8475 0654 7D       		.byte	0x7d
 8476 0655 00       		.byte	0
 8477 0656 7D       		.byte	0x7d
 8478 0657 00       		.align 4
 8479 0658 00000000 		.long	0
 8480              	
 8481 065c 00000000 		.long	_ZTISt9exception
 8482 0660 00000000 		.long	_ZTIN8UnitTest15AssertExceptionE
 8483              	.LLSDATT1204:
 8484              		.text
 8486              		.section	.rodata
 8487              	.LC77:
 8488 0e6f 45787065 		.string	"Expected "
 8488      63746564 
 8488      2000
 8489              	.LC78:
 8490 0e79 20627574 		.string	" but was "
 8490      20776173 
 8490      2000
 8491              		.section	.text._ZN8UnitTest10CheckEqualIiiEEvRNS_11TestResultsERKT_RKT0_RKNS_11TestDetailsE,"axG",
 8492              		.weak	_ZN8UnitTest10CheckEqualIiiEEvRNS_11TestResultsERKT_RKT0_RKNS_11TestDetailsE
 8494              	_ZN8UnitTest10CheckEqualIiiEEvRNS_11TestResultsERKT_RKT0_RKNS_11TestDetailsE:
 8495              	.LFB1205:
  16:../Checks.h   **** 
  17:../Checks.h   **** 
  18:../Checks.h   **** template< typename Expected, typename Actual >
  19:../Checks.h   **** void CheckEqual(TestResults& results, Expected const& expected, Actual const& actual, TestDetails c
 8496              		.loc 7 19 0
 8497              		.cfi_startproc
 8498              		.cfi_personality 0x3,__gxx_personality_v0
 8499              		.cfi_lsda 0x3,.LLSDA1205
 8500 0000 55       		pushq	%rbp
 8501              		.cfi_def_cfa_offset 16
 8502              		.cfi_offset 6, -16
 8503 0001 4889E5   		movq	%rsp, %rbp
 8504              		.cfi_def_cfa_register 6
 8505 0004 4154     		pushq	%r12
 8506 0006 53       		pushq	%rbx
 8507 0007 4881EC90 		subq	$400, %rsp
 8507      010000
 8508              		.cfi_offset 12, -24
 8509              		.cfi_offset 3, -32
 8510 000e 4889BD78 		movq	%rdi, -392(%rbp)
 8510      FEFFFF
 8511 0015 4889B570 		movq	%rsi, -400(%rbp)
 8511      FEFFFF
 8512 001c 48899568 		movq	%rdx, -408(%rbp)
 8512      FEFFFF
 8513 0023 48898D60 		movq	%rcx, -416(%rbp)
 8513      FEFFFF
 8514              	.LBB199:
 8515              	.LBB200:
  20:../Checks.h   **** {
  21:../Checks.h   ****     if (!(expected == actual))
 8516              		.loc 7 21 0
 8517 002a 488B8570 		movq	-400(%rbp), %rax
 8517      FEFFFF
 8518 0031 8B10     		movl	(%rax), %edx
 8519 0033 488B8568 		movq	-408(%rbp), %rax
 8519      FEFFFF
 8520 003a 8B00     		movl	(%rax), %eax
 8521 003c 39C2     		cmpl	%eax, %edx
 8522 003e 0F84B100 		je	.L456
 8522      0000
 8523              	.LBB201:
  22:../Checks.h   ****     {
  23:../Checks.h   ****         UnitTest::MemoryOutStream stream;
 8524              		.loc 7 23 0
 8525 0044 488D8580 		leaq	-384(%rbp), %rax
 8525      FEFFFF
 8526 004b 4889C7   		movq	%rax, %rdi
 8527              	.LEHB235:
 8528 004e E8000000 		call	_ZN8UnitTest15MemoryOutStreamC1Ev
 8528      00
 8529              	.LEHE235:
  24:../Checks.h   ****         stream << "Expected " << expected << " but was " << actual;
 8530              		.loc 7 24 0
 8531 0053 488B8568 		movq	-408(%rbp), %rax
 8531      FEFFFF
 8532 005a 8B18     		movl	(%rax), %ebx
 8533 005c 488B8570 		movq	-400(%rbp), %rax
 8533      FEFFFF
 8534 0063 448B20   		movl	(%rax), %r12d
 8535 0066 488D8580 		leaq	-384(%rbp), %rax
 8535      FEFFFF
 8536 006d BE000000 		movl	$.LC77, %esi
 8536      00
 8537 0072 4889C7   		movq	%rax, %rdi
 8538              	.LEHB236:
 8539 0075 E8000000 		call	_ZStlsISt11char_traitsIcEERSt13basic_ostreamIcT_ES5_PKc
 8539      00
 8540 007a 4489E6   		movl	%r12d, %esi
 8541 007d 4889C7   		movq	%rax, %rdi
 8542 0080 E8000000 		call	_ZNSolsEi
 8542      00
 8543              		.loc 7 24 0 is_stmt 0 discriminator 1
 8544 0085 BE000000 		movl	$.LC78, %esi
 8544      00
 8545 008a 4889C7   		movq	%rax, %rdi
 8546 008d E8000000 		call	_ZStlsISt11char_traitsIcEERSt13basic_ostreamIcT_ES5_PKc
 8546      00
 8547 0092 89DE     		movl	%ebx, %esi
 8548 0094 4889C7   		movq	%rax, %rdi
 8549 0097 E8000000 		call	_ZNSolsEi
 8549      00
  25:../Checks.h   **** 
  26:../Checks.h   ****         results.OnTestFailure(details, stream.GetText());
 8550              		.loc 7 26 0 is_stmt 1
 8551 009c 488D8580 		leaq	-384(%rbp), %rax
 8551      FEFFFF
 8552 00a3 4889C7   		movq	%rax, %rdi
 8553 00a6 E8000000 		call	_ZNK8UnitTest15MemoryOutStream7GetTextEv
 8553      00
 8554 00ab 4889C2   		movq	%rax, %rdx
 8555 00ae 488B8D60 		movq	-416(%rbp), %rcx
 8555      FEFFFF
 8556 00b5 488B8578 		movq	-392(%rbp), %rax
 8556      FEFFFF
 8557 00bc 4889CE   		movq	%rcx, %rsi
 8558 00bf 4889C7   		movq	%rax, %rdi
 8559 00c2 E8000000 		call	_ZN8UnitTest11TestResults13OnTestFailureERKNS_11TestDetailsEPKc
 8559      00
 8560              	.LEHE236:
 8561              		.loc 7 26 0 is_stmt 0 discriminator 1
 8562 00c7 488D8580 		leaq	-384(%rbp), %rax
 8562      FEFFFF
 8563 00ce 4889C7   		movq	%rax, %rdi
 8564              	.LEHB237:
 8565 00d1 E8000000 		call	_ZN8UnitTest15MemoryOutStreamD1Ev
 8565      00
 8566              	.LEHE237:
 8567              	.LBE201:
 8568 00d6 EB1D     		jmp	.L456
 8569              	.L455:
 8570 00d8 4889C3   		movq	%rax, %rbx
 8571              	.LBB202:
 8572              		.loc 7 26 0
 8573 00db 488D8580 		leaq	-384(%rbp), %rax
 8573      FEFFFF
 8574 00e2 4889C7   		movq	%rax, %rdi
 8575 00e5 E8000000 		call	_ZN8UnitTest15MemoryOutStreamD1Ev
 8575      00
 8576 00ea 4889D8   		movq	%rbx, %rax
 8577 00ed 4889C7   		movq	%rax, %rdi
 8578              	.LEHB238:
 8579 00f0 E8000000 		call	_Unwind_Resume
 8579      00
 8580              	.LEHE238:
 8581              	.L456:
 8582              	.LBE202:
 8583              	.LBE200:
 8584              	.LBE199:
  27:../Checks.h   ****     }
  28:../Checks.h   **** }
 8585              		.loc 7 28 0 is_stmt 1
 8586 00f5 4881C490 		addq	$400, %rsp
 8586      010000
 8587 00fc 5B       		popq	%rbx
 8588 00fd 415C     		popq	%r12
 8589 00ff 5D       		popq	%rbp
 8590              		.cfi_def_cfa 7, 8
 8591 0100 C3       		ret
 8592              		.cfi_endproc
 8593              	.LFE1205:
 8594              		.section	.gcc_except_table
 8595              	.LLSDA1205:
 8596 0664 FF       		.byte	0xff
 8597 0665 FF       		.byte	0xff
 8598 0666 01       		.byte	0x1
 8599 0667 13       		.uleb128 .LLSDACSE1205-.LLSDACSB1205
 8600              	.LLSDACSB1205:
 8601 0668 4E       		.uleb128 .LEHB235-.LFB1205
 8602 0669 05       		.uleb128 .LEHE235-.LEHB235
 8603 066a 00       		.uleb128 0
 8604 066b 00       		.uleb128 0
 8605 066c 75       		.uleb128 .LEHB236-.LFB1205
 8606 066d 52       		.uleb128 .LEHE236-.LEHB236
 8607 066e D801     		.uleb128 .L455-.LFB1205
 8608 0670 00       		.uleb128 0
 8609 0671 D101     		.uleb128 .LEHB237-.LFB1205
 8610 0673 05       		.uleb128 .LEHE237-.LEHB237
 8611 0674 00       		.uleb128 0
 8612 0675 00       		.uleb128 0
 8613 0676 F001     		.uleb128 .LEHB238-.LFB1205
 8614 0678 05       		.uleb128 .LEHE238-.LEHB238
 8615 0679 00       		.uleb128 0
 8616 067a 00       		.uleb128 0
 8617              	.LLSDACSE1205:
 8618              		.section	.text._ZN8UnitTest10CheckEqualIiiEEvRNS_11TestResultsERKT_RKT0_RKNS_11TestDetailsE,"axG",
 8620              		.text
 8622              	_ZN8UnitTest11ExecuteTestIN12_GLOBAL__N_148FixtureDtorThrowsFixtureDtorThrowsTestNameHelperEEEvRT_R
 8623              	.LFB1206:
  16:../ExecuteTest.h **** {
 8624              		.loc 8 16 0
 8625              		.cfi_startproc
 8626              		.cfi_personality 0x3,__gxx_personality_v0
 8627              		.cfi_lsda 0x3,.LLSDA1206
 8628 3a66 55       		pushq	%rbp
 8629              		.cfi_def_cfa_offset 16
 8630              		.cfi_offset 6, -16
 8631 3a67 4889E5   		movq	%rsp, %rbp
 8632              		.cfi_def_cfa_register 6
 8633 3a6a 4154     		pushq	%r12
 8634 3a6c 53       		pushq	%rbx
 8635 3a6d 4881EC80 		subq	$1152, %rsp
 8635      040000
 8636              		.cfi_offset 12, -24
 8637              		.cfi_offset 3, -32
 8638 3a74 4889BD78 		movq	%rdi, -1160(%rbp)
 8638      FBFFFF
 8639 3a7b 4889B570 		movq	%rsi, -1168(%rbp)
 8639      FBFFFF
 8640              	.LEHB239:
 8641              	.LBB203:
  18:../ExecuteTest.h **** 
 8642              		.loc 8 18 0
 8643 3a82 E8000000 		call	_ZN8UnitTest11CurrentTest7DetailsEv
 8643      00
 8644              	.LEHE239:
 8645 3a87 488B9570 		movq	-1168(%rbp), %rdx
 8645      FBFFFF
 8646 3a8e 488910   		movq	%rdx, (%rax)
 8647              	.LBB204:
  23:../ExecuteTest.h **** #endif
 8648              		.loc 8 23 0
 8649 3a91 488D8590 		leaq	-1136(%rbp), %rax
 8649      FBFFFF
 8650 3a98 4889C7   		movq	%rax, %rdi
 8651              	.LEHB240:
 8652 3a9b E8000000 		call	_ZN8UnitTest16SignalTranslatorC1Ev
 8652      00
 8653              	.LEHE240:
  23:../ExecuteTest.h **** #endif
 8654              		.loc 8 23 0 is_stmt 0 discriminator 1
 8655 3aa0 488B0500 		movq	_ZN8UnitTest16SignalTranslator12s_jumpTargetE(%rip), %rax
 8655      000000
 8656 3aa7 BE010000 		movl	$1, %esi
 8656      00
 8657 3aac 4889C7   		movq	%rax, %rdi
 8658 3aaf E8000000 		call	__sigsetjmp
 8658      00
 8659 3ab4 85C0     		testl	%eax, %eax
 8660 3ab6 0F95C0   		setne	%al
 8661 3ab9 84C0     		testb	%al, %al
 8662 3abb 7423     		je	.L458
 8663 3abd BF080000 		movl	$8, %edi
 8663      00
 8664 3ac2 E8000000 		call	__cxa_allocate_exception
 8664      00
 8665 3ac7 48C70000 		movq	$.LC75, (%rax)
 8665      000000
 8666 3ace BA000000 		movl	$0, %edx
 8666      00
 8667 3ad3 BE000000 		movl	$_ZTIPKc, %esi
 8667      00
 8668 3ad8 4889C7   		movq	%rax, %rdi
 8669              	.LEHB241:
 8670 3adb E8000000 		call	__cxa_throw
 8670      00
 8671              	.LEHE241:
 8672              	.L458:
  25:../ExecuteTest.h **** 	}
 8673              		.loc 8 25 0 is_stmt 1
 8674 3ae0 488B8578 		movq	-1160(%rbp), %rax
 8674      FBFFFF
 8675 3ae7 4889C7   		movq	%rax, %rdi
 8676 3aea E891E7FF 		call	_ZN12_GLOBAL__N_148FixtureDtorThrowsFixtureDtorThrowsTestNameHelper7RunImplEv
 8676      FF
 8677 3aef 488D8590 		leaq	-1136(%rbp), %rax
 8677      FBFFFF
 8678 3af6 4889C7   		movq	%rax, %rdi
 8679              	.LEHB242:
 8680 3af9 E8000000 		call	_ZN8UnitTest16SignalTranslatorD1Ev
 8680      00
 8681              	.LEHE242:
 8682              	.LBE204:
 8683              	.LBE203:
 8684              		.loc 8 42 0
 8685 3afe E9EE0100 		jmp	.L476
 8685      00
 8686              	.L469:
 8687 3b03 4989C4   		movq	%rax, %r12
 8688 3b06 4889D3   		movq	%rdx, %rbx
 8689              	.LBB212:
 8690              	.LBB205:
  25:../ExecuteTest.h **** 	}
 8691              		.loc 8 25 0
 8692 3b09 488D8590 		leaq	-1136(%rbp), %rax
 8692      FBFFFF
 8693 3b10 4889C7   		movq	%rax, %rdi
 8694 3b13 E8000000 		call	_ZN8UnitTest16SignalTranslatorD1Ev
 8694      00
 8695 3b18 4C89E0   		movq	%r12, %rax
 8696 3b1b 4889DA   		movq	%rbx, %rdx
 8697 3b1e EB4D     		jmp	.L460
 8698              	.L471:
 8699 3b20 4889C3   		movq	%rax, %rbx
 8700              	.LBE205:
 8701              	.LBB206:
  27:../ExecuteTest.h **** 	{
 8702              		.loc 8 27 0
 8703 3b23 E8000000 		call	__cxa_end_catch
 8703      00
 8704 3b28 4889D8   		movq	%rbx, %rax
 8705 3b2b 4889C7   		movq	%rax, %rdi
 8706              	.LEHB243:
 8707 3b2e E8000000 		call	_Unwind_Resume
 8707      00
 8708              	.LEHE243:
 8709              	.L472:
 8710 3b33 4889C3   		movq	%rax, %rbx
 8711              	.LBE206:
 8712              	.LBB207:
 8713              	.LBB208:
  36:../ExecuteTest.h **** 	}
 8714              		.loc 8 36 0
 8715 3b36 488D8590 		leaq	-1136(%rbp), %rax
 8715      FBFFFF
 8716 3b3d 4889C7   		movq	%rax, %rdi
 8717 3b40 E8000000 		call	_ZN8UnitTest15MemoryOutStreamD1Ev
 8717      00
 8718 3b45 EB03     		jmp	.L463
 8719              	.L473:
 8720 3b47 4889C3   		movq	%rax, %rbx
 8721              	.L463:
 8722              	.LBE208:
  32:../ExecuteTest.h **** 	{
 8723              		.loc 8 32 0
 8724 3b4a E8000000 		call	__cxa_end_catch
 8724      00
 8725 3b4f 4889D8   		movq	%rbx, %rax
 8726 3b52 4889C7   		movq	%rax, %rdi
 8727              	.LEHB244:
 8728 3b55 E8000000 		call	_Unwind_Resume
 8728      00
 8729              	.LEHE244:
 8730              	.L474:
 8731 3b5a 4889C3   		movq	%rax, %rbx
 8732              	.LBE207:
  38:../ExecuteTest.h **** 	{
 8733              		.loc 8 38 0
 8734 3b5d E8000000 		call	__cxa_end_catch
 8734      00
 8735 3b62 4889D8   		movq	%rbx, %rax
 8736 3b65 4889C7   		movq	%rax, %rdi
 8737              	.LEHB245:
 8738 3b68 E8000000 		call	_Unwind_Resume
 8738      00
 8739              	.LEHE245:
 8740              	.L470:
 8741              	.L460:
 8742 3b6d 4883FA01 		cmpq	$1, %rdx
 8743 3b71 740F     		je	.L466
 8744 3b73 4883FA02 		cmpq	$2, %rdx
 8745 3b77 0F84A600 		je	.L467
 8745      0000
 8746 3b7d E9430100 		jmp	.L475
 8746      00
 8747              	.L466:
 8748              	.LBB210:
  27:../ExecuteTest.h **** 	{
 8749              		.loc 8 27 0
 8750 3b82 4889C7   		movq	%rax, %rdi
 8751 3b85 E8000000 		call	__cxa_begin_catch
 8751      00
 8752 3b8a 48898580 		movq	%rax, -1152(%rbp)
 8752      FBFFFF
  30:../ExecuteTest.h **** 	}
 8753              		.loc 8 30 0
 8754 3b91 488B8580 		movq	-1152(%rbp), %rax
 8754      FBFFFF
 8755 3b98 488B00   		movq	(%rax), %rax
 8756 3b9b 4883C010 		addq	$16, %rax
 8757 3b9f 488B00   		movq	(%rax), %rax
 8758 3ba2 488B9580 		movq	-1152(%rbp), %rdx
 8758      FBFFFF
 8759 3ba9 4889D7   		movq	%rdx, %rdi
 8760 3bac FFD0     		call	*%rax
 8761 3bae 4889C3   		movq	%rax, %rbx
 8762 3bb1 488B8580 		movq	-1152(%rbp), %rax
 8762      FBFFFF
 8763 3bb8 4889C7   		movq	%rax, %rdi
 8764              	.LEHB246:
 8765 3bbb E8000000 		call	_ZNK8UnitTest15AssertException10LineNumberEv
 8765      00
 8766 3bc0 4189C4   		movl	%eax, %r12d
 8767 3bc3 488B8580 		movq	-1152(%rbp), %rax
 8767      FBFFFF
 8768 3bca 4889C7   		movq	%rax, %rdi
 8769 3bcd E8000000 		call	_ZNK8UnitTest15AssertException8FilenameEv
 8769      00
  30:../ExecuteTest.h **** 	}
 8770              		.loc 8 30 0 is_stmt 0 discriminator 1
 8771 3bd2 4889C1   		movq	%rax, %rcx
 8772 3bd5 488B8570 		movq	-1168(%rbp), %rax
 8772      FBFFFF
 8773 3bdc 488B10   		movq	(%rax), %rdx
 8774 3bdf 488B8570 		movq	-1168(%rbp), %rax
 8774      FBFFFF
 8775 3be6 488B7008 		movq	8(%rax), %rsi
 8776 3bea 488D8590 		leaq	-1136(%rbp), %rax
 8776      FBFFFF
 8777 3bf1 4589E0   		movl	%r12d, %r8d
 8778 3bf4 4889C7   		movq	%rax, %rdi
 8779 3bf7 E8000000 		call	_ZN8UnitTest11TestDetailsC1EPKcS2_S2_i
 8779      00
  29:../ExecuteTest.h **** 			TestDetails(details.testName, details.suiteName, e.Filename(), e.LineNumber()), e.what());
 8780              		.loc 8 29 0 is_stmt 1
 8781 3bfc E8000000 		call	_ZN8UnitTest11CurrentTest7ResultsEv
 8781      00
  30:../ExecuteTest.h **** 	}
 8782              		.loc 8 30 0
 8783 3c01 488B00   		movq	(%rax), %rax
  29:../ExecuteTest.h **** 			TestDetails(details.testName, details.suiteName, e.Filename(), e.LineNumber()), e.what());
 8784              		.loc 8 29 0
 8785 3c04 488D8D90 		leaq	-1136(%rbp), %rcx
 8785      FBFFFF
 8786 3c0b 4889DA   		movq	%rbx, %rdx
 8787 3c0e 4889CE   		movq	%rcx, %rsi
 8788 3c11 4889C7   		movq	%rax, %rdi
 8789 3c14 E8000000 		call	_ZN8UnitTest11TestResults13OnTestFailureERKNS_11TestDetailsEPKc
 8789      00
 8790              	.LEHE246:
  27:../ExecuteTest.h **** 	{
 8791              		.loc 8 27 0
 8792 3c19 E8000000 		call	__cxa_end_catch
 8792      00
 8793              	.LBE210:
 8794              	.LBE212:
 8795              		.loc 8 42 0
 8796 3c1e E9CE0000 		jmp	.L476
 8796      00
 8797              	.L467:
 8798              	.LBB213:
 8799              	.LBB211:
  32:../ExecuteTest.h **** 	{
 8800              		.loc 8 32 0
 8801 3c23 4889C7   		movq	%rax, %rdi
 8802 3c26 E8000000 		call	__cxa_begin_catch
 8802      00
 8803 3c2b 48898588 		movq	%rax, -1144(%rbp)
 8803      FBFFFF
 8804              	.LBB209:
  34:../ExecuteTest.h **** 		stream << "Unhandled exception: " << e.what();
 8805              		.loc 8 34 0
 8806 3c32 488D8590 		leaq	-1136(%rbp), %rax
 8806      FBFFFF
 8807 3c39 4889C7   		movq	%rax, %rdi
 8808              	.LEHB247:
 8809 3c3c E8000000 		call	_ZN8UnitTest15MemoryOutStreamC1Ev
 8809      00
 8810              	.LEHE247:
  35:../ExecuteTest.h **** 		CurrentTest::Results()->OnTestFailure(details, stream.GetText());
 8811              		.loc 8 35 0
 8812 3c41 488B8588 		movq	-1144(%rbp), %rax
 8812      FBFFFF
 8813 3c48 488B00   		movq	(%rax), %rax
 8814 3c4b 4883C010 		addq	$16, %rax
 8815 3c4f 488B00   		movq	(%rax), %rax
 8816 3c52 488B9588 		movq	-1144(%rbp), %rdx
 8816      FBFFFF
 8817 3c59 4889D7   		movq	%rdx, %rdi
 8818 3c5c FFD0     		call	*%rax
 8819 3c5e 4889C3   		movq	%rax, %rbx
 8820 3c61 488D8590 		leaq	-1136(%rbp), %rax
 8820      FBFFFF
 8821 3c68 BE000000 		movl	$.LC11, %esi
 8821      00
 8822 3c6d 4889C7   		movq	%rax, %rdi
 8823              	.LEHB248:
 8824 3c70 E8000000 		call	_ZStlsISt11char_traitsIcEERSt13basic_ostreamIcT_ES5_PKc
 8824      00
 8825 3c75 4889DE   		movq	%rbx, %rsi
 8826 3c78 4889C7   		movq	%rax, %rdi
 8827 3c7b E8000000 		call	_ZStlsISt11char_traitsIcEERSt13basic_ostreamIcT_ES5_PKc
 8827      00
  36:../ExecuteTest.h **** 	}
 8828              		.loc 8 36 0
 8829 3c80 488D8590 		leaq	-1136(%rbp), %rax
 8829      FBFFFF
 8830 3c87 4889C7   		movq	%rax, %rdi
 8831 3c8a E8000000 		call	_ZNK8UnitTest15MemoryOutStream7GetTextEv
 8831      00
 8832 3c8f 4889C3   		movq	%rax, %rbx
 8833 3c92 E8000000 		call	_ZN8UnitTest11CurrentTest7ResultsEv
 8833      00
  36:../ExecuteTest.h **** 	}
 8834              		.loc 8 36 0 is_stmt 0 discriminator 1
 8835 3c97 488B00   		movq	(%rax), %rax
 8836 3c9a 488B8D70 		movq	-1168(%rbp), %rcx
 8836      FBFFFF
 8837 3ca1 4889DA   		movq	%rbx, %rdx
 8838 3ca4 4889CE   		movq	%rcx, %rsi
 8839 3ca7 4889C7   		movq	%rax, %rdi
 8840 3caa E8000000 		call	_ZN8UnitTest11TestResults13OnTestFailureERKNS_11TestDetailsEPKc
 8840      00
 8841              	.LEHE248:
 8842 3caf 488D8590 		leaq	-1136(%rbp), %rax
 8842      FBFFFF
 8843 3cb6 4889C7   		movq	%rax, %rdi
 8844              	.LEHB249:
 8845 3cb9 E8000000 		call	_ZN8UnitTest15MemoryOutStreamD1Ev
 8845      00
 8846              	.LEHE249:
 8847              	.LBE209:
  32:../ExecuteTest.h **** 	{
 8848              		.loc 8 32 0 is_stmt 1
 8849 3cbe E8000000 		call	__cxa_end_catch
 8849      00
 8850              	.LBE211:
 8851              	.LBE213:
 8852              		.loc 8 42 0
 8853 3cc3 EB2C     		jmp	.L476
 8854              	.L475:
 8855              	.LBB214:
  38:../ExecuteTest.h **** 	{
 8856              		.loc 8 38 0
 8857 3cc5 4889C7   		movq	%rax, %rdi
 8858 3cc8 E8000000 		call	__cxa_begin_catch
 8858      00
 8859              	.LEHB250:
  40:../ExecuteTest.h **** 	}
 8860              		.loc 8 40 0
 8861 3ccd E8000000 		call	_ZN8UnitTest11CurrentTest7ResultsEv
 8861      00
 8862 3cd2 488B00   		movq	(%rax), %rax
 8863 3cd5 488B8D70 		movq	-1168(%rbp), %rcx
 8863      FBFFFF
 8864 3cdc BA000000 		movl	$.LC76, %edx
 8864      00
 8865 3ce1 4889CE   		movq	%rcx, %rsi
 8866 3ce4 4889C7   		movq	%rax, %rdi
 8867 3ce7 E8000000 		call	_ZN8UnitTest11TestResults13OnTestFailureERKNS_11TestDetailsEPKc
 8867      00
 8868              	.LEHE250:
 8869              	.LEHB251:
  38:../ExecuteTest.h **** 	{
 8870              		.loc 8 38 0
 8871 3cec E8000000 		call	__cxa_end_catch
 8871      00
 8872              	.LEHE251:
 8873              	.L476:
 8874              	.LBE214:
 8875              		.loc 8 42 0
 8876 3cf1 90       		nop
 8877 3cf2 4881C480 		addq	$1152, %rsp
 8877      040000
 8878 3cf9 5B       		popq	%rbx
 8879 3cfa 415C     		popq	%r12
 8880 3cfc 5D       		popq	%rbp
 8881              		.cfi_def_cfa 7, 8
 8882 3cfd C3       		ret
 8883              		.cfi_endproc
 8884              	.LFE1206:
 8885              		.section	.gcc_except_table
 8886 067b 00       		.align 4
 8887              	.LLSDA1206:
 8888 067c FF       		.byte	0xff
 8889 067d 03       		.byte	0x3
 8890 067e 5D       		.uleb128 .LLSDATT1206-.LLSDATTD1206
 8891              	.LLSDATTD1206:
 8892 067f 01       		.byte	0x1
 8893 0680 46       		.uleb128 .LLSDACSE1206-.LLSDACSB1206
 8894              	.LLSDACSB1206:
 8895 0681 1C       		.uleb128 .LEHB239-.LFB1206
 8896 0682 05       		.uleb128 .LEHE239-.LEHB239
 8897 0683 00       		.uleb128 0
 8898 0684 00       		.uleb128 0
 8899 0685 35       		.uleb128 .LEHB240-.LFB1206
 8900 0686 05       		.uleb128 .LEHE240-.LEHB240
 8901 0687 8702     		.uleb128 .L470-.LFB1206
 8902 0689 05       		.uleb128 0x5
 8903 068a 75       		.uleb128 .LEHB241-.LFB1206
 8904 068b 05       		.uleb128 .LEHE241-.LEHB241
 8905 068c 9D01     		.uleb128 .L469-.LFB1206
 8906 068e 07       		.uleb128 0x7
 8907 068f 9301     		.uleb128 .LEHB242-.LFB1206
 8908 0691 05       		.uleb128 .LEHE242-.LEHB242
 8909 0692 8702     		.uleb128 .L470-.LFB1206
 8910 0694 05       		.uleb128 0x5
 8911 0695 C801     		.uleb128 .LEHB243-.LFB1206
 8912 0697 05       		.uleb128 .LEHE243-.LEHB243
 8913 0698 00       		.uleb128 0
 8914 0699 00       		.uleb128 0
 8915 069a EF01     		.uleb128 .LEHB244-.LFB1206
 8916 069c 05       		.uleb128 .LEHE244-.LEHB244
 8917 069d 00       		.uleb128 0
 8918 069e 00       		.uleb128 0
 8919 069f 8202     		.uleb128 .LEHB245-.LFB1206
 8920 06a1 05       		.uleb128 .LEHE245-.LEHB245
 8921 06a2 00       		.uleb128 0
 8922 06a3 00       		.uleb128 0
 8923 06a4 D502     		.uleb128 .LEHB246-.LFB1206
 8924 06a6 5E       		.uleb128 .LEHE246-.LEHB246
 8925 06a7 BA01     		.uleb128 .L471-.LFB1206
 8926 06a9 00       		.uleb128 0
 8927 06aa D603     		.uleb128 .LEHB247-.LFB1206
 8928 06ac 05       		.uleb128 .LEHE247-.LEHB247
 8929 06ad E101     		.uleb128 .L473-.LFB1206
 8930 06af 00       		.uleb128 0
 8931 06b0 8A04     		.uleb128 .LEHB248-.LFB1206
 8932 06b2 3F       		.uleb128 .LEHE248-.LEHB248
 8933 06b3 CD01     		.uleb128 .L472-.LFB1206
 8934 06b5 00       		.uleb128 0
 8935 06b6 D304     		.uleb128 .LEHB249-.LFB1206
 8936 06b8 05       		.uleb128 .LEHE249-.LEHB249
 8937 06b9 E101     		.uleb128 .L473-.LFB1206
 8938 06bb 00       		.uleb128 0
 8939 06bc E704     		.uleb128 .LEHB250-.LFB1206
 8940 06be 1F       		.uleb128 .LEHE250-.LEHB250
 8941 06bf F401     		.uleb128 .L474-.LFB1206
 8942 06c1 00       		.uleb128 0
 8943 06c2 8605     		.uleb128 .LEHB251-.LFB1206
 8944 06c4 05       		.uleb128 .LEHE251-.LEHB251
 8945 06c5 00       		.uleb128 0
 8946 06c6 00       		.uleb128 0
 8947              	.LLSDACSE1206:
 8948 06c7 03       		.byte	0x3
 8949 06c8 00       		.byte	0
 8950 06c9 02       		.byte	0x2
 8951 06ca 7D       		.byte	0x7d
 8952 06cb 01       		.byte	0x1
 8953 06cc 7D       		.byte	0x7d
 8954 06cd 00       		.byte	0
 8955 06ce 7D       		.byte	0x7d
 8956 06cf 00       		.align 4
 8957 06d0 00000000 		.long	0
 8958              	
 8959 06d4 00000000 		.long	_ZTISt9exception
 8960 06d8 00000000 		.long	_ZTIN8UnitTest15AssertExceptionE
 8961              	.LLSDATT1206:
 8962              		.text
 8965              	_ZN8UnitTest11ExecuteTestIN12_GLOBAL__N_159FixtureCtorAssertsCorrectlyReportsAssertFailureInCtorHel
 8966              	.LFB1207:
  16:../ExecuteTest.h **** {
 8967              		.loc 8 16 0
 8968              		.cfi_startproc
 8969              		.cfi_personality 0x3,__gxx_personality_v0
 8970              		.cfi_lsda 0x3,.LLSDA1207
 8971 3cfe 55       		pushq	%rbp
 8972              		.cfi_def_cfa_offset 16
 8973              		.cfi_offset 6, -16
 8974 3cff 4889E5   		movq	%rsp, %rbp
 8975              		.cfi_def_cfa_register 6
 8976 3d02 4154     		pushq	%r12
 8977 3d04 53       		pushq	%rbx
 8978 3d05 4881EC80 		subq	$1152, %rsp
 8978      040000
 8979              		.cfi_offset 12, -24
 8980              		.cfi_offset 3, -32
 8981 3d0c 4889BD78 		movq	%rdi, -1160(%rbp)
 8981      FBFFFF
 8982 3d13 4889B570 		movq	%rsi, -1168(%rbp)
 8982      FBFFFF
 8983              	.LEHB252:
 8984              	.LBB215:
  18:../ExecuteTest.h **** 
 8985              		.loc 8 18 0
 8986 3d1a E8000000 		call	_ZN8UnitTest11CurrentTest7DetailsEv
 8986      00
 8987              	.LEHE252:
 8988 3d1f 488B9570 		movq	-1168(%rbp), %rdx
 8988      FBFFFF
 8989 3d26 488910   		movq	%rdx, (%rax)
 8990              	.LBB216:
  23:../ExecuteTest.h **** #endif
 8991              		.loc 8 23 0
 8992 3d29 488D8590 		leaq	-1136(%rbp), %rax
 8992      FBFFFF
 8993 3d30 4889C7   		movq	%rax, %rdi
 8994              	.LEHB253:
 8995 3d33 E8000000 		call	_ZN8UnitTest16SignalTranslatorC1Ev
 8995      00
 8996              	.LEHE253:
  23:../ExecuteTest.h **** #endif
 8997              		.loc 8 23 0 is_stmt 0 discriminator 1
 8998 3d38 488B0500 		movq	_ZN8UnitTest16SignalTranslator12s_jumpTargetE(%rip), %rax
 8998      000000
 8999 3d3f BE010000 		movl	$1, %esi
 8999      00
 9000 3d44 4889C7   		movq	%rax, %rdi
 9001 3d47 E8000000 		call	__sigsetjmp
 9001      00
 9002 3d4c 85C0     		testl	%eax, %eax
 9003 3d4e 0F95C0   		setne	%al
 9004 3d51 84C0     		testb	%al, %al
 9005 3d53 7423     		je	.L478
 9006 3d55 BF080000 		movl	$8, %edi
 9006      00
 9007 3d5a E8000000 		call	__cxa_allocate_exception
 9007      00
 9008 3d5f 48C70000 		movq	$.LC75, (%rax)
 9008      000000
 9009 3d66 BA000000 		movl	$0, %edx
 9009      00
 9010 3d6b BE000000 		movl	$_ZTIPKc, %esi
 9010      00
 9011 3d70 4889C7   		movq	%rax, %rdi
 9012              	.LEHB254:
 9013 3d73 E8000000 		call	__cxa_throw
 9013      00
 9014              	.LEHE254:
 9015              	.L478:
  25:../ExecuteTest.h **** 	}
 9016              		.loc 8 25 0 is_stmt 1
 9017 3d78 488B8578 		movq	-1160(%rbp), %rax
 9017      FBFFFF
 9018 3d7f 4889C7   		movq	%rax, %rdi
 9019 3d82 E8B7EBFF 		call	_ZN12_GLOBAL__N_159FixtureCtorAssertsCorrectlyReportsAssertFailureInCtorHelper7RunImplEv
 9019      FF
 9020 3d87 488D8590 		leaq	-1136(%rbp), %rax
 9020      FBFFFF
 9021 3d8e 4889C7   		movq	%rax, %rdi
 9022              	.LEHB255:
 9023 3d91 E8000000 		call	_ZN8UnitTest16SignalTranslatorD1Ev
 9023      00
 9024              	.LEHE255:
 9025              	.LBE216:
 9026              	.LBE215:
 9027              		.loc 8 42 0
 9028 3d96 E9EE0100 		jmp	.L496
 9028      00
 9029              	.L489:
 9030 3d9b 4989C4   		movq	%rax, %r12
 9031 3d9e 4889D3   		movq	%rdx, %rbx
 9032              	.LBB224:
 9033              	.LBB217:
  25:../ExecuteTest.h **** 	}
 9034              		.loc 8 25 0
 9035 3da1 488D8590 		leaq	-1136(%rbp), %rax
 9035      FBFFFF
 9036 3da8 4889C7   		movq	%rax, %rdi
 9037 3dab E8000000 		call	_ZN8UnitTest16SignalTranslatorD1Ev
 9037      00
 9038 3db0 4C89E0   		movq	%r12, %rax
 9039 3db3 4889DA   		movq	%rbx, %rdx
 9040 3db6 EB4D     		jmp	.L480
 9041              	.L491:
 9042 3db8 4889C3   		movq	%rax, %rbx
 9043              	.LBE217:
 9044              	.LBB218:
  27:../ExecuteTest.h **** 	{
 9045              		.loc 8 27 0
 9046 3dbb E8000000 		call	__cxa_end_catch
 9046      00
 9047 3dc0 4889D8   		movq	%rbx, %rax
 9048 3dc3 4889C7   		movq	%rax, %rdi
 9049              	.LEHB256:
 9050 3dc6 E8000000 		call	_Unwind_Resume
 9050      00
 9051              	.LEHE256:
 9052              	.L492:
 9053 3dcb 4889C3   		movq	%rax, %rbx
 9054              	.LBE218:
 9055              	.LBB219:
 9056              	.LBB220:
  36:../ExecuteTest.h **** 	}
 9057              		.loc 8 36 0
 9058 3dce 488D8590 		leaq	-1136(%rbp), %rax
 9058      FBFFFF
 9059 3dd5 4889C7   		movq	%rax, %rdi
 9060 3dd8 E8000000 		call	_ZN8UnitTest15MemoryOutStreamD1Ev
 9060      00
 9061 3ddd EB03     		jmp	.L483
 9062              	.L493:
 9063 3ddf 4889C3   		movq	%rax, %rbx
 9064              	.L483:
 9065              	.LBE220:
  32:../ExecuteTest.h **** 	{
 9066              		.loc 8 32 0
 9067 3de2 E8000000 		call	__cxa_end_catch
 9067      00
 9068 3de7 4889D8   		movq	%rbx, %rax
 9069 3dea 4889C7   		movq	%rax, %rdi
 9070              	.LEHB257:
 9071 3ded E8000000 		call	_Unwind_Resume
 9071      00
 9072              	.LEHE257:
 9073              	.L494:
 9074 3df2 4889C3   		movq	%rax, %rbx
 9075              	.LBE219:
  38:../ExecuteTest.h **** 	{
 9076              		.loc 8 38 0
 9077 3df5 E8000000 		call	__cxa_end_catch
 9077      00
 9078 3dfa 4889D8   		movq	%rbx, %rax
 9079 3dfd 4889C7   		movq	%rax, %rdi
 9080              	.LEHB258:
 9081 3e00 E8000000 		call	_Unwind_Resume
 9081      00
 9082              	.LEHE258:
 9083              	.L490:
 9084              	.L480:
 9085 3e05 4883FA01 		cmpq	$1, %rdx
 9086 3e09 740F     		je	.L486
 9087 3e0b 4883FA02 		cmpq	$2, %rdx
 9088 3e0f 0F84A600 		je	.L487
 9088      0000
 9089 3e15 E9430100 		jmp	.L495
 9089      00
 9090              	.L486:
 9091              	.LBB222:
  27:../ExecuteTest.h **** 	{
 9092              		.loc 8 27 0
 9093 3e1a 4889C7   		movq	%rax, %rdi
 9094 3e1d E8000000 		call	__cxa_begin_catch
 9094      00
 9095 3e22 48898580 		movq	%rax, -1152(%rbp)
 9095      FBFFFF
  30:../ExecuteTest.h **** 	}
 9096              		.loc 8 30 0
 9097 3e29 488B8580 		movq	-1152(%rbp), %rax
 9097      FBFFFF
 9098 3e30 488B00   		movq	(%rax), %rax
 9099 3e33 4883C010 		addq	$16, %rax
 9100 3e37 488B00   		movq	(%rax), %rax
 9101 3e3a 488B9580 		movq	-1152(%rbp), %rdx
 9101      FBFFFF
 9102 3e41 4889D7   		movq	%rdx, %rdi
 9103 3e44 FFD0     		call	*%rax
 9104 3e46 4889C3   		movq	%rax, %rbx
 9105 3e49 488B8580 		movq	-1152(%rbp), %rax
 9105      FBFFFF
 9106 3e50 4889C7   		movq	%rax, %rdi
 9107              	.LEHB259:
 9108 3e53 E8000000 		call	_ZNK8UnitTest15AssertException10LineNumberEv
 9108      00
 9109 3e58 4189C4   		movl	%eax, %r12d
 9110 3e5b 488B8580 		movq	-1152(%rbp), %rax
 9110      FBFFFF
 9111 3e62 4889C7   		movq	%rax, %rdi
 9112 3e65 E8000000 		call	_ZNK8UnitTest15AssertException8FilenameEv
 9112      00
  30:../ExecuteTest.h **** 	}
 9113              		.loc 8 30 0 is_stmt 0 discriminator 1
 9114 3e6a 4889C1   		movq	%rax, %rcx
 9115 3e6d 488B8570 		movq	-1168(%rbp), %rax
 9115      FBFFFF
 9116 3e74 488B10   		movq	(%rax), %rdx
 9117 3e77 488B8570 		movq	-1168(%rbp), %rax
 9117      FBFFFF
 9118 3e7e 488B7008 		movq	8(%rax), %rsi
 9119 3e82 488D8590 		leaq	-1136(%rbp), %rax
 9119      FBFFFF
 9120 3e89 4589E0   		movl	%r12d, %r8d
 9121 3e8c 4889C7   		movq	%rax, %rdi
 9122 3e8f E8000000 		call	_ZN8UnitTest11TestDetailsC1EPKcS2_S2_i
 9122      00
  29:../ExecuteTest.h **** 			TestDetails(details.testName, details.suiteName, e.Filename(), e.LineNumber()), e.what());
 9123              		.loc 8 29 0 is_stmt 1
 9124 3e94 E8000000 		call	_ZN8UnitTest11CurrentTest7ResultsEv
 9124      00
  30:../ExecuteTest.h **** 	}
 9125              		.loc 8 30 0
 9126 3e99 488B00   		movq	(%rax), %rax
  29:../ExecuteTest.h **** 			TestDetails(details.testName, details.suiteName, e.Filename(), e.LineNumber()), e.what());
 9127              		.loc 8 29 0
 9128 3e9c 488D8D90 		leaq	-1136(%rbp), %rcx
 9128      FBFFFF
 9129 3ea3 4889DA   		movq	%rbx, %rdx
 9130 3ea6 4889CE   		movq	%rcx, %rsi
 9131 3ea9 4889C7   		movq	%rax, %rdi
 9132 3eac E8000000 		call	_ZN8UnitTest11TestResults13OnTestFailureERKNS_11TestDetailsEPKc
 9132      00
 9133              	.LEHE259:
  27:../ExecuteTest.h **** 	{
 9134              		.loc 8 27 0
 9135 3eb1 E8000000 		call	__cxa_end_catch
 9135      00
 9136              	.LBE222:
 9137              	.LBE224:
 9138              		.loc 8 42 0
 9139 3eb6 E9CE0000 		jmp	.L496
 9139      00
 9140              	.L487:
 9141              	.LBB225:
 9142              	.LBB223:
  32:../ExecuteTest.h **** 	{
 9143              		.loc 8 32 0
 9144 3ebb 4889C7   		movq	%rax, %rdi
 9145 3ebe E8000000 		call	__cxa_begin_catch
 9145      00
 9146 3ec3 48898588 		movq	%rax, -1144(%rbp)
 9146      FBFFFF
 9147              	.LBB221:
  34:../ExecuteTest.h **** 		stream << "Unhandled exception: " << e.what();
 9148              		.loc 8 34 0
 9149 3eca 488D8590 		leaq	-1136(%rbp), %rax
 9149      FBFFFF
 9150 3ed1 4889C7   		movq	%rax, %rdi
 9151              	.LEHB260:
 9152 3ed4 E8000000 		call	_ZN8UnitTest15MemoryOutStreamC1Ev
 9152      00
 9153              	.LEHE260:
  35:../ExecuteTest.h **** 		CurrentTest::Results()->OnTestFailure(details, stream.GetText());
 9154              		.loc 8 35 0
 9155 3ed9 488B8588 		movq	-1144(%rbp), %rax
 9155      FBFFFF
 9156 3ee0 488B00   		movq	(%rax), %rax
 9157 3ee3 4883C010 		addq	$16, %rax
 9158 3ee7 488B00   		movq	(%rax), %rax
 9159 3eea 488B9588 		movq	-1144(%rbp), %rdx
 9159      FBFFFF
 9160 3ef1 4889D7   		movq	%rdx, %rdi
 9161 3ef4 FFD0     		call	*%rax
 9162 3ef6 4889C3   		movq	%rax, %rbx
 9163 3ef9 488D8590 		leaq	-1136(%rbp), %rax
 9163      FBFFFF
 9164 3f00 BE000000 		movl	$.LC11, %esi
 9164      00
 9165 3f05 4889C7   		movq	%rax, %rdi
 9166              	.LEHB261:
 9167 3f08 E8000000 		call	_ZStlsISt11char_traitsIcEERSt13basic_ostreamIcT_ES5_PKc
 9167      00
 9168 3f0d 4889DE   		movq	%rbx, %rsi
 9169 3f10 4889C7   		movq	%rax, %rdi
 9170 3f13 E8000000 		call	_ZStlsISt11char_traitsIcEERSt13basic_ostreamIcT_ES5_PKc
 9170      00
  36:../ExecuteTest.h **** 	}
 9171              		.loc 8 36 0
 9172 3f18 488D8590 		leaq	-1136(%rbp), %rax
 9172      FBFFFF
 9173 3f1f 4889C7   		movq	%rax, %rdi
 9174 3f22 E8000000 		call	_ZNK8UnitTest15MemoryOutStream7GetTextEv
 9174      00
 9175 3f27 4889C3   		movq	%rax, %rbx
 9176 3f2a E8000000 		call	_ZN8UnitTest11CurrentTest7ResultsEv
 9176      00
  36:../ExecuteTest.h **** 	}
 9177              		.loc 8 36 0 is_stmt 0 discriminator 1
 9178 3f2f 488B00   		movq	(%rax), %rax
 9179 3f32 488B8D70 		movq	-1168(%rbp), %rcx
 9179      FBFFFF
 9180 3f39 4889DA   		movq	%rbx, %rdx
 9181 3f3c 4889CE   		movq	%rcx, %rsi
 9182 3f3f 4889C7   		movq	%rax, %rdi
 9183 3f42 E8000000 		call	_ZN8UnitTest11TestResults13OnTestFailureERKNS_11TestDetailsEPKc
 9183      00
 9184              	.LEHE261:
 9185 3f47 488D8590 		leaq	-1136(%rbp), %rax
 9185      FBFFFF
 9186 3f4e 4889C7   		movq	%rax, %rdi
 9187              	.LEHB262:
 9188 3f51 E8000000 		call	_ZN8UnitTest15MemoryOutStreamD1Ev
 9188      00
 9189              	.LEHE262:
 9190              	.LBE221:
  32:../ExecuteTest.h **** 	{
 9191              		.loc 8 32 0 is_stmt 1
 9192 3f56 E8000000 		call	__cxa_end_catch
 9192      00
 9193              	.LBE223:
 9194              	.LBE225:
 9195              		.loc 8 42 0
 9196 3f5b EB2C     		jmp	.L496
 9197              	.L495:
 9198              	.LBB226:
  38:../ExecuteTest.h **** 	{
 9199              		.loc 8 38 0
 9200 3f5d 4889C7   		movq	%rax, %rdi
 9201 3f60 E8000000 		call	__cxa_begin_catch
 9201      00
 9202              	.LEHB263:
  40:../ExecuteTest.h **** 	}
 9203              		.loc 8 40 0
 9204 3f65 E8000000 		call	_ZN8UnitTest11CurrentTest7ResultsEv
 9204      00
 9205 3f6a 488B00   		movq	(%rax), %rax
 9206 3f6d 488B8D70 		movq	-1168(%rbp), %rcx
 9206      FBFFFF
 9207 3f74 BA000000 		movl	$.LC76, %edx
 9207      00
 9208 3f79 4889CE   		movq	%rcx, %rsi
 9209 3f7c 4889C7   		movq	%rax, %rdi
 9210 3f7f E8000000 		call	_ZN8UnitTest11TestResults13OnTestFailureERKNS_11TestDetailsEPKc
 9210      00
 9211              	.LEHE263:
 9212              	.LEHB264:
  38:../ExecuteTest.h **** 	{
 9213              		.loc 8 38 0
 9214 3f84 E8000000 		call	__cxa_end_catch
 9214      00
 9215              	.LEHE264:
 9216              	.L496:
 9217              	.LBE226:
 9218              		.loc 8 42 0
 9219 3f89 90       		nop
 9220 3f8a 4881C480 		addq	$1152, %rsp
 9220      040000
 9221 3f91 5B       		popq	%rbx
 9222 3f92 415C     		popq	%r12
 9223 3f94 5D       		popq	%rbp
 9224              		.cfi_def_cfa 7, 8
 9225 3f95 C3       		ret
 9226              		.cfi_endproc
 9227              	.LFE1207:
 9228              		.section	.gcc_except_table
 9229              		.align 4
 9230              	.LLSDA1207:
 9231 06dc FF       		.byte	0xff
 9232 06dd 03       		.byte	0x3
 9233 06de 5D       		.uleb128 .LLSDATT1207-.LLSDATTD1207
 9234              	.LLSDATTD1207:
 9235 06df 01       		.byte	0x1
 9236 06e0 46       		.uleb128 .LLSDACSE1207-.LLSDACSB1207
 9237              	.LLSDACSB1207:
 9238 06e1 1C       		.uleb128 .LEHB252-.LFB1207
 9239 06e2 05       		.uleb128 .LEHE252-.LEHB252
 9240 06e3 00       		.uleb128 0
 9241 06e4 00       		.uleb128 0
 9242 06e5 35       		.uleb128 .LEHB253-.LFB1207
 9243 06e6 05       		.uleb128 .LEHE253-.LEHB253
 9244 06e7 8702     		.uleb128 .L490-.LFB1207
 9245 06e9 05       		.uleb128 0x5
 9246 06ea 75       		.uleb128 .LEHB254-.LFB1207
 9247 06eb 05       		.uleb128 .LEHE254-.LEHB254
 9248 06ec 9D01     		.uleb128 .L489-.LFB1207
 9249 06ee 07       		.uleb128 0x7
 9250 06ef 9301     		.uleb128 .LEHB255-.LFB1207
 9251 06f1 05       		.uleb128 .LEHE255-.LEHB255
 9252 06f2 8702     		.uleb128 .L490-.LFB1207
 9253 06f4 05       		.uleb128 0x5
 9254 06f5 C801     		.uleb128 .LEHB256-.LFB1207
 9255 06f7 05       		.uleb128 .LEHE256-.LEHB256
 9256 06f8 00       		.uleb128 0
 9257 06f9 00       		.uleb128 0
 9258 06fa EF01     		.uleb128 .LEHB257-.LFB1207
 9259 06fc 05       		.uleb128 .LEHE257-.LEHB257
 9260 06fd 00       		.uleb128 0
 9261 06fe 00       		.uleb128 0
 9262 06ff 8202     		.uleb128 .LEHB258-.LFB1207
 9263 0701 05       		.uleb128 .LEHE258-.LEHB258
 9264 0702 00       		.uleb128 0
 9265 0703 00       		.uleb128 0
 9266 0704 D502     		.uleb128 .LEHB259-.LFB1207
 9267 0706 5E       		.uleb128 .LEHE259-.LEHB259
 9268 0707 BA01     		.uleb128 .L491-.LFB1207
 9269 0709 00       		.uleb128 0
 9270 070a D603     		.uleb128 .LEHB260-.LFB1207
 9271 070c 05       		.uleb128 .LEHE260-.LEHB260
 9272 070d E101     		.uleb128 .L493-.LFB1207
 9273 070f 00       		.uleb128 0
 9274 0710 8A04     		.uleb128 .LEHB261-.LFB1207
 9275 0712 3F       		.uleb128 .LEHE261-.LEHB261
 9276 0713 CD01     		.uleb128 .L492-.LFB1207
 9277 0715 00       		.uleb128 0
 9278 0716 D304     		.uleb128 .LEHB262-.LFB1207
 9279 0718 05       		.uleb128 .LEHE262-.LEHB262
 9280 0719 E101     		.uleb128 .L493-.LFB1207
 9281 071b 00       		.uleb128 0
 9282 071c E704     		.uleb128 .LEHB263-.LFB1207
 9283 071e 1F       		.uleb128 .LEHE263-.LEHB263
 9284 071f F401     		.uleb128 .L494-.LFB1207
 9285 0721 00       		.uleb128 0
 9286 0722 8605     		.uleb128 .LEHB264-.LFB1207
 9287 0724 05       		.uleb128 .LEHE264-.LEHB264
 9288 0725 00       		.uleb128 0
 9289 0726 00       		.uleb128 0
 9290              	.LLSDACSE1207:
 9291 0727 03       		.byte	0x3
 9292 0728 00       		.byte	0
 9293 0729 02       		.byte	0x2
 9294 072a 7D       		.byte	0x7d
 9295 072b 01       		.byte	0x1
 9296 072c 7D       		.byte	0x7d
 9297 072d 00       		.byte	0
 9298 072e 7D       		.byte	0x7d
 9299 072f 00       		.align 4
 9300 0730 00000000 		.long	0
 9301              	
 9302 0734 00000000 		.long	_ZTISt9exception
 9303 0738 00000000 		.long	_ZTIN8UnitTest15AssertExceptionE
 9304              	.LLSDATT1207:
 9305              		.text
 9307              		.weak	_ZTV44TestCurrentTestDetailsContainCurrentTestInfo
 9308              		.section	.rodata._ZTV44TestCurrentTestDetailsContainCurrentTestInfo,"aG",@progbits,_ZTV44TestCurre
 9309              		.align 32
 9312              	_ZTV44TestCurrentTestDetailsContainCurrentTestInfo:
 9313 0000 00000000 		.quad	0
 9313      00000000 
 9314 0008 00000000 		.quad	_ZTI44TestCurrentTestDetailsContainCurrentTestInfo
 9314      00000000 
 9315 0010 00000000 		.quad	_ZN44TestCurrentTestDetailsContainCurrentTestInfoD1Ev
 9315      00000000 
 9316 0018 00000000 		.quad	_ZN44TestCurrentTestDetailsContainCurrentTestInfoD0Ev
 9316      00000000 
 9317 0020 00000000 		.quad	_ZNK44TestCurrentTestDetailsContainCurrentTestInfo7RunImplEv
 9317      00000000 
 9318              		.section	.text._ZN44TestCurrentTestDetailsContainCurrentTestInfoD2Ev,"axG",@progbits,_ZN44TestCurr
 9319              		.align 2
 9320              		.weak	_ZN44TestCurrentTestDetailsContainCurrentTestInfoD2Ev
 9322              	_ZN44TestCurrentTestDetailsContainCurrentTestInfoD2Ev:
 9323              	.LFB1256:
 204:TestTestMacros.cpp **** {
 9324              		.loc 6 204 0
 9325              		.cfi_startproc
 9326 0000 55       		pushq	%rbp
 9327              		.cfi_def_cfa_offset 16
 9328              		.cfi_offset 6, -16
 9329 0001 4889E5   		movq	%rsp, %rbp
 9330              		.cfi_def_cfa_register 6
 9331 0004 4883EC10 		subq	$16, %rsp
 9332 0008 48897DF8 		movq	%rdi, -8(%rbp)
 9333              	.LBB227:
 204:TestTestMacros.cpp **** {
 9334              		.loc 6 204 0
 9335 000c 488B45F8 		movq	-8(%rbp), %rax
 9336 0010 48C70000 		movq	$_ZTV44TestCurrentTestDetailsContainCurrentTestInfo+16, (%rax)
 9336      000000
 9337 0017 488B45F8 		movq	-8(%rbp), %rax
 9338 001b 4889C7   		movq	%rax, %rdi
 9339 001e E8000000 		call	_ZN8UnitTest4TestD2Ev
 9339      00
 9340              	.LBE227:
 9341 0023 B8000000 		movl	$0, %eax
 9341      00
 9342 0028 85C0     		testl	%eax, %eax
 9343 002a 740C     		je	.L497
 204:TestTestMacros.cpp **** {
 9344              		.loc 6 204 0 is_stmt 0 discriminator 1
 9345 002c 488B45F8 		movq	-8(%rbp), %rax
 9346 0030 4889C7   		movq	%rax, %rdi
 9347 0033 E8000000 		call	_ZdlPv
 9347      00
 9348              	.L497:
 204:TestTestMacros.cpp **** {
 9349              		.loc 6 204 0
 9350 0038 C9       		leave
 9351              		.cfi_def_cfa 7, 8
 9352 0039 C3       		ret
 9353              		.cfi_endproc
 9354              	.LFE1256:
 9356              		.weak	_ZN44TestCurrentTestDetailsContainCurrentTestInfoD1Ev
 9357              		.set	_ZN44TestCurrentTestDetailsContainCurrentTestInfoD1Ev,_ZN44TestCurrentTestDetailsContainCurre
 9358              		.section	.text._ZN44TestCurrentTestDetailsContainCurrentTestInfoD0Ev,"axG",@progbits,_ZN44TestCurr
 9359              		.align 2
 9360              		.weak	_ZN44TestCurrentTestDetailsContainCurrentTestInfoD0Ev
 9362              	_ZN44TestCurrentTestDetailsContainCurrentTestInfoD0Ev:
 9363              	.LFB1258:
 204:TestTestMacros.cpp **** {
 9364              		.loc 6 204 0 is_stmt 1
 9365              		.cfi_startproc
 9366 0000 55       		pushq	%rbp
 9367              		.cfi_def_cfa_offset 16
 9368              		.cfi_offset 6, -16
 9369 0001 4889E5   		movq	%rsp, %rbp
 9370              		.cfi_def_cfa_register 6
 9371 0004 4883EC10 		subq	$16, %rsp
 9372 0008 48897DF8 		movq	%rdi, -8(%rbp)
 204:TestTestMacros.cpp **** {
 9373              		.loc 6 204 0
 9374 000c 488B45F8 		movq	-8(%rbp), %rax
 9375 0010 4889C7   		movq	%rax, %rdi
 9376 0013 E8000000 		call	_ZN44TestCurrentTestDetailsContainCurrentTestInfoD1Ev
 9376      00
 9377 0018 488B45F8 		movq	-8(%rbp), %rax
 9378 001c 4889C7   		movq	%rax, %rdi
 9379 001f E8000000 		call	_ZdlPv
 9379      00
 9380 0024 C9       		leave
 9381              		.cfi_def_cfa 7, 8
 9382 0025 C3       		ret
 9383              		.cfi_endproc
 9384              	.LFE1258:
 9386              		.weak	_ZTVN18SuiteSameTestSuite14TestDummyTest1E
 9387              		.section	.rodata._ZTVN18SuiteSameTestSuite14TestDummyTest1E,"aG",@progbits,_ZTVN18SuiteSameTestSui
 9388              		.align 32
 9391              	_ZTVN18SuiteSameTestSuite14TestDummyTest1E:
 9392 0000 00000000 		.quad	0
 9392      00000000 
 9393 0008 00000000 		.quad	_ZTIN18SuiteSameTestSuite14TestDummyTest1E
 9393      00000000 
 9394 0010 00000000 		.quad	_ZN18SuiteSameTestSuite14TestDummyTest1D1Ev
 9394      00000000 
 9395 0018 00000000 		.quad	_ZN18SuiteSameTestSuite14TestDummyTest1D0Ev
 9395      00000000 
 9396 0020 00000000 		.quad	_ZNK18SuiteSameTestSuite14TestDummyTest17RunImplEv
 9396      00000000 
 9397              		.section	.text._ZN18SuiteSameTestSuite14TestDummyTest1D2Ev,"axG",@progbits,_ZN18SuiteSameTestSuite
 9398              		.align 2
 9399              		.weak	_ZN18SuiteSameTestSuite14TestDummyTest1D2Ev
 9401              	_ZN18SuiteSameTestSuite14TestDummyTest1D2Ev:
 9402              	.LFB1260:
 195:TestTestMacros.cpp **** 	{
 9403              		.loc 6 195 0
 9404              		.cfi_startproc
 9405 0000 55       		pushq	%rbp
 9406              		.cfi_def_cfa_offset 16
 9407              		.cfi_offset 6, -16
 9408 0001 4889E5   		movq	%rsp, %rbp
 9409              		.cfi_def_cfa_register 6
 9410 0004 4883EC10 		subq	$16, %rsp
 9411 0008 48897DF8 		movq	%rdi, -8(%rbp)
 9412              	.LBB228:
 195:TestTestMacros.cpp **** 	{
 9413              		.loc 6 195 0
 9414 000c 488B45F8 		movq	-8(%rbp), %rax
 9415 0010 48C70000 		movq	$_ZTVN18SuiteSameTestSuite14TestDummyTest1E+16, (%rax)
 9415      000000
 9416 0017 488B45F8 		movq	-8(%rbp), %rax
 9417 001b 4889C7   		movq	%rax, %rdi
 9418 001e E8000000 		call	_ZN8UnitTest4TestD2Ev
 9418      00
 9419              	.LBE228:
 9420 0023 B8000000 		movl	$0, %eax
 9420      00
 9421 0028 85C0     		testl	%eax, %eax
 9422 002a 740C     		je	.L502
 195:TestTestMacros.cpp **** 	{
 9423              		.loc 6 195 0 is_stmt 0 discriminator 1
 9424 002c 488B45F8 		movq	-8(%rbp), %rax
 9425 0030 4889C7   		movq	%rax, %rdi
 9426 0033 E8000000 		call	_ZdlPv
 9426      00
 9427              	.L502:
 195:TestTestMacros.cpp **** 	{
 9428              		.loc 6 195 0
 9429 0038 C9       		leave
 9430              		.cfi_def_cfa 7, 8
 9431 0039 C3       		ret
 9432              		.cfi_endproc
 9433              	.LFE1260:
 9435              		.weak	_ZN18SuiteSameTestSuite14TestDummyTest1D1Ev
 9436              		.set	_ZN18SuiteSameTestSuite14TestDummyTest1D1Ev,_ZN18SuiteSameTestSuite14TestDummyTest1D2Ev
 9437              		.section	.text._ZN18SuiteSameTestSuite14TestDummyTest1D0Ev,"axG",@progbits,_ZN18SuiteSameTestSuite
 9438              		.align 2
 9439              		.weak	_ZN18SuiteSameTestSuite14TestDummyTest1D0Ev
 9441              	_ZN18SuiteSameTestSuite14TestDummyTest1D0Ev:
 9442              	.LFB1262:
 195:TestTestMacros.cpp **** 	{
 9443              		.loc 6 195 0 is_stmt 1
 9444              		.cfi_startproc
 9445 0000 55       		pushq	%rbp
 9446              		.cfi_def_cfa_offset 16
 9447              		.cfi_offset 6, -16
 9448 0001 4889E5   		movq	%rsp, %rbp
 9449              		.cfi_def_cfa_register 6
 9450 0004 4883EC10 		subq	$16, %rsp
 9451 0008 48897DF8 		movq	%rdi, -8(%rbp)
 195:TestTestMacros.cpp **** 	{
 9452              		.loc 6 195 0
 9453 000c 488B45F8 		movq	-8(%rbp), %rax
 9454 0010 4889C7   		movq	%rax, %rdi
 9455 0013 E8000000 		call	_ZN18SuiteSameTestSuite14TestDummyTest1D1Ev
 9455      00
 9456 0018 488B45F8 		movq	-8(%rbp), %rax
 9457 001c 4889C7   		movq	%rax, %rdi
 9458 001f E8000000 		call	_ZdlPv
 9458      00
 9459 0024 C9       		leave
 9460              		.cfi_def_cfa 7, 8
 9461 0025 C3       		ret
 9462              		.cfi_endproc
 9463              	.LFE1262:
 9465              		.section	.rodata
 9466 0e83 00000000 		.align 32
 9466      00000000 
 9466      00000000 
 9466      00000000 
 9466      00000000 
 9469              	_ZTVN12_GLOBAL__N_147TestCorrectlyReportsFixturesWithCtorsThatAssertE:
 9470 0ea0 00000000 		.quad	0
 9470      00000000 
 9471 0ea8 00000000 		.quad	_ZTIN12_GLOBAL__N_147TestCorrectlyReportsFixturesWithCtorsThatAssertE
 9471      00000000 
 9472 0eb0 00000000 		.quad	_ZN12_GLOBAL__N_147TestCorrectlyReportsFixturesWithCtorsThatAssertD1Ev
 9472      00000000 
 9473 0eb8 00000000 		.quad	_ZN12_GLOBAL__N_147TestCorrectlyReportsFixturesWithCtorsThatAssertD0Ev
 9473      00000000 
 9474 0ec0 00000000 		.quad	_ZNK12_GLOBAL__N_147TestCorrectlyReportsFixturesWithCtorsThatAssert7RunImplEv
 9474      00000000 
 9475              		.text
 9476              		.align 2
 9478              	_ZN12_GLOBAL__N_147TestCorrectlyReportsFixturesWithCtorsThatAssertD2Ev:
 9479              	.LFB1264:
 173:TestTestMacros.cpp **** {
 9480              		.loc 6 173 0
 9481              		.cfi_startproc
 9482 3f96 55       		pushq	%rbp
 9483              		.cfi_def_cfa_offset 16
 9484              		.cfi_offset 6, -16
 9485 3f97 4889E5   		movq	%rsp, %rbp
 9486              		.cfi_def_cfa_register 6
 9487 3f9a 4883EC10 		subq	$16, %rsp
 9488 3f9e 48897DF8 		movq	%rdi, -8(%rbp)
 9489              	.LBB229:
 173:TestTestMacros.cpp **** {
 9490              		.loc 6 173 0
 9491 3fa2 488B45F8 		movq	-8(%rbp), %rax
 9492 3fa6 48C70000 		movq	$_ZTVN12_GLOBAL__N_147TestCorrectlyReportsFixturesWithCtorsThatAssertE+16, (%rax)
 9492      000000
 9493 3fad 488B45F8 		movq	-8(%rbp), %rax
 9494 3fb1 4889C7   		movq	%rax, %rdi
 9495 3fb4 E8000000 		call	_ZN8UnitTest4TestD2Ev
 9495      00
 9496              	.LBE229:
 9497 3fb9 B8000000 		movl	$0, %eax
 9497      00
 9498 3fbe 85C0     		testl	%eax, %eax
 9499 3fc0 740C     		je	.L507
 173:TestTestMacros.cpp **** {
 9500              		.loc 6 173 0 is_stmt 0 discriminator 1
 9501 3fc2 488B45F8 		movq	-8(%rbp), %rax
 9502 3fc6 4889C7   		movq	%rax, %rdi
 9503 3fc9 E8000000 		call	_ZdlPv
 9503      00
 9504              	.L507:
 173:TestTestMacros.cpp **** {
 9505              		.loc 6 173 0
 9506 3fce C9       		leave
 9507              		.cfi_def_cfa 7, 8
 9508 3fcf C3       		ret
 9509              		.cfi_endproc
 9510              	.LFE1264:
 9512              		.set	_ZN12_GLOBAL__N_147TestCorrectlyReportsFixturesWithCtorsThatAssertD1Ev,_ZN12_GLOBAL__N_147Tes
 9513              		.align 2
 9515              	_ZN12_GLOBAL__N_147TestCorrectlyReportsFixturesWithCtorsThatAssertD0Ev:
 9516              	.LFB1266:
 173:TestTestMacros.cpp **** {
 9517              		.loc 6 173 0 is_stmt 1
 9518              		.cfi_startproc
 9519 3fd0 55       		pushq	%rbp
 9520              		.cfi_def_cfa_offset 16
 9521              		.cfi_offset 6, -16
 9522 3fd1 4889E5   		movq	%rsp, %rbp
 9523              		.cfi_def_cfa_register 6
 9524 3fd4 4883EC10 		subq	$16, %rsp
 9525 3fd8 48897DF8 		movq	%rdi, -8(%rbp)
 173:TestTestMacros.cpp **** {
 9526              		.loc 6 173 0
 9527 3fdc 488B45F8 		movq	-8(%rbp), %rax
 9528 3fe0 4889C7   		movq	%rax, %rdi
 9529 3fe3 E8AEFFFF 		call	_ZN12_GLOBAL__N_147TestCorrectlyReportsFixturesWithCtorsThatAssertD1Ev
 9529      FF
 9530 3fe8 488B45F8 		movq	-8(%rbp), %rax
 9531 3fec 4889C7   		movq	%rax, %rdi
 9532 3fef E8000000 		call	_ZdlPv
 9532      00
 9533 3ff4 C9       		leave
 9534              		.cfi_def_cfa 7, 8
 9535 3ff5 C3       		ret
 9536              		.cfi_endproc
 9537              	.LFE1266:
 9539              		.section	.rodata
 9540 0ec8 00000000 		.align 32
 9540      00000000 
 9540      00000000 
 9540      00000000 
 9540      00000000 
 9543              	_ZTVN12_GLOBAL__N_157TestFixtureCtorAssertsCorrectlyReportsAssertFailureInCtorE:
 9544 0ee0 00000000 		.quad	0
 9544      00000000 
 9545 0ee8 00000000 		.quad	_ZTIN12_GLOBAL__N_157TestFixtureCtorAssertsCorrectlyReportsAssertFailureInCtorE
 9545      00000000 
 9546 0ef0 00000000 		.quad	_ZN12_GLOBAL__N_157TestFixtureCtorAssertsCorrectlyReportsAssertFailureInCtorD1Ev
 9546      00000000 
 9547 0ef8 00000000 		.quad	_ZN12_GLOBAL__N_157TestFixtureCtorAssertsCorrectlyReportsAssertFailureInCtorD0Ev
 9547      00000000 
 9548 0f00 00000000 		.quad	_ZNK12_GLOBAL__N_157TestFixtureCtorAssertsCorrectlyReportsAssertFailureInCtor7RunImplEv
 9548      00000000 
 9549              		.text
 9550              		.align 2
 9552              	_ZN12_GLOBAL__N_157TestFixtureCtorAssertsCorrectlyReportsAssertFailureInCtorD2Ev:
 9553              	.LFB1268:
 169:TestTestMacros.cpp **** {
 9554              		.loc 6 169 0
 9555              		.cfi_startproc
 9556 3ff6 55       		pushq	%rbp
 9557              		.cfi_def_cfa_offset 16
 9558              		.cfi_offset 6, -16
 9559 3ff7 4889E5   		movq	%rsp, %rbp
 9560              		.cfi_def_cfa_register 6
 9561 3ffa 4883EC10 		subq	$16, %rsp
 9562 3ffe 48897DF8 		movq	%rdi, -8(%rbp)
 9563              	.LBB230:
 169:TestTestMacros.cpp **** {
 9564              		.loc 6 169 0
 9565 4002 488B45F8 		movq	-8(%rbp), %rax
 9566 4006 48C70000 		movq	$_ZTVN12_GLOBAL__N_157TestFixtureCtorAssertsCorrectlyReportsAssertFailureInCtorE+16, (%rax)
 9566      000000
 9567 400d 488B45F8 		movq	-8(%rbp), %rax
 9568 4011 4889C7   		movq	%rax, %rdi
 9569 4014 E8000000 		call	_ZN8UnitTest4TestD2Ev
 9569      00
 9570              	.LBE230:
 9571 4019 B8000000 		movl	$0, %eax
 9571      00
 9572 401e 85C0     		testl	%eax, %eax
 9573 4020 740C     		je	.L512
 169:TestTestMacros.cpp **** {
 9574              		.loc 6 169 0 is_stmt 0 discriminator 1
 9575 4022 488B45F8 		movq	-8(%rbp), %rax
 9576 4026 4889C7   		movq	%rax, %rdi
 9577 4029 E8000000 		call	_ZdlPv
 9577      00
 9578              	.L512:
 169:TestTestMacros.cpp **** {
 9579              		.loc 6 169 0
 9580 402e C9       		leave
 9581              		.cfi_def_cfa 7, 8
 9582 402f C3       		ret
 9583              		.cfi_endproc
 9584              	.LFE1268:
 9586              		.set	_ZN12_GLOBAL__N_157TestFixtureCtorAssertsCorrectlyReportsAssertFailureInCtorD1Ev,_ZN12_GLOBAL
 9587              		.align 2
 9589              	_ZN12_GLOBAL__N_157TestFixtureCtorAssertsCorrectlyReportsAssertFailureInCtorD0Ev:
 9590              	.LFB1270:
 169:TestTestMacros.cpp **** {
 9591              		.loc 6 169 0 is_stmt 1
 9592              		.cfi_startproc
 9593 4030 55       		pushq	%rbp
 9594              		.cfi_def_cfa_offset 16
 9595              		.cfi_offset 6, -16
 9596 4031 4889E5   		movq	%rsp, %rbp
 9597              		.cfi_def_cfa_register 6
 9598 4034 4883EC10 		subq	$16, %rsp
 9599 4038 48897DF8 		movq	%rdi, -8(%rbp)
 169:TestTestMacros.cpp **** {
 9600              		.loc 6 169 0
 9601 403c 488B45F8 		movq	-8(%rbp), %rax
 9602 4040 4889C7   		movq	%rax, %rdi
 9603 4043 E8AEFFFF 		call	_ZN12_GLOBAL__N_157TestFixtureCtorAssertsCorrectlyReportsAssertFailureInCtorD1Ev
 9603      FF
 9604 4048 488B45F8 		movq	-8(%rbp), %rax
 9605 404c 4889C7   		movq	%rax, %rdi
 9606 404f E8000000 		call	_ZdlPv
 9606      00
 9607 4054 C9       		leave
 9608              		.cfi_def_cfa 7, 8
 9609 4055 C3       		ret
 9610              		.cfi_endproc
 9611              	.LFE1270:
 9613              		.section	.rodata
 9614 0f08 00000000 		.align 32
 9614      00000000 
 9614      00000000 
 9614      00000000 
 9614      00000000 
 9617              	_ZTVN12_GLOBAL__N_140TestFixturesWithThrowingDtorsAreFailuresE:
 9618 0f20 00000000 		.quad	0
 9618      00000000 
 9619 0f28 00000000 		.quad	_ZTIN12_GLOBAL__N_140TestFixturesWithThrowingDtorsAreFailuresE
 9619      00000000 
 9620 0f30 00000000 		.quad	_ZN12_GLOBAL__N_140TestFixturesWithThrowingDtorsAreFailuresD1Ev
 9620      00000000 
 9621 0f38 00000000 		.quad	_ZN12_GLOBAL__N_140TestFixturesWithThrowingDtorsAreFailuresD0Ev
 9621      00000000 
 9622 0f40 00000000 		.quad	_ZNK12_GLOBAL__N_140TestFixturesWithThrowingDtorsAreFailures7RunImplEv
 9622      00000000 
 9623              		.text
 9624              		.align 2
 9626              	_ZN12_GLOBAL__N_140TestFixturesWithThrowingDtorsAreFailuresD2Ev:
 9627              	.LFB1272:
 142:TestTestMacros.cpp **** {
 9628              		.loc 6 142 0
 9629              		.cfi_startproc
 9630 4056 55       		pushq	%rbp
 9631              		.cfi_def_cfa_offset 16
 9632              		.cfi_offset 6, -16
 9633 4057 4889E5   		movq	%rsp, %rbp
 9634              		.cfi_def_cfa_register 6
 9635 405a 4883EC10 		subq	$16, %rsp
 9636 405e 48897DF8 		movq	%rdi, -8(%rbp)
 9637              	.LBB231:
 142:TestTestMacros.cpp **** {
 9638              		.loc 6 142 0
 9639 4062 488B45F8 		movq	-8(%rbp), %rax
 9640 4066 48C70000 		movq	$_ZTVN12_GLOBAL__N_140TestFixturesWithThrowingDtorsAreFailuresE+16, (%rax)
 9640      000000
 9641 406d 488B45F8 		movq	-8(%rbp), %rax
 9642 4071 4889C7   		movq	%rax, %rdi
 9643 4074 E8000000 		call	_ZN8UnitTest4TestD2Ev
 9643      00
 9644              	.LBE231:
 9645 4079 B8000000 		movl	$0, %eax
 9645      00
 9646 407e 85C0     		testl	%eax, %eax
 9647 4080 740C     		je	.L517
 142:TestTestMacros.cpp **** {
 9648              		.loc 6 142 0 is_stmt 0 discriminator 1
 9649 4082 488B45F8 		movq	-8(%rbp), %rax
 9650 4086 4889C7   		movq	%rax, %rdi
 9651 4089 E8000000 		call	_ZdlPv
 9651      00
 9652              	.L517:
 142:TestTestMacros.cpp **** {
 9653              		.loc 6 142 0
 9654 408e C9       		leave
 9655              		.cfi_def_cfa 7, 8
 9656 408f C3       		ret
 9657              		.cfi_endproc
 9658              	.LFE1272:
 9660              		.set	_ZN12_GLOBAL__N_140TestFixturesWithThrowingDtorsAreFailuresD1Ev,_ZN12_GLOBAL__N_140TestFixtur
 9661              		.align 2
 9663              	_ZN12_GLOBAL__N_140TestFixturesWithThrowingDtorsAreFailuresD0Ev:
 9664              	.LFB1274:
 142:TestTestMacros.cpp **** {
 9665              		.loc 6 142 0 is_stmt 1
 9666              		.cfi_startproc
 9667 4090 55       		pushq	%rbp
 9668              		.cfi_def_cfa_offset 16
 9669              		.cfi_offset 6, -16
 9670 4091 4889E5   		movq	%rsp, %rbp
 9671              		.cfi_def_cfa_register 6
 9672 4094 4883EC10 		subq	$16, %rsp
 9673 4098 48897DF8 		movq	%rdi, -8(%rbp)
 142:TestTestMacros.cpp **** {
 9674              		.loc 6 142 0
 9675 409c 488B45F8 		movq	-8(%rbp), %rax
 9676 40a0 4889C7   		movq	%rax, %rdi
 9677 40a3 E8AEFFFF 		call	_ZN12_GLOBAL__N_140TestFixturesWithThrowingDtorsAreFailuresD1Ev
 9677      FF
 9678 40a8 488B45F8 		movq	-8(%rbp), %rax
 9679 40ac 4889C7   		movq	%rax, %rdi
 9680 40af E8000000 		call	_ZdlPv
 9680      00
 9681 40b4 C9       		leave
 9682              		.cfi_def_cfa 7, 8
 9683 40b5 C3       		ret
 9684              		.cfi_endproc
 9685              	.LFE1274:
 9687              		.section	.rodata
 9688 0f48 00000000 		.align 32
 9688      00000000 
 9688      00000000 
 9688      00000000 
 9688      00000000 
 9691              	_ZTVN12_GLOBAL__N_146TestFixtureDtorThrowsFixtureDtorThrowsTestNameE:
 9692 0f60 00000000 		.quad	0
 9692      00000000 
 9693 0f68 00000000 		.quad	_ZTIN12_GLOBAL__N_146TestFixtureDtorThrowsFixtureDtorThrowsTestNameE
 9693      00000000 
 9694 0f70 00000000 		.quad	_ZN12_GLOBAL__N_146TestFixtureDtorThrowsFixtureDtorThrowsTestNameD1Ev
 9694      00000000 
 9695 0f78 00000000 		.quad	_ZN12_GLOBAL__N_146TestFixtureDtorThrowsFixtureDtorThrowsTestNameD0Ev
 9695      00000000 
 9696 0f80 00000000 		.quad	_ZNK12_GLOBAL__N_146TestFixtureDtorThrowsFixtureDtorThrowsTestName7RunImplEv
 9696      00000000 
 9697              		.text
 9698              		.align 2
 9700              	_ZN12_GLOBAL__N_146TestFixtureDtorThrowsFixtureDtorThrowsTestNameD2Ev:
 9701              	.LFB1276:
 138:TestTestMacros.cpp **** {
 9702              		.loc 6 138 0
 9703              		.cfi_startproc
 9704 40b6 55       		pushq	%rbp
 9705              		.cfi_def_cfa_offset 16
 9706              		.cfi_offset 6, -16
 9707 40b7 4889E5   		movq	%rsp, %rbp
 9708              		.cfi_def_cfa_register 6
 9709 40ba 4883EC10 		subq	$16, %rsp
 9710 40be 48897DF8 		movq	%rdi, -8(%rbp)
 9711              	.LBB232:
 138:TestTestMacros.cpp **** {
 9712              		.loc 6 138 0
 9713 40c2 488B45F8 		movq	-8(%rbp), %rax
 9714 40c6 48C70000 		movq	$_ZTVN12_GLOBAL__N_146TestFixtureDtorThrowsFixtureDtorThrowsTestNameE+16, (%rax)
 9714      000000
 9715 40cd 488B45F8 		movq	-8(%rbp), %rax
 9716 40d1 4889C7   		movq	%rax, %rdi
 9717 40d4 E8000000 		call	_ZN8UnitTest4TestD2Ev
 9717      00
 9718              	.LBE232:
 9719 40d9 B8000000 		movl	$0, %eax
 9719      00
 9720 40de 85C0     		testl	%eax, %eax
 9721 40e0 740C     		je	.L522
 138:TestTestMacros.cpp **** {
 9722              		.loc 6 138 0 is_stmt 0 discriminator 1
 9723 40e2 488B45F8 		movq	-8(%rbp), %rax
 9724 40e6 4889C7   		movq	%rax, %rdi
 9725 40e9 E8000000 		call	_ZdlPv
 9725      00
 9726              	.L522:
 138:TestTestMacros.cpp **** {
 9727              		.loc 6 138 0
 9728 40ee C9       		leave
 9729              		.cfi_def_cfa 7, 8
 9730 40ef C3       		ret
 9731              		.cfi_endproc
 9732              	.LFE1276:
 9734              		.set	_ZN12_GLOBAL__N_146TestFixtureDtorThrowsFixtureDtorThrowsTestNameD1Ev,_ZN12_GLOBAL__N_146Test
 9735              		.align 2
 9737              	_ZN12_GLOBAL__N_146TestFixtureDtorThrowsFixtureDtorThrowsTestNameD0Ev:
 9738              	.LFB1278:
 138:TestTestMacros.cpp **** {
 9739              		.loc 6 138 0 is_stmt 1
 9740              		.cfi_startproc
 9741 40f0 55       		pushq	%rbp
 9742              		.cfi_def_cfa_offset 16
 9743              		.cfi_offset 6, -16
 9744 40f1 4889E5   		movq	%rsp, %rbp
 9745              		.cfi_def_cfa_register 6
 9746 40f4 4883EC10 		subq	$16, %rsp
 9747 40f8 48897DF8 		movq	%rdi, -8(%rbp)
 138:TestTestMacros.cpp **** {
 9748              		.loc 6 138 0
 9749 40fc 488B45F8 		movq	-8(%rbp), %rax
 9750 4100 4889C7   		movq	%rax, %rdi
 9751 4103 E8AEFFFF 		call	_ZN12_GLOBAL__N_146TestFixtureDtorThrowsFixtureDtorThrowsTestNameD1Ev
 9751      FF
 9752 4108 488B45F8 		movq	-8(%rbp), %rax
 9753 410c 4889C7   		movq	%rax, %rdi
 9754 410f E8000000 		call	_ZdlPv
 9754      00
 9755 4114 C9       		leave
 9756              		.cfi_def_cfa 7, 8
 9757 4115 C3       		ret
 9758              		.cfi_endproc
 9759              	.LFE1278:
 9761              		.section	.rodata
 9762 0f88 00000000 		.align 32
 9762      00000000 
 9762      00000000 
 9762      00000000 
 9762      00000000 
 9765              	_ZTVN12_GLOBAL__N_140TestFixturesWithThrowingCtorsAreFailuresE:
 9766 0fa0 00000000 		.quad	0
 9766      00000000 
 9767 0fa8 00000000 		.quad	_ZTIN12_GLOBAL__N_140TestFixturesWithThrowingCtorsAreFailuresE
 9767      00000000 
 9768 0fb0 00000000 		.quad	_ZN12_GLOBAL__N_140TestFixturesWithThrowingCtorsAreFailuresD1Ev
 9768      00000000 
 9769 0fb8 00000000 		.quad	_ZN12_GLOBAL__N_140TestFixturesWithThrowingCtorsAreFailuresD0Ev
 9769      00000000 
 9770 0fc0 00000000 		.quad	_ZNK12_GLOBAL__N_140TestFixturesWithThrowingCtorsAreFailures7RunImplEv
 9770      00000000 
 9771              		.text
 9772              		.align 2
 9774              	_ZN12_GLOBAL__N_140TestFixturesWithThrowingCtorsAreFailuresD2Ev:
 9775              	.LFB1280:
 117:TestTestMacros.cpp **** {
 9776              		.loc 6 117 0
 9777              		.cfi_startproc
 9778 4116 55       		pushq	%rbp
 9779              		.cfi_def_cfa_offset 16
 9780              		.cfi_offset 6, -16
 9781 4117 4889E5   		movq	%rsp, %rbp
 9782              		.cfi_def_cfa_register 6
 9783 411a 4883EC10 		subq	$16, %rsp
 9784 411e 48897DF8 		movq	%rdi, -8(%rbp)
 9785              	.LBB233:
 117:TestTestMacros.cpp **** {
 9786              		.loc 6 117 0
 9787 4122 488B45F8 		movq	-8(%rbp), %rax
 9788 4126 48C70000 		movq	$_ZTVN12_GLOBAL__N_140TestFixturesWithThrowingCtorsAreFailuresE+16, (%rax)
 9788      000000
 9789 412d 488B45F8 		movq	-8(%rbp), %rax
 9790 4131 4889C7   		movq	%rax, %rdi
 9791 4134 E8000000 		call	_ZN8UnitTest4TestD2Ev
 9791      00
 9792              	.LBE233:
 9793 4139 B8000000 		movl	$0, %eax
 9793      00
 9794 413e 85C0     		testl	%eax, %eax
 9795 4140 740C     		je	.L527
 117:TestTestMacros.cpp **** {
 9796              		.loc 6 117 0 is_stmt 0 discriminator 1
 9797 4142 488B45F8 		movq	-8(%rbp), %rax
 9798 4146 4889C7   		movq	%rax, %rdi
 9799 4149 E8000000 		call	_ZdlPv
 9799      00
 9800              	.L527:
 117:TestTestMacros.cpp **** {
 9801              		.loc 6 117 0
 9802 414e C9       		leave
 9803              		.cfi_def_cfa 7, 8
 9804 414f C3       		ret
 9805              		.cfi_endproc
 9806              	.LFE1280:
 9808              		.set	_ZN12_GLOBAL__N_140TestFixturesWithThrowingCtorsAreFailuresD1Ev,_ZN12_GLOBAL__N_140TestFixtur
 9809              		.align 2
 9811              	_ZN12_GLOBAL__N_140TestFixturesWithThrowingCtorsAreFailuresD0Ev:
 9812              	.LFB1282:
 117:TestTestMacros.cpp **** {
 9813              		.loc 6 117 0 is_stmt 1
 9814              		.cfi_startproc
 9815 4150 55       		pushq	%rbp
 9816              		.cfi_def_cfa_offset 16
 9817              		.cfi_offset 6, -16
 9818 4151 4889E5   		movq	%rsp, %rbp
 9819              		.cfi_def_cfa_register 6
 9820 4154 4883EC10 		subq	$16, %rsp
 9821 4158 48897DF8 		movq	%rdi, -8(%rbp)
 117:TestTestMacros.cpp **** {
 9822              		.loc 6 117 0
 9823 415c 488B45F8 		movq	-8(%rbp), %rax
 9824 4160 4889C7   		movq	%rax, %rdi
 9825 4163 E8AEFFFF 		call	_ZN12_GLOBAL__N_140TestFixturesWithThrowingCtorsAreFailuresD1Ev
 9825      FF
 9826 4168 488B45F8 		movq	-8(%rbp), %rax
 9827 416c 4889C7   		movq	%rax, %rdi
 9828 416f E8000000 		call	_ZdlPv
 9828      00
 9829 4174 C9       		leave
 9830              		.cfi_def_cfa 7, 8
 9831 4175 C3       		ret
 9832              		.cfi_endproc
 9833              	.LFE1282:
 9835              		.section	.rodata
 9836 0fc8 00000000 		.align 32
 9836      00000000 
 9836      00000000 
 9836      00000000 
 9836      00000000 
 9839              	_ZTVN12_GLOBAL__N_146TestFixtureCtorThrowsFixtureCtorThrowsTestNameE:
 9840 0fe0 00000000 		.quad	0
 9840      00000000 
 9841 0fe8 00000000 		.quad	_ZTIN12_GLOBAL__N_146TestFixtureCtorThrowsFixtureCtorThrowsTestNameE
 9841      00000000 
 9842 0ff0 00000000 		.quad	_ZN12_GLOBAL__N_146TestFixtureCtorThrowsFixtureCtorThrowsTestNameD1Ev
 9842      00000000 
 9843 0ff8 00000000 		.quad	_ZN12_GLOBAL__N_146TestFixtureCtorThrowsFixtureCtorThrowsTestNameD0Ev
 9843      00000000 
 9844 1000 00000000 		.quad	_ZNK12_GLOBAL__N_146TestFixtureCtorThrowsFixtureCtorThrowsTestName7RunImplEv
 9844      00000000 
 9845              		.text
 9846              		.align 2
 9848              	_ZN12_GLOBAL__N_146TestFixtureCtorThrowsFixtureCtorThrowsTestNameD2Ev:
 9849              	.LFB1284:
 113:TestTestMacros.cpp **** {
 9850              		.loc 6 113 0
 9851              		.cfi_startproc
 9852 4176 55       		pushq	%rbp
 9853              		.cfi_def_cfa_offset 16
 9854              		.cfi_offset 6, -16
 9855 4177 4889E5   		movq	%rsp, %rbp
 9856              		.cfi_def_cfa_register 6
 9857 417a 4883EC10 		subq	$16, %rsp
 9858 417e 48897DF8 		movq	%rdi, -8(%rbp)
 9859              	.LBB234:
 113:TestTestMacros.cpp **** {
 9860              		.loc 6 113 0
 9861 4182 488B45F8 		movq	-8(%rbp), %rax
 9862 4186 48C70000 		movq	$_ZTVN12_GLOBAL__N_146TestFixtureCtorThrowsFixtureCtorThrowsTestNameE+16, (%rax)
 9862      000000
 9863 418d 488B45F8 		movq	-8(%rbp), %rax
 9864 4191 4889C7   		movq	%rax, %rdi
 9865 4194 E8000000 		call	_ZN8UnitTest4TestD2Ev
 9865      00
 9866              	.LBE234:
 9867 4199 B8000000 		movl	$0, %eax
 9867      00
 9868 419e 85C0     		testl	%eax, %eax
 9869 41a0 740C     		je	.L532
 113:TestTestMacros.cpp **** {
 9870              		.loc 6 113 0 is_stmt 0 discriminator 1
 9871 41a2 488B45F8 		movq	-8(%rbp), %rax
 9872 41a6 4889C7   		movq	%rax, %rdi
 9873 41a9 E8000000 		call	_ZdlPv
 9873      00
 9874              	.L532:
 113:TestTestMacros.cpp **** {
 9875              		.loc 6 113 0
 9876 41ae C9       		leave
 9877              		.cfi_def_cfa 7, 8
 9878 41af C3       		ret
 9879              		.cfi_endproc
 9880              	.LFE1284:
 9882              		.set	_ZN12_GLOBAL__N_146TestFixtureCtorThrowsFixtureCtorThrowsTestNameD1Ev,_ZN12_GLOBAL__N_146Test
 9883              		.align 2
 9885              	_ZN12_GLOBAL__N_146TestFixtureCtorThrowsFixtureCtorThrowsTestNameD0Ev:
 9886              	.LFB1286:
 113:TestTestMacros.cpp **** {
 9887              		.loc 6 113 0 is_stmt 1
 9888              		.cfi_startproc
 9889 41b0 55       		pushq	%rbp
 9890              		.cfi_def_cfa_offset 16
 9891              		.cfi_offset 6, -16
 9892 41b1 4889E5   		movq	%rsp, %rbp
 9893              		.cfi_def_cfa_register 6
 9894 41b4 4883EC10 		subq	$16, %rsp
 9895 41b8 48897DF8 		movq	%rdi, -8(%rbp)
 113:TestTestMacros.cpp **** {
 9896              		.loc 6 113 0
 9897 41bc 488B45F8 		movq	-8(%rbp), %rax
 9898 41c0 4889C7   		movq	%rax, %rdi
 9899 41c3 E8AEFFFF 		call	_ZN12_GLOBAL__N_146TestFixtureCtorThrowsFixtureCtorThrowsTestNameD1Ev
 9899      FF
 9900 41c8 488B45F8 		movq	-8(%rbp), %rax
 9901 41cc 4889C7   		movq	%rax, %rdi
 9902 41cf E8000000 		call	_ZdlPv
 9902      00
 9903 41d4 C9       		leave
 9904              		.cfi_def_cfa 7, 8
 9905 41d5 C3       		ret
 9906              		.cfi_endproc
 9907              	.LFE1286:
 9909              		.section	.rodata
 9910 1008 00000000 		.align 32
 9910      00000000 
 9910      00000000 
 9910      00000000 
 9910      00000000 
 9913              	_ZTVN12_GLOBAL__N_153TestTestAddedWithTEST_FIXTURE_EXMacroGetsDefaultSuiteE:
 9914 1020 00000000 		.quad	0
 9914      00000000 
 9915 1028 00000000 		.quad	_ZTIN12_GLOBAL__N_153TestTestAddedWithTEST_FIXTURE_EXMacroGetsDefaultSuiteE
 9915      00000000 
 9916 1030 00000000 		.quad	_ZN12_GLOBAL__N_153TestTestAddedWithTEST_FIXTURE_EXMacroGetsDefaultSuiteD1Ev
 9916      00000000 
 9917 1038 00000000 		.quad	_ZN12_GLOBAL__N_153TestTestAddedWithTEST_FIXTURE_EXMacroGetsDefaultSuiteD0Ev
 9917      00000000 
 9918 1040 00000000 		.quad	_ZNK12_GLOBAL__N_153TestTestAddedWithTEST_FIXTURE_EXMacroGetsDefaultSuite7RunImplEv
 9918      00000000 
 9919              		.text
 9920              		.align 2
 9922              	_ZN12_GLOBAL__N_153TestTestAddedWithTEST_FIXTURE_EXMacroGetsDefaultSuiteD2Ev:
 9923              	.LFB1288:
 100:TestTestMacros.cpp **** {
 9924              		.loc 6 100 0
 9925              		.cfi_startproc
 9926 41d6 55       		pushq	%rbp
 9927              		.cfi_def_cfa_offset 16
 9928              		.cfi_offset 6, -16
 9929 41d7 4889E5   		movq	%rsp, %rbp
 9930              		.cfi_def_cfa_register 6
 9931 41da 4883EC10 		subq	$16, %rsp
 9932 41de 48897DF8 		movq	%rdi, -8(%rbp)
 9933              	.LBB235:
 100:TestTestMacros.cpp **** {
 9934              		.loc 6 100 0
 9935 41e2 488B45F8 		movq	-8(%rbp), %rax
 9936 41e6 48C70000 		movq	$_ZTVN12_GLOBAL__N_153TestTestAddedWithTEST_FIXTURE_EXMacroGetsDefaultSuiteE+16, (%rax)
 9936      000000
 9937 41ed 488B45F8 		movq	-8(%rbp), %rax
 9938 41f1 4889C7   		movq	%rax, %rdi
 9939 41f4 E8000000 		call	_ZN8UnitTest4TestD2Ev
 9939      00
 9940              	.LBE235:
 9941 41f9 B8000000 		movl	$0, %eax
 9941      00
 9942 41fe 85C0     		testl	%eax, %eax
 9943 4200 740C     		je	.L537
 100:TestTestMacros.cpp **** {
 9944              		.loc 6 100 0 is_stmt 0 discriminator 1
 9945 4202 488B45F8 		movq	-8(%rbp), %rax
 9946 4206 4889C7   		movq	%rax, %rdi
 9947 4209 E8000000 		call	_ZdlPv
 9947      00
 9948              	.L537:
 100:TestTestMacros.cpp **** {
 9949              		.loc 6 100 0
 9950 420e C9       		leave
 9951              		.cfi_def_cfa 7, 8
 9952 420f C3       		ret
 9953              		.cfi_endproc
 9954              	.LFE1288:
 9956              		.set	_ZN12_GLOBAL__N_153TestTestAddedWithTEST_FIXTURE_EXMacroGetsDefaultSuiteD1Ev,_ZN12_GLOBAL__N_
 9957              		.align 2
 9959              	_ZN12_GLOBAL__N_153TestTestAddedWithTEST_FIXTURE_EXMacroGetsDefaultSuiteD0Ev:
 9960              	.LFB1290:
 100:TestTestMacros.cpp **** {
 9961              		.loc 6 100 0 is_stmt 1
 9962              		.cfi_startproc
 9963 4210 55       		pushq	%rbp
 9964              		.cfi_def_cfa_offset 16
 9965              		.cfi_offset 6, -16
 9966 4211 4889E5   		movq	%rsp, %rbp
 9967              		.cfi_def_cfa_register 6
 9968 4214 4883EC10 		subq	$16, %rsp
 9969 4218 48897DF8 		movq	%rdi, -8(%rbp)
 100:TestTestMacros.cpp **** {
 9970              		.loc 6 100 0
 9971 421c 488B45F8 		movq	-8(%rbp), %rax
 9972 4220 4889C7   		movq	%rax, %rdi
 9973 4223 E8AEFFFF 		call	_ZN12_GLOBAL__N_153TestTestAddedWithTEST_FIXTURE_EXMacroGetsDefaultSuiteD1Ev
 9973      FF
 9974 4228 488B45F8 		movq	-8(%rbp), %rax
 9975 422c 4889C7   		movq	%rax, %rdi
 9976 422f E8000000 		call	_ZdlPv
 9976      00
 9977 4234 C9       		leave
 9978              		.cfi_def_cfa 7, 8
 9979 4235 C3       		ret
 9980              		.cfi_endproc
 9981              	.LFE1290:
 9983              		.section	.rodata
 9984 1048 00000000 		.align 32
 9984      00000000 
 9984      00000000 
 9984      00000000 
 9984      00000000 
 9987              	_ZTVN12_GLOBAL__N_132TestDummyFixtureMacroTestHelper2E:
 9988 1060 00000000 		.quad	0
 9988      00000000 
 9989 1068 00000000 		.quad	_ZTIN12_GLOBAL__N_132TestDummyFixtureMacroTestHelper2E
 9989      00000000 
 9990 1070 00000000 		.quad	_ZN12_GLOBAL__N_132TestDummyFixtureMacroTestHelper2D1Ev
 9990      00000000 
 9991 1078 00000000 		.quad	_ZN12_GLOBAL__N_132TestDummyFixtureMacroTestHelper2D0Ev
 9991      00000000 
 9992 1080 00000000 		.quad	_ZNK12_GLOBAL__N_132TestDummyFixtureMacroTestHelper27RunImplEv
 9992      00000000 
 9993              		.text
 9994              		.align 2
 9996              	_ZN12_GLOBAL__N_132TestDummyFixtureMacroTestHelper2D2Ev:
 9997              	.LFB1292:
  96:TestTestMacros.cpp **** {
 9998              		.loc 6 96 0
 9999              		.cfi_startproc
 10000 4236 55       		pushq	%rbp
 10001              		.cfi_def_cfa_offset 16
 10002              		.cfi_offset 6, -16
 10003 4237 4889E5   		movq	%rsp, %rbp
 10004              		.cfi_def_cfa_register 6
 10005 423a 4883EC10 		subq	$16, %rsp
 10006 423e 48897DF8 		movq	%rdi, -8(%rbp)
 10007              	.LBB236:
  96:TestTestMacros.cpp **** {
 10008              		.loc 6 96 0
 10009 4242 488B45F8 		movq	-8(%rbp), %rax
 10010 4246 48C70000 		movq	$_ZTVN12_GLOBAL__N_132TestDummyFixtureMacroTestHelper2E+16, (%rax)
 10010      000000
 10011 424d 488B45F8 		movq	-8(%rbp), %rax
 10012 4251 4889C7   		movq	%rax, %rdi
 10013 4254 E8000000 		call	_ZN8UnitTest4TestD2Ev
 10013      00
 10014              	.LBE236:
 10015 4259 B8000000 		movl	$0, %eax
 10015      00
 10016 425e 85C0     		testl	%eax, %eax
 10017 4260 740C     		je	.L542
  96:TestTestMacros.cpp **** {
 10018              		.loc 6 96 0 is_stmt 0 discriminator 1
 10019 4262 488B45F8 		movq	-8(%rbp), %rax
 10020 4266 4889C7   		movq	%rax, %rdi
 10021 4269 E8000000 		call	_ZdlPv
 10021      00
 10022              	.L542:
  96:TestTestMacros.cpp **** {
 10023              		.loc 6 96 0
 10024 426e C9       		leave
 10025              		.cfi_def_cfa 7, 8
 10026 426f C3       		ret
 10027              		.cfi_endproc
 10028              	.LFE1292:
 10030              		.set	_ZN12_GLOBAL__N_132TestDummyFixtureMacroTestHelper2D1Ev,_ZN12_GLOBAL__N_132TestDummyFixtureMa
 10031              		.align 2
 10033              	_ZN12_GLOBAL__N_132TestDummyFixtureMacroTestHelper2D0Ev:
 10034              	.LFB1294:
  96:TestTestMacros.cpp **** {
 10035              		.loc 6 96 0 is_stmt 1
 10036              		.cfi_startproc
 10037 4270 55       		pushq	%rbp
 10038              		.cfi_def_cfa_offset 16
 10039              		.cfi_offset 6, -16
 10040 4271 4889E5   		movq	%rsp, %rbp
 10041              		.cfi_def_cfa_register 6
 10042 4274 4883EC10 		subq	$16, %rsp
 10043 4278 48897DF8 		movq	%rdi, -8(%rbp)
  96:TestTestMacros.cpp **** {
 10044              		.loc 6 96 0
 10045 427c 488B45F8 		movq	-8(%rbp), %rax
 10046 4280 4889C7   		movq	%rax, %rdi
 10047 4283 E8AEFFFF 		call	_ZN12_GLOBAL__N_132TestDummyFixtureMacroTestHelper2D1Ev
 10047      FF
 10048 4288 488B45F8 		movq	-8(%rbp), %rax
 10049 428c 4889C7   		movq	%rax, %rdi
 10050 428f E8000000 		call	_ZdlPv
 10050      00
 10051 4294 C9       		leave
 10052              		.cfi_def_cfa 7, 8
 10053 4295 C3       		ret
 10054              		.cfi_endproc
 10055              	.LFE1294:
 10057              		.section	.rodata
 10058 1088 00000000 		.align 32
 10058      00000000 
 10058      00000000 
 10058      00000000 
 10058      00000000 
 10061              	_ZTVN12_GLOBAL__N_145TestTestAddedWithTEST_EXMacroGetsDefaultSuiteE:
 10062 10a0 00000000 		.quad	0
 10062      00000000 
 10063 10a8 00000000 		.quad	_ZTIN12_GLOBAL__N_145TestTestAddedWithTEST_EXMacroGetsDefaultSuiteE
 10063      00000000 
 10064 10b0 00000000 		.quad	_ZN12_GLOBAL__N_145TestTestAddedWithTEST_EXMacroGetsDefaultSuiteD1Ev
 10064      00000000 
 10065 10b8 00000000 		.quad	_ZN12_GLOBAL__N_145TestTestAddedWithTEST_EXMacroGetsDefaultSuiteD0Ev
 10065      00000000 
 10066 10c0 00000000 		.quad	_ZNK12_GLOBAL__N_145TestTestAddedWithTEST_EXMacroGetsDefaultSuite7RunImplEv
 10066      00000000 
 10067              		.text
 10068              		.align 2
 10070              	_ZN12_GLOBAL__N_145TestTestAddedWithTEST_EXMacroGetsDefaultSuiteD2Ev:
 10071              	.LFB1296:
  88:TestTestMacros.cpp **** {
 10072              		.loc 6 88 0
 10073              		.cfi_startproc
 10074 4296 55       		pushq	%rbp
 10075              		.cfi_def_cfa_offset 16
 10076              		.cfi_offset 6, -16
 10077 4297 4889E5   		movq	%rsp, %rbp
 10078              		.cfi_def_cfa_register 6
 10079 429a 4883EC10 		subq	$16, %rsp
 10080 429e 48897DF8 		movq	%rdi, -8(%rbp)
 10081              	.LBB237:
  88:TestTestMacros.cpp **** {
 10082              		.loc 6 88 0
 10083 42a2 488B45F8 		movq	-8(%rbp), %rax
 10084 42a6 48C70000 		movq	$_ZTVN12_GLOBAL__N_145TestTestAddedWithTEST_EXMacroGetsDefaultSuiteE+16, (%rax)
 10084      000000
 10085 42ad 488B45F8 		movq	-8(%rbp), %rax
 10086 42b1 4889C7   		movq	%rax, %rdi
 10087 42b4 E8000000 		call	_ZN8UnitTest4TestD2Ev
 10087      00
 10088              	.LBE237:
 10089 42b9 B8000000 		movl	$0, %eax
 10089      00
 10090 42be 85C0     		testl	%eax, %eax
 10091 42c0 740C     		je	.L547
  88:TestTestMacros.cpp **** {
 10092              		.loc 6 88 0 is_stmt 0 discriminator 1
 10093 42c2 488B45F8 		movq	-8(%rbp), %rax
 10094 42c6 4889C7   		movq	%rax, %rdi
 10095 42c9 E8000000 		call	_ZdlPv
 10095      00
 10096              	.L547:
  88:TestTestMacros.cpp **** {
 10097              		.loc 6 88 0
 10098 42ce C9       		leave
 10099              		.cfi_def_cfa 7, 8
 10100 42cf C3       		ret
 10101              		.cfi_endproc
 10102              	.LFE1296:
 10104              		.set	_ZN12_GLOBAL__N_145TestTestAddedWithTEST_EXMacroGetsDefaultSuiteD1Ev,_ZN12_GLOBAL__N_145TestT
 10105              		.align 2
 10107              	_ZN12_GLOBAL__N_145TestTestAddedWithTEST_EXMacroGetsDefaultSuiteD0Ev:
 10108              	.LFB1298:
  88:TestTestMacros.cpp **** {
 10109              		.loc 6 88 0 is_stmt 1
 10110              		.cfi_startproc
 10111 42d0 55       		pushq	%rbp
 10112              		.cfi_def_cfa_offset 16
 10113              		.cfi_offset 6, -16
 10114 42d1 4889E5   		movq	%rsp, %rbp
 10115              		.cfi_def_cfa_register 6
 10116 42d4 4883EC10 		subq	$16, %rsp
 10117 42d8 48897DF8 		movq	%rdi, -8(%rbp)
  88:TestTestMacros.cpp **** {
 10118              		.loc 6 88 0
 10119 42dc 488B45F8 		movq	-8(%rbp), %rax
 10120 42e0 4889C7   		movq	%rax, %rdi
 10121 42e3 E8AEFFFF 		call	_ZN12_GLOBAL__N_145TestTestAddedWithTEST_EXMacroGetsDefaultSuiteD1Ev
 10121      FF
 10122 42e8 488B45F8 		movq	-8(%rbp), %rax
 10123 42ec 4889C7   		movq	%rax, %rdi
 10124 42ef E8000000 		call	_ZdlPv
 10124      00
 10125 42f4 C9       		leave
 10126              		.cfi_def_cfa 7, 8
 10127 42f5 C3       		ret
 10128              		.cfi_endproc
 10129              	.LFE1298:
 10131              		.section	.rodata
 10132 10c8 00000000 		.align 32
 10132      00000000 
 10132      00000000 
 10132      00000000 
 10132      00000000 
 10135              	_ZTVN12_GLOBAL__N_120TestMacroTestHelper1E:
 10136 10e0 00000000 		.quad	0
 10136      00000000 
 10137 10e8 00000000 		.quad	_ZTIN12_GLOBAL__N_120TestMacroTestHelper1E
 10137      00000000 
 10138 10f0 00000000 		.quad	_ZN12_GLOBAL__N_120TestMacroTestHelper1D1Ev
 10138      00000000 
 10139 10f8 00000000 		.quad	_ZN12_GLOBAL__N_120TestMacroTestHelper1D0Ev
 10139      00000000 
 10140 1100 00000000 		.quad	_ZNK12_GLOBAL__N_120TestMacroTestHelper17RunImplEv
 10140      00000000 
 10141              		.text
 10142              		.align 2
 10144              	_ZN12_GLOBAL__N_120TestMacroTestHelper1D2Ev:
 10145              	.LFB1300:
  84:TestTestMacros.cpp **** {
 10146              		.loc 6 84 0
 10147              		.cfi_startproc
 10148 42f6 55       		pushq	%rbp
 10149              		.cfi_def_cfa_offset 16
 10150              		.cfi_offset 6, -16
 10151 42f7 4889E5   		movq	%rsp, %rbp
 10152              		.cfi_def_cfa_register 6
 10153 42fa 4883EC10 		subq	$16, %rsp
 10154 42fe 48897DF8 		movq	%rdi, -8(%rbp)
 10155              	.LBB238:
  84:TestTestMacros.cpp **** {
 10156              		.loc 6 84 0
 10157 4302 488B45F8 		movq	-8(%rbp), %rax
 10158 4306 48C70000 		movq	$_ZTVN12_GLOBAL__N_120TestMacroTestHelper1E+16, (%rax)
 10158      000000
 10159 430d 488B45F8 		movq	-8(%rbp), %rax
 10160 4311 4889C7   		movq	%rax, %rdi
 10161 4314 E8000000 		call	_ZN8UnitTest4TestD2Ev
 10161      00
 10162              	.LBE238:
 10163 4319 B8000000 		movl	$0, %eax
 10163      00
 10164 431e 85C0     		testl	%eax, %eax
 10165 4320 740C     		je	.L552
  84:TestTestMacros.cpp **** {
 10166              		.loc 6 84 0 is_stmt 0 discriminator 1
 10167 4322 488B45F8 		movq	-8(%rbp), %rax
 10168 4326 4889C7   		movq	%rax, %rdi
 10169 4329 E8000000 		call	_ZdlPv
 10169      00
 10170              	.L552:
  84:TestTestMacros.cpp **** {
 10171              		.loc 6 84 0
 10172 432e C9       		leave
 10173              		.cfi_def_cfa 7, 8
 10174 432f C3       		ret
 10175              		.cfi_endproc
 10176              	.LFE1300:
 10178              		.set	_ZN12_GLOBAL__N_120TestMacroTestHelper1D1Ev,_ZN12_GLOBAL__N_120TestMacroTestHelper1D2Ev
 10179              		.align 2
 10181              	_ZN12_GLOBAL__N_120TestMacroTestHelper1D0Ev:
 10182              	.LFB1302:
  84:TestTestMacros.cpp **** {
 10183              		.loc 6 84 0 is_stmt 1
 10184              		.cfi_startproc
 10185 4330 55       		pushq	%rbp
 10186              		.cfi_def_cfa_offset 16
 10187              		.cfi_offset 6, -16
 10188 4331 4889E5   		movq	%rsp, %rbp
 10189              		.cfi_def_cfa_register 6
 10190 4334 4883EC10 		subq	$16, %rsp
 10191 4338 48897DF8 		movq	%rdi, -8(%rbp)
  84:TestTestMacros.cpp **** {
 10192              		.loc 6 84 0
 10193 433c 488B45F8 		movq	-8(%rbp), %rax
 10194 4340 4889C7   		movq	%rax, %rdi
 10195 4343 E8AEFFFF 		call	_ZN12_GLOBAL__N_120TestMacroTestHelper1D1Ev
 10195      FF
 10196 4348 488B45F8 		movq	-8(%rbp), %rax
 10197 434c 4889C7   		movq	%rax, %rdi
 10198 434f E8000000 		call	_ZdlPv
 10198      00
 10199 4354 C9       		leave
 10200              		.cfi_def_cfa 7, 8
 10201 4355 C3       		ret
 10202              		.cfi_endproc
 10203              	.LFE1302:
 10205              		.section	.rodata
 10206 1108 00000000 		.align 32
 10206      00000000 
 10206      00000000 
 10206      00000000 
 10206      00000000 
 10209              	_ZTVN12_GLOBAL__N_115SuiteTestSuite263TestDummyFixtureSimilarlyNamedFixtureTestsInDifferentSuitesWo
 10210 1120 00000000 		.quad	0
 10210      00000000 
 10211 1128 00000000 		.quad	_ZTIN12_GLOBAL__N_115SuiteTestSuite263TestDummyFixtureSimilarlyNamedFixtureTestsInDifferentS
 10211      00000000 
 10212 1130 00000000 		.quad	_ZN12_GLOBAL__N_115SuiteTestSuite263TestDummyFixtureSimilarlyNamedFixtureTestsInDifferentSui
 10212      00000000 
 10213 1138 00000000 		.quad	_ZN12_GLOBAL__N_115SuiteTestSuite263TestDummyFixtureSimilarlyNamedFixtureTestsInDifferentSui
 10213      00000000 
 10214 1140 00000000 		.quad	_ZNK12_GLOBAL__N_115SuiteTestSuite263TestDummyFixtureSimilarlyNamedFixtureTestsInDifferentSu
 10214      00000000 
 10215              		.text
 10216              		.align 2
 10218              	_ZN12_GLOBAL__N_115SuiteTestSuite263TestDummyFixtureSimilarlyNamedFixtureTestsInDifferentSuitesWork
 10219              	.LFB1304:
  78:TestTestMacros.cpp **** 	{
 10220              		.loc 6 78 0
 10221              		.cfi_startproc
 10222 4356 55       		pushq	%rbp
 10223              		.cfi_def_cfa_offset 16
 10224              		.cfi_offset 6, -16
 10225 4357 4889E5   		movq	%rsp, %rbp
 10226              		.cfi_def_cfa_register 6
 10227 435a 4883EC10 		subq	$16, %rsp
 10228 435e 48897DF8 		movq	%rdi, -8(%rbp)
 10229              	.LBB239:
  78:TestTestMacros.cpp **** 	{
 10230              		.loc 6 78 0
 10231 4362 488B45F8 		movq	-8(%rbp), %rax
 10232 4366 48C70000 		movq	$_ZTVN12_GLOBAL__N_115SuiteTestSuite263TestDummyFixtureSimilarlyNamedFixtureTestsInDifferentS
 10232      000000
 10233 436d 488B45F8 		movq	-8(%rbp), %rax
 10234 4371 4889C7   		movq	%rax, %rdi
 10235 4374 E8000000 		call	_ZN8UnitTest4TestD2Ev
 10235      00
 10236              	.LBE239:
 10237 4379 B8000000 		movl	$0, %eax
 10237      00
 10238 437e 85C0     		testl	%eax, %eax
 10239 4380 740C     		je	.L557
  78:TestTestMacros.cpp **** 	{
 10240              		.loc 6 78 0 is_stmt 0 discriminator 1
 10241 4382 488B45F8 		movq	-8(%rbp), %rax
 10242 4386 4889C7   		movq	%rax, %rdi
 10243 4389 E8000000 		call	_ZdlPv
 10243      00
 10244              	.L557:
  78:TestTestMacros.cpp **** 	{
 10245              		.loc 6 78 0
 10246 438e C9       		leave
 10247              		.cfi_def_cfa 7, 8
 10248 438f C3       		ret
 10249              		.cfi_endproc
 10250              	.LFE1304:
 10252              		.set	_ZN12_GLOBAL__N_115SuiteTestSuite263TestDummyFixtureSimilarlyNamedFixtureTestsInDifferentSuit
 10253              		.align 2
 10255              	_ZN12_GLOBAL__N_115SuiteTestSuite263TestDummyFixtureSimilarlyNamedFixtureTestsInDifferentSuitesWork
 10256              	.LFB1306:
  78:TestTestMacros.cpp **** 	{
 10257              		.loc 6 78 0 is_stmt 1
 10258              		.cfi_startproc
 10259 4390 55       		pushq	%rbp
 10260              		.cfi_def_cfa_offset 16
 10261              		.cfi_offset 6, -16
 10262 4391 4889E5   		movq	%rsp, %rbp
 10263              		.cfi_def_cfa_register 6
 10264 4394 4883EC10 		subq	$16, %rsp
 10265 4398 48897DF8 		movq	%rdi, -8(%rbp)
  78:TestTestMacros.cpp **** 	{
 10266              		.loc 6 78 0
 10267 439c 488B45F8 		movq	-8(%rbp), %rax
 10268 43a0 4889C7   		movq	%rax, %rdi
 10269 43a3 E8AEFFFF 		call	_ZN12_GLOBAL__N_115SuiteTestSuite263TestDummyFixtureSimilarlyNamedFixtureTestsInDifferentSuit
 10269      FF
 10270 43a8 488B45F8 		movq	-8(%rbp), %rax
 10271 43ac 4889C7   		movq	%rax, %rdi
 10272 43af E8000000 		call	_ZdlPv
 10272      00
 10273 43b4 C9       		leave
 10274              		.cfi_def_cfa 7, 8
 10275 43b5 C3       		ret
 10276              		.cfi_endproc
 10277              	.LFE1306:
 10279              		.section	.rodata
 10280 1148 00000000 		.align 32
 10280      00000000 
 10280      00000000 
 10280      00000000 
 10280      00000000 
 10283              	_ZTVN12_GLOBAL__N_115SuiteTestSuite244TestSimilarlyNamedTestsInDifferentSuitesWorkE:
 10284 1160 00000000 		.quad	0
 10284      00000000 
 10285 1168 00000000 		.quad	_ZTIN12_GLOBAL__N_115SuiteTestSuite244TestSimilarlyNamedTestsInDifferentSuitesWorkE
 10285      00000000 
 10286 1170 00000000 		.quad	_ZN12_GLOBAL__N_115SuiteTestSuite244TestSimilarlyNamedTestsInDifferentSuitesWorkD1Ev
 10286      00000000 
 10287 1178 00000000 		.quad	_ZN12_GLOBAL__N_115SuiteTestSuite244TestSimilarlyNamedTestsInDifferentSuitesWorkD0Ev
 10287      00000000 
 10288 1180 00000000 		.quad	_ZNK12_GLOBAL__N_115SuiteTestSuite244TestSimilarlyNamedTestsInDifferentSuitesWork7RunImplEv
 10288      00000000 
 10289              		.text
 10290              		.align 2
 10292              	_ZN12_GLOBAL__N_115SuiteTestSuite244TestSimilarlyNamedTestsInDifferentSuitesWorkD2Ev:
 10293              	.LFB1308:
  74:TestTestMacros.cpp **** 	{
 10294              		.loc 6 74 0
 10295              		.cfi_startproc
 10296 43b6 55       		pushq	%rbp
 10297              		.cfi_def_cfa_offset 16
 10298              		.cfi_offset 6, -16
 10299 43b7 4889E5   		movq	%rsp, %rbp
 10300              		.cfi_def_cfa_register 6
 10301 43ba 4883EC10 		subq	$16, %rsp
 10302 43be 48897DF8 		movq	%rdi, -8(%rbp)
 10303              	.LBB240:
  74:TestTestMacros.cpp **** 	{
 10304              		.loc 6 74 0
 10305 43c2 488B45F8 		movq	-8(%rbp), %rax
 10306 43c6 48C70000 		movq	$_ZTVN12_GLOBAL__N_115SuiteTestSuite244TestSimilarlyNamedTestsInDifferentSuitesWorkE+16, (%ra
 10306      000000
 10307 43cd 488B45F8 		movq	-8(%rbp), %rax
 10308 43d1 4889C7   		movq	%rax, %rdi
 10309 43d4 E8000000 		call	_ZN8UnitTest4TestD2Ev
 10309      00
 10310              	.LBE240:
 10311 43d9 B8000000 		movl	$0, %eax
 10311      00
 10312 43de 85C0     		testl	%eax, %eax
 10313 43e0 740C     		je	.L562
  74:TestTestMacros.cpp **** 	{
 10314              		.loc 6 74 0 is_stmt 0 discriminator 1
 10315 43e2 488B45F8 		movq	-8(%rbp), %rax
 10316 43e6 4889C7   		movq	%rax, %rdi
 10317 43e9 E8000000 		call	_ZdlPv
 10317      00
 10318              	.L562:
  74:TestTestMacros.cpp **** 	{
 10319              		.loc 6 74 0
 10320 43ee C9       		leave
 10321              		.cfi_def_cfa 7, 8
 10322 43ef C3       		ret
 10323              		.cfi_endproc
 10324              	.LFE1308:
 10326              		.set	_ZN12_GLOBAL__N_115SuiteTestSuite244TestSimilarlyNamedTestsInDifferentSuitesWorkD1Ev,_ZN12_GL
 10327              		.align 2
 10329              	_ZN12_GLOBAL__N_115SuiteTestSuite244TestSimilarlyNamedTestsInDifferentSuitesWorkD0Ev:
 10330              	.LFB1310:
  74:TestTestMacros.cpp **** 	{
 10331              		.loc 6 74 0 is_stmt 1
 10332              		.cfi_startproc
 10333 43f0 55       		pushq	%rbp
 10334              		.cfi_def_cfa_offset 16
 10335              		.cfi_offset 6, -16
 10336 43f1 4889E5   		movq	%rsp, %rbp
 10337              		.cfi_def_cfa_register 6
 10338 43f4 4883EC10 		subq	$16, %rsp
 10339 43f8 48897DF8 		movq	%rdi, -8(%rbp)
  74:TestTestMacros.cpp **** 	{
 10340              		.loc 6 74 0
 10341 43fc 488B45F8 		movq	-8(%rbp), %rax
 10342 4400 4889C7   		movq	%rax, %rdi
 10343 4403 E8AEFFFF 		call	_ZN12_GLOBAL__N_115SuiteTestSuite244TestSimilarlyNamedTestsInDifferentSuitesWorkD1Ev
 10343      FF
 10344 4408 488B45F8 		movq	-8(%rbp), %rax
 10345 440c 4889C7   		movq	%rax, %rdi
 10346 440f E8000000 		call	_ZdlPv
 10346      00
 10347 4414 C9       		leave
 10348              		.cfi_def_cfa 7, 8
 10349 4415 C3       		ret
 10350              		.cfi_endproc
 10351              	.LFE1310:
 10353              		.section	.rodata
 10354 1188 00000000 		.align 32
 10354      00000000 
 10354      00000000 
 10354      00000000 
 10354      00000000 
 10357              	_ZTVN12_GLOBAL__N_115SuiteTestSuite163TestDummyFixtureSimilarlyNamedFixtureTestsInDifferentSuitesWo
 10358 11a0 00000000 		.quad	0
 10358      00000000 
 10359 11a8 00000000 		.quad	_ZTIN12_GLOBAL__N_115SuiteTestSuite163TestDummyFixtureSimilarlyNamedFixtureTestsInDifferentS
 10359      00000000 
 10360 11b0 00000000 		.quad	_ZN12_GLOBAL__N_115SuiteTestSuite163TestDummyFixtureSimilarlyNamedFixtureTestsInDifferentSui
 10360      00000000 
 10361 11b8 00000000 		.quad	_ZN12_GLOBAL__N_115SuiteTestSuite163TestDummyFixtureSimilarlyNamedFixtureTestsInDifferentSui
 10361      00000000 
 10362 11c0 00000000 		.quad	_ZNK12_GLOBAL__N_115SuiteTestSuite163TestDummyFixtureSimilarlyNamedFixtureTestsInDifferentSu
 10362      00000000 
 10363              		.text
 10364              		.align 2
 10366              	_ZN12_GLOBAL__N_115SuiteTestSuite163TestDummyFixtureSimilarlyNamedFixtureTestsInDifferentSuitesWork
 10367              	.LFB1312:
  67:TestTestMacros.cpp **** 	{
 10368              		.loc 6 67 0
 10369              		.cfi_startproc
 10370 4416 55       		pushq	%rbp
 10371              		.cfi_def_cfa_offset 16
 10372              		.cfi_offset 6, -16
 10373 4417 4889E5   		movq	%rsp, %rbp
 10374              		.cfi_def_cfa_register 6
 10375 441a 4883EC10 		subq	$16, %rsp
 10376 441e 48897DF8 		movq	%rdi, -8(%rbp)
 10377              	.LBB241:
  67:TestTestMacros.cpp **** 	{
 10378              		.loc 6 67 0
 10379 4422 488B45F8 		movq	-8(%rbp), %rax
 10380 4426 48C70000 		movq	$_ZTVN12_GLOBAL__N_115SuiteTestSuite163TestDummyFixtureSimilarlyNamedFixtureTestsInDifferentS
 10380      000000
 10381 442d 488B45F8 		movq	-8(%rbp), %rax
 10382 4431 4889C7   		movq	%rax, %rdi
 10383 4434 E8000000 		call	_ZN8UnitTest4TestD2Ev
 10383      00
 10384              	.LBE241:
 10385 4439 B8000000 		movl	$0, %eax
 10385      00
 10386 443e 85C0     		testl	%eax, %eax
 10387 4440 740C     		je	.L567
  67:TestTestMacros.cpp **** 	{
 10388              		.loc 6 67 0 is_stmt 0 discriminator 1
 10389 4442 488B45F8 		movq	-8(%rbp), %rax
 10390 4446 4889C7   		movq	%rax, %rdi
 10391 4449 E8000000 		call	_ZdlPv
 10391      00
 10392              	.L567:
  67:TestTestMacros.cpp **** 	{
 10393              		.loc 6 67 0
 10394 444e C9       		leave
 10395              		.cfi_def_cfa 7, 8
 10396 444f C3       		ret
 10397              		.cfi_endproc
 10398              	.LFE1312:
 10400              		.set	_ZN12_GLOBAL__N_115SuiteTestSuite163TestDummyFixtureSimilarlyNamedFixtureTestsInDifferentSuit
 10401              		.align 2
 10403              	_ZN12_GLOBAL__N_115SuiteTestSuite163TestDummyFixtureSimilarlyNamedFixtureTestsInDifferentSuitesWork
 10404              	.LFB1314:
  67:TestTestMacros.cpp **** 	{
 10405              		.loc 6 67 0 is_stmt 1
 10406              		.cfi_startproc
 10407 4450 55       		pushq	%rbp
 10408              		.cfi_def_cfa_offset 16
 10409              		.cfi_offset 6, -16
 10410 4451 4889E5   		movq	%rsp, %rbp
 10411              		.cfi_def_cfa_register 6
 10412 4454 4883EC10 		subq	$16, %rsp
 10413 4458 48897DF8 		movq	%rdi, -8(%rbp)
  67:TestTestMacros.cpp **** 	{
 10414              		.loc 6 67 0
 10415 445c 488B45F8 		movq	-8(%rbp), %rax
 10416 4460 4889C7   		movq	%rax, %rdi
 10417 4463 E8AEFFFF 		call	_ZN12_GLOBAL__N_115SuiteTestSuite163TestDummyFixtureSimilarlyNamedFixtureTestsInDifferentSuit
 10417      FF
 10418 4468 488B45F8 		movq	-8(%rbp), %rax
 10419 446c 4889C7   		movq	%rax, %rdi
 10420 446f E8000000 		call	_ZdlPv
 10420      00
 10421 4474 C9       		leave
 10422              		.cfi_def_cfa 7, 8
 10423 4475 C3       		ret
 10424              		.cfi_endproc
 10425              	.LFE1314:
 10427              		.section	.rodata
 10428 11c8 00000000 		.align 32
 10428      00000000 
 10428      00000000 
 10428      00000000 
 10428      00000000 
 10431              	_ZTVN12_GLOBAL__N_115SuiteTestSuite144TestSimilarlyNamedTestsInDifferentSuitesWorkE:
 10432 11e0 00000000 		.quad	0
 10432      00000000 
 10433 11e8 00000000 		.quad	_ZTIN12_GLOBAL__N_115SuiteTestSuite144TestSimilarlyNamedTestsInDifferentSuitesWorkE
 10433      00000000 
 10434 11f0 00000000 		.quad	_ZN12_GLOBAL__N_115SuiteTestSuite144TestSimilarlyNamedTestsInDifferentSuitesWorkD1Ev
 10434      00000000 
 10435 11f8 00000000 		.quad	_ZN12_GLOBAL__N_115SuiteTestSuite144TestSimilarlyNamedTestsInDifferentSuitesWorkD0Ev
 10435      00000000 
 10436 1200 00000000 		.quad	_ZNK12_GLOBAL__N_115SuiteTestSuite144TestSimilarlyNamedTestsInDifferentSuitesWork7RunImplEv
 10436      00000000 
 10437              		.text
 10438              		.align 2
 10440              	_ZN12_GLOBAL__N_115SuiteTestSuite144TestSimilarlyNamedTestsInDifferentSuitesWorkD2Ev:
 10441              	.LFB1316:
  63:TestTestMacros.cpp **** 	{
 10442              		.loc 6 63 0
 10443              		.cfi_startproc
 10444 4476 55       		pushq	%rbp
 10445              		.cfi_def_cfa_offset 16
 10446              		.cfi_offset 6, -16
 10447 4477 4889E5   		movq	%rsp, %rbp
 10448              		.cfi_def_cfa_register 6
 10449 447a 4883EC10 		subq	$16, %rsp
 10450 447e 48897DF8 		movq	%rdi, -8(%rbp)
 10451              	.LBB242:
  63:TestTestMacros.cpp **** 	{
 10452              		.loc 6 63 0
 10453 4482 488B45F8 		movq	-8(%rbp), %rax
 10454 4486 48C70000 		movq	$_ZTVN12_GLOBAL__N_115SuiteTestSuite144TestSimilarlyNamedTestsInDifferentSuitesWorkE+16, (%ra
 10454      000000
 10455 448d 488B45F8 		movq	-8(%rbp), %rax
 10456 4491 4889C7   		movq	%rax, %rdi
 10457 4494 E8000000 		call	_ZN8UnitTest4TestD2Ev
 10457      00
 10458              	.LBE242:
 10459 4499 B8000000 		movl	$0, %eax
 10459      00
 10460 449e 85C0     		testl	%eax, %eax
 10461 44a0 740C     		je	.L572
  63:TestTestMacros.cpp **** 	{
 10462              		.loc 6 63 0 is_stmt 0 discriminator 1
 10463 44a2 488B45F8 		movq	-8(%rbp), %rax
 10464 44a6 4889C7   		movq	%rax, %rdi
 10465 44a9 E8000000 		call	_ZdlPv
 10465      00
 10466              	.L572:
  63:TestTestMacros.cpp **** 	{
 10467              		.loc 6 63 0
 10468 44ae C9       		leave
 10469              		.cfi_def_cfa 7, 8
 10470 44af C3       		ret
 10471              		.cfi_endproc
 10472              	.LFE1316:
 10474              		.set	_ZN12_GLOBAL__N_115SuiteTestSuite144TestSimilarlyNamedTestsInDifferentSuitesWorkD1Ev,_ZN12_GL
 10475              		.align 2
 10477              	_ZN12_GLOBAL__N_115SuiteTestSuite144TestSimilarlyNamedTestsInDifferentSuitesWorkD0Ev:
 10478              	.LFB1318:
  63:TestTestMacros.cpp **** 	{
 10479              		.loc 6 63 0 is_stmt 1
 10480              		.cfi_startproc
 10481 44b0 55       		pushq	%rbp
 10482              		.cfi_def_cfa_offset 16
 10483              		.cfi_offset 6, -16
 10484 44b1 4889E5   		movq	%rsp, %rbp
 10485              		.cfi_def_cfa_register 6
 10486 44b4 4883EC10 		subq	$16, %rsp
 10487 44b8 48897DF8 		movq	%rdi, -8(%rbp)
  63:TestTestMacros.cpp **** 	{
 10488              		.loc 6 63 0
 10489 44bc 488B45F8 		movq	-8(%rbp), %rax
 10490 44c0 4889C7   		movq	%rax, %rdi
 10491 44c3 E8AEFFFF 		call	_ZN12_GLOBAL__N_115SuiteTestSuite144TestSimilarlyNamedTestsInDifferentSuitesWorkD1Ev
 10491      FF
 10492 44c8 488B45F8 		movq	-8(%rbp), %rax
 10493 44cc 4889C7   		movq	%rax, %rdi
 10494 44cf E8000000 		call	_ZdlPv
 10494      00
 10495 44d4 C9       		leave
 10496              		.cfi_def_cfa 7, 8
 10497 44d5 C3       		ret
 10498              		.cfi_endproc
 10499              	.LFE1318:
 10501              		.section	.rodata
 10502 1208 00000000 		.align 32
 10502      00000000 
 10502      00000000 
 10502      00000000 
 10502      00000000 
 10505              	_ZTVN12_GLOBAL__N_157TestExceptionsInFixtureAreReportedAsHappeningInTheFixtureE:
 10506 1220 00000000 		.quad	0
 10506      00000000 
 10507 1228 00000000 		.quad	_ZTIN12_GLOBAL__N_157TestExceptionsInFixtureAreReportedAsHappeningInTheFixtureE
 10507      00000000 
 10508 1230 00000000 		.quad	_ZN12_GLOBAL__N_157TestExceptionsInFixtureAreReportedAsHappeningInTheFixtureD1Ev
 10508      00000000 
 10509 1238 00000000 		.quad	_ZN12_GLOBAL__N_157TestExceptionsInFixtureAreReportedAsHappeningInTheFixtureD0Ev
 10509      00000000 
 10510 1240 00000000 		.quad	_ZNK12_GLOBAL__N_157TestExceptionsInFixtureAreReportedAsHappeningInTheFixture7RunImplEv
 10510      00000000 
 10511              		.text
 10512              		.align 2
 10514              	_ZN12_GLOBAL__N_157TestExceptionsInFixtureAreReportedAsHappeningInTheFixtureD2Ev:
 10515              	.LFB1320:
  41:TestTestMacros.cpp **** {
 10516              		.loc 6 41 0
 10517              		.cfi_startproc
 10518 44d6 55       		pushq	%rbp
 10519              		.cfi_def_cfa_offset 16
 10520              		.cfi_offset 6, -16
 10521 44d7 4889E5   		movq	%rsp, %rbp
 10522              		.cfi_def_cfa_register 6
 10523 44da 4883EC10 		subq	$16, %rsp
 10524 44de 48897DF8 		movq	%rdi, -8(%rbp)
 10525              	.LBB243:
  41:TestTestMacros.cpp **** {
 10526              		.loc 6 41 0
 10527 44e2 488B45F8 		movq	-8(%rbp), %rax
 10528 44e6 48C70000 		movq	$_ZTVN12_GLOBAL__N_157TestExceptionsInFixtureAreReportedAsHappeningInTheFixtureE+16, (%rax)
 10528      000000
 10529 44ed 488B45F8 		movq	-8(%rbp), %rax
 10530 44f1 4889C7   		movq	%rax, %rdi
 10531 44f4 E8000000 		call	_ZN8UnitTest4TestD2Ev
 10531      00
 10532              	.LBE243:
 10533 44f9 B8000000 		movl	$0, %eax
 10533      00
 10534 44fe 85C0     		testl	%eax, %eax
 10535 4500 740C     		je	.L577
  41:TestTestMacros.cpp **** {
 10536              		.loc 6 41 0 is_stmt 0 discriminator 1
 10537 4502 488B45F8 		movq	-8(%rbp), %rax
 10538 4506 4889C7   		movq	%rax, %rdi
 10539 4509 E8000000 		call	_ZdlPv
 10539      00
 10540              	.L577:
  41:TestTestMacros.cpp **** {
 10541              		.loc 6 41 0
 10542 450e C9       		leave
 10543              		.cfi_def_cfa 7, 8
 10544 450f C3       		ret
 10545              		.cfi_endproc
 10546              	.LFE1320:
 10548              		.set	_ZN12_GLOBAL__N_157TestExceptionsInFixtureAreReportedAsHappeningInTheFixtureD1Ev,_ZN12_GLOBAL
 10549              		.align 2
 10551              	_ZN12_GLOBAL__N_157TestExceptionsInFixtureAreReportedAsHappeningInTheFixtureD0Ev:
 10552              	.LFB1322:
  41:TestTestMacros.cpp **** {
 10553              		.loc 6 41 0 is_stmt 1
 10554              		.cfi_startproc
 10555 4510 55       		pushq	%rbp
 10556              		.cfi_def_cfa_offset 16
 10557              		.cfi_offset 6, -16
 10558 4511 4889E5   		movq	%rsp, %rbp
 10559              		.cfi_def_cfa_register 6
 10560 4514 4883EC10 		subq	$16, %rsp
 10561 4518 48897DF8 		movq	%rdi, -8(%rbp)
  41:TestTestMacros.cpp **** {
 10562              		.loc 6 41 0
 10563 451c 488B45F8 		movq	-8(%rbp), %rax
 10564 4520 4889C7   		movq	%rax, %rdi
 10565 4523 E8AEFFFF 		call	_ZN12_GLOBAL__N_157TestExceptionsInFixtureAreReportedAsHappeningInTheFixtureD1Ev
 10565      FF
 10566 4528 488B45F8 		movq	-8(%rbp), %rax
 10567 452c 4889C7   		movq	%rax, %rdi
 10568 452f E8000000 		call	_ZdlPv
 10568      00
 10569 4534 C9       		leave
 10570              		.cfi_def_cfa 7, 8
 10571 4535 C3       		ret
 10572              		.cfi_endproc
 10573              	.LFE1322:
 10575              		.section	.rodata
 10576 1248 00000000 		.align 32
 10576      00000000 
 10576      00000000 
 10576      00000000 
 10576      00000000 
 10579              	_ZTVN12_GLOBAL__N_132TestThrowingThingieDummyTestNameE:
 10580 1260 00000000 		.quad	0
 10580      00000000 
 10581 1268 00000000 		.quad	_ZTIN12_GLOBAL__N_132TestThrowingThingieDummyTestNameE
 10581      00000000 
 10582 1270 00000000 		.quad	_ZN12_GLOBAL__N_132TestThrowingThingieDummyTestNameD1Ev
 10582      00000000 
 10583 1278 00000000 		.quad	_ZN12_GLOBAL__N_132TestThrowingThingieDummyTestNameD0Ev
 10583      00000000 
 10584 1280 00000000 		.quad	_ZNK12_GLOBAL__N_132TestThrowingThingieDummyTestName7RunImplEv
 10584      00000000 
 10585              		.text
 10586              		.align 2
 10588              	_ZN12_GLOBAL__N_132TestThrowingThingieDummyTestNameD2Ev:
 10589              	.LFB1324:
  37:TestTestMacros.cpp **** {
 10590              		.loc 6 37 0
 10591              		.cfi_startproc
 10592 4536 55       		pushq	%rbp
 10593              		.cfi_def_cfa_offset 16
 10594              		.cfi_offset 6, -16
 10595 4537 4889E5   		movq	%rsp, %rbp
 10596              		.cfi_def_cfa_register 6
 10597 453a 4883EC10 		subq	$16, %rsp
 10598 453e 48897DF8 		movq	%rdi, -8(%rbp)
 10599              	.LBB244:
  37:TestTestMacros.cpp **** {
 10600              		.loc 6 37 0
 10601 4542 488B45F8 		movq	-8(%rbp), %rax
 10602 4546 48C70000 		movq	$_ZTVN12_GLOBAL__N_132TestThrowingThingieDummyTestNameE+16, (%rax)
 10602      000000
 10603 454d 488B45F8 		movq	-8(%rbp), %rax
 10604 4551 4889C7   		movq	%rax, %rdi
 10605 4554 E8000000 		call	_ZN8UnitTest4TestD2Ev
 10605      00
 10606              	.LBE244:
 10607 4559 B8000000 		movl	$0, %eax
 10607      00
 10608 455e 85C0     		testl	%eax, %eax
 10609 4560 740C     		je	.L582
  37:TestTestMacros.cpp **** {
 10610              		.loc 6 37 0 is_stmt 0 discriminator 1
 10611 4562 488B45F8 		movq	-8(%rbp), %rax
 10612 4566 4889C7   		movq	%rax, %rdi
 10613 4569 E8000000 		call	_ZdlPv
 10613      00
 10614              	.L582:
  37:TestTestMacros.cpp **** {
 10615              		.loc 6 37 0
 10616 456e C9       		leave
 10617              		.cfi_def_cfa 7, 8
 10618 456f C3       		ret
 10619              		.cfi_endproc
 10620              	.LFE1324:
 10622              		.set	_ZN12_GLOBAL__N_132TestThrowingThingieDummyTestNameD1Ev,_ZN12_GLOBAL__N_132TestThrowingThingi
 10623              		.align 2
 10625              	_ZN12_GLOBAL__N_132TestThrowingThingieDummyTestNameD0Ev:
 10626              	.LFB1326:
  37:TestTestMacros.cpp **** {
 10627              		.loc 6 37 0 is_stmt 1
 10628              		.cfi_startproc
 10629 4570 55       		pushq	%rbp
 10630              		.cfi_def_cfa_offset 16
 10631              		.cfi_offset 6, -16
 10632 4571 4889E5   		movq	%rsp, %rbp
 10633              		.cfi_def_cfa_register 6
 10634 4574 4883EC10 		subq	$16, %rsp
 10635 4578 48897DF8 		movq	%rdi, -8(%rbp)
  37:TestTestMacros.cpp **** {
 10636              		.loc 6 37 0
 10637 457c 488B45F8 		movq	-8(%rbp), %rax
 10638 4580 4889C7   		movq	%rax, %rdi
 10639 4583 E8AEFFFF 		call	_ZN12_GLOBAL__N_132TestThrowingThingieDummyTestNameD1Ev
 10639      FF
 10640 4588 488B45F8 		movq	-8(%rbp), %rax
 10641 458c 4889C7   		movq	%rax, %rdi
 10642 458f E8000000 		call	_ZdlPv
 10642      00
 10643 4594 C9       		leave
 10644              		.cfi_def_cfa 7, 8
 10645 4595 C3       		ret
 10646              		.cfi_endproc
 10647              	.LFE1326:
 10649              		.section	.rodata
 10650 1288 00000000 		.align 32
 10650      00000000 
 10650      00000000 
 10650      00000000 
 10650      00000000 
 10653              	_ZTVN12_GLOBAL__N_138TestTestsAreAddedToTheListThroughMacroE:
 10654 12a0 00000000 		.quad	0
 10654      00000000 
 10655 12a8 00000000 		.quad	_ZTIN12_GLOBAL__N_138TestTestsAreAddedToTheListThroughMacroE
 10655      00000000 
 10656 12b0 00000000 		.quad	_ZN12_GLOBAL__N_138TestTestsAreAddedToTheListThroughMacroD1Ev
 10656      00000000 
 10657 12b8 00000000 		.quad	_ZN12_GLOBAL__N_138TestTestsAreAddedToTheListThroughMacroD0Ev
 10657      00000000 
 10658 12c0 00000000 		.quad	_ZNK12_GLOBAL__N_138TestTestsAreAddedToTheListThroughMacro7RunImplEv
 10658      00000000 
 10659              		.text
 10660              		.align 2
 10662              	_ZN12_GLOBAL__N_138TestTestsAreAddedToTheListThroughMacroD2Ev:
 10663              	.LFB1328:
  19:TestTestMacros.cpp **** {
 10664              		.loc 6 19 0
 10665              		.cfi_startproc
 10666 4596 55       		pushq	%rbp
 10667              		.cfi_def_cfa_offset 16
 10668              		.cfi_offset 6, -16
 10669 4597 4889E5   		movq	%rsp, %rbp
 10670              		.cfi_def_cfa_register 6
 10671 459a 4883EC10 		subq	$16, %rsp
 10672 459e 48897DF8 		movq	%rdi, -8(%rbp)
 10673              	.LBB245:
  19:TestTestMacros.cpp **** {
 10674              		.loc 6 19 0
 10675 45a2 488B45F8 		movq	-8(%rbp), %rax
 10676 45a6 48C70000 		movq	$_ZTVN12_GLOBAL__N_138TestTestsAreAddedToTheListThroughMacroE+16, (%rax)
 10676      000000
 10677 45ad 488B45F8 		movq	-8(%rbp), %rax
 10678 45b1 4889C7   		movq	%rax, %rdi
 10679 45b4 E8000000 		call	_ZN8UnitTest4TestD2Ev
 10679      00
 10680              	.LBE245:
 10681 45b9 B8000000 		movl	$0, %eax
 10681      00
 10682 45be 85C0     		testl	%eax, %eax
 10683 45c0 740C     		je	.L587
  19:TestTestMacros.cpp **** {
 10684              		.loc 6 19 0 is_stmt 0 discriminator 1
 10685 45c2 488B45F8 		movq	-8(%rbp), %rax
 10686 45c6 4889C7   		movq	%rax, %rdi
 10687 45c9 E8000000 		call	_ZdlPv
 10687      00
 10688              	.L587:
  19:TestTestMacros.cpp **** {
 10689              		.loc 6 19 0
 10690 45ce C9       		leave
 10691              		.cfi_def_cfa 7, 8
 10692 45cf C3       		ret
 10693              		.cfi_endproc
 10694              	.LFE1328:
 10696              		.set	_ZN12_GLOBAL__N_138TestTestsAreAddedToTheListThroughMacroD1Ev,_ZN12_GLOBAL__N_138TestTestsAre
 10697              		.align 2
 10699              	_ZN12_GLOBAL__N_138TestTestsAreAddedToTheListThroughMacroD0Ev:
 10700              	.LFB1330:
  19:TestTestMacros.cpp **** {
 10701              		.loc 6 19 0 is_stmt 1
 10702              		.cfi_startproc
 10703 45d0 55       		pushq	%rbp
 10704              		.cfi_def_cfa_offset 16
 10705              		.cfi_offset 6, -16
 10706 45d1 4889E5   		movq	%rsp, %rbp
 10707              		.cfi_def_cfa_register 6
 10708 45d4 4883EC10 		subq	$16, %rsp
 10709 45d8 48897DF8 		movq	%rdi, -8(%rbp)
  19:TestTestMacros.cpp **** {
 10710              		.loc 6 19 0
 10711 45dc 488B45F8 		movq	-8(%rbp), %rax
 10712 45e0 4889C7   		movq	%rax, %rdi
 10713 45e3 E8AEFFFF 		call	_ZN12_GLOBAL__N_138TestTestsAreAddedToTheListThroughMacroD1Ev
 10713      FF
 10714 45e8 488B45F8 		movq	-8(%rbp), %rax
 10715 45ec 4889C7   		movq	%rax, %rdi
 10716 45ef E8000000 		call	_ZdlPv
 10716      00
 10717 45f4 C9       		leave
 10718              		.cfi_def_cfa 7, 8
 10719 45f5 C3       		ret
 10720              		.cfi_endproc
 10721              	.LFE1330:
 10723              		.section	.rodata
 10724 12c8 00000000 		.align 32
 10724      00000000 
 10724      00000000 
 10724      00000000 
 10724      00000000 
 10727              	_ZTVN12_GLOBAL__N_113TestDummyTestE:
 10728 12e0 00000000 		.quad	0
 10728      00000000 
 10729 12e8 00000000 		.quad	_ZTIN12_GLOBAL__N_113TestDummyTestE
 10729      00000000 
 10730 12f0 00000000 		.quad	_ZN12_GLOBAL__N_113TestDummyTestD1Ev
 10730      00000000 
 10731 12f8 00000000 		.quad	_ZN12_GLOBAL__N_113TestDummyTestD0Ev
 10731      00000000 
 10732 1300 00000000 		.quad	_ZNK12_GLOBAL__N_113TestDummyTest7RunImplEv
 10732      00000000 
 10733              		.text
 10734              		.align 2
 10736              	_ZN12_GLOBAL__N_113TestDummyTestD2Ev:
 10737              	.LFB1332:
  15:TestTestMacros.cpp **** {
 10738              		.loc 6 15 0
 10739              		.cfi_startproc
 10740 45f6 55       		pushq	%rbp
 10741              		.cfi_def_cfa_offset 16
 10742              		.cfi_offset 6, -16
 10743 45f7 4889E5   		movq	%rsp, %rbp
 10744              		.cfi_def_cfa_register 6
 10745 45fa 4883EC10 		subq	$16, %rsp
 10746 45fe 48897DF8 		movq	%rdi, -8(%rbp)
 10747              	.LBB246:
  15:TestTestMacros.cpp **** {
 10748              		.loc 6 15 0
 10749 4602 488B45F8 		movq	-8(%rbp), %rax
 10750 4606 48C70000 		movq	$_ZTVN12_GLOBAL__N_113TestDummyTestE+16, (%rax)
 10750      000000
 10751 460d 488B45F8 		movq	-8(%rbp), %rax
 10752 4611 4889C7   		movq	%rax, %rdi
 10753 4614 E8000000 		call	_ZN8UnitTest4TestD2Ev
 10753      00
 10754              	.LBE246:
 10755 4619 B8000000 		movl	$0, %eax
 10755      00
 10756 461e 85C0     		testl	%eax, %eax
 10757 4620 740C     		je	.L592
  15:TestTestMacros.cpp **** {
 10758              		.loc 6 15 0 is_stmt 0 discriminator 1
 10759 4622 488B45F8 		movq	-8(%rbp), %rax
 10760 4626 4889C7   		movq	%rax, %rdi
 10761 4629 E8000000 		call	_ZdlPv
 10761      00
 10762              	.L592:
  15:TestTestMacros.cpp **** {
 10763              		.loc 6 15 0
 10764 462e C9       		leave
 10765              		.cfi_def_cfa 7, 8
 10766 462f C3       		ret
 10767              		.cfi_endproc
 10768              	.LFE1332:
 10770              		.set	_ZN12_GLOBAL__N_113TestDummyTestD1Ev,_ZN12_GLOBAL__N_113TestDummyTestD2Ev
 10771              		.align 2
 10773              	_ZN12_GLOBAL__N_113TestDummyTestD0Ev:
 10774              	.LFB1334:
  15:TestTestMacros.cpp **** {
 10775              		.loc 6 15 0 is_stmt 1
 10776              		.cfi_startproc
 10777 4630 55       		pushq	%rbp
 10778              		.cfi_def_cfa_offset 16
 10779              		.cfi_offset 6, -16
 10780 4631 4889E5   		movq	%rsp, %rbp
 10781              		.cfi_def_cfa_register 6
 10782 4634 4883EC10 		subq	$16, %rsp
 10783 4638 48897DF8 		movq	%rdi, -8(%rbp)
  15:TestTestMacros.cpp **** {
 10784              		.loc 6 15 0
 10785 463c 488B45F8 		movq	-8(%rbp), %rax
 10786 4640 4889C7   		movq	%rax, %rdi
 10787 4643 E8AEFFFF 		call	_ZN12_GLOBAL__N_113TestDummyTestD1Ev
 10787      FF
 10788 4648 488B45F8 		movq	-8(%rbp), %rax
 10789 464c 4889C7   		movq	%rax, %rdi
 10790 464f E8000000 		call	_ZdlPv
 10790      00
 10791 4654 C9       		leave
 10792              		.cfi_def_cfa 7, 8
 10793 4655 C3       		ret
 10794              		.cfi_endproc
 10795              	.LFE1334:
 10797              		.weak	_ZTV17RecordingReporter
 10798              		.section	.rodata._ZTV17RecordingReporter,"aG",@progbits,_ZTV17RecordingReporter,comdat
 10799              		.align 32
 10802              	_ZTV17RecordingReporter:
 10803 0000 00000000 		.quad	0
 10803      00000000 
 10804 0008 00000000 		.quad	_ZTI17RecordingReporter
 10804      00000000 
 10805 0010 00000000 		.quad	_ZN17RecordingReporterD1Ev
 10805      00000000 
 10806 0018 00000000 		.quad	_ZN17RecordingReporterD0Ev
 10806      00000000 
 10807 0020 00000000 		.quad	_ZN17RecordingReporter15ReportTestStartERKN8UnitTest11TestDetailsE
 10807      00000000 
 10808 0028 00000000 		.quad	_ZN17RecordingReporter13ReportFailureERKN8UnitTest11TestDetailsEPKc
 10808      00000000 
 10809 0030 00000000 		.quad	_ZN17RecordingReporter16ReportTestFinishERKN8UnitTest11TestDetailsEf
 10809      00000000 
 10810 0038 00000000 		.quad	_ZN17RecordingReporter13ReportSummaryEiiif
 10810      00000000 
 10811              		.section	.text._ZN17RecordingReporterD2Ev,"axG",@progbits,_ZN17RecordingReporterD5Ev,comdat
 10812              		.align 2
 10813              		.weak	_ZN17RecordingReporterD2Ev
 10815              	_ZN17RecordingReporterD2Ev:
 10816              	.LFB1336:
   9:RecordingReporter.h **** {
 10817              		.loc 4 9 0
 10818              		.cfi_startproc
 10819 0000 55       		pushq	%rbp
 10820              		.cfi_def_cfa_offset 16
 10821              		.cfi_offset 6, -16
 10822 0001 4889E5   		movq	%rsp, %rbp
 10823              		.cfi_def_cfa_register 6
 10824 0004 4883EC10 		subq	$16, %rsp
 10825 0008 48897DF8 		movq	%rdi, -8(%rbp)
 10826              	.LBB247:
   9:RecordingReporter.h **** {
 10827              		.loc 4 9 0
 10828 000c 488B45F8 		movq	-8(%rbp), %rax
 10829 0010 48C70000 		movq	$_ZTV17RecordingReporter+16, (%rax)
 10829      000000
 10830 0017 488B45F8 		movq	-8(%rbp), %rax
 10831 001b 4889C7   		movq	%rax, %rdi
 10832 001e E8000000 		call	_ZN8UnitTest12TestReporterD2Ev
 10832      00
 10833              	.LBE247:
 10834 0023 B8000000 		movl	$0, %eax
 10834      00
 10835 0028 85C0     		testl	%eax, %eax
 10836 002a 740C     		je	.L597
   9:RecordingReporter.h **** {
 10837              		.loc 4 9 0 is_stmt 0 discriminator 1
 10838 002c 488B45F8 		movq	-8(%rbp), %rax
 10839 0030 4889C7   		movq	%rax, %rdi
 10840 0033 E8000000 		call	_ZdlPv
 10840      00
 10841              	.L597:
   9:RecordingReporter.h **** {
 10842              		.loc 4 9 0
 10843 0038 C9       		leave
 10844              		.cfi_def_cfa 7, 8
 10845 0039 C3       		ret
 10846              		.cfi_endproc
 10847              	.LFE1336:
 10849              		.weak	_ZN17RecordingReporterD1Ev
 10850              		.set	_ZN17RecordingReporterD1Ev,_ZN17RecordingReporterD2Ev
 10851              		.section	.text._ZN17RecordingReporterD0Ev,"axG",@progbits,_ZN17RecordingReporterD0Ev,comdat
 10852              		.align 2
 10853              		.weak	_ZN17RecordingReporterD0Ev
 10855              	_ZN17RecordingReporterD0Ev:
 10856              	.LFB1338:
   9:RecordingReporter.h **** {
 10857              		.loc 4 9 0 is_stmt 1
 10858              		.cfi_startproc
 10859 0000 55       		pushq	%rbp
 10860              		.cfi_def_cfa_offset 16
 10861              		.cfi_offset 6, -16
 10862 0001 4889E5   		movq	%rsp, %rbp
 10863              		.cfi_def_cfa_register 6
 10864 0004 4883EC10 		subq	$16, %rsp
 10865 0008 48897DF8 		movq	%rdi, -8(%rbp)
   9:RecordingReporter.h **** {
 10866              		.loc 4 9 0
 10867 000c 488B45F8 		movq	-8(%rbp), %rax
 10868 0010 4889C7   		movq	%rax, %rdi
 10869 0013 E8000000 		call	_ZN17RecordingReporterD1Ev
 10869      00
 10870 0018 488B45F8 		movq	-8(%rbp), %rax
 10871 001c 4889C7   		movq	%rax, %rdi
 10872 001f E8000000 		call	_ZdlPv
 10872      00
 10873 0024 C9       		leave
 10874              		.cfi_def_cfa 7, 8
 10875 0025 C3       		ret
 10876              		.cfi_endproc
 10877              	.LFE1338:
 10879              		.weak	_ZTVN8UnitTest15MemoryOutStreamE
 10880              		.section	.rodata._ZTVN8UnitTest15MemoryOutStreamE,"aG",@progbits,_ZTVN8UnitTest15MemoryOutStreamE,
 10881              		.align 32
 10884              	_ZTVN8UnitTest15MemoryOutStreamE:
 10885 0000 60000000 		.quad	96
 10885      00000000 
 10886 0008 00000000 		.quad	0
 10886      00000000 
 10887 0010 00000000 		.quad	_ZTIN8UnitTest15MemoryOutStreamE
 10887      00000000 
 10888 0018 00000000 		.quad	_ZN8UnitTest15MemoryOutStreamD1Ev
 10888      00000000 
 10889 0020 00000000 		.quad	_ZN8UnitTest15MemoryOutStreamD0Ev
 10889      00000000 
 10890 0028 A0FFFFFF 		.quad	-96
 10890      FFFFFFFF 
 10891 0030 A0FFFFFF 		.quad	-96
 10891      FFFFFFFF 
 10892 0038 00000000 		.quad	_ZTIN8UnitTest15MemoryOutStreamE
 10892      00000000 
 10893 0040 00000000 		.quad	_ZTv0_n24_N8UnitTest15MemoryOutStreamD1Ev
 10893      00000000 
 10894 0048 00000000 		.quad	_ZTv0_n24_N8UnitTest15MemoryOutStreamD0Ev
 10894      00000000 
 10895              		.section	.text._ZN8UnitTest15MemoryOutStreamD1Ev,"axG",@progbits,_ZN8UnitTest15MemoryOutStreamD1Ev
 10896              		.align 2
 10897              		.weak	_ZN8UnitTest15MemoryOutStreamD1Ev
 10899              	_ZN8UnitTest15MemoryOutStreamD1Ev:
 10900              	.LFB1341:
  13:../MemoryOutStream.h **** {
 10901              		.loc 2 13 0
 10902              		.cfi_startproc
 10903              		.cfi_personality 0x3,__gxx_personality_v0
 10904              		.cfi_lsda 0x3,.LLSDA1341
 10905 0000 55       		pushq	%rbp
 10906              		.cfi_def_cfa_offset 16
 10907              		.cfi_offset 6, -16
 10908 0001 4889E5   		movq	%rsp, %rbp
 10909              		.cfi_def_cfa_register 6
 10910 0004 53       		pushq	%rbx
 10911 0005 4883EC18 		subq	$24, %rsp
 10912              		.cfi_offset 3, -24
 10913 0009 48897DE8 		movq	%rdi, -24(%rbp)
 10914              	.LBB248:
  13:../MemoryOutStream.h **** {
 10915              		.loc 2 13 0
 10916 000d BA000000 		movl	$_ZTVN8UnitTest15MemoryOutStreamE+24, %edx
 10916      00
 10917 0012 488B45E8 		movq	-24(%rbp), %rax
 10918 0016 488910   		movq	%rdx, (%rax)
 10919 0019 BA600000 		movl	$96, %edx
 10919      00
 10920 001e 488B45E8 		movq	-24(%rbp), %rax
 10921 0022 4801C2   		addq	%rax, %rdx
 10922 0025 B8000000 		movl	$_ZTVN8UnitTest15MemoryOutStreamE+64, %eax
 10922      00
 10923 002a 488902   		movq	%rax, (%rdx)
 10924 002d 488B45E8 		movq	-24(%rbp), %rax
 10925 0031 4883C058 		addq	$88, %rax
 10926 0035 4889C7   		movq	%rax, %rdi
 10927              	.LEHB265:
 10928 0038 E8000000 		call	_ZNSsD1Ev
 10928      00
 10929              	.LEHE265:
  13:../MemoryOutStream.h **** {
 10930              		.loc 2 13 0 is_stmt 0 discriminator 10
 10931 003d BA000000 		movl	$_ZTTN8UnitTest15MemoryOutStreamE+8, %edx
 10931      00
 10932 0042 488B45E8 		movq	-24(%rbp), %rax
 10933 0046 4889D6   		movq	%rdx, %rsi
 10934 0049 4889C7   		movq	%rax, %rdi
 10935              	.LEHB266:
 10936 004c E8000000 		call	_ZNSt19basic_ostringstreamIcSt11char_traitsIcESaIcEED2Ev
 10936      00
 10937              	.LEHE266:
  13:../MemoryOutStream.h **** {
 10938              		.loc 2 13 0 discriminator 14
 10939 0051 B8020000 		movl	$2, %eax
 10939      00
 10940 0056 85C0     		testl	%eax, %eax
 10941 0058 7410     		je	.L603
  13:../MemoryOutStream.h **** {
 10942              		.loc 2 13 0 discriminator 15
 10943 005a 488B45E8 		movq	-24(%rbp), %rax
 10944 005e 4883C060 		addq	$96, %rax
 10945 0062 4889C7   		movq	%rax, %rdi
 10946              	.LEHB267:
 10947 0065 E8000000 		call	_ZNSt9basic_iosIcSt11char_traitsIcEED2Ev
 10947      00
 10948              	.LEHE267:
 10949              	.L603:
 10950              	.LBE248:
  13:../MemoryOutStream.h **** {
 10951              		.loc 2 13 0 discriminator 16
 10952 006a B8000000 		movl	$0, %eax
 10952      00
 10953 006f 85C0     		testl	%eax, %eax
 10954 0071 744E     		je	.L610
  13:../MemoryOutStream.h **** {
 10955              		.loc 2 13 0 discriminator 1
 10956 0073 488B45E8 		movq	-24(%rbp), %rax
 10957 0077 4889C7   		movq	%rax, %rdi
 10958 007a E8000000 		call	_ZdlPv
 10958      00
 10959 007f EB40     		jmp	.L610
 10960              	.L608:
 10961 0081 4889C3   		movq	%rax, %rbx
 10962              	.LBB249:
  13:../MemoryOutStream.h **** {
 10963              		.loc 2 13 0
 10964 0084 BA000000 		movl	$_ZTTN8UnitTest15MemoryOutStreamE+8, %edx
 10964      00
 10965 0089 488B45E8 		movq	-24(%rbp), %rax
 10966 008d 4889D6   		movq	%rdx, %rsi
 10967 0090 4889C7   		movq	%rax, %rdi
 10968 0093 E8000000 		call	_ZNSt19basic_ostringstreamIcSt11char_traitsIcESaIcEED2Ev
 10968      00
 10969 0098 EB03     		jmp	.L606
 10970              	.L609:
 10971 009a 4889C3   		movq	%rax, %rbx
 10972              	.L606:
 10973 009d B8020000 		movl	$2, %eax
 10973      00
 10974 00a2 85C0     		testl	%eax, %eax
 10975 00a4 7410     		je	.L607
  13:../MemoryOutStream.h **** {
 10976              		.loc 2 13 0 discriminator 20
 10977 00a6 488B45E8 		movq	-24(%rbp), %rax
 10978 00aa 4883C060 		addq	$96, %rax
 10979 00ae 4889C7   		movq	%rax, %rdi
 10980 00b1 E8000000 		call	_ZNSt9basic_iosIcSt11char_traitsIcEED2Ev
 10980      00
 10981              	.L607:
 10982 00b6 4889D8   		movq	%rbx, %rax
 10983 00b9 4889C7   		movq	%rax, %rdi
 10984              	.LEHB268:
 10985 00bc E8000000 		call	_Unwind_Resume
 10985      00
 10986              	.LEHE268:
 10987              	.L610:
 10988              	.LBE249:
  13:../MemoryOutStream.h **** {
 10989              		.loc 2 13 0
 10990 00c1 4883C418 		addq	$24, %rsp
 10991 00c5 5B       		popq	%rbx
 10992 00c6 5D       		popq	%rbp
 10993              		.cfi_def_cfa 7, 8
 10994 00c7 C3       		ret
 10995              		.cfi_endproc
 10996              	.LFE1341:
 10997              		.section	.gcc_except_table
 10998              	.LLSDA1341:
 10999 073c FF       		.byte	0xff
 11000 073d FF       		.byte	0xff
 11001 073e 01       		.byte	0x1
 11002 073f 13       		.uleb128 .LLSDACSE1341-.LLSDACSB1341
 11003              	.LLSDACSB1341:
 11004 0740 38       		.uleb128 .LEHB265-.LFB1341
 11005 0741 05       		.uleb128 .LEHE265-.LEHB265
 11006 0742 8101     		.uleb128 .L608-.LFB1341
 11007 0744 00       		.uleb128 0
 11008 0745 4C       		.uleb128 .LEHB266-.LFB1341
 11009 0746 05       		.uleb128 .LEHE266-.LEHB266
 11010 0747 9A01     		.uleb128 .L609-.LFB1341
 11011 0749 00       		.uleb128 0
 11012 074a 65       		.uleb128 .LEHB267-.LFB1341
 11013 074b 05       		.uleb128 .LEHE267-.LEHB267
 11014 074c 00       		.uleb128 0
 11015 074d 00       		.uleb128 0
 11016 074e BC01     		.uleb128 .LEHB268-.LFB1341
 11017 0750 05       		.uleb128 .LEHE268-.LEHB268
 11018 0751 00       		.uleb128 0
 11019 0752 00       		.uleb128 0
 11020              	.LLSDACSE1341:
 11021              		.section	.text._ZN8UnitTest15MemoryOutStreamD1Ev,"axG",@progbits,_ZN8UnitTest15MemoryOutStreamD1Ev
 11023              		.set	.LTHUNK0,_ZN8UnitTest15MemoryOutStreamD1Ev
 11024              		.weak	_ZTv0_n24_N8UnitTest15MemoryOutStreamD1Ev
 11026              	_ZTv0_n24_N8UnitTest15MemoryOutStreamD1Ev:
 11027              	.LFB1345:
  13:../MemoryOutStream.h **** {
 11028              		.loc 2 13 0 is_stmt 1
 11029              		.cfi_startproc
 11030 00c8 4C8B17   		movq	(%rdi), %r10
 11031 00cb 49037AE8 		addq	-24(%r10), %rdi
 11032 00cf E92CFFFF 		jmp	.LTHUNK0
 11032      FF
 11033              		.cfi_endproc
 11034              	.LFE1345:
 11036              		.section	.text._ZN8UnitTest15MemoryOutStreamD0Ev,"axG",@progbits,_ZN8UnitTest15MemoryOutStreamD0Ev
 11037              		.align 2
 11038              		.weak	_ZN8UnitTest15MemoryOutStreamD0Ev
 11040              	_ZN8UnitTest15MemoryOutStreamD0Ev:
 11041              	.LFB1342:
  13:../MemoryOutStream.h **** {
 11042              		.loc 2 13 0
 11043              		.cfi_startproc
 11044 0000 55       		pushq	%rbp
 11045              		.cfi_def_cfa_offset 16
 11046              		.cfi_offset 6, -16
 11047 0001 4889E5   		movq	%rsp, %rbp
 11048              		.cfi_def_cfa_register 6
 11049 0004 4883EC10 		subq	$16, %rsp
 11050 0008 48897DF8 		movq	%rdi, -8(%rbp)
  13:../MemoryOutStream.h **** {
 11051              		.loc 2 13 0
 11052 000c 488B45F8 		movq	-8(%rbp), %rax
 11053 0010 4889C7   		movq	%rax, %rdi
 11054 0013 E8000000 		call	_ZN8UnitTest15MemoryOutStreamD1Ev
 11054      00
 11055 0018 488B45F8 		movq	-8(%rbp), %rax
 11056 001c 4889C7   		movq	%rax, %rdi
 11057 001f E8000000 		call	_ZdlPv
 11057      00
 11058 0024 C9       		leave
 11059              		.cfi_def_cfa 7, 8
 11060 0025 C3       		ret
 11061              		.cfi_endproc
 11062              	.LFE1342:
 11064              		.set	.LTHUNK1,_ZN8UnitTest15MemoryOutStreamD0Ev
 11065              		.weak	_ZTv0_n24_N8UnitTest15MemoryOutStreamD0Ev
 11067              	_ZTv0_n24_N8UnitTest15MemoryOutStreamD0Ev:
 11068              	.LFB1346:
  13:../MemoryOutStream.h **** {
 11069              		.loc 2 13 0
 11070              		.cfi_startproc
 11071 0026 4C8B17   		movq	(%rdi), %r10
 11072 0029 49037AE8 		addq	-24(%r10), %rdi
 11073 002d EBD1     		jmp	.LTHUNK1
 11074              		.cfi_endproc
 11075              	.LFE1346:
 11077              		.weak	_ZTTN8UnitTest15MemoryOutStreamE
 11078              		.section	.rodata._ZTTN8UnitTest15MemoryOutStreamE,"aG",@progbits,_ZTVN8UnitTest15MemoryOutStreamE,
 11079              		.align 32
 11082              	_ZTTN8UnitTest15MemoryOutStreamE:
 11083 0000 00000000 		.quad	_ZTVN8UnitTest15MemoryOutStreamE+24
 11083      00000000 
 11084 0008 00000000 		.quad	_ZTCN8UnitTest15MemoryOutStreamE0_St19basic_ostringstreamIcSt11char_traitsIcESaIcEE+24
 11084      00000000 
 11085 0010 00000000 		.quad	_ZTCN8UnitTest15MemoryOutStreamE0_So+24
 11085      00000000 
 11086 0018 00000000 		.quad	_ZTCN8UnitTest15MemoryOutStreamE0_So+64
 11086      00000000 
 11087 0020 00000000 		.quad	_ZTCN8UnitTest15MemoryOutStreamE0_St19basic_ostringstreamIcSt11char_traitsIcESaIcEE+64
 11087      00000000 
 11088 0028 00000000 		.quad	_ZTVN8UnitTest15MemoryOutStreamE+64
 11088      00000000 
 11089              		.hidden	_ZTCN8UnitTest15MemoryOutStreamE0_St19basic_ostringstreamIcSt11char_traitsIcESaIcEE
 11090              		.weak	_ZTCN8UnitTest15MemoryOutStreamE0_St19basic_ostringstreamIcSt11char_traitsIcESaIcEE
 11091              		.section	.rodata._ZTCN8UnitTest15MemoryOutStreamE0_St19basic_ostringstreamIcSt11char_traitsIcESaIc
 11092              		.align 32
 11095              	_ZTCN8UnitTest15MemoryOutStreamE0_St19basic_ostringstreamIcSt11char_traitsIcESaIcEE:
 11096 0000 60000000 		.quad	96
 11096      00000000 
 11097 0008 00000000 		.quad	0
 11097      00000000 
 11098 0010 00000000 		.quad	_ZTISt19basic_ostringstreamIcSt11char_traitsIcESaIcEE
 11098      00000000 
 11099 0018 00000000 		.quad	_ZNSt19basic_ostringstreamIcSt11char_traitsIcESaIcEED1Ev
 11099      00000000 
 11100 0020 00000000 		.quad	_ZNSt19basic_ostringstreamIcSt11char_traitsIcESaIcEED0Ev
 11100      00000000 
 11101 0028 A0FFFFFF 		.quad	-96
 11101      FFFFFFFF 
 11102 0030 A0FFFFFF 		.quad	-96
 11102      FFFFFFFF 
 11103 0038 00000000 		.quad	_ZTISt19basic_ostringstreamIcSt11char_traitsIcESaIcEE
 11103      00000000 
 11104 0040 00000000 		.quad	_ZTv0_n24_NSt19basic_ostringstreamIcSt11char_traitsIcESaIcEED1Ev
 11104      00000000 
 11105 0048 00000000 		.quad	_ZTv0_n24_NSt19basic_ostringstreamIcSt11char_traitsIcESaIcEED0Ev
 11105      00000000 
 11106              		.hidden	_ZTCN8UnitTest15MemoryOutStreamE0_So
 11107              		.weak	_ZTCN8UnitTest15MemoryOutStreamE0_So
 11108              		.section	.rodata._ZTCN8UnitTest15MemoryOutStreamE0_So,"aG",@progbits,_ZTVN8UnitTest15MemoryOutStre
 11109              		.align 32
 11112              	_ZTCN8UnitTest15MemoryOutStreamE0_So:
 11113 0000 60000000 		.quad	96
 11113      00000000 
 11114 0008 00000000 		.quad	0
 11114      00000000 
 11115 0010 00000000 		.quad	_ZTISo
 11115      00000000 
 11116 0018 00000000 		.quad	_ZNSoD1Ev
 11116      00000000 
 11117 0020 00000000 		.quad	_ZNSoD0Ev
 11117      00000000 
 11118 0028 A0FFFFFF 		.quad	-96
 11118      FFFFFFFF 
 11119 0030 A0FFFFFF 		.quad	-96
 11119      FFFFFFFF 
 11120 0038 00000000 		.quad	_ZTISo
 11120      00000000 
 11121 0040 00000000 		.quad	_ZTv0_n24_NSoD1Ev
 11121      00000000 
 11122 0048 00000000 		.quad	_ZTv0_n24_NSoD0Ev
 11122      00000000 
 11123              		.weak	_ZTI44TestCurrentTestDetailsContainCurrentTestInfo
 11124              		.section	.rodata._ZTI44TestCurrentTestDetailsContainCurrentTestInfo,"aG",@progbits,_ZTI44TestCurre
 11125              		.align 16
 11128              	_ZTI44TestCurrentTestDetailsContainCurrentTestInfo:
 11129 0000 00000000 		.quad	_ZTVN10__cxxabiv120__si_class_type_infoE+16
 11129      00000000 
 11130 0008 00000000 		.quad	_ZTS44TestCurrentTestDetailsContainCurrentTestInfo
 11130      00000000 
 11131 0010 00000000 		.quad	_ZTIN8UnitTest4TestE
 11131      00000000 
 11132              		.weak	_ZTS44TestCurrentTestDetailsContainCurrentTestInfo
 11133              		.section	.rodata._ZTS44TestCurrentTestDetailsContainCurrentTestInfo,"aG",@progbits,_ZTS44TestCurre
 11134              		.align 32
 11137              	_ZTS44TestCurrentTestDetailsContainCurrentTestInfo:
 11138 0000 34345465 		.string	"44TestCurrentTestDetailsContainCurrentTestInfo"
 11138      73744375 
 11138      7272656E 
 11138      74546573 
 11138      74446574 
 11139              		.weak	_ZTIN18SuiteSameTestSuite14TestDummyTest1E
 11140              		.section	.rodata._ZTIN18SuiteSameTestSuite14TestDummyTest1E,"aG",@progbits,_ZTIN18SuiteSameTestSui
 11141              		.align 16
 11144              	_ZTIN18SuiteSameTestSuite14TestDummyTest1E:
 11145 0000 00000000 		.quad	_ZTVN10__cxxabiv120__si_class_type_infoE+16
 11145      00000000 
 11146 0008 00000000 		.quad	_ZTSN18SuiteSameTestSuite14TestDummyTest1E
 11146      00000000 
 11147 0010 00000000 		.quad	_ZTIN8UnitTest4TestE
 11147      00000000 
 11148              		.weak	_ZTSN18SuiteSameTestSuite14TestDummyTest1E
 11149              		.section	.rodata._ZTSN18SuiteSameTestSuite14TestDummyTest1E,"aG",@progbits,_ZTSN18SuiteSameTestSui
 11150              		.align 32
 11153              	_ZTSN18SuiteSameTestSuite14TestDummyTest1E:
 11154 0000 4E313853 		.string	"N18SuiteSameTestSuite14TestDummyTest1E"
 11154      75697465 
 11154      53616D65 
 11154      54657374 
 11154      53756974 
 11155              		.weak	_ZTS17RecordingReporter
 11156              		.section	.rodata._ZTS17RecordingReporter,"aG",@progbits,_ZTS17RecordingReporter,comdat
 11157              		.align 16
 11160              	_ZTS17RecordingReporter:
 11161 0000 31375265 		.string	"17RecordingReporter"
 11161      636F7264 
 11161      696E6752 
 11161      65706F72 
 11161      74657200 
 11162              		.weak	_ZTI17RecordingReporter
 11163              		.section	.rodata._ZTI17RecordingReporter,"aG",@progbits,_ZTI17RecordingReporter,comdat
 11164              		.align 16
 11167              	_ZTI17RecordingReporter:
 11168 0000 00000000 		.quad	_ZTVN10__cxxabiv120__si_class_type_infoE+16
 11168      00000000 
 11169 0008 00000000 		.quad	_ZTS17RecordingReporter
 11169      00000000 
 11170 0010 00000000 		.quad	_ZTIN8UnitTest12TestReporterE
 11170      00000000 
 11171              		.weak	_ZTSN8UnitTest15MemoryOutStreamE
 11172              		.section	.rodata._ZTSN8UnitTest15MemoryOutStreamE,"aG",@progbits,_ZTSN8UnitTest15MemoryOutStreamE,
 11173              		.align 16
 11176              	_ZTSN8UnitTest15MemoryOutStreamE:
 11177 0000 4E38556E 		.string	"N8UnitTest15MemoryOutStreamE"
 11177      69745465 
 11177      73743135 
 11177      4D656D6F 
 11177      72794F75 
 11178              		.weak	_ZTIN8UnitTest15MemoryOutStreamE
 11179              		.section	.rodata._ZTIN8UnitTest15MemoryOutStreamE,"aG",@progbits,_ZTIN8UnitTest15MemoryOutStreamE,
 11180              		.align 16
 11183              	_ZTIN8UnitTest15MemoryOutStreamE:
 11184 0000 00000000 		.quad	_ZTVN10__cxxabiv120__si_class_type_infoE+16
 11184      00000000 
 11185 0008 00000000 		.quad	_ZTSN8UnitTest15MemoryOutStreamE
 11185      00000000 
 11186 0010 00000000 		.quad	_ZTISt19basic_ostringstreamIcSt11char_traitsIcESaIcEE
 11186      00000000 
 11187              		.text
 11189              	_Z41__static_initialization_and_destruction_0ii:
 11190              	.LFB1343:
 11191              		.loc 6 208 0
 11192              		.cfi_startproc
 11193 4656 55       		pushq	%rbp
 11194              		.cfi_def_cfa_offset 16
 11195              		.cfi_offset 6, -16
 11196 4657 4889E5   		movq	%rsp, %rbp
 11197              		.cfi_def_cfa_register 6
 11198 465a 4883EC10 		subq	$16, %rsp
 11199 465e 897DFC   		movl	%edi, -4(%rbp)
 11200 4661 8975F8   		movl	%esi, -8(%rbp)
 11201              		.loc 6 208 0
 11202 4664 837DFC01 		cmpl	$1, -4(%rbp)
 11203 4668 0F856204 		jne	.L613
 11203      0000
 11204              		.loc 6 208 0 is_stmt 0 discriminator 1
 11205 466e 817DF8FF 		cmpl	$65535, -8(%rbp)
 11205      FF0000
 11206 4675 0F855504 		jne	.L613
 11206      0000
  14:TestTestMacros.cpp **** TEST_EX(DummyTest, list1)
 11207              		.loc 6 14 0 is_stmt 1
 11208 467b BF000000 		movl	$_ZN12_GLOBAL__N_15list1E, %edi
 11208      00
 11209 4680 E8000000 		call	_ZN8UnitTest8TestListC1Ev
 11209      00
  15:TestTestMacros.cpp **** {
 11210              		.loc 6 15 0
 11211 4685 BF000000 		movl	$_ZN12_GLOBAL__N_121testDummyTestInstanceE, %edi
 11211      00
 11212 468a E871B9FF 		call	_ZN12_GLOBAL__N_113TestDummyTestC1Ev
 11212      FF
 11213 468f BA000000 		movl	$__dso_handle, %edx
 11213      00
 11214 4694 BE000000 		movl	$_ZN12_GLOBAL__N_121testDummyTestInstanceE, %esi
 11214      00
 11215 4699 BF000000 		movl	$_ZN12_GLOBAL__N_113TestDummyTestD1Ev, %edi
 11215      00
 11216 469e E8000000 		call	__cxa_atexit
 11216      00
 11217 46a3 BA000000 		movl	$_ZN12_GLOBAL__N_121testDummyTestInstanceE, %edx
 11217      00
 11218 46a8 BE000000 		movl	$_ZN12_GLOBAL__N_15list1E, %esi
 11218      00
 11219 46ad BF000000 		movl	$_ZN12_GLOBAL__N_114adderDummyTestE, %edi
 11219      00
 11220 46b2 E8000000 		call	_ZN8UnitTest9ListAdderC1ERNS_8TestListEPNS_4TestE
 11220      00
  19:TestTestMacros.cpp **** {
 11221              		.loc 6 19 0
 11222 46b7 BF000000 		movl	$_ZN12_GLOBAL__N_146testTestsAreAddedToTheListThroughMacroInstanceE, %edi
 11222      00
 11223 46bc E887B9FF 		call	_ZN12_GLOBAL__N_138TestTestsAreAddedToTheListThroughMacroC1Ev
 11223      FF
 11224 46c1 BA000000 		movl	$__dso_handle, %edx
 11224      00
 11225 46c6 BE000000 		movl	$_ZN12_GLOBAL__N_146testTestsAreAddedToTheListThroughMacroInstanceE, %esi
 11225      00
 11226 46cb BF000000 		movl	$_ZN12_GLOBAL__N_138TestTestsAreAddedToTheListThroughMacroD1Ev, %edi
 11226      00
 11227 46d0 E8000000 		call	__cxa_atexit
 11227      00
 11228 46d5 E8000000 		call	_ZN8UnitTest4Test11GetTestListEv
 11228      00
 11229 46da BA000000 		movl	$_ZN12_GLOBAL__N_146testTestsAreAddedToTheListThroughMacroInstanceE, %edx
 11229      00
 11230 46df 4889C6   		movq	%rax, %rsi
 11231 46e2 BF000000 		movl	$_ZN12_GLOBAL__N_139adderTestsAreAddedToTheListThroughMacroE, %edi
 11231      00
 11232 46e7 E8000000 		call	_ZN8UnitTest9ListAdderC1ERNS_8TestListEPNS_4TestE
 11232      00
  36:TestTestMacros.cpp **** TEST_FIXTURE_EX(ThrowingThingie, DummyTestName, list2)
 11233              		.loc 6 36 0
 11234 46ec BF000000 		movl	$_ZN12_GLOBAL__N_15list2E, %edi
 11234      00
 11235 46f1 E8000000 		call	_ZN8UnitTest8TestListC1Ev
 11235      00
  37:TestTestMacros.cpp **** {
 11236              		.loc 6 37 0
 11237 46f6 BF000000 		movl	$_ZN12_GLOBAL__N_140testThrowingThingieDummyTestNameInstanceE, %edi
 11237      00
 11238 46fb E880BBFF 		call	_ZN12_GLOBAL__N_132TestThrowingThingieDummyTestNameC1Ev
 11238      FF
 11239 4700 BA000000 		movl	$__dso_handle, %edx
 11239      00
 11240 4705 BE000000 		movl	$_ZN12_GLOBAL__N_140testThrowingThingieDummyTestNameInstanceE, %esi
 11240      00
 11241 470a BF000000 		movl	$_ZN12_GLOBAL__N_132TestThrowingThingieDummyTestNameD1Ev, %edi
 11241      00
 11242 470f E8000000 		call	__cxa_atexit
 11242      00
 11243 4714 BA000000 		movl	$_ZN12_GLOBAL__N_140testThrowingThingieDummyTestNameInstanceE, %edx
 11243      00
 11244 4719 BE000000 		movl	$_ZN12_GLOBAL__N_15list2E, %esi
 11244      00
 11245 471e BF000000 		movl	$_ZN12_GLOBAL__N_133adderThrowingThingieDummyTestNameE, %edi
 11245      00
 11246 4723 E8000000 		call	_ZN8UnitTest9ListAdderC1ERNS_8TestListEPNS_4TestE
 11246      00
  41:TestTestMacros.cpp **** {
 11247              		.loc 6 41 0
 11248 4728 BF000000 		movl	$_ZN12_GLOBAL__N_165testExceptionsInFixtureAreReportedAsHappeningInTheFixtureInstanceE, %edi
 11248      00
 11249 472d E84CBEFF 		call	_ZN12_GLOBAL__N_157TestExceptionsInFixtureAreReportedAsHappeningInTheFixtureC1Ev
 11249      FF
 11250 4732 BA000000 		movl	$__dso_handle, %edx
 11250      00
 11251 4737 BE000000 		movl	$_ZN12_GLOBAL__N_165testExceptionsInFixtureAreReportedAsHappeningInTheFixtureInstanceE, %esi
 11251      00
 11252 473c BF000000 		movl	$_ZN12_GLOBAL__N_157TestExceptionsInFixtureAreReportedAsHappeningInTheFixtureD1Ev, %edi
 11252      00
 11253 4741 E8000000 		call	__cxa_atexit
 11253      00
 11254 4746 E8000000 		call	_ZN8UnitTest4Test11GetTestListEv
 11254      00
 11255 474b BA000000 		movl	$_ZN12_GLOBAL__N_165testExceptionsInFixtureAreReportedAsHappeningInTheFixtureInstanceE, %edx
 11255      00
 11256 4750 4889C6   		movq	%rax, %rsi
 11257 4753 BF000000 		movl	$_ZN12_GLOBAL__N_158adderExceptionsInFixtureAreReportedAsHappeningInTheFixtureE, %edi
 11257      00
 11258 4758 E8000000 		call	_ZN8UnitTest9ListAdderC1ERNS_8TestListEPNS_4TestE
 11258      00
  63:TestTestMacros.cpp **** 	{
 11259              		.loc 6 63 0
 11260 475d BF000000 		movl	$_ZN12_GLOBAL__N_115SuiteTestSuite152testSimilarlyNamedTestsInDifferentSuitesWorkInstanceE, %
 11260      00
 11261 4762 E89DC1FF 		call	_ZN12_GLOBAL__N_115SuiteTestSuite144TestSimilarlyNamedTestsInDifferentSuitesWorkC1Ev
 11261      FF
 11262 4767 BA000000 		movl	$__dso_handle, %edx
 11262      00
 11263 476c BE000000 		movl	$_ZN12_GLOBAL__N_115SuiteTestSuite152testSimilarlyNamedTestsInDifferentSuitesWorkInstanceE, %
 11263      00
 11264 4771 BF000000 		movl	$_ZN12_GLOBAL__N_115SuiteTestSuite144TestSimilarlyNamedTestsInDifferentSuitesWorkD1Ev, %edi
 11264      00
 11265 4776 E8000000 		call	__cxa_atexit
 11265      00
 11266 477b E8000000 		call	_ZN8UnitTest4Test11GetTestListEv
 11266      00
 11267 4780 BA000000 		movl	$_ZN12_GLOBAL__N_115SuiteTestSuite152testSimilarlyNamedTestsInDifferentSuitesWorkInstanceE, %
 11267      00
 11268 4785 4889C6   		movq	%rax, %rsi
 11269 4788 BF000000 		movl	$_ZN12_GLOBAL__N_115SuiteTestSuite145adderSimilarlyNamedTestsInDifferentSuitesWorkE, %edi
 11269      00
 11270 478d E8000000 		call	_ZN8UnitTest9ListAdderC1ERNS_8TestListEPNS_4TestE
 11270      00
  67:TestTestMacros.cpp **** 	{
 11271              		.loc 6 67 0
 11272 4792 BF000000 		movl	$_ZN12_GLOBAL__N_115SuiteTestSuite171testDummyFixtureSimilarlyNamedFixtureTestsInDifferentSui
 11272      00
 11273 4797 E8E4C1FF 		call	_ZN12_GLOBAL__N_115SuiteTestSuite163TestDummyFixtureSimilarlyNamedFixtureTestsInDifferentSuit
 11273      FF
 11274 479c BA000000 		movl	$__dso_handle, %edx
 11274      00
 11275 47a1 BE000000 		movl	$_ZN12_GLOBAL__N_115SuiteTestSuite171testDummyFixtureSimilarlyNamedFixtureTestsInDifferentSui
 11275      00
 11276 47a6 BF000000 		movl	$_ZN12_GLOBAL__N_115SuiteTestSuite163TestDummyFixtureSimilarlyNamedFixtureTestsInDifferentSui
 11276      00
 11277 47ab E8000000 		call	__cxa_atexit
 11277      00
 11278 47b0 E8000000 		call	_ZN8UnitTest4Test11GetTestListEv
 11278      00
 11279 47b5 BA000000 		movl	$_ZN12_GLOBAL__N_115SuiteTestSuite171testDummyFixtureSimilarlyNamedFixtureTestsInDifferentSui
 11279      00
 11280 47ba 4889C6   		movq	%rax, %rsi
 11281 47bd BF000000 		movl	$_ZN12_GLOBAL__N_115SuiteTestSuite164adderDummyFixtureSimilarlyNamedFixtureTestsInDifferentSu
 11281      00
 11282 47c2 E8000000 		call	_ZN8UnitTest9ListAdderC1ERNS_8TestListEPNS_4TestE
 11282      00
  74:TestTestMacros.cpp **** 	{
 11283              		.loc 6 74 0
 11284 47c7 BF000000 		movl	$_ZN12_GLOBAL__N_115SuiteTestSuite252testSimilarlyNamedTestsInDifferentSuitesWorkInstanceE, %
 11284      00
 11285 47cc E8B9C4FF 		call	_ZN12_GLOBAL__N_115SuiteTestSuite244TestSimilarlyNamedTestsInDifferentSuitesWorkC1Ev
 11285      FF
 11286 47d1 BA000000 		movl	$__dso_handle, %edx
 11286      00
 11287 47d6 BE000000 		movl	$_ZN12_GLOBAL__N_115SuiteTestSuite252testSimilarlyNamedTestsInDifferentSuitesWorkInstanceE, %
 11287      00
 11288 47db BF000000 		movl	$_ZN12_GLOBAL__N_115SuiteTestSuite244TestSimilarlyNamedTestsInDifferentSuitesWorkD1Ev, %edi
 11288      00
 11289 47e0 E8000000 		call	__cxa_atexit
 11289      00
 11290 47e5 E8000000 		call	_ZN8UnitTest4Test11GetTestListEv
 11290      00
 11291 47ea BA000000 		movl	$_ZN12_GLOBAL__N_115SuiteTestSuite252testSimilarlyNamedTestsInDifferentSuitesWorkInstanceE, %
 11291      00
 11292 47ef 4889C6   		movq	%rax, %rsi
 11293 47f2 BF000000 		movl	$_ZN12_GLOBAL__N_115SuiteTestSuite245adderSimilarlyNamedTestsInDifferentSuitesWorkE, %edi
 11293      00
 11294 47f7 E8000000 		call	_ZN8UnitTest9ListAdderC1ERNS_8TestListEPNS_4TestE
 11294      00
  78:TestTestMacros.cpp **** 	{
 11295              		.loc 6 78 0
 11296 47fc BF000000 		movl	$_ZN12_GLOBAL__N_115SuiteTestSuite271testDummyFixtureSimilarlyNamedFixtureTestsInDifferentSui
 11296      00
 11297 4801 E8F6C4FF 		call	_ZN12_GLOBAL__N_115SuiteTestSuite263TestDummyFixtureSimilarlyNamedFixtureTestsInDifferentSuit
 11297      FF
 11298 4806 BA000000 		movl	$__dso_handle, %edx
 11298      00
 11299 480b BE000000 		movl	$_ZN12_GLOBAL__N_115SuiteTestSuite271testDummyFixtureSimilarlyNamedFixtureTestsInDifferentSui
 11299      00
 11300 4810 BF000000 		movl	$_ZN12_GLOBAL__N_115SuiteTestSuite263TestDummyFixtureSimilarlyNamedFixtureTestsInDifferentSui
 11300      00
 11301 4815 E8000000 		call	__cxa_atexit
 11301      00
 11302 481a E8000000 		call	_ZN8UnitTest4Test11GetTestListEv
 11302      00
 11303 481f BA000000 		movl	$_ZN12_GLOBAL__N_115SuiteTestSuite271testDummyFixtureSimilarlyNamedFixtureTestsInDifferentSui
 11303      00
 11304 4824 4889C6   		movq	%rax, %rsi
 11305 4827 BF000000 		movl	$_ZN12_GLOBAL__N_115SuiteTestSuite264adderDummyFixtureSimilarlyNamedFixtureTestsInDifferentSu
 11305      00
 11306 482c E8000000 		call	_ZN8UnitTest9ListAdderC1ERNS_8TestListEPNS_4TestE
 11306      00
  83:TestTestMacros.cpp **** TEST_EX(MacroTestHelper1, macroTestList1)
 11307              		.loc 6 83 0
 11308 4831 BF000000 		movl	$_ZN12_GLOBAL__N_114macroTestList1E, %edi
 11308      00
 11309 4836 E8000000 		call	_ZN8UnitTest8TestListC1Ev
 11309      00
  84:TestTestMacros.cpp **** {
 11310              		.loc 6 84 0
 11311 483b BF000000 		movl	$_ZN12_GLOBAL__N_128testMacroTestHelper1InstanceE, %edi
 11311      00
 11312 4840 E8B5C7FF 		call	_ZN12_GLOBAL__N_120TestMacroTestHelper1C1Ev
 11312      FF
 11313 4845 BA000000 		movl	$__dso_handle, %edx
 11313      00
 11314 484a BE000000 		movl	$_ZN12_GLOBAL__N_128testMacroTestHelper1InstanceE, %esi
 11314      00
 11315 484f BF000000 		movl	$_ZN12_GLOBAL__N_120TestMacroTestHelper1D1Ev, %edi
 11315      00
 11316 4854 E8000000 		call	__cxa_atexit
 11316      00
 11317 4859 BA000000 		movl	$_ZN12_GLOBAL__N_128testMacroTestHelper1InstanceE, %edx
 11317      00
 11318 485e BE000000 		movl	$_ZN12_GLOBAL__N_114macroTestList1E, %esi
 11318      00
 11319 4863 BF000000 		movl	$_ZN12_GLOBAL__N_121adderMacroTestHelper1E, %edi
 11319      00
 11320 4868 E8000000 		call	_ZN8UnitTest9ListAdderC1ERNS_8TestListEPNS_4TestE
 11320      00
  88:TestTestMacros.cpp **** {
 11321              		.loc 6 88 0
 11322 486d BF000000 		movl	$_ZN12_GLOBAL__N_153testTestAddedWithTEST_EXMacroGetsDefaultSuiteInstanceE, %edi
 11322      00
 11323 4872 E8CBC7FF 		call	_ZN12_GLOBAL__N_145TestTestAddedWithTEST_EXMacroGetsDefaultSuiteC1Ev
 11323      FF
 11324 4877 BA000000 		movl	$__dso_handle, %edx
 11324      00
 11325 487c BE000000 		movl	$_ZN12_GLOBAL__N_153testTestAddedWithTEST_EXMacroGetsDefaultSuiteInstanceE, %esi
 11325      00
 11326 4881 BF000000 		movl	$_ZN12_GLOBAL__N_145TestTestAddedWithTEST_EXMacroGetsDefaultSuiteD1Ev, %edi
 11326      00
 11327 4886 E8000000 		call	__cxa_atexit
 11327      00
 11328 488b E8000000 		call	_ZN8UnitTest4Test11GetTestListEv
 11328      00
 11329 4890 BA000000 		movl	$_ZN12_GLOBAL__N_153testTestAddedWithTEST_EXMacroGetsDefaultSuiteInstanceE, %edx
 11329      00
 11330 4895 4889C6   		movq	%rax, %rsi
 11331 4898 BF000000 		movl	$_ZN12_GLOBAL__N_146adderTestAddedWithTEST_EXMacroGetsDefaultSuiteE, %edi
 11331      00
 11332 489d E8000000 		call	_ZN8UnitTest9ListAdderC1ERNS_8TestListEPNS_4TestE
 11332      00
  95:TestTestMacros.cpp **** TEST_FIXTURE_EX(DummyFixture, MacroTestHelper2, macroTestList2)
 11333              		.loc 6 95 0
 11334 48a2 BF000000 		movl	$_ZN12_GLOBAL__N_114macroTestList2E, %edi
 11334      00
 11335 48a7 E8000000 		call	_ZN8UnitTest8TestListC1Ev
 11335      00
  96:TestTestMacros.cpp **** {
 11336              		.loc 6 96 0
 11337 48ac BF000000 		movl	$_ZN12_GLOBAL__N_140testDummyFixtureMacroTestHelper2InstanceE, %edi
 11337      00
 11338 48b1 E80CCAFF 		call	_ZN12_GLOBAL__N_132TestDummyFixtureMacroTestHelper2C1Ev
 11338      FF
 11339 48b6 BA000000 		movl	$__dso_handle, %edx
 11339      00
 11340 48bb BE000000 		movl	$_ZN12_GLOBAL__N_140testDummyFixtureMacroTestHelper2InstanceE, %esi
 11340      00
 11341 48c0 BF000000 		movl	$_ZN12_GLOBAL__N_132TestDummyFixtureMacroTestHelper2D1Ev, %edi
 11341      00
 11342 48c5 E8000000 		call	__cxa_atexit
 11342      00
 11343 48ca BA000000 		movl	$_ZN12_GLOBAL__N_140testDummyFixtureMacroTestHelper2InstanceE, %edx
 11343      00
 11344 48cf BE000000 		movl	$_ZN12_GLOBAL__N_114macroTestList2E, %esi
 11344      00
 11345 48d4 BF000000 		movl	$_ZN12_GLOBAL__N_133adderDummyFixtureMacroTestHelper2E, %edi
 11345      00
 11346 48d9 E8000000 		call	_ZN8UnitTest9ListAdderC1ERNS_8TestListEPNS_4TestE
 11346      00
 100:TestTestMacros.cpp **** {
 11347              		.loc 6 100 0
 11348 48de BF000000 		movl	$_ZN12_GLOBAL__N_161testTestAddedWithTEST_FIXTURE_EXMacroGetsDefaultSuiteInstanceE, %edi
 11348      00
 11349 48e3 E8D8CCFF 		call	_ZN12_GLOBAL__N_153TestTestAddedWithTEST_FIXTURE_EXMacroGetsDefaultSuiteC1Ev
 11349      FF
 11350 48e8 BA000000 		movl	$__dso_handle, %edx
 11350      00
 11351 48ed BE000000 		movl	$_ZN12_GLOBAL__N_161testTestAddedWithTEST_FIXTURE_EXMacroGetsDefaultSuiteInstanceE, %esi
 11351      00
 11352 48f2 BF000000 		movl	$_ZN12_GLOBAL__N_153TestTestAddedWithTEST_FIXTURE_EXMacroGetsDefaultSuiteD1Ev, %edi
 11352      00
 11353 48f7 E8000000 		call	__cxa_atexit
 11353      00
 11354 48fc E8000000 		call	_ZN8UnitTest4Test11GetTestListEv
 11354      00
 11355 4901 BA000000 		movl	$_ZN12_GLOBAL__N_161testTestAddedWithTEST_FIXTURE_EXMacroGetsDefaultSuiteInstanceE, %edx
 11355      00
 11356 4906 4889C6   		movq	%rax, %rsi
 11357 4909 BF000000 		movl	$_ZN12_GLOBAL__N_154adderTestAddedWithTEST_FIXTURE_EXMacroGetsDefaultSuiteE, %edi
 11357      00
 11358 490e E8000000 		call	_ZN8UnitTest9ListAdderC1ERNS_8TestListEPNS_4TestE
 11358      00
 112:TestTestMacros.cpp **** TEST_FIXTURE_EX(FixtureCtorThrows, FixtureCtorThrowsTestName, throwingFixtureTestList1)
 11359              		.loc 6 112 0
 11360 4913 BF000000 		movl	$_ZN12_GLOBAL__N_124throwingFixtureTestList1E, %edi
 11360      00
 11361 4918 E8000000 		call	_ZN8UnitTest8TestListC1Ev
 11361      00
 113:TestTestMacros.cpp **** {
 11362              		.loc 6 113 0
 11363 491d BF000000 		movl	$_ZN12_GLOBAL__N_154testFixtureCtorThrowsFixtureCtorThrowsTestNameInstanceE, %edi
 11363      00
 11364 4922 E849CFFF 		call	_ZN12_GLOBAL__N_146TestFixtureCtorThrowsFixtureCtorThrowsTestNameC1Ev
 11364      FF
 11365 4927 BA000000 		movl	$__dso_handle, %edx
 11365      00
 11366 492c BE000000 		movl	$_ZN12_GLOBAL__N_154testFixtureCtorThrowsFixtureCtorThrowsTestNameInstanceE, %esi
 11366      00
 11367 4931 BF000000 		movl	$_ZN12_GLOBAL__N_146TestFixtureCtorThrowsFixtureCtorThrowsTestNameD1Ev, %edi
 11367      00
 11368 4936 E8000000 		call	__cxa_atexit
 11368      00
 11369 493b BA000000 		movl	$_ZN12_GLOBAL__N_154testFixtureCtorThrowsFixtureCtorThrowsTestNameInstanceE, %edx
 11369      00
 11370 4940 BE000000 		movl	$_ZN12_GLOBAL__N_124throwingFixtureTestList1E, %esi
 11370      00
 11371 4945 BF000000 		movl	$_ZN12_GLOBAL__N_147adderFixtureCtorThrowsFixtureCtorThrowsTestNameE, %edi
 11371      00
 11372 494a E8000000 		call	_ZN8UnitTest9ListAdderC1ERNS_8TestListEPNS_4TestE
 11372      00
 117:TestTestMacros.cpp **** {
 11373              		.loc 6 117 0
 11374 494f BF000000 		movl	$_ZN12_GLOBAL__N_148testFixturesWithThrowingCtorsAreFailuresInstanceE, %edi
 11374      00
 11375 4954 E815D2FF 		call	_ZN12_GLOBAL__N_140TestFixturesWithThrowingCtorsAreFailuresC1Ev
 11375      FF
 11376 4959 BA000000 		movl	$__dso_handle, %edx
 11376      00
 11377 495e BE000000 		movl	$_ZN12_GLOBAL__N_148testFixturesWithThrowingCtorsAreFailuresInstanceE, %esi
 11377      00
 11378 4963 BF000000 		movl	$_ZN12_GLOBAL__N_140TestFixturesWithThrowingCtorsAreFailuresD1Ev, %edi
 11378      00
 11379 4968 E8000000 		call	__cxa_atexit
 11379      00
 11380 496d E8000000 		call	_ZN8UnitTest4Test11GetTestListEv
 11380      00
 11381 4972 BA000000 		movl	$_ZN12_GLOBAL__N_148testFixturesWithThrowingCtorsAreFailuresInstanceE, %edx
 11381      00
 11382 4977 4889C6   		movq	%rax, %rsi
 11383 497a BF000000 		movl	$_ZN12_GLOBAL__N_141adderFixturesWithThrowingCtorsAreFailuresE, %edi
 11383      00
 11384 497f E8000000 		call	_ZN8UnitTest9ListAdderC1ERNS_8TestListEPNS_4TestE
 11384      00
 137:TestTestMacros.cpp **** TEST_FIXTURE_EX(FixtureDtorThrows, FixtureDtorThrowsTestName, throwingFixtureTestList2)
 11385              		.loc 6 137 0
 11386 4984 BF000000 		movl	$_ZN12_GLOBAL__N_124throwingFixtureTestList2E, %edi
 11386      00
 11387 4989 E8000000 		call	_ZN8UnitTest8TestListC1Ev
 11387      00
 138:TestTestMacros.cpp **** {
 11388              		.loc 6 138 0
 11389 498e BF000000 		movl	$_ZN12_GLOBAL__N_154testFixtureDtorThrowsFixtureDtorThrowsTestNameInstanceE, %edi
 11389      00
 11390 4993 E8AED5FF 		call	_ZN12_GLOBAL__N_146TestFixtureDtorThrowsFixtureDtorThrowsTestNameC1Ev
 11390      FF
 11391 4998 BA000000 		movl	$__dso_handle, %edx
 11391      00
 11392 499d BE000000 		movl	$_ZN12_GLOBAL__N_154testFixtureDtorThrowsFixtureDtorThrowsTestNameInstanceE, %esi
 11392      00
 11393 49a2 BF000000 		movl	$_ZN12_GLOBAL__N_146TestFixtureDtorThrowsFixtureDtorThrowsTestNameD1Ev, %edi
 11393      00
 11394 49a7 E8000000 		call	__cxa_atexit
 11394      00
 11395 49ac BA000000 		movl	$_ZN12_GLOBAL__N_154testFixtureDtorThrowsFixtureDtorThrowsTestNameInstanceE, %edx
 11395      00
 11396 49b1 BE000000 		movl	$_ZN12_GLOBAL__N_124throwingFixtureTestList2E, %esi
 11396      00
 11397 49b6 BF000000 		movl	$_ZN12_GLOBAL__N_147adderFixtureDtorThrowsFixtureDtorThrowsTestNameE, %edi
 11397      00
 11398 49bb E8000000 		call	_ZN8UnitTest9ListAdderC1ERNS_8TestListEPNS_4TestE
 11398      00
 142:TestTestMacros.cpp **** {
 11399              		.loc 6 142 0
 11400 49c0 BF000000 		movl	$_ZN12_GLOBAL__N_148testFixturesWithThrowingDtorsAreFailuresInstanceE, %edi
 11400      00
 11401 49c5 E8C0D8FF 		call	_ZN12_GLOBAL__N_140TestFixturesWithThrowingDtorsAreFailuresC1Ev
 11401      FF
 11402 49ca BA000000 		movl	$__dso_handle, %edx
 11402      00
 11403 49cf BE000000 		movl	$_ZN12_GLOBAL__N_148testFixturesWithThrowingDtorsAreFailuresInstanceE, %esi
 11403      00
 11404 49d4 BF000000 		movl	$_ZN12_GLOBAL__N_140TestFixturesWithThrowingDtorsAreFailuresD1Ev, %edi
 11404      00
 11405 49d9 E8000000 		call	__cxa_atexit
 11405      00
 11406 49de E8000000 		call	_ZN8UnitTest4Test11GetTestListEv
 11406      00
 11407 49e3 BA000000 		movl	$_ZN12_GLOBAL__N_148testFixturesWithThrowingDtorsAreFailuresInstanceE, %edx
 11407      00
 11408 49e8 4889C6   		movq	%rax, %rsi
 11409 49eb BF000000 		movl	$_ZN12_GLOBAL__N_141adderFixturesWithThrowingDtorsAreFailuresE, %edi
 11409      00
 11410 49f0 E8000000 		call	_ZN8UnitTest9ListAdderC1ERNS_8TestListEPNS_4TestE
 11410      00
 168:TestTestMacros.cpp **** TEST_FIXTURE_EX(FixtureCtorAsserts, CorrectlyReportsAssertFailureInCtor, ctorAssertFixtureTestList)
 11411              		.loc 6 168 0
 11412 49f5 BF000000 		movl	$_ZN12_GLOBAL__N_125ctorAssertFixtureTestListE, %edi
 11412      00
 11413 49fa E8000000 		call	_ZN8UnitTest8TestListC1Ev
 11413      00
 169:TestTestMacros.cpp **** {
 11414              		.loc 6 169 0
 11415 49ff BF000000 		movl	$_ZN12_GLOBAL__N_165testFixtureCtorAssertsCorrectlyReportsAssertFailureInCtorInstanceE, %edi
 11415      00
 11416 4a04 E841DCFF 		call	_ZN12_GLOBAL__N_157TestFixtureCtorAssertsCorrectlyReportsAssertFailureInCtorC1Ev
 11416      FF
 11417 4a09 BA000000 		movl	$__dso_handle, %edx
 11417      00
 11418 4a0e BE000000 		movl	$_ZN12_GLOBAL__N_165testFixtureCtorAssertsCorrectlyReportsAssertFailureInCtorInstanceE, %esi
 11418      00
 11419 4a13 BF000000 		movl	$_ZN12_GLOBAL__N_157TestFixtureCtorAssertsCorrectlyReportsAssertFailureInCtorD1Ev, %edi
 11419      00
 11420 4a18 E8000000 		call	__cxa_atexit
 11420      00
 11421 4a1d BA000000 		movl	$_ZN12_GLOBAL__N_165testFixtureCtorAssertsCorrectlyReportsAssertFailureInCtorInstanceE, %edx
 11421      00
 11422 4a22 BE000000 		movl	$_ZN12_GLOBAL__N_125ctorAssertFixtureTestListE, %esi
 11422      00
 11423 4a27 BF000000 		movl	$_ZN12_GLOBAL__N_158adderFixtureCtorAssertsCorrectlyReportsAssertFailureInCtorE, %edi
 11423      00
 11424 4a2c E8000000 		call	_ZN8UnitTest9ListAdderC1ERNS_8TestListEPNS_4TestE
 11424      00
 173:TestTestMacros.cpp **** {
 11425              		.loc 6 173 0
 11426 4a31 BF000000 		movl	$_ZN12_GLOBAL__N_155testCorrectlyReportsFixturesWithCtorsThatAssertInstanceE, %edi
 11426      00
 11427 4a36 E80DDFFF 		call	_ZN12_GLOBAL__N_147TestCorrectlyReportsFixturesWithCtorsThatAssertC1Ev
 11427      FF
 11428 4a3b BA000000 		movl	$__dso_handle, %edx
 11428      00
 11429 4a40 BE000000 		movl	$_ZN12_GLOBAL__N_155testCorrectlyReportsFixturesWithCtorsThatAssertInstanceE, %esi
 11429      00
 11430 4a45 BF000000 		movl	$_ZN12_GLOBAL__N_147TestCorrectlyReportsFixturesWithCtorsThatAssertD1Ev, %edi
 11430      00
 11431 4a4a E8000000 		call	__cxa_atexit
 11431      00
 11432 4a4f E8000000 		call	_ZN8UnitTest4Test11GetTestListEv
 11432      00
 11433 4a54 BA000000 		movl	$_ZN12_GLOBAL__N_155testCorrectlyReportsFixturesWithCtorsThatAssertInstanceE, %edx
 11433      00
 11434 4a59 4889C6   		movq	%rax, %rsi
 11435 4a5c BF000000 		movl	$_ZN12_GLOBAL__N_148adderCorrectlyReportsFixturesWithCtorsThatAssertE, %edi
 11435      00
 11436 4a61 E8000000 		call	_ZN8UnitTest9ListAdderC1ERNS_8TestListEPNS_4TestE
 11436      00
 195:TestTestMacros.cpp **** 	{
 11437              		.loc 6 195 0
 11438 4a66 BF000000 		movl	$_ZN18SuiteSameTestSuite22testDummyTest1InstanceE, %edi
 11438      00
 11439 4a6b E8000000 		call	_ZN18SuiteSameTestSuite14TestDummyTest1C1Ev
 11439      00
 11440 4a70 BA000000 		movl	$__dso_handle, %edx
 11440      00
 11441 4a75 BE000000 		movl	$_ZN18SuiteSameTestSuite22testDummyTest1InstanceE, %esi
 11441      00
 11442 4a7a BF000000 		movl	$_ZN18SuiteSameTestSuite14TestDummyTest1D1Ev, %edi
 11442      00
 11443 4a7f E8000000 		call	__cxa_atexit
 11443      00
 11444 4a84 E8000000 		call	_ZN8UnitTest4Test11GetTestListEv
 11444      00
 11445 4a89 BA000000 		movl	$_ZN18SuiteSameTestSuite22testDummyTest1InstanceE, %edx
 11445      00
 11446 4a8e 4889C6   		movq	%rax, %rsi
 11447 4a91 BF000000 		movl	$_ZN18SuiteSameTestSuite15adderDummyTest1E, %edi
 11447      00
 11448 4a96 E8000000 		call	_ZN8UnitTest9ListAdderC1ERNS_8TestListEPNS_4TestE
 11448      00
 204:TestTestMacros.cpp **** {
 11449              		.loc 6 204 0
 11450 4a9b BF000000 		movl	$testCurrentTestDetailsContainCurrentTestInfoInstance, %edi
 11450      00
 11451 4aa0 E8000000 		call	_ZN44TestCurrentTestDetailsContainCurrentTestInfoC1Ev
 11451      00
 11452 4aa5 BA000000 		movl	$__dso_handle, %edx
 11452      00
 11453 4aaa BE000000 		movl	$testCurrentTestDetailsContainCurrentTestInfoInstance, %esi
 11453      00
 11454 4aaf BF000000 		movl	$_ZN44TestCurrentTestDetailsContainCurrentTestInfoD1Ev, %edi
 11454      00
 11455 4ab4 E8000000 		call	__cxa_atexit
 11455      00
 11456 4ab9 E8000000 		call	_ZN8UnitTest4Test11GetTestListEv
 11456      00
 11457 4abe BA000000 		movl	$testCurrentTestDetailsContainCurrentTestInfoInstance, %edx
 11457      00
 11458 4ac3 4889C6   		movq	%rax, %rsi
 11459 4ac6 BF000000 		movl	$adderCurrentTestDetailsContainCurrentTestInfo, %edi
 11459      00
 11460 4acb E8000000 		call	_ZN8UnitTest9ListAdderC1ERNS_8TestListEPNS_4TestE
 11460      00
 11461              	.L613:
 11462              		.loc 6 208 0
 11463 4ad0 C9       		leave
 11464              		.cfi_def_cfa 7, 8
 11465 4ad1 C3       		ret
 11466              		.cfi_endproc
 11467              	.LFE1343:
 11469              		.section	.rodata
 11470 1308 00000000 		.align 16
 11470      00000000 
 11473              	_ZTIN12_GLOBAL__N_113TestDummyTestE:
 11474 1310 00000000 		.quad	_ZTVN10__cxxabiv120__si_class_type_infoE+16
 11474      00000000 
 11475 1318 00000000 		.quad	_ZTSN12_GLOBAL__N_113TestDummyTestE
 11475      00000000 
 11476 1320 00000000 		.quad	_ZTIN8UnitTest4TestE
 11476      00000000 
 11477 1328 00000000 		.align 16
 11477      00000000 
 11480              	_ZTIN12_GLOBAL__N_138TestTestsAreAddedToTheListThroughMacroE:
 11481 1330 00000000 		.quad	_ZTVN10__cxxabiv120__si_class_type_infoE+16
 11481      00000000 
 11482 1338 00000000 		.quad	_ZTSN12_GLOBAL__N_138TestTestsAreAddedToTheListThroughMacroE
 11482      00000000 
 11483 1340 00000000 		.quad	_ZTIN8UnitTest4TestE
 11483      00000000 
 11484 1348 00000000 		.align 16
 11484      00000000 
 11487              	_ZTIN12_GLOBAL__N_132TestThrowingThingieDummyTestNameE:
 11488 1350 00000000 		.quad	_ZTVN10__cxxabiv120__si_class_type_infoE+16
 11488      00000000 
 11489 1358 00000000 		.quad	_ZTSN12_GLOBAL__N_132TestThrowingThingieDummyTestNameE
 11489      00000000 
 11490 1360 00000000 		.quad	_ZTIN8UnitTest4TestE
 11490      00000000 
 11491 1368 00000000 		.align 16
 11491      00000000 
 11494              	_ZTIN12_GLOBAL__N_157TestExceptionsInFixtureAreReportedAsHappeningInTheFixtureE:
 11495 1370 00000000 		.quad	_ZTVN10__cxxabiv120__si_class_type_infoE+16
 11495      00000000 
 11496 1378 00000000 		.quad	_ZTSN12_GLOBAL__N_157TestExceptionsInFixtureAreReportedAsHappeningInTheFixtureE
 11496      00000000 
 11497 1380 00000000 		.quad	_ZTIN8UnitTest4TestE
 11497      00000000 
 11498 1388 00000000 		.align 16
 11498      00000000 
 11501              	_ZTIN12_GLOBAL__N_115SuiteTestSuite144TestSimilarlyNamedTestsInDifferentSuitesWorkE:
 11502 1390 00000000 		.quad	_ZTVN10__cxxabiv120__si_class_type_infoE+16
 11502      00000000 
 11503 1398 00000000 		.quad	_ZTSN12_GLOBAL__N_115SuiteTestSuite144TestSimilarlyNamedTestsInDifferentSuitesWorkE
 11503      00000000 
 11504 13a0 00000000 		.quad	_ZTIN8UnitTest4TestE
 11504      00000000 
 11505 13a8 00000000 		.align 16
 11505      00000000 
 11508              	_ZTIN12_GLOBAL__N_115SuiteTestSuite163TestDummyFixtureSimilarlyNamedFixtureTestsInDifferentSuitesWo
 11509 13b0 00000000 		.quad	_ZTVN10__cxxabiv120__si_class_type_infoE+16
 11509      00000000 
 11510 13b8 00000000 		.quad	_ZTSN12_GLOBAL__N_115SuiteTestSuite163TestDummyFixtureSimilarlyNamedFixtureTestsInDifferentS
 11510      00000000 
 11511 13c0 00000000 		.quad	_ZTIN8UnitTest4TestE
 11511      00000000 
 11512 13c8 00000000 		.align 16
 11512      00000000 
 11515              	_ZTIN12_GLOBAL__N_115SuiteTestSuite244TestSimilarlyNamedTestsInDifferentSuitesWorkE:
 11516 13d0 00000000 		.quad	_ZTVN10__cxxabiv120__si_class_type_infoE+16
 11516      00000000 
 11517 13d8 00000000 		.quad	_ZTSN12_GLOBAL__N_115SuiteTestSuite244TestSimilarlyNamedTestsInDifferentSuitesWorkE
 11517      00000000 
 11518 13e0 00000000 		.quad	_ZTIN8UnitTest4TestE
 11518      00000000 
 11519 13e8 00000000 		.align 16
 11519      00000000 
 11522              	_ZTIN12_GLOBAL__N_115SuiteTestSuite263TestDummyFixtureSimilarlyNamedFixtureTestsInDifferentSuitesWo
 11523 13f0 00000000 		.quad	_ZTVN10__cxxabiv120__si_class_type_infoE+16
 11523      00000000 
 11524 13f8 00000000 		.quad	_ZTSN12_GLOBAL__N_115SuiteTestSuite263TestDummyFixtureSimilarlyNamedFixtureTestsInDifferentS
 11524      00000000 
 11525 1400 00000000 		.quad	_ZTIN8UnitTest4TestE
 11525      00000000 
 11526 1408 00000000 		.align 16
 11526      00000000 
 11529              	_ZTIN12_GLOBAL__N_120TestMacroTestHelper1E:
 11530 1410 00000000 		.quad	_ZTVN10__cxxabiv120__si_class_type_infoE+16
 11530      00000000 
 11531 1418 00000000 		.quad	_ZTSN12_GLOBAL__N_120TestMacroTestHelper1E
 11531      00000000 
 11532 1420 00000000 		.quad	_ZTIN8UnitTest4TestE
 11532      00000000 
 11533 1428 00000000 		.align 16
 11533      00000000 
 11536              	_ZTIN12_GLOBAL__N_145TestTestAddedWithTEST_EXMacroGetsDefaultSuiteE:
 11537 1430 00000000 		.quad	_ZTVN10__cxxabiv120__si_class_type_infoE+16
 11537      00000000 
 11538 1438 00000000 		.quad	_ZTSN12_GLOBAL__N_145TestTestAddedWithTEST_EXMacroGetsDefaultSuiteE
 11538      00000000 
 11539 1440 00000000 		.quad	_ZTIN8UnitTest4TestE
 11539      00000000 
 11540 1448 00000000 		.align 16
 11540      00000000 
 11543              	_ZTIN12_GLOBAL__N_132TestDummyFixtureMacroTestHelper2E:
 11544 1450 00000000 		.quad	_ZTVN10__cxxabiv120__si_class_type_infoE+16
 11544      00000000 
 11545 1458 00000000 		.quad	_ZTSN12_GLOBAL__N_132TestDummyFixtureMacroTestHelper2E
 11545      00000000 
 11546 1460 00000000 		.quad	_ZTIN8UnitTest4TestE
 11546      00000000 
 11547 1468 00000000 		.align 16
 11547      00000000 
 11550              	_ZTIN12_GLOBAL__N_153TestTestAddedWithTEST_FIXTURE_EXMacroGetsDefaultSuiteE:
 11551 1470 00000000 		.quad	_ZTVN10__cxxabiv120__si_class_type_infoE+16
 11551      00000000 
 11552 1478 00000000 		.quad	_ZTSN12_GLOBAL__N_153TestTestAddedWithTEST_FIXTURE_EXMacroGetsDefaultSuiteE
 11552      00000000 
 11553 1480 00000000 		.quad	_ZTIN8UnitTest4TestE
 11553      00000000 
 11554 1488 00000000 		.align 16
 11554      00000000 
 11557              	_ZTIN12_GLOBAL__N_146TestFixtureCtorThrowsFixtureCtorThrowsTestNameE:
 11558 1490 00000000 		.quad	_ZTVN10__cxxabiv120__si_class_type_infoE+16
 11558      00000000 
 11559 1498 00000000 		.quad	_ZTSN12_GLOBAL__N_146TestFixtureCtorThrowsFixtureCtorThrowsTestNameE
 11559      00000000 
 11560 14a0 00000000 		.quad	_ZTIN8UnitTest4TestE
 11560      00000000 
 11561 14a8 00000000 		.align 16
 11561      00000000 
 11564              	_ZTIN12_GLOBAL__N_140TestFixturesWithThrowingCtorsAreFailuresE:
 11565 14b0 00000000 		.quad	_ZTVN10__cxxabiv120__si_class_type_infoE+16
 11565      00000000 
 11566 14b8 00000000 		.quad	_ZTSN12_GLOBAL__N_140TestFixturesWithThrowingCtorsAreFailuresE
 11566      00000000 
 11567 14c0 00000000 		.quad	_ZTIN8UnitTest4TestE
 11567      00000000 
 11568 14c8 00000000 		.align 16
 11568      00000000 
 11571              	_ZTIN12_GLOBAL__N_146TestFixtureDtorThrowsFixtureDtorThrowsTestNameE:
 11572 14d0 00000000 		.quad	_ZTVN10__cxxabiv120__si_class_type_infoE+16
 11572      00000000 
 11573 14d8 00000000 		.quad	_ZTSN12_GLOBAL__N_146TestFixtureDtorThrowsFixtureDtorThrowsTestNameE
 11573      00000000 
 11574 14e0 00000000 		.quad	_ZTIN8UnitTest4TestE
 11574      00000000 
 11575 14e8 00000000 		.align 16
 11575      00000000 
 11578              	_ZTIN12_GLOBAL__N_140TestFixturesWithThrowingDtorsAreFailuresE:
 11579 14f0 00000000 		.quad	_ZTVN10__cxxabiv120__si_class_type_infoE+16
 11579      00000000 
 11580 14f8 00000000 		.quad	_ZTSN12_GLOBAL__N_140TestFixturesWithThrowingDtorsAreFailuresE
 11580      00000000 
 11581 1500 00000000 		.quad	_ZTIN8UnitTest4TestE
 11581      00000000 
 11582 1508 00000000 		.align 16
 11582      00000000 
 11585              	_ZTIN12_GLOBAL__N_157TestFixtureCtorAssertsCorrectlyReportsAssertFailureInCtorE:
 11586 1510 00000000 		.quad	_ZTVN10__cxxabiv120__si_class_type_infoE+16
 11586      00000000 
 11587 1518 00000000 		.quad	_ZTSN12_GLOBAL__N_157TestFixtureCtorAssertsCorrectlyReportsAssertFailureInCtorE
 11587      00000000 
 11588 1520 00000000 		.quad	_ZTIN8UnitTest4TestE
 11588      00000000 
 11589 1528 00000000 		.align 16
 11589      00000000 
 11592              	_ZTIN12_GLOBAL__N_147TestCorrectlyReportsFixturesWithCtorsThatAssertE:
 11593 1530 00000000 		.quad	_ZTVN10__cxxabiv120__si_class_type_infoE+16
 11593      00000000 
 11594 1538 00000000 		.quad	_ZTSN12_GLOBAL__N_147TestCorrectlyReportsFixturesWithCtorsThatAssertE
 11594      00000000 
 11595 1540 00000000 		.quad	_ZTIN8UnitTest4TestE
 11595      00000000 
 11596 1548 00000000 		.align 32
 11596      00000000 
 11596      00000000 
 11596      00000000 
 11596      00000000 
 11599              	_ZTSN12_GLOBAL__N_147TestCorrectlyReportsFixturesWithCtorsThatAssertE:
 11600 1560 2A4E3132 		.string	"*N12_GLOBAL__N_147TestCorrectlyReportsFixturesWithCtorsThatAssertE"
 11600      5F474C4F 
 11600      42414C5F 
 11600      5F4E5F31 
 11600      34375465 
 11601 15a3 00000000 		.align 32
 11601      00000000 
 11601      00000000 
 11601      00000000 
 11601      00000000 
 11604              	_ZTSN12_GLOBAL__N_157TestFixtureCtorAssertsCorrectlyReportsAssertFailureInCtorE:
 11605 15c0 2A4E3132 		.string	"*N12_GLOBAL__N_157TestFixtureCtorAssertsCorrectlyReportsAssertFailureInCtorE"
 11605      5F474C4F 
 11605      42414C5F 
 11605      5F4E5F31 
 11605      35375465 
 11606 160d 00000000 		.align 32
 11606      00000000 
 11606      00000000 
 11606      00000000 
 11606      000000
 11609              	_ZTSN12_GLOBAL__N_140TestFixturesWithThrowingDtorsAreFailuresE:
 11610 1620 2A4E3132 		.string	"*N12_GLOBAL__N_140TestFixturesWithThrowingDtorsAreFailuresE"
 11610      5F474C4F 
 11610      42414C5F 
 11610      5F4E5F31 
 11610      34305465 
 11611 165c 00000000 		.align 32
 11614              	_ZTSN12_GLOBAL__N_146TestFixtureDtorThrowsFixtureDtorThrowsTestNameE:
 11615 1660 2A4E3132 		.string	"*N12_GLOBAL__N_146TestFixtureDtorThrowsFixtureDtorThrowsTestNameE"
 11615      5F474C4F 
 11615      42414C5F 
 11615      5F4E5F31 
 11615      34365465 
 11616 16a2 00000000 		.align 32
 11616      00000000 
 11616      00000000 
 11616      00000000 
 11616      00000000 
 11619              	_ZTSN12_GLOBAL__N_140TestFixturesWithThrowingCtorsAreFailuresE:
 11620 16c0 2A4E3132 		.string	"*N12_GLOBAL__N_140TestFixturesWithThrowingCtorsAreFailuresE"
 11620      5F474C4F 
 11620      42414C5F 
 11620      5F4E5F31 
 11620      34305465 
 11621 16fc 00000000 		.align 32
 11624              	_ZTSN12_GLOBAL__N_146TestFixtureCtorThrowsFixtureCtorThrowsTestNameE:
 11625 1700 2A4E3132 		.string	"*N12_GLOBAL__N_146TestFixtureCtorThrowsFixtureCtorThrowsTestNameE"
 11625      5F474C4F 
 11625      42414C5F 
 11625      5F4E5F31 
 11625      34365465 
 11626 1742 00000000 		.align 32
 11626      00000000 
 11626      00000000 
 11626      00000000 
 11626      00000000 
 11629              	_ZTSN12_GLOBAL__N_153TestTestAddedWithTEST_FIXTURE_EXMacroGetsDefaultSuiteE:
 11630 1760 2A4E3132 		.string	"*N12_GLOBAL__N_153TestTestAddedWithTEST_FIXTURE_EXMacroGetsDefaultSuiteE"
 11630      5F474C4F 
 11630      42414C5F 
 11630      5F4E5F31 
 11630      35335465 
 11631 17a9 00000000 		.align 32
 11631      00000000 
 11631      00000000 
 11631      00000000 
 11631      00000000 
 11634              	_ZTSN12_GLOBAL__N_132TestDummyFixtureMacroTestHelper2E:
 11635 17c0 2A4E3132 		.string	"*N12_GLOBAL__N_132TestDummyFixtureMacroTestHelper2E"
 11635      5F474C4F 
 11635      42414C5F 
 11635      5F4E5F31 
 11635      33325465 
 11636 17f4 00000000 		.align 32
 11636      00000000 
 11636      00000000 
 11639              	_ZTSN12_GLOBAL__N_145TestTestAddedWithTEST_EXMacroGetsDefaultSuiteE:
 11640 1800 2A4E3132 		.string	"*N12_GLOBAL__N_145TestTestAddedWithTEST_EXMacroGetsDefaultSuiteE"
 11640      5F474C4F 
 11640      42414C5F 
 11640      5F4E5F31 
 11640      34355465 
 11641 1841 00000000 		.align 32
 11641      00000000 
 11641      00000000 
 11641      00000000 
 11641      00000000 
 11644              	_ZTSN12_GLOBAL__N_120TestMacroTestHelper1E:
 11645 1860 2A4E3132 		.string	"*N12_GLOBAL__N_120TestMacroTestHelper1E"
 11645      5F474C4F 
 11645      42414C5F 
 11645      5F4E5F31 
 11645      32305465 
 11646 1888 00000000 		.align 32
 11646      00000000 
 11646      00000000 
 11646      00000000 
 11646      00000000 
 11649              	_ZTSN12_GLOBAL__N_115SuiteTestSuite263TestDummyFixtureSimilarlyNamedFixtureTestsInDifferentSuitesWo
 11650 18a0 2A4E3132 		.string	"*N12_GLOBAL__N_115SuiteTestSuite263TestDummyFixtureSimilarlyNamedFixtureTestsInDifferentS
 11650      5F474C4F 
 11650      42414C5F 
 11650      5F4E5F31 
 11650      31355375 
 11651 1904 00000000 		.align 32
 11651      00000000 
 11651      00000000 
 11651      00000000 
 11651      00000000 
 11654              	_ZTSN12_GLOBAL__N_115SuiteTestSuite244TestSimilarlyNamedTestsInDifferentSuitesWorkE:
 11655 1920 2A4E3132 		.string	"*N12_GLOBAL__N_115SuiteTestSuite244TestSimilarlyNamedTestsInDifferentSuitesWorkE"
 11655      5F474C4F 
 11655      42414C5F 
 11655      5F4E5F31 
 11655      31355375 
 11656 1971 00000000 		.align 32
 11656      00000000 
 11656      00000000 
 11656      000000
 11659              	_ZTSN12_GLOBAL__N_115SuiteTestSuite163TestDummyFixtureSimilarlyNamedFixtureTestsInDifferentSuitesWo
 11660 1980 2A4E3132 		.string	"*N12_GLOBAL__N_115SuiteTestSuite163TestDummyFixtureSimilarlyNamedFixtureTestsInDifferentS
 11660      5F474C4F 
 11660      42414C5F 
 11660      5F4E5F31 
 11660      31355375 
 11661 19e4 00000000 		.align 32
 11661      00000000 
 11661      00000000 
 11661      00000000 
 11661      00000000 
 11664              	_ZTSN12_GLOBAL__N_115SuiteTestSuite144TestSimilarlyNamedTestsInDifferentSuitesWorkE:
 11665 1a00 2A4E3132 		.string	"*N12_GLOBAL__N_115SuiteTestSuite144TestSimilarlyNamedTestsInDifferentSuitesWorkE"
 11665      5F474C4F 
 11665      42414C5F 
 11665      5F4E5F31 
 11665      31355375 
 11666 1a51 00000000 		.align 32
 11666      00000000 
 11666      00000000 
 11666      000000
 11669              	_ZTSN12_GLOBAL__N_157TestExceptionsInFixtureAreReportedAsHappeningInTheFixtureE:
 11670 1a60 2A4E3132 		.string	"*N12_GLOBAL__N_157TestExceptionsInFixtureAreReportedAsHappeningInTheFixtureE"
 11670      5F474C4F 
 11670      42414C5F 
 11670      5F4E5F31 
 11670      35375465 
 11671 1aad 00000000 		.align 32
 11671      00000000 
 11671      00000000 
 11671      00000000 
 11671      000000
 11674              	_ZTSN12_GLOBAL__N_132TestThrowingThingieDummyTestNameE:
 11675 1ac0 2A4E3132 		.string	"*N12_GLOBAL__N_132TestThrowingThingieDummyTestNameE"
 11675      5F474C4F 
 11675      42414C5F 
 11675      5F4E5F31 
 11675      33325465 
 11676 1af4 00000000 		.align 32
 11676      00000000 
 11676      00000000 
 11679              	_ZTSN12_GLOBAL__N_138TestTestsAreAddedToTheListThroughMacroE:
 11680 1b00 2A4E3132 		.string	"*N12_GLOBAL__N_138TestTestsAreAddedToTheListThroughMacroE"
 11680      5F474C4F 
 11680      42414C5F 
 11680      5F4E5F31 
 11680      33385465 
 11681 1b3a 00000000 		.align 32
 11681      0000
 11684              	_ZTSN12_GLOBAL__N_113TestDummyTestE:
 11685 1b40 2A4E3132 		.string	"*N12_GLOBAL__N_113TestDummyTestE"
 11685      5F474C4F 
 11685      42414C5F 
 11685      5F4E5F31 
 11685      31335465 
 11686 1b61 000000   		.align 4
 11689              	_ZN12_GLOBAL__N_1L11FailingLineE:
 11690 1b64 7B000000 		.long	123
 11691              		.text
 11693              	_GLOBAL__sub_I__ZN18SuiteSameTestSuite22testDummyTest1InstanceE:
 11694              	.LFB1344:
 11695              		.loc 6 208 0
 11696              		.cfi_startproc
 11697 4ad2 55       		pushq	%rbp
 11698              		.cfi_def_cfa_offset 16
 11699              		.cfi_offset 6, -16
 11700 4ad3 4889E5   		movq	%rsp, %rbp
 11701              		.cfi_def_cfa_register 6
 11702              		.loc 6 208 0
 11703 4ad6 BEFFFF00 		movl	$65535, %esi
 11703      00
 11704 4adb BF010000 		movl	$1, %edi
 11704      00
 11705 4ae0 E871FBFF 		call	_Z41__static_initialization_and_destruction_0ii
 11705      FF
 11706 4ae5 5D       		popq	%rbp
 11707              		.cfi_def_cfa 7, 8
 11708 4ae6 C3       		ret
 11709              		.cfi_endproc
 11710              	.LFE1344:
 11712              		.section	.init_array,"aw"
 11713              		.align 8
 11714 0000 00000000 		.quad	_GLOBAL__sub_I__ZN18SuiteSameTestSuite22testDummyTest1InstanceE
 11714      00000000 
 11715              		.section	.rodata
 11716              		.align 8
 11719              	_ZZL18__gthread_active_pvE20__gthread_active_ptr:
 11720 1b68 00000000 		.quad	_ZL28__gthrw___pthread_key_createPjPFvPvE
 11720      00000000 
 11721              		.weakref	_ZL28__gthrw___pthread_key_createPjPFvPvE,__pthread_key_create
 11722              		.align 4
 11723              	.LC1:
 11724 1b70 00000000 		.long	0
 11725              		.text
 11726              	.Letext0:
 11727              		.file 9 "../TestDetails.h"
 11728              		.file 10 "../TestList.h"
 11729              		.file 11 "../TestResults.h"
 11730              		.file 12 "../PosixUtils/SignalTranslator.h"
 11731              		.file 13 "<built-in>"
 11732              		.file 14 "/usr/include/stdio.h"
 11733              		.file 15 "/usr/lib/gcc/x86_64-linux-gnu/4.8/include/stddef.h"
 11734              		.file 16 "/usr/include/wchar.h"
 11735              		.file 17 "/usr/include/c++/4.8/cwchar"
 11736              		.file 18 "/usr/include/c++/4.8/bits/char_traits.h"
 11737              		.file 19 "/usr/include/x86_64-linux-gnu/c++/4.8/bits/c++config.h"
 11738              		.file 20 "/usr/include/c++/4.8/clocale"
 11739              		.file 21 "/usr/include/c++/4.8/bits/allocator.h"
 11740              		.file 22 "/usr/include/c++/4.8/bits/basic_string.h"
 11741              		.file 23 "/usr/include/c++/4.8/bits/basic_string.tcc"
 11742              		.file 24 "/usr/include/c++/4.8/bits/stringfwd.h"
 11743              		.file 25 "/usr/include/c++/4.8/cwctype"
 11744              		.file 26 "/usr/include/c++/4.8/cstring"
 11745              		.file 27 "/usr/include/time.h"
 11746              		.file 28 "/usr/include/c++/4.8/ext/new_allocator.h"
 11747              		.file 29 "/usr/include/c++/4.8/ext/numeric_traits.h"
 11748              		.file 30 "/usr/include/c++/4.8/debug/debug.h"
 11749              		.file 31 "/usr/include/locale.h"
 11750              		.file 32 "/usr/include/x86_64-linux-gnu/bits/types.h"
 11751              		.file 33 "/usr/include/x86_64-linux-gnu/bits/setjmp.h"
 11752              		.file 34 "/usr/include/x86_64-linux-gnu/c++/4.8/bits/atomic_word.h"
 11753              		.file 35 "/usr/include/wctype.h"
 11754              		.file 36 "/usr/include/x86_64-linux-gnu/bits/sigset.h"
 11755              		.file 37 "/usr/include/setjmp.h"
 11756              		.file 38 "/usr/include/x86_64-linux-gnu/bits/siginfo.h"
 11757              		.file 39 "/usr/include/signal.h"
 11758              		.file 40 "/usr/include/x86_64-linux-gnu/bits/sigaction.h"
 11759              		.file 41 "/usr/include/string.h"
DEFINED SYMBOLS
                            *ABS*:0000000000000000 TestTestMacros.cpp
     /tmp/ccwWU2u1.s:10     .text._ZN13UnitTestSuite12GetSuiteNameEv:0000000000000000 _ZN13UnitTestSuite12GetSuiteNameEv
     /tmp/ccwWU2u1.s:33     .text._ZN8UnitTest15MemoryOutStreamC1Ev:0000000000000000 _ZN8UnitTest15MemoryOutStreamC1Ev
     /tmp/ccwWU2u1.s:11082  .rodata._ZTTN8UnitTest15MemoryOutStreamE:0000000000000000 _ZTTN8UnitTest15MemoryOutStreamE
     /tmp/ccwWU2u1.s:10884  .rodata._ZTVN8UnitTest15MemoryOutStreamE:0000000000000000 _ZTVN8UnitTest15MemoryOutStreamE
     /tmp/ccwWU2u1.s:146    .text._ZN8UnitTest12TestReporterC2Ev:0000000000000000 _ZN8UnitTest12TestReporterC2Ev
     /tmp/ccwWU2u1.s:146    .text._ZN8UnitTest12TestReporterC2Ev:0000000000000000 _ZN8UnitTest12TestReporterC1Ev
     /tmp/ccwWU2u1.s:174    .text._ZN17RecordingReporterC2Ev:0000000000000000 _ZN17RecordingReporterC2Ev
     /tmp/ccwWU2u1.s:10802  .rodata._ZTV17RecordingReporter:0000000000000000 _ZTV17RecordingReporter
     /tmp/ccwWU2u1.s:174    .text._ZN17RecordingReporterC2Ev:0000000000000000 _ZN17RecordingReporterC1Ev
     /tmp/ccwWU2u1.s:251    .text._ZN17RecordingReporter15ReportTestStartERKN8UnitTest11TestDetailsE:0000000000000000 _ZN17RecordingReporter15ReportTestStartERKN8UnitTest11TestDetailsE
     /tmp/ccwWU2u1.s:298    .text._ZN17RecordingReporter13ReportFailureERKN8UnitTest11TestDetailsEPKc:0000000000000000 _ZN17RecordingReporter13ReportFailureERKN8UnitTest11TestDetailsEPKc
     /tmp/ccwWU2u1.s:366    .text._ZN17RecordingReporter16ReportTestFinishERKN8UnitTest11TestDetailsEf:0000000000000000 _ZN17RecordingReporter16ReportTestFinishERKN8UnitTest11TestDetailsEf
     /tmp/ccwWU2u1.s:418    .text._ZN17RecordingReporter13ReportSummaryEiiif:0000000000000000 _ZN17RecordingReporter13ReportSummaryEiiif
     /tmp/ccwWU2u1.s:459    .text._ZN17ScopedCurrentTestC2ERN8UnitTest11TestResultsEPKNS0_11TestDetailsE:0000000000000000 _ZN17ScopedCurrentTestC2ERN8UnitTest11TestResultsEPKNS0_11TestDetailsE
     /tmp/ccwWU2u1.s:459    .text._ZN17ScopedCurrentTestC2ERN8UnitTest11TestResultsEPKNS0_11TestDetailsE:0000000000000000 _ZN17ScopedCurrentTestC1ERN8UnitTest11TestResultsEPKNS0_11TestDetailsE
     /tmp/ccwWU2u1.s:510    .text._ZN17ScopedCurrentTestD2Ev:0000000000000000 _ZN17ScopedCurrentTestD2Ev
     /tmp/ccwWU2u1.s:510    .text._ZN17ScopedCurrentTestD2Ev:0000000000000000 _ZN17ScopedCurrentTestD1Ev
     /tmp/ccwWU2u1.s:543    .bss:0000000000000080 _ZN12_GLOBAL__N_15list1E
     /tmp/ccwWU2u1.s:552    .text:0000000000000000 _ZN12_GLOBAL__N_113TestDummyTestC2Ev
     /tmp/ccwWU2u1.s:10727  .rodata:00000000000012e0 _ZTVN12_GLOBAL__N_113TestDummyTestE
     /tmp/ccwWU2u1.s:552    .text:0000000000000000 _ZN12_GLOBAL__N_113TestDummyTestC1Ev
     /tmp/ccwWU2u1.s:585    .bss:00000000000000a0 _ZN12_GLOBAL__N_121testDummyTestInstanceE
     /tmp/ccwWU2u1.s:585    .bss:00000000000000d8 _ZN12_GLOBAL__N_114adderDummyTestE
     /tmp/ccwWU2u1.s:590    .text:000000000000003e _ZNK12_GLOBAL__N_113TestDummyTest7RunImplEv
     /tmp/ccwWU2u1.s:614    .text:0000000000000048 _ZN12_GLOBAL__N_138TestTestsAreAddedToTheListThroughMacroC2Ev
     /tmp/ccwWU2u1.s:10653  .rodata:00000000000012a0 _ZTVN12_GLOBAL__N_138TestTestsAreAddedToTheListThroughMacroE
     /tmp/ccwWU2u1.s:614    .text:0000000000000048 _ZN12_GLOBAL__N_138TestTestsAreAddedToTheListThroughMacroC1Ev
     /tmp/ccwWU2u1.s:646    .bss:00000000000000e0 _ZN12_GLOBAL__N_146testTestsAreAddedToTheListThroughMacroInstanceE
     /tmp/ccwWU2u1.s:646    .bss:0000000000000118 _ZN12_GLOBAL__N_139adderTestsAreAddedToTheListThroughMacroE
     /tmp/ccwWU2u1.s:663    .text:0000000000000086 _ZNK12_GLOBAL__N_138TestTestsAreAddedToTheListThroughMacro7RunImplEv
     /tmp/ccwWU2u1.s:6719   .text._ZN8UnitTest5CheckIbEEbT_:0000000000000000 _ZN8UnitTest5CheckIbEEbT_
     /tmp/ccwWU2u1.s:870    .text:0000000000000210 _ZN12_GLOBAL__N_115ThrowingThingieC2Ev
     /tmp/ccwWU2u1.s:909    .bss:0000000000000120 _ZN12_GLOBAL__N_15list2E
     /tmp/ccwWU2u1.s:912    .text:0000000000000256 _ZN12_GLOBAL__N_134ThrowingThingieDummyTestNameHelperC2ERKN8UnitTest11TestDetailsE
     /tmp/ccwWU2u1.s:912    .text:0000000000000256 _ZN12_GLOBAL__N_134ThrowingThingieDummyTestNameHelperC1ERKN8UnitTest11TestDetailsE
     /tmp/ccwWU2u1.s:946    .text:0000000000000280 _ZN12_GLOBAL__N_132TestThrowingThingieDummyTestNameC2Ev
     /tmp/ccwWU2u1.s:10579  .rodata:0000000000001260 _ZTVN12_GLOBAL__N_132TestThrowingThingieDummyTestNameE
     /tmp/ccwWU2u1.s:946    .text:0000000000000280 _ZN12_GLOBAL__N_132TestThrowingThingieDummyTestNameC1Ev
     /tmp/ccwWU2u1.s:978    .bss:0000000000000140 _ZN12_GLOBAL__N_140testThrowingThingieDummyTestNameInstanceE
     /tmp/ccwWU2u1.s:978    .bss:0000000000000178 _ZN12_GLOBAL__N_133adderThrowingThingieDummyTestNameE
     /tmp/ccwWU2u1.s:993    .text:00000000000002be _ZNK12_GLOBAL__N_132TestThrowingThingieDummyTestName7RunImplEv
     /tmp/ccwWU2u1.s:6747   .text:0000000000002d6e _ZN8UnitTest11ExecuteTestIN12_GLOBAL__N_134ThrowingThingieDummyTestNameHelperEEEvRT_RKNS_11TestDetailsE
     /tmp/ccwWU2u1.s:10899  .text._ZN8UnitTest15MemoryOutStreamD1Ev:0000000000000000 _ZN8UnitTest15MemoryOutStreamD1Ev
     /tmp/ccwWU2u1.s:1301   .text:0000000000000574 _ZN12_GLOBAL__N_134ThrowingThingieDummyTestNameHelper7RunImplEv
     /tmp/ccwWU2u1.s:1325   .text:000000000000057e _ZN12_GLOBAL__N_157TestExceptionsInFixtureAreReportedAsHappeningInTheFixtureC2Ev
     /tmp/ccwWU2u1.s:10505  .rodata:0000000000001220 _ZTVN12_GLOBAL__N_157TestExceptionsInFixtureAreReportedAsHappeningInTheFixtureE
     /tmp/ccwWU2u1.s:1325   .text:000000000000057e _ZN12_GLOBAL__N_157TestExceptionsInFixtureAreReportedAsHappeningInTheFixtureC1Ev
     /tmp/ccwWU2u1.s:1357   .bss:0000000000000180 _ZN12_GLOBAL__N_165testExceptionsInFixtureAreReportedAsHappeningInTheFixtureInstanceE
     /tmp/ccwWU2u1.s:1357   .bss:00000000000001b8 _ZN12_GLOBAL__N_158adderExceptionsInFixtureAreReportedAsHappeningInTheFixtureE
     /tmp/ccwWU2u1.s:1388   .text:00000000000005bc _ZNK12_GLOBAL__N_157TestExceptionsInFixtureAreReportedAsHappeningInTheFixture7RunImplEv
     /tmp/ccwWU2u1.s:7093   .text._ZN8UnitTest5CheckIPcEEbT_:0000000000000000 _ZN8UnitTest5CheckIPcEEbT_
     /tmp/ccwWU2u1.s:10815  .text._ZN17RecordingReporterD2Ev:0000000000000000 _ZN17RecordingReporterD1Ev
     /tmp/ccwWU2u1.s:1744   .text:00000000000008f8 _ZN12_GLOBAL__N_115SuiteTestSuite113UnitTestSuite12GetSuiteNameEv
     /tmp/ccwWU2u1.s:1768   .text:0000000000000904 _ZN12_GLOBAL__N_115SuiteTestSuite144TestSimilarlyNamedTestsInDifferentSuitesWorkC2Ev
     /tmp/ccwWU2u1.s:10431  .rodata:00000000000011e0 _ZTVN12_GLOBAL__N_115SuiteTestSuite144TestSimilarlyNamedTestsInDifferentSuitesWorkE
     /tmp/ccwWU2u1.s:1768   .text:0000000000000904 _ZN12_GLOBAL__N_115SuiteTestSuite144TestSimilarlyNamedTestsInDifferentSuitesWorkC1Ev
     /tmp/ccwWU2u1.s:1800   .bss:00000000000001c0 _ZN12_GLOBAL__N_115SuiteTestSuite152testSimilarlyNamedTestsInDifferentSuitesWorkInstanceE
     /tmp/ccwWU2u1.s:1800   .bss:00000000000001f8 _ZN12_GLOBAL__N_115SuiteTestSuite145adderSimilarlyNamedTestsInDifferentSuitesWorkE
     /tmp/ccwWU2u1.s:1805   .text:0000000000000942 _ZNK12_GLOBAL__N_115SuiteTestSuite144TestSimilarlyNamedTestsInDifferentSuitesWork7RunImplEv
     /tmp/ccwWU2u1.s:1824   .text:000000000000094c _ZN12_GLOBAL__N_112DummyFixtureC2Ev
     /tmp/ccwWU2u1.s:1843   .text:0000000000000956 _ZN12_GLOBAL__N_115SuiteTestSuite165DummyFixtureSimilarlyNamedFixtureTestsInDifferentSuitesWorkHelperC2ERKN8UnitTest11TestDetailsE
     /tmp/ccwWU2u1.s:1843   .text:0000000000000956 _ZN12_GLOBAL__N_115SuiteTestSuite165DummyFixtureSimilarlyNamedFixtureTestsInDifferentSuitesWorkHelperC1ERKN8UnitTest11TestDetailsE
     /tmp/ccwWU2u1.s:1878   .text:0000000000000980 _ZN12_GLOBAL__N_115SuiteTestSuite163TestDummyFixtureSimilarlyNamedFixtureTestsInDifferentSuitesWorkC2Ev
     /tmp/ccwWU2u1.s:10357  .rodata:00000000000011a0 _ZTVN12_GLOBAL__N_115SuiteTestSuite163TestDummyFixtureSimilarlyNamedFixtureTestsInDifferentSuitesWorkE
     /tmp/ccwWU2u1.s:1878   .text:0000000000000980 _ZN12_GLOBAL__N_115SuiteTestSuite163TestDummyFixtureSimilarlyNamedFixtureTestsInDifferentSuitesWorkC1Ev
     /tmp/ccwWU2u1.s:1910   .bss:0000000000000200 _ZN12_GLOBAL__N_115SuiteTestSuite171testDummyFixtureSimilarlyNamedFixtureTestsInDifferentSuitesWorkInstanceE
     /tmp/ccwWU2u1.s:1910   .bss:0000000000000238 _ZN12_GLOBAL__N_115SuiteTestSuite164adderDummyFixtureSimilarlyNamedFixtureTestsInDifferentSuitesWorkE
     /tmp/ccwWU2u1.s:1923   .text:00000000000009be _ZNK12_GLOBAL__N_115SuiteTestSuite163TestDummyFixtureSimilarlyNamedFixtureTestsInDifferentSuitesWork7RunImplEv
     /tmp/ccwWU2u1.s:7115   .text:0000000000003006 _ZN8UnitTest11ExecuteTestIN12_GLOBAL__N_115SuiteTestSuite165DummyFixtureSimilarlyNamedFixtureTestsInDifferentSuitesWorkHelperEEEvRT_RKNS_11TestDetailsE
     /tmp/ccwWU2u1.s:2229   .text:0000000000000c74 _ZN12_GLOBAL__N_115SuiteTestSuite165DummyFixtureSimilarlyNamedFixtureTestsInDifferentSuitesWorkHelper7RunImplEv
     /tmp/ccwWU2u1.s:2251   .text:0000000000000c7e _ZN12_GLOBAL__N_115SuiteTestSuite213UnitTestSuite12GetSuiteNameEv
     /tmp/ccwWU2u1.s:2270   .text:0000000000000c8a _ZN12_GLOBAL__N_115SuiteTestSuite244TestSimilarlyNamedTestsInDifferentSuitesWorkC2Ev
     /tmp/ccwWU2u1.s:10283  .rodata:0000000000001160 _ZTVN12_GLOBAL__N_115SuiteTestSuite244TestSimilarlyNamedTestsInDifferentSuitesWorkE
     /tmp/ccwWU2u1.s:2270   .text:0000000000000c8a _ZN12_GLOBAL__N_115SuiteTestSuite244TestSimilarlyNamedTestsInDifferentSuitesWorkC1Ev
     /tmp/ccwWU2u1.s:2302   .bss:0000000000000240 _ZN12_GLOBAL__N_115SuiteTestSuite252testSimilarlyNamedTestsInDifferentSuitesWorkInstanceE
     /tmp/ccwWU2u1.s:2302   .bss:0000000000000278 _ZN12_GLOBAL__N_115SuiteTestSuite245adderSimilarlyNamedTestsInDifferentSuitesWorkE
     /tmp/ccwWU2u1.s:2307   .text:0000000000000cc8 _ZNK12_GLOBAL__N_115SuiteTestSuite244TestSimilarlyNamedTestsInDifferentSuitesWork7RunImplEv
     /tmp/ccwWU2u1.s:2326   .text:0000000000000cd2 _ZN12_GLOBAL__N_115SuiteTestSuite265DummyFixtureSimilarlyNamedFixtureTestsInDifferentSuitesWorkHelperC2ERKN8UnitTest11TestDetailsE
     /tmp/ccwWU2u1.s:2326   .text:0000000000000cd2 _ZN12_GLOBAL__N_115SuiteTestSuite265DummyFixtureSimilarlyNamedFixtureTestsInDifferentSuitesWorkHelperC1ERKN8UnitTest11TestDetailsE
     /tmp/ccwWU2u1.s:2356   .text:0000000000000cfc _ZN12_GLOBAL__N_115SuiteTestSuite263TestDummyFixtureSimilarlyNamedFixtureTestsInDifferentSuitesWorkC2Ev
     /tmp/ccwWU2u1.s:10209  .rodata:0000000000001120 _ZTVN12_GLOBAL__N_115SuiteTestSuite263TestDummyFixtureSimilarlyNamedFixtureTestsInDifferentSuitesWorkE
     /tmp/ccwWU2u1.s:2356   .text:0000000000000cfc _ZN12_GLOBAL__N_115SuiteTestSuite263TestDummyFixtureSimilarlyNamedFixtureTestsInDifferentSuitesWorkC1Ev
     /tmp/ccwWU2u1.s:2388   .bss:0000000000000280 _ZN12_GLOBAL__N_115SuiteTestSuite271testDummyFixtureSimilarlyNamedFixtureTestsInDifferentSuitesWorkInstanceE
     /tmp/ccwWU2u1.s:2388   .bss:00000000000002b8 _ZN12_GLOBAL__N_115SuiteTestSuite264adderDummyFixtureSimilarlyNamedFixtureTestsInDifferentSuitesWorkE
     /tmp/ccwWU2u1.s:2393   .text:0000000000000d3a _ZNK12_GLOBAL__N_115SuiteTestSuite263TestDummyFixtureSimilarlyNamedFixtureTestsInDifferentSuitesWork7RunImplEv
     /tmp/ccwWU2u1.s:7458   .text:000000000000329e _ZN8UnitTest11ExecuteTestIN12_GLOBAL__N_115SuiteTestSuite265DummyFixtureSimilarlyNamedFixtureTestsInDifferentSuitesWorkHelperEEEvRT_RKNS_11TestDetailsE
     /tmp/ccwWU2u1.s:2699   .text:0000000000000ff0 _ZN12_GLOBAL__N_115SuiteTestSuite265DummyFixtureSimilarlyNamedFixtureTestsInDifferentSuitesWorkHelper7RunImplEv
     /tmp/ccwWU2u1.s:2717   .bss:00000000000002c0 _ZN12_GLOBAL__N_114macroTestList1E
     /tmp/ccwWU2u1.s:2724   .text:0000000000000ffa _ZN12_GLOBAL__N_120TestMacroTestHelper1C2Ev
     /tmp/ccwWU2u1.s:10135  .rodata:00000000000010e0 _ZTVN12_GLOBAL__N_120TestMacroTestHelper1E
     /tmp/ccwWU2u1.s:2724   .text:0000000000000ffa _ZN12_GLOBAL__N_120TestMacroTestHelper1C1Ev
     /tmp/ccwWU2u1.s:2756   .bss:00000000000002e0 _ZN12_GLOBAL__N_128testMacroTestHelper1InstanceE
     /tmp/ccwWU2u1.s:2756   .bss:0000000000000318 _ZN12_GLOBAL__N_121adderMacroTestHelper1E
     /tmp/ccwWU2u1.s:2761   .text:0000000000001038 _ZNK12_GLOBAL__N_120TestMacroTestHelper17RunImplEv
     /tmp/ccwWU2u1.s:2785   .text:0000000000001042 _ZN12_GLOBAL__N_145TestTestAddedWithTEST_EXMacroGetsDefaultSuiteC2Ev
     /tmp/ccwWU2u1.s:10061  .rodata:00000000000010a0 _ZTVN12_GLOBAL__N_145TestTestAddedWithTEST_EXMacroGetsDefaultSuiteE
     /tmp/ccwWU2u1.s:2785   .text:0000000000001042 _ZN12_GLOBAL__N_145TestTestAddedWithTEST_EXMacroGetsDefaultSuiteC1Ev
     /tmp/ccwWU2u1.s:2817   .bss:0000000000000320 _ZN12_GLOBAL__N_153testTestAddedWithTEST_EXMacroGetsDefaultSuiteInstanceE
     /tmp/ccwWU2u1.s:2817   .bss:0000000000000358 _ZN12_GLOBAL__N_146adderTestAddedWithTEST_EXMacroGetsDefaultSuiteE
     /tmp/ccwWU2u1.s:2836   .text:0000000000001080 _ZNK12_GLOBAL__N_145TestTestAddedWithTEST_EXMacroGetsDefaultSuite7RunImplEv
     /tmp/ccwWU2u1.s:3103   .bss:0000000000000360 _ZN12_GLOBAL__N_114macroTestList2E
     /tmp/ccwWU2u1.s:3106   .text:0000000000001298 _ZN12_GLOBAL__N_134DummyFixtureMacroTestHelper2HelperC2ERKN8UnitTest11TestDetailsE
     /tmp/ccwWU2u1.s:3106   .text:0000000000001298 _ZN12_GLOBAL__N_134DummyFixtureMacroTestHelper2HelperC1ERKN8UnitTest11TestDetailsE
     /tmp/ccwWU2u1.s:3140   .text:00000000000012c2 _ZN12_GLOBAL__N_132TestDummyFixtureMacroTestHelper2C2Ev
     /tmp/ccwWU2u1.s:9987   .rodata:0000000000001060 _ZTVN12_GLOBAL__N_132TestDummyFixtureMacroTestHelper2E
     /tmp/ccwWU2u1.s:3140   .text:00000000000012c2 _ZN12_GLOBAL__N_132TestDummyFixtureMacroTestHelper2C1Ev
     /tmp/ccwWU2u1.s:3172   .bss:0000000000000380 _ZN12_GLOBAL__N_140testDummyFixtureMacroTestHelper2InstanceE
     /tmp/ccwWU2u1.s:3172   .bss:00000000000003b8 _ZN12_GLOBAL__N_133adderDummyFixtureMacroTestHelper2E
     /tmp/ccwWU2u1.s:3177   .text:0000000000001300 _ZNK12_GLOBAL__N_132TestDummyFixtureMacroTestHelper27RunImplEv
     /tmp/ccwWU2u1.s:7801   .text:0000000000003536 _ZN8UnitTest11ExecuteTestIN12_GLOBAL__N_134DummyFixtureMacroTestHelper2HelperEEEvRT_RKNS_11TestDetailsE
     /tmp/ccwWU2u1.s:3483   .text:00000000000015b6 _ZN12_GLOBAL__N_134DummyFixtureMacroTestHelper2Helper7RunImplEv
     /tmp/ccwWU2u1.s:3507   .text:00000000000015c0 _ZN12_GLOBAL__N_153TestTestAddedWithTEST_FIXTURE_EXMacroGetsDefaultSuiteC2Ev
     /tmp/ccwWU2u1.s:9913   .rodata:0000000000001020 _ZTVN12_GLOBAL__N_153TestTestAddedWithTEST_FIXTURE_EXMacroGetsDefaultSuiteE
     /tmp/ccwWU2u1.s:3507   .text:00000000000015c0 _ZN12_GLOBAL__N_153TestTestAddedWithTEST_FIXTURE_EXMacroGetsDefaultSuiteC1Ev
     /tmp/ccwWU2u1.s:3539   .bss:00000000000003c0 _ZN12_GLOBAL__N_161testTestAddedWithTEST_FIXTURE_EXMacroGetsDefaultSuiteInstanceE
     /tmp/ccwWU2u1.s:3539   .bss:00000000000003f8 _ZN12_GLOBAL__N_154adderTestAddedWithTEST_FIXTURE_EXMacroGetsDefaultSuiteE
     /tmp/ccwWU2u1.s:3558   .text:00000000000015fe _ZNK12_GLOBAL__N_153TestTestAddedWithTEST_FIXTURE_EXMacroGetsDefaultSuite7RunImplEv
     /tmp/ccwWU2u1.s:3830   .text:0000000000001816 _ZN12_GLOBAL__N_117FixtureCtorThrowsC2Ev
     /tmp/ccwWU2u1.s:3855   .bss:0000000000000400 _ZN12_GLOBAL__N_124throwingFixtureTestList1E
     /tmp/ccwWU2u1.s:3858   .text:0000000000001846 _ZN12_GLOBAL__N_148FixtureCtorThrowsFixtureCtorThrowsTestNameHelperC2ERKN8UnitTest11TestDetailsE
     /tmp/ccwWU2u1.s:3858   .text:0000000000001846 _ZN12_GLOBAL__N_148FixtureCtorThrowsFixtureCtorThrowsTestNameHelperC1ERKN8UnitTest11TestDetailsE
     /tmp/ccwWU2u1.s:3892   .text:0000000000001870 _ZN12_GLOBAL__N_146TestFixtureCtorThrowsFixtureCtorThrowsTestNameC2Ev
     /tmp/ccwWU2u1.s:9839   .rodata:0000000000000fe0 _ZTVN12_GLOBAL__N_146TestFixtureCtorThrowsFixtureCtorThrowsTestNameE
     /tmp/ccwWU2u1.s:3892   .text:0000000000001870 _ZN12_GLOBAL__N_146TestFixtureCtorThrowsFixtureCtorThrowsTestNameC1Ev
     /tmp/ccwWU2u1.s:3924   .bss:0000000000000420 _ZN12_GLOBAL__N_154testFixtureCtorThrowsFixtureCtorThrowsTestNameInstanceE
     /tmp/ccwWU2u1.s:3924   .bss:0000000000000458 _ZN12_GLOBAL__N_147adderFixtureCtorThrowsFixtureCtorThrowsTestNameE
     /tmp/ccwWU2u1.s:3937   .text:00000000000018ae _ZNK12_GLOBAL__N_146TestFixtureCtorThrowsFixtureCtorThrowsTestName7RunImplEv
     /tmp/ccwWU2u1.s:8144   .text:00000000000037ce _ZN8UnitTest11ExecuteTestIN12_GLOBAL__N_148FixtureCtorThrowsFixtureCtorThrowsTestNameHelperEEEvRT_RKNS_11TestDetailsE
     /tmp/ccwWU2u1.s:4245   .text:0000000000001b64 _ZN12_GLOBAL__N_148FixtureCtorThrowsFixtureCtorThrowsTestNameHelper7RunImplEv
     /tmp/ccwWU2u1.s:4269   .text:0000000000001b6e _ZN12_GLOBAL__N_140TestFixturesWithThrowingCtorsAreFailuresC2Ev
     /tmp/ccwWU2u1.s:9765   .rodata:0000000000000fa0 _ZTVN12_GLOBAL__N_140TestFixturesWithThrowingCtorsAreFailuresE
     /tmp/ccwWU2u1.s:4269   .text:0000000000001b6e _ZN12_GLOBAL__N_140TestFixturesWithThrowingCtorsAreFailuresC1Ev
     /tmp/ccwWU2u1.s:4301   .bss:0000000000000460 _ZN12_GLOBAL__N_148testFixturesWithThrowingCtorsAreFailuresInstanceE
     /tmp/ccwWU2u1.s:4301   .bss:0000000000000498 _ZN12_GLOBAL__N_141adderFixturesWithThrowingCtorsAreFailuresE
     /tmp/ccwWU2u1.s:4325   .text:0000000000001bac _ZNK12_GLOBAL__N_140TestFixturesWithThrowingCtorsAreFailures7RunImplEv
     /tmp/ccwWU2u1.s:8494   .text._ZN8UnitTest10CheckEqualIiiEEvRNS_11TestResultsERKT_RKT0_RKNS_11TestDetailsE:0000000000000000 _ZN8UnitTest10CheckEqualIiiEEvRNS_11TestResultsERKT_RKT0_RKNS_11TestDetailsE
     /tmp/ccwWU2u1.s:4681   .text:0000000000001ee2 _ZN12_GLOBAL__N_117FixtureDtorThrowsD2Ev
     /tmp/ccwWU2u1.s:4706   .bss:00000000000004a0 _ZN12_GLOBAL__N_124throwingFixtureTestList2E
     /tmp/ccwWU2u1.s:4709   .text:0000000000001f12 _ZN12_GLOBAL__N_117FixtureDtorThrowsC2Ev
     /tmp/ccwWU2u1.s:4728   .text:0000000000001f1c _ZN12_GLOBAL__N_148FixtureDtorThrowsFixtureDtorThrowsTestNameHelperC2ERKN8UnitTest11TestDetailsE
     /tmp/ccwWU2u1.s:4728   .text:0000000000001f1c _ZN12_GLOBAL__N_148FixtureDtorThrowsFixtureDtorThrowsTestNameHelperC1ERKN8UnitTest11TestDetailsE
     /tmp/ccwWU2u1.s:4762   .text:0000000000001f46 _ZN12_GLOBAL__N_146TestFixtureDtorThrowsFixtureDtorThrowsTestNameC2Ev
     /tmp/ccwWU2u1.s:9691   .rodata:0000000000000f60 _ZTVN12_GLOBAL__N_146TestFixtureDtorThrowsFixtureDtorThrowsTestNameE
     /tmp/ccwWU2u1.s:4762   .text:0000000000001f46 _ZN12_GLOBAL__N_146TestFixtureDtorThrowsFixtureDtorThrowsTestNameC1Ev
     /tmp/ccwWU2u1.s:4794   .bss:00000000000004c0 _ZN12_GLOBAL__N_154testFixtureDtorThrowsFixtureDtorThrowsTestNameInstanceE
     /tmp/ccwWU2u1.s:4794   .bss:00000000000004f8 _ZN12_GLOBAL__N_147adderFixtureDtorThrowsFixtureDtorThrowsTestNameE
     /tmp/ccwWU2u1.s:4799   .text:0000000000001f84 _ZN12_GLOBAL__N_148FixtureDtorThrowsFixtureDtorThrowsTestNameHelperD2Ev
     /tmp/ccwWU2u1.s:4799   .text:0000000000001f84 _ZN12_GLOBAL__N_148FixtureDtorThrowsFixtureDtorThrowsTestNameHelperD1Ev
     /tmp/ccwWU2u1.s:4833   .text:0000000000001f9e _ZNK12_GLOBAL__N_146TestFixtureDtorThrowsFixtureDtorThrowsTestName7RunImplEv
     /tmp/ccwWU2u1.s:8622   .text:0000000000003a66 _ZN8UnitTest11ExecuteTestIN12_GLOBAL__N_148FixtureDtorThrowsFixtureDtorThrowsTestNameHelperEEEvRT_RKNS_11TestDetailsE
     /tmp/ccwWU2u1.s:5164   .text:0000000000002280 _ZN12_GLOBAL__N_148FixtureDtorThrowsFixtureDtorThrowsTestNameHelper7RunImplEv
     /tmp/ccwWU2u1.s:5188   .text:000000000000228a _ZN12_GLOBAL__N_140TestFixturesWithThrowingDtorsAreFailuresC2Ev
     /tmp/ccwWU2u1.s:9617   .rodata:0000000000000f20 _ZTVN12_GLOBAL__N_140TestFixturesWithThrowingDtorsAreFailuresE
     /tmp/ccwWU2u1.s:5188   .text:000000000000228a _ZN12_GLOBAL__N_140TestFixturesWithThrowingDtorsAreFailuresC1Ev
     /tmp/ccwWU2u1.s:5220   .bss:0000000000000500 _ZN12_GLOBAL__N_148testFixturesWithThrowingDtorsAreFailuresInstanceE
     /tmp/ccwWU2u1.s:5220   .bss:0000000000000538 _ZN12_GLOBAL__N_141adderFixturesWithThrowingDtorsAreFailuresE
     /tmp/ccwWU2u1.s:5241   .text:00000000000022c8 _ZNK12_GLOBAL__N_140TestFixturesWithThrowingDtorsAreFailures7RunImplEv
     /tmp/ccwWU2u1.s:5603   .text:00000000000025fe _ZN12_GLOBAL__N_118FixtureCtorAssertsC2Ev
     /tmp/ccwWU2u1.s:5629   .bss:0000000000000540 _ZN12_GLOBAL__N_125ctorAssertFixtureTestListE
     /tmp/ccwWU2u1.s:5632   .text:0000000000002620 _ZN12_GLOBAL__N_159FixtureCtorAssertsCorrectlyReportsAssertFailureInCtorHelperC2ERKN8UnitTest11TestDetailsE
     /tmp/ccwWU2u1.s:5632   .text:0000000000002620 _ZN12_GLOBAL__N_159FixtureCtorAssertsCorrectlyReportsAssertFailureInCtorHelperC1ERKN8UnitTest11TestDetailsE
     /tmp/ccwWU2u1.s:5667   .text:000000000000264a _ZN12_GLOBAL__N_157TestFixtureCtorAssertsCorrectlyReportsAssertFailureInCtorC2Ev
     /tmp/ccwWU2u1.s:9543   .rodata:0000000000000ee0 _ZTVN12_GLOBAL__N_157TestFixtureCtorAssertsCorrectlyReportsAssertFailureInCtorE
     /tmp/ccwWU2u1.s:5667   .text:000000000000264a _ZN12_GLOBAL__N_157TestFixtureCtorAssertsCorrectlyReportsAssertFailureInCtorC1Ev
     /tmp/ccwWU2u1.s:5699   .bss:0000000000000560 _ZN12_GLOBAL__N_165testFixtureCtorAssertsCorrectlyReportsAssertFailureInCtorInstanceE
     /tmp/ccwWU2u1.s:5699   .bss:0000000000000598 _ZN12_GLOBAL__N_158adderFixtureCtorAssertsCorrectlyReportsAssertFailureInCtorE
     /tmp/ccwWU2u1.s:5712   .text:0000000000002688 _ZNK12_GLOBAL__N_157TestFixtureCtorAssertsCorrectlyReportsAssertFailureInCtor7RunImplEv
     /tmp/ccwWU2u1.s:8965   .text:0000000000003cfe _ZN8UnitTest11ExecuteTestIN12_GLOBAL__N_159FixtureCtorAssertsCorrectlyReportsAssertFailureInCtorHelperEEEvRT_RKNS_11TestDetailsE
     /tmp/ccwWU2u1.s:6020   .text:000000000000293e _ZN12_GLOBAL__N_159FixtureCtorAssertsCorrectlyReportsAssertFailureInCtorHelper7RunImplEv
     /tmp/ccwWU2u1.s:6044   .text:0000000000002948 _ZN12_GLOBAL__N_147TestCorrectlyReportsFixturesWithCtorsThatAssertC2Ev
     /tmp/ccwWU2u1.s:9469   .rodata:0000000000000ea0 _ZTVN12_GLOBAL__N_147TestCorrectlyReportsFixturesWithCtorsThatAssertE
     /tmp/ccwWU2u1.s:6044   .text:0000000000002948 _ZN12_GLOBAL__N_147TestCorrectlyReportsFixturesWithCtorsThatAssertC1Ev
     /tmp/ccwWU2u1.s:6076   .bss:00000000000005a0 _ZN12_GLOBAL__N_155testCorrectlyReportsFixturesWithCtorsThatAssertInstanceE
     /tmp/ccwWU2u1.s:6076   .bss:00000000000005d8 _ZN12_GLOBAL__N_148adderCorrectlyReportsFixturesWithCtorsThatAssertE
     /tmp/ccwWU2u1.s:6092   .text:0000000000002986 _ZNK12_GLOBAL__N_147TestCorrectlyReportsFixturesWithCtorsThatAssert7RunImplEv
     /tmp/ccwWU2u1.s:11689  .rodata:0000000000001b64 _ZN12_GLOBAL__N_1L11FailingLineE
     /tmp/ccwWU2u1.s:6438   .text._ZN18SuiteSameTestSuite13UnitTestSuite12GetSuiteNameEv:0000000000000000 _ZN18SuiteSameTestSuite13UnitTestSuite12GetSuiteNameEv
     /tmp/ccwWU2u1.s:6462   .text._ZN18SuiteSameTestSuite14TestDummyTest1C2Ev:0000000000000000 _ZN18SuiteSameTestSuite14TestDummyTest1C2Ev
     /tmp/ccwWU2u1.s:9391   .rodata._ZTVN18SuiteSameTestSuite14TestDummyTest1E:0000000000000000 _ZTVN18SuiteSameTestSuite14TestDummyTest1E
     /tmp/ccwWU2u1.s:6462   .text._ZN18SuiteSameTestSuite14TestDummyTest1C2Ev:0000000000000000 _ZN18SuiteSameTestSuite14TestDummyTest1C1Ev
     /tmp/ccwWU2u1.s:6499   .bss:0000000000000000 _ZN18SuiteSameTestSuite22testDummyTest1InstanceE
     /tmp/ccwWU2u1.s:6504   .bss:0000000000000038 _ZN18SuiteSameTestSuite15adderDummyTest1E
     /tmp/ccwWU2u1.s:6510   .text:0000000000002ca6 _ZNK18SuiteSameTestSuite14TestDummyTest17RunImplEv
     /tmp/ccwWU2u1.s:6535   .text._ZN44TestCurrentTestDetailsContainCurrentTestInfoC2Ev:0000000000000000 _ZN44TestCurrentTestDetailsContainCurrentTestInfoC2Ev
     /tmp/ccwWU2u1.s:9312   .rodata._ZTV44TestCurrentTestDetailsContainCurrentTestInfo:0000000000000000 _ZTV44TestCurrentTestDetailsContainCurrentTestInfo
     /tmp/ccwWU2u1.s:6535   .text._ZN44TestCurrentTestDetailsContainCurrentTestInfoC2Ev:0000000000000000 _ZN44TestCurrentTestDetailsContainCurrentTestInfoC1Ev
     /tmp/ccwWU2u1.s:6572   .bss:0000000000000040 testCurrentTestDetailsContainCurrentTestInfoInstance
     /tmp/ccwWU2u1.s:6577   .bss:0000000000000078 adderCurrentTestDetailsContainCurrentTestInfo
     /tmp/ccwWU2u1.s:6587   .text:0000000000002cb0 _ZNK44TestCurrentTestDetailsContainCurrentTestInfo7RunImplEv
     /tmp/ccwWU2u1.s:11128  .rodata._ZTI44TestCurrentTestDetailsContainCurrentTestInfo:0000000000000000 _ZTI44TestCurrentTestDetailsContainCurrentTestInfo
     /tmp/ccwWU2u1.s:9322   .text._ZN44TestCurrentTestDetailsContainCurrentTestInfoD2Ev:0000000000000000 _ZN44TestCurrentTestDetailsContainCurrentTestInfoD1Ev
     /tmp/ccwWU2u1.s:9362   .text._ZN44TestCurrentTestDetailsContainCurrentTestInfoD0Ev:0000000000000000 _ZN44TestCurrentTestDetailsContainCurrentTestInfoD0Ev
     /tmp/ccwWU2u1.s:9322   .text._ZN44TestCurrentTestDetailsContainCurrentTestInfoD2Ev:0000000000000000 _ZN44TestCurrentTestDetailsContainCurrentTestInfoD2Ev
     /tmp/ccwWU2u1.s:11144  .rodata._ZTIN18SuiteSameTestSuite14TestDummyTest1E:0000000000000000 _ZTIN18SuiteSameTestSuite14TestDummyTest1E
     /tmp/ccwWU2u1.s:9401   .text._ZN18SuiteSameTestSuite14TestDummyTest1D2Ev:0000000000000000 _ZN18SuiteSameTestSuite14TestDummyTest1D1Ev
     /tmp/ccwWU2u1.s:9441   .text._ZN18SuiteSameTestSuite14TestDummyTest1D0Ev:0000000000000000 _ZN18SuiteSameTestSuite14TestDummyTest1D0Ev
     /tmp/ccwWU2u1.s:9401   .text._ZN18SuiteSameTestSuite14TestDummyTest1D2Ev:0000000000000000 _ZN18SuiteSameTestSuite14TestDummyTest1D2Ev
     /tmp/ccwWU2u1.s:11592  .rodata:0000000000001530 _ZTIN12_GLOBAL__N_147TestCorrectlyReportsFixturesWithCtorsThatAssertE
     /tmp/ccwWU2u1.s:9478   .text:0000000000003f96 _ZN12_GLOBAL__N_147TestCorrectlyReportsFixturesWithCtorsThatAssertD1Ev
     /tmp/ccwWU2u1.s:9515   .text:0000000000003fd0 _ZN12_GLOBAL__N_147TestCorrectlyReportsFixturesWithCtorsThatAssertD0Ev
     /tmp/ccwWU2u1.s:9478   .text:0000000000003f96 _ZN12_GLOBAL__N_147TestCorrectlyReportsFixturesWithCtorsThatAssertD2Ev
     /tmp/ccwWU2u1.s:11585  .rodata:0000000000001510 _ZTIN12_GLOBAL__N_157TestFixtureCtorAssertsCorrectlyReportsAssertFailureInCtorE
     /tmp/ccwWU2u1.s:9552   .text:0000000000003ff6 _ZN12_GLOBAL__N_157TestFixtureCtorAssertsCorrectlyReportsAssertFailureInCtorD1Ev
     /tmp/ccwWU2u1.s:9589   .text:0000000000004030 _ZN12_GLOBAL__N_157TestFixtureCtorAssertsCorrectlyReportsAssertFailureInCtorD0Ev
     /tmp/ccwWU2u1.s:9552   .text:0000000000003ff6 _ZN12_GLOBAL__N_157TestFixtureCtorAssertsCorrectlyReportsAssertFailureInCtorD2Ev
     /tmp/ccwWU2u1.s:11578  .rodata:00000000000014f0 _ZTIN12_GLOBAL__N_140TestFixturesWithThrowingDtorsAreFailuresE
     /tmp/ccwWU2u1.s:9626   .text:0000000000004056 _ZN12_GLOBAL__N_140TestFixturesWithThrowingDtorsAreFailuresD1Ev
     /tmp/ccwWU2u1.s:9663   .text:0000000000004090 _ZN12_GLOBAL__N_140TestFixturesWithThrowingDtorsAreFailuresD0Ev
     /tmp/ccwWU2u1.s:9626   .text:0000000000004056 _ZN12_GLOBAL__N_140TestFixturesWithThrowingDtorsAreFailuresD2Ev
     /tmp/ccwWU2u1.s:11571  .rodata:00000000000014d0 _ZTIN12_GLOBAL__N_146TestFixtureDtorThrowsFixtureDtorThrowsTestNameE
     /tmp/ccwWU2u1.s:9700   .text:00000000000040b6 _ZN12_GLOBAL__N_146TestFixtureDtorThrowsFixtureDtorThrowsTestNameD1Ev
     /tmp/ccwWU2u1.s:9737   .text:00000000000040f0 _ZN12_GLOBAL__N_146TestFixtureDtorThrowsFixtureDtorThrowsTestNameD0Ev
     /tmp/ccwWU2u1.s:9700   .text:00000000000040b6 _ZN12_GLOBAL__N_146TestFixtureDtorThrowsFixtureDtorThrowsTestNameD2Ev
     /tmp/ccwWU2u1.s:11564  .rodata:00000000000014b0 _ZTIN12_GLOBAL__N_140TestFixturesWithThrowingCtorsAreFailuresE
     /tmp/ccwWU2u1.s:9774   .text:0000000000004116 _ZN12_GLOBAL__N_140TestFixturesWithThrowingCtorsAreFailuresD1Ev
     /tmp/ccwWU2u1.s:9811   .text:0000000000004150 _ZN12_GLOBAL__N_140TestFixturesWithThrowingCtorsAreFailuresD0Ev
     /tmp/ccwWU2u1.s:9774   .text:0000000000004116 _ZN12_GLOBAL__N_140TestFixturesWithThrowingCtorsAreFailuresD2Ev
     /tmp/ccwWU2u1.s:11557  .rodata:0000000000001490 _ZTIN12_GLOBAL__N_146TestFixtureCtorThrowsFixtureCtorThrowsTestNameE
     /tmp/ccwWU2u1.s:9848   .text:0000000000004176 _ZN12_GLOBAL__N_146TestFixtureCtorThrowsFixtureCtorThrowsTestNameD1Ev
     /tmp/ccwWU2u1.s:9885   .text:00000000000041b0 _ZN12_GLOBAL__N_146TestFixtureCtorThrowsFixtureCtorThrowsTestNameD0Ev
     /tmp/ccwWU2u1.s:9848   .text:0000000000004176 _ZN12_GLOBAL__N_146TestFixtureCtorThrowsFixtureCtorThrowsTestNameD2Ev
     /tmp/ccwWU2u1.s:11550  .rodata:0000000000001470 _ZTIN12_GLOBAL__N_153TestTestAddedWithTEST_FIXTURE_EXMacroGetsDefaultSuiteE
     /tmp/ccwWU2u1.s:9922   .text:00000000000041d6 _ZN12_GLOBAL__N_153TestTestAddedWithTEST_FIXTURE_EXMacroGetsDefaultSuiteD1Ev
     /tmp/ccwWU2u1.s:9959   .text:0000000000004210 _ZN12_GLOBAL__N_153TestTestAddedWithTEST_FIXTURE_EXMacroGetsDefaultSuiteD0Ev
     /tmp/ccwWU2u1.s:9922   .text:00000000000041d6 _ZN12_GLOBAL__N_153TestTestAddedWithTEST_FIXTURE_EXMacroGetsDefaultSuiteD2Ev
     /tmp/ccwWU2u1.s:11543  .rodata:0000000000001450 _ZTIN12_GLOBAL__N_132TestDummyFixtureMacroTestHelper2E
     /tmp/ccwWU2u1.s:9996   .text:0000000000004236 _ZN12_GLOBAL__N_132TestDummyFixtureMacroTestHelper2D1Ev
     /tmp/ccwWU2u1.s:10033  .text:0000000000004270 _ZN12_GLOBAL__N_132TestDummyFixtureMacroTestHelper2D0Ev
     /tmp/ccwWU2u1.s:9996   .text:0000000000004236 _ZN12_GLOBAL__N_132TestDummyFixtureMacroTestHelper2D2Ev
     /tmp/ccwWU2u1.s:11536  .rodata:0000000000001430 _ZTIN12_GLOBAL__N_145TestTestAddedWithTEST_EXMacroGetsDefaultSuiteE
     /tmp/ccwWU2u1.s:10070  .text:0000000000004296 _ZN12_GLOBAL__N_145TestTestAddedWithTEST_EXMacroGetsDefaultSuiteD1Ev
     /tmp/ccwWU2u1.s:10107  .text:00000000000042d0 _ZN12_GLOBAL__N_145TestTestAddedWithTEST_EXMacroGetsDefaultSuiteD0Ev
     /tmp/ccwWU2u1.s:10070  .text:0000000000004296 _ZN12_GLOBAL__N_145TestTestAddedWithTEST_EXMacroGetsDefaultSuiteD2Ev
     /tmp/ccwWU2u1.s:11529  .rodata:0000000000001410 _ZTIN12_GLOBAL__N_120TestMacroTestHelper1E
     /tmp/ccwWU2u1.s:10144  .text:00000000000042f6 _ZN12_GLOBAL__N_120TestMacroTestHelper1D1Ev
     /tmp/ccwWU2u1.s:10181  .text:0000000000004330 _ZN12_GLOBAL__N_120TestMacroTestHelper1D0Ev
     /tmp/ccwWU2u1.s:10144  .text:00000000000042f6 _ZN12_GLOBAL__N_120TestMacroTestHelper1D2Ev
     /tmp/ccwWU2u1.s:11522  .rodata:00000000000013f0 _ZTIN12_GLOBAL__N_115SuiteTestSuite263TestDummyFixtureSimilarlyNamedFixtureTestsInDifferentSuitesWorkE
     /tmp/ccwWU2u1.s:10218  .text:0000000000004356 _ZN12_GLOBAL__N_115SuiteTestSuite263TestDummyFixtureSimilarlyNamedFixtureTestsInDifferentSuitesWorkD1Ev
     /tmp/ccwWU2u1.s:10255  .text:0000000000004390 _ZN12_GLOBAL__N_115SuiteTestSuite263TestDummyFixtureSimilarlyNamedFixtureTestsInDifferentSuitesWorkD0Ev
     /tmp/ccwWU2u1.s:10218  .text:0000000000004356 _ZN12_GLOBAL__N_115SuiteTestSuite263TestDummyFixtureSimilarlyNamedFixtureTestsInDifferentSuitesWorkD2Ev
     /tmp/ccwWU2u1.s:11515  .rodata:00000000000013d0 _ZTIN12_GLOBAL__N_115SuiteTestSuite244TestSimilarlyNamedTestsInDifferentSuitesWorkE
     /tmp/ccwWU2u1.s:10292  .text:00000000000043b6 _ZN12_GLOBAL__N_115SuiteTestSuite244TestSimilarlyNamedTestsInDifferentSuitesWorkD1Ev
     /tmp/ccwWU2u1.s:10329  .text:00000000000043f0 _ZN12_GLOBAL__N_115SuiteTestSuite244TestSimilarlyNamedTestsInDifferentSuitesWorkD0Ev
     /tmp/ccwWU2u1.s:10292  .text:00000000000043b6 _ZN12_GLOBAL__N_115SuiteTestSuite244TestSimilarlyNamedTestsInDifferentSuitesWorkD2Ev
     /tmp/ccwWU2u1.s:11508  .rodata:00000000000013b0 _ZTIN12_GLOBAL__N_115SuiteTestSuite163TestDummyFixtureSimilarlyNamedFixtureTestsInDifferentSuitesWorkE
     /tmp/ccwWU2u1.s:10366  .text:0000000000004416 _ZN12_GLOBAL__N_115SuiteTestSuite163TestDummyFixtureSimilarlyNamedFixtureTestsInDifferentSuitesWorkD1Ev
     /tmp/ccwWU2u1.s:10403  .text:0000000000004450 _ZN12_GLOBAL__N_115SuiteTestSuite163TestDummyFixtureSimilarlyNamedFixtureTestsInDifferentSuitesWorkD0Ev
     /tmp/ccwWU2u1.s:10366  .text:0000000000004416 _ZN12_GLOBAL__N_115SuiteTestSuite163TestDummyFixtureSimilarlyNamedFixtureTestsInDifferentSuitesWorkD2Ev
     /tmp/ccwWU2u1.s:11501  .rodata:0000000000001390 _ZTIN12_GLOBAL__N_115SuiteTestSuite144TestSimilarlyNamedTestsInDifferentSuitesWorkE
     /tmp/ccwWU2u1.s:10440  .text:0000000000004476 _ZN12_GLOBAL__N_115SuiteTestSuite144TestSimilarlyNamedTestsInDifferentSuitesWorkD1Ev
     /tmp/ccwWU2u1.s:10477  .text:00000000000044b0 _ZN12_GLOBAL__N_115SuiteTestSuite144TestSimilarlyNamedTestsInDifferentSuitesWorkD0Ev
     /tmp/ccwWU2u1.s:10440  .text:0000000000004476 _ZN12_GLOBAL__N_115SuiteTestSuite144TestSimilarlyNamedTestsInDifferentSuitesWorkD2Ev
     /tmp/ccwWU2u1.s:11494  .rodata:0000000000001370 _ZTIN12_GLOBAL__N_157TestExceptionsInFixtureAreReportedAsHappeningInTheFixtureE
     /tmp/ccwWU2u1.s:10514  .text:00000000000044d6 _ZN12_GLOBAL__N_157TestExceptionsInFixtureAreReportedAsHappeningInTheFixtureD1Ev
     /tmp/ccwWU2u1.s:10551  .text:0000000000004510 _ZN12_GLOBAL__N_157TestExceptionsInFixtureAreReportedAsHappeningInTheFixtureD0Ev
     /tmp/ccwWU2u1.s:10514  .text:00000000000044d6 _ZN12_GLOBAL__N_157TestExceptionsInFixtureAreReportedAsHappeningInTheFixtureD2Ev
     /tmp/ccwWU2u1.s:11487  .rodata:0000000000001350 _ZTIN12_GLOBAL__N_132TestThrowingThingieDummyTestNameE
     /tmp/ccwWU2u1.s:10588  .text:0000000000004536 _ZN12_GLOBAL__N_132TestThrowingThingieDummyTestNameD1Ev
     /tmp/ccwWU2u1.s:10625  .text:0000000000004570 _ZN12_GLOBAL__N_132TestThrowingThingieDummyTestNameD0Ev
     /tmp/ccwWU2u1.s:10588  .text:0000000000004536 _ZN12_GLOBAL__N_132TestThrowingThingieDummyTestNameD2Ev
     /tmp/ccwWU2u1.s:11480  .rodata:0000000000001330 _ZTIN12_GLOBAL__N_138TestTestsAreAddedToTheListThroughMacroE
     /tmp/ccwWU2u1.s:10662  .text:0000000000004596 _ZN12_GLOBAL__N_138TestTestsAreAddedToTheListThroughMacroD1Ev
     /tmp/ccwWU2u1.s:10699  .text:00000000000045d0 _ZN12_GLOBAL__N_138TestTestsAreAddedToTheListThroughMacroD0Ev
     /tmp/ccwWU2u1.s:10662  .text:0000000000004596 _ZN12_GLOBAL__N_138TestTestsAreAddedToTheListThroughMacroD2Ev
     /tmp/ccwWU2u1.s:11473  .rodata:0000000000001310 _ZTIN12_GLOBAL__N_113TestDummyTestE
     /tmp/ccwWU2u1.s:10736  .text:00000000000045f6 _ZN12_GLOBAL__N_113TestDummyTestD1Ev
     /tmp/ccwWU2u1.s:10773  .text:0000000000004630 _ZN12_GLOBAL__N_113TestDummyTestD0Ev
     /tmp/ccwWU2u1.s:10736  .text:00000000000045f6 _ZN12_GLOBAL__N_113TestDummyTestD2Ev
     /tmp/ccwWU2u1.s:11167  .rodata._ZTI17RecordingReporter:0000000000000000 _ZTI17RecordingReporter
     /tmp/ccwWU2u1.s:10855  .text._ZN17RecordingReporterD0Ev:0000000000000000 _ZN17RecordingReporterD0Ev
     /tmp/ccwWU2u1.s:10815  .text._ZN17RecordingReporterD2Ev:0000000000000000 _ZN17RecordingReporterD2Ev
     /tmp/ccwWU2u1.s:11183  .rodata._ZTIN8UnitTest15MemoryOutStreamE:0000000000000000 _ZTIN8UnitTest15MemoryOutStreamE
     /tmp/ccwWU2u1.s:11040  .text._ZN8UnitTest15MemoryOutStreamD0Ev:0000000000000000 _ZN8UnitTest15MemoryOutStreamD0Ev
     /tmp/ccwWU2u1.s:11026  .text._ZN8UnitTest15MemoryOutStreamD1Ev:00000000000000c8 _ZTv0_n24_N8UnitTest15MemoryOutStreamD1Ev
     /tmp/ccwWU2u1.s:11067  .text._ZN8UnitTest15MemoryOutStreamD0Ev:0000000000000026 _ZTv0_n24_N8UnitTest15MemoryOutStreamD0Ev
     /tmp/ccwWU2u1.s:11095  .rodata._ZTCN8UnitTest15MemoryOutStreamE0_St19basic_ostringstreamIcSt11char_traitsIcESaIcEE:0000000000000000 _ZTCN8UnitTest15MemoryOutStreamE0_St19basic_ostringstreamIcSt11char_traitsIcESaIcEE
     /tmp/ccwWU2u1.s:11112  .rodata._ZTCN8UnitTest15MemoryOutStreamE0_So:0000000000000000 _ZTCN8UnitTest15MemoryOutStreamE0_So
     /tmp/ccwWU2u1.s:11137  .rodata._ZTS44TestCurrentTestDetailsContainCurrentTestInfo:0000000000000000 _ZTS44TestCurrentTestDetailsContainCurrentTestInfo
     /tmp/ccwWU2u1.s:11153  .rodata._ZTSN18SuiteSameTestSuite14TestDummyTest1E:0000000000000000 _ZTSN18SuiteSameTestSuite14TestDummyTest1E
     /tmp/ccwWU2u1.s:11160  .rodata._ZTS17RecordingReporter:0000000000000000 _ZTS17RecordingReporter
     /tmp/ccwWU2u1.s:11176  .rodata._ZTSN8UnitTest15MemoryOutStreamE:0000000000000000 _ZTSN8UnitTest15MemoryOutStreamE
     /tmp/ccwWU2u1.s:11189  .text:0000000000004656 _Z41__static_initialization_and_destruction_0ii
     /tmp/ccwWU2u1.s:11684  .rodata:0000000000001b40 _ZTSN12_GLOBAL__N_113TestDummyTestE
     /tmp/ccwWU2u1.s:11679  .rodata:0000000000001b00 _ZTSN12_GLOBAL__N_138TestTestsAreAddedToTheListThroughMacroE
     /tmp/ccwWU2u1.s:11674  .rodata:0000000000001ac0 _ZTSN12_GLOBAL__N_132TestThrowingThingieDummyTestNameE
     /tmp/ccwWU2u1.s:11669  .rodata:0000000000001a60 _ZTSN12_GLOBAL__N_157TestExceptionsInFixtureAreReportedAsHappeningInTheFixtureE
     /tmp/ccwWU2u1.s:11664  .rodata:0000000000001a00 _ZTSN12_GLOBAL__N_115SuiteTestSuite144TestSimilarlyNamedTestsInDifferentSuitesWorkE
     /tmp/ccwWU2u1.s:11659  .rodata:0000000000001980 _ZTSN12_GLOBAL__N_115SuiteTestSuite163TestDummyFixtureSimilarlyNamedFixtureTestsInDifferentSuitesWorkE
     /tmp/ccwWU2u1.s:11654  .rodata:0000000000001920 _ZTSN12_GLOBAL__N_115SuiteTestSuite244TestSimilarlyNamedTestsInDifferentSuitesWorkE
     /tmp/ccwWU2u1.s:11649  .rodata:00000000000018a0 _ZTSN12_GLOBAL__N_115SuiteTestSuite263TestDummyFixtureSimilarlyNamedFixtureTestsInDifferentSuitesWorkE
     /tmp/ccwWU2u1.s:11644  .rodata:0000000000001860 _ZTSN12_GLOBAL__N_120TestMacroTestHelper1E
     /tmp/ccwWU2u1.s:11639  .rodata:0000000000001800 _ZTSN12_GLOBAL__N_145TestTestAddedWithTEST_EXMacroGetsDefaultSuiteE
     /tmp/ccwWU2u1.s:11634  .rodata:00000000000017c0 _ZTSN12_GLOBAL__N_132TestDummyFixtureMacroTestHelper2E
     /tmp/ccwWU2u1.s:11629  .rodata:0000000000001760 _ZTSN12_GLOBAL__N_153TestTestAddedWithTEST_FIXTURE_EXMacroGetsDefaultSuiteE
     /tmp/ccwWU2u1.s:11624  .rodata:0000000000001700 _ZTSN12_GLOBAL__N_146TestFixtureCtorThrowsFixtureCtorThrowsTestNameE
     /tmp/ccwWU2u1.s:11619  .rodata:00000000000016c0 _ZTSN12_GLOBAL__N_140TestFixturesWithThrowingCtorsAreFailuresE
     /tmp/ccwWU2u1.s:11614  .rodata:0000000000001660 _ZTSN12_GLOBAL__N_146TestFixtureDtorThrowsFixtureDtorThrowsTestNameE
     /tmp/ccwWU2u1.s:11609  .rodata:0000000000001620 _ZTSN12_GLOBAL__N_140TestFixturesWithThrowingDtorsAreFailuresE
     /tmp/ccwWU2u1.s:11604  .rodata:00000000000015c0 _ZTSN12_GLOBAL__N_157TestFixtureCtorAssertsCorrectlyReportsAssertFailureInCtorE
     /tmp/ccwWU2u1.s:11599  .rodata:0000000000001560 _ZTSN12_GLOBAL__N_147TestCorrectlyReportsFixturesWithCtorsThatAssertE
     /tmp/ccwWU2u1.s:11693  .text:0000000000004ad2 _GLOBAL__sub_I__ZN18SuiteSameTestSuite22testDummyTest1InstanceE
     /tmp/ccwWU2u1.s:11719  .rodata:0000000000001b68 _ZZL18__gthread_active_pvE20__gthread_active_ptr
                           .group:0000000000000000 _ZN8UnitTest12TestReporterC5Ev
                           .group:0000000000000000 _ZN17RecordingReporterC5Ev
                           .group:0000000000000000 _ZN17ScopedCurrentTestC5ERN8UnitTest11TestResultsEPKNS0_11TestDetailsE
                           .group:0000000000000000 _ZN17ScopedCurrentTestD5Ev
                           .group:0000000000000000 _ZN18SuiteSameTestSuite14TestDummyTest1C5Ev
                           .group:0000000000000000 _ZN44TestCurrentTestDetailsContainCurrentTestInfoC5Ev
                           .group:0000000000000000 _ZN44TestCurrentTestDetailsContainCurrentTestInfoD5Ev
                           .group:0000000000000000 _ZN18SuiteSameTestSuite14TestDummyTest1D5Ev
                           .group:0000000000000000 _ZN17RecordingReporterD5Ev

UNDEFINED SYMBOLS
__gxx_personality_v0
_ZNSt9basic_iosIcSt11char_traitsIcEEC2Ev
_ZNSt19basic_ostringstreamIcSt11char_traitsIcESaIcEEC2ESt13_Ios_Openmode
_ZNSsC1Ev
_ZNSt19basic_ostringstreamIcSt11char_traitsIcESaIcEED2Ev
_ZNSt9basic_iosIcSt11char_traitsIcEED2Ev
_Unwind_Resume
_ZTVN8UnitTest12TestReporterE
strcpy
_ZN8UnitTest11CurrentTest7ResultsEv
_ZN8UnitTest11CurrentTest7DetailsEv
_ZN8UnitTest4TestC2EPKcS2_S2_i
_ZNK8UnitTest8TestList7GetHeadEv
_ZN8UnitTest11TestDetailsC1ERKS0_i
_ZN8UnitTest11TestResults13OnTestFailureERKNS_11TestDetailsEPKc
__cxa_end_catch
__cxa_begin_catch
__cxa_allocate_exception
_ZTIPKc
__cxa_throw
_ZNK8UnitTest15AssertException10LineNumberEv
_ZNK8UnitTest15AssertException8FilenameEv
_ZN8UnitTest11TestDetailsC1EPKcS2_S2_i
_ZStlsISt11char_traitsIcEERSt13basic_ostreamIcT_ES5_PKc
_ZNK8UnitTest15MemoryOutStream7GetTextEv
_ZTISt9exception
_ZTIN8UnitTest15AssertExceptionE
_ZN8UnitTest11TestResultsC1EPNS_12TestReporterE
_ZN8UnitTest4Test3RunEv
strstr
__stack_chk_fail
_ZN8UnitTest10CheckEqualERNS_11TestResultsEPKcS3_RKNS_11TestDetailsE
_ZNK8UnitTest11TestResults18GetFailedTestCountEv
_ZN8UnitTest12ReportAssertEPKcS1_i
_ZN8UnitTest16SignalTranslatorC1Ev
_ZN8UnitTest16SignalTranslator12s_jumpTargetE
__sigsetjmp
_ZN8UnitTest16SignalTranslatorD1Ev
_ZNSolsEi
_ZN8UnitTest4TestD2Ev
_ZdlPv
_ZN8UnitTest12TestReporterD2Ev
_ZNSsD1Ev
_ZTISt19basic_ostringstreamIcSt11char_traitsIcESaIcEE
_ZNSt19basic_ostringstreamIcSt11char_traitsIcESaIcEED1Ev
_ZNSt19basic_ostringstreamIcSt11char_traitsIcESaIcEED0Ev
_ZTv0_n24_NSt19basic_ostringstreamIcSt11char_traitsIcESaIcEED1Ev
_ZTv0_n24_NSt19basic_ostringstreamIcSt11char_traitsIcESaIcEED0Ev
_ZTISo
_ZNSoD1Ev
_ZNSoD0Ev
_ZTv0_n24_NSoD1Ev
_ZTv0_n24_NSoD0Ev
_ZTVN10__cxxabiv120__si_class_type_infoE
_ZTIN8UnitTest4TestE
_ZTIN8UnitTest12TestReporterE
_ZN8UnitTest8TestListC1Ev
__dso_handle
__cxa_atexit
_ZN8UnitTest9ListAdderC1ERNS_8TestListEPNS_4TestE
_ZN8UnitTest4Test11GetTestListEv
__pthread_key_create
