   1              		.file	"TestTestRunner.cpp"
   2              		.text
   3              	.Ltext0:
   4              		.section	.rodata
   5              	.LC0:
   6 0000 44656661 		.string	"DefaultSuite"
   6      756C7453 
   6      75697465 
   6      00
   7              		.section	.text._ZN13UnitTestSuite12GetSuiteNameEv,"axG",@progbits,_ZN13UnitTestSuite12GetSuiteName
   8              		.weak	_ZN13UnitTestSuite12GetSuiteNameEv
  10              	_ZN13UnitTestSuite12GetSuiteNameEv:
  11              	.LFB0:
  12              		.file 1 "../TestSuite.h"
   1:../TestSuite.h **** #ifndef UNITTEST_TESTSUITE_H
   2:../TestSuite.h **** #define UNITTEST_TESTSUITE_H
   3:../TestSuite.h **** 
   4:../TestSuite.h **** namespace UnitTestSuite {
   5:../TestSuite.h **** 
   6:../TestSuite.h ****     inline char const* GetSuiteName ()
   7:../TestSuite.h ****     {
  13              		.loc 1 7 0
  14              		.cfi_startproc
  15 0000 55       		pushq	%rbp
  16              		.cfi_def_cfa_offset 16
  17              		.cfi_offset 6, -16
  18 0001 4889E5   		movq	%rsp, %rbp
  19              		.cfi_def_cfa_register 6
   8:../TestSuite.h ****         return "DefaultSuite";
  20              		.loc 1 8 0
  21 0004 B8000000 		movl	$.LC0, %eax
  21      00
   9:../TestSuite.h ****     }
  22              		.loc 1 9 0
  23 0009 5D       		popq	%rbp
  24              		.cfi_def_cfa 7, 8
  25 000a C3       		ret
  26              		.cfi_endproc
  27              	.LFE0:
  29              		.section	.text._ZN8UnitTest15MemoryOutStreamC1Ev,"axG",@progbits,_ZN8UnitTest15MemoryOutStreamC1Ev
  30              		.align 2
  31              		.weak	_ZN8UnitTest15MemoryOutStreamC1Ev
  33              	_ZN8UnitTest15MemoryOutStreamC1Ev:
  34              	.LFB1007:
  35              		.file 2 "../MemoryOutStream.h"
   1:../MemoryOutStream.h **** #ifndef UNITTEST_MEMORYOUTSTREAM_H
   2:../MemoryOutStream.h **** #define UNITTEST_MEMORYOUTSTREAM_H
   3:../MemoryOutStream.h **** 
   4:../MemoryOutStream.h **** #include "Config.h"
   5:../MemoryOutStream.h **** 
   6:../MemoryOutStream.h **** #ifndef UNITTEST_USE_CUSTOM_STREAMS
   7:../MemoryOutStream.h **** 
   8:../MemoryOutStream.h **** #include <sstream>
   9:../MemoryOutStream.h **** 
  10:../MemoryOutStream.h **** namespace UnitTest
  11:../MemoryOutStream.h **** {
  12:../MemoryOutStream.h **** 
  13:../MemoryOutStream.h **** class MemoryOutStream : public std::ostringstream
  14:../MemoryOutStream.h **** {
  15:../MemoryOutStream.h **** public:
  16:../MemoryOutStream.h ****     MemoryOutStream() {}
  36              		.loc 2 16 0
  37              		.cfi_startproc
  38              		.cfi_personality 0x3,__gxx_personality_v0
  39              		.cfi_lsda 0x3,.LLSDA1007
  40 0000 55       		pushq	%rbp
  41              		.cfi_def_cfa_offset 16
  42              		.cfi_offset 6, -16
  43 0001 4889E5   		movq	%rsp, %rbp
  44              		.cfi_def_cfa_register 6
  45 0004 53       		pushq	%rbx
  46 0005 4883EC18 		subq	$24, %rsp
  47              		.cfi_offset 3, -24
  48 0009 48897DE8 		movq	%rdi, -24(%rbp)
  49              	.LBB2:
  50              		.loc 2 16 0
  51 000d 488B45E8 		movq	-24(%rbp), %rax
  52 0011 4883C060 		addq	$96, %rax
  53 0015 4889C7   		movq	%rax, %rdi
  54              	.LEHB0:
  55 0018 E8000000 		call	_ZNSt9basic_iosIcSt11char_traitsIcEEC2Ev
  55      00
  56              	.LEHE0:
  57 001d B9000000 		movl	$_ZTTN8UnitTest15MemoryOutStreamE+8, %ecx
  57      00
  58 0022 488B45E8 		movq	-24(%rbp), %rax
  59 0026 BA100000 		movl	$16, %edx
  59      00
  60 002b 4889CE   		movq	%rcx, %rsi
  61 002e 4889C7   		movq	%rax, %rdi
  62              	.LEHB1:
  63 0031 E8000000 		call	_ZNSt19basic_ostringstreamIcSt11char_traitsIcESaIcEEC2ESt13_Ios_Openmode
  63      00
  64              	.LEHE1:
  65              		.loc 2 16 0 is_stmt 0 discriminator 6
  66 0036 BA000000 		movl	$_ZTVN8UnitTest15MemoryOutStreamE+24, %edx
  66      00
  67 003b 488B45E8 		movq	-24(%rbp), %rax
  68 003f 488910   		movq	%rdx, (%rax)
  69 0042 BA600000 		movl	$96, %edx
  69      00
  70 0047 488B45E8 		movq	-24(%rbp), %rax
  71 004b 4801C2   		addq	%rax, %rdx
  72 004e B8000000 		movl	$_ZTVN8UnitTest15MemoryOutStreamE+64, %eax
  72      00
  73 0053 488902   		movq	%rax, (%rdx)
  74 0056 488B45E8 		movq	-24(%rbp), %rax
  75 005a 4883C058 		addq	$88, %rax
  76 005e 4889C7   		movq	%rax, %rdi
  77              	.LEHB2:
  78 0061 E8000000 		call	_ZNSsC1Ev
  78      00
  79              	.LEHE2:
  80              	.LBE2:
  81              		.loc 2 16 0
  82 0066 EB37     		jmp	.L8
  83              	.L6:
  84 0068 4889C3   		movq	%rax, %rbx
  85              	.LBB3:
  86 006b BA000000 		movl	$_ZTTN8UnitTest15MemoryOutStreamE+8, %edx
  86      00
  87 0070 488B45E8 		movq	-24(%rbp), %rax
  88 0074 4889D6   		movq	%rdx, %rsi
  89 0077 4889C7   		movq	%rax, %rdi
  90 007a E8000000 		call	_ZNSt19basic_ostringstreamIcSt11char_traitsIcESaIcEED2Ev
  90      00
  91 007f EB03     		jmp	.L5
  92              	.L7:
  93 0081 4889C3   		movq	%rax, %rbx
  94              	.L5:
  95              		.loc 2 16 0 discriminator 19
  96 0084 488B45E8 		movq	-24(%rbp), %rax
  97 0088 4883C060 		addq	$96, %rax
  98 008c 4889C7   		movq	%rax, %rdi
  99 008f E8000000 		call	_ZNSt9basic_iosIcSt11char_traitsIcEED2Ev
  99      00
 100 0094 4889D8   		movq	%rbx, %rax
 101 0097 4889C7   		movq	%rax, %rdi
 102              	.LEHB3:
 103 009a E8000000 		call	_Unwind_Resume
 103      00
 104              	.LEHE3:
 105              	.L8:
 106              	.LBE3:
 107              		.loc 2 16 0
 108 009f 4883C418 		addq	$24, %rsp
 109 00a3 5B       		popq	%rbx
 110 00a4 5D       		popq	%rbp
 111              		.cfi_def_cfa 7, 8
 112 00a5 C3       		ret
 113              		.cfi_endproc
 114              	.LFE1007:
 115              		.globl	__gxx_personality_v0
 116              		.section	.gcc_except_table._ZN8UnitTest15MemoryOutStreamC1Ev,"aG",@progbits,_ZN8UnitTest15MemoryOu
 117              	.LLSDA1007:
 118 0000 FF       		.byte	0xff
 119 0001 FF       		.byte	0xff
 120 0002 01       		.byte	0x1
 121 0003 12       		.uleb128 .LLSDACSE1007-.LLSDACSB1007
 122              	.LLSDACSB1007:
 123 0004 18       		.uleb128 .LEHB0-.LFB1007
 124 0005 05       		.uleb128 .LEHE0-.LEHB0
 125 0006 00       		.uleb128 0
 126 0007 00       		.uleb128 0
 127 0008 31       		.uleb128 .LEHB1-.LFB1007
 128 0009 05       		.uleb128 .LEHE1-.LEHB1
 129 000a 8101     		.uleb128 .L7-.LFB1007
 130 000c 00       		.uleb128 0
 131 000d 61       		.uleb128 .LEHB2-.LFB1007
 132 000e 05       		.uleb128 .LEHE2-.LEHB2
 133 000f 68       		.uleb128 .L6-.LFB1007
 134 0010 00       		.uleb128 0
 135 0011 9A01     		.uleb128 .LEHB3-.LFB1007
 136 0013 05       		.uleb128 .LEHE3-.LEHB3
 137 0014 00       		.uleb128 0
 138 0015 00       		.uleb128 0
 139              	.LLSDACSE1007:
 140              		.section	.text._ZN8UnitTest15MemoryOutStreamC1Ev,"axG",@progbits,_ZN8UnitTest15MemoryOutStreamC1Ev
 142              		.section	.text._ZNK8UnitTest4TrueclEPKNS_4TestE,"axG",@progbits,_ZNK8UnitTest4TrueclEPKNS_4TestE,c
 143              		.align 2
 144              		.weak	_ZNK8UnitTest4TrueclEPKNS_4TestE
 146              	_ZNK8UnitTest4TrueclEPKNS_4TestE:
 147              	.LFB1017:
 148              		.file 3 "../TestRunner.h"
   1:../TestRunner.h **** #ifndef UNITTEST_TESTRUNNER_H
   2:../TestRunner.h **** #define UNITTEST_TESTRUNNER_H
   3:../TestRunner.h **** 
   4:../TestRunner.h **** #include "Test.h"
   5:../TestRunner.h **** #include "TestList.h"
   6:../TestRunner.h **** #include "CurrentTest.h"
   7:../TestRunner.h **** 
   8:../TestRunner.h **** namespace UnitTest {
   9:../TestRunner.h **** 
  10:../TestRunner.h **** class TestReporter;
  11:../TestRunner.h **** class TestResults;
  12:../TestRunner.h **** class Timer;
  13:../TestRunner.h **** 
  14:../TestRunner.h **** int RunAllTests();
  15:../TestRunner.h **** 
  16:../TestRunner.h **** struct True
  17:../TestRunner.h **** {
  18:../TestRunner.h **** 	bool operator()(const Test* const) const
 149              		.loc 3 18 0 is_stmt 1
 150              		.cfi_startproc
 151 0000 55       		pushq	%rbp
 152              		.cfi_def_cfa_offset 16
 153              		.cfi_offset 6, -16
 154 0001 4889E5   		movq	%rsp, %rbp
 155              		.cfi_def_cfa_register 6
 156 0004 48897DF8 		movq	%rdi, -8(%rbp)
 157 0008 488975F0 		movq	%rsi, -16(%rbp)
  19:../TestRunner.h **** 	{
  20:../TestRunner.h **** 		return true;	
 158              		.loc 3 20 0
 159 000c B8010000 		movl	$1, %eax
 159      00
  21:../TestRunner.h **** 	}
 160              		.loc 3 21 0
 161 0011 5D       		popq	%rbp
 162              		.cfi_def_cfa 7, 8
 163 0012 C3       		ret
 164              		.cfi_endproc
 165              	.LFE1017:
 167              		.section	.text._ZN8UnitTest12TestReporterC2Ev,"axG",@progbits,_ZN8UnitTest12TestReporterC5Ev,comda
 168              		.align 2
 169              		.weak	_ZN8UnitTest12TestReporterC2Ev
 171              	_ZN8UnitTest12TestReporterC2Ev:
 172              	.LFB1021:
 173              		.file 4 "../TestReporter.h"
   1:../TestReporter.h **** #ifndef UNITTEST_TESTREPORTER_H
   2:../TestReporter.h **** #define UNITTEST_TESTREPORTER_H
   3:../TestReporter.h **** 
   4:../TestReporter.h **** namespace UnitTest {
   5:../TestReporter.h **** 
   6:../TestReporter.h **** class TestDetails;
   7:../TestReporter.h **** 
   8:../TestReporter.h **** class TestReporter
 174              		.loc 4 8 0
 175              		.cfi_startproc
 176 0000 55       		pushq	%rbp
 177              		.cfi_def_cfa_offset 16
 178              		.cfi_offset 6, -16
 179 0001 4889E5   		movq	%rsp, %rbp
 180              		.cfi_def_cfa_register 6
 181 0004 48897DF8 		movq	%rdi, -8(%rbp)
 182              	.LBB4:
 183              		.loc 4 8 0
 184 0008 488B45F8 		movq	-8(%rbp), %rax
 185 000c 48C70000 		movq	$_ZTVN8UnitTest12TestReporterE+16, (%rax)
 185      000000
 186              	.LBE4:
 187 0013 5D       		popq	%rbp
 188              		.cfi_def_cfa 7, 8
 189 0014 C3       		ret
 190              		.cfi_endproc
 191              	.LFE1021:
 193              		.weak	_ZN8UnitTest12TestReporterC1Ev
 194              		.set	_ZN8UnitTest12TestReporterC1Ev,_ZN8UnitTest12TestReporterC2Ev
 195              		.section	.text._ZN17RecordingReporterC2Ev,"axG",@progbits,_ZN17RecordingReporterC5Ev,comdat
 196              		.align 2
 197              		.weak	_ZN17RecordingReporterC2Ev
 199              	_ZN17RecordingReporterC2Ev:
 200              	.LFB1023:
 201              		.file 5 "RecordingReporter.h"
   1:RecordingReporter.h **** #ifndef UNITTEST_RECORDINGREPORTER_H
   2:RecordingReporter.h **** #define UNITTEST_RECORDINGREPORTER_H
   3:RecordingReporter.h **** 
   4:RecordingReporter.h **** #include "../TestReporter.h"
   5:RecordingReporter.h **** #include <cstring>
   6:RecordingReporter.h **** 
   7:RecordingReporter.h **** #include "../TestDetails.h"
   8:RecordingReporter.h **** 
   9:RecordingReporter.h **** struct RecordingReporter : public UnitTest::TestReporter
  10:RecordingReporter.h **** {
  11:RecordingReporter.h **** private:
  12:RecordingReporter.h ****     enum { kMaxStringLength = 256 };
  13:RecordingReporter.h **** 
  14:RecordingReporter.h **** public:
  15:RecordingReporter.h ****     RecordingReporter()
 202              		.loc 5 15 0
 203              		.cfi_startproc
 204 0000 55       		pushq	%rbp
 205              		.cfi_def_cfa_offset 16
 206              		.cfi_offset 6, -16
 207 0001 4889E5   		movq	%rsp, %rbp
 208              		.cfi_def_cfa_register 6
 209 0004 4883EC10 		subq	$16, %rsp
 210 0008 48897DF8 		movq	%rdi, -8(%rbp)
 211              	.LBB5:
  16:RecordingReporter.h ****         : testRunCount(0)
  17:RecordingReporter.h ****         , testFailedCount(0)
  18:RecordingReporter.h ****         , lastFailedLine(0)
  19:RecordingReporter.h ****         , testFinishedCount(0)
  20:RecordingReporter.h ****         , lastFinishedTestTime(0)
  21:RecordingReporter.h ****         , summaryTotalTestCount(0)
  22:RecordingReporter.h ****         , summaryFailedTestCount(0)
  23:RecordingReporter.h ****         , summaryFailureCount(0)
  24:RecordingReporter.h ****         , summarySecondsElapsed(0)
 212              		.loc 5 24 0
 213 000c 488B45F8 		movq	-8(%rbp), %rax
 214 0010 4889C7   		movq	%rax, %rdi
 215 0013 E8000000 		call	_ZN8UnitTest12TestReporterC2Ev
 215      00
 216 0018 488B45F8 		movq	-8(%rbp), %rax
 217 001c 48C70000 		movq	$_ZTV17RecordingReporter+16, (%rax)
 217      000000
 218 0023 488B45F8 		movq	-8(%rbp), %rax
 219 0027 C7400800 		movl	$0, 8(%rax)
 219      000000
 220 002e 488B45F8 		movq	-8(%rbp), %rax
 221 0032 C7800C02 		movl	$0, 524(%rax)
 221      00000000 
 221      0000
 222 003c 488B45F8 		movq	-8(%rbp), %rax
 223 0040 C7801003 		movl	$0, 784(%rax)
 223      00000000 
 223      0000
 224 004a 488B45F8 		movq	-8(%rbp), %rax
 225 004e C7801406 		movl	$0, 1556(%rax)
 225      00000000 
 225      0000
 226 0058 488B55F8 		movq	-8(%rbp), %rdx
 227 005c 8B050000 		movl	.LC1(%rip), %eax
 227      0000
 228 0062 89821808 		movl	%eax, 2072(%rdx)
 228      0000
 229 0068 488B45F8 		movq	-8(%rbp), %rax
 230 006c C7801C08 		movl	$0, 2076(%rax)
 230      00000000 
 230      0000
 231 0076 488B45F8 		movq	-8(%rbp), %rax
 232 007a C7802008 		movl	$0, 2080(%rax)
 232      00000000 
 232      0000
 233 0084 488B45F8 		movq	-8(%rbp), %rax
 234 0088 C7802408 		movl	$0, 2084(%rax)
 234      00000000 
 234      0000
 235 0092 488B55F8 		movq	-8(%rbp), %rdx
 236 0096 8B050000 		movl	.LC1(%rip), %eax
 236      0000
 237 009c 89822808 		movl	%eax, 2088(%rdx)
 237      0000
  25:RecordingReporter.h ****     {
  26:RecordingReporter.h ****         lastStartedSuite[0] = '\0';
 238              		.loc 5 26 0
 239 00a2 488B45F8 		movq	-8(%rbp), %rax
 240 00a6 C6400C00 		movb	$0, 12(%rax)
  27:RecordingReporter.h ****         lastStartedTest[0] = '\0';
 241              		.loc 5 27 0
 242 00aa 488B45F8 		movq	-8(%rbp), %rax
 243 00ae C6800C01 		movb	$0, 268(%rax)
 243      000000
  28:RecordingReporter.h ****         lastFailedFile[0] = '\0';
 244              		.loc 5 28 0
 245 00b5 488B45F8 		movq	-8(%rbp), %rax
 246 00b9 C6801002 		movb	$0, 528(%rax)
 246      000000
  29:RecordingReporter.h ****         lastFailedSuite[0] = '\0';
 247              		.loc 5 29 0
 248 00c0 488B45F8 		movq	-8(%rbp), %rax
 249 00c4 C6801403 		movb	$0, 788(%rax)
 249      000000
  30:RecordingReporter.h ****         lastFailedTest[0] = '\0';
 250              		.loc 5 30 0
 251 00cb 488B45F8 		movq	-8(%rbp), %rax
 252 00cf C6801404 		movb	$0, 1044(%rax)
 252      000000
  31:RecordingReporter.h ****         lastFailedMessage[0] = '\0';
 253              		.loc 5 31 0
 254 00d6 488B45F8 		movq	-8(%rbp), %rax
 255 00da C6801405 		movb	$0, 1300(%rax)
 255      000000
  32:RecordingReporter.h ****         lastFinishedSuite[0] = '\0';
 256              		.loc 5 32 0
 257 00e1 488B45F8 		movq	-8(%rbp), %rax
 258 00e5 C6801806 		movb	$0, 1560(%rax)
 258      000000
  33:RecordingReporter.h ****         lastFinishedTest[0] = '\0';
 259              		.loc 5 33 0
 260 00ec 488B45F8 		movq	-8(%rbp), %rax
 261 00f0 C6801807 		movb	$0, 1816(%rax)
 261      000000
 262              	.LBE5:
  34:RecordingReporter.h ****     }
 263              		.loc 5 34 0
 264 00f7 C9       		leave
 265              		.cfi_def_cfa 7, 8
 266 00f8 C3       		ret
 267              		.cfi_endproc
 268              	.LFE1023:
 270              		.weak	_ZN17RecordingReporterC1Ev
 271              		.set	_ZN17RecordingReporterC1Ev,_ZN17RecordingReporterC2Ev
 272              		.section	.text._ZN17RecordingReporter15ReportTestStartERKN8UnitTest11TestDetailsE,"axG",@progbits,
 273              		.align 2
 274              		.weak	_ZN17RecordingReporter15ReportTestStartERKN8UnitTest11TestDetailsE
 276              	_ZN17RecordingReporter15ReportTestStartERKN8UnitTest11TestDetailsE:
 277              	.LFB1025:
  35:RecordingReporter.h **** 
  36:RecordingReporter.h ****     virtual void ReportTestStart(UnitTest::TestDetails const& test)
 278              		.loc 5 36 0
 279              		.cfi_startproc
 280 0000 55       		pushq	%rbp
 281              		.cfi_def_cfa_offset 16
 282              		.cfi_offset 6, -16
 283 0001 4889E5   		movq	%rsp, %rbp
 284              		.cfi_def_cfa_register 6
 285 0004 4883EC10 		subq	$16, %rsp
 286 0008 48897DF8 		movq	%rdi, -8(%rbp)
 287 000c 488975F0 		movq	%rsi, -16(%rbp)
 288              	.LBB6:
  37:RecordingReporter.h ****     {
  38:RecordingReporter.h **** 		using namespace std;
  39:RecordingReporter.h **** 
  40:RecordingReporter.h ****         ++testRunCount;
 289              		.loc 5 40 0
 290 0010 488B45F8 		movq	-8(%rbp), %rax
 291 0014 8B4008   		movl	8(%rax), %eax
 292 0017 8D5001   		leal	1(%rax), %edx
 293 001a 488B45F8 		movq	-8(%rbp), %rax
 294 001e 895008   		movl	%edx, 8(%rax)
  41:RecordingReporter.h ****         strcpy(lastStartedSuite, test.suiteName);
 295              		.loc 5 41 0
 296 0021 488B45F0 		movq	-16(%rbp), %rax
 297 0025 488B00   		movq	(%rax), %rax
 298 0028 488B55F8 		movq	-8(%rbp), %rdx
 299 002c 4883C20C 		addq	$12, %rdx
 300 0030 4889C6   		movq	%rax, %rsi
 301 0033 4889D7   		movq	%rdx, %rdi
 302 0036 E8000000 		call	strcpy
 302      00
  42:RecordingReporter.h ****         strcpy(lastStartedTest, test.testName);
 303              		.loc 5 42 0
 304 003b 488B45F0 		movq	-16(%rbp), %rax
 305 003f 488B4008 		movq	8(%rax), %rax
 306 0043 488B55F8 		movq	-8(%rbp), %rdx
 307 0047 4881C20C 		addq	$268, %rdx
 307      010000
 308 004e 4889C6   		movq	%rax, %rsi
 309 0051 4889D7   		movq	%rdx, %rdi
 310 0054 E8000000 		call	strcpy
 310      00
 311              	.LBE6:
  43:RecordingReporter.h ****     }
 312              		.loc 5 43 0
 313 0059 C9       		leave
 314              		.cfi_def_cfa 7, 8
 315 005a C3       		ret
 316              		.cfi_endproc
 317              	.LFE1025:
 319              		.section	.text._ZN17RecordingReporter13ReportFailureERKN8UnitTest11TestDetailsEPKc,"axG",@progbits
 320              		.align 2
 321              		.weak	_ZN17RecordingReporter13ReportFailureERKN8UnitTest11TestDetailsEPKc
 323              	_ZN17RecordingReporter13ReportFailureERKN8UnitTest11TestDetailsEPKc:
 324              	.LFB1026:
  44:RecordingReporter.h **** 
  45:RecordingReporter.h ****     virtual void ReportFailure(UnitTest::TestDetails const& test, char const* failure)
 325              		.loc 5 45 0
 326              		.cfi_startproc
 327 0000 55       		pushq	%rbp
 328              		.cfi_def_cfa_offset 16
 329              		.cfi_offset 6, -16
 330 0001 4889E5   		movq	%rsp, %rbp
 331              		.cfi_def_cfa_register 6
 332 0004 4883EC20 		subq	$32, %rsp
 333 0008 48897DF8 		movq	%rdi, -8(%rbp)
 334 000c 488975F0 		movq	%rsi, -16(%rbp)
 335 0010 488955E8 		movq	%rdx, -24(%rbp)
 336              	.LBB7:
  46:RecordingReporter.h ****     {
  47:RecordingReporter.h **** 		using namespace std;
  48:RecordingReporter.h **** 
  49:RecordingReporter.h **** 		++testFailedCount;
 337              		.loc 5 49 0
 338 0014 488B45F8 		movq	-8(%rbp), %rax
 339 0018 8B800C02 		movl	524(%rax), %eax
 339      0000
 340 001e 8D5001   		leal	1(%rax), %edx
 341 0021 488B45F8 		movq	-8(%rbp), %rax
 342 0025 89900C02 		movl	%edx, 524(%rax)
 342      0000
  50:RecordingReporter.h ****         strcpy(lastFailedFile, test.filename);
 343              		.loc 5 50 0
 344 002b 488B45F0 		movq	-16(%rbp), %rax
 345 002f 488B4010 		movq	16(%rax), %rax
 346 0033 488B55F8 		movq	-8(%rbp), %rdx
 347 0037 4881C210 		addq	$528, %rdx
 347      020000
 348 003e 4889C6   		movq	%rax, %rsi
 349 0041 4889D7   		movq	%rdx, %rdi
 350 0044 E8000000 		call	strcpy
 350      00
  51:RecordingReporter.h ****         lastFailedLine = test.lineNumber;
 351              		.loc 5 51 0
 352 0049 488B45F0 		movq	-16(%rbp), %rax
 353 004d 8B5018   		movl	24(%rax), %edx
 354 0050 488B45F8 		movq	-8(%rbp), %rax
 355 0054 89901003 		movl	%edx, 784(%rax)
 355      0000
  52:RecordingReporter.h ****         strcpy(lastFailedSuite, test.suiteName);
 356              		.loc 5 52 0
 357 005a 488B45F0 		movq	-16(%rbp), %rax
 358 005e 488B00   		movq	(%rax), %rax
 359 0061 488B55F8 		movq	-8(%rbp), %rdx
 360 0065 4881C214 		addq	$788, %rdx
 360      030000
 361 006c 4889C6   		movq	%rax, %rsi
 362 006f 4889D7   		movq	%rdx, %rdi
 363 0072 E8000000 		call	strcpy
 363      00
  53:RecordingReporter.h ****         strcpy(lastFailedTest, test.testName);
 364              		.loc 5 53 0
 365 0077 488B45F0 		movq	-16(%rbp), %rax
 366 007b 488B4008 		movq	8(%rax), %rax
 367 007f 488B55F8 		movq	-8(%rbp), %rdx
 368 0083 4881C214 		addq	$1044, %rdx
 368      040000
 369 008a 4889C6   		movq	%rax, %rsi
 370 008d 4889D7   		movq	%rdx, %rdi
 371 0090 E8000000 		call	strcpy
 371      00
  54:RecordingReporter.h ****         strcpy(lastFailedMessage, failure);
 372              		.loc 5 54 0
 373 0095 488B45F8 		movq	-8(%rbp), %rax
 374 0099 488D9014 		leaq	1300(%rax), %rdx
 374      050000
 375 00a0 488B45E8 		movq	-24(%rbp), %rax
 376 00a4 4889C6   		movq	%rax, %rsi
 377 00a7 4889D7   		movq	%rdx, %rdi
 378 00aa E8000000 		call	strcpy
 378      00
 379              	.LBE7:
  55:RecordingReporter.h ****     }
 380              		.loc 5 55 0
 381 00af C9       		leave
 382              		.cfi_def_cfa 7, 8
 383 00b0 C3       		ret
 384              		.cfi_endproc
 385              	.LFE1026:
 387              		.section	.text._ZN17RecordingReporter16ReportTestFinishERKN8UnitTest11TestDetailsEf,"axG",@progbit
 388              		.align 2
 389              		.weak	_ZN17RecordingReporter16ReportTestFinishERKN8UnitTest11TestDetailsEf
 391              	_ZN17RecordingReporter16ReportTestFinishERKN8UnitTest11TestDetailsEf:
 392              	.LFB1027:
  56:RecordingReporter.h **** 
  57:RecordingReporter.h ****     virtual void ReportTestFinish(UnitTest::TestDetails const& test, float testDuration)
 393              		.loc 5 57 0
 394              		.cfi_startproc
 395 0000 55       		pushq	%rbp
 396              		.cfi_def_cfa_offset 16
 397              		.cfi_offset 6, -16
 398 0001 4889E5   		movq	%rsp, %rbp
 399              		.cfi_def_cfa_register 6
 400 0004 4883EC20 		subq	$32, %rsp
 401 0008 48897DF8 		movq	%rdi, -8(%rbp)
 402 000c 488975F0 		movq	%rsi, -16(%rbp)
 403 0010 F30F1145 		movss	%xmm0, -20(%rbp)
 403      EC
 404              	.LBB8:
  58:RecordingReporter.h ****     {
  59:RecordingReporter.h **** 		using namespace std;
  60:RecordingReporter.h **** 
  61:RecordingReporter.h **** 		++testFinishedCount;
 405              		.loc 5 61 0
 406 0015 488B45F8 		movq	-8(%rbp), %rax
 407 0019 8B801406 		movl	1556(%rax), %eax
 407      0000
 408 001f 8D5001   		leal	1(%rax), %edx
 409 0022 488B45F8 		movq	-8(%rbp), %rax
 410 0026 89901406 		movl	%edx, 1556(%rax)
 410      0000
  62:RecordingReporter.h ****         strcpy(lastFinishedSuite, test.suiteName);
 411              		.loc 5 62 0
 412 002c 488B45F0 		movq	-16(%rbp), %rax
 413 0030 488B00   		movq	(%rax), %rax
 414 0033 488B55F8 		movq	-8(%rbp), %rdx
 415 0037 4881C218 		addq	$1560, %rdx
 415      060000
 416 003e 4889C6   		movq	%rax, %rsi
 417 0041 4889D7   		movq	%rdx, %rdi
 418 0044 E8000000 		call	strcpy
 418      00
  63:RecordingReporter.h ****         strcpy(lastFinishedTest, test.testName);
 419              		.loc 5 63 0
 420 0049 488B45F0 		movq	-16(%rbp), %rax
 421 004d 488B4008 		movq	8(%rax), %rax
 422 0051 488B55F8 		movq	-8(%rbp), %rdx
 423 0055 4881C218 		addq	$1816, %rdx
 423      070000
 424 005c 4889C6   		movq	%rax, %rsi
 425 005f 4889D7   		movq	%rdx, %rdi
 426 0062 E8000000 		call	strcpy
 426      00
  64:RecordingReporter.h ****         lastFinishedTestTime = testDuration;
 427              		.loc 5 64 0
 428 0067 488B55F8 		movq	-8(%rbp), %rdx
 429 006b 8B45EC   		movl	-20(%rbp), %eax
 430 006e 89821808 		movl	%eax, 2072(%rdx)
 430      0000
 431              	.LBE8:
  65:RecordingReporter.h ****     }
 432              		.loc 5 65 0
 433 0074 C9       		leave
 434              		.cfi_def_cfa 7, 8
 435 0075 C3       		ret
 436              		.cfi_endproc
 437              	.LFE1027:
 439              		.section	.text._ZN17RecordingReporter13ReportSummaryEiiif,"axG",@progbits,_ZN17RecordingReporter13
 440              		.align 2
 441              		.weak	_ZN17RecordingReporter13ReportSummaryEiiif
 443              	_ZN17RecordingReporter13ReportSummaryEiiif:
 444              	.LFB1028:
  66:RecordingReporter.h **** 
  67:RecordingReporter.h ****     virtual void ReportSummary(int totalTestCount, int failedTestCount, int failureCount, float sec
 445              		.loc 5 67 0
 446              		.cfi_startproc
 447 0000 55       		pushq	%rbp
 448              		.cfi_def_cfa_offset 16
 449              		.cfi_offset 6, -16
 450 0001 4889E5   		movq	%rsp, %rbp
 451              		.cfi_def_cfa_register 6
 452 0004 48897DF8 		movq	%rdi, -8(%rbp)
 453 0008 8975F4   		movl	%esi, -12(%rbp)
 454 000b 8955F0   		movl	%edx, -16(%rbp)
 455 000e 894DEC   		movl	%ecx, -20(%rbp)
 456 0011 F30F1145 		movss	%xmm0, -24(%rbp)
 456      E8
  68:RecordingReporter.h ****     {
  69:RecordingReporter.h ****         summaryTotalTestCount = totalTestCount;
 457              		.loc 5 69 0
 458 0016 488B45F8 		movq	-8(%rbp), %rax
 459 001a 8B55F4   		movl	-12(%rbp), %edx
 460 001d 89901C08 		movl	%edx, 2076(%rax)
 460      0000
  70:RecordingReporter.h ****         summaryFailedTestCount = failedTestCount;
 461              		.loc 5 70 0
 462 0023 488B45F8 		movq	-8(%rbp), %rax
 463 0027 8B55F0   		movl	-16(%rbp), %edx
 464 002a 89902008 		movl	%edx, 2080(%rax)
 464      0000
  71:RecordingReporter.h ****         summaryFailureCount = failureCount;
 465              		.loc 5 71 0
 466 0030 488B45F8 		movq	-8(%rbp), %rax
 467 0034 8B55EC   		movl	-20(%rbp), %edx
 468 0037 89902408 		movl	%edx, 2084(%rax)
 468      0000
  72:RecordingReporter.h ****         summarySecondsElapsed = secondsElapsed;
 469              		.loc 5 72 0
 470 003d 488B55F8 		movq	-8(%rbp), %rdx
 471 0041 8B45E8   		movl	-24(%rbp), %eax
 472 0044 89822808 		movl	%eax, 2088(%rdx)
 472      0000
  73:RecordingReporter.h ****     }
 473              		.loc 5 73 0
 474 004a 5D       		popq	%rbp
 475              		.cfi_def_cfa 7, 8
 476 004b C3       		ret
 477              		.cfi_endproc
 478              	.LFE1028:
 480              		.section	.rodata
 481              	.LC2:
 482 000d 00       		.string	""
 483              		.text
 484              		.align 2
 486              	_ZN12_GLOBAL__N_18MockTestC2EPKcbbi:
 487              	.LFB1030:
 488              		.file 6 "TestTestRunner.cpp"
   1:TestTestRunner.cpp **** #include "../UnitTest++.h"
   2:TestTestRunner.cpp **** #include "RecordingReporter.h"
   3:TestTestRunner.cpp **** #include "../ReportAssert.h"
   4:TestTestRunner.cpp **** #include "../TestList.h"
   5:TestTestRunner.cpp **** #include "../TimeHelpers.h"
   6:TestTestRunner.cpp **** #include "../TimeConstraint.h"
   7:TestTestRunner.cpp **** 
   8:TestTestRunner.cpp **** using namespace UnitTest;
   9:TestTestRunner.cpp **** 
  10:TestTestRunner.cpp **** namespace
  11:TestTestRunner.cpp **** {
  12:TestTestRunner.cpp **** 
  13:TestTestRunner.cpp **** struct MockTest : public Test
  14:TestTestRunner.cpp **** {
  15:TestTestRunner.cpp ****     MockTest(char const* testName, bool const success_, bool const assert_, int const count_ = 1)
 489              		.loc 6 15 0
 490              		.cfi_startproc
 491 0000 55       		pushq	%rbp
 492              		.cfi_def_cfa_offset 16
 493              		.cfi_offset 6, -16
 494 0001 4889E5   		movq	%rsp, %rbp
 495              		.cfi_def_cfa_register 6
 496 0004 4883EC20 		subq	$32, %rsp
 497 0008 48897DF8 		movq	%rdi, -8(%rbp)
 498 000c 488975F0 		movq	%rsi, -16(%rbp)
 499 0010 89C8     		movl	%ecx, %eax
 500 0012 448945E4 		movl	%r8d, -28(%rbp)
 501 0016 8855EC   		movb	%dl, -20(%rbp)
 502 0019 8845E8   		movb	%al, -24(%rbp)
 503              	.LBB9:
  16:TestTestRunner.cpp ****         : Test(testName)
  17:TestTestRunner.cpp ****         , success(success_)
  18:TestTestRunner.cpp ****         , asserted(assert_)
  19:TestTestRunner.cpp ****         , count(count_)
 504              		.loc 6 19 0
 505 001c 488B45F8 		movq	-8(%rbp), %rax
 506 0020 488B75F0 		movq	-16(%rbp), %rsi
 507 0024 41B80000 		movl	$0, %r8d
 507      0000
 508 002a B9000000 		movl	$.LC2, %ecx
 508      00
 509 002f BA000000 		movl	$.LC0, %edx
 509      00
 510 0034 4889C7   		movq	%rax, %rdi
 511 0037 E8000000 		call	_ZN8UnitTest4TestC2EPKcS2_S2_i
 511      00
 512 003c 488B45F8 		movq	-8(%rbp), %rax
 513 0040 48C70000 		movq	$_ZTVN12_GLOBAL__N_18MockTestE+16, (%rax)
 513      000000
 514 0047 488B45F8 		movq	-8(%rbp), %rax
 515 004b 0FB655EC 		movzbl	-20(%rbp), %edx
 516 004f 885031   		movb	%dl, 49(%rax)
 517 0052 488B45F8 		movq	-8(%rbp), %rax
 518 0056 0FB655E8 		movzbl	-24(%rbp), %edx
 519 005a 885032   		movb	%dl, 50(%rax)
 520 005d 488B45F8 		movq	-8(%rbp), %rax
 521 0061 8B55E4   		movl	-28(%rbp), %edx
 522 0064 895034   		movl	%edx, 52(%rax)
 523              	.LBE9:
  20:TestTestRunner.cpp ****     {
  21:TestTestRunner.cpp ****     }
 524              		.loc 6 21 0
 525 0067 C9       		leave
 526              		.cfi_def_cfa 7, 8
 527 0068 C3       		ret
 528              		.cfi_endproc
 529              	.LFE1030:
 531              		.set	_ZN12_GLOBAL__N_18MockTestC1EPKcbbi,_ZN12_GLOBAL__N_18MockTestC2EPKcbbi
 532              		.section	.rodata
 533              	.LC3:
 534 000e 66696C65 		.string	"file"
 534      00
 535              	.LC4:
 536 0013 64657363 		.string	"desc"
 536      00
 537              	.LC5:
 538 0018 6D657373 		.string	"message"
 538      61676500 
 539              		.text
 540 0069 90       		.align 2
 542              	_ZNK12_GLOBAL__N_18MockTest7RunImplEv:
 543              	.LFB1032:
  22:TestTestRunner.cpp **** 
  23:TestTestRunner.cpp ****     virtual void RunImpl() const
 544              		.loc 6 23 0
 545              		.cfi_startproc
 546 006a 55       		pushq	%rbp
 547              		.cfi_def_cfa_offset 16
 548              		.cfi_offset 6, -16
 549 006b 4889E5   		movq	%rsp, %rbp
 550              		.cfi_def_cfa_register 6
 551 006e 4883EC20 		subq	$32, %rsp
 552 0072 48897DE8 		movq	%rdi, -24(%rbp)
 553              	.LBB10:
  24:TestTestRunner.cpp ****     {
  25:TestTestRunner.cpp **** 		TestResults& testResults_ = *CurrentTest::Results();
 554              		.loc 6 25 0
 555 0076 E8000000 		call	_ZN8UnitTest11CurrentTest7ResultsEv
 555      00
 556 007b 488B00   		movq	(%rax), %rax
 557 007e 488945F8 		movq	%rax, -8(%rbp)
 558              	.LBB11:
  26:TestTestRunner.cpp ****         for (int i=0; i < count; ++i)
 559              		.loc 6 26 0
 560 0082 C745F400 		movl	$0, -12(%rbp)
 560      000000
 561 0089 EB51     		jmp	.L19
 562              	.L22:
  27:TestTestRunner.cpp ****         {
  28:TestTestRunner.cpp ****             if (asserted)
 563              		.loc 6 28 0
 564 008b 488B45E8 		movq	-24(%rbp), %rax
 565 008f 0FB64032 		movzbl	50(%rax), %eax
 566 0093 84C0     		testb	%al, %al
 567 0095 7416     		je	.L20
  29:TestTestRunner.cpp ****                 ReportAssert("desc", "file", 0);
 568              		.loc 6 29 0
 569 0097 BA000000 		movl	$0, %edx
 569      00
 570 009c BE000000 		movl	$.LC3, %esi
 570      00
 571 00a1 BF000000 		movl	$.LC4, %edi
 571      00
 572 00a6 E8000000 		call	_ZN8UnitTest12ReportAssertEPKcS1_i
 572      00
 573 00ab EB2B     		jmp	.L21
 574              	.L20:
  30:TestTestRunner.cpp ****             else if (!success)
 575              		.loc 6 30 0
 576 00ad 488B45E8 		movq	-24(%rbp), %rax
 577 00b1 0FB64031 		movzbl	49(%rax), %eax
 578 00b5 83F001   		xorl	$1, %eax
 579 00b8 84C0     		testb	%al, %al
 580 00ba 741C     		je	.L21
  31:TestTestRunner.cpp ****                 testResults_.OnTestFailure(m_details, "message");
 581              		.loc 6 31 0
 582 00bc 488B45E8 		movq	-24(%rbp), %rax
 583 00c0 488D4808 		leaq	8(%rax), %rcx
 584 00c4 488B45F8 		movq	-8(%rbp), %rax
 585 00c8 BA000000 		movl	$.LC5, %edx
 585      00
 586 00cd 4889CE   		movq	%rcx, %rsi
 587 00d0 4889C7   		movq	%rax, %rdi
 588 00d3 E8000000 		call	_ZN8UnitTest11TestResults13OnTestFailureERKNS_11TestDetailsEPKc
 588      00
 589              	.L21:
  26:TestTestRunner.cpp ****         {
 590              		.loc 6 26 0
 591 00d8 8345F401 		addl	$1, -12(%rbp)
 592              	.L19:
  26:TestTestRunner.cpp ****         {
 593              		.loc 6 26 0 is_stmt 0 discriminator 1
 594 00dc 488B45E8 		movq	-24(%rbp), %rax
 595 00e0 8B4034   		movl	52(%rax), %eax
 596 00e3 3B45F4   		cmpl	-12(%rbp), %eax
 597 00e6 7FA3     		jg	.L22
 598              	.LBE11:
 599              	.LBE10:
  32:TestTestRunner.cpp ****         }
  33:TestTestRunner.cpp ****     }
 600              		.loc 6 33 0 is_stmt 1
 601 00e8 C9       		leave
 602              		.cfi_def_cfa 7, 8
 603 00e9 C3       		ret
 604              		.cfi_endproc
 605              	.LFE1032:
 607              		.align 2
 609              	_ZN12_GLOBAL__N_111FixtureBaseC2Ev:
 610              	.LFB1034:
  34:TestTestRunner.cpp **** 
  35:TestTestRunner.cpp ****     bool const success;
  36:TestTestRunner.cpp ****     bool const asserted;
  37:TestTestRunner.cpp ****     int const count;
  38:TestTestRunner.cpp **** };
  39:TestTestRunner.cpp **** 
  40:TestTestRunner.cpp **** struct FixtureBase {
  41:TestTestRunner.cpp **** 	explicit FixtureBase() : runner(reporter) { }
 611              		.loc 6 41 0
 612              		.cfi_startproc
 613 00ea 55       		pushq	%rbp
 614              		.cfi_def_cfa_offset 16
 615              		.cfi_offset 6, -16
 616 00eb 4889E5   		movq	%rsp, %rbp
 617              		.cfi_def_cfa_register 6
 618 00ee 4883EC10 		subq	$16, %rsp
 619 00f2 48897DF8 		movq	%rdi, -8(%rbp)
 620              	.LBB12:
 621              		.loc 6 41 0
 622 00f6 488B45F8 		movq	-8(%rbp), %rax
 623 00fa 488D5018 		leaq	24(%rax), %rdx
 624 00fe 488B45F8 		movq	-8(%rbp), %rax
 625 0102 4889D6   		movq	%rdx, %rsi
 626 0105 4889C7   		movq	%rax, %rdi
 627 0108 E8000000 		call	_ZN8UnitTest10TestRunnerC1ERNS_12TestReporterE
 627      00
 628 010d 488B45F8 		movq	-8(%rbp), %rax
 629 0111 4883C018 		addq	$24, %rax
 630 0115 4889C7   		movq	%rax, %rdi
 631 0118 E8000000 		call	_ZN17RecordingReporterC1Ev
 631      00
 632              	.LBE12:
 633 011d C9       		leave
 634              		.cfi_def_cfa 7, 8
 635 011e C3       		ret
 636              		.cfi_endproc
 637              	.LFE1034:
 639 011f 90       		.align 2
 641              	_ZN12_GLOBAL__N_111FixtureBaseD2Ev:
 642              	.LFB1040:
  40:TestTestRunner.cpp **** 	explicit FixtureBase() : runner(reporter) { }
 643              		.loc 6 40 0
 644              		.cfi_startproc
 645              		.cfi_personality 0x3,__gxx_personality_v0
 646              		.cfi_lsda 0x3,.LLSDA1040
 647 0120 55       		pushq	%rbp
 648              		.cfi_def_cfa_offset 16
 649              		.cfi_offset 6, -16
 650 0121 4889E5   		movq	%rsp, %rbp
 651              		.cfi_def_cfa_register 6
 652 0124 53       		pushq	%rbx
 653 0125 4883EC18 		subq	$24, %rsp
 654              		.cfi_offset 3, -24
 655 0129 48897DE8 		movq	%rdi, -24(%rbp)
 656              	.LBB13:
  40:TestTestRunner.cpp **** 	explicit FixtureBase() : runner(reporter) { }
 657              		.loc 6 40 0
 658 012d 488B45E8 		movq	-24(%rbp), %rax
 659 0131 4883C018 		addq	$24, %rax
 660 0135 4889C7   		movq	%rax, %rdi
 661              	.LEHB4:
 662 0138 E8000000 		call	_ZN17RecordingReporterD1Ev
 662      00
 663              	.LEHE4:
  40:TestTestRunner.cpp **** 	explicit FixtureBase() : runner(reporter) { }
 664              		.loc 6 40 0 is_stmt 0 discriminator 1
 665 013d 488B45E8 		movq	-24(%rbp), %rax
 666 0141 4889C7   		movq	%rax, %rdi
 667              	.LEHB5:
 668 0144 E8000000 		call	_ZN8UnitTest10TestRunnerD1Ev
 668      00
 669              	.LEHE5:
 670 0149 EB1A     		jmp	.L28
 671              	.L27:
 672 014b 4889C3   		movq	%rax, %rbx
  40:TestTestRunner.cpp **** 	explicit FixtureBase() : runner(reporter) { }
 673              		.loc 6 40 0
 674 014e 488B45E8 		movq	-24(%rbp), %rax
 675 0152 4889C7   		movq	%rax, %rdi
 676 0155 E8000000 		call	_ZN8UnitTest10TestRunnerD1Ev
 676      00
 677 015a 4889D8   		movq	%rbx, %rax
 678 015d 4889C7   		movq	%rax, %rdi
 679              	.LEHB6:
 680 0160 E8000000 		call	_Unwind_Resume
 680      00
 681              	.LEHE6:
 682              	.L28:
 683              	.LBE13:
 684 0165 4883C418 		addq	$24, %rsp
 685 0169 5B       		popq	%rbx
 686 016a 5D       		popq	%rbp
 687              		.cfi_def_cfa 7, 8
 688 016b C3       		ret
 689              		.cfi_endproc
 690              	.LFE1040:
 691              		.section	.gcc_except_table,"a",@progbits
 692              	.LLSDA1040:
 693 0000 FF       		.byte	0xff
 694 0001 FF       		.byte	0xff
 695 0002 01       		.byte	0x1
 696 0003 0C       		.uleb128 .LLSDACSE1040-.LLSDACSB1040
 697              	.LLSDACSB1040:
 698 0004 18       		.uleb128 .LEHB4-.LFB1040
 699 0005 05       		.uleb128 .LEHE4-.LEHB4
 700 0006 2B       		.uleb128 .L27-.LFB1040
 701 0007 00       		.uleb128 0
 702 0008 24       		.uleb128 .LEHB5-.LFB1040
 703 0009 05       		.uleb128 .LEHE5-.LEHB5
 704 000a 00       		.uleb128 0
 705 000b 00       		.uleb128 0
 706 000c 40       		.uleb128 .LEHB6-.LFB1040
 707 000d 05       		.uleb128 .LEHE6-.LEHB6
 708 000e 00       		.uleb128 0
 709 000f 00       		.uleb128 0
 710              	.LLSDACSE1040:
 711              		.text
 713              		.align 2
 715              	_ZN12_GLOBAL__N_117TestRunnerFixtureC2Ev:
 716              	.LFB1042:
  42:TestTestRunner.cpp **** 	template <class Predicate>
  43:TestTestRunner.cpp **** 	int RunTestsIf(TestList const& list, char const* suiteName, 
  44:TestTestRunner.cpp **** 				   const Predicate& predicate, int maxTestTimeInMs)
  45:TestTestRunner.cpp **** 	{
  46:TestTestRunner.cpp **** 		TestResults* oldResults = CurrentTest::Results();
  47:TestTestRunner.cpp **** 		const TestDetails* oldDetails = CurrentTest::Details();
  48:TestTestRunner.cpp **** 		int result = runner.RunTestsIf(list, suiteName, predicate, maxTestTimeInMs);
  49:TestTestRunner.cpp **** 		CurrentTest::Results() = oldResults;
  50:TestTestRunner.cpp **** 		CurrentTest::Details() = oldDetails;
  51:TestTestRunner.cpp **** 		return result;
  52:TestTestRunner.cpp **** 	}
  53:TestTestRunner.cpp **** 	TestRunner runner;
  54:TestTestRunner.cpp ****     RecordingReporter reporter;
  55:TestTestRunner.cpp **** };
  56:TestTestRunner.cpp **** 
  57:TestTestRunner.cpp **** struct TestRunnerFixture : public FixtureBase
 717              		.loc 6 57 0 is_stmt 1
 718              		.cfi_startproc
 719              		.cfi_personality 0x3,__gxx_personality_v0
 720              		.cfi_lsda 0x3,.LLSDA1042
 721 016c 55       		pushq	%rbp
 722              		.cfi_def_cfa_offset 16
 723              		.cfi_offset 6, -16
 724 016d 4889E5   		movq	%rsp, %rbp
 725              		.cfi_def_cfa_register 6
 726 0170 53       		pushq	%rbx
 727 0171 4883EC18 		subq	$24, %rsp
 728              		.cfi_offset 3, -24
 729 0175 48897DE8 		movq	%rdi, -24(%rbp)
 730              	.LBB14:
 731              		.loc 6 57 0
 732 0179 488B45E8 		movq	-24(%rbp), %rax
 733 017d 4889C7   		movq	%rax, %rdi
 734              	.LEHB7:
 735 0180 E865FFFF 		call	_ZN12_GLOBAL__N_111FixtureBaseC2Ev
 735      FF
 736              	.LEHE7:
 737 0185 488B45E8 		movq	-24(%rbp), %rax
 738 0189 48054808 		addq	$2120, %rax
 738      0000
 739 018f 4889C7   		movq	%rax, %rdi
 740              	.LEHB8:
 741 0192 E8000000 		call	_ZN8UnitTest8TestListC1Ev
 741      00
 742              	.LEHE8:
 743              	.LBE14:
 744 0197 EB1A     		jmp	.L32
 745              	.L31:
 746 0199 4889C3   		movq	%rax, %rbx
 747              	.LBB15:
 748 019c 488B45E8 		movq	-24(%rbp), %rax
 749 01a0 4889C7   		movq	%rax, %rdi
 750 01a3 E878FFFF 		call	_ZN12_GLOBAL__N_111FixtureBaseD2Ev
 750      FF
 751 01a8 4889D8   		movq	%rbx, %rax
 752 01ab 4889C7   		movq	%rax, %rdi
 753              	.LEHB9:
 754 01ae E8000000 		call	_Unwind_Resume
 754      00
 755              	.LEHE9:
 756              	.L32:
 757              	.LBE15:
 758 01b3 4883C418 		addq	$24, %rsp
 759 01b7 5B       		popq	%rbx
 760 01b8 5D       		popq	%rbp
 761              		.cfi_def_cfa 7, 8
 762 01b9 C3       		ret
 763              		.cfi_endproc
 764              	.LFE1042:
 765              		.section	.gcc_except_table
 766              	.LLSDA1042:
 767 0010 FF       		.byte	0xff
 768 0011 FF       		.byte	0xff
 769 0012 01       		.byte	0x1
 770 0013 0C       		.uleb128 .LLSDACSE1042-.LLSDACSB1042
 771              	.LLSDACSB1042:
 772 0014 14       		.uleb128 .LEHB7-.LFB1042
 773 0015 05       		.uleb128 .LEHE7-.LEHB7
 774 0016 00       		.uleb128 0
 775 0017 00       		.uleb128 0
 776 0018 26       		.uleb128 .LEHB8-.LFB1042
 777 0019 05       		.uleb128 .LEHE8-.LEHB8
 778 001a 2D       		.uleb128 .L31-.LFB1042
 779 001b 00       		.uleb128 0
 780 001c 42       		.uleb128 .LEHB9-.LFB1042
 781 001d 05       		.uleb128 .LEHE9-.LEHB9
 782 001e 00       		.uleb128 0
 783 001f 00       		.uleb128 0
 784              	.LLSDACSE1042:
 785              		.text
 787              		.align 2
 789              	_ZN12_GLOBAL__N_117TestRunnerFixtureD2Ev:
 790              	.LFB1045:
 791              		.loc 6 57 0
 792              		.cfi_startproc
 793 01ba 55       		pushq	%rbp
 794              		.cfi_def_cfa_offset 16
 795              		.cfi_offset 6, -16
 796 01bb 4889E5   		movq	%rsp, %rbp
 797              		.cfi_def_cfa_register 6
 798 01be 4883EC10 		subq	$16, %rsp
 799 01c2 48897DF8 		movq	%rdi, -8(%rbp)
 800              	.LBB16:
 801              		.loc 6 57 0
 802 01c6 488B45F8 		movq	-8(%rbp), %rax
 803 01ca 4889C7   		movq	%rax, %rdi
 804 01cd E84EFFFF 		call	_ZN12_GLOBAL__N_111FixtureBaseD2Ev
 804      FF
 805              	.LBE16:
 806 01d2 C9       		leave
 807              		.cfi_def_cfa 7, 8
 808 01d3 C3       		ret
 809              		.cfi_endproc
 810              	.LFE1045:
 812              		.align 2
 814              	_ZN12_GLOBAL__N_151TestRunnerFixtureTestStartIsReportedCorrectlyHelperC2ERKN8UnitTest11TestDetailsE
 815              	.LFB1047:
  58:TestTestRunner.cpp **** {
  59:TestTestRunner.cpp ****     TestList list;
  60:TestTestRunner.cpp **** };
  61:TestTestRunner.cpp **** 
  62:TestTestRunner.cpp **** TEST_FIXTURE(TestRunnerFixture, TestStartIsReportedCorrectly)
 816              		.loc 6 62 0
 817              		.cfi_startproc
 818 01d4 55       		pushq	%rbp
 819              		.cfi_def_cfa_offset 16
 820              		.cfi_offset 6, -16
 821 01d5 4889E5   		movq	%rsp, %rbp
 822              		.cfi_def_cfa_register 6
 823 01d8 4883EC10 		subq	$16, %rsp
 824 01dc 48897DF8 		movq	%rdi, -8(%rbp)
 825 01e0 488975F0 		movq	%rsi, -16(%rbp)
 826              	.LBB17:
 827              		.loc 6 62 0
 828 01e4 488B45F8 		movq	-8(%rbp), %rax
 829 01e8 4889C7   		movq	%rax, %rdi
 830 01eb E87CFFFF 		call	_ZN12_GLOBAL__N_117TestRunnerFixtureC2Ev
 830      FF
 831 01f0 488B45F8 		movq	-8(%rbp), %rax
 832 01f4 488B55F0 		movq	-16(%rbp), %rdx
 833 01f8 48899058 		movq	%rdx, 2136(%rax)
 833      080000
 834              	.LBE17:
 835 01ff C9       		leave
 836              		.cfi_def_cfa 7, 8
 837 0200 C3       		ret
 838              		.cfi_endproc
 839              	.LFE1047:
 841              		.set	_ZN12_GLOBAL__N_151TestRunnerFixtureTestStartIsReportedCorrectlyHelperC1ERKN8UnitTest11TestDe
 842              		.section	.rodata
 843              	.LC6:
 844 0020 54657374 		.string	"TestTestRunner.cpp"
 844      54657374 
 844      52756E6E 
 844      65722E63 
 844      707000
 845              	.LC7:
 846 0033 54657374 		.string	"TestStartIsReportedCorrectly"
 846      53746172 
 846      74497352 
 846      65706F72 
 846      74656443 
 847              		.text
 848 0201 90       		.align 2
 850              	_ZN12_GLOBAL__N_149TestTestRunnerFixtureTestStartIsReportedCorrectlyC2Ev:
 851              	.LFB1050:
 852              		.loc 6 62 0
 853              		.cfi_startproc
 854 0202 55       		pushq	%rbp
 855              		.cfi_def_cfa_offset 16
 856              		.cfi_offset 6, -16
 857 0203 4889E5   		movq	%rsp, %rbp
 858              		.cfi_def_cfa_register 6
 859 0206 4883EC10 		subq	$16, %rsp
 860 020a 48897DF8 		movq	%rdi, -8(%rbp)
 861              	.LBB18:
 862              		.loc 6 62 0
 863 020e E8000000 		call	_ZN13UnitTestSuite12GetSuiteNameEv
 863      00
 864 0213 4889C2   		movq	%rax, %rdx
 865 0216 488B45F8 		movq	-8(%rbp), %rax
 866 021a 41B83E00 		movl	$62, %r8d
 866      0000
 867 0220 B9000000 		movl	$.LC6, %ecx
 867      00
 868 0225 BE000000 		movl	$.LC7, %esi
 868      00
 869 022a 4889C7   		movq	%rax, %rdi
 870 022d E8000000 		call	_ZN8UnitTest4TestC2EPKcS2_S2_i
 870      00
 871 0232 488B45F8 		movq	-8(%rbp), %rax
 872 0236 48C70000 		movq	$_ZTVN12_GLOBAL__N_149TestTestRunnerFixtureTestStartIsReportedCorrectlyE+16, (%rax)
 872      000000
 873              	.LBE18:
 874 023d C9       		leave
 875              		.cfi_def_cfa 7, 8
 876 023e C3       		ret
 877              		.cfi_endproc
 878              	.LFE1050:
 880              		.set	_ZN12_GLOBAL__N_149TestTestRunnerFixtureTestStartIsReportedCorrectlyC1Ev,_ZN12_GLOBAL__N_149T
 881              		.local	_ZN12_GLOBAL__N_157testTestRunnerFixtureTestStartIsReportedCorrectlyInstanceE
 882              		.comm	_ZN12_GLOBAL__N_157testTestRunnerFixtureTestStartIsReportedCorrectlyInstanceE,56,32
 883              		.local	_ZN12_GLOBAL__N_150adderTestRunnerFixtureTestStartIsReportedCorrectlyE
 884              		.comm	_ZN12_GLOBAL__N_150adderTestRunnerFixtureTestStartIsReportedCorrectlyE,1,1
 885 023f 90       		.align 2
 887              	_ZN12_GLOBAL__N_151TestRunnerFixtureTestStartIsReportedCorrectlyHelperD2Ev:
 888              	.LFB1054:
 889              		.loc 6 62 0
 890              		.cfi_startproc
 891 0240 55       		pushq	%rbp
 892              		.cfi_def_cfa_offset 16
 893              		.cfi_offset 6, -16
 894 0241 4889E5   		movq	%rsp, %rbp
 895              		.cfi_def_cfa_register 6
 896 0244 4883EC10 		subq	$16, %rsp
 897 0248 48897DF8 		movq	%rdi, -8(%rbp)
 898              	.LBB19:
 899              		.loc 6 62 0
 900 024c 488B45F8 		movq	-8(%rbp), %rax
 901 0250 4889C7   		movq	%rax, %rdi
 902 0253 E862FFFF 		call	_ZN12_GLOBAL__N_117TestRunnerFixtureD2Ev
 902      FF
 903              	.LBE19:
 904 0258 C9       		leave
 905              		.cfi_def_cfa 7, 8
 906 0259 C3       		ret
 907              		.cfi_endproc
 908              	.LFE1054:
 910              		.set	_ZN12_GLOBAL__N_151TestRunnerFixtureTestStartIsReportedCorrectlyHelperD1Ev,_ZN12_GLOBAL__N_15
 911              		.section	.rodata
 912              	.LC8:
 913 0050 556E6861 		.string	"Unhandled exception: "
 913      6E646C65 
 913      64206578 
 913      63657074 
 913      696F6E3A 
 914 0066 0000     		.align 8
 915              	.LC9:
 916 0068 556E6861 		.string	"Unhandled exception while destroying fixture TestRunnerFixture"
 916      6E646C65 
 916      64206578 
 916      63657074 
 916      696F6E20 
 917 00a7 00       		.align 8
 918              	.LC10:
 919 00a8 556E6861 		.string	"Unhandled exception while constructing fixture TestRunnerFixture"
 919      6E646C65 
 919      64206578 
 919      63657074 
 919      696F6E20 
 920              		.text
 921              		.align 2
 923              	_ZNK12_GLOBAL__N_149TestTestRunnerFixtureTestStartIsReportedCorrectly7RunImplEv:
 924              	.LFB1052:
 925              		.loc 6 62 0
 926              		.cfi_startproc
 927              		.cfi_personality 0x3,__gxx_personality_v0
 928              		.cfi_lsda 0x3,.LLSDA1052
 929 025a 55       		pushq	%rbp
 930              		.cfi_def_cfa_offset 16
 931              		.cfi_offset 6, -16
 932 025b 4889E5   		movq	%rsp, %rbp
 933              		.cfi_def_cfa_register 6
 934 025e 4154     		pushq	%r12
 935 0260 53       		pushq	%rbx
 936 0261 4881EC10 		subq	$2576, %rsp
 936      0A0000
 937              		.cfi_offset 12, -24
 938              		.cfi_offset 3, -32
 939 0268 4889BDE8 		movq	%rdi, -2584(%rbp)
 939      F5FFFF
 940              		.loc 6 62 0
 941 026f 64488B04 		movq	%fs:40, %rax
 941      25280000 
 941      00
 942 0278 488945E8 		movq	%rax, -24(%rbp)
 943 027c 31C0     		xorl	%eax, %eax
 944              	.LBB20:
 945 027e C685FFF5 		movb	$0, -2561(%rbp)
 945      FFFF00
 946              	.LBB21:
 947 0285 488B85E8 		movq	-2584(%rbp), %rax
 947      F5FFFF
 948 028c 488D5008 		leaq	8(%rax), %rdx
 949 0290 488D8580 		leaq	-2176(%rbp), %rax
 949      F7FFFF
 950 0297 4889D6   		movq	%rdx, %rsi
 951 029a 4889C7   		movq	%rax, %rdi
 952              	.LEHB10:
 953 029d E832FFFF 		call	_ZN12_GLOBAL__N_151TestRunnerFixtureTestStartIsReportedCorrectlyHelperC1ERKN8UnitTest11TestDe
 953      FF
 954              	.LEHE10:
 955              		.loc 6 62 0 is_stmt 0 discriminator 1
 956 02a2 C685FFF5 		movb	$1, -2561(%rbp)
 956      FFFF01
 957 02a9 488B85E8 		movq	-2584(%rbp), %rax
 957      F5FFFF
 958 02b0 488D5008 		leaq	8(%rax), %rdx
 959 02b4 488D8580 		leaq	-2176(%rbp), %rax
 959      F7FFFF
 960 02bb 4889D6   		movq	%rdx, %rsi
 961 02be 4889C7   		movq	%rax, %rdi
 962              	.LEHB11:
 963 02c1 E8E26300 		call	_ZN8UnitTest11ExecuteTestIN12_GLOBAL__N_151TestRunnerFixtureTestStartIsReportedCorrectlyHelpe
 963      00
 964              	.LEHE11:
 965 02c6 488D8580 		leaq	-2176(%rbp), %rax
 965      F7FFFF
 966 02cd 4889C7   		movq	%rax, %rdi
 967              	.LEHB12:
 968 02d0 E86BFFFF 		call	_ZN12_GLOBAL__N_151TestRunnerFixtureTestStartIsReportedCorrectlyHelperD1Ev
 968      FF
 969              	.LEHE12:
 970              	.LBE21:
 971              	.LBE20:
 972              		.loc 6 62 0
 973 02d5 E9640200 		jmp	.L60
 973      00
 974              	.L54:
 975 02da 4989C4   		movq	%rax, %r12
 976 02dd 4889D3   		movq	%rdx, %rbx
 977              	.LBB29:
 978              	.LBB22:
 979 02e0 488D8580 		leaq	-2176(%rbp), %rax
 979      F7FFFF
 980 02e7 4889C7   		movq	%rax, %rdi
 981 02ea E851FFFF 		call	_ZN12_GLOBAL__N_151TestRunnerFixtureTestStartIsReportedCorrectlyHelperD1Ev
 981      FF
 982 02ef 4C89E0   		movq	%r12, %rax
 983 02f2 4889DA   		movq	%rbx, %rdx
 984 02f5 EB00     		jmp	.L41
 985              	.L53:
 986              	.L41:
 987 02f7 4883FA01 		cmpq	$1, %rdx
 988 02fb 745C     		je	.L43
 989 02fd 4883FA02 		cmpq	$2, %rdx
 990 0301 0F84F400 		je	.L44
 990      0000
 991 0307 E9980100 		jmp	.L59
 991      00
 992              	.L55:
 993 030c 4889C3   		movq	%rax, %rbx
 994              	.LBE22:
 995              	.LBB23:
 996 030f E8000000 		call	__cxa_end_catch
 996      00
 997 0314 4889D8   		movq	%rbx, %rax
 998 0317 4889C7   		movq	%rax, %rdi
 999              	.LEHB13:
 1000 031a E8000000 		call	_Unwind_Resume
 1000      00
 1001              	.LEHE13:
 1002              	.L56:
 1003 031f 4889C3   		movq	%rax, %rbx
 1004              	.LBE23:
 1005              	.LBB24:
 1006              	.LBB25:
 1007 0322 488D8510 		leaq	-2544(%rbp), %rax
 1007      F6FFFF
 1008 0329 4889C7   		movq	%rax, %rdi
 1009 032c E8000000 		call	_ZN8UnitTest15MemoryOutStreamD1Ev
 1009      00
 1010 0331 EB03     		jmp	.L47
 1011              	.L57:
 1012 0333 4889C3   		movq	%rax, %rbx
 1013              	.L47:
 1014              	.LBE25:
 1015 0336 E8000000 		call	__cxa_end_catch
 1015      00
 1016 033b 4889D8   		movq	%rbx, %rax
 1017 033e 4889C7   		movq	%rax, %rdi
 1018              	.LEHB14:
 1019 0341 E8000000 		call	_Unwind_Resume
 1019      00
 1020              	.LEHE14:
 1021              	.L58:
 1022 0346 4889C3   		movq	%rax, %rbx
 1023              	.LBE24:
 1024 0349 E8000000 		call	__cxa_end_catch
 1024      00
 1025 034e 4889D8   		movq	%rbx, %rax
 1026 0351 4889C7   		movq	%rax, %rdi
 1027              	.LEHB15:
 1028 0354 E8000000 		call	_Unwind_Resume
 1028      00
 1029              	.LEHE15:
 1030              	.L43:
 1031              	.LBB27:
 1032 0359 4889C7   		movq	%rax, %rdi
 1033 035c E8000000 		call	__cxa_begin_catch
 1033      00
 1034 0361 48898500 		movq	%rax, -2560(%rbp)
 1034      F6FFFF
 1035 0368 488B8500 		movq	-2560(%rbp), %rax
 1035      F6FFFF
 1036 036f 488B00   		movq	(%rax), %rax
 1037 0372 4883C010 		addq	$16, %rax
 1038 0376 488B00   		movq	(%rax), %rax
 1039 0379 488B9500 		movq	-2560(%rbp), %rdx
 1039      F6FFFF
 1040 0380 4889D7   		movq	%rdx, %rdi
 1041 0383 FFD0     		call	*%rax
 1042 0385 4889C3   		movq	%rax, %rbx
 1043 0388 488B8500 		movq	-2560(%rbp), %rax
 1043      F6FFFF
 1044 038f 4889C7   		movq	%rax, %rdi
 1045              	.LEHB16:
 1046 0392 E8000000 		call	_ZNK8UnitTest15AssertException10LineNumberEv
 1046      00
 1047 0397 4189C4   		movl	%eax, %r12d
 1048 039a 488B8500 		movq	-2560(%rbp), %rax
 1048      F6FFFF
 1049 03a1 4889C7   		movq	%rax, %rdi
 1050 03a4 E8000000 		call	_ZNK8UnitTest15AssertException8FilenameEv
 1050      00
 1051              		.loc 6 62 0 discriminator 1
 1052 03a9 4889C1   		movq	%rax, %rcx
 1053 03ac 488B85E8 		movq	-2584(%rbp), %rax
 1053      F5FFFF
 1054 03b3 488B5008 		movq	8(%rax), %rdx
 1055 03b7 488B85E8 		movq	-2584(%rbp), %rax
 1055      F5FFFF
 1056 03be 488B7010 		movq	16(%rax), %rsi
 1057 03c2 488D8510 		leaq	-2544(%rbp), %rax
 1057      F6FFFF
 1058 03c9 4589E0   		movl	%r12d, %r8d
 1059 03cc 4889C7   		movq	%rax, %rdi
 1060 03cf E8000000 		call	_ZN8UnitTest11TestDetailsC1EPKcS2_S2_i
 1060      00
 1061              		.loc 6 62 0 discriminator 3
 1062 03d4 E8000000 		call	_ZN8UnitTest11CurrentTest7ResultsEv
 1062      00
 1063 03d9 488B00   		movq	(%rax), %rax
 1064 03dc 488D8D10 		leaq	-2544(%rbp), %rcx
 1064      F6FFFF
 1065 03e3 4889DA   		movq	%rbx, %rdx
 1066 03e6 4889CE   		movq	%rcx, %rsi
 1067 03e9 4889C7   		movq	%rax, %rdi
 1068 03ec E8000000 		call	_ZN8UnitTest11TestResults13OnTestFailureERKNS_11TestDetailsEPKc
 1068      00
 1069              	.LEHE16:
 1070              		.loc 6 62 0 discriminator 1
 1071 03f1 E8000000 		call	__cxa_end_catch
 1071      00
 1072              	.LBE27:
 1073              	.LBE29:
 1074 03f6 E9430100 		jmp	.L60
 1074      00
 1075              	.L44:
 1076              	.LBB30:
 1077              	.LBB28:
 1078              		.loc 6 62 0
 1079 03fb 4889C7   		movq	%rax, %rdi
 1080 03fe E8000000 		call	__cxa_begin_catch
 1080      00
 1081 0403 48898508 		movq	%rax, -2552(%rbp)
 1081      F6FFFF
 1082              	.LBB26:
 1083 040a 488D8510 		leaq	-2544(%rbp), %rax
 1083      F6FFFF
 1084 0411 4889C7   		movq	%rax, %rdi
 1085              	.LEHB17:
 1086 0414 E8000000 		call	_ZN8UnitTest15MemoryOutStreamC1Ev
 1086      00
 1087              	.LEHE17:
 1088              		.loc 6 62 0 discriminator 1
 1089 0419 488B8508 		movq	-2552(%rbp), %rax
 1089      F6FFFF
 1090 0420 488B00   		movq	(%rax), %rax
 1091 0423 4883C010 		addq	$16, %rax
 1092 0427 488B00   		movq	(%rax), %rax
 1093 042a 488B9508 		movq	-2552(%rbp), %rdx
 1093      F6FFFF
 1094 0431 4889D7   		movq	%rdx, %rdi
 1095 0434 FFD0     		call	*%rax
 1096 0436 4889C3   		movq	%rax, %rbx
 1097 0439 488D8510 		leaq	-2544(%rbp), %rax
 1097      F6FFFF
 1098 0440 BE000000 		movl	$.LC8, %esi
 1098      00
 1099 0445 4889C7   		movq	%rax, %rdi
 1100              	.LEHB18:
 1101 0448 E8000000 		call	_ZStlsISt11char_traitsIcEERSt13basic_ostreamIcT_ES5_PKc
 1101      00
 1102 044d 4889DE   		movq	%rbx, %rsi
 1103 0450 4889C7   		movq	%rax, %rdi
 1104 0453 E8000000 		call	_ZStlsISt11char_traitsIcEERSt13basic_ostreamIcT_ES5_PKc
 1104      00
 1105 0458 488D8510 		leaq	-2544(%rbp), %rax
 1105      F6FFFF
 1106 045f 4889C7   		movq	%rax, %rdi
 1107 0462 E8000000 		call	_ZNK8UnitTest15MemoryOutStream7GetTextEv
 1107      00
 1108 0467 4889C3   		movq	%rax, %rbx
 1109 046a 488B85E8 		movq	-2584(%rbp), %rax
 1109      F5FFFF
 1110 0471 4C8D6008 		leaq	8(%rax), %r12
 1111 0475 E8000000 		call	_ZN8UnitTest11CurrentTest7ResultsEv
 1111      00
 1112 047a 488B00   		movq	(%rax), %rax
 1113 047d 4889DA   		movq	%rbx, %rdx
 1114 0480 4C89E6   		movq	%r12, %rsi
 1115 0483 4889C7   		movq	%rax, %rdi
 1116 0486 E8000000 		call	_ZN8UnitTest11TestResults13OnTestFailureERKNS_11TestDetailsEPKc
 1116      00
 1117              	.LEHE18:
 1118 048b 488D8510 		leaq	-2544(%rbp), %rax
 1118      F6FFFF
 1119 0492 4889C7   		movq	%rax, %rdi
 1120              	.LEHB19:
 1121 0495 E8000000 		call	_ZN8UnitTest15MemoryOutStreamD1Ev
 1121      00
 1122              	.LEHE19:
 1123              	.LBE26:
 1124              		.loc 6 62 0
 1125 049a E8000000 		call	__cxa_end_catch
 1125      00
 1126              	.LBE28:
 1127              	.LBE30:
 1128 049f E99A0000 		jmp	.L60
 1128      00
 1129              	.L59:
 1130              	.LBB31:
 1131 04a4 4889C7   		movq	%rax, %rdi
 1132 04a7 E8000000 		call	__cxa_begin_catch
 1132      00
 1133 04ac 80BDFFF5 		cmpb	$0, -2561(%rbp)
 1133      FFFF00
 1134 04b3 7443     		je	.L50
 1135              		.loc 6 62 0 discriminator 1
 1136 04b5 488B85E8 		movq	-2584(%rbp), %rax
 1136      F5FFFF
 1137 04bc 488D4808 		leaq	8(%rax), %rcx
 1138 04c0 488D8510 		leaq	-2544(%rbp), %rax
 1138      F6FFFF
 1139 04c7 BA3E0000 		movl	$62, %edx
 1139      00
 1140 04cc 4889CE   		movq	%rcx, %rsi
 1141 04cf 4889C7   		movq	%rax, %rdi
 1142              	.LEHB20:
 1143 04d2 E8000000 		call	_ZN8UnitTest11TestDetailsC1ERKS0_i
 1143      00
 1144 04d7 E8000000 		call	_ZN8UnitTest11CurrentTest7ResultsEv
 1144      00
 1145 04dc 488B00   		movq	(%rax), %rax
 1146 04df 488D8D10 		leaq	-2544(%rbp), %rcx
 1146      F6FFFF
 1147 04e6 BA000000 		movl	$.LC9, %edx
 1147      00
 1148 04eb 4889CE   		movq	%rcx, %rsi
 1149 04ee 4889C7   		movq	%rax, %rdi
 1150 04f1 E8000000 		call	_ZN8UnitTest11TestResults13OnTestFailureERKNS_11TestDetailsEPKc
 1150      00
 1151 04f6 EB41     		jmp	.L51
 1152              	.L50:
 1153              		.loc 6 62 0 discriminator 2
 1154 04f8 488B85E8 		movq	-2584(%rbp), %rax
 1154      F5FFFF
 1155 04ff 488D4808 		leaq	8(%rax), %rcx
 1156 0503 488D8510 		leaq	-2544(%rbp), %rax
 1156      F6FFFF
 1157 050a BA3E0000 		movl	$62, %edx
 1157      00
 1158 050f 4889CE   		movq	%rcx, %rsi
 1159 0512 4889C7   		movq	%rax, %rdi
 1160 0515 E8000000 		call	_ZN8UnitTest11TestDetailsC1ERKS0_i
 1160      00
 1161              		.loc 6 62 0 discriminator 1
 1162 051a E8000000 		call	_ZN8UnitTest11CurrentTest7ResultsEv
 1162      00
 1163 051f 488B00   		movq	(%rax), %rax
 1164 0522 488D8D10 		leaq	-2544(%rbp), %rcx
 1164      F6FFFF
 1165 0529 BA000000 		movl	$.LC10, %edx
 1165      00
 1166 052e 4889CE   		movq	%rcx, %rsi
 1167 0531 4889C7   		movq	%rax, %rdi
 1168 0534 E8000000 		call	_ZN8UnitTest11TestResults13OnTestFailureERKNS_11TestDetailsEPKc
 1168      00
 1169              	.LEHE20:
 1170              	.L51:
 1171              	.LEHB21:
 1172 0539 E8000000 		call	__cxa_end_catch
 1172      00
 1173              	.LEHE21:
 1174              	.L60:
 1175              	.LBE31:
 1176              		.loc 6 62 0
 1177 053e 90       		nop
 1178 053f 488B45E8 		movq	-24(%rbp), %rax
 1179 0543 64483304 		xorq	%fs:40, %rax
 1179      25280000 
 1179      00
 1180 054c 7405     		je	.L52
 1181 054e E8000000 		call	__stack_chk_fail
 1181      00
 1182              	.L52:
 1183 0553 4881C410 		addq	$2576, %rsp
 1183      0A0000
 1184 055a 5B       		popq	%rbx
 1185 055b 415C     		popq	%r12
 1186 055d 5D       		popq	%rbp
 1187              		.cfi_def_cfa 7, 8
 1188 055e C3       		ret
 1189              		.cfi_endproc
 1190              	.LFE1052:
 1191              		.section	.gcc_except_table
 1192              		.align 4
 1193              	.LLSDA1052:
 1194 0020 FF       		.byte	0xff
 1195 0021 03       		.byte	0x3
 1196 0022 59       		.uleb128 .LLSDATT1052-.LLSDATTD1052
 1197              	.LLSDATTD1052:
 1198 0023 01       		.byte	0x1
 1199 0024 41       		.uleb128 .LLSDACSE1052-.LLSDACSB1052
 1200              	.LLSDACSB1052:
 1201 0025 43       		.uleb128 .LEHB10-.LFB1052
 1202 0026 05       		.uleb128 .LEHE10-.LEHB10
 1203 0027 9D01     		.uleb128 .L53-.LFB1052
 1204 0029 05       		.uleb128 0x5
 1205 002a 67       		.uleb128 .LEHB11-.LFB1052
 1206 002b 05       		.uleb128 .LEHE11-.LEHB11
 1207 002c 8001     		.uleb128 .L54-.LFB1052
 1208 002e 07       		.uleb128 0x7
 1209 002f 76       		.uleb128 .LEHB12-.LFB1052
 1210 0030 05       		.uleb128 .LEHE12-.LEHB12
 1211 0031 9D01     		.uleb128 .L53-.LFB1052
 1212 0033 05       		.uleb128 0x5
 1213 0034 C001     		.uleb128 .LEHB13-.LFB1052
 1214 0036 05       		.uleb128 .LEHE13-.LEHB13
 1215 0037 00       		.uleb128 0
 1216 0038 00       		.uleb128 0
 1217 0039 E701     		.uleb128 .LEHB14-.LFB1052
 1218 003b 05       		.uleb128 .LEHE14-.LEHB14
 1219 003c 00       		.uleb128 0
 1220 003d 00       		.uleb128 0
 1221 003e FA01     		.uleb128 .LEHB15-.LFB1052
 1222 0040 05       		.uleb128 .LEHE15-.LEHB15
 1223 0041 00       		.uleb128 0
 1224 0042 00       		.uleb128 0
 1225 0043 B802     		.uleb128 .LEHB16-.LFB1052
 1226 0045 5F       		.uleb128 .LEHE16-.LEHB16
 1227 0046 B201     		.uleb128 .L55-.LFB1052
 1228 0048 00       		.uleb128 0
 1229 0049 BA03     		.uleb128 .LEHB17-.LFB1052
 1230 004b 05       		.uleb128 .LEHE17-.LEHB17
 1231 004c D901     		.uleb128 .L57-.LFB1052
 1232 004e 00       		.uleb128 0
 1233 004f EE03     		.uleb128 .LEHB18-.LFB1052
 1234 0051 43       		.uleb128 .LEHE18-.LEHB18
 1235 0052 C501     		.uleb128 .L56-.LFB1052
 1236 0054 00       		.uleb128 0
 1237 0055 BB04     		.uleb128 .LEHB19-.LFB1052
 1238 0057 05       		.uleb128 .LEHE19-.LEHB19
 1239 0058 D901     		.uleb128 .L57-.LFB1052
 1240 005a 00       		.uleb128 0
 1241 005b F804     		.uleb128 .LEHB20-.LFB1052
 1242 005d 67       		.uleb128 .LEHE20-.LEHB20
 1243 005e EC01     		.uleb128 .L58-.LFB1052
 1244 0060 00       		.uleb128 0
 1245 0061 DF05     		.uleb128 .LEHB21-.LFB1052
 1246 0063 05       		.uleb128 .LEHE21-.LEHB21
 1247 0064 00       		.uleb128 0
 1248 0065 00       		.uleb128 0
 1249              	.LLSDACSE1052:
 1250 0066 03       		.byte	0x3
 1251 0067 00       		.byte	0
 1252 0068 02       		.byte	0x2
 1253 0069 7D       		.byte	0x7d
 1254 006a 01       		.byte	0x1
 1255 006b 7D       		.byte	0x7d
 1256 006c 00       		.byte	0
 1257 006d 7D       		.byte	0x7d
 1258 006e 0000     		.align 4
 1259 0070 00000000 		.long	0
 1260              	
 1261 0074 00000000 		.long	_ZTISt9exception
 1262 0078 00000000 		.long	_ZTIN8UnitTest15AssertExceptionE
 1263              	.LLSDATT1052:
 1264              		.text
 1266              		.section	.rodata
 1267              	.LC11:
 1268 00e9 676F6F64 		.string	"goodtest"
 1268      74657374 
 1268      00
 1269 00f2 00000000 		.align 8
 1269      0000
 1270              	.LC12:
 1271 00f8 556E6861 		.string	"Unhandled exception in CHECK_EQUAL(1, reporter.testRunCount)"
 1271      6E646C65 
 1271      64206578 
 1271      63657074 
 1271      696F6E20 
 1272 0135 000000   		.align 8
 1273              	.LC13:
 1274 0138 556E6861 		.string	"Unhandled exception in CHECK_EQUAL(\"goodtest\", reporter.lastStartedTest)"
 1274      6E646C65 
 1274      64206578 
 1274      63657074 
 1274      696F6E20 
 1275              		.text
 1276 055f 90       		.align 2
 1278              	_ZN12_GLOBAL__N_151TestRunnerFixtureTestStartIsReportedCorrectlyHelper7RunImplEv:
 1279              	.LFB1056:
  63:TestTestRunner.cpp **** {
 1280              		.loc 6 63 0 is_stmt 1
 1281              		.cfi_startproc
 1282              		.cfi_personality 0x3,__gxx_personality_v0
 1283              		.cfi_lsda 0x3,.LLSDA1056
 1284 0560 55       		pushq	%rbp
 1285              		.cfi_def_cfa_offset 16
 1286              		.cfi_offset 6, -16
 1287 0561 4889E5   		movq	%rsp, %rbp
 1288              		.cfi_def_cfa_register 6
 1289 0564 53       		pushq	%rbx
 1290 0565 4881EC88 		subq	$136, %rsp
 1290      000000
 1291              		.cfi_offset 3, -24
 1292 056c 4889BD78 		movq	%rdi, -136(%rbp)
 1292      FFFFFF
 1293              	.LBB32:
  64:TestTestRunner.cpp ****     MockTest test("goodtest", true, false);
 1294              		.loc 6 64 0
 1295 0573 488D45B0 		leaq	-80(%rbp), %rax
 1296 0577 41B80100 		movl	$1, %r8d
 1296      0000
 1297 057d B9000000 		movl	$0, %ecx
 1297      00
 1298 0582 BA010000 		movl	$1, %edx
 1298      00
 1299 0587 BE000000 		movl	$.LC11, %esi
 1299      00
 1300 058c 4889C7   		movq	%rax, %rdi
 1301              	.LEHB22:
 1302 058f E86CFAFF 		call	_ZN12_GLOBAL__N_18MockTestC1EPKcbbi
 1302      FF
 1303              	.LEHE22:
  65:TestTestRunner.cpp ****     list.Add(&test);
 1304              		.loc 6 65 0
 1305 0594 488B8578 		movq	-136(%rbp), %rax
 1305      FFFFFF
 1306 059b 488D9048 		leaq	2120(%rax), %rdx
 1306      080000
 1307 05a2 488D45B0 		leaq	-80(%rbp), %rax
 1308 05a6 4889C6   		movq	%rax, %rsi
 1309 05a9 4889D7   		movq	%rdx, %rdi
 1310              	.LEHB23:
 1311 05ac E8000000 		call	_ZN8UnitTest8TestList3AddEPNS_4TestE
 1311      00
  66:TestTestRunner.cpp **** 
  67:TestTestRunner.cpp **** 	RunTestsIf(list, NULL, True(), 0);
 1312              		.loc 6 67 0
 1313 05b1 488B8578 		movq	-136(%rbp), %rax
 1313      FFFFFF
 1314 05b8 488DB048 		leaq	2120(%rax), %rsi
 1314      080000
 1315 05bf 488B8578 		movq	-136(%rbp), %rax
 1315      FFFFFF
 1316 05c6 488D5590 		leaq	-112(%rbp), %rdx
 1317 05ca 41B80000 		movl	$0, %r8d
 1317      0000
 1318 05d0 4889D1   		movq	%rdx, %rcx
 1319 05d3 BA000000 		movl	$0, %edx
 1319      00
 1320 05d8 4889C7   		movq	%rax, %rdi
 1321 05db E8606300 		call	_ZN12_GLOBAL__N_111FixtureBase10RunTestsIfIN8UnitTest4TrueEEEiRKNS2_8TestListEPKcRKT_i
 1321      00
 1322              	.LEHE23:
 1323              	.LEHB24:
  68:TestTestRunner.cpp ****     CHECK_EQUAL(1, reporter.testRunCount);
 1324              		.loc 6 68 0 discriminator 1
 1325 05e0 E8000000 		call	_ZN8UnitTest11CurrentTest7DetailsEv
 1325      00
 1326 05e5 488B08   		movq	(%rax), %rcx
 1327 05e8 488D4590 		leaq	-112(%rbp), %rax
 1328 05ec BA440000 		movl	$68, %edx
 1328      00
 1329 05f1 4889CE   		movq	%rcx, %rsi
 1330 05f4 4889C7   		movq	%rax, %rdi
 1331 05f7 E8000000 		call	_ZN8UnitTest11TestDetailsC1ERKS0_i
 1331      00
 1332 05fc 488B8578 		movq	-136(%rbp), %rax
 1332      FFFFFF
 1333 0603 488D5820 		leaq	32(%rax), %rbx
 1334 0607 C7458C01 		movl	$1, -116(%rbp)
 1334      000000
 1335 060e E8000000 		call	_ZN8UnitTest11CurrentTest7ResultsEv
 1335      00
 1336 0613 488B00   		movq	(%rax), %rax
 1337 0616 488D5590 		leaq	-112(%rbp), %rdx
 1338 061a 488D758C 		leaq	-116(%rbp), %rsi
 1339 061e 4889D1   		movq	%rdx, %rcx
 1340 0621 4889DA   		movq	%rbx, %rdx
 1341 0624 4889C7   		movq	%rax, %rdi
 1342 0627 E8000000 		call	_ZN8UnitTest10CheckEqualIiiEEvRNS_11TestResultsERKT_RKT0_RKNS_11TestDetailsE
 1342      00
 1343              	.LEHE24:
 1344              	.L65:
 1345              	.LEHB25:
  69:TestTestRunner.cpp ****     CHECK_EQUAL("goodtest", reporter.lastStartedTest);
 1346              		.loc 6 69 0
 1347 062c E8000000 		call	_ZN8UnitTest11CurrentTest7DetailsEv
 1347      00
 1348 0631 488B08   		movq	(%rax), %rcx
 1349 0634 488D4590 		leaq	-112(%rbp), %rax
 1350 0638 BA450000 		movl	$69, %edx
 1350      00
 1351 063d 4889CE   		movq	%rcx, %rsi
 1352 0640 4889C7   		movq	%rax, %rdi
 1353 0643 E8000000 		call	_ZN8UnitTest11TestDetailsC1ERKS0_i
 1353      00
 1354              		.loc 6 69 0 is_stmt 0 discriminator 1
 1355 0648 488B8578 		movq	-136(%rbp), %rax
 1355      FFFFFF
 1356 064f 488D9824 		leaq	292(%rax), %rbx
 1356      010000
 1357 0656 E8000000 		call	_ZN8UnitTest11CurrentTest7ResultsEv
 1357      00
 1358 065b 488B00   		movq	(%rax), %rax
 1359 065e 488D5590 		leaq	-112(%rbp), %rdx
 1360 0662 4889D1   		movq	%rdx, %rcx
 1361 0665 4889DA   		movq	%rbx, %rdx
 1362 0668 BE000000 		movl	$.LC11, %esi
 1362      00
 1363 066d 4889C7   		movq	%rax, %rdi
 1364 0670 E8000000 		call	_ZN8UnitTest10CheckEqualERNS_11TestResultsEPKcPcRKNS_11TestDetailsE
 1364      00
 1365              	.LEHE25:
 1366              	.L68:
 1367              		.loc 6 69 0 discriminator 2
 1368 0675 488D45B0 		leaq	-80(%rbp), %rax
 1369 0679 4889C7   		movq	%rax, %rdi
 1370              	.LEHB26:
 1371 067c E84F9500 		call	_ZN12_GLOBAL__N_18MockTestD1Ev
 1371      00
 1372              	.LEHE26:
 1373 0681 E9C50000 		jmp	.L74
 1373      00
 1374              	.L71:
 1375 0686 4889C3   		movq	%rax, %rbx
  68:TestTestRunner.cpp ****     CHECK_EQUAL(1, reporter.testRunCount);
 1376              		.loc 6 68 0 is_stmt 1
 1377 0689 E8000000 		call	__cxa_end_catch
 1377      00
 1378 068e E9A10000 		jmp	.L63
 1378      00
 1379              	.L70:
 1380 0693 4889C7   		movq	%rax, %rdi
 1381 0696 E8000000 		call	__cxa_begin_catch
 1381      00
 1382              	.LEHB27:
 1383 069b E8000000 		call	_ZN8UnitTest11CurrentTest7DetailsEv
 1383      00
 1384 06a0 488B08   		movq	(%rax), %rcx
 1385 06a3 488D4590 		leaq	-112(%rbp), %rax
 1386 06a7 BA440000 		movl	$68, %edx
 1386      00
 1387 06ac 4889CE   		movq	%rcx, %rsi
 1388 06af 4889C7   		movq	%rax, %rdi
 1389 06b2 E8000000 		call	_ZN8UnitTest11TestDetailsC1ERKS0_i
 1389      00
  68:TestTestRunner.cpp ****     CHECK_EQUAL(1, reporter.testRunCount);
 1390              		.loc 6 68 0 is_stmt 0 discriminator 1
 1391 06b7 E8000000 		call	_ZN8UnitTest11CurrentTest7ResultsEv
 1391      00
 1392 06bc 488B00   		movq	(%rax), %rax
 1393 06bf 488D4D90 		leaq	-112(%rbp), %rcx
 1394 06c3 BA000000 		movl	$.LC12, %edx
 1394      00
 1395 06c8 4889CE   		movq	%rcx, %rsi
 1396 06cb 4889C7   		movq	%rax, %rdi
 1397 06ce E8000000 		call	_ZN8UnitTest11TestResults13OnTestFailureERKNS_11TestDetailsEPKc
 1397      00
 1398              	.LEHE27:
 1399              	.LEHB28:
 1400 06d3 E8000000 		call	__cxa_end_catch
 1400      00
 1401              	.LEHE28:
  68:TestTestRunner.cpp ****     CHECK_EQUAL(1, reporter.testRunCount);
 1402              		.loc 6 68 0
 1403 06d8 E94FFFFF 		jmp	.L65
 1403      FF
 1404              	.L73:
 1405 06dd 4889C3   		movq	%rax, %rbx
 1406              		.loc 6 69 0 is_stmt 1
 1407 06e0 E8000000 		call	__cxa_end_catch
 1407      00
 1408 06e5 EB4D     		jmp	.L63
 1409              	.L72:
 1410 06e7 4889C7   		movq	%rax, %rdi
 1411 06ea E8000000 		call	__cxa_begin_catch
 1411      00
 1412              	.LEHB29:
 1413 06ef E8000000 		call	_ZN8UnitTest11CurrentTest7DetailsEv
 1413      00
 1414 06f4 488B08   		movq	(%rax), %rcx
 1415 06f7 488D4590 		leaq	-112(%rbp), %rax
 1416 06fb BA450000 		movl	$69, %edx
 1416      00
 1417 0700 4889CE   		movq	%rcx, %rsi
 1418 0703 4889C7   		movq	%rax, %rdi
 1419 0706 E8000000 		call	_ZN8UnitTest11TestDetailsC1ERKS0_i
 1419      00
 1420              		.loc 6 69 0 is_stmt 0 discriminator 1
 1421 070b E8000000 		call	_ZN8UnitTest11CurrentTest7ResultsEv
 1421      00
 1422 0710 488B00   		movq	(%rax), %rax
 1423 0713 488D4D90 		leaq	-112(%rbp), %rcx
 1424 0717 BA000000 		movl	$.LC13, %edx
 1424      00
 1425 071c 4889CE   		movq	%rcx, %rsi
 1426 071f 4889C7   		movq	%rax, %rdi
 1427 0722 E8000000 		call	_ZN8UnitTest11TestResults13OnTestFailureERKNS_11TestDetailsEPKc
 1427      00
 1428              	.LEHE29:
 1429              	.LEHB30:
 1430 0727 E8000000 		call	__cxa_end_catch
 1430      00
 1431              	.LEHE30:
 1432              		.loc 6 69 0
 1433 072c E944FFFF 		jmp	.L68
 1433      FF
 1434              	.L69:
 1435 0731 4889C3   		movq	%rax, %rbx
 1436              	.L63:
 1437 0734 488D45B0 		leaq	-80(%rbp), %rax
 1438 0738 4889C7   		movq	%rax, %rdi
 1439 073b E8909400 		call	_ZN12_GLOBAL__N_18MockTestD1Ev
 1439      00
 1440 0740 4889D8   		movq	%rbx, %rax
 1441 0743 4889C7   		movq	%rax, %rdi
 1442              	.LEHB31:
 1443 0746 E8000000 		call	_Unwind_Resume
 1443      00
 1444              	.LEHE31:
 1445              	.L74:
 1446              	.LBE32:
  70:TestTestRunner.cpp **** }
 1447              		.loc 6 70 0 is_stmt 1
 1448 074b 4881C488 		addq	$136, %rsp
 1448      000000
 1449 0752 5B       		popq	%rbx
 1450 0753 5D       		popq	%rbp
 1451              		.cfi_def_cfa 7, 8
 1452 0754 C3       		ret
 1453              		.cfi_endproc
 1454              	.LFE1056:
 1455              		.section	.gcc_except_table
 1456              		.align 4
 1457              	.LLSDA1056:
 1458 007c FF       		.byte	0xff
 1459 007d 03       		.byte	0x3
 1460 007e 41       		.uleb128 .LLSDATT1056-.LLSDATTD1056
 1461              	.LLSDATTD1056:
 1462 007f 01       		.byte	0x1
 1463 0080 37       		.uleb128 .LLSDACSE1056-.LLSDACSB1056
 1464              	.LLSDACSB1056:
 1465 0081 2F       		.uleb128 .LEHB22-.LFB1056
 1466 0082 05       		.uleb128 .LEHE22-.LEHB22
 1467 0083 00       		.uleb128 0
 1468 0084 00       		.uleb128 0
 1469 0085 4C       		.uleb128 .LEHB23-.LFB1056
 1470 0086 34       		.uleb128 .LEHE23-.LEHB23
 1471 0087 D103     		.uleb128 .L69-.LFB1056
 1472 0089 00       		.uleb128 0
 1473 008a 8001     		.uleb128 .LEHB24-.LFB1056
 1474 008c 4C       		.uleb128 .LEHE24-.LEHB24
 1475 008d B302     		.uleb128 .L70-.LFB1056
 1476 008f 01       		.uleb128 0x1
 1477 0090 CC01     		.uleb128 .LEHB25-.LFB1056
 1478 0092 49       		.uleb128 .LEHE25-.LEHB25
 1479 0093 8703     		.uleb128 .L72-.LFB1056
 1480 0095 01       		.uleb128 0x1
 1481 0096 9C02     		.uleb128 .LEHB26-.LFB1056
 1482 0098 05       		.uleb128 .LEHE26-.LEHB26
 1483 0099 00       		.uleb128 0
 1484 009a 00       		.uleb128 0
 1485 009b BB02     		.uleb128 .LEHB27-.LFB1056
 1486 009d 38       		.uleb128 .LEHE27-.LEHB27
 1487 009e A602     		.uleb128 .L71-.LFB1056
 1488 00a0 00       		.uleb128 0
 1489 00a1 F302     		.uleb128 .LEHB28-.LFB1056
 1490 00a3 05       		.uleb128 .LEHE28-.LEHB28
 1491 00a4 D103     		.uleb128 .L69-.LFB1056
 1492 00a6 00       		.uleb128 0
 1493 00a7 8F03     		.uleb128 .LEHB29-.LFB1056
 1494 00a9 38       		.uleb128 .LEHE29-.LEHB29
 1495 00aa FD02     		.uleb128 .L73-.LFB1056
 1496 00ac 00       		.uleb128 0
 1497 00ad C703     		.uleb128 .LEHB30-.LFB1056
 1498 00af 05       		.uleb128 .LEHE30-.LEHB30
 1499 00b0 D103     		.uleb128 .L69-.LFB1056
 1500 00b2 00       		.uleb128 0
 1501 00b3 E603     		.uleb128 .LEHB31-.LFB1056
 1502 00b5 05       		.uleb128 .LEHE31-.LEHB31
 1503 00b6 00       		.uleb128 0
 1504 00b7 00       		.uleb128 0
 1505              	.LLSDACSE1056:
 1506 00b8 01       		.byte	0x1
 1507 00b9 00       		.byte	0
 1508 00ba 0000     		.align 4
 1509 00bc 00000000 		.long	0
 1510              	
 1511              	.LLSDATT1056:
 1512              		.text
 1514 0755 90       		.align 2
 1516              	_ZN12_GLOBAL__N_152TestRunnerFixtureTestFinishIsReportedCorrectlyHelperC2ERKN8UnitTest11TestDetails
 1517              	.LFB1058:
  71:TestTestRunner.cpp **** 
  72:TestTestRunner.cpp **** TEST_FIXTURE(TestRunnerFixture, TestFinishIsReportedCorrectly)
 1518              		.loc 6 72 0
 1519              		.cfi_startproc
 1520 0756 55       		pushq	%rbp
 1521              		.cfi_def_cfa_offset 16
 1522              		.cfi_offset 6, -16
 1523 0757 4889E5   		movq	%rsp, %rbp
 1524              		.cfi_def_cfa_register 6
 1525 075a 4883EC10 		subq	$16, %rsp
 1526 075e 48897DF8 		movq	%rdi, -8(%rbp)
 1527 0762 488975F0 		movq	%rsi, -16(%rbp)
 1528              	.LBB33:
 1529              		.loc 6 72 0
 1530 0766 488B45F8 		movq	-8(%rbp), %rax
 1531 076a 4889C7   		movq	%rax, %rdi
 1532 076d E8FAF9FF 		call	_ZN12_GLOBAL__N_117TestRunnerFixtureC2Ev
 1532      FF
 1533 0772 488B45F8 		movq	-8(%rbp), %rax
 1534 0776 488B55F0 		movq	-16(%rbp), %rdx
 1535 077a 48899058 		movq	%rdx, 2136(%rax)
 1535      080000
 1536              	.LBE33:
 1537 0781 C9       		leave
 1538              		.cfi_def_cfa 7, 8
 1539 0782 C3       		ret
 1540              		.cfi_endproc
 1541              	.LFE1058:
 1543              		.set	_ZN12_GLOBAL__N_152TestRunnerFixtureTestFinishIsReportedCorrectlyHelperC1ERKN8UnitTest11TestD
 1544              		.section	.rodata
 1545              	.LC14:
 1546 0181 54657374 		.string	"TestFinishIsReportedCorrectly"
 1546      46696E69 
 1546      73684973 
 1546      5265706F 
 1546      72746564 
 1547              		.text
 1548 0783 90       		.align 2
 1550              	_ZN12_GLOBAL__N_150TestTestRunnerFixtureTestFinishIsReportedCorrectlyC2Ev:
 1551              	.LFB1061:
 1552              		.loc 6 72 0
 1553              		.cfi_startproc
 1554 0784 55       		pushq	%rbp
 1555              		.cfi_def_cfa_offset 16
 1556              		.cfi_offset 6, -16
 1557 0785 4889E5   		movq	%rsp, %rbp
 1558              		.cfi_def_cfa_register 6
 1559 0788 4883EC10 		subq	$16, %rsp
 1560 078c 48897DF8 		movq	%rdi, -8(%rbp)
 1561              	.LBB34:
 1562              		.loc 6 72 0
 1563 0790 E8000000 		call	_ZN13UnitTestSuite12GetSuiteNameEv
 1563      00
 1564 0795 4889C2   		movq	%rax, %rdx
 1565 0798 488B45F8 		movq	-8(%rbp), %rax
 1566 079c 41B84800 		movl	$72, %r8d
 1566      0000
 1567 07a2 B9000000 		movl	$.LC6, %ecx
 1567      00
 1568 07a7 BE000000 		movl	$.LC14, %esi
 1568      00
 1569 07ac 4889C7   		movq	%rax, %rdi
 1570 07af E8000000 		call	_ZN8UnitTest4TestC2EPKcS2_S2_i
 1570      00
 1571 07b4 488B45F8 		movq	-8(%rbp), %rax
 1572 07b8 48C70000 		movq	$_ZTVN12_GLOBAL__N_150TestTestRunnerFixtureTestFinishIsReportedCorrectlyE+16, (%rax)
 1572      000000
 1573              	.LBE34:
 1574 07bf C9       		leave
 1575              		.cfi_def_cfa 7, 8
 1576 07c0 C3       		ret
 1577              		.cfi_endproc
 1578              	.LFE1061:
 1580              		.set	_ZN12_GLOBAL__N_150TestTestRunnerFixtureTestFinishIsReportedCorrectlyC1Ev,_ZN12_GLOBAL__N_150
 1581              		.local	_ZN12_GLOBAL__N_158testTestRunnerFixtureTestFinishIsReportedCorrectlyInstanceE
 1582              		.comm	_ZN12_GLOBAL__N_158testTestRunnerFixtureTestFinishIsReportedCorrectlyInstanceE,56,32
 1583              		.local	_ZN12_GLOBAL__N_151adderTestRunnerFixtureTestFinishIsReportedCorrectlyE
 1584              		.comm	_ZN12_GLOBAL__N_151adderTestRunnerFixtureTestFinishIsReportedCorrectlyE,1,1
 1585 07c1 90       		.align 2
 1587              	_ZN12_GLOBAL__N_152TestRunnerFixtureTestFinishIsReportedCorrectlyHelperD2Ev:
 1588              	.LFB1065:
 1589              		.loc 6 72 0
 1590              		.cfi_startproc
 1591 07c2 55       		pushq	%rbp
 1592              		.cfi_def_cfa_offset 16
 1593              		.cfi_offset 6, -16
 1594 07c3 4889E5   		movq	%rsp, %rbp
 1595              		.cfi_def_cfa_register 6
 1596 07c6 4883EC10 		subq	$16, %rsp
 1597 07ca 48897DF8 		movq	%rdi, -8(%rbp)
 1598              	.LBB35:
 1599              		.loc 6 72 0
 1600 07ce 488B45F8 		movq	-8(%rbp), %rax
 1601 07d2 4889C7   		movq	%rax, %rdi
 1602 07d5 E8E0F9FF 		call	_ZN12_GLOBAL__N_117TestRunnerFixtureD2Ev
 1602      FF
 1603              	.LBE35:
 1604 07da C9       		leave
 1605              		.cfi_def_cfa 7, 8
 1606 07db C3       		ret
 1607              		.cfi_endproc
 1608              	.LFE1065:
 1610              		.set	_ZN12_GLOBAL__N_152TestRunnerFixtureTestFinishIsReportedCorrectlyHelperD1Ev,_ZN12_GLOBAL__N_1
 1611              		.align 2
 1613              	_ZNK12_GLOBAL__N_150TestTestRunnerFixtureTestFinishIsReportedCorrectly7RunImplEv:
 1614              	.LFB1063:
 1615              		.loc 6 72 0
 1616              		.cfi_startproc
 1617              		.cfi_personality 0x3,__gxx_personality_v0
 1618              		.cfi_lsda 0x3,.LLSDA1063
 1619 07dc 55       		pushq	%rbp
 1620              		.cfi_def_cfa_offset 16
 1621              		.cfi_offset 6, -16
 1622 07dd 4889E5   		movq	%rsp, %rbp
 1623              		.cfi_def_cfa_register 6
 1624 07e0 4154     		pushq	%r12
 1625 07e2 53       		pushq	%rbx
 1626 07e3 4881EC10 		subq	$2576, %rsp
 1626      0A0000
 1627              		.cfi_offset 12, -24
 1628              		.cfi_offset 3, -32
 1629 07ea 4889BDE8 		movq	%rdi, -2584(%rbp)
 1629      F5FFFF
 1630              		.loc 6 72 0
 1631 07f1 64488B04 		movq	%fs:40, %rax
 1631      25280000 
 1631      00
 1632 07fa 488945E8 		movq	%rax, -24(%rbp)
 1633 07fe 31C0     		xorl	%eax, %eax
 1634              	.LBB36:
 1635 0800 C685FFF5 		movb	$0, -2561(%rbp)
 1635      FFFF00
 1636              	.LBB37:
 1637 0807 488B85E8 		movq	-2584(%rbp), %rax
 1637      F5FFFF
 1638 080e 488D5008 		leaq	8(%rax), %rdx
 1639 0812 488D8580 		leaq	-2176(%rbp), %rax
 1639      F7FFFF
 1640 0819 4889D6   		movq	%rdx, %rsi
 1641 081c 4889C7   		movq	%rax, %rdi
 1642              	.LEHB32:
 1643 081f E832FFFF 		call	_ZN12_GLOBAL__N_152TestRunnerFixtureTestFinishIsReportedCorrectlyHelperC1ERKN8UnitTest11TestD
 1643      FF
 1644              	.LEHE32:
 1645              		.loc 6 72 0 is_stmt 0 discriminator 1
 1646 0824 C685FFF5 		movb	$1, -2561(%rbp)
 1646      FFFF01
 1647 082b 488B85E8 		movq	-2584(%rbp), %rax
 1647      F5FFFF
 1648 0832 488D5008 		leaq	8(%rax), %rdx
 1649 0836 488D8580 		leaq	-2176(%rbp), %rax
 1649      F7FFFF
 1650 083d 4889D6   		movq	%rdx, %rsi
 1651 0840 4889C7   		movq	%rax, %rdi
 1652              	.LEHB33:
 1653 0843 E86A6100 		call	_ZN8UnitTest11ExecuteTestIN12_GLOBAL__N_152TestRunnerFixtureTestFinishIsReportedCorrectlyHelp
 1653      00
 1654              	.LEHE33:
 1655 0848 488D8580 		leaq	-2176(%rbp), %rax
 1655      F7FFFF
 1656 084f 4889C7   		movq	%rax, %rdi
 1657              	.LEHB34:
 1658 0852 E86BFFFF 		call	_ZN12_GLOBAL__N_152TestRunnerFixtureTestFinishIsReportedCorrectlyHelperD1Ev
 1658      FF
 1659              	.LEHE34:
 1660              	.LBE37:
 1661              	.LBE36:
 1662              		.loc 6 72 0
 1663 0857 E9640200 		jmp	.L100
 1663      00
 1664              	.L94:
 1665 085c 4989C4   		movq	%rax, %r12
 1666 085f 4889D3   		movq	%rdx, %rbx
 1667              	.LBB45:
 1668              	.LBB38:
 1669 0862 488D8580 		leaq	-2176(%rbp), %rax
 1669      F7FFFF
 1670 0869 4889C7   		movq	%rax, %rdi
 1671 086c E851FFFF 		call	_ZN12_GLOBAL__N_152TestRunnerFixtureTestFinishIsReportedCorrectlyHelperD1Ev
 1671      FF
 1672 0871 4C89E0   		movq	%r12, %rax
 1673 0874 4889DA   		movq	%rbx, %rdx
 1674 0877 EB00     		jmp	.L81
 1675              	.L93:
 1676              	.L81:
 1677 0879 4883FA01 		cmpq	$1, %rdx
 1678 087d 745C     		je	.L83
 1679 087f 4883FA02 		cmpq	$2, %rdx
 1680 0883 0F84F400 		je	.L84
 1680      0000
 1681 0889 E9980100 		jmp	.L99
 1681      00
 1682              	.L95:
 1683 088e 4889C3   		movq	%rax, %rbx
 1684              	.LBE38:
 1685              	.LBB39:
 1686 0891 E8000000 		call	__cxa_end_catch
 1686      00
 1687 0896 4889D8   		movq	%rbx, %rax
 1688 0899 4889C7   		movq	%rax, %rdi
 1689              	.LEHB35:
 1690 089c E8000000 		call	_Unwind_Resume
 1690      00
 1691              	.LEHE35:
 1692              	.L96:
 1693 08a1 4889C3   		movq	%rax, %rbx
 1694              	.LBE39:
 1695              	.LBB40:
 1696              	.LBB41:
 1697 08a4 488D8510 		leaq	-2544(%rbp), %rax
 1697      F6FFFF
 1698 08ab 4889C7   		movq	%rax, %rdi
 1699 08ae E8000000 		call	_ZN8UnitTest15MemoryOutStreamD1Ev
 1699      00
 1700 08b3 EB03     		jmp	.L87
 1701              	.L97:
 1702 08b5 4889C3   		movq	%rax, %rbx
 1703              	.L87:
 1704              	.LBE41:
 1705 08b8 E8000000 		call	__cxa_end_catch
 1705      00
 1706 08bd 4889D8   		movq	%rbx, %rax
 1707 08c0 4889C7   		movq	%rax, %rdi
 1708              	.LEHB36:
 1709 08c3 E8000000 		call	_Unwind_Resume
 1709      00
 1710              	.LEHE36:
 1711              	.L98:
 1712 08c8 4889C3   		movq	%rax, %rbx
 1713              	.LBE40:
 1714 08cb E8000000 		call	__cxa_end_catch
 1714      00
 1715 08d0 4889D8   		movq	%rbx, %rax
 1716 08d3 4889C7   		movq	%rax, %rdi
 1717              	.LEHB37:
 1718 08d6 E8000000 		call	_Unwind_Resume
 1718      00
 1719              	.LEHE37:
 1720              	.L83:
 1721              	.LBB43:
 1722 08db 4889C7   		movq	%rax, %rdi
 1723 08de E8000000 		call	__cxa_begin_catch
 1723      00
 1724 08e3 48898500 		movq	%rax, -2560(%rbp)
 1724      F6FFFF
 1725 08ea 488B8500 		movq	-2560(%rbp), %rax
 1725      F6FFFF
 1726 08f1 488B00   		movq	(%rax), %rax
 1727 08f4 4883C010 		addq	$16, %rax
 1728 08f8 488B00   		movq	(%rax), %rax
 1729 08fb 488B9500 		movq	-2560(%rbp), %rdx
 1729      F6FFFF
 1730 0902 4889D7   		movq	%rdx, %rdi
 1731 0905 FFD0     		call	*%rax
 1732 0907 4889C3   		movq	%rax, %rbx
 1733 090a 488B8500 		movq	-2560(%rbp), %rax
 1733      F6FFFF
 1734 0911 4889C7   		movq	%rax, %rdi
 1735              	.LEHB38:
 1736 0914 E8000000 		call	_ZNK8UnitTest15AssertException10LineNumberEv
 1736      00
 1737 0919 4189C4   		movl	%eax, %r12d
 1738 091c 488B8500 		movq	-2560(%rbp), %rax
 1738      F6FFFF
 1739 0923 4889C7   		movq	%rax, %rdi
 1740 0926 E8000000 		call	_ZNK8UnitTest15AssertException8FilenameEv
 1740      00
 1741              		.loc 6 72 0 discriminator 1
 1742 092b 4889C1   		movq	%rax, %rcx
 1743 092e 488B85E8 		movq	-2584(%rbp), %rax
 1743      F5FFFF
 1744 0935 488B5008 		movq	8(%rax), %rdx
 1745 0939 488B85E8 		movq	-2584(%rbp), %rax
 1745      F5FFFF
 1746 0940 488B7010 		movq	16(%rax), %rsi
 1747 0944 488D8510 		leaq	-2544(%rbp), %rax
 1747      F6FFFF
 1748 094b 4589E0   		movl	%r12d, %r8d
 1749 094e 4889C7   		movq	%rax, %rdi
 1750 0951 E8000000 		call	_ZN8UnitTest11TestDetailsC1EPKcS2_S2_i
 1750      00
 1751              		.loc 6 72 0 discriminator 3
 1752 0956 E8000000 		call	_ZN8UnitTest11CurrentTest7ResultsEv
 1752      00
 1753 095b 488B00   		movq	(%rax), %rax
 1754 095e 488D8D10 		leaq	-2544(%rbp), %rcx
 1754      F6FFFF
 1755 0965 4889DA   		movq	%rbx, %rdx
 1756 0968 4889CE   		movq	%rcx, %rsi
 1757 096b 4889C7   		movq	%rax, %rdi
 1758 096e E8000000 		call	_ZN8UnitTest11TestResults13OnTestFailureERKNS_11TestDetailsEPKc
 1758      00
 1759              	.LEHE38:
 1760              		.loc 6 72 0 discriminator 1
 1761 0973 E8000000 		call	__cxa_end_catch
 1761      00
 1762              	.LBE43:
 1763              	.LBE45:
 1764 0978 E9430100 		jmp	.L100
 1764      00
 1765              	.L84:
 1766              	.LBB46:
 1767              	.LBB44:
 1768              		.loc 6 72 0
 1769 097d 4889C7   		movq	%rax, %rdi
 1770 0980 E8000000 		call	__cxa_begin_catch
 1770      00
 1771 0985 48898508 		movq	%rax, -2552(%rbp)
 1771      F6FFFF
 1772              	.LBB42:
 1773 098c 488D8510 		leaq	-2544(%rbp), %rax
 1773      F6FFFF
 1774 0993 4889C7   		movq	%rax, %rdi
 1775              	.LEHB39:
 1776 0996 E8000000 		call	_ZN8UnitTest15MemoryOutStreamC1Ev
 1776      00
 1777              	.LEHE39:
 1778              		.loc 6 72 0 discriminator 1
 1779 099b 488B8508 		movq	-2552(%rbp), %rax
 1779      F6FFFF
 1780 09a2 488B00   		movq	(%rax), %rax
 1781 09a5 4883C010 		addq	$16, %rax
 1782 09a9 488B00   		movq	(%rax), %rax
 1783 09ac 488B9508 		movq	-2552(%rbp), %rdx
 1783      F6FFFF
 1784 09b3 4889D7   		movq	%rdx, %rdi
 1785 09b6 FFD0     		call	*%rax
 1786 09b8 4889C3   		movq	%rax, %rbx
 1787 09bb 488D8510 		leaq	-2544(%rbp), %rax
 1787      F6FFFF
 1788 09c2 BE000000 		movl	$.LC8, %esi
 1788      00
 1789 09c7 4889C7   		movq	%rax, %rdi
 1790              	.LEHB40:
 1791 09ca E8000000 		call	_ZStlsISt11char_traitsIcEERSt13basic_ostreamIcT_ES5_PKc
 1791      00
 1792 09cf 4889DE   		movq	%rbx, %rsi
 1793 09d2 4889C7   		movq	%rax, %rdi
 1794 09d5 E8000000 		call	_ZStlsISt11char_traitsIcEERSt13basic_ostreamIcT_ES5_PKc
 1794      00
 1795 09da 488D8510 		leaq	-2544(%rbp), %rax
 1795      F6FFFF
 1796 09e1 4889C7   		movq	%rax, %rdi
 1797 09e4 E8000000 		call	_ZNK8UnitTest15MemoryOutStream7GetTextEv
 1797      00
 1798 09e9 4889C3   		movq	%rax, %rbx
 1799 09ec 488B85E8 		movq	-2584(%rbp), %rax
 1799      F5FFFF
 1800 09f3 4C8D6008 		leaq	8(%rax), %r12
 1801 09f7 E8000000 		call	_ZN8UnitTest11CurrentTest7ResultsEv
 1801      00
 1802 09fc 488B00   		movq	(%rax), %rax
 1803 09ff 4889DA   		movq	%rbx, %rdx
 1804 0a02 4C89E6   		movq	%r12, %rsi
 1805 0a05 4889C7   		movq	%rax, %rdi
 1806 0a08 E8000000 		call	_ZN8UnitTest11TestResults13OnTestFailureERKNS_11TestDetailsEPKc
 1806      00
 1807              	.LEHE40:
 1808 0a0d 488D8510 		leaq	-2544(%rbp), %rax
 1808      F6FFFF
 1809 0a14 4889C7   		movq	%rax, %rdi
 1810              	.LEHB41:
 1811 0a17 E8000000 		call	_ZN8UnitTest15MemoryOutStreamD1Ev
 1811      00
 1812              	.LEHE41:
 1813              	.LBE42:
 1814              		.loc 6 72 0
 1815 0a1c E8000000 		call	__cxa_end_catch
 1815      00
 1816              	.LBE44:
 1817              	.LBE46:
 1818 0a21 E99A0000 		jmp	.L100
 1818      00
 1819              	.L99:
 1820              	.LBB47:
 1821 0a26 4889C7   		movq	%rax, %rdi
 1822 0a29 E8000000 		call	__cxa_begin_catch
 1822      00
 1823 0a2e 80BDFFF5 		cmpb	$0, -2561(%rbp)
 1823      FFFF00
 1824 0a35 7443     		je	.L90
 1825              		.loc 6 72 0 discriminator 1
 1826 0a37 488B85E8 		movq	-2584(%rbp), %rax
 1826      F5FFFF
 1827 0a3e 488D4808 		leaq	8(%rax), %rcx
 1828 0a42 488D8510 		leaq	-2544(%rbp), %rax
 1828      F6FFFF
 1829 0a49 BA480000 		movl	$72, %edx
 1829      00
 1830 0a4e 4889CE   		movq	%rcx, %rsi
 1831 0a51 4889C7   		movq	%rax, %rdi
 1832              	.LEHB42:
 1833 0a54 E8000000 		call	_ZN8UnitTest11TestDetailsC1ERKS0_i
 1833      00
 1834 0a59 E8000000 		call	_ZN8UnitTest11CurrentTest7ResultsEv
 1834      00
 1835 0a5e 488B00   		movq	(%rax), %rax
 1836 0a61 488D8D10 		leaq	-2544(%rbp), %rcx
 1836      F6FFFF
 1837 0a68 BA000000 		movl	$.LC9, %edx
 1837      00
 1838 0a6d 4889CE   		movq	%rcx, %rsi
 1839 0a70 4889C7   		movq	%rax, %rdi
 1840 0a73 E8000000 		call	_ZN8UnitTest11TestResults13OnTestFailureERKNS_11TestDetailsEPKc
 1840      00
 1841 0a78 EB41     		jmp	.L91
 1842              	.L90:
 1843              		.loc 6 72 0 discriminator 2
 1844 0a7a 488B85E8 		movq	-2584(%rbp), %rax
 1844      F5FFFF
 1845 0a81 488D4808 		leaq	8(%rax), %rcx
 1846 0a85 488D8510 		leaq	-2544(%rbp), %rax
 1846      F6FFFF
 1847 0a8c BA480000 		movl	$72, %edx
 1847      00
 1848 0a91 4889CE   		movq	%rcx, %rsi
 1849 0a94 4889C7   		movq	%rax, %rdi
 1850 0a97 E8000000 		call	_ZN8UnitTest11TestDetailsC1ERKS0_i
 1850      00
 1851              		.loc 6 72 0 discriminator 1
 1852 0a9c E8000000 		call	_ZN8UnitTest11CurrentTest7ResultsEv
 1852      00
 1853 0aa1 488B00   		movq	(%rax), %rax
 1854 0aa4 488D8D10 		leaq	-2544(%rbp), %rcx
 1854      F6FFFF
 1855 0aab BA000000 		movl	$.LC10, %edx
 1855      00
 1856 0ab0 4889CE   		movq	%rcx, %rsi
 1857 0ab3 4889C7   		movq	%rax, %rdi
 1858 0ab6 E8000000 		call	_ZN8UnitTest11TestResults13OnTestFailureERKNS_11TestDetailsEPKc
 1858      00
 1859              	.LEHE42:
 1860              	.L91:
 1861              	.LEHB43:
 1862 0abb E8000000 		call	__cxa_end_catch
 1862      00
 1863              	.LEHE43:
 1864              	.L100:
 1865              	.LBE47:
 1866              		.loc 6 72 0
 1867 0ac0 90       		nop
 1868 0ac1 488B45E8 		movq	-24(%rbp), %rax
 1869 0ac5 64483304 		xorq	%fs:40, %rax
 1869      25280000 
 1869      00
 1870 0ace 7405     		je	.L92
 1871 0ad0 E8000000 		call	__stack_chk_fail
 1871      00
 1872              	.L92:
 1873 0ad5 4881C410 		addq	$2576, %rsp
 1873      0A0000
 1874 0adc 5B       		popq	%rbx
 1875 0add 415C     		popq	%r12
 1876 0adf 5D       		popq	%rbp
 1877              		.cfi_def_cfa 7, 8
 1878 0ae0 C3       		ret
 1879              		.cfi_endproc
 1880              	.LFE1063:
 1881              		.section	.gcc_except_table
 1882              		.align 4
 1883              	.LLSDA1063:
 1884 00c0 FF       		.byte	0xff
 1885 00c1 03       		.byte	0x3
 1886 00c2 59       		.uleb128 .LLSDATT1063-.LLSDATTD1063
 1887              	.LLSDATTD1063:
 1888 00c3 01       		.byte	0x1
 1889 00c4 41       		.uleb128 .LLSDACSE1063-.LLSDACSB1063
 1890              	.LLSDACSB1063:
 1891 00c5 43       		.uleb128 .LEHB32-.LFB1063
 1892 00c6 05       		.uleb128 .LEHE32-.LEHB32
 1893 00c7 9D01     		.uleb128 .L93-.LFB1063
 1894 00c9 05       		.uleb128 0x5
 1895 00ca 67       		.uleb128 .LEHB33-.LFB1063
 1896 00cb 05       		.uleb128 .LEHE33-.LEHB33
 1897 00cc 8001     		.uleb128 .L94-.LFB1063
 1898 00ce 07       		.uleb128 0x7
 1899 00cf 76       		.uleb128 .LEHB34-.LFB1063
 1900 00d0 05       		.uleb128 .LEHE34-.LEHB34
 1901 00d1 9D01     		.uleb128 .L93-.LFB1063
 1902 00d3 05       		.uleb128 0x5
 1903 00d4 C001     		.uleb128 .LEHB35-.LFB1063
 1904 00d6 05       		.uleb128 .LEHE35-.LEHB35
 1905 00d7 00       		.uleb128 0
 1906 00d8 00       		.uleb128 0
 1907 00d9 E701     		.uleb128 .LEHB36-.LFB1063
 1908 00db 05       		.uleb128 .LEHE36-.LEHB36
 1909 00dc 00       		.uleb128 0
 1910 00dd 00       		.uleb128 0
 1911 00de FA01     		.uleb128 .LEHB37-.LFB1063
 1912 00e0 05       		.uleb128 .LEHE37-.LEHB37
 1913 00e1 00       		.uleb128 0
 1914 00e2 00       		.uleb128 0
 1915 00e3 B802     		.uleb128 .LEHB38-.LFB1063
 1916 00e5 5F       		.uleb128 .LEHE38-.LEHB38
 1917 00e6 B201     		.uleb128 .L95-.LFB1063
 1918 00e8 00       		.uleb128 0
 1919 00e9 BA03     		.uleb128 .LEHB39-.LFB1063
 1920 00eb 05       		.uleb128 .LEHE39-.LEHB39
 1921 00ec D901     		.uleb128 .L97-.LFB1063
 1922 00ee 00       		.uleb128 0
 1923 00ef EE03     		.uleb128 .LEHB40-.LFB1063
 1924 00f1 43       		.uleb128 .LEHE40-.LEHB40
 1925 00f2 C501     		.uleb128 .L96-.LFB1063
 1926 00f4 00       		.uleb128 0
 1927 00f5 BB04     		.uleb128 .LEHB41-.LFB1063
 1928 00f7 05       		.uleb128 .LEHE41-.LEHB41
 1929 00f8 D901     		.uleb128 .L97-.LFB1063
 1930 00fa 00       		.uleb128 0
 1931 00fb F804     		.uleb128 .LEHB42-.LFB1063
 1932 00fd 67       		.uleb128 .LEHE42-.LEHB42
 1933 00fe EC01     		.uleb128 .L98-.LFB1063
 1934 0100 00       		.uleb128 0
 1935 0101 DF05     		.uleb128 .LEHB43-.LFB1063
 1936 0103 05       		.uleb128 .LEHE43-.LEHB43
 1937 0104 00       		.uleb128 0
 1938 0105 00       		.uleb128 0
 1939              	.LLSDACSE1063:
 1940 0106 03       		.byte	0x3
 1941 0107 00       		.byte	0
 1942 0108 02       		.byte	0x2
 1943 0109 7D       		.byte	0x7d
 1944 010a 01       		.byte	0x1
 1945 010b 7D       		.byte	0x7d
 1946 010c 00       		.byte	0
 1947 010d 7D       		.byte	0x7d
 1948 010e 0000     		.align 4
 1949 0110 00000000 		.long	0
 1950              	
 1951 0114 00000000 		.long	_ZTISt9exception
 1952 0118 00000000 		.long	_ZTIN8UnitTest15AssertExceptionE
 1953              	.LLSDATT1063:
 1954              		.text
 1956              		.section	.rodata
 1957 019f 00       		.align 8
 1958              	.LC15:
 1959 01a0 556E6861 		.string	"Unhandled exception in CHECK_EQUAL(1, reporter.testFinishedCount)"
 1959      6E646C65 
 1959      64206578 
 1959      63657074 
 1959      696F6E20 
 1960 01e2 00000000 		.align 8
 1960      0000
 1961              	.LC16:
 1962 01e8 556E6861 		.string	"Unhandled exception in CHECK_EQUAL(\"goodtest\", reporter.lastFinishedTest)"
 1962      6E646C65 
 1962      64206578 
 1962      63657074 
 1962      696F6E20 
 1963              		.text
 1964 0ae1 90       		.align 2
 1966              	_ZN12_GLOBAL__N_152TestRunnerFixtureTestFinishIsReportedCorrectlyHelper7RunImplEv:
 1967              	.LFB1067:
  73:TestTestRunner.cpp **** {
 1968              		.loc 6 73 0 is_stmt 1
 1969              		.cfi_startproc
 1970              		.cfi_personality 0x3,__gxx_personality_v0
 1971              		.cfi_lsda 0x3,.LLSDA1067
 1972 0ae2 55       		pushq	%rbp
 1973              		.cfi_def_cfa_offset 16
 1974              		.cfi_offset 6, -16
 1975 0ae3 4889E5   		movq	%rsp, %rbp
 1976              		.cfi_def_cfa_register 6
 1977 0ae6 53       		pushq	%rbx
 1978 0ae7 4881EC88 		subq	$136, %rsp
 1978      000000
 1979              		.cfi_offset 3, -24
 1980 0aee 4889BD78 		movq	%rdi, -136(%rbp)
 1980      FFFFFF
 1981              	.LBB48:
  74:TestTestRunner.cpp ****     MockTest test("goodtest", true, false);
 1982              		.loc 6 74 0
 1983 0af5 488D45B0 		leaq	-80(%rbp), %rax
 1984 0af9 41B80100 		movl	$1, %r8d
 1984      0000
 1985 0aff B9000000 		movl	$0, %ecx
 1985      00
 1986 0b04 BA010000 		movl	$1, %edx
 1986      00
 1987 0b09 BE000000 		movl	$.LC11, %esi
 1987      00
 1988 0b0e 4889C7   		movq	%rax, %rdi
 1989              	.LEHB44:
 1990 0b11 E8EAF4FF 		call	_ZN12_GLOBAL__N_18MockTestC1EPKcbbi
 1990      FF
 1991              	.LEHE44:
  75:TestTestRunner.cpp ****     list.Add(&test);
 1992              		.loc 6 75 0
 1993 0b16 488B8578 		movq	-136(%rbp), %rax
 1993      FFFFFF
 1994 0b1d 488D9048 		leaq	2120(%rax), %rdx
 1994      080000
 1995 0b24 488D45B0 		leaq	-80(%rbp), %rax
 1996 0b28 4889C6   		movq	%rax, %rsi
 1997 0b2b 4889D7   		movq	%rdx, %rdi
 1998              	.LEHB45:
 1999 0b2e E8000000 		call	_ZN8UnitTest8TestList3AddEPNS_4TestE
 1999      00
  76:TestTestRunner.cpp **** 
  77:TestTestRunner.cpp **** 	RunTestsIf(list, NULL, True(), 0);
 2000              		.loc 6 77 0
 2001 0b33 488B8578 		movq	-136(%rbp), %rax
 2001      FFFFFF
 2002 0b3a 488DB048 		leaq	2120(%rax), %rsi
 2002      080000
 2003 0b41 488B8578 		movq	-136(%rbp), %rax
 2003      FFFFFF
 2004 0b48 488D5590 		leaq	-112(%rbp), %rdx
 2005 0b4c 41B80000 		movl	$0, %r8d
 2005      0000
 2006 0b52 4889D1   		movq	%rdx, %rcx
 2007 0b55 BA000000 		movl	$0, %edx
 2007      00
 2008 0b5a 4889C7   		movq	%rax, %rdi
 2009 0b5d E8DE5D00 		call	_ZN12_GLOBAL__N_111FixtureBase10RunTestsIfIN8UnitTest4TrueEEEiRKNS2_8TestListEPKcRKT_i
 2009      00
 2010              	.LEHE45:
 2011              	.LEHB46:
  78:TestTestRunner.cpp ****     CHECK_EQUAL(1, reporter.testFinishedCount);
 2012              		.loc 6 78 0 discriminator 1
 2013 0b62 E8000000 		call	_ZN8UnitTest11CurrentTest7DetailsEv
 2013      00
 2014 0b67 488B08   		movq	(%rax), %rcx
 2015 0b6a 488D4590 		leaq	-112(%rbp), %rax
 2016 0b6e BA4E0000 		movl	$78, %edx
 2016      00
 2017 0b73 4889CE   		movq	%rcx, %rsi
 2018 0b76 4889C7   		movq	%rax, %rdi
 2019 0b79 E8000000 		call	_ZN8UnitTest11TestDetailsC1ERKS0_i
 2019      00
 2020 0b7e 488B8578 		movq	-136(%rbp), %rax
 2020      FFFFFF
 2021 0b85 488D982C 		leaq	1580(%rax), %rbx
 2021      060000
 2022 0b8c C7458C01 		movl	$1, -116(%rbp)
 2022      000000
 2023 0b93 E8000000 		call	_ZN8UnitTest11CurrentTest7ResultsEv
 2023      00
 2024 0b98 488B00   		movq	(%rax), %rax
 2025 0b9b 488D5590 		leaq	-112(%rbp), %rdx
 2026 0b9f 488D758C 		leaq	-116(%rbp), %rsi
 2027 0ba3 4889D1   		movq	%rdx, %rcx
 2028 0ba6 4889DA   		movq	%rbx, %rdx
 2029 0ba9 4889C7   		movq	%rax, %rdi
 2030 0bac E8000000 		call	_ZN8UnitTest10CheckEqualIiiEEvRNS_11TestResultsERKT_RKT0_RKNS_11TestDetailsE
 2030      00
 2031              	.LEHE46:
 2032              	.L105:
 2033              	.LEHB47:
  79:TestTestRunner.cpp ****     CHECK_EQUAL("goodtest", reporter.lastFinishedTest);
 2034              		.loc 6 79 0
 2035 0bb1 E8000000 		call	_ZN8UnitTest11CurrentTest7DetailsEv
 2035      00
 2036 0bb6 488B08   		movq	(%rax), %rcx
 2037 0bb9 488D4590 		leaq	-112(%rbp), %rax
 2038 0bbd BA4F0000 		movl	$79, %edx
 2038      00
 2039 0bc2 4889CE   		movq	%rcx, %rsi
 2040 0bc5 4889C7   		movq	%rax, %rdi
 2041 0bc8 E8000000 		call	_ZN8UnitTest11TestDetailsC1ERKS0_i
 2041      00
 2042              		.loc 6 79 0 is_stmt 0 discriminator 1
 2043 0bcd 488B8578 		movq	-136(%rbp), %rax
 2043      FFFFFF
 2044 0bd4 488D9830 		leaq	1840(%rax), %rbx
 2044      070000
 2045 0bdb E8000000 		call	_ZN8UnitTest11CurrentTest7ResultsEv
 2045      00
 2046 0be0 488B00   		movq	(%rax), %rax
 2047 0be3 488D5590 		leaq	-112(%rbp), %rdx
 2048 0be7 4889D1   		movq	%rdx, %rcx
 2049 0bea 4889DA   		movq	%rbx, %rdx
 2050 0bed BE000000 		movl	$.LC11, %esi
 2050      00
 2051 0bf2 4889C7   		movq	%rax, %rdi
 2052 0bf5 E8000000 		call	_ZN8UnitTest10CheckEqualERNS_11TestResultsEPKcPcRKNS_11TestDetailsE
 2052      00
 2053              	.LEHE47:
 2054              	.L108:
 2055              		.loc 6 79 0 discriminator 2
 2056 0bfa 488D45B0 		leaq	-80(%rbp), %rax
 2057 0bfe 4889C7   		movq	%rax, %rdi
 2058              	.LEHB48:
 2059 0c01 E8CA8F00 		call	_ZN12_GLOBAL__N_18MockTestD1Ev
 2059      00
 2060              	.LEHE48:
 2061 0c06 E9C50000 		jmp	.L114
 2061      00
 2062              	.L111:
 2063 0c0b 4889C3   		movq	%rax, %rbx
  78:TestTestRunner.cpp ****     CHECK_EQUAL(1, reporter.testFinishedCount);
 2064              		.loc 6 78 0 is_stmt 1
 2065 0c0e E8000000 		call	__cxa_end_catch
 2065      00
 2066 0c13 E9A10000 		jmp	.L103
 2066      00
 2067              	.L110:
 2068 0c18 4889C7   		movq	%rax, %rdi
 2069 0c1b E8000000 		call	__cxa_begin_catch
 2069      00
 2070              	.LEHB49:
 2071 0c20 E8000000 		call	_ZN8UnitTest11CurrentTest7DetailsEv
 2071      00
 2072 0c25 488B08   		movq	(%rax), %rcx
 2073 0c28 488D4590 		leaq	-112(%rbp), %rax
 2074 0c2c BA4E0000 		movl	$78, %edx
 2074      00
 2075 0c31 4889CE   		movq	%rcx, %rsi
 2076 0c34 4889C7   		movq	%rax, %rdi
 2077 0c37 E8000000 		call	_ZN8UnitTest11TestDetailsC1ERKS0_i
 2077      00
  78:TestTestRunner.cpp ****     CHECK_EQUAL(1, reporter.testFinishedCount);
 2078              		.loc 6 78 0 is_stmt 0 discriminator 1
 2079 0c3c E8000000 		call	_ZN8UnitTest11CurrentTest7ResultsEv
 2079      00
 2080 0c41 488B00   		movq	(%rax), %rax
 2081 0c44 488D4D90 		leaq	-112(%rbp), %rcx
 2082 0c48 BA000000 		movl	$.LC15, %edx
 2082      00
 2083 0c4d 4889CE   		movq	%rcx, %rsi
 2084 0c50 4889C7   		movq	%rax, %rdi
 2085 0c53 E8000000 		call	_ZN8UnitTest11TestResults13OnTestFailureERKNS_11TestDetailsEPKc
 2085      00
 2086              	.LEHE49:
 2087              	.LEHB50:
 2088 0c58 E8000000 		call	__cxa_end_catch
 2088      00
 2089              	.LEHE50:
  78:TestTestRunner.cpp ****     CHECK_EQUAL(1, reporter.testFinishedCount);
 2090              		.loc 6 78 0
 2091 0c5d E94FFFFF 		jmp	.L105
 2091      FF
 2092              	.L113:
 2093 0c62 4889C3   		movq	%rax, %rbx
 2094              		.loc 6 79 0 is_stmt 1
 2095 0c65 E8000000 		call	__cxa_end_catch
 2095      00
 2096 0c6a EB4D     		jmp	.L103
 2097              	.L112:
 2098 0c6c 4889C7   		movq	%rax, %rdi
 2099 0c6f E8000000 		call	__cxa_begin_catch
 2099      00
 2100              	.LEHB51:
 2101 0c74 E8000000 		call	_ZN8UnitTest11CurrentTest7DetailsEv
 2101      00
 2102 0c79 488B08   		movq	(%rax), %rcx
 2103 0c7c 488D4590 		leaq	-112(%rbp), %rax
 2104 0c80 BA4F0000 		movl	$79, %edx
 2104      00
 2105 0c85 4889CE   		movq	%rcx, %rsi
 2106 0c88 4889C7   		movq	%rax, %rdi
 2107 0c8b E8000000 		call	_ZN8UnitTest11TestDetailsC1ERKS0_i
 2107      00
 2108              		.loc 6 79 0 is_stmt 0 discriminator 1
 2109 0c90 E8000000 		call	_ZN8UnitTest11CurrentTest7ResultsEv
 2109      00
 2110 0c95 488B00   		movq	(%rax), %rax
 2111 0c98 488D4D90 		leaq	-112(%rbp), %rcx
 2112 0c9c BA000000 		movl	$.LC16, %edx
 2112      00
 2113 0ca1 4889CE   		movq	%rcx, %rsi
 2114 0ca4 4889C7   		movq	%rax, %rdi
 2115 0ca7 E8000000 		call	_ZN8UnitTest11TestResults13OnTestFailureERKNS_11TestDetailsEPKc
 2115      00
 2116              	.LEHE51:
 2117              	.LEHB52:
 2118 0cac E8000000 		call	__cxa_end_catch
 2118      00
 2119              	.LEHE52:
 2120              		.loc 6 79 0
 2121 0cb1 E944FFFF 		jmp	.L108
 2121      FF
 2122              	.L109:
 2123 0cb6 4889C3   		movq	%rax, %rbx
 2124              	.L103:
 2125 0cb9 488D45B0 		leaq	-80(%rbp), %rax
 2126 0cbd 4889C7   		movq	%rax, %rdi
 2127 0cc0 E80B8F00 		call	_ZN12_GLOBAL__N_18MockTestD1Ev
 2127      00
 2128 0cc5 4889D8   		movq	%rbx, %rax
 2129 0cc8 4889C7   		movq	%rax, %rdi
 2130              	.LEHB53:
 2131 0ccb E8000000 		call	_Unwind_Resume
 2131      00
 2132              	.LEHE53:
 2133              	.L114:
 2134              	.LBE48:
  80:TestTestRunner.cpp **** }
 2135              		.loc 6 80 0 is_stmt 1
 2136 0cd0 4881C488 		addq	$136, %rsp
 2136      000000
 2137 0cd7 5B       		popq	%rbx
 2138 0cd8 5D       		popq	%rbp
 2139              		.cfi_def_cfa 7, 8
 2140 0cd9 C3       		ret
 2141              		.cfi_endproc
 2142              	.LFE1067:
 2143              		.section	.gcc_except_table
 2144              		.align 4
 2145              	.LLSDA1067:
 2146 011c FF       		.byte	0xff
 2147 011d 03       		.byte	0x3
 2148 011e 41       		.uleb128 .LLSDATT1067-.LLSDATTD1067
 2149              	.LLSDATTD1067:
 2150 011f 01       		.byte	0x1
 2151 0120 37       		.uleb128 .LLSDACSE1067-.LLSDACSB1067
 2152              	.LLSDACSB1067:
 2153 0121 2F       		.uleb128 .LEHB44-.LFB1067
 2154 0122 05       		.uleb128 .LEHE44-.LEHB44
 2155 0123 00       		.uleb128 0
 2156 0124 00       		.uleb128 0
 2157 0125 4C       		.uleb128 .LEHB45-.LFB1067
 2158 0126 34       		.uleb128 .LEHE45-.LEHB45
 2159 0127 D403     		.uleb128 .L109-.LFB1067
 2160 0129 00       		.uleb128 0
 2161 012a 8001     		.uleb128 .LEHB46-.LFB1067
 2162 012c 4F       		.uleb128 .LEHE46-.LEHB46
 2163 012d B602     		.uleb128 .L110-.LFB1067
 2164 012f 01       		.uleb128 0x1
 2165 0130 CF01     		.uleb128 .LEHB47-.LFB1067
 2166 0132 49       		.uleb128 .LEHE47-.LEHB47
 2167 0133 8A03     		.uleb128 .L112-.LFB1067
 2168 0135 01       		.uleb128 0x1
 2169 0136 9F02     		.uleb128 .LEHB48-.LFB1067
 2170 0138 05       		.uleb128 .LEHE48-.LEHB48
 2171 0139 00       		.uleb128 0
 2172 013a 00       		.uleb128 0
 2173 013b BE02     		.uleb128 .LEHB49-.LFB1067
 2174 013d 38       		.uleb128 .LEHE49-.LEHB49
 2175 013e A902     		.uleb128 .L111-.LFB1067
 2176 0140 00       		.uleb128 0
 2177 0141 F602     		.uleb128 .LEHB50-.LFB1067
 2178 0143 05       		.uleb128 .LEHE50-.LEHB50
 2179 0144 D403     		.uleb128 .L109-.LFB1067
 2180 0146 00       		.uleb128 0
 2181 0147 9203     		.uleb128 .LEHB51-.LFB1067
 2182 0149 38       		.uleb128 .LEHE51-.LEHB51
 2183 014a 8003     		.uleb128 .L113-.LFB1067
 2184 014c 00       		.uleb128 0
 2185 014d CA03     		.uleb128 .LEHB52-.LFB1067
 2186 014f 05       		.uleb128 .LEHE52-.LEHB52
 2187 0150 D403     		.uleb128 .L109-.LFB1067
 2188 0152 00       		.uleb128 0
 2189 0153 E903     		.uleb128 .LEHB53-.LFB1067
 2190 0155 05       		.uleb128 .LEHE53-.LEHB53
 2191 0156 00       		.uleb128 0
 2192 0157 00       		.uleb128 0
 2193              	.LLSDACSE1067:
 2194 0158 01       		.byte	0x1
 2195 0159 00       		.byte	0
 2196 015a 0000     		.align 4
 2197 015c 00000000 		.long	0
 2198              	
 2199              	.LLSDATT1067:
 2200              		.text
 2202              		.section	.rodata
 2203              	.LC17:
 2204 0232 66696C65 		.string	"filename"
 2204      6E616D65 
 2204      00
 2205              	.LC18:
 2206 023b 736F6D65 		.string	"somesuite"
 2206      73756974 
 2206      6500
 2207              	.LC19:
 2208 0245 736C6F77 		.string	"slow"
 2208      00
 2209              		.text
 2210              		.align 2
 2212              	_ZN12_GLOBAL__N_18SlowTestC2Ev:
 2213              	.LFB1069:
  81:TestTestRunner.cpp **** 
  82:TestTestRunner.cpp **** class SlowTest : public Test
  83:TestTestRunner.cpp **** {
  84:TestTestRunner.cpp **** public:
  85:TestTestRunner.cpp ****     SlowTest() : Test("slow", "somesuite", "filename", 123) {}
 2214              		.loc 6 85 0
 2215              		.cfi_startproc
 2216 0cda 55       		pushq	%rbp
 2217              		.cfi_def_cfa_offset 16
 2218              		.cfi_offset 6, -16
 2219 0cdb 4889E5   		movq	%rsp, %rbp
 2220              		.cfi_def_cfa_register 6
 2221 0cde 4883EC10 		subq	$16, %rsp
 2222 0ce2 48897DF8 		movq	%rdi, -8(%rbp)
 2223              	.LBB49:
 2224              		.loc 6 85 0
 2225 0ce6 488B45F8 		movq	-8(%rbp), %rax
 2226 0cea 41B87B00 		movl	$123, %r8d
 2226      0000
 2227 0cf0 B9000000 		movl	$.LC17, %ecx
 2227      00
 2228 0cf5 BA000000 		movl	$.LC18, %edx
 2228      00
 2229 0cfa BE000000 		movl	$.LC19, %esi
 2229      00
 2230 0cff 4889C7   		movq	%rax, %rdi
 2231 0d02 E8000000 		call	_ZN8UnitTest4TestC2EPKcS2_S2_i
 2231      00
 2232 0d07 488B45F8 		movq	-8(%rbp), %rax
 2233 0d0b 48C70000 		movq	$_ZTVN12_GLOBAL__N_18SlowTestE+16, (%rax)
 2233      000000
 2234              	.LBE49:
 2235 0d12 C9       		leave
 2236              		.cfi_def_cfa 7, 8
 2237 0d13 C3       		ret
 2238              		.cfi_endproc
 2239              	.LFE1069:
 2241              		.set	_ZN12_GLOBAL__N_18SlowTestC1Ev,_ZN12_GLOBAL__N_18SlowTestC2Ev
 2242              		.align 2
 2244              	_ZNK12_GLOBAL__N_18SlowTest7RunImplEv:
 2245              	.LFB1071:
  86:TestTestRunner.cpp ****     virtual void RunImpl() const
 2246              		.loc 6 86 0
 2247              		.cfi_startproc
 2248 0d14 55       		pushq	%rbp
 2249              		.cfi_def_cfa_offset 16
 2250              		.cfi_offset 6, -16
 2251 0d15 4889E5   		movq	%rsp, %rbp
 2252              		.cfi_def_cfa_register 6
 2253 0d18 4883EC10 		subq	$16, %rsp
 2254 0d1c 48897DF8 		movq	%rdi, -8(%rbp)
  87:TestTestRunner.cpp ****     {
  88:TestTestRunner.cpp ****         TimeHelpers::SleepMs(20);
 2255              		.loc 6 88 0
 2256 0d20 BF140000 		movl	$20, %edi
 2256      00
 2257 0d25 E8000000 		call	_ZN8UnitTest11TimeHelpers7SleepMsEi
 2257      00
  89:TestTestRunner.cpp ****     }
 2258              		.loc 6 89 0
 2259 0d2a C9       		leave
 2260              		.cfi_def_cfa 7, 8
 2261 0d2b C3       		ret
 2262              		.cfi_endproc
 2263              	.LFE1071:
 2265              		.align 2
 2267              	_ZN12_GLOBAL__N_156TestRunnerFixtureTestFinishIsCalledWithCorrectTimeHelperC2ERKN8UnitTest11TestDet
 2268              	.LFB1073:
  90:TestTestRunner.cpp **** };
  91:TestTestRunner.cpp **** 
  92:TestTestRunner.cpp **** TEST_FIXTURE(TestRunnerFixture, TestFinishIsCalledWithCorrectTime)
 2269              		.loc 6 92 0
 2270              		.cfi_startproc
 2271 0d2c 55       		pushq	%rbp
 2272              		.cfi_def_cfa_offset 16
 2273              		.cfi_offset 6, -16
 2274 0d2d 4889E5   		movq	%rsp, %rbp
 2275              		.cfi_def_cfa_register 6
 2276 0d30 4883EC10 		subq	$16, %rsp
 2277 0d34 48897DF8 		movq	%rdi, -8(%rbp)
 2278 0d38 488975F0 		movq	%rsi, -16(%rbp)
 2279              	.LBB50:
 2280              		.loc 6 92 0
 2281 0d3c 488B45F8 		movq	-8(%rbp), %rax
 2282 0d40 4889C7   		movq	%rax, %rdi
 2283 0d43 E824F4FF 		call	_ZN12_GLOBAL__N_117TestRunnerFixtureC2Ev
 2283      FF
 2284 0d48 488B45F8 		movq	-8(%rbp), %rax
 2285 0d4c 488B55F0 		movq	-16(%rbp), %rdx
 2286 0d50 48899058 		movq	%rdx, 2136(%rax)
 2286      080000
 2287              	.LBE50:
 2288 0d57 C9       		leave
 2289              		.cfi_def_cfa 7, 8
 2290 0d58 C3       		ret
 2291              		.cfi_endproc
 2292              	.LFE1073:
 2294              		.set	_ZN12_GLOBAL__N_156TestRunnerFixtureTestFinishIsCalledWithCorrectTimeHelperC1ERKN8UnitTest11T
 2295              		.section	.rodata
 2296 024a 00000000 		.align 8
 2296      0000
 2297              	.LC20:
 2298 0250 54657374 		.string	"TestFinishIsCalledWithCorrectTime"
 2298      46696E69 
 2298      73684973 
 2298      43616C6C 
 2298      65645769 
 2299              		.text
 2300 0d59 90       		.align 2
 2302              	_ZN12_GLOBAL__N_154TestTestRunnerFixtureTestFinishIsCalledWithCorrectTimeC2Ev:
 2303              	.LFB1076:
 2304              		.loc 6 92 0
 2305              		.cfi_startproc
 2306 0d5a 55       		pushq	%rbp
 2307              		.cfi_def_cfa_offset 16
 2308              		.cfi_offset 6, -16
 2309 0d5b 4889E5   		movq	%rsp, %rbp
 2310              		.cfi_def_cfa_register 6
 2311 0d5e 4883EC10 		subq	$16, %rsp
 2312 0d62 48897DF8 		movq	%rdi, -8(%rbp)
 2313              	.LBB51:
 2314              		.loc 6 92 0
 2315 0d66 E8000000 		call	_ZN13UnitTestSuite12GetSuiteNameEv
 2315      00
 2316 0d6b 4889C2   		movq	%rax, %rdx
 2317 0d6e 488B45F8 		movq	-8(%rbp), %rax
 2318 0d72 41B85C00 		movl	$92, %r8d
 2318      0000
 2319 0d78 B9000000 		movl	$.LC6, %ecx
 2319      00
 2320 0d7d BE000000 		movl	$.LC20, %esi
 2320      00
 2321 0d82 4889C7   		movq	%rax, %rdi
 2322 0d85 E8000000 		call	_ZN8UnitTest4TestC2EPKcS2_S2_i
 2322      00
 2323 0d8a 488B45F8 		movq	-8(%rbp), %rax
 2324 0d8e 48C70000 		movq	$_ZTVN12_GLOBAL__N_154TestTestRunnerFixtureTestFinishIsCalledWithCorrectTimeE+16, (%rax)
 2324      000000
 2325              	.LBE51:
 2326 0d95 C9       		leave
 2327              		.cfi_def_cfa 7, 8
 2328 0d96 C3       		ret
 2329              		.cfi_endproc
 2330              	.LFE1076:
 2332              		.set	_ZN12_GLOBAL__N_154TestTestRunnerFixtureTestFinishIsCalledWithCorrectTimeC1Ev,_ZN12_GLOBAL__N
 2333              		.local	_ZN12_GLOBAL__N_162testTestRunnerFixtureTestFinishIsCalledWithCorrectTimeInstanceE
 2334              		.comm	_ZN12_GLOBAL__N_162testTestRunnerFixtureTestFinishIsCalledWithCorrectTimeInstanceE,56,32
 2335              		.local	_ZN12_GLOBAL__N_155adderTestRunnerFixtureTestFinishIsCalledWithCorrectTimeE
 2336              		.comm	_ZN12_GLOBAL__N_155adderTestRunnerFixtureTestFinishIsCalledWithCorrectTimeE,1,1
 2337 0d97 90       		.align 2
 2339              	_ZN12_GLOBAL__N_156TestRunnerFixtureTestFinishIsCalledWithCorrectTimeHelperD2Ev:
 2340              	.LFB1080:
 2341              		.loc 6 92 0
 2342              		.cfi_startproc
 2343 0d98 55       		pushq	%rbp
 2344              		.cfi_def_cfa_offset 16
 2345              		.cfi_offset 6, -16
 2346 0d99 4889E5   		movq	%rsp, %rbp
 2347              		.cfi_def_cfa_register 6
 2348 0d9c 4883EC10 		subq	$16, %rsp
 2349 0da0 48897DF8 		movq	%rdi, -8(%rbp)
 2350              	.LBB52:
 2351              		.loc 6 92 0
 2352 0da4 488B45F8 		movq	-8(%rbp), %rax
 2353 0da8 4889C7   		movq	%rax, %rdi
 2354 0dab E80AF4FF 		call	_ZN12_GLOBAL__N_117TestRunnerFixtureD2Ev
 2354      FF
 2355              	.LBE52:
 2356 0db0 C9       		leave
 2357              		.cfi_def_cfa 7, 8
 2358 0db1 C3       		ret
 2359              		.cfi_endproc
 2360              	.LFE1080:
 2362              		.set	_ZN12_GLOBAL__N_156TestRunnerFixtureTestFinishIsCalledWithCorrectTimeHelperD1Ev,_ZN12_GLOBAL_
 2363              		.align 2
 2365              	_ZNK12_GLOBAL__N_154TestTestRunnerFixtureTestFinishIsCalledWithCorrectTime7RunImplEv:
 2366              	.LFB1078:
 2367              		.loc 6 92 0
 2368              		.cfi_startproc
 2369              		.cfi_personality 0x3,__gxx_personality_v0
 2370              		.cfi_lsda 0x3,.LLSDA1078
 2371 0db2 55       		pushq	%rbp
 2372              		.cfi_def_cfa_offset 16
 2373              		.cfi_offset 6, -16
 2374 0db3 4889E5   		movq	%rsp, %rbp
 2375              		.cfi_def_cfa_register 6
 2376 0db6 4154     		pushq	%r12
 2377 0db8 53       		pushq	%rbx
 2378 0db9 4881EC10 		subq	$2576, %rsp
 2378      0A0000
 2379              		.cfi_offset 12, -24
 2380              		.cfi_offset 3, -32
 2381 0dc0 4889BDE8 		movq	%rdi, -2584(%rbp)
 2381      F5FFFF
 2382              		.loc 6 92 0
 2383 0dc7 64488B04 		movq	%fs:40, %rax
 2383      25280000 
 2383      00
 2384 0dd0 488945E8 		movq	%rax, -24(%rbp)
 2385 0dd4 31C0     		xorl	%eax, %eax
 2386              	.LBB53:
 2387 0dd6 C685FFF5 		movb	$0, -2561(%rbp)
 2387      FFFF00
 2388              	.LBB54:
 2389 0ddd 488B85E8 		movq	-2584(%rbp), %rax
 2389      F5FFFF
 2390 0de4 488D5008 		leaq	8(%rax), %rdx
 2391 0de8 488D8580 		leaq	-2176(%rbp), %rax
 2391      F7FFFF
 2392 0def 4889D6   		movq	%rdx, %rsi
 2393 0df2 4889C7   		movq	%rax, %rdi
 2394              	.LEHB54:
 2395 0df5 E832FFFF 		call	_ZN12_GLOBAL__N_156TestRunnerFixtureTestFinishIsCalledWithCorrectTimeHelperC1ERKN8UnitTest11T
 2395      FF
 2396              	.LEHE54:
 2397              		.loc 6 92 0 is_stmt 0 discriminator 1
 2398 0dfa C685FFF5 		movb	$1, -2561(%rbp)
 2398      FFFF01
 2399 0e01 488B85E8 		movq	-2584(%rbp), %rax
 2399      F5FFFF
 2400 0e08 488D5008 		leaq	8(%rax), %rdx
 2401 0e0c 488D8580 		leaq	-2176(%rbp), %rax
 2401      F7FFFF
 2402 0e13 4889D6   		movq	%rdx, %rsi
 2403 0e16 4889C7   		movq	%rax, %rdi
 2404              	.LEHB55:
 2405 0e19 E82C5E00 		call	_ZN8UnitTest11ExecuteTestIN12_GLOBAL__N_156TestRunnerFixtureTestFinishIsCalledWithCorrectTime
 2405      00
 2406              	.LEHE55:
 2407 0e1e 488D8580 		leaq	-2176(%rbp), %rax
 2407      F7FFFF
 2408 0e25 4889C7   		movq	%rax, %rdi
 2409              	.LEHB56:
 2410 0e28 E86BFFFF 		call	_ZN12_GLOBAL__N_156TestRunnerFixtureTestFinishIsCalledWithCorrectTimeHelperD1Ev
 2410      FF
 2411              	.LEHE56:
 2412              	.LBE54:
 2413              	.LBE53:
 2414              		.loc 6 92 0
 2415 0e2d E9640200 		jmp	.L142
 2415      00
 2416              	.L136:
 2417 0e32 4989C4   		movq	%rax, %r12
 2418 0e35 4889D3   		movq	%rdx, %rbx
 2419              	.LBB62:
 2420              	.LBB55:
 2421 0e38 488D8580 		leaq	-2176(%rbp), %rax
 2421      F7FFFF
 2422 0e3f 4889C7   		movq	%rax, %rdi
 2423 0e42 E851FFFF 		call	_ZN12_GLOBAL__N_156TestRunnerFixtureTestFinishIsCalledWithCorrectTimeHelperD1Ev
 2423      FF
 2424 0e47 4C89E0   		movq	%r12, %rax
 2425 0e4a 4889DA   		movq	%rbx, %rdx
 2426 0e4d EB00     		jmp	.L123
 2427              	.L135:
 2428              	.L123:
 2429 0e4f 4883FA01 		cmpq	$1, %rdx
 2430 0e53 745C     		je	.L125
 2431 0e55 4883FA02 		cmpq	$2, %rdx
 2432 0e59 0F84F400 		je	.L126
 2432      0000
 2433 0e5f E9980100 		jmp	.L141
 2433      00
 2434              	.L137:
 2435 0e64 4889C3   		movq	%rax, %rbx
 2436              	.LBE55:
 2437              	.LBB56:
 2438 0e67 E8000000 		call	__cxa_end_catch
 2438      00
 2439 0e6c 4889D8   		movq	%rbx, %rax
 2440 0e6f 4889C7   		movq	%rax, %rdi
 2441              	.LEHB57:
 2442 0e72 E8000000 		call	_Unwind_Resume
 2442      00
 2443              	.LEHE57:
 2444              	.L138:
 2445 0e77 4889C3   		movq	%rax, %rbx
 2446              	.LBE56:
 2447              	.LBB57:
 2448              	.LBB58:
 2449 0e7a 488D8510 		leaq	-2544(%rbp), %rax
 2449      F6FFFF
 2450 0e81 4889C7   		movq	%rax, %rdi
 2451 0e84 E8000000 		call	_ZN8UnitTest15MemoryOutStreamD1Ev
 2451      00
 2452 0e89 EB03     		jmp	.L129
 2453              	.L139:
 2454 0e8b 4889C3   		movq	%rax, %rbx
 2455              	.L129:
 2456              	.LBE58:
 2457 0e8e E8000000 		call	__cxa_end_catch
 2457      00
 2458 0e93 4889D8   		movq	%rbx, %rax
 2459 0e96 4889C7   		movq	%rax, %rdi
 2460              	.LEHB58:
 2461 0e99 E8000000 		call	_Unwind_Resume
 2461      00
 2462              	.LEHE58:
 2463              	.L140:
 2464 0e9e 4889C3   		movq	%rax, %rbx
 2465              	.LBE57:
 2466 0ea1 E8000000 		call	__cxa_end_catch
 2466      00
 2467 0ea6 4889D8   		movq	%rbx, %rax
 2468 0ea9 4889C7   		movq	%rax, %rdi
 2469              	.LEHB59:
 2470 0eac E8000000 		call	_Unwind_Resume
 2470      00
 2471              	.LEHE59:
 2472              	.L125:
 2473              	.LBB60:
 2474 0eb1 4889C7   		movq	%rax, %rdi
 2475 0eb4 E8000000 		call	__cxa_begin_catch
 2475      00
 2476 0eb9 48898500 		movq	%rax, -2560(%rbp)
 2476      F6FFFF
 2477 0ec0 488B8500 		movq	-2560(%rbp), %rax
 2477      F6FFFF
 2478 0ec7 488B00   		movq	(%rax), %rax
 2479 0eca 4883C010 		addq	$16, %rax
 2480 0ece 488B00   		movq	(%rax), %rax
 2481 0ed1 488B9500 		movq	-2560(%rbp), %rdx
 2481      F6FFFF
 2482 0ed8 4889D7   		movq	%rdx, %rdi
 2483 0edb FFD0     		call	*%rax
 2484 0edd 4889C3   		movq	%rax, %rbx
 2485 0ee0 488B8500 		movq	-2560(%rbp), %rax
 2485      F6FFFF
 2486 0ee7 4889C7   		movq	%rax, %rdi
 2487              	.LEHB60:
 2488 0eea E8000000 		call	_ZNK8UnitTest15AssertException10LineNumberEv
 2488      00
 2489 0eef 4189C4   		movl	%eax, %r12d
 2490 0ef2 488B8500 		movq	-2560(%rbp), %rax
 2490      F6FFFF
 2491 0ef9 4889C7   		movq	%rax, %rdi
 2492 0efc E8000000 		call	_ZNK8UnitTest15AssertException8FilenameEv
 2492      00
 2493              		.loc 6 92 0 discriminator 1
 2494 0f01 4889C1   		movq	%rax, %rcx
 2495 0f04 488B85E8 		movq	-2584(%rbp), %rax
 2495      F5FFFF
 2496 0f0b 488B5008 		movq	8(%rax), %rdx
 2497 0f0f 488B85E8 		movq	-2584(%rbp), %rax
 2497      F5FFFF
 2498 0f16 488B7010 		movq	16(%rax), %rsi
 2499 0f1a 488D8510 		leaq	-2544(%rbp), %rax
 2499      F6FFFF
 2500 0f21 4589E0   		movl	%r12d, %r8d
 2501 0f24 4889C7   		movq	%rax, %rdi
 2502 0f27 E8000000 		call	_ZN8UnitTest11TestDetailsC1EPKcS2_S2_i
 2502      00
 2503              		.loc 6 92 0 discriminator 3
 2504 0f2c E8000000 		call	_ZN8UnitTest11CurrentTest7ResultsEv
 2504      00
 2505 0f31 488B00   		movq	(%rax), %rax
 2506 0f34 488D8D10 		leaq	-2544(%rbp), %rcx
 2506      F6FFFF
 2507 0f3b 4889DA   		movq	%rbx, %rdx
 2508 0f3e 4889CE   		movq	%rcx, %rsi
 2509 0f41 4889C7   		movq	%rax, %rdi
 2510 0f44 E8000000 		call	_ZN8UnitTest11TestResults13OnTestFailureERKNS_11TestDetailsEPKc
 2510      00
 2511              	.LEHE60:
 2512              		.loc 6 92 0 discriminator 1
 2513 0f49 E8000000 		call	__cxa_end_catch
 2513      00
 2514              	.LBE60:
 2515              	.LBE62:
 2516 0f4e E9430100 		jmp	.L142
 2516      00
 2517              	.L126:
 2518              	.LBB63:
 2519              	.LBB61:
 2520              		.loc 6 92 0
 2521 0f53 4889C7   		movq	%rax, %rdi
 2522 0f56 E8000000 		call	__cxa_begin_catch
 2522      00
 2523 0f5b 48898508 		movq	%rax, -2552(%rbp)
 2523      F6FFFF
 2524              	.LBB59:
 2525 0f62 488D8510 		leaq	-2544(%rbp), %rax
 2525      F6FFFF
 2526 0f69 4889C7   		movq	%rax, %rdi
 2527              	.LEHB61:
 2528 0f6c E8000000 		call	_ZN8UnitTest15MemoryOutStreamC1Ev
 2528      00
 2529              	.LEHE61:
 2530              		.loc 6 92 0 discriminator 1
 2531 0f71 488B8508 		movq	-2552(%rbp), %rax
 2531      F6FFFF
 2532 0f78 488B00   		movq	(%rax), %rax
 2533 0f7b 4883C010 		addq	$16, %rax
 2534 0f7f 488B00   		movq	(%rax), %rax
 2535 0f82 488B9508 		movq	-2552(%rbp), %rdx
 2535      F6FFFF
 2536 0f89 4889D7   		movq	%rdx, %rdi
 2537 0f8c FFD0     		call	*%rax
 2538 0f8e 4889C3   		movq	%rax, %rbx
 2539 0f91 488D8510 		leaq	-2544(%rbp), %rax
 2539      F6FFFF
 2540 0f98 BE000000 		movl	$.LC8, %esi
 2540      00
 2541 0f9d 4889C7   		movq	%rax, %rdi
 2542              	.LEHB62:
 2543 0fa0 E8000000 		call	_ZStlsISt11char_traitsIcEERSt13basic_ostreamIcT_ES5_PKc
 2543      00
 2544 0fa5 4889DE   		movq	%rbx, %rsi
 2545 0fa8 4889C7   		movq	%rax, %rdi
 2546 0fab E8000000 		call	_ZStlsISt11char_traitsIcEERSt13basic_ostreamIcT_ES5_PKc
 2546      00
 2547 0fb0 488D8510 		leaq	-2544(%rbp), %rax
 2547      F6FFFF
 2548 0fb7 4889C7   		movq	%rax, %rdi
 2549 0fba E8000000 		call	_ZNK8UnitTest15MemoryOutStream7GetTextEv
 2549      00
 2550 0fbf 4889C3   		movq	%rax, %rbx
 2551 0fc2 488B85E8 		movq	-2584(%rbp), %rax
 2551      F5FFFF
 2552 0fc9 4C8D6008 		leaq	8(%rax), %r12
 2553 0fcd E8000000 		call	_ZN8UnitTest11CurrentTest7ResultsEv
 2553      00
 2554 0fd2 488B00   		movq	(%rax), %rax
 2555 0fd5 4889DA   		movq	%rbx, %rdx
 2556 0fd8 4C89E6   		movq	%r12, %rsi
 2557 0fdb 4889C7   		movq	%rax, %rdi
 2558 0fde E8000000 		call	_ZN8UnitTest11TestResults13OnTestFailureERKNS_11TestDetailsEPKc
 2558      00
 2559              	.LEHE62:
 2560 0fe3 488D8510 		leaq	-2544(%rbp), %rax
 2560      F6FFFF
 2561 0fea 4889C7   		movq	%rax, %rdi
 2562              	.LEHB63:
 2563 0fed E8000000 		call	_ZN8UnitTest15MemoryOutStreamD1Ev
 2563      00
 2564              	.LEHE63:
 2565              	.LBE59:
 2566              		.loc 6 92 0
 2567 0ff2 E8000000 		call	__cxa_end_catch
 2567      00
 2568              	.LBE61:
 2569              	.LBE63:
 2570 0ff7 E99A0000 		jmp	.L142
 2570      00
 2571              	.L141:
 2572              	.LBB64:
 2573 0ffc 4889C7   		movq	%rax, %rdi
 2574 0fff E8000000 		call	__cxa_begin_catch
 2574      00
 2575 1004 80BDFFF5 		cmpb	$0, -2561(%rbp)
 2575      FFFF00
 2576 100b 7443     		je	.L132
 2577              		.loc 6 92 0 discriminator 1
 2578 100d 488B85E8 		movq	-2584(%rbp), %rax
 2578      F5FFFF
 2579 1014 488D4808 		leaq	8(%rax), %rcx
 2580 1018 488D8510 		leaq	-2544(%rbp), %rax
 2580      F6FFFF
 2581 101f BA5C0000 		movl	$92, %edx
 2581      00
 2582 1024 4889CE   		movq	%rcx, %rsi
 2583 1027 4889C7   		movq	%rax, %rdi
 2584              	.LEHB64:
 2585 102a E8000000 		call	_ZN8UnitTest11TestDetailsC1ERKS0_i
 2585      00
 2586 102f E8000000 		call	_ZN8UnitTest11CurrentTest7ResultsEv
 2586      00
 2587 1034 488B00   		movq	(%rax), %rax
 2588 1037 488D8D10 		leaq	-2544(%rbp), %rcx
 2588      F6FFFF
 2589 103e BA000000 		movl	$.LC9, %edx
 2589      00
 2590 1043 4889CE   		movq	%rcx, %rsi
 2591 1046 4889C7   		movq	%rax, %rdi
 2592 1049 E8000000 		call	_ZN8UnitTest11TestResults13OnTestFailureERKNS_11TestDetailsEPKc
 2592      00
 2593 104e EB41     		jmp	.L133
 2594              	.L132:
 2595              		.loc 6 92 0 discriminator 2
 2596 1050 488B85E8 		movq	-2584(%rbp), %rax
 2596      F5FFFF
 2597 1057 488D4808 		leaq	8(%rax), %rcx
 2598 105b 488D8510 		leaq	-2544(%rbp), %rax
 2598      F6FFFF
 2599 1062 BA5C0000 		movl	$92, %edx
 2599      00
 2600 1067 4889CE   		movq	%rcx, %rsi
 2601 106a 4889C7   		movq	%rax, %rdi
 2602 106d E8000000 		call	_ZN8UnitTest11TestDetailsC1ERKS0_i
 2602      00
 2603              		.loc 6 92 0 discriminator 1
 2604 1072 E8000000 		call	_ZN8UnitTest11CurrentTest7ResultsEv
 2604      00
 2605 1077 488B00   		movq	(%rax), %rax
 2606 107a 488D8D10 		leaq	-2544(%rbp), %rcx
 2606      F6FFFF
 2607 1081 BA000000 		movl	$.LC10, %edx
 2607      00
 2608 1086 4889CE   		movq	%rcx, %rsi
 2609 1089 4889C7   		movq	%rax, %rdi
 2610 108c E8000000 		call	_ZN8UnitTest11TestResults13OnTestFailureERKNS_11TestDetailsEPKc
 2610      00
 2611              	.LEHE64:
 2612              	.L133:
 2613              	.LEHB65:
 2614 1091 E8000000 		call	__cxa_end_catch
 2614      00
 2615              	.LEHE65:
 2616              	.L142:
 2617              	.LBE64:
 2618              		.loc 6 92 0
 2619 1096 90       		nop
 2620 1097 488B45E8 		movq	-24(%rbp), %rax
 2621 109b 64483304 		xorq	%fs:40, %rax
 2621      25280000 
 2621      00
 2622 10a4 7405     		je	.L134
 2623 10a6 E8000000 		call	__stack_chk_fail
 2623      00
 2624              	.L134:
 2625 10ab 4881C410 		addq	$2576, %rsp
 2625      0A0000
 2626 10b2 5B       		popq	%rbx
 2627 10b3 415C     		popq	%r12
 2628 10b5 5D       		popq	%rbp
 2629              		.cfi_def_cfa 7, 8
 2630 10b6 C3       		ret
 2631              		.cfi_endproc
 2632              	.LFE1078:
 2633              		.section	.gcc_except_table
 2634              		.align 4
 2635              	.LLSDA1078:
 2636 0160 FF       		.byte	0xff
 2637 0161 03       		.byte	0x3
 2638 0162 59       		.uleb128 .LLSDATT1078-.LLSDATTD1078
 2639              	.LLSDATTD1078:
 2640 0163 01       		.byte	0x1
 2641 0164 41       		.uleb128 .LLSDACSE1078-.LLSDACSB1078
 2642              	.LLSDACSB1078:
 2643 0165 43       		.uleb128 .LEHB54-.LFB1078
 2644 0166 05       		.uleb128 .LEHE54-.LEHB54
 2645 0167 9D01     		.uleb128 .L135-.LFB1078
 2646 0169 05       		.uleb128 0x5
 2647 016a 67       		.uleb128 .LEHB55-.LFB1078
 2648 016b 05       		.uleb128 .LEHE55-.LEHB55
 2649 016c 8001     		.uleb128 .L136-.LFB1078
 2650 016e 07       		.uleb128 0x7
 2651 016f 76       		.uleb128 .LEHB56-.LFB1078
 2652 0170 05       		.uleb128 .LEHE56-.LEHB56
 2653 0171 9D01     		.uleb128 .L135-.LFB1078
 2654 0173 05       		.uleb128 0x5
 2655 0174 C001     		.uleb128 .LEHB57-.LFB1078
 2656 0176 05       		.uleb128 .LEHE57-.LEHB57
 2657 0177 00       		.uleb128 0
 2658 0178 00       		.uleb128 0
 2659 0179 E701     		.uleb128 .LEHB58-.LFB1078
 2660 017b 05       		.uleb128 .LEHE58-.LEHB58
 2661 017c 00       		.uleb128 0
 2662 017d 00       		.uleb128 0
 2663 017e FA01     		.uleb128 .LEHB59-.LFB1078
 2664 0180 05       		.uleb128 .LEHE59-.LEHB59
 2665 0181 00       		.uleb128 0
 2666 0182 00       		.uleb128 0
 2667 0183 B802     		.uleb128 .LEHB60-.LFB1078
 2668 0185 5F       		.uleb128 .LEHE60-.LEHB60
 2669 0186 B201     		.uleb128 .L137-.LFB1078
 2670 0188 00       		.uleb128 0
 2671 0189 BA03     		.uleb128 .LEHB61-.LFB1078
 2672 018b 05       		.uleb128 .LEHE61-.LEHB61
 2673 018c D901     		.uleb128 .L139-.LFB1078
 2674 018e 00       		.uleb128 0
 2675 018f EE03     		.uleb128 .LEHB62-.LFB1078
 2676 0191 43       		.uleb128 .LEHE62-.LEHB62
 2677 0192 C501     		.uleb128 .L138-.LFB1078
 2678 0194 00       		.uleb128 0
 2679 0195 BB04     		.uleb128 .LEHB63-.LFB1078
 2680 0197 05       		.uleb128 .LEHE63-.LEHB63
 2681 0198 D901     		.uleb128 .L139-.LFB1078
 2682 019a 00       		.uleb128 0
 2683 019b F804     		.uleb128 .LEHB64-.LFB1078
 2684 019d 67       		.uleb128 .LEHE64-.LEHB64
 2685 019e EC01     		.uleb128 .L140-.LFB1078
 2686 01a0 00       		.uleb128 0
 2687 01a1 DF05     		.uleb128 .LEHB65-.LFB1078
 2688 01a3 05       		.uleb128 .LEHE65-.LEHB65
 2689 01a4 00       		.uleb128 0
 2690 01a5 00       		.uleb128 0
 2691              	.LLSDACSE1078:
 2692 01a6 03       		.byte	0x3
 2693 01a7 00       		.byte	0
 2694 01a8 02       		.byte	0x2
 2695 01a9 7D       		.byte	0x7d
 2696 01aa 01       		.byte	0x1
 2697 01ab 7D       		.byte	0x7d
 2698 01ac 00       		.byte	0
 2699 01ad 7D       		.byte	0x7d
 2700 01ae 0000     		.align 4
 2701 01b0 00000000 		.long	0
 2702              	
 2703 01b4 00000000 		.long	_ZTISt9exception
 2704 01b8 00000000 		.long	_ZTIN8UnitTest15AssertExceptionE
 2705              	.LLSDATT1078:
 2706              		.text
 2708              		.section	.rodata
 2709 0272 00000000 		.align 8
 2709      0000
 2710              	.LC23:
 2711 0278 7265706F 		.string	"reporter.lastFinishedTestTime >= 0.005f && reporter.lastFinishedTestTime <= 0.050f"
 2711      72746572 
 2711      2E6C6173 
 2711      7446696E 
 2711      69736865 
 2712 02cb 00000000 		.align 8
 2712      00
 2713              	.LC24:
 2714 02d0 556E6861 		.string	"Unhandled exception in CHECK(reporter.lastFinishedTestTime >= 0.005f && reporter.lastFini
 2714      6E646C65 
 2714      64206578 
 2714      63657074 
 2714      696F6E20 
 2715              		.text
 2716 10b7 90       		.align 2
 2718              	_ZN12_GLOBAL__N_156TestRunnerFixtureTestFinishIsCalledWithCorrectTimeHelper7RunImplEv:
 2719              	.LFB1082:
  93:TestTestRunner.cpp **** {
 2720              		.loc 6 93 0 is_stmt 1
 2721              		.cfi_startproc
 2722              		.cfi_personality 0x3,__gxx_personality_v0
 2723              		.cfi_lsda 0x3,.LLSDA1082
 2724 10b8 55       		pushq	%rbp
 2725              		.cfi_def_cfa_offset 16
 2726              		.cfi_offset 6, -16
 2727 10b9 4889E5   		movq	%rsp, %rbp
 2728              		.cfi_def_cfa_register 6
 2729 10bc 53       		pushq	%rbx
 2730 10bd 4883EC78 		subq	$120, %rsp
 2731              		.cfi_offset 3, -24
 2732 10c1 48897D88 		movq	%rdi, -120(%rbp)
 2733              	.LBB65:
  94:TestTestRunner.cpp ****     SlowTest test;
 2734              		.loc 6 94 0
 2735 10c5 488D45B0 		leaq	-80(%rbp), %rax
 2736 10c9 4889C7   		movq	%rax, %rdi
 2737              	.LEHB66:
 2738 10cc E809FCFF 		call	_ZN12_GLOBAL__N_18SlowTestC1Ev
 2738      FF
 2739              	.LEHE66:
  95:TestTestRunner.cpp ****     list.Add(&test);
 2740              		.loc 6 95 0
 2741 10d1 488B4588 		movq	-120(%rbp), %rax
 2742 10d5 488D9048 		leaq	2120(%rax), %rdx
 2742      080000
 2743 10dc 488D45B0 		leaq	-80(%rbp), %rax
 2744 10e0 4889C6   		movq	%rax, %rsi
 2745 10e3 4889D7   		movq	%rdx, %rdi
 2746              	.LEHB67:
 2747 10e6 E8000000 		call	_ZN8UnitTest8TestList3AddEPNS_4TestE
 2747      00
  96:TestTestRunner.cpp **** 
  97:TestTestRunner.cpp **** 	RunTestsIf(list, NULL, True(), 0);
 2748              		.loc 6 97 0
 2749 10eb 488B4588 		movq	-120(%rbp), %rax
 2750 10ef 488DB048 		leaq	2120(%rax), %rsi
 2750      080000
 2751 10f6 488B4588 		movq	-120(%rbp), %rax
 2752 10fa 488D5590 		leaq	-112(%rbp), %rdx
 2753 10fe 41B80000 		movl	$0, %r8d
 2753      0000
 2754 1104 4889D1   		movq	%rdx, %rcx
 2755 1107 BA000000 		movl	$0, %edx
 2755      00
 2756 110c 4889C7   		movq	%rax, %rdi
 2757 110f E82C5800 		call	_ZN12_GLOBAL__N_111FixtureBase10RunTestsIfIN8UnitTest4TrueEEEiRKNS2_8TestListEPKcRKT_i
 2757      00
 2758              	.LEHE67:
  98:TestTestRunner.cpp ****     CHECK(reporter.lastFinishedTestTime >= 0.005f && reporter.lastFinishedTestTime <= 0.050f);
 2759              		.loc 6 98 0 discriminator 1
 2760 1114 488B4588 		movq	-120(%rbp), %rax
 2761 1118 F30F1080 		movss	2096(%rax), %xmm0
 2761      30080000 
 2762 1120 0F2E0500 		ucomiss	.LC21(%rip), %xmm0
 2762      000000
 2763 1127 7220     		jb	.L144
 2764 1129 488B4588 		movq	-120(%rbp), %rax
 2765 112d F30F1088 		movss	2096(%rax), %xmm1
 2765      30080000 
 2766 1135 F30F1005 		movss	.LC22(%rip), %xmm0
 2766      00000000 
 2767 113d 0F2EC1   		ucomiss	%xmm1, %xmm0
 2768 1140 7207     		jb	.L144
 2769              		.loc 6 98 0 is_stmt 0 discriminator 3
 2770 1142 B8010000 		movl	$1, %eax
 2770      00
 2771 1147 EB05     		jmp	.L147
 2772              	.L144:
 2773              		.loc 6 98 0 discriminator 2
 2774 1149 B8000000 		movl	$0, %eax
 2774      00
 2775              	.L147:
 2776              		.loc 6 98 0 discriminator 4
 2777 114e 0FB6C0   		movzbl	%al, %eax
 2778 1151 89C7     		movl	%eax, %edi
 2779 1153 E8000000 		call	_ZN8UnitTest5CheckIbEEbT_
 2779      00
 2780 1158 83F001   		xorl	$1, %eax
 2781 115b 84C0     		testb	%al, %al
 2782 115d 7438     		je	.L148
 2783              	.LEHB68:
 2784              		.loc 6 98 0 discriminator 1
 2785 115f E8000000 		call	_ZN8UnitTest11CurrentTest7DetailsEv
 2785      00
 2786 1164 488B08   		movq	(%rax), %rcx
 2787 1167 488D4590 		leaq	-112(%rbp), %rax
 2788 116b BA620000 		movl	$98, %edx
 2788      00
 2789 1170 4889CE   		movq	%rcx, %rsi
 2790 1173 4889C7   		movq	%rax, %rdi
 2791 1176 E8000000 		call	_ZN8UnitTest11TestDetailsC1ERKS0_i
 2791      00
 2792 117b E8000000 		call	_ZN8UnitTest11CurrentTest7ResultsEv
 2792      00
 2793 1180 488B00   		movq	(%rax), %rax
 2794 1183 488D4D90 		leaq	-112(%rbp), %rcx
 2795 1187 BA000000 		movl	$.LC23, %edx
 2795      00
 2796 118c 4889CE   		movq	%rcx, %rsi
 2797 118f 4889C7   		movq	%rax, %rdi
 2798 1192 E8000000 		call	_ZN8UnitTest11TestResults13OnTestFailureERKNS_11TestDetailsEPKc
 2798      00
 2799              	.LEHE68:
 2800              	.L148:
 2801              		.loc 6 98 0 discriminator 2
 2802 1197 488D45B0 		leaq	-80(%rbp), %rax
 2803 119b 4889C7   		movq	%rax, %rdi
 2804              	.LEHB69:
 2805 119e E80D8900 		call	_ZN12_GLOBAL__N_18SlowTestD1Ev
 2805      00
 2806              	.LEHE69:
 2807 11a3 EB6B     		jmp	.L157
 2808              	.L154:
 2809 11a5 4889C3   		movq	%rax, %rbx
 2810              		.loc 6 98 0
 2811 11a8 E8000000 		call	__cxa_end_catch
 2811      00
 2812 11ad EB4A     		jmp	.L150
 2813              	.L153:
 2814 11af 4889C7   		movq	%rax, %rdi
 2815 11b2 E8000000 		call	__cxa_begin_catch
 2815      00
 2816              	.LEHB70:
 2817 11b7 E8000000 		call	_ZN8UnitTest11CurrentTest7DetailsEv
 2817      00
 2818 11bc 488B08   		movq	(%rax), %rcx
 2819 11bf 488D4590 		leaq	-112(%rbp), %rax
 2820 11c3 BA620000 		movl	$98, %edx
 2820      00
 2821 11c8 4889CE   		movq	%rcx, %rsi
 2822 11cb 4889C7   		movq	%rax, %rdi
 2823 11ce E8000000 		call	_ZN8UnitTest11TestDetailsC1ERKS0_i
 2823      00
 2824              		.loc 6 98 0 discriminator 1
 2825 11d3 E8000000 		call	_ZN8UnitTest11CurrentTest7ResultsEv
 2825      00
 2826 11d8 488B00   		movq	(%rax), %rax
 2827 11db 488D4D90 		leaq	-112(%rbp), %rcx
 2828 11df BA000000 		movl	$.LC24, %edx
 2828      00
 2829 11e4 4889CE   		movq	%rcx, %rsi
 2830 11e7 4889C7   		movq	%rax, %rdi
 2831 11ea E8000000 		call	_ZN8UnitTest11TestResults13OnTestFailureERKNS_11TestDetailsEPKc
 2831      00
 2832              	.LEHE70:
 2833              	.LEHB71:
 2834 11ef E8000000 		call	__cxa_end_catch
 2834      00
 2835              	.LEHE71:
 2836              		.loc 6 98 0
 2837 11f4 EBA1     		jmp	.L148
 2838              	.L152:
 2839 11f6 4889C3   		movq	%rax, %rbx
 2840              	.L150:
 2841 11f9 488D45B0 		leaq	-80(%rbp), %rax
 2842 11fd 4889C7   		movq	%rax, %rdi
 2843 1200 E8AB8800 		call	_ZN12_GLOBAL__N_18SlowTestD1Ev
 2843      00
 2844 1205 4889D8   		movq	%rbx, %rax
 2845 1208 4889C7   		movq	%rax, %rdi
 2846              	.LEHB72:
 2847 120b E8000000 		call	_Unwind_Resume
 2847      00
 2848              	.LEHE72:
 2849              	.L157:
 2850              	.LBE65:
  99:TestTestRunner.cpp **** }
 2851              		.loc 6 99 0 is_stmt 1
 2852 1210 4883C478 		addq	$120, %rsp
 2853 1214 5B       		popq	%rbx
 2854 1215 5D       		popq	%rbp
 2855              		.cfi_def_cfa 7, 8
 2856 1216 C3       		ret
 2857              		.cfi_endproc
 2858              	.LFE1082:
 2859              		.section	.gcc_except_table
 2860              		.align 4
 2861              	.LLSDA1082:
 2862 01bc FF       		.byte	0xff
 2863 01bd 03       		.byte	0x3
 2864 01be 2D       		.uleb128 .LLSDATT1082-.LLSDATTD1082
 2865              	.LLSDATTD1082:
 2866 01bf 01       		.byte	0x1
 2867 01c0 25       		.uleb128 .LLSDACSE1082-.LLSDACSB1082
 2868              	.LLSDACSB1082:
 2869 01c1 14       		.uleb128 .LEHB66-.LFB1082
 2870 01c2 05       		.uleb128 .LEHE66-.LEHB66
 2871 01c3 00       		.uleb128 0
 2872 01c4 00       		.uleb128 0
 2873 01c5 2E       		.uleb128 .LEHB67-.LFB1082
 2874 01c6 2E       		.uleb128 .LEHE67-.LEHB67
 2875 01c7 BE02     		.uleb128 .L152-.LFB1082
 2876 01c9 00       		.uleb128 0
 2877 01ca A701     		.uleb128 .LEHB68-.LFB1082
 2878 01cc 38       		.uleb128 .LEHE68-.LEHB68
 2879 01cd F701     		.uleb128 .L153-.LFB1082
 2880 01cf 01       		.uleb128 0x1
 2881 01d0 E601     		.uleb128 .LEHB69-.LFB1082
 2882 01d2 05       		.uleb128 .LEHE69-.LEHB69
 2883 01d3 00       		.uleb128 0
 2884 01d4 00       		.uleb128 0
 2885 01d5 FF01     		.uleb128 .LEHB70-.LFB1082
 2886 01d7 38       		.uleb128 .LEHE70-.LEHB70
 2887 01d8 ED01     		.uleb128 .L154-.LFB1082
 2888 01da 00       		.uleb128 0
 2889 01db B702     		.uleb128 .LEHB71-.LFB1082
 2890 01dd 05       		.uleb128 .LEHE71-.LEHB71
 2891 01de BE02     		.uleb128 .L152-.LFB1082
 2892 01e0 00       		.uleb128 0
 2893 01e1 D302     		.uleb128 .LEHB72-.LFB1082
 2894 01e3 05       		.uleb128 .LEHE72-.LEHB72
 2895 01e4 00       		.uleb128 0
 2896 01e5 00       		.uleb128 0
 2897              	.LLSDACSE1082:
 2898 01e6 01       		.byte	0x1
 2899 01e7 00       		.byte	0
 2900              		.align 4
 2901 01e8 00000000 		.long	0
 2902              	
 2903              	.LLSDATT1082:
 2904              		.text
 2906 1217 90       		.align 2
 2908              	_ZN12_GLOBAL__N_158TestRunnerFixtureFailureCountIsZeroWhenNoTestsAreRunHelperC2ERKN8UnitTest11TestD
 2909              	.LFB1084:
 100:TestTestRunner.cpp **** 
 101:TestTestRunner.cpp **** TEST_FIXTURE(TestRunnerFixture, FailureCountIsZeroWhenNoTestsAreRun)
 2910              		.loc 6 101 0
 2911              		.cfi_startproc
 2912 1218 55       		pushq	%rbp
 2913              		.cfi_def_cfa_offset 16
 2914              		.cfi_offset 6, -16
 2915 1219 4889E5   		movq	%rsp, %rbp
 2916              		.cfi_def_cfa_register 6
 2917 121c 4883EC10 		subq	$16, %rsp
 2918 1220 48897DF8 		movq	%rdi, -8(%rbp)
 2919 1224 488975F0 		movq	%rsi, -16(%rbp)
 2920              	.LBB66:
 2921              		.loc 6 101 0
 2922 1228 488B45F8 		movq	-8(%rbp), %rax
 2923 122c 4889C7   		movq	%rax, %rdi
 2924 122f E838EFFF 		call	_ZN12_GLOBAL__N_117TestRunnerFixtureC2Ev
 2924      FF
 2925 1234 488B45F8 		movq	-8(%rbp), %rax
 2926 1238 488B55F0 		movq	-16(%rbp), %rdx
 2927 123c 48899058 		movq	%rdx, 2136(%rax)
 2927      080000
 2928              	.LBE66:
 2929 1243 C9       		leave
 2930              		.cfi_def_cfa 7, 8
 2931 1244 C3       		ret
 2932              		.cfi_endproc
 2933              	.LFE1084:
 2935              		.set	_ZN12_GLOBAL__N_158TestRunnerFixtureFailureCountIsZeroWhenNoTestsAreRunHelperC1ERKN8UnitTest1
 2936              		.section	.rodata
 2937 0341 00000000 		.align 8
 2937      000000
 2938              	.LC25:
 2939 0348 4661696C 		.string	"FailureCountIsZeroWhenNoTestsAreRun"
 2939      75726543 
 2939      6F756E74 
 2939      49735A65 
 2939      726F5768 
 2940              		.text
 2941 1245 90       		.align 2
 2943              	_ZN12_GLOBAL__N_156TestTestRunnerFixtureFailureCountIsZeroWhenNoTestsAreRunC2Ev:
 2944              	.LFB1087:
 2945              		.loc 6 101 0
 2946              		.cfi_startproc
 2947 1246 55       		pushq	%rbp
 2948              		.cfi_def_cfa_offset 16
 2949              		.cfi_offset 6, -16
 2950 1247 4889E5   		movq	%rsp, %rbp
 2951              		.cfi_def_cfa_register 6
 2952 124a 4883EC10 		subq	$16, %rsp
 2953 124e 48897DF8 		movq	%rdi, -8(%rbp)
 2954              	.LBB67:
 2955              		.loc 6 101 0
 2956 1252 E8000000 		call	_ZN13UnitTestSuite12GetSuiteNameEv
 2956      00
 2957 1257 4889C2   		movq	%rax, %rdx
 2958 125a 488B45F8 		movq	-8(%rbp), %rax
 2959 125e 41B86500 		movl	$101, %r8d
 2959      0000
 2960 1264 B9000000 		movl	$.LC6, %ecx
 2960      00
 2961 1269 BE000000 		movl	$.LC25, %esi
 2961      00
 2962 126e 4889C7   		movq	%rax, %rdi
 2963 1271 E8000000 		call	_ZN8UnitTest4TestC2EPKcS2_S2_i
 2963      00
 2964 1276 488B45F8 		movq	-8(%rbp), %rax
 2965 127a 48C70000 		movq	$_ZTVN12_GLOBAL__N_156TestTestRunnerFixtureFailureCountIsZeroWhenNoTestsAreRunE+16, (%rax)
 2965      000000
 2966              	.LBE67:
 2967 1281 C9       		leave
 2968              		.cfi_def_cfa 7, 8
 2969 1282 C3       		ret
 2970              		.cfi_endproc
 2971              	.LFE1087:
 2973              		.set	_ZN12_GLOBAL__N_156TestTestRunnerFixtureFailureCountIsZeroWhenNoTestsAreRunC1Ev,_ZN12_GLOBAL_
 2974              		.local	_ZN12_GLOBAL__N_164testTestRunnerFixtureFailureCountIsZeroWhenNoTestsAreRunInstanceE
 2975              		.comm	_ZN12_GLOBAL__N_164testTestRunnerFixtureFailureCountIsZeroWhenNoTestsAreRunInstanceE,56,32
 2976              		.local	_ZN12_GLOBAL__N_157adderTestRunnerFixtureFailureCountIsZeroWhenNoTestsAreRunE
 2977              		.comm	_ZN12_GLOBAL__N_157adderTestRunnerFixtureFailureCountIsZeroWhenNoTestsAreRunE,1,1
 2978 1283 90       		.align 2
 2980              	_ZN12_GLOBAL__N_158TestRunnerFixtureFailureCountIsZeroWhenNoTestsAreRunHelperD2Ev:
 2981              	.LFB1091:
 2982              		.loc 6 101 0
 2983              		.cfi_startproc
 2984 1284 55       		pushq	%rbp
 2985              		.cfi_def_cfa_offset 16
 2986              		.cfi_offset 6, -16
 2987 1285 4889E5   		movq	%rsp, %rbp
 2988              		.cfi_def_cfa_register 6
 2989 1288 4883EC10 		subq	$16, %rsp
 2990 128c 48897DF8 		movq	%rdi, -8(%rbp)
 2991              	.LBB68:
 2992              		.loc 6 101 0
 2993 1290 488B45F8 		movq	-8(%rbp), %rax
 2994 1294 4889C7   		movq	%rax, %rdi
 2995 1297 E81EEFFF 		call	_ZN12_GLOBAL__N_117TestRunnerFixtureD2Ev
 2995      FF
 2996              	.LBE68:
 2997 129c C9       		leave
 2998              		.cfi_def_cfa 7, 8
 2999 129d C3       		ret
 3000              		.cfi_endproc
 3001              	.LFE1091:
 3003              		.set	_ZN12_GLOBAL__N_158TestRunnerFixtureFailureCountIsZeroWhenNoTestsAreRunHelperD1Ev,_ZN12_GLOBA
 3004              		.align 2
 3006              	_ZNK12_GLOBAL__N_156TestTestRunnerFixtureFailureCountIsZeroWhenNoTestsAreRun7RunImplEv:
 3007              	.LFB1089:
 3008              		.loc 6 101 0
 3009              		.cfi_startproc
 3010              		.cfi_personality 0x3,__gxx_personality_v0
 3011              		.cfi_lsda 0x3,.LLSDA1089
 3012 129e 55       		pushq	%rbp
 3013              		.cfi_def_cfa_offset 16
 3014              		.cfi_offset 6, -16
 3015 129f 4889E5   		movq	%rsp, %rbp
 3016              		.cfi_def_cfa_register 6
 3017 12a2 4154     		pushq	%r12
 3018 12a4 53       		pushq	%rbx
 3019 12a5 4881EC10 		subq	$2576, %rsp
 3019      0A0000
 3020              		.cfi_offset 12, -24
 3021              		.cfi_offset 3, -32
 3022 12ac 4889BDE8 		movq	%rdi, -2584(%rbp)
 3022      F5FFFF
 3023              		.loc 6 101 0
 3024 12b3 64488B04 		movq	%fs:40, %rax
 3024      25280000 
 3024      00
 3025 12bc 488945E8 		movq	%rax, -24(%rbp)
 3026 12c0 31C0     		xorl	%eax, %eax
 3027              	.LBB69:
 3028 12c2 C685FFF5 		movb	$0, -2561(%rbp)
 3028      FFFF00
 3029              	.LBB70:
 3030 12c9 488B85E8 		movq	-2584(%rbp), %rax
 3030      F5FFFF
 3031 12d0 488D5008 		leaq	8(%rax), %rdx
 3032 12d4 488D8580 		leaq	-2176(%rbp), %rax
 3032      F7FFFF
 3033 12db 4889D6   		movq	%rdx, %rsi
 3034 12de 4889C7   		movq	%rax, %rdi
 3035              	.LEHB73:
 3036 12e1 E832FFFF 		call	_ZN12_GLOBAL__N_158TestRunnerFixtureFailureCountIsZeroWhenNoTestsAreRunHelperC1ERKN8UnitTest1
 3036      FF
 3037              	.LEHE73:
 3038              		.loc 6 101 0 is_stmt 0 discriminator 1
 3039 12e6 C685FFF5 		movb	$1, -2561(%rbp)
 3039      FFFF01
 3040 12ed 488B85E8 		movq	-2584(%rbp), %rax
 3040      F5FFFF
 3041 12f4 488D5008 		leaq	8(%rax), %rdx
 3042 12f8 488D8580 		leaq	-2176(%rbp), %rax
 3042      F7FFFF
 3043 12ff 4889D6   		movq	%rdx, %rsi
 3044 1302 4889C7   		movq	%rax, %rdi
 3045              	.LEHB74:
 3046 1305 E8D85B00 		call	_ZN8UnitTest11ExecuteTestIN12_GLOBAL__N_158TestRunnerFixtureFailureCountIsZeroWhenNoTestsAreR
 3046      00
 3047              	.LEHE74:
 3048 130a 488D8580 		leaq	-2176(%rbp), %rax
 3048      F7FFFF
 3049 1311 4889C7   		movq	%rax, %rdi
 3050              	.LEHB75:
 3051 1314 E86BFFFF 		call	_ZN12_GLOBAL__N_158TestRunnerFixtureFailureCountIsZeroWhenNoTestsAreRunHelperD1Ev
 3051      FF
 3052              	.LEHE75:
 3053              	.LBE70:
 3054              	.LBE69:
 3055              		.loc 6 101 0
 3056 1319 E9640200 		jmp	.L183
 3056      00
 3057              	.L177:
 3058 131e 4989C4   		movq	%rax, %r12
 3059 1321 4889D3   		movq	%rdx, %rbx
 3060              	.LBB78:
 3061              	.LBB71:
 3062 1324 488D8580 		leaq	-2176(%rbp), %rax
 3062      F7FFFF
 3063 132b 4889C7   		movq	%rax, %rdi
 3064 132e E851FFFF 		call	_ZN12_GLOBAL__N_158TestRunnerFixtureFailureCountIsZeroWhenNoTestsAreRunHelperD1Ev
 3064      FF
 3065 1333 4C89E0   		movq	%r12, %rax
 3066 1336 4889DA   		movq	%rbx, %rdx
 3067 1339 EB00     		jmp	.L164
 3068              	.L176:
 3069              	.L164:
 3070 133b 4883FA01 		cmpq	$1, %rdx
 3071 133f 745C     		je	.L166
 3072 1341 4883FA02 		cmpq	$2, %rdx
 3073 1345 0F84F400 		je	.L167
 3073      0000
 3074 134b E9980100 		jmp	.L182
 3074      00
 3075              	.L178:
 3076 1350 4889C3   		movq	%rax, %rbx
 3077              	.LBE71:
 3078              	.LBB72:
 3079 1353 E8000000 		call	__cxa_end_catch
 3079      00
 3080 1358 4889D8   		movq	%rbx, %rax
 3081 135b 4889C7   		movq	%rax, %rdi
 3082              	.LEHB76:
 3083 135e E8000000 		call	_Unwind_Resume
 3083      00
 3084              	.LEHE76:
 3085              	.L179:
 3086 1363 4889C3   		movq	%rax, %rbx
 3087              	.LBE72:
 3088              	.LBB73:
 3089              	.LBB74:
 3090 1366 488D8510 		leaq	-2544(%rbp), %rax
 3090      F6FFFF
 3091 136d 4889C7   		movq	%rax, %rdi
 3092 1370 E8000000 		call	_ZN8UnitTest15MemoryOutStreamD1Ev
 3092      00
 3093 1375 EB03     		jmp	.L170
 3094              	.L180:
 3095 1377 4889C3   		movq	%rax, %rbx
 3096              	.L170:
 3097              	.LBE74:
 3098 137a E8000000 		call	__cxa_end_catch
 3098      00
 3099 137f 4889D8   		movq	%rbx, %rax
 3100 1382 4889C7   		movq	%rax, %rdi
 3101              	.LEHB77:
 3102 1385 E8000000 		call	_Unwind_Resume
 3102      00
 3103              	.LEHE77:
 3104              	.L181:
 3105 138a 4889C3   		movq	%rax, %rbx
 3106              	.LBE73:
 3107 138d E8000000 		call	__cxa_end_catch
 3107      00
 3108 1392 4889D8   		movq	%rbx, %rax
 3109 1395 4889C7   		movq	%rax, %rdi
 3110              	.LEHB78:
 3111 1398 E8000000 		call	_Unwind_Resume
 3111      00
 3112              	.LEHE78:
 3113              	.L166:
 3114              	.LBB76:
 3115 139d 4889C7   		movq	%rax, %rdi
 3116 13a0 E8000000 		call	__cxa_begin_catch
 3116      00
 3117 13a5 48898500 		movq	%rax, -2560(%rbp)
 3117      F6FFFF
 3118 13ac 488B8500 		movq	-2560(%rbp), %rax
 3118      F6FFFF
 3119 13b3 488B00   		movq	(%rax), %rax
 3120 13b6 4883C010 		addq	$16, %rax
 3121 13ba 488B00   		movq	(%rax), %rax
 3122 13bd 488B9500 		movq	-2560(%rbp), %rdx
 3122      F6FFFF
 3123 13c4 4889D7   		movq	%rdx, %rdi
 3124 13c7 FFD0     		call	*%rax
 3125 13c9 4889C3   		movq	%rax, %rbx
 3126 13cc 488B8500 		movq	-2560(%rbp), %rax
 3126      F6FFFF
 3127 13d3 4889C7   		movq	%rax, %rdi
 3128              	.LEHB79:
 3129 13d6 E8000000 		call	_ZNK8UnitTest15AssertException10LineNumberEv
 3129      00
 3130 13db 4189C4   		movl	%eax, %r12d
 3131 13de 488B8500 		movq	-2560(%rbp), %rax
 3131      F6FFFF
 3132 13e5 4889C7   		movq	%rax, %rdi
 3133 13e8 E8000000 		call	_ZNK8UnitTest15AssertException8FilenameEv
 3133      00
 3134              		.loc 6 101 0 discriminator 1
 3135 13ed 4889C1   		movq	%rax, %rcx
 3136 13f0 488B85E8 		movq	-2584(%rbp), %rax
 3136      F5FFFF
 3137 13f7 488B5008 		movq	8(%rax), %rdx
 3138 13fb 488B85E8 		movq	-2584(%rbp), %rax
 3138      F5FFFF
 3139 1402 488B7010 		movq	16(%rax), %rsi
 3140 1406 488D8510 		leaq	-2544(%rbp), %rax
 3140      F6FFFF
 3141 140d 4589E0   		movl	%r12d, %r8d
 3142 1410 4889C7   		movq	%rax, %rdi
 3143 1413 E8000000 		call	_ZN8UnitTest11TestDetailsC1EPKcS2_S2_i
 3143      00
 3144              		.loc 6 101 0 discriminator 3
 3145 1418 E8000000 		call	_ZN8UnitTest11CurrentTest7ResultsEv
 3145      00
 3146 141d 488B00   		movq	(%rax), %rax
 3147 1420 488D8D10 		leaq	-2544(%rbp), %rcx
 3147      F6FFFF
 3148 1427 4889DA   		movq	%rbx, %rdx
 3149 142a 4889CE   		movq	%rcx, %rsi
 3150 142d 4889C7   		movq	%rax, %rdi
 3151 1430 E8000000 		call	_ZN8UnitTest11TestResults13OnTestFailureERKNS_11TestDetailsEPKc
 3151      00
 3152              	.LEHE79:
 3153              		.loc 6 101 0 discriminator 1
 3154 1435 E8000000 		call	__cxa_end_catch
 3154      00
 3155              	.LBE76:
 3156              	.LBE78:
 3157 143a E9430100 		jmp	.L183
 3157      00
 3158              	.L167:
 3159              	.LBB79:
 3160              	.LBB77:
 3161              		.loc 6 101 0
 3162 143f 4889C7   		movq	%rax, %rdi
 3163 1442 E8000000 		call	__cxa_begin_catch
 3163      00
 3164 1447 48898508 		movq	%rax, -2552(%rbp)
 3164      F6FFFF
 3165              	.LBB75:
 3166 144e 488D8510 		leaq	-2544(%rbp), %rax
 3166      F6FFFF
 3167 1455 4889C7   		movq	%rax, %rdi
 3168              	.LEHB80:
 3169 1458 E8000000 		call	_ZN8UnitTest15MemoryOutStreamC1Ev
 3169      00
 3170              	.LEHE80:
 3171              		.loc 6 101 0 discriminator 1
 3172 145d 488B8508 		movq	-2552(%rbp), %rax
 3172      F6FFFF
 3173 1464 488B00   		movq	(%rax), %rax
 3174 1467 4883C010 		addq	$16, %rax
 3175 146b 488B00   		movq	(%rax), %rax
 3176 146e 488B9508 		movq	-2552(%rbp), %rdx
 3176      F6FFFF
 3177 1475 4889D7   		movq	%rdx, %rdi
 3178 1478 FFD0     		call	*%rax
 3179 147a 4889C3   		movq	%rax, %rbx
 3180 147d 488D8510 		leaq	-2544(%rbp), %rax
 3180      F6FFFF
 3181 1484 BE000000 		movl	$.LC8, %esi
 3181      00
 3182 1489 4889C7   		movq	%rax, %rdi
 3183              	.LEHB81:
 3184 148c E8000000 		call	_ZStlsISt11char_traitsIcEERSt13basic_ostreamIcT_ES5_PKc
 3184      00
 3185 1491 4889DE   		movq	%rbx, %rsi
 3186 1494 4889C7   		movq	%rax, %rdi
 3187 1497 E8000000 		call	_ZStlsISt11char_traitsIcEERSt13basic_ostreamIcT_ES5_PKc
 3187      00
 3188 149c 488D8510 		leaq	-2544(%rbp), %rax
 3188      F6FFFF
 3189 14a3 4889C7   		movq	%rax, %rdi
 3190 14a6 E8000000 		call	_ZNK8UnitTest15MemoryOutStream7GetTextEv
 3190      00
 3191 14ab 4889C3   		movq	%rax, %rbx
 3192 14ae 488B85E8 		movq	-2584(%rbp), %rax
 3192      F5FFFF
 3193 14b5 4C8D6008 		leaq	8(%rax), %r12
 3194 14b9 E8000000 		call	_ZN8UnitTest11CurrentTest7ResultsEv
 3194      00
 3195 14be 488B00   		movq	(%rax), %rax
 3196 14c1 4889DA   		movq	%rbx, %rdx
 3197 14c4 4C89E6   		movq	%r12, %rsi
 3198 14c7 4889C7   		movq	%rax, %rdi
 3199 14ca E8000000 		call	_ZN8UnitTest11TestResults13OnTestFailureERKNS_11TestDetailsEPKc
 3199      00
 3200              	.LEHE81:
 3201 14cf 488D8510 		leaq	-2544(%rbp), %rax
 3201      F6FFFF
 3202 14d6 4889C7   		movq	%rax, %rdi
 3203              	.LEHB82:
 3204 14d9 E8000000 		call	_ZN8UnitTest15MemoryOutStreamD1Ev
 3204      00
 3205              	.LEHE82:
 3206              	.LBE75:
 3207              		.loc 6 101 0
 3208 14de E8000000 		call	__cxa_end_catch
 3208      00
 3209              	.LBE77:
 3210              	.LBE79:
 3211 14e3 E99A0000 		jmp	.L183
 3211      00
 3212              	.L182:
 3213              	.LBB80:
 3214 14e8 4889C7   		movq	%rax, %rdi
 3215 14eb E8000000 		call	__cxa_begin_catch
 3215      00
 3216 14f0 80BDFFF5 		cmpb	$0, -2561(%rbp)
 3216      FFFF00
 3217 14f7 7443     		je	.L173
 3218              		.loc 6 101 0 discriminator 1
 3219 14f9 488B85E8 		movq	-2584(%rbp), %rax
 3219      F5FFFF
 3220 1500 488D4808 		leaq	8(%rax), %rcx
 3221 1504 488D8510 		leaq	-2544(%rbp), %rax
 3221      F6FFFF
 3222 150b BA650000 		movl	$101, %edx
 3222      00
 3223 1510 4889CE   		movq	%rcx, %rsi
 3224 1513 4889C7   		movq	%rax, %rdi
 3225              	.LEHB83:
 3226 1516 E8000000 		call	_ZN8UnitTest11TestDetailsC1ERKS0_i
 3226      00
 3227 151b E8000000 		call	_ZN8UnitTest11CurrentTest7ResultsEv
 3227      00
 3228 1520 488B00   		movq	(%rax), %rax
 3229 1523 488D8D10 		leaq	-2544(%rbp), %rcx
 3229      F6FFFF
 3230 152a BA000000 		movl	$.LC9, %edx
 3230      00
 3231 152f 4889CE   		movq	%rcx, %rsi
 3232 1532 4889C7   		movq	%rax, %rdi
 3233 1535 E8000000 		call	_ZN8UnitTest11TestResults13OnTestFailureERKNS_11TestDetailsEPKc
 3233      00
 3234 153a EB41     		jmp	.L174
 3235              	.L173:
 3236              		.loc 6 101 0 discriminator 2
 3237 153c 488B85E8 		movq	-2584(%rbp), %rax
 3237      F5FFFF
 3238 1543 488D4808 		leaq	8(%rax), %rcx
 3239 1547 488D8510 		leaq	-2544(%rbp), %rax
 3239      F6FFFF
 3240 154e BA650000 		movl	$101, %edx
 3240      00
 3241 1553 4889CE   		movq	%rcx, %rsi
 3242 1556 4889C7   		movq	%rax, %rdi
 3243 1559 E8000000 		call	_ZN8UnitTest11TestDetailsC1ERKS0_i
 3243      00
 3244              		.loc 6 101 0 discriminator 1
 3245 155e E8000000 		call	_ZN8UnitTest11CurrentTest7ResultsEv
 3245      00
 3246 1563 488B00   		movq	(%rax), %rax
 3247 1566 488D8D10 		leaq	-2544(%rbp), %rcx
 3247      F6FFFF
 3248 156d BA000000 		movl	$.LC10, %edx
 3248      00
 3249 1572 4889CE   		movq	%rcx, %rsi
 3250 1575 4889C7   		movq	%rax, %rdi
 3251 1578 E8000000 		call	_ZN8UnitTest11TestResults13OnTestFailureERKNS_11TestDetailsEPKc
 3251      00
 3252              	.LEHE83:
 3253              	.L174:
 3254              	.LEHB84:
 3255 157d E8000000 		call	__cxa_end_catch
 3255      00
 3256              	.LEHE84:
 3257              	.L183:
 3258              	.LBE80:
 3259              		.loc 6 101 0
 3260 1582 90       		nop
 3261 1583 488B45E8 		movq	-24(%rbp), %rax
 3262 1587 64483304 		xorq	%fs:40, %rax
 3262      25280000 
 3262      00
 3263 1590 7405     		je	.L175
 3264 1592 E8000000 		call	__stack_chk_fail
 3264      00
 3265              	.L175:
 3266 1597 4881C410 		addq	$2576, %rsp
 3266      0A0000
 3267 159e 5B       		popq	%rbx
 3268 159f 415C     		popq	%r12
 3269 15a1 5D       		popq	%rbp
 3270              		.cfi_def_cfa 7, 8
 3271 15a2 C3       		ret
 3272              		.cfi_endproc
 3273              	.LFE1089:
 3274              		.section	.gcc_except_table
 3275              		.align 4
 3276              	.LLSDA1089:
 3277 01ec FF       		.byte	0xff
 3278 01ed 03       		.byte	0x3
 3279 01ee 59       		.uleb128 .LLSDATT1089-.LLSDATTD1089
 3280              	.LLSDATTD1089:
 3281 01ef 01       		.byte	0x1
 3282 01f0 41       		.uleb128 .LLSDACSE1089-.LLSDACSB1089
 3283              	.LLSDACSB1089:
 3284 01f1 43       		.uleb128 .LEHB73-.LFB1089
 3285 01f2 05       		.uleb128 .LEHE73-.LEHB73
 3286 01f3 9D01     		.uleb128 .L176-.LFB1089
 3287 01f5 05       		.uleb128 0x5
 3288 01f6 67       		.uleb128 .LEHB74-.LFB1089
 3289 01f7 05       		.uleb128 .LEHE74-.LEHB74
 3290 01f8 8001     		.uleb128 .L177-.LFB1089
 3291 01fa 07       		.uleb128 0x7
 3292 01fb 76       		.uleb128 .LEHB75-.LFB1089
 3293 01fc 05       		.uleb128 .LEHE75-.LEHB75
 3294 01fd 9D01     		.uleb128 .L176-.LFB1089
 3295 01ff 05       		.uleb128 0x5
 3296 0200 C001     		.uleb128 .LEHB76-.LFB1089
 3297 0202 05       		.uleb128 .LEHE76-.LEHB76
 3298 0203 00       		.uleb128 0
 3299 0204 00       		.uleb128 0
 3300 0205 E701     		.uleb128 .LEHB77-.LFB1089
 3301 0207 05       		.uleb128 .LEHE77-.LEHB77
 3302 0208 00       		.uleb128 0
 3303 0209 00       		.uleb128 0
 3304 020a FA01     		.uleb128 .LEHB78-.LFB1089
 3305 020c 05       		.uleb128 .LEHE78-.LEHB78
 3306 020d 00       		.uleb128 0
 3307 020e 00       		.uleb128 0
 3308 020f B802     		.uleb128 .LEHB79-.LFB1089
 3309 0211 5F       		.uleb128 .LEHE79-.LEHB79
 3310 0212 B201     		.uleb128 .L178-.LFB1089
 3311 0214 00       		.uleb128 0
 3312 0215 BA03     		.uleb128 .LEHB80-.LFB1089
 3313 0217 05       		.uleb128 .LEHE80-.LEHB80
 3314 0218 D901     		.uleb128 .L180-.LFB1089
 3315 021a 00       		.uleb128 0
 3316 021b EE03     		.uleb128 .LEHB81-.LFB1089
 3317 021d 43       		.uleb128 .LEHE81-.LEHB81
 3318 021e C501     		.uleb128 .L179-.LFB1089
 3319 0220 00       		.uleb128 0
 3320 0221 BB04     		.uleb128 .LEHB82-.LFB1089
 3321 0223 05       		.uleb128 .LEHE82-.LEHB82
 3322 0224 D901     		.uleb128 .L180-.LFB1089
 3323 0226 00       		.uleb128 0
 3324 0227 F804     		.uleb128 .LEHB83-.LFB1089
 3325 0229 67       		.uleb128 .LEHE83-.LEHB83
 3326 022a EC01     		.uleb128 .L181-.LFB1089
 3327 022c 00       		.uleb128 0
 3328 022d DF05     		.uleb128 .LEHB84-.LFB1089
 3329 022f 05       		.uleb128 .LEHE84-.LEHB84
 3330 0230 00       		.uleb128 0
 3331 0231 00       		.uleb128 0
 3332              	.LLSDACSE1089:
 3333 0232 03       		.byte	0x3
 3334 0233 00       		.byte	0
 3335 0234 02       		.byte	0x2
 3336 0235 7D       		.byte	0x7d
 3337 0236 01       		.byte	0x1
 3338 0237 7D       		.byte	0x7d
 3339 0238 00       		.byte	0
 3340 0239 7D       		.byte	0x7d
 3341 023a 0000     		.align 4
 3342 023c 00000000 		.long	0
 3343              	
 3344 0240 00000000 		.long	_ZTISt9exception
 3345 0244 00000000 		.long	_ZTIN8UnitTest15AssertExceptionE
 3346              	.LLSDATT1089:
 3347              		.text
 3349              		.section	.rodata
 3350 036c 00000000 		.align 8
 3351              	.LC26:
 3352 0370 556E6861 		.string	"Unhandled exception in CHECK_EQUAL(0, RunTestsIf(list, NULL, True(), 0))"
 3352      6E646C65 
 3352      64206578 
 3352      63657074 
 3352      696F6E20 
 3353 03b9 00000000 		.align 8
 3353      000000
 3354              	.LC27:
 3355 03c0 556E6861 		.string	"Unhandled exception in CHECK_EQUAL(0, reporter.testRunCount)"
 3355      6E646C65 
 3355      64206578 
 3355      63657074 
 3355      696F6E20 
 3356 03fd 000000   		.align 8
 3357              	.LC28:
 3358 0400 556E6861 		.string	"Unhandled exception in CHECK_EQUAL(0, reporter.testFailedCount)"
 3358      6E646C65 
 3358      64206578 
 3358      63657074 
 3358      696F6E20 
 3359              		.text
 3360 15a3 90       		.align 2
 3362              	_ZN12_GLOBAL__N_158TestRunnerFixtureFailureCountIsZeroWhenNoTestsAreRunHelper7RunImplEv:
 3363              	.LFB1093:
 102:TestTestRunner.cpp **** {
 3364              		.loc 6 102 0 is_stmt 1
 3365              		.cfi_startproc
 3366              		.cfi_personality 0x3,__gxx_personality_v0
 3367              		.cfi_lsda 0x3,.LLSDA1093
 3368 15a4 55       		pushq	%rbp
 3369              		.cfi_def_cfa_offset 16
 3370              		.cfi_offset 6, -16
 3371 15a5 4889E5   		movq	%rsp, %rbp
 3372              		.cfi_def_cfa_register 6
 3373 15a8 53       		pushq	%rbx
 3374 15a9 4883EC48 		subq	$72, %rsp
 3375              		.cfi_offset 3, -24
 3376 15ad 48897DB8 		movq	%rdi, -72(%rbp)
 3377              	.LEHB85:
 103:TestTestRunner.cpp **** 	CHECK_EQUAL(0, RunTestsIf(list, NULL, True(), 0));
 3378              		.loc 6 103 0
 3379 15b1 E8000000 		call	_ZN8UnitTest11CurrentTest7DetailsEv
 3379      00
 3380 15b6 488B08   		movq	(%rax), %rcx
 3381 15b9 488D45D0 		leaq	-48(%rbp), %rax
 3382 15bd BA670000 		movl	$103, %edx
 3382      00
 3383 15c2 4889CE   		movq	%rcx, %rsi
 3384 15c5 4889C7   		movq	%rax, %rdi
 3385 15c8 E8000000 		call	_ZN8UnitTest11TestDetailsC1ERKS0_i
 3385      00
 3386              		.loc 6 103 0 is_stmt 0 discriminator 1
 3387 15cd 488B45B8 		movq	-72(%rbp), %rax
 3388 15d1 488DB048 		leaq	2120(%rax), %rsi
 3388      080000
 3389 15d8 488B45B8 		movq	-72(%rbp), %rax
 3390 15dc 488D55C7 		leaq	-57(%rbp), %rdx
 3391 15e0 41B80000 		movl	$0, %r8d
 3391      0000
 3392 15e6 4889D1   		movq	%rdx, %rcx
 3393 15e9 BA000000 		movl	$0, %edx
 3393      00
 3394 15ee 4889C7   		movq	%rax, %rdi
 3395 15f1 E84A5300 		call	_ZN12_GLOBAL__N_111FixtureBase10RunTestsIfIN8UnitTest4TrueEEEiRKNS2_8TestListEPKcRKT_i
 3395      00
 3396 15f6 8945CC   		movl	%eax, -52(%rbp)
 3397 15f9 C745C800 		movl	$0, -56(%rbp)
 3397      000000
 3398 1600 E8000000 		call	_ZN8UnitTest11CurrentTest7ResultsEv
 3398      00
 3399 1605 488B00   		movq	(%rax), %rax
 3400 1608 488D4DD0 		leaq	-48(%rbp), %rcx
 3401 160c 488D55CC 		leaq	-52(%rbp), %rdx
 3402 1610 488D75C8 		leaq	-56(%rbp), %rsi
 3403 1614 4889C7   		movq	%rax, %rdi
 3404 1617 E8000000 		call	_ZN8UnitTest10CheckEqualIiiEEvRNS_11TestResultsERKT_RKT0_RKNS_11TestDetailsE
 3404      00
 3405              	.LEHE85:
 3406              	.L187:
 3407              	.LEHB86:
 104:TestTestRunner.cpp ****     CHECK_EQUAL(0, reporter.testRunCount);
 3408              		.loc 6 104 0 is_stmt 1
 3409 161c E8000000 		call	_ZN8UnitTest11CurrentTest7DetailsEv
 3409      00
 3410 1621 488B08   		movq	(%rax), %rcx
 3411 1624 488D45D0 		leaq	-48(%rbp), %rax
 3412 1628 BA680000 		movl	$104, %edx
 3412      00
 3413 162d 4889CE   		movq	%rcx, %rsi
 3414 1630 4889C7   		movq	%rax, %rdi
 3415 1633 E8000000 		call	_ZN8UnitTest11TestDetailsC1ERKS0_i
 3415      00
 3416              		.loc 6 104 0 is_stmt 0 discriminator 1
 3417 1638 488B45B8 		movq	-72(%rbp), %rax
 3418 163c 488D5820 		leaq	32(%rax), %rbx
 3419 1640 C745CC00 		movl	$0, -52(%rbp)
 3419      000000
 3420 1647 E8000000 		call	_ZN8UnitTest11CurrentTest7ResultsEv
 3420      00
 3421 164c 488B00   		movq	(%rax), %rax
 3422 164f 488D55D0 		leaq	-48(%rbp), %rdx
 3423 1653 488D75CC 		leaq	-52(%rbp), %rsi
 3424 1657 4889D1   		movq	%rdx, %rcx
 3425 165a 4889DA   		movq	%rbx, %rdx
 3426 165d 4889C7   		movq	%rax, %rdi
 3427 1660 E8000000 		call	_ZN8UnitTest10CheckEqualIiiEEvRNS_11TestResultsERKT_RKT0_RKNS_11TestDetailsE
 3427      00
 3428              	.LEHE86:
 3429              	.L190:
 3430              	.LEHB87:
 105:TestTestRunner.cpp ****     CHECK_EQUAL(0, reporter.testFailedCount);
 3431              		.loc 6 105 0 is_stmt 1
 3432 1665 E8000000 		call	_ZN8UnitTest11CurrentTest7DetailsEv
 3432      00
 3433 166a 488B08   		movq	(%rax), %rcx
 3434 166d 488D45D0 		leaq	-48(%rbp), %rax
 3435 1671 BA690000 		movl	$105, %edx
 3435      00
 3436 1676 4889CE   		movq	%rcx, %rsi
 3437 1679 4889C7   		movq	%rax, %rdi
 3438 167c E8000000 		call	_ZN8UnitTest11TestDetailsC1ERKS0_i
 3438      00
 3439              		.loc 6 105 0 is_stmt 0 discriminator 1
 3440 1681 488B45B8 		movq	-72(%rbp), %rax
 3441 1685 488D9824 		leaq	548(%rax), %rbx
 3441      020000
 3442 168c C745CC00 		movl	$0, -52(%rbp)
 3442      000000
 3443 1693 E8000000 		call	_ZN8UnitTest11CurrentTest7ResultsEv
 3443      00
 3444 1698 488B00   		movq	(%rax), %rax
 3445 169b 488D55D0 		leaq	-48(%rbp), %rdx
 3446 169f 488D75CC 		leaq	-52(%rbp), %rsi
 3447 16a3 4889D1   		movq	%rdx, %rcx
 3448 16a6 4889DA   		movq	%rbx, %rdx
 3449 16a9 4889C7   		movq	%rax, %rdi
 3450 16ac E8000000 		call	_ZN8UnitTest10CheckEqualIiiEEvRNS_11TestResultsERKT_RKT0_RKNS_11TestDetailsE
 3450      00
 3451              	.LEHE87:
 106:TestTestRunner.cpp **** }
 3452              		.loc 6 106 0 is_stmt 1
 3453 16b1 E9120100 		jmp	.L200
 3453      00
 3454              	.L195:
 3455 16b6 4889C3   		movq	%rax, %rbx
 103:TestTestRunner.cpp ****     CHECK_EQUAL(0, reporter.testRunCount);
 3456              		.loc 6 103 0
 3457 16b9 E8000000 		call	__cxa_end_catch
 3457      00
 3458 16be 4889D8   		movq	%rbx, %rax
 3459 16c1 4889C7   		movq	%rax, %rdi
 3460              	.LEHB88:
 3461 16c4 E8000000 		call	_Unwind_Resume
 3461      00
 3462              	.LEHE88:
 3463              	.L194:
 3464 16c9 4889C7   		movq	%rax, %rdi
 3465 16cc E8000000 		call	__cxa_begin_catch
 3465      00
 3466              	.LEHB89:
 3467 16d1 E8000000 		call	_ZN8UnitTest11CurrentTest7DetailsEv
 3467      00
 3468 16d6 488B08   		movq	(%rax), %rcx
 3469 16d9 488D45D0 		leaq	-48(%rbp), %rax
 3470 16dd BA670000 		movl	$103, %edx
 3470      00
 3471 16e2 4889CE   		movq	%rcx, %rsi
 3472 16e5 4889C7   		movq	%rax, %rdi
 3473 16e8 E8000000 		call	_ZN8UnitTest11TestDetailsC1ERKS0_i
 3473      00
 103:TestTestRunner.cpp ****     CHECK_EQUAL(0, reporter.testRunCount);
 3474              		.loc 6 103 0 is_stmt 0 discriminator 1
 3475 16ed E8000000 		call	_ZN8UnitTest11CurrentTest7ResultsEv
 3475      00
 3476 16f2 488B00   		movq	(%rax), %rax
 3477 16f5 488D4DD0 		leaq	-48(%rbp), %rcx
 3478 16f9 BA000000 		movl	$.LC26, %edx
 3478      00
 3479 16fe 4889CE   		movq	%rcx, %rsi
 3480 1701 4889C7   		movq	%rax, %rdi
 3481 1704 E8000000 		call	_ZN8UnitTest11TestResults13OnTestFailureERKNS_11TestDetailsEPKc
 3481      00
 3482              	.LEHE89:
 3483              	.LEHB90:
 3484 1709 E8000000 		call	__cxa_end_catch
 3484      00
 3485              	.LEHE90:
 3486 170e E909FFFF 		jmp	.L187
 3486      FF
 3487              	.L197:
 3488 1713 4889C3   		movq	%rax, %rbx
 104:TestTestRunner.cpp ****     CHECK_EQUAL(0, reporter.testFailedCount);
 3489              		.loc 6 104 0 is_stmt 1
 3490 1716 E8000000 		call	__cxa_end_catch
 3490      00
 3491 171b 4889D8   		movq	%rbx, %rax
 3492 171e 4889C7   		movq	%rax, %rdi
 3493              	.LEHB91:
 3494 1721 E8000000 		call	_Unwind_Resume
 3494      00
 3495              	.LEHE91:
 3496              	.L196:
 3497 1726 4889C7   		movq	%rax, %rdi
 3498 1729 E8000000 		call	__cxa_begin_catch
 3498      00
 3499              	.LEHB92:
 3500 172e E8000000 		call	_ZN8UnitTest11CurrentTest7DetailsEv
 3500      00
 3501 1733 488B08   		movq	(%rax), %rcx
 3502 1736 488D45D0 		leaq	-48(%rbp), %rax
 3503 173a BA680000 		movl	$104, %edx
 3503      00
 3504 173f 4889CE   		movq	%rcx, %rsi
 3505 1742 4889C7   		movq	%rax, %rdi
 3506 1745 E8000000 		call	_ZN8UnitTest11TestDetailsC1ERKS0_i
 3506      00
 104:TestTestRunner.cpp ****     CHECK_EQUAL(0, reporter.testFailedCount);
 3507              		.loc 6 104 0 is_stmt 0 discriminator 1
 3508 174a E8000000 		call	_ZN8UnitTest11CurrentTest7ResultsEv
 3508      00
 3509 174f 488B00   		movq	(%rax), %rax
 3510 1752 488D4DD0 		leaq	-48(%rbp), %rcx
 3511 1756 BA000000 		movl	$.LC27, %edx
 3511      00
 3512 175b 4889CE   		movq	%rcx, %rsi
 3513 175e 4889C7   		movq	%rax, %rdi
 3514 1761 E8000000 		call	_ZN8UnitTest11TestResults13OnTestFailureERKNS_11TestDetailsEPKc
 3514      00
 3515              	.LEHE92:
 3516              	.LEHB93:
 3517 1766 E8000000 		call	__cxa_end_catch
 3517      00
 3518              	.LEHE93:
 3519 176b E9F5FEFF 		jmp	.L190
 3519      FF
 3520              	.L199:
 3521 1770 4889C3   		movq	%rax, %rbx
 105:TestTestRunner.cpp **** }
 3522              		.loc 6 105 0 is_stmt 1
 3523 1773 E8000000 		call	__cxa_end_catch
 3523      00
 3524 1778 4889D8   		movq	%rbx, %rax
 3525 177b 4889C7   		movq	%rax, %rdi
 3526              	.LEHB94:
 3527 177e E8000000 		call	_Unwind_Resume
 3527      00
 3528              	.LEHE94:
 3529              	.L198:
 3530 1783 4889C7   		movq	%rax, %rdi
 3531 1786 E8000000 		call	__cxa_begin_catch
 3531      00
 3532              	.LEHB95:
 3533 178b E8000000 		call	_ZN8UnitTest11CurrentTest7DetailsEv
 3533      00
 3534 1790 488B08   		movq	(%rax), %rcx
 3535 1793 488D45D0 		leaq	-48(%rbp), %rax
 3536 1797 BA690000 		movl	$105, %edx
 3536      00
 3537 179c 4889CE   		movq	%rcx, %rsi
 3538 179f 4889C7   		movq	%rax, %rdi
 3539 17a2 E8000000 		call	_ZN8UnitTest11TestDetailsC1ERKS0_i
 3539      00
 105:TestTestRunner.cpp **** }
 3540              		.loc 6 105 0 is_stmt 0 discriminator 1
 3541 17a7 E8000000 		call	_ZN8UnitTest11CurrentTest7ResultsEv
 3541      00
 3542 17ac 488B00   		movq	(%rax), %rax
 3543 17af 488D4DD0 		leaq	-48(%rbp), %rcx
 3544 17b3 BA000000 		movl	$.LC28, %edx
 3544      00
 3545 17b8 4889CE   		movq	%rcx, %rsi
 3546 17bb 4889C7   		movq	%rax, %rdi
 3547 17be E8000000 		call	_ZN8UnitTest11TestResults13OnTestFailureERKNS_11TestDetailsEPKc
 3547      00
 3548              	.LEHE95:
 3549              	.LEHB96:
 3550 17c3 E8000000 		call	__cxa_end_catch
 3550      00
 3551              	.LEHE96:
 3552              	.L200:
 3553              		.loc 6 106 0 is_stmt 1
 3554 17c8 90       		nop
 3555 17c9 4883C448 		addq	$72, %rsp
 3556 17cd 5B       		popq	%rbx
 3557 17ce 5D       		popq	%rbp
 3558              		.cfi_def_cfa 7, 8
 3559 17cf C3       		ret
 3560              		.cfi_endproc
 3561              	.LFE1093:
 3562              		.section	.gcc_except_table
 3563              		.align 4
 3564              	.LLSDA1093:
 3565 0248 FF       		.byte	0xff
 3566 0249 03       		.byte	0x3
 3567 024a 49       		.uleb128 .LLSDATT1093-.LLSDATTD1093
 3568              	.LLSDATTD1093:
 3569 024b 01       		.byte	0x1
 3570 024c 40       		.uleb128 .LLSDACSE1093-.LLSDACSB1093
 3571              	.LLSDACSB1093:
 3572 024d 0D       		.uleb128 .LEHB85-.LFB1093
 3573 024e 6B       		.uleb128 .LEHE85-.LEHB85
 3574 024f A502     		.uleb128 .L194-.LFB1093
 3575 0251 01       		.uleb128 0x1
 3576 0252 78       		.uleb128 .LEHB86-.LFB1093
 3577 0253 49       		.uleb128 .LEHE86-.LEHB86
 3578 0254 8203     		.uleb128 .L196-.LFB1093
 3579 0256 01       		.uleb128 0x1
 3580 0257 C101     		.uleb128 .LEHB87-.LFB1093
 3581 0259 4C       		.uleb128 .LEHE87-.LEHB87
 3582 025a DF03     		.uleb128 .L198-.LFB1093
 3583 025c 01       		.uleb128 0x1
 3584 025d A002     		.uleb128 .LEHB88-.LFB1093
 3585 025f 05       		.uleb128 .LEHE88-.LEHB88
 3586 0260 00       		.uleb128 0
 3587 0261 00       		.uleb128 0
 3588 0262 AD02     		.uleb128 .LEHB89-.LFB1093
 3589 0264 38       		.uleb128 .LEHE89-.LEHB89
 3590 0265 9202     		.uleb128 .L195-.LFB1093
 3591 0267 00       		.uleb128 0
 3592 0268 E502     		.uleb128 .LEHB90-.LFB1093
 3593 026a 05       		.uleb128 .LEHE90-.LEHB90
 3594 026b 00       		.uleb128 0
 3595 026c 00       		.uleb128 0
 3596 026d FD02     		.uleb128 .LEHB91-.LFB1093
 3597 026f 05       		.uleb128 .LEHE91-.LEHB91
 3598 0270 00       		.uleb128 0
 3599 0271 00       		.uleb128 0
 3600 0272 8A03     		.uleb128 .LEHB92-.LFB1093
 3601 0274 38       		.uleb128 .LEHE92-.LEHB92
 3602 0275 EF02     		.uleb128 .L197-.LFB1093
 3603 0277 00       		.uleb128 0
 3604 0278 C203     		.uleb128 .LEHB93-.LFB1093
 3605 027a 05       		.uleb128 .LEHE93-.LEHB93
 3606 027b 00       		.uleb128 0
 3607 027c 00       		.uleb128 0
 3608 027d DA03     		.uleb128 .LEHB94-.LFB1093
 3609 027f 05       		.uleb128 .LEHE94-.LEHB94
 3610 0280 00       		.uleb128 0
 3611 0281 00       		.uleb128 0
 3612 0282 E703     		.uleb128 .LEHB95-.LFB1093
 3613 0284 38       		.uleb128 .LEHE95-.LEHB95
 3614 0285 CC03     		.uleb128 .L199-.LFB1093
 3615 0287 00       		.uleb128 0
 3616 0288 9F04     		.uleb128 .LEHB96-.LFB1093
 3617 028a 05       		.uleb128 .LEHE96-.LEHB96
 3618 028b 00       		.uleb128 0
 3619 028c 00       		.uleb128 0
 3620              	.LLSDACSE1093:
 3621 028d 01       		.byte	0x1
 3622 028e 00       		.byte	0
 3623 028f 00       		.align 4
 3624 0290 00000000 		.long	0
 3625              	
 3626              	.LLSDATT1093:
 3627              		.text
 3629              		.align 2
 3631              	_ZN12_GLOBAL__N_159TestRunnerFixtureCallsReportFailureOncePerFailingTestHelperC2ERKN8UnitTest11Test
 3632              	.LFB1095:
 107:TestTestRunner.cpp **** 
 108:TestTestRunner.cpp **** TEST_FIXTURE(TestRunnerFixture, CallsReportFailureOncePerFailingTest)
 3633              		.loc 6 108 0
 3634              		.cfi_startproc
 3635 17d0 55       		pushq	%rbp
 3636              		.cfi_def_cfa_offset 16
 3637              		.cfi_offset 6, -16
 3638 17d1 4889E5   		movq	%rsp, %rbp
 3639              		.cfi_def_cfa_register 6
 3640 17d4 4883EC10 		subq	$16, %rsp
 3641 17d8 48897DF8 		movq	%rdi, -8(%rbp)
 3642 17dc 488975F0 		movq	%rsi, -16(%rbp)
 3643              	.LBB81:
 3644              		.loc 6 108 0
 3645 17e0 488B45F8 		movq	-8(%rbp), %rax
 3646 17e4 4889C7   		movq	%rax, %rdi
 3647 17e7 E880E9FF 		call	_ZN12_GLOBAL__N_117TestRunnerFixtureC2Ev
 3647      FF
 3648 17ec 488B45F8 		movq	-8(%rbp), %rax
 3649 17f0 488B55F0 		movq	-16(%rbp), %rdx
 3650 17f4 48899058 		movq	%rdx, 2136(%rax)
 3650      080000
 3651              	.LBE81:
 3652 17fb C9       		leave
 3653              		.cfi_def_cfa 7, 8
 3654 17fc C3       		ret
 3655              		.cfi_endproc
 3656              	.LFE1095:
 3658              		.set	_ZN12_GLOBAL__N_159TestRunnerFixtureCallsReportFailureOncePerFailingTestHelperC1ERKN8UnitTest
 3659              		.section	.rodata
 3660              		.align 8
 3661              	.LC29:
 3662 0440 43616C6C 		.string	"CallsReportFailureOncePerFailingTest"
 3662      73526570 
 3662      6F727446 
 3662      61696C75 
 3662      72654F6E 
 3663              		.text
 3664 17fd 90       		.align 2
 3666              	_ZN12_GLOBAL__N_157TestTestRunnerFixtureCallsReportFailureOncePerFailingTestC2Ev:
 3667              	.LFB1098:
 3668              		.loc 6 108 0
 3669              		.cfi_startproc
 3670 17fe 55       		pushq	%rbp
 3671              		.cfi_def_cfa_offset 16
 3672              		.cfi_offset 6, -16
 3673 17ff 4889E5   		movq	%rsp, %rbp
 3674              		.cfi_def_cfa_register 6
 3675 1802 4883EC10 		subq	$16, %rsp
 3676 1806 48897DF8 		movq	%rdi, -8(%rbp)
 3677              	.LBB82:
 3678              		.loc 6 108 0
 3679 180a E8000000 		call	_ZN13UnitTestSuite12GetSuiteNameEv
 3679      00
 3680 180f 4889C2   		movq	%rax, %rdx
 3681 1812 488B45F8 		movq	-8(%rbp), %rax
 3682 1816 41B86C00 		movl	$108, %r8d
 3682      0000
 3683 181c B9000000 		movl	$.LC6, %ecx
 3683      00
 3684 1821 BE000000 		movl	$.LC29, %esi
 3684      00
 3685 1826 4889C7   		movq	%rax, %rdi
 3686 1829 E8000000 		call	_ZN8UnitTest4TestC2EPKcS2_S2_i
 3686      00
 3687 182e 488B45F8 		movq	-8(%rbp), %rax
 3688 1832 48C70000 		movq	$_ZTVN12_GLOBAL__N_157TestTestRunnerFixtureCallsReportFailureOncePerFailingTestE+16, (%rax)
 3688      000000
 3689              	.LBE82:
 3690 1839 C9       		leave
 3691              		.cfi_def_cfa 7, 8
 3692 183a C3       		ret
 3693              		.cfi_endproc
 3694              	.LFE1098:
 3696              		.set	_ZN12_GLOBAL__N_157TestTestRunnerFixtureCallsReportFailureOncePerFailingTestC1Ev,_ZN12_GLOBAL
 3697              		.local	_ZN12_GLOBAL__N_165testTestRunnerFixtureCallsReportFailureOncePerFailingTestInstanceE
 3698              		.comm	_ZN12_GLOBAL__N_165testTestRunnerFixtureCallsReportFailureOncePerFailingTestInstanceE,56,32
 3699              		.local	_ZN12_GLOBAL__N_158adderTestRunnerFixtureCallsReportFailureOncePerFailingTestE
 3700              		.comm	_ZN12_GLOBAL__N_158adderTestRunnerFixtureCallsReportFailureOncePerFailingTestE,1,1
 3701 183b 90       		.align 2
 3703              	_ZN12_GLOBAL__N_159TestRunnerFixtureCallsReportFailureOncePerFailingTestHelperD2Ev:
 3704              	.LFB1102:
 3705              		.loc 6 108 0
 3706              		.cfi_startproc
 3707 183c 55       		pushq	%rbp
 3708              		.cfi_def_cfa_offset 16
 3709              		.cfi_offset 6, -16
 3710 183d 4889E5   		movq	%rsp, %rbp
 3711              		.cfi_def_cfa_register 6
 3712 1840 4883EC10 		subq	$16, %rsp
 3713 1844 48897DF8 		movq	%rdi, -8(%rbp)
 3714              	.LBB83:
 3715              		.loc 6 108 0
 3716 1848 488B45F8 		movq	-8(%rbp), %rax
 3717 184c 4889C7   		movq	%rax, %rdi
 3718 184f E866E9FF 		call	_ZN12_GLOBAL__N_117TestRunnerFixtureD2Ev
 3718      FF
 3719              	.LBE83:
 3720 1854 C9       		leave
 3721              		.cfi_def_cfa 7, 8
 3722 1855 C3       		ret
 3723              		.cfi_endproc
 3724              	.LFE1102:
 3726              		.set	_ZN12_GLOBAL__N_159TestRunnerFixtureCallsReportFailureOncePerFailingTestHelperD1Ev,_ZN12_GLOB
 3727              		.align 2
 3729              	_ZNK12_GLOBAL__N_157TestTestRunnerFixtureCallsReportFailureOncePerFailingTest7RunImplEv:
 3730              	.LFB1100:
 3731              		.loc 6 108 0
 3732              		.cfi_startproc
 3733              		.cfi_personality 0x3,__gxx_personality_v0
 3734              		.cfi_lsda 0x3,.LLSDA1100
 3735 1856 55       		pushq	%rbp
 3736              		.cfi_def_cfa_offset 16
 3737              		.cfi_offset 6, -16
 3738 1857 4889E5   		movq	%rsp, %rbp
 3739              		.cfi_def_cfa_register 6
 3740 185a 4154     		pushq	%r12
 3741 185c 53       		pushq	%rbx
 3742 185d 4881EC10 		subq	$2576, %rsp
 3742      0A0000
 3743              		.cfi_offset 12, -24
 3744              		.cfi_offset 3, -32
 3745 1864 4889BDE8 		movq	%rdi, -2584(%rbp)
 3745      F5FFFF
 3746              		.loc 6 108 0
 3747 186b 64488B04 		movq	%fs:40, %rax
 3747      25280000 
 3747      00
 3748 1874 488945E8 		movq	%rax, -24(%rbp)
 3749 1878 31C0     		xorl	%eax, %eax
 3750              	.LBB84:
 3751 187a C685FFF5 		movb	$0, -2561(%rbp)
 3751      FFFF00
 3752              	.LBB85:
 3753 1881 488B85E8 		movq	-2584(%rbp), %rax
 3753      F5FFFF
 3754 1888 488D5008 		leaq	8(%rax), %rdx
 3755 188c 488D8580 		leaq	-2176(%rbp), %rax
 3755      F7FFFF
 3756 1893 4889D6   		movq	%rdx, %rsi
 3757 1896 4889C7   		movq	%rax, %rdi
 3758              	.LEHB97:
 3759 1899 E832FFFF 		call	_ZN12_GLOBAL__N_159TestRunnerFixtureCallsReportFailureOncePerFailingTestHelperC1ERKN8UnitTest
 3759      FF
 3760              	.LEHE97:
 3761              		.loc 6 108 0 is_stmt 0 discriminator 1
 3762 189e C685FFF5 		movb	$1, -2561(%rbp)
 3762      FFFF01
 3763 18a5 488B85E8 		movq	-2584(%rbp), %rax
 3763      F5FFFF
 3764 18ac 488D5008 		leaq	8(%rax), %rdx
 3765 18b0 488D8580 		leaq	-2176(%rbp), %rax
 3765      F7FFFF
 3766 18b7 4889D6   		movq	%rdx, %rsi
 3767 18ba 4889C7   		movq	%rax, %rdi
 3768              	.LEHB98:
 3769 18bd E8B85800 		call	_ZN8UnitTest11ExecuteTestIN12_GLOBAL__N_159TestRunnerFixtureCallsReportFailureOncePerFailingT
 3769      00
 3770              	.LEHE98:
 3771 18c2 488D8580 		leaq	-2176(%rbp), %rax
 3771      F7FFFF
 3772 18c9 4889C7   		movq	%rax, %rdi
 3773              	.LEHB99:
 3774 18cc E86BFFFF 		call	_ZN12_GLOBAL__N_159TestRunnerFixtureCallsReportFailureOncePerFailingTestHelperD1Ev
 3774      FF
 3775              	.LEHE99:
 3776              	.LBE85:
 3777              	.LBE84:
 3778              		.loc 6 108 0
 3779 18d1 E9640200 		jmp	.L226
 3779      00
 3780              	.L220:
 3781 18d6 4989C4   		movq	%rax, %r12
 3782 18d9 4889D3   		movq	%rdx, %rbx
 3783              	.LBB93:
 3784              	.LBB86:
 3785 18dc 488D8580 		leaq	-2176(%rbp), %rax
 3785      F7FFFF
 3786 18e3 4889C7   		movq	%rax, %rdi
 3787 18e6 E851FFFF 		call	_ZN12_GLOBAL__N_159TestRunnerFixtureCallsReportFailureOncePerFailingTestHelperD1Ev
 3787      FF
 3788 18eb 4C89E0   		movq	%r12, %rax
 3789 18ee 4889DA   		movq	%rbx, %rdx
 3790 18f1 EB00     		jmp	.L207
 3791              	.L219:
 3792              	.L207:
 3793 18f3 4883FA01 		cmpq	$1, %rdx
 3794 18f7 745C     		je	.L209
 3795 18f9 4883FA02 		cmpq	$2, %rdx
 3796 18fd 0F84F400 		je	.L210
 3796      0000
 3797 1903 E9980100 		jmp	.L225
 3797      00
 3798              	.L221:
 3799 1908 4889C3   		movq	%rax, %rbx
 3800              	.LBE86:
 3801              	.LBB87:
 3802 190b E8000000 		call	__cxa_end_catch
 3802      00
 3803 1910 4889D8   		movq	%rbx, %rax
 3804 1913 4889C7   		movq	%rax, %rdi
 3805              	.LEHB100:
 3806 1916 E8000000 		call	_Unwind_Resume
 3806      00
 3807              	.LEHE100:
 3808              	.L222:
 3809 191b 4889C3   		movq	%rax, %rbx
 3810              	.LBE87:
 3811              	.LBB88:
 3812              	.LBB89:
 3813 191e 488D8510 		leaq	-2544(%rbp), %rax
 3813      F6FFFF
 3814 1925 4889C7   		movq	%rax, %rdi
 3815 1928 E8000000 		call	_ZN8UnitTest15MemoryOutStreamD1Ev
 3815      00
 3816 192d EB03     		jmp	.L213
 3817              	.L223:
 3818 192f 4889C3   		movq	%rax, %rbx
 3819              	.L213:
 3820              	.LBE89:
 3821 1932 E8000000 		call	__cxa_end_catch
 3821      00
 3822 1937 4889D8   		movq	%rbx, %rax
 3823 193a 4889C7   		movq	%rax, %rdi
 3824              	.LEHB101:
 3825 193d E8000000 		call	_Unwind_Resume
 3825      00
 3826              	.LEHE101:
 3827              	.L224:
 3828 1942 4889C3   		movq	%rax, %rbx
 3829              	.LBE88:
 3830 1945 E8000000 		call	__cxa_end_catch
 3830      00
 3831 194a 4889D8   		movq	%rbx, %rax
 3832 194d 4889C7   		movq	%rax, %rdi
 3833              	.LEHB102:
 3834 1950 E8000000 		call	_Unwind_Resume
 3834      00
 3835              	.LEHE102:
 3836              	.L209:
 3837              	.LBB91:
 3838 1955 4889C7   		movq	%rax, %rdi
 3839 1958 E8000000 		call	__cxa_begin_catch
 3839      00
 3840 195d 48898500 		movq	%rax, -2560(%rbp)
 3840      F6FFFF
 3841 1964 488B8500 		movq	-2560(%rbp), %rax
 3841      F6FFFF
 3842 196b 488B00   		movq	(%rax), %rax
 3843 196e 4883C010 		addq	$16, %rax
 3844 1972 488B00   		movq	(%rax), %rax
 3845 1975 488B9500 		movq	-2560(%rbp), %rdx
 3845      F6FFFF
 3846 197c 4889D7   		movq	%rdx, %rdi
 3847 197f FFD0     		call	*%rax
 3848 1981 4889C3   		movq	%rax, %rbx
 3849 1984 488B8500 		movq	-2560(%rbp), %rax
 3849      F6FFFF
 3850 198b 4889C7   		movq	%rax, %rdi
 3851              	.LEHB103:
 3852 198e E8000000 		call	_ZNK8UnitTest15AssertException10LineNumberEv
 3852      00
 3853 1993 4189C4   		movl	%eax, %r12d
 3854 1996 488B8500 		movq	-2560(%rbp), %rax
 3854      F6FFFF
 3855 199d 4889C7   		movq	%rax, %rdi
 3856 19a0 E8000000 		call	_ZNK8UnitTest15AssertException8FilenameEv
 3856      00
 3857              		.loc 6 108 0 discriminator 1
 3858 19a5 4889C1   		movq	%rax, %rcx
 3859 19a8 488B85E8 		movq	-2584(%rbp), %rax
 3859      F5FFFF
 3860 19af 488B5008 		movq	8(%rax), %rdx
 3861 19b3 488B85E8 		movq	-2584(%rbp), %rax
 3861      F5FFFF
 3862 19ba 488B7010 		movq	16(%rax), %rsi
 3863 19be 488D8510 		leaq	-2544(%rbp), %rax
 3863      F6FFFF
 3864 19c5 4589E0   		movl	%r12d, %r8d
 3865 19c8 4889C7   		movq	%rax, %rdi
 3866 19cb E8000000 		call	_ZN8UnitTest11TestDetailsC1EPKcS2_S2_i
 3866      00
 3867              		.loc 6 108 0 discriminator 3
 3868 19d0 E8000000 		call	_ZN8UnitTest11CurrentTest7ResultsEv
 3868      00
 3869 19d5 488B00   		movq	(%rax), %rax
 3870 19d8 488D8D10 		leaq	-2544(%rbp), %rcx
 3870      F6FFFF
 3871 19df 4889DA   		movq	%rbx, %rdx
 3872 19e2 4889CE   		movq	%rcx, %rsi
 3873 19e5 4889C7   		movq	%rax, %rdi
 3874 19e8 E8000000 		call	_ZN8UnitTest11TestResults13OnTestFailureERKNS_11TestDetailsEPKc
 3874      00
 3875              	.LEHE103:
 3876              		.loc 6 108 0 discriminator 1
 3877 19ed E8000000 		call	__cxa_end_catch
 3877      00
 3878              	.LBE91:
 3879              	.LBE93:
 3880 19f2 E9430100 		jmp	.L226
 3880      00
 3881              	.L210:
 3882              	.LBB94:
 3883              	.LBB92:
 3884              		.loc 6 108 0
 3885 19f7 4889C7   		movq	%rax, %rdi
 3886 19fa E8000000 		call	__cxa_begin_catch
 3886      00
 3887 19ff 48898508 		movq	%rax, -2552(%rbp)
 3887      F6FFFF
 3888              	.LBB90:
 3889 1a06 488D8510 		leaq	-2544(%rbp), %rax
 3889      F6FFFF
 3890 1a0d 4889C7   		movq	%rax, %rdi
 3891              	.LEHB104:
 3892 1a10 E8000000 		call	_ZN8UnitTest15MemoryOutStreamC1Ev
 3892      00
 3893              	.LEHE104:
 3894              		.loc 6 108 0 discriminator 1
 3895 1a15 488B8508 		movq	-2552(%rbp), %rax
 3895      F6FFFF
 3896 1a1c 488B00   		movq	(%rax), %rax
 3897 1a1f 4883C010 		addq	$16, %rax
 3898 1a23 488B00   		movq	(%rax), %rax
 3899 1a26 488B9508 		movq	-2552(%rbp), %rdx
 3899      F6FFFF
 3900 1a2d 4889D7   		movq	%rdx, %rdi
 3901 1a30 FFD0     		call	*%rax
 3902 1a32 4889C3   		movq	%rax, %rbx
 3903 1a35 488D8510 		leaq	-2544(%rbp), %rax
 3903      F6FFFF
 3904 1a3c BE000000 		movl	$.LC8, %esi
 3904      00
 3905 1a41 4889C7   		movq	%rax, %rdi
 3906              	.LEHB105:
 3907 1a44 E8000000 		call	_ZStlsISt11char_traitsIcEERSt13basic_ostreamIcT_ES5_PKc
 3907      00
 3908 1a49 4889DE   		movq	%rbx, %rsi
 3909 1a4c 4889C7   		movq	%rax, %rdi
 3910 1a4f E8000000 		call	_ZStlsISt11char_traitsIcEERSt13basic_ostreamIcT_ES5_PKc
 3910      00
 3911 1a54 488D8510 		leaq	-2544(%rbp), %rax
 3911      F6FFFF
 3912 1a5b 4889C7   		movq	%rax, %rdi
 3913 1a5e E8000000 		call	_ZNK8UnitTest15MemoryOutStream7GetTextEv
 3913      00
 3914 1a63 4889C3   		movq	%rax, %rbx
 3915 1a66 488B85E8 		movq	-2584(%rbp), %rax
 3915      F5FFFF
 3916 1a6d 4C8D6008 		leaq	8(%rax), %r12
 3917 1a71 E8000000 		call	_ZN8UnitTest11CurrentTest7ResultsEv
 3917      00
 3918 1a76 488B00   		movq	(%rax), %rax
 3919 1a79 4889DA   		movq	%rbx, %rdx
 3920 1a7c 4C89E6   		movq	%r12, %rsi
 3921 1a7f 4889C7   		movq	%rax, %rdi
 3922 1a82 E8000000 		call	_ZN8UnitTest11TestResults13OnTestFailureERKNS_11TestDetailsEPKc
 3922      00
 3923              	.LEHE105:
 3924 1a87 488D8510 		leaq	-2544(%rbp), %rax
 3924      F6FFFF
 3925 1a8e 4889C7   		movq	%rax, %rdi
 3926              	.LEHB106:
 3927 1a91 E8000000 		call	_ZN8UnitTest15MemoryOutStreamD1Ev
 3927      00
 3928              	.LEHE106:
 3929              	.LBE90:
 3930              		.loc 6 108 0
 3931 1a96 E8000000 		call	__cxa_end_catch
 3931      00
 3932              	.LBE92:
 3933              	.LBE94:
 3934 1a9b E99A0000 		jmp	.L226
 3934      00
 3935              	.L225:
 3936              	.LBB95:
 3937 1aa0 4889C7   		movq	%rax, %rdi
 3938 1aa3 E8000000 		call	__cxa_begin_catch
 3938      00
 3939 1aa8 80BDFFF5 		cmpb	$0, -2561(%rbp)
 3939      FFFF00
 3940 1aaf 7443     		je	.L216
 3941              		.loc 6 108 0 discriminator 1
 3942 1ab1 488B85E8 		movq	-2584(%rbp), %rax
 3942      F5FFFF
 3943 1ab8 488D4808 		leaq	8(%rax), %rcx
 3944 1abc 488D8510 		leaq	-2544(%rbp), %rax
 3944      F6FFFF
 3945 1ac3 BA6C0000 		movl	$108, %edx
 3945      00
 3946 1ac8 4889CE   		movq	%rcx, %rsi
 3947 1acb 4889C7   		movq	%rax, %rdi
 3948              	.LEHB107:
 3949 1ace E8000000 		call	_ZN8UnitTest11TestDetailsC1ERKS0_i
 3949      00
 3950 1ad3 E8000000 		call	_ZN8UnitTest11CurrentTest7ResultsEv
 3950      00
 3951 1ad8 488B00   		movq	(%rax), %rax
 3952 1adb 488D8D10 		leaq	-2544(%rbp), %rcx
 3952      F6FFFF
 3953 1ae2 BA000000 		movl	$.LC9, %edx
 3953      00
 3954 1ae7 4889CE   		movq	%rcx, %rsi
 3955 1aea 4889C7   		movq	%rax, %rdi
 3956 1aed E8000000 		call	_ZN8UnitTest11TestResults13OnTestFailureERKNS_11TestDetailsEPKc
 3956      00
 3957 1af2 EB41     		jmp	.L217
 3958              	.L216:
 3959              		.loc 6 108 0 discriminator 2
 3960 1af4 488B85E8 		movq	-2584(%rbp), %rax
 3960      F5FFFF
 3961 1afb 488D4808 		leaq	8(%rax), %rcx
 3962 1aff 488D8510 		leaq	-2544(%rbp), %rax
 3962      F6FFFF
 3963 1b06 BA6C0000 		movl	$108, %edx
 3963      00
 3964 1b0b 4889CE   		movq	%rcx, %rsi
 3965 1b0e 4889C7   		movq	%rax, %rdi
 3966 1b11 E8000000 		call	_ZN8UnitTest11TestDetailsC1ERKS0_i
 3966      00
 3967              		.loc 6 108 0 discriminator 1
 3968 1b16 E8000000 		call	_ZN8UnitTest11CurrentTest7ResultsEv
 3968      00
 3969 1b1b 488B00   		movq	(%rax), %rax
 3970 1b1e 488D8D10 		leaq	-2544(%rbp), %rcx
 3970      F6FFFF
 3971 1b25 BA000000 		movl	$.LC10, %edx
 3971      00
 3972 1b2a 4889CE   		movq	%rcx, %rsi
 3973 1b2d 4889C7   		movq	%rax, %rdi
 3974 1b30 E8000000 		call	_ZN8UnitTest11TestResults13OnTestFailureERKNS_11TestDetailsEPKc
 3974      00
 3975              	.LEHE107:
 3976              	.L217:
 3977              	.LEHB108:
 3978 1b35 E8000000 		call	__cxa_end_catch
 3978      00
 3979              	.LEHE108:
 3980              	.L226:
 3981              	.LBE95:
 3982              		.loc 6 108 0
 3983 1b3a 90       		nop
 3984 1b3b 488B45E8 		movq	-24(%rbp), %rax
 3985 1b3f 64483304 		xorq	%fs:40, %rax
 3985      25280000 
 3985      00
 3986 1b48 7405     		je	.L218
 3987 1b4a E8000000 		call	__stack_chk_fail
 3987      00
 3988              	.L218:
 3989 1b4f 4881C410 		addq	$2576, %rsp
 3989      0A0000
 3990 1b56 5B       		popq	%rbx
 3991 1b57 415C     		popq	%r12
 3992 1b59 5D       		popq	%rbp
 3993              		.cfi_def_cfa 7, 8
 3994 1b5a C3       		ret
 3995              		.cfi_endproc
 3996              	.LFE1100:
 3997              		.section	.gcc_except_table
 3998              		.align 4
 3999              	.LLSDA1100:
 4000 0294 FF       		.byte	0xff
 4001 0295 03       		.byte	0x3
 4002 0296 59       		.uleb128 .LLSDATT1100-.LLSDATTD1100
 4003              	.LLSDATTD1100:
 4004 0297 01       		.byte	0x1
 4005 0298 41       		.uleb128 .LLSDACSE1100-.LLSDACSB1100
 4006              	.LLSDACSB1100:
 4007 0299 43       		.uleb128 .LEHB97-.LFB1100
 4008 029a 05       		.uleb128 .LEHE97-.LEHB97
 4009 029b 9D01     		.uleb128 .L219-.LFB1100
 4010 029d 05       		.uleb128 0x5
 4011 029e 67       		.uleb128 .LEHB98-.LFB1100
 4012 029f 05       		.uleb128 .LEHE98-.LEHB98
 4013 02a0 8001     		.uleb128 .L220-.LFB1100
 4014 02a2 07       		.uleb128 0x7
 4015 02a3 76       		.uleb128 .LEHB99-.LFB1100
 4016 02a4 05       		.uleb128 .LEHE99-.LEHB99
 4017 02a5 9D01     		.uleb128 .L219-.LFB1100
 4018 02a7 05       		.uleb128 0x5
 4019 02a8 C001     		.uleb128 .LEHB100-.LFB1100
 4020 02aa 05       		.uleb128 .LEHE100-.LEHB100
 4021 02ab 00       		.uleb128 0
 4022 02ac 00       		.uleb128 0
 4023 02ad E701     		.uleb128 .LEHB101-.LFB1100
 4024 02af 05       		.uleb128 .LEHE101-.LEHB101
 4025 02b0 00       		.uleb128 0
 4026 02b1 00       		.uleb128 0
 4027 02b2 FA01     		.uleb128 .LEHB102-.LFB1100
 4028 02b4 05       		.uleb128 .LEHE102-.LEHB102
 4029 02b5 00       		.uleb128 0
 4030 02b6 00       		.uleb128 0
 4031 02b7 B802     		.uleb128 .LEHB103-.LFB1100
 4032 02b9 5F       		.uleb128 .LEHE103-.LEHB103
 4033 02ba B201     		.uleb128 .L221-.LFB1100
 4034 02bc 00       		.uleb128 0
 4035 02bd BA03     		.uleb128 .LEHB104-.LFB1100
 4036 02bf 05       		.uleb128 .LEHE104-.LEHB104
 4037 02c0 D901     		.uleb128 .L223-.LFB1100
 4038 02c2 00       		.uleb128 0
 4039 02c3 EE03     		.uleb128 .LEHB105-.LFB1100
 4040 02c5 43       		.uleb128 .LEHE105-.LEHB105
 4041 02c6 C501     		.uleb128 .L222-.LFB1100
 4042 02c8 00       		.uleb128 0
 4043 02c9 BB04     		.uleb128 .LEHB106-.LFB1100
 4044 02cb 05       		.uleb128 .LEHE106-.LEHB106
 4045 02cc D901     		.uleb128 .L223-.LFB1100
 4046 02ce 00       		.uleb128 0
 4047 02cf F804     		.uleb128 .LEHB107-.LFB1100
 4048 02d1 67       		.uleb128 .LEHE107-.LEHB107
 4049 02d2 EC01     		.uleb128 .L224-.LFB1100
 4050 02d4 00       		.uleb128 0
 4051 02d5 DF05     		.uleb128 .LEHB108-.LFB1100
 4052 02d7 05       		.uleb128 .LEHE108-.LEHB108
 4053 02d8 00       		.uleb128 0
 4054 02d9 00       		.uleb128 0
 4055              	.LLSDACSE1100:
 4056 02da 03       		.byte	0x3
 4057 02db 00       		.byte	0
 4058 02dc 02       		.byte	0x2
 4059 02dd 7D       		.byte	0x7d
 4060 02de 01       		.byte	0x1
 4061 02df 7D       		.byte	0x7d
 4062 02e0 00       		.byte	0
 4063 02e1 7D       		.byte	0x7d
 4064 02e2 0000     		.align 4
 4065 02e4 00000000 		.long	0
 4066              	
 4067 02e8 00000000 		.long	_ZTISt9exception
 4068 02ec 00000000 		.long	_ZTIN8UnitTest15AssertExceptionE
 4069              	.LLSDATT1100:
 4070              		.text
 4072              		.section	.rodata
 4073              	.LC30:
 4074 0465 74657374 		.string	"test"
 4074      00
 4075 046a 00000000 		.align 8
 4075      0000
 4076              	.LC31:
 4077 0470 556E6861 		.string	"Unhandled exception in CHECK_EQUAL(2, RunTestsIf(list, NULL, True(), 0))"
 4077      6E646C65 
 4077      64206578 
 4077      63657074 
 4077      696F6E20 
 4078 04b9 00000000 		.align 8
 4078      000000
 4079              	.LC32:
 4080 04c0 556E6861 		.string	"Unhandled exception in CHECK_EQUAL(2, reporter.testFailedCount)"
 4080      6E646C65 
 4080      64206578 
 4080      63657074 
 4080      696F6E20 
 4081              		.text
 4082 1b5b 90       		.align 2
 4084              	_ZN12_GLOBAL__N_159TestRunnerFixtureCallsReportFailureOncePerFailingTestHelper7RunImplEv:
 4085              	.LFB1104:
 109:TestTestRunner.cpp **** {
 4086              		.loc 6 109 0 is_stmt 1
 4087              		.cfi_startproc
 4088              		.cfi_personality 0x3,__gxx_personality_v0
 4089              		.cfi_lsda 0x3,.LLSDA1104
 4090 1b5c 55       		pushq	%rbp
 4091              		.cfi_def_cfa_offset 16
 4092              		.cfi_offset 6, -16
 4093 1b5d 4889E5   		movq	%rsp, %rbp
 4094              		.cfi_def_cfa_register 6
 4095 1b60 53       		pushq	%rbx
 4096 1b61 4881EC08 		subq	$264, %rsp
 4096      010000
 4097              		.cfi_offset 3, -24
 4098 1b68 4889BDF8 		movq	%rdi, -264(%rbp)
 4098      FEFFFF
 4099              	.LBB96:
 110:TestTestRunner.cpp ****     MockTest test1("test", false, false);
 4100              		.loc 6 110 0
 4101 1b6f 488D8530 		leaq	-208(%rbp), %rax
 4101      FFFFFF
 4102 1b76 41B80100 		movl	$1, %r8d
 4102      0000
 4103 1b7c B9000000 		movl	$0, %ecx
 4103      00
 4104 1b81 BA000000 		movl	$0, %edx
 4104      00
 4105 1b86 BE000000 		movl	$.LC30, %esi
 4105      00
 4106 1b8b 4889C7   		movq	%rax, %rdi
 4107              	.LEHB109:
 4108 1b8e E86DE4FF 		call	_ZN12_GLOBAL__N_18MockTestC1EPKcbbi
 4108      FF
 4109              	.LEHE109:
 111:TestTestRunner.cpp ****     list.Add(&test1);
 4110              		.loc 6 111 0
 4111 1b93 488B85F8 		movq	-264(%rbp), %rax
 4111      FEFFFF
 4112 1b9a 488D9048 		leaq	2120(%rax), %rdx
 4112      080000
 4113 1ba1 488D8530 		leaq	-208(%rbp), %rax
 4113      FFFFFF
 4114 1ba8 4889C6   		movq	%rax, %rsi
 4115 1bab 4889D7   		movq	%rdx, %rdi
 4116              	.LEHB110:
 4117 1bae E8000000 		call	_ZN8UnitTest8TestList3AddEPNS_4TestE
 4117      00
 112:TestTestRunner.cpp ****     MockTest test2("test", true, false);
 4118              		.loc 6 112 0
 4119 1bb3 488D8570 		leaq	-144(%rbp), %rax
 4119      FFFFFF
 4120 1bba 41B80100 		movl	$1, %r8d
 4120      0000
 4121 1bc0 B9000000 		movl	$0, %ecx
 4121      00
 4122 1bc5 BA010000 		movl	$1, %edx
 4122      00
 4123 1bca BE000000 		movl	$.LC30, %esi
 4123      00
 4124 1bcf 4889C7   		movq	%rax, %rdi
 4125 1bd2 E829E4FF 		call	_ZN12_GLOBAL__N_18MockTestC1EPKcbbi
 4125      FF
 4126              	.LEHE110:
 113:TestTestRunner.cpp ****     list.Add(&test2);
 4127              		.loc 6 113 0
 4128 1bd7 488B85F8 		movq	-264(%rbp), %rax
 4128      FEFFFF
 4129 1bde 488D9048 		leaq	2120(%rax), %rdx
 4129      080000
 4130 1be5 488D8570 		leaq	-144(%rbp), %rax
 4130      FFFFFF
 4131 1bec 4889C6   		movq	%rax, %rsi
 4132 1bef 4889D7   		movq	%rdx, %rdi
 4133              	.LEHB111:
 4134 1bf2 E8000000 		call	_ZN8UnitTest8TestList3AddEPNS_4TestE
 4134      00
 114:TestTestRunner.cpp ****     MockTest test3("test", false, false);
 4135              		.loc 6 114 0
 4136 1bf7 488D45B0 		leaq	-80(%rbp), %rax
 4137 1bfb 41B80100 		movl	$1, %r8d
 4137      0000
 4138 1c01 B9000000 		movl	$0, %ecx
 4138      00
 4139 1c06 BA000000 		movl	$0, %edx
 4139      00
 4140 1c0b BE000000 		movl	$.LC30, %esi
 4140      00
 4141 1c10 4889C7   		movq	%rax, %rdi
 4142 1c13 E8E8E3FF 		call	_ZN12_GLOBAL__N_18MockTestC1EPKcbbi
 4142      FF
 4143              	.LEHE111:
 115:TestTestRunner.cpp ****     list.Add(&test3);
 4144              		.loc 6 115 0
 4145 1c18 488B85F8 		movq	-264(%rbp), %rax
 4145      FEFFFF
 4146 1c1f 488D9048 		leaq	2120(%rax), %rdx
 4146      080000
 4147 1c26 488D45B0 		leaq	-80(%rbp), %rax
 4148 1c2a 4889C6   		movq	%rax, %rsi
 4149 1c2d 4889D7   		movq	%rdx, %rdi
 4150              	.LEHB112:
 4151 1c30 E8000000 		call	_ZN8UnitTest8TestList3AddEPNS_4TestE
 4151      00
 4152              	.LEHE112:
 4153              	.LEHB113:
 116:TestTestRunner.cpp **** 
 117:TestTestRunner.cpp **** 	CHECK_EQUAL(2, 	RunTestsIf(list, NULL, True(), 0));
 4154              		.loc 6 117 0
 4155 1c35 E8000000 		call	_ZN8UnitTest11CurrentTest7DetailsEv
 4155      00
 4156 1c3a 488B08   		movq	(%rax), %rcx
 4157 1c3d 488D8510 		leaq	-240(%rbp), %rax
 4157      FFFFFF
 4158 1c44 BA750000 		movl	$117, %edx
 4158      00
 4159 1c49 4889CE   		movq	%rcx, %rsi
 4160 1c4c 4889C7   		movq	%rax, %rdi
 4161 1c4f E8000000 		call	_ZN8UnitTest11TestDetailsC1ERKS0_i
 4161      00
 4162              		.loc 6 117 0 is_stmt 0 discriminator 1
 4163 1c54 488B85F8 		movq	-264(%rbp), %rax
 4163      FEFFFF
 4164 1c5b 488DB048 		leaq	2120(%rax), %rsi
 4164      080000
 4165 1c62 488B85F8 		movq	-264(%rbp), %rax
 4165      FEFFFF
 4166 1c69 488D9507 		leaq	-249(%rbp), %rdx
 4166      FFFFFF
 4167 1c70 41B80000 		movl	$0, %r8d
 4167      0000
 4168 1c76 4889D1   		movq	%rdx, %rcx
 4169 1c79 BA000000 		movl	$0, %edx
 4169      00
 4170 1c7e 4889C7   		movq	%rax, %rdi
 4171 1c81 E8BA4C00 		call	_ZN12_GLOBAL__N_111FixtureBase10RunTestsIfIN8UnitTest4TrueEEEiRKNS2_8TestListEPKcRKT_i
 4171      00
 4172 1c86 89850CFF 		movl	%eax, -244(%rbp)
 4172      FFFF
 4173 1c8c C78508FF 		movl	$2, -248(%rbp)
 4173      FFFF0200 
 4173      0000
 4174 1c96 E8000000 		call	_ZN8UnitTest11CurrentTest7ResultsEv
 4174      00
 4175 1c9b 488B00   		movq	(%rax), %rax
 4176 1c9e 488D8D10 		leaq	-240(%rbp), %rcx
 4176      FFFFFF
 4177 1ca5 488D950C 		leaq	-244(%rbp), %rdx
 4177      FFFFFF
 4178 1cac 488DB508 		leaq	-248(%rbp), %rsi
 4178      FFFFFF
 4179 1cb3 4889C7   		movq	%rax, %rdi
 4180 1cb6 E8000000 		call	_ZN8UnitTest10CheckEqualIiiEEvRNS_11TestResultsERKT_RKT0_RKNS_11TestDetailsE
 4180      00
 4181              	.LEHE113:
 4182              	.L231:
 4183              	.LEHB114:
 118:TestTestRunner.cpp ****     CHECK_EQUAL(2, reporter.testFailedCount);
 4184              		.loc 6 118 0 is_stmt 1
 4185 1cbb E8000000 		call	_ZN8UnitTest11CurrentTest7DetailsEv
 4185      00
 4186 1cc0 488B08   		movq	(%rax), %rcx
 4187 1cc3 488D8510 		leaq	-240(%rbp), %rax
 4187      FFFFFF
 4188 1cca BA760000 		movl	$118, %edx
 4188      00
 4189 1ccf 4889CE   		movq	%rcx, %rsi
 4190 1cd2 4889C7   		movq	%rax, %rdi
 4191 1cd5 E8000000 		call	_ZN8UnitTest11TestDetailsC1ERKS0_i
 4191      00
 4192              		.loc 6 118 0 is_stmt 0 discriminator 1
 4193 1cda 488B85F8 		movq	-264(%rbp), %rax
 4193      FEFFFF
 4194 1ce1 488D9824 		leaq	548(%rax), %rbx
 4194      020000
 4195 1ce8 C7850CFF 		movl	$2, -244(%rbp)
 4195      FFFF0200 
 4195      0000
 4196 1cf2 E8000000 		call	_ZN8UnitTest11CurrentTest7ResultsEv
 4196      00
 4197 1cf7 488B00   		movq	(%rax), %rax
 4198 1cfa 488D9510 		leaq	-240(%rbp), %rdx
 4198      FFFFFF
 4199 1d01 488DB50C 		leaq	-244(%rbp), %rsi
 4199      FFFFFF
 4200 1d08 4889D1   		movq	%rdx, %rcx
 4201 1d0b 4889DA   		movq	%rbx, %rdx
 4202 1d0e 4889C7   		movq	%rax, %rdi
 4203 1d11 E8000000 		call	_ZN8UnitTest10CheckEqualIiiEEvRNS_11TestResultsERKT_RKT0_RKNS_11TestDetailsE
 4203      00
 4204              	.LEHE114:
 4205              	.L234:
 114:TestTestRunner.cpp ****     list.Add(&test3);
 4206              		.loc 6 114 0 is_stmt 1
 4207 1d16 488D45B0 		leaq	-80(%rbp), %rax
 4208 1d1a 4889C7   		movq	%rax, %rdi
 4209              	.LEHB115:
 4210 1d1d E8AE7E00 		call	_ZN12_GLOBAL__N_18MockTestD1Ev
 4210      00
 4211              	.LEHE115:
 112:TestTestRunner.cpp ****     list.Add(&test2);
 4212              		.loc 6 112 0
 4213 1d22 488D8570 		leaq	-144(%rbp), %rax
 4213      FFFFFF
 4214 1d29 4889C7   		movq	%rax, %rdi
 4215              	.LEHB116:
 4216 1d2c E89F7E00 		call	_ZN12_GLOBAL__N_18MockTestD1Ev
 4216      00
 4217              	.LEHE116:
 4218              		.loc 6 118 0
 4219 1d31 488D8530 		leaq	-208(%rbp), %rax
 4219      FFFFFF
 4220 1d38 4889C7   		movq	%rax, %rdi
 4221              	.LEHB117:
 4222 1d3b E8907E00 		call	_ZN12_GLOBAL__N_18MockTestD1Ev
 4222      00
 4223              	.LEHE117:
 4224 1d40 E9F90000 		jmp	.L244
 4224      00
 4225              	.L241:
 4226 1d45 4889C3   		movq	%rax, %rbx
 117:TestTestRunner.cpp ****     CHECK_EQUAL(2, reporter.testFailedCount);
 4227              		.loc 6 117 0
 4228 1d48 E8000000 		call	__cxa_end_catch
 4228      00
 4229 1d4d E9AD0000 		jmp	.L229
 4229      00
 4230              	.L240:
 4231 1d52 4889C7   		movq	%rax, %rdi
 4232 1d55 E8000000 		call	__cxa_begin_catch
 4232      00
 4233              	.LEHB118:
 4234 1d5a E8000000 		call	_ZN8UnitTest11CurrentTest7DetailsEv
 4234      00
 4235 1d5f 488B08   		movq	(%rax), %rcx
 4236 1d62 488D8510 		leaq	-240(%rbp), %rax
 4236      FFFFFF
 4237 1d69 BA750000 		movl	$117, %edx
 4237      00
 4238 1d6e 4889CE   		movq	%rcx, %rsi
 4239 1d71 4889C7   		movq	%rax, %rdi
 4240 1d74 E8000000 		call	_ZN8UnitTest11TestDetailsC1ERKS0_i
 4240      00
 117:TestTestRunner.cpp ****     CHECK_EQUAL(2, reporter.testFailedCount);
 4241              		.loc 6 117 0 is_stmt 0 discriminator 1
 4242 1d79 E8000000 		call	_ZN8UnitTest11CurrentTest7ResultsEv
 4242      00
 4243 1d7e 488B00   		movq	(%rax), %rax
 4244 1d81 488D8D10 		leaq	-240(%rbp), %rcx
 4244      FFFFFF
 4245 1d88 BA000000 		movl	$.LC31, %edx
 4245      00
 4246 1d8d 4889CE   		movq	%rcx, %rsi
 4247 1d90 4889C7   		movq	%rax, %rdi
 4248 1d93 E8000000 		call	_ZN8UnitTest11TestResults13OnTestFailureERKNS_11TestDetailsEPKc
 4248      00
 4249              	.LEHE118:
 4250              	.LEHB119:
 4251 1d98 E8000000 		call	__cxa_end_catch
 4251      00
 4252              	.LEHE119:
 117:TestTestRunner.cpp ****     CHECK_EQUAL(2, reporter.testFailedCount);
 4253              		.loc 6 117 0
 4254 1d9d E919FFFF 		jmp	.L231
 4254      FF
 4255              	.L243:
 4256 1da2 4889C3   		movq	%rax, %rbx
 4257              		.loc 6 118 0 is_stmt 1
 4258 1da5 E8000000 		call	__cxa_end_catch
 4258      00
 4259 1daa EB53     		jmp	.L229
 4260              	.L242:
 4261 1dac 4889C7   		movq	%rax, %rdi
 4262 1daf E8000000 		call	__cxa_begin_catch
 4262      00
 4263              	.LEHB120:
 4264 1db4 E8000000 		call	_ZN8UnitTest11CurrentTest7DetailsEv
 4264      00
 4265 1db9 488B08   		movq	(%rax), %rcx
 4266 1dbc 488D8510 		leaq	-240(%rbp), %rax
 4266      FFFFFF
 4267 1dc3 BA760000 		movl	$118, %edx
 4267      00
 4268 1dc8 4889CE   		movq	%rcx, %rsi
 4269 1dcb 4889C7   		movq	%rax, %rdi
 4270 1dce E8000000 		call	_ZN8UnitTest11TestDetailsC1ERKS0_i
 4270      00
 4271              		.loc 6 118 0 is_stmt 0 discriminator 1
 4272 1dd3 E8000000 		call	_ZN8UnitTest11CurrentTest7ResultsEv
 4272      00
 4273 1dd8 488B00   		movq	(%rax), %rax
 4274 1ddb 488D8D10 		leaq	-240(%rbp), %rcx
 4274      FFFFFF
 4275 1de2 BA000000 		movl	$.LC32, %edx
 4275      00
 4276 1de7 4889CE   		movq	%rcx, %rsi
 4277 1dea 4889C7   		movq	%rax, %rdi
 4278 1ded E8000000 		call	_ZN8UnitTest11TestResults13OnTestFailureERKNS_11TestDetailsEPKc
 4278      00
 4279              	.LEHE120:
 4280              	.LEHB121:
 4281 1df2 E8000000 		call	__cxa_end_catch
 4281      00
 4282              	.LEHE121:
 4283              		.loc 6 118 0
 4284 1df7 E91AFFFF 		jmp	.L234
 4284      FF
 4285              	.L239:
 4286 1dfc 4889C3   		movq	%rax, %rbx
 4287              	.L229:
 114:TestTestRunner.cpp ****     list.Add(&test3);
 4288              		.loc 6 114 0 is_stmt 1
 4289 1dff 488D45B0 		leaq	-80(%rbp), %rax
 4290 1e03 4889C7   		movq	%rax, %rdi
 4291 1e06 E8C57D00 		call	_ZN12_GLOBAL__N_18MockTestD1Ev
 4291      00
 4292 1e0b EB03     		jmp	.L235
 4293              	.L238:
 4294 1e0d 4889C3   		movq	%rax, %rbx
 4295              	.L235:
 112:TestTestRunner.cpp ****     list.Add(&test2);
 4296              		.loc 6 112 0
 4297 1e10 488D8570 		leaq	-144(%rbp), %rax
 4297      FFFFFF
 4298 1e17 4889C7   		movq	%rax, %rdi
 4299 1e1a E8B17D00 		call	_ZN12_GLOBAL__N_18MockTestD1Ev
 4299      00
 4300 1e1f EB03     		jmp	.L236
 4301              	.L237:
 4302 1e21 4889C3   		movq	%rax, %rbx
 4303              	.L236:
 4304              		.loc 6 118 0
 4305 1e24 488D8530 		leaq	-208(%rbp), %rax
 4305      FFFFFF
 4306 1e2b 4889C7   		movq	%rax, %rdi
 4307 1e2e E89D7D00 		call	_ZN12_GLOBAL__N_18MockTestD1Ev
 4307      00
 4308 1e33 4889D8   		movq	%rbx, %rax
 4309 1e36 4889C7   		movq	%rax, %rdi
 4310              	.LEHB122:
 4311 1e39 E8000000 		call	_Unwind_Resume
 4311      00
 4312              	.LEHE122:
 4313              	.L244:
 4314              	.LBE96:
 119:TestTestRunner.cpp **** }
 4315              		.loc 6 119 0
 4316 1e3e 4881C408 		addq	$264, %rsp
 4316      010000
 4317 1e45 5B       		popq	%rbx
 4318 1e46 5D       		popq	%rbp
 4319              		.cfi_def_cfa 7, 8
 4320 1e47 C3       		ret
 4321              		.cfi_endproc
 4322              	.LFE1104:
 4323              		.section	.gcc_except_table
 4324              		.align 4
 4325              	.LLSDA1104:
 4326 02f0 FF       		.byte	0xff
 4327 02f1 03       		.byte	0x3
 4328 02f2 59       		.uleb128 .LLSDATT1104-.LLSDATTD1104
 4329              	.LLSDATTD1104:
 4330 02f3 01       		.byte	0x1
 4331 02f4 50       		.uleb128 .LLSDACSE1104-.LLSDACSB1104
 4332              	.LLSDACSB1104:
 4333 02f5 32       		.uleb128 .LEHB109-.LFB1104
 4334 02f6 05       		.uleb128 .LEHE109-.LEHB109
 4335 02f7 00       		.uleb128 0
 4336 02f8 00       		.uleb128 0
 4337 02f9 52       		.uleb128 .LEHB110-.LFB1104
 4338 02fa 29       		.uleb128 .LEHE110-.LEHB110
 4339 02fb C505     		.uleb128 .L237-.LFB1104
 4340 02fd 00       		.uleb128 0
 4341 02fe 9601     		.uleb128 .LEHB111-.LFB1104
 4342 0300 26       		.uleb128 .LEHE111-.LEHB111
 4343 0301 B105     		.uleb128 .L238-.LFB1104
 4344 0303 00       		.uleb128 0
 4345 0304 D401     		.uleb128 .LEHB112-.LFB1104
 4346 0306 05       		.uleb128 .LEHE112-.LEHB112
 4347 0307 A005     		.uleb128 .L239-.LFB1104
 4348 0309 00       		.uleb128 0
 4349 030a D901     		.uleb128 .LEHB113-.LFB1104
 4350 030c 8601     		.uleb128 .LEHE113-.LEHB113
 4351 030e F603     		.uleb128 .L240-.LFB1104
 4352 0310 01       		.uleb128 0x1
 4353 0311 DF02     		.uleb128 .LEHB114-.LFB1104
 4354 0313 5B       		.uleb128 .LEHE114-.LEHB114
 4355 0314 D004     		.uleb128 .L242-.LFB1104
 4356 0316 01       		.uleb128 0x1
 4357 0317 C103     		.uleb128 .LEHB115-.LFB1104
 4358 0319 05       		.uleb128 .LEHE115-.LEHB115
 4359 031a B105     		.uleb128 .L238-.LFB1104
 4360 031c 00       		.uleb128 0
 4361 031d D003     		.uleb128 .LEHB116-.LFB1104
 4362 031f 05       		.uleb128 .LEHE116-.LEHB116
 4363 0320 C505     		.uleb128 .L237-.LFB1104
 4364 0322 00       		.uleb128 0
 4365 0323 DF03     		.uleb128 .LEHB117-.LFB1104
 4366 0325 05       		.uleb128 .LEHE117-.LEHB117
 4367 0326 00       		.uleb128 0
 4368 0327 00       		.uleb128 0
 4369 0328 FE03     		.uleb128 .LEHB118-.LFB1104
 4370 032a 3E       		.uleb128 .LEHE118-.LEHB118
 4371 032b E903     		.uleb128 .L241-.LFB1104
 4372 032d 00       		.uleb128 0
 4373 032e BC04     		.uleb128 .LEHB119-.LFB1104
 4374 0330 05       		.uleb128 .LEHE119-.LEHB119
 4375 0331 A005     		.uleb128 .L239-.LFB1104
 4376 0333 00       		.uleb128 0
 4377 0334 D804     		.uleb128 .LEHB120-.LFB1104
 4378 0336 3E       		.uleb128 .LEHE120-.LEHB120
 4379 0337 C604     		.uleb128 .L243-.LFB1104
 4380 0339 00       		.uleb128 0
 4381 033a 9605     		.uleb128 .LEHB121-.LFB1104
 4382 033c 05       		.uleb128 .LEHE121-.LEHB121
 4383 033d A005     		.uleb128 .L239-.LFB1104
 4384 033f 00       		.uleb128 0
 4385 0340 DD05     		.uleb128 .LEHB122-.LFB1104
 4386 0342 05       		.uleb128 .LEHE122-.LEHB122
 4387 0343 00       		.uleb128 0
 4388 0344 00       		.uleb128 0
 4389              	.LLSDACSE1104:
 4390 0345 01       		.byte	0x1
 4391 0346 00       		.byte	0
 4392 0347 00       		.align 4
 4393 0348 00000000 		.long	0
 4394              	
 4395              	.LLSDATT1104:
 4396              		.text
 4398              		.align 2
 4400              	_ZN12_GLOBAL__N_158TestRunnerFixtureTestsThatAssertAreReportedAsFailingHelperC2ERKN8UnitTest11TestD
 4401              	.LFB1106:
 120:TestTestRunner.cpp **** 
 121:TestTestRunner.cpp **** TEST_FIXTURE(TestRunnerFixture, TestsThatAssertAreReportedAsFailing)
 4402              		.loc 6 121 0
 4403              		.cfi_startproc
 4404 1e48 55       		pushq	%rbp
 4405              		.cfi_def_cfa_offset 16
 4406              		.cfi_offset 6, -16
 4407 1e49 4889E5   		movq	%rsp, %rbp
 4408              		.cfi_def_cfa_register 6
 4409 1e4c 4883EC10 		subq	$16, %rsp
 4410 1e50 48897DF8 		movq	%rdi, -8(%rbp)
 4411 1e54 488975F0 		movq	%rsi, -16(%rbp)
 4412              	.LBB97:
 4413              		.loc 6 121 0
 4414 1e58 488B45F8 		movq	-8(%rbp), %rax
 4415 1e5c 4889C7   		movq	%rax, %rdi
 4416 1e5f E808E3FF 		call	_ZN12_GLOBAL__N_117TestRunnerFixtureC2Ev
 4416      FF
 4417 1e64 488B45F8 		movq	-8(%rbp), %rax
 4418 1e68 488B55F0 		movq	-16(%rbp), %rdx
 4419 1e6c 48899058 		movq	%rdx, 2136(%rax)
 4419      080000
 4420              	.LBE97:
 4421 1e73 C9       		leave
 4422              		.cfi_def_cfa 7, 8
 4423 1e74 C3       		ret
 4424              		.cfi_endproc
 4425              	.LFE1106:
 4427              		.set	_ZN12_GLOBAL__N_158TestRunnerFixtureTestsThatAssertAreReportedAsFailingHelperC1ERKN8UnitTest1
 4428              		.section	.rodata
 4429              		.align 8
 4430              	.LC33:
 4431 0500 54657374 		.string	"TestsThatAssertAreReportedAsFailing"
 4431      73546861 
 4431      74417373 
 4431      65727441 
 4431      72655265 
 4432              		.text
 4433 1e75 90       		.align 2
 4435              	_ZN12_GLOBAL__N_156TestTestRunnerFixtureTestsThatAssertAreReportedAsFailingC2Ev:
 4436              	.LFB1109:
 4437              		.loc 6 121 0
 4438              		.cfi_startproc
 4439 1e76 55       		pushq	%rbp
 4440              		.cfi_def_cfa_offset 16
 4441              		.cfi_offset 6, -16
 4442 1e77 4889E5   		movq	%rsp, %rbp
 4443              		.cfi_def_cfa_register 6
 4444 1e7a 4883EC10 		subq	$16, %rsp
 4445 1e7e 48897DF8 		movq	%rdi, -8(%rbp)
 4446              	.LBB98:
 4447              		.loc 6 121 0
 4448 1e82 E8000000 		call	_ZN13UnitTestSuite12GetSuiteNameEv
 4448      00
 4449 1e87 4889C2   		movq	%rax, %rdx
 4450 1e8a 488B45F8 		movq	-8(%rbp), %rax
 4451 1e8e 41B87900 		movl	$121, %r8d
 4451      0000
 4452 1e94 B9000000 		movl	$.LC6, %ecx
 4452      00
 4453 1e99 BE000000 		movl	$.LC33, %esi
 4453      00
 4454 1e9e 4889C7   		movq	%rax, %rdi
 4455 1ea1 E8000000 		call	_ZN8UnitTest4TestC2EPKcS2_S2_i
 4455      00
 4456 1ea6 488B45F8 		movq	-8(%rbp), %rax
 4457 1eaa 48C70000 		movq	$_ZTVN12_GLOBAL__N_156TestTestRunnerFixtureTestsThatAssertAreReportedAsFailingE+16, (%rax)
 4457      000000
 4458              	.LBE98:
 4459 1eb1 C9       		leave
 4460              		.cfi_def_cfa 7, 8
 4461 1eb2 C3       		ret
 4462              		.cfi_endproc
 4463              	.LFE1109:
 4465              		.set	_ZN12_GLOBAL__N_156TestTestRunnerFixtureTestsThatAssertAreReportedAsFailingC1Ev,_ZN12_GLOBAL_
 4466              		.local	_ZN12_GLOBAL__N_164testTestRunnerFixtureTestsThatAssertAreReportedAsFailingInstanceE
 4467              		.comm	_ZN12_GLOBAL__N_164testTestRunnerFixtureTestsThatAssertAreReportedAsFailingInstanceE,56,32
 4468              		.local	_ZN12_GLOBAL__N_157adderTestRunnerFixtureTestsThatAssertAreReportedAsFailingE
 4469              		.comm	_ZN12_GLOBAL__N_157adderTestRunnerFixtureTestsThatAssertAreReportedAsFailingE,1,1
 4470 1eb3 90       		.align 2
 4472              	_ZN12_GLOBAL__N_158TestRunnerFixtureTestsThatAssertAreReportedAsFailingHelperD2Ev:
 4473              	.LFB1113:
 4474              		.loc 6 121 0
 4475              		.cfi_startproc
 4476 1eb4 55       		pushq	%rbp
 4477              		.cfi_def_cfa_offset 16
 4478              		.cfi_offset 6, -16
 4479 1eb5 4889E5   		movq	%rsp, %rbp
 4480              		.cfi_def_cfa_register 6
 4481 1eb8 4883EC10 		subq	$16, %rsp
 4482 1ebc 48897DF8 		movq	%rdi, -8(%rbp)
 4483              	.LBB99:
 4484              		.loc 6 121 0
 4485 1ec0 488B45F8 		movq	-8(%rbp), %rax
 4486 1ec4 4889C7   		movq	%rax, %rdi
 4487 1ec7 E8EEE2FF 		call	_ZN12_GLOBAL__N_117TestRunnerFixtureD2Ev
 4487      FF
 4488              	.LBE99:
 4489 1ecc C9       		leave
 4490              		.cfi_def_cfa 7, 8
 4491 1ecd C3       		ret
 4492              		.cfi_endproc
 4493              	.LFE1113:
 4495              		.set	_ZN12_GLOBAL__N_158TestRunnerFixtureTestsThatAssertAreReportedAsFailingHelperD1Ev,_ZN12_GLOBA
 4496              		.align 2
 4498              	_ZNK12_GLOBAL__N_156TestTestRunnerFixtureTestsThatAssertAreReportedAsFailing7RunImplEv:
 4499              	.LFB1111:
 4500              		.loc 6 121 0
 4501              		.cfi_startproc
 4502              		.cfi_personality 0x3,__gxx_personality_v0
 4503              		.cfi_lsda 0x3,.LLSDA1111
 4504 1ece 55       		pushq	%rbp
 4505              		.cfi_def_cfa_offset 16
 4506              		.cfi_offset 6, -16
 4507 1ecf 4889E5   		movq	%rsp, %rbp
 4508              		.cfi_def_cfa_register 6
 4509 1ed2 4154     		pushq	%r12
 4510 1ed4 53       		pushq	%rbx
 4511 1ed5 4881EC10 		subq	$2576, %rsp
 4511      0A0000
 4512              		.cfi_offset 12, -24
 4513              		.cfi_offset 3, -32
 4514 1edc 4889BDE8 		movq	%rdi, -2584(%rbp)
 4514      F5FFFF
 4515              		.loc 6 121 0
 4516 1ee3 64488B04 		movq	%fs:40, %rax
 4516      25280000 
 4516      00
 4517 1eec 488945E8 		movq	%rax, -24(%rbp)
 4518 1ef0 31C0     		xorl	%eax, %eax
 4519              	.LBB100:
 4520 1ef2 C685FFF5 		movb	$0, -2561(%rbp)
 4520      FFFF00
 4521              	.LBB101:
 4522 1ef9 488B85E8 		movq	-2584(%rbp), %rax
 4522      F5FFFF
 4523 1f00 488D5008 		leaq	8(%rax), %rdx
 4524 1f04 488D8580 		leaq	-2176(%rbp), %rax
 4524      F7FFFF
 4525 1f0b 4889D6   		movq	%rdx, %rsi
 4526 1f0e 4889C7   		movq	%rax, %rdi
 4527              	.LEHB123:
 4528 1f11 E832FFFF 		call	_ZN12_GLOBAL__N_158TestRunnerFixtureTestsThatAssertAreReportedAsFailingHelperC1ERKN8UnitTest1
 4528      FF
 4529              	.LEHE123:
 4530              		.loc 6 121 0 is_stmt 0 discriminator 1
 4531 1f16 C685FFF5 		movb	$1, -2561(%rbp)
 4531      FFFF01
 4532 1f1d 488B85E8 		movq	-2584(%rbp), %rax
 4532      F5FFFF
 4533 1f24 488D5008 		leaq	8(%rax), %rdx
 4534 1f28 488D8580 		leaq	-2176(%rbp), %rax
 4534      F7FFFF
 4535 1f2f 4889D6   		movq	%rdx, %rsi
 4536 1f32 4889C7   		movq	%rax, %rdi
 4537              	.LEHB124:
 4538 1f35 E8D85400 		call	_ZN8UnitTest11ExecuteTestIN12_GLOBAL__N_158TestRunnerFixtureTestsThatAssertAreReportedAsFaili
 4538      00
 4539              	.LEHE124:
 4540 1f3a 488D8580 		leaq	-2176(%rbp), %rax
 4540      F7FFFF
 4541 1f41 4889C7   		movq	%rax, %rdi
 4542              	.LEHB125:
 4543 1f44 E86BFFFF 		call	_ZN12_GLOBAL__N_158TestRunnerFixtureTestsThatAssertAreReportedAsFailingHelperD1Ev
 4543      FF
 4544              	.LEHE125:
 4545              	.LBE101:
 4546              	.LBE100:
 4547              		.loc 6 121 0
 4548 1f49 E9640200 		jmp	.L270
 4548      00
 4549              	.L264:
 4550 1f4e 4989C4   		movq	%rax, %r12
 4551 1f51 4889D3   		movq	%rdx, %rbx
 4552              	.LBB109:
 4553              	.LBB102:
 4554 1f54 488D8580 		leaq	-2176(%rbp), %rax
 4554      F7FFFF
 4555 1f5b 4889C7   		movq	%rax, %rdi
 4556 1f5e E851FFFF 		call	_ZN12_GLOBAL__N_158TestRunnerFixtureTestsThatAssertAreReportedAsFailingHelperD1Ev
 4556      FF
 4557 1f63 4C89E0   		movq	%r12, %rax
 4558 1f66 4889DA   		movq	%rbx, %rdx
 4559 1f69 EB00     		jmp	.L251
 4560              	.L263:
 4561              	.L251:
 4562 1f6b 4883FA01 		cmpq	$1, %rdx
 4563 1f6f 745C     		je	.L253
 4564 1f71 4883FA02 		cmpq	$2, %rdx
 4565 1f75 0F84F400 		je	.L254
 4565      0000
 4566 1f7b E9980100 		jmp	.L269
 4566      00
 4567              	.L265:
 4568 1f80 4889C3   		movq	%rax, %rbx
 4569              	.LBE102:
 4570              	.LBB103:
 4571 1f83 E8000000 		call	__cxa_end_catch
 4571      00
 4572 1f88 4889D8   		movq	%rbx, %rax
 4573 1f8b 4889C7   		movq	%rax, %rdi
 4574              	.LEHB126:
 4575 1f8e E8000000 		call	_Unwind_Resume
 4575      00
 4576              	.LEHE126:
 4577              	.L266:
 4578 1f93 4889C3   		movq	%rax, %rbx
 4579              	.LBE103:
 4580              	.LBB104:
 4581              	.LBB105:
 4582 1f96 488D8510 		leaq	-2544(%rbp), %rax
 4582      F6FFFF
 4583 1f9d 4889C7   		movq	%rax, %rdi
 4584 1fa0 E8000000 		call	_ZN8UnitTest15MemoryOutStreamD1Ev
 4584      00
 4585 1fa5 EB03     		jmp	.L257
 4586              	.L267:
 4587 1fa7 4889C3   		movq	%rax, %rbx
 4588              	.L257:
 4589              	.LBE105:
 4590 1faa E8000000 		call	__cxa_end_catch
 4590      00
 4591 1faf 4889D8   		movq	%rbx, %rax
 4592 1fb2 4889C7   		movq	%rax, %rdi
 4593              	.LEHB127:
 4594 1fb5 E8000000 		call	_Unwind_Resume
 4594      00
 4595              	.LEHE127:
 4596              	.L268:
 4597 1fba 4889C3   		movq	%rax, %rbx
 4598              	.LBE104:
 4599 1fbd E8000000 		call	__cxa_end_catch
 4599      00
 4600 1fc2 4889D8   		movq	%rbx, %rax
 4601 1fc5 4889C7   		movq	%rax, %rdi
 4602              	.LEHB128:
 4603 1fc8 E8000000 		call	_Unwind_Resume
 4603      00
 4604              	.LEHE128:
 4605              	.L253:
 4606              	.LBB107:
 4607 1fcd 4889C7   		movq	%rax, %rdi
 4608 1fd0 E8000000 		call	__cxa_begin_catch
 4608      00
 4609 1fd5 48898500 		movq	%rax, -2560(%rbp)
 4609      F6FFFF
 4610 1fdc 488B8500 		movq	-2560(%rbp), %rax
 4610      F6FFFF
 4611 1fe3 488B00   		movq	(%rax), %rax
 4612 1fe6 4883C010 		addq	$16, %rax
 4613 1fea 488B00   		movq	(%rax), %rax
 4614 1fed 488B9500 		movq	-2560(%rbp), %rdx
 4614      F6FFFF
 4615 1ff4 4889D7   		movq	%rdx, %rdi
 4616 1ff7 FFD0     		call	*%rax
 4617 1ff9 4889C3   		movq	%rax, %rbx
 4618 1ffc 488B8500 		movq	-2560(%rbp), %rax
 4618      F6FFFF
 4619 2003 4889C7   		movq	%rax, %rdi
 4620              	.LEHB129:
 4621 2006 E8000000 		call	_ZNK8UnitTest15AssertException10LineNumberEv
 4621      00
 4622 200b 4189C4   		movl	%eax, %r12d
 4623 200e 488B8500 		movq	-2560(%rbp), %rax
 4623      F6FFFF
 4624 2015 4889C7   		movq	%rax, %rdi
 4625 2018 E8000000 		call	_ZNK8UnitTest15AssertException8FilenameEv
 4625      00
 4626              		.loc 6 121 0 discriminator 1
 4627 201d 4889C1   		movq	%rax, %rcx
 4628 2020 488B85E8 		movq	-2584(%rbp), %rax
 4628      F5FFFF
 4629 2027 488B5008 		movq	8(%rax), %rdx
 4630 202b 488B85E8 		movq	-2584(%rbp), %rax
 4630      F5FFFF
 4631 2032 488B7010 		movq	16(%rax), %rsi
 4632 2036 488D8510 		leaq	-2544(%rbp), %rax
 4632      F6FFFF
 4633 203d 4589E0   		movl	%r12d, %r8d
 4634 2040 4889C7   		movq	%rax, %rdi
 4635 2043 E8000000 		call	_ZN8UnitTest11TestDetailsC1EPKcS2_S2_i
 4635      00
 4636              		.loc 6 121 0 discriminator 3
 4637 2048 E8000000 		call	_ZN8UnitTest11CurrentTest7ResultsEv
 4637      00
 4638 204d 488B00   		movq	(%rax), %rax
 4639 2050 488D8D10 		leaq	-2544(%rbp), %rcx
 4639      F6FFFF
 4640 2057 4889DA   		movq	%rbx, %rdx
 4641 205a 4889CE   		movq	%rcx, %rsi
 4642 205d 4889C7   		movq	%rax, %rdi
 4643 2060 E8000000 		call	_ZN8UnitTest11TestResults13OnTestFailureERKNS_11TestDetailsEPKc
 4643      00
 4644              	.LEHE129:
 4645              		.loc 6 121 0 discriminator 1
 4646 2065 E8000000 		call	__cxa_end_catch
 4646      00
 4647              	.LBE107:
 4648              	.LBE109:
 4649 206a E9430100 		jmp	.L270
 4649      00
 4650              	.L254:
 4651              	.LBB110:
 4652              	.LBB108:
 4653              		.loc 6 121 0
 4654 206f 4889C7   		movq	%rax, %rdi
 4655 2072 E8000000 		call	__cxa_begin_catch
 4655      00
 4656 2077 48898508 		movq	%rax, -2552(%rbp)
 4656      F6FFFF
 4657              	.LBB106:
 4658 207e 488D8510 		leaq	-2544(%rbp), %rax
 4658      F6FFFF
 4659 2085 4889C7   		movq	%rax, %rdi
 4660              	.LEHB130:
 4661 2088 E8000000 		call	_ZN8UnitTest15MemoryOutStreamC1Ev
 4661      00
 4662              	.LEHE130:
 4663              		.loc 6 121 0 discriminator 1
 4664 208d 488B8508 		movq	-2552(%rbp), %rax
 4664      F6FFFF
 4665 2094 488B00   		movq	(%rax), %rax
 4666 2097 4883C010 		addq	$16, %rax
 4667 209b 488B00   		movq	(%rax), %rax
 4668 209e 488B9508 		movq	-2552(%rbp), %rdx
 4668      F6FFFF
 4669 20a5 4889D7   		movq	%rdx, %rdi
 4670 20a8 FFD0     		call	*%rax
 4671 20aa 4889C3   		movq	%rax, %rbx
 4672 20ad 488D8510 		leaq	-2544(%rbp), %rax
 4672      F6FFFF
 4673 20b4 BE000000 		movl	$.LC8, %esi
 4673      00
 4674 20b9 4889C7   		movq	%rax, %rdi
 4675              	.LEHB131:
 4676 20bc E8000000 		call	_ZStlsISt11char_traitsIcEERSt13basic_ostreamIcT_ES5_PKc
 4676      00
 4677 20c1 4889DE   		movq	%rbx, %rsi
 4678 20c4 4889C7   		movq	%rax, %rdi
 4679 20c7 E8000000 		call	_ZStlsISt11char_traitsIcEERSt13basic_ostreamIcT_ES5_PKc
 4679      00
 4680 20cc 488D8510 		leaq	-2544(%rbp), %rax
 4680      F6FFFF
 4681 20d3 4889C7   		movq	%rax, %rdi
 4682 20d6 E8000000 		call	_ZNK8UnitTest15MemoryOutStream7GetTextEv
 4682      00
 4683 20db 4889C3   		movq	%rax, %rbx
 4684 20de 488B85E8 		movq	-2584(%rbp), %rax
 4684      F5FFFF
 4685 20e5 4C8D6008 		leaq	8(%rax), %r12
 4686 20e9 E8000000 		call	_ZN8UnitTest11CurrentTest7ResultsEv
 4686      00
 4687 20ee 488B00   		movq	(%rax), %rax
 4688 20f1 4889DA   		movq	%rbx, %rdx
 4689 20f4 4C89E6   		movq	%r12, %rsi
 4690 20f7 4889C7   		movq	%rax, %rdi
 4691 20fa E8000000 		call	_ZN8UnitTest11TestResults13OnTestFailureERKNS_11TestDetailsEPKc
 4691      00
 4692              	.LEHE131:
 4693 20ff 488D8510 		leaq	-2544(%rbp), %rax
 4693      F6FFFF
 4694 2106 4889C7   		movq	%rax, %rdi
 4695              	.LEHB132:
 4696 2109 E8000000 		call	_ZN8UnitTest15MemoryOutStreamD1Ev
 4696      00
 4697              	.LEHE132:
 4698              	.LBE106:
 4699              		.loc 6 121 0
 4700 210e E8000000 		call	__cxa_end_catch
 4700      00
 4701              	.LBE108:
 4702              	.LBE110:
 4703 2113 E99A0000 		jmp	.L270
 4703      00
 4704              	.L269:
 4705              	.LBB111:
 4706 2118 4889C7   		movq	%rax, %rdi
 4707 211b E8000000 		call	__cxa_begin_catch
 4707      00
 4708 2120 80BDFFF5 		cmpb	$0, -2561(%rbp)
 4708      FFFF00
 4709 2127 7443     		je	.L260
 4710              		.loc 6 121 0 discriminator 1
 4711 2129 488B85E8 		movq	-2584(%rbp), %rax
 4711      F5FFFF
 4712 2130 488D4808 		leaq	8(%rax), %rcx
 4713 2134 488D8510 		leaq	-2544(%rbp), %rax
 4713      F6FFFF
 4714 213b BA790000 		movl	$121, %edx
 4714      00
 4715 2140 4889CE   		movq	%rcx, %rsi
 4716 2143 4889C7   		movq	%rax, %rdi
 4717              	.LEHB133:
 4718 2146 E8000000 		call	_ZN8UnitTest11TestDetailsC1ERKS0_i
 4718      00
 4719 214b E8000000 		call	_ZN8UnitTest11CurrentTest7ResultsEv
 4719      00
 4720 2150 488B00   		movq	(%rax), %rax
 4721 2153 488D8D10 		leaq	-2544(%rbp), %rcx
 4721      F6FFFF
 4722 215a BA000000 		movl	$.LC9, %edx
 4722      00
 4723 215f 4889CE   		movq	%rcx, %rsi
 4724 2162 4889C7   		movq	%rax, %rdi
 4725 2165 E8000000 		call	_ZN8UnitTest11TestResults13OnTestFailureERKNS_11TestDetailsEPKc
 4725      00
 4726 216a EB41     		jmp	.L261
 4727              	.L260:
 4728              		.loc 6 121 0 discriminator 2
 4729 216c 488B85E8 		movq	-2584(%rbp), %rax
 4729      F5FFFF
 4730 2173 488D4808 		leaq	8(%rax), %rcx
 4731 2177 488D8510 		leaq	-2544(%rbp), %rax
 4731      F6FFFF
 4732 217e BA790000 		movl	$121, %edx
 4732      00
 4733 2183 4889CE   		movq	%rcx, %rsi
 4734 2186 4889C7   		movq	%rax, %rdi
 4735 2189 E8000000 		call	_ZN8UnitTest11TestDetailsC1ERKS0_i
 4735      00
 4736              		.loc 6 121 0 discriminator 1
 4737 218e E8000000 		call	_ZN8UnitTest11CurrentTest7ResultsEv
 4737      00
 4738 2193 488B00   		movq	(%rax), %rax
 4739 2196 488D8D10 		leaq	-2544(%rbp), %rcx
 4739      F6FFFF
 4740 219d BA000000 		movl	$.LC10, %edx
 4740      00
 4741 21a2 4889CE   		movq	%rcx, %rsi
 4742 21a5 4889C7   		movq	%rax, %rdi
 4743 21a8 E8000000 		call	_ZN8UnitTest11TestResults13OnTestFailureERKNS_11TestDetailsEPKc
 4743      00
 4744              	.LEHE133:
 4745              	.L261:
 4746              	.LEHB134:
 4747 21ad E8000000 		call	__cxa_end_catch
 4747      00
 4748              	.LEHE134:
 4749              	.L270:
 4750              	.LBE111:
 4751              		.loc 6 121 0
 4752 21b2 90       		nop
 4753 21b3 488B45E8 		movq	-24(%rbp), %rax
 4754 21b7 64483304 		xorq	%fs:40, %rax
 4754      25280000 
 4754      00
 4755 21c0 7405     		je	.L262
 4756 21c2 E8000000 		call	__stack_chk_fail
 4756      00
 4757              	.L262:
 4758 21c7 4881C410 		addq	$2576, %rsp
 4758      0A0000
 4759 21ce 5B       		popq	%rbx
 4760 21cf 415C     		popq	%r12
 4761 21d1 5D       		popq	%rbp
 4762              		.cfi_def_cfa 7, 8
 4763 21d2 C3       		ret
 4764              		.cfi_endproc
 4765              	.LFE1111:
 4766              		.section	.gcc_except_table
 4767              		.align 4
 4768              	.LLSDA1111:
 4769 034c FF       		.byte	0xff
 4770 034d 03       		.byte	0x3
 4771 034e 59       		.uleb128 .LLSDATT1111-.LLSDATTD1111
 4772              	.LLSDATTD1111:
 4773 034f 01       		.byte	0x1
 4774 0350 41       		.uleb128 .LLSDACSE1111-.LLSDACSB1111
 4775              	.LLSDACSB1111:
 4776 0351 43       		.uleb128 .LEHB123-.LFB1111
 4777 0352 05       		.uleb128 .LEHE123-.LEHB123
 4778 0353 9D01     		.uleb128 .L263-.LFB1111
 4779 0355 05       		.uleb128 0x5
 4780 0356 67       		.uleb128 .LEHB124-.LFB1111
 4781 0357 05       		.uleb128 .LEHE124-.LEHB124
 4782 0358 8001     		.uleb128 .L264-.LFB1111
 4783 035a 07       		.uleb128 0x7
 4784 035b 76       		.uleb128 .LEHB125-.LFB1111
 4785 035c 05       		.uleb128 .LEHE125-.LEHB125
 4786 035d 9D01     		.uleb128 .L263-.LFB1111
 4787 035f 05       		.uleb128 0x5
 4788 0360 C001     		.uleb128 .LEHB126-.LFB1111
 4789 0362 05       		.uleb128 .LEHE126-.LEHB126
 4790 0363 00       		.uleb128 0
 4791 0364 00       		.uleb128 0
 4792 0365 E701     		.uleb128 .LEHB127-.LFB1111
 4793 0367 05       		.uleb128 .LEHE127-.LEHB127
 4794 0368 00       		.uleb128 0
 4795 0369 00       		.uleb128 0
 4796 036a FA01     		.uleb128 .LEHB128-.LFB1111
 4797 036c 05       		.uleb128 .LEHE128-.LEHB128
 4798 036d 00       		.uleb128 0
 4799 036e 00       		.uleb128 0
 4800 036f B802     		.uleb128 .LEHB129-.LFB1111
 4801 0371 5F       		.uleb128 .LEHE129-.LEHB129
 4802 0372 B201     		.uleb128 .L265-.LFB1111
 4803 0374 00       		.uleb128 0
 4804 0375 BA03     		.uleb128 .LEHB130-.LFB1111
 4805 0377 05       		.uleb128 .LEHE130-.LEHB130
 4806 0378 D901     		.uleb128 .L267-.LFB1111
 4807 037a 00       		.uleb128 0
 4808 037b EE03     		.uleb128 .LEHB131-.LFB1111
 4809 037d 43       		.uleb128 .LEHE131-.LEHB131
 4810 037e C501     		.uleb128 .L266-.LFB1111
 4811 0380 00       		.uleb128 0
 4812 0381 BB04     		.uleb128 .LEHB132-.LFB1111
 4813 0383 05       		.uleb128 .LEHE132-.LEHB132
 4814 0384 D901     		.uleb128 .L267-.LFB1111
 4815 0386 00       		.uleb128 0
 4816 0387 F804     		.uleb128 .LEHB133-.LFB1111
 4817 0389 67       		.uleb128 .LEHE133-.LEHB133
 4818 038a EC01     		.uleb128 .L268-.LFB1111
 4819 038c 00       		.uleb128 0
 4820 038d DF05     		.uleb128 .LEHB134-.LFB1111
 4821 038f 05       		.uleb128 .LEHE134-.LEHB134
 4822 0390 00       		.uleb128 0
 4823 0391 00       		.uleb128 0
 4824              	.LLSDACSE1111:
 4825 0392 03       		.byte	0x3
 4826 0393 00       		.byte	0
 4827 0394 02       		.byte	0x2
 4828 0395 7D       		.byte	0x7d
 4829 0396 01       		.byte	0x1
 4830 0397 7D       		.byte	0x7d
 4831 0398 00       		.byte	0
 4832 0399 7D       		.byte	0x7d
 4833 039a 0000     		.align 4
 4834 039c 00000000 		.long	0
 4835              	
 4836 03a0 00000000 		.long	_ZTISt9exception
 4837 03a4 00000000 		.long	_ZTIN8UnitTest15AssertExceptionE
 4838              	.LLSDATT1111:
 4839              		.text
 4841              		.section	.rodata
 4842 0524 00000000 		.align 8
 4843              	.LC34:
 4844 0528 556E6861 		.string	"Unhandled exception in CHECK_EQUAL(1, reporter.testFailedCount)"
 4844      6E646C65 
 4844      64206578 
 4844      63657074 
 4844      696F6E20 
 4845              		.text
 4846 21d3 90       		.align 2
 4848              	_ZN12_GLOBAL__N_158TestRunnerFixtureTestsThatAssertAreReportedAsFailingHelper7RunImplEv:
 4849              	.LFB1115:
 122:TestTestRunner.cpp **** {
 4850              		.loc 6 122 0 is_stmt 1
 4851              		.cfi_startproc
 4852              		.cfi_personality 0x3,__gxx_personality_v0
 4853              		.cfi_lsda 0x3,.LLSDA1115
 4854 21d4 55       		pushq	%rbp
 4855              		.cfi_def_cfa_offset 16
 4856              		.cfi_offset 6, -16
 4857 21d5 4889E5   		movq	%rsp, %rbp
 4858              		.cfi_def_cfa_register 6
 4859 21d8 53       		pushq	%rbx
 4860 21d9 4881EC88 		subq	$136, %rsp
 4860      000000
 4861              		.cfi_offset 3, -24
 4862 21e0 4889BD78 		movq	%rdi, -136(%rbp)
 4862      FFFFFF
 4863              	.LBB112:
 123:TestTestRunner.cpp ****     MockTest test("test", true, true);
 4864              		.loc 6 123 0
 4865 21e7 488D45B0 		leaq	-80(%rbp), %rax
 4866 21eb 41B80100 		movl	$1, %r8d
 4866      0000
 4867 21f1 B9010000 		movl	$1, %ecx
 4867      00
 4868 21f6 BA010000 		movl	$1, %edx
 4868      00
 4869 21fb BE000000 		movl	$.LC30, %esi
 4869      00
 4870 2200 4889C7   		movq	%rax, %rdi
 4871              	.LEHB135:
 4872 2203 E8F8DDFF 		call	_ZN12_GLOBAL__N_18MockTestC1EPKcbbi
 4872      FF
 4873              	.LEHE135:
 124:TestTestRunner.cpp ****     list.Add(&test);
 4874              		.loc 6 124 0
 4875 2208 488B8578 		movq	-136(%rbp), %rax
 4875      FFFFFF
 4876 220f 488D9048 		leaq	2120(%rax), %rdx
 4876      080000
 4877 2216 488D45B0 		leaq	-80(%rbp), %rax
 4878 221a 4889C6   		movq	%rax, %rsi
 4879 221d 4889D7   		movq	%rdx, %rdi
 4880              	.LEHB136:
 4881 2220 E8000000 		call	_ZN8UnitTest8TestList3AddEPNS_4TestE
 4881      00
 125:TestTestRunner.cpp **** 
 126:TestTestRunner.cpp **** 	RunTestsIf(list, NULL, True(), 0);
 4882              		.loc 6 126 0
 4883 2225 488B8578 		movq	-136(%rbp), %rax
 4883      FFFFFF
 4884 222c 488DB048 		leaq	2120(%rax), %rsi
 4884      080000
 4885 2233 488B8578 		movq	-136(%rbp), %rax
 4885      FFFFFF
 4886 223a 488D5590 		leaq	-112(%rbp), %rdx
 4887 223e 41B80000 		movl	$0, %r8d
 4887      0000
 4888 2244 4889D1   		movq	%rdx, %rcx
 4889 2247 BA000000 		movl	$0, %edx
 4889      00
 4890 224c 4889C7   		movq	%rax, %rdi
 4891 224f E8EC4600 		call	_ZN12_GLOBAL__N_111FixtureBase10RunTestsIfIN8UnitTest4TrueEEEiRKNS2_8TestListEPKcRKT_i
 4891      00
 4892              	.LEHE136:
 4893              	.LEHB137:
 127:TestTestRunner.cpp ****     CHECK_EQUAL(1, reporter.testFailedCount);
 4894              		.loc 6 127 0 discriminator 1
 4895 2254 E8000000 		call	_ZN8UnitTest11CurrentTest7DetailsEv
 4895      00
 4896 2259 488B08   		movq	(%rax), %rcx
 4897 225c 488D4590 		leaq	-112(%rbp), %rax
 4898 2260 BA7F0000 		movl	$127, %edx
 4898      00
 4899 2265 4889CE   		movq	%rcx, %rsi
 4900 2268 4889C7   		movq	%rax, %rdi
 4901 226b E8000000 		call	_ZN8UnitTest11TestDetailsC1ERKS0_i
 4901      00
 4902 2270 488B8578 		movq	-136(%rbp), %rax
 4902      FFFFFF
 4903 2277 488D9824 		leaq	548(%rax), %rbx
 4903      020000
 4904 227e C7458C01 		movl	$1, -116(%rbp)
 4904      000000
 4905 2285 E8000000 		call	_ZN8UnitTest11CurrentTest7ResultsEv
 4905      00
 4906 228a 488B00   		movq	(%rax), %rax
 4907 228d 488D5590 		leaq	-112(%rbp), %rdx
 4908 2291 488D758C 		leaq	-116(%rbp), %rsi
 4909 2295 4889D1   		movq	%rdx, %rcx
 4910 2298 4889DA   		movq	%rbx, %rdx
 4911 229b 4889C7   		movq	%rax, %rdi
 4912 229e E8000000 		call	_ZN8UnitTest10CheckEqualIiiEEvRNS_11TestResultsERKT_RKT0_RKNS_11TestDetailsE
 4912      00
 4913              	.LEHE137:
 4914              	.L275:
 4915              		.loc 6 127 0 is_stmt 0 discriminator 2
 4916 22a3 488D45B0 		leaq	-80(%rbp), %rax
 4917 22a7 4889C7   		movq	%rax, %rdi
 4918              	.LEHB138:
 4919 22aa E8217900 		call	_ZN12_GLOBAL__N_18MockTestD1Ev
 4919      00
 4920              	.LEHE138:
 4921 22af EB6B     		jmp	.L279
 4922              	.L278:
 4923 22b1 4889C3   		movq	%rax, %rbx
 4924              		.loc 6 127 0
 4925 22b4 E8000000 		call	__cxa_end_catch
 4925      00
 4926 22b9 EB4A     		jmp	.L273
 4927              	.L277:
 4928 22bb 4889C7   		movq	%rax, %rdi
 4929 22be E8000000 		call	__cxa_begin_catch
 4929      00
 4930              	.LEHB139:
 4931 22c3 E8000000 		call	_ZN8UnitTest11CurrentTest7DetailsEv
 4931      00
 4932 22c8 488B08   		movq	(%rax), %rcx
 4933 22cb 488D4590 		leaq	-112(%rbp), %rax
 4934 22cf BA7F0000 		movl	$127, %edx
 4934      00
 4935 22d4 4889CE   		movq	%rcx, %rsi
 4936 22d7 4889C7   		movq	%rax, %rdi
 4937 22da E8000000 		call	_ZN8UnitTest11TestDetailsC1ERKS0_i
 4937      00
 4938              		.loc 6 127 0 discriminator 1
 4939 22df E8000000 		call	_ZN8UnitTest11CurrentTest7ResultsEv
 4939      00
 4940 22e4 488B00   		movq	(%rax), %rax
 4941 22e7 488D4D90 		leaq	-112(%rbp), %rcx
 4942 22eb BA000000 		movl	$.LC34, %edx
 4942      00
 4943 22f0 4889CE   		movq	%rcx, %rsi
 4944 22f3 4889C7   		movq	%rax, %rdi
 4945 22f6 E8000000 		call	_ZN8UnitTest11TestResults13OnTestFailureERKNS_11TestDetailsEPKc
 4945      00
 4946              	.LEHE139:
 4947              	.LEHB140:
 4948 22fb E8000000 		call	__cxa_end_catch
 4948      00
 4949              	.LEHE140:
 4950              		.loc 6 127 0
 4951 2300 EBA1     		jmp	.L275
 4952              	.L276:
 4953 2302 4889C3   		movq	%rax, %rbx
 4954              	.L273:
 4955 2305 488D45B0 		leaq	-80(%rbp), %rax
 4956 2309 4889C7   		movq	%rax, %rdi
 4957 230c E8BF7800 		call	_ZN12_GLOBAL__N_18MockTestD1Ev
 4957      00
 4958 2311 4889D8   		movq	%rbx, %rax
 4959 2314 4889C7   		movq	%rax, %rdi
 4960              	.LEHB141:
 4961 2317 E8000000 		call	_Unwind_Resume
 4961      00
 4962              	.LEHE141:
 4963              	.L279:
 4964              	.LBE112:
 128:TestTestRunner.cpp **** }
 4965              		.loc 6 128 0 is_stmt 1
 4966 231c 4881C488 		addq	$136, %rsp
 4966      000000
 4967 2323 5B       		popq	%rbx
 4968 2324 5D       		popq	%rbp
 4969              		.cfi_def_cfa 7, 8
 4970 2325 C3       		ret
 4971              		.cfi_endproc
 4972              	.LFE1115:
 4973              		.section	.gcc_except_table
 4974              		.align 4
 4975              	.LLSDA1115:
 4976 03a8 FF       		.byte	0xff
 4977 03a9 03       		.byte	0x3
 4978 03aa 2D       		.uleb128 .LLSDATT1115-.LLSDATTD1115
 4979              	.LLSDATTD1115:
 4980 03ab 01       		.byte	0x1
 4981 03ac 25       		.uleb128 .LLSDACSE1115-.LLSDACSB1115
 4982              	.LLSDACSB1115:
 4983 03ad 2F       		.uleb128 .LEHB135-.LFB1115
 4984 03ae 05       		.uleb128 .LEHE135-.LEHB135
 4985 03af 00       		.uleb128 0
 4986 03b0 00       		.uleb128 0
 4987 03b1 4C       		.uleb128 .LEHB136-.LFB1115
 4988 03b2 34       		.uleb128 .LEHE136-.LEHB136
 4989 03b3 AE02     		.uleb128 .L276-.LFB1115
 4990 03b5 00       		.uleb128 0
 4991 03b6 8001     		.uleb128 .LEHB137-.LFB1115
 4992 03b8 4F       		.uleb128 .LEHE137-.LEHB137
 4993 03b9 E701     		.uleb128 .L277-.LFB1115
 4994 03bb 01       		.uleb128 0x1
 4995 03bc D601     		.uleb128 .LEHB138-.LFB1115
 4996 03be 05       		.uleb128 .LEHE138-.LEHB138
 4997 03bf 00       		.uleb128 0
 4998 03c0 00       		.uleb128 0
 4999 03c1 EF01     		.uleb128 .LEHB139-.LFB1115
 5000 03c3 38       		.uleb128 .LEHE139-.LEHB139
 5001 03c4 DD01     		.uleb128 .L278-.LFB1115
 5002 03c6 00       		.uleb128 0
 5003 03c7 A702     		.uleb128 .LEHB140-.LFB1115
 5004 03c9 05       		.uleb128 .LEHE140-.LEHB140
 5005 03ca AE02     		.uleb128 .L276-.LFB1115
 5006 03cc 00       		.uleb128 0
 5007 03cd C302     		.uleb128 .LEHB141-.LFB1115
 5008 03cf 05       		.uleb128 .LEHE141-.LEHB141
 5009 03d0 00       		.uleb128 0
 5010 03d1 00       		.uleb128 0
 5011              	.LLSDACSE1115:
 5012 03d2 01       		.byte	0x1
 5013 03d3 00       		.byte	0
 5014              		.align 4
 5015 03d4 00000000 		.long	0
 5016              	
 5017              	.LLSDATT1115:
 5018              		.text
 5020              		.align 2
 5022              	_ZN12_GLOBAL__N_150TestRunnerFixtureReporterNotifiedOfTestCountHelperC2ERKN8UnitTest11TestDetailsE:
 5023              	.LFB1117:
 129:TestTestRunner.cpp **** 
 130:TestTestRunner.cpp **** 
 131:TestTestRunner.cpp **** TEST_FIXTURE(TestRunnerFixture, ReporterNotifiedOfTestCount)
 5024              		.loc 6 131 0
 5025              		.cfi_startproc
 5026 2326 55       		pushq	%rbp
 5027              		.cfi_def_cfa_offset 16
 5028              		.cfi_offset 6, -16
 5029 2327 4889E5   		movq	%rsp, %rbp
 5030              		.cfi_def_cfa_register 6
 5031 232a 4883EC10 		subq	$16, %rsp
 5032 232e 48897DF8 		movq	%rdi, -8(%rbp)
 5033 2332 488975F0 		movq	%rsi, -16(%rbp)
 5034              	.LBB113:
 5035              		.loc 6 131 0
 5036 2336 488B45F8 		movq	-8(%rbp), %rax
 5037 233a 4889C7   		movq	%rax, %rdi
 5038 233d E82ADEFF 		call	_ZN12_GLOBAL__N_117TestRunnerFixtureC2Ev
 5038      FF
 5039 2342 488B45F8 		movq	-8(%rbp), %rax
 5040 2346 488B55F0 		movq	-16(%rbp), %rdx
 5041 234a 48899058 		movq	%rdx, 2136(%rax)
 5041      080000
 5042              	.LBE113:
 5043 2351 C9       		leave
 5044              		.cfi_def_cfa 7, 8
 5045 2352 C3       		ret
 5046              		.cfi_endproc
 5047              	.LFE1117:
 5049              		.set	_ZN12_GLOBAL__N_150TestRunnerFixtureReporterNotifiedOfTestCountHelperC1ERKN8UnitTest11TestDet
 5050              		.section	.rodata
 5051              	.LC35:
 5052 0568 5265706F 		.string	"ReporterNotifiedOfTestCount"
 5052      72746572 
 5052      4E6F7469 
 5052      66696564 
 5052      4F665465 
 5053              		.text
 5054 2353 90       		.align 2
 5056              	_ZN12_GLOBAL__N_148TestTestRunnerFixtureReporterNotifiedOfTestCountC2Ev:
 5057              	.LFB1120:
 5058              		.loc 6 131 0
 5059              		.cfi_startproc
 5060 2354 55       		pushq	%rbp
 5061              		.cfi_def_cfa_offset 16
 5062              		.cfi_offset 6, -16
 5063 2355 4889E5   		movq	%rsp, %rbp
 5064              		.cfi_def_cfa_register 6
 5065 2358 4883EC10 		subq	$16, %rsp
 5066 235c 48897DF8 		movq	%rdi, -8(%rbp)
 5067              	.LBB114:
 5068              		.loc 6 131 0
 5069 2360 E8000000 		call	_ZN13UnitTestSuite12GetSuiteNameEv
 5069      00
 5070 2365 4889C2   		movq	%rax, %rdx
 5071 2368 488B45F8 		movq	-8(%rbp), %rax
 5072 236c 41B88300 		movl	$131, %r8d
 5072      0000
 5073 2372 B9000000 		movl	$.LC6, %ecx
 5073      00
 5074 2377 BE000000 		movl	$.LC35, %esi
 5074      00
 5075 237c 4889C7   		movq	%rax, %rdi
 5076 237f E8000000 		call	_ZN8UnitTest4TestC2EPKcS2_S2_i
 5076      00
 5077 2384 488B45F8 		movq	-8(%rbp), %rax
 5078 2388 48C70000 		movq	$_ZTVN12_GLOBAL__N_148TestTestRunnerFixtureReporterNotifiedOfTestCountE+16, (%rax)
 5078      000000
 5079              	.LBE114:
 5080 238f C9       		leave
 5081              		.cfi_def_cfa 7, 8
 5082 2390 C3       		ret
 5083              		.cfi_endproc
 5084              	.LFE1120:
 5086              		.set	_ZN12_GLOBAL__N_148TestTestRunnerFixtureReporterNotifiedOfTestCountC1Ev,_ZN12_GLOBAL__N_148Te
 5087              		.local	_ZN12_GLOBAL__N_156testTestRunnerFixtureReporterNotifiedOfTestCountInstanceE
 5088              		.comm	_ZN12_GLOBAL__N_156testTestRunnerFixtureReporterNotifiedOfTestCountInstanceE,56,32
 5089              		.local	_ZN12_GLOBAL__N_149adderTestRunnerFixtureReporterNotifiedOfTestCountE
 5090              		.comm	_ZN12_GLOBAL__N_149adderTestRunnerFixtureReporterNotifiedOfTestCountE,1,1
 5091 2391 90       		.align 2
 5093              	_ZN12_GLOBAL__N_150TestRunnerFixtureReporterNotifiedOfTestCountHelperD2Ev:
 5094              	.LFB1124:
 5095              		.loc 6 131 0
 5096              		.cfi_startproc
 5097 2392 55       		pushq	%rbp
 5098              		.cfi_def_cfa_offset 16
 5099              		.cfi_offset 6, -16
 5100 2393 4889E5   		movq	%rsp, %rbp
 5101              		.cfi_def_cfa_register 6
 5102 2396 4883EC10 		subq	$16, %rsp
 5103 239a 48897DF8 		movq	%rdi, -8(%rbp)
 5104              	.LBB115:
 5105              		.loc 6 131 0
 5106 239e 488B45F8 		movq	-8(%rbp), %rax
 5107 23a2 4889C7   		movq	%rax, %rdi
 5108 23a5 E810DEFF 		call	_ZN12_GLOBAL__N_117TestRunnerFixtureD2Ev
 5108      FF
 5109              	.LBE115:
 5110 23aa C9       		leave
 5111              		.cfi_def_cfa 7, 8
 5112 23ab C3       		ret
 5113              		.cfi_endproc
 5114              	.LFE1124:
 5116              		.set	_ZN12_GLOBAL__N_150TestRunnerFixtureReporterNotifiedOfTestCountHelperD1Ev,_ZN12_GLOBAL__N_150
 5117              		.align 2
 5119              	_ZNK12_GLOBAL__N_148TestTestRunnerFixtureReporterNotifiedOfTestCount7RunImplEv:
 5120              	.LFB1122:
 5121              		.loc 6 131 0
 5122              		.cfi_startproc
 5123              		.cfi_personality 0x3,__gxx_personality_v0
 5124              		.cfi_lsda 0x3,.LLSDA1122
 5125 23ac 55       		pushq	%rbp
 5126              		.cfi_def_cfa_offset 16
 5127              		.cfi_offset 6, -16
 5128 23ad 4889E5   		movq	%rsp, %rbp
 5129              		.cfi_def_cfa_register 6
 5130 23b0 4154     		pushq	%r12
 5131 23b2 53       		pushq	%rbx
 5132 23b3 4881EC10 		subq	$2576, %rsp
 5132      0A0000
 5133              		.cfi_offset 12, -24
 5134              		.cfi_offset 3, -32
 5135 23ba 4889BDE8 		movq	%rdi, -2584(%rbp)
 5135      F5FFFF
 5136              		.loc 6 131 0
 5137 23c1 64488B04 		movq	%fs:40, %rax
 5137      25280000 
 5137      00
 5138 23ca 488945E8 		movq	%rax, -24(%rbp)
 5139 23ce 31C0     		xorl	%eax, %eax
 5140              	.LBB116:
 5141 23d0 C685FFF5 		movb	$0, -2561(%rbp)
 5141      FFFF00
 5142              	.LBB117:
 5143 23d7 488B85E8 		movq	-2584(%rbp), %rax
 5143      F5FFFF
 5144 23de 488D5008 		leaq	8(%rax), %rdx
 5145 23e2 488D8580 		leaq	-2176(%rbp), %rax
 5145      F7FFFF
 5146 23e9 4889D6   		movq	%rdx, %rsi
 5147 23ec 4889C7   		movq	%rax, %rdi
 5148              	.LEHB142:
 5149 23ef E832FFFF 		call	_ZN12_GLOBAL__N_150TestRunnerFixtureReporterNotifiedOfTestCountHelperC1ERKN8UnitTest11TestDet
 5149      FF
 5150              	.LEHE142:
 5151              		.loc 6 131 0 is_stmt 0 discriminator 1
 5152 23f4 C685FFF5 		movb	$1, -2561(%rbp)
 5152      FFFF01
 5153 23fb 488B85E8 		movq	-2584(%rbp), %rax
 5153      F5FFFF
 5154 2402 488D5008 		leaq	8(%rax), %rdx
 5155 2406 488D8580 		leaq	-2176(%rbp), %rax
 5155      F7FFFF
 5156 240d 4889D6   		movq	%rdx, %rsi
 5157 2410 4889C7   		movq	%rax, %rdi
 5158              	.LEHB143:
 5159 2413 E8925200 		call	_ZN8UnitTest11ExecuteTestIN12_GLOBAL__N_150TestRunnerFixtureReporterNotifiedOfTestCountHelper
 5159      00
 5160              	.LEHE143:
 5161 2418 488D8580 		leaq	-2176(%rbp), %rax
 5161      F7FFFF
 5162 241f 4889C7   		movq	%rax, %rdi
 5163              	.LEHB144:
 5164 2422 E86BFFFF 		call	_ZN12_GLOBAL__N_150TestRunnerFixtureReporterNotifiedOfTestCountHelperD1Ev
 5164      FF
 5165              	.LEHE144:
 5166              	.LBE117:
 5167              	.LBE116:
 5168              		.loc 6 131 0
 5169 2427 E9640200 		jmp	.L305
 5169      00
 5170              	.L299:
 5171 242c 4989C4   		movq	%rax, %r12
 5172 242f 4889D3   		movq	%rdx, %rbx
 5173              	.LBB125:
 5174              	.LBB118:
 5175 2432 488D8580 		leaq	-2176(%rbp), %rax
 5175      F7FFFF
 5176 2439 4889C7   		movq	%rax, %rdi
 5177 243c E851FFFF 		call	_ZN12_GLOBAL__N_150TestRunnerFixtureReporterNotifiedOfTestCountHelperD1Ev
 5177      FF
 5178 2441 4C89E0   		movq	%r12, %rax
 5179 2444 4889DA   		movq	%rbx, %rdx
 5180 2447 EB00     		jmp	.L286
 5181              	.L298:
 5182              	.L286:
 5183 2449 4883FA01 		cmpq	$1, %rdx
 5184 244d 745C     		je	.L288
 5185 244f 4883FA02 		cmpq	$2, %rdx
 5186 2453 0F84F400 		je	.L289
 5186      0000
 5187 2459 E9980100 		jmp	.L304
 5187      00
 5188              	.L300:
 5189 245e 4889C3   		movq	%rax, %rbx
 5190              	.LBE118:
 5191              	.LBB119:
 5192 2461 E8000000 		call	__cxa_end_catch
 5192      00
 5193 2466 4889D8   		movq	%rbx, %rax
 5194 2469 4889C7   		movq	%rax, %rdi
 5195              	.LEHB145:
 5196 246c E8000000 		call	_Unwind_Resume
 5196      00
 5197              	.LEHE145:
 5198              	.L301:
 5199 2471 4889C3   		movq	%rax, %rbx
 5200              	.LBE119:
 5201              	.LBB120:
 5202              	.LBB121:
 5203 2474 488D8510 		leaq	-2544(%rbp), %rax
 5203      F6FFFF
 5204 247b 4889C7   		movq	%rax, %rdi
 5205 247e E8000000 		call	_ZN8UnitTest15MemoryOutStreamD1Ev
 5205      00
 5206 2483 EB03     		jmp	.L292
 5207              	.L302:
 5208 2485 4889C3   		movq	%rax, %rbx
 5209              	.L292:
 5210              	.LBE121:
 5211 2488 E8000000 		call	__cxa_end_catch
 5211      00
 5212 248d 4889D8   		movq	%rbx, %rax
 5213 2490 4889C7   		movq	%rax, %rdi
 5214              	.LEHB146:
 5215 2493 E8000000 		call	_Unwind_Resume
 5215      00
 5216              	.LEHE146:
 5217              	.L303:
 5218 2498 4889C3   		movq	%rax, %rbx
 5219              	.LBE120:
 5220 249b E8000000 		call	__cxa_end_catch
 5220      00
 5221 24a0 4889D8   		movq	%rbx, %rax
 5222 24a3 4889C7   		movq	%rax, %rdi
 5223              	.LEHB147:
 5224 24a6 E8000000 		call	_Unwind_Resume
 5224      00
 5225              	.LEHE147:
 5226              	.L288:
 5227              	.LBB123:
 5228 24ab 4889C7   		movq	%rax, %rdi
 5229 24ae E8000000 		call	__cxa_begin_catch
 5229      00
 5230 24b3 48898500 		movq	%rax, -2560(%rbp)
 5230      F6FFFF
 5231 24ba 488B8500 		movq	-2560(%rbp), %rax
 5231      F6FFFF
 5232 24c1 488B00   		movq	(%rax), %rax
 5233 24c4 4883C010 		addq	$16, %rax
 5234 24c8 488B00   		movq	(%rax), %rax
 5235 24cb 488B9500 		movq	-2560(%rbp), %rdx
 5235      F6FFFF
 5236 24d2 4889D7   		movq	%rdx, %rdi
 5237 24d5 FFD0     		call	*%rax
 5238 24d7 4889C3   		movq	%rax, %rbx
 5239 24da 488B8500 		movq	-2560(%rbp), %rax
 5239      F6FFFF
 5240 24e1 4889C7   		movq	%rax, %rdi
 5241              	.LEHB148:
 5242 24e4 E8000000 		call	_ZNK8UnitTest15AssertException10LineNumberEv
 5242      00
 5243 24e9 4189C4   		movl	%eax, %r12d
 5244 24ec 488B8500 		movq	-2560(%rbp), %rax
 5244      F6FFFF
 5245 24f3 4889C7   		movq	%rax, %rdi
 5246 24f6 E8000000 		call	_ZNK8UnitTest15AssertException8FilenameEv
 5246      00
 5247              		.loc 6 131 0 discriminator 1
 5248 24fb 4889C1   		movq	%rax, %rcx
 5249 24fe 488B85E8 		movq	-2584(%rbp), %rax
 5249      F5FFFF
 5250 2505 488B5008 		movq	8(%rax), %rdx
 5251 2509 488B85E8 		movq	-2584(%rbp), %rax
 5251      F5FFFF
 5252 2510 488B7010 		movq	16(%rax), %rsi
 5253 2514 488D8510 		leaq	-2544(%rbp), %rax
 5253      F6FFFF
 5254 251b 4589E0   		movl	%r12d, %r8d
 5255 251e 4889C7   		movq	%rax, %rdi
 5256 2521 E8000000 		call	_ZN8UnitTest11TestDetailsC1EPKcS2_S2_i
 5256      00
 5257              		.loc 6 131 0 discriminator 3
 5258 2526 E8000000 		call	_ZN8UnitTest11CurrentTest7ResultsEv
 5258      00
 5259 252b 488B00   		movq	(%rax), %rax
 5260 252e 488D8D10 		leaq	-2544(%rbp), %rcx
 5260      F6FFFF
 5261 2535 4889DA   		movq	%rbx, %rdx
 5262 2538 4889CE   		movq	%rcx, %rsi
 5263 253b 4889C7   		movq	%rax, %rdi
 5264 253e E8000000 		call	_ZN8UnitTest11TestResults13OnTestFailureERKNS_11TestDetailsEPKc
 5264      00
 5265              	.LEHE148:
 5266              		.loc 6 131 0 discriminator 1
 5267 2543 E8000000 		call	__cxa_end_catch
 5267      00
 5268              	.LBE123:
 5269              	.LBE125:
 5270 2548 E9430100 		jmp	.L305
 5270      00
 5271              	.L289:
 5272              	.LBB126:
 5273              	.LBB124:
 5274              		.loc 6 131 0
 5275 254d 4889C7   		movq	%rax, %rdi
 5276 2550 E8000000 		call	__cxa_begin_catch
 5276      00
 5277 2555 48898508 		movq	%rax, -2552(%rbp)
 5277      F6FFFF
 5278              	.LBB122:
 5279 255c 488D8510 		leaq	-2544(%rbp), %rax
 5279      F6FFFF
 5280 2563 4889C7   		movq	%rax, %rdi
 5281              	.LEHB149:
 5282 2566 E8000000 		call	_ZN8UnitTest15MemoryOutStreamC1Ev
 5282      00
 5283              	.LEHE149:
 5284              		.loc 6 131 0 discriminator 1
 5285 256b 488B8508 		movq	-2552(%rbp), %rax
 5285      F6FFFF
 5286 2572 488B00   		movq	(%rax), %rax
 5287 2575 4883C010 		addq	$16, %rax
 5288 2579 488B00   		movq	(%rax), %rax
 5289 257c 488B9508 		movq	-2552(%rbp), %rdx
 5289      F6FFFF
 5290 2583 4889D7   		movq	%rdx, %rdi
 5291 2586 FFD0     		call	*%rax
 5292 2588 4889C3   		movq	%rax, %rbx
 5293 258b 488D8510 		leaq	-2544(%rbp), %rax
 5293      F6FFFF
 5294 2592 BE000000 		movl	$.LC8, %esi
 5294      00
 5295 2597 4889C7   		movq	%rax, %rdi
 5296              	.LEHB150:
 5297 259a E8000000 		call	_ZStlsISt11char_traitsIcEERSt13basic_ostreamIcT_ES5_PKc
 5297      00
 5298 259f 4889DE   		movq	%rbx, %rsi
 5299 25a2 4889C7   		movq	%rax, %rdi
 5300 25a5 E8000000 		call	_ZStlsISt11char_traitsIcEERSt13basic_ostreamIcT_ES5_PKc
 5300      00
 5301 25aa 488D8510 		leaq	-2544(%rbp), %rax
 5301      F6FFFF
 5302 25b1 4889C7   		movq	%rax, %rdi
 5303 25b4 E8000000 		call	_ZNK8UnitTest15MemoryOutStream7GetTextEv
 5303      00
 5304 25b9 4889C3   		movq	%rax, %rbx
 5305 25bc 488B85E8 		movq	-2584(%rbp), %rax
 5305      F5FFFF
 5306 25c3 4C8D6008 		leaq	8(%rax), %r12
 5307 25c7 E8000000 		call	_ZN8UnitTest11CurrentTest7ResultsEv
 5307      00
 5308 25cc 488B00   		movq	(%rax), %rax
 5309 25cf 4889DA   		movq	%rbx, %rdx
 5310 25d2 4C89E6   		movq	%r12, %rsi
 5311 25d5 4889C7   		movq	%rax, %rdi
 5312 25d8 E8000000 		call	_ZN8UnitTest11TestResults13OnTestFailureERKNS_11TestDetailsEPKc
 5312      00
 5313              	.LEHE150:
 5314 25dd 488D8510 		leaq	-2544(%rbp), %rax
 5314      F6FFFF
 5315 25e4 4889C7   		movq	%rax, %rdi
 5316              	.LEHB151:
 5317 25e7 E8000000 		call	_ZN8UnitTest15MemoryOutStreamD1Ev
