   1              		.file	"TestCheckMacros.cpp"
   2              		.text
   3              	.Ltext0:
   4              		.section	.rodata
   5              	.LC0:
   6 0000 44656661 		.string	"DefaultSuite"
   6      756C7453 
   6      75697465 
   6      00
   7              		.section	.text._ZN13UnitTestSuite12GetSuiteNameEv,"axG",@progbits,_ZN13UnitTestSuite12GetSuiteName
   8              		.weak	_ZN13UnitTestSuite12GetSuiteNameEv
  10              	_ZN13UnitTestSuite12GetSuiteNameEv:
  11              	.LFB0:
  12              		.file 1 "../TestSuite.h"
   1:../TestSuite.h **** #ifndef UNITTEST_TESTSUITE_H
   2:../TestSuite.h **** #define UNITTEST_TESTSUITE_H
   3:../TestSuite.h **** 
   4:../TestSuite.h **** namespace UnitTestSuite {
   5:../TestSuite.h **** 
   6:../TestSuite.h ****     inline char const* GetSuiteName ()
   7:../TestSuite.h ****     {
  13              		.loc 1 7 0
  14              		.cfi_startproc
  15 0000 55       		pushq	%rbp
  16              		.cfi_def_cfa_offset 16
  17              		.cfi_offset 6, -16
  18 0001 4889E5   		movq	%rsp, %rbp
  19              		.cfi_def_cfa_register 6
   8:../TestSuite.h ****         return "DefaultSuite";
  20              		.loc 1 8 0
  21 0004 B8000000 		movl	$.LC0, %eax
  21      00
   9:../TestSuite.h ****     }
  22              		.loc 1 9 0
  23 0009 5D       		popq	%rbp
  24              		.cfi_def_cfa 7, 8
  25 000a C3       		ret
  26              		.cfi_endproc
  27              	.LFE0:
  29              		.section	.text._ZN8UnitTest15MemoryOutStreamC1Ev,"axG",@progbits,_ZN8UnitTest15MemoryOutStreamC1Ev
  30              		.align 2
  31              		.weak	_ZN8UnitTest15MemoryOutStreamC1Ev
  33              	_ZN8UnitTest15MemoryOutStreamC1Ev:
  34              	.LFB1007:
  35              		.file 2 "../MemoryOutStream.h"
   1:../MemoryOutStream.h **** #ifndef UNITTEST_MEMORYOUTSTREAM_H
   2:../MemoryOutStream.h **** #define UNITTEST_MEMORYOUTSTREAM_H
   3:../MemoryOutStream.h **** 
   4:../MemoryOutStream.h **** #include "Config.h"
   5:../MemoryOutStream.h **** 
   6:../MemoryOutStream.h **** #ifndef UNITTEST_USE_CUSTOM_STREAMS
   7:../MemoryOutStream.h **** 
   8:../MemoryOutStream.h **** #include <sstream>
   9:../MemoryOutStream.h **** 
  10:../MemoryOutStream.h **** namespace UnitTest
  11:../MemoryOutStream.h **** {
  12:../MemoryOutStream.h **** 
  13:../MemoryOutStream.h **** class MemoryOutStream : public std::ostringstream
  14:../MemoryOutStream.h **** {
  15:../MemoryOutStream.h **** public:
  16:../MemoryOutStream.h ****     MemoryOutStream() {}
  36              		.loc 2 16 0
  37              		.cfi_startproc
  38              		.cfi_personality 0x3,__gxx_personality_v0
  39              		.cfi_lsda 0x3,.LLSDA1007
  40 0000 55       		pushq	%rbp
  41              		.cfi_def_cfa_offset 16
  42              		.cfi_offset 6, -16
  43 0001 4889E5   		movq	%rsp, %rbp
  44              		.cfi_def_cfa_register 6
  45 0004 53       		pushq	%rbx
  46 0005 4883EC18 		subq	$24, %rsp
  47              		.cfi_offset 3, -24
  48 0009 48897DE8 		movq	%rdi, -24(%rbp)
  49              	.LBB2:
  50              		.loc 2 16 0
  51 000d 488B45E8 		movq	-24(%rbp), %rax
  52 0011 4883C060 		addq	$96, %rax
  53 0015 4889C7   		movq	%rax, %rdi
  54              	.LEHB0:
  55 0018 E8000000 		call	_ZNSt9basic_iosIcSt11char_traitsIcEEC2Ev
  55      00
  56              	.LEHE0:
  57 001d B9000000 		movl	$_ZTTN8UnitTest15MemoryOutStreamE+8, %ecx
  57      00
  58 0022 488B45E8 		movq	-24(%rbp), %rax
  59 0026 BA100000 		movl	$16, %edx
  59      00
  60 002b 4889CE   		movq	%rcx, %rsi
  61 002e 4889C7   		movq	%rax, %rdi
  62              	.LEHB1:
  63 0031 E8000000 		call	_ZNSt19basic_ostringstreamIcSt11char_traitsIcESaIcEEC2ESt13_Ios_Openmode
  63      00
  64              	.LEHE1:
  65              		.loc 2 16 0 is_stmt 0 discriminator 6
  66 0036 BA000000 		movl	$_ZTVN8UnitTest15MemoryOutStreamE+24, %edx
  66      00
  67 003b 488B45E8 		movq	-24(%rbp), %rax
  68 003f 488910   		movq	%rdx, (%rax)
  69 0042 BA600000 		movl	$96, %edx
  69      00
  70 0047 488B45E8 		movq	-24(%rbp), %rax
  71 004b 4801C2   		addq	%rax, %rdx
  72 004e B8000000 		movl	$_ZTVN8UnitTest15MemoryOutStreamE+64, %eax
  72      00
  73 0053 488902   		movq	%rax, (%rdx)
  74 0056 488B45E8 		movq	-24(%rbp), %rax
  75 005a 4883C058 		addq	$88, %rax
  76 005e 4889C7   		movq	%rax, %rdi
  77              	.LEHB2:
  78 0061 E8000000 		call	_ZNSsC1Ev
  78      00
  79              	.LEHE2:
  80              	.LBE2:
  81              		.loc 2 16 0
  82 0066 EB37     		jmp	.L8
  83              	.L6:
  84 0068 4889C3   		movq	%rax, %rbx
  85              	.LBB3:
  86 006b BA000000 		movl	$_ZTTN8UnitTest15MemoryOutStreamE+8, %edx
  86      00
  87 0070 488B45E8 		movq	-24(%rbp), %rax
  88 0074 4889D6   		movq	%rdx, %rsi
  89 0077 4889C7   		movq	%rax, %rdi
  90 007a E8000000 		call	_ZNSt19basic_ostringstreamIcSt11char_traitsIcESaIcEED2Ev
  90      00
  91 007f EB03     		jmp	.L5
  92              	.L7:
  93 0081 4889C3   		movq	%rax, %rbx
  94              	.L5:
  95              		.loc 2 16 0 discriminator 19
  96 0084 488B45E8 		movq	-24(%rbp), %rax
  97 0088 4883C060 		addq	$96, %rax
  98 008c 4889C7   		movq	%rax, %rdi
  99 008f E8000000 		call	_ZNSt9basic_iosIcSt11char_traitsIcEED2Ev
  99      00
 100 0094 4889D8   		movq	%rbx, %rax
 101 0097 4889C7   		movq	%rax, %rdi
 102              	.LEHB3:
 103 009a E8000000 		call	_Unwind_Resume
 103      00
 104              	.LEHE3:
 105              	.L8:
 106              	.LBE3:
 107              		.loc 2 16 0
 108 009f 4883C418 		addq	$24, %rsp
 109 00a3 5B       		popq	%rbx
 110 00a4 5D       		popq	%rbp
 111              		.cfi_def_cfa 7, 8
 112 00a5 C3       		ret
 113              		.cfi_endproc
 114              	.LFE1007:
 115              		.globl	__gxx_personality_v0
 116              		.section	.gcc_except_table._ZN8UnitTest15MemoryOutStreamC1Ev,"aG",@progbits,_ZN8UnitTest15MemoryOu
 117              	.LLSDA1007:
 118 0000 FF       		.byte	0xff
 119 0001 FF       		.byte	0xff
 120 0002 01       		.byte	0x1
 121 0003 12       		.uleb128 .LLSDACSE1007-.LLSDACSB1007
 122              	.LLSDACSB1007:
 123 0004 18       		.uleb128 .LEHB0-.LFB1007
 124 0005 05       		.uleb128 .LEHE0-.LEHB0
 125 0006 00       		.uleb128 0
 126 0007 00       		.uleb128 0
 127 0008 31       		.uleb128 .LEHB1-.LFB1007
 128 0009 05       		.uleb128 .LEHE1-.LEHB1
 129 000a 8101     		.uleb128 .L7-.LFB1007
 130 000c 00       		.uleb128 0
 131 000d 61       		.uleb128 .LEHB2-.LFB1007
 132 000e 05       		.uleb128 .LEHE2-.LEHB2
 133 000f 68       		.uleb128 .L6-.LFB1007
 134 0010 00       		.uleb128 0
 135 0011 9A01     		.uleb128 .LEHB3-.LFB1007
 136 0013 05       		.uleb128 .LEHE3-.LEHB3
 137 0014 00       		.uleb128 0
 138 0015 00       		.uleb128 0
 139              	.LLSDACSE1007:
 140              		.section	.text._ZN8UnitTest15MemoryOutStreamC1Ev,"axG",@progbits,_ZN8UnitTest15MemoryOutStreamC1Ev
 142              		.section	.text._ZN8UnitTest12TestReporterC2Ev,"axG",@progbits,_ZN8UnitTest12TestReporterC5Ev,comda
 143              		.align 2
 144              		.weak	_ZN8UnitTest12TestReporterC2Ev
 146              	_ZN8UnitTest12TestReporterC2Ev:
 147              	.LFB1021:
 148              		.file 3 "../TestReporter.h"
   1:../TestReporter.h **** #ifndef UNITTEST_TESTREPORTER_H
   2:../TestReporter.h **** #define UNITTEST_TESTREPORTER_H
   3:../TestReporter.h **** 
   4:../TestReporter.h **** namespace UnitTest {
   5:../TestReporter.h **** 
   6:../TestReporter.h **** class TestDetails;
   7:../TestReporter.h **** 
   8:../TestReporter.h **** class TestReporter
 149              		.loc 3 8 0 is_stmt 1
 150              		.cfi_startproc
 151 0000 55       		pushq	%rbp
 152              		.cfi_def_cfa_offset 16
 153              		.cfi_offset 6, -16
 154 0001 4889E5   		movq	%rsp, %rbp
 155              		.cfi_def_cfa_register 6
 156 0004 48897DF8 		movq	%rdi, -8(%rbp)
 157              	.LBB4:
 158              		.loc 3 8 0
 159 0008 488B45F8 		movq	-8(%rbp), %rax
 160 000c 48C70000 		movq	$_ZTVN8UnitTest12TestReporterE+16, (%rax)
 160      000000
 161              	.LBE4:
 162 0013 5D       		popq	%rbp
 163              		.cfi_def_cfa 7, 8
 164 0014 C3       		ret
 165              		.cfi_endproc
 166              	.LFE1021:
 168              		.weak	_ZN8UnitTest12TestReporterC1Ev
 169              		.set	_ZN8UnitTest12TestReporterC1Ev,_ZN8UnitTest12TestReporterC2Ev
 170              		.section	.text._ZN17RecordingReporterC2Ev,"axG",@progbits,_ZN17RecordingReporterC5Ev,comdat
 171              		.align 2
 172              		.weak	_ZN17RecordingReporterC2Ev
 174              	_ZN17RecordingReporterC2Ev:
 175              	.LFB1023:
 176              		.file 4 "RecordingReporter.h"
   1:RecordingReporter.h **** #ifndef UNITTEST_RECORDINGREPORTER_H
   2:RecordingReporter.h **** #define UNITTEST_RECORDINGREPORTER_H
   3:RecordingReporter.h **** 
   4:RecordingReporter.h **** #include "../TestReporter.h"
   5:RecordingReporter.h **** #include <cstring>
   6:RecordingReporter.h **** 
   7:RecordingReporter.h **** #include "../TestDetails.h"
   8:RecordingReporter.h **** 
   9:RecordingReporter.h **** struct RecordingReporter : public UnitTest::TestReporter
  10:RecordingReporter.h **** {
  11:RecordingReporter.h **** private:
  12:RecordingReporter.h ****     enum { kMaxStringLength = 256 };
  13:RecordingReporter.h **** 
  14:RecordingReporter.h **** public:
  15:RecordingReporter.h ****     RecordingReporter()
 177              		.loc 4 15 0
 178              		.cfi_startproc
 179 0000 55       		pushq	%rbp
 180              		.cfi_def_cfa_offset 16
 181              		.cfi_offset 6, -16
 182 0001 4889E5   		movq	%rsp, %rbp
 183              		.cfi_def_cfa_register 6
 184 0004 4883EC10 		subq	$16, %rsp
 185 0008 48897DF8 		movq	%rdi, -8(%rbp)
 186              	.LBB5:
  16:RecordingReporter.h ****         : testRunCount(0)
  17:RecordingReporter.h ****         , testFailedCount(0)
  18:RecordingReporter.h ****         , lastFailedLine(0)
  19:RecordingReporter.h ****         , testFinishedCount(0)
  20:RecordingReporter.h ****         , lastFinishedTestTime(0)
  21:RecordingReporter.h ****         , summaryTotalTestCount(0)
  22:RecordingReporter.h ****         , summaryFailedTestCount(0)
  23:RecordingReporter.h ****         , summaryFailureCount(0)
  24:RecordingReporter.h ****         , summarySecondsElapsed(0)
 187              		.loc 4 24 0
 188 000c 488B45F8 		movq	-8(%rbp), %rax
 189 0010 4889C7   		movq	%rax, %rdi
 190 0013 E8000000 		call	_ZN8UnitTest12TestReporterC2Ev
 190      00
 191 0018 488B45F8 		movq	-8(%rbp), %rax
 192 001c 48C70000 		movq	$_ZTV17RecordingReporter+16, (%rax)
 192      000000
 193 0023 488B45F8 		movq	-8(%rbp), %rax
 194 0027 C7400800 		movl	$0, 8(%rax)
 194      000000
 195 002e 488B45F8 		movq	-8(%rbp), %rax
 196 0032 C7800C02 		movl	$0, 524(%rax)
 196      00000000 
 196      0000
 197 003c 488B45F8 		movq	-8(%rbp), %rax
 198 0040 C7801003 		movl	$0, 784(%rax)
 198      00000000 
 198      0000
 199 004a 488B45F8 		movq	-8(%rbp), %rax
 200 004e C7801406 		movl	$0, 1556(%rax)
 200      00000000 
 200      0000
 201 0058 488B55F8 		movq	-8(%rbp), %rdx
 202 005c 8B050000 		movl	.LC1(%rip), %eax
 202      0000
 203 0062 89821808 		movl	%eax, 2072(%rdx)
 203      0000
 204 0068 488B45F8 		movq	-8(%rbp), %rax
 205 006c C7801C08 		movl	$0, 2076(%rax)
 205      00000000 
 205      0000
 206 0076 488B45F8 		movq	-8(%rbp), %rax
 207 007a C7802008 		movl	$0, 2080(%rax)
 207      00000000 
 207      0000
 208 0084 488B45F8 		movq	-8(%rbp), %rax
 209 0088 C7802408 		movl	$0, 2084(%rax)
 209      00000000 
 209      0000
 210 0092 488B55F8 		movq	-8(%rbp), %rdx
 211 0096 8B050000 		movl	.LC1(%rip), %eax
 211      0000
 212 009c 89822808 		movl	%eax, 2088(%rdx)
 212      0000
  25:RecordingReporter.h ****     {
  26:RecordingReporter.h ****         lastStartedSuite[0] = '\0';
 213              		.loc 4 26 0
 214 00a2 488B45F8 		movq	-8(%rbp), %rax
 215 00a6 C6400C00 		movb	$0, 12(%rax)
  27:RecordingReporter.h ****         lastStartedTest[0] = '\0';
 216              		.loc 4 27 0
 217 00aa 488B45F8 		movq	-8(%rbp), %rax
 218 00ae C6800C01 		movb	$0, 268(%rax)
 218      000000
  28:RecordingReporter.h ****         lastFailedFile[0] = '\0';
 219              		.loc 4 28 0
 220 00b5 488B45F8 		movq	-8(%rbp), %rax
 221 00b9 C6801002 		movb	$0, 528(%rax)
 221      000000
  29:RecordingReporter.h ****         lastFailedSuite[0] = '\0';
 222              		.loc 4 29 0
 223 00c0 488B45F8 		movq	-8(%rbp), %rax
 224 00c4 C6801403 		movb	$0, 788(%rax)
 224      000000
  30:RecordingReporter.h ****         lastFailedTest[0] = '\0';
 225              		.loc 4 30 0
 226 00cb 488B45F8 		movq	-8(%rbp), %rax
 227 00cf C6801404 		movb	$0, 1044(%rax)
 227      000000
  31:RecordingReporter.h ****         lastFailedMessage[0] = '\0';
 228              		.loc 4 31 0
 229 00d6 488B45F8 		movq	-8(%rbp), %rax
 230 00da C6801405 		movb	$0, 1300(%rax)
 230      000000
  32:RecordingReporter.h ****         lastFinishedSuite[0] = '\0';
 231              		.loc 4 32 0
 232 00e1 488B45F8 		movq	-8(%rbp), %rax
 233 00e5 C6801806 		movb	$0, 1560(%rax)
 233      000000
  33:RecordingReporter.h ****         lastFinishedTest[0] = '\0';
 234              		.loc 4 33 0
 235 00ec 488B45F8 		movq	-8(%rbp), %rax
 236 00f0 C6801807 		movb	$0, 1816(%rax)
 236      000000
 237              	.LBE5:
  34:RecordingReporter.h ****     }
 238              		.loc 4 34 0
 239 00f7 C9       		leave
 240              		.cfi_def_cfa 7, 8
 241 00f8 C3       		ret
 242              		.cfi_endproc
 243              	.LFE1023:
 245              		.weak	_ZN17RecordingReporterC1Ev
 246              		.set	_ZN17RecordingReporterC1Ev,_ZN17RecordingReporterC2Ev
 247              		.section	.text._ZN17RecordingReporter15ReportTestStartERKN8UnitTest11TestDetailsE,"axG",@progbits,
 248              		.align 2
 249              		.weak	_ZN17RecordingReporter15ReportTestStartERKN8UnitTest11TestDetailsE
 251              	_ZN17RecordingReporter15ReportTestStartERKN8UnitTest11TestDetailsE:
 252              	.LFB1025:
  35:RecordingReporter.h **** 
  36:RecordingReporter.h ****     virtual void ReportTestStart(UnitTest::TestDetails const& test)
 253              		.loc 4 36 0
 254              		.cfi_startproc
 255 0000 55       		pushq	%rbp
 256              		.cfi_def_cfa_offset 16
 257              		.cfi_offset 6, -16
 258 0001 4889E5   		movq	%rsp, %rbp
 259              		.cfi_def_cfa_register 6
 260 0004 4883EC10 		subq	$16, %rsp
 261 0008 48897DF8 		movq	%rdi, -8(%rbp)
 262 000c 488975F0 		movq	%rsi, -16(%rbp)
 263              	.LBB6:
  37:RecordingReporter.h ****     {
  38:RecordingReporter.h **** 		using namespace std;
  39:RecordingReporter.h **** 
  40:RecordingReporter.h ****         ++testRunCount;
 264              		.loc 4 40 0
 265 0010 488B45F8 		movq	-8(%rbp), %rax
 266 0014 8B4008   		movl	8(%rax), %eax
 267 0017 8D5001   		leal	1(%rax), %edx
 268 001a 488B45F8 		movq	-8(%rbp), %rax
 269 001e 895008   		movl	%edx, 8(%rax)
  41:RecordingReporter.h ****         strcpy(lastStartedSuite, test.suiteName);
 270              		.loc 4 41 0
 271 0021 488B45F0 		movq	-16(%rbp), %rax
 272 0025 488B00   		movq	(%rax), %rax
 273 0028 488B55F8 		movq	-8(%rbp), %rdx
 274 002c 4883C20C 		addq	$12, %rdx
 275 0030 4889C6   		movq	%rax, %rsi
 276 0033 4889D7   		movq	%rdx, %rdi
 277 0036 E8000000 		call	strcpy
 277      00
  42:RecordingReporter.h ****         strcpy(lastStartedTest, test.testName);
 278              		.loc 4 42 0
 279 003b 488B45F0 		movq	-16(%rbp), %rax
 280 003f 488B4008 		movq	8(%rax), %rax
 281 0043 488B55F8 		movq	-8(%rbp), %rdx
 282 0047 4881C20C 		addq	$268, %rdx
 282      010000
 283 004e 4889C6   		movq	%rax, %rsi
 284 0051 4889D7   		movq	%rdx, %rdi
 285 0054 E8000000 		call	strcpy
 285      00
 286              	.LBE6:
  43:RecordingReporter.h ****     }
 287              		.loc 4 43 0
 288 0059 C9       		leave
 289              		.cfi_def_cfa 7, 8
 290 005a C3       		ret
 291              		.cfi_endproc
 292              	.LFE1025:
 294              		.section	.text._ZN17RecordingReporter13ReportFailureERKN8UnitTest11TestDetailsEPKc,"axG",@progbits
 295              		.align 2
 296              		.weak	_ZN17RecordingReporter13ReportFailureERKN8UnitTest11TestDetailsEPKc
 298              	_ZN17RecordingReporter13ReportFailureERKN8UnitTest11TestDetailsEPKc:
 299              	.LFB1026:
  44:RecordingReporter.h **** 
  45:RecordingReporter.h ****     virtual void ReportFailure(UnitTest::TestDetails const& test, char const* failure)
 300              		.loc 4 45 0
 301              		.cfi_startproc
 302 0000 55       		pushq	%rbp
 303              		.cfi_def_cfa_offset 16
 304              		.cfi_offset 6, -16
 305 0001 4889E5   		movq	%rsp, %rbp
 306              		.cfi_def_cfa_register 6
 307 0004 4883EC20 		subq	$32, %rsp
 308 0008 48897DF8 		movq	%rdi, -8(%rbp)
 309 000c 488975F0 		movq	%rsi, -16(%rbp)
 310 0010 488955E8 		movq	%rdx, -24(%rbp)
 311              	.LBB7:
  46:RecordingReporter.h ****     {
  47:RecordingReporter.h **** 		using namespace std;
  48:RecordingReporter.h **** 
  49:RecordingReporter.h **** 		++testFailedCount;
 312              		.loc 4 49 0
 313 0014 488B45F8 		movq	-8(%rbp), %rax
 314 0018 8B800C02 		movl	524(%rax), %eax
 314      0000
 315 001e 8D5001   		leal	1(%rax), %edx
 316 0021 488B45F8 		movq	-8(%rbp), %rax
 317 0025 89900C02 		movl	%edx, 524(%rax)
 317      0000
  50:RecordingReporter.h ****         strcpy(lastFailedFile, test.filename);
 318              		.loc 4 50 0
 319 002b 488B45F0 		movq	-16(%rbp), %rax
 320 002f 488B4010 		movq	16(%rax), %rax
 321 0033 488B55F8 		movq	-8(%rbp), %rdx
 322 0037 4881C210 		addq	$528, %rdx
 322      020000
 323 003e 4889C6   		movq	%rax, %rsi
 324 0041 4889D7   		movq	%rdx, %rdi
 325 0044 E8000000 		call	strcpy
 325      00
  51:RecordingReporter.h ****         lastFailedLine = test.lineNumber;
 326              		.loc 4 51 0
 327 0049 488B45F0 		movq	-16(%rbp), %rax
 328 004d 8B5018   		movl	24(%rax), %edx
 329 0050 488B45F8 		movq	-8(%rbp), %rax
 330 0054 89901003 		movl	%edx, 784(%rax)
 330      0000
  52:RecordingReporter.h ****         strcpy(lastFailedSuite, test.suiteName);
 331              		.loc 4 52 0
 332 005a 488B45F0 		movq	-16(%rbp), %rax
 333 005e 488B00   		movq	(%rax), %rax
 334 0061 488B55F8 		movq	-8(%rbp), %rdx
 335 0065 4881C214 		addq	$788, %rdx
 335      030000
 336 006c 4889C6   		movq	%rax, %rsi
 337 006f 4889D7   		movq	%rdx, %rdi
 338 0072 E8000000 		call	strcpy
 338      00
  53:RecordingReporter.h ****         strcpy(lastFailedTest, test.testName);
 339              		.loc 4 53 0
 340 0077 488B45F0 		movq	-16(%rbp), %rax
 341 007b 488B4008 		movq	8(%rax), %rax
 342 007f 488B55F8 		movq	-8(%rbp), %rdx
 343 0083 4881C214 		addq	$1044, %rdx
 343      040000
 344 008a 4889C6   		movq	%rax, %rsi
 345 008d 4889D7   		movq	%rdx, %rdi
 346 0090 E8000000 		call	strcpy
 346      00
  54:RecordingReporter.h ****         strcpy(lastFailedMessage, failure);
 347              		.loc 4 54 0
 348 0095 488B45F8 		movq	-8(%rbp), %rax
 349 0099 488D9014 		leaq	1300(%rax), %rdx
 349      050000
 350 00a0 488B45E8 		movq	-24(%rbp), %rax
 351 00a4 4889C6   		movq	%rax, %rsi
 352 00a7 4889D7   		movq	%rdx, %rdi
 353 00aa E8000000 		call	strcpy
 353      00
 354              	.LBE7:
  55:RecordingReporter.h ****     }
 355              		.loc 4 55 0
 356 00af C9       		leave
 357              		.cfi_def_cfa 7, 8
 358 00b0 C3       		ret
 359              		.cfi_endproc
 360              	.LFE1026:
 362              		.section	.text._ZN17RecordingReporter16ReportTestFinishERKN8UnitTest11TestDetailsEf,"axG",@progbit
 363              		.align 2
 364              		.weak	_ZN17RecordingReporter16ReportTestFinishERKN8UnitTest11TestDetailsEf
 366              	_ZN17RecordingReporter16ReportTestFinishERKN8UnitTest11TestDetailsEf:
 367              	.LFB1027:
  56:RecordingReporter.h **** 
  57:RecordingReporter.h ****     virtual void ReportTestFinish(UnitTest::TestDetails const& test, float testDuration)
 368              		.loc 4 57 0
 369              		.cfi_startproc
 370 0000 55       		pushq	%rbp
 371              		.cfi_def_cfa_offset 16
 372              		.cfi_offset 6, -16
 373 0001 4889E5   		movq	%rsp, %rbp
 374              		.cfi_def_cfa_register 6
 375 0004 4883EC20 		subq	$32, %rsp
 376 0008 48897DF8 		movq	%rdi, -8(%rbp)
 377 000c 488975F0 		movq	%rsi, -16(%rbp)
 378 0010 F30F1145 		movss	%xmm0, -20(%rbp)
 378      EC
 379              	.LBB8:
  58:RecordingReporter.h ****     {
  59:RecordingReporter.h **** 		using namespace std;
  60:RecordingReporter.h **** 
  61:RecordingReporter.h **** 		++testFinishedCount;
 380              		.loc 4 61 0
 381 0015 488B45F8 		movq	-8(%rbp), %rax
 382 0019 8B801406 		movl	1556(%rax), %eax
 382      0000
 383 001f 8D5001   		leal	1(%rax), %edx
 384 0022 488B45F8 		movq	-8(%rbp), %rax
 385 0026 89901406 		movl	%edx, 1556(%rax)
 385      0000
  62:RecordingReporter.h ****         strcpy(lastFinishedSuite, test.suiteName);
 386              		.loc 4 62 0
 387 002c 488B45F0 		movq	-16(%rbp), %rax
 388 0030 488B00   		movq	(%rax), %rax
 389 0033 488B55F8 		movq	-8(%rbp), %rdx
 390 0037 4881C218 		addq	$1560, %rdx
 390      060000
 391 003e 4889C6   		movq	%rax, %rsi
 392 0041 4889D7   		movq	%rdx, %rdi
 393 0044 E8000000 		call	strcpy
 393      00
  63:RecordingReporter.h ****         strcpy(lastFinishedTest, test.testName);
 394              		.loc 4 63 0
 395 0049 488B45F0 		movq	-16(%rbp), %rax
 396 004d 488B4008 		movq	8(%rax), %rax
 397 0051 488B55F8 		movq	-8(%rbp), %rdx
 398 0055 4881C218 		addq	$1816, %rdx
 398      070000
 399 005c 4889C6   		movq	%rax, %rsi
 400 005f 4889D7   		movq	%rdx, %rdi
 401 0062 E8000000 		call	strcpy
 401      00
  64:RecordingReporter.h ****         lastFinishedTestTime = testDuration;
 402              		.loc 4 64 0
 403 0067 488B55F8 		movq	-8(%rbp), %rdx
 404 006b 8B45EC   		movl	-20(%rbp), %eax
 405 006e 89821808 		movl	%eax, 2072(%rdx)
 405      0000
 406              	.LBE8:
  65:RecordingReporter.h ****     }
 407              		.loc 4 65 0
 408 0074 C9       		leave
 409              		.cfi_def_cfa 7, 8
 410 0075 C3       		ret
 411              		.cfi_endproc
 412              	.LFE1027:
 414              		.section	.text._ZN17RecordingReporter13ReportSummaryEiiif,"axG",@progbits,_ZN17RecordingReporter13
 415              		.align 2
 416              		.weak	_ZN17RecordingReporter13ReportSummaryEiiif
 418              	_ZN17RecordingReporter13ReportSummaryEiiif:
 419              	.LFB1028:
  66:RecordingReporter.h **** 
  67:RecordingReporter.h ****     virtual void ReportSummary(int totalTestCount, int failedTestCount, int failureCount, float sec
 420              		.loc 4 67 0
 421              		.cfi_startproc
 422 0000 55       		pushq	%rbp
 423              		.cfi_def_cfa_offset 16
 424              		.cfi_offset 6, -16
 425 0001 4889E5   		movq	%rsp, %rbp
 426              		.cfi_def_cfa_register 6
 427 0004 48897DF8 		movq	%rdi, -8(%rbp)
 428 0008 8975F4   		movl	%esi, -12(%rbp)
 429 000b 8955F0   		movl	%edx, -16(%rbp)
 430 000e 894DEC   		movl	%ecx, -20(%rbp)
 431 0011 F30F1145 		movss	%xmm0, -24(%rbp)
 431      E8
  68:RecordingReporter.h ****     {
  69:RecordingReporter.h ****         summaryTotalTestCount = totalTestCount;
 432              		.loc 4 69 0
 433 0016 488B45F8 		movq	-8(%rbp), %rax
 434 001a 8B55F4   		movl	-12(%rbp), %edx
 435 001d 89901C08 		movl	%edx, 2076(%rax)
 435      0000
  70:RecordingReporter.h ****         summaryFailedTestCount = failedTestCount;
 436              		.loc 4 70 0
 437 0023 488B45F8 		movq	-8(%rbp), %rax
 438 0027 8B55F0   		movl	-16(%rbp), %edx
 439 002a 89902008 		movl	%edx, 2080(%rax)
 439      0000
  71:RecordingReporter.h ****         summaryFailureCount = failureCount;
 440              		.loc 4 71 0
 441 0030 488B45F8 		movq	-8(%rbp), %rax
 442 0034 8B55EC   		movl	-20(%rbp), %edx
 443 0037 89902408 		movl	%edx, 2084(%rax)
 443      0000
  72:RecordingReporter.h ****         summarySecondsElapsed = secondsElapsed;
 444              		.loc 4 72 0
 445 003d 488B55F8 		movq	-8(%rbp), %rdx
 446 0041 8B45E8   		movl	-24(%rbp), %eax
 447 0044 89822808 		movl	%eax, 2088(%rdx)
 447      0000
  73:RecordingReporter.h ****     }
 448              		.loc 4 73 0
 449 004a 5D       		popq	%rbp
 450              		.cfi_def_cfa 7, 8
 451 004b C3       		ret
 452              		.cfi_endproc
 453              	.LFE1028:
 455              		.section	.text._ZN17ScopedCurrentTestC2ERN8UnitTest11TestResultsEPKNS0_11TestDetailsE,"axG",@progb
 456              		.align 2
 457              		.weak	_ZN17ScopedCurrentTestC2ERN8UnitTest11TestResultsEPKNS0_11TestDetailsE
 459              	_ZN17ScopedCurrentTestC2ERN8UnitTest11TestResultsEPKNS0_11TestDetailsE:
 460              	.LFB1033:
 461              		.file 5 "ScopedCurrentTest.h"
   1:ScopedCurrentTest.h **** #ifndef UNITTEST_SCOPEDCURRENTTEST_H
   2:ScopedCurrentTest.h **** #define UNITTEST_SCOPEDCURRENTTEST_H
   3:ScopedCurrentTest.h **** 
   4:ScopedCurrentTest.h **** #include "../CurrentTest.h"
   5:ScopedCurrentTest.h **** #include <cstddef>
   6:ScopedCurrentTest.h **** 
   7:ScopedCurrentTest.h **** class ScopedCurrentTest
   8:ScopedCurrentTest.h **** {
   9:ScopedCurrentTest.h **** public:
  10:ScopedCurrentTest.h **** 	ScopedCurrentTest()
  11:ScopedCurrentTest.h **** 		: m_oldTestResults(UnitTest::CurrentTest::Results())
  12:ScopedCurrentTest.h **** 		, m_oldTestDetails(UnitTest::CurrentTest::Details())
  13:ScopedCurrentTest.h **** 	{
  14:ScopedCurrentTest.h **** 	}
  15:ScopedCurrentTest.h **** 
  16:ScopedCurrentTest.h **** 	explicit ScopedCurrentTest(UnitTest::TestResults& newResults, const UnitTest::TestDetails* newDeta
 462              		.loc 5 16 0
 463              		.cfi_startproc
 464 0000 55       		pushq	%rbp
 465              		.cfi_def_cfa_offset 16
 466              		.cfi_offset 6, -16
 467 0001 4889E5   		movq	%rsp, %rbp
 468              		.cfi_def_cfa_register 6
 469 0004 4883EC20 		subq	$32, %rsp
 470 0008 48897DF8 		movq	%rdi, -8(%rbp)
 471 000c 488975F0 		movq	%rsi, -16(%rbp)
 472 0010 488955E8 		movq	%rdx, -24(%rbp)
 473              	.LBB9:
  17:ScopedCurrentTest.h **** 		: m_oldTestResults(UnitTest::CurrentTest::Results())
 474              		.loc 5 17 0
 475 0014 E8000000 		call	_ZN8UnitTest11CurrentTest7ResultsEv
 475      00
  18:ScopedCurrentTest.h **** 		, m_oldTestDetails(UnitTest::CurrentTest::Details())
 476              		.loc 5 18 0
 477 0019 488B10   		movq	(%rax), %rdx
 478 001c 488B45F8 		movq	-8(%rbp), %rax
 479 0020 488910   		movq	%rdx, (%rax)
 480 0023 E8000000 		call	_ZN8UnitTest11CurrentTest7DetailsEv
 480      00
 481 0028 488B10   		movq	(%rax), %rdx
 482 002b 488B45F8 		movq	-8(%rbp), %rax
 483 002f 48895008 		movq	%rdx, 8(%rax)
  19:ScopedCurrentTest.h **** 	{
  20:ScopedCurrentTest.h **** 		UnitTest::CurrentTest::Results() = &newResults;
 484              		.loc 5 20 0
 485 0033 E8000000 		call	_ZN8UnitTest11CurrentTest7ResultsEv
 485      00
 486 0038 488B55F0 		movq	-16(%rbp), %rdx
 487 003c 488910   		movq	%rdx, (%rax)
  21:ScopedCurrentTest.h **** 
  22:ScopedCurrentTest.h **** 		if (newDetails != NULL)
 488              		.loc 5 22 0
 489 003f 48837DE8 		cmpq	$0, -24(%rbp)
 489      00
 490 0044 740C     		je	.L15
  23:ScopedCurrentTest.h **** 			UnitTest::CurrentTest::Details() = newDetails;
 491              		.loc 5 23 0
 492 0046 E8000000 		call	_ZN8UnitTest11CurrentTest7DetailsEv
 492      00
 493 004b 488B55E8 		movq	-24(%rbp), %rdx
 494 004f 488910   		movq	%rdx, (%rax)
 495              	.L15:
 496              	.LBE9:
  24:ScopedCurrentTest.h **** 	}
 497              		.loc 5 24 0
 498 0052 C9       		leave
 499              		.cfi_def_cfa 7, 8
 500 0053 C3       		ret
 501              		.cfi_endproc
 502              	.LFE1033:
 504              		.weak	_ZN17ScopedCurrentTestC1ERN8UnitTest11TestResultsEPKNS0_11TestDetailsE
 505              		.set	_ZN17ScopedCurrentTestC1ERN8UnitTest11TestResultsEPKNS0_11TestDetailsE,_ZN17ScopedCurrentTest
 506              		.section	.text._ZN17ScopedCurrentTestD2Ev,"axG",@progbits,_ZN17ScopedCurrentTestD5Ev,comdat
 507              		.align 2
 508              		.weak	_ZN17ScopedCurrentTestD2Ev
 510              	_ZN17ScopedCurrentTestD2Ev:
 511              	.LFB1036:
  25:ScopedCurrentTest.h **** 
  26:ScopedCurrentTest.h **** 	~ScopedCurrentTest()
 512              		.loc 5 26 0
 513              		.cfi_startproc
 514 0000 55       		pushq	%rbp
 515              		.cfi_def_cfa_offset 16
 516              		.cfi_offset 6, -16
 517 0001 4889E5   		movq	%rsp, %rbp
 518              		.cfi_def_cfa_register 6
 519 0004 4883EC10 		subq	$16, %rsp
 520 0008 48897DF8 		movq	%rdi, -8(%rbp)
 521              	.LBB10:
  27:ScopedCurrentTest.h **** 	{
  28:ScopedCurrentTest.h **** 		UnitTest::CurrentTest::Results() = m_oldTestResults;
 522              		.loc 5 28 0
 523 000c E8000000 		call	_ZN8UnitTest11CurrentTest7ResultsEv
 523      00
 524 0011 488B55F8 		movq	-8(%rbp), %rdx
 525 0015 488B12   		movq	(%rdx), %rdx
 526 0018 488910   		movq	%rdx, (%rax)
  29:ScopedCurrentTest.h **** 		UnitTest::CurrentTest::Details() = m_oldTestDetails;
 527              		.loc 5 29 0
 528 001b E8000000 		call	_ZN8UnitTest11CurrentTest7DetailsEv
 528      00
 529 0020 488B55F8 		movq	-8(%rbp), %rdx
 530 0024 488B5208 		movq	8(%rdx), %rdx
 531 0028 488910   		movq	%rdx, (%rax)
 532              	.LBE10:
  30:ScopedCurrentTest.h **** 	}
 533              		.loc 5 30 0
 534 002b C9       		leave
 535              		.cfi_def_cfa 7, 8
 536 002c C3       		ret
 537              		.cfi_endproc
 538              	.LFE1036:
 540              		.weak	_ZN17ScopedCurrentTestD1Ev
 541              		.set	_ZN17ScopedCurrentTestD1Ev,_ZN17ScopedCurrentTestD2Ev
 542              		.section	.rodata
 543              	.LC2:
 544 000d 54657374 		.string	"TestCheckMacros.cpp"
 544      43686563 
 544      6B4D6163 
 544      726F732E 
 544      63707000 
 545              	.LC3:
 546 0021 43686563 		.string	"CheckSucceedsOnTrue"
 546      6B537563 
 546      63656564 
 546      734F6E54 
 546      72756500 
 547              		.text
 548              		.align 2
 550              	_ZN12_GLOBAL__N_123TestCheckSucceedsOnTrueC2Ev:
 551              	.LFB1039:
 552              		.file 6 "TestCheckMacros.cpp"
   1:TestCheckMacros.cpp **** #include "../UnitTest++.h"
   2:TestCheckMacros.cpp **** #include "../CurrentTest.h"
   3:TestCheckMacros.cpp **** #include "RecordingReporter.h"
   4:TestCheckMacros.cpp **** #include "ScopedCurrentTest.h"
   5:TestCheckMacros.cpp **** 
   6:TestCheckMacros.cpp **** using namespace std;
   7:TestCheckMacros.cpp **** 
   8:TestCheckMacros.cpp **** namespace {
   9:TestCheckMacros.cpp **** 
  10:TestCheckMacros.cpp **** TEST(CheckSucceedsOnTrue)
 553              		.loc 6 10 0
 554              		.cfi_startproc
 555 0000 55       		pushq	%rbp
 556              		.cfi_def_cfa_offset 16
 557              		.cfi_offset 6, -16
 558 0001 4889E5   		movq	%rsp, %rbp
 559              		.cfi_def_cfa_register 6
 560 0004 4883EC10 		subq	$16, %rsp
 561 0008 48897DF8 		movq	%rdi, -8(%rbp)
 562              	.LBB11:
 563              		.loc 6 10 0
 564 000c E8000000 		call	_ZN13UnitTestSuite12GetSuiteNameEv
 564      00
 565 0011 4889C2   		movq	%rax, %rdx
 566 0014 488B45F8 		movq	-8(%rbp), %rax
 567 0018 41B80A00 		movl	$10, %r8d
 567      0000
 568 001e B9000000 		movl	$.LC2, %ecx
 568      00
 569 0023 BE000000 		movl	$.LC3, %esi
 569      00
 570 0028 4889C7   		movq	%rax, %rdi
 571 002b E8000000 		call	_ZN8UnitTest4TestC2EPKcS2_S2_i
 571      00
 572 0030 488B45F8 		movq	-8(%rbp), %rax
 573 0034 48C70000 		movq	$_ZTVN12_GLOBAL__N_123TestCheckSucceedsOnTrueE+16, (%rax)
 573      000000
 574              	.LBE11:
 575 003b C9       		leave
 576              		.cfi_def_cfa 7, 8
 577 003c C3       		ret
 578              		.cfi_endproc
 579              	.LFE1039:
 581              		.set	_ZN12_GLOBAL__N_123TestCheckSucceedsOnTrueC1Ev,_ZN12_GLOBAL__N_123TestCheckSucceedsOnTrueC2Ev
 582              		.local	_ZN12_GLOBAL__N_131testCheckSucceedsOnTrueInstanceE
 583              		.comm	_ZN12_GLOBAL__N_131testCheckSucceedsOnTrueInstanceE,56,32
 584              		.local	_ZN12_GLOBAL__N_124adderCheckSucceedsOnTrueE
 585              		.comm	_ZN12_GLOBAL__N_124adderCheckSucceedsOnTrueE,1,1
 586              		.section	.rodata
 587              	.LC4:
 588 0035 74727565 		.string	"true"
 588      00
 589              	.LC5:
 590 003a 21666169 		.string	"!failure"
 590      6C757265 
 590      00
 591 0043 00000000 		.align 8
 591      00
 592              	.LC6:
 593 0048 556E6861 		.string	"Unhandled exception in CHECK(true)"
 593      6E646C65 
 593      64206578 
 593      63657074 
 593      696F6E20 
 594 006b 00000000 		.align 8
 594      00
 595              	.LC7:
 596 0070 556E6861 		.string	"Unhandled exception in CHECK(!failure)"
 596      6E646C65 
 596      64206578 
 596      63657074 
 596      696F6E20 
 597              		.text
 598 003d 90       		.align 2
 600              	_ZNK12_GLOBAL__N_123TestCheckSucceedsOnTrue7RunImplEv:
 601              	.LFB1041:
  11:TestCheckMacros.cpp **** {
 602              		.loc 6 11 0
 603              		.cfi_startproc
 604              		.cfi_personality 0x3,__gxx_personality_v0
 605              		.cfi_lsda 0x3,.LLSDA1041
 606 003e 55       		pushq	%rbp
 607              		.cfi_def_cfa_offset 16
 608              		.cfi_offset 6, -16
 609 003f 4889E5   		movq	%rsp, %rbp
 610              		.cfi_def_cfa_register 6
 611 0042 53       		pushq	%rbx
 612 0043 4881ECB8 		subq	$2232, %rsp
 612      080000
 613              		.cfi_offset 3, -24
 614 004a 4889BD48 		movq	%rdi, -2232(%rbp)
 614      F7FFFF
 615              		.loc 6 11 0
 616 0051 64488B04 		movq	%fs:40, %rax
 616      25280000 
 616      00
 617 005a 488945E8 		movq	%rax, -24(%rbp)
 618 005e 31C0     		xorl	%eax, %eax
 619              	.LBB12:
  12:TestCheckMacros.cpp ****     bool failure = true;
 620              		.loc 6 12 0
 621 0060 C6855FF7 		movb	$1, -2209(%rbp)
 621      FFFF01
 622              	.LBB13:
  13:TestCheckMacros.cpp ****     {
  14:TestCheckMacros.cpp ****         RecordingReporter reporter;
 623              		.loc 6 14 0
 624 0067 488D85B0 		leaq	-2128(%rbp), %rax
 624      F7FFFF
 625 006e 4889C7   		movq	%rax, %rdi
 626 0071 E8000000 		call	_ZN17RecordingReporterC1Ev
 626      00
  15:TestCheckMacros.cpp ****         UnitTest::TestResults testResults(&reporter);
 627              		.loc 6 15 0
 628 0076 488D95B0 		leaq	-2128(%rbp), %rdx
 628      F7FFFF
 629 007d 488D8570 		leaq	-2192(%rbp), %rax
 629      F7FFFF
 630 0084 4889D6   		movq	%rdx, %rsi
 631 0087 4889C7   		movq	%rax, %rdi
 632              	.LEHB4:
 633 008a E8000000 		call	_ZN8UnitTest11TestResultsC1EPNS_12TestReporterE
 633      00
  16:TestCheckMacros.cpp **** 
  17:TestCheckMacros.cpp **** 		ScopedCurrentTest scopedResults(testResults);
 634              		.loc 6 17 0
 635 008f 488D8D70 		leaq	-2192(%rbp), %rcx
 635      F7FFFF
 636 0096 488D8560 		leaq	-2208(%rbp), %rax
 636      F7FFFF
 637 009d BA000000 		movl	$0, %edx
 637      00
 638 00a2 4889CE   		movq	%rcx, %rsi
 639 00a5 4889C7   		movq	%rax, %rdi
 640 00a8 E8000000 		call	_ZN17ScopedCurrentTestC1ERN8UnitTest11TestResultsEPKNS0_11TestDetailsE
 640      00
 641              	.LEHE4:
  18:TestCheckMacros.cpp **** 		CHECK(true);
 642              		.loc 6 18 0
 643 00ad BF010000 		movl	$1, %edi
 643      00
 644 00b2 E8000000 		call	_ZN8UnitTest5CheckIbEEbT_
 644      00
 645 00b7 83F001   		xorl	$1, %eax
 646 00ba 84C0     		testb	%al, %al
 647 00bc 743E     		je	.L21
 648              	.LEHB5:
 649              		.loc 6 18 0 is_stmt 0 discriminator 1
 650 00be E8000000 		call	_ZN8UnitTest11CurrentTest7DetailsEv
 650      00
 651 00c3 488B08   		movq	(%rax), %rcx
 652 00c6 488D8590 		leaq	-2160(%rbp), %rax
 652      F7FFFF
 653 00cd BA120000 		movl	$18, %edx
 653      00
 654 00d2 4889CE   		movq	%rcx, %rsi
 655 00d5 4889C7   		movq	%rax, %rdi
 656 00d8 E8000000 		call	_ZN8UnitTest11TestDetailsC1ERKS0_i
 656      00
 657 00dd E8000000 		call	_ZN8UnitTest11CurrentTest7ResultsEv
 657      00
 658 00e2 488B00   		movq	(%rax), %rax
 659 00e5 488D8D90 		leaq	-2160(%rbp), %rcx
 659      F7FFFF
 660 00ec BA000000 		movl	$.LC4, %edx
 660      00
 661 00f1 4889CE   		movq	%rcx, %rsi
 662 00f4 4889C7   		movq	%rax, %rdi
 663 00f7 E8000000 		call	_ZN8UnitTest11TestResults13OnTestFailureERKNS_11TestDetailsEPKc
 663      00
 664              	.LEHE5:
 665              	.L21:
  19:TestCheckMacros.cpp **** 
  20:TestCheckMacros.cpp **** 		failure = (testResults.GetFailureCount() > 0);
 666              		.loc 6 20 0 is_stmt 1
 667 00fc 488D8570 		leaq	-2192(%rbp), %rax
 667      F7FFFF
 668 0103 4889C7   		movq	%rax, %rdi
 669              	.LEHB6:
 670 0106 E8000000 		call	_ZNK8UnitTest11TestResults15GetFailureCountEv
 670      00
 671              	.LEHE6:
 672 010b 85C0     		testl	%eax, %eax
 673 010d 0F9FC0   		setg	%al
 674 0110 88855FF7 		movb	%al, -2209(%rbp)
 674      FFFF
  17:TestCheckMacros.cpp **** 		CHECK(true);
 675              		.loc 6 17 0
 676 0116 488D8560 		leaq	-2208(%rbp), %rax
 676      F7FFFF
 677 011d 4889C7   		movq	%rax, %rdi
 678              	.LEHB7:
 679 0120 E8000000 		call	_ZN17ScopedCurrentTestD1Ev
 679      00
 680              	.LEHE7:
 681              		.loc 6 20 0
 682 0125 488D85B0 		leaq	-2128(%rbp), %rax
 682      F7FFFF
 683 012c 4889C7   		movq	%rax, %rdi
 684              	.LEHB8:
 685 012f E8000000 		call	_ZN17RecordingReporterD1Ev
 685      00
 686              	.LEHE8:
 687              	.LBE13:
  21:TestCheckMacros.cpp ****     }
  22:TestCheckMacros.cpp **** 
  23:TestCheckMacros.cpp ****     CHECK(!failure);
 688              		.loc 6 23 0
 689 0134 0FB6855F 		movzbl	-2209(%rbp), %eax
 689      F7FFFF
 690 013b 83F001   		xorl	$1, %eax
 691 013e 0FB6C0   		movzbl	%al, %eax
 692 0141 89C7     		movl	%eax, %edi
 693 0143 E8000000 		call	_ZN8UnitTest5CheckIbEEbT_
 693      00
 694 0148 83F001   		xorl	$1, %eax
 695 014b 84C0     		testb	%al, %al
 696 014d 0F842D01 		je	.L20
 696      0000
 697              	.LEHB9:
 698              		.loc 6 23 0 is_stmt 0 discriminator 1
 699 0153 E8000000 		call	_ZN8UnitTest11CurrentTest7DetailsEv
 699      00
 700 0158 488B08   		movq	(%rax), %rcx
 701 015b 488D8590 		leaq	-2160(%rbp), %rax
 701      F7FFFF
 702 0162 BA170000 		movl	$23, %edx
 702      00
 703 0167 4889CE   		movq	%rcx, %rsi
 704 016a 4889C7   		movq	%rax, %rdi
 705 016d E8000000 		call	_ZN8UnitTest11TestDetailsC1ERKS0_i
 705      00
 706 0172 E8000000 		call	_ZN8UnitTest11CurrentTest7ResultsEv
 706      00
 707 0177 488B00   		movq	(%rax), %rax
 708 017a 488D8D90 		leaq	-2160(%rbp), %rcx
 708      F7FFFF
 709 0181 BA000000 		movl	$.LC5, %edx
 709      00
 710 0186 4889CE   		movq	%rcx, %rsi
 711 0189 4889C7   		movq	%rax, %rdi
 712 018c E8000000 		call	_ZN8UnitTest11TestResults13OnTestFailureERKNS_11TestDetailsEPKc
 712      00
 713              	.LEHE9:
 714 0191 E9EA0000 		jmp	.L20
 714      00
 715              	.L33:
 716 0196 4889C3   		movq	%rax, %rbx
 717              	.LBB14:
  18:TestCheckMacros.cpp **** 
 718              		.loc 6 18 0 is_stmt 1
 719 0199 E8000000 		call	__cxa_end_catch
 719      00
 720 019e EB53     		jmp	.L24
 721              	.L31:
 722 01a0 4889C7   		movq	%rax, %rdi
 723 01a3 E8000000 		call	__cxa_begin_catch
 723      00
 724              	.LEHB10:
 725 01a8 E8000000 		call	_ZN8UnitTest11CurrentTest7DetailsEv
 725      00
 726 01ad 488B08   		movq	(%rax), %rcx
 727 01b0 488D8590 		leaq	-2160(%rbp), %rax
 727      F7FFFF
 728 01b7 BA120000 		movl	$18, %edx
 728      00
 729 01bc 4889CE   		movq	%rcx, %rsi
 730 01bf 4889C7   		movq	%rax, %rdi
 731 01c2 E8000000 		call	_ZN8UnitTest11TestDetailsC1ERKS0_i
 731      00
  18:TestCheckMacros.cpp **** 
 732              		.loc 6 18 0 is_stmt 0 discriminator 1
 733 01c7 E8000000 		call	_ZN8UnitTest11CurrentTest7ResultsEv
 733      00
 734 01cc 488B00   		movq	(%rax), %rax
 735 01cf 488D8D90 		leaq	-2160(%rbp), %rcx
 735      F7FFFF
 736 01d6 BA000000 		movl	$.LC6, %edx
 736      00
 737 01db 4889CE   		movq	%rcx, %rsi
 738 01de 4889C7   		movq	%rax, %rdi
 739 01e1 E8000000 		call	_ZN8UnitTest11TestResults13OnTestFailureERKNS_11TestDetailsEPKc
 739      00
 740              	.LEHE10:
 741              	.LEHB11:
 742 01e6 E8000000 		call	__cxa_end_catch
 742      00
 743              	.LEHE11:
  18:TestCheckMacros.cpp **** 
 744              		.loc 6 18 0
 745 01eb E90CFFFF 		jmp	.L21
 745      FF
 746              	.L32:
 747 01f0 4889C3   		movq	%rax, %rbx
 748              	.L24:
  17:TestCheckMacros.cpp **** 		CHECK(true);
 749              		.loc 6 17 0 is_stmt 1
 750 01f3 488D8560 		leaq	-2208(%rbp), %rax
 750      F7FFFF
 751 01fa 4889C7   		movq	%rax, %rdi
 752 01fd E8000000 		call	_ZN17ScopedCurrentTestD1Ev
 752      00
 753 0202 EB03     		jmp	.L26
 754              	.L30:
 755 0204 4889C3   		movq	%rax, %rbx
 756              	.L26:
  20:TestCheckMacros.cpp ****     }
 757              		.loc 6 20 0
 758 0207 488D85B0 		leaq	-2128(%rbp), %rax
 758      F7FFFF
 759 020e 4889C7   		movq	%rax, %rdi
 760 0211 E8000000 		call	_ZN17RecordingReporterD1Ev
 760      00
 761 0216 4889D8   		movq	%rbx, %rax
 762 0219 4889C7   		movq	%rax, %rdi
 763              	.LEHB12:
 764 021c E8000000 		call	_Unwind_Resume
 764      00
 765              	.LEHE12:
 766              	.L35:
 767 0221 4889C3   		movq	%rax, %rbx
 768              	.LBE14:
 769              		.loc 6 23 0
 770 0224 E8000000 		call	__cxa_end_catch
 770      00
 771 0229 4889D8   		movq	%rbx, %rax
 772 022c 4889C7   		movq	%rax, %rdi
 773              	.LEHB13:
 774 022f E8000000 		call	_Unwind_Resume
 774      00
 775              	.LEHE13:
 776              	.L34:
 777 0234 4889C7   		movq	%rax, %rdi
 778 0237 E8000000 		call	__cxa_begin_catch
 778      00
 779              	.LEHB14:
 780 023c E8000000 		call	_ZN8UnitTest11CurrentTest7DetailsEv
 780      00
 781 0241 488B08   		movq	(%rax), %rcx
 782 0244 488D8590 		leaq	-2160(%rbp), %rax
 782      F7FFFF
 783 024b BA170000 		movl	$23, %edx
 783      00
 784 0250 4889CE   		movq	%rcx, %rsi
 785 0253 4889C7   		movq	%rax, %rdi
 786 0256 E8000000 		call	_ZN8UnitTest11TestDetailsC1ERKS0_i
 786      00
 787              		.loc 6 23 0 is_stmt 0 discriminator 1
 788 025b E8000000 		call	_ZN8UnitTest11CurrentTest7ResultsEv
 788      00
 789 0260 488B00   		movq	(%rax), %rax
 790 0263 488D8D90 		leaq	-2160(%rbp), %rcx
 790      F7FFFF
 791 026a BA000000 		movl	$.LC7, %edx
 791      00
 792 026f 4889CE   		movq	%rcx, %rsi
 793 0272 4889C7   		movq	%rax, %rdi
 794 0275 E8000000 		call	_ZN8UnitTest11TestResults13OnTestFailureERKNS_11TestDetailsEPKc
 794      00
 795              	.LEHE14:
 796              	.LEHB15:
 797 027a E8000000 		call	__cxa_end_catch
 797      00
 798              	.LEHE15:
 799              	.LBE12:
  24:TestCheckMacros.cpp **** }
 800              		.loc 6 24 0 is_stmt 1 discriminator 1
 801 027f 90       		nop
 802              	.L20:
 803              		.loc 6 24 0 is_stmt 0
 804 0280 488B45E8 		movq	-24(%rbp), %rax
 805 0284 64483304 		xorq	%fs:40, %rax
 805      25280000 
 805      00
 806 028d 7405     		je	.L29
 807 028f E8000000 		call	__stack_chk_fail
 807      00
 808              	.L29:
 809 0294 4881C4B8 		addq	$2232, %rsp
 809      080000
 810 029b 5B       		popq	%rbx
 811 029c 5D       		popq	%rbp
 812              		.cfi_def_cfa 7, 8
 813 029d C3       		ret
 814              		.cfi_endproc
 815              	.LFE1041:
 816              		.section	.gcc_except_table,"a",@progbits
 817              		.align 4
 818              	.LLSDA1041:
 819 0000 FF       		.byte	0xff
 820 0001 03       		.byte	0x3
 821 0002 4D       		.uleb128 .LLSDATT1041-.LLSDATTD1041
 822              	.LLSDATTD1041:
 823 0003 01       		.byte	0x1
 824 0004 43       		.uleb128 .LLSDACSE1041-.LLSDACSB1041
 825              	.LLSDACSB1041:
 826 0005 4C       		.uleb128 .LEHB4-.LFB1041
 827 0006 23       		.uleb128 .LEHE4-.LEHB4
 828 0007 C603     		.uleb128 .L30-.LFB1041
 829 0009 00       		.uleb128 0
 830 000a 8001     		.uleb128 .LEHB5-.LFB1041
 831 000c 3E       		.uleb128 .LEHE5-.LEHB5
 832 000d E202     		.uleb128 .L31-.LFB1041
 833 000f 01       		.uleb128 0x1
 834 0010 C801     		.uleb128 .LEHB6-.LFB1041
 835 0012 05       		.uleb128 .LEHE6-.LEHB6
 836 0013 B203     		.uleb128 .L32-.LFB1041
 837 0015 00       		.uleb128 0
 838 0016 E201     		.uleb128 .LEHB7-.LFB1041
 839 0018 05       		.uleb128 .LEHE7-.LEHB7
 840 0019 C603     		.uleb128 .L30-.LFB1041
 841 001b 00       		.uleb128 0
 842 001c F101     		.uleb128 .LEHB8-.LFB1041
 843 001e 05       		.uleb128 .LEHE8-.LEHB8
 844 001f 00       		.uleb128 0
 845 0020 00       		.uleb128 0
 846 0021 9502     		.uleb128 .LEHB9-.LFB1041
 847 0023 3E       		.uleb128 .LEHE9-.LEHB9
 848 0024 F603     		.uleb128 .L34-.LFB1041
 849 0026 01       		.uleb128 0x1
 850 0027 EA02     		.uleb128 .LEHB10-.LFB1041
 851 0029 3E       		.uleb128 .LEHE10-.LEHB10
 852 002a D802     		.uleb128 .L33-.LFB1041
 853 002c 00       		.uleb128 0
 854 002d A803     		.uleb128 .LEHB11-.LFB1041
 855 002f 05       		.uleb128 .LEHE11-.LEHB11
 856 0030 B203     		.uleb128 .L32-.LFB1041
 857 0032 00       		.uleb128 0
 858 0033 DE03     		.uleb128 .LEHB12-.LFB1041
 859 0035 05       		.uleb128 .LEHE12-.LEHB12
 860 0036 00       		.uleb128 0
 861 0037 00       		.uleb128 0
 862 0038 F103     		.uleb128 .LEHB13-.LFB1041
 863 003a 05       		.uleb128 .LEHE13-.LEHB13
 864 003b 00       		.uleb128 0
 865 003c 00       		.uleb128 0
 866 003d FE03     		.uleb128 .LEHB14-.LFB1041
 867 003f 3E       		.uleb128 .LEHE14-.LEHB14
 868 0040 E303     		.uleb128 .L35-.LFB1041
 869 0042 00       		.uleb128 0
 870 0043 BC04     		.uleb128 .LEHB15-.LFB1041
 871 0045 05       		.uleb128 .LEHE15-.LEHB15
 872 0046 00       		.uleb128 0
 873 0047 00       		.uleb128 0
 874              	.LLSDACSE1041:
 875 0048 01       		.byte	0x1
 876 0049 00       		.byte	0
 877 004a 0000     		.align 4
 878 004c 00000000 		.long	0
 879              	
 880              	.LLSDATT1041:
 881              		.text
 883              		.section	.rodata
 884              	.LC8:
 885 0097 43686563 		.string	"CheckFailsOnFalse"
 885      6B466169 
 885      6C734F6E 
 885      46616C73 
 885      6500
 886              		.text
 887              		.align 2
 889              	_ZN12_GLOBAL__N_121TestCheckFailsOnFalseC2Ev:
 890              	.LFB1043:
  25:TestCheckMacros.cpp **** 
  26:TestCheckMacros.cpp **** TEST(CheckFailsOnFalse)
 891              		.loc 6 26 0 is_stmt 1
 892              		.cfi_startproc
 893 029e 55       		pushq	%rbp
 894              		.cfi_def_cfa_offset 16
 895              		.cfi_offset 6, -16
 896 029f 4889E5   		movq	%rsp, %rbp
 897              		.cfi_def_cfa_register 6
 898 02a2 4883EC10 		subq	$16, %rsp
 899 02a6 48897DF8 		movq	%rdi, -8(%rbp)
 900              	.LBB15:
 901              		.loc 6 26 0
 902 02aa E8000000 		call	_ZN13UnitTestSuite12GetSuiteNameEv
 902      00
 903 02af 4889C2   		movq	%rax, %rdx
 904 02b2 488B45F8 		movq	-8(%rbp), %rax
 905 02b6 41B81A00 		movl	$26, %r8d
 905      0000
 906 02bc B9000000 		movl	$.LC2, %ecx
 906      00
 907 02c1 BE000000 		movl	$.LC8, %esi
 907      00
 908 02c6 4889C7   		movq	%rax, %rdi
 909 02c9 E8000000 		call	_ZN8UnitTest4TestC2EPKcS2_S2_i
 909      00
 910 02ce 488B45F8 		movq	-8(%rbp), %rax
 911 02d2 48C70000 		movq	$_ZTVN12_GLOBAL__N_121TestCheckFailsOnFalseE+16, (%rax)
 911      000000
 912              	.LBE15:
 913 02d9 C9       		leave
 914              		.cfi_def_cfa 7, 8
 915 02da C3       		ret
 916              		.cfi_endproc
 917              	.LFE1043:
 919              		.set	_ZN12_GLOBAL__N_121TestCheckFailsOnFalseC1Ev,_ZN12_GLOBAL__N_121TestCheckFailsOnFalseC2Ev
 920              		.local	_ZN12_GLOBAL__N_129testCheckFailsOnFalseInstanceE
 921              		.comm	_ZN12_GLOBAL__N_129testCheckFailsOnFalseInstanceE,56,32
 922              		.local	_ZN12_GLOBAL__N_122adderCheckFailsOnFalseE
 923              		.comm	_ZN12_GLOBAL__N_122adderCheckFailsOnFalseE,1,1
 924              		.section	.rodata
 925              	.LC9:
 926 00a9 66616C73 		.string	"false"
 926      6500
 927              	.LC10:
 928 00af 6661696C 		.string	"failure"
 928      75726500 
 929 00b7 00       		.align 8
 930              	.LC11:
 931 00b8 556E6861 		.string	"Unhandled exception in CHECK(false)"
 931      6E646C65 
 931      64206578 
 931      63657074 
 931      696F6E20 
 932 00dc 00000000 		.align 8
 933              	.LC12:
 934 00e0 556E6861 		.string	"Unhandled exception in CHECK(failure)"
 934      6E646C65 
 934      64206578 
 934      63657074 
 934      696F6E20 
 935              		.text
 936 02db 90       		.align 2
 938              	_ZNK12_GLOBAL__N_121TestCheckFailsOnFalse7RunImplEv:
 939              	.LFB1045:
  27:TestCheckMacros.cpp **** {
 940              		.loc 6 27 0
 941              		.cfi_startproc
 942              		.cfi_personality 0x3,__gxx_personality_v0
 943              		.cfi_lsda 0x3,.LLSDA1045
 944 02dc 55       		pushq	%rbp
 945              		.cfi_def_cfa_offset 16
 946              		.cfi_offset 6, -16
 947 02dd 4889E5   		movq	%rsp, %rbp
 948              		.cfi_def_cfa_register 6
 949 02e0 53       		pushq	%rbx
 950 02e1 4881ECB8 		subq	$2232, %rsp
 950      080000
 951              		.cfi_offset 3, -24
 952 02e8 4889BD48 		movq	%rdi, -2232(%rbp)
 952      F7FFFF
 953              		.loc 6 27 0
 954 02ef 64488B04 		movq	%fs:40, %rax
 954      25280000 
 954      00
 955 02f8 488945E8 		movq	%rax, -24(%rbp)
 956 02fc 31C0     		xorl	%eax, %eax
 957              	.LBB16:
  28:TestCheckMacros.cpp ****     bool failure = false;
 958              		.loc 6 28 0
 959 02fe C6855FF7 		movb	$0, -2209(%rbp)
 959      FFFF00
 960              	.LBB17:
  29:TestCheckMacros.cpp ****     {
  30:TestCheckMacros.cpp ****         RecordingReporter reporter;
 961              		.loc 6 30 0
 962 0305 488D85B0 		leaq	-2128(%rbp), %rax
 962      F7FFFF
 963 030c 4889C7   		movq	%rax, %rdi
 964 030f E8000000 		call	_ZN17RecordingReporterC1Ev
 964      00
  31:TestCheckMacros.cpp ****         UnitTest::TestResults testResults(&reporter);
 965              		.loc 6 31 0
 966 0314 488D95B0 		leaq	-2128(%rbp), %rdx
 966      F7FFFF
 967 031b 488D8570 		leaq	-2192(%rbp), %rax
 967      F7FFFF
 968 0322 4889D6   		movq	%rdx, %rsi
 969 0325 4889C7   		movq	%rax, %rdi
 970              	.LEHB16:
 971 0328 E8000000 		call	_ZN8UnitTest11TestResultsC1EPNS_12TestReporterE
 971      00
  32:TestCheckMacros.cpp **** 		ScopedCurrentTest scopedResults(testResults);
 972              		.loc 6 32 0
 973 032d 488D8D70 		leaq	-2192(%rbp), %rcx
 973      F7FFFF
 974 0334 488D8560 		leaq	-2208(%rbp), %rax
 974      F7FFFF
 975 033b BA000000 		movl	$0, %edx
 975      00
 976 0340 4889CE   		movq	%rcx, %rsi
 977 0343 4889C7   		movq	%rax, %rdi
 978 0346 E8000000 		call	_ZN17ScopedCurrentTestC1ERN8UnitTest11TestResultsEPKNS0_11TestDetailsE
 978      00
 979              	.LEHE16:
  33:TestCheckMacros.cpp ****         CHECK(false);
 980              		.loc 6 33 0
 981 034b BF000000 		movl	$0, %edi
 981      00
 982 0350 E8000000 		call	_ZN8UnitTest5CheckIbEEbT_
 982      00
 983 0355 83F001   		xorl	$1, %eax
 984 0358 84C0     		testb	%al, %al
 985 035a 743E     		je	.L38
 986              	.LEHB17:
 987              		.loc 6 33 0 is_stmt 0 discriminator 1
 988 035c E8000000 		call	_ZN8UnitTest11CurrentTest7DetailsEv
 988      00
 989 0361 488B08   		movq	(%rax), %rcx
 990 0364 488D8590 		leaq	-2160(%rbp), %rax
 990      F7FFFF
 991 036b BA210000 		movl	$33, %edx
 991      00
 992 0370 4889CE   		movq	%rcx, %rsi
 993 0373 4889C7   		movq	%rax, %rdi
 994 0376 E8000000 		call	_ZN8UnitTest11TestDetailsC1ERKS0_i
 994      00
 995 037b E8000000 		call	_ZN8UnitTest11CurrentTest7ResultsEv
 995      00
 996 0380 488B00   		movq	(%rax), %rax
 997 0383 488D8D90 		leaq	-2160(%rbp), %rcx
 997      F7FFFF
 998 038a BA000000 		movl	$.LC9, %edx
 998      00
 999 038f 4889CE   		movq	%rcx, %rsi
 1000 0392 4889C7   		movq	%rax, %rdi
 1001 0395 E8000000 		call	_ZN8UnitTest11TestResults13OnTestFailureERKNS_11TestDetailsEPKc
 1001      00
 1002              	.LEHE17:
 1003              	.L38:
  34:TestCheckMacros.cpp ****         failure = (testResults.GetFailureCount() > 0);
 1004              		.loc 6 34 0 is_stmt 1
 1005 039a 488D8570 		leaq	-2192(%rbp), %rax
 1005      F7FFFF
 1006 03a1 4889C7   		movq	%rax, %rdi
 1007              	.LEHB18:
 1008 03a4 E8000000 		call	_ZNK8UnitTest11TestResults15GetFailureCountEv
 1008      00
 1009              	.LEHE18:
 1010 03a9 85C0     		testl	%eax, %eax
 1011 03ab 0F9FC0   		setg	%al
 1012 03ae 88855FF7 		movb	%al, -2209(%rbp)
 1012      FFFF
  32:TestCheckMacros.cpp **** 		ScopedCurrentTest scopedResults(testResults);
 1013              		.loc 6 32 0
 1014 03b4 488D8560 		leaq	-2208(%rbp), %rax
 1014      F7FFFF
 1015 03bb 4889C7   		movq	%rax, %rdi
 1016              	.LEHB19:
 1017 03be E8000000 		call	_ZN17ScopedCurrentTestD1Ev
 1017      00
 1018              	.LEHE19:
 1019              		.loc 6 34 0
 1020 03c3 488D85B0 		leaq	-2128(%rbp), %rax
 1020      F7FFFF
 1021 03ca 4889C7   		movq	%rax, %rdi
 1022              	.LEHB20:
 1023 03cd E8000000 		call	_ZN17RecordingReporterD1Ev
 1023      00
 1024              	.LEHE20:
 1025              	.LBE17:
  35:TestCheckMacros.cpp ****     }
  36:TestCheckMacros.cpp **** 
  37:TestCheckMacros.cpp ****     CHECK(failure);
 1026              		.loc 6 37 0
 1027 03d2 0FB6855F 		movzbl	-2209(%rbp), %eax
 1027      F7FFFF
 1028 03d9 89C7     		movl	%eax, %edi
 1029 03db E8000000 		call	_ZN8UnitTest5CheckIbEEbT_
 1029      00
 1030 03e0 83F001   		xorl	$1, %eax
 1031 03e3 84C0     		testb	%al, %al
 1032 03e5 0F842D01 		je	.L37
 1032      0000
 1033              	.LEHB21:
 1034              		.loc 6 37 0 is_stmt 0 discriminator 1
 1035 03eb E8000000 		call	_ZN8UnitTest11CurrentTest7DetailsEv
 1035      00
 1036 03f0 488B08   		movq	(%rax), %rcx
 1037 03f3 488D8590 		leaq	-2160(%rbp), %rax
 1037      F7FFFF
 1038 03fa BA250000 		movl	$37, %edx
 1038      00
 1039 03ff 4889CE   		movq	%rcx, %rsi
 1040 0402 4889C7   		movq	%rax, %rdi
 1041 0405 E8000000 		call	_ZN8UnitTest11TestDetailsC1ERKS0_i
 1041      00
 1042 040a E8000000 		call	_ZN8UnitTest11CurrentTest7ResultsEv
 1042      00
 1043 040f 488B00   		movq	(%rax), %rax
 1044 0412 488D8D90 		leaq	-2160(%rbp), %rcx
 1044      F7FFFF
 1045 0419 BA000000 		movl	$.LC10, %edx
 1045      00
 1046 041e 4889CE   		movq	%rcx, %rsi
 1047 0421 4889C7   		movq	%rax, %rdi
 1048 0424 E8000000 		call	_ZN8UnitTest11TestResults13OnTestFailureERKNS_11TestDetailsEPKc
 1048      00
 1049              	.LEHE21:
 1050 0429 E9EA0000 		jmp	.L37
 1050      00
 1051              	.L50:
 1052 042e 4889C3   		movq	%rax, %rbx
 1053              	.LBB18:
  33:TestCheckMacros.cpp ****         failure = (testResults.GetFailureCount() > 0);
 1054              		.loc 6 33 0 is_stmt 1
 1055 0431 E8000000 		call	__cxa_end_catch
 1055      00
 1056 0436 EB53     		jmp	.L41
 1057              	.L48:
 1058 0438 4889C7   		movq	%rax, %rdi
 1059 043b E8000000 		call	__cxa_begin_catch
 1059      00
 1060              	.LEHB22:
 1061 0440 E8000000 		call	_ZN8UnitTest11CurrentTest7DetailsEv
 1061      00
 1062 0445 488B08   		movq	(%rax), %rcx
 1063 0448 488D8590 		leaq	-2160(%rbp), %rax
 1063      F7FFFF
 1064 044f BA210000 		movl	$33, %edx
 1064      00
 1065 0454 4889CE   		movq	%rcx, %rsi
 1066 0457 4889C7   		movq	%rax, %rdi
 1067 045a E8000000 		call	_ZN8UnitTest11TestDetailsC1ERKS0_i
 1067      00
  33:TestCheckMacros.cpp ****         failure = (testResults.GetFailureCount() > 0);
 1068              		.loc 6 33 0 is_stmt 0 discriminator 1
 1069 045f E8000000 		call	_ZN8UnitTest11CurrentTest7ResultsEv
 1069      00
 1070 0464 488B00   		movq	(%rax), %rax
 1071 0467 488D8D90 		leaq	-2160(%rbp), %rcx
 1071      F7FFFF
 1072 046e BA000000 		movl	$.LC11, %edx
 1072      00
 1073 0473 4889CE   		movq	%rcx, %rsi
 1074 0476 4889C7   		movq	%rax, %rdi
 1075 0479 E8000000 		call	_ZN8UnitTest11TestResults13OnTestFailureERKNS_11TestDetailsEPKc
 1075      00
 1076              	.LEHE22:
 1077              	.LEHB23:
 1078 047e E8000000 		call	__cxa_end_catch
 1078      00
 1079              	.LEHE23:
  33:TestCheckMacros.cpp ****         failure = (testResults.GetFailureCount() > 0);
 1080              		.loc 6 33 0
 1081 0483 E912FFFF 		jmp	.L38
 1081      FF
 1082              	.L49:
 1083 0488 4889C3   		movq	%rax, %rbx
 1084              	.L41:
  32:TestCheckMacros.cpp ****         CHECK(false);
 1085              		.loc 6 32 0 is_stmt 1
 1086 048b 488D8560 		leaq	-2208(%rbp), %rax
 1086      F7FFFF
 1087 0492 4889C7   		movq	%rax, %rdi
 1088 0495 E8000000 		call	_ZN17ScopedCurrentTestD1Ev
 1088      00
 1089 049a EB03     		jmp	.L43
 1090              	.L47:
 1091 049c 4889C3   		movq	%rax, %rbx
 1092              	.L43:
  34:TestCheckMacros.cpp ****     }
 1093              		.loc 6 34 0
 1094 049f 488D85B0 		leaq	-2128(%rbp), %rax
 1094      F7FFFF
 1095 04a6 4889C7   		movq	%rax, %rdi
 1096 04a9 E8000000 		call	_ZN17RecordingReporterD1Ev
 1096      00
 1097 04ae 4889D8   		movq	%rbx, %rax
 1098 04b1 4889C7   		movq	%rax, %rdi
 1099              	.LEHB24:
 1100 04b4 E8000000 		call	_Unwind_Resume
 1100      00
 1101              	.LEHE24:
 1102              	.L52:
 1103 04b9 4889C3   		movq	%rax, %rbx
 1104              	.LBE18:
 1105              		.loc 6 37 0
 1106 04bc E8000000 		call	__cxa_end_catch
 1106      00
 1107 04c1 4889D8   		movq	%rbx, %rax
 1108 04c4 4889C7   		movq	%rax, %rdi
 1109              	.LEHB25:
 1110 04c7 E8000000 		call	_Unwind_Resume
 1110      00
 1111              	.LEHE25:
 1112              	.L51:
 1113 04cc 4889C7   		movq	%rax, %rdi
 1114 04cf E8000000 		call	__cxa_begin_catch
 1114      00
 1115              	.LEHB26:
 1116 04d4 E8000000 		call	_ZN8UnitTest11CurrentTest7DetailsEv
 1116      00
 1117 04d9 488B08   		movq	(%rax), %rcx
 1118 04dc 488D8590 		leaq	-2160(%rbp), %rax
 1118      F7FFFF
 1119 04e3 BA250000 		movl	$37, %edx
 1119      00
 1120 04e8 4889CE   		movq	%rcx, %rsi
 1121 04eb 4889C7   		movq	%rax, %rdi
 1122 04ee E8000000 		call	_ZN8UnitTest11TestDetailsC1ERKS0_i
 1122      00
 1123              		.loc 6 37 0 is_stmt 0 discriminator 1
 1124 04f3 E8000000 		call	_ZN8UnitTest11CurrentTest7ResultsEv
 1124      00
 1125 04f8 488B00   		movq	(%rax), %rax
 1126 04fb 488D8D90 		leaq	-2160(%rbp), %rcx
 1126      F7FFFF
 1127 0502 BA000000 		movl	$.LC12, %edx
 1127      00
 1128 0507 4889CE   		movq	%rcx, %rsi
 1129 050a 4889C7   		movq	%rax, %rdi
 1130 050d E8000000 		call	_ZN8UnitTest11TestResults13OnTestFailureERKNS_11TestDetailsEPKc
 1130      00
 1131              	.LEHE26:
 1132              	.LEHB27:
 1133 0512 E8000000 		call	__cxa_end_catch
 1133      00
 1134              	.LEHE27:
 1135              	.LBE16:
  38:TestCheckMacros.cpp **** }
 1136              		.loc 6 38 0 is_stmt 1 discriminator 1
 1137 0517 90       		nop
 1138              	.L37:
 1139              		.loc 6 38 0 is_stmt 0
 1140 0518 488B45E8 		movq	-24(%rbp), %rax
 1141 051c 64483304 		xorq	%fs:40, %rax
 1141      25280000 
 1141      00
 1142 0525 7405     		je	.L46
 1143 0527 E8000000 		call	__stack_chk_fail
 1143      00
 1144              	.L46:
 1145 052c 4881C4B8 		addq	$2232, %rsp
 1145      080000
 1146 0533 5B       		popq	%rbx
 1147 0534 5D       		popq	%rbp
 1148              		.cfi_def_cfa 7, 8
 1149 0535 C3       		ret
 1150              		.cfi_endproc
 1151              	.LFE1045:
 1152              		.section	.gcc_except_table
 1153              		.align 4
 1154              	.LLSDA1045:
 1155 0050 FF       		.byte	0xff
 1156 0051 03       		.byte	0x3
 1157 0052 4D       		.uleb128 .LLSDATT1045-.LLSDATTD1045
 1158              	.LLSDATTD1045:
 1159 0053 01       		.byte	0x1
 1160 0054 43       		.uleb128 .LLSDACSE1045-.LLSDACSB1045
 1161              	.LLSDACSB1045:
 1162 0055 4C       		.uleb128 .LEHB16-.LFB1045
 1163 0056 23       		.uleb128 .LEHE16-.LEHB16
 1164 0057 C003     		.uleb128 .L47-.LFB1045
 1165 0059 00       		.uleb128 0
 1166 005a 8001     		.uleb128 .LEHB17-.LFB1045
 1167 005c 3E       		.uleb128 .LEHE17-.LEHB17
 1168 005d DC02     		.uleb128 .L48-.LFB1045
 1169 005f 01       		.uleb128 0x1
 1170 0060 C801     		.uleb128 .LEHB18-.LFB1045
 1171 0062 05       		.uleb128 .LEHE18-.LEHB18
 1172 0063 AC03     		.uleb128 .L49-.LFB1045
 1173 0065 00       		.uleb128 0
 1174 0066 E201     		.uleb128 .LEHB19-.LFB1045
 1175 0068 05       		.uleb128 .LEHE19-.LEHB19
 1176 0069 C003     		.uleb128 .L47-.LFB1045
 1177 006b 00       		.uleb128 0
 1178 006c F101     		.uleb128 .LEHB20-.LFB1045
 1179 006e 05       		.uleb128 .LEHE20-.LEHB20
 1180 006f 00       		.uleb128 0
 1181 0070 00       		.uleb128 0
 1182 0071 8F02     		.uleb128 .LEHB21-.LFB1045
 1183 0073 3E       		.uleb128 .LEHE21-.LEHB21
 1184 0074 F003     		.uleb128 .L51-.LFB1045
 1185 0076 01       		.uleb128 0x1
 1186 0077 E402     		.uleb128 .LEHB22-.LFB1045
 1187 0079 3E       		.uleb128 .LEHE22-.LEHB22
 1188 007a D202     		.uleb128 .L50-.LFB1045
 1189 007c 00       		.uleb128 0
 1190 007d A203     		.uleb128 .LEHB23-.LFB1045
 1191 007f 05       		.uleb128 .LEHE23-.LEHB23
 1192 0080 AC03     		.uleb128 .L49-.LFB1045
 1193 0082 00       		.uleb128 0
 1194 0083 D803     		.uleb128 .LEHB24-.LFB1045
 1195 0085 05       		.uleb128 .LEHE24-.LEHB24
 1196 0086 00       		.uleb128 0
 1197 0087 00       		.uleb128 0
 1198 0088 EB03     		.uleb128 .LEHB25-.LFB1045
 1199 008a 05       		.uleb128 .LEHE25-.LEHB25
 1200 008b 00       		.uleb128 0
 1201 008c 00       		.uleb128 0
 1202 008d F803     		.uleb128 .LEHB26-.LFB1045
 1203 008f 3E       		.uleb128 .LEHE26-.LEHB26
 1204 0090 DD03     		.uleb128 .L52-.LFB1045
 1205 0092 00       		.uleb128 0
 1206 0093 B604     		.uleb128 .LEHB27-.LFB1045
 1207 0095 05       		.uleb128 .LEHE27-.LEHB27
 1208 0096 00       		.uleb128 0
 1209 0097 00       		.uleb128 0
 1210              	.LLSDACSE1045:
 1211 0098 01       		.byte	0x1
 1212 0099 00       		.byte	0
 1213 009a 0000     		.align 4
 1214 009c 00000000 		.long	0
 1215              	
 1216              	.LLSDATT1045:
 1217              		.text
 1219              		.section	.rodata
 1220              	.LC13:
 1221 0106 4661696C 		.string	"FailureReportsCorrectTestName"
 1221      75726552 
 1221      65706F72 
 1221      7473436F 
 1221      72726563 
 1222              		.text
 1223              		.align 2
 1225              	_ZN12_GLOBAL__N_133TestFailureReportsCorrectTestNameC2Ev:
 1226              	.LFB1047:
  39:TestCheckMacros.cpp **** 
  40:TestCheckMacros.cpp **** TEST(FailureReportsCorrectTestName)
 1227              		.loc 6 40 0 is_stmt 1
 1228              		.cfi_startproc
 1229 0536 55       		pushq	%rbp
 1230              		.cfi_def_cfa_offset 16
 1231              		.cfi_offset 6, -16
 1232 0537 4889E5   		movq	%rsp, %rbp
 1233              		.cfi_def_cfa_register 6
 1234 053a 4883EC10 		subq	$16, %rsp
 1235 053e 48897DF8 		movq	%rdi, -8(%rbp)
 1236              	.LBB19:
 1237              		.loc 6 40 0
 1238 0542 E8000000 		call	_ZN13UnitTestSuite12GetSuiteNameEv
 1238      00
 1239 0547 4889C2   		movq	%rax, %rdx
 1240 054a 488B45F8 		movq	-8(%rbp), %rax
 1241 054e 41B82800 		movl	$40, %r8d
 1241      0000
 1242 0554 B9000000 		movl	$.LC2, %ecx
 1242      00
 1243 0559 BE000000 		movl	$.LC13, %esi
 1243      00
 1244 055e 4889C7   		movq	%rax, %rdi
 1245 0561 E8000000 		call	_ZN8UnitTest4TestC2EPKcS2_S2_i
 1245      00
 1246 0566 488B45F8 		movq	-8(%rbp), %rax
 1247 056a 48C70000 		movq	$_ZTVN12_GLOBAL__N_133TestFailureReportsCorrectTestNameE+16, (%rax)
 1247      000000
 1248              	.LBE19:
 1249 0571 C9       		leave
 1250              		.cfi_def_cfa 7, 8
 1251 0572 C3       		ret
 1252              		.cfi_endproc
 1253              	.LFE1047:
 1255              		.set	_ZN12_GLOBAL__N_133TestFailureReportsCorrectTestNameC1Ev,_ZN12_GLOBAL__N_133TestFailureReport
 1256              		.local	_ZN12_GLOBAL__N_141testFailureReportsCorrectTestNameInstanceE
 1257              		.comm	_ZN12_GLOBAL__N_141testFailureReportsCorrectTestNameInstanceE,56,32
 1258              		.local	_ZN12_GLOBAL__N_134adderFailureReportsCorrectTestNameE
 1259              		.comm	_ZN12_GLOBAL__N_134adderFailureReportsCorrectTestNameE,1,1
 1260              		.section	.rodata
 1261 0124 00000000 		.align 8
 1262              	.LC14:
 1263 0128 556E6861 		.string	"Unhandled exception in CHECK_EQUAL(m_details.testName, reporter.lastFailedTest)"
 1263      6E646C65 
 1263      64206578 
 1263      63657074 
 1263      696F6E20 
 1264              		.text
 1265 0573 90       		.align 2
 1267              	_ZNK12_GLOBAL__N_133TestFailureReportsCorrectTestName7RunImplEv:
 1268              	.LFB1049:
  41:TestCheckMacros.cpp **** {
 1269              		.loc 6 41 0
 1270              		.cfi_startproc
 1271              		.cfi_personality 0x3,__gxx_personality_v0
 1272              		.cfi_lsda 0x3,.LLSDA1049
 1273 0574 55       		pushq	%rbp
 1274              		.cfi_def_cfa_offset 16
 1275              		.cfi_offset 6, -16
 1276 0575 4889E5   		movq	%rsp, %rbp
 1277              		.cfi_def_cfa_register 6
 1278 0578 53       		pushq	%rbx
 1279 0579 4881ECA8 		subq	$2216, %rsp
 1279      080000
 1280              		.cfi_offset 3, -24
 1281 0580 4889BD58 		movq	%rdi, -2216(%rbp)
 1281      F7FFFF
 1282              		.loc 6 41 0
 1283 0587 64488B04 		movq	%fs:40, %rax
 1283      25280000 
 1283      00
 1284 0590 488945E8 		movq	%rax, -24(%rbp)
 1285 0594 31C0     		xorl	%eax, %eax
 1286              	.LBB20:
  42:TestCheckMacros.cpp ****     RecordingReporter reporter;
 1287              		.loc 6 42 0
 1288 0596 488D85B0 		leaq	-2128(%rbp), %rax
 1288      F7FFFF
 1289 059d 4889C7   		movq	%rax, %rdi
 1290 05a0 E8000000 		call	_ZN17RecordingReporterC1Ev
 1290      00
 1291              	.LBB21:
  43:TestCheckMacros.cpp ****     {
  44:TestCheckMacros.cpp ****         UnitTest::TestResults testResults(&reporter);
 1292              		.loc 6 44 0
 1293 05a5 488D95B0 		leaq	-2128(%rbp), %rdx
 1293      F7FFFF
 1294 05ac 488D8570 		leaq	-2192(%rbp), %rax
 1294      F7FFFF
 1295 05b3 4889D6   		movq	%rdx, %rsi
 1296 05b6 4889C7   		movq	%rax, %rdi
 1297              	.LEHB28:
 1298 05b9 E8000000 		call	_ZN8UnitTest11TestResultsC1EPNS_12TestReporterE
 1298      00
  45:TestCheckMacros.cpp **** 		ScopedCurrentTest scopedResults(testResults);
 1299              		.loc 6 45 0
 1300 05be 488D8D70 		leaq	-2192(%rbp), %rcx
 1300      F7FFFF
 1301 05c5 488D8560 		leaq	-2208(%rbp), %rax
 1301      F7FFFF
 1302 05cc BA000000 		movl	$0, %edx
 1302      00
 1303 05d1 4889CE   		movq	%rcx, %rsi
 1304 05d4 4889C7   		movq	%rax, %rdi
 1305 05d7 E8000000 		call	_ZN17ScopedCurrentTestC1ERN8UnitTest11TestResultsEPKNS0_11TestDetailsE
 1305      00
 1306              	.LEHE28:
  46:TestCheckMacros.cpp ****         CHECK(false);
 1307              		.loc 6 46 0
 1308 05dc BF000000 		movl	$0, %edi
 1308      00
 1309 05e1 E8000000 		call	_ZN8UnitTest5CheckIbEEbT_
 1309      00
 1310 05e6 83F001   		xorl	$1, %eax
 1311 05e9 84C0     		testb	%al, %al
 1312 05eb 743E     		je	.L55
 1313              	.LEHB29:
 1314              		.loc 6 46 0 is_stmt 0 discriminator 1
 1315 05ed E8000000 		call	_ZN8UnitTest11CurrentTest7DetailsEv
 1315      00
 1316 05f2 488B08   		movq	(%rax), %rcx
 1317 05f5 488D8590 		leaq	-2160(%rbp), %rax
 1317      F7FFFF
 1318 05fc BA2E0000 		movl	$46, %edx
 1318      00
 1319 0601 4889CE   		movq	%rcx, %rsi
 1320 0604 4889C7   		movq	%rax, %rdi
 1321 0607 E8000000 		call	_ZN8UnitTest11TestDetailsC1ERKS0_i
 1321      00
 1322 060c E8000000 		call	_ZN8UnitTest11CurrentTest7ResultsEv
 1322      00
 1323 0611 488B00   		movq	(%rax), %rax
 1324 0614 488D8D90 		leaq	-2160(%rbp), %rcx
 1324      F7FFFF
 1325 061b BA000000 		movl	$.LC9, %edx
 1325      00
 1326 0620 4889CE   		movq	%rcx, %rsi
 1327 0623 4889C7   		movq	%rax, %rdi
 1328 0626 E8000000 		call	_ZN8UnitTest11TestResults13OnTestFailureERKNS_11TestDetailsEPKc
 1328      00
 1329              	.LEHE29:
 1330              	.L55:
 1331              		.loc 6 46 0 discriminator 2
 1332 062b 488D8560 		leaq	-2208(%rbp), %rax
 1332      F7FFFF
 1333 0632 4889C7   		movq	%rax, %rdi
 1334              	.LEHB30:
 1335 0635 E8000000 		call	_ZN17ScopedCurrentTestD1Ev
 1335      00
 1336              	.LEHE30:
 1337              	.LEHB31:
 1338              	.LBE21:
  47:TestCheckMacros.cpp ****     }
  48:TestCheckMacros.cpp **** 
  49:TestCheckMacros.cpp ****     CHECK_EQUAL(m_details.testName, reporter.lastFailedTest);
 1339              		.loc 6 49 0 is_stmt 1
 1340 063a E8000000 		call	_ZN8UnitTest11CurrentTest7DetailsEv
 1340      00
 1341 063f 488B08   		movq	(%rax), %rcx
 1342 0642 488D8590 		leaq	-2160(%rbp), %rax
 1342      F7FFFF
 1343 0649 BA310000 		movl	$49, %edx
 1343      00
 1344 064e 4889CE   		movq	%rcx, %rsi
 1345 0651 4889C7   		movq	%rax, %rdi
 1346 0654 E8000000 		call	_ZN8UnitTest11TestDetailsC1ERKS0_i
 1346      00
 1347              		.loc 6 49 0 is_stmt 0 discriminator 1
 1348 0659 488B8558 		movq	-2216(%rbp), %rax
 1348      F7FFFF
 1349 0660 488B5810 		movq	16(%rax), %rbx
 1350 0664 E8000000 		call	_ZN8UnitTest11CurrentTest7ResultsEv
 1350      00
 1351 0669 488B00   		movq	(%rax), %rax
 1352 066c 488D9590 		leaq	-2160(%rbp), %rdx
 1352      F7FFFF
 1353 0673 488D8DB0 		leaq	-2128(%rbp), %rcx
 1353      F7FFFF
 1354 067a 488DB114 		leaq	1044(%rcx), %rsi
 1354      040000
 1355 0681 4889D1   		movq	%rdx, %rcx
 1356 0684 4889F2   		movq	%rsi, %rdx
 1357 0687 4889DE   		movq	%rbx, %rsi
 1358 068a 4889C7   		movq	%rax, %rdi
 1359 068d E8000000 		call	_ZN8UnitTest10CheckEqualERNS_11TestResultsEPKcPcRKNS_11TestDetailsE
 1359      00
 1360              	.LEHE31:
 1361              	.L62:
 1362              		.loc 6 49 0 discriminator 2
 1363 0692 488D85B0 		leaq	-2128(%rbp), %rax
 1363      F7FFFF
 1364 0699 4889C7   		movq	%rax, %rdi
 1365              	.LEHB32:
 1366 069c E8000000 		call	_ZN17RecordingReporterD1Ev
 1366      00
 1367              	.LEHE32:
 1368              	.LBE20:
  50:TestCheckMacros.cpp **** }
 1369              		.loc 6 50 0 is_stmt 1 discriminator 2
 1370 06a1 488B45E8 		movq	-24(%rbp), %rax
 1371 06a5 64483304 		xorq	%fs:40, %rax
 1371      25280000 
 1371      00
 1372 06ae 0F84EF00 		je	.L63
 1372      0000
 1373 06b4 E9E50000 		jmp	.L70
 1373      00
 1374              	.L66:
 1375 06b9 4889C3   		movq	%rax, %rbx
 1376              	.LBB23:
 1377              	.LBB22:
  46:TestCheckMacros.cpp ****         CHECK(false);
 1378              		.loc 6 46 0
 1379 06bc E8000000 		call	__cxa_end_catch
 1379      00
 1380 06c1 EB53     		jmp	.L57
 1381              	.L64:
 1382 06c3 4889C7   		movq	%rax, %rdi
 1383 06c6 E8000000 		call	__cxa_begin_catch
 1383      00
 1384              	.LEHB33:
 1385 06cb E8000000 		call	_ZN8UnitTest11CurrentTest7DetailsEv
 1385      00
 1386 06d0 488B08   		movq	(%rax), %rcx
 1387 06d3 488D8590 		leaq	-2160(%rbp), %rax
 1387      F7FFFF
 1388 06da BA2E0000 		movl	$46, %edx
 1388      00
 1389 06df 4889CE   		movq	%rcx, %rsi
 1390 06e2 4889C7   		movq	%rax, %rdi
 1391 06e5 E8000000 		call	_ZN8UnitTest11TestDetailsC1ERKS0_i
 1391      00
  46:TestCheckMacros.cpp ****         CHECK(false);
 1392              		.loc 6 46 0 is_stmt 0 discriminator 1
 1393 06ea E8000000 		call	_ZN8UnitTest11CurrentTest7ResultsEv
 1393      00
 1394 06ef 488B00   		movq	(%rax), %rax
 1395 06f2 488D8D90 		leaq	-2160(%rbp), %rcx
 1395      F7FFFF
 1396 06f9 BA000000 		movl	$.LC11, %edx
 1396      00
 1397 06fe 4889CE   		movq	%rcx, %rsi
 1398 0701 4889C7   		movq	%rax, %rdi
 1399 0704 E8000000 		call	_ZN8UnitTest11TestResults13OnTestFailureERKNS_11TestDetailsEPKc
 1399      00
 1400              	.LEHE33:
 1401              	.LEHB34:
 1402 0709 E8000000 		call	__cxa_end_catch
 1402      00
 1403              	.LEHE34:
  46:TestCheckMacros.cpp ****         CHECK(false);
 1404              		.loc 6 46 0
 1405 070e E918FFFF 		jmp	.L55
 1405      FF
 1406              	.L65:
 1407 0713 4889C3   		movq	%rax, %rbx
 1408              	.L57:
 1409 0716 488D8560 		leaq	-2208(%rbp), %rax
 1409      F7FFFF
 1410 071d 4889C7   		movq	%rax, %rdi
 1411 0720 E8000000 		call	_ZN17ScopedCurrentTestD1Ev
 1411      00
 1412 0725 EB5D     		jmp	.L59
 1413              	.L69:
 1414 0727 4889C3   		movq	%rax, %rbx
 1415              	.LBE22:
  49:TestCheckMacros.cpp **** }
 1416              		.loc 6 49 0 is_stmt 1
 1417 072a E8000000 		call	__cxa_end_catch
 1417      00
 1418 072f EB53     		jmp	.L59
 1419              	.L68:
 1420 0731 4889C7   		movq	%rax, %rdi
 1421 0734 E8000000 		call	__cxa_begin_catch
 1421      00
 1422              	.LEHB35:
 1423 0739 E8000000 		call	_ZN8UnitTest11CurrentTest7DetailsEv
 1423      00
 1424 073e 488B08   		movq	(%rax), %rcx
 1425 0741 488D8590 		leaq	-2160(%rbp), %rax
 1425      F7FFFF
 1426 0748 BA310000 		movl	$49, %edx
 1426      00
 1427 074d 4889CE   		movq	%rcx, %rsi
 1428 0750 4889C7   		movq	%rax, %rdi
 1429 0753 E8000000 		call	_ZN8UnitTest11TestDetailsC1ERKS0_i
 1429      00
  49:TestCheckMacros.cpp **** }
 1430              		.loc 6 49 0 is_stmt 0 discriminator 1
 1431 0758 E8000000 		call	_ZN8UnitTest11CurrentTest7ResultsEv
 1431      00
 1432 075d 488B00   		movq	(%rax), %rax
 1433 0760 488D8D90 		leaq	-2160(%rbp), %rcx
 1433      F7FFFF
 1434 0767 BA000000 		movl	$.LC14, %edx
 1434      00
 1435 076c 4889CE   		movq	%rcx, %rsi
 1436 076f 4889C7   		movq	%rax, %rdi
 1437 0772 E8000000 		call	_ZN8UnitTest11TestResults13OnTestFailureERKNS_11TestDetailsEPKc
 1437      00
 1438              	.LEHE35:
 1439              	.LEHB36:
 1440 0777 E8000000 		call	__cxa_end_catch
 1440      00
 1441              	.LEHE36:
  49:TestCheckMacros.cpp **** }
 1442              		.loc 6 49 0
 1443 077c E911FFFF 		jmp	.L62
 1443      FF
 1444              	.L67:
 1445 0781 4889C3   		movq	%rax, %rbx
 1446              	.L59:
 1447 0784 488D85B0 		leaq	-2128(%rbp), %rax
 1447      F7FFFF
 1448 078b 4889C7   		movq	%rax, %rdi
 1449 078e E8000000 		call	_ZN17RecordingReporterD1Ev
 1449      00
 1450 0793 4889D8   		movq	%rbx, %rax
 1451 0796 4889C7   		movq	%rax, %rdi
 1452              	.LEHB37:
 1453 0799 E8000000 		call	_Unwind_Resume
 1453      00
 1454              	.LEHE37:
 1455              	.L70:
 1456              	.LBE23:
 1457              		.loc 6 50 0 is_stmt 1
 1458 079e E8000000 		call	__stack_chk_fail
 1458      00
 1459              	.L63:
 1460 07a3 4881C4A8 		addq	$2216, %rsp
 1460      080000
 1461 07aa 5B       		popq	%rbx
 1462 07ab 5D       		popq	%rbp
 1463              		.cfi_def_cfa 7, 8
 1464 07ac C3       		ret
 1465              		.cfi_endproc
 1466              	.LFE1049:
 1467              		.section	.gcc_except_table
 1468              		.align 4
 1469              	.LLSDA1049:
 1470 00a0 FF       		.byte	0xff
 1471 00a1 03       		.byte	0x3
 1472 00a2 41       		.uleb128 .LLSDATT1049-.LLSDATTD1049
 1473              	.LLSDATTD1049:
 1474 00a3 01       		.byte	0x1
 1475 00a4 38       		.uleb128 .LLSDACSE1049-.LLSDACSB1049
 1476              	.LLSDACSB1049:
 1477 00a5 45       		.uleb128 .LEHB28-.LFB1049
 1478 00a6 23       		.uleb128 .LEHE28-.LEHB28
 1479 00a7 8D04     		.uleb128 .L67-.LFB1049
 1480 00a9 00       		.uleb128 0
 1481 00aa 79       		.uleb128 .LEHB29-.LFB1049
 1482 00ab 3E       		.uleb128 .LEHE29-.LEHB29
 1483 00ac CF02     		.uleb128 .L64-.LFB1049
 1484 00ae 01       		.uleb128 0x1
 1485 00af C101     		.uleb128 .LEHB30-.LFB1049
 1486 00b1 05       		.uleb128 .LEHE30-.LEHB30
 1487 00b2 8D04     		.uleb128 .L67-.LFB1049
 1488 00b4 00       		.uleb128 0
 1489 00b5 C601     		.uleb128 .LEHB31-.LFB1049
 1490 00b7 58       		.uleb128 .LEHE31-.LEHB31
 1491 00b8 BD03     		.uleb128 .L68-.LFB1049
 1492 00ba 01       		.uleb128 0x1
 1493 00bb A802     		.uleb128 .LEHB32-.LFB1049
 1494 00bd 05       		.uleb128 .LEHE32-.LEHB32
 1495 00be 00       		.uleb128 0
 1496 00bf 00       		.uleb128 0
 1497 00c0 D702     		.uleb128 .LEHB33-.LFB1049
 1498 00c2 3E       		.uleb128 .LEHE33-.LEHB33
 1499 00c3 C502     		.uleb128 .L66-.LFB1049
 1500 00c5 00       		.uleb128 0
 1501 00c6 9503     		.uleb128 .LEHB34-.LFB1049
 1502 00c8 05       		.uleb128 .LEHE34-.LEHB34
 1503 00c9 9F03     		.uleb128 .L65-.LFB1049
 1504 00cb 00       		.uleb128 0
 1505 00cc C503     		.uleb128 .LEHB35-.LFB1049
 1506 00ce 3E       		.uleb128 .LEHE35-.LEHB35
 1507 00cf B303     		.uleb128 .L69-.LFB1049
 1508 00d1 00       		.uleb128 0
 1509 00d2 8304     		.uleb128 .LEHB36-.LFB1049
 1510 00d4 05       		.uleb128 .LEHE36-.LEHB36
 1511 00d5 8D04     		.uleb128 .L67-.LFB1049
 1512 00d7 00       		.uleb128 0
 1513 00d8 A504     		.uleb128 .LEHB37-.LFB1049
 1514 00da 05       		.uleb128 .LEHE37-.LEHB37
 1515 00db 00       		.uleb128 0
 1516 00dc 00       		.uleb128 0
 1517              	.LLSDACSE1049:
 1518 00dd 01       		.byte	0x1
 1519 00de 00       		.byte	0
 1520 00df 00       		.align 4
 1521 00e0 00000000 		.long	0
 1522              	
 1523              	.LLSDATT1049:
 1524              		.text
 1526              		.section	.rodata
 1527              		.align 8
 1528              	.LC15:
 1529 0178 43686563 		.string	"CheckFailureIncludesCheckContents"
 1529      6B466169 
 1529      6C757265 
 1529      496E636C 
 1529      75646573 
 1530              		.text
 1531 07ad 90       		.align 2
 1533              	_ZN12_GLOBAL__N_137TestCheckFailureIncludesCheckContentsC2Ev:
 1534              	.LFB1051:
  51:TestCheckMacros.cpp **** 
  52:TestCheckMacros.cpp **** TEST(CheckFailureIncludesCheckContents)
 1535              		.loc 6 52 0
 1536              		.cfi_startproc
 1537 07ae 55       		pushq	%rbp
 1538              		.cfi_def_cfa_offset 16
 1539              		.cfi_offset 6, -16
 1540 07af 4889E5   		movq	%rsp, %rbp
 1541              		.cfi_def_cfa_register 6
 1542 07b2 4883EC10 		subq	$16, %rsp
 1543 07b6 48897DF8 		movq	%rdi, -8(%rbp)
 1544              	.LBB24:
 1545              		.loc 6 52 0
 1546 07ba E8000000 		call	_ZN13UnitTestSuite12GetSuiteNameEv
 1546      00
 1547 07bf 4889C2   		movq	%rax, %rdx
 1548 07c2 488B45F8 		movq	-8(%rbp), %rax
 1549 07c6 41B83400 		movl	$52, %r8d
 1549      0000
 1550 07cc B9000000 		movl	$.LC2, %ecx
 1550      00
 1551 07d1 BE000000 		movl	$.LC15, %esi
 1551      00
 1552 07d6 4889C7   		movq	%rax, %rdi
 1553 07d9 E8000000 		call	_ZN8UnitTest4TestC2EPKcS2_S2_i
 1553      00
 1554 07de 488B45F8 		movq	-8(%rbp), %rax
 1555 07e2 48C70000 		movq	$_ZTVN12_GLOBAL__N_137TestCheckFailureIncludesCheckContentsE+16, (%rax)
 1555      000000
 1556              	.LBE24:
 1557 07e9 C9       		leave
 1558              		.cfi_def_cfa 7, 8
 1559 07ea C3       		ret
 1560              		.cfi_endproc
 1561              	.LFE1051:
 1563              		.set	_ZN12_GLOBAL__N_137TestCheckFailureIncludesCheckContentsC1Ev,_ZN12_GLOBAL__N_137TestCheckFail
 1564              		.local	_ZN12_GLOBAL__N_145testCheckFailureIncludesCheckContentsInstanceE
 1565              		.comm	_ZN12_GLOBAL__N_145testCheckFailureIncludesCheckContentsInstanceE,56,32
 1566              		.local	_ZN12_GLOBAL__N_138adderCheckFailureIncludesCheckContentsE
 1567              		.comm	_ZN12_GLOBAL__N_138adderCheckFailureIncludesCheckContentsE,1,1
 1568              		.section	.rodata
 1569              	.LC16:
 1570 019a 79616464 		.string	"yaddayadda"
 1570      61796164 
 1570      646100
 1571 01a5 000000   		.align 8
 1572              	.LC17:
 1573 01a8 73747273 		.string	"strstr(reporter.lastFailedMessage, \"yaddayadda\")"
 1573      74722872 
 1573      65706F72 
 1573      7465722E 
 1573      6C617374 
 1574 01d9 00000000 		.align 8
 1574      000000
 1575              	.LC18:
 1576 01e0 556E6861 		.string	"Unhandled exception in CHECK(yaddayadda)"
 1576      6E646C65 
 1576      64206578 
 1576      63657074 
 1576      696F6E20 
 1577 0209 00000000 		.align 8
 1577      000000
 1578              	.LC19:
 1579 0210 556E6861 		.string	"Unhandled exception in CHECK(strstr(reporter.lastFailedMessage, \"yaddayadda\"))"
 1579      6E646C65 
 1579      64206578 
 1579      63657074 
 1579      696F6E20 
 1580              		.text
 1581 07eb 90       		.align 2
 1583              	_ZNK12_GLOBAL__N_137TestCheckFailureIncludesCheckContents7RunImplEv:
 1584              	.LFB1053:
  53:TestCheckMacros.cpp **** {
 1585              		.loc 6 53 0
 1586              		.cfi_startproc
 1587              		.cfi_personality 0x3,__gxx_personality_v0
 1588              		.cfi_lsda 0x3,.LLSDA1053
 1589 07ec 55       		pushq	%rbp
 1590              		.cfi_def_cfa_offset 16
 1591              		.cfi_offset 6, -16
 1592 07ed 4889E5   		movq	%rsp, %rbp
 1593              		.cfi_def_cfa_register 6
 1594 07f0 53       		pushq	%rbx
 1595 07f1 4881ECB8 		subq	$2232, %rsp
 1595      080000
 1596              		.cfi_offset 3, -24
 1597 07f8 4889BD48 		movq	%rdi, -2232(%rbp)
 1597      F7FFFF
 1598              		.loc 6 53 0
 1599 07ff 64488B04 		movq	%fs:40, %rax
 1599      25280000 
 1599      00
 1600 0808 488945E8 		movq	%rax, -24(%rbp)
 1601 080c 31C0     		xorl	%eax, %eax
 1602              	.LBB25:
  54:TestCheckMacros.cpp ****     RecordingReporter reporter;
 1603              		.loc 6 54 0
 1604 080e 488D85B0 		leaq	-2128(%rbp), %rax
 1604      F7FFFF
 1605 0815 4889C7   		movq	%rax, %rdi
 1606 0818 E8000000 		call	_ZN17RecordingReporterC1Ev
 1606      00
 1607              	.LBB26:
  55:TestCheckMacros.cpp ****     {
  56:TestCheckMacros.cpp ****         UnitTest::TestResults testResults(&reporter);
 1608              		.loc 6 56 0
 1609 081d 488D95B0 		leaq	-2128(%rbp), %rdx
 1609      F7FFFF
 1610 0824 488D8570 		leaq	-2192(%rbp), %rax
 1610      F7FFFF
 1611 082b 4889D6   		movq	%rdx, %rsi
 1612 082e 4889C7   		movq	%rax, %rdi
 1613              	.LEHB38:
 1614 0831 E8000000 		call	_ZN8UnitTest11TestResultsC1EPNS_12TestReporterE
 1614      00
  57:TestCheckMacros.cpp **** 		ScopedCurrentTest scopedResults(testResults);
 1615              		.loc 6 57 0
 1616 0836 488D8D70 		leaq	-2192(%rbp), %rcx
 1616      F7FFFF
 1617 083d 488D8560 		leaq	-2208(%rbp), %rax
 1617      F7FFFF
 1618 0844 BA000000 		movl	$0, %edx
 1618      00
 1619 0849 4889CE   		movq	%rcx, %rsi
 1620 084c 4889C7   		movq	%rax, %rdi
 1621 084f E8000000 		call	_ZN17ScopedCurrentTestC1ERN8UnitTest11TestResultsEPKNS0_11TestDetailsE
 1621      00
 1622              	.LEHE38:
  58:TestCheckMacros.cpp ****         const bool yaddayadda = false;
 1623              		.loc 6 58 0
 1624 0854 C6855FF7 		movb	$0, -2209(%rbp)
 1624      FFFF00
  59:TestCheckMacros.cpp ****         CHECK(yaddayadda);
 1625              		.loc 6 59 0
 1626 085b BF000000 		movl	$0, %edi
 1626      00
 1627 0860 E8000000 		call	_ZN8UnitTest5CheckIbEEbT_
 1627      00
 1628 0865 83F001   		xorl	$1, %eax
 1629 0868 84C0     		testb	%al, %al
 1630 086a 743E     		je	.L73
 1631              	.LEHB39:
 1632              		.loc 6 59 0 is_stmt 0 discriminator 1
 1633 086c E8000000 		call	_ZN8UnitTest11CurrentTest7DetailsEv
 1633      00
 1634 0871 488B08   		movq	(%rax), %rcx
 1635 0874 488D8590 		leaq	-2160(%rbp), %rax
 1635      F7FFFF
 1636 087b BA3B0000 		movl	$59, %edx
 1636      00
 1637 0880 4889CE   		movq	%rcx, %rsi
 1638 0883 4889C7   		movq	%rax, %rdi
 1639 0886 E8000000 		call	_ZN8UnitTest11TestDetailsC1ERKS0_i
 1639      00
 1640 088b E8000000 		call	_ZN8UnitTest11CurrentTest7ResultsEv
 1640      00
 1641 0890 488B00   		movq	(%rax), %rax
 1642 0893 488D8D90 		leaq	-2160(%rbp), %rcx
 1642      F7FFFF
 1643 089a BA000000 		movl	$.LC16, %edx
 1643      00
 1644 089f 4889CE   		movq	%rcx, %rsi
 1645 08a2 4889C7   		movq	%rax, %rdi
 1646 08a5 E8000000 		call	_ZN8UnitTest11TestResults13OnTestFailureERKNS_11TestDetailsEPKc
 1646      00
 1647              	.LEHE39:
 1648              	.L73:
 1649              		.loc 6 59 0 discriminator 2
 1650 08aa 488D8560 		leaq	-2208(%rbp), %rax
 1650      F7FFFF
 1651 08b1 4889C7   		movq	%rax, %rdi
 1652              	.LEHB40:
 1653 08b4 E8000000 		call	_ZN17ScopedCurrentTestD1Ev
 1653      00
 1654              	.LEHE40:
 1655              	.LBE26:
  60:TestCheckMacros.cpp ****     }
  61:TestCheckMacros.cpp **** 
  62:TestCheckMacros.cpp ****     CHECK(strstr(reporter.lastFailedMessage, "yaddayadda"));
 1656              		.loc 6 62 0 is_stmt 1
 1657 08b9 488D85B0 		leaq	-2128(%rbp), %rax
 1657      F7FFFF
 1658 08c0 48051405 		addq	$1300, %rax
 1658      0000
 1659 08c6 BE000000 		movl	$.LC16, %esi
 1659      00
 1660 08cb 4889C7   		movq	%rax, %rdi
 1661 08ce E8000000 		call	strstr
 1661      00
 1662 08d3 4889C7   		movq	%rax, %rdi
 1663 08d6 E8000000 		call	_ZN8UnitTest5CheckIPcEEbT_
 1663      00
 1664 08db 83F001   		xorl	$1, %eax
 1665 08de 84C0     		testb	%al, %al
 1666 08e0 743E     		je	.L74
 1667              	.LEHB41:
 1668              		.loc 6 62 0 is_stmt 0 discriminator 1
 1669 08e2 E8000000 		call	_ZN8UnitTest11CurrentTest7DetailsEv
 1669      00
 1670 08e7 488B08   		movq	(%rax), %rcx
 1671 08ea 488D8590 		leaq	-2160(%rbp), %rax
 1671      F7FFFF
 1672 08f1 BA3E0000 		movl	$62, %edx
 1672      00
 1673 08f6 4889CE   		movq	%rcx, %rsi
 1674 08f9 4889C7   		movq	%rax, %rdi
 1675 08fc E8000000 		call	_ZN8UnitTest11TestDetailsC1ERKS0_i
 1675      00
 1676 0901 E8000000 		call	_ZN8UnitTest11CurrentTest7ResultsEv
 1676      00
 1677 0906 488B00   		movq	(%rax), %rax
 1678 0909 488D8D90 		leaq	-2160(%rbp), %rcx
 1678      F7FFFF
 1679 0910 BA000000 		movl	$.LC17, %edx
 1679      00
 1680 0915 4889CE   		movq	%rcx, %rsi
 1681 0918 4889C7   		movq	%rax, %rdi
 1682 091b E8000000 		call	_ZN8UnitTest11TestResults13OnTestFailureERKNS_11TestDetailsEPKc
 1682      00
 1683              	.LEHE41:
 1684              	.L74:
 1685              		.loc 6 62 0 discriminator 2
 1686 0920 488D85B0 		leaq	-2128(%rbp), %rax
 1686      F7FFFF
 1687 0927 4889C7   		movq	%rax, %rdi
 1688              	.LEHB42:
 1689 092a E8000000 		call	_ZN17RecordingReporterD1Ev
 1689      00
 1690              	.LEHE42:
 1691              	.LBE25:
  63:TestCheckMacros.cpp **** }
 1692              		.loc 6 63 0 is_stmt 1 discriminator 2
 1693 092f 488B45E8 		movq	-24(%rbp), %rax
 1694 0933 64483304 		xorq	%fs:40, %rax
 1694      25280000 
 1694      00
 1695 093c 0F84EF00 		je	.L81
 1695      0000
 1696 0942 E9E50000 		jmp	.L88
 1696      00
 1697              	.L84:
 1698 0947 4889C3   		movq	%rax, %rbx
 1699              	.LBB28:
 1700              	.LBB27:
  59:TestCheckMacros.cpp ****         CHECK(yaddayadda);
 1701              		.loc 6 59 0
 1702 094a E8000000 		call	__cxa_end_catch
 1702      00
 1703 094f EB53     		jmp	.L76
 1704              	.L82:
 1705 0951 4889C7   		movq	%rax, %rdi
 1706 0954 E8000000 		call	__cxa_begin_catch
 1706      00
 1707              	.LEHB43:
 1708 0959 E8000000 		call	_ZN8UnitTest11CurrentTest7DetailsEv
 1708      00
 1709 095e 488B08   		movq	(%rax), %rcx
 1710 0961 488D8590 		leaq	-2160(%rbp), %rax
 1710      F7FFFF
 1711 0968 BA3B0000 		movl	$59, %edx
 1711      00
 1712 096d 4889CE   		movq	%rcx, %rsi
 1713 0970 4889C7   		movq	%rax, %rdi
 1714 0973 E8000000 		call	_ZN8UnitTest11TestDetailsC1ERKS0_i
 1714      00
  59:TestCheckMacros.cpp ****         CHECK(yaddayadda);
 1715              		.loc 6 59 0 is_stmt 0 discriminator 1
 1716 0978 E8000000 		call	_ZN8UnitTest11CurrentTest7ResultsEv
 1716      00
 1717 097d 488B00   		movq	(%rax), %rax
 1718 0980 488D8D90 		leaq	-2160(%rbp), %rcx
 1718      F7FFFF
 1719 0987 BA000000 		movl	$.LC18, %edx
 1719      00
 1720 098c 4889CE   		movq	%rcx, %rsi
 1721 098f 4889C7   		movq	%rax, %rdi
 1722 0992 E8000000 		call	_ZN8UnitTest11TestResults13OnTestFailureERKNS_11TestDetailsEPKc
 1722      00
 1723              	.LEHE43:
 1724              	.LEHB44:
 1725 0997 E8000000 		call	__cxa_end_catch
 1725      00
 1726              	.LEHE44:
  59:TestCheckMacros.cpp ****         CHECK(yaddayadda);
 1727              		.loc 6 59 0
 1728 099c E909FFFF 		jmp	.L73
 1728      FF
 1729              	.L83:
 1730 09a1 4889C3   		movq	%rax, %rbx
 1731              	.L76:
 1732 09a4 488D8560 		leaq	-2208(%rbp), %rax
 1732      F7FFFF
 1733 09ab 4889C7   		movq	%rax, %rdi
 1734 09ae E8000000 		call	_ZN17ScopedCurrentTestD1Ev
 1734      00
 1735 09b3 EB5D     		jmp	.L78
 1736              	.L87:
 1737 09b5 4889C3   		movq	%rax, %rbx
 1738              	.LBE27:
  62:TestCheckMacros.cpp **** }
 1739              		.loc 6 62 0 is_stmt 1
 1740 09b8 E8000000 		call	__cxa_end_catch
 1740      00
 1741 09bd EB53     		jmp	.L78
 1742              	.L86:
 1743 09bf 4889C7   		movq	%rax, %rdi
 1744 09c2 E8000000 		call	__cxa_begin_catch
 1744      00
 1745              	.LEHB45:
 1746 09c7 E8000000 		call	_ZN8UnitTest11CurrentTest7DetailsEv
 1746      00
 1747 09cc 488B08   		movq	(%rax), %rcx
 1748 09cf 488D8590 		leaq	-2160(%rbp), %rax
 1748      F7FFFF
 1749 09d6 BA3E0000 		movl	$62, %edx
 1749      00
 1750 09db 4889CE   		movq	%rcx, %rsi
 1751 09de 4889C7   		movq	%rax, %rdi
 1752 09e1 E8000000 		call	_ZN8UnitTest11TestDetailsC1ERKS0_i
 1752      00
  62:TestCheckMacros.cpp **** }
 1753              		.loc 6 62 0 is_stmt 0 discriminator 1
 1754 09e6 E8000000 		call	_ZN8UnitTest11CurrentTest7ResultsEv
 1754      00
 1755 09eb 488B00   		movq	(%rax), %rax
 1756 09ee 488D8D90 		leaq	-2160(%rbp), %rcx
 1756      F7FFFF
 1757 09f5 BA000000 		movl	$.LC19, %edx
 1757      00
 1758 09fa 4889CE   		movq	%rcx, %rsi
 1759 09fd 4889C7   		movq	%rax, %rdi
 1760 0a00 E8000000 		call	_ZN8UnitTest11TestResults13OnTestFailureERKNS_11TestDetailsEPKc
 1760      00
 1761              	.LEHE45:
 1762              	.LEHB46:
 1763 0a05 E8000000 		call	__cxa_end_catch
 1763      00
 1764              	.LEHE46:
  62:TestCheckMacros.cpp **** }
 1765              		.loc 6 62 0
 1766 0a0a E911FFFF 		jmp	.L74
 1766      FF
 1767              	.L85:
 1768 0a0f 4889C3   		movq	%rax, %rbx
 1769              	.L78:
 1770 0a12 488D85B0 		leaq	-2128(%rbp), %rax
 1770      F7FFFF
 1771 0a19 4889C7   		movq	%rax, %rdi
 1772 0a1c E8000000 		call	_ZN17RecordingReporterD1Ev
 1772      00
 1773 0a21 4889D8   		movq	%rbx, %rax
 1774 0a24 4889C7   		movq	%rax, %rdi
 1775              	.LEHB47:
 1776 0a27 E8000000 		call	_Unwind_Resume
 1776      00
 1777              	.LEHE47:
 1778              	.L88:
 1779              	.LBE28:
 1780              		.loc 6 63 0 is_stmt 1
 1781 0a2c E8000000 		call	__stack_chk_fail
 1781      00
 1782              	.L81:
 1783 0a31 4881C4B8 		addq	$2232, %rsp
 1783      080000
 1784 0a38 5B       		popq	%rbx
 1785 0a39 5D       		popq	%rbp
 1786              		.cfi_def_cfa 7, 8
 1787 0a3a C3       		ret
 1788              		.cfi_endproc
 1789              	.LFE1053:
 1790              		.section	.gcc_except_table
 1791              		.align 4
 1792              	.LLSDA1053:
 1793 00e4 FF       		.byte	0xff
 1794 00e5 03       		.byte	0x3
 1795 00e6 41       		.uleb128 .LLSDATT1053-.LLSDATTD1053
 1796              	.LLSDATTD1053:
 1797 00e7 01       		.byte	0x1
 1798 00e8 39       		.uleb128 .LLSDACSE1053-.LLSDACSB1053
 1799              	.LLSDACSB1053:
 1800 00e9 45       		.uleb128 .LEHB38-.LFB1053
 1801 00ea 23       		.uleb128 .LEHE38-.LEHB38
 1802 00eb A304     		.uleb128 .L85-.LFB1053
 1803 00ed 00       		.uleb128 0
 1804 00ee 8001     		.uleb128 .LEHB39-.LFB1053
 1805 00f0 3E       		.uleb128 .LEHE39-.LEHB39
 1806 00f1 E502     		.uleb128 .L82-.LFB1053
 1807 00f3 01       		.uleb128 0x1
 1808 00f4 C801     		.uleb128 .LEHB40-.LFB1053
 1809 00f6 05       		.uleb128 .LEHE40-.LEHB40
 1810 00f7 A304     		.uleb128 .L85-.LFB1053
 1811 00f9 00       		.uleb128 0
 1812 00fa F601     		.uleb128 .LEHB41-.LFB1053
 1813 00fc 3E       		.uleb128 .LEHE41-.LEHB41
 1814 00fd D303     		.uleb128 .L86-.LFB1053
 1815 00ff 01       		.uleb128 0x1
 1816 0100 BE02     		.uleb128 .LEHB42-.LFB1053
 1817 0102 05       		.uleb128 .LEHE42-.LEHB42
 1818 0103 00       		.uleb128 0
 1819 0104 00       		.uleb128 0
 1820 0105 ED02     		.uleb128 .LEHB43-.LFB1053
 1821 0107 3E       		.uleb128 .LEHE43-.LEHB43
 1822 0108 DB02     		.uleb128 .L84-.LFB1053
 1823 010a 00       		.uleb128 0
 1824 010b AB03     		.uleb128 .LEHB44-.LFB1053
 1825 010d 05       		.uleb128 .LEHE44-.LEHB44
 1826 010e B503     		.uleb128 .L83-.LFB1053
 1827 0110 00       		.uleb128 0
 1828 0111 DB03     		.uleb128 .LEHB45-.LFB1053
 1829 0113 3E       		.uleb128 .LEHE45-.LEHB45
 1830 0114 C903     		.uleb128 .L87-.LFB1053
 1831 0116 00       		.uleb128 0
 1832 0117 9904     		.uleb128 .LEHB46-.LFB1053
 1833 0119 05       		.uleb128 .LEHE46-.LEHB46
 1834 011a A304     		.uleb128 .L85-.LFB1053
 1835 011c 00       		.uleb128 0
 1836 011d BB04     		.uleb128 .LEHB47-.LFB1053
 1837 011f 05       		.uleb128 .LEHE47-.LEHB47
 1838 0120 00       		.uleb128 0
 1839 0121 00       		.uleb128 0
 1840              	.LLSDACSE1053:
 1841 0122 01       		.byte	0x1
 1842 0123 00       		.byte	0
 1843              		.align 4
 1844 0124 00000000 		.long	0
 1845              	
 1846              	.LLSDATT1053:
 1847              		.text
 1849              		.section	.rodata
 1850              	.LC20:
 1851 025f 446F6800 		.string	"Doh"
 1852              		.text
 1854              	_ZN12_GLOBAL__N_116ThrowingFunctionEv:
 1855              	.LFB1054:
  64:TestCheckMacros.cpp **** 
  65:TestCheckMacros.cpp **** int ThrowingFunction()
  66:TestCheckMacros.cpp **** {
 1856              		.loc 6 66 0
 1857              		.cfi_startproc
 1858 0a3b 55       		pushq	%rbp
 1859              		.cfi_def_cfa_offset 16
 1860              		.cfi_offset 6, -16
 1861 0a3c 4889E5   		movq	%rsp, %rbp
 1862              		.cfi_def_cfa_register 6
  67:TestCheckMacros.cpp ****     throw "Doh";
 1863              		.loc 6 67 0
 1864 0a3f BF080000 		movl	$8, %edi
 1864      00
 1865 0a44 E8000000 		call	__cxa_allocate_exception
 1865      00
 1866 0a49 48C70000 		movq	$.LC20, (%rax)
 1866      000000
 1867 0a50 BA000000 		movl	$0, %edx
 1867      00
 1868 0a55 BE000000 		movl	$_ZTIPKc, %esi
 1868      00
 1869 0a5a 4889C7   		movq	%rax, %rdi
 1870 0a5d E8000000 		call	__cxa_throw
 1870      00
 1871              		.cfi_endproc
 1872              	.LFE1054:
 1874              		.section	.rodata
 1875              	.LC21:
 1876 0263 43686563 		.string	"CheckFailsOnException"
 1876      6B466169 
 1876      6C734F6E 
 1876      45786365 
 1876      7074696F 
 1877              		.text
 1878              		.align 2
 1880              	_ZN12_GLOBAL__N_125TestCheckFailsOnExceptionC2Ev:
 1881              	.LFB1056:
  68:TestCheckMacros.cpp **** }
  69:TestCheckMacros.cpp **** 
  70:TestCheckMacros.cpp **** TEST(CheckFailsOnException)
 1882              		.loc 6 70 0
 1883              		.cfi_startproc
 1884 0a62 55       		pushq	%rbp
 1885              		.cfi_def_cfa_offset 16
 1886              		.cfi_offset 6, -16
 1887 0a63 4889E5   		movq	%rsp, %rbp
 1888              		.cfi_def_cfa_register 6
 1889 0a66 4883EC10 		subq	$16, %rsp
 1890 0a6a 48897DF8 		movq	%rdi, -8(%rbp)
 1891              	.LBB29:
 1892              		.loc 6 70 0
 1893 0a6e E8000000 		call	_ZN13UnitTestSuite12GetSuiteNameEv
 1893      00
 1894 0a73 4889C2   		movq	%rax, %rdx
 1895 0a76 488B45F8 		movq	-8(%rbp), %rax
 1896 0a7a 41B84600 		movl	$70, %r8d
 1896      0000
 1897 0a80 B9000000 		movl	$.LC2, %ecx
 1897      00
 1898 0a85 BE000000 		movl	$.LC21, %esi
 1898      00
 1899 0a8a 4889C7   		movq	%rax, %rdi
 1900 0a8d E8000000 		call	_ZN8UnitTest4TestC2EPKcS2_S2_i
 1900      00
 1901 0a92 488B45F8 		movq	-8(%rbp), %rax
 1902 0a96 48C70000 		movq	$_ZTVN12_GLOBAL__N_125TestCheckFailsOnExceptionE+16, (%rax)
 1902      000000
 1903              	.LBE29:
 1904 0a9d C9       		leave
 1905              		.cfi_def_cfa 7, 8
 1906 0a9e C3       		ret
 1907              		.cfi_endproc
 1908              	.LFE1056:
 1910              		.set	_ZN12_GLOBAL__N_125TestCheckFailsOnExceptionC1Ev,_ZN12_GLOBAL__N_125TestCheckFailsOnException
 1911              		.local	_ZN12_GLOBAL__N_133testCheckFailsOnExceptionInstanceE
 1912              		.comm	_ZN12_GLOBAL__N_133testCheckFailsOnExceptionInstanceE,56,32
 1913              		.local	_ZN12_GLOBAL__N_126adderCheckFailsOnExceptionE
 1914              		.comm	_ZN12_GLOBAL__N_126adderCheckFailsOnExceptionE,1,1
 1915              		.section	.rodata
 1916              	.LC22:
 1917 0279 5468726F 		.string	"ThrowingFunction() == 1"
 1917      77696E67 
 1917      46756E63 
 1917      74696F6E 
 1917      2829203D 
 1918 0291 00000000 		.align 8
 1918      000000
 1919              	.LC23:
 1920 0298 556E6861 		.string	"Unhandled exception in CHECK(ThrowingFunction() == 1)"
 1920      6E646C65 
 1920      64206578 
 1920      63657074 
 1920      696F6E20 
 1921              		.text
 1922 0a9f 90       		.align 2
 1924              	_ZNK12_GLOBAL__N_125TestCheckFailsOnException7RunImplEv:
 1925              	.LFB1058:
  71:TestCheckMacros.cpp **** {
 1926              		.loc 6 71 0
 1927              		.cfi_startproc
 1928              		.cfi_personality 0x3,__gxx_personality_v0
 1929              		.cfi_lsda 0x3,.LLSDA1058
 1930 0aa0 55       		pushq	%rbp
 1931              		.cfi_def_cfa_offset 16
 1932              		.cfi_offset 6, -16
 1933 0aa1 4889E5   		movq	%rsp, %rbp
 1934              		.cfi_def_cfa_register 6
 1935 0aa4 53       		pushq	%rbx
 1936 0aa5 4881ECB8 		subq	$2232, %rsp
 1936      080000
 1937              		.cfi_offset 3, -24
 1938 0aac 4889BD48 		movq	%rdi, -2232(%rbp)
 1938      F7FFFF
 1939              		.loc 6 71 0
 1940 0ab3 64488B04 		movq	%fs:40, %rax
 1940      25280000 
 1940      00
 1941 0abc 488945E8 		movq	%rax, -24(%rbp)
 1942 0ac0 31C0     		xorl	%eax, %eax
 1943              	.LBB30:
  72:TestCheckMacros.cpp ****     bool failure = false;
 1944              		.loc 6 72 0
 1945 0ac2 C6855FF7 		movb	$0, -2209(%rbp)
 1945      FFFF00
 1946              	.LBB31:
  73:TestCheckMacros.cpp ****     {
  74:TestCheckMacros.cpp ****         RecordingReporter reporter;
 1947              		.loc 6 74 0
 1948 0ac9 488D85B0 		leaq	-2128(%rbp), %rax
 1948      F7FFFF
 1949 0ad0 4889C7   		movq	%rax, %rdi
 1950 0ad3 E8000000 		call	_ZN17RecordingReporterC1Ev
 1950      00
  75:TestCheckMacros.cpp ****         UnitTest::TestResults testResults(&reporter);
 1951              		.loc 6 75 0
 1952 0ad8 488D95B0 		leaq	-2128(%rbp), %rdx
 1952      F7FFFF
 1953 0adf 488D8570 		leaq	-2192(%rbp), %rax
 1953      F7FFFF
 1954 0ae6 4889D6   		movq	%rdx, %rsi
 1955 0ae9 4889C7   		movq	%rax, %rdi
 1956              	.LEHB48:
 1957 0aec E8000000 		call	_ZN8UnitTest11TestResultsC1EPNS_12TestReporterE
 1957      00
  76:TestCheckMacros.cpp **** 		ScopedCurrentTest scopedResults(testResults);
 1958              		.loc 6 76 0
 1959 0af1 488D8D70 		leaq	-2192(%rbp), %rcx
 1959      F7FFFF
 1960 0af8 488D8560 		leaq	-2208(%rbp), %rax
 1960      F7FFFF
 1961 0aff BA000000 		movl	$0, %edx
 1961      00
 1962 0b04 4889CE   		movq	%rcx, %rsi
 1963 0b07 4889C7   		movq	%rax, %rdi
 1964 0b0a E8000000 		call	_ZN17ScopedCurrentTestC1ERN8UnitTest11TestResultsEPKNS0_11TestDetailsE
 1964      00
 1965              	.LEHE48:
 1966              	.LEHB49:
  77:TestCheckMacros.cpp ****         CHECK(ThrowingFunction() == 1);
 1967              		.loc 6 77 0
 1968 0b0f E827FFFF 		call	_ZN12_GLOBAL__N_116ThrowingFunctionEv
 1968      FF
 1969 0b14 83F801   		cmpl	$1, %eax
 1970 0b17 0F94C0   		sete	%al
 1971 0b1a 0FB6C0   		movzbl	%al, %eax
 1972 0b1d 89C7     		movl	%eax, %edi
 1973 0b1f E8000000 		call	_ZN8UnitTest5CheckIbEEbT_
 1973      00
 1974 0b24 83F001   		xorl	$1, %eax
 1975 0b27 84C0     		testb	%al, %al
 1976 0b29 743E     		je	.L92
 1977              		.loc 6 77 0 is_stmt 0 discriminator 1
 1978 0b2b E8000000 		call	_ZN8UnitTest11CurrentTest7DetailsEv
 1978      00
 1979 0b30 488B08   		movq	(%rax), %rcx
 1980 0b33 488D8590 		leaq	-2160(%rbp), %rax
 1980      F7FFFF
 1981 0b3a BA4D0000 		movl	$77, %edx
 1981      00
 1982 0b3f 4889CE   		movq	%rcx, %rsi
 1983 0b42 4889C7   		movq	%rax, %rdi
 1984 0b45 E8000000 		call	_ZN8UnitTest11TestDetailsC1ERKS0_i
 1984      00
 1985 0b4a E8000000 		call	_ZN8UnitTest11CurrentTest7ResultsEv
 1985      00
 1986 0b4f 488B00   		movq	(%rax), %rax
 1987 0b52 488D8D90 		leaq	-2160(%rbp), %rcx
 1987      F7FFFF
 1988 0b59 BA000000 		movl	$.LC22, %edx
 1988      00
 1989 0b5e 4889CE   		movq	%rcx, %rsi
 1990 0b61 4889C7   		movq	%rax, %rdi
 1991 0b64 E8000000 		call	_ZN8UnitTest11TestResults13OnTestFailureERKNS_11TestDetailsEPKc
 1991      00
 1992              	.LEHE49:
 1993              	.L92:
  78:TestCheckMacros.cpp ****         failure = (testResults.GetFailureCount() > 0);
 1994              		.loc 6 78 0 is_stmt 1
 1995 0b69 488D8570 		leaq	-2192(%rbp), %rax
 1995      F7FFFF
 1996 0b70 4889C7   		movq	%rax, %rdi
 1997              	.LEHB50:
 1998 0b73 E8000000 		call	_ZNK8UnitTest11TestResults15GetFailureCountEv
 1998      00
 1999              	.LEHE50:
 2000 0b78 85C0     		testl	%eax, %eax
 2001 0b7a 0F9FC0   		setg	%al
 2002 0b7d 88855FF7 		movb	%al, -2209(%rbp)
 2002      FFFF
  76:TestCheckMacros.cpp **** 		ScopedCurrentTest scopedResults(testResults);
 2003              		.loc 6 76 0
 2004 0b83 488D8560 		leaq	-2208(%rbp), %rax
 2004      F7FFFF
 2005 0b8a 4889C7   		movq	%rax, %rdi
 2006              	.LEHB51:
 2007 0b8d E8000000 		call	_ZN17ScopedCurrentTestD1Ev
 2007      00
 2008              	.LEHE51:
 2009              		.loc 6 78 0
 2010 0b92 488D85B0 		leaq	-2128(%rbp), %rax
 2010      F7FFFF
 2011 0b99 4889C7   		movq	%rax, %rdi
 2012              	.LEHB52:
 2013 0b9c E8000000 		call	_ZN17RecordingReporterD1Ev
 2013      00
 2014              	.LEHE52:
 2015              	.LBE31:
  79:TestCheckMacros.cpp ****     }
  80:TestCheckMacros.cpp **** 
  81:TestCheckMacros.cpp ****     CHECK(failure);
 2016              		.loc 6 81 0
 2017 0ba1 0FB6855F 		movzbl	-2209(%rbp), %eax
 2017      F7FFFF
 2018 0ba8 89C7     		movl	%eax, %edi
 2019 0baa E8000000 		call	_ZN8UnitTest5CheckIbEEbT_
 2019      00
 2020 0baf 83F001   		xorl	$1, %eax
 2021 0bb2 84C0     		testb	%al, %al
 2022 0bb4 0F842D01 		je	.L91
 2022      0000
 2023              	.LEHB53:
 2024              		.loc 6 81 0 is_stmt 0 discriminator 1
 2025 0bba E8000000 		call	_ZN8UnitTest11CurrentTest7DetailsEv
 2025      00
 2026 0bbf 488B08   		movq	(%rax), %rcx
 2027 0bc2 488D8590 		leaq	-2160(%rbp), %rax
 2027      F7FFFF
 2028 0bc9 BA510000 		movl	$81, %edx
 2028      00
 2029 0bce 4889CE   		movq	%rcx, %rsi
 2030 0bd1 4889C7   		movq	%rax, %rdi
 2031 0bd4 E8000000 		call	_ZN8UnitTest11TestDetailsC1ERKS0_i
 2031      00
 2032 0bd9 E8000000 		call	_ZN8UnitTest11CurrentTest7ResultsEv
 2032      00
 2033 0bde 488B00   		movq	(%rax), %rax
 2034 0be1 488D8D90 		leaq	-2160(%rbp), %rcx
 2034      F7FFFF
 2035 0be8 BA000000 		movl	$.LC10, %edx
 2035      00
 2036 0bed 4889CE   		movq	%rcx, %rsi
 2037 0bf0 4889C7   		movq	%rax, %rdi
 2038 0bf3 E8000000 		call	_ZN8UnitTest11TestResults13OnTestFailureERKNS_11TestDetailsEPKc
 2038      00
 2039              	.LEHE53:
 2040 0bf8 E9EA0000 		jmp	.L91
 2040      00
 2041              	.L104:
 2042 0bfd 4889C3   		movq	%rax, %rbx
 2043              	.LBB32:
  77:TestCheckMacros.cpp ****         failure = (testResults.GetFailureCount() > 0);
 2044              		.loc 6 77 0 is_stmt 1
 2045 0c00 E8000000 		call	__cxa_end_catch
 2045      00
 2046 0c05 EB53     		jmp	.L95
 2047              	.L102:
 2048 0c07 4889C7   		movq	%rax, %rdi
 2049 0c0a E8000000 		call	__cxa_begin_catch
 2049      00
 2050              	.LEHB54:
 2051 0c0f E8000000 		call	_ZN8UnitTest11CurrentTest7DetailsEv
 2051      00
 2052 0c14 488B08   		movq	(%rax), %rcx
 2053 0c17 488D8590 		leaq	-2160(%rbp), %rax
 2053      F7FFFF
 2054 0c1e BA4D0000 		movl	$77, %edx
 2054      00
 2055 0c23 4889CE   		movq	%rcx, %rsi
 2056 0c26 4889C7   		movq	%rax, %rdi
 2057 0c29 E8000000 		call	_ZN8UnitTest11TestDetailsC1ERKS0_i
 2057      00
  77:TestCheckMacros.cpp ****         failure = (testResults.GetFailureCount() > 0);
 2058              		.loc 6 77 0 is_stmt 0 discriminator 1
 2059 0c2e E8000000 		call	_ZN8UnitTest11CurrentTest7ResultsEv
 2059      00
 2060 0c33 488B00   		movq	(%rax), %rax
 2061 0c36 488D8D90 		leaq	-2160(%rbp), %rcx
 2061      F7FFFF
 2062 0c3d BA000000 		movl	$.LC23, %edx
 2062      00
 2063 0c42 4889CE   		movq	%rcx, %rsi
 2064 0c45 4889C7   		movq	%rax, %rdi
 2065 0c48 E8000000 		call	_ZN8UnitTest11TestResults13OnTestFailureERKNS_11TestDetailsEPKc
 2065      00
 2066              	.LEHE54:
 2067              	.LEHB55:
 2068 0c4d E8000000 		call	__cxa_end_catch
 2068      00
 2069              	.LEHE55:
  77:TestCheckMacros.cpp ****         failure = (testResults.GetFailureCount() > 0);
 2070              		.loc 6 77 0
 2071 0c52 E912FFFF 		jmp	.L92
 2071      FF
 2072              	.L103:
 2073 0c57 4889C3   		movq	%rax, %rbx
 2074              	.L95:
  76:TestCheckMacros.cpp ****         CHECK(ThrowingFunction() == 1);
 2075              		.loc 6 76 0 is_stmt 1
 2076 0c5a 488D8560 		leaq	-2208(%rbp), %rax
 2076      F7FFFF
 2077 0c61 4889C7   		movq	%rax, %rdi
 2078 0c64 E8000000 		call	_ZN17ScopedCurrentTestD1Ev
 2078      00
 2079 0c69 EB03     		jmp	.L97
 2080              	.L101:
 2081 0c6b 4889C3   		movq	%rax, %rbx
 2082              	.L97:
  78:TestCheckMacros.cpp ****     }
 2083              		.loc 6 78 0
 2084 0c6e 488D85B0 		leaq	-2128(%rbp), %rax
 2084      F7FFFF
 2085 0c75 4889C7   		movq	%rax, %rdi
 2086 0c78 E8000000 		call	_ZN17RecordingReporterD1Ev
 2086      00
 2087 0c7d 4889D8   		movq	%rbx, %rax
 2088 0c80 4889C7   		movq	%rax, %rdi
 2089              	.LEHB56:
 2090 0c83 E8000000 		call	_Unwind_Resume
 2090      00
 2091              	.LEHE56:
 2092              	.L106:
 2093 0c88 4889C3   		movq	%rax, %rbx
 2094              	.LBE32:
 2095              		.loc 6 81 0
 2096 0c8b E8000000 		call	__cxa_end_catch
 2096      00
 2097 0c90 4889D8   		movq	%rbx, %rax
 2098 0c93 4889C7   		movq	%rax, %rdi
 2099              	.LEHB57:
 2100 0c96 E8000000 		call	_Unwind_Resume
 2100      00
 2101              	.LEHE57:
 2102              	.L105:
 2103 0c9b 4889C7   		movq	%rax, %rdi
 2104 0c9e E8000000 		call	__cxa_begin_catch
 2104      00
 2105              	.LEHB58:
 2106 0ca3 E8000000 		call	_ZN8UnitTest11CurrentTest7DetailsEv
 2106      00
 2107 0ca8 488B08   		movq	(%rax), %rcx
 2108 0cab 488D8590 		leaq	-2160(%rbp), %rax
 2108      F7FFFF
 2109 0cb2 BA510000 		movl	$81, %edx
 2109      00
 2110 0cb7 4889CE   		movq	%rcx, %rsi
 2111 0cba 4889C7   		movq	%rax, %rdi
 2112 0cbd E8000000 		call	_ZN8UnitTest11TestDetailsC1ERKS0_i
 2112      00
 2113              		.loc 6 81 0 is_stmt 0 discriminator 1
 2114 0cc2 E8000000 		call	_ZN8UnitTest11CurrentTest7ResultsEv
 2114      00
 2115 0cc7 488B00   		movq	(%rax), %rax
 2116 0cca 488D8D90 		leaq	-2160(%rbp), %rcx
 2116      F7FFFF
 2117 0cd1 BA000000 		movl	$.LC12, %edx
 2117      00
 2118 0cd6 4889CE   		movq	%rcx, %rsi
 2119 0cd9 4889C7   		movq	%rax, %rdi
 2120 0cdc E8000000 		call	_ZN8UnitTest11TestResults13OnTestFailureERKNS_11TestDetailsEPKc
 2120      00
 2121              	.LEHE58:
 2122              	.LEHB59:
 2123 0ce1 E8000000 		call	__cxa_end_catch
 2123      00
 2124              	.LEHE59:
 2125              	.LBE30:
  82:TestCheckMacros.cpp **** }
 2126              		.loc 6 82 0 is_stmt 1 discriminator 1
 2127 0ce6 90       		nop
 2128              	.L91:
 2129              		.loc 6 82 0 is_stmt 0
 2130 0ce7 488B45E8 		movq	-24(%rbp), %rax
 2131 0ceb 64483304 		xorq	%fs:40, %rax
 2131      25280000 
 2131      00
 2132 0cf4 7405     		je	.L100
 2133 0cf6 E8000000 		call	__stack_chk_fail
 2133      00
 2134              	.L100:
 2135 0cfb 4881C4B8 		addq	$2232, %rsp
 2135      080000
 2136 0d02 5B       		popq	%rbx
 2137 0d03 5D       		popq	%rbp
 2138              		.cfi_def_cfa 7, 8
 2139 0d04 C3       		ret
 2140              		.cfi_endproc
 2141              	.LFE1058:
 2142              		.section	.gcc_except_table
 2143              		.align 4
 2144              	.LLSDA1058:
 2145 0128 FF       		.byte	0xff
 2146 0129 03       		.byte	0x3
 2147 012a 4D       		.uleb128 .LLSDATT1058-.LLSDATTD1058
 2148              	.LLSDATTD1058:
 2149 012b 01       		.byte	0x1
 2150 012c 42       		.uleb128 .LLSDACSE1058-.LLSDACSB1058
 2151              	.LLSDACSB1058:
 2152 012d 4C       		.uleb128 .LEHB48-.LFB1058
 2153 012e 23       		.uleb128 .LEHE48-.LEHB48
 2154 012f CB03     		.uleb128 .L101-.LFB1058
 2155 0131 00       		.uleb128 0
 2156 0132 6F       		.uleb128 .LEHB49-.LFB1058
 2157 0133 5A       		.uleb128 .LEHE49-.LEHB49
 2158 0134 E702     		.uleb128 .L102-.LFB1058
 2159 0136 01       		.uleb128 0x1
 2160 0137 D301     		.uleb128 .LEHB50-.LFB1058
 2161 0139 05       		.uleb128 .LEHE50-.LEHB50
 2162 013a B703     		.uleb128 .L103-.LFB1058
 2163 013c 00       		.uleb128 0
 2164 013d ED01     		.uleb128 .LEHB51-.LFB1058
 2165 013f 05       		.uleb128 .LEHE51-.LEHB51
 2166 0140 CB03     		.uleb128 .L101-.LFB1058
 2167 0142 00       		.uleb128 0
 2168 0143 FC01     		.uleb128 .LEHB52-.LFB1058
 2169 0145 05       		.uleb128 .LEHE52-.LEHB52
 2170 0146 00       		.uleb128 0
 2171 0147 00       		.uleb128 0
 2172 0148 9A02     		.uleb128 .LEHB53-.LFB1058
 2173 014a 3E       		.uleb128 .LEHE53-.LEHB53
 2174 014b FB03     		.uleb128 .L105-.LFB1058
 2175 014d 01       		.uleb128 0x1
 2176 014e EF02     		.uleb128 .LEHB54-.LFB1058
 2177 0150 3E       		.uleb128 .LEHE54-.LEHB54
 2178 0151 DD02     		.uleb128 .L104-.LFB1058
 2179 0153 00       		.uleb128 0
 2180 0154 AD03     		.uleb128 .LEHB55-.LFB1058
 2181 0156 05       		.uleb128 .LEHE55-.LEHB55
 2182 0157 B703     		.uleb128 .L103-.LFB1058
 2183 0159 00       		.uleb128 0
 2184 015a E303     		.uleb128 .LEHB56-.LFB1058
 2185 015c 05       		.uleb128 .LEHE56-.LEHB56
 2186 015d 00       		.uleb128 0
 2187 015e 00       		.uleb128 0
 2188 015f F603     		.uleb128 .LEHB57-.LFB1058
 2189 0161 05       		.uleb128 .LEHE57-.LEHB57
 2190 0162 00       		.uleb128 0
 2191 0163 00       		.uleb128 0
 2192 0164 8304     		.uleb128 .LEHB58-.LFB1058
 2193 0166 3E       		.uleb128 .LEHE58-.LEHB58
 2194 0167 E803     		.uleb128 .L106-.LFB1058
 2195 0169 00       		.uleb128 0
 2196 016a C104     		.uleb128 .LEHB59-.LFB1058
 2197 016c 05       		.uleb128 .LEHE59-.LEHB59
 2198 016d 00       		.uleb128 0
 2199 016e 00       		.uleb128 0
 2200              	.LLSDACSE1058:
 2201 016f 01       		.byte	0x1
 2202 0170 00       		.byte	0
 2203 0171 000000   		.align 4
 2204 0174 00000000 		.long	0
 2205              	
 2206              	.LLSDATT1058:
 2207              		.text
 2209              		.section	.rodata
 2210 02ce 0000     		.align 8
 2211              	.LC24:
 2212 02d0 43686563 		.string	"CheckFailureBecauseOfExceptionIncludesCheckContents"
 2212      6B466169 
 2212      6C757265 
 2212      42656361 
 2212      7573654F 
 2213              		.text
 2214 0d05 90       		.align 2
 2216              	_ZN12_GLOBAL__N_155TestCheckFailureBecauseOfExceptionIncludesCheckContentsC2Ev:
 2217              	.LFB1060:
  83:TestCheckMacros.cpp **** 
  84:TestCheckMacros.cpp **** TEST(CheckFailureBecauseOfExceptionIncludesCheckContents)
 2218              		.loc 6 84 0 is_stmt 1
 2219              		.cfi_startproc
 2220 0d06 55       		pushq	%rbp
 2221              		.cfi_def_cfa_offset 16
 2222              		.cfi_offset 6, -16
 2223 0d07 4889E5   		movq	%rsp, %rbp
 2224              		.cfi_def_cfa_register 6
 2225 0d0a 4883EC10 		subq	$16, %rsp
 2226 0d0e 48897DF8 		movq	%rdi, -8(%rbp)
 2227              	.LBB33:
 2228              		.loc 6 84 0
 2229 0d12 E8000000 		call	_ZN13UnitTestSuite12GetSuiteNameEv
 2229      00
 2230 0d17 4889C2   		movq	%rax, %rdx
 2231 0d1a 488B45F8 		movq	-8(%rbp), %rax
 2232 0d1e 41B85400 		movl	$84, %r8d
 2232      0000
 2233 0d24 B9000000 		movl	$.LC2, %ecx
 2233      00
 2234 0d29 BE000000 		movl	$.LC24, %esi
 2234      00
 2235 0d2e 4889C7   		movq	%rax, %rdi
 2236 0d31 E8000000 		call	_ZN8UnitTest4TestC2EPKcS2_S2_i
 2236      00
 2237 0d36 488B45F8 		movq	-8(%rbp), %rax
 2238 0d3a 48C70000 		movq	$_ZTVN12_GLOBAL__N_155TestCheckFailureBecauseOfExceptionIncludesCheckContentsE+16, (%rax)
 2238      000000
 2239              	.LBE33:
 2240 0d41 C9       		leave
 2241              		.cfi_def_cfa 7, 8
 2242 0d42 C3       		ret
 2243              		.cfi_endproc
 2244              	.LFE1060:
 2246              		.set	_ZN12_GLOBAL__N_155TestCheckFailureBecauseOfExceptionIncludesCheckContentsC1Ev,_ZN12_GLOBAL__
 2247              		.local	_ZN12_GLOBAL__N_163testCheckFailureBecauseOfExceptionIncludesCheckContentsInstanceE
 2248              		.comm	_ZN12_GLOBAL__N_163testCheckFailureBecauseOfExceptionIncludesCheckContentsInstanceE,56,32
 2249              		.local	_ZN12_GLOBAL__N_156adderCheckFailureBecauseOfExceptionIncludesCheckContentsE
 2250              		.comm	_ZN12_GLOBAL__N_156adderCheckFailureBecauseOfExceptionIncludesCheckContentsE,1,1
 2251              		.section	.rodata
 2252 0304 00000000 		.align 8
 2253              	.LC25:
 2254 0308 73747273 		.string	"strstr(reporter.lastFailedMessage, \"ThrowingFunction() == 1\")"
 2254      74722872 
 2254      65706F72 
 2254      7465722E 
 2254      6C617374 
 2255 0346 0000     		.align 8
 2256              	.LC26:
 2257 0348 556E6861 		.string	"Unhandled exception in CHECK(strstr(reporter.lastFailedMessage, \"ThrowingFunction() == 1
 2257      6E646C65 
 2257      64206578 
 2257      63657074 
 2257      696F6E20 
 2258              		.text
 2259 0d43 90       		.align 2
 2261              	_ZNK12_GLOBAL__N_155TestCheckFailureBecauseOfExceptionIncludesCheckContents7RunImplEv:
 2262              	.LFB1062:
  85:TestCheckMacros.cpp **** {
 2263              		.loc 6 85 0
 2264              		.cfi_startproc
 2265              		.cfi_personality 0x3,__gxx_personality_v0
 2266              		.cfi_lsda 0x3,.LLSDA1062
 2267 0d44 55       		pushq	%rbp
 2268              		.cfi_def_cfa_offset 16
 2269              		.cfi_offset 6, -16
 2270 0d45 4889E5   		movq	%rsp, %rbp
 2271              		.cfi_def_cfa_register 6
 2272 0d48 53       		pushq	%rbx
 2273 0d49 4881ECA8 		subq	$2216, %rsp
 2273      080000
 2274              		.cfi_offset 3, -24
 2275 0d50 4889BD58 		movq	%rdi, -2216(%rbp)
 2275      F7FFFF
 2276              		.loc 6 85 0
 2277 0d57 64488B04 		movq	%fs:40, %rax
 2277      25280000 
 2277      00
 2278 0d60 488945E8 		movq	%rax, -24(%rbp)
 2279 0d64 31C0     		xorl	%eax, %eax
 2280              	.LBB34:
  86:TestCheckMacros.cpp ****     RecordingReporter reporter;
 2281              		.loc 6 86 0
 2282 0d66 488D85B0 		leaq	-2128(%rbp), %rax
 2282      F7FFFF
 2283 0d6d 4889C7   		movq	%rax, %rdi
 2284 0d70 E8000000 		call	_ZN17RecordingReporterC1Ev
 2284      00
 2285              	.LBB35:
  87:TestCheckMacros.cpp ****     {
  88:TestCheckMacros.cpp ****         UnitTest::TestResults testResults(&reporter);
 2286              		.loc 6 88 0
 2287 0d75 488D95B0 		leaq	-2128(%rbp), %rdx
 2287      F7FFFF
 2288 0d7c 488D8570 		leaq	-2192(%rbp), %rax
 2288      F7FFFF
 2289 0d83 4889D6   		movq	%rdx, %rsi
 2290 0d86 4889C7   		movq	%rax, %rdi
 2291              	.LEHB60:
 2292 0d89 E8000000 		call	_ZN8UnitTest11TestResultsC1EPNS_12TestReporterE
 2292      00
  89:TestCheckMacros.cpp **** 		ScopedCurrentTest scopedResults(testResults);
 2293              		.loc 6 89 0
 2294 0d8e 488D8D70 		leaq	-2192(%rbp), %rcx
 2294      F7FFFF
 2295 0d95 488D8560 		leaq	-2208(%rbp), %rax
 2295      F7FFFF
 2296 0d9c BA000000 		movl	$0, %edx
 2296      00
 2297 0da1 4889CE   		movq	%rcx, %rsi
 2298 0da4 4889C7   		movq	%rax, %rdi
 2299 0da7 E8000000 		call	_ZN17ScopedCurrentTestC1ERN8UnitTest11TestResultsEPKNS0_11TestDetailsE
 2299      00
 2300              	.LEHE60:
 2301              	.LEHB61:
  90:TestCheckMacros.cpp ****         CHECK(ThrowingFunction() == 1);
 2302              		.loc 6 90 0
 2303 0dac E88AFCFF 		call	_ZN12_GLOBAL__N_116ThrowingFunctionEv
 2303      FF
 2304 0db1 83F801   		cmpl	$1, %eax
 2305 0db4 0F94C0   		sete	%al
 2306 0db7 0FB6C0   		movzbl	%al, %eax
 2307 0dba 89C7     		movl	%eax, %edi
 2308 0dbc E8000000 		call	_ZN8UnitTest5CheckIbEEbT_
 2308      00
 2309 0dc1 83F001   		xorl	$1, %eax
 2310 0dc4 84C0     		testb	%al, %al
 2311 0dc6 743E     		je	.L109
 2312              		.loc 6 90 0 is_stmt 0 discriminator 1
 2313 0dc8 E8000000 		call	_ZN8UnitTest11CurrentTest7DetailsEv
 2313      00
 2314 0dcd 488B08   		movq	(%rax), %rcx
 2315 0dd0 488D8590 		leaq	-2160(%rbp), %rax
 2315      F7FFFF
 2316 0dd7 BA5A0000 		movl	$90, %edx
 2316      00
 2317 0ddc 4889CE   		movq	%rcx, %rsi
 2318 0ddf 4889C7   		movq	%rax, %rdi
 2319 0de2 E8000000 		call	_ZN8UnitTest11TestDetailsC1ERKS0_i
 2319      00
 2320 0de7 E8000000 		call	_ZN8UnitTest11CurrentTest7ResultsEv
 2320      00
 2321 0dec 488B00   		movq	(%rax), %rax
 2322 0def 488D8D90 		leaq	-2160(%rbp), %rcx
 2322      F7FFFF
 2323 0df6 BA000000 		movl	$.LC22, %edx
 2323      00
 2324 0dfb 4889CE   		movq	%rcx, %rsi
 2325 0dfe 4889C7   		movq	%rax, %rdi
 2326 0e01 E8000000 		call	_ZN8UnitTest11TestResults13OnTestFailureERKNS_11TestDetailsEPKc
 2326      00
 2327              	.LEHE61:
 2328              	.L109:
 2329              		.loc 6 90 0 discriminator 2
 2330 0e06 488D8560 		leaq	-2208(%rbp), %rax
 2330      F7FFFF
 2331 0e0d 4889C7   		movq	%rax, %rdi
 2332              	.LEHB62:
 2333 0e10 E8000000 		call	_ZN17ScopedCurrentTestD1Ev
 2333      00
 2334              	.LEHE62:
 2335              	.LBE35:
  91:TestCheckMacros.cpp ****     }
  92:TestCheckMacros.cpp **** 
  93:TestCheckMacros.cpp ****     CHECK(strstr(reporter.lastFailedMessage, "ThrowingFunction() == 1"));
 2336              		.loc 6 93 0 is_stmt 1
 2337 0e15 488D85B0 		leaq	-2128(%rbp), %rax
 2337      F7FFFF
 2338 0e1c 48051405 		addq	$1300, %rax
 2338      0000
 2339 0e22 BE000000 		movl	$.LC22, %esi
 2339      00
 2340 0e27 4889C7   		movq	%rax, %rdi
 2341 0e2a E8000000 		call	strstr
 2341      00
 2342 0e2f 4889C7   		movq	%rax, %rdi
 2343 0e32 E8000000 		call	_ZN8UnitTest5CheckIPcEEbT_
 2343      00
 2344 0e37 83F001   		xorl	$1, %eax
 2345 0e3a 84C0     		testb	%al, %al
 2346 0e3c 743E     		je	.L110
 2347              	.LEHB63:
 2348              		.loc 6 93 0 is_stmt 0 discriminator 1
 2349 0e3e E8000000 		call	_ZN8UnitTest11CurrentTest7DetailsEv
 2349      00
 2350 0e43 488B08   		movq	(%rax), %rcx
 2351 0e46 488D8590 		leaq	-2160(%rbp), %rax
 2351      F7FFFF
 2352 0e4d BA5D0000 		movl	$93, %edx
 2352      00
 2353 0e52 4889CE   		movq	%rcx, %rsi
 2354 0e55 4889C7   		movq	%rax, %rdi
 2355 0e58 E8000000 		call	_ZN8UnitTest11TestDetailsC1ERKS0_i
 2355      00
 2356 0e5d E8000000 		call	_ZN8UnitTest11CurrentTest7ResultsEv
 2356      00
 2357 0e62 488B00   		movq	(%rax), %rax
 2358 0e65 488D8D90 		leaq	-2160(%rbp), %rcx
 2358      F7FFFF
 2359 0e6c BA000000 		movl	$.LC25, %edx
 2359      00
 2360 0e71 4889CE   		movq	%rcx, %rsi
 2361 0e74 4889C7   		movq	%rax, %rdi
 2362 0e77 E8000000 		call	_ZN8UnitTest11TestResults13OnTestFailureERKNS_11TestDetailsEPKc
 2362      00
 2363              	.LEHE63:
 2364              	.L110:
 2365              		.loc 6 93 0 discriminator 2
 2366 0e7c 488D85B0 		leaq	-2128(%rbp), %rax
 2366      F7FFFF
 2367 0e83 4889C7   		movq	%rax, %rdi
 2368              	.LEHB64:
 2369 0e86 E8000000 		call	_ZN17RecordingReporterD1Ev
 2369      00
 2370              	.LEHE64:
 2371              	.LBE34:
  94:TestCheckMacros.cpp **** }
 2372              		.loc 6 94 0 is_stmt 1 discriminator 2
 2373 0e8b 488B45E8 		movq	-24(%rbp), %rax
 2374 0e8f 64483304 		xorq	%fs:40, %rax
 2374      25280000 
 2374      00
 2375 0e98 0F84EF00 		je	.L117
 2375      0000
 2376 0e9e E9E50000 		jmp	.L124
 2376      00
 2377              	.L120:
 2378 0ea3 4889C3   		movq	%rax, %rbx
 2379              	.LBB37:
 2380              	.LBB36:
  90:TestCheckMacros.cpp ****         CHECK(ThrowingFunction() == 1);
 2381              		.loc 6 90 0
 2382 0ea6 E8000000 		call	__cxa_end_catch
 2382      00
 2383 0eab EB53     		jmp	.L112
 2384              	.L118:
 2385 0ead 4889C7   		movq	%rax, %rdi
 2386 0eb0 E8000000 		call	__cxa_begin_catch
 2386      00
 2387              	.LEHB65:
 2388 0eb5 E8000000 		call	_ZN8UnitTest11CurrentTest7DetailsEv
 2388      00
 2389 0eba 488B08   		movq	(%rax), %rcx
 2390 0ebd 488D8590 		leaq	-2160(%rbp), %rax
 2390      F7FFFF
 2391 0ec4 BA5A0000 		movl	$90, %edx
 2391      00
 2392 0ec9 4889CE   		movq	%rcx, %rsi
 2393 0ecc 4889C7   		movq	%rax, %rdi
 2394 0ecf E8000000 		call	_ZN8UnitTest11TestDetailsC1ERKS0_i
 2394      00
  90:TestCheckMacros.cpp ****         CHECK(ThrowingFunction() == 1);
 2395              		.loc 6 90 0 is_stmt 0 discriminator 1
 2396 0ed4 E8000000 		call	_ZN8UnitTest11CurrentTest7ResultsEv
 2396      00
 2397 0ed9 488B00   		movq	(%rax), %rax
 2398 0edc 488D8D90 		leaq	-2160(%rbp), %rcx
 2398      F7FFFF
 2399 0ee3 BA000000 		movl	$.LC23, %edx
 2399      00
 2400 0ee8 4889CE   		movq	%rcx, %rsi
 2401 0eeb 4889C7   		movq	%rax, %rdi
 2402 0eee E8000000 		call	_ZN8UnitTest11TestResults13OnTestFailureERKNS_11TestDetailsEPKc
 2402      00
 2403              	.LEHE65:
 2404              	.LEHB66:
 2405 0ef3 E8000000 		call	__cxa_end_catch
 2405      00
 2406              	.LEHE66:
  90:TestCheckMacros.cpp ****         CHECK(ThrowingFunction() == 1);
 2407              		.loc 6 90 0
 2408 0ef8 E909FFFF 		jmp	.L109
 2408      FF
 2409              	.L119:
 2410 0efd 4889C3   		movq	%rax, %rbx
 2411              	.L112:
 2412 0f00 488D8560 		leaq	-2208(%rbp), %rax
 2412      F7FFFF
 2413 0f07 4889C7   		movq	%rax, %rdi
 2414 0f0a E8000000 		call	_ZN17ScopedCurrentTestD1Ev
 2414      00
 2415 0f0f EB5D     		jmp	.L114
 2416              	.L123:
 2417 0f11 4889C3   		movq	%rax, %rbx
 2418              	.LBE36:
  93:TestCheckMacros.cpp **** }
 2419              		.loc 6 93 0 is_stmt 1
 2420 0f14 E8000000 		call	__cxa_end_catch
 2420      00
 2421 0f19 EB53     		jmp	.L114
 2422              	.L122:
 2423 0f1b 4889C7   		movq	%rax, %rdi
 2424 0f1e E8000000 		call	__cxa_begin_catch
 2424      00
 2425              	.LEHB67:
 2426 0f23 E8000000 		call	_ZN8UnitTest11CurrentTest7DetailsEv
 2426      00
 2427 0f28 488B08   		movq	(%rax), %rcx
 2428 0f2b 488D8590 		leaq	-2160(%rbp), %rax
 2428      F7FFFF
 2429 0f32 BA5D0000 		movl	$93, %edx
 2429      00
 2430 0f37 4889CE   		movq	%rcx, %rsi
 2431 0f3a 4889C7   		movq	%rax, %rdi
 2432 0f3d E8000000 		call	_ZN8UnitTest11TestDetailsC1ERKS0_i
 2432      00
  93:TestCheckMacros.cpp **** }
 2433              		.loc 6 93 0 is_stmt 0 discriminator 1
 2434 0f42 E8000000 		call	_ZN8UnitTest11CurrentTest7ResultsEv
 2434      00
 2435 0f47 488B00   		movq	(%rax), %rax
 2436 0f4a 488D8D90 		leaq	-2160(%rbp), %rcx
 2436      F7FFFF
 2437 0f51 BA000000 		movl	$.LC26, %edx
 2437      00
 2438 0f56 4889CE   		movq	%rcx, %rsi
 2439 0f59 4889C7   		movq	%rax, %rdi
 2440 0f5c E8000000 		call	_ZN8UnitTest11TestResults13OnTestFailureERKNS_11TestDetailsEPKc
 2440      00
 2441              	.LEHE67:
 2442              	.LEHB68:
 2443 0f61 E8000000 		call	__cxa_end_catch
 2443      00
 2444              	.LEHE68:
  93:TestCheckMacros.cpp **** }
 2445              		.loc 6 93 0
 2446 0f66 E911FFFF 		jmp	.L110
 2446      FF
 2447              	.L121:
 2448 0f6b 4889C3   		movq	%rax, %rbx
 2449              	.L114:
 2450 0f6e 488D85B0 		leaq	-2128(%rbp), %rax
 2450      F7FFFF
 2451 0f75 4889C7   		movq	%rax, %rdi
 2452 0f78 E8000000 		call	_ZN17RecordingReporterD1Ev
 2452      00
 2453 0f7d 4889D8   		movq	%rbx, %rax
 2454 0f80 4889C7   		movq	%rax, %rdi
 2455              	.LEHB69:
 2456 0f83 E8000000 		call	_Unwind_Resume
 2456      00
 2457              	.LEHE69:
 2458              	.L124:
 2459              	.LBE37:
 2460              		.loc 6 94 0 is_stmt 1
 2461 0f88 E8000000 		call	__stack_chk_fail
 2461      00
 2462              	.L117:
 2463 0f8d 4881C4A8 		addq	$2216, %rsp
 2463      080000
 2464 0f94 5B       		popq	%rbx
 2465 0f95 5D       		popq	%rbp
 2466              		.cfi_def_cfa 7, 8
 2467 0f96 C3       		ret
 2468              		.cfi_endproc
 2469              	.LFE1062:
 2470              		.section	.gcc_except_table
 2471              		.align 4
 2472              	.LLSDA1062:
 2473 0178 FF       		.byte	0xff
 2474 0179 03       		.byte	0x3
 2475 017a 41       		.uleb128 .LLSDATT1062-.LLSDATTD1062
 2476              	.LLSDATTD1062:
 2477 017b 01       		.byte	0x1
 2478 017c 38       		.uleb128 .LLSDACSE1062-.LLSDACSB1062
 2479              	.LLSDACSB1062:
 2480 017d 45       		.uleb128 .LEHB60-.LFB1062
 2481 017e 23       		.uleb128 .LEHE60-.LEHB60
 2482 017f A704     		.uleb128 .L121-.LFB1062
 2483 0181 00       		.uleb128 0
 2484 0182 68       		.uleb128 .LEHB61-.LFB1062
 2485 0183 5A       		.uleb128 .LEHE61-.LEHB61
 2486 0184 E902     		.uleb128 .L118-.LFB1062
 2487 0186 01       		.uleb128 0x1
 2488 0187 CC01     		.uleb128 .LEHB62-.LFB1062
 2489 0189 05       		.uleb128 .LEHE62-.LEHB62
 2490 018a A704     		.uleb128 .L121-.LFB1062
 2491 018c 00       		.uleb128 0
 2492 018d FA01     		.uleb128 .LEHB63-.LFB1062
 2493 018f 3E       		.uleb128 .LEHE63-.LEHB63
 2494 0190 D703     		.uleb128 .L122-.LFB1062
 2495 0192 01       		.uleb128 0x1
 2496 0193 C202     		.uleb128 .LEHB64-.LFB1062
 2497 0195 05       		.uleb128 .LEHE64-.LEHB64
 2498 0196 00       		.uleb128 0
 2499 0197 00       		.uleb128 0
 2500 0198 F102     		.uleb128 .LEHB65-.LFB1062
 2501 019a 3E       		.uleb128 .LEHE65-.LEHB65
 2502 019b DF02     		.uleb128 .L120-.LFB1062
 2503 019d 00       		.uleb128 0
 2504 019e AF03     		.uleb128 .LEHB66-.LFB1062
 2505 01a0 05       		.uleb128 .LEHE66-.LEHB66
 2506 01a1 B903     		.uleb128 .L119-.LFB1062
 2507 01a3 00       		.uleb128 0
 2508 01a4 DF03     		.uleb128 .LEHB67-.LFB1062
 2509 01a6 3E       		.uleb128 .LEHE67-.LEHB67
 2510 01a7 CD03     		.uleb128 .L123-.LFB1062
 2511 01a9 00       		.uleb128 0
 2512 01aa 9D04     		.uleb128 .LEHB68-.LFB1062
 2513 01ac 05       		.uleb128 .LEHE68-.LEHB68
 2514 01ad A704     		.uleb128 .L121-.LFB1062
 2515 01af 00       		.uleb128 0
 2516 01b0 BF04     		.uleb128 .LEHB69-.LFB1062
 2517 01b2 05       		.uleb128 .LEHE69-.LEHB69
 2518 01b3 00       		.uleb128 0
 2519 01b4 00       		.uleb128 0
 2520              	.LLSDACSE1062:
 2521 01b5 01       		.byte	0x1
 2522 01b6 00       		.byte	0
 2523 01b7 00       		.align 4
 2524 01b8 00000000 		.long	0
 2525              	
 2526              	.LLSDATT1062:
 2527              		.text
 2529              		.section	.rodata
 2530              	.LC27:
 2531 03a4 43686563 		.string	"CheckEqualSucceedsOnEqual"
 2531      6B457175 
 2531      616C5375 
 2531      63636565 
 2531      64734F6E 
 2532              		.text
 2533 0f97 90       		.align 2
 2535              	_ZN12_GLOBAL__N_129TestCheckEqualSucceedsOnEqualC2Ev:
 2536              	.LFB1064:
  95:TestCheckMacros.cpp **** 
  96:TestCheckMacros.cpp **** TEST(CheckEqualSucceedsOnEqual)
 2537              		.loc 6 96 0
 2538              		.cfi_startproc
 2539 0f98 55       		pushq	%rbp
 2540              		.cfi_def_cfa_offset 16
 2541              		.cfi_offset 6, -16
 2542 0f99 4889E5   		movq	%rsp, %rbp
 2543              		.cfi_def_cfa_register 6
 2544 0f9c 4883EC10 		subq	$16, %rsp
 2545 0fa0 48897DF8 		movq	%rdi, -8(%rbp)
 2546              	.LBB38:
 2547              		.loc 6 96 0
 2548 0fa4 E8000000 		call	_ZN13UnitTestSuite12GetSuiteNameEv
 2548      00
 2549 0fa9 4889C2   		movq	%rax, %rdx
 2550 0fac 488B45F8 		movq	-8(%rbp), %rax
 2551 0fb0 41B86000 		movl	$96, %r8d
 2551      0000
 2552 0fb6 B9000000 		movl	$.LC2, %ecx
 2552      00
 2553 0fbb BE000000 		movl	$.LC27, %esi
 2553      00
 2554 0fc0 4889C7   		movq	%rax, %rdi
 2555 0fc3 E8000000 		call	_ZN8UnitTest4TestC2EPKcS2_S2_i
 2555      00
 2556 0fc8 488B45F8 		movq	-8(%rbp), %rax
 2557 0fcc 48C70000 		movq	$_ZTVN12_GLOBAL__N_129TestCheckEqualSucceedsOnEqualE+16, (%rax)
 2557      000000
 2558              	.LBE38:
 2559 0fd3 C9       		leave
 2560              		.cfi_def_cfa 7, 8
 2561 0fd4 C3       		ret
 2562              		.cfi_endproc
 2563              	.LFE1064:
 2565              		.set	_ZN12_GLOBAL__N_129TestCheckEqualSucceedsOnEqualC1Ev,_ZN12_GLOBAL__N_129TestCheckEqualSucceed
 2566              		.local	_ZN12_GLOBAL__N_137testCheckEqualSucceedsOnEqualInstanceE
 2567              		.comm	_ZN12_GLOBAL__N_137testCheckEqualSucceedsOnEqualInstanceE,56,32
 2568              		.local	_ZN12_GLOBAL__N_130adderCheckEqualSucceedsOnEqualE
 2569              		.comm	_ZN12_GLOBAL__N_130adderCheckEqualSucceedsOnEqualE,1,1
 2570              		.section	.rodata
 2571 03be 0000     		.align 8
 2572              	.LC28:
 2573 03c0 556E6861 		.string	"Unhandled exception in CHECK_EQUAL(1, 1)"
 2573      6E646C65 
 2573      64206578 
 2573      63657074 
 2573      696F6E20 
 2574              		.text
 2575 0fd5 90       		.align 2
 2577              	_ZNK12_GLOBAL__N_129TestCheckEqualSucceedsOnEqual7RunImplEv:
 2578              	.LFB1066:
  97:TestCheckMacros.cpp **** {
 2579              		.loc 6 97 0
 2580              		.cfi_startproc
 2581              		.cfi_personality 0x3,__gxx_personality_v0
 2582              		.cfi_lsda 0x3,.LLSDA1066
 2583 0fd6 55       		pushq	%rbp
 2584              		.cfi_def_cfa_offset 16
 2585              		.cfi_offset 6, -16
 2586 0fd7 4889E5   		movq	%rsp, %rbp
 2587              		.cfi_def_cfa_register 6
 2588 0fda 53       		pushq	%rbx
 2589 0fdb 4881ECB8 		subq	$2232, %rsp
 2589      080000
 2590              		.cfi_offset 3, -24
 2591 0fe2 4889BD48 		movq	%rdi, -2232(%rbp)
 2591      F7FFFF
 2592              		.loc 6 97 0
 2593 0fe9 64488B04 		movq	%fs:40, %rax
 2593      25280000 
 2593      00
 2594 0ff2 488945E8 		movq	%rax, -24(%rbp)
 2595 0ff6 31C0     		xorl	%eax, %eax
 2596              	.LBB39:
  98:TestCheckMacros.cpp ****     bool failure = true;
 2597              		.loc 6 98 0
 2598 0ff8 C68557F7 		movb	$1, -2217(%rbp)
 2598      FFFF01
 2599              	.LBB40:
  99:TestCheckMacros.cpp ****     {
 100:TestCheckMacros.cpp ****         RecordingReporter reporter;
 2600              		.loc 6 100 0
 2601 0fff 488D85B0 		leaq	-2128(%rbp), %rax
 2601      F7FFFF
 2602 1006 4889C7   		movq	%rax, %rdi
 2603 1009 E8000000 		call	_ZN17RecordingReporterC1Ev
 2603      00
 101:TestCheckMacros.cpp ****         UnitTest::TestResults testResults(&reporter);
 2604              		.loc 6 101 0
 2605 100e 488D95B0 		leaq	-2128(%rbp), %rdx
 2605      F7FFFF
 2606 1015 488D8570 		leaq	-2192(%rbp), %rax
 2606      F7FFFF
 2607 101c 4889D6   		movq	%rdx, %rsi
 2608 101f 4889C7   		movq	%rax, %rdi
 2609              	.LEHB70:
 2610 1022 E8000000 		call	_ZN8UnitTest11TestResultsC1EPNS_12TestReporterE
 2610      00
 102:TestCheckMacros.cpp **** 		ScopedCurrentTest scopedResults(testResults);
 2611              		.loc 6 102 0
 2612 1027 488D8D70 		leaq	-2192(%rbp), %rcx
 2612      F7FFFF
 2613 102e 488D8560 		leaq	-2208(%rbp), %rax
 2613      F7FFFF
 2614 1035 BA000000 		movl	$0, %edx
 2614      00
 2615 103a 4889CE   		movq	%rcx, %rsi
 2616 103d 4889C7   		movq	%rax, %rdi
 2617 1040 E8000000 		call	_ZN17ScopedCurrentTestC1ERN8UnitTest11TestResultsEPKNS0_11TestDetailsE
 2617      00
 2618              	.LEHE70:
 2619              	.LEHB71:
 103:TestCheckMacros.cpp ****         CHECK_EQUAL(1, 1);
 2620              		.loc 6 103 0
 2621 1045 E8000000 		call	_ZN8UnitTest11CurrentTest7DetailsEv
 2621      00
 2622 104a 488B08   		movq	(%rax), %rcx
 2623 104d 488D8590 		leaq	-2160(%rbp), %rax
 2623      F7FFFF
 2624 1054 BA670000 		movl	$103, %edx
 2624      00
 2625 1059 4889CE   		movq	%rcx, %rsi
 2626 105c 4889C7   		movq	%rax, %rdi
 2627 105f E8000000 		call	_ZN8UnitTest11TestDetailsC1ERKS0_i
 2627      00
 2628              		.loc 6 103 0 is_stmt 0 discriminator 1
 2629 1064 C7855CF7 		movl	$1, -2212(%rbp)
 2629      FFFF0100 
 2629      0000
 2630 106e C78558F7 		movl	$1, -2216(%rbp)
 2630      FFFF0100 
 2630      0000
 2631 1078 E8000000 		call	_ZN8UnitTest11CurrentTest7ResultsEv
 2631      00
 2632 107d 488B00   		movq	(%rax), %rax
 2633 1080 488D8D90 		leaq	-2160(%rbp), %rcx
 2633      F7FFFF
 2634 1087 488D955C 		leaq	-2212(%rbp), %rdx
 2634      F7FFFF
 2635 108e 488DB558 		leaq	-2216(%rbp), %rsi
 2635      F7FFFF
 2636 1095 4889C7   		movq	%rax, %rdi
 2637 1098 E8000000 		call	_ZN8UnitTest10CheckEqualIiiEEvRNS_11TestResultsERKT_RKT0_RKNS_11TestDetailsE
 2637      00
 2638              	.LEHE71:
 2639              	.L131:
 104:TestCheckMacros.cpp ****         failure = (testResults.GetFailureCount() > 0);
 2640              		.loc 6 104 0 is_stmt 1
 2641 109d 488D8570 		leaq	-2192(%rbp), %rax
 2641      F7FFFF
 2642 10a4 4889C7   		movq	%rax, %rdi
 2643              	.LEHB72:
 2644 10a7 E8000000 		call	_ZNK8UnitTest11TestResults15GetFailureCountEv
 2644      00
 2645              	.LEHE72:
 2646 10ac 85C0     		testl	%eax, %eax
 2647 10ae 0F9FC0   		setg	%al
 2648 10b1 888557F7 		movb	%al, -2217(%rbp)
 2648      FFFF
 102:TestCheckMacros.cpp **** 		ScopedCurrentTest scopedResults(testResults);
 2649              		.loc 6 102 0
 2650 10b7 488D8560 		leaq	-2208(%rbp), %rax
 2650      F7FFFF
 2651 10be 4889C7   		movq	%rax, %rdi
 2652              	.LEHB73:
 2653 10c1 E8000000 		call	_ZN17ScopedCurrentTestD1Ev
 2653      00
 2654              	.LEHE73:
 2655              		.loc 6 104 0
 2656 10c6 488D85B0 		leaq	-2128(%rbp), %rax
 2656      F7FFFF
 2657 10cd 4889C7   		movq	%rax, %rdi
 2658              	.LEHB74:
 2659 10d0 E8000000 		call	_ZN17RecordingReporterD1Ev
 2659      00
 2660              	.LEHE74:
 2661              	.LBE40:
 105:TestCheckMacros.cpp ****     }
 106:TestCheckMacros.cpp **** 
 107:TestCheckMacros.cpp ****     CHECK(!failure);
 2662              		.loc 6 107 0
 2663 10d5 0FB68557 		movzbl	-2217(%rbp), %eax
 2663      F7FFFF
 2664 10dc 83F001   		xorl	$1, %eax
 2665 10df 0FB6C0   		movzbl	%al, %eax
 2666 10e2 89C7     		movl	%eax, %edi
 2667 10e4 E8000000 		call	_ZN8UnitTest5CheckIbEEbT_
 2667      00
 2668 10e9 83F001   		xorl	$1, %eax
 2669 10ec 84C0     		testb	%al, %al
 2670 10ee 0F842D01 		je	.L126
 2670      0000
 2671              	.LEHB75:
 2672              		.loc 6 107 0 is_stmt 0 discriminator 1
 2673 10f4 E8000000 		call	_ZN8UnitTest11CurrentTest7DetailsEv
 2673      00
 2674 10f9 488B08   		movq	(%rax), %rcx
 2675 10fc 488D8590 		leaq	-2160(%rbp), %rax
 2675      F7FFFF
 2676 1103 BA6B0000 		movl	$107, %edx
 2676      00
 2677 1108 4889CE   		movq	%rcx, %rsi
 2678 110b 4889C7   		movq	%rax, %rdi
 2679 110e E8000000 		call	_ZN8UnitTest11TestDetailsC1ERKS0_i
 2679      00
 2680 1113 E8000000 		call	_ZN8UnitTest11CurrentTest7ResultsEv
 2680      00
 2681 1118 488B00   		movq	(%rax), %rax
 2682 111b 488D8D90 		leaq	-2160(%rbp), %rcx
 2682      F7FFFF
 2683 1122 BA000000 		movl	$.LC5, %edx
 2683      00
 2684 1127 4889CE   		movq	%rcx, %rsi
 2685 112a 4889C7   		movq	%rax, %rdi
 2686 112d E8000000 		call	_ZN8UnitTest11TestResults13OnTestFailureERKNS_11TestDetailsEPKc
 2686      00
 2687              	.LEHE75:
 2688 1132 E9EA0000 		jmp	.L126
 2688      00
 2689              	.L139:
 2690 1137 4889C3   		movq	%rax, %rbx
 2691              	.LBB41:
 103:TestCheckMacros.cpp ****         failure = (testResults.GetFailureCount() > 0);
 2692              		.loc 6 103 0 is_stmt 1
 2693 113a E8000000 		call	__cxa_end_catch
 2693      00
 2694 113f EB53     		jmp	.L129
 2695              	.L137:
 2696 1141 4889C7   		movq	%rax, %rdi
 2697 1144 E8000000 		call	__cxa_begin_catch
 2697      00
 2698              	.LEHB76:
 2699 1149 E8000000 		call	_ZN8UnitTest11CurrentTest7DetailsEv
 2699      00
 2700 114e 488B08   		movq	(%rax), %rcx
 2701 1151 488D8590 		leaq	-2160(%rbp), %rax
 2701      F7FFFF
 2702 1158 BA670000 		movl	$103, %edx
 2702      00
 2703 115d 4889CE   		movq	%rcx, %rsi
 2704 1160 4889C7   		movq	%rax, %rdi
 2705 1163 E8000000 		call	_ZN8UnitTest11TestDetailsC1ERKS0_i
 2705      00
 103:TestCheckMacros.cpp ****         failure = (testResults.GetFailureCount() > 0);
 2706              		.loc 6 103 0 is_stmt 0 discriminator 1
 2707 1168 E8000000 		call	_ZN8UnitTest11CurrentTest7ResultsEv
 2707      00
 2708 116d 488B00   		movq	(%rax), %rax
 2709 1170 488D8D90 		leaq	-2160(%rbp), %rcx
 2709      F7FFFF
 2710 1177 BA000000 		movl	$.LC28, %edx
 2710      00
 2711 117c 4889CE   		movq	%rcx, %rsi
 2712 117f 4889C7   		movq	%rax, %rdi
 2713 1182 E8000000 		call	_ZN8UnitTest11TestResults13OnTestFailureERKNS_11TestDetailsEPKc
 2713      00
 2714              	.LEHE76:
 2715              	.LEHB77:
 2716 1187 E8000000 		call	__cxa_end_catch
 2716      00
 2717              	.LEHE77:
 103:TestCheckMacros.cpp ****         failure = (testResults.GetFailureCount() > 0);
 2718              		.loc 6 103 0
 2719 118c E90CFFFF 		jmp	.L131
 2719      FF
 2720              	.L138:
 2721 1191 4889C3   		movq	%rax, %rbx
 2722              	.L129:
 102:TestCheckMacros.cpp ****         CHECK_EQUAL(1, 1);
 2723              		.loc 6 102 0 is_stmt 1
 2724 1194 488D8560 		leaq	-2208(%rbp), %rax
 2724      F7FFFF
 2725 119b 4889C7   		movq	%rax, %rdi
 2726 119e E8000000 		call	_ZN17ScopedCurrentTestD1Ev
 2726      00
 2727 11a3 EB03     		jmp	.L132
 2728              	.L136:
 2729 11a5 4889C3   		movq	%rax, %rbx
 2730              	.L132:
 104:TestCheckMacros.cpp ****     }
 2731              		.loc 6 104 0
 2732 11a8 488D85B0 		leaq	-2128(%rbp), %rax
 2732      F7FFFF
 2733 11af 4889C7   		movq	%rax, %rdi
 2734 11b2 E8000000 		call	_ZN17RecordingReporterD1Ev
 2734      00
 2735 11b7 4889D8   		movq	%rbx, %rax
 2736 11ba 4889C7   		movq	%rax, %rdi
 2737              	.LEHB78:
 2738 11bd E8000000 		call	_Unwind_Resume
 2738      00
 2739              	.LEHE78:
 2740              	.L141:
 2741 11c2 4889C3   		movq	%rax, %rbx
 2742              	.LBE41:
 2743              		.loc 6 107 0
 2744 11c5 E8000000 		call	__cxa_end_catch
 2744      00
 2745 11ca 4889D8   		movq	%rbx, %rax
 2746 11cd 4889C7   		movq	%rax, %rdi
 2747              	.LEHB79:
 2748 11d0 E8000000 		call	_Unwind_Resume
 2748      00
 2749              	.LEHE79:
 2750              	.L140:
 2751 11d5 4889C7   		movq	%rax, %rdi
 2752 11d8 E8000000 		call	__cxa_begin_catch
 2752      00
 2753              	.LEHB80:
 2754 11dd E8000000 		call	_ZN8UnitTest11CurrentTest7DetailsEv
 2754      00
 2755 11e2 488B08   		movq	(%rax), %rcx
 2756 11e5 488D8590 		leaq	-2160(%rbp), %rax
 2756      F7FFFF
 2757 11ec BA6B0000 		movl	$107, %edx
 2757      00
 2758 11f1 4889CE   		movq	%rcx, %rsi
 2759 11f4 4889C7   		movq	%rax, %rdi
 2760 11f7 E8000000 		call	_ZN8UnitTest11TestDetailsC1ERKS0_i
 2760      00
 2761              		.loc 6 107 0 is_stmt 0 discriminator 1
 2762 11fc E8000000 		call	_ZN8UnitTest11CurrentTest7ResultsEv
 2762      00
 2763 1201 488B00   		movq	(%rax), %rax
 2764 1204 488D8D90 		leaq	-2160(%rbp), %rcx
 2764      F7FFFF
 2765 120b BA000000 		movl	$.LC7, %edx
 2765      00
 2766 1210 4889CE   		movq	%rcx, %rsi
 2767 1213 4889C7   		movq	%rax, %rdi
 2768 1216 E8000000 		call	_ZN8UnitTest11TestResults13OnTestFailureERKNS_11TestDetailsEPKc
 2768      00
 2769              	.LEHE80:
 2770              	.LEHB81:
 2771 121b E8000000 		call	__cxa_end_catch
 2771      00
 2772              	.LEHE81:
 2773              	.LBE39:
 108:TestCheckMacros.cpp **** }
 2774              		.loc 6 108 0 is_stmt 1 discriminator 1
 2775 1220 90       		nop
 2776              	.L126:
 2777              		.loc 6 108 0 is_stmt 0
 2778 1221 488B45E8 		movq	-24(%rbp), %rax
 2779 1225 64483304 		xorq	%fs:40, %rax
 2779      25280000 
 2779      00
 2780 122e 7405     		je	.L135
 2781 1230 E8000000 		call	__stack_chk_fail
 2781      00
 2782              	.L135:
 2783 1235 4881C4B8 		addq	$2232, %rsp
 2783      080000
 2784 123c 5B       		popq	%rbx
 2785 123d 5D       		popq	%rbp
 2786              		.cfi_def_cfa 7, 8
 2787 123e C3       		ret
 2788              		.cfi_endproc
 2789              	.LFE1066:
 2790              		.section	.gcc_except_table
 2791              		.align 4
 2792              	.LLSDA1066:
 2793 01bc FF       		.byte	0xff
 2794 01bd 03       		.byte	0x3
 2795 01be 4D       		.uleb128 .LLSDATT1066-.LLSDATTD1066
 2796              	.LLSDATTD1066:
 2797 01bf 01       		.byte	0x1
 2798 01c0 42       		.uleb128 .LLSDACSE1066-.LLSDACSB1066
 2799              	.LLSDACSB1066:
 2800 01c1 4C       		.uleb128 .LEHB70-.LFB1066
 2801 01c2 23       		.uleb128 .LEHE70-.LEHB70
 2802 01c3 CF03     		.uleb128 .L136-.LFB1066
 2803 01c5 00       		.uleb128 0
 2804 01c6 6F       		.uleb128 .LEHB71-.LFB1066
 2805 01c7 58       		.uleb128 .LEHE71-.LEHB71
 2806 01c8 EB02     		.uleb128 .L137-.LFB1066
 2807 01ca 01       		.uleb128 0x1
 2808 01cb D101     		.uleb128 .LEHB72-.LFB1066
 2809 01cd 05       		.uleb128 .LEHE72-.LEHB72
 2810 01ce BB03     		.uleb128 .L138-.LFB1066
 2811 01d0 00       		.uleb128 0
 2812 01d1 EB01     		.uleb128 .LEHB73-.LFB1066
 2813 01d3 05       		.uleb128 .LEHE73-.LEHB73
 2814 01d4 CF03     		.uleb128 .L136-.LFB1066
 2815 01d6 00       		.uleb128 0
 2816 01d7 FA01     		.uleb128 .LEHB74-.LFB1066
 2817 01d9 05       		.uleb128 .LEHE74-.LEHB74
 2818 01da 00       		.uleb128 0
 2819 01db 00       		.uleb128 0
 2820 01dc 9E02     		.uleb128 .LEHB75-.LFB1066
 2821 01de 3E       		.uleb128 .LEHE75-.LEHB75
 2822 01df FF03     		.uleb128 .L140-.LFB1066
 2823 01e1 01       		.uleb128 0x1
 2824 01e2 F302     		.uleb128 .LEHB76-.LFB1066
 2825 01e4 3E       		.uleb128 .LEHE76-.LEHB76
 2826 01e5 E102     		.uleb128 .L139-.LFB1066
 2827 01e7 00       		.uleb128 0
 2828 01e8 B103     		.uleb128 .LEHB77-.LFB1066
 2829 01ea 05       		.uleb128 .LEHE77-.LEHB77
 2830 01eb BB03     		.uleb128 .L138-.LFB1066
 2831 01ed 00       		.uleb128 0
 2832 01ee E703     		.uleb128 .LEHB78-.LFB1066
 2833 01f0 05       		.uleb128 .LEHE78-.LEHB78
 2834 01f1 00       		.uleb128 0
 2835 01f2 00       		.uleb128 0
 2836 01f3 FA03     		.uleb128 .LEHB79-.LFB1066
 2837 01f5 05       		.uleb128 .LEHE79-.LEHB79
 2838 01f6 00       		.uleb128 0
 2839 01f7 00       		.uleb128 0
 2840 01f8 8704     		.uleb128 .LEHB80-.LFB1066
 2841 01fa 3E       		.uleb128 .LEHE80-.LEHB80
 2842 01fb EC03     		.uleb128 .L141-.LFB1066
 2843 01fd 00       		.uleb128 0
 2844 01fe C504     		.uleb128 .LEHB81-.LFB1066
 2845 0200 05       		.uleb128 .LEHE81-.LEHB81
 2846 0201 00       		.uleb128 0
 2847 0202 00       		.uleb128 0
 2848              	.LLSDACSE1066:
 2849 0203 01       		.byte	0x1
 2850 0204 00       		.byte	0
 2851 0205 000000   		.align 4
 2852 0208 00000000 		.long	0
 2853              	
 2854              	.LLSDATT1066:
 2855              		.text
 2857              		.section	.rodata
 2858              	.LC29:
 2859 03e9 43686563 		.string	"CheckEqualFailsOnNotEqual"
 2859      6B457175 
 2859      616C4661 
 2859      696C734F 
 2859      6E4E6F74 
 2860              		.text
 2861 123f 90       		.align 2
 2863              	_ZN12_GLOBAL__N_129TestCheckEqualFailsOnNotEqualC2Ev:
 2864              	.LFB1068:
 109:TestCheckMacros.cpp **** 
 110:TestCheckMacros.cpp **** TEST(CheckEqualFailsOnNotEqual)
 2865              		.loc 6 110 0 is_stmt 1
 2866              		.cfi_startproc
 2867 1240 55       		pushq	%rbp
 2868              		.cfi_def_cfa_offset 16
 2869              		.cfi_offset 6, -16
 2870 1241 4889E5   		movq	%rsp, %rbp
 2871              		.cfi_def_cfa_register 6
 2872 1244 4883EC10 		subq	$16, %rsp
 2873 1248 48897DF8 		movq	%rdi, -8(%rbp)
 2874              	.LBB42:
 2875              		.loc 6 110 0
 2876 124c E8000000 		call	_ZN13UnitTestSuite12GetSuiteNameEv
 2876      00
 2877 1251 4889C2   		movq	%rax, %rdx
 2878 1254 488B45F8 		movq	-8(%rbp), %rax
 2879 1258 41B86E00 		movl	$110, %r8d
 2879      0000
 2880 125e B9000000 		movl	$.LC2, %ecx
 2880      00
 2881 1263 BE000000 		movl	$.LC29, %esi
 2881      00
 2882 1268 4889C7   		movq	%rax, %rdi
 2883 126b E8000000 		call	_ZN8UnitTest4TestC2EPKcS2_S2_i
 2883      00
 2884 1270 488B45F8 		movq	-8(%rbp), %rax
 2885 1274 48C70000 		movq	$_ZTVN12_GLOBAL__N_129TestCheckEqualFailsOnNotEqualE+16, (%rax)
 2885      000000
 2886              	.LBE42:
 2887 127b C9       		leave
 2888              		.cfi_def_cfa 7, 8
 2889 127c C3       		ret
 2890              		.cfi_endproc
 2891              	.LFE1068:
 2893              		.set	_ZN12_GLOBAL__N_129TestCheckEqualFailsOnNotEqualC1Ev,_ZN12_GLOBAL__N_129TestCheckEqualFailsOn
 2894              		.local	_ZN12_GLOBAL__N_137testCheckEqualFailsOnNotEqualInstanceE
 2895              		.comm	_ZN12_GLOBAL__N_137testCheckEqualFailsOnNotEqualInstanceE,56,32
 2896              		.local	_ZN12_GLOBAL__N_130adderCheckEqualFailsOnNotEqualE
 2897              		.comm	_ZN12_GLOBAL__N_130adderCheckEqualFailsOnNotEqualE,1,1
 2898              		.section	.rodata
 2899 0403 00000000 		.align 8
 2899      00
 2900              	.LC30:
 2901 0408 556E6861 		.string	"Unhandled exception in CHECK_EQUAL(1, 2)"
 2901      6E646C65 
 2901      64206578 
 2901      63657074 
 2901      696F6E20 
 2902              		.text
 2903 127d 90       		.align 2
 2905              	_ZNK12_GLOBAL__N_129TestCheckEqualFailsOnNotEqual7RunImplEv:
 2906              	.LFB1070:
 111:TestCheckMacros.cpp **** {
 2907              		.loc 6 111 0
 2908              		.cfi_startproc
 2909              		.cfi_personality 0x3,__gxx_personality_v0
 2910              		.cfi_lsda 0x3,.LLSDA1070
 2911 127e 55       		pushq	%rbp
 2912              		.cfi_def_cfa_offset 16
 2913              		.cfi_offset 6, -16
 2914 127f 4889E5   		movq	%rsp, %rbp
 2915              		.cfi_def_cfa_register 6
 2916 1282 53       		pushq	%rbx
 2917 1283 4881ECB8 		subq	$2232, %rsp
 2917      080000
 2918              		.cfi_offset 3, -24
 2919 128a 4889BD48 		movq	%rdi, -2232(%rbp)
 2919      F7FFFF
 2920              		.loc 6 111 0
 2921 1291 64488B04 		movq	%fs:40, %rax
 2921      25280000 
 2921      00
 2922 129a 488945E8 		movq	%rax, -24(%rbp)
 2923 129e 31C0     		xorl	%eax, %eax
 2924              	.LBB43:
 112:TestCheckMacros.cpp ****     bool failure = false;
 2925              		.loc 6 112 0
 2926 12a0 C68557F7 		movb	$0, -2217(%rbp)
 2926      FFFF00
 2927              	.LBB44:
 113:TestCheckMacros.cpp ****     {
 114:TestCheckMacros.cpp ****         RecordingReporter reporter;
 2928              		.loc 6 114 0
 2929 12a7 488D85B0 		leaq	-2128(%rbp), %rax
 2929      F7FFFF
 2930 12ae 4889C7   		movq	%rax, %rdi
 2931 12b1 E8000000 		call	_ZN17RecordingReporterC1Ev
 2931      00
 115:TestCheckMacros.cpp ****         UnitTest::TestResults testResults(&reporter);
 2932              		.loc 6 115 0
 2933 12b6 488D95B0 		leaq	-2128(%rbp), %rdx
 2933      F7FFFF
 2934 12bd 488D8570 		leaq	-2192(%rbp), %rax
 2934      F7FFFF
 2935 12c4 4889D6   		movq	%rdx, %rsi
 2936 12c7 4889C7   		movq	%rax, %rdi
 2937              	.LEHB82:
 2938 12ca E8000000 		call	_ZN8UnitTest11TestResultsC1EPNS_12TestReporterE
 2938      00
 116:TestCheckMacros.cpp **** 		ScopedCurrentTest scopedResults(testResults);
 2939              		.loc 6 116 0
 2940 12cf 488D8D70 		leaq	-2192(%rbp), %rcx
 2940      F7FFFF
 2941 12d6 488D8560 		leaq	-2208(%rbp), %rax
 2941      F7FFFF
 2942 12dd BA000000 		movl	$0, %edx
 2942      00
 2943 12e2 4889CE   		movq	%rcx, %rsi
 2944 12e5 4889C7   		movq	%rax, %rdi
 2945 12e8 E8000000 		call	_ZN17ScopedCurrentTestC1ERN8UnitTest11TestResultsEPKNS0_11TestDetailsE
 2945      00
 2946              	.LEHE82:
 2947              	.LEHB83:
 117:TestCheckMacros.cpp ****         CHECK_EQUAL(1, 2);
 2948              		.loc 6 117 0
 2949 12ed E8000000 		call	_ZN8UnitTest11CurrentTest7DetailsEv
 2949      00
 2950 12f2 488B08   		movq	(%rax), %rcx
 2951 12f5 488D8590 		leaq	-2160(%rbp), %rax
 2951      F7FFFF
 2952 12fc BA750000 		movl	$117, %edx
 2952      00
 2953 1301 4889CE   		movq	%rcx, %rsi
 2954 1304 4889C7   		movq	%rax, %rdi
 2955 1307 E8000000 		call	_ZN8UnitTest11TestDetailsC1ERKS0_i
 2955      00
 2956              		.loc 6 117 0 is_stmt 0 discriminator 1
 2957 130c C7855CF7 		movl	$2, -2212(%rbp)
 2957      FFFF0200 
 2957      0000
 2958 1316 C78558F7 		movl	$1, -2216(%rbp)
 2958      FFFF0100 
 2958      0000
 2959 1320 E8000000 		call	_ZN8UnitTest11CurrentTest7ResultsEv
 2959      00
 2960 1325 488B00   		movq	(%rax), %rax
 2961 1328 488D8D90 		leaq	-2160(%rbp), %rcx
 2961      F7FFFF
 2962 132f 488D955C 		leaq	-2212(%rbp), %rdx
 2962      F7FFFF
 2963 1336 488DB558 		leaq	-2216(%rbp), %rsi
 2963      F7FFFF
 2964 133d 4889C7   		movq	%rax, %rdi
 2965 1340 E8000000 		call	_ZN8UnitTest10CheckEqualIiiEEvRNS_11TestResultsERKT_RKT0_RKNS_11TestDetailsE
 2965      00
 2966              	.LEHE83:
 2967              	.L148:
 118:TestCheckMacros.cpp ****         failure = (testResults.GetFailureCount() > 0);
 2968              		.loc 6 118 0 is_stmt 1
 2969 1345 488D8570 		leaq	-2192(%rbp), %rax
 2969      F7FFFF
 2970 134c 4889C7   		movq	%rax, %rdi
 2971              	.LEHB84:
 2972 134f E8000000 		call	_ZNK8UnitTest11TestResults15GetFailureCountEv
 2972      00
 2973              	.LEHE84:
 2974 1354 85C0     		testl	%eax, %eax
 2975 1356 0F9FC0   		setg	%al
 2976 1359 888557F7 		movb	%al, -2217(%rbp)
 2976      FFFF
 116:TestCheckMacros.cpp **** 		ScopedCurrentTest scopedResults(testResults);
 2977              		.loc 6 116 0
 2978 135f 488D8560 		leaq	-2208(%rbp), %rax
 2978      F7FFFF
 2979 1366 4889C7   		movq	%rax, %rdi
 2980              	.LEHB85:
 2981 1369 E8000000 		call	_ZN17ScopedCurrentTestD1Ev
 2981      00
 2982              	.LEHE85:
 2983              		.loc 6 118 0
 2984 136e 488D85B0 		leaq	-2128(%rbp), %rax
 2984      F7FFFF
 2985 1375 4889C7   		movq	%rax, %rdi
 2986              	.LEHB86:
 2987 1378 E8000000 		call	_ZN17RecordingReporterD1Ev
 2987      00
 2988              	.LEHE86:
 2989              	.LBE44:
 119:TestCheckMacros.cpp ****     }
 120:TestCheckMacros.cpp **** 
 121:TestCheckMacros.cpp ****     CHECK(failure);
 2990              		.loc 6 121 0
 2991 137d 0FB68557 		movzbl	-2217(%rbp), %eax
 2991      F7FFFF
 2992 1384 89C7     		movl	%eax, %edi
 2993 1386 E8000000 		call	_ZN8UnitTest5CheckIbEEbT_
 2993      00
 2994 138b 83F001   		xorl	$1, %eax
 2995 138e 84C0     		testb	%al, %al
 2996 1390 0F842D01 		je	.L143
 2996      0000
 2997              	.LEHB87:
 2998              		.loc 6 121 0 is_stmt 0 discriminator 1
 2999 1396 E8000000 		call	_ZN8UnitTest11CurrentTest7DetailsEv
 2999      00
 3000 139b 488B08   		movq	(%rax), %rcx
 3001 139e 488D8590 		leaq	-2160(%rbp), %rax
 3001      F7FFFF
 3002 13a5 BA790000 		movl	$121, %edx
 3002      00
 3003 13aa 4889CE   		movq	%rcx, %rsi
 3004 13ad 4889C7   		movq	%rax, %rdi
 3005 13b0 E8000000 		call	_ZN8UnitTest11TestDetailsC1ERKS0_i
 3005      00
 3006 13b5 E8000000 		call	_ZN8UnitTest11CurrentTest7ResultsEv
 3006      00
 3007 13ba 488B00   		movq	(%rax), %rax
 3008 13bd 488D8D90 		leaq	-2160(%rbp), %rcx
 3008      F7FFFF
 3009 13c4 BA000000 		movl	$.LC10, %edx
 3009      00
 3010 13c9 4889CE   		movq	%rcx, %rsi
 3011 13cc 4889C7   		movq	%rax, %rdi
 3012 13cf E8000000 		call	_ZN8UnitTest11TestResults13OnTestFailureERKNS_11TestDetailsEPKc
 3012      00
 3013              	.LEHE87:
 3014 13d4 E9EA0000 		jmp	.L143
 3014      00
 3015              	.L156:
 3016 13d9 4889C3   		movq	%rax, %rbx
 3017              	.LBB45:
 117:TestCheckMacros.cpp ****         failure = (testResults.GetFailureCount() > 0);
 3018              		.loc 6 117 0 is_stmt 1
 3019 13dc E8000000 		call	__cxa_end_catch
 3019      00
 3020 13e1 EB53     		jmp	.L146
 3021              	.L154:
 3022 13e3 4889C7   		movq	%rax, %rdi
 3023 13e6 E8000000 		call	__cxa_begin_catch
 3023      00
 3024              	.LEHB88:
 3025 13eb E8000000 		call	_ZN8UnitTest11CurrentTest7DetailsEv
 3025      00
 3026 13f0 488B08   		movq	(%rax), %rcx
 3027 13f3 488D8590 		leaq	-2160(%rbp), %rax
 3027      F7FFFF
 3028 13fa BA750000 		movl	$117, %edx
 3028      00
 3029 13ff 4889CE   		movq	%rcx, %rsi
 3030 1402 4889C7   		movq	%rax, %rdi
 3031 1405 E8000000 		call	_ZN8UnitTest11TestDetailsC1ERKS0_i
 3031      00
 117:TestCheckMacros.cpp ****         failure = (testResults.GetFailureCount() > 0);
 3032              		.loc 6 117 0 is_stmt 0 discriminator 1
 3033 140a E8000000 		call	_ZN8UnitTest11CurrentTest7ResultsEv
 3033      00
 3034 140f 488B00   		movq	(%rax), %rax
 3035 1412 488D8D90 		leaq	-2160(%rbp), %rcx
 3035      F7FFFF
 3036 1419 BA000000 		movl	$.LC30, %edx
 3036      00
 3037 141e 4889CE   		movq	%rcx, %rsi
 3038 1421 4889C7   		movq	%rax, %rdi
 3039 1424 E8000000 		call	_ZN8UnitTest11TestResults13OnTestFailureERKNS_11TestDetailsEPKc
 3039      00
 3040              	.LEHE88:
 3041              	.LEHB89:
 3042 1429 E8000000 		call	__cxa_end_catch
 3042      00
 3043              	.LEHE89:
 117:TestCheckMacros.cpp ****         failure = (testResults.GetFailureCount() > 0);
 3044              		.loc 6 117 0
 3045 142e E912FFFF 		jmp	.L148
 3045      FF
 3046              	.L155:
 3047 1433 4889C3   		movq	%rax, %rbx
 3048              	.L146:
 116:TestCheckMacros.cpp ****         CHECK_EQUAL(1, 2);
 3049              		.loc 6 116 0 is_stmt 1
 3050 1436 488D8560 		leaq	-2208(%rbp), %rax
 3050      F7FFFF
 3051 143d 4889C7   		movq	%rax, %rdi
 3052 1440 E8000000 		call	_ZN17ScopedCurrentTestD1Ev
 3052      00
 3053 1445 EB03     		jmp	.L149
 3054              	.L153:
 3055 1447 4889C3   		movq	%rax, %rbx
 3056              	.L149:
 118:TestCheckMacros.cpp ****     }
 3057              		.loc 6 118 0
 3058 144a 488D85B0 		leaq	-2128(%rbp), %rax
 3058      F7FFFF
 3059 1451 4889C7   		movq	%rax, %rdi
 3060 1454 E8000000 		call	_ZN17RecordingReporterD1Ev
 3060      00
 3061 1459 4889D8   		movq	%rbx, %rax
 3062 145c 4889C7   		movq	%rax, %rdi
 3063              	.LEHB90:
 3064 145f E8000000 		call	_Unwind_Resume
 3064      00
 3065              	.LEHE90:
 3066              	.L158:
 3067 1464 4889C3   		movq	%rax, %rbx
 3068              	.LBE45:
 3069              		.loc 6 121 0
 3070 1467 E8000000 		call	__cxa_end_catch
 3070      00
 3071 146c 4889D8   		movq	%rbx, %rax
 3072 146f 4889C7   		movq	%rax, %rdi
 3073              	.LEHB91:
 3074 1472 E8000000 		call	_Unwind_Resume
 3074      00
 3075              	.LEHE91:
 3076              	.L157:
 3077 1477 4889C7   		movq	%rax, %rdi
 3078 147a E8000000 		call	__cxa_begin_catch
 3078      00
 3079              	.LEHB92:
 3080 147f E8000000 		call	_ZN8UnitTest11CurrentTest7DetailsEv
 3080      00
 3081 1484 488B08   		movq	(%rax), %rcx
 3082 1487 488D8590 		leaq	-2160(%rbp), %rax
 3082      F7FFFF
 3083 148e BA790000 		movl	$121, %edx
 3083      00
 3084 1493 4889CE   		movq	%rcx, %rsi
 3085 1496 4889C7   		movq	%rax, %rdi
 3086 1499 E8000000 		call	_ZN8UnitTest11TestDetailsC1ERKS0_i
 3086      00
 3087              		.loc 6 121 0 is_stmt 0 discriminator 1
 3088 149e E8000000 		call	_ZN8UnitTest11CurrentTest7ResultsEv
 3088      00
 3089 14a3 488B00   		movq	(%rax), %rax
 3090 14a6 488D8D90 		leaq	-2160(%rbp), %rcx
 3090      F7FFFF
 3091 14ad BA000000 		movl	$.LC12, %edx
 3091      00
 3092 14b2 4889CE   		movq	%rcx, %rsi
 3093 14b5 4889C7   		movq	%rax, %rdi
 3094 14b8 E8000000 		call	_ZN8UnitTest11TestResults13OnTestFailureERKNS_11TestDetailsEPKc
 3094      00
 3095              	.LEHE92:
 3096              	.LEHB93:
 3097 14bd E8000000 		call	__cxa_end_catch
 3097      00
 3098              	.LEHE93:
 3099              	.LBE43:
 122:TestCheckMacros.cpp **** }
 3100              		.loc 6 122 0 is_stmt 1 discriminator 1
 3101 14c2 90       		nop
 3102              	.L143:
 3103              		.loc 6 122 0 is_stmt 0
 3104 14c3 488B45E8 		movq	-24(%rbp), %rax
 3105 14c7 64483304 		xorq	%fs:40, %rax
 3105      25280000 
 3105      00
 3106 14d0 7405     		je	.L152
 3107 14d2 E8000000 		call	__stack_chk_fail
 3107      00
 3108              	.L152:
 3109 14d7 4881C4B8 		addq	$2232, %rsp
 3109      080000
 3110 14de 5B       		popq	%rbx
 3111 14df 5D       		popq	%rbp
 3112              		.cfi_def_cfa 7, 8
 3113 14e0 C3       		ret
 3114              		.cfi_endproc
 3115              	.LFE1070:
 3116              		.section	.gcc_except_table
 3117              		.align 4
 3118              	.LLSDA1070:
 3119 020c FF       		.byte	0xff
 3120 020d 03       		.byte	0x3
 3121 020e 4D       		.uleb128 .LLSDATT1070-.LLSDATTD1070
 3122              	.LLSDATTD1070:
 3123 020f 01       		.byte	0x1
 3124 0210 42       		.uleb128 .LLSDACSE1070-.LLSDACSB1070
 3125              	.LLSDACSB1070:
 3126 0211 4C       		.uleb128 .LEHB82-.LFB1070
 3127 0212 23       		.uleb128 .LEHE82-.LEHB82
 3128 0213 C903     		.uleb128 .L153-.LFB1070
 3129 0215 00       		.uleb128 0
 3130 0216 6F       		.uleb128 .LEHB83-.LFB1070
 3131 0217 58       		.uleb128 .LEHE83-.LEHB83
 3132 0218 E502     		.uleb128 .L154-.LFB1070
 3133 021a 01       		.uleb128 0x1
 3134 021b D101     		.uleb128 .LEHB84-.LFB1070
 3135 021d 05       		.uleb128 .LEHE84-.LEHB84
 3136 021e B503     		.uleb128 .L155-.LFB1070
 3137 0220 00       		.uleb128 0
 3138 0221 EB01     		.uleb128 .LEHB85-.LFB1070
 3139 0223 05       		.uleb128 .LEHE85-.LEHB85
 3140 0224 C903     		.uleb128 .L153-.LFB1070
 3141 0226 00       		.uleb128 0
 3142 0227 FA01     		.uleb128 .LEHB86-.LFB1070
 3143 0229 05       		.uleb128 .LEHE86-.LEHB86
 3144 022a 00       		.uleb128 0
 3145 022b 00       		.uleb128 0
 3146 022c 9802     		.uleb128 .LEHB87-.LFB1070
 3147 022e 3E       		.uleb128 .LEHE87-.LEHB87
 3148 022f F903     		.uleb128 .L157-.LFB1070
 3149 0231 01       		.uleb128 0x1
 3150 0232 ED02     		.uleb128 .LEHB88-.LFB1070
 3151 0234 3E       		.uleb128 .LEHE88-.LEHB88
 3152 0235 DB02     		.uleb128 .L156-.LFB1070
 3153 0237 00       		.uleb128 0
 3154 0238 AB03     		.uleb128 .LEHB89-.LFB1070
 3155 023a 05       		.uleb128 .LEHE89-.LEHB89
 3156 023b B503     		.uleb128 .L155-.LFB1070
 3157 023d 00       		.uleb128 0
 3158 023e E103     		.uleb128 .LEHB90-.LFB1070
 3159 0240 05       		.uleb128 .LEHE90-.LEHB90
 3160 0241 00       		.uleb128 0
 3161 0242 00       		.uleb128 0
 3162 0243 F403     		.uleb128 .LEHB91-.LFB1070
 3163 0245 05       		.uleb128 .LEHE91-.LEHB91
 3164 0246 00       		.uleb128 0
 3165 0247 00       		.uleb128 0
 3166 0248 8104     		.uleb128 .LEHB92-.LFB1070
 3167 024a 3E       		.uleb128 .LEHE92-.LEHB92
 3168 024b E603     		.uleb128 .L158-.LFB1070
 3169 024d 00       		.uleb128 0
 3170 024e BF04     		.uleb128 .LEHB93-.LFB1070
 3171 0250 05       		.uleb128 .LEHE93-.LEHB93
 3172 0251 00       		.uleb128 0
 3173 0252 00       		.uleb128 0
 3174              	.LLSDACSE1070:
 3175 0253 01       		.byte	0x1
 3176 0254 00       		.byte	0
 3177 0255 000000   		.align 4
 3178 0258 00000000 		.long	0
 3179              	
 3180              	.LLSDATT1070:
 3181              		.text
 3183              		.section	.rodata
 3184              	.LC31:
 3185 0431 43686563 		.string	"CheckEqualFailsOnException"
 3185      6B457175 
 3185      616C4661 
 3185      696C734F 
 3185      6E457863 
 3186              		.text
 3187 14e1 90       		.align 2
 3189              	_ZN12_GLOBAL__N_130TestCheckEqualFailsOnExceptionC2Ev:
 3190              	.LFB1072:
 123:TestCheckMacros.cpp **** 
 124:TestCheckMacros.cpp **** TEST(CheckEqualFailsOnException)
 3191              		.loc 6 124 0 is_stmt 1
 3192              		.cfi_startproc
 3193 14e2 55       		pushq	%rbp
 3194              		.cfi_def_cfa_offset 16
 3195              		.cfi_offset 6, -16
 3196 14e3 4889E5   		movq	%rsp, %rbp
 3197              		.cfi_def_cfa_register 6
 3198 14e6 4883EC10 		subq	$16, %rsp
 3199 14ea 48897DF8 		movq	%rdi, -8(%rbp)
 3200              	.LBB46:
 3201              		.loc 6 124 0
 3202 14ee E8000000 		call	_ZN13UnitTestSuite12GetSuiteNameEv
 3202      00
 3203 14f3 4889C2   		movq	%rax, %rdx
 3204 14f6 488B45F8 		movq	-8(%rbp), %rax
 3205 14fa 41B87C00 		movl	$124, %r8d
 3205      0000
 3206 1500 B9000000 		movl	$.LC2, %ecx
 3206      00
 3207 1505 BE000000 		movl	$.LC31, %esi
 3207      00
 3208 150a 4889C7   		movq	%rax, %rdi
 3209 150d E8000000 		call	_ZN8UnitTest4TestC2EPKcS2_S2_i
 3209      00
 3210 1512 488B45F8 		movq	-8(%rbp), %rax
 3211 1516 48C70000 		movq	$_ZTVN12_GLOBAL__N_130TestCheckEqualFailsOnExceptionE+16, (%rax)
 3211      000000
 3212              	.LBE46:
 3213 151d C9       		leave
 3214              		.cfi_def_cfa 7, 8
 3215 151e C3       		ret
 3216              		.cfi_endproc
 3217              	.LFE1072:
 3219              		.set	_ZN12_GLOBAL__N_130TestCheckEqualFailsOnExceptionC1Ev,_ZN12_GLOBAL__N_130TestCheckEqualFailsO
 3220              		.local	_ZN12_GLOBAL__N_138testCheckEqualFailsOnExceptionInstanceE
 3221              		.comm	_ZN12_GLOBAL__N_138testCheckEqualFailsOnExceptionInstanceE,56,32
 3222              		.local	_ZN12_GLOBAL__N_131adderCheckEqualFailsOnExceptionE
 3223              		.comm	_ZN12_GLOBAL__N_131adderCheckEqualFailsOnExceptionE,1,1
 3224              		.section	.rodata
 3225 044c 00000000 		.align 8
 3226              	.LC32:
 3227 0450 556E6861 		.string	"Unhandled exception in CHECK_EQUAL(ThrowingFunction(), 1)"
 3227      6E646C65 
 3227      64206578 
 3227      63657074 
 3227      696F6E20 
 3228              		.text
 3229 151f 90       		.align 2
 3231              	_ZNK12_GLOBAL__N_130TestCheckEqualFailsOnException7RunImplEv:
 3232              	.LFB1074:
 125:TestCheckMacros.cpp **** {
 3233              		.loc 6 125 0
 3234              		.cfi_startproc
 3235              		.cfi_personality 0x3,__gxx_personality_v0
 3236              		.cfi_lsda 0x3,.LLSDA1074
 3237 1520 55       		pushq	%rbp
 3238              		.cfi_def_cfa_offset 16
 3239              		.cfi_offset 6, -16
 3240 1521 4889E5   		movq	%rsp, %rbp
 3241              		.cfi_def_cfa_register 6
 3242 1524 53       		pushq	%rbx
 3243 1525 4881ECB8 		subq	$2232, %rsp
 3243      080000
 3244              		.cfi_offset 3, -24
 3245 152c 4889BD48 		movq	%rdi, -2232(%rbp)
 3245      F7FFFF
 3246              		.loc 6 125 0
 3247 1533 64488B04 		movq	%fs:40, %rax
 3247      25280000 
 3247      00
 3248 153c 488945E8 		movq	%rax, -24(%rbp)
 3249 1540 31C0     		xorl	%eax, %eax
 3250              	.LBB47:
 126:TestCheckMacros.cpp ****     bool failure = false;
 3251              		.loc 6 126 0
 3252 1542 C68557F7 		movb	$0, -2217(%rbp)
 3252      FFFF00
 3253              	.LBB48:
 127:TestCheckMacros.cpp ****     {
 128:TestCheckMacros.cpp ****         RecordingReporter reporter;
 3254              		.loc 6 128 0
 3255 1549 488D85B0 		leaq	-2128(%rbp), %rax
 3255      F7FFFF
 3256 1550 4889C7   		movq	%rax, %rdi
 3257 1553 E8000000 		call	_ZN17RecordingReporterC1Ev
 3257      00
 129:TestCheckMacros.cpp ****         UnitTest::TestResults testResults(&reporter);
 3258              		.loc 6 129 0
 3259 1558 488D95B0 		leaq	-2128(%rbp), %rdx
 3259      F7FFFF
 3260 155f 488D8570 		leaq	-2192(%rbp), %rax
 3260      F7FFFF
 3261 1566 4889D6   		movq	%rdx, %rsi
 3262 1569 4889C7   		movq	%rax, %rdi
 3263              	.LEHB94:
 3264 156c E8000000 		call	_ZN8UnitTest11TestResultsC1EPNS_12TestReporterE
 3264      00
 130:TestCheckMacros.cpp **** 		ScopedCurrentTest scopedResults(testResults);
 3265              		.loc 6 130 0
 3266 1571 488D8D70 		leaq	-2192(%rbp), %rcx
 3266      F7FFFF
 3267 1578 488D8560 		leaq	-2208(%rbp), %rax
 3267      F7FFFF
 3268 157f BA000000 		movl	$0, %edx
 3268      00
 3269 1584 4889CE   		movq	%rcx, %rsi
 3270 1587 4889C7   		movq	%rax, %rdi
 3271 158a E8000000 		call	_ZN17ScopedCurrentTestC1ERN8UnitTest11TestResultsEPKNS0_11TestDetailsE
 3271      00
 3272              	.LEHE94:
 3273              	.LEHB95:
 131:TestCheckMacros.cpp ****         CHECK_EQUAL(ThrowingFunction(), 1);
 3274              		.loc 6 131 0
 3275 158f E8000000 		call	_ZN8UnitTest11CurrentTest7DetailsEv
 3275      00
 3276 1594 488B08   		movq	(%rax), %rcx
 3277 1597 488D8590 		leaq	-2160(%rbp), %rax
 3277      F7FFFF
 3278 159e BA830000 		movl	$131, %edx
 3278      00
 3279 15a3 4889CE   		movq	%rcx, %rsi
 3280 15a6 4889C7   		movq	%rax, %rdi
 3281 15a9 E8000000 		call	_ZN8UnitTest11TestDetailsC1ERKS0_i
 3281      00
 3282              		.loc 6 131 0 is_stmt 0 discriminator 1
 3283 15ae C7855CF7 		movl	$1, -2212(%rbp)
 3283      FFFF0100 
 3283      0000
 3284 15b8 E87EF4FF 		call	_ZN12_GLOBAL__N_116ThrowingFunctionEv
 3284      FF
 3285 15bd 898558F7 		movl	%eax, -2216(%rbp)
 3285      FFFF
 3286 15c3 E8000000 		call	_ZN8UnitTest11CurrentTest7ResultsEv
 3286      00
 3287 15c8 488B00   		movq	(%rax), %rax
 3288 15cb 488D8D90 		leaq	-2160(%rbp), %rcx
 3288      F7FFFF
 3289 15d2 488D955C 		leaq	-2212(%rbp), %rdx
 3289      F7FFFF
 3290 15d9 488DB558 		leaq	-2216(%rbp), %rsi
 3290      F7FFFF
 3291 15e0 4889C7   		movq	%rax, %rdi
 3292 15e3 E8000000 		call	_ZN8UnitTest10CheckEqualIiiEEvRNS_11TestResultsERKT_RKT0_RKNS_11TestDetailsE
 3292      00
 3293              	.LEHE95:
 3294              	.L165:
 132:TestCheckMacros.cpp ****         failure = (testResults.GetFailureCount() > 0);
 3295              		.loc 6 132 0 is_stmt 1
 3296 15e8 488D8570 		leaq	-2192(%rbp), %rax
 3296      F7FFFF
 3297 15ef 4889C7   		movq	%rax, %rdi
 3298              	.LEHB96:
 3299 15f2 E8000000 		call	_ZNK8UnitTest11TestResults15GetFailureCountEv
 3299      00
 3300              	.LEHE96:
 3301 15f7 85C0     		testl	%eax, %eax
 3302 15f9 0F9FC0   		setg	%al
 3303 15fc 888557F7 		movb	%al, -2217(%rbp)
 3303      FFFF
 130:TestCheckMacros.cpp **** 		ScopedCurrentTest scopedResults(testResults);
 3304              		.loc 6 130 0
 3305 1602 488D8560 		leaq	-2208(%rbp), %rax
 3305      F7FFFF
 3306 1609 4889C7   		movq	%rax, %rdi
 3307              	.LEHB97:
 3308 160c E8000000 		call	_ZN17ScopedCurrentTestD1Ev
 3308      00
 3309              	.LEHE97:
 3310              		.loc 6 132 0
 3311 1611 488D85B0 		leaq	-2128(%rbp), %rax
 3311      F7FFFF
 3312 1618 4889C7   		movq	%rax, %rdi
 3313              	.LEHB98:
 3314 161b E8000000 		call	_ZN17RecordingReporterD1Ev
 3314      00
 3315              	.LEHE98:
 3316              	.LBE48:
 133:TestCheckMacros.cpp ****     }
 134:TestCheckMacros.cpp **** 
 135:TestCheckMacros.cpp ****     CHECK(failure);
 3317              		.loc 6 135 0
 3318 1620 0FB68557 		movzbl	-2217(%rbp), %eax
 3318      F7FFFF
 3319 1627 89C7     		movl	%eax, %edi
 3320 1629 E8000000 		call	_ZN8UnitTest5CheckIbEEbT_
 3320      00
 3321 162e 83F001   		xorl	$1, %eax
 3322 1631 84C0     		testb	%al, %al
 3323 1633 0F842D01 		je	.L160
 3323      0000
 3324              	.LEHB99:
 3325              		.loc 6 135 0 is_stmt 0 discriminator 1
 3326 1639 E8000000 		call	_ZN8UnitTest11CurrentTest7DetailsEv
 3326      00
 3327 163e 488B08   		movq	(%rax), %rcx
 3328 1641 488D8590 		leaq	-2160(%rbp), %rax
 3328      F7FFFF
 3329 1648 BA870000 		movl	$135, %edx
 3329      00
 3330 164d 4889CE   		movq	%rcx, %rsi
 3331 1650 4889C7   		movq	%rax, %rdi
 3332 1653 E8000000 		call	_ZN8UnitTest11TestDetailsC1ERKS0_i
 3332      00
 3333 1658 E8000000 		call	_ZN8UnitTest11CurrentTest7ResultsEv
 3333      00
 3334 165d 488B00   		movq	(%rax), %rax
 3335 1660 488D8D90 		leaq	-2160(%rbp), %rcx
 3335      F7FFFF
 3336 1667 BA000000 		movl	$.LC10, %edx
 3336      00
 3337 166c 4889CE   		movq	%rcx, %rsi
 3338 166f 4889C7   		movq	%rax, %rdi
 3339 1672 E8000000 		call	_ZN8UnitTest11TestResults13OnTestFailureERKNS_11TestDetailsEPKc
 3339      00
 3340              	.LEHE99:
 3341 1677 E9EA0000 		jmp	.L160
 3341      00
 3342              	.L173:
 3343 167c 4889C3   		movq	%rax, %rbx
 3344              	.LBB49:
 131:TestCheckMacros.cpp ****         failure = (testResults.GetFailureCount() > 0);
 3345              		.loc 6 131 0 is_stmt 1
 3346 167f E8000000 		call	__cxa_end_catch
 3346      00
 3347 1684 EB53     		jmp	.L163
 3348              	.L171:
 3349 1686 4889C7   		movq	%rax, %rdi
 3350 1689 E8000000 		call	__cxa_begin_catch
 3350      00
 3351              	.LEHB100:
 3352 168e E8000000 		call	_ZN8UnitTest11CurrentTest7DetailsEv
 3352      00
 3353 1693 488B08   		movq	(%rax), %rcx
 3354 1696 488D8590 		leaq	-2160(%rbp), %rax
 3354      F7FFFF
 3355 169d BA830000 		movl	$131, %edx
 3355      00
 3356 16a2 4889CE   		movq	%rcx, %rsi
 3357 16a5 4889C7   		movq	%rax, %rdi
 3358 16a8 E8000000 		call	_ZN8UnitTest11TestDetailsC1ERKS0_i
 3358      00
 131:TestCheckMacros.cpp ****         failure = (testResults.GetFailureCount() > 0);
 3359              		.loc 6 131 0 is_stmt 0 discriminator 1
 3360 16ad E8000000 		call	_ZN8UnitTest11CurrentTest7ResultsEv
 3360      00
 3361 16b2 488B00   		movq	(%rax), %rax
 3362 16b5 488D8D90 		leaq	-2160(%rbp), %rcx
 3362      F7FFFF
 3363 16bc BA000000 		movl	$.LC32, %edx
 3363      00
 3364 16c1 4889CE   		movq	%rcx, %rsi
 3365 16c4 4889C7   		movq	%rax, %rdi
 3366 16c7 E8000000 		call	_ZN8UnitTest11TestResults13OnTestFailureERKNS_11TestDetailsEPKc
 3366      00
 3367              	.LEHE100:
 3368              	.LEHB101:
 3369 16cc E8000000 		call	__cxa_end_catch
 3369      00
 3370              	.LEHE101:
 131:TestCheckMacros.cpp ****         failure = (testResults.GetFailureCount() > 0);
 3371              		.loc 6 131 0
 3372 16d1 E912FFFF 		jmp	.L165
 3372      FF
 3373              	.L172:
 3374 16d6 4889C3   		movq	%rax, %rbx
 3375              	.L163:
 130:TestCheckMacros.cpp ****         CHECK_EQUAL(ThrowingFunction(), 1);
 3376              		.loc 6 130 0 is_stmt 1
 3377 16d9 488D8560 		leaq	-2208(%rbp), %rax
 3377      F7FFFF
 3378 16e0 4889C7   		movq	%rax, %rdi
 3379 16e3 E8000000 		call	_ZN17ScopedCurrentTestD1Ev
 3379      00
 3380 16e8 EB03     		jmp	.L166
 3381              	.L170:
 3382 16ea 4889C3   		movq	%rax, %rbx
 3383              	.L166:
 132:TestCheckMacros.cpp ****     }
 3384              		.loc 6 132 0
 3385 16ed 488D85B0 		leaq	-2128(%rbp), %rax
 3385      F7FFFF
 3386 16f4 4889C7   		movq	%rax, %rdi
 3387 16f7 E8000000 		call	_ZN17RecordingReporterD1Ev
 3387      00
 3388 16fc 4889D8   		movq	%rbx, %rax
 3389 16ff 4889C7   		movq	%rax, %rdi
 3390              	.LEHB102:
 3391 1702 E8000000 		call	_Unwind_Resume
 3391      00
 3392              	.LEHE102:
 3393              	.L175:
 3394 1707 4889C3   		movq	%rax, %rbx
 3395              	.LBE49:
 3396              		.loc 6 135 0
 3397 170a E8000000 		call	__cxa_end_catch
 3397      00
 3398 170f 4889D8   		movq	%rbx, %rax
 3399 1712 4889C7   		movq	%rax, %rdi
 3400              	.LEHB103:
 3401 1715 E8000000 		call	_Unwind_Resume
 3401      00
 3402              	.LEHE103:
 3403              	.L174:
 3404 171a 4889C7   		movq	%rax, %rdi
 3405 171d E8000000 		call	__cxa_begin_catch
 3405      00
 3406              	.LEHB104:
 3407 1722 E8000000 		call	_ZN8UnitTest11CurrentTest7DetailsEv
 3407      00
 3408 1727 488B08   		movq	(%rax), %rcx
 3409 172a 488D8590 		leaq	-2160(%rbp), %rax
 3409      F7FFFF
 3410 1731 BA870000 		movl	$135, %edx
 3410      00
 3411 1736 4889CE   		movq	%rcx, %rsi
 3412 1739 4889C7   		movq	%rax, %rdi
 3413 173c E8000000 		call	_ZN8UnitTest11TestDetailsC1ERKS0_i
 3413      00
 3414              		.loc 6 135 0 is_stmt 0 discriminator 1
 3415 1741 E8000000 		call	_ZN8UnitTest11CurrentTest7ResultsEv
 3415      00
 3416 1746 488B00   		movq	(%rax), %rax
 3417 1749 488D8D90 		leaq	-2160(%rbp), %rcx
 3417      F7FFFF
 3418 1750 BA000000 		movl	$.LC12, %edx
 3418      00
 3419 1755 4889CE   		movq	%rcx, %rsi
 3420 1758 4889C7   		movq	%rax, %rdi
 3421 175b E8000000 		call	_ZN8UnitTest11TestResults13OnTestFailureERKNS_11TestDetailsEPKc
 3421      00
 3422              	.LEHE104:
 3423              	.LEHB105:
 3424 1760 E8000000 		call	__cxa_end_catch
 3424      00
 3425              	.LEHE105:
 3426              	.LBE47:
 136:TestCheckMacros.cpp **** }
 3427              		.loc 6 136 0 is_stmt 1 discriminator 1
 3428 1765 90       		nop
 3429              	.L160:
 3430              		.loc 6 136 0 is_stmt 0
 3431 1766 488B45E8 		movq	-24(%rbp), %rax
 3432 176a 64483304 		xorq	%fs:40, %rax
 3432      25280000 
 3432      00
 3433 1773 7405     		je	.L169
 3434 1775 E8000000 		call	__stack_chk_fail
 3434      00
 3435              	.L169:
 3436 177a 4881C4B8 		addq	$2232, %rsp
 3436      080000
 3437 1781 5B       		popq	%rbx
 3438 1782 5D       		popq	%rbp
 3439              		.cfi_def_cfa 7, 8
 3440 1783 C3       		ret
 3441              		.cfi_endproc
 3442              	.LFE1074:
 3443              		.section	.gcc_except_table
 3444              		.align 4
 3445              	.LLSDA1074:
 3446 025c FF       		.byte	0xff
 3447 025d 03       		.byte	0x3
 3448 025e 4D       		.uleb128 .LLSDATT1074-.LLSDATTD1074
 3449              	.LLSDATTD1074:
 3450 025f 01       		.byte	0x1
 3451 0260 42       		.uleb128 .LLSDACSE1074-.LLSDACSB1074
 3452              	.LLSDACSB1074:
 3453 0261 4C       		.uleb128 .LEHB94-.LFB1074
 3454 0262 23       		.uleb128 .LEHE94-.LEHB94
 3455 0263 CA03     		.uleb128 .L170-.LFB1074
 3456 0265 00       		.uleb128 0
 3457 0266 6F       		.uleb128 .LEHB95-.LFB1074
 3458 0267 59       		.uleb128 .LEHE95-.LEHB95
 3459 0268 E602     		.uleb128 .L171-.LFB1074
 3460 026a 01       		.uleb128 0x1
 3461 026b D201     		.uleb128 .LEHB96-.LFB1074
 3462 026d 05       		.uleb128 .LEHE96-.LEHB96
 3463 026e B603     		.uleb128 .L172-.LFB1074
 3464 0270 00       		.uleb128 0
 3465 0271 EC01     		.uleb128 .LEHB97-.LFB1074
 3466 0273 05       		.uleb128 .LEHE97-.LEHB97
 3467 0274 CA03     		.uleb128 .L170-.LFB1074
 3468 0276 00       		.uleb128 0
 3469 0277 FB01     		.uleb128 .LEHB98-.LFB1074
 3470 0279 05       		.uleb128 .LEHE98-.LEHB98
 3471 027a 00       		.uleb128 0
 3472 027b 00       		.uleb128 0
 3473 027c 9902     		.uleb128 .LEHB99-.LFB1074
 3474 027e 3E       		.uleb128 .LEHE99-.LEHB99
 3475 027f FA03     		.uleb128 .L174-.LFB1074
 3476 0281 01       		.uleb128 0x1
 3477 0282 EE02     		.uleb128 .LEHB100-.LFB1074
 3478 0284 3E       		.uleb128 .LEHE100-.LEHB100
 3479 0285 DC02     		.uleb128 .L173-.LFB1074
 3480 0287 00       		.uleb128 0
 3481 0288 AC03     		.uleb128 .LEHB101-.LFB1074
 3482 028a 05       		.uleb128 .LEHE101-.LEHB101
 3483 028b B603     		.uleb128 .L172-.LFB1074
 3484 028d 00       		.uleb128 0
 3485 028e E203     		.uleb128 .LEHB102-.LFB1074
 3486 0290 05       		.uleb128 .LEHE102-.LEHB102
 3487 0291 00       		.uleb128 0
 3488 0292 00       		.uleb128 0
 3489 0293 F503     		.uleb128 .LEHB103-.LFB1074
 3490 0295 05       		.uleb128 .LEHE103-.LEHB103
 3491 0296 00       		.uleb128 0
 3492 0297 00       		.uleb128 0
 3493 0298 8204     		.uleb128 .LEHB104-.LFB1074
 3494 029a 3E       		.uleb128 .LEHE104-.LEHB104
 3495 029b E703     		.uleb128 .L175-.LFB1074
 3496 029d 00       		.uleb128 0
 3497 029e C004     		.uleb128 .LEHB105-.LFB1074
 3498 02a0 05       		.uleb128 .LEHE105-.LEHB105
 3499 02a1 00       		.uleb128 0
 3500 02a2 00       		.uleb128 0
 3501              	.LLSDACSE1074:
 3502 02a3 01       		.byte	0x1
 3503 02a4 00       		.byte	0
 3504 02a5 000000   		.align 4
 3505 02a8 00000000 		.long	0
 3506              	
 3507              	.LLSDATT1074:
 3508              		.text
 3510              		.section	.rodata
 3511 048a 00000000 		.align 8
 3511      0000
 3512              	.LC33:
 3513 0490 43686563 		.string	"CheckEqualFailureContainsCorrectDetails"
 3513      6B457175 
 3513      616C4661 
 3513      696C7572 
 3513      65436F6E 
 3514              		.text
 3515              		.align 2
 3517              	_ZN12_GLOBAL__N_143TestCheckEqualFailureContainsCorrectDetailsC2Ev:
 3518              	.LFB1076:
 137:TestCheckMacros.cpp **** 
 138:TestCheckMacros.cpp **** TEST(CheckEqualFailureContainsCorrectDetails)
 3519              		.loc 6 138 0 is_stmt 1
 3520              		.cfi_startproc
 3521 1784 55       		pushq	%rbp
 3522              		.cfi_def_cfa_offset 16
 3523              		.cfi_offset 6, -16
 3524 1785 4889E5   		movq	%rsp, %rbp
 3525              		.cfi_def_cfa_register 6
 3526 1788 4883EC10 		subq	$16, %rsp
 3527 178c 48897DF8 		movq	%rdi, -8(%rbp)
 3528              	.LBB50:
 3529              		.loc 6 138 0
 3530 1790 E8000000 		call	_ZN13UnitTestSuite12GetSuiteNameEv
 3530      00
 3531 1795 4889C2   		movq	%rax, %rdx
 3532 1798 488B45F8 		movq	-8(%rbp), %rax
 3533 179c 41B88A00 		movl	$138, %r8d
 3533      0000
 3534 17a2 B9000000 		movl	$.LC2, %ecx
 3534      00
 3535 17a7 BE000000 		movl	$.LC33, %esi
 3535      00
 3536 17ac 4889C7   		movq	%rax, %rdi
 3537 17af E8000000 		call	_ZN8UnitTest4TestC2EPKcS2_S2_i
 3537      00
 3538 17b4 488B45F8 		movq	-8(%rbp), %rax
 3539 17b8 48C70000 		movq	$_ZTVN12_GLOBAL__N_143TestCheckEqualFailureContainsCorrectDetailsE+16, (%rax)
 3539      000000
 3540              	.LBE50:
 3541 17bf C9       		leave
 3542              		.cfi_def_cfa 7, 8
 3543 17c0 C3       		ret
 3544              		.cfi_endproc
 3545              	.LFE1076:
 3547              		.set	_ZN12_GLOBAL__N_143TestCheckEqualFailureContainsCorrectDetailsC1Ev,_ZN12_GLOBAL__N_143TestChe
 3548              		.local	_ZN12_GLOBAL__N_151testCheckEqualFailureContainsCorrectDetailsInstanceE
 3549              		.comm	_ZN12_GLOBAL__N_151testCheckEqualFailureContainsCorrectDetailsInstanceE,56,32
 3550              		.local	_ZN12_GLOBAL__N_144adderCheckEqualFailureContainsCorrectDetailsE
 3551              		.comm	_ZN12_GLOBAL__N_144adderCheckEqualFailureContainsCorrectDetailsE,1,1
 3552              		.section	.rodata
 3553              	.LC34:
 3554 04b8 66696C65 		.string	"filename"
 3554      6E616D65 
 3554      00
 3555              	.LC35:
 3556 04c1 73756974 		.string	"suiteName"
 3556      654E616D 
 3556      6500
 3557              	.LC36:
 3558 04cb 74657374 		.string	"testName"
 3558      4E616D65 
 3558      00
 3559 04d4 00000000 		.align 8
 3560              	.LC37:
 3561 04d8 556E6861 		.string	"Unhandled exception in CHECK_EQUAL(1, 123)"
 3561      6E646C65 
 3561      64206578 
 3561      63657074 
 3561      696F6E20 
 3562 0503 00000000 		.align 8
 3562      00
 3563              	.LC38:
 3564 0508 556E6861 		.string	"Unhandled exception in CHECK_EQUAL(\"testName\", reporter.lastFailedTest)"
 3564      6E646C65 
 3564      64206578 
 3564      63657074 
 3564      696F6E20 
 3565              		.align 8
 3566              	.LC39:
 3567 0550 556E6861 		.string	"Unhandled exception in CHECK_EQUAL(\"suiteName\", reporter.lastFailedSuite)"
 3567      6E646C65 
 3567      64206578 
 3567      63657074 
 3567      696F6E20 
 3568 059a 00000000 		.align 8
 3568      0000
 3569              	.LC40:
 3570 05a0 556E6861 		.string	"Unhandled exception in CHECK_EQUAL(\"filename\", reporter.lastFailedFile)"
 3570      6E646C65 
 3570      64206578 
 3570      63657074 
 3570      696F6E20 
 3571              		.align 8
 3572              	.LC41:
 3573 05e8 556E6861 		.string	"Unhandled exception in CHECK_EQUAL(line, reporter.lastFailedLine)"
 3573      6E646C65 
 3573      64206578 
 3573      63657074 
 3573      696F6E20 
 3574              		.text
 3575 17c1 90       		.align 2
 3577              	_ZNK12_GLOBAL__N_143TestCheckEqualFailureContainsCorrectDetails7RunImplEv:
 3578              	.LFB1078:
 139:TestCheckMacros.cpp **** {
 3579              		.loc 6 139 0
 3580              		.cfi_startproc
 3581              		.cfi_personality 0x3,__gxx_personality_v0
 3582              		.cfi_lsda 0x3,.LLSDA1078
 3583 17c2 55       		pushq	%rbp
 3584              		.cfi_def_cfa_offset 16
 3585              		.cfi_offset 6, -16
 3586 17c3 4889E5   		movq	%rsp, %rbp
 3587              		.cfi_def_cfa_register 6
 3588 17c6 53       		pushq	%rbx
 3589 17c7 4881ECD8 		subq	$2264, %rsp
 3589      080000
 3590              		.cfi_offset 3, -24
 3591 17ce 4889BD28 		movq	%rdi, -2264(%rbp)
 3591      F7FFFF
 3592              		.loc 6 139 0
 3593 17d5 64488B04 		movq	%fs:40, %rax
 3593      25280000 
 3593      00
 3594 17de 488945E8 		movq	%rax, -24(%rbp)
 3595 17e2 31C0     		xorl	%eax, %eax
 3596              	.LBB51:
 140:TestCheckMacros.cpp ****     int line = 0;
 3597              		.loc 6 140 0
 3598 17e4 C78534F7 		movl	$0, -2252(%rbp)
 3598      FFFF0000 
 3598      0000
 141:TestCheckMacros.cpp ****     RecordingReporter reporter;
 3599              		.loc 6 141 0
 3600 17ee 488D85B0 		leaq	-2128(%rbp), %rax
 3600      F7FFFF
 3601 17f5 4889C7   		movq	%rax, %rdi
 3602 17f8 E8000000 		call	_ZN17RecordingReporterC1Ev
 3602      00
 3603              	.LBB52:
 142:TestCheckMacros.cpp ****     {
 143:TestCheckMacros.cpp ****         UnitTest::TestResults testResults(&reporter);
 3604              		.loc 6 143 0
 3605 17fd 488D95B0 		leaq	-2128(%rbp), %rdx
 3605      F7FFFF
 3606 1804 488D8550 		leaq	-2224(%rbp), %rax
 3606      F7FFFF
 3607 180b 4889D6   		movq	%rdx, %rsi
 3608 180e 4889C7   		movq	%rax, %rdi
 3609              	.LEHB106:
 3610 1811 E8000000 		call	_ZN8UnitTest11TestResultsC1EPNS_12TestReporterE
 3610      00
 144:TestCheckMacros.cpp **** 		UnitTest::TestDetails const testDetails("testName", "suiteName", "filename", -1);
 3611              		.loc 6 144 0
 3612 1816 488D8570 		leaq	-2192(%rbp), %rax
 3612      F7FFFF
 3613 181d 41B8FFFF 		movl	$-1, %r8d
 3613      FFFF
 3614 1823 B9000000 		movl	$.LC34, %ecx
 3614      00
 3615 1828 BA000000 		movl	$.LC35, %edx
 3615      00
 3616 182d BE000000 		movl	$.LC36, %esi
 3616      00
 3617 1832 4889C7   		movq	%rax, %rdi
 3618 1835 E8000000 		call	_ZN8UnitTest11TestDetailsC1EPKcS2_S2_i
 3618      00
 145:TestCheckMacros.cpp **** 		ScopedCurrentTest scopedResults(testResults, &testDetails);
 3619              		.loc 6 145 0
 3620 183a 488D9570 		leaq	-2192(%rbp), %rdx
 3620      F7FFFF
 3621 1841 488D8D50 		leaq	-2224(%rbp), %rcx
 3621      F7FFFF
 3622 1848 488D8540 		leaq	-2240(%rbp), %rax
 3622      F7FFFF
 3623 184f 4889CE   		movq	%rcx, %rsi
 3624 1852 4889C7   		movq	%rax, %rdi
 3625 1855 E8000000 		call	_ZN17ScopedCurrentTestC1ERN8UnitTest11TestResultsEPKNS0_11TestDetailsE
 3625      00
 3626              	.LEHE106:
 3627              	.LEHB107:
 146:TestCheckMacros.cpp **** 
 147:TestCheckMacros.cpp **** 		CHECK_EQUAL(1, 123);    line = __LINE__;
 3628              		.loc 6 147 0
 3629 185a E8000000 		call	_ZN8UnitTest11CurrentTest7DetailsEv
 3629      00
 3630 185f 488B08   		movq	(%rax), %rcx
 3631 1862 488D8590 		leaq	-2160(%rbp), %rax
 3631      F7FFFF
 3632 1869 BA930000 		movl	$147, %edx
 3632      00
 3633 186e 4889CE   		movq	%rcx, %rsi
 3634 1871 4889C7   		movq	%rax, %rdi
 3635 1874 E8000000 		call	_ZN8UnitTest11TestDetailsC1ERKS0_i
 3635      00
 3636              		.loc 6 147 0 is_stmt 0 discriminator 1
 3637 1879 C7853CF7 		movl	$123, -2244(%rbp)
 3637      FFFF7B00 
 3637      0000
 3638 1883 C78538F7 		movl	$1, -2248(%rbp)
 3638      FFFF0100 
 3638      0000
 3639 188d E8000000 		call	_ZN8UnitTest11CurrentTest7ResultsEv
 3639      00
 3640 1892 488B00   		movq	(%rax), %rax
 3641 1895 488D8D90 		leaq	-2160(%rbp), %rcx
 3641      F7FFFF
 3642 189c 488D953C 		leaq	-2244(%rbp), %rdx
 3642      F7FFFF
 3643 18a3 488DB538 		leaq	-2248(%rbp), %rsi
 3643      F7FFFF
 3644 18aa 4889C7   		movq	%rax, %rdi
 3645 18ad E8000000 		call	_ZN8UnitTest10CheckEqualIiiEEvRNS_11TestResultsERKT_RKT0_RKNS_11TestDetailsE
 3645      00
 3646              	.LEHE107:
 3647              	.L181:
 3648              		.loc 6 147 0 discriminator 2
 3649 18b2 C78534F7 		movl	$147, -2252(%rbp)
 3649      FFFF9300 
 3649      0000
 3650 18bc 488D8540 		leaq	-2240(%rbp), %rax
 3650      F7FFFF
 3651 18c3 4889C7   		movq	%rax, %rdi
 3652              	.LEHB108:
 3653 18c6 E8000000 		call	_ZN17ScopedCurrentTestD1Ev
 3653      00
 3654              	.LEHE108:
 3655              	.LEHB109:
 3656              	.LBE52:
 148:TestCheckMacros.cpp ****     }
 149:TestCheckMacros.cpp **** 
 150:TestCheckMacros.cpp ****     CHECK_EQUAL("testName", reporter.lastFailedTest);
 3657              		.loc 6 150 0 is_stmt 1
 3658 18cb E8000000 		call	_ZN8UnitTest11CurrentTest7DetailsEv
 3658      00
 3659 18d0 488B08   		movq	(%rax), %rcx
 3660 18d3 488D8590 		leaq	-2160(%rbp), %rax
 3660      F7FFFF
 3661 18da BA960000 		movl	$150, %edx
 3661      00
 3662 18df 4889CE   		movq	%rcx, %rsi
 3663 18e2 4889C7   		movq	%rax, %rdi
 3664 18e5 E8000000 		call	_ZN8UnitTest11TestDetailsC1ERKS0_i
 3664      00
 3665              		.loc 6 150 0 is_stmt 0 discriminator 1
 3666 18ea E8000000 		call	_ZN8UnitTest11CurrentTest7ResultsEv
 3666      00
 3667 18ef 488B00   		movq	(%rax), %rax
 3668 18f2 488D9590 		leaq	-2160(%rbp), %rdx
 3668      F7FFFF
 3669 18f9 488D8DB0 		leaq	-2128(%rbp), %rcx
 3669      F7FFFF
 3670 1900 488DB114 		leaq	1044(%rcx), %rsi
 3670      040000
 3671 1907 4889D1   		movq	%rdx, %rcx
 3672 190a 4889F2   		movq	%rsi, %rdx
 3673 190d BE000000 		movl	$.LC36, %esi
 3673      00
 3674 1912 4889C7   		movq	%rax, %rdi
 3675 1915 E8000000 		call	_ZN8UnitTest10CheckEqualERNS_11TestResultsEPKcPcRKNS_11TestDetailsE
 3675      00
 3676              	.LEHE109:
 3677              	.L185:
 3678              	.LEHB110:
 151:TestCheckMacros.cpp ****     CHECK_EQUAL("suiteName", reporter.lastFailedSuite);
 3679              		.loc 6 151 0 is_stmt 1
 3680 191a E8000000 		call	_ZN8UnitTest11CurrentTest7DetailsEv
 3680      00
 3681 191f 488B08   		movq	(%rax), %rcx
 3682 1922 488D8590 		leaq	-2160(%rbp), %rax
 3682      F7FFFF
 3683 1929 BA970000 		movl	$151, %edx
 3683      00
 3684 192e 4889CE   		movq	%rcx, %rsi
 3685 1931 4889C7   		movq	%rax, %rdi
 3686 1934 E8000000 		call	_ZN8UnitTest11TestDetailsC1ERKS0_i
 3686      00
 3687              		.loc 6 151 0 is_stmt 0 discriminator 1
 3688 1939 E8000000 		call	_ZN8UnitTest11CurrentTest7ResultsEv
 3688      00
 3689 193e 488B00   		movq	(%rax), %rax
 3690 1941 488D9590 		leaq	-2160(%rbp), %rdx
 3690      F7FFFF
 3691 1948 488D8DB0 		leaq	-2128(%rbp), %rcx
 3691      F7FFFF
 3692 194f 488DB114 		leaq	788(%rcx), %rsi
 3692      030000
 3693 1956 4889D1   		movq	%rdx, %rcx
 3694 1959 4889F2   		movq	%rsi, %rdx
 3695 195c BE000000 		movl	$.LC35, %esi
 3695      00
 3696 1961 4889C7   		movq	%rax, %rdi
 3697 1964 E8000000 		call	_ZN8UnitTest10CheckEqualERNS_11TestResultsEPKcPcRKNS_11TestDetailsE
 3697      00
 3698              	.LEHE110:
 3699              	.L188:
 3700              	.LEHB111:
 152:TestCheckMacros.cpp ****     CHECK_EQUAL("filename", reporter.lastFailedFile);
 3701              		.loc 6 152 0 is_stmt 1
 3702 1969 E8000000 		call	_ZN8UnitTest11CurrentTest7DetailsEv
 3702      00
 3703 196e 488B08   		movq	(%rax), %rcx
 3704 1971 488D8590 		leaq	-2160(%rbp), %rax
 3704      F7FFFF
 3705 1978 BA980000 		movl	$152, %edx
 3705      00
 3706 197d 4889CE   		movq	%rcx, %rsi
 3707 1980 4889C7   		movq	%rax, %rdi
 3708 1983 E8000000 		call	_ZN8UnitTest11TestDetailsC1ERKS0_i
 3708      00
 3709              		.loc 6 152 0 is_stmt 0 discriminator 1
 3710 1988 E8000000 		call	_ZN8UnitTest11CurrentTest7ResultsEv
 3710      00
 3711 198d 488B00   		movq	(%rax), %rax
 3712 1990 488D9590 		leaq	-2160(%rbp), %rdx
 3712      F7FFFF
 3713 1997 488D8DB0 		leaq	-2128(%rbp), %rcx
 3713      F7FFFF
 3714 199e 488DB110 		leaq	528(%rcx), %rsi
 3714      020000
 3715 19a5 4889D1   		movq	%rdx, %rcx
 3716 19a8 4889F2   		movq	%rsi, %rdx
 3717 19ab BE000000 		movl	$.LC34, %esi
 3717      00
 3718 19b0 4889C7   		movq	%rax, %rdi
 3719 19b3 E8000000 		call	_ZN8UnitTest10CheckEqualERNS_11TestResultsEPKcPcRKNS_11TestDetailsE
 3719      00
 3720              	.LEHE111:
 3721              	.L191:
 3722              	.LEHB112:
 153:TestCheckMacros.cpp ****     CHECK_EQUAL(line, reporter.lastFailedLine);
 3723              		.loc 6 153 0 is_stmt 1
 3724 19b8 E8000000 		call	_ZN8UnitTest11CurrentTest7DetailsEv
 3724      00
 3725 19bd 488B08   		movq	(%rax), %rcx
 3726 19c0 488D8590 		leaq	-2160(%rbp), %rax
 3726      F7FFFF
 3727 19c7 BA990000 		movl	$153, %edx
 3727      00
 3728 19cc 4889CE   		movq	%rcx, %rsi
 3729 19cf 4889C7   		movq	%rax, %rdi
 3730 19d2 E8000000 		call	_ZN8UnitTest11TestDetailsC1ERKS0_i
 3730      00
 3731              		.loc 6 153 0 is_stmt 0 discriminator 1
 3732 19d7 E8000000 		call	_ZN8UnitTest11CurrentTest7ResultsEv
 3732      00
 3733 19dc 488B00   		movq	(%rax), %rax
 3734 19df 488D9590 		leaq	-2160(%rbp), %rdx
 3734      F7FFFF
 3735 19e6 488D8DB0 		leaq	-2128(%rbp), %rcx
 3735      F7FFFF
 3736 19ed 488DB910 		leaq	784(%rcx), %rdi
 3736      030000
 3737 19f4 488DB534 		leaq	-2252(%rbp), %rsi
 3737      F7FFFF
 3738 19fb 4889D1   		movq	%rdx, %rcx
 3739 19fe 4889FA   		movq	%rdi, %rdx
 3740 1a01 4889C7   		movq	%rax, %rdi
 3741 1a04 E8000000 		call	_ZN8UnitTest10CheckEqualIiiEEvRNS_11TestResultsERKT_RKT0_RKNS_11TestDetailsE
 3741      00
 3742              	.LEHE112:
 3743              	.L194:
 3744              		.loc 6 153 0 discriminator 2
 3745 1a09 488D85B0 		leaq	-2128(%rbp), %rax
 3745      F7FFFF
 3746 1a10 4889C7   		movq	%rax, %rdi
 3747              	.LEHB113:
 3748 1a13 E8000000 		call	_ZN17RecordingReporterD1Ev
 3748      00
 3749              	.LEHE113:
 3750              	.LBE51:
 154:TestCheckMacros.cpp **** }
 3751              		.loc 6 154 0 is_stmt 1 discriminator 2
 3752 1a18 488B45E8 		movq	-24(%rbp), %rax
 3753 1a1c 64483304 		xorq	%fs:40, %rax
 3753      25280000 
 3753      00
 3754 1a25 0F840902 		je	.L195
 3754      0000
 3755 1a2b E9FF0100 		jmp	.L208
 3755      00
 3756              	.L198:
 3757 1a30 4889C3   		movq	%rax, %rbx
 3758              	.LBB54:
 3759              	.LBB53:
 147:TestCheckMacros.cpp ****     }
 3760              		.loc 6 147 0
 3761 1a33 E8000000 		call	__cxa_end_catch
 3761      00
 3762 1a38 EB53     		jmp	.L179
 3763              	.L196:
 3764 1a3a 4889C7   		movq	%rax, %rdi
 3765 1a3d E8000000 		call	__cxa_begin_catch
 3765      00
 3766              	.LEHB114:
 3767 1a42 E8000000 		call	_ZN8UnitTest11CurrentTest7DetailsEv
 3767      00
 3768 1a47 488B08   		movq	(%rax), %rcx
 3769 1a4a 488D8590 		leaq	-2160(%rbp), %rax
 3769      F7FFFF
 3770 1a51 BA930000 		movl	$147, %edx
 3770      00
 3771 1a56 4889CE   		movq	%rcx, %rsi
 3772 1a59 4889C7   		movq	%rax, %rdi
 3773 1a5c E8000000 		call	_ZN8UnitTest11TestDetailsC1ERKS0_i
 3773      00
 147:TestCheckMacros.cpp ****     }
 3774              		.loc 6 147 0 is_stmt 0 discriminator 1
 3775 1a61 E8000000 		call	_ZN8UnitTest11CurrentTest7ResultsEv
 3775      00
 3776 1a66 488B00   		movq	(%rax), %rax
 3777 1a69 488D8D90 		leaq	-2160(%rbp), %rcx
 3777      F7FFFF
 3778 1a70 BA000000 		movl	$.LC37, %edx
 3778      00
 3779 1a75 4889CE   		movq	%rcx, %rsi
 3780 1a78 4889C7   		movq	%rax, %rdi
 3781 1a7b E8000000 		call	_ZN8UnitTest11TestResults13OnTestFailureERKNS_11TestDetailsEPKc
 3781      00
 3782              	.LEHE114:
 3783              	.LEHB115:
 3784 1a80 E8000000 		call	__cxa_end_catch
 3784      00
 3785              	.LEHE115:
 147:TestCheckMacros.cpp ****     }
 3786              		.loc 6 147 0
 3787 1a85 E928FEFF 		jmp	.L181
 3787      FF
 3788              	.L197:
 3789 1a8a 4889C3   		movq	%rax, %rbx
 3790              	.L179:
 3791 1a8d 488D8540 		leaq	-2240(%rbp), %rax
 3791      F7FFFF
 3792 1a94 4889C7   		movq	%rax, %rdi
 3793 1a97 E8000000 		call	_ZN17ScopedCurrentTestD1Ev
 3793      00
 3794 1a9c E9740100 		jmp	.L182
 3794      00
 3795              	.L201:
 3796 1aa1 4889C3   		movq	%rax, %rbx
 3797              	.LBE53:
 150:TestCheckMacros.cpp ****     CHECK_EQUAL("suiteName", reporter.lastFailedSuite);
 3798              		.loc 6 150 0 is_stmt 1
 3799 1aa4 E8000000 		call	__cxa_end_catch
 3799      00
 3800 1aa9 E9670100 		jmp	.L182
 3800      00
 3801              	.L200:
 3802 1aae 4889C7   		movq	%rax, %rdi
 3803 1ab1 E8000000 		call	__cxa_begin_catch
 3803      00
 3804              	.LEHB116:
 3805 1ab6 E8000000 		call	_ZN8UnitTest11CurrentTest7DetailsEv
 3805      00
 3806 1abb 488B08   		movq	(%rax), %rcx
 3807 1abe 488D8590 		leaq	-2160(%rbp), %rax
 3807      F7FFFF
 3808 1ac5 BA960000 		movl	$150, %edx
 3808      00
 3809 1aca 4889CE   		movq	%rcx, %rsi
 3810 1acd 4889C7   		movq	%rax, %rdi
 3811 1ad0 E8000000 		call	_ZN8UnitTest11TestDetailsC1ERKS0_i
 3811      00
 150:TestCheckMacros.cpp ****     CHECK_EQUAL("suiteName", reporter.lastFailedSuite);
 3812              		.loc 6 150 0 is_stmt 0 discriminator 1
 3813 1ad5 E8000000 		call	_ZN8UnitTest11CurrentTest7ResultsEv
 3813      00
 3814 1ada 488B00   		movq	(%rax), %rax
 3815 1add 488D8D90 		leaq	-2160(%rbp), %rcx
 3815      F7FFFF
 3816 1ae4 BA000000 		movl	$.LC38, %edx
 3816      00
 3817 1ae9 4889CE   		movq	%rcx, %rsi
 3818 1aec 4889C7   		movq	%rax, %rdi
 3819 1aef E8000000 		call	_ZN8UnitTest11TestResults13OnTestFailureERKNS_11TestDetailsEPKc
 3819      00
 3820              	.LEHE116:
 3821              	.LEHB117:
 3822 1af4 E8000000 		call	__cxa_end_catch
 3822      00
 3823              	.LEHE117:
 150:TestCheckMacros.cpp ****     CHECK_EQUAL("suiteName", reporter.lastFailedSuite);
 3824              		.loc 6 150 0
 3825 1af9 E91CFEFF 		jmp	.L185
 3825      FF
 3826              	.L203:
 3827 1afe 4889C3   		movq	%rax, %rbx
 151:TestCheckMacros.cpp ****     CHECK_EQUAL("filename", reporter.lastFailedFile);
 3828              		.loc 6 151 0 is_stmt 1
 3829 1b01 E8000000 		call	__cxa_end_catch
 3829      00
 3830 1b06 E90A0100 		jmp	.L182
 3830      00
 3831              	.L202:
 3832 1b0b 4889C7   		movq	%rax, %rdi
 3833 1b0e E8000000 		call	__cxa_begin_catch
 3833      00
 3834              	.LEHB118:
 3835 1b13 E8000000 		call	_ZN8UnitTest11CurrentTest7DetailsEv
 3835      00
 3836 1b18 488B08   		movq	(%rax), %rcx
 3837 1b1b 488D8590 		leaq	-2160(%rbp), %rax
 3837      F7FFFF
 3838 1b22 BA970000 		movl	$151, %edx
 3838      00
 3839 1b27 4889CE   		movq	%rcx, %rsi
 3840 1b2a 4889C7   		movq	%rax, %rdi
 3841 1b2d E8000000 		call	_ZN8UnitTest11TestDetailsC1ERKS0_i
 3841      00
 151:TestCheckMacros.cpp ****     CHECK_EQUAL("filename", reporter.lastFailedFile);
 3842              		.loc 6 151 0 is_stmt 0 discriminator 1
 3843 1b32 E8000000 		call	_ZN8UnitTest11CurrentTest7ResultsEv
 3843      00
 3844 1b37 488B00   		movq	(%rax), %rax
 3845 1b3a 488D8D90 		leaq	-2160(%rbp), %rcx
 3845      F7FFFF
 3846 1b41 BA000000 		movl	$.LC39, %edx
 3846      00
 3847 1b46 4889CE   		movq	%rcx, %rsi
 3848 1b49 4889C7   		movq	%rax, %rdi
 3849 1b4c E8000000 		call	_ZN8UnitTest11TestResults13OnTestFailureERKNS_11TestDetailsEPKc
 3849      00
 3850              	.LEHE118:
 3851              	.LEHB119:
 3852 1b51 E8000000 		call	__cxa_end_catch
 3852      00
 3853              	.LEHE119:
 151:TestCheckMacros.cpp ****     CHECK_EQUAL("filename", reporter.lastFailedFile);
 3854              		.loc 6 151 0
 3855 1b56 E90EFEFF 		jmp	.L188
 3855      FF
 3856              	.L205:
 3857 1b5b 4889C3   		movq	%rax, %rbx
 152:TestCheckMacros.cpp ****     CHECK_EQUAL(line, reporter.lastFailedLine);
 3858              		.loc 6 152 0 is_stmt 1
 3859 1b5e E8000000 		call	__cxa_end_catch
 3859      00
 3860 1b63 E9AD0000 		jmp	.L182
 3860      00
 3861              	.L204:
 3862 1b68 4889C7   		movq	%rax, %rdi
 3863 1b6b E8000000 		call	__cxa_begin_catch
 3863      00
 3864              	.LEHB120:
 3865 1b70 E8000000 		call	_ZN8UnitTest11CurrentTest7DetailsEv
 3865      00
 3866 1b75 488B08   		movq	(%rax), %rcx
 3867 1b78 488D8590 		leaq	-2160(%rbp), %rax
 3867      F7FFFF
 3868 1b7f BA980000 		movl	$152, %edx
 3868      00
 3869 1b84 4889CE   		movq	%rcx, %rsi
 3870 1b87 4889C7   		movq	%rax, %rdi
 3871 1b8a E8000000 		call	_ZN8UnitTest11TestDetailsC1ERKS0_i
 3871      00
 152:TestCheckMacros.cpp ****     CHECK_EQUAL(line, reporter.lastFailedLine);
 3872              		.loc 6 152 0 is_stmt 0 discriminator 1
 3873 1b8f E8000000 		call	_ZN8UnitTest11CurrentTest7ResultsEv
 3873      00
 3874 1b94 488B00   		movq	(%rax), %rax
 3875 1b97 488D8D90 		leaq	-2160(%rbp), %rcx
 3875      F7FFFF
 3876 1b9e BA000000 		movl	$.LC40, %edx
 3876      00
 3877 1ba3 4889CE   		movq	%rcx, %rsi
 3878 1ba6 4889C7   		movq	%rax, %rdi
 3879 1ba9 E8000000 		call	_ZN8UnitTest11TestResults13OnTestFailureERKNS_11TestDetailsEPKc
 3879      00
 3880              	.LEHE120:
 3881              	.LEHB121:
 3882 1bae E8000000 		call	__cxa_end_catch
 3882      00
 3883              	.LEHE121:
 152:TestCheckMacros.cpp ****     CHECK_EQUAL(line, reporter.lastFailedLine);
 3884              		.loc 6 152 0
 3885 1bb3 E900FEFF 		jmp	.L191
 3885      FF
 3886              	.L207:
 3887 1bb8 4889C3   		movq	%rax, %rbx
 153:TestCheckMacros.cpp **** }
 3888              		.loc 6 153 0 is_stmt 1
 3889 1bbb E8000000 		call	__cxa_end_catch
 3889      00
 3890 1bc0 EB53     		jmp	.L182
 3891              	.L206:
 3892 1bc2 4889C7   		movq	%rax, %rdi
 3893 1bc5 E8000000 		call	__cxa_begin_catch
 3893      00
 3894              	.LEHB122:
 3895 1bca E8000000 		call	_ZN8UnitTest11CurrentTest7DetailsEv
 3895      00
 3896 1bcf 488B08   		movq	(%rax), %rcx
 3897 1bd2 488D8590 		leaq	-2160(%rbp), %rax
 3897      F7FFFF
 3898 1bd9 BA990000 		movl	$153, %edx
 3898      00
 3899 1bde 4889CE   		movq	%rcx, %rsi
 3900 1be1 4889C7   		movq	%rax, %rdi
 3901 1be4 E8000000 		call	_ZN8UnitTest11TestDetailsC1ERKS0_i
 3901      00
 153:TestCheckMacros.cpp **** }
 3902              		.loc 6 153 0 is_stmt 0 discriminator 1
 3903 1be9 E8000000 		call	_ZN8UnitTest11CurrentTest7ResultsEv
 3903      00
 3904 1bee 488B00   		movq	(%rax), %rax
 3905 1bf1 488D8D90 		leaq	-2160(%rbp), %rcx
 3905      F7FFFF
 3906 1bf8 BA000000 		movl	$.LC41, %edx
 3906      00
 3907 1bfd 4889CE   		movq	%rcx, %rsi
 3908 1c00 4889C7   		movq	%rax, %rdi
 3909 1c03 E8000000 		call	_ZN8UnitTest11TestResults13OnTestFailureERKNS_11TestDetailsEPKc
 3909      00
 3910              	.LEHE122:
 3911              	.LEHB123:
 3912 1c08 E8000000 		call	__cxa_end_catch
 3912      00
 3913              	.LEHE123:
 153:TestCheckMacros.cpp **** }
 3914              		.loc 6 153 0
 3915 1c0d E9F7FDFF 		jmp	.L194
 3915      FF
 3916              	.L199:
 3917 1c12 4889C3   		movq	%rax, %rbx
 3918              	.L182:
 3919 1c15 488D85B0 		leaq	-2128(%rbp), %rax
 3919      F7FFFF
 3920 1c1c 4889C7   		movq	%rax, %rdi
 3921 1c1f E8000000 		call	_ZN17RecordingReporterD1Ev
 3921      00
 3922 1c24 4889D8   		movq	%rbx, %rax
 3923 1c27 4889C7   		movq	%rax, %rdi
 3924              	.LEHB124:
 3925 1c2a E8000000 		call	_Unwind_Resume
 3925      00
 3926              	.LEHE124:
 3927              	.L208:
 3928              	.LBE54:
 3929              		.loc 6 154 0 is_stmt 1
 3930 1c2f E8000000 		call	__stack_chk_fail
 3930      00
 3931              	.L195:
 3932 1c34 4881C4D8 		addq	$2264, %rsp
 3932      080000
 3933 1c3b 5B       		popq	%rbx
 3934 1c3c 5D       		popq	%rbp
 3935              		.cfi_def_cfa 7, 8
 3936 1c3d C3       		ret
 3937              		.cfi_endproc
 3938              	.LFE1078:
 3939              		.section	.gcc_except_table
 3940              		.align 4
 3941              	.LLSDA1078:
 3942 02ac FF       		.byte	0xff
 3943 02ad 03       		.byte	0x3
 3944 02ae 79       		.uleb128 .LLSDATT1078-.LLSDATTD1078
 3945              	.LLSDATTD1078:
 3946 02af 01       		.byte	0x1
 3947 02b0 6F       		.uleb128 .LLSDACSE1078-.LLSDACSB1078
 3948              	.LLSDACSB1078:
 3949 02b1 4F       		.uleb128 .LEHB106-.LFB1078
 3950 02b2 49       		.uleb128 .LEHE106-.LEHB106
 3951 02b3 D008     		.uleb128 .L199-.LFB1078
 3952 02b5 00       		.uleb128 0
 3953 02b6 9801     		.uleb128 .LEHB107-.LFB1078
 3954 02b8 58       		.uleb128 .LEHE107-.LEHB107
 3955 02b9 F804     		.uleb128 .L196-.LFB1078
 3956 02bb 01       		.uleb128 0x1
 3957 02bc 8402     		.uleb128 .LEHB108-.LFB1078
 3958 02be 05       		.uleb128 .LEHE108-.LEHB108
 3959 02bf D008     		.uleb128 .L199-.LFB1078
 3960 02c1 00       		.uleb128 0
 3961 02c2 8902     		.uleb128 .LEHB109-.LFB1078
 3962 02c4 4F       		.uleb128 .LEHE109-.LEHB109
 3963 02c5 EC05     		.uleb128 .L200-.LFB1078
 3964 02c7 01       		.uleb128 0x1
 3965 02c8 D802     		.uleb128 .LEHB110-.LFB1078
 3966 02ca 4F       		.uleb128 .LEHE110-.LEHB110
 3967 02cb C906     		.uleb128 .L202-.LFB1078
 3968 02cd 01       		.uleb128 0x1
 3969 02ce A703     		.uleb128 .LEHB111-.LFB1078
 3970 02d0 4F       		.uleb128 .LEHE111-.LEHB111
 3971 02d1 A607     		.uleb128 .L204-.LFB1078
 3972 02d3 01       		.uleb128 0x1
 3973 02d4 F603     		.uleb128 .LEHB112-.LFB1078
 3974 02d6 51       		.uleb128 .LEHE112-.LEHB112
 3975 02d7 8008     		.uleb128 .L206-.LFB1078
 3976 02d9 01       		.uleb128 0x1
 3977 02da D104     		.uleb128 .LEHB113-.LFB1078
 3978 02dc 05       		.uleb128 .LEHE113-.LEHB113
 3979 02dd 00       		.uleb128 0
 3980 02de 00       		.uleb128 0
 3981 02df 8005     		.uleb128 .LEHB114-.LFB1078
 3982 02e1 3E       		.uleb128 .LEHE114-.LEHB114
 3983 02e2 EE04     		.uleb128 .L198-.LFB1078
 3984 02e4 00       		.uleb128 0
 3985 02e5 BE05     		.uleb128 .LEHB115-.LFB1078
 3986 02e7 05       		.uleb128 .LEHE115-.LEHB115
 3987 02e8 C805     		.uleb128 .L197-.LFB1078
 3988 02ea 00       		.uleb128 0
 3989 02eb F405     		.uleb128 .LEHB116-.LFB1078
 3990 02ed 3E       		.uleb128 .LEHE116-.LEHB116
 3991 02ee DF05     		.uleb128 .L201-.LFB1078
 3992 02f0 00       		.uleb128 0
 3993 02f1 B206     		.uleb128 .LEHB117-.LFB1078
 3994 02f3 05       		.uleb128 .LEHE117-.LEHB117
 3995 02f4 D008     		.uleb128 .L199-.LFB1078
 3996 02f6 00       		.uleb128 0
 3997 02f7 D106     		.uleb128 .LEHB118-.LFB1078
 3998 02f9 3E       		.uleb128 .LEHE118-.LEHB118
 3999 02fa BC06     		.uleb128 .L203-.LFB1078
 4000 02fc 00       		.uleb128 0
 4001 02fd 8F07     		.uleb128 .LEHB119-.LFB1078
 4002 02ff 05       		.uleb128 .LEHE119-.LEHB119
 4003 0300 D008     		.uleb128 .L199-.LFB1078
 4004 0302 00       		.uleb128 0
 4005 0303 AE07     		.uleb128 .LEHB120-.LFB1078
 4006 0305 3E       		.uleb128 .LEHE120-.LEHB120
 4007 0306 9907     		.uleb128 .L205-.LFB1078
 4008 0308 00       		.uleb128 0
 4009 0309 EC07     		.uleb128 .LEHB121-.LFB1078
 4010 030b 05       		.uleb128 .LEHE121-.LEHB121
 4011 030c D008     		.uleb128 .L199-.LFB1078
 4012 030e 00       		.uleb128 0
 4013 030f 8808     		.uleb128 .LEHB122-.LFB1078
 4014 0311 3E       		.uleb128 .LEHE122-.LEHB122
 4015 0312 F607     		.uleb128 .L207-.LFB1078
 4016 0314 00       		.uleb128 0
 4017 0315 C608     		.uleb128 .LEHB123-.LFB1078
 4018 0317 05       		.uleb128 .LEHE123-.LEHB123
 4019 0318 D008     		.uleb128 .L199-.LFB1078
 4020 031a 00       		.uleb128 0
 4021 031b E808     		.uleb128 .LEHB124-.LFB1078
 4022 031d 05       		.uleb128 .LEHE124-.LEHB124
 4023 031e 00       		.uleb128 0
 4024 031f 00       		.uleb128 0
 4025              	.LLSDACSE1078:
 4026 0320 01       		.byte	0x1
 4027 0321 00       		.byte	0
 4028 0322 0000     		.align 4
 4029 0324 00000000 		.long	0
 4030              	
 4031              	.LLSDATT1078:
 4032              		.text
 4034              		.section	.rodata
 4035 062a 00000000 		.align 8
 4035      0000
 4036              	.LC42:
 4037 0630 43686563 		.string	"CheckEqualFailureBecauseOfExceptionContainsCorrectDetails"
 4037      6B457175 
 4037      616C4661 
 4037      696C7572 
 4037      65426563 
 4038              		.text
 4039              		.align 2
 4041              	_ZN12_GLOBAL__N_161TestCheckEqualFailureBecauseOfExceptionContainsCorrectDetailsC2Ev:
 4042              	.LFB1080:
 155:TestCheckMacros.cpp **** 
 156:TestCheckMacros.cpp **** TEST(CheckEqualFailureBecauseOfExceptionContainsCorrectDetails)
 4043              		.loc 6 156 0
 4044              		.cfi_startproc
 4045 1c3e 55       		pushq	%rbp
 4046              		.cfi_def_cfa_offset 16
 4047              		.cfi_offset 6, -16
 4048 1c3f 4889E5   		movq	%rsp, %rbp
 4049              		.cfi_def_cfa_register 6
 4050 1c42 4883EC10 		subq	$16, %rsp
 4051 1c46 48897DF8 		movq	%rdi, -8(%rbp)
 4052              	.LBB55:
 4053              		.loc 6 156 0
 4054 1c4a E8000000 		call	_ZN13UnitTestSuite12GetSuiteNameEv
 4054      00
 4055 1c4f 4889C2   		movq	%rax, %rdx
 4056 1c52 488B45F8 		movq	-8(%rbp), %rax
 4057 1c56 41B89C00 		movl	$156, %r8d
 4057      0000
 4058 1c5c B9000000 		movl	$.LC2, %ecx
 4058      00
 4059 1c61 BE000000 		movl	$.LC42, %esi
 4059      00
 4060 1c66 4889C7   		movq	%rax, %rdi
 4061 1c69 E8000000 		call	_ZN8UnitTest4TestC2EPKcS2_S2_i
 4061      00
 4062 1c6e 488B45F8 		movq	-8(%rbp), %rax
 4063 1c72 48C70000 		movq	$_ZTVN12_GLOBAL__N_161TestCheckEqualFailureBecauseOfExceptionContainsCorrectDetailsE+16, (%ra
 4063      000000
 4064              	.LBE55:
 4065 1c79 C9       		leave
 4066              		.cfi_def_cfa 7, 8
 4067 1c7a C3       		ret
 4068              		.cfi_endproc
 4069              	.LFE1080:
 4071              		.set	_ZN12_GLOBAL__N_161TestCheckEqualFailureBecauseOfExceptionContainsCorrectDetailsC1Ev,_ZN12_GL
 4072              		.local	_ZN12_GLOBAL__N_169testCheckEqualFailureBecauseOfExceptionContainsCorrectDetailsInstanceE
 4073              		.comm	_ZN12_GLOBAL__N_169testCheckEqualFailureBecauseOfExceptionContainsCorrectDetailsInstanceE,56
 4074              		.local	_ZN12_GLOBAL__N_162adderCheckEqualFailureBecauseOfExceptionContainsCorrectDetailsE
 4075              		.comm	_ZN12_GLOBAL__N_162adderCheckEqualFailureBecauseOfExceptionContainsCorrectDetailsE,1,1
 4076              		.section	.rodata
 4077 066a 00000000 		.align 8
 4077      0000
 4078              	.LC43:
 4079 0670 556E6861 		.string	"Unhandled exception in CHECK_EQUAL(ThrowingFunction(), 123)"
 4079      6E646C65 
 4079      64206578 
 4079      63657074 
 4079      696F6E20 
 4080              		.text
 4081 1c7b 90       		.align 2
 4083              	_ZNK12_GLOBAL__N_161TestCheckEqualFailureBecauseOfExceptionContainsCorrectDetails7RunImplEv:
 4084              	.LFB1082:
 157:TestCheckMacros.cpp **** {
 4085              		.loc 6 157 0
 4086              		.cfi_startproc
 4087              		.cfi_personality 0x3,__gxx_personality_v0
 4088              		.cfi_lsda 0x3,.LLSDA1082
 4089 1c7c 55       		pushq	%rbp
 4090              		.cfi_def_cfa_offset 16
 4091              		.cfi_offset 6, -16
 4092 1c7d 4889E5   		movq	%rsp, %rbp
 4093              		.cfi_def_cfa_register 6
 4094 1c80 53       		pushq	%rbx
 4095 1c81 4881ECD8 		subq	$2264, %rsp
 4095      080000
 4096              		.cfi_offset 3, -24
 4097 1c88 4889BD28 		movq	%rdi, -2264(%rbp)
 4097      F7FFFF
 4098              		.loc 6 157 0
 4099 1c8f 64488B04 		movq	%fs:40, %rax
 4099      25280000 
 4099      00
 4100 1c98 488945E8 		movq	%rax, -24(%rbp)
 4101 1c9c 31C0     		xorl	%eax, %eax
 4102              	.LBB56:
 158:TestCheckMacros.cpp ****     int line = 0;
 4103              		.loc 6 158 0
 4104 1c9e C78534F7 		movl	$0, -2252(%rbp)
 4104      FFFF0000 
 4104      0000
 159:TestCheckMacros.cpp ****     RecordingReporter reporter;
 4105              		.loc 6 159 0
 4106 1ca8 488D85B0 		leaq	-2128(%rbp), %rax
 4106      F7FFFF
 4107 1caf 4889C7   		movq	%rax, %rdi
 4108 1cb2 E8000000 		call	_ZN17RecordingReporterC1Ev
 4108      00
 4109              	.LBB57:
 160:TestCheckMacros.cpp ****     {
 161:TestCheckMacros.cpp ****         UnitTest::TestResults testResults(&reporter);
 4110              		.loc 6 161 0
 4111 1cb7 488D95B0 		leaq	-2128(%rbp), %rdx
 4111      F7FFFF
 4112 1cbe 488D8550 		leaq	-2224(%rbp), %rax
 4112      F7FFFF
 4113 1cc5 4889D6   		movq	%rdx, %rsi
 4114 1cc8 4889C7   		movq	%rax, %rdi
 4115              	.LEHB125:
 4116 1ccb E8000000 		call	_ZN8UnitTest11TestResultsC1EPNS_12TestReporterE
 4116      00
 162:TestCheckMacros.cpp **** 		UnitTest::TestDetails const testDetails("testName", "suiteName", "filename", -1);
 4117              		.loc 6 162 0
 4118 1cd0 488D8570 		leaq	-2192(%rbp), %rax
 4118      F7FFFF
 4119 1cd7 41B8FFFF 		movl	$-1, %r8d
 4119      FFFF
 4120 1cdd B9000000 		movl	$.LC34, %ecx
 4120      00
 4121 1ce2 BA000000 		movl	$.LC35, %edx
 4121      00
 4122 1ce7 BE000000 		movl	$.LC36, %esi
 4122      00
 4123 1cec 4889C7   		movq	%rax, %rdi
 4124 1cef E8000000 		call	_ZN8UnitTest11TestDetailsC1EPKcS2_S2_i
 4124      00
 163:TestCheckMacros.cpp **** 		ScopedCurrentTest scopedResults(testResults, &testDetails);
 4125              		.loc 6 163 0
 4126 1cf4 488D9570 		leaq	-2192(%rbp), %rdx
 4126      F7FFFF
 4127 1cfb 488D8D50 		leaq	-2224(%rbp), %rcx
 4127      F7FFFF
 4128 1d02 488D8540 		leaq	-2240(%rbp), %rax
 4128      F7FFFF
 4129 1d09 4889CE   		movq	%rcx, %rsi
 4130 1d0c 4889C7   		movq	%rax, %rdi
 4131 1d0f E8000000 		call	_ZN17ScopedCurrentTestC1ERN8UnitTest11TestResultsEPKNS0_11TestDetailsE
 4131      00
 4132              	.LEHE125:
 4133              	.LEHB126:
 164:TestCheckMacros.cpp **** 
 165:TestCheckMacros.cpp **** 		CHECK_EQUAL(ThrowingFunction(), 123);    line = __LINE__;
 4134              		.loc 6 165 0
 4135 1d14 E8000000 		call	_ZN8UnitTest11CurrentTest7DetailsEv
 4135      00
 4136 1d19 488B08   		movq	(%rax), %rcx
 4137 1d1c 488D8590 		leaq	-2160(%rbp), %rax
 4137      F7FFFF
 4138 1d23 BAA50000 		movl	$165, %edx
 4138      00
 4139 1d28 4889CE   		movq	%rcx, %rsi
 4140 1d2b 4889C7   		movq	%rax, %rdi
 4141 1d2e E8000000 		call	_ZN8UnitTest11TestDetailsC1ERKS0_i
 4141      00
 4142              		.loc 6 165 0 is_stmt 0 discriminator 1
 4143 1d33 C7853CF7 		movl	$123, -2244(%rbp)
 4143      FFFF7B00 
 4143      0000
 4144 1d3d E8F9ECFF 		call	_ZN12_GLOBAL__N_116ThrowingFunctionEv
 4144      FF
 4145 1d42 898538F7 		movl	%eax, -2248(%rbp)
 4145      FFFF
 4146 1d48 E8000000 		call	_ZN8UnitTest11CurrentTest7ResultsEv
 4146      00
 4147 1d4d 488B00   		movq	(%rax), %rax
 4148 1d50 488D8D90 		leaq	-2160(%rbp), %rcx
 4148      F7FFFF
 4149 1d57 488D953C 		leaq	-2244(%rbp), %rdx
 4149      F7FFFF
 4150 1d5e 488DB538 		leaq	-2248(%rbp), %rsi
 4150      F7FFFF
 4151 1d65 4889C7   		movq	%rax, %rdi
 4152 1d68 E8000000 		call	_ZN8UnitTest10CheckEqualIiiEEvRNS_11TestResultsERKT_RKT0_RKNS_11TestDetailsE
 4152      00
 4153              	.LEHE126:
 4154              	.L214:
 4155              		.loc 6 165 0 discriminator 2
 4156 1d6d C78534F7 		movl	$165, -2252(%rbp)
 4156      FFFFA500 
 4156      0000
 4157 1d77 488D8540 		leaq	-2240(%rbp), %rax
 4157      F7FFFF
 4158 1d7e 4889C7   		movq	%rax, %rdi
 4159              	.LEHB127:
 4160 1d81 E8000000 		call	_ZN17ScopedCurrentTestD1Ev
 4160      00
 4161              	.LEHE127:
 4162              	.LEHB128:
 4163              	.LBE57:
 166:TestCheckMacros.cpp ****     }
 167:TestCheckMacros.cpp **** 
 168:TestCheckMacros.cpp ****     CHECK_EQUAL("testName", reporter.lastFailedTest);
 4164              		.loc 6 168 0 is_stmt 1
 4165 1d86 E8000000 		call	_ZN8UnitTest11CurrentTest7DetailsEv
 4165      00
 4166 1d8b 488B08   		movq	(%rax), %rcx
 4167 1d8e 488D8590 		leaq	-2160(%rbp), %rax
 4167      F7FFFF
 4168 1d95 BAA80000 		movl	$168, %edx
 4168      00
 4169 1d9a 4889CE   		movq	%rcx, %rsi
 4170 1d9d 4889C7   		movq	%rax, %rdi
 4171 1da0 E8000000 		call	_ZN8UnitTest11TestDetailsC1ERKS0_i
 4171      00
 4172              		.loc 6 168 0 is_stmt 0 discriminator 1
 4173 1da5 E8000000 		call	_ZN8UnitTest11CurrentTest7ResultsEv
 4173      00
 4174 1daa 488B00   		movq	(%rax), %rax
 4175 1dad 488D9590 		leaq	-2160(%rbp), %rdx
 4175      F7FFFF
 4176 1db4 488D8DB0 		leaq	-2128(%rbp), %rcx
 4176      F7FFFF
 4177 1dbb 488DB114 		leaq	1044(%rcx), %rsi
 4177      040000
 4178 1dc2 4889D1   		movq	%rdx, %rcx
 4179 1dc5 4889F2   		movq	%rsi, %rdx
 4180 1dc8 BE000000 		movl	$.LC36, %esi
 4180      00
 4181 1dcd 4889C7   		movq	%rax, %rdi
 4182 1dd0 E8000000 		call	_ZN8UnitTest10CheckEqualERNS_11TestResultsEPKcPcRKNS_11TestDetailsE
 4182      00
 4183              	.LEHE128:
 4184              	.L218:
 4185              	.LEHB129:
 169:TestCheckMacros.cpp ****     CHECK_EQUAL("suiteName", reporter.lastFailedSuite);
 4186              		.loc 6 169 0 is_stmt 1
 4187 1dd5 E8000000 		call	_ZN8UnitTest11CurrentTest7DetailsEv
 4187      00
 4188 1dda 488B08   		movq	(%rax), %rcx
 4189 1ddd 488D8590 		leaq	-2160(%rbp), %rax
 4189      F7FFFF
 4190 1de4 BAA90000 		movl	$169, %edx
 4190      00
 4191 1de9 4889CE   		movq	%rcx, %rsi
 4192 1dec 4889C7   		movq	%rax, %rdi
 4193 1def E8000000 		call	_ZN8UnitTest11TestDetailsC1ERKS0_i
 4193      00
 4194              		.loc 6 169 0 is_stmt 0 discriminator 1
 4195 1df4 E8000000 		call	_ZN8UnitTest11CurrentTest7ResultsEv
 4195      00
 4196 1df9 488B00   		movq	(%rax), %rax
 4197 1dfc 488D9590 		leaq	-2160(%rbp), %rdx
 4197      F7FFFF
 4198 1e03 488D8DB0 		leaq	-2128(%rbp), %rcx
 4198      F7FFFF
 4199 1e0a 488DB114 		leaq	788(%rcx), %rsi
 4199      030000
 4200 1e11 4889D1   		movq	%rdx, %rcx
 4201 1e14 4889F2   		movq	%rsi, %rdx
 4202 1e17 BE000000 		movl	$.LC35, %esi
 4202      00
 4203 1e1c 4889C7   		movq	%rax, %rdi
 4204 1e1f E8000000 		call	_ZN8UnitTest10CheckEqualERNS_11TestResultsEPKcPcRKNS_11TestDetailsE
 4204      00
 4205              	.LEHE129:
 4206              	.L221:
 4207              	.LEHB130:
 170:TestCheckMacros.cpp ****     CHECK_EQUAL("filename", reporter.lastFailedFile);
 4208              		.loc 6 170 0 is_stmt 1
 4209 1e24 E8000000 		call	_ZN8UnitTest11CurrentTest7DetailsEv
 4209      00
 4210 1e29 488B08   		movq	(%rax), %rcx
 4211 1e2c 488D8590 		leaq	-2160(%rbp), %rax
 4211      F7FFFF
 4212 1e33 BAAA0000 		movl	$170, %edx
 4212      00
 4213 1e38 4889CE   		movq	%rcx, %rsi
 4214 1e3b 4889C7   		movq	%rax, %rdi
 4215 1e3e E8000000 		call	_ZN8UnitTest11TestDetailsC1ERKS0_i
 4215      00
 4216              		.loc 6 170 0 is_stmt 0 discriminator 1
 4217 1e43 E8000000 		call	_ZN8UnitTest11CurrentTest7ResultsEv
 4217      00
 4218 1e48 488B00   		movq	(%rax), %rax
 4219 1e4b 488D9590 		leaq	-2160(%rbp), %rdx
 4219      F7FFFF
 4220 1e52 488D8DB0 		leaq	-2128(%rbp), %rcx
 4220      F7FFFF
 4221 1e59 488DB110 		leaq	528(%rcx), %rsi
 4221      020000
 4222 1e60 4889D1   		movq	%rdx, %rcx
 4223 1e63 4889F2   		movq	%rsi, %rdx
 4224 1e66 BE000000 		movl	$.LC34, %esi
 4224      00
 4225 1e6b 4889C7   		movq	%rax, %rdi
 4226 1e6e E8000000 		call	_ZN8UnitTest10CheckEqualERNS_11TestResultsEPKcPcRKNS_11TestDetailsE
 4226      00
 4227              	.LEHE130:
 4228              	.L224:
 4229              	.LEHB131:
 171:TestCheckMacros.cpp ****     CHECK_EQUAL(line, reporter.lastFailedLine);
 4230              		.loc 6 171 0 is_stmt 1
 4231 1e73 E8000000 		call	_ZN8UnitTest11CurrentTest7DetailsEv
 4231      00
 4232 1e78 488B08   		movq	(%rax), %rcx
 4233 1e7b 488D8590 		leaq	-2160(%rbp), %rax
 4233      F7FFFF
 4234 1e82 BAAB0000 		movl	$171, %edx
 4234      00
 4235 1e87 4889CE   		movq	%rcx, %rsi
 4236 1e8a 4889C7   		movq	%rax, %rdi
 4237 1e8d E8000000 		call	_ZN8UnitTest11TestDetailsC1ERKS0_i
 4237      00
 4238              		.loc 6 171 0 is_stmt 0 discriminator 1
 4239 1e92 E8000000 		call	_ZN8UnitTest11CurrentTest7ResultsEv
 4239      00
 4240 1e97 488B00   		movq	(%rax), %rax
 4241 1e9a 488D9590 		leaq	-2160(%rbp), %rdx
 4241      F7FFFF
 4242 1ea1 488D8DB0 		leaq	-2128(%rbp), %rcx
 4242      F7FFFF
 4243 1ea8 488DB910 		leaq	784(%rcx), %rdi
 4243      030000
 4244 1eaf 488DB534 		leaq	-2252(%rbp), %rsi
 4244      F7FFFF
 4245 1eb6 4889D1   		movq	%rdx, %rcx
 4246 1eb9 4889FA   		movq	%rdi, %rdx
 4247 1ebc 4889C7   		movq	%rax, %rdi
 4248 1ebf E8000000 		call	_ZN8UnitTest10CheckEqualIiiEEvRNS_11TestResultsERKT_RKT0_RKNS_11TestDetailsE
 4248      00
 4249              	.LEHE131:
 4250              	.L227:
 4251              		.loc 6 171 0 discriminator 2
 4252 1ec4 488D85B0 		leaq	-2128(%rbp), %rax
 4252      F7FFFF
 4253 1ecb 4889C7   		movq	%rax, %rdi
 4254              	.LEHB132:
 4255 1ece E8000000 		call	_ZN17RecordingReporterD1Ev
 4255      00
 4256              	.LEHE132:
 4257              	.LBE56:
 172:TestCheckMacros.cpp **** }
 4258              		.loc 6 172 0 is_stmt 1 discriminator 2
 4259 1ed3 488B45E8 		movq	-24(%rbp), %rax
 4260 1ed7 64483304 		xorq	%fs:40, %rax
 4260      25280000 
 4260      00
 4261 1ee0 0F840902 		je	.L228
 4261      0000
 4262 1ee6 E9FF0100 		jmp	.L241
 4262      00
 4263              	.L231:
 4264 1eeb 4889C3   		movq	%rax, %rbx
 4265              	.LBB59:
 4266              	.LBB58:
 165:TestCheckMacros.cpp ****     }
 4267              		.loc 6 165 0
 4268 1eee E8000000 		call	__cxa_end_catch
 4268      00
 4269 1ef3 EB53     		jmp	.L212
 4270              	.L229:
 4271 1ef5 4889C7   		movq	%rax, %rdi
 4272 1ef8 E8000000 		call	__cxa_begin_catch
 4272      00
 4273              	.LEHB133:
 4274 1efd E8000000 		call	_ZN8UnitTest11CurrentTest7DetailsEv
 4274      00
 4275 1f02 488B08   		movq	(%rax), %rcx
 4276 1f05 488D8590 		leaq	-2160(%rbp), %rax
 4276      F7FFFF
 4277 1f0c BAA50000 		movl	$165, %edx
 4277      00
 4278 1f11 4889CE   		movq	%rcx, %rsi
 4279 1f14 4889C7   		movq	%rax, %rdi
 4280 1f17 E8000000 		call	_ZN8UnitTest11TestDetailsC1ERKS0_i
 4280      00
 165:TestCheckMacros.cpp ****     }
 4281              		.loc 6 165 0 is_stmt 0 discriminator 1
 4282 1f1c E8000000 		call	_ZN8UnitTest11CurrentTest7ResultsEv
 4282      00
 4283 1f21 488B00   		movq	(%rax), %rax
 4284 1f24 488D8D90 		leaq	-2160(%rbp), %rcx
 4284      F7FFFF
 4285 1f2b BA000000 		movl	$.LC43, %edx
 4285      00
 4286 1f30 4889CE   		movq	%rcx, %rsi
 4287 1f33 4889C7   		movq	%rax, %rdi
 4288 1f36 E8000000 		call	_ZN8UnitTest11TestResults13OnTestFailureERKNS_11TestDetailsEPKc
 4288      00
 4289              	.LEHE133:
 4290              	.LEHB134:
 4291 1f3b E8000000 		call	__cxa_end_catch
 4291      00
 4292              	.LEHE134:
 165:TestCheckMacros.cpp ****     }
 4293              		.loc 6 165 0
 4294 1f40 E928FEFF 		jmp	.L214
 4294      FF
 4295              	.L230:
 4296 1f45 4889C3   		movq	%rax, %rbx
 4297              	.L212:
 4298 1f48 488D8540 		leaq	-2240(%rbp), %rax
 4298      F7FFFF
 4299 1f4f 4889C7   		movq	%rax, %rdi
 4300 1f52 E8000000 		call	_ZN17ScopedCurrentTestD1Ev
 4300      00
 4301 1f57 E9740100 		jmp	.L215
 4301      00
 4302              	.L234:
 4303 1f5c 4889C3   		movq	%rax, %rbx
 4304              	.LBE58:
 168:TestCheckMacros.cpp ****     CHECK_EQUAL("suiteName", reporter.lastFailedSuite);
 4305              		.loc 6 168 0 is_stmt 1
 4306 1f5f E8000000 		call	__cxa_end_catch
 4306      00
 4307 1f64 E9670100 		jmp	.L215
 4307      00
 4308              	.L233:
 4309 1f69 4889C7   		movq	%rax, %rdi
 4310 1f6c E8000000 		call	__cxa_begin_catch
 4310      00
 4311              	.LEHB135:
 4312 1f71 E8000000 		call	_ZN8UnitTest11CurrentTest7DetailsEv
 4312      00
 4313 1f76 488B08   		movq	(%rax), %rcx
 4314 1f79 488D8590 		leaq	-2160(%rbp), %rax
 4314      F7FFFF
 4315 1f80 BAA80000 		movl	$168, %edx
 4315      00
 4316 1f85 4889CE   		movq	%rcx, %rsi
 4317 1f88 4889C7   		movq	%rax, %rdi
 4318 1f8b E8000000 		call	_ZN8UnitTest11TestDetailsC1ERKS0_i
 4318      00
 168:TestCheckMacros.cpp ****     CHECK_EQUAL("suiteName", reporter.lastFailedSuite);
 4319              		.loc 6 168 0 is_stmt 0 discriminator 1
 4320 1f90 E8000000 		call	_ZN8UnitTest11CurrentTest7ResultsEv
 4320      00
 4321 1f95 488B00   		movq	(%rax), %rax
 4322 1f98 488D8D90 		leaq	-2160(%rbp), %rcx
 4322      F7FFFF
 4323 1f9f BA000000 		movl	$.LC38, %edx
 4323      00
 4324 1fa4 4889CE   		movq	%rcx, %rsi
 4325 1fa7 4889C7   		movq	%rax, %rdi
 4326 1faa E8000000 		call	_ZN8UnitTest11TestResults13OnTestFailureERKNS_11TestDetailsEPKc
 4326      00
 4327              	.LEHE135:
 4328              	.LEHB136:
 4329 1faf E8000000 		call	__cxa_end_catch
 4329      00
 4330              	.LEHE136:
 168:TestCheckMacros.cpp ****     CHECK_EQUAL("suiteName", reporter.lastFailedSuite);
 4331              		.loc 6 168 0
 4332 1fb4 E91CFEFF 		jmp	.L218
 4332      FF
 4333              	.L236:
 4334 1fb9 4889C3   		movq	%rax, %rbx
 169:TestCheckMacros.cpp ****     CHECK_EQUAL("filename", reporter.lastFailedFile);
 4335              		.loc 6 169 0 is_stmt 1
 4336 1fbc E8000000 		call	__cxa_end_catch
 4336      00
 4337 1fc1 E90A0100 		jmp	.L215
 4337      00
 4338              	.L235:
 4339 1fc6 4889C7   		movq	%rax, %rdi
 4340 1fc9 E8000000 		call	__cxa_begin_catch
 4340      00
 4341              	.LEHB137:
 4342 1fce E8000000 		call	_ZN8UnitTest11CurrentTest7DetailsEv
 4342      00
 4343 1fd3 488B08   		movq	(%rax), %rcx
 4344 1fd6 488D8590 		leaq	-2160(%rbp), %rax
 4344      F7FFFF
 4345 1fdd BAA90000 		movl	$169, %edx
 4345      00
 4346 1fe2 4889CE   		movq	%rcx, %rsi
 4347 1fe5 4889C7   		movq	%rax, %rdi
 4348 1fe8 E8000000 		call	_ZN8UnitTest11TestDetailsC1ERKS0_i
 4348      00
 169:TestCheckMacros.cpp ****     CHECK_EQUAL("filename", reporter.lastFailedFile);
 4349              		.loc 6 169 0 is_stmt 0 discriminator 1
 4350 1fed E8000000 		call	_ZN8UnitTest11CurrentTest7ResultsEv
 4350      00
 4351 1ff2 488B00   		movq	(%rax), %rax
 4352 1ff5 488D8D90 		leaq	-2160(%rbp), %rcx
 4352      F7FFFF
 4353 1ffc BA000000 		movl	$.LC39, %edx
 4353      00
 4354 2001 4889CE   		movq	%rcx, %rsi
 4355 2004 4889C7   		movq	%rax, %rdi
 4356 2007 E8000000 		call	_ZN8UnitTest11TestResults13OnTestFailureERKNS_11TestDetailsEPKc
 4356      00
 4357              	.LEHE137:
 4358              	.LEHB138:
 4359 200c E8000000 		call	__cxa_end_catch
 4359      00
 4360              	.LEHE138:
 169:TestCheckMacros.cpp ****     CHECK_EQUAL("filename", reporter.lastFailedFile);
 4361              		.loc 6 169 0
 4362 2011 E90EFEFF 		jmp	.L221
 4362      FF
 4363              	.L238:
 4364 2016 4889C3   		movq	%rax, %rbx
 170:TestCheckMacros.cpp ****     CHECK_EQUAL(line, reporter.lastFailedLine);
 4365              		.loc 6 170 0 is_stmt 1
 4366 2019 E8000000 		call	__cxa_end_catch
 4366      00
 4367 201e E9AD0000 		jmp	.L215
 4367      00
 4368              	.L237:
 4369 2023 4889C7   		movq	%rax, %rdi
 4370 2026 E8000000 		call	__cxa_begin_catch
 4370      00
 4371              	.LEHB139:
 4372 202b E8000000 		call	_ZN8UnitTest11CurrentTest7DetailsEv
 4372      00
 4373 2030 488B08   		movq	(%rax), %rcx
 4374 2033 488D8590 		leaq	-2160(%rbp), %rax
 4374      F7FFFF
 4375 203a BAAA0000 		movl	$170, %edx
 4375      00
 4376 203f 4889CE   		movq	%rcx, %rsi
 4377 2042 4889C7   		movq	%rax, %rdi
 4378 2045 E8000000 		call	_ZN8UnitTest11TestDetailsC1ERKS0_i
 4378      00
 170:TestCheckMacros.cpp ****     CHECK_EQUAL(line, reporter.lastFailedLine);
 4379              		.loc 6 170 0 is_stmt 0 discriminator 1
 4380 204a E8000000 		call	_ZN8UnitTest11CurrentTest7ResultsEv
 4380      00
 4381 204f 488B00   		movq	(%rax), %rax
 4382 2052 488D8D90 		leaq	-2160(%rbp), %rcx
 4382      F7FFFF
 4383 2059 BA000000 		movl	$.LC40, %edx
 4383      00
 4384 205e 4889CE   		movq	%rcx, %rsi
 4385 2061 4889C7   		movq	%rax, %rdi
 4386 2064 E8000000 		call	_ZN8UnitTest11TestResults13OnTestFailureERKNS_11TestDetailsEPKc
 4386      00
 4387              	.LEHE139:
 4388              	.LEHB140:
 4389 2069 E8000000 		call	__cxa_end_catch
 4389      00
 4390              	.LEHE140:
 170:TestCheckMacros.cpp ****     CHECK_EQUAL(line, reporter.lastFailedLine);
 4391              		.loc 6 170 0
 4392 206e E900FEFF 		jmp	.L224
 4392      FF
 4393              	.L240:
 4394 2073 4889C3   		movq	%rax, %rbx
 171:TestCheckMacros.cpp **** }
 4395              		.loc 6 171 0 is_stmt 1
 4396 2076 E8000000 		call	__cxa_end_catch
 4396      00
 4397 207b EB53     		jmp	.L215
 4398              	.L239:
 4399 207d 4889C7   		movq	%rax, %rdi
 4400 2080 E8000000 		call	__cxa_begin_catch
 4400      00
 4401              	.LEHB141:
 4402 2085 E8000000 		call	_ZN8UnitTest11CurrentTest7DetailsEv
 4402      00
 4403 208a 488B08   		movq	(%rax), %rcx
 4404 208d 488D8590 		leaq	-2160(%rbp), %rax
 4404      F7FFFF
 4405 2094 BAAB0000 		movl	$171, %edx
 4405      00
 4406 2099 4889CE   		movq	%rcx, %rsi
 4407 209c 4889C7   		movq	%rax, %rdi
 4408 209f E8000000 		call	_ZN8UnitTest11TestDetailsC1ERKS0_i
 4408      00
 171:TestCheckMacros.cpp **** }
 4409              		.loc 6 171 0 is_stmt 0 discriminator 1
 4410 20a4 E8000000 		call	_ZN8UnitTest11CurrentTest7ResultsEv
 4410      00
 4411 20a9 488B00   		movq	(%rax), %rax
 4412 20ac 488D8D90 		leaq	-2160(%rbp), %rcx
 4412      F7FFFF
 4413 20b3 BA000000 		movl	$.LC41, %edx
 4413      00
 4414 20b8 4889CE   		movq	%rcx, %rsi
 4415 20bb 4889C7   		movq	%rax, %rdi
 4416 20be E8000000 		call	_ZN8UnitTest11TestResults13OnTestFailureERKNS_11TestDetailsEPKc
 4416      00
 4417              	.LEHE141:
 4418              	.LEHB142:
 4419 20c3 E8000000 		call	__cxa_end_catch
 4419      00
 4420              	.LEHE142:
 171:TestCheckMacros.cpp **** }
 4421              		.loc 6 171 0
 4422 20c8 E9F7FDFF 		jmp	.L227
 4422      FF
 4423              	.L232:
 4424 20cd 4889C3   		movq	%rax, %rbx
 4425              	.L215:
 4426 20d0 488D85B0 		leaq	-2128(%rbp), %rax
 4426      F7FFFF
 4427 20d7 4889C7   		movq	%rax, %rdi
 4428 20da E8000000 		call	_ZN17RecordingReporterD1Ev
 4428      00
 4429 20df 4889D8   		movq	%rbx, %rax
 4430 20e2 4889C7   		movq	%rax, %rdi
 4431              	.LEHB143:
 4432 20e5 E8000000 		call	_Unwind_Resume
 4432      00
 4433              	.LEHE143:
 4434              	.L241:
 4435              	.LBE59:
 4436              		.loc 6 172 0 is_stmt 1
 4437 20ea E8000000 		call	__stack_chk_fail
 4437      00
 4438              	.L228:
 4439 20ef 4881C4D8 		addq	$2264, %rsp
 4439      080000
 4440 20f6 5B       		popq	%rbx
 4441 20f7 5D       		popq	%rbp
 4442              		.cfi_def_cfa 7, 8
 4443 20f8 C3       		ret
 4444              		.cfi_endproc
 4445              	.LFE1082:
 4446              		.section	.gcc_except_table
 4447              		.align 4
 4448              	.LLSDA1082:
 4449 0328 FF       		.byte	0xff
 4450 0329 03       		.byte	0x3
 4451 032a 79       		.uleb128 .LLSDATT1082-.LLSDATTD1082
 4452              	.LLSDATTD1082:
 4453 032b 01       		.byte	0x1
 4454 032c 6F       		.uleb128 .LLSDACSE1082-.LLSDACSB1082
 4455              	.LLSDACSB1082:
 4456 032d 4F       		.uleb128 .LEHB125-.LFB1082
 4457 032e 49       		.uleb128 .LEHE125-.LEHB125
 4458 032f D108     		.uleb128 .L232-.LFB1082
 4459 0331 00       		.uleb128 0
 4460 0332 9801     		.uleb128 .LEHB126-.LFB1082
 4461 0334 59       		.uleb128 .LEHE126-.LEHB126
 4462 0335 F904     		.uleb128 .L229-.LFB1082
 4463 0337 01       		.uleb128 0x1
 4464 0338 8502     		.uleb128 .LEHB127-.LFB1082
 4465 033a 05       		.uleb128 .LEHE127-.LEHB127
 4466 033b D108     		.uleb128 .L232-.LFB1082
 4467 033d 00       		.uleb128 0
 4468 033e 8A02     		.uleb128 .LEHB128-.LFB1082
 4469 0340 4F       		.uleb128 .LEHE128-.LEHB128
 4470 0341 ED05     		.uleb128 .L233-.LFB1082
 4471 0343 01       		.uleb128 0x1
 4472 0344 D902     		.uleb128 .LEHB129-.LFB1082
 4473 0346 4F       		.uleb128 .LEHE129-.LEHB129
 4474 0347 CA06     		.uleb128 .L235-.LFB1082
 4475 0349 01       		.uleb128 0x1
 4476 034a A803     		.uleb128 .LEHB130-.LFB1082
 4477 034c 4F       		.uleb128 .LEHE130-.LEHB130
 4478 034d A707     		.uleb128 .L237-.LFB1082
 4479 034f 01       		.uleb128 0x1
 4480 0350 F703     		.uleb128 .LEHB131-.LFB1082
 4481 0352 51       		.uleb128 .LEHE131-.LEHB131
 4482 0353 8108     		.uleb128 .L239-.LFB1082
 4483 0355 01       		.uleb128 0x1
 4484 0356 D204     		.uleb128 .LEHB132-.LFB1082
 4485 0358 05       		.uleb128 .LEHE132-.LEHB132
 4486 0359 00       		.uleb128 0
 4487 035a 00       		.uleb128 0
 4488 035b 8105     		.uleb128 .LEHB133-.LFB1082
 4489 035d 3E       		.uleb128 .LEHE133-.LEHB133
 4490 035e EF04     		.uleb128 .L231-.LFB1082
 4491 0360 00       		.uleb128 0
 4492 0361 BF05     		.uleb128 .LEHB134-.LFB1082
 4493 0363 05       		.uleb128 .LEHE134-.LEHB134
 4494 0364 C905     		.uleb128 .L230-.LFB1082
 4495 0366 00       		.uleb128 0
 4496 0367 F505     		.uleb128 .LEHB135-.LFB1082
 4497 0369 3E       		.uleb128 .LEHE135-.LEHB135
 4498 036a E005     		.uleb128 .L234-.LFB1082
 4499 036c 00       		.uleb128 0
 4500 036d B306     		.uleb128 .LEHB136-.LFB1082
 4501 036f 05       		.uleb128 .LEHE136-.LEHB136
 4502 0370 D108     		.uleb128 .L232-.LFB1082
 4503 0372 00       		.uleb128 0
 4504 0373 D206     		.uleb128 .LEHB137-.LFB1082
 4505 0375 3E       		.uleb128 .LEHE137-.LEHB137
 4506 0376 BD06     		.uleb128 .L236-.LFB1082
 4507 0378 00       		.uleb128 0
 4508 0379 9007     		.uleb128 .LEHB138-.LFB1082
 4509 037b 05       		.uleb128 .LEHE138-.LEHB138
 4510 037c D108     		.uleb128 .L232-.LFB1082
 4511 037e 00       		.uleb128 0
 4512 037f AF07     		.uleb128 .LEHB139-.LFB1082
 4513 0381 3E       		.uleb128 .LEHE139-.LEHB139
 4514 0382 9A07     		.uleb128 .L238-.LFB1082
 4515 0384 00       		.uleb128 0
 4516 0385 ED07     		.uleb128 .LEHB140-.LFB1082
 4517 0387 05       		.uleb128 .LEHE140-.LEHB140
 4518 0388 D108     		.uleb128 .L232-.LFB1082
 4519 038a 00       		.uleb128 0
 4520 038b 8908     		.uleb128 .LEHB141-.LFB1082
 4521 038d 3E       		.uleb128 .LEHE141-.LEHB141
 4522 038e F707     		.uleb128 .L240-.LFB1082
 4523 0390 00       		.uleb128 0
 4524 0391 C708     		.uleb128 .LEHB142-.LFB1082
 4525 0393 05       		.uleb128 .LEHE142-.LEHB142
 4526 0394 D108     		.uleb128 .L232-.LFB1082
 4527 0396 00       		.uleb128 0
 4528 0397 E908     		.uleb128 .LEHB143-.LFB1082
 4529 0399 05       		.uleb128 .LEHE143-.LEHB143
 4530 039a 00       		.uleb128 0
 4531 039b 00       		.uleb128 0
 4532              	.LLSDACSE1082:
 4533 039c 01       		.byte	0x1
 4534 039d 00       		.byte	0
 4535 039e 0000     		.align 4
 4536 03a0 00000000 		.long	0
 4537              	
 4538              	.LLSDATT1082:
 4539              		.text
 4541              		.section	.rodata
 4542 06ac 00000000 		.align 8
 4543              	.LC44:
 4544 06b0 43686563 		.string	"CheckEqualFailureBecauseOfExceptionIncludesCheckContents"
 4544      6B457175 
 4544      616C4661 
 4544      696C7572 
 4544      65426563 
 4545              		.text
 4546 20f9 90       		.align 2
 4548              	_ZN12_GLOBAL__N_160TestCheckEqualFailureBecauseOfExceptionIncludesCheckContentsC2Ev:
 4549              	.LFB1084:
 173:TestCheckMacros.cpp **** 
 174:TestCheckMacros.cpp **** TEST(CheckEqualFailureBecauseOfExceptionIncludesCheckContents)
 4550              		.loc 6 174 0
 4551              		.cfi_startproc
 4552 20fa 55       		pushq	%rbp
 4553              		.cfi_def_cfa_offset 16
 4554              		.cfi_offset 6, -16
 4555 20fb 4889E5   		movq	%rsp, %rbp
 4556              		.cfi_def_cfa_register 6
 4557 20fe 4883EC10 		subq	$16, %rsp
 4558 2102 48897DF8 		movq	%rdi, -8(%rbp)
 4559              	.LBB60:
 4560              		.loc 6 174 0
 4561 2106 E8000000 		call	_ZN13UnitTestSuite12GetSuiteNameEv
 4561      00
 4562 210b 4889C2   		movq	%rax, %rdx
 4563 210e 488B45F8 		movq	-8(%rbp), %rax
 4564 2112 41B8AE00 		movl	$174, %r8d
 4564      0000
 4565 2118 B9000000 		movl	$.LC2, %ecx
 4565      00
 4566 211d BE000000 		movl	$.LC44, %esi
 4566      00
 4567 2122 4889C7   		movq	%rax, %rdi
 4568 2125 E8000000 		call	_ZN8UnitTest4TestC2EPKcS2_S2_i
 4568      00
 4569 212a 488B45F8 		movq	-8(%rbp), %rax
 4570 212e 48C70000 		movq	$_ZTVN12_GLOBAL__N_160TestCheckEqualFailureBecauseOfExceptionIncludesCheckContentsE+16, (%rax
 4570      000000
 4571              	.LBE60:
 4572 2135 C9       		leave
 4573              		.cfi_def_cfa 7, 8
 4574 2136 C3       		ret
 4575              		.cfi_endproc
 4576              	.LFE1084:
 4578              		.set	_ZN12_GLOBAL__N_160TestCheckEqualFailureBecauseOfExceptionIncludesCheckContentsC1Ev,_ZN12_GLO
 4579              		.local	_ZN12_GLOBAL__N_168testCheckEqualFailureBecauseOfExceptionIncludesCheckContentsInstanceE
 4580              		.comm	_ZN12_GLOBAL__N_168testCheckEqualFailureBecauseOfExceptionIncludesCheckContentsInstanceE,56,
 4581              		.local	_ZN12_GLOBAL__N_161adderCheckEqualFailureBecauseOfExceptionIncludesCheckContentsE
 4582              		.comm	_ZN12_GLOBAL__N_161adderCheckEqualFailureBecauseOfExceptionIncludesCheckContentsE,1,1
 4583              		.section	.rodata
 4584              	.LC45:
 4585 06e9 5468726F 		.string	"ThrowingFunction()"
 4585      77696E67 
 4585      46756E63 
 4585      74696F6E 
 4585      282900
 4586 06fc 00000000 		.align 8
 4587              	.LC46:
 4588 0700 73747273 		.string	"strstr(reporter.lastFailedMessage, \"ThrowingFunction()\")"
 4588      74722872 
 4588      65706F72 
 4588      7465722E 
 4588      6C617374 
 4589              	.LC47:
 4590 0739 31323300 		.string	"123"
 4591 073d 000000   		.align 8
 4592              	.LC48:
 4593 0740 73747273 		.string	"strstr(reporter.lastFailedMessage, \"123\")"
 4593      74722872 
 4593      65706F72 
 4593      7465722E 
 4593      6C617374 
 4594 076a 00000000 		.align 8
 4594      0000
 4595              	.LC49:
 4596 0770 556E6861 		.string	"Unhandled exception in CHECK(strstr(reporter.lastFailedMessage, \"ThrowingFunction()\"))"
 4596      6E646C65 
 4596      64206578 
 4596      63657074 
 4596      696F6E20 
 4597 07c7 00       		.align 8
 4598              	.LC50:
 4599 07c8 556E6861 		.string	"Unhandled exception in CHECK(strstr(reporter.lastFailedMessage, \"123\"))"
 4599      6E646C65 
 4599      64206578 
 4599      63657074 
 4599      696F6E20 
 4600              		.text
 4601 2137 90       		.align 2
 4603              	_ZNK12_GLOBAL__N_160TestCheckEqualFailureBecauseOfExceptionIncludesCheckContents7RunImplEv:
 4604              	.LFB1086:
 175:TestCheckMacros.cpp **** {
 4605              		.loc 6 175 0
 4606              		.cfi_startproc
 4607              		.cfi_personality 0x3,__gxx_personality_v0
 4608              		.cfi_lsda 0x3,.LLSDA1086
 4609 2138 55       		pushq	%rbp
 4610              		.cfi_def_cfa_offset 16
 4611              		.cfi_offset 6, -16
 4612 2139 4889E5   		movq	%rsp, %rbp
 4613              		.cfi_def_cfa_register 6
 4614 213c 53       		pushq	%rbx
 4615 213d 4881ECB8 		subq	$2232, %rsp
 4615      080000
 4616              		.cfi_offset 3, -24
 4617 2144 4889BD48 		movq	%rdi, -2232(%rbp)
 4617      F7FFFF
 4618              		.loc 6 175 0
 4619 214b 64488B04 		movq	%fs:40, %rax
 4619      25280000 
 4619      00
 4620 2154 488945E8 		movq	%rax, -24(%rbp)
 4621 2158 31C0     		xorl	%eax, %eax
 4622              	.LBB61:
 176:TestCheckMacros.cpp ****     RecordingReporter reporter;
 4623              		.loc 6 176 0
 4624 215a 488D85B0 		leaq	-2128(%rbp), %rax
 4624      F7FFFF
 4625 2161 4889C7   		movq	%rax, %rdi
 4626 2164 E8000000 		call	_ZN17RecordingReporterC1Ev
 4626      00
 4627              	.LBB62:
 177:TestCheckMacros.cpp ****     {
 178:TestCheckMacros.cpp ****         UnitTest::TestResults testResults(&reporter);
 4628              		.loc 6 178 0
 4629 2169 488D95B0 		leaq	-2128(%rbp), %rdx
 4629      F7FFFF
 4630 2170 488D8570 		leaq	-2192(%rbp), %rax
 4630      F7FFFF
 4631 2177 4889D6   		movq	%rdx, %rsi
 4632 217a 4889C7   		movq	%rax, %rdi
 4633              	.LEHB144:
 4634 217d E8000000 		call	_ZN8UnitTest11TestResultsC1EPNS_12TestReporterE
 4634      00
 179:TestCheckMacros.cpp **** 		ScopedCurrentTest scopedResults(testResults);
 4635              		.loc 6 179 0
 4636 2182 488D8D70 		leaq	-2192(%rbp), %rcx
 4636      F7FFFF
 4637 2189 488D8560 		leaq	-2208(%rbp), %rax
 4637      F7FFFF
 4638 2190 BA000000 		movl	$0, %edx
 4638      00
 4639 2195 4889CE   		movq	%rcx, %rsi
 4640 2198 4889C7   		movq	%rax, %rdi
 4641 219b E8000000 		call	_ZN17ScopedCurrentTestC1ERN8UnitTest11TestResultsEPKNS0_11TestDetailsE
 4641      00
 4642              	.LEHE144:
 4643              	.LEHB145:
 180:TestCheckMacros.cpp ****         CHECK_EQUAL(ThrowingFunction(), 123);
 4644              		.loc 6 180 0
 4645 21a0 E8000000 		call	_ZN8UnitTest11CurrentTest7DetailsEv
 4645      00
 4646 21a5 488B08   		movq	(%rax), %rcx
 4647 21a8 488D8590 		leaq	-2160(%rbp), %rax
 4647      F7FFFF
 4648 21af BAB40000 		movl	$180, %edx
 4648      00
 4649 21b4 4889CE   		movq	%rcx, %rsi
 4650 21b7 4889C7   		movq	%rax, %rdi
 4651 21ba E8000000 		call	_ZN8UnitTest11TestDetailsC1ERKS0_i
 4651      00
 4652              		.loc 6 180 0 is_stmt 0 discriminator 1
 4653 21bf C7855CF7 		movl	$123, -2212(%rbp)
 4653      FFFF7B00 
 4653      0000
 4654 21c9 E86DE8FF 		call	_ZN12_GLOBAL__N_116ThrowingFunctionEv
 4654      FF
 4655 21ce 898558F7 		movl	%eax, -2216(%rbp)
 4655      FFFF
 4656 21d4 E8000000 		call	_ZN8UnitTest11CurrentTest7ResultsEv
 4656      00
 4657 21d9 488B00   		movq	(%rax), %rax
 4658 21dc 488D8D90 		leaq	-2160(%rbp), %rcx
 4658      F7FFFF
 4659 21e3 488D955C 		leaq	-2212(%rbp), %rdx
 4659      F7FFFF
 4660 21ea 488DB558 		leaq	-2216(%rbp), %rsi
 4660      F7FFFF
 4661 21f1 4889C7   		movq	%rax, %rdi
 4662 21f4 E8000000 		call	_ZN8UnitTest10CheckEqualIiiEEvRNS_11TestResultsERKT_RKT0_RKNS_11TestDetailsE
 4662      00
 4663              	.LEHE145:
 4664              	.L249:
 4665              		.loc 6 180 0 discriminator 2
 4666 21f9 488D8560 		leaq	-2208(%rbp), %rax
 4666      F7FFFF
 4667 2200 4889C7   		movq	%rax, %rdi
 4668              	.LEHB146:
 4669 2203 E8000000 		call	_ZN17ScopedCurrentTestD1Ev
 4669      00
 4670              	.LEHE146:
 4671              	.LBE62:
 181:TestCheckMacros.cpp ****     }
 182:TestCheckMacros.cpp **** 
 183:TestCheckMacros.cpp ****     CHECK(strstr(reporter.lastFailedMessage, "ThrowingFunction()"));
 4672              		.loc 6 183 0 is_stmt 1
 4673 2208 488D85B0 		leaq	-2128(%rbp), %rax
 4673      F7FFFF
 4674 220f 48051405 		addq	$1300, %rax
 4674      0000
 4675 2215 BE000000 		movl	$.LC45, %esi
 4675      00
 4676 221a 4889C7   		movq	%rax, %rdi
 4677 221d E8000000 		call	strstr
 4677      00
 4678 2222 4889C7   		movq	%rax, %rdi
 4679 2225 E8000000 		call	_ZN8UnitTest5CheckIPcEEbT_
 4679      00
 4680 222a 83F001   		xorl	$1, %eax
 4681 222d 84C0     		testb	%al, %al
 4682 222f 743E     		je	.L244
 4683              	.LEHB147:
 4684              		.loc 6 183 0 is_stmt 0 discriminator 1
 4685 2231 E8000000 		call	_ZN8UnitTest11CurrentTest7DetailsEv
 4685      00
 4686 2236 488B08   		movq	(%rax), %rcx
 4687 2239 488D8590 		leaq	-2160(%rbp), %rax
 4687      F7FFFF
 4688 2240 BAB70000 		movl	$183, %edx
 4688      00
 4689 2245 4889CE   		movq	%rcx, %rsi
 4690 2248 4889C7   		movq	%rax, %rdi
 4691 224b E8000000 		call	_ZN8UnitTest11TestDetailsC1ERKS0_i
 4691      00
 4692 2250 E8000000 		call	_ZN8UnitTest11CurrentTest7ResultsEv
 4692      00
 4693 2255 488B00   		movq	(%rax), %rax
 4694 2258 488D8D90 		leaq	-2160(%rbp), %rcx
 4694      F7FFFF
 4695 225f BA000000 		movl	$.LC46, %edx
 4695      00
 4696 2264 4889CE   		movq	%rcx, %rsi
 4697 2267 4889C7   		movq	%rax, %rdi
 4698 226a E8000000 		call	_ZN8UnitTest11TestResults13OnTestFailureERKNS_11TestDetailsEPKc
 4698      00
 4699              	.LEHE147:
 4700              	.L244:
 184:TestCheckMacros.cpp ****     CHECK(strstr(reporter.lastFailedMessage, "123"));
 4701              		.loc 6 184 0 is_stmt 1
 4702 226f 488D85B0 		leaq	-2128(%rbp), %rax
 4702      F7FFFF
 4703 2276 48051405 		addq	$1300, %rax
 4703      0000
 4704 227c BE000000 		movl	$.LC47, %esi
 4704      00
 4705 2281 4889C7   		movq	%rax, %rdi
 4706 2284 E8000000 		call	strstr
 4706      00
 4707 2289 4889C7   		movq	%rax, %rdi
 4708 228c E8000000 		call	_ZN8UnitTest5CheckIPcEEbT_
 4708      00
 4709 2291 83F001   		xorl	$1, %eax
 4710 2294 84C0     		testb	%al, %al
 4711 2296 743E     		je	.L245
 4712              	.LEHB148:
 4713              		.loc 6 184 0 is_stmt 0 discriminator 1
 4714 2298 E8000000 		call	_ZN8UnitTest11CurrentTest7DetailsEv
 4714      00
 4715 229d 488B08   		movq	(%rax), %rcx
 4716 22a0 488D8590 		leaq	-2160(%rbp), %rax
 4716      F7FFFF
 4717 22a7 BAB80000 		movl	$184, %edx
 4717      00
 4718 22ac 4889CE   		movq	%rcx, %rsi
 4719 22af 4889C7   		movq	%rax, %rdi
 4720 22b2 E8000000 		call	_ZN8UnitTest11TestDetailsC1ERKS0_i
 4720      00
 4721 22b7 E8000000 		call	_ZN8UnitTest11CurrentTest7ResultsEv
 4721      00
 4722 22bc 488B00   		movq	(%rax), %rax
 4723 22bf 488D8D90 		leaq	-2160(%rbp), %rcx
 4723      F7FFFF
 4724 22c6 BA000000 		movl	$.LC48, %edx
 4724      00
 4725 22cb 4889CE   		movq	%rcx, %rsi
 4726 22ce 4889C7   		movq	%rax, %rdi
 4727 22d1 E8000000 		call	_ZN8UnitTest11TestResults13OnTestFailureERKNS_11TestDetailsEPKc
 4727      00
 4728              	.LEHE148:
 4729              	.L245:
 4730              		.loc 6 184 0 discriminator 2
 4731 22d6 488D85B0 		leaq	-2128(%rbp), %rax
 4731      F7FFFF
 4732 22dd 4889C7   		movq	%rax, %rdi
 4733              	.LEHB149:
 4734 22e0 E8000000 		call	_ZN17RecordingReporterD1Ev
 4734      00
 4735              	.LEHE149:
 4736              	.LBE61:
 185:TestCheckMacros.cpp **** }
 4737              		.loc 6 185 0 is_stmt 1 discriminator 2
 4738 22e5 488B45E8 		movq	-24(%rbp), %rax
 4739 22e9 64483304 		xorq	%fs:40, %rax
 4739      25280000 
 4739      00
 4740 22f2 0F844F01 		je	.L255
 4740      0000
 4741 22f8 E9450100 		jmp	.L264
 4741      00
 4742              	.L258:
 4743 22fd 4889C3   		movq	%rax, %rbx
 4744              	.LBB64:
 4745              	.LBB63:
 180:TestCheckMacros.cpp ****     }
 4746              		.loc 6 180 0
 4747 2300 E8000000 		call	__cxa_end_catch
 4747      00
 4748 2305 EB53     		jmp	.L247
 4749              	.L256:
 4750 2307 4889C7   		movq	%rax, %rdi
 4751 230a E8000000 		call	__cxa_begin_catch
 4751      00
 4752              	.LEHB150:
 4753 230f E8000000 		call	_ZN8UnitTest11CurrentTest7DetailsEv
 4753      00
 4754 2314 488B08   		movq	(%rax), %rcx
 4755 2317 488D8590 		leaq	-2160(%rbp), %rax
 4755      F7FFFF
 4756 231e BAB40000 		movl	$180, %edx
 4756      00
 4757 2323 4889CE   		movq	%rcx, %rsi
 4758 2326 4889C7   		movq	%rax, %rdi
 4759 2329 E8000000 		call	_ZN8UnitTest11TestDetailsC1ERKS0_i
 4759      00
 180:TestCheckMacros.cpp ****     }
 4760              		.loc 6 180 0 is_stmt 0 discriminator 1
 4761 232e E8000000 		call	_ZN8UnitTest11CurrentTest7ResultsEv
 4761      00
 4762 2333 488B00   		movq	(%rax), %rax
 4763 2336 488D8D90 		leaq	-2160(%rbp), %rcx
 4763      F7FFFF
 4764 233d BA000000 		movl	$.LC43, %edx
 4764      00
 4765 2342 4889CE   		movq	%rcx, %rsi
 4766 2345 4889C7   		movq	%rax, %rdi
 4767 2348 E8000000 		call	_ZN8UnitTest11TestResults13OnTestFailureERKNS_11TestDetailsEPKc
 4767      00
 4768              	.LEHE150:
 4769              	.LEHB151:
 4770 234d E8000000 		call	__cxa_end_catch
 4770      00
 4771              	.LEHE151:
 180:TestCheckMacros.cpp ****     }
 4772              		.loc 6 180 0
 4773 2352 E9A2FEFF 		jmp	.L249
 4773      FF
 4774              	.L257:
 4775 2357 4889C3   		movq	%rax, %rbx
 4776              	.L247:
 4777 235a 488D8560 		leaq	-2208(%rbp), %rax
 4777      F7FFFF
 4778 2361 4889C7   		movq	%rax, %rdi
 4779 2364 E8000000 		call	_ZN17ScopedCurrentTestD1Ev
 4779      00
 4780 2369 E9BA0000 		jmp	.L250
 4780      00
 4781              	.L261:
 4782 236e 4889C3   		movq	%rax, %rbx
 4783              	.LBE63:
 183:TestCheckMacros.cpp ****     CHECK(strstr(reporter.lastFailedMessage, "123"));
 4784              		.loc 6 183 0 is_stmt 1
 4785 2371 E8000000 		call	__cxa_end_catch
 4785      00
 4786 2376 E9AD0000 		jmp	.L250
 4786      00
 4787              	.L260:
 4788 237b 4889C7   		movq	%rax, %rdi
 4789 237e E8000000 		call	__cxa_begin_catch
 4789      00
 4790              	.LEHB152:
 4791 2383 E8000000 		call	_ZN8UnitTest11CurrentTest7DetailsEv
 4791      00
 4792 2388 488B08   		movq	(%rax), %rcx
 4793 238b 488D8590 		leaq	-2160(%rbp), %rax
 4793      F7FFFF
 4794 2392 BAB70000 		movl	$183, %edx
 4794      00
 4795 2397 4889CE   		movq	%rcx, %rsi
 4796 239a 4889C7   		movq	%rax, %rdi
 4797 239d E8000000 		call	_ZN8UnitTest11TestDetailsC1ERKS0_i
 4797      00
 183:TestCheckMacros.cpp ****     CHECK(strstr(reporter.lastFailedMessage, "123"));
 4798              		.loc 6 183 0 is_stmt 0 discriminator 1
 4799 23a2 E8000000 		call	_ZN8UnitTest11CurrentTest7ResultsEv
 4799      00
 4800 23a7 488B00   		movq	(%rax), %rax
 4801 23aa 488D8D90 		leaq	-2160(%rbp), %rcx
 4801      F7FFFF
 4802 23b1 BA000000 		movl	$.LC49, %edx
 4802      00
 4803 23b6 4889CE   		movq	%rcx, %rsi
 4804 23b9 4889C7   		movq	%rax, %rdi
 4805 23bc E8000000 		call	_ZN8UnitTest11TestResults13OnTestFailureERKNS_11TestDetailsEPKc
 4805      00
 4806              	.LEHE152:
 4807              	.LEHB153:
 4808 23c1 E8000000 		call	__cxa_end_catch
 4808      00
 4809              	.LEHE153:
 183:TestCheckMacros.cpp ****     CHECK(strstr(reporter.lastFailedMessage, "123"));
 4810              		.loc 6 183 0
 4811 23c6 E9A4FEFF 		jmp	.L244
 4811      FF
 4812              	.L263:
 4813 23cb 4889C3   		movq	%rax, %rbx
 184:TestCheckMacros.cpp **** }
 4814              		.loc 6 184 0 is_stmt 1
 4815 23ce E8000000 		call	__cxa_end_catch
 4815      00
 4816 23d3 EB53     		jmp	.L250
 4817              	.L262:
 4818 23d5 4889C7   		movq	%rax, %rdi
 4819 23d8 E8000000 		call	__cxa_begin_catch
 4819      00
 4820              	.LEHB154:
 4821 23dd E8000000 		call	_ZN8UnitTest11CurrentTest7DetailsEv
 4821      00
 4822 23e2 488B08   		movq	(%rax), %rcx
 4823 23e5 488D8590 		leaq	-2160(%rbp), %rax
 4823      F7FFFF
 4824 23ec BAB80000 		movl	$184, %edx
 4824      00
 4825 23f1 4889CE   		movq	%rcx, %rsi
 4826 23f4 4889C7   		movq	%rax, %rdi
 4827 23f7 E8000000 		call	_ZN8UnitTest11TestDetailsC1ERKS0_i
 4827      00
 184:TestCheckMacros.cpp **** }
 4828              		.loc 6 184 0 is_stmt 0 discriminator 1
 4829 23fc E8000000 		call	_ZN8UnitTest11CurrentTest7ResultsEv
 4829      00
 4830 2401 488B00   		movq	(%rax), %rax
 4831 2404 488D8D90 		leaq	-2160(%rbp), %rcx
 4831      F7FFFF
 4832 240b BA000000 		movl	$.LC50, %edx
 4832      00
 4833 2410 4889CE   		movq	%rcx, %rsi
 4834 2413 4889C7   		movq	%rax, %rdi
 4835 2416 E8000000 		call	_ZN8UnitTest11TestResults13OnTestFailureERKNS_11TestDetailsEPKc
 4835      00
 4836              	.LEHE154:
 4837              	.LEHB155:
 4838 241b E8000000 		call	__cxa_end_catch
 4838      00
 4839              	.LEHE155:
 184:TestCheckMacros.cpp **** }
 4840              		.loc 6 184 0
 4841 2420 E9B1FEFF 		jmp	.L245
 4841      FF
 4842              	.L259:
 4843 2425 4889C3   		movq	%rax, %rbx
 4844              	.L250:
 4845 2428 488D85B0 		leaq	-2128(%rbp), %rax
 4845      F7FFFF
 4846 242f 4889C7   		movq	%rax, %rdi
 4847 2432 E8000000 		call	_ZN17RecordingReporterD1Ev
 4847      00
 4848 2437 4889D8   		movq	%rbx, %rax
 4849 243a 4889C7   		movq	%rax, %rdi
 4850              	.LEHB156:
 4851 243d E8000000 		call	_Unwind_Resume
 4851      00
 4852              	.LEHE156:
 4853              	.L264:
 4854              	.LBE64:
 4855              		.loc 6 185 0 is_stmt 1
 4856 2442 E8000000 		call	__stack_chk_fail
 4856      00
 4857              	.L255:
 4858 2447 4881C4B8 		addq	$2232, %rsp
 4858      080000
 4859 244e 5B       		popq	%rbx
 4860 244f 5D       		popq	%rbp
 4861              		.cfi_def_cfa 7, 8
 4862 2450 C3       		ret
 4863              		.cfi_endproc
 4864              	.LFE1086:
 4865              		.section	.gcc_except_table
 4866              		.align 4
 4867              	.LLSDA1086:
 4868 03a4 FF       		.byte	0xff
 4869 03a5 03       		.byte	0x3
 4870 03a6 55       		.uleb128 .LLSDATT1086-.LLSDATTD1086
 4871              	.LLSDATTD1086:
 4872 03a7 01       		.byte	0x1
 4873 03a8 4A       		.uleb128 .LLSDACSE1086-.LLSDACSB1086
 4874              	.LLSDACSB1086:
 4875 03a9 45       		.uleb128 .LEHB144-.LFB1086
 4876 03aa 23       		.uleb128 .LEHE144-.LEHB144
 4877 03ab ED05     		.uleb128 .L259-.LFB1086
 4878 03ad 00       		.uleb128 0
 4879 03ae 68       		.uleb128 .LEHB145-.LFB1086
 4880 03af 59       		.uleb128 .LEHE145-.LEHB145
 4881 03b0 CF03     		.uleb128 .L256-.LFB1086
 4882 03b2 01       		.uleb128 0x1
 4883 03b3 CB01     		.uleb128 .LEHB146-.LFB1086
 4884 03b5 05       		.uleb128 .LEHE146-.LEHB146
 4885 03b6 ED05     		.uleb128 .L259-.LFB1086
 4886 03b8 00       		.uleb128 0
 4887 03b9 F901     		.uleb128 .LEHB147-.LFB1086
 4888 03bb 3E       		.uleb128 .LEHE147-.LEHB147
 4889 03bc C304     		.uleb128 .L260-.LFB1086
 4890 03be 01       		.uleb128 0x1
 4891 03bf E002     		.uleb128 .LEHB148-.LFB1086
 4892 03c1 3E       		.uleb128 .LEHE148-.LEHB148
 4893 03c2 9D05     		.uleb128 .L262-.LFB1086
 4894 03c4 01       		.uleb128 0x1
 4895 03c5 A803     		.uleb128 .LEHB149-.LFB1086
 4896 03c7 05       		.uleb128 .LEHE149-.LEHB149
 4897 03c8 00       		.uleb128 0
 4898 03c9 00       		.uleb128 0
 4899 03ca D703     		.uleb128 .LEHB150-.LFB1086
 4900 03cc 3E       		.uleb128 .LEHE150-.LEHB150
 4901 03cd C503     		.uleb128 .L258-.LFB1086
 4902 03cf 00       		.uleb128 0
 4903 03d0 9504     		.uleb128 .LEHB151-.LFB1086
 4904 03d2 05       		.uleb128 .LEHE151-.LEHB151
 4905 03d3 9F04     		.uleb128 .L257-.LFB1086
 4906 03d5 00       		.uleb128 0
 4907 03d6 CB04     		.uleb128 .LEHB152-.LFB1086
 4908 03d8 3E       		.uleb128 .LEHE152-.LEHB152
 4909 03d9 B604     		.uleb128 .L261-.LFB1086
 4910 03db 00       		.uleb128 0
 4911 03dc 8905     		.uleb128 .LEHB153-.LFB1086
 4912 03de 05       		.uleb128 .LEHE153-.LEHB153
 4913 03df ED05     		.uleb128 .L259-.LFB1086
 4914 03e1 00       		.uleb128 0
 4915 03e2 A505     		.uleb128 .LEHB154-.LFB1086
 4916 03e4 3E       		.uleb128 .LEHE154-.LEHB154
 4917 03e5 9305     		.uleb128 .L263-.LFB1086
 4918 03e7 00       		.uleb128 0
 4919 03e8 E305     		.uleb128 .LEHB155-.LFB1086
 4920 03ea 05       		.uleb128 .LEHE155-.LEHB155
 4921 03eb ED05     		.uleb128 .L259-.LFB1086
 4922 03ed 00       		.uleb128 0
 4923 03ee 8506     		.uleb128 .LEHB156-.LFB1086
 4924 03f0 05       		.uleb128 .LEHE156-.LEHB156
 4925 03f1 00       		.uleb128 0
 4926 03f2 00       		.uleb128 0
 4927              	.LLSDACSE1086:
 4928 03f3 01       		.byte	0x1
 4929 03f4 00       		.byte	0
 4930 03f5 000000   		.align 4
 4931 03f8 00000000 		.long	0
 4932              	
 4933              	.LLSDATT1086:
 4934              		.text
