   1              		.file	"TestTestResults.cpp"
   2              		.text
   3              	.Ltext0:
   4              		.section	.rodata
   5              	.LC0:
   6 0000 44656661 		.string	"DefaultSuite"
   6      756C7453 
   6      75697465 
   6      00
   7              		.section	.text._ZN13UnitTestSuite12GetSuiteNameEv,"axG",@progbits,_ZN13UnitTestSuite12GetSuiteName
   8              		.weak	_ZN13UnitTestSuite12GetSuiteNameEv
  10              	_ZN13UnitTestSuite12GetSuiteNameEv:
  11              	.LFB0:
  12              		.file 1 "../TestSuite.h"
   1:../TestSuite.h **** #ifndef UNITTEST_TESTSUITE_H
   2:../TestSuite.h **** #define UNITTEST_TESTSUITE_H
   3:../TestSuite.h **** 
   4:../TestSuite.h **** namespace UnitTestSuite {
   5:../TestSuite.h **** 
   6:../TestSuite.h ****     inline char const* GetSuiteName ()
   7:../TestSuite.h ****     {
  13              		.loc 1 7 0
  14              		.cfi_startproc
  15 0000 55       		pushq	%rbp
  16              		.cfi_def_cfa_offset 16
  17              		.cfi_offset 6, -16
  18 0001 4889E5   		movq	%rsp, %rbp
  19              		.cfi_def_cfa_register 6
   8:../TestSuite.h ****         return "DefaultSuite";
  20              		.loc 1 8 0
  21 0004 B8000000 		movl	$.LC0, %eax
  21      00
   9:../TestSuite.h ****     }
  22              		.loc 1 9 0
  23 0009 5D       		popq	%rbp
  24              		.cfi_def_cfa 7, 8
  25 000a C3       		ret
  26              		.cfi_endproc
  27              	.LFE0:
  29              		.section	.text._ZN8UnitTest15MemoryOutStreamC1Ev,"axG",@progbits,_ZN8UnitTest15MemoryOutStreamC1Ev
  30              		.align 2
  31              		.weak	_ZN8UnitTest15MemoryOutStreamC1Ev
  33              	_ZN8UnitTest15MemoryOutStreamC1Ev:
  34              	.LFB1007:
  35              		.file 2 "../MemoryOutStream.h"
   1:../MemoryOutStream.h **** #ifndef UNITTEST_MEMORYOUTSTREAM_H
   2:../MemoryOutStream.h **** #define UNITTEST_MEMORYOUTSTREAM_H
   3:../MemoryOutStream.h **** 
   4:../MemoryOutStream.h **** #include "Config.h"
   5:../MemoryOutStream.h **** 
   6:../MemoryOutStream.h **** #ifndef UNITTEST_USE_CUSTOM_STREAMS
   7:../MemoryOutStream.h **** 
   8:../MemoryOutStream.h **** #include <sstream>
   9:../MemoryOutStream.h **** 
  10:../MemoryOutStream.h **** namespace UnitTest
  11:../MemoryOutStream.h **** {
  12:../MemoryOutStream.h **** 
  13:../MemoryOutStream.h **** class MemoryOutStream : public std::ostringstream
  14:../MemoryOutStream.h **** {
  15:../MemoryOutStream.h **** public:
  16:../MemoryOutStream.h ****     MemoryOutStream() {}
  36              		.loc 2 16 0
  37              		.cfi_startproc
  38              		.cfi_personality 0x3,__gxx_personality_v0
  39              		.cfi_lsda 0x3,.LLSDA1007
  40 0000 55       		pushq	%rbp
  41              		.cfi_def_cfa_offset 16
  42              		.cfi_offset 6, -16
  43 0001 4889E5   		movq	%rsp, %rbp
  44              		.cfi_def_cfa_register 6
  45 0004 53       		pushq	%rbx
  46 0005 4883EC18 		subq	$24, %rsp
  47              		.cfi_offset 3, -24
  48 0009 48897DE8 		movq	%rdi, -24(%rbp)
  49              	.LBB2:
  50              		.loc 2 16 0
  51 000d 488B45E8 		movq	-24(%rbp), %rax
  52 0011 4883C060 		addq	$96, %rax
  53 0015 4889C7   		movq	%rax, %rdi
  54              	.LEHB0:
  55 0018 E8000000 		call	_ZNSt9basic_iosIcSt11char_traitsIcEEC2Ev
  55      00
  56              	.LEHE0:
  57 001d B9000000 		movl	$_ZTTN8UnitTest15MemoryOutStreamE+8, %ecx
  57      00
  58 0022 488B45E8 		movq	-24(%rbp), %rax
  59 0026 BA100000 		movl	$16, %edx
  59      00
  60 002b 4889CE   		movq	%rcx, %rsi
  61 002e 4889C7   		movq	%rax, %rdi
  62              	.LEHB1:
  63 0031 E8000000 		call	_ZNSt19basic_ostringstreamIcSt11char_traitsIcESaIcEEC2ESt13_Ios_Openmode
  63      00
  64              	.LEHE1:
  65              		.loc 2 16 0 is_stmt 0 discriminator 6
  66 0036 BA000000 		movl	$_ZTVN8UnitTest15MemoryOutStreamE+24, %edx
  66      00
  67 003b 488B45E8 		movq	-24(%rbp), %rax
  68 003f 488910   		movq	%rdx, (%rax)
  69 0042 BA600000 		movl	$96, %edx
  69      00
  70 0047 488B45E8 		movq	-24(%rbp), %rax
  71 004b 4801C2   		addq	%rax, %rdx
  72 004e B8000000 		movl	$_ZTVN8UnitTest15MemoryOutStreamE+64, %eax
  72      00
  73 0053 488902   		movq	%rax, (%rdx)
  74 0056 488B45E8 		movq	-24(%rbp), %rax
  75 005a 4883C058 		addq	$88, %rax
  76 005e 4889C7   		movq	%rax, %rdi
  77              	.LEHB2:
  78 0061 E8000000 		call	_ZNSsC1Ev
  78      00
  79              	.LEHE2:
  80              	.LBE2:
  81              		.loc 2 16 0
  82 0066 EB37     		jmp	.L8
  83              	.L6:
  84 0068 4889C3   		movq	%rax, %rbx
  85              	.LBB3:
  86 006b BA000000 		movl	$_ZTTN8UnitTest15MemoryOutStreamE+8, %edx
  86      00
  87 0070 488B45E8 		movq	-24(%rbp), %rax
  88 0074 4889D6   		movq	%rdx, %rsi
  89 0077 4889C7   		movq	%rax, %rdi
  90 007a E8000000 		call	_ZNSt19basic_ostringstreamIcSt11char_traitsIcESaIcEED2Ev
  90      00
  91 007f EB03     		jmp	.L5
  92              	.L7:
  93 0081 4889C3   		movq	%rax, %rbx
  94              	.L5:
  95              		.loc 2 16 0 discriminator 19
  96 0084 488B45E8 		movq	-24(%rbp), %rax
  97 0088 4883C060 		addq	$96, %rax
  98 008c 4889C7   		movq	%rax, %rdi
  99 008f E8000000 		call	_ZNSt9basic_iosIcSt11char_traitsIcEED2Ev
  99      00
 100 0094 4889D8   		movq	%rbx, %rax
 101 0097 4889C7   		movq	%rax, %rdi
 102              	.LEHB3:
 103 009a E8000000 		call	_Unwind_Resume
 103      00
 104              	.LEHE3:
 105              	.L8:
 106              	.LBE3:
 107              		.loc 2 16 0
 108 009f 4883C418 		addq	$24, %rsp
 109 00a3 5B       		popq	%rbx
 110 00a4 5D       		popq	%rbp
 111              		.cfi_def_cfa 7, 8
 112 00a5 C3       		ret
 113              		.cfi_endproc
 114              	.LFE1007:
 115              		.globl	__gxx_personality_v0
 116              		.section	.gcc_except_table._ZN8UnitTest15MemoryOutStreamC1Ev,"aG",@progbits,_ZN8UnitTest15MemoryOu
 117              	.LLSDA1007:
 118 0000 FF       		.byte	0xff
 119 0001 FF       		.byte	0xff
 120 0002 01       		.byte	0x1
 121 0003 12       		.uleb128 .LLSDACSE1007-.LLSDACSB1007
 122              	.LLSDACSB1007:
 123 0004 18       		.uleb128 .LEHB0-.LFB1007
 124 0005 05       		.uleb128 .LEHE0-.LEHB0
 125 0006 00       		.uleb128 0
 126 0007 00       		.uleb128 0
 127 0008 31       		.uleb128 .LEHB1-.LFB1007
 128 0009 05       		.uleb128 .LEHE1-.LEHB1
 129 000a 8101     		.uleb128 .L7-.LFB1007
 130 000c 00       		.uleb128 0
 131 000d 61       		.uleb128 .LEHB2-.LFB1007
 132 000e 05       		.uleb128 .LEHE2-.LEHB2
 133 000f 68       		.uleb128 .L6-.LFB1007
 134 0010 00       		.uleb128 0
 135 0011 9A01     		.uleb128 .LEHB3-.LFB1007
 136 0013 05       		.uleb128 .LEHE3-.LEHB3
 137 0014 00       		.uleb128 0
 138 0015 00       		.uleb128 0
 139              	.LLSDACSE1007:
 140              		.section	.text._ZN8UnitTest15MemoryOutStreamC1Ev,"axG",@progbits,_ZN8UnitTest15MemoryOutStreamC1Ev
 142              		.section	.text._ZN8UnitTest12TestReporterC2Ev,"axG",@progbits,_ZN8UnitTest12TestReporterC5Ev,comda
 143              		.align 2
 144              		.weak	_ZN8UnitTest12TestReporterC2Ev
 146              	_ZN8UnitTest12TestReporterC2Ev:
 147              	.LFB1021:
 148              		.file 3 "../TestReporter.h"
   1:../TestReporter.h **** #ifndef UNITTEST_TESTREPORTER_H
   2:../TestReporter.h **** #define UNITTEST_TESTREPORTER_H
   3:../TestReporter.h **** 
   4:../TestReporter.h **** namespace UnitTest {
   5:../TestReporter.h **** 
   6:../TestReporter.h **** class TestDetails;
   7:../TestReporter.h **** 
   8:../TestReporter.h **** class TestReporter
 149              		.loc 3 8 0 is_stmt 1
 150              		.cfi_startproc
 151 0000 55       		pushq	%rbp
 152              		.cfi_def_cfa_offset 16
 153              		.cfi_offset 6, -16
 154 0001 4889E5   		movq	%rsp, %rbp
 155              		.cfi_def_cfa_register 6
 156 0004 48897DF8 		movq	%rdi, -8(%rbp)
 157              	.LBB4:
 158              		.loc 3 8 0
 159 0008 488B45F8 		movq	-8(%rbp), %rax
 160 000c 48C70000 		movq	$_ZTVN8UnitTest12TestReporterE+16, (%rax)
 160      000000
 161              	.LBE4:
 162 0013 5D       		popq	%rbp
 163              		.cfi_def_cfa 7, 8
 164 0014 C3       		ret
 165              		.cfi_endproc
 166              	.LFE1021:
 168              		.weak	_ZN8UnitTest12TestReporterC1Ev
 169              		.set	_ZN8UnitTest12TestReporterC1Ev,_ZN8UnitTest12TestReporterC2Ev
 170              		.section	.text._ZN17RecordingReporterC2Ev,"axG",@progbits,_ZN17RecordingReporterC5Ev,comdat
 171              		.align 2
 172              		.weak	_ZN17RecordingReporterC2Ev
 174              	_ZN17RecordingReporterC2Ev:
 175              	.LFB1023:
 176              		.file 4 "RecordingReporter.h"
   1:RecordingReporter.h **** #ifndef UNITTEST_RECORDINGREPORTER_H
   2:RecordingReporter.h **** #define UNITTEST_RECORDINGREPORTER_H
   3:RecordingReporter.h **** 
   4:RecordingReporter.h **** #include "../TestReporter.h"
   5:RecordingReporter.h **** #include <cstring>
   6:RecordingReporter.h **** 
   7:RecordingReporter.h **** #include "../TestDetails.h"
   8:RecordingReporter.h **** 
   9:RecordingReporter.h **** struct RecordingReporter : public UnitTest::TestReporter
  10:RecordingReporter.h **** {
  11:RecordingReporter.h **** private:
  12:RecordingReporter.h ****     enum { kMaxStringLength = 256 };
  13:RecordingReporter.h **** 
  14:RecordingReporter.h **** public:
  15:RecordingReporter.h ****     RecordingReporter()
 177              		.loc 4 15 0
 178              		.cfi_startproc
 179 0000 55       		pushq	%rbp
 180              		.cfi_def_cfa_offset 16
 181              		.cfi_offset 6, -16
 182 0001 4889E5   		movq	%rsp, %rbp
 183              		.cfi_def_cfa_register 6
 184 0004 4883EC10 		subq	$16, %rsp
 185 0008 48897DF8 		movq	%rdi, -8(%rbp)
 186              	.LBB5:
  16:RecordingReporter.h ****         : testRunCount(0)
  17:RecordingReporter.h ****         , testFailedCount(0)
  18:RecordingReporter.h ****         , lastFailedLine(0)
  19:RecordingReporter.h ****         , testFinishedCount(0)
  20:RecordingReporter.h ****         , lastFinishedTestTime(0)
  21:RecordingReporter.h ****         , summaryTotalTestCount(0)
  22:RecordingReporter.h ****         , summaryFailedTestCount(0)
  23:RecordingReporter.h ****         , summaryFailureCount(0)
  24:RecordingReporter.h ****         , summarySecondsElapsed(0)
 187              		.loc 4 24 0
 188 000c 488B45F8 		movq	-8(%rbp), %rax
 189 0010 4889C7   		movq	%rax, %rdi
 190 0013 E8000000 		call	_ZN8UnitTest12TestReporterC2Ev
 190      00
 191 0018 488B45F8 		movq	-8(%rbp), %rax
 192 001c 48C70000 		movq	$_ZTV17RecordingReporter+16, (%rax)
 192      000000
 193 0023 488B45F8 		movq	-8(%rbp), %rax
 194 0027 C7400800 		movl	$0, 8(%rax)
 194      000000
 195 002e 488B45F8 		movq	-8(%rbp), %rax
 196 0032 C7800C02 		movl	$0, 524(%rax)
 196      00000000 
 196      0000
 197 003c 488B45F8 		movq	-8(%rbp), %rax
 198 0040 C7801003 		movl	$0, 784(%rax)
 198      00000000 
 198      0000
 199 004a 488B45F8 		movq	-8(%rbp), %rax
 200 004e C7801406 		movl	$0, 1556(%rax)
 200      00000000 
 200      0000
 201 0058 488B55F8 		movq	-8(%rbp), %rdx
 202 005c 8B050000 		movl	.LC1(%rip), %eax
 202      0000
 203 0062 89821808 		movl	%eax, 2072(%rdx)
 203      0000
 204 0068 488B45F8 		movq	-8(%rbp), %rax
 205 006c C7801C08 		movl	$0, 2076(%rax)
 205      00000000 
 205      0000
 206 0076 488B45F8 		movq	-8(%rbp), %rax
 207 007a C7802008 		movl	$0, 2080(%rax)
 207      00000000 
 207      0000
 208 0084 488B45F8 		movq	-8(%rbp), %rax
 209 0088 C7802408 		movl	$0, 2084(%rax)
 209      00000000 
 209      0000
 210 0092 488B55F8 		movq	-8(%rbp), %rdx
 211 0096 8B050000 		movl	.LC1(%rip), %eax
 211      0000
 212 009c 89822808 		movl	%eax, 2088(%rdx)
 212      0000
  25:RecordingReporter.h ****     {
  26:RecordingReporter.h ****         lastStartedSuite[0] = '\0';
 213              		.loc 4 26 0
 214 00a2 488B45F8 		movq	-8(%rbp), %rax
 215 00a6 C6400C00 		movb	$0, 12(%rax)
  27:RecordingReporter.h ****         lastStartedTest[0] = '\0';
 216              		.loc 4 27 0
 217 00aa 488B45F8 		movq	-8(%rbp), %rax
 218 00ae C6800C01 		movb	$0, 268(%rax)
 218      000000
  28:RecordingReporter.h ****         lastFailedFile[0] = '\0';
 219              		.loc 4 28 0
 220 00b5 488B45F8 		movq	-8(%rbp), %rax
 221 00b9 C6801002 		movb	$0, 528(%rax)
 221      000000
  29:RecordingReporter.h ****         lastFailedSuite[0] = '\0';
 222              		.loc 4 29 0
 223 00c0 488B45F8 		movq	-8(%rbp), %rax
 224 00c4 C6801403 		movb	$0, 788(%rax)
 224      000000
  30:RecordingReporter.h ****         lastFailedTest[0] = '\0';
 225              		.loc 4 30 0
 226 00cb 488B45F8 		movq	-8(%rbp), %rax
 227 00cf C6801404 		movb	$0, 1044(%rax)
 227      000000
  31:RecordingReporter.h ****         lastFailedMessage[0] = '\0';
 228              		.loc 4 31 0
 229 00d6 488B45F8 		movq	-8(%rbp), %rax
 230 00da C6801405 		movb	$0, 1300(%rax)
 230      000000
  32:RecordingReporter.h ****         lastFinishedSuite[0] = '\0';
 231              		.loc 4 32 0
 232 00e1 488B45F8 		movq	-8(%rbp), %rax
 233 00e5 C6801806 		movb	$0, 1560(%rax)
 233      000000
  33:RecordingReporter.h ****         lastFinishedTest[0] = '\0';
 234              		.loc 4 33 0
 235 00ec 488B45F8 		movq	-8(%rbp), %rax
 236 00f0 C6801807 		movb	$0, 1816(%rax)
 236      000000
 237              	.LBE5:
  34:RecordingReporter.h ****     }
 238              		.loc 4 34 0
 239 00f7 C9       		leave
 240              		.cfi_def_cfa 7, 8
 241 00f8 C3       		ret
 242              		.cfi_endproc
 243              	.LFE1023:
 245              		.weak	_ZN17RecordingReporterC1Ev
 246              		.set	_ZN17RecordingReporterC1Ev,_ZN17RecordingReporterC2Ev
 247              		.section	.text._ZN17RecordingReporter15ReportTestStartERKN8UnitTest11TestDetailsE,"axG",@progbits,
 248              		.align 2
 249              		.weak	_ZN17RecordingReporter15ReportTestStartERKN8UnitTest11TestDetailsE
 251              	_ZN17RecordingReporter15ReportTestStartERKN8UnitTest11TestDetailsE:
 252              	.LFB1025:
  35:RecordingReporter.h **** 
  36:RecordingReporter.h ****     virtual void ReportTestStart(UnitTest::TestDetails const& test)
 253              		.loc 4 36 0
 254              		.cfi_startproc
 255 0000 55       		pushq	%rbp
 256              		.cfi_def_cfa_offset 16
 257              		.cfi_offset 6, -16
 258 0001 4889E5   		movq	%rsp, %rbp
 259              		.cfi_def_cfa_register 6
 260 0004 4883EC10 		subq	$16, %rsp
 261 0008 48897DF8 		movq	%rdi, -8(%rbp)
 262 000c 488975F0 		movq	%rsi, -16(%rbp)
 263              	.LBB6:
  37:RecordingReporter.h ****     {
  38:RecordingReporter.h **** 		using namespace std;
  39:RecordingReporter.h **** 
  40:RecordingReporter.h ****         ++testRunCount;
 264              		.loc 4 40 0
 265 0010 488B45F8 		movq	-8(%rbp), %rax
 266 0014 8B4008   		movl	8(%rax), %eax
 267 0017 8D5001   		leal	1(%rax), %edx
 268 001a 488B45F8 		movq	-8(%rbp), %rax
 269 001e 895008   		movl	%edx, 8(%rax)
  41:RecordingReporter.h ****         strcpy(lastStartedSuite, test.suiteName);
 270              		.loc 4 41 0
 271 0021 488B45F0 		movq	-16(%rbp), %rax
 272 0025 488B00   		movq	(%rax), %rax
 273 0028 488B55F8 		movq	-8(%rbp), %rdx
 274 002c 4883C20C 		addq	$12, %rdx
 275 0030 4889C6   		movq	%rax, %rsi
 276 0033 4889D7   		movq	%rdx, %rdi
 277 0036 E8000000 		call	strcpy
 277      00
  42:RecordingReporter.h ****         strcpy(lastStartedTest, test.testName);
 278              		.loc 4 42 0
 279 003b 488B45F0 		movq	-16(%rbp), %rax
 280 003f 488B4008 		movq	8(%rax), %rax
 281 0043 488B55F8 		movq	-8(%rbp), %rdx
 282 0047 4881C20C 		addq	$268, %rdx
 282      010000
 283 004e 4889C6   		movq	%rax, %rsi
 284 0051 4889D7   		movq	%rdx, %rdi
 285 0054 E8000000 		call	strcpy
 285      00
 286              	.LBE6:
  43:RecordingReporter.h ****     }
 287              		.loc 4 43 0
 288 0059 C9       		leave
 289              		.cfi_def_cfa 7, 8
 290 005a C3       		ret
 291              		.cfi_endproc
 292              	.LFE1025:
 294              		.section	.text._ZN17RecordingReporter13ReportFailureERKN8UnitTest11TestDetailsEPKc,"axG",@progbits
 295              		.align 2
 296              		.weak	_ZN17RecordingReporter13ReportFailureERKN8UnitTest11TestDetailsEPKc
 298              	_ZN17RecordingReporter13ReportFailureERKN8UnitTest11TestDetailsEPKc:
 299              	.LFB1026:
  44:RecordingReporter.h **** 
  45:RecordingReporter.h ****     virtual void ReportFailure(UnitTest::TestDetails const& test, char const* failure)
 300              		.loc 4 45 0
 301              		.cfi_startproc
 302 0000 55       		pushq	%rbp
 303              		.cfi_def_cfa_offset 16
 304              		.cfi_offset 6, -16
 305 0001 4889E5   		movq	%rsp, %rbp
 306              		.cfi_def_cfa_register 6
 307 0004 4883EC20 		subq	$32, %rsp
 308 0008 48897DF8 		movq	%rdi, -8(%rbp)
 309 000c 488975F0 		movq	%rsi, -16(%rbp)
 310 0010 488955E8 		movq	%rdx, -24(%rbp)
 311              	.LBB7:
  46:RecordingReporter.h ****     {
  47:RecordingReporter.h **** 		using namespace std;
  48:RecordingReporter.h **** 
  49:RecordingReporter.h **** 		++testFailedCount;
 312              		.loc 4 49 0
 313 0014 488B45F8 		movq	-8(%rbp), %rax
 314 0018 8B800C02 		movl	524(%rax), %eax
 314      0000
 315 001e 8D5001   		leal	1(%rax), %edx
 316 0021 488B45F8 		movq	-8(%rbp), %rax
 317 0025 89900C02 		movl	%edx, 524(%rax)
 317      0000
  50:RecordingReporter.h ****         strcpy(lastFailedFile, test.filename);
 318              		.loc 4 50 0
 319 002b 488B45F0 		movq	-16(%rbp), %rax
 320 002f 488B4010 		movq	16(%rax), %rax
 321 0033 488B55F8 		movq	-8(%rbp), %rdx
 322 0037 4881C210 		addq	$528, %rdx
 322      020000
 323 003e 4889C6   		movq	%rax, %rsi
 324 0041 4889D7   		movq	%rdx, %rdi
 325 0044 E8000000 		call	strcpy
 325      00
  51:RecordingReporter.h ****         lastFailedLine = test.lineNumber;
 326              		.loc 4 51 0
 327 0049 488B45F0 		movq	-16(%rbp), %rax
 328 004d 8B5018   		movl	24(%rax), %edx
 329 0050 488B45F8 		movq	-8(%rbp), %rax
 330 0054 89901003 		movl	%edx, 784(%rax)
 330      0000
  52:RecordingReporter.h ****         strcpy(lastFailedSuite, test.suiteName);
 331              		.loc 4 52 0
 332 005a 488B45F0 		movq	-16(%rbp), %rax
 333 005e 488B00   		movq	(%rax), %rax
 334 0061 488B55F8 		movq	-8(%rbp), %rdx
 335 0065 4881C214 		addq	$788, %rdx
 335      030000
 336 006c 4889C6   		movq	%rax, %rsi
 337 006f 4889D7   		movq	%rdx, %rdi
 338 0072 E8000000 		call	strcpy
 338      00
  53:RecordingReporter.h ****         strcpy(lastFailedTest, test.testName);
 339              		.loc 4 53 0
 340 0077 488B45F0 		movq	-16(%rbp), %rax
 341 007b 488B4008 		movq	8(%rax), %rax
 342 007f 488B55F8 		movq	-8(%rbp), %rdx
 343 0083 4881C214 		addq	$1044, %rdx
 343      040000
 344 008a 4889C6   		movq	%rax, %rsi
 345 008d 4889D7   		movq	%rdx, %rdi
 346 0090 E8000000 		call	strcpy
 346      00
  54:RecordingReporter.h ****         strcpy(lastFailedMessage, failure);
 347              		.loc 4 54 0
 348 0095 488B45F8 		movq	-8(%rbp), %rax
 349 0099 488D9014 		leaq	1300(%rax), %rdx
 349      050000
 350 00a0 488B45E8 		movq	-24(%rbp), %rax
 351 00a4 4889C6   		movq	%rax, %rsi
 352 00a7 4889D7   		movq	%rdx, %rdi
 353 00aa E8000000 		call	strcpy
 353      00
 354              	.LBE7:
  55:RecordingReporter.h ****     }
 355              		.loc 4 55 0
 356 00af C9       		leave
 357              		.cfi_def_cfa 7, 8
 358 00b0 C3       		ret
 359              		.cfi_endproc
 360              	.LFE1026:
 362              		.section	.text._ZN17RecordingReporter16ReportTestFinishERKN8UnitTest11TestDetailsEf,"axG",@progbit
 363              		.align 2
 364              		.weak	_ZN17RecordingReporter16ReportTestFinishERKN8UnitTest11TestDetailsEf
 366              	_ZN17RecordingReporter16ReportTestFinishERKN8UnitTest11TestDetailsEf:
 367              	.LFB1027:
  56:RecordingReporter.h **** 
  57:RecordingReporter.h ****     virtual void ReportTestFinish(UnitTest::TestDetails const& test, float testDuration)
 368              		.loc 4 57 0
 369              		.cfi_startproc
 370 0000 55       		pushq	%rbp
 371              		.cfi_def_cfa_offset 16
 372              		.cfi_offset 6, -16
 373 0001 4889E5   		movq	%rsp, %rbp
 374              		.cfi_def_cfa_register 6
 375 0004 4883EC20 		subq	$32, %rsp
 376 0008 48897DF8 		movq	%rdi, -8(%rbp)
 377 000c 488975F0 		movq	%rsi, -16(%rbp)
 378 0010 F30F1145 		movss	%xmm0, -20(%rbp)
 378      EC
 379              	.LBB8:
  58:RecordingReporter.h ****     {
  59:RecordingReporter.h **** 		using namespace std;
  60:RecordingReporter.h **** 
  61:RecordingReporter.h **** 		++testFinishedCount;
 380              		.loc 4 61 0
 381 0015 488B45F8 		movq	-8(%rbp), %rax
 382 0019 8B801406 		movl	1556(%rax), %eax
 382      0000
 383 001f 8D5001   		leal	1(%rax), %edx
 384 0022 488B45F8 		movq	-8(%rbp), %rax
 385 0026 89901406 		movl	%edx, 1556(%rax)
 385      0000
  62:RecordingReporter.h ****         strcpy(lastFinishedSuite, test.suiteName);
 386              		.loc 4 62 0
 387 002c 488B45F0 		movq	-16(%rbp), %rax
 388 0030 488B00   		movq	(%rax), %rax
 389 0033 488B55F8 		movq	-8(%rbp), %rdx
 390 0037 4881C218 		addq	$1560, %rdx
 390      060000
 391 003e 4889C6   		movq	%rax, %rsi
 392 0041 4889D7   		movq	%rdx, %rdi
 393 0044 E8000000 		call	strcpy
 393      00
  63:RecordingReporter.h ****         strcpy(lastFinishedTest, test.testName);
 394              		.loc 4 63 0
 395 0049 488B45F0 		movq	-16(%rbp), %rax
 396 004d 488B4008 		movq	8(%rax), %rax
 397 0051 488B55F8 		movq	-8(%rbp), %rdx
 398 0055 4881C218 		addq	$1816, %rdx
 398      070000
 399 005c 4889C6   		movq	%rax, %rsi
 400 005f 4889D7   		movq	%rdx, %rdi
 401 0062 E8000000 		call	strcpy
 401      00
  64:RecordingReporter.h ****         lastFinishedTestTime = testDuration;
 402              		.loc 4 64 0
 403 0067 488B55F8 		movq	-8(%rbp), %rdx
 404 006b 8B45EC   		movl	-20(%rbp), %eax
 405 006e 89821808 		movl	%eax, 2072(%rdx)
 405      0000
 406              	.LBE8:
  65:RecordingReporter.h ****     }
 407              		.loc 4 65 0
 408 0074 C9       		leave
 409              		.cfi_def_cfa 7, 8
 410 0075 C3       		ret
 411              		.cfi_endproc
 412              	.LFE1027:
 414              		.section	.text._ZN17RecordingReporter13ReportSummaryEiiif,"axG",@progbits,_ZN17RecordingReporter13
 415              		.align 2
 416              		.weak	_ZN17RecordingReporter13ReportSummaryEiiif
 418              	_ZN17RecordingReporter13ReportSummaryEiiif:
 419              	.LFB1028:
  66:RecordingReporter.h **** 
  67:RecordingReporter.h ****     virtual void ReportSummary(int totalTestCount, int failedTestCount, int failureCount, float sec
 420              		.loc 4 67 0
 421              		.cfi_startproc
 422 0000 55       		pushq	%rbp
 423              		.cfi_def_cfa_offset 16
 424              		.cfi_offset 6, -16
 425 0001 4889E5   		movq	%rsp, %rbp
 426              		.cfi_def_cfa_register 6
 427 0004 48897DF8 		movq	%rdi, -8(%rbp)
 428 0008 8975F4   		movl	%esi, -12(%rbp)
 429 000b 8955F0   		movl	%edx, -16(%rbp)
 430 000e 894DEC   		movl	%ecx, -20(%rbp)
 431 0011 F30F1145 		movss	%xmm0, -24(%rbp)
 431      E8
  68:RecordingReporter.h ****     {
  69:RecordingReporter.h ****         summaryTotalTestCount = totalTestCount;
 432              		.loc 4 69 0
 433 0016 488B45F8 		movq	-8(%rbp), %rax
 434 001a 8B55F4   		movl	-12(%rbp), %edx
 435 001d 89901C08 		movl	%edx, 2076(%rax)
 435      0000
  70:RecordingReporter.h ****         summaryFailedTestCount = failedTestCount;
 436              		.loc 4 70 0
 437 0023 488B45F8 		movq	-8(%rbp), %rax
 438 0027 8B55F0   		movl	-16(%rbp), %edx
 439 002a 89902008 		movl	%edx, 2080(%rax)
 439      0000
  71:RecordingReporter.h ****         summaryFailureCount = failureCount;
 440              		.loc 4 71 0
 441 0030 488B45F8 		movq	-8(%rbp), %rax
 442 0034 8B55EC   		movl	-20(%rbp), %edx
 443 0037 89902408 		movl	%edx, 2084(%rax)
 443      0000
  72:RecordingReporter.h ****         summarySecondsElapsed = secondsElapsed;
 444              		.loc 4 72 0
 445 003d 488B55F8 		movq	-8(%rbp), %rdx
 446 0041 8B45E8   		movl	-24(%rbp), %eax
 447 0044 89822808 		movl	%eax, 2088(%rdx)
 447      0000
  73:RecordingReporter.h ****     }
 448              		.loc 4 73 0
 449 004a 5D       		popq	%rbp
 450              		.cfi_def_cfa 7, 8
 451 004b C3       		ret
 452              		.cfi_endproc
 453              	.LFE1028:
 455              		.local	_ZN12_GLOBAL__N_1L7detailsE
 456              		.comm	_ZN12_GLOBAL__N_1L7detailsE,32,32
 457              		.section	.rodata
 458              	.LC2:
 459 000d 54657374 		.string	"TestTestResults.cpp"
 459      54657374 
 459      52657375 
 459      6C74732E 
 459      63707000 
 460              	.LC3:
 461 0021 53746172 		.string	"StartsWithNoTestsRun"
 461      74735769 
 461      74684E6F 
 461      54657374 
 461      7352756E 
 462              		.text
 463              		.align 2
 465              	_ZN12_GLOBAL__N_124TestStartsWithNoTestsRunC2Ev:
 466              	.LFB1030:
 467              		.file 5 "TestTestResults.cpp"
   1:TestTestResults.cpp **** #include "../UnitTest++.h"
   2:TestTestResults.cpp **** #include "../TestResults.h"
   3:TestTestResults.cpp **** #include "RecordingReporter.h"
   4:TestTestResults.cpp **** 
   5:TestTestResults.cpp **** using namespace UnitTest;
   6:TestTestResults.cpp **** 
   7:TestTestResults.cpp **** namespace {
   8:TestTestResults.cpp **** 
   9:TestTestResults.cpp **** TestDetails const details("testname", "suitename", "filename", 123);
  10:TestTestResults.cpp **** 
  11:TestTestResults.cpp **** 
  12:TestTestResults.cpp **** TEST(StartsWithNoTestsRun)
 468              		.loc 5 12 0
 469              		.cfi_startproc
 470 0000 55       		pushq	%rbp
 471              		.cfi_def_cfa_offset 16
 472              		.cfi_offset 6, -16
 473 0001 4889E5   		movq	%rsp, %rbp
 474              		.cfi_def_cfa_register 6
 475 0004 4883EC10 		subq	$16, %rsp
 476 0008 48897DF8 		movq	%rdi, -8(%rbp)
 477              	.LBB9:
 478              		.loc 5 12 0
 479 000c E8000000 		call	_ZN13UnitTestSuite12GetSuiteNameEv
 479      00
 480 0011 4889C2   		movq	%rax, %rdx
 481 0014 488B45F8 		movq	-8(%rbp), %rax
 482 0018 41B80C00 		movl	$12, %r8d
 482      0000
 483 001e B9000000 		movl	$.LC2, %ecx
 483      00
 484 0023 BE000000 		movl	$.LC3, %esi
 484      00
 485 0028 4889C7   		movq	%rax, %rdi
 486 002b E8000000 		call	_ZN8UnitTest4TestC2EPKcS2_S2_i
 486      00
 487 0030 488B45F8 		movq	-8(%rbp), %rax
 488 0034 48C70000 		movq	$_ZTVN12_GLOBAL__N_124TestStartsWithNoTestsRunE+16, (%rax)
 488      000000
 489              	.LBE9:
 490 003b C9       		leave
 491              		.cfi_def_cfa 7, 8
 492 003c C3       		ret
 493              		.cfi_endproc
 494              	.LFE1030:
 496              		.set	_ZN12_GLOBAL__N_124TestStartsWithNoTestsRunC1Ev,_ZN12_GLOBAL__N_124TestStartsWithNoTestsRunC2
 497              		.local	_ZN12_GLOBAL__N_132testStartsWithNoTestsRunInstanceE
 498              		.comm	_ZN12_GLOBAL__N_132testStartsWithNoTestsRunInstanceE,56,32
 499              		.local	_ZN12_GLOBAL__N_125adderStartsWithNoTestsRunE
 500              		.comm	_ZN12_GLOBAL__N_125adderStartsWithNoTestsRunE,1,1
 501              		.section	.rodata
 502 0036 0000     		.align 8
 503              	.LC4:
 504 0038 556E6861 		.string	"Unhandled exception in CHECK_EQUAL(0, results.GetTotalTestCount())"
 504      6E646C65 
 504      64206578 
 504      63657074 
 504      696F6E20 
 505              		.text
 506 003d 90       		.align 2
 508              	_ZNK12_GLOBAL__N_124TestStartsWithNoTestsRun7RunImplEv:
 509              	.LFB1032:
  13:TestTestResults.cpp **** {
 510              		.loc 5 13 0
 511              		.cfi_startproc
 512              		.cfi_personality 0x3,__gxx_personality_v0
 513              		.cfi_lsda 0x3,.LLSDA1032
 514 003e 55       		pushq	%rbp
 515              		.cfi_def_cfa_offset 16
 516              		.cfi_offset 6, -16
 517 003f 4889E5   		movq	%rsp, %rbp
 518              		.cfi_def_cfa_register 6
 519 0042 53       		pushq	%rbx
 520 0043 4883EC68 		subq	$104, %rsp
 521              		.cfi_offset 3, -24
 522 0047 48897D98 		movq	%rdi, -104(%rbp)
 523              	.LBB10:
  14:TestTestResults.cpp ****     TestResults results;
 524              		.loc 5 14 0
 525 004b 488D45B0 		leaq	-80(%rbp), %rax
 526 004f BE000000 		movl	$0, %esi
 526      00
 527 0054 4889C7   		movq	%rax, %rdi
 528              	.LEHB4:
 529 0057 E8000000 		call	_ZN8UnitTest11TestResultsC1EPNS_12TestReporterE
 529      00
 530              	.LEHE4:
 531              	.LEHB5:
  15:TestTestResults.cpp ****     CHECK_EQUAL (0, results.GetTotalTestCount());
 532              		.loc 5 15 0
 533 005c E8000000 		call	_ZN8UnitTest11CurrentTest7DetailsEv
 533      00
 534 0061 488B08   		movq	(%rax), %rcx
 535 0064 488D45D0 		leaq	-48(%rbp), %rax
 536 0068 BA0F0000 		movl	$15, %edx
 536      00
 537 006d 4889CE   		movq	%rcx, %rsi
 538 0070 4889C7   		movq	%rax, %rdi
 539 0073 E8000000 		call	_ZN8UnitTest11TestDetailsC1ERKS0_i
 539      00
 540              		.loc 5 15 0 is_stmt 0 discriminator 1
 541 0078 488D45B0 		leaq	-80(%rbp), %rax
 542 007c 4889C7   		movq	%rax, %rdi
 543 007f E8000000 		call	_ZNK8UnitTest11TestResults17GetTotalTestCountEv
 543      00
 544 0084 8945AC   		movl	%eax, -84(%rbp)
 545 0087 C745A800 		movl	$0, -88(%rbp)
 545      000000
 546 008e E8000000 		call	_ZN8UnitTest11CurrentTest7ResultsEv
 546      00
 547 0093 488B00   		movq	(%rax), %rax
 548 0096 488D4DD0 		leaq	-48(%rbp), %rcx
 549 009a 488D55AC 		leaq	-84(%rbp), %rdx
 550 009e 488D75A8 		leaq	-88(%rbp), %rsi
 551 00a2 4889C7   		movq	%rax, %rdi
 552 00a5 E8000000 		call	_ZN8UnitTest10CheckEqualIiiEEvRNS_11TestResultsERKT_RKT0_RKNS_11TestDetailsE
 552      00
 553              	.LEHE5:
 554              	.LBE10:
  16:TestTestResults.cpp **** }
 555              		.loc 5 16 0 is_stmt 1
 556 00aa EB58     		jmp	.L22
 557              	.L21:
 558 00ac 4889C3   		movq	%rax, %rbx
 559              	.LBB11:
  15:TestTestResults.cpp ****     CHECK_EQUAL (0, results.GetTotalTestCount());
 560              		.loc 5 15 0
 561 00af E8000000 		call	__cxa_end_catch
 561      00
 562 00b4 4889D8   		movq	%rbx, %rax
 563 00b7 4889C7   		movq	%rax, %rdi
 564              	.LEHB6:
 565 00ba E8000000 		call	_Unwind_Resume
 565      00
 566              	.LEHE6:
 567              	.L20:
 568 00bf 4889C7   		movq	%rax, %rdi
 569 00c2 E8000000 		call	__cxa_begin_catch
 569      00
 570              	.LEHB7:
 571 00c7 E8000000 		call	_ZN8UnitTest11CurrentTest7DetailsEv
 571      00
 572 00cc 488B08   		movq	(%rax), %rcx
 573 00cf 488D45D0 		leaq	-48(%rbp), %rax
 574 00d3 BA0F0000 		movl	$15, %edx
 574      00
 575 00d8 4889CE   		movq	%rcx, %rsi
 576 00db 4889C7   		movq	%rax, %rdi
 577 00de E8000000 		call	_ZN8UnitTest11TestDetailsC1ERKS0_i
 577      00
  15:TestTestResults.cpp ****     CHECK_EQUAL (0, results.GetTotalTestCount());
 578              		.loc 5 15 0 is_stmt 0 discriminator 1
 579 00e3 E8000000 		call	_ZN8UnitTest11CurrentTest7ResultsEv
 579      00
 580 00e8 488B00   		movq	(%rax), %rax
 581 00eb 488D4DD0 		leaq	-48(%rbp), %rcx
 582 00ef BA000000 		movl	$.LC4, %edx
 582      00
 583 00f4 4889CE   		movq	%rcx, %rsi
 584 00f7 4889C7   		movq	%rax, %rdi
 585 00fa E8000000 		call	_ZN8UnitTest11TestResults13OnTestFailureERKNS_11TestDetailsEPKc
 585      00
 586              	.LEHE7:
 587              	.LEHB8:
 588 00ff E8000000 		call	__cxa_end_catch
 588      00
 589              	.LEHE8:
 590              	.L22:
 591              	.LBE11:
 592              		.loc 5 16 0 is_stmt 1
 593 0104 90       		nop
 594 0105 4883C468 		addq	$104, %rsp
 595 0109 5B       		popq	%rbx
 596 010a 5D       		popq	%rbp
 597              		.cfi_def_cfa 7, 8
 598 010b C3       		ret
 599              		.cfi_endproc
 600              	.LFE1032:
 601              		.section	.gcc_except_table,"a",@progbits
 602              		.align 4
 603              	.LLSDA1032:
 604 0000 FF       		.byte	0xff
 605 0001 03       		.byte	0x3
 606 0002 21       		.uleb128 .LLSDATT1032-.LLSDATTD1032
 607              	.LLSDATTD1032:
 608 0003 01       		.byte	0x1
 609 0004 17       		.uleb128 .LLSDACSE1032-.LLSDACSB1032
 610              	.LLSDACSB1032:
 611 0005 19       		.uleb128 .LEHB4-.LFB1032
 612 0006 05       		.uleb128 .LEHE4-.LEHB4
 613 0007 00       		.uleb128 0
 614 0008 00       		.uleb128 0
 615 0009 1E       		.uleb128 .LEHB5-.LFB1032
 616 000a 4E       		.uleb128 .LEHE5-.LEHB5
 617 000b 8101     		.uleb128 .L20-.LFB1032
 618 000d 01       		.uleb128 0x1
 619 000e 7C       		.uleb128 .LEHB6-.LFB1032
 620 000f 05       		.uleb128 .LEHE6-.LEHB6
 621 0010 00       		.uleb128 0
 622 0011 00       		.uleb128 0
 623 0012 8901     		.uleb128 .LEHB7-.LFB1032
 624 0014 38       		.uleb128 .LEHE7-.LEHB7
 625 0015 6E       		.uleb128 .L21-.LFB1032
 626 0016 00       		.uleb128 0
 627 0017 C101     		.uleb128 .LEHB8-.LFB1032
 628 0019 05       		.uleb128 .LEHE8-.LEHB8
 629 001a 00       		.uleb128 0
 630 001b 00       		.uleb128 0
 631              	.LLSDACSE1032:
 632 001c 01       		.byte	0x1
 633 001d 00       		.byte	0
 634 001e 0000     		.align 4
 635 0020 00000000 		.long	0
 636              	
 637              	.LLSDATT1032:
 638              		.text
 640              		.section	.rodata
 641              	.LC5:
 642 007b 5265636F 		.string	"RecordsNumbersOfTests"
 642      7264734E 
 642      756D6265 
 642      72734F66 
 642      54657374 
 643              		.text
 644              		.align 2
 646              	_ZN12_GLOBAL__N_125TestRecordsNumbersOfTestsC2Ev:
 647              	.LFB1034:
  17:TestTestResults.cpp **** 
  18:TestTestResults.cpp **** TEST(RecordsNumbersOfTests)
 648              		.loc 5 18 0
 649              		.cfi_startproc
 650 010c 55       		pushq	%rbp
 651              		.cfi_def_cfa_offset 16
 652              		.cfi_offset 6, -16
 653 010d 4889E5   		movq	%rsp, %rbp
 654              		.cfi_def_cfa_register 6
 655 0110 4883EC10 		subq	$16, %rsp
 656 0114 48897DF8 		movq	%rdi, -8(%rbp)
 657              	.LBB12:
 658              		.loc 5 18 0
 659 0118 E8000000 		call	_ZN13UnitTestSuite12GetSuiteNameEv
 659      00
 660 011d 4889C2   		movq	%rax, %rdx
 661 0120 488B45F8 		movq	-8(%rbp), %rax
 662 0124 41B81200 		movl	$18, %r8d
 662      0000
 663 012a B9000000 		movl	$.LC2, %ecx
 663      00
 664 012f BE000000 		movl	$.LC5, %esi
 664      00
 665 0134 4889C7   		movq	%rax, %rdi
 666 0137 E8000000 		call	_ZN8UnitTest4TestC2EPKcS2_S2_i
 666      00
 667 013c 488B45F8 		movq	-8(%rbp), %rax
 668 0140 48C70000 		movq	$_ZTVN12_GLOBAL__N_125TestRecordsNumbersOfTestsE+16, (%rax)
 668      000000
 669              	.LBE12:
 670 0147 C9       		leave
 671              		.cfi_def_cfa 7, 8
 672 0148 C3       		ret
 673              		.cfi_endproc
 674              	.LFE1034:
 676              		.set	_ZN12_GLOBAL__N_125TestRecordsNumbersOfTestsC1Ev,_ZN12_GLOBAL__N_125TestRecordsNumbersOfTests
 677              		.local	_ZN12_GLOBAL__N_133testRecordsNumbersOfTestsInstanceE
 678              		.comm	_ZN12_GLOBAL__N_133testRecordsNumbersOfTestsInstanceE,56,32
 679              		.local	_ZN12_GLOBAL__N_126adderRecordsNumbersOfTestsE
 680              		.comm	_ZN12_GLOBAL__N_126adderRecordsNumbersOfTestsE,1,1
 681              		.section	.rodata
 682 0091 00000000 		.align 8
 682      000000
 683              	.LC6:
 684 0098 556E6861 		.string	"Unhandled exception in CHECK_EQUAL(3, results.GetTotalTestCount())"
 684      6E646C65 
 684      64206578 
 684      63657074 
 684      696F6E20 
 685              		.text
 686 0149 90       		.align 2
 688              	_ZNK12_GLOBAL__N_125TestRecordsNumbersOfTests7RunImplEv:
 689              	.LFB1036:
  19:TestTestResults.cpp **** {
 690              		.loc 5 19 0
 691              		.cfi_startproc
 692              		.cfi_personality 0x3,__gxx_personality_v0
 693              		.cfi_lsda 0x3,.LLSDA1036
 694 014a 55       		pushq	%rbp
 695              		.cfi_def_cfa_offset 16
 696              		.cfi_offset 6, -16
 697 014b 4889E5   		movq	%rsp, %rbp
 698              		.cfi_def_cfa_register 6
 699 014e 53       		pushq	%rbx
 700 014f 4883EC68 		subq	$104, %rsp
 701              		.cfi_offset 3, -24
 702 0153 48897D98 		movq	%rdi, -104(%rbp)
 703              	.LBB13:
  20:TestTestResults.cpp ****     TestResults results;
 704              		.loc 5 20 0
 705 0157 488D45B0 		leaq	-80(%rbp), %rax
 706 015b BE000000 		movl	$0, %esi
 706      00
 707 0160 4889C7   		movq	%rax, %rdi
 708              	.LEHB9:
 709 0163 E8000000 		call	_ZN8UnitTest11TestResultsC1EPNS_12TestReporterE
 709      00
  21:TestTestResults.cpp ****     results.OnTestStart(details);
 710              		.loc 5 21 0
 711 0168 488D45B0 		leaq	-80(%rbp), %rax
 712 016c BE000000 		movl	$_ZN12_GLOBAL__N_1L7detailsE, %esi
 712      00
 713 0171 4889C7   		movq	%rax, %rdi
 714 0174 E8000000 		call	_ZN8UnitTest11TestResults11OnTestStartERKNS_11TestDetailsE
 714      00
  22:TestTestResults.cpp ****     results.OnTestStart(details);
 715              		.loc 5 22 0
 716 0179 488D45B0 		leaq	-80(%rbp), %rax
 717 017d BE000000 		movl	$_ZN12_GLOBAL__N_1L7detailsE, %esi
 717      00
 718 0182 4889C7   		movq	%rax, %rdi
 719 0185 E8000000 		call	_ZN8UnitTest11TestResults11OnTestStartERKNS_11TestDetailsE
 719      00
  23:TestTestResults.cpp ****     results.OnTestStart(details);
 720              		.loc 5 23 0
 721 018a 488D45B0 		leaq	-80(%rbp), %rax
 722 018e BE000000 		movl	$_ZN12_GLOBAL__N_1L7detailsE, %esi
 722      00
 723 0193 4889C7   		movq	%rax, %rdi
 724 0196 E8000000 		call	_ZN8UnitTest11TestResults11OnTestStartERKNS_11TestDetailsE
 724      00
 725              	.LEHE9:
 726              	.LEHB10:
  24:TestTestResults.cpp ****     CHECK_EQUAL(3, results.GetTotalTestCount());
 727              		.loc 5 24 0
 728 019b E8000000 		call	_ZN8UnitTest11CurrentTest7DetailsEv
 728      00
 729 01a0 488B08   		movq	(%rax), %rcx
 730 01a3 488D45D0 		leaq	-48(%rbp), %rax
 731 01a7 BA180000 		movl	$24, %edx
 731      00
 732 01ac 4889CE   		movq	%rcx, %rsi
 733 01af 4889C7   		movq	%rax, %rdi
 734 01b2 E8000000 		call	_ZN8UnitTest11TestDetailsC1ERKS0_i
 734      00
 735              		.loc 5 24 0 is_stmt 0 discriminator 1
 736 01b7 488D45B0 		leaq	-80(%rbp), %rax
 737 01bb 4889C7   		movq	%rax, %rdi
 738 01be E8000000 		call	_ZNK8UnitTest11TestResults17GetTotalTestCountEv
 738      00
 739 01c3 8945AC   		movl	%eax, -84(%rbp)
 740 01c6 C745A803 		movl	$3, -88(%rbp)
 740      000000
 741 01cd E8000000 		call	_ZN8UnitTest11CurrentTest7ResultsEv
 741      00
 742 01d2 488B00   		movq	(%rax), %rax
 743 01d5 488D4DD0 		leaq	-48(%rbp), %rcx
 744 01d9 488D55AC 		leaq	-84(%rbp), %rdx
 745 01dd 488D75A8 		leaq	-88(%rbp), %rsi
 746 01e1 4889C7   		movq	%rax, %rdi
 747 01e4 E8000000 		call	_ZN8UnitTest10CheckEqualIiiEEvRNS_11TestResultsERKT_RKT0_RKNS_11TestDetailsE
 747      00
 748              	.LEHE10:
 749              	.LBE13:
  25:TestTestResults.cpp **** }
 750              		.loc 5 25 0 is_stmt 1
 751 01e9 EB58     		jmp	.L30
 752              	.L29:
 753 01eb 4889C3   		movq	%rax, %rbx
 754              	.LBB14:
  24:TestTestResults.cpp ****     CHECK_EQUAL(3, results.GetTotalTestCount());
 755              		.loc 5 24 0
 756 01ee E8000000 		call	__cxa_end_catch
 756      00
 757 01f3 4889D8   		movq	%rbx, %rax
 758 01f6 4889C7   		movq	%rax, %rdi
 759              	.LEHB11:
 760 01f9 E8000000 		call	_Unwind_Resume
 760      00
 761              	.LEHE11:
 762              	.L28:
 763 01fe 4889C7   		movq	%rax, %rdi
 764 0201 E8000000 		call	__cxa_begin_catch
 764      00
 765              	.LEHB12:
 766 0206 E8000000 		call	_ZN8UnitTest11CurrentTest7DetailsEv
 766      00
 767 020b 488B08   		movq	(%rax), %rcx
 768 020e 488D45D0 		leaq	-48(%rbp), %rax
 769 0212 BA180000 		movl	$24, %edx
 769      00
 770 0217 4889CE   		movq	%rcx, %rsi
 771 021a 4889C7   		movq	%rax, %rdi
 772 021d E8000000 		call	_ZN8UnitTest11TestDetailsC1ERKS0_i
 772      00
  24:TestTestResults.cpp ****     CHECK_EQUAL(3, results.GetTotalTestCount());
 773              		.loc 5 24 0 is_stmt 0 discriminator 1
 774 0222 E8000000 		call	_ZN8UnitTest11CurrentTest7ResultsEv
 774      00
 775 0227 488B00   		movq	(%rax), %rax
 776 022a 488D4DD0 		leaq	-48(%rbp), %rcx
 777 022e BA000000 		movl	$.LC6, %edx
 777      00
 778 0233 4889CE   		movq	%rcx, %rsi
 779 0236 4889C7   		movq	%rax, %rdi
 780 0239 E8000000 		call	_ZN8UnitTest11TestResults13OnTestFailureERKNS_11TestDetailsEPKc
 780      00
 781              	.LEHE12:
 782              	.LEHB13:
 783 023e E8000000 		call	__cxa_end_catch
 783      00
 784              	.LEHE13:
 785              	.L30:
 786              	.LBE14:
 787              		.loc 5 25 0 is_stmt 1
 788 0243 90       		nop
 789 0244 4883C468 		addq	$104, %rsp
 790 0248 5B       		popq	%rbx
 791 0249 5D       		popq	%rbp
 792              		.cfi_def_cfa 7, 8
 793 024a C3       		ret
 794              		.cfi_endproc
 795              	.LFE1036:
 796              		.section	.gcc_except_table
 797              		.align 4
 798              	.LLSDA1036:
 799 0024 FF       		.byte	0xff
 800 0025 03       		.byte	0x3
 801 0026 21       		.uleb128 .LLSDATT1036-.LLSDATTD1036
 802              	.LLSDATTD1036:
 803 0027 01       		.byte	0x1
 804 0028 19       		.uleb128 .LLSDACSE1036-.LLSDACSB1036
 805              	.LLSDACSB1036:
 806 0029 19       		.uleb128 .LEHB9-.LFB1036
 807 002a 38       		.uleb128 .LEHE9-.LEHB9
 808 002b 00       		.uleb128 0
 809 002c 00       		.uleb128 0
 810 002d 51       		.uleb128 .LEHB10-.LFB1036
 811 002e 4E       		.uleb128 .LEHE10-.LEHB10
 812 002f B401     		.uleb128 .L28-.LFB1036
 813 0031 01       		.uleb128 0x1
 814 0032 AF01     		.uleb128 .LEHB11-.LFB1036
 815 0034 05       		.uleb128 .LEHE11-.LEHB11
 816 0035 00       		.uleb128 0
 817 0036 00       		.uleb128 0
 818 0037 BC01     		.uleb128 .LEHB12-.LFB1036
 819 0039 38       		.uleb128 .LEHE12-.LEHB12
 820 003a A101     		.uleb128 .L29-.LFB1036
 821 003c 00       		.uleb128 0
 822 003d F401     		.uleb128 .LEHB13-.LFB1036
 823 003f 05       		.uleb128 .LEHE13-.LEHB13
 824 0040 00       		.uleb128 0
 825 0041 00       		.uleb128 0
 826              	.LLSDACSE1036:
 827 0042 01       		.byte	0x1
 828 0043 00       		.byte	0
 829              		.align 4
 830 0044 00000000 		.long	0
 831              	
 832              	.LLSDATT1036:
 833              		.text
 835              		.section	.rodata
 836              	.LC7:
 837 00db 53746172 		.string	"StartsWithNoTestsFailing"
 837      74735769 
 837      74684E6F 
 837      54657374 
 837      73466169 
 838              		.text
 839 024b 90       		.align 2
 841              	_ZN12_GLOBAL__N_128TestStartsWithNoTestsFailingC2Ev:
 842              	.LFB1038:
  26:TestTestResults.cpp **** 
  27:TestTestResults.cpp **** TEST(StartsWithNoTestsFailing)
 843              		.loc 5 27 0
 844              		.cfi_startproc
 845 024c 55       		pushq	%rbp
 846              		.cfi_def_cfa_offset 16
 847              		.cfi_offset 6, -16
 848 024d 4889E5   		movq	%rsp, %rbp
 849              		.cfi_def_cfa_register 6
 850 0250 4883EC10 		subq	$16, %rsp
 851 0254 48897DF8 		movq	%rdi, -8(%rbp)
 852              	.LBB15:
 853              		.loc 5 27 0
 854 0258 E8000000 		call	_ZN13UnitTestSuite12GetSuiteNameEv
 854      00
 855 025d 4889C2   		movq	%rax, %rdx
 856 0260 488B45F8 		movq	-8(%rbp), %rax
 857 0264 41B81B00 		movl	$27, %r8d
 857      0000
 858 026a B9000000 		movl	$.LC2, %ecx
 858      00
 859 026f BE000000 		movl	$.LC7, %esi
 859      00
 860 0274 4889C7   		movq	%rax, %rdi
 861 0277 E8000000 		call	_ZN8UnitTest4TestC2EPKcS2_S2_i
 861      00
 862 027c 488B45F8 		movq	-8(%rbp), %rax
 863 0280 48C70000 		movq	$_ZTVN12_GLOBAL__N_128TestStartsWithNoTestsFailingE+16, (%rax)
 863      000000
 864              	.LBE15:
 865 0287 C9       		leave
 866              		.cfi_def_cfa 7, 8
 867 0288 C3       		ret
 868              		.cfi_endproc
 869              	.LFE1038:
 871              		.set	_ZN12_GLOBAL__N_128TestStartsWithNoTestsFailingC1Ev,_ZN12_GLOBAL__N_128TestStartsWithNoTestsF
 872              		.local	_ZN12_GLOBAL__N_136testStartsWithNoTestsFailingInstanceE
 873              		.comm	_ZN12_GLOBAL__N_136testStartsWithNoTestsFailingInstanceE,56,32
 874              		.local	_ZN12_GLOBAL__N_129adderStartsWithNoTestsFailingE
 875              		.comm	_ZN12_GLOBAL__N_129adderStartsWithNoTestsFailingE,1,1
 876              		.section	.rodata
 877 00f4 00000000 		.align 8
 878              	.LC8:
 879 00f8 556E6861 		.string	"Unhandled exception in CHECK_EQUAL(0, results.GetFailureCount())"
 879      6E646C65 
 879      64206578 
 879      63657074 
 879      696F6E20 
 880              		.text
 881 0289 90       		.align 2
 883              	_ZNK12_GLOBAL__N_128TestStartsWithNoTestsFailing7RunImplEv:
 884              	.LFB1040:
  28:TestTestResults.cpp **** {
 885              		.loc 5 28 0
 886              		.cfi_startproc
 887              		.cfi_personality 0x3,__gxx_personality_v0
 888              		.cfi_lsda 0x3,.LLSDA1040
 889 028a 55       		pushq	%rbp
 890              		.cfi_def_cfa_offset 16
 891              		.cfi_offset 6, -16
 892 028b 4889E5   		movq	%rsp, %rbp
 893              		.cfi_def_cfa_register 6
 894 028e 53       		pushq	%rbx
 895 028f 4883EC68 		subq	$104, %rsp
 896              		.cfi_offset 3, -24
 897 0293 48897D98 		movq	%rdi, -104(%rbp)
 898              	.LBB16:
  29:TestTestResults.cpp ****     TestResults results;
 899              		.loc 5 29 0
 900 0297 488D45B0 		leaq	-80(%rbp), %rax
 901 029b BE000000 		movl	$0, %esi
 901      00
 902 02a0 4889C7   		movq	%rax, %rdi
 903              	.LEHB14:
 904 02a3 E8000000 		call	_ZN8UnitTest11TestResultsC1EPNS_12TestReporterE
 904      00
 905              	.LEHE14:
 906              	.LEHB15:
  30:TestTestResults.cpp ****     CHECK_EQUAL (0, results.GetFailureCount());
 907              		.loc 5 30 0
 908 02a8 E8000000 		call	_ZN8UnitTest11CurrentTest7DetailsEv
 908      00
 909 02ad 488B08   		movq	(%rax), %rcx
 910 02b0 488D45D0 		leaq	-48(%rbp), %rax
 911 02b4 BA1E0000 		movl	$30, %edx
 911      00
 912 02b9 4889CE   		movq	%rcx, %rsi
 913 02bc 4889C7   		movq	%rax, %rdi
 914 02bf E8000000 		call	_ZN8UnitTest11TestDetailsC1ERKS0_i
 914      00
 915              		.loc 5 30 0 is_stmt 0 discriminator 1
 916 02c4 488D45B0 		leaq	-80(%rbp), %rax
 917 02c8 4889C7   		movq	%rax, %rdi
 918 02cb E8000000 		call	_ZNK8UnitTest11TestResults15GetFailureCountEv
 918      00
 919 02d0 8945AC   		movl	%eax, -84(%rbp)
 920 02d3 C745A800 		movl	$0, -88(%rbp)
 920      000000
 921 02da E8000000 		call	_ZN8UnitTest11CurrentTest7ResultsEv
 921      00
 922 02df 488B00   		movq	(%rax), %rax
 923 02e2 488D4DD0 		leaq	-48(%rbp), %rcx
 924 02e6 488D55AC 		leaq	-84(%rbp), %rdx
 925 02ea 488D75A8 		leaq	-88(%rbp), %rsi
 926 02ee 4889C7   		movq	%rax, %rdi
 927 02f1 E8000000 		call	_ZN8UnitTest10CheckEqualIiiEEvRNS_11TestResultsERKT_RKT0_RKNS_11TestDetailsE
 927      00
 928              	.LEHE15:
 929              	.LBE16:
  31:TestTestResults.cpp **** }
 930              		.loc 5 31 0 is_stmt 1
 931 02f6 EB58     		jmp	.L38
 932              	.L37:
 933 02f8 4889C3   		movq	%rax, %rbx
 934              	.LBB17:
  30:TestTestResults.cpp ****     CHECK_EQUAL (0, results.GetFailureCount());
 935              		.loc 5 30 0
 936 02fb E8000000 		call	__cxa_end_catch
 936      00
 937 0300 4889D8   		movq	%rbx, %rax
 938 0303 4889C7   		movq	%rax, %rdi
 939              	.LEHB16:
 940 0306 E8000000 		call	_Unwind_Resume
 940      00
 941              	.LEHE16:
 942              	.L36:
 943 030b 4889C7   		movq	%rax, %rdi
 944 030e E8000000 		call	__cxa_begin_catch
 944      00
 945              	.LEHB17:
 946 0313 E8000000 		call	_ZN8UnitTest11CurrentTest7DetailsEv
 946      00
 947 0318 488B08   		movq	(%rax), %rcx
 948 031b 488D45D0 		leaq	-48(%rbp), %rax
 949 031f BA1E0000 		movl	$30, %edx
 949      00
 950 0324 4889CE   		movq	%rcx, %rsi
 951 0327 4889C7   		movq	%rax, %rdi
 952 032a E8000000 		call	_ZN8UnitTest11TestDetailsC1ERKS0_i
 952      00
  30:TestTestResults.cpp ****     CHECK_EQUAL (0, results.GetFailureCount());
 953              		.loc 5 30 0 is_stmt 0 discriminator 1
 954 032f E8000000 		call	_ZN8UnitTest11CurrentTest7ResultsEv
 954      00
 955 0334 488B00   		movq	(%rax), %rax
 956 0337 488D4DD0 		leaq	-48(%rbp), %rcx
 957 033b BA000000 		movl	$.LC8, %edx
 957      00
 958 0340 4889CE   		movq	%rcx, %rsi
 959 0343 4889C7   		movq	%rax, %rdi
 960 0346 E8000000 		call	_ZN8UnitTest11TestResults13OnTestFailureERKNS_11TestDetailsEPKc
 960      00
 961              	.LEHE17:
 962              	.LEHB18:
 963 034b E8000000 		call	__cxa_end_catch
 963      00
 964              	.LEHE18:
 965              	.L38:
 966              	.LBE17:
 967              		.loc 5 31 0 is_stmt 1
 968 0350 90       		nop
 969 0351 4883C468 		addq	$104, %rsp
 970 0355 5B       		popq	%rbx
 971 0356 5D       		popq	%rbp
 972              		.cfi_def_cfa 7, 8
 973 0357 C3       		ret
 974              		.cfi_endproc
 975              	.LFE1040:
 976              		.section	.gcc_except_table
 977              		.align 4
 978              	.LLSDA1040:
 979 0048 FF       		.byte	0xff
 980 0049 03       		.byte	0x3
 981 004a 21       		.uleb128 .LLSDATT1040-.LLSDATTD1040
 982              	.LLSDATTD1040:
 983 004b 01       		.byte	0x1
 984 004c 17       		.uleb128 .LLSDACSE1040-.LLSDACSB1040
 985              	.LLSDACSB1040:
 986 004d 19       		.uleb128 .LEHB14-.LFB1040
 987 004e 05       		.uleb128 .LEHE14-.LEHB14
 988 004f 00       		.uleb128 0
 989 0050 00       		.uleb128 0
 990 0051 1E       		.uleb128 .LEHB15-.LFB1040
 991 0052 4E       		.uleb128 .LEHE15-.LEHB15
 992 0053 8101     		.uleb128 .L36-.LFB1040
 993 0055 01       		.uleb128 0x1
 994 0056 7C       		.uleb128 .LEHB16-.LFB1040
 995 0057 05       		.uleb128 .LEHE16-.LEHB16
 996 0058 00       		.uleb128 0
 997 0059 00       		.uleb128 0
 998 005a 8901     		.uleb128 .LEHB17-.LFB1040
 999 005c 38       		.uleb128 .LEHE17-.LEHB17
 1000 005d 6E       		.uleb128 .L37-.LFB1040
 1001 005e 00       		.uleb128 0
 1002 005f C101     		.uleb128 .LEHB18-.LFB1040
 1003 0061 05       		.uleb128 .LEHE18-.LEHB18
 1004 0062 00       		.uleb128 0
 1005 0063 00       		.uleb128 0
 1006              	.LLSDACSE1040:
 1007 0064 01       		.byte	0x1
 1008 0065 00       		.byte	0
 1009 0066 0000     		.align 4
 1010 0068 00000000 		.long	0
 1011              	
 1012              	.LLSDATT1040:
 1013              		.text
 1015              		.section	.rodata
 1016              	.LC9:
 1017 0139 5265636F 		.string	"RecordsNumberOfFailures"
 1017      7264734E 
 1017      756D6265 
 1017      724F6646 
 1017      61696C75 
 1018              		.text
 1019              		.align 2
 1021              	_ZN12_GLOBAL__N_127TestRecordsNumberOfFailuresC2Ev:
 1022              	.LFB1042:
  32:TestTestResults.cpp **** 
  33:TestTestResults.cpp **** TEST(RecordsNumberOfFailures)
 1023              		.loc 5 33 0
 1024              		.cfi_startproc
 1025 0358 55       		pushq	%rbp
 1026              		.cfi_def_cfa_offset 16
 1027              		.cfi_offset 6, -16
 1028 0359 4889E5   		movq	%rsp, %rbp
 1029              		.cfi_def_cfa_register 6
 1030 035c 4883EC10 		subq	$16, %rsp
 1031 0360 48897DF8 		movq	%rdi, -8(%rbp)
 1032              	.LBB18:
 1033              		.loc 5 33 0
 1034 0364 E8000000 		call	_ZN13UnitTestSuite12GetSuiteNameEv
 1034      00
 1035 0369 4889C2   		movq	%rax, %rdx
 1036 036c 488B45F8 		movq	-8(%rbp), %rax
 1037 0370 41B82100 		movl	$33, %r8d
 1037      0000
 1038 0376 B9000000 		movl	$.LC2, %ecx
 1038      00
 1039 037b BE000000 		movl	$.LC9, %esi
 1039      00
 1040 0380 4889C7   		movq	%rax, %rdi
 1041 0383 E8000000 		call	_ZN8UnitTest4TestC2EPKcS2_S2_i
 1041      00
 1042 0388 488B45F8 		movq	-8(%rbp), %rax
 1043 038c 48C70000 		movq	$_ZTVN12_GLOBAL__N_127TestRecordsNumberOfFailuresE+16, (%rax)
 1043      000000
 1044              	.LBE18:
 1045 0393 C9       		leave
 1046              		.cfi_def_cfa 7, 8
 1047 0394 C3       		ret
 1048              		.cfi_endproc
 1049              	.LFE1042:
 1051              		.set	_ZN12_GLOBAL__N_127TestRecordsNumberOfFailuresC1Ev,_ZN12_GLOBAL__N_127TestRecordsNumberOfFail
 1052              		.local	_ZN12_GLOBAL__N_135testRecordsNumberOfFailuresInstanceE
 1053              		.comm	_ZN12_GLOBAL__N_135testRecordsNumberOfFailuresInstanceE,56,32
 1054              		.local	_ZN12_GLOBAL__N_128adderRecordsNumberOfFailuresE
 1055              		.comm	_ZN12_GLOBAL__N_128adderRecordsNumberOfFailuresE,1,1
 1056              		.section	.rodata
 1057              	.LC10:
 1058 0151 00       		.string	""
 1059 0152 00000000 		.align 8
 1059      0000
 1060              	.LC11:
 1061 0158 556E6861 		.string	"Unhandled exception in CHECK_EQUAL(2, results.GetFailureCount())"
 1061      6E646C65 
 1061      64206578 
 1061      63657074 
 1061      696F6E20 
 1062              		.text
 1063 0395 90       		.align 2
 1065              	_ZNK12_GLOBAL__N_127TestRecordsNumberOfFailures7RunImplEv:
 1066              	.LFB1044:
  34:TestTestResults.cpp **** {
 1067              		.loc 5 34 0
 1068              		.cfi_startproc
 1069              		.cfi_personality 0x3,__gxx_personality_v0
 1070              		.cfi_lsda 0x3,.LLSDA1044
 1071 0396 55       		pushq	%rbp
 1072              		.cfi_def_cfa_offset 16
 1073              		.cfi_offset 6, -16
 1074 0397 4889E5   		movq	%rsp, %rbp
 1075              		.cfi_def_cfa_register 6
 1076 039a 53       		pushq	%rbx
 1077 039b 4883EC68 		subq	$104, %rsp
 1078              		.cfi_offset 3, -24
 1079 039f 48897D98 		movq	%rdi, -104(%rbp)
 1080              	.LBB19:
  35:TestTestResults.cpp ****     TestResults results;
 1081              		.loc 5 35 0
 1082 03a3 488D45B0 		leaq	-80(%rbp), %rax
 1083 03a7 BE000000 		movl	$0, %esi
 1083      00
 1084 03ac 4889C7   		movq	%rax, %rdi
 1085              	.LEHB19:
 1086 03af E8000000 		call	_ZN8UnitTest11TestResultsC1EPNS_12TestReporterE
 1086      00
  36:TestTestResults.cpp ****     results.OnTestFailure(details, "");
 1087              		.loc 5 36 0
 1088 03b4 488D45B0 		leaq	-80(%rbp), %rax
 1089 03b8 BA000000 		movl	$.LC10, %edx
 1089      00
 1090 03bd BE000000 		movl	$_ZN12_GLOBAL__N_1L7detailsE, %esi
 1090      00
 1091 03c2 4889C7   		movq	%rax, %rdi
 1092 03c5 E8000000 		call	_ZN8UnitTest11TestResults13OnTestFailureERKNS_11TestDetailsEPKc
 1092      00
  37:TestTestResults.cpp ****     results.OnTestFailure(details, "");
 1093              		.loc 5 37 0
 1094 03ca 488D45B0 		leaq	-80(%rbp), %rax
 1095 03ce BA000000 		movl	$.LC10, %edx
 1095      00
 1096 03d3 BE000000 		movl	$_ZN12_GLOBAL__N_1L7detailsE, %esi
 1096      00
 1097 03d8 4889C7   		movq	%rax, %rdi
 1098 03db E8000000 		call	_ZN8UnitTest11TestResults13OnTestFailureERKNS_11TestDetailsEPKc
 1098      00
 1099              	.LEHE19:
 1100              	.LEHB20:
  38:TestTestResults.cpp ****     CHECK_EQUAL(2, results.GetFailureCount());
 1101              		.loc 5 38 0
 1102 03e0 E8000000 		call	_ZN8UnitTest11CurrentTest7DetailsEv
 1102      00
 1103 03e5 488B08   		movq	(%rax), %rcx
 1104 03e8 488D45D0 		leaq	-48(%rbp), %rax
 1105 03ec BA260000 		movl	$38, %edx
 1105      00
 1106 03f1 4889CE   		movq	%rcx, %rsi
 1107 03f4 4889C7   		movq	%rax, %rdi
 1108 03f7 E8000000 		call	_ZN8UnitTest11TestDetailsC1ERKS0_i
 1108      00
 1109              		.loc 5 38 0 is_stmt 0 discriminator 1
 1110 03fc 488D45B0 		leaq	-80(%rbp), %rax
 1111 0400 4889C7   		movq	%rax, %rdi
 1112 0403 E8000000 		call	_ZNK8UnitTest11TestResults15GetFailureCountEv
 1112      00
 1113 0408 8945AC   		movl	%eax, -84(%rbp)
 1114 040b C745A802 		movl	$2, -88(%rbp)
 1114      000000
 1115 0412 E8000000 		call	_ZN8UnitTest11CurrentTest7ResultsEv
 1115      00
 1116 0417 488B00   		movq	(%rax), %rax
 1117 041a 488D4DD0 		leaq	-48(%rbp), %rcx
 1118 041e 488D55AC 		leaq	-84(%rbp), %rdx
 1119 0422 488D75A8 		leaq	-88(%rbp), %rsi
 1120 0426 4889C7   		movq	%rax, %rdi
 1121 0429 E8000000 		call	_ZN8UnitTest10CheckEqualIiiEEvRNS_11TestResultsERKT_RKT0_RKNS_11TestDetailsE
 1121      00
 1122              	.LEHE20:
 1123              	.LBE19:
  39:TestTestResults.cpp **** }
 1124              		.loc 5 39 0 is_stmt 1
 1125 042e EB58     		jmp	.L46
 1126              	.L45:
 1127 0430 4889C3   		movq	%rax, %rbx
 1128              	.LBB20:
  38:TestTestResults.cpp ****     CHECK_EQUAL(2, results.GetFailureCount());
 1129              		.loc 5 38 0
 1130 0433 E8000000 		call	__cxa_end_catch
 1130      00
 1131 0438 4889D8   		movq	%rbx, %rax
 1132 043b 4889C7   		movq	%rax, %rdi
 1133              	.LEHB21:
 1134 043e E8000000 		call	_Unwind_Resume
 1134      00
 1135              	.LEHE21:
 1136              	.L44:
 1137 0443 4889C7   		movq	%rax, %rdi
 1138 0446 E8000000 		call	__cxa_begin_catch
 1138      00
 1139              	.LEHB22:
 1140 044b E8000000 		call	_ZN8UnitTest11CurrentTest7DetailsEv
 1140      00
 1141 0450 488B08   		movq	(%rax), %rcx
 1142 0453 488D45D0 		leaq	-48(%rbp), %rax
 1143 0457 BA260000 		movl	$38, %edx
 1143      00
 1144 045c 4889CE   		movq	%rcx, %rsi
 1145 045f 4889C7   		movq	%rax, %rdi
 1146 0462 E8000000 		call	_ZN8UnitTest11TestDetailsC1ERKS0_i
 1146      00
  38:TestTestResults.cpp ****     CHECK_EQUAL(2, results.GetFailureCount());
 1147              		.loc 5 38 0 is_stmt 0 discriminator 1
 1148 0467 E8000000 		call	_ZN8UnitTest11CurrentTest7ResultsEv
 1148      00
 1149 046c 488B00   		movq	(%rax), %rax
 1150 046f 488D4DD0 		leaq	-48(%rbp), %rcx
 1151 0473 BA000000 		movl	$.LC11, %edx
 1151      00
 1152 0478 4889CE   		movq	%rcx, %rsi
 1153 047b 4889C7   		movq	%rax, %rdi
 1154 047e E8000000 		call	_ZN8UnitTest11TestResults13OnTestFailureERKNS_11TestDetailsEPKc
 1154      00
 1155              	.LEHE22:
 1156              	.LEHB23:
 1157 0483 E8000000 		call	__cxa_end_catch
 1157      00
 1158              	.LEHE23:
 1159              	.L46:
 1160              	.LBE20:
 1161              		.loc 5 39 0 is_stmt 1
 1162 0488 90       		nop
 1163 0489 4883C468 		addq	$104, %rsp
 1164 048d 5B       		popq	%rbx
 1165 048e 5D       		popq	%rbp
 1166              		.cfi_def_cfa 7, 8
 1167 048f C3       		ret
 1168              		.cfi_endproc
 1169              	.LFE1044:
 1170              		.section	.gcc_except_table
 1171              		.align 4
 1172              	.LLSDA1044:
 1173 006c FF       		.byte	0xff
 1174 006d 03       		.byte	0x3
 1175 006e 21       		.uleb128 .LLSDATT1044-.LLSDATTD1044
 1176              	.LLSDATTD1044:
 1177 006f 01       		.byte	0x1
 1178 0070 19       		.uleb128 .LLSDACSE1044-.LLSDACSB1044
 1179              	.LLSDACSB1044:
 1180 0071 19       		.uleb128 .LEHB19-.LFB1044
 1181 0072 31       		.uleb128 .LEHE19-.LEHB19
 1182 0073 00       		.uleb128 0
 1183 0074 00       		.uleb128 0
 1184 0075 4A       		.uleb128 .LEHB20-.LFB1044
 1185 0076 4E       		.uleb128 .LEHE20-.LEHB20
 1186 0077 AD01     		.uleb128 .L44-.LFB1044
 1187 0079 01       		.uleb128 0x1
 1188 007a A801     		.uleb128 .LEHB21-.LFB1044
 1189 007c 05       		.uleb128 .LEHE21-.LEHB21
 1190 007d 00       		.uleb128 0
 1191 007e 00       		.uleb128 0
 1192 007f B501     		.uleb128 .LEHB22-.LFB1044
 1193 0081 38       		.uleb128 .LEHE22-.LEHB22
 1194 0082 9A01     		.uleb128 .L45-.LFB1044
 1195 0084 00       		.uleb128 0
 1196 0085 ED01     		.uleb128 .LEHB23-.LFB1044
 1197 0087 05       		.uleb128 .LEHE23-.LEHB23
 1198 0088 00       		.uleb128 0
 1199 0089 00       		.uleb128 0
 1200              	.LLSDACSE1044:
 1201 008a 01       		.byte	0x1
 1202 008b 00       		.byte	0
 1203              		.align 4
 1204 008c 00000000 		.long	0
 1205              	
 1206              	.LLSDATT1044:
 1207              		.text
 1209              		.section	.rodata
 1210              	.LC12:
 1211 0199 5265636F 		.string	"RecordsNumberOfFailedTests"
 1211      7264734E 
 1211      756D6265 
 1211      724F6646 
 1211      61696C65 
 1212              		.text
 1213              		.align 2
 1215              	_ZN12_GLOBAL__N_130TestRecordsNumberOfFailedTestsC2Ev:
 1216              	.LFB1046:
  40:TestTestResults.cpp **** 
  41:TestTestResults.cpp **** TEST(RecordsNumberOfFailedTests)
 1217              		.loc 5 41 0
 1218              		.cfi_startproc
 1219 0490 55       		pushq	%rbp
 1220              		.cfi_def_cfa_offset 16
 1221              		.cfi_offset 6, -16
 1222 0491 4889E5   		movq	%rsp, %rbp
 1223              		.cfi_def_cfa_register 6
 1224 0494 4883EC10 		subq	$16, %rsp
 1225 0498 48897DF8 		movq	%rdi, -8(%rbp)
 1226              	.LBB21:
 1227              		.loc 5 41 0
 1228 049c E8000000 		call	_ZN13UnitTestSuite12GetSuiteNameEv
 1228      00
 1229 04a1 4889C2   		movq	%rax, %rdx
 1230 04a4 488B45F8 		movq	-8(%rbp), %rax
 1231 04a8 41B82900 		movl	$41, %r8d
 1231      0000
 1232 04ae B9000000 		movl	$.LC2, %ecx
 1232      00
 1233 04b3 BE000000 		movl	$.LC12, %esi
 1233      00
 1234 04b8 4889C7   		movq	%rax, %rdi
 1235 04bb E8000000 		call	_ZN8UnitTest4TestC2EPKcS2_S2_i
 1235      00
 1236 04c0 488B45F8 		movq	-8(%rbp), %rax
 1237 04c4 48C70000 		movq	$_ZTVN12_GLOBAL__N_130TestRecordsNumberOfFailedTestsE+16, (%rax)
 1237      000000
 1238              	.LBE21:
 1239 04cb C9       		leave
 1240              		.cfi_def_cfa 7, 8
 1241 04cc C3       		ret
 1242              		.cfi_endproc
 1243              	.LFE1046:
 1245              		.set	_ZN12_GLOBAL__N_130TestRecordsNumberOfFailedTestsC1Ev,_ZN12_GLOBAL__N_130TestRecordsNumberOfF
 1246              		.local	_ZN12_GLOBAL__N_138testRecordsNumberOfFailedTestsInstanceE
 1247              		.comm	_ZN12_GLOBAL__N_138testRecordsNumberOfFailedTestsInstanceE,56,32
 1248              		.local	_ZN12_GLOBAL__N_131adderRecordsNumberOfFailedTestsE
 1249              		.comm	_ZN12_GLOBAL__N_131adderRecordsNumberOfFailedTestsE,1,1
 1250              		.section	.rodata
 1251 01b4 00000000 		.align 8
 1252              	.LC13:
 1253 01b8 556E6861 		.string	"Unhandled exception in CHECK_EQUAL(2, results.GetFailedTestCount())"
 1253      6E646C65 
 1253      64206578 
 1253      63657074 
 1253      696F6E20 
 1254              		.text
 1255 04cd 90       		.align 2
 1257              	_ZNK12_GLOBAL__N_130TestRecordsNumberOfFailedTests7RunImplEv:
 1258              	.LFB1048:
  42:TestTestResults.cpp **** {
 1259              		.loc 5 42 0
 1260              		.cfi_startproc
 1261              		.cfi_personality 0x3,__gxx_personality_v0
 1262              		.cfi_lsda 0x3,.LLSDA1048
 1263 04ce 55       		pushq	%rbp
 1264              		.cfi_def_cfa_offset 16
 1265              		.cfi_offset 6, -16
 1266 04cf 4889E5   		movq	%rsp, %rbp
 1267              		.cfi_def_cfa_register 6
 1268 04d2 53       		pushq	%rbx
 1269 04d3 4883EC68 		subq	$104, %rsp
 1270              		.cfi_offset 3, -24
 1271 04d7 48897D98 		movq	%rdi, -104(%rbp)
 1272              	.LBB22:
  43:TestTestResults.cpp ****     TestResults results;
 1273              		.loc 5 43 0
 1274 04db 488D45B0 		leaq	-80(%rbp), %rax
 1275 04df BE000000 		movl	$0, %esi
 1275      00
 1276 04e4 4889C7   		movq	%rax, %rdi
 1277              	.LEHB24:
 1278 04e7 E8000000 		call	_ZN8UnitTest11TestResultsC1EPNS_12TestReporterE
 1278      00
  44:TestTestResults.cpp **** 
  45:TestTestResults.cpp ****     results.OnTestStart(details);
 1279              		.loc 5 45 0
 1280 04ec 488D45B0 		leaq	-80(%rbp), %rax
 1281 04f0 BE000000 		movl	$_ZN12_GLOBAL__N_1L7detailsE, %esi
 1281      00
 1282 04f5 4889C7   		movq	%rax, %rdi
 1283 04f8 E8000000 		call	_ZN8UnitTest11TestResults11OnTestStartERKNS_11TestDetailsE
 1283      00
  46:TestTestResults.cpp ****     results.OnTestFailure(details, "");
 1284              		.loc 5 46 0
 1285 04fd 488D45B0 		leaq	-80(%rbp), %rax
 1286 0501 BA000000 		movl	$.LC10, %edx
 1286      00
 1287 0506 BE000000 		movl	$_ZN12_GLOBAL__N_1L7detailsE, %esi
 1287      00
 1288 050b 4889C7   		movq	%rax, %rdi
 1289 050e E8000000 		call	_ZN8UnitTest11TestResults13OnTestFailureERKNS_11TestDetailsEPKc
 1289      00
  47:TestTestResults.cpp ****     results.OnTestFinish(details, 0);
 1290              		.loc 5 47 0
 1291 0513 488D45B0 		leaq	-80(%rbp), %rax
 1292 0517 0F57C0   		xorps	%xmm0, %xmm0
 1293 051a BE000000 		movl	$_ZN12_GLOBAL__N_1L7detailsE, %esi
 1293      00
 1294 051f 4889C7   		movq	%rax, %rdi
 1295 0522 E8000000 		call	_ZN8UnitTest11TestResults12OnTestFinishERKNS_11TestDetailsEf
 1295      00
  48:TestTestResults.cpp **** 
  49:TestTestResults.cpp ****     results.OnTestStart(details);
 1296              		.loc 5 49 0
 1297 0527 488D45B0 		leaq	-80(%rbp), %rax
 1298 052b BE000000 		movl	$_ZN12_GLOBAL__N_1L7detailsE, %esi
 1298      00
 1299 0530 4889C7   		movq	%rax, %rdi
 1300 0533 E8000000 		call	_ZN8UnitTest11TestResults11OnTestStartERKNS_11TestDetailsE
 1300      00
  50:TestTestResults.cpp ****     results.OnTestFailure(details, "");
 1301              		.loc 5 50 0
 1302 0538 488D45B0 		leaq	-80(%rbp), %rax
 1303 053c BA000000 		movl	$.LC10, %edx
 1303      00
 1304 0541 BE000000 		movl	$_ZN12_GLOBAL__N_1L7detailsE, %esi
 1304      00
 1305 0546 4889C7   		movq	%rax, %rdi
 1306 0549 E8000000 		call	_ZN8UnitTest11TestResults13OnTestFailureERKNS_11TestDetailsEPKc
 1306      00
  51:TestTestResults.cpp ****     results.OnTestFailure(details, "");
 1307              		.loc 5 51 0
 1308 054e 488D45B0 		leaq	-80(%rbp), %rax
 1309 0552 BA000000 		movl	$.LC10, %edx
 1309      00
 1310 0557 BE000000 		movl	$_ZN12_GLOBAL__N_1L7detailsE, %esi
 1310      00
 1311 055c 4889C7   		movq	%rax, %rdi
 1312 055f E8000000 		call	_ZN8UnitTest11TestResults13OnTestFailureERKNS_11TestDetailsEPKc
 1312      00
  52:TestTestResults.cpp ****     results.OnTestFailure(details, "");
 1313              		.loc 5 52 0
 1314 0564 488D45B0 		leaq	-80(%rbp), %rax
 1315 0568 BA000000 		movl	$.LC10, %edx
 1315      00
 1316 056d BE000000 		movl	$_ZN12_GLOBAL__N_1L7detailsE, %esi
 1316      00
 1317 0572 4889C7   		movq	%rax, %rdi
 1318 0575 E8000000 		call	_ZN8UnitTest11TestResults13OnTestFailureERKNS_11TestDetailsEPKc
 1318      00
  53:TestTestResults.cpp ****     results.OnTestFinish(details, 0);
 1319              		.loc 5 53 0
 1320 057a 488D45B0 		leaq	-80(%rbp), %rax
 1321 057e 0F57C0   		xorps	%xmm0, %xmm0
 1322 0581 BE000000 		movl	$_ZN12_GLOBAL__N_1L7detailsE, %esi
 1322      00
 1323 0586 4889C7   		movq	%rax, %rdi
 1324 0589 E8000000 		call	_ZN8UnitTest11TestResults12OnTestFinishERKNS_11TestDetailsEf
 1324      00
 1325              	.LEHE24:
 1326              	.LEHB25:
  54:TestTestResults.cpp **** 
  55:TestTestResults.cpp ****     CHECK_EQUAL (2, results.GetFailedTestCount());
 1327              		.loc 5 55 0
 1328 058e E8000000 		call	_ZN8UnitTest11CurrentTest7DetailsEv
 1328      00
 1329 0593 488B08   		movq	(%rax), %rcx
 1330 0596 488D45D0 		leaq	-48(%rbp), %rax
 1331 059a BA370000 		movl	$55, %edx
 1331      00
 1332 059f 4889CE   		movq	%rcx, %rsi
 1333 05a2 4889C7   		movq	%rax, %rdi
 1334 05a5 E8000000 		call	_ZN8UnitTest11TestDetailsC1ERKS0_i
 1334      00
 1335              		.loc 5 55 0 is_stmt 0 discriminator 1
 1336 05aa 488D45B0 		leaq	-80(%rbp), %rax
 1337 05ae 4889C7   		movq	%rax, %rdi
 1338 05b1 E8000000 		call	_ZNK8UnitTest11TestResults18GetFailedTestCountEv
 1338      00
 1339 05b6 8945AC   		movl	%eax, -84(%rbp)
 1340 05b9 C745A802 		movl	$2, -88(%rbp)
 1340      000000
 1341 05c0 E8000000 		call	_ZN8UnitTest11CurrentTest7ResultsEv
 1341      00
 1342 05c5 488B00   		movq	(%rax), %rax
 1343 05c8 488D4DD0 		leaq	-48(%rbp), %rcx
 1344 05cc 488D55AC 		leaq	-84(%rbp), %rdx
 1345 05d0 488D75A8 		leaq	-88(%rbp), %rsi
 1346 05d4 4889C7   		movq	%rax, %rdi
 1347 05d7 E8000000 		call	_ZN8UnitTest10CheckEqualIiiEEvRNS_11TestResultsERKT_RKT0_RKNS_11TestDetailsE
 1347      00
 1348              	.LEHE25:
 1349              	.LBE22:
  56:TestTestResults.cpp **** }
 1350              		.loc 5 56 0 is_stmt 1
 1351 05dc EB58     		jmp	.L54
 1352              	.L53:
 1353 05de 4889C3   		movq	%rax, %rbx
 1354              	.LBB23:
  55:TestTestResults.cpp **** }
 1355              		.loc 5 55 0
 1356 05e1 E8000000 		call	__cxa_end_catch
 1356      00
 1357 05e6 4889D8   		movq	%rbx, %rax
 1358 05e9 4889C7   		movq	%rax, %rdi
 1359              	.LEHB26:
 1360 05ec E8000000 		call	_Unwind_Resume
 1360      00
 1361              	.LEHE26:
 1362              	.L52:
 1363 05f1 4889C7   		movq	%rax, %rdi
 1364 05f4 E8000000 		call	__cxa_begin_catch
 1364      00
 1365              	.LEHB27:
 1366 05f9 E8000000 		call	_ZN8UnitTest11CurrentTest7DetailsEv
 1366      00
 1367 05fe 488B08   		movq	(%rax), %rcx
 1368 0601 488D45D0 		leaq	-48(%rbp), %rax
 1369 0605 BA370000 		movl	$55, %edx
 1369      00
 1370 060a 4889CE   		movq	%rcx, %rsi
 1371 060d 4889C7   		movq	%rax, %rdi
 1372 0610 E8000000 		call	_ZN8UnitTest11TestDetailsC1ERKS0_i
 1372      00
  55:TestTestResults.cpp **** }
 1373              		.loc 5 55 0 is_stmt 0 discriminator 1
 1374 0615 E8000000 		call	_ZN8UnitTest11CurrentTest7ResultsEv
 1374      00
 1375 061a 488B00   		movq	(%rax), %rax
 1376 061d 488D4DD0 		leaq	-48(%rbp), %rcx
 1377 0621 BA000000 		movl	$.LC13, %edx
 1377      00
 1378 0626 4889CE   		movq	%rcx, %rsi
 1379 0629 4889C7   		movq	%rax, %rdi
 1380 062c E8000000 		call	_ZN8UnitTest11TestResults13OnTestFailureERKNS_11TestDetailsEPKc
 1380      00
 1381              	.LEHE27:
 1382              	.LEHB28:
 1383 0631 E8000000 		call	__cxa_end_catch
 1383      00
 1384              	.LEHE28:
 1385              	.L54:
 1386              	.LBE23:
 1387              		.loc 5 56 0 is_stmt 1
 1388 0636 90       		nop
 1389 0637 4883C468 		addq	$104, %rsp
 1390 063b 5B       		popq	%rbx
 1391 063c 5D       		popq	%rbp
 1392              		.cfi_def_cfa 7, 8
 1393 063d C3       		ret
 1394              		.cfi_endproc
 1395              	.LFE1048:
 1396              		.section	.gcc_except_table
 1397              		.align 4
 1398              	.LLSDA1048:
 1399 0090 FF       		.byte	0xff
 1400 0091 03       		.byte	0x3
 1401 0092 25       		.uleb128 .LLSDATT1048-.LLSDATTD1048
 1402              	.LLSDATTD1048:
 1403 0093 01       		.byte	0x1
 1404 0094 1B       		.uleb128 .LLSDACSE1048-.LLSDACSB1048
 1405              	.LLSDACSB1048:
 1406 0095 19       		.uleb128 .LEHB24-.LFB1048
 1407 0096 A701     		.uleb128 .LEHE24-.LEHB24
 1408 0098 00       		.uleb128 0
 1409 0099 00       		.uleb128 0
 1410 009a C001     		.uleb128 .LEHB25-.LFB1048
 1411 009c 4E       		.uleb128 .LEHE25-.LEHB25
 1412 009d A302     		.uleb128 .L52-.LFB1048
 1413 009f 01       		.uleb128 0x1
 1414 00a0 9E02     		.uleb128 .LEHB26-.LFB1048
 1415 00a2 05       		.uleb128 .LEHE26-.LEHB26
 1416 00a3 00       		.uleb128 0
 1417 00a4 00       		.uleb128 0
 1418 00a5 AB02     		.uleb128 .LEHB27-.LFB1048
 1419 00a7 38       		.uleb128 .LEHE27-.LEHB27
 1420 00a8 9002     		.uleb128 .L53-.LFB1048
 1421 00aa 00       		.uleb128 0
 1422 00ab E302     		.uleb128 .LEHB28-.LFB1048
 1423 00ad 05       		.uleb128 .LEHE28-.LEHB28
 1424 00ae 00       		.uleb128 0
 1425 00af 00       		.uleb128 0
 1426              	.LLSDACSE1048:
 1427 00b0 01       		.byte	0x1
 1428 00b1 00       		.byte	0
 1429 00b2 0000     		.align 4
 1430 00b4 00000000 		.long	0
 1431              	
 1432              	.LLSDATT1048:
 1433              		.text
 1435              		.section	.rodata
 1436 01fc 00000000 		.align 8
 1437              	.LC14:
 1438 0200 4E6F7469 		.string	"NotifiesReporterOfTestStartWithCorrectInfo"
 1438      66696573 
 1438      5265706F 
 1438      72746572 
 1438      4F665465 
 1439              		.text
 1440              		.align 2
 1442              	_ZN12_GLOBAL__N_146TestNotifiesReporterOfTestStartWithCorrectInfoC2Ev:
 1443              	.LFB1050:
  57:TestTestResults.cpp **** 
  58:TestTestResults.cpp **** TEST(NotifiesReporterOfTestStartWithCorrectInfo)
 1444              		.loc 5 58 0
 1445              		.cfi_startproc
 1446 063e 55       		pushq	%rbp
 1447              		.cfi_def_cfa_offset 16
 1448              		.cfi_offset 6, -16
 1449 063f 4889E5   		movq	%rsp, %rbp
 1450              		.cfi_def_cfa_register 6
 1451 0642 4883EC10 		subq	$16, %rsp
 1452 0646 48897DF8 		movq	%rdi, -8(%rbp)
 1453              	.LBB24:
 1454              		.loc 5 58 0
 1455 064a E8000000 		call	_ZN13UnitTestSuite12GetSuiteNameEv
 1455      00
 1456 064f 4889C2   		movq	%rax, %rdx
 1457 0652 488B45F8 		movq	-8(%rbp), %rax
 1458 0656 41B83A00 		movl	$58, %r8d
 1458      0000
 1459 065c B9000000 		movl	$.LC2, %ecx
 1459      00
 1460 0661 BE000000 		movl	$.LC14, %esi
 1460      00
 1461 0666 4889C7   		movq	%rax, %rdi
 1462 0669 E8000000 		call	_ZN8UnitTest4TestC2EPKcS2_S2_i
 1462      00
 1463 066e 488B45F8 		movq	-8(%rbp), %rax
 1464 0672 48C70000 		movq	$_ZTVN12_GLOBAL__N_146TestNotifiesReporterOfTestStartWithCorrectInfoE+16, (%rax)
 1464      000000
 1465              	.LBE24:
 1466 0679 C9       		leave
 1467              		.cfi_def_cfa 7, 8
 1468 067a C3       		ret
 1469              		.cfi_endproc
 1470              	.LFE1050:
 1472              		.set	_ZN12_GLOBAL__N_146TestNotifiesReporterOfTestStartWithCorrectInfoC1Ev,_ZN12_GLOBAL__N_146Test
 1473              		.local	_ZN12_GLOBAL__N_154testNotifiesReporterOfTestStartWithCorrectInfoInstanceE
 1474              		.comm	_ZN12_GLOBAL__N_154testNotifiesReporterOfTestStartWithCorrectInfoInstanceE,56,32
 1475              		.local	_ZN12_GLOBAL__N_147adderNotifiesReporterOfTestStartWithCorrectInfoE
 1476              		.comm	_ZN12_GLOBAL__N_147adderNotifiesReporterOfTestStartWithCorrectInfoE,1,1
 1477              		.section	.rodata
 1478              	.LC15:
 1479 022b 73756974 		.string	"suitename"
 1479      656E616D 
 1479      6500
 1480              	.LC16:
 1481 0235 74657374 		.string	"testname"
 1481      6E616D65 
 1481      00
 1482 023e 0000     		.align 8
 1483              	.LC17:
 1484 0240 556E6861 		.string	"Unhandled exception in CHECK_EQUAL(1, reporter.testRunCount)"
 1484      6E646C65 
 1484      64206578 
 1484      63657074 
 1484      696F6E20 
 1485 027d 000000   		.align 8
 1486              	.LC18:
 1487 0280 556E6861 		.string	"Unhandled exception in CHECK_EQUAL(\"suitename\", reporter.lastStartedSuite)"
 1487      6E646C65 
 1487      64206578 
 1487      63657074 
 1487      696F6E20 
 1488 02cb 00000000 		.align 8
 1488      00
 1489              	.LC19:
 1490 02d0 556E6861 		.string	"Unhandled exception in CHECK_EQUAL(\"testname\", reporter.lastStartedTest)"
 1490      6E646C65 
 1490      64206578 
 1490      63657074 
 1490      696F6E20 
 1491              		.text
 1492 067b 90       		.align 2
 1494              	_ZNK12_GLOBAL__N_146TestNotifiesReporterOfTestStartWithCorrectInfo7RunImplEv:
 1495              	.LFB1052:
  59:TestTestResults.cpp **** {
 1496              		.loc 5 59 0
 1497              		.cfi_startproc
 1498              		.cfi_personality 0x3,__gxx_personality_v0
 1499              		.cfi_lsda 0x3,.LLSDA1052
 1500 067c 55       		pushq	%rbp
 1501              		.cfi_def_cfa_offset 16
 1502              		.cfi_offset 6, -16
 1503 067d 4889E5   		movq	%rsp, %rbp
 1504              		.cfi_def_cfa_register 6
 1505 0680 53       		pushq	%rbx
 1506 0681 4881ECA8 		subq	$2216, %rsp
 1506      080000
 1507              		.cfi_offset 3, -24
 1508 0688 4889BD58 		movq	%rdi, -2216(%rbp)
 1508      F7FFFF
 1509              		.loc 5 59 0
 1510 068f 64488B04 		movq	%fs:40, %rax
 1510      25280000 
 1510      00
 1511 0698 488945E8 		movq	%rax, -24(%rbp)
 1512 069c 31C0     		xorl	%eax, %eax
 1513              	.LBB25:
  60:TestTestResults.cpp ****     RecordingReporter reporter;
 1514              		.loc 5 60 0
 1515 069e 488D85B0 		leaq	-2128(%rbp), %rax
 1515      F7FFFF
 1516 06a5 4889C7   		movq	%rax, %rdi
 1517 06a8 E8000000 		call	_ZN17RecordingReporterC1Ev
 1517      00
  61:TestTestResults.cpp ****     TestResults results(&reporter);
 1518              		.loc 5 61 0
 1519 06ad 488D95B0 		leaq	-2128(%rbp), %rdx
 1519      F7FFFF
 1520 06b4 488D8570 		leaq	-2192(%rbp), %rax
 1520      F7FFFF
 1521 06bb 4889D6   		movq	%rdx, %rsi
 1522 06be 4889C7   		movq	%rax, %rdi
 1523              	.LEHB29:
 1524 06c1 E8000000 		call	_ZN8UnitTest11TestResultsC1EPNS_12TestReporterE
 1524      00
  62:TestTestResults.cpp ****     results.OnTestStart(details);
 1525              		.loc 5 62 0
 1526 06c6 488D8570 		leaq	-2192(%rbp), %rax
 1526      F7FFFF
 1527 06cd BE000000 		movl	$_ZN12_GLOBAL__N_1L7detailsE, %esi
 1527      00
 1528 06d2 4889C7   		movq	%rax, %rdi
 1529 06d5 E8000000 		call	_ZN8UnitTest11TestResults11OnTestStartERKNS_11TestDetailsE
 1529      00
 1530              	.LEHE29:
 1531              	.LEHB30:
  63:TestTestResults.cpp **** 
  64:TestTestResults.cpp ****     CHECK_EQUAL (1, reporter.testRunCount);
 1532              		.loc 5 64 0
 1533 06da E8000000 		call	_ZN8UnitTest11CurrentTest7DetailsEv
 1533      00
 1534 06df 488B08   		movq	(%rax), %rcx
 1535 06e2 488D8590 		leaq	-2160(%rbp), %rax
 1535      F7FFFF
 1536 06e9 BA400000 		movl	$64, %edx
 1536      00
 1537 06ee 4889CE   		movq	%rcx, %rsi
 1538 06f1 4889C7   		movq	%rax, %rdi
 1539 06f4 E8000000 		call	_ZN8UnitTest11TestDetailsC1ERKS0_i
 1539      00
 1540              		.loc 5 64 0 is_stmt 0 discriminator 1
 1541 06f9 C7856CF7 		movl	$1, -2196(%rbp)
 1541      FFFF0100 
 1541      0000
 1542 0703 E8000000 		call	_ZN8UnitTest11CurrentTest7ResultsEv
 1542      00
 1543 0708 488B00   		movq	(%rax), %rax
 1544 070b 488D9590 		leaq	-2160(%rbp), %rdx
 1544      F7FFFF
 1545 0712 488D8DB0 		leaq	-2128(%rbp), %rcx
 1545      F7FFFF
 1546 0719 488D7908 		leaq	8(%rcx), %rdi
 1547 071d 488DB56C 		leaq	-2196(%rbp), %rsi
 1547      F7FFFF
 1548 0724 4889D1   		movq	%rdx, %rcx
 1549 0727 4889FA   		movq	%rdi, %rdx
 1550 072a 4889C7   		movq	%rax, %rdi
 1551 072d E8000000 		call	_ZN8UnitTest10CheckEqualIiiEEvRNS_11TestResultsERKT_RKT0_RKNS_11TestDetailsE
 1551      00
 1552              	.LEHE30:
 1553              	.L60:
 1554              	.LEHB31:
  65:TestTestResults.cpp ****     CHECK_EQUAL ("suitename", reporter.lastStartedSuite);
 1555              		.loc 5 65 0 is_stmt 1
 1556 0732 E8000000 		call	_ZN8UnitTest11CurrentTest7DetailsEv
 1556      00
 1557 0737 488B08   		movq	(%rax), %rcx
 1558 073a 488D8590 		leaq	-2160(%rbp), %rax
 1558      F7FFFF
 1559 0741 BA410000 		movl	$65, %edx
 1559      00
 1560 0746 4889CE   		movq	%rcx, %rsi
 1561 0749 4889C7   		movq	%rax, %rdi
 1562 074c E8000000 		call	_ZN8UnitTest11TestDetailsC1ERKS0_i
 1562      00
 1563              		.loc 5 65 0 is_stmt 0 discriminator 1
 1564 0751 E8000000 		call	_ZN8UnitTest11CurrentTest7ResultsEv
 1564      00
 1565 0756 488B00   		movq	(%rax), %rax
 1566 0759 488D9590 		leaq	-2160(%rbp), %rdx
 1566      F7FFFF
 1567 0760 488D8DB0 		leaq	-2128(%rbp), %rcx
 1567      F7FFFF
 1568 0767 488D710C 		leaq	12(%rcx), %rsi
 1569 076b 4889D1   		movq	%rdx, %rcx
 1570 076e 4889F2   		movq	%rsi, %rdx
 1571 0771 BE000000 		movl	$.LC15, %esi
 1571      00
 1572 0776 4889C7   		movq	%rax, %rdi
 1573 0779 E8000000 		call	_ZN8UnitTest10CheckEqualERNS_11TestResultsEPKcPcRKNS_11TestDetailsE
 1573      00
 1574              	.LEHE31:
 1575              	.L63:
 1576              	.LEHB32:
  66:TestTestResults.cpp ****     CHECK_EQUAL ("testname", reporter.lastStartedTest);
 1577              		.loc 5 66 0 is_stmt 1
 1578 077e E8000000 		call	_ZN8UnitTest11CurrentTest7DetailsEv
 1578      00
 1579 0783 488B08   		movq	(%rax), %rcx
 1580 0786 488D8590 		leaq	-2160(%rbp), %rax
 1580      F7FFFF
 1581 078d BA420000 		movl	$66, %edx
 1581      00
 1582 0792 4889CE   		movq	%rcx, %rsi
 1583 0795 4889C7   		movq	%rax, %rdi
 1584 0798 E8000000 		call	_ZN8UnitTest11TestDetailsC1ERKS0_i
 1584      00
 1585              		.loc 5 66 0 is_stmt 0 discriminator 1
 1586 079d E8000000 		call	_ZN8UnitTest11CurrentTest7ResultsEv
 1586      00
 1587 07a2 488B00   		movq	(%rax), %rax
 1588 07a5 488D9590 		leaq	-2160(%rbp), %rdx
 1588      F7FFFF
 1589 07ac 488D8DB0 		leaq	-2128(%rbp), %rcx
 1589      F7FFFF
 1590 07b3 488DB10C 		leaq	268(%rcx), %rsi
 1590      010000
 1591 07ba 4889D1   		movq	%rdx, %rcx
 1592 07bd 4889F2   		movq	%rsi, %rdx
 1593 07c0 BE000000 		movl	$.LC16, %esi
 1593      00
 1594 07c5 4889C7   		movq	%rax, %rdi
 1595 07c8 E8000000 		call	_ZN8UnitTest10CheckEqualERNS_11TestResultsEPKcPcRKNS_11TestDetailsE
 1595      00
 1596              	.LEHE32:
 1597              	.L66:
 1598              		.loc 5 66 0 discriminator 2
 1599 07cd 488D85B0 		leaq	-2128(%rbp), %rax
 1599      F7FFFF
 1600 07d4 4889C7   		movq	%rax, %rdi
 1601              	.LEHB33:
 1602 07d7 E8000000 		call	_ZN17RecordingReporterD1Ev
 1602      00
 1603              	.LEHE33:
 1604              	.LBE25:
  67:TestTestResults.cpp **** }
 1605              		.loc 5 67 0 is_stmt 1 discriminator 2
 1606 07dc 488B45E8 		movq	-24(%rbp), %rax
 1607 07e0 64483304 		xorq	%fs:40, %rax
 1607      25280000 
 1607      00
 1608 07e9 0F843B01 		je	.L67
 1608      0000
 1609 07ef E9310100 		jmp	.L75
 1609      00
 1610              	.L70:
 1611 07f4 4889C3   		movq	%rax, %rbx
 1612              	.LBB26:
  64:TestTestResults.cpp ****     CHECK_EQUAL ("suitename", reporter.lastStartedSuite);
 1613              		.loc 5 64 0
 1614 07f7 E8000000 		call	__cxa_end_catch
 1614      00
 1615 07fc E90A0100 		jmp	.L58
 1615      00
 1616              	.L69:
 1617 0801 4889C7   		movq	%rax, %rdi
 1618 0804 E8000000 		call	__cxa_begin_catch
 1618      00
 1619              	.LEHB34:
 1620 0809 E8000000 		call	_ZN8UnitTest11CurrentTest7DetailsEv
 1620      00
 1621 080e 488B08   		movq	(%rax), %rcx
 1622 0811 488D8590 		leaq	-2160(%rbp), %rax
 1622      F7FFFF
 1623 0818 BA400000 		movl	$64, %edx
 1623      00
 1624 081d 4889CE   		movq	%rcx, %rsi
 1625 0820 4889C7   		movq	%rax, %rdi
 1626 0823 E8000000 		call	_ZN8UnitTest11TestDetailsC1ERKS0_i
 1626      00
  64:TestTestResults.cpp ****     CHECK_EQUAL ("suitename", reporter.lastStartedSuite);
 1627              		.loc 5 64 0 is_stmt 0 discriminator 1
 1628 0828 E8000000 		call	_ZN8UnitTest11CurrentTest7ResultsEv
 1628      00
 1629 082d 488B00   		movq	(%rax), %rax
 1630 0830 488D8D90 		leaq	-2160(%rbp), %rcx
 1630      F7FFFF
 1631 0837 BA000000 		movl	$.LC17, %edx
 1631      00
 1632 083c 4889CE   		movq	%rcx, %rsi
 1633 083f 4889C7   		movq	%rax, %rdi
 1634 0842 E8000000 		call	_ZN8UnitTest11TestResults13OnTestFailureERKNS_11TestDetailsEPKc
 1634      00
 1635              	.LEHE34:
 1636              	.LEHB35:
 1637 0847 E8000000 		call	__cxa_end_catch
 1637      00
 1638              	.LEHE35:
  64:TestTestResults.cpp ****     CHECK_EQUAL ("suitename", reporter.lastStartedSuite);
 1639              		.loc 5 64 0
 1640 084c E9E1FEFF 		jmp	.L60
 1640      FF
 1641              	.L72:
 1642 0851 4889C3   		movq	%rax, %rbx
  65:TestTestResults.cpp ****     CHECK_EQUAL ("testname", reporter.lastStartedTest);
 1643              		.loc 5 65 0 is_stmt 1
 1644 0854 E8000000 		call	__cxa_end_catch
 1644      00
 1645 0859 E9AD0000 		jmp	.L58
 1645      00
 1646              	.L71:
 1647 085e 4889C7   		movq	%rax, %rdi
 1648 0861 E8000000 		call	__cxa_begin_catch
 1648      00
 1649              	.LEHB36:
 1650 0866 E8000000 		call	_ZN8UnitTest11CurrentTest7DetailsEv
 1650      00
 1651 086b 488B08   		movq	(%rax), %rcx
 1652 086e 488D8590 		leaq	-2160(%rbp), %rax
 1652      F7FFFF
 1653 0875 BA410000 		movl	$65, %edx
 1653      00
 1654 087a 4889CE   		movq	%rcx, %rsi
 1655 087d 4889C7   		movq	%rax, %rdi
 1656 0880 E8000000 		call	_ZN8UnitTest11TestDetailsC1ERKS0_i
 1656      00
  65:TestTestResults.cpp ****     CHECK_EQUAL ("testname", reporter.lastStartedTest);
 1657              		.loc 5 65 0 is_stmt 0 discriminator 1
 1658 0885 E8000000 		call	_ZN8UnitTest11CurrentTest7ResultsEv
 1658      00
 1659 088a 488B00   		movq	(%rax), %rax
 1660 088d 488D8D90 		leaq	-2160(%rbp), %rcx
 1660      F7FFFF
 1661 0894 BA000000 		movl	$.LC18, %edx
 1661      00
 1662 0899 4889CE   		movq	%rcx, %rsi
 1663 089c 4889C7   		movq	%rax, %rdi
 1664 089f E8000000 		call	_ZN8UnitTest11TestResults13OnTestFailureERKNS_11TestDetailsEPKc
 1664      00
 1665              	.LEHE36:
 1666              	.LEHB37:
 1667 08a4 E8000000 		call	__cxa_end_catch
 1667      00
 1668              	.LEHE37:
  65:TestTestResults.cpp ****     CHECK_EQUAL ("testname", reporter.lastStartedTest);
 1669              		.loc 5 65 0
 1670 08a9 E9D0FEFF 		jmp	.L63
 1670      FF
 1671              	.L74:
 1672 08ae 4889C3   		movq	%rax, %rbx
  66:TestTestResults.cpp **** }
 1673              		.loc 5 66 0 is_stmt 1
 1674 08b1 E8000000 		call	__cxa_end_catch
 1674      00
 1675 08b6 EB53     		jmp	.L58
 1676              	.L73:
 1677 08b8 4889C7   		movq	%rax, %rdi
 1678 08bb E8000000 		call	__cxa_begin_catch
 1678      00
 1679              	.LEHB38:
 1680 08c0 E8000000 		call	_ZN8UnitTest11CurrentTest7DetailsEv
 1680      00
 1681 08c5 488B08   		movq	(%rax), %rcx
 1682 08c8 488D8590 		leaq	-2160(%rbp), %rax
 1682      F7FFFF
 1683 08cf BA420000 		movl	$66, %edx
 1683      00
 1684 08d4 4889CE   		movq	%rcx, %rsi
 1685 08d7 4889C7   		movq	%rax, %rdi
 1686 08da E8000000 		call	_ZN8UnitTest11TestDetailsC1ERKS0_i
 1686      00
  66:TestTestResults.cpp **** }
 1687              		.loc 5 66 0 is_stmt 0 discriminator 1
 1688 08df E8000000 		call	_ZN8UnitTest11CurrentTest7ResultsEv
 1688      00
 1689 08e4 488B00   		movq	(%rax), %rax
 1690 08e7 488D8D90 		leaq	-2160(%rbp), %rcx
 1690      F7FFFF
 1691 08ee BA000000 		movl	$.LC19, %edx
 1691      00
 1692 08f3 4889CE   		movq	%rcx, %rsi
 1693 08f6 4889C7   		movq	%rax, %rdi
 1694 08f9 E8000000 		call	_ZN8UnitTest11TestResults13OnTestFailureERKNS_11TestDetailsEPKc
 1694      00
 1695              	.LEHE38:
 1696              	.LEHB39:
 1697 08fe E8000000 		call	__cxa_end_catch
 1697      00
 1698              	.LEHE39:
  66:TestTestResults.cpp **** }
 1699              		.loc 5 66 0
 1700 0903 E9C5FEFF 		jmp	.L66
 1700      FF
 1701              	.L68:
 1702 0908 4889C3   		movq	%rax, %rbx
 1703              	.L58:
 1704 090b 488D85B0 		leaq	-2128(%rbp), %rax
 1704      F7FFFF
 1705 0912 4889C7   		movq	%rax, %rdi
 1706 0915 E8000000 		call	_ZN17RecordingReporterD1Ev
 1706      00
 1707 091a 4889D8   		movq	%rbx, %rax
 1708 091d 4889C7   		movq	%rax, %rdi
 1709              	.LEHB40:
 1710 0920 E8000000 		call	_Unwind_Resume
 1710      00
 1711              	.LEHE40:
 1712              	.L75:
 1713              	.LBE26:
 1714              		.loc 5 67 0 is_stmt 1
 1715 0925 E8000000 		call	__stack_chk_fail
 1715      00
 1716              	.L67:
 1717 092a 4881C4A8 		addq	$2216, %rsp
 1717      080000
 1718 0931 5B       		popq	%rbx
 1719 0932 5D       		popq	%rbp
 1720              		.cfi_def_cfa 7, 8
 1721 0933 C3       		ret
 1722              		.cfi_endproc
 1723              	.LFE1052:
 1724              		.section	.gcc_except_table
 1725              		.align 4
 1726              	.LLSDA1052:
 1727 00b8 FF       		.byte	0xff
 1728 00b9 03       		.byte	0x3
 1729 00ba 4D       		.uleb128 .LLSDATT1052-.LLSDATTD1052
 1730              	.LLSDATTD1052:
 1731 00bb 01       		.byte	0x1
 1732 00bc 44       		.uleb128 .LLSDACSE1052-.LLSDACSB1052
 1733              	.LLSDACSB1052:
 1734 00bd 45       		.uleb128 .LEHB29-.LFB1052
 1735 00be 19       		.uleb128 .LEHE29-.LEHB29
 1736 00bf 8C05     		.uleb128 .L68-.LFB1052
 1737 00c1 00       		.uleb128 0
 1738 00c2 5E       		.uleb128 .LEHB30-.LFB1052
 1739 00c3 58       		.uleb128 .LEHE30-.LEHB30
 1740 00c4 8503     		.uleb128 .L69-.LFB1052
 1741 00c6 01       		.uleb128 0x1
 1742 00c7 B601     		.uleb128 .LEHB31-.LFB1052
 1743 00c9 4C       		.uleb128 .LEHE31-.LEHB31
 1744 00ca E203     		.uleb128 .L71-.LFB1052
 1745 00cc 01       		.uleb128 0x1
 1746 00cd 8202     		.uleb128 .LEHB32-.LFB1052
 1747 00cf 4F       		.uleb128 .LEHE32-.LEHB32
 1748 00d0 BC04     		.uleb128 .L73-.LFB1052
 1749 00d2 01       		.uleb128 0x1
 1750 00d3 DB02     		.uleb128 .LEHB33-.LFB1052
 1751 00d5 05       		.uleb128 .LEHE33-.LEHB33
 1752 00d6 00       		.uleb128 0
 1753 00d7 00       		.uleb128 0
 1754 00d8 8D03     		.uleb128 .LEHB34-.LFB1052
 1755 00da 3E       		.uleb128 .LEHE34-.LEHB34
 1756 00db F802     		.uleb128 .L70-.LFB1052
 1757 00dd 00       		.uleb128 0
 1758 00de CB03     		.uleb128 .LEHB35-.LFB1052
 1759 00e0 05       		.uleb128 .LEHE35-.LEHB35
 1760 00e1 8C05     		.uleb128 .L68-.LFB1052
 1761 00e3 00       		.uleb128 0
 1762 00e4 EA03     		.uleb128 .LEHB36-.LFB1052
 1763 00e6 3E       		.uleb128 .LEHE36-.LEHB36
 1764 00e7 D503     		.uleb128 .L72-.LFB1052
 1765 00e9 00       		.uleb128 0
 1766 00ea A804     		.uleb128 .LEHB37-.LFB1052
 1767 00ec 05       		.uleb128 .LEHE37-.LEHB37
 1768 00ed 8C05     		.uleb128 .L68-.LFB1052
 1769 00ef 00       		.uleb128 0
 1770 00f0 C404     		.uleb128 .LEHB38-.LFB1052
 1771 00f2 3E       		.uleb128 .LEHE38-.LEHB38
 1772 00f3 B204     		.uleb128 .L74-.LFB1052
 1773 00f5 00       		.uleb128 0
 1774 00f6 8205     		.uleb128 .LEHB39-.LFB1052
 1775 00f8 05       		.uleb128 .LEHE39-.LEHB39
 1776 00f9 8C05     		.uleb128 .L68-.LFB1052
 1777 00fb 00       		.uleb128 0
 1778 00fc A405     		.uleb128 .LEHB40-.LFB1052
 1779 00fe 05       		.uleb128 .LEHE40-.LEHB40
 1780 00ff 00       		.uleb128 0
 1781 0100 00       		.uleb128 0
 1782              	.LLSDACSE1052:
 1783 0101 01       		.byte	0x1
 1784 0102 00       		.byte	0
 1785 0103 00       		.align 4
 1786 0104 00000000 		.long	0
 1787              	
 1788              	.LLSDATT1052:
 1789              		.text
 1791              		.section	.rodata
 1792 0319 00000000 		.align 8
 1792      000000
 1793              	.LC20:
 1794 0320 4E6F7469 		.string	"NotifiesReporterOfTestFailureWithCorrectInfo"
 1794      66696573 
 1794      5265706F 
 1794      72746572 
 1794      4F665465 
 1795              		.text
 1796              		.align 2
 1798              	_ZN12_GLOBAL__N_148TestNotifiesReporterOfTestFailureWithCorrectInfoC2Ev:
 1799              	.LFB1054:
  68:TestTestResults.cpp **** 
  69:TestTestResults.cpp **** TEST(NotifiesReporterOfTestFailureWithCorrectInfo)
 1800              		.loc 5 69 0
 1801              		.cfi_startproc
 1802 0934 55       		pushq	%rbp
 1803              		.cfi_def_cfa_offset 16
 1804              		.cfi_offset 6, -16
 1805 0935 4889E5   		movq	%rsp, %rbp
 1806              		.cfi_def_cfa_register 6
 1807 0938 4883EC10 		subq	$16, %rsp
 1808 093c 48897DF8 		movq	%rdi, -8(%rbp)
 1809              	.LBB27:
 1810              		.loc 5 69 0
 1811 0940 E8000000 		call	_ZN13UnitTestSuite12GetSuiteNameEv
 1811      00
 1812 0945 4889C2   		movq	%rax, %rdx
 1813 0948 488B45F8 		movq	-8(%rbp), %rax
 1814 094c 41B84500 		movl	$69, %r8d
 1814      0000
 1815 0952 B9000000 		movl	$.LC2, %ecx
 1815      00
 1816 0957 BE000000 		movl	$.LC20, %esi
 1816      00
 1817 095c 4889C7   		movq	%rax, %rdi
 1818 095f E8000000 		call	_ZN8UnitTest4TestC2EPKcS2_S2_i
 1818      00
 1819 0964 488B45F8 		movq	-8(%rbp), %rax
 1820 0968 48C70000 		movq	$_ZTVN12_GLOBAL__N_148TestNotifiesReporterOfTestFailureWithCorrectInfoE+16, (%rax)
 1820      000000
 1821              	.LBE27:
 1822 096f C9       		leave
 1823              		.cfi_def_cfa 7, 8
 1824 0970 C3       		ret
 1825              		.cfi_endproc
 1826              	.LFE1054:
 1828              		.set	_ZN12_GLOBAL__N_148TestNotifiesReporterOfTestFailureWithCorrectInfoC1Ev,_ZN12_GLOBAL__N_148Te
 1829              		.local	_ZN12_GLOBAL__N_156testNotifiesReporterOfTestFailureWithCorrectInfoInstanceE
 1830              		.comm	_ZN12_GLOBAL__N_156testNotifiesReporterOfTestFailureWithCorrectInfoInstanceE,56,32
 1831              		.local	_ZN12_GLOBAL__N_149adderNotifiesReporterOfTestFailureWithCorrectInfoE
 1832              		.comm	_ZN12_GLOBAL__N_149adderNotifiesReporterOfTestFailureWithCorrectInfoE,1,1
 1833              		.section	.rodata
 1834              	.LC21:
 1835 034d 6661696C 		.string	"failurestring"
 1835      75726573 
 1835      7472696E 
 1835      6700
 1836              	.LC22:
 1837 035b 66696C65 		.string	"filename"
 1837      6E616D65 
 1837      00
 1838 0364 00000000 		.align 8
 1839              	.LC23:
 1840 0368 556E6861 		.string	"Unhandled exception in CHECK_EQUAL(1, reporter.testFailedCount)"
 1840      6E646C65 
 1840      64206578 
 1840      63657074 
 1840      696F6E20 
 1841              		.align 8
 1842              	.LC24:
 1843 03a8 556E6861 		.string	"Unhandled exception in CHECK_EQUAL(\"filename\", reporter.lastFailedFile)"
 1843      6E646C65 
 1843      64206578 
 1843      63657074 
 1843      696F6E20 
 1844              		.align 8
 1845              	.LC25:
 1846 03f0 556E6861 		.string	"Unhandled exception in CHECK_EQUAL(123, reporter.lastFailedLine)"
 1846      6E646C65 
 1846      64206578 
 1846      63657074 
 1846      696F6E20 
 1847 0431 00000000 		.align 8
 1847      000000
 1848              	.LC26:
 1849 0438 556E6861 		.string	"Unhandled exception in CHECK_EQUAL(\"suitename\", reporter.lastFailedSuite)"
 1849      6E646C65 
 1849      64206578 
 1849      63657074 
 1849      696F6E20 
 1850 0482 00000000 		.align 8
 1850      0000
 1851              	.LC27:
 1852 0488 556E6861 		.string	"Unhandled exception in CHECK_EQUAL(\"testname\", reporter.lastFailedTest)"
 1852      6E646C65 
 1852      64206578 
 1852      63657074 
 1852      696F6E20 
 1853              		.align 8
 1854              	.LC28:
 1855 04d0 556E6861 		.string	"Unhandled exception in CHECK_EQUAL(\"failurestring\", reporter.lastFailedMessage)"
 1855      6E646C65 
 1855      64206578 
 1855      63657074 
 1855      696F6E20 
 1856              		.text
 1857 0971 90       		.align 2
 1859              	_ZNK12_GLOBAL__N_148TestNotifiesReporterOfTestFailureWithCorrectInfo7RunImplEv:
 1860              	.LFB1056:
  70:TestTestResults.cpp **** {
 1861              		.loc 5 70 0
 1862              		.cfi_startproc
 1863              		.cfi_personality 0x3,__gxx_personality_v0
 1864              		.cfi_lsda 0x3,.LLSDA1056
 1865 0972 55       		pushq	%rbp
 1866              		.cfi_def_cfa_offset 16
 1867              		.cfi_offset 6, -16
 1868 0973 4889E5   		movq	%rsp, %rbp
 1869              		.cfi_def_cfa_register 6
 1870 0976 53       		pushq	%rbx
 1871 0977 4881ECA8 		subq	$2216, %rsp
 1871      080000
 1872              		.cfi_offset 3, -24
 1873 097e 4889BD58 		movq	%rdi, -2216(%rbp)
 1873      F7FFFF
 1874              		.loc 5 70 0
 1875 0985 64488B04 		movq	%fs:40, %rax
 1875      25280000 
 1875      00
 1876 098e 488945E8 		movq	%rax, -24(%rbp)
 1877 0992 31C0     		xorl	%eax, %eax
 1878              	.LBB28:
  71:TestTestResults.cpp ****     RecordingReporter reporter;
 1879              		.loc 5 71 0
 1880 0994 488D85B0 		leaq	-2128(%rbp), %rax
 1880      F7FFFF
 1881 099b 4889C7   		movq	%rax, %rdi
 1882 099e E8000000 		call	_ZN17RecordingReporterC1Ev
 1882      00
  72:TestTestResults.cpp ****     TestResults results(&reporter);
 1883              		.loc 5 72 0
 1884 09a3 488D95B0 		leaq	-2128(%rbp), %rdx
 1884      F7FFFF
 1885 09aa 488D8570 		leaq	-2192(%rbp), %rax
 1885      F7FFFF
 1886 09b1 4889D6   		movq	%rdx, %rsi
 1887 09b4 4889C7   		movq	%rax, %rdi
 1888              	.LEHB41:
 1889 09b7 E8000000 		call	_ZN8UnitTest11TestResultsC1EPNS_12TestReporterE
 1889      00
  73:TestTestResults.cpp **** 
  74:TestTestResults.cpp ****     results.OnTestFailure(details, "failurestring");
 1890              		.loc 5 74 0
 1891 09bc 488D8570 		leaq	-2192(%rbp), %rax
 1891      F7FFFF
 1892 09c3 BA000000 		movl	$.LC21, %edx
 1892      00
 1893 09c8 BE000000 		movl	$_ZN12_GLOBAL__N_1L7detailsE, %esi
 1893      00
 1894 09cd 4889C7   		movq	%rax, %rdi
 1895 09d0 E8000000 		call	_ZN8UnitTest11TestResults13OnTestFailureERKNS_11TestDetailsEPKc
 1895      00
 1896              	.LEHE41:
 1897              	.LEHB42:
  75:TestTestResults.cpp ****     CHECK_EQUAL (1, reporter.testFailedCount);
 1898              		.loc 5 75 0
 1899 09d5 E8000000 		call	_ZN8UnitTest11CurrentTest7DetailsEv
 1899      00
 1900 09da 488B08   		movq	(%rax), %rcx
 1901 09dd 488D8590 		leaq	-2160(%rbp), %rax
 1901      F7FFFF
 1902 09e4 BA4B0000 		movl	$75, %edx
 1902      00
 1903 09e9 4889CE   		movq	%rcx, %rsi
 1904 09ec 4889C7   		movq	%rax, %rdi
 1905 09ef E8000000 		call	_ZN8UnitTest11TestDetailsC1ERKS0_i
 1905      00
 1906              		.loc 5 75 0 is_stmt 0 discriminator 1
 1907 09f4 C7856CF7 		movl	$1, -2196(%rbp)
 1907      FFFF0100 
 1907      0000
 1908 09fe E8000000 		call	_ZN8UnitTest11CurrentTest7ResultsEv
 1908      00
 1909 0a03 488B00   		movq	(%rax), %rax
 1910 0a06 488D9590 		leaq	-2160(%rbp), %rdx
 1910      F7FFFF
 1911 0a0d 488D8DB0 		leaq	-2128(%rbp), %rcx
 1911      F7FFFF
 1912 0a14 488DB90C 		leaq	524(%rcx), %rdi
 1912      020000
 1913 0a1b 488DB56C 		leaq	-2196(%rbp), %rsi
 1913      F7FFFF
 1914 0a22 4889D1   		movq	%rdx, %rcx
 1915 0a25 4889FA   		movq	%rdi, %rdx
 1916 0a28 4889C7   		movq	%rax, %rdi
 1917 0a2b E8000000 		call	_ZN8UnitTest10CheckEqualIiiEEvRNS_11TestResultsERKT_RKT0_RKNS_11TestDetailsE
 1917      00
 1918              	.LEHE42:
 1919              	.L81:
 1920              	.LEHB43:
  76:TestTestResults.cpp ****     CHECK_EQUAL ("filename", reporter.lastFailedFile);
 1921              		.loc 5 76 0 is_stmt 1
 1922 0a30 E8000000 		call	_ZN8UnitTest11CurrentTest7DetailsEv
 1922      00
 1923 0a35 488B08   		movq	(%rax), %rcx
 1924 0a38 488D8590 		leaq	-2160(%rbp), %rax
 1924      F7FFFF
 1925 0a3f BA4C0000 		movl	$76, %edx
 1925      00
 1926 0a44 4889CE   		movq	%rcx, %rsi
 1927 0a47 4889C7   		movq	%rax, %rdi
 1928 0a4a E8000000 		call	_ZN8UnitTest11TestDetailsC1ERKS0_i
 1928      00
 1929              		.loc 5 76 0 is_stmt 0 discriminator 1
 1930 0a4f E8000000 		call	_ZN8UnitTest11CurrentTest7ResultsEv
 1930      00
 1931 0a54 488B00   		movq	(%rax), %rax
 1932 0a57 488D9590 		leaq	-2160(%rbp), %rdx
 1932      F7FFFF
 1933 0a5e 488D8DB0 		leaq	-2128(%rbp), %rcx
 1933      F7FFFF
 1934 0a65 488DB110 		leaq	528(%rcx), %rsi
 1934      020000
 1935 0a6c 4889D1   		movq	%rdx, %rcx
 1936 0a6f 4889F2   		movq	%rsi, %rdx
 1937 0a72 BE000000 		movl	$.LC22, %esi
 1937      00
 1938 0a77 4889C7   		movq	%rax, %rdi
 1939 0a7a E8000000 		call	_ZN8UnitTest10CheckEqualERNS_11TestResultsEPKcPcRKNS_11TestDetailsE
 1939      00
 1940              	.LEHE43:
 1941              	.L84:
 1942              	.LEHB44:
  77:TestTestResults.cpp ****     CHECK_EQUAL (123, reporter.lastFailedLine);
 1943              		.loc 5 77 0 is_stmt 1
 1944 0a7f E8000000 		call	_ZN8UnitTest11CurrentTest7DetailsEv
 1944      00
 1945 0a84 488B08   		movq	(%rax), %rcx
 1946 0a87 488D8590 		leaq	-2160(%rbp), %rax
 1946      F7FFFF
 1947 0a8e BA4D0000 		movl	$77, %edx
 1947      00
 1948 0a93 4889CE   		movq	%rcx, %rsi
 1949 0a96 4889C7   		movq	%rax, %rdi
 1950 0a99 E8000000 		call	_ZN8UnitTest11TestDetailsC1ERKS0_i
 1950      00
 1951              		.loc 5 77 0 is_stmt 0 discriminator 1
 1952 0a9e C7856CF7 		movl	$123, -2196(%rbp)
 1952      FFFF7B00 
 1952      0000
 1953 0aa8 E8000000 		call	_ZN8UnitTest11CurrentTest7ResultsEv
 1953      00
 1954 0aad 488B00   		movq	(%rax), %rax
 1955 0ab0 488D9590 		leaq	-2160(%rbp), %rdx
 1955      F7FFFF
 1956 0ab7 488D8DB0 		leaq	-2128(%rbp), %rcx
 1956      F7FFFF
 1957 0abe 488DB910 		leaq	784(%rcx), %rdi
 1957      030000
 1958 0ac5 488DB56C 		leaq	-2196(%rbp), %rsi
 1958      F7FFFF
 1959 0acc 4889D1   		movq	%rdx, %rcx
 1960 0acf 4889FA   		movq	%rdi, %rdx
 1961 0ad2 4889C7   		movq	%rax, %rdi
 1962 0ad5 E8000000 		call	_ZN8UnitTest10CheckEqualIiiEEvRNS_11TestResultsERKT_RKT0_RKNS_11TestDetailsE
 1962      00
 1963              	.LEHE44:
 1964              	.L87:
 1965              	.LEHB45:
  78:TestTestResults.cpp ****     CHECK_EQUAL ("suitename", reporter.lastFailedSuite);
 1966              		.loc 5 78 0 is_stmt 1
 1967 0ada E8000000 		call	_ZN8UnitTest11CurrentTest7DetailsEv
 1967      00
 1968 0adf 488B08   		movq	(%rax), %rcx
 1969 0ae2 488D8590 		leaq	-2160(%rbp), %rax
 1969      F7FFFF
 1970 0ae9 BA4E0000 		movl	$78, %edx
 1970      00
 1971 0aee 4889CE   		movq	%rcx, %rsi
 1972 0af1 4889C7   		movq	%rax, %rdi
 1973 0af4 E8000000 		call	_ZN8UnitTest11TestDetailsC1ERKS0_i
 1973      00
 1974              		.loc 5 78 0 is_stmt 0 discriminator 1
 1975 0af9 E8000000 		call	_ZN8UnitTest11CurrentTest7ResultsEv
 1975      00
 1976 0afe 488B00   		movq	(%rax), %rax
 1977 0b01 488D9590 		leaq	-2160(%rbp), %rdx
 1977      F7FFFF
 1978 0b08 488D8DB0 		leaq	-2128(%rbp), %rcx
 1978      F7FFFF
 1979 0b0f 488DB114 		leaq	788(%rcx), %rsi
 1979      030000
 1980 0b16 4889D1   		movq	%rdx, %rcx
 1981 0b19 4889F2   		movq	%rsi, %rdx
 1982 0b1c BE000000 		movl	$.LC15, %esi
 1982      00
 1983 0b21 4889C7   		movq	%rax, %rdi
 1984 0b24 E8000000 		call	_ZN8UnitTest10CheckEqualERNS_11TestResultsEPKcPcRKNS_11TestDetailsE
 1984      00
 1985              	.LEHE45:
 1986              	.L90:
 1987              	.LEHB46:
  79:TestTestResults.cpp ****     CHECK_EQUAL ("testname", reporter.lastFailedTest);
 1988              		.loc 5 79 0 is_stmt 1
 1989 0b29 E8000000 		call	_ZN8UnitTest11CurrentTest7DetailsEv
 1989      00
 1990 0b2e 488B08   		movq	(%rax), %rcx
 1991 0b31 488D8590 		leaq	-2160(%rbp), %rax
 1991      F7FFFF
 1992 0b38 BA4F0000 		movl	$79, %edx
 1992      00
 1993 0b3d 4889CE   		movq	%rcx, %rsi
 1994 0b40 4889C7   		movq	%rax, %rdi
 1995 0b43 E8000000 		call	_ZN8UnitTest11TestDetailsC1ERKS0_i
 1995      00
 1996              		.loc 5 79 0 is_stmt 0 discriminator 1
 1997 0b48 E8000000 		call	_ZN8UnitTest11CurrentTest7ResultsEv
 1997      00
 1998 0b4d 488B00   		movq	(%rax), %rax
 1999 0b50 488D9590 		leaq	-2160(%rbp), %rdx
 1999      F7FFFF
 2000 0b57 488D8DB0 		leaq	-2128(%rbp), %rcx
 2000      F7FFFF
 2001 0b5e 488DB114 		leaq	1044(%rcx), %rsi
 2001      040000
 2002 0b65 4889D1   		movq	%rdx, %rcx
 2003 0b68 4889F2   		movq	%rsi, %rdx
 2004 0b6b BE000000 		movl	$.LC16, %esi
 2004      00
 2005 0b70 4889C7   		movq	%rax, %rdi
 2006 0b73 E8000000 		call	_ZN8UnitTest10CheckEqualERNS_11TestResultsEPKcPcRKNS_11TestDetailsE
 2006      00
 2007              	.LEHE46:
 2008              	.L93:
 2009              	.LEHB47:
  80:TestTestResults.cpp ****     CHECK_EQUAL ("failurestring", reporter.lastFailedMessage);
 2010              		.loc 5 80 0 is_stmt 1
 2011 0b78 E8000000 		call	_ZN8UnitTest11CurrentTest7DetailsEv
 2011      00
 2012 0b7d 488B08   		movq	(%rax), %rcx
 2013 0b80 488D8590 		leaq	-2160(%rbp), %rax
 2013      F7FFFF
 2014 0b87 BA500000 		movl	$80, %edx
 2014      00
 2015 0b8c 4889CE   		movq	%rcx, %rsi
 2016 0b8f 4889C7   		movq	%rax, %rdi
 2017 0b92 E8000000 		call	_ZN8UnitTest11TestDetailsC1ERKS0_i
 2017      00
 2018              		.loc 5 80 0 is_stmt 0 discriminator 1
 2019 0b97 E8000000 		call	_ZN8UnitTest11CurrentTest7ResultsEv
 2019      00
 2020 0b9c 488B00   		movq	(%rax), %rax
 2021 0b9f 488D9590 		leaq	-2160(%rbp), %rdx
 2021      F7FFFF
 2022 0ba6 488D8DB0 		leaq	-2128(%rbp), %rcx
 2022      F7FFFF
 2023 0bad 488DB114 		leaq	1300(%rcx), %rsi
 2023      050000
 2024 0bb4 4889D1   		movq	%rdx, %rcx
 2025 0bb7 4889F2   		movq	%rsi, %rdx
 2026 0bba BE000000 		movl	$.LC21, %esi
 2026      00
 2027 0bbf 4889C7   		movq	%rax, %rdi
 2028 0bc2 E8000000 		call	_ZN8UnitTest10CheckEqualERNS_11TestResultsEPKcPcRKNS_11TestDetailsE
 2028      00
 2029              	.LEHE47:
 2030              	.L96:
 2031              		.loc 5 80 0 discriminator 2
 2032 0bc7 488D85B0 		leaq	-2128(%rbp), %rax
 2032      F7FFFF
 2033 0bce 4889C7   		movq	%rax, %rdi
 2034              	.LEHB48:
 2035 0bd1 E8000000 		call	_ZN17RecordingReporterD1Ev
 2035      00
 2036              	.LEHE48:
 2037              	.LBE28:
  81:TestTestResults.cpp **** }
 2038              		.loc 5 81 0 is_stmt 1 discriminator 2
 2039 0bd6 488B45E8 		movq	-24(%rbp), %rax
 2040 0bda 64483304 		xorq	%fs:40, %rax
 2040      25280000 
 2040      00
 2041 0be3 0F845202 		je	.L97
 2041      0000
 2042 0be9 E9480200 		jmp	.L111
 2042      00
 2043              	.L100:
 2044 0bee 4889C3   		movq	%rax, %rbx
 2045              	.LBB29:
  75:TestTestResults.cpp ****     CHECK_EQUAL ("filename", reporter.lastFailedFile);
 2046              		.loc 5 75 0
 2047 0bf1 E8000000 		call	__cxa_end_catch
 2047      00
 2048 0bf6 E9210200 		jmp	.L79
 2048      00
 2049              	.L99:
 2050 0bfb 4889C7   		movq	%rax, %rdi
 2051 0bfe E8000000 		call	__cxa_begin_catch
 2051      00
 2052              	.LEHB49:
 2053 0c03 E8000000 		call	_ZN8UnitTest11CurrentTest7DetailsEv
 2053      00
 2054 0c08 488B08   		movq	(%rax), %rcx
 2055 0c0b 488D8590 		leaq	-2160(%rbp), %rax
 2055      F7FFFF
 2056 0c12 BA4B0000 		movl	$75, %edx
 2056      00
 2057 0c17 4889CE   		movq	%rcx, %rsi
 2058 0c1a 4889C7   		movq	%rax, %rdi
 2059 0c1d E8000000 		call	_ZN8UnitTest11TestDetailsC1ERKS0_i
 2059      00
  75:TestTestResults.cpp ****     CHECK_EQUAL ("filename", reporter.lastFailedFile);
 2060              		.loc 5 75 0 is_stmt 0 discriminator 1
 2061 0c22 E8000000 		call	_ZN8UnitTest11CurrentTest7ResultsEv
 2061      00
 2062 0c27 488B00   		movq	(%rax), %rax
 2063 0c2a 488D8D90 		leaq	-2160(%rbp), %rcx
 2063      F7FFFF
 2064 0c31 BA000000 		movl	$.LC23, %edx
 2064      00
 2065 0c36 4889CE   		movq	%rcx, %rsi
 2066 0c39 4889C7   		movq	%rax, %rdi
 2067 0c3c E8000000 		call	_ZN8UnitTest11TestResults13OnTestFailureERKNS_11TestDetailsEPKc
 2067      00
 2068              	.LEHE49:
 2069              	.LEHB50:
 2070 0c41 E8000000 		call	__cxa_end_catch
 2070      00
 2071              	.LEHE50:
  75:TestTestResults.cpp ****     CHECK_EQUAL ("filename", reporter.lastFailedFile);
 2072              		.loc 5 75 0
 2073 0c46 E9E5FDFF 		jmp	.L81
 2073      FF
 2074              	.L102:
 2075 0c4b 4889C3   		movq	%rax, %rbx
  76:TestTestResults.cpp ****     CHECK_EQUAL (123, reporter.lastFailedLine);
 2076              		.loc 5 76 0 is_stmt 1
 2077 0c4e E8000000 		call	__cxa_end_catch
 2077      00
 2078 0c53 E9C40100 		jmp	.L79
 2078      00
 2079              	.L101:
 2080 0c58 4889C7   		movq	%rax, %rdi
 2081 0c5b E8000000 		call	__cxa_begin_catch
 2081      00
 2082              	.LEHB51:
 2083 0c60 E8000000 		call	_ZN8UnitTest11CurrentTest7DetailsEv
 2083      00
 2084 0c65 488B08   		movq	(%rax), %rcx
 2085 0c68 488D8590 		leaq	-2160(%rbp), %rax
 2085      F7FFFF
 2086 0c6f BA4C0000 		movl	$76, %edx
 2086      00
 2087 0c74 4889CE   		movq	%rcx, %rsi
 2088 0c77 4889C7   		movq	%rax, %rdi
 2089 0c7a E8000000 		call	_ZN8UnitTest11TestDetailsC1ERKS0_i
 2089      00
  76:TestTestResults.cpp ****     CHECK_EQUAL (123, reporter.lastFailedLine);
 2090              		.loc 5 76 0 is_stmt 0 discriminator 1
 2091 0c7f E8000000 		call	_ZN8UnitTest11CurrentTest7ResultsEv
 2091      00
 2092 0c84 488B00   		movq	(%rax), %rax
 2093 0c87 488D8D90 		leaq	-2160(%rbp), %rcx
 2093      F7FFFF
 2094 0c8e BA000000 		movl	$.LC24, %edx
 2094      00
 2095 0c93 4889CE   		movq	%rcx, %rsi
 2096 0c96 4889C7   		movq	%rax, %rdi
 2097 0c99 E8000000 		call	_ZN8UnitTest11TestResults13OnTestFailureERKNS_11TestDetailsEPKc
 2097      00
 2098              	.LEHE51:
 2099              	.LEHB52:
 2100 0c9e E8000000 		call	__cxa_end_catch
 2100      00
 2101              	.LEHE52:
  76:TestTestResults.cpp ****     CHECK_EQUAL (123, reporter.lastFailedLine);
 2102              		.loc 5 76 0
 2103 0ca3 E9D7FDFF 		jmp	.L84
 2103      FF
 2104              	.L104:
 2105 0ca8 4889C3   		movq	%rax, %rbx
  77:TestTestResults.cpp ****     CHECK_EQUAL ("suitename", reporter.lastFailedSuite);
 2106              		.loc 5 77 0 is_stmt 1
 2107 0cab E8000000 		call	__cxa_end_catch
 2107      00
 2108 0cb0 E9670100 		jmp	.L79
 2108      00
 2109              	.L103:
 2110 0cb5 4889C7   		movq	%rax, %rdi
 2111 0cb8 E8000000 		call	__cxa_begin_catch
 2111      00
 2112              	.LEHB53:
 2113 0cbd E8000000 		call	_ZN8UnitTest11CurrentTest7DetailsEv
 2113      00
 2114 0cc2 488B08   		movq	(%rax), %rcx
 2115 0cc5 488D8590 		leaq	-2160(%rbp), %rax
 2115      F7FFFF
 2116 0ccc BA4D0000 		movl	$77, %edx
 2116      00
 2117 0cd1 4889CE   		movq	%rcx, %rsi
 2118 0cd4 4889C7   		movq	%rax, %rdi
 2119 0cd7 E8000000 		call	_ZN8UnitTest11TestDetailsC1ERKS0_i
 2119      00
  77:TestTestResults.cpp ****     CHECK_EQUAL ("suitename", reporter.lastFailedSuite);
 2120              		.loc 5 77 0 is_stmt 0 discriminator 1
 2121 0cdc E8000000 		call	_ZN8UnitTest11CurrentTest7ResultsEv
 2121      00
 2122 0ce1 488B00   		movq	(%rax), %rax
 2123 0ce4 488D8D90 		leaq	-2160(%rbp), %rcx
 2123      F7FFFF
 2124 0ceb BA000000 		movl	$.LC25, %edx
 2124      00
 2125 0cf0 4889CE   		movq	%rcx, %rsi
 2126 0cf3 4889C7   		movq	%rax, %rdi
 2127 0cf6 E8000000 		call	_ZN8UnitTest11TestResults13OnTestFailureERKNS_11TestDetailsEPKc
 2127      00
 2128              	.LEHE53:
 2129              	.LEHB54:
 2130 0cfb E8000000 		call	__cxa_end_catch
 2130      00
 2131              	.LEHE54:
  77:TestTestResults.cpp ****     CHECK_EQUAL ("suitename", reporter.lastFailedSuite);
 2132              		.loc 5 77 0
 2133 0d00 E9D5FDFF 		jmp	.L87
 2133      FF
 2134              	.L106:
 2135 0d05 4889C3   		movq	%rax, %rbx
  78:TestTestResults.cpp ****     CHECK_EQUAL ("testname", reporter.lastFailedTest);
 2136              		.loc 5 78 0 is_stmt 1
 2137 0d08 E8000000 		call	__cxa_end_catch
 2137      00
 2138 0d0d E90A0100 		jmp	.L79
 2138      00
 2139              	.L105:
 2140 0d12 4889C7   		movq	%rax, %rdi
 2141 0d15 E8000000 		call	__cxa_begin_catch
 2141      00
 2142              	.LEHB55:
 2143 0d1a E8000000 		call	_ZN8UnitTest11CurrentTest7DetailsEv
 2143      00
 2144 0d1f 488B08   		movq	(%rax), %rcx
 2145 0d22 488D8590 		leaq	-2160(%rbp), %rax
 2145      F7FFFF
 2146 0d29 BA4E0000 		movl	$78, %edx
 2146      00
 2147 0d2e 4889CE   		movq	%rcx, %rsi
 2148 0d31 4889C7   		movq	%rax, %rdi
 2149 0d34 E8000000 		call	_ZN8UnitTest11TestDetailsC1ERKS0_i
 2149      00
  78:TestTestResults.cpp ****     CHECK_EQUAL ("testname", reporter.lastFailedTest);
 2150              		.loc 5 78 0 is_stmt 0 discriminator 1
 2151 0d39 E8000000 		call	_ZN8UnitTest11CurrentTest7ResultsEv
 2151      00
 2152 0d3e 488B00   		movq	(%rax), %rax
 2153 0d41 488D8D90 		leaq	-2160(%rbp), %rcx
 2153      F7FFFF
 2154 0d48 BA000000 		movl	$.LC26, %edx
 2154      00
 2155 0d4d 4889CE   		movq	%rcx, %rsi
 2156 0d50 4889C7   		movq	%rax, %rdi
 2157 0d53 E8000000 		call	_ZN8UnitTest11TestResults13OnTestFailureERKNS_11TestDetailsEPKc
 2157      00
 2158              	.LEHE55:
 2159              	.LEHB56:
 2160 0d58 E8000000 		call	__cxa_end_catch
 2160      00
 2161              	.LEHE56:
  78:TestTestResults.cpp ****     CHECK_EQUAL ("testname", reporter.lastFailedTest);
 2162              		.loc 5 78 0
 2163 0d5d E9C7FDFF 		jmp	.L90
 2163      FF
 2164              	.L108:
 2165 0d62 4889C3   		movq	%rax, %rbx
  79:TestTestResults.cpp ****     CHECK_EQUAL ("failurestring", reporter.lastFailedMessage);
 2166              		.loc 5 79 0 is_stmt 1
 2167 0d65 E8000000 		call	__cxa_end_catch
 2167      00
 2168 0d6a E9AD0000 		jmp	.L79
 2168      00
 2169              	.L107:
 2170 0d6f 4889C7   		movq	%rax, %rdi
 2171 0d72 E8000000 		call	__cxa_begin_catch
 2171      00
 2172              	.LEHB57:
 2173 0d77 E8000000 		call	_ZN8UnitTest11CurrentTest7DetailsEv
 2173      00
 2174 0d7c 488B08   		movq	(%rax), %rcx
 2175 0d7f 488D8590 		leaq	-2160(%rbp), %rax
 2175      F7FFFF
 2176 0d86 BA4F0000 		movl	$79, %edx
 2176      00
 2177 0d8b 4889CE   		movq	%rcx, %rsi
 2178 0d8e 4889C7   		movq	%rax, %rdi
 2179 0d91 E8000000 		call	_ZN8UnitTest11TestDetailsC1ERKS0_i
 2179      00
  79:TestTestResults.cpp ****     CHECK_EQUAL ("failurestring", reporter.lastFailedMessage);
 2180              		.loc 5 79 0 is_stmt 0 discriminator 1
 2181 0d96 E8000000 		call	_ZN8UnitTest11CurrentTest7ResultsEv
 2181      00
 2182 0d9b 488B00   		movq	(%rax), %rax
 2183 0d9e 488D8D90 		leaq	-2160(%rbp), %rcx
 2183      F7FFFF
 2184 0da5 BA000000 		movl	$.LC27, %edx
 2184      00
 2185 0daa 4889CE   		movq	%rcx, %rsi
 2186 0dad 4889C7   		movq	%rax, %rdi
 2187 0db0 E8000000 		call	_ZN8UnitTest11TestResults13OnTestFailureERKNS_11TestDetailsEPKc
 2187      00
 2188              	.LEHE57:
 2189              	.LEHB58:
 2190 0db5 E8000000 		call	__cxa_end_catch
 2190      00
 2191              	.LEHE58:
  79:TestTestResults.cpp ****     CHECK_EQUAL ("failurestring", reporter.lastFailedMessage);
 2192              		.loc 5 79 0
 2193 0dba E9B9FDFF 		jmp	.L93
 2193      FF
 2194              	.L110:
 2195 0dbf 4889C3   		movq	%rax, %rbx
  80:TestTestResults.cpp **** }
 2196              		.loc 5 80 0 is_stmt 1
 2197 0dc2 E8000000 		call	__cxa_end_catch
 2197      00
 2198 0dc7 EB53     		jmp	.L79
 2199              	.L109:
 2200 0dc9 4889C7   		movq	%rax, %rdi
 2201 0dcc E8000000 		call	__cxa_begin_catch
 2201      00
 2202              	.LEHB59:
 2203 0dd1 E8000000 		call	_ZN8UnitTest11CurrentTest7DetailsEv
 2203      00
 2204 0dd6 488B08   		movq	(%rax), %rcx
 2205 0dd9 488D8590 		leaq	-2160(%rbp), %rax
 2205      F7FFFF
 2206 0de0 BA500000 		movl	$80, %edx
 2206      00
 2207 0de5 4889CE   		movq	%rcx, %rsi
 2208 0de8 4889C7   		movq	%rax, %rdi
 2209 0deb E8000000 		call	_ZN8UnitTest11TestDetailsC1ERKS0_i
 2209      00
  80:TestTestResults.cpp **** }
 2210              		.loc 5 80 0 is_stmt 0 discriminator 1
 2211 0df0 E8000000 		call	_ZN8UnitTest11CurrentTest7ResultsEv
 2211      00
 2212 0df5 488B00   		movq	(%rax), %rax
 2213 0df8 488D8D90 		leaq	-2160(%rbp), %rcx
 2213      F7FFFF
 2214 0dff BA000000 		movl	$.LC28, %edx
 2214      00
 2215 0e04 4889CE   		movq	%rcx, %rsi
 2216 0e07 4889C7   		movq	%rax, %rdi
 2217 0e0a E8000000 		call	_ZN8UnitTest11TestResults13OnTestFailureERKNS_11TestDetailsEPKc
 2217      00
 2218              	.LEHE59:
 2219              	.LEHB60:
 2220 0e0f E8000000 		call	__cxa_end_catch
 2220      00
 2221              	.LEHE60:
  80:TestTestResults.cpp **** }
 2222              		.loc 5 80 0
 2223 0e14 E9AEFDFF 		jmp	.L96
 2223      FF
 2224              	.L98:
 2225 0e19 4889C3   		movq	%rax, %rbx
 2226              	.L79:
 2227 0e1c 488D85B0 		leaq	-2128(%rbp), %rax
 2227      F7FFFF
 2228 0e23 4889C7   		movq	%rax, %rdi
 2229 0e26 E8000000 		call	_ZN17RecordingReporterD1Ev
 2229      00
 2230 0e2b 4889D8   		movq	%rbx, %rax
 2231 0e2e 4889C7   		movq	%rax, %rdi
 2232              	.LEHB61:
 2233 0e31 E8000000 		call	_Unwind_Resume
 2233      00
 2234              	.LEHE61:
 2235              	.L111:
 2236              	.LBE29:
 2237              		.loc 5 81 0 is_stmt 1
 2238 0e36 E8000000 		call	__stack_chk_fail
 2238      00
 2239              	.L97:
 2240 0e3b 4881C4A8 		addq	$2216, %rsp
 2240      080000
 2241 0e42 5B       		popq	%rbx
 2242 0e43 5D       		popq	%rbp
 2243              		.cfi_def_cfa 7, 8
 2244 0e44 C3       		ret
 2245              		.cfi_endproc
 2246              	.LFE1056:
 2247              		.section	.gcc_except_table
 2248              		.align 4
 2249              	.LLSDA1056:
 2250 0108 FF       		.byte	0xff
 2251 0109 03       		.byte	0x3
 2252 010a 8401     		.uleb128 .LLSDATT1056-.LLSDATTD1056
 2253              	.LLSDATTD1056:
 2254 010c 01       		.byte	0x1
 2255 010d 7A       		.uleb128 .LLSDACSE1056-.LLSDACSB1056
 2256              	.LLSDACSB1056:
 2257 010e 45       		.uleb128 .LEHB41-.LFB1056
 2258 010f 1E       		.uleb128 .LEHE41-.LEHB41
 2259 0110 A709     		.uleb128 .L98-.LFB1056
 2260 0112 00       		.uleb128 0
 2261 0113 63       		.uleb128 .LEHB42-.LFB1056
 2262 0114 5B       		.uleb128 .LEHE42-.LEHB42
 2263 0115 8905     		.uleb128 .L99-.LFB1056
 2264 0117 01       		.uleb128 0x1
 2265 0118 BE01     		.uleb128 .LEHB43-.LFB1056
 2266 011a 4F       		.uleb128 .LEHE43-.LEHB43
 2267 011b E605     		.uleb128 .L101-.LFB1056
 2268 011d 01       		.uleb128 0x1
 2269 011e 8D02     		.uleb128 .LEHB44-.LFB1056
 2270 0120 5B       		.uleb128 .LEHE44-.LEHB44
 2271 0121 C306     		.uleb128 .L103-.LFB1056
 2272 0123 01       		.uleb128 0x1
 2273 0124 E802     		.uleb128 .LEHB45-.LFB1056
 2274 0126 4F       		.uleb128 .LEHE45-.LEHB45
 2275 0127 A007     		.uleb128 .L105-.LFB1056
 2276 0129 01       		.uleb128 0x1
 2277 012a B703     		.uleb128 .LEHB46-.LFB1056
 2278 012c 4F       		.uleb128 .LEHE46-.LEHB46
 2279 012d FD07     		.uleb128 .L107-.LFB1056
 2280 012f 01       		.uleb128 0x1
 2281 0130 8604     		.uleb128 .LEHB47-.LFB1056
 2282 0132 4F       		.uleb128 .LEHE47-.LEHB47
 2283 0133 D708     		.uleb128 .L109-.LFB1056
 2284 0135 01       		.uleb128 0x1
 2285 0136 DF04     		.uleb128 .LEHB48-.LFB1056
 2286 0138 05       		.uleb128 .LEHE48-.LEHB48
 2287 0139 00       		.uleb128 0
 2288 013a 00       		.uleb128 0
 2289 013b 9105     		.uleb128 .LEHB49-.LFB1056
 2290 013d 3E       		.uleb128 .LEHE49-.LEHB49
 2291 013e FC04     		.uleb128 .L100-.LFB1056
 2292 0140 00       		.uleb128 0
 2293 0141 CF05     		.uleb128 .LEHB50-.LFB1056
 2294 0143 05       		.uleb128 .LEHE50-.LEHB50
 2295 0144 A709     		.uleb128 .L98-.LFB1056
 2296 0146 00       		.uleb128 0
 2297 0147 EE05     		.uleb128 .LEHB51-.LFB1056
 2298 0149 3E       		.uleb128 .LEHE51-.LEHB51
 2299 014a D905     		.uleb128 .L102-.LFB1056
 2300 014c 00       		.uleb128 0
 2301 014d AC06     		.uleb128 .LEHB52-.LFB1056
 2302 014f 05       		.uleb128 .LEHE52-.LEHB52
 2303 0150 A709     		.uleb128 .L98-.LFB1056
 2304 0152 00       		.uleb128 0
 2305 0153 CB06     		.uleb128 .LEHB53-.LFB1056
 2306 0155 3E       		.uleb128 .LEHE53-.LEHB53
 2307 0156 B606     		.uleb128 .L104-.LFB1056
 2308 0158 00       		.uleb128 0
 2309 0159 8907     		.uleb128 .LEHB54-.LFB1056
 2310 015b 05       		.uleb128 .LEHE54-.LEHB54
 2311 015c A709     		.uleb128 .L98-.LFB1056
 2312 015e 00       		.uleb128 0
 2313 015f A807     		.uleb128 .LEHB55-.LFB1056
 2314 0161 3E       		.uleb128 .LEHE55-.LEHB55
 2315 0162 9307     		.uleb128 .L106-.LFB1056
 2316 0164 00       		.uleb128 0
 2317 0165 E607     		.uleb128 .LEHB56-.LFB1056
 2318 0167 05       		.uleb128 .LEHE56-.LEHB56
 2319 0168 A709     		.uleb128 .L98-.LFB1056
 2320 016a 00       		.uleb128 0
 2321 016b 8508     		.uleb128 .LEHB57-.LFB1056
 2322 016d 3E       		.uleb128 .LEHE57-.LEHB57
 2323 016e F007     		.uleb128 .L108-.LFB1056
 2324 0170 00       		.uleb128 0
 2325 0171 C308     		.uleb128 .LEHB58-.LFB1056
 2326 0173 05       		.uleb128 .LEHE58-.LEHB58
 2327 0174 A709     		.uleb128 .L98-.LFB1056
 2328 0176 00       		.uleb128 0
 2329 0177 DF08     		.uleb128 .LEHB59-.LFB1056
 2330 0179 3E       		.uleb128 .LEHE59-.LEHB59
 2331 017a CD08     		.uleb128 .L110-.LFB1056
 2332 017c 00       		.uleb128 0
 2333 017d 9D09     		.uleb128 .LEHB60-.LFB1056
 2334 017f 05       		.uleb128 .LEHE60-.LEHB60
 2335 0180 A709     		.uleb128 .L98-.LFB1056
 2336 0182 00       		.uleb128 0
 2337 0183 BF09     		.uleb128 .LEHB61-.LFB1056
 2338 0185 05       		.uleb128 .LEHE61-.LEHB61
 2339 0186 00       		.uleb128 0
 2340 0187 00       		.uleb128 0
 2341              	.LLSDACSE1056:
 2342 0188 01       		.byte	0x1
 2343 0189 00       		.byte	0
 2344 018a 0000     		.align 4
 2345 018c 00000000 		.long	0
 2346              	
 2347              	.LLSDATT1056:
 2348              		.text
 2350              		.section	.rodata
 2351              		.align 8
 2352              	.LC29:
 2353 0520 4E6F7469 		.string	"NotifiesReporterOfCheckFailureWithCorrectInfo"
 2353      66696573 
 2353      5265706F 
 2353      72746572 
 2353      4F664368 
 2354              		.text
 2355 0e45 90       		.align 2
 2357              	_ZN12_GLOBAL__N_149TestNotifiesReporterOfCheckFailureWithCorrectInfoC2Ev:
 2358              	.LFB1058:
  82:TestTestResults.cpp **** 
  83:TestTestResults.cpp **** TEST(NotifiesReporterOfCheckFailureWithCorrectInfo)
 2359              		.loc 5 83 0
 2360              		.cfi_startproc
 2361 0e46 55       		pushq	%rbp
 2362              		.cfi_def_cfa_offset 16
 2363              		.cfi_offset 6, -16
 2364 0e47 4889E5   		movq	%rsp, %rbp
 2365              		.cfi_def_cfa_register 6
 2366 0e4a 4883EC10 		subq	$16, %rsp
 2367 0e4e 48897DF8 		movq	%rdi, -8(%rbp)
 2368              	.LBB30:
 2369              		.loc 5 83 0
 2370 0e52 E8000000 		call	_ZN13UnitTestSuite12GetSuiteNameEv
 2370      00
 2371 0e57 4889C2   		movq	%rax, %rdx
 2372 0e5a 488B45F8 		movq	-8(%rbp), %rax
 2373 0e5e 41B85300 		movl	$83, %r8d
 2373      0000
 2374 0e64 B9000000 		movl	$.LC2, %ecx
 2374      00
 2375 0e69 BE000000 		movl	$.LC29, %esi
 2375      00
 2376 0e6e 4889C7   		movq	%rax, %rdi
 2377 0e71 E8000000 		call	_ZN8UnitTest4TestC2EPKcS2_S2_i
 2377      00
 2378 0e76 488B45F8 		movq	-8(%rbp), %rax
 2379 0e7a 48C70000 		movq	$_ZTVN12_GLOBAL__N_149TestNotifiesReporterOfCheckFailureWithCorrectInfoE+16, (%rax)
 2379      000000
 2380              	.LBE30:
 2381 0e81 C9       		leave
 2382              		.cfi_def_cfa 7, 8
 2383 0e82 C3       		ret
 2384              		.cfi_endproc
 2385              	.LFE1058:
 2387              		.set	_ZN12_GLOBAL__N_149TestNotifiesReporterOfCheckFailureWithCorrectInfoC1Ev,_ZN12_GLOBAL__N_149T
 2388              		.local	_ZN12_GLOBAL__N_157testNotifiesReporterOfCheckFailureWithCorrectInfoInstanceE
 2389              		.comm	_ZN12_GLOBAL__N_157testNotifiesReporterOfCheckFailureWithCorrectInfoInstanceE,56,32
 2390              		.local	_ZN12_GLOBAL__N_150adderNotifiesReporterOfCheckFailureWithCorrectInfoE
 2391              		.comm	_ZN12_GLOBAL__N_150adderNotifiesReporterOfCheckFailureWithCorrectInfoE,1,1
 2392 0e83 90       		.align 2
 2394              	_ZNK12_GLOBAL__N_149TestNotifiesReporterOfCheckFailureWithCorrectInfo7RunImplEv:
 2395              	.LFB1060:
  84:TestTestResults.cpp **** {
 2396              		.loc 5 84 0
 2397              		.cfi_startproc
 2398              		.cfi_personality 0x3,__gxx_personality_v0
 2399              		.cfi_lsda 0x3,.LLSDA1060
 2400 0e84 55       		pushq	%rbp
 2401              		.cfi_def_cfa_offset 16
 2402              		.cfi_offset 6, -16
 2403 0e85 4889E5   		movq	%rsp, %rbp
 2404              		.cfi_def_cfa_register 6
 2405 0e88 53       		pushq	%rbx
 2406 0e89 4881ECA8 		subq	$2216, %rsp
 2406      080000
 2407              		.cfi_offset 3, -24
 2408 0e90 4889BD58 		movq	%rdi, -2216(%rbp)
 2408      F7FFFF
 2409              		.loc 5 84 0
 2410 0e97 64488B04 		movq	%fs:40, %rax
 2410      25280000 
 2410      00
 2411 0ea0 488945E8 		movq	%rax, -24(%rbp)
 2412 0ea4 31C0     		xorl	%eax, %eax
 2413              	.LBB31:
  85:TestTestResults.cpp ****     RecordingReporter reporter;
 2414              		.loc 5 85 0
 2415 0ea6 488D85B0 		leaq	-2128(%rbp), %rax
 2415      F7FFFF
 2416 0ead 4889C7   		movq	%rax, %rdi
 2417 0eb0 E8000000 		call	_ZN17RecordingReporterC1Ev
 2417      00
  86:TestTestResults.cpp ****     TestResults results(&reporter);
 2418              		.loc 5 86 0
 2419 0eb5 488D95B0 		leaq	-2128(%rbp), %rdx
 2419      F7FFFF
 2420 0ebc 488D8570 		leaq	-2192(%rbp), %rax
 2420      F7FFFF
 2421 0ec3 4889D6   		movq	%rdx, %rsi
 2422 0ec6 4889C7   		movq	%rax, %rdi
 2423              	.LEHB62:
 2424 0ec9 E8000000 		call	_ZN8UnitTest11TestResultsC1EPNS_12TestReporterE
 2424      00
  87:TestTestResults.cpp **** 
  88:TestTestResults.cpp ****     results.OnTestFailure(details, "failurestring");
 2425              		.loc 5 88 0
 2426 0ece 488D8570 		leaq	-2192(%rbp), %rax
 2426      F7FFFF
 2427 0ed5 BA000000 		movl	$.LC21, %edx
 2427      00
 2428 0eda BE000000 		movl	$_ZN12_GLOBAL__N_1L7detailsE, %esi
 2428      00
 2429 0edf 4889C7   		movq	%rax, %rdi
 2430 0ee2 E8000000 		call	_ZN8UnitTest11TestResults13OnTestFailureERKNS_11TestDetailsEPKc
 2430      00
 2431              	.LEHE62:
 2432              	.LEHB63:
  89:TestTestResults.cpp ****     CHECK_EQUAL (1, reporter.testFailedCount);
 2433              		.loc 5 89 0
 2434 0ee7 E8000000 		call	_ZN8UnitTest11CurrentTest7DetailsEv
 2434      00
 2435 0eec 488B08   		movq	(%rax), %rcx
 2436 0eef 488D8590 		leaq	-2160(%rbp), %rax
 2436      F7FFFF
 2437 0ef6 BA590000 		movl	$89, %edx
 2437      00
 2438 0efb 4889CE   		movq	%rcx, %rsi
 2439 0efe 4889C7   		movq	%rax, %rdi
 2440 0f01 E8000000 		call	_ZN8UnitTest11TestDetailsC1ERKS0_i
 2440      00
 2441              		.loc 5 89 0 is_stmt 0 discriminator 1
 2442 0f06 C7856CF7 		movl	$1, -2196(%rbp)
 2442      FFFF0100 
 2442      0000
 2443 0f10 E8000000 		call	_ZN8UnitTest11CurrentTest7ResultsEv
 2443      00
 2444 0f15 488B00   		movq	(%rax), %rax
 2445 0f18 488D9590 		leaq	-2160(%rbp), %rdx
 2445      F7FFFF
 2446 0f1f 488D8DB0 		leaq	-2128(%rbp), %rcx
 2446      F7FFFF
 2447 0f26 488DB90C 		leaq	524(%rcx), %rdi
 2447      020000
 2448 0f2d 488DB56C 		leaq	-2196(%rbp), %rsi
 2448      F7FFFF
 2449 0f34 4889D1   		movq	%rdx, %rcx
 2450 0f37 4889FA   		movq	%rdi, %rdx
 2451 0f3a 4889C7   		movq	%rax, %rdi
 2452 0f3d E8000000 		call	_ZN8UnitTest10CheckEqualIiiEEvRNS_11TestResultsERKT_RKT0_RKNS_11TestDetailsE
 2452      00
 2453              	.LEHE63:
 2454              	.L117:
 2455              	.LEHB64:
  90:TestTestResults.cpp **** 
  91:TestTestResults.cpp ****     CHECK_EQUAL ("filename", reporter.lastFailedFile);
 2456              		.loc 5 91 0 is_stmt 1
 2457 0f42 E8000000 		call	_ZN8UnitTest11CurrentTest7DetailsEv
 2457      00
 2458 0f47 488B08   		movq	(%rax), %rcx
 2459 0f4a 488D8590 		leaq	-2160(%rbp), %rax
 2459      F7FFFF
 2460 0f51 BA5B0000 		movl	$91, %edx
 2460      00
 2461 0f56 4889CE   		movq	%rcx, %rsi
 2462 0f59 4889C7   		movq	%rax, %rdi
 2463 0f5c E8000000 		call	_ZN8UnitTest11TestDetailsC1ERKS0_i
 2463      00
 2464              		.loc 5 91 0 is_stmt 0 discriminator 1
 2465 0f61 E8000000 		call	_ZN8UnitTest11CurrentTest7ResultsEv
 2465      00
 2466 0f66 488B00   		movq	(%rax), %rax
 2467 0f69 488D9590 		leaq	-2160(%rbp), %rdx
 2467      F7FFFF
 2468 0f70 488D8DB0 		leaq	-2128(%rbp), %rcx
 2468      F7FFFF
 2469 0f77 488DB110 		leaq	528(%rcx), %rsi
 2469      020000
 2470 0f7e 4889D1   		movq	%rdx, %rcx
 2471 0f81 4889F2   		movq	%rsi, %rdx
 2472 0f84 BE000000 		movl	$.LC22, %esi
 2472      00
 2473 0f89 4889C7   		movq	%rax, %rdi
 2474 0f8c E8000000 		call	_ZN8UnitTest10CheckEqualERNS_11TestResultsEPKcPcRKNS_11TestDetailsE
 2474      00
 2475              	.LEHE64:
 2476              	.L120:
 2477              	.LEHB65:
  92:TestTestResults.cpp ****     CHECK_EQUAL (123, reporter.lastFailedLine);
 2478              		.loc 5 92 0 is_stmt 1
 2479 0f91 E8000000 		call	_ZN8UnitTest11CurrentTest7DetailsEv
 2479      00
 2480 0f96 488B08   		movq	(%rax), %rcx
 2481 0f99 488D8590 		leaq	-2160(%rbp), %rax
 2481      F7FFFF
 2482 0fa0 BA5C0000 		movl	$92, %edx
 2482      00
 2483 0fa5 4889CE   		movq	%rcx, %rsi
 2484 0fa8 4889C7   		movq	%rax, %rdi
 2485 0fab E8000000 		call	_ZN8UnitTest11TestDetailsC1ERKS0_i
 2485      00
 2486              		.loc 5 92 0 is_stmt 0 discriminator 1
 2487 0fb0 C7856CF7 		movl	$123, -2196(%rbp)
 2487      FFFF7B00 
 2487      0000
 2488 0fba E8000000 		call	_ZN8UnitTest11CurrentTest7ResultsEv
 2488      00
 2489 0fbf 488B00   		movq	(%rax), %rax
 2490 0fc2 488D9590 		leaq	-2160(%rbp), %rdx
 2490      F7FFFF
 2491 0fc9 488D8DB0 		leaq	-2128(%rbp), %rcx
 2491      F7FFFF
 2492 0fd0 488DB910 		leaq	784(%rcx), %rdi
 2492      030000
 2493 0fd7 488DB56C 		leaq	-2196(%rbp), %rsi
 2493      F7FFFF
 2494 0fde 4889D1   		movq	%rdx, %rcx
 2495 0fe1 4889FA   		movq	%rdi, %rdx
 2496 0fe4 4889C7   		movq	%rax, %rdi
 2497 0fe7 E8000000 		call	_ZN8UnitTest10CheckEqualIiiEEvRNS_11TestResultsERKT_RKT0_RKNS_11TestDetailsE
 2497      00
 2498              	.LEHE65:
 2499              	.L123:
 2500              	.LEHB66:
  93:TestTestResults.cpp ****     CHECK_EQUAL ("testname", reporter.lastFailedTest);
 2501              		.loc 5 93 0 is_stmt 1
 2502 0fec E8000000 		call	_ZN8UnitTest11CurrentTest7DetailsEv
 2502      00
 2503 0ff1 488B08   		movq	(%rax), %rcx
 2504 0ff4 488D8590 		leaq	-2160(%rbp), %rax
 2504      F7FFFF
 2505 0ffb BA5D0000 		movl	$93, %edx
 2505      00
 2506 1000 4889CE   		movq	%rcx, %rsi
 2507 1003 4889C7   		movq	%rax, %rdi
 2508 1006 E8000000 		call	_ZN8UnitTest11TestDetailsC1ERKS0_i
 2508      00
 2509              		.loc 5 93 0 is_stmt 0 discriminator 1
 2510 100b E8000000 		call	_ZN8UnitTest11CurrentTest7ResultsEv
 2510      00
 2511 1010 488B00   		movq	(%rax), %rax
 2512 1013 488D9590 		leaq	-2160(%rbp), %rdx
 2512      F7FFFF
 2513 101a 488D8DB0 		leaq	-2128(%rbp), %rcx
 2513      F7FFFF
 2514 1021 488DB114 		leaq	1044(%rcx), %rsi
 2514      040000
 2515 1028 4889D1   		movq	%rdx, %rcx
 2516 102b 4889F2   		movq	%rsi, %rdx
 2517 102e BE000000 		movl	$.LC16, %esi
 2517      00
 2518 1033 4889C7   		movq	%rax, %rdi
 2519 1036 E8000000 		call	_ZN8UnitTest10CheckEqualERNS_11TestResultsEPKcPcRKNS_11TestDetailsE
 2519      00
 2520              	.LEHE66:
 2521              	.L126:
 2522              	.LEHB67:
  94:TestTestResults.cpp ****     CHECK_EQUAL ("suitename", reporter.lastFailedSuite);
 2523              		.loc 5 94 0 is_stmt 1
 2524 103b E8000000 		call	_ZN8UnitTest11CurrentTest7DetailsEv
 2524      00
 2525 1040 488B08   		movq	(%rax), %rcx
 2526 1043 488D8590 		leaq	-2160(%rbp), %rax
 2526      F7FFFF
 2527 104a BA5E0000 		movl	$94, %edx
 2527      00
 2528 104f 4889CE   		movq	%rcx, %rsi
 2529 1052 4889C7   		movq	%rax, %rdi
 2530 1055 E8000000 		call	_ZN8UnitTest11TestDetailsC1ERKS0_i
 2530      00
 2531              		.loc 5 94 0 is_stmt 0 discriminator 1
 2532 105a E8000000 		call	_ZN8UnitTest11CurrentTest7ResultsEv
 2532      00
 2533 105f 488B00   		movq	(%rax), %rax
 2534 1062 488D9590 		leaq	-2160(%rbp), %rdx
 2534      F7FFFF
 2535 1069 488D8DB0 		leaq	-2128(%rbp), %rcx
 2535      F7FFFF
 2536 1070 488DB114 		leaq	788(%rcx), %rsi
 2536      030000
 2537 1077 4889D1   		movq	%rdx, %rcx
 2538 107a 4889F2   		movq	%rsi, %rdx
 2539 107d BE000000 		movl	$.LC15, %esi
 2539      00
 2540 1082 4889C7   		movq	%rax, %rdi
 2541 1085 E8000000 		call	_ZN8UnitTest10CheckEqualERNS_11TestResultsEPKcPcRKNS_11TestDetailsE
 2541      00
 2542              	.LEHE67:
 2543              	.L129:
 2544              	.LEHB68:
  95:TestTestResults.cpp ****     CHECK_EQUAL ("failurestring", reporter.lastFailedMessage);
 2545              		.loc 5 95 0 is_stmt 1
 2546 108a E8000000 		call	_ZN8UnitTest11CurrentTest7DetailsEv
 2546      00
 2547 108f 488B08   		movq	(%rax), %rcx
 2548 1092 488D8590 		leaq	-2160(%rbp), %rax
 2548      F7FFFF
 2549 1099 BA5F0000 		movl	$95, %edx
 2549      00
 2550 109e 4889CE   		movq	%rcx, %rsi
 2551 10a1 4889C7   		movq	%rax, %rdi
 2552 10a4 E8000000 		call	_ZN8UnitTest11TestDetailsC1ERKS0_i
 2552      00
 2553              		.loc 5 95 0 is_stmt 0 discriminator 1
 2554 10a9 E8000000 		call	_ZN8UnitTest11CurrentTest7ResultsEv
 2554      00
 2555 10ae 488B00   		movq	(%rax), %rax
 2556 10b1 488D9590 		leaq	-2160(%rbp), %rdx
 2556      F7FFFF
 2557 10b8 488D8DB0 		leaq	-2128(%rbp), %rcx
 2557      F7FFFF
 2558 10bf 488DB114 		leaq	1300(%rcx), %rsi
 2558      050000
 2559 10c6 4889D1   		movq	%rdx, %rcx
 2560 10c9 4889F2   		movq	%rsi, %rdx
 2561 10cc BE000000 		movl	$.LC21, %esi
 2561      00
 2562 10d1 4889C7   		movq	%rax, %rdi
 2563 10d4 E8000000 		call	_ZN8UnitTest10CheckEqualERNS_11TestResultsEPKcPcRKNS_11TestDetailsE
 2563      00
 2564              	.LEHE68:
 2565              	.L132:
 2566              		.loc 5 95 0 discriminator 2
 2567 10d9 488D85B0 		leaq	-2128(%rbp), %rax
 2567      F7FFFF
 2568 10e0 4889C7   		movq	%rax, %rdi
 2569              	.LEHB69:
 2570 10e3 E8000000 		call	_ZN17RecordingReporterD1Ev
 2570      00
 2571              	.LEHE69:
 2572              	.LBE31:
  96:TestTestResults.cpp **** }
 2573              		.loc 5 96 0 is_stmt 1 discriminator 2
 2574 10e8 488B45E8 		movq	-24(%rbp), %rax
 2575 10ec 64483304 		xorq	%fs:40, %rax
 2575      25280000 
 2575      00
 2576 10f5 0F845202 		je	.L133
 2576      0000
 2577 10fb E9480200 		jmp	.L147
 2577      00
 2578              	.L136:
 2579 1100 4889C3   		movq	%rax, %rbx
 2580              	.LBB32:
  89:TestTestResults.cpp **** 
 2581              		.loc 5 89 0
 2582 1103 E8000000 		call	__cxa_end_catch
 2582      00
 2583 1108 E9210200 		jmp	.L115
 2583      00
 2584              	.L135:
 2585 110d 4889C7   		movq	%rax, %rdi
 2586 1110 E8000000 		call	__cxa_begin_catch
 2586      00
 2587              	.LEHB70:
 2588 1115 E8000000 		call	_ZN8UnitTest11CurrentTest7DetailsEv
 2588      00
 2589 111a 488B08   		movq	(%rax), %rcx
 2590 111d 488D8590 		leaq	-2160(%rbp), %rax
 2590      F7FFFF
 2591 1124 BA590000 		movl	$89, %edx
 2591      00
 2592 1129 4889CE   		movq	%rcx, %rsi
 2593 112c 4889C7   		movq	%rax, %rdi
 2594 112f E8000000 		call	_ZN8UnitTest11TestDetailsC1ERKS0_i
 2594      00
  89:TestTestResults.cpp **** 
 2595              		.loc 5 89 0 is_stmt 0 discriminator 1
 2596 1134 E8000000 		call	_ZN8UnitTest11CurrentTest7ResultsEv
 2596      00
 2597 1139 488B00   		movq	(%rax), %rax
 2598 113c 488D8D90 		leaq	-2160(%rbp), %rcx
 2598      F7FFFF
 2599 1143 BA000000 		movl	$.LC23, %edx
 2599      00
 2600 1148 4889CE   		movq	%rcx, %rsi
 2601 114b 4889C7   		movq	%rax, %rdi
 2602 114e E8000000 		call	_ZN8UnitTest11TestResults13OnTestFailureERKNS_11TestDetailsEPKc
 2602      00
 2603              	.LEHE70:
 2604              	.LEHB71:
 2605 1153 E8000000 		call	__cxa_end_catch
 2605      00
 2606              	.LEHE71:
  89:TestTestResults.cpp **** 
 2607              		.loc 5 89 0
 2608 1158 E9E5FDFF 		jmp	.L117
 2608      FF
 2609              	.L138:
 2610 115d 4889C3   		movq	%rax, %rbx
  91:TestTestResults.cpp ****     CHECK_EQUAL (123, reporter.lastFailedLine);
 2611              		.loc 5 91 0 is_stmt 1
 2612 1160 E8000000 		call	__cxa_end_catch
 2612      00
 2613 1165 E9C40100 		jmp	.L115
 2613      00
 2614              	.L137:
 2615 116a 4889C7   		movq	%rax, %rdi
 2616 116d E8000000 		call	__cxa_begin_catch
 2616      00
 2617              	.LEHB72:
 2618 1172 E8000000 		call	_ZN8UnitTest11CurrentTest7DetailsEv
 2618      00
 2619 1177 488B08   		movq	(%rax), %rcx
 2620 117a 488D8590 		leaq	-2160(%rbp), %rax
 2620      F7FFFF
 2621 1181 BA5B0000 		movl	$91, %edx
 2621      00
 2622 1186 4889CE   		movq	%rcx, %rsi
 2623 1189 4889C7   		movq	%rax, %rdi
 2624 118c E8000000 		call	_ZN8UnitTest11TestDetailsC1ERKS0_i
 2624      00
  91:TestTestResults.cpp ****     CHECK_EQUAL (123, reporter.lastFailedLine);
 2625              		.loc 5 91 0 is_stmt 0 discriminator 1
 2626 1191 E8000000 		call	_ZN8UnitTest11CurrentTest7ResultsEv
 2626      00
 2627 1196 488B00   		movq	(%rax), %rax
 2628 1199 488D8D90 		leaq	-2160(%rbp), %rcx
 2628      F7FFFF
 2629 11a0 BA000000 		movl	$.LC24, %edx
 2629      00
 2630 11a5 4889CE   		movq	%rcx, %rsi
 2631 11a8 4889C7   		movq	%rax, %rdi
 2632 11ab E8000000 		call	_ZN8UnitTest11TestResults13OnTestFailureERKNS_11TestDetailsEPKc
 2632      00
 2633              	.LEHE72:
 2634              	.LEHB73:
 2635 11b0 E8000000 		call	__cxa_end_catch
 2635      00
 2636              	.LEHE73:
  91:TestTestResults.cpp ****     CHECK_EQUAL (123, reporter.lastFailedLine);
 2637              		.loc 5 91 0
 2638 11b5 E9D7FDFF 		jmp	.L120
 2638      FF
 2639              	.L140:
 2640 11ba 4889C3   		movq	%rax, %rbx
  92:TestTestResults.cpp ****     CHECK_EQUAL ("testname", reporter.lastFailedTest);
 2641              		.loc 5 92 0 is_stmt 1
 2642 11bd E8000000 		call	__cxa_end_catch
 2642      00
 2643 11c2 E9670100 		jmp	.L115
 2643      00
 2644              	.L139:
 2645 11c7 4889C7   		movq	%rax, %rdi
 2646 11ca E8000000 		call	__cxa_begin_catch
 2646      00
 2647              	.LEHB74:
 2648 11cf E8000000 		call	_ZN8UnitTest11CurrentTest7DetailsEv
 2648      00
 2649 11d4 488B08   		movq	(%rax), %rcx
 2650 11d7 488D8590 		leaq	-2160(%rbp), %rax
 2650      F7FFFF
 2651 11de BA5C0000 		movl	$92, %edx
 2651      00
 2652 11e3 4889CE   		movq	%rcx, %rsi
 2653 11e6 4889C7   		movq	%rax, %rdi
 2654 11e9 E8000000 		call	_ZN8UnitTest11TestDetailsC1ERKS0_i
 2654      00
  92:TestTestResults.cpp ****     CHECK_EQUAL ("testname", reporter.lastFailedTest);
 2655              		.loc 5 92 0 is_stmt 0 discriminator 1
 2656 11ee E8000000 		call	_ZN8UnitTest11CurrentTest7ResultsEv
 2656      00
 2657 11f3 488B00   		movq	(%rax), %rax
 2658 11f6 488D8D90 		leaq	-2160(%rbp), %rcx
 2658      F7FFFF
 2659 11fd BA000000 		movl	$.LC25, %edx
 2659      00
 2660 1202 4889CE   		movq	%rcx, %rsi
 2661 1205 4889C7   		movq	%rax, %rdi
 2662 1208 E8000000 		call	_ZN8UnitTest11TestResults13OnTestFailureERKNS_11TestDetailsEPKc
 2662      00
 2663              	.LEHE74:
 2664              	.LEHB75:
 2665 120d E8000000 		call	__cxa_end_catch
 2665      00
 2666              	.LEHE75:
  92:TestTestResults.cpp ****     CHECK_EQUAL ("testname", reporter.lastFailedTest);
 2667              		.loc 5 92 0
 2668 1212 E9D5FDFF 		jmp	.L123
 2668      FF
 2669              	.L142:
 2670 1217 4889C3   		movq	%rax, %rbx
  93:TestTestResults.cpp ****     CHECK_EQUAL ("suitename", reporter.lastFailedSuite);
 2671              		.loc 5 93 0 is_stmt 1
 2672 121a E8000000 		call	__cxa_end_catch
 2672      00
 2673 121f E90A0100 		jmp	.L115
 2673      00
 2674              	.L141:
 2675 1224 4889C7   		movq	%rax, %rdi
 2676 1227 E8000000 		call	__cxa_begin_catch
 2676      00
 2677              	.LEHB76:
 2678 122c E8000000 		call	_ZN8UnitTest11CurrentTest7DetailsEv
 2678      00
 2679 1231 488B08   		movq	(%rax), %rcx
 2680 1234 488D8590 		leaq	-2160(%rbp), %rax
 2680      F7FFFF
 2681 123b BA5D0000 		movl	$93, %edx
 2681      00
 2682 1240 4889CE   		movq	%rcx, %rsi
 2683 1243 4889C7   		movq	%rax, %rdi
 2684 1246 E8000000 		call	_ZN8UnitTest11TestDetailsC1ERKS0_i
 2684      00
  93:TestTestResults.cpp ****     CHECK_EQUAL ("suitename", reporter.lastFailedSuite);
 2685              		.loc 5 93 0 is_stmt 0 discriminator 1
 2686 124b E8000000 		call	_ZN8UnitTest11CurrentTest7ResultsEv
 2686      00
 2687 1250 488B00   		movq	(%rax), %rax
 2688 1253 488D8D90 		leaq	-2160(%rbp), %rcx
 2688      F7FFFF
 2689 125a BA000000 		movl	$.LC27, %edx
 2689      00
 2690 125f 4889CE   		movq	%rcx, %rsi
 2691 1262 4889C7   		movq	%rax, %rdi
 2692 1265 E8000000 		call	_ZN8UnitTest11TestResults13OnTestFailureERKNS_11TestDetailsEPKc
 2692      00
 2693              	.LEHE76:
 2694              	.LEHB77:
 2695 126a E8000000 		call	__cxa_end_catch
 2695      00
 2696              	.LEHE77:
  93:TestTestResults.cpp ****     CHECK_EQUAL ("suitename", reporter.lastFailedSuite);
 2697              		.loc 5 93 0
 2698 126f E9C7FDFF 		jmp	.L126
 2698      FF
 2699              	.L144:
 2700 1274 4889C3   		movq	%rax, %rbx
  94:TestTestResults.cpp ****     CHECK_EQUAL ("failurestring", reporter.lastFailedMessage);
 2701              		.loc 5 94 0 is_stmt 1
 2702 1277 E8000000 		call	__cxa_end_catch
 2702      00
 2703 127c E9AD0000 		jmp	.L115
 2703      00
 2704              	.L143:
 2705 1281 4889C7   		movq	%rax, %rdi
 2706 1284 E8000000 		call	__cxa_begin_catch
 2706      00
 2707              	.LEHB78:
 2708 1289 E8000000 		call	_ZN8UnitTest11CurrentTest7DetailsEv
 2708      00
 2709 128e 488B08   		movq	(%rax), %rcx
 2710 1291 488D8590 		leaq	-2160(%rbp), %rax
 2710      F7FFFF
 2711 1298 BA5E0000 		movl	$94, %edx
 2711      00
 2712 129d 4889CE   		movq	%rcx, %rsi
 2713 12a0 4889C7   		movq	%rax, %rdi
 2714 12a3 E8000000 		call	_ZN8UnitTest11TestDetailsC1ERKS0_i
 2714      00
  94:TestTestResults.cpp ****     CHECK_EQUAL ("failurestring", reporter.lastFailedMessage);
 2715              		.loc 5 94 0 is_stmt 0 discriminator 1
 2716 12a8 E8000000 		call	_ZN8UnitTest11CurrentTest7ResultsEv
 2716      00
 2717 12ad 488B00   		movq	(%rax), %rax
 2718 12b0 488D8D90 		leaq	-2160(%rbp), %rcx
 2718      F7FFFF
 2719 12b7 BA000000 		movl	$.LC26, %edx
 2719      00
 2720 12bc 4889CE   		movq	%rcx, %rsi
 2721 12bf 4889C7   		movq	%rax, %rdi
 2722 12c2 E8000000 		call	_ZN8UnitTest11TestResults13OnTestFailureERKNS_11TestDetailsEPKc
 2722      00
 2723              	.LEHE78:
 2724              	.LEHB79:
 2725 12c7 E8000000 		call	__cxa_end_catch
 2725      00
 2726              	.LEHE79:
  94:TestTestResults.cpp ****     CHECK_EQUAL ("failurestring", reporter.lastFailedMessage);
 2727              		.loc 5 94 0
 2728 12cc E9B9FDFF 		jmp	.L129
 2728      FF
 2729              	.L146:
 2730 12d1 4889C3   		movq	%rax, %rbx
  95:TestTestResults.cpp **** }
 2731              		.loc 5 95 0 is_stmt 1
 2732 12d4 E8000000 		call	__cxa_end_catch
 2732      00
 2733 12d9 EB53     		jmp	.L115
 2734              	.L145:
 2735 12db 4889C7   		movq	%rax, %rdi
 2736 12de E8000000 		call	__cxa_begin_catch
 2736      00
 2737              	.LEHB80:
 2738 12e3 E8000000 		call	_ZN8UnitTest11CurrentTest7DetailsEv
 2738      00
 2739 12e8 488B08   		movq	(%rax), %rcx
 2740 12eb 488D8590 		leaq	-2160(%rbp), %rax
 2740      F7FFFF
 2741 12f2 BA5F0000 		movl	$95, %edx
 2741      00
 2742 12f7 4889CE   		movq	%rcx, %rsi
 2743 12fa 4889C7   		movq	%rax, %rdi
 2744 12fd E8000000 		call	_ZN8UnitTest11TestDetailsC1ERKS0_i
 2744      00
  95:TestTestResults.cpp **** }
 2745              		.loc 5 95 0 is_stmt 0 discriminator 1
 2746 1302 E8000000 		call	_ZN8UnitTest11CurrentTest7ResultsEv
 2746      00
 2747 1307 488B00   		movq	(%rax), %rax
 2748 130a 488D8D90 		leaq	-2160(%rbp), %rcx
 2748      F7FFFF
 2749 1311 BA000000 		movl	$.LC28, %edx
 2749      00
 2750 1316 4889CE   		movq	%rcx, %rsi
 2751 1319 4889C7   		movq	%rax, %rdi
 2752 131c E8000000 		call	_ZN8UnitTest11TestResults13OnTestFailureERKNS_11TestDetailsEPKc
 2752      00
 2753              	.LEHE80:
 2754              	.LEHB81:
 2755 1321 E8000000 		call	__cxa_end_catch
 2755      00
 2756              	.LEHE81:
  95:TestTestResults.cpp **** }
 2757              		.loc 5 95 0
 2758 1326 E9AEFDFF 		jmp	.L132
 2758      FF
 2759              	.L134:
 2760 132b 4889C3   		movq	%rax, %rbx
 2761              	.L115:
 2762 132e 488D85B0 		leaq	-2128(%rbp), %rax
 2762      F7FFFF
 2763 1335 4889C7   		movq	%rax, %rdi
 2764 1338 E8000000 		call	_ZN17RecordingReporterD1Ev
 2764      00
 2765 133d 4889D8   		movq	%rbx, %rax
 2766 1340 4889C7   		movq	%rax, %rdi
 2767              	.LEHB82:
 2768 1343 E8000000 		call	_Unwind_Resume
 2768      00
 2769              	.LEHE82:
 2770              	.L147:
 2771              	.LBE32:
 2772              		.loc 5 96 0 is_stmt 1
 2773 1348 E8000000 		call	__stack_chk_fail
 2773      00
 2774              	.L133:
 2775 134d 4881C4A8 		addq	$2216, %rsp
 2775      080000
 2776 1354 5B       		popq	%rbx
 2777 1355 5D       		popq	%rbp
 2778              		.cfi_def_cfa 7, 8
 2779 1356 C3       		ret
 2780              		.cfi_endproc
 2781              	.LFE1060:
 2782              		.section	.gcc_except_table
 2783              		.align 4
 2784              	.LLSDA1060:
 2785 0190 FF       		.byte	0xff
 2786 0191 03       		.byte	0x3
 2787 0192 8401     		.uleb128 .LLSDATT1060-.LLSDATTD1060
 2788              	.LLSDATTD1060:
 2789 0194 01       		.byte	0x1
 2790 0195 7A       		.uleb128 .LLSDACSE1060-.LLSDACSB1060
 2791              	.LLSDACSB1060:
 2792 0196 45       		.uleb128 .LEHB62-.LFB1060
 2793 0197 1E       		.uleb128 .LEHE62-.LEHB62
 2794 0198 A709     		.uleb128 .L134-.LFB1060
 2795 019a 00       		.uleb128 0
 2796 019b 63       		.uleb128 .LEHB63-.LFB1060
 2797 019c 5B       		.uleb128 .LEHE63-.LEHB63
 2798 019d 8905     		.uleb128 .L135-.LFB1060
 2799 019f 01       		.uleb128 0x1
 2800 01a0 BE01     		.uleb128 .LEHB64-.LFB1060
 2801 01a2 4F       		.uleb128 .LEHE64-.LEHB64
 2802 01a3 E605     		.uleb128 .L137-.LFB1060
 2803 01a5 01       		.uleb128 0x1
 2804 01a6 8D02     		.uleb128 .LEHB65-.LFB1060
 2805 01a8 5B       		.uleb128 .LEHE65-.LEHB65
 2806 01a9 C306     		.uleb128 .L139-.LFB1060
 2807 01ab 01       		.uleb128 0x1
 2808 01ac E802     		.uleb128 .LEHB66-.LFB1060
 2809 01ae 4F       		.uleb128 .LEHE66-.LEHB66
 2810 01af A007     		.uleb128 .L141-.LFB1060
 2811 01b1 01       		.uleb128 0x1
 2812 01b2 B703     		.uleb128 .LEHB67-.LFB1060
 2813 01b4 4F       		.uleb128 .LEHE67-.LEHB67
 2814 01b5 FD07     		.uleb128 .L143-.LFB1060
 2815 01b7 01       		.uleb128 0x1
 2816 01b8 8604     		.uleb128 .LEHB68-.LFB1060
 2817 01ba 4F       		.uleb128 .LEHE68-.LEHB68
 2818 01bb D708     		.uleb128 .L145-.LFB1060
 2819 01bd 01       		.uleb128 0x1
 2820 01be DF04     		.uleb128 .LEHB69-.LFB1060
 2821 01c0 05       		.uleb128 .LEHE69-.LEHB69
 2822 01c1 00       		.uleb128 0
 2823 01c2 00       		.uleb128 0
 2824 01c3 9105     		.uleb128 .LEHB70-.LFB1060
 2825 01c5 3E       		.uleb128 .LEHE70-.LEHB70
 2826 01c6 FC04     		.uleb128 .L136-.LFB1060
 2827 01c8 00       		.uleb128 0
 2828 01c9 CF05     		.uleb128 .LEHB71-.LFB1060
 2829 01cb 05       		.uleb128 .LEHE71-.LEHB71
 2830 01cc A709     		.uleb128 .L134-.LFB1060
 2831 01ce 00       		.uleb128 0
 2832 01cf EE05     		.uleb128 .LEHB72-.LFB1060
 2833 01d1 3E       		.uleb128 .LEHE72-.LEHB72
 2834 01d2 D905     		.uleb128 .L138-.LFB1060
 2835 01d4 00       		.uleb128 0
 2836 01d5 AC06     		.uleb128 .LEHB73-.LFB1060
 2837 01d7 05       		.uleb128 .LEHE73-.LEHB73
 2838 01d8 A709     		.uleb128 .L134-.LFB1060
 2839 01da 00       		.uleb128 0
 2840 01db CB06     		.uleb128 .LEHB74-.LFB1060
 2841 01dd 3E       		.uleb128 .LEHE74-.LEHB74
 2842 01de B606     		.uleb128 .L140-.LFB1060
 2843 01e0 00       		.uleb128 0
 2844 01e1 8907     		.uleb128 .LEHB75-.LFB1060
 2845 01e3 05       		.uleb128 .LEHE75-.LEHB75
 2846 01e4 A709     		.uleb128 .L134-.LFB1060
 2847 01e6 00       		.uleb128 0
 2848 01e7 A807     		.uleb128 .LEHB76-.LFB1060
 2849 01e9 3E       		.uleb128 .LEHE76-.LEHB76
 2850 01ea 9307     		.uleb128 .L142-.LFB1060
 2851 01ec 00       		.uleb128 0
 2852 01ed E607     		.uleb128 .LEHB77-.LFB1060
 2853 01ef 05       		.uleb128 .LEHE77-.LEHB77
 2854 01f0 A709     		.uleb128 .L134-.LFB1060
 2855 01f2 00       		.uleb128 0
 2856 01f3 8508     		.uleb128 .LEHB78-.LFB1060
 2857 01f5 3E       		.uleb128 .LEHE78-.LEHB78
 2858 01f6 F007     		.uleb128 .L144-.LFB1060
 2859 01f8 00       		.uleb128 0
 2860 01f9 C308     		.uleb128 .LEHB79-.LFB1060
 2861 01fb 05       		.uleb128 .LEHE79-.LEHB79
 2862 01fc A709     		.uleb128 .L134-.LFB1060
 2863 01fe 00       		.uleb128 0
 2864 01ff DF08     		.uleb128 .LEHB80-.LFB1060
 2865 0201 3E       		.uleb128 .LEHE80-.LEHB80
 2866 0202 CD08     		.uleb128 .L146-.LFB1060
 2867 0204 00       		.uleb128 0
 2868 0205 9D09     		.uleb128 .LEHB81-.LFB1060
 2869 0207 05       		.uleb128 .LEHE81-.LEHB81
 2870 0208 A709     		.uleb128 .L134-.LFB1060
 2871 020a 00       		.uleb128 0
 2872 020b BF09     		.uleb128 .LEHB82-.LFB1060
 2873 020d 05       		.uleb128 .LEHE82-.LEHB82
 2874 020e 00       		.uleb128 0
 2875 020f 00       		.uleb128 0
 2876              	.LLSDACSE1060:
 2877 0210 01       		.byte	0x1
 2878 0211 00       		.byte	0
 2879 0212 0000     		.align 4
 2880 0214 00000000 		.long	0
 2881              	
 2882              	.LLSDATT1060:
 2883              		.text
 2885              		.section	.rodata
 2886              	.LC30:
 2887 054e 4E6F7469 		.string	"NotifiesReporterOfTestEnd"
 2887      66696573 
 2887      5265706F 
 2887      72746572 
 2887      4F665465 
 2888              		.text
 2889 1357 90       		.align 2
 2891              	_ZN12_GLOBAL__N_129TestNotifiesReporterOfTestEndC2Ev:
 2892              	.LFB1062:
  97:TestTestResults.cpp **** 
  98:TestTestResults.cpp **** TEST(NotifiesReporterOfTestEnd)
 2893              		.loc 5 98 0
 2894              		.cfi_startproc
 2895 1358 55       		pushq	%rbp
 2896              		.cfi_def_cfa_offset 16
 2897              		.cfi_offset 6, -16
 2898 1359 4889E5   		movq	%rsp, %rbp
 2899              		.cfi_def_cfa_register 6
 2900 135c 4883EC10 		subq	$16, %rsp
 2901 1360 48897DF8 		movq	%rdi, -8(%rbp)
 2902              	.LBB33:
 2903              		.loc 5 98 0
 2904 1364 E8000000 		call	_ZN13UnitTestSuite12GetSuiteNameEv
 2904      00
 2905 1369 4889C2   		movq	%rax, %rdx
 2906 136c 488B45F8 		movq	-8(%rbp), %rax
 2907 1370 41B86200 		movl	$98, %r8d
 2907      0000
 2908 1376 B9000000 		movl	$.LC2, %ecx
 2908      00
 2909 137b BE000000 		movl	$.LC30, %esi
 2909      00
 2910 1380 4889C7   		movq	%rax, %rdi
 2911 1383 E8000000 		call	_ZN8UnitTest4TestC2EPKcS2_S2_i
 2911      00
 2912 1388 488B45F8 		movq	-8(%rbp), %rax
 2913 138c 48C70000 		movq	$_ZTVN12_GLOBAL__N_129TestNotifiesReporterOfTestEndE+16, (%rax)
 2913      000000
 2914              	.LBE33:
 2915 1393 C9       		leave
 2916              		.cfi_def_cfa 7, 8
 2917 1394 C3       		ret
 2918              		.cfi_endproc
 2919              	.LFE1062:
 2921              		.set	_ZN12_GLOBAL__N_129TestNotifiesReporterOfTestEndC1Ev,_ZN12_GLOBAL__N_129TestNotifiesReporterO
 2922              		.local	_ZN12_GLOBAL__N_137testNotifiesReporterOfTestEndInstanceE
 2923              		.comm	_ZN12_GLOBAL__N_137testNotifiesReporterOfTestEndInstanceE,56,32
 2924              		.local	_ZN12_GLOBAL__N_130adderNotifiesReporterOfTestEndE
 2925              		.comm	_ZN12_GLOBAL__N_130adderNotifiesReporterOfTestEndE,1,1
 2926              		.section	.rodata
 2927              		.align 8
 2928              	.LC33:
 2929 0568 556E6861 		.string	"Unhandled exception in CHECK_EQUAL(1, reporter.testFinishedCount)"
 2929      6E646C65 
 2929      64206578 
 2929      63657074 
 2929      696F6E20 
 2930 05aa 00000000 		.align 8
 2930      0000
 2931              	.LC34:
 2932 05b0 556E6861 		.string	"Unhandled exception in CHECK_EQUAL(\"testname\", reporter.lastFinishedTest)"
 2932      6E646C65 
 2932      64206578 
 2932      63657074 
 2932      696F6E20 
 2933 05fa 00000000 		.align 8
 2933      0000
 2934              	.LC35:
 2935 0600 556E6861 		.string	"Unhandled exception in CHECK_EQUAL(\"suitename\", reporter.lastFinishedSuite)"
 2935      6E646C65 
 2935      64206578 
 2935      63657074 
 2935      696F6E20 
 2936 064c 00000000 		.align 8
 2937              	.LC36:
 2938 0650 556E6861 		.string	"Unhandled exception in CHECK_CLOSE(0.1234f, reporter.lastFinishedTestTime)"
 2938      6E646C65 
 2938      64206578 
 2938      63657074 
 2938      696F6E20 
 2939              		.text
 2940 1395 90       		.align 2
 2942              	_ZNK12_GLOBAL__N_129TestNotifiesReporterOfTestEnd7RunImplEv:
 2943              	.LFB1064:
  99:TestTestResults.cpp **** {
 2944              		.loc 5 99 0
 2945              		.cfi_startproc
 2946              		.cfi_personality 0x3,__gxx_personality_v0
 2947              		.cfi_lsda 0x3,.LLSDA1064
 2948 1396 55       		pushq	%rbp
 2949              		.cfi_def_cfa_offset 16
 2950              		.cfi_offset 6, -16
 2951 1397 4889E5   		movq	%rsp, %rbp
 2952              		.cfi_def_cfa_register 6
 2953 139a 53       		pushq	%rbx
 2954 139b 4881ECA8 		subq	$2216, %rsp
 2954      080000
 2955              		.cfi_offset 3, -24
 2956 13a2 4889BD58 		movq	%rdi, -2216(%rbp)
 2956      F7FFFF
 2957              		.loc 5 99 0
 2958 13a9 64488B04 		movq	%fs:40, %rax
 2958      25280000 
 2958      00
 2959 13b2 488945E8 		movq	%rax, -24(%rbp)
 2960 13b6 31C0     		xorl	%eax, %eax
 2961              	.LBB34:
 100:TestTestResults.cpp ****     RecordingReporter reporter;
 2962              		.loc 5 100 0
 2963 13b8 488D85B0 		leaq	-2128(%rbp), %rax
 2963      F7FFFF
 2964 13bf 4889C7   		movq	%rax, %rdi
 2965 13c2 E8000000 		call	_ZN17RecordingReporterC1Ev
 2965      00
 101:TestTestResults.cpp ****     TestResults results(&reporter);
 2966              		.loc 5 101 0
 2967 13c7 488D95B0 		leaq	-2128(%rbp), %rdx
 2967      F7FFFF
 2968 13ce 488D8570 		leaq	-2192(%rbp), %rax
 2968      F7FFFF
 2969 13d5 4889D6   		movq	%rdx, %rsi
 2970 13d8 4889C7   		movq	%rax, %rdi
 2971              	.LEHB83:
 2972 13db E8000000 		call	_ZN8UnitTest11TestResultsC1EPNS_12TestReporterE
 2972      00
 102:TestTestResults.cpp **** 
 103:TestTestResults.cpp ****     results.OnTestFinish(details, 0.1234f);
 2973              		.loc 5 103 0
 2974 13e0 488D8570 		leaq	-2192(%rbp), %rax
 2974      F7FFFF
 2975 13e7 F30F1005 		movss	.LC31(%rip), %xmm0
 2975      00000000 
 2976 13ef BE000000 		movl	$_ZN12_GLOBAL__N_1L7detailsE, %esi
 2976      00
 2977 13f4 4889C7   		movq	%rax, %rdi
 2978 13f7 E8000000 		call	_ZN8UnitTest11TestResults12OnTestFinishERKNS_11TestDetailsEf
 2978      00
 2979              	.LEHE83:
 2980              	.LEHB84:
 104:TestTestResults.cpp ****     CHECK_EQUAL (1, reporter.testFinishedCount);
 2981              		.loc 5 104 0
 2982 13fc E8000000 		call	_ZN8UnitTest11CurrentTest7DetailsEv
 2982      00
 2983 1401 488B08   		movq	(%rax), %rcx
 2984 1404 488D8590 		leaq	-2160(%rbp), %rax
 2984      F7FFFF
 2985 140b BA680000 		movl	$104, %edx
 2985      00
 2986 1410 4889CE   		movq	%rcx, %rsi
 2987 1413 4889C7   		movq	%rax, %rdi
 2988 1416 E8000000 		call	_ZN8UnitTest11TestDetailsC1ERKS0_i
 2988      00
 2989              		.loc 5 104 0 is_stmt 0 discriminator 1
 2990 141b C7856CF7 		movl	$1, -2196(%rbp)
 2990      FFFF0100 
 2990      0000
 2991 1425 E8000000 		call	_ZN8UnitTest11CurrentTest7ResultsEv
 2991      00
 2992 142a 488B00   		movq	(%rax), %rax
 2993 142d 488D9590 		leaq	-2160(%rbp), %rdx
 2993      F7FFFF
 2994 1434 488D8DB0 		leaq	-2128(%rbp), %rcx
 2994      F7FFFF
 2995 143b 488DB914 		leaq	1556(%rcx), %rdi
 2995      060000
 2996 1442 488DB56C 		leaq	-2196(%rbp), %rsi
 2996      F7FFFF
 2997 1449 4889D1   		movq	%rdx, %rcx
 2998 144c 4889FA   		movq	%rdi, %rdx
 2999 144f 4889C7   		movq	%rax, %rdi
 3000 1452 E8000000 		call	_ZN8UnitTest10CheckEqualIiiEEvRNS_11TestResultsERKT_RKT0_RKNS_11TestDetailsE
 3000      00
 3001              	.LEHE84:
 3002              	.L153:
 3003              	.LEHB85:
 105:TestTestResults.cpp ****     CHECK_EQUAL ("testname", reporter.lastFinishedTest);
 3004              		.loc 5 105 0 is_stmt 1
 3005 1457 E8000000 		call	_ZN8UnitTest11CurrentTest7DetailsEv
 3005      00
 3006 145c 488B08   		movq	(%rax), %rcx
 3007 145f 488D8590 		leaq	-2160(%rbp), %rax
 3007      F7FFFF
 3008 1466 BA690000 		movl	$105, %edx
 3008      00
 3009 146b 4889CE   		movq	%rcx, %rsi
 3010 146e 4889C7   		movq	%rax, %rdi
 3011 1471 E8000000 		call	_ZN8UnitTest11TestDetailsC1ERKS0_i
 3011      00
 3012              		.loc 5 105 0 is_stmt 0 discriminator 1
 3013 1476 E8000000 		call	_ZN8UnitTest11CurrentTest7ResultsEv
 3013      00
 3014 147b 488B00   		movq	(%rax), %rax
 3015 147e 488D9590 		leaq	-2160(%rbp), %rdx
 3015      F7FFFF
 3016 1485 488D8DB0 		leaq	-2128(%rbp), %rcx
 3016      F7FFFF
 3017 148c 488DB118 		leaq	1816(%rcx), %rsi
 3017      070000
 3018 1493 4889D1   		movq	%rdx, %rcx
 3019 1496 4889F2   		movq	%rsi, %rdx
 3020 1499 BE000000 		movl	$.LC16, %esi
 3020      00
 3021 149e 4889C7   		movq	%rax, %rdi
 3022 14a1 E8000000 		call	_ZN8UnitTest10CheckEqualERNS_11TestResultsEPKcPcRKNS_11TestDetailsE
 3022      00
 3023              	.LEHE85:
 3024              	.L156:
 3025              	.LEHB86:
 106:TestTestResults.cpp ****     CHECK_EQUAL ("suitename", reporter.lastFinishedSuite);
 3026              		.loc 5 106 0 is_stmt 1
 3027 14a6 E8000000 		call	_ZN8UnitTest11CurrentTest7DetailsEv
 3027      00
 3028 14ab 488B08   		movq	(%rax), %rcx
 3029 14ae 488D8590 		leaq	-2160(%rbp), %rax
 3029      F7FFFF
 3030 14b5 BA6A0000 		movl	$106, %edx
 3030      00
 3031 14ba 4889CE   		movq	%rcx, %rsi
 3032 14bd 4889C7   		movq	%rax, %rdi
 3033 14c0 E8000000 		call	_ZN8UnitTest11TestDetailsC1ERKS0_i
 3033      00
 3034              		.loc 5 106 0 is_stmt 0 discriminator 1
 3035 14c5 E8000000 		call	_ZN8UnitTest11CurrentTest7ResultsEv
 3035      00
 3036 14ca 488B00   		movq	(%rax), %rax
 3037 14cd 488D9590 		leaq	-2160(%rbp), %rdx
 3037      F7FFFF
 3038 14d4 488D8DB0 		leaq	-2128(%rbp), %rcx
 3038      F7FFFF
 3039 14db 488DB118 		leaq	1560(%rcx), %rsi
 3039      060000
 3040 14e2 4889D1   		movq	%rdx, %rcx
 3041 14e5 4889F2   		movq	%rsi, %rdx
 3042 14e8 BE000000 		movl	$.LC15, %esi
 3042      00
 3043 14ed 4889C7   		movq	%rax, %rdi
 3044 14f0 E8000000 		call	_ZN8UnitTest10CheckEqualERNS_11TestResultsEPKcPcRKNS_11TestDetailsE
 3044      00
 3045              	.LEHE86:
 3046              	.L159:
 3047              	.LEHB87:
 107:TestTestResults.cpp ****     CHECK_CLOSE (0.1234f, reporter.lastFinishedTestTime, 0.0001f);
 3048              		.loc 5 107 0 is_stmt 1
 3049 14f5 E8000000 		call	_ZN8UnitTest11CurrentTest7DetailsEv
 3049      00
 3050 14fa 488B08   		movq	(%rax), %rcx
 3051 14fd 488D8590 		leaq	-2160(%rbp), %rax
 3051      F7FFFF
 3052 1504 BA6B0000 		movl	$107, %edx
 3052      00
 3053 1509 4889CE   		movq	%rcx, %rsi
 3054 150c 4889C7   		movq	%rax, %rdi
 3055 150f E8000000 		call	_ZN8UnitTest11TestDetailsC1ERKS0_i
 3055      00
 3056              		.loc 5 107 0 is_stmt 0 discriminator 1
 3057 1514 8B050000 		movl	.LC32(%rip), %eax
 3057      0000
 3058 151a 89856CF7 		movl	%eax, -2196(%rbp)
 3058      FFFF
 3059 1520 8B050000 		movl	.LC31(%rip), %eax
 3059      0000
 3060 1526 898568F7 		movl	%eax, -2200(%rbp)
 3060      FFFF
 3061 152c E8000000 		call	_ZN8UnitTest11CurrentTest7ResultsEv
 3061      00
 3062 1531 488B00   		movq	(%rax), %rax
 3063 1534 488D8D90 		leaq	-2160(%rbp), %rcx
 3063      F7FFFF
 3064 153b 488D956C 		leaq	-2196(%rbp), %rdx
 3064      F7FFFF
 3065 1542 488DB5B0 		leaq	-2128(%rbp), %rsi
 3065      F7FFFF
 3066 1549 488DBE18 		leaq	2072(%rsi), %rdi
 3066      080000
 3067 1550 488DB568 		leaq	-2200(%rbp), %rsi
 3067      F7FFFF
 3068 1557 4989C8   		movq	%rcx, %r8
 3069 155a 4889D1   		movq	%rdx, %rcx
 3070 155d 4889FA   		movq	%rdi, %rdx
 3071 1560 4889C7   		movq	%rax, %rdi
 3072 1563 E8000000 		call	_ZN8UnitTest10CheckCloseIfffEEvRNS_11TestResultsERKT_RKT0_RKT1_RKNS_11TestDetailsE
 3072      00
 3073              	.LEHE87:
 3074              	.L162:
 3075              		.loc 5 107 0 discriminator 2
 3076 1568 488D85B0 		leaq	-2128(%rbp), %rax
 3076      F7FFFF
 3077 156f 4889C7   		movq	%rax, %rdi
 3078              	.LEHB88:
 3079 1572 E8000000 		call	_ZN17RecordingReporterD1Ev
 3079      00
 3080              	.LEHE88:
 3081              	.LBE34:
 108:TestTestResults.cpp **** }
 3082              		.loc 5 108 0 is_stmt 1 discriminator 2
 3083 1577 488B45E8 		movq	-24(%rbp), %rax
 3084 157b 64483304 		xorq	%fs:40, %rax
 3084      25280000 
 3084      00
 3085 1584 0F849801 		je	.L163
 3085      0000
 3086 158a E98E0100 		jmp	.L173
 3086      00
 3087              	.L166:
 3088 158f 4889C3   		movq	%rax, %rbx
 3089              	.LBB35:
 104:TestTestResults.cpp ****     CHECK_EQUAL ("testname", reporter.lastFinishedTest);
 3090              		.loc 5 104 0
 3091 1592 E8000000 		call	__cxa_end_catch
 3091      00
 3092 1597 E9670100 		jmp	.L151
 3092      00
 3093              	.L165:
 3094 159c 4889C7   		movq	%rax, %rdi
 3095 159f E8000000 		call	__cxa_begin_catch
 3095      00
 3096              	.LEHB89:
 3097 15a4 E8000000 		call	_ZN8UnitTest11CurrentTest7DetailsEv
 3097      00
 3098 15a9 488B08   		movq	(%rax), %rcx
 3099 15ac 488D8590 		leaq	-2160(%rbp), %rax
 3099      F7FFFF
 3100 15b3 BA680000 		movl	$104, %edx
 3100      00
 3101 15b8 4889CE   		movq	%rcx, %rsi
 3102 15bb 4889C7   		movq	%rax, %rdi
 3103 15be E8000000 		call	_ZN8UnitTest11TestDetailsC1ERKS0_i
 3103      00
 104:TestTestResults.cpp ****     CHECK_EQUAL ("testname", reporter.lastFinishedTest);
 3104              		.loc 5 104 0 is_stmt 0 discriminator 1
 3105 15c3 E8000000 		call	_ZN8UnitTest11CurrentTest7ResultsEv
 3105      00
 3106 15c8 488B00   		movq	(%rax), %rax
 3107 15cb 488D8D90 		leaq	-2160(%rbp), %rcx
 3107      F7FFFF
 3108 15d2 BA000000 		movl	$.LC33, %edx
 3108      00
 3109 15d7 4889CE   		movq	%rcx, %rsi
 3110 15da 4889C7   		movq	%rax, %rdi
 3111 15dd E8000000 		call	_ZN8UnitTest11TestResults13OnTestFailureERKNS_11TestDetailsEPKc
 3111      00
 3112              	.LEHE89:
 3113              	.LEHB90:
 3114 15e2 E8000000 		call	__cxa_end_catch
 3114      00
 3115              	.LEHE90:
 104:TestTestResults.cpp ****     CHECK_EQUAL ("testname", reporter.lastFinishedTest);
 3116              		.loc 5 104 0
 3117 15e7 E96BFEFF 		jmp	.L153
 3117      FF
 3118              	.L168:
 3119 15ec 4889C3   		movq	%rax, %rbx
 105:TestTestResults.cpp ****     CHECK_EQUAL ("suitename", reporter.lastFinishedSuite);
 3120              		.loc 5 105 0 is_stmt 1
 3121 15ef E8000000 		call	__cxa_end_catch
 3121      00
 3122 15f4 E90A0100 		jmp	.L151
 3122      00
 3123              	.L167:
 3124 15f9 4889C7   		movq	%rax, %rdi
 3125 15fc E8000000 		call	__cxa_begin_catch
 3125      00
 3126              	.LEHB91:
 3127 1601 E8000000 		call	_ZN8UnitTest11CurrentTest7DetailsEv
 3127      00
 3128 1606 488B08   		movq	(%rax), %rcx
 3129 1609 488D8590 		leaq	-2160(%rbp), %rax
 3129      F7FFFF
 3130 1610 BA690000 		movl	$105, %edx
 3130      00
 3131 1615 4889CE   		movq	%rcx, %rsi
 3132 1618 4889C7   		movq	%rax, %rdi
 3133 161b E8000000 		call	_ZN8UnitTest11TestDetailsC1ERKS0_i
 3133      00
 105:TestTestResults.cpp ****     CHECK_EQUAL ("suitename", reporter.lastFinishedSuite);
 3134              		.loc 5 105 0 is_stmt 0 discriminator 1
 3135 1620 E8000000 		call	_ZN8UnitTest11CurrentTest7ResultsEv
 3135      00
 3136 1625 488B00   		movq	(%rax), %rax
 3137 1628 488D8D90 		leaq	-2160(%rbp), %rcx
 3137      F7FFFF
 3138 162f BA000000 		movl	$.LC34, %edx
 3138      00
 3139 1634 4889CE   		movq	%rcx, %rsi
 3140 1637 4889C7   		movq	%rax, %rdi
 3141 163a E8000000 		call	_ZN8UnitTest11TestResults13OnTestFailureERKNS_11TestDetailsEPKc
 3141      00
 3142              	.LEHE91:
 3143              	.LEHB92:
 3144 163f E8000000 		call	__cxa_end_catch
 3144      00
 3145              	.LEHE92:
 105:TestTestResults.cpp ****     CHECK_EQUAL ("suitename", reporter.lastFinishedSuite);
 3146              		.loc 5 105 0
 3147 1644 E95DFEFF 		jmp	.L156
 3147      FF
 3148              	.L170:
 3149 1649 4889C3   		movq	%rax, %rbx
 106:TestTestResults.cpp ****     CHECK_CLOSE (0.1234f, reporter.lastFinishedTestTime, 0.0001f);
 3150              		.loc 5 106 0 is_stmt 1
 3151 164c E8000000 		call	__cxa_end_catch
 3151      00
 3152 1651 E9AD0000 		jmp	.L151
 3152      00
 3153              	.L169:
 3154 1656 4889C7   		movq	%rax, %rdi
 3155 1659 E8000000 		call	__cxa_begin_catch
 3155      00
 3156              	.LEHB93:
 3157 165e E8000000 		call	_ZN8UnitTest11CurrentTest7DetailsEv
 3157      00
 3158 1663 488B08   		movq	(%rax), %rcx
 3159 1666 488D8590 		leaq	-2160(%rbp), %rax
 3159      F7FFFF
 3160 166d BA6A0000 		movl	$106, %edx
 3160      00
 3161 1672 4889CE   		movq	%rcx, %rsi
 3162 1675 4889C7   		movq	%rax, %rdi
 3163 1678 E8000000 		call	_ZN8UnitTest11TestDetailsC1ERKS0_i
 3163      00
 106:TestTestResults.cpp ****     CHECK_CLOSE (0.1234f, reporter.lastFinishedTestTime, 0.0001f);
 3164              		.loc 5 106 0 is_stmt 0 discriminator 1
 3165 167d E8000000 		call	_ZN8UnitTest11CurrentTest7ResultsEv
 3165      00
 3166 1682 488B00   		movq	(%rax), %rax
 3167 1685 488D8D90 		leaq	-2160(%rbp), %rcx
 3167      F7FFFF
 3168 168c BA000000 		movl	$.LC35, %edx
 3168      00
 3169 1691 4889CE   		movq	%rcx, %rsi
 3170 1694 4889C7   		movq	%rax, %rdi
 3171 1697 E8000000 		call	_ZN8UnitTest11TestResults13OnTestFailureERKNS_11TestDetailsEPKc
 3171      00
 3172              	.LEHE93:
 3173              	.LEHB94:
 3174 169c E8000000 		call	__cxa_end_catch
 3174      00
 3175              	.LEHE94:
 106:TestTestResults.cpp ****     CHECK_CLOSE (0.1234f, reporter.lastFinishedTestTime, 0.0001f);
 3176              		.loc 5 106 0
 3177 16a1 E94FFEFF 		jmp	.L159
 3177      FF
 3178              	.L172:
 3179 16a6 4889C3   		movq	%rax, %rbx
 107:TestTestResults.cpp **** }
 3180              		.loc 5 107 0 is_stmt 1
 3181 16a9 E8000000 		call	__cxa_end_catch
 3181      00
 3182 16ae EB53     		jmp	.L151
 3183              	.L171:
 3184 16b0 4889C7   		movq	%rax, %rdi
 3185 16b3 E8000000 		call	__cxa_begin_catch
 3185      00
 3186              	.LEHB95:
 3187 16b8 E8000000 		call	_ZN8UnitTest11CurrentTest7DetailsEv
 3187      00
 3188 16bd 488B08   		movq	(%rax), %rcx
 3189 16c0 488D8590 		leaq	-2160(%rbp), %rax
 3189      F7FFFF
 3190 16c7 BA6B0000 		movl	$107, %edx
 3190      00
 3191 16cc 4889CE   		movq	%rcx, %rsi
 3192 16cf 4889C7   		movq	%rax, %rdi
 3193 16d2 E8000000 		call	_ZN8UnitTest11TestDetailsC1ERKS0_i
 3193      00
 107:TestTestResults.cpp **** }
 3194              		.loc 5 107 0 is_stmt 0 discriminator 1
 3195 16d7 E8000000 		call	_ZN8UnitTest11CurrentTest7ResultsEv
 3195      00
 3196 16dc 488B00   		movq	(%rax), %rax
 3197 16df 488D8D90 		leaq	-2160(%rbp), %rcx
 3197      F7FFFF
 3198 16e6 BA000000 		movl	$.LC36, %edx
 3198      00
 3199 16eb 4889CE   		movq	%rcx, %rsi
 3200 16ee 4889C7   		movq	%rax, %rdi
 3201 16f1 E8000000 		call	_ZN8UnitTest11TestResults13OnTestFailureERKNS_11TestDetailsEPKc
 3201      00
 3202              	.LEHE95:
 3203              	.LEHB96:
 3204 16f6 E8000000 		call	__cxa_end_catch
 3204      00
 3205              	.LEHE96:
 107:TestTestResults.cpp **** }
 3206              		.loc 5 107 0
 3207 16fb E968FEFF 		jmp	.L162
 3207      FF
 3208              	.L164:
 3209 1700 4889C3   		movq	%rax, %rbx
 3210              	.L151:
 3211 1703 488D85B0 		leaq	-2128(%rbp), %rax
 3211      F7FFFF
 3212 170a 4889C7   		movq	%rax, %rdi
 3213 170d E8000000 		call	_ZN17RecordingReporterD1Ev
 3213      00
 3214 1712 4889D8   		movq	%rbx, %rax
 3215 1715 4889C7   		movq	%rax, %rdi
 3216              	.LEHB97:
 3217 1718 E8000000 		call	_Unwind_Resume
 3217      00
 3218              	.LEHE97:
 3219              	.L173:
 3220              	.LBE35:
 3221              		.loc 5 108 0 is_stmt 1
 3222 171d E8000000 		call	__stack_chk_fail
 3222      00
 3223              	.L163:
 3224 1722 4881C4A8 		addq	$2216, %rsp
 3224      080000
 3225 1729 5B       		popq	%rbx
 3226 172a 5D       		popq	%rbp
 3227              		.cfi_def_cfa 7, 8
 3228 172b C3       		ret
 3229              		.cfi_endproc
 3230              	.LFE1064:
 3231              		.section	.gcc_except_table
 3232              		.align 4
 3233              	.LLSDA1064:
 3234 0218 FF       		.byte	0xff
 3235 0219 03       		.byte	0x3
 3236 021a 61       		.uleb128 .LLSDATT1064-.LLSDATTD1064
 3237              	.LLSDATTD1064:
 3238 021b 01       		.byte	0x1
 3239 021c 56       		.uleb128 .LLSDACSE1064-.LLSDACSB1064
 3240              	.LLSDACSB1064:
 3241 021d 45       		.uleb128 .LEHB83-.LFB1064
 3242 021e 21       		.uleb128 .LEHE83-.LEHB83
 3243 021f EA06     		.uleb128 .L164-.LFB1064
 3244 0221 00       		.uleb128 0
 3245 0222 66       		.uleb128 .LEHB84-.LFB1064
 3246 0223 5B       		.uleb128 .LEHE84-.LEHB84
 3247 0224 8604     		.uleb128 .L165-.LFB1064
 3248 0226 01       		.uleb128 0x1
 3249 0227 C101     		.uleb128 .LEHB85-.LFB1064
 3250 0229 4F       		.uleb128 .LEHE85-.LEHB85
 3251 022a E304     		.uleb128 .L167-.LFB1064
 3252 022c 01       		.uleb128 0x1
 3253 022d 9002     		.uleb128 .LEHB86-.LFB1064
 3254 022f 4F       		.uleb128 .LEHE86-.LEHB86
 3255 0230 C005     		.uleb128 .L169-.LFB1064
 3256 0232 01       		.uleb128 0x1
 3257 0233 DF02     		.uleb128 .LEHB87-.LFB1064
 3258 0235 73       		.uleb128 .LEHE87-.LEHB87
 3259 0236 9A06     		.uleb128 .L171-.LFB1064
 3260 0238 01       		.uleb128 0x1
 3261 0239 DC03     		.uleb128 .LEHB88-.LFB1064
 3262 023b 05       		.uleb128 .LEHE88-.LEHB88
 3263 023c 00       		.uleb128 0
 3264 023d 00       		.uleb128 0
 3265 023e 8E04     		.uleb128 .LEHB89-.LFB1064
 3266 0240 3E       		.uleb128 .LEHE89-.LEHB89
 3267 0241 F903     		.uleb128 .L166-.LFB1064
 3268 0243 00       		.uleb128 0
 3269 0244 CC04     		.uleb128 .LEHB90-.LFB1064
 3270 0246 05       		.uleb128 .LEHE90-.LEHB90
 3271 0247 EA06     		.uleb128 .L164-.LFB1064
 3272 0249 00       		.uleb128 0
 3273 024a EB04     		.uleb128 .LEHB91-.LFB1064
 3274 024c 3E       		.uleb128 .LEHE91-.LEHB91
 3275 024d D604     		.uleb128 .L168-.LFB1064
 3276 024f 00       		.uleb128 0
 3277 0250 A905     		.uleb128 .LEHB92-.LFB1064
 3278 0252 05       		.uleb128 .LEHE92-.LEHB92
 3279 0253 EA06     		.uleb128 .L164-.LFB1064
 3280 0255 00       		.uleb128 0
 3281 0256 C805     		.uleb128 .LEHB93-.LFB1064
 3282 0258 3E       		.uleb128 .LEHE93-.LEHB93
 3283 0259 B305     		.uleb128 .L170-.LFB1064
 3284 025b 00       		.uleb128 0
 3285 025c 8606     		.uleb128 .LEHB94-.LFB1064
 3286 025e 05       		.uleb128 .LEHE94-.LEHB94
 3287 025f EA06     		.uleb128 .L164-.LFB1064
 3288 0261 00       		.uleb128 0
 3289 0262 A206     		.uleb128 .LEHB95-.LFB1064
 3290 0264 3E       		.uleb128 .LEHE95-.LEHB95
 3291 0265 9006     		.uleb128 .L172-.LFB1064
 3292 0267 00       		.uleb128 0
 3293 0268 E006     		.uleb128 .LEHB96-.LFB1064
 3294 026a 05       		.uleb128 .LEHE96-.LEHB96
 3295 026b EA06     		.uleb128 .L164-.LFB1064
 3296 026d 00       		.uleb128 0
 3297 026e 8207     		.uleb128 .LEHB97-.LFB1064
 3298 0270 05       		.uleb128 .LEHE97-.LEHB97
 3299 0271 00       		.uleb128 0
 3300 0272 00       		.uleb128 0
 3301              	.LLSDACSE1064:
 3302 0273 01       		.byte	0x1
 3303 0274 00       		.byte	0
 3304 0275 000000   		.align 4
 3305 0278 00000000 		.long	0
 3306              	
 3307              	.LLSDATT1064:
 3308              		.text
 3310              		.section	.text._ZN8UnitTest15MemoryOutStreamD1Ev,"axG",@progbits,_ZN8UnitTest15MemoryOutStreamD1Ev
 3311              		.align 2
 3312              		.weak	_ZN8UnitTest15MemoryOutStreamD1Ev
 3314              	_ZN8UnitTest15MemoryOutStreamD1Ev:
 3315              	.LFB1095:
  13:../MemoryOutStream.h **** {
 3316              		.loc 2 13 0
 3317              		.cfi_startproc
 3318              		.cfi_personality 0x3,__gxx_personality_v0
 3319              		.cfi_lsda 0x3,.LLSDA1095
 3320 0000 55       		pushq	%rbp
 3321              		.cfi_def_cfa_offset 16
 3322              		.cfi_offset 6, -16
 3323 0001 4889E5   		movq	%rsp, %rbp
 3324              		.cfi_def_cfa_register 6
 3325 0004 53       		pushq	%rbx
 3326 0005 4883EC18 		subq	$24, %rsp
 3327              		.cfi_offset 3, -24
 3328 0009 48897DE8 		movq	%rdi, -24(%rbp)
 3329              	.LBB36:
  13:../MemoryOutStream.h **** {
 3330              		.loc 2 13 0
 3331 000d BA000000 		movl	$_ZTVN8UnitTest15MemoryOutStreamE+24, %edx
 3331      00
 3332 0012 488B45E8 		movq	-24(%rbp), %rax
 3333 0016 488910   		movq	%rdx, (%rax)
 3334 0019 BA600000 		movl	$96, %edx
 3334      00
 3335 001e 488B45E8 		movq	-24(%rbp), %rax
 3336 0022 4801C2   		addq	%rax, %rdx
 3337 0025 B8000000 		movl	$_ZTVN8UnitTest15MemoryOutStreamE+64, %eax
 3337      00
 3338 002a 488902   		movq	%rax, (%rdx)
 3339 002d 488B45E8 		movq	-24(%rbp), %rax
 3340 0031 4883C058 		addq	$88, %rax
 3341 0035 4889C7   		movq	%rax, %rdi
 3342              	.LEHB98:
 3343 0038 E8000000 		call	_ZNSsD1Ev
 3343      00
 3344              	.LEHE98:
  13:../MemoryOutStream.h **** {
 3345              		.loc 2 13 0 is_stmt 0 discriminator 10
 3346 003d BA000000 		movl	$_ZTTN8UnitTest15MemoryOutStreamE+8, %edx
 3346      00
 3347 0042 488B45E8 		movq	-24(%rbp), %rax
 3348 0046 4889D6   		movq	%rdx, %rsi
 3349 0049 4889C7   		movq	%rax, %rdi
 3350              	.LEHB99:
 3351 004c E8000000 		call	_ZNSt19basic_ostringstreamIcSt11char_traitsIcESaIcEED2Ev
 3351      00
 3352              	.LEHE99:
  13:../MemoryOutStream.h **** {
 3353              		.loc 2 13 0 discriminator 14
 3354 0051 B8020000 		movl	$2, %eax
 3354      00
 3355 0056 85C0     		testl	%eax, %eax
 3356 0058 7410     		je	.L175
  13:../MemoryOutStream.h **** {
 3357              		.loc 2 13 0 discriminator 15
 3358 005a 488B45E8 		movq	-24(%rbp), %rax
 3359 005e 4883C060 		addq	$96, %rax
 3360 0062 4889C7   		movq	%rax, %rdi
 3361              	.LEHB100:
 3362 0065 E8000000 		call	_ZNSt9basic_iosIcSt11char_traitsIcEED2Ev
 3362      00
 3363              	.LEHE100:
 3364              	.L175:
 3365              	.LBE36:
  13:../MemoryOutStream.h **** {
 3366              		.loc 2 13 0 discriminator 16
 3367 006a B8000000 		movl	$0, %eax
 3367      00
 3368 006f 85C0     		testl	%eax, %eax
 3369 0071 744E     		je	.L182
  13:../MemoryOutStream.h **** {
 3370              		.loc 2 13 0 discriminator 1
 3371 0073 488B45E8 		movq	-24(%rbp), %rax
 3372 0077 4889C7   		movq	%rax, %rdi
 3373 007a E8000000 		call	_ZdlPv
 3373      00
 3374 007f EB40     		jmp	.L182
 3375              	.L180:
 3376 0081 4889C3   		movq	%rax, %rbx
 3377              	.LBB37:
  13:../MemoryOutStream.h **** {
 3378              		.loc 2 13 0
 3379 0084 BA000000 		movl	$_ZTTN8UnitTest15MemoryOutStreamE+8, %edx
 3379      00
 3380 0089 488B45E8 		movq	-24(%rbp), %rax
 3381 008d 4889D6   		movq	%rdx, %rsi
 3382 0090 4889C7   		movq	%rax, %rdi
 3383 0093 E8000000 		call	_ZNSt19basic_ostringstreamIcSt11char_traitsIcESaIcEED2Ev
 3383      00
 3384 0098 EB03     		jmp	.L178
 3385              	.L181:
 3386 009a 4889C3   		movq	%rax, %rbx
 3387              	.L178:
 3388 009d B8020000 		movl	$2, %eax
 3388      00
 3389 00a2 85C0     		testl	%eax, %eax
 3390 00a4 7410     		je	.L179
  13:../MemoryOutStream.h **** {
 3391              		.loc 2 13 0 discriminator 20
 3392 00a6 488B45E8 		movq	-24(%rbp), %rax
 3393 00aa 4883C060 		addq	$96, %rax
 3394 00ae 4889C7   		movq	%rax, %rdi
 3395 00b1 E8000000 		call	_ZNSt9basic_iosIcSt11char_traitsIcEED2Ev
 3395      00
 3396              	.L179:
 3397 00b6 4889D8   		movq	%rbx, %rax
 3398 00b9 4889C7   		movq	%rax, %rdi
 3399              	.LEHB101:
 3400 00bc E8000000 		call	_Unwind_Resume
 3400      00
 3401              	.LEHE101:
 3402              	.L182:
 3403              	.LBE37:
  13:../MemoryOutStream.h **** {
 3404              		.loc 2 13 0
 3405 00c1 4883C418 		addq	$24, %rsp
 3406 00c5 5B       		popq	%rbx
 3407 00c6 5D       		popq	%rbp
 3408              		.cfi_def_cfa 7, 8
 3409 00c7 C3       		ret
 3410              		.cfi_endproc
 3411              	.LFE1095:
 3412              		.section	.gcc_except_table
 3413              	.LLSDA1095:
 3414 027c FF       		.byte	0xff
 3415 027d FF       		.byte	0xff
 3416 027e 01       		.byte	0x1
 3417 027f 13       		.uleb128 .LLSDACSE1095-.LLSDACSB1095
 3418              	.LLSDACSB1095:
 3419 0280 38       		.uleb128 .LEHB98-.LFB1095
 3420 0281 05       		.uleb128 .LEHE98-.LEHB98
 3421 0282 8101     		.uleb128 .L180-.LFB1095
 3422 0284 00       		.uleb128 0
 3423 0285 4C       		.uleb128 .LEHB99-.LFB1095
 3424 0286 05       		.uleb128 .LEHE99-.LEHB99
 3425 0287 9A01     		.uleb128 .L181-.LFB1095
 3426 0289 00       		.uleb128 0
 3427 028a 65       		.uleb128 .LEHB100-.LFB1095
 3428 028b 05       		.uleb128 .LEHE100-.LEHB100
 3429 028c 00       		.uleb128 0
 3430 028d 00       		.uleb128 0
 3431 028e BC01     		.uleb128 .LEHB101-.LFB1095
 3432 0290 05       		.uleb128 .LEHE101-.LEHB101
 3433 0291 00       		.uleb128 0
 3434 0292 00       		.uleb128 0
 3435              	.LLSDACSE1095:
 3436              		.section	.text._ZN8UnitTest15MemoryOutStreamD1Ev,"axG",@progbits,_ZN8UnitTest15MemoryOutStreamD1Ev
 3438              		.set	.LTHUNK0,_ZN8UnitTest15MemoryOutStreamD1Ev
 3439              		.weak	_ZTv0_n24_N8UnitTest15MemoryOutStreamD1Ev
 3441              	_ZTv0_n24_N8UnitTest15MemoryOutStreamD1Ev:
 3442              	.LFB1190:
  13:../MemoryOutStream.h **** {
 3443              		.loc 2 13 0 is_stmt 1
 3444              		.cfi_startproc
 3445 00c8 4C8B17   		movq	(%rdi), %r10
 3446 00cb 49037AE8 		addq	-24(%r10), %rdi
 3447 00cf E92CFFFF 		jmp	.LTHUNK0
 3447      FF
 3448              		.cfi_endproc
 3449              	.LFE1190:
 3451              		.section	.text._ZN8UnitTest15MemoryOutStreamD0Ev,"axG",@progbits,_ZN8UnitTest15MemoryOutStreamD0Ev
 3452              		.align 2
 3453              		.weak	_ZN8UnitTest15MemoryOutStreamD0Ev
 3455              	_ZN8UnitTest15MemoryOutStreamD0Ev:
 3456              	.LFB1096:
  13:../MemoryOutStream.h **** {
 3457              		.loc 2 13 0
 3458              		.cfi_startproc
 3459 0000 55       		pushq	%rbp
 3460              		.cfi_def_cfa_offset 16
 3461              		.cfi_offset 6, -16
 3462 0001 4889E5   		movq	%rsp, %rbp
 3463              		.cfi_def_cfa_register 6
 3464 0004 4883EC10 		subq	$16, %rsp
 3465 0008 48897DF8 		movq	%rdi, -8(%rbp)
  13:../MemoryOutStream.h **** {
 3466              		.loc 2 13 0
 3467 000c 488B45F8 		movq	-8(%rbp), %rax
 3468 0010 4889C7   		movq	%rax, %rdi
 3469 0013 E8000000 		call	_ZN8UnitTest15MemoryOutStreamD1Ev
 3469      00
 3470 0018 488B45F8 		movq	-8(%rbp), %rax
 3471 001c 4889C7   		movq	%rax, %rdi
 3472 001f E8000000 		call	_ZdlPv
 3472      00
 3473 0024 C9       		leave
 3474              		.cfi_def_cfa 7, 8
 3475 0025 C3       		ret
 3476              		.cfi_endproc
 3477              	.LFE1096:
 3479              		.set	.LTHUNK1,_ZN8UnitTest15MemoryOutStreamD0Ev
 3480              		.weak	_ZTv0_n24_N8UnitTest15MemoryOutStreamD0Ev
 3482              	_ZTv0_n24_N8UnitTest15MemoryOutStreamD0Ev:
 3483              	.LFB1191:
  13:../MemoryOutStream.h **** {
 3484              		.loc 2 13 0
 3485              		.cfi_startproc
 3486 0026 4C8B17   		movq	(%rdi), %r10
 3487 0029 49037AE8 		addq	-24(%r10), %rdi
 3488 002d EBD1     		jmp	.LTHUNK1
 3489              		.cfi_endproc
 3490              	.LFE1191:
 3492              		.section	.rodata
 3493              	.LC37:
 3494 069b 45787065 		.string	"Expected "
 3494      63746564 
 3494      2000
 3495              	.LC38:
 3496 06a5 20627574 		.string	" but was "
 3496      20776173 
 3496      2000
 3497              		.section	.text._ZN8UnitTest10CheckEqualIiiEEvRNS_11TestResultsERKT_RKT0_RKNS_11TestDetailsE,"axG",
 3498              		.weak	_ZN8UnitTest10CheckEqualIiiEEvRNS_11TestResultsERKT_RKT0_RKNS_11TestDetailsE
 3500              	_ZN8UnitTest10CheckEqualIiiEEvRNS_11TestResultsERKT_RKT0_RKNS_11TestDetailsE:
 3501              	.LFB1092:
 3502              		.file 6 "../Checks.h"
   1:../Checks.h   **** #ifndef UNITTEST_CHECKS_H
   2:../Checks.h   **** #define UNITTEST_CHECKS_H
   3:../Checks.h   **** 
   4:../Checks.h   **** #include "Config.h"
   5:../Checks.h   **** #include "TestResults.h"
   6:../Checks.h   **** #include "MemoryOutStream.h"
   7:../Checks.h   **** 
   8:../Checks.h   **** namespace UnitTest {
   9:../Checks.h   **** 
  10:../Checks.h   **** 
  11:../Checks.h   **** template< typename Value >
  12:../Checks.h   **** bool Check(Value const value)
  13:../Checks.h   **** {
  14:../Checks.h   ****     return !!value; // doing double negative to avoid silly VS warnings
  15:../Checks.h   **** }
  16:../Checks.h   **** 
  17:../Checks.h   **** 
  18:../Checks.h   **** template< typename Expected, typename Actual >
  19:../Checks.h   **** void CheckEqual(TestResults& results, Expected const& expected, Actual const& actual, TestDetails c
 3503              		.loc 6 19 0
 3504              		.cfi_startproc
 3505              		.cfi_personality 0x3,__gxx_personality_v0
 3506              		.cfi_lsda 0x3,.LLSDA1092
 3507 0000 55       		pushq	%rbp
 3508              		.cfi_def_cfa_offset 16
 3509              		.cfi_offset 6, -16
 3510 0001 4889E5   		movq	%rsp, %rbp
 3511              		.cfi_def_cfa_register 6
 3512 0004 4154     		pushq	%r12
 3513 0006 53       		pushq	%rbx
 3514 0007 4881EC90 		subq	$400, %rsp
 3514      010000
 3515              		.cfi_offset 12, -24
 3516              		.cfi_offset 3, -32
 3517 000e 4889BD78 		movq	%rdi, -392(%rbp)
 3517      FEFFFF
 3518 0015 4889B570 		movq	%rsi, -400(%rbp)
 3518      FEFFFF
 3519 001c 48899568 		movq	%rdx, -408(%rbp)
 3519      FEFFFF
 3520 0023 48898D60 		movq	%rcx, -416(%rbp)
 3520      FEFFFF
 3521              	.LBB38:
 3522              	.LBB39:
  20:../Checks.h   **** {
  21:../Checks.h   ****     if (!(expected == actual))
 3523              		.loc 6 21 0
 3524 002a 488B8570 		movq	-400(%rbp), %rax
 3524      FEFFFF
 3525 0031 8B10     		movl	(%rax), %edx
 3526 0033 488B8568 		movq	-408(%rbp), %rax
 3526      FEFFFF
 3527 003a 8B00     		movl	(%rax), %eax
 3528 003c 39C2     		cmpl	%eax, %edx
 3529 003e 0F84B100 		je	.L189
 3529      0000
 3530              	.LBB40:
  22:../Checks.h   ****     {
  23:../Checks.h   ****         UnitTest::MemoryOutStream stream;
 3531              		.loc 6 23 0
 3532 0044 488D8580 		leaq	-384(%rbp), %rax
 3532      FEFFFF
 3533 004b 4889C7   		movq	%rax, %rdi
 3534              	.LEHB102:
 3535 004e E8000000 		call	_ZN8UnitTest15MemoryOutStreamC1Ev
 3535      00
 3536              	.LEHE102:
  24:../Checks.h   ****         stream << "Expected " << expected << " but was " << actual;
 3537              		.loc 6 24 0
 3538 0053 488B8568 		movq	-408(%rbp), %rax
 3538      FEFFFF
 3539 005a 8B18     		movl	(%rax), %ebx
 3540 005c 488B8570 		movq	-400(%rbp), %rax
 3540      FEFFFF
 3541 0063 448B20   		movl	(%rax), %r12d
 3542 0066 488D8580 		leaq	-384(%rbp), %rax
 3542      FEFFFF
 3543 006d BE000000 		movl	$.LC37, %esi
 3543      00
 3544 0072 4889C7   		movq	%rax, %rdi
 3545              	.LEHB103:
 3546 0075 E8000000 		call	_ZStlsISt11char_traitsIcEERSt13basic_ostreamIcT_ES5_PKc
 3546      00
 3547 007a 4489E6   		movl	%r12d, %esi
 3548 007d 4889C7   		movq	%rax, %rdi
 3549 0080 E8000000 		call	_ZNSolsEi
 3549      00
 3550              		.loc 6 24 0 is_stmt 0 discriminator 1
 3551 0085 BE000000 		movl	$.LC38, %esi
 3551      00
 3552 008a 4889C7   		movq	%rax, %rdi
 3553 008d E8000000 		call	_ZStlsISt11char_traitsIcEERSt13basic_ostreamIcT_ES5_PKc
 3553      00
 3554 0092 89DE     		movl	%ebx, %esi
 3555 0094 4889C7   		movq	%rax, %rdi
 3556 0097 E8000000 		call	_ZNSolsEi
 3556      00
  25:../Checks.h   **** 
  26:../Checks.h   ****         results.OnTestFailure(details, stream.GetText());
 3557              		.loc 6 26 0 is_stmt 1
 3558 009c 488D8580 		leaq	-384(%rbp), %rax
 3558      FEFFFF
 3559 00a3 4889C7   		movq	%rax, %rdi
 3560 00a6 E8000000 		call	_ZNK8UnitTest15MemoryOutStream7GetTextEv
 3560      00
 3561 00ab 4889C2   		movq	%rax, %rdx
 3562 00ae 488B8D60 		movq	-416(%rbp), %rcx
 3562      FEFFFF
 3563 00b5 488B8578 		movq	-392(%rbp), %rax
 3563      FEFFFF
 3564 00bc 4889CE   		movq	%rcx, %rsi
 3565 00bf 4889C7   		movq	%rax, %rdi
 3566 00c2 E8000000 		call	_ZN8UnitTest11TestResults13OnTestFailureERKNS_11TestDetailsEPKc
 3566      00
 3567              	.LEHE103:
 3568              		.loc 6 26 0 is_stmt 0 discriminator 1
 3569 00c7 488D8580 		leaq	-384(%rbp), %rax
 3569      FEFFFF
 3570 00ce 4889C7   		movq	%rax, %rdi
 3571              	.LEHB104:
 3572 00d1 E8000000 		call	_ZN8UnitTest15MemoryOutStreamD1Ev
 3572      00
 3573              	.LEHE104:
 3574              	.LBE40:
 3575 00d6 EB1D     		jmp	.L189
 3576              	.L188:
 3577 00d8 4889C3   		movq	%rax, %rbx
 3578              	.LBB41:
 3579              		.loc 6 26 0
 3580 00db 488D8580 		leaq	-384(%rbp), %rax
 3580      FEFFFF
 3581 00e2 4889C7   		movq	%rax, %rdi
 3582 00e5 E8000000 		call	_ZN8UnitTest15MemoryOutStreamD1Ev
 3582      00
 3583 00ea 4889D8   		movq	%rbx, %rax
 3584 00ed 4889C7   		movq	%rax, %rdi
 3585              	.LEHB105:
 3586 00f0 E8000000 		call	_Unwind_Resume
 3586      00
 3587              	.LEHE105:
 3588              	.L189:
 3589              	.LBE41:
 3590              	.LBE39:
 3591              	.LBE38:
  27:../Checks.h   ****     }
  28:../Checks.h   **** }
 3592              		.loc 6 28 0 is_stmt 1
 3593 00f5 4881C490 		addq	$400, %rsp
 3593      010000
 3594 00fc 5B       		popq	%rbx
 3595 00fd 415C     		popq	%r12
 3596 00ff 5D       		popq	%rbp
 3597              		.cfi_def_cfa 7, 8
 3598 0100 C3       		ret
 3599              		.cfi_endproc
 3600              	.LFE1092:
 3601              		.section	.gcc_except_table
 3602              	.LLSDA1092:
 3603 0293 FF       		.byte	0xff
 3604 0294 FF       		.byte	0xff
 3605 0295 01       		.byte	0x1
 3606 0296 13       		.uleb128 .LLSDACSE1092-.LLSDACSB1092
 3607              	.LLSDACSB1092:
 3608 0297 4E       		.uleb128 .LEHB102-.LFB1092
 3609 0298 05       		.uleb128 .LEHE102-.LEHB102
 3610 0299 00       		.uleb128 0
 3611 029a 00       		.uleb128 0
 3612 029b 75       		.uleb128 .LEHB103-.LFB1092
 3613 029c 52       		.uleb128 .LEHE103-.LEHB103
 3614 029d D801     		.uleb128 .L188-.LFB1092
 3615 029f 00       		.uleb128 0
 3616 02a0 D101     		.uleb128 .LEHB104-.LFB1092
 3617 02a2 05       		.uleb128 .LEHE104-.LEHB104
 3618 02a3 00       		.uleb128 0
 3619 02a4 00       		.uleb128 0
 3620 02a5 F001     		.uleb128 .LEHB105-.LFB1092
 3621 02a7 05       		.uleb128 .LEHE105-.LEHB105
 3622 02a8 00       		.uleb128 0
 3623 02a9 00       		.uleb128 0
 3624              	.LLSDACSE1092:
 3625              		.section	.text._ZN8UnitTest10CheckEqualIiiEEvRNS_11TestResultsERKT_RKT0_RKNS_11TestDetailsE,"axG",
 3627              		.section	.rodata
 3628              	.LC39:
 3629 06af 202B2F2D 		.string	" +/- "
 3629      2000
 3630              		.section	.text._ZN8UnitTest10CheckCloseIfffEEvRNS_11TestResultsERKT_RKT0_RKT1_RKNS_11TestDetailsE,
 3631              		.weak	_ZN8UnitTest10CheckCloseIfffEEvRNS_11TestResultsERKT_RKT0_RKT1_RKNS_11TestDetailsE
 3633              	_ZN8UnitTest10CheckCloseIfffEEvRNS_11TestResultsERKT_RKT0_RKT1_RKNS_11TestDetailsE:
 3634              	.LFB1097:
  29:../Checks.h   **** 
  30:../Checks.h   **** void CheckEqual(TestResults& results, char const* expected, char const* actual, TestDetails const& 
  31:../Checks.h   **** 
  32:../Checks.h   **** void CheckEqual(TestResults& results, char* expected, char* actual, TestDetails const& details);
  33:../Checks.h   **** 
  34:../Checks.h   **** void CheckEqual(TestResults& results, char* expected, char const* actual, TestDetails const& detail
  35:../Checks.h   **** 
  36:../Checks.h   **** void CheckEqual(TestResults& results, char const* expected, char* actual, TestDetails const& detail
  37:../Checks.h   **** 
  38:../Checks.h   **** template< typename Expected, typename Actual, typename Tolerance >
  39:../Checks.h   **** bool AreClose(Expected const& expected, Actual const& actual, Tolerance const& tolerance)
  40:../Checks.h   **** {
  41:../Checks.h   ****     return (actual >= (expected - tolerance)) && (actual <= (expected + tolerance));
  42:../Checks.h   **** }
  43:../Checks.h   **** 
  44:../Checks.h   **** template< typename Expected, typename Actual, typename Tolerance >
  45:../Checks.h   **** void CheckClose(TestResults& results, Expected const& expected, Actual const& actual, Tolerance con
 3635              		.loc 6 45 0
 3636              		.cfi_startproc
 3637              		.cfi_personality 0x3,__gxx_personality_v0
 3638              		.cfi_lsda 0x3,.LLSDA1097
 3639 0000 55       		pushq	%rbp
 3640              		.cfi_def_cfa_offset 16
 3641              		.cfi_offset 6, -16
 3642 0001 4889E5   		movq	%rsp, %rbp
 3643              		.cfi_def_cfa_register 6
 3644 0004 4155     		pushq	%r13
 3645 0006 4154     		pushq	%r12
 3646 0008 53       		pushq	%rbx
 3647 0009 4881ECA8 		subq	$424, %rsp
 3647      010000
 3648              		.cfi_offset 13, -24
 3649              		.cfi_offset 12, -32
 3650              		.cfi_offset 3, -40
 3651 0010 4889BD68 		movq	%rdi, -408(%rbp)
 3651      FEFFFF
 3652 0017 4889B560 		movq	%rsi, -416(%rbp)
 3652      FEFFFF
 3653 001e 48899558 		movq	%rdx, -424(%rbp)
 3653      FEFFFF
 3654 0025 48898D50 		movq	%rcx, -432(%rbp)
 3654      FEFFFF
 3655 002c 4C898548 		movq	%r8, -440(%rbp)
 3655      FEFFFF
 3656              	.LBB42:
 3657              	.LBB43:
  46:../Checks.h   ****                 TestDetails const& details)
  47:../Checks.h   **** {
  48:../Checks.h   ****     if (!AreClose(expected, actual, tolerance))
 3658              		.loc 6 48 0
 3659 0033 488B9550 		movq	-432(%rbp), %rdx
 3659      FEFFFF
 3660 003a 488B8D58 		movq	-424(%rbp), %rcx
 3660      FEFFFF
 3661 0041 488B8560 		movq	-416(%rbp), %rax
 3661      FEFFFF
 3662 0048 4889CE   		movq	%rcx, %rsi
 3663 004b 4889C7   		movq	%rax, %rdi
 3664 004e E8000000 		call	_ZN8UnitTest8AreCloseIfffEEbRKT_RKT0_RKT1_
 3664      00
 3665 0053 83F001   		xorl	$1, %eax
 3666 0056 84C0     		testb	%al, %al
 3667 0058 0F84F700 		je	.L194
 3667      0000
 3668              	.LBB44:
  49:../Checks.h   ****     { 
  50:../Checks.h   ****         UnitTest::MemoryOutStream stream;
 3669              		.loc 6 50 0
 3670 005e 488D8570 		leaq	-400(%rbp), %rax
 3670      FEFFFF
 3671 0065 4889C7   		movq	%rax, %rdi
 3672              	.LEHB106:
 3673 0068 E8000000 		call	_ZN8UnitTest15MemoryOutStreamC1Ev
 3673      00
 3674              	.LEHE106:
  51:../Checks.h   ****         stream << "Expected " << expected << " +/- " << tolerance << " but was " << actual;
 3675              		.loc 6 51 0
 3676 006d 488B8558 		movq	-424(%rbp), %rax
 3676      FEFFFF
 3677 0074 8B18     		movl	(%rax), %ebx
 3678 0076 488B8550 		movq	-432(%rbp), %rax
 3678      FEFFFF
 3679 007d 448B20   		movl	(%rax), %r12d
 3680 0080 488B8560 		movq	-416(%rbp), %rax
 3680      FEFFFF
 3681 0087 448B28   		movl	(%rax), %r13d
 3682 008a 488D8570 		leaq	-400(%rbp), %rax
 3682      FEFFFF
 3683 0091 BE000000 		movl	$.LC37, %esi
 3683      00
 3684 0096 4889C7   		movq	%rax, %rdi
 3685              	.LEHB107:
 3686 0099 E8000000 		call	_ZStlsISt11char_traitsIcEERSt13basic_ostreamIcT_ES5_PKc
 3686      00
 3687 009e 4489AD44 		movl	%r13d, -444(%rbp)
 3687      FEFFFF
 3688 00a5 F30F1085 		movss	-444(%rbp), %xmm0
 3688      44FEFFFF 
 3689 00ad 4889C7   		movq	%rax, %rdi
 3690 00b0 E8000000 		call	_ZNSolsEf
 3690      00
 3691              		.loc 6 51 0 is_stmt 0 discriminator 1
 3692 00b5 BE000000 		movl	$.LC39, %esi
 3692      00
 3693 00ba 4889C7   		movq	%rax, %rdi
 3694 00bd E8000000 		call	_ZStlsISt11char_traitsIcEERSt13basic_ostreamIcT_ES5_PKc
 3694      00
 3695 00c2 4489A544 		movl	%r12d, -444(%rbp)
 3695      FEFFFF
 3696 00c9 F30F1085 		movss	-444(%rbp), %xmm0
 3696      44FEFFFF 
 3697 00d1 4889C7   		movq	%rax, %rdi
 3698 00d4 E8000000 		call	_ZNSolsEf
 3698      00
 3699 00d9 BE000000 		movl	$.LC38, %esi
 3699      00
 3700 00de 4889C7   		movq	%rax, %rdi
 3701 00e1 E8000000 		call	_ZStlsISt11char_traitsIcEERSt13basic_ostreamIcT_ES5_PKc
 3701      00
 3702 00e6 899D44FE 		movl	%ebx, -444(%rbp)
 3702      FFFF
 3703 00ec F30F1085 		movss	-444(%rbp), %xmm0
 3703      44FEFFFF 
 3704 00f4 4889C7   		movq	%rax, %rdi
 3705 00f7 E8000000 		call	_ZNSolsEf
 3705      00
  52:../Checks.h   **** 
  53:../Checks.h   ****         results.OnTestFailure(details, stream.GetText());
 3706              		.loc 6 53 0 is_stmt 1
 3707 00fc 488D8570 		leaq	-400(%rbp), %rax
 3707      FEFFFF
 3708 0103 4889C7   		movq	%rax, %rdi
 3709 0106 E8000000 		call	_ZNK8UnitTest15MemoryOutStream7GetTextEv
 3709      00
 3710 010b 4889C2   		movq	%rax, %rdx
 3711 010e 488B8D48 		movq	-440(%rbp), %rcx
 3711      FEFFFF
 3712 0115 488B8568 		movq	-408(%rbp), %rax
 3712      FEFFFF
 3713 011c 4889CE   		movq	%rcx, %rsi
 3714 011f 4889C7   		movq	%rax, %rdi
 3715 0122 E8000000 		call	_ZN8UnitTest11TestResults13OnTestFailureERKNS_11TestDetailsEPKc
 3715      00
 3716              	.LEHE107:
 3717              		.loc 6 53 0 is_stmt 0 discriminator 1
 3718 0127 488D8570 		leaq	-400(%rbp), %rax
 3718      FEFFFF
 3719 012e 4889C7   		movq	%rax, %rdi
 3720              	.LEHB108:
 3721 0131 E8000000 		call	_ZN8UnitTest15MemoryOutStreamD1Ev
 3721      00
 3722              	.LEHE108:
 3723              	.LBE44:
 3724 0136 EB1D     		jmp	.L194
 3725              	.L193:
 3726 0138 4889C3   		movq	%rax, %rbx
 3727              	.LBB45:
 3728              		.loc 6 53 0
 3729 013b 488D8570 		leaq	-400(%rbp), %rax
 3729      FEFFFF
 3730 0142 4889C7   		movq	%rax, %rdi
 3731 0145 E8000000 		call	_ZN8UnitTest15MemoryOutStreamD1Ev
 3731      00
 3732 014a 4889D8   		movq	%rbx, %rax
 3733 014d 4889C7   		movq	%rax, %rdi
 3734              	.LEHB109:
 3735 0150 E8000000 		call	_Unwind_Resume
 3735      00
 3736              	.LEHE109:
 3737              	.L194:
 3738              	.LBE45:
 3739              	.LBE43:
 3740              	.LBE42:
  54:../Checks.h   ****     }
  55:../Checks.h   **** }
 3741              		.loc 6 55 0 is_stmt 1
 3742 0155 4881C4A8 		addq	$424, %rsp
 3742      010000
 3743 015c 5B       		popq	%rbx
 3744 015d 415C     		popq	%r12
 3745 015f 415D     		popq	%r13
 3746 0161 5D       		popq	%rbp
 3747              		.cfi_def_cfa 7, 8
 3748 0162 C3       		ret
 3749              		.cfi_endproc
 3750              	.LFE1097:
 3751              		.section	.gcc_except_table
 3752              	.LLSDA1097:
 3753 02aa FF       		.byte	0xff
 3754 02ab FF       		.byte	0xff
 3755 02ac 01       		.byte	0x1
 3756 02ad 15       		.uleb128 .LLSDACSE1097-.LLSDACSB1097
 3757              	.LLSDACSB1097:
 3758 02ae 68       		.uleb128 .LEHB106-.LFB1097
 3759 02af 05       		.uleb128 .LEHE106-.LEHB106
 3760 02b0 00       		.uleb128 0
 3761 02b1 00       		.uleb128 0
 3762 02b2 9901     		.uleb128 .LEHB107-.LFB1097
 3763 02b4 8E01     		.uleb128 .LEHE107-.LEHB107
 3764 02b6 B802     		.uleb128 .L193-.LFB1097
 3765 02b8 00       		.uleb128 0
 3766 02b9 B102     		.uleb128 .LEHB108-.LFB1097
 3767 02bb 05       		.uleb128 .LEHE108-.LEHB108
 3768 02bc 00       		.uleb128 0
 3769 02bd 00       		.uleb128 0
 3770 02be D002     		.uleb128 .LEHB109-.LFB1097
 3771 02c0 05       		.uleb128 .LEHE109-.LEHB109
 3772 02c1 00       		.uleb128 0
 3773 02c2 00       		.uleb128 0
 3774              	.LLSDACSE1097:
 3775              		.section	.text._ZN8UnitTest10CheckCloseIfffEEvRNS_11TestResultsERKT_RKT0_RKT1_RKNS_11TestDetailsE,
 3777              		.section	.text._ZN8UnitTest8AreCloseIfffEEbRKT_RKT0_RKT1_,"axG",@progbits,_ZN8UnitTest8AreCloseIff
 3778              		.weak	_ZN8UnitTest8AreCloseIfffEEbRKT_RKT0_RKT1_
 3780              	_ZN8UnitTest8AreCloseIfffEEbRKT_RKT0_RKT1_:
 3781              	.LFB1127:
  39:../Checks.h   **** {
 3782              		.loc 6 39 0
 3783              		.cfi_startproc
 3784 0000 55       		pushq	%rbp
 3785              		.cfi_def_cfa_offset 16
 3786              		.cfi_offset 6, -16
 3787 0001 4889E5   		movq	%rsp, %rbp
 3788              		.cfi_def_cfa_register 6
 3789 0004 48897DF8 		movq	%rdi, -8(%rbp)
 3790 0008 488975F0 		movq	%rsi, -16(%rbp)
 3791 000c 488955E8 		movq	%rdx, -24(%rbp)
  41:../Checks.h   **** }
 3792              		.loc 6 41 0
 3793 0010 488B45F0 		movq	-16(%rbp), %rax
 3794 0014 F30F1008 		movss	(%rax), %xmm1
 3795 0018 488B45F8 		movq	-8(%rbp), %rax
 3796 001c F30F1000 		movss	(%rax), %xmm0
 3797 0020 488B45E8 		movq	-24(%rbp), %rax
 3798 0024 F30F1010 		movss	(%rax), %xmm2
 3799 0028 F30F5CC2 		subss	%xmm2, %xmm0
 3800 002c 0F2EC8   		ucomiss	%xmm0, %xmm1
 3801 002f 7228     		jb	.L196
  41:../Checks.h   **** }
 3802              		.loc 6 41 0 is_stmt 0 discriminator 1
 3803 0031 488B45F0 		movq	-16(%rbp), %rax
 3804 0035 F30F1008 		movss	(%rax), %xmm1
 3805 0039 488B45F8 		movq	-8(%rbp), %rax
 3806 003d F30F1010 		movss	(%rax), %xmm2
 3807 0041 488B45E8 		movq	-24(%rbp), %rax
 3808 0045 F30F1000 		movss	(%rax), %xmm0
 3809 0049 F30F58C2 		addss	%xmm2, %xmm0
 3810 004d 0F2EC1   		ucomiss	%xmm1, %xmm0
 3811 0050 7207     		jb	.L196
  41:../Checks.h   **** }
 3812              		.loc 6 41 0 discriminator 3
 3813 0052 B8010000 		movl	$1, %eax
 3813      00
 3814 0057 EB05     		jmp	.L199
 3815              	.L196:
  41:../Checks.h   **** }
 3816              		.loc 6 41 0 discriminator 2
 3817 0059 B8000000 		movl	$0, %eax
 3817      00
 3818              	.L199:
  42:../Checks.h   **** 
 3819              		.loc 6 42 0 is_stmt 1 discriminator 4
 3820 005e 5D       		popq	%rbp
 3821              		.cfi_def_cfa 7, 8
 3822 005f C3       		ret
 3823              		.cfi_endproc
 3824              	.LFE1127:
 3826              		.section	.rodata
 3827 06b5 00000000 		.align 32
 3827      00000000 
 3827      000000
 3830              	_ZTVN12_GLOBAL__N_129TestNotifiesReporterOfTestEndE:
 3831 06c0 00000000 		.quad	0
 3831      00000000 
 3832 06c8 00000000 		.quad	_ZTIN12_GLOBAL__N_129TestNotifiesReporterOfTestEndE
 3832      00000000 
 3833 06d0 00000000 		.quad	_ZN12_GLOBAL__N_129TestNotifiesReporterOfTestEndD1Ev
 3833      00000000 
 3834 06d8 00000000 		.quad	_ZN12_GLOBAL__N_129TestNotifiesReporterOfTestEndD0Ev
 3834      00000000 
 3835 06e0 00000000 		.quad	_ZNK12_GLOBAL__N_129TestNotifiesReporterOfTestEnd7RunImplEv
 3835      00000000 
 3836              		.text
 3837              		.align 2
 3839              	_ZN12_GLOBAL__N_129TestNotifiesReporterOfTestEndD2Ev:
 3840              	.LFB1149:
  98:TestTestResults.cpp **** {
 3841              		.loc 5 98 0
 3842              		.cfi_startproc
 3843 172c 55       		pushq	%rbp
 3844              		.cfi_def_cfa_offset 16
 3845              		.cfi_offset 6, -16
 3846 172d 4889E5   		movq	%rsp, %rbp
 3847              		.cfi_def_cfa_register 6
 3848 1730 4883EC10 		subq	$16, %rsp
 3849 1734 48897DF8 		movq	%rdi, -8(%rbp)
 3850              	.LBB46:
  98:TestTestResults.cpp **** {
 3851              		.loc 5 98 0
 3852 1738 488B45F8 		movq	-8(%rbp), %rax
 3853 173c 48C70000 		movq	$_ZTVN12_GLOBAL__N_129TestNotifiesReporterOfTestEndE+16, (%rax)
 3853      000000
 3854 1743 488B45F8 		movq	-8(%rbp), %rax
 3855 1747 4889C7   		movq	%rax, %rdi
 3856 174a E8000000 		call	_ZN8UnitTest4TestD2Ev
 3856      00
 3857              	.LBE46:
 3858 174f B8000000 		movl	$0, %eax
 3858      00
 3859 1754 85C0     		testl	%eax, %eax
 3860 1756 740C     		je	.L203
  98:TestTestResults.cpp **** {
 3861              		.loc 5 98 0 is_stmt 0 discriminator 1
 3862 1758 488B45F8 		movq	-8(%rbp), %rax
 3863 175c 4889C7   		movq	%rax, %rdi
 3864 175f E8000000 		call	_ZdlPv
 3864      00
 3865              	.L203:
  98:TestTestResults.cpp **** {
 3866              		.loc 5 98 0
 3867 1764 C9       		leave
 3868              		.cfi_def_cfa 7, 8
 3869 1765 C3       		ret
 3870              		.cfi_endproc
 3871              	.LFE1149:
 3873              		.set	_ZN12_GLOBAL__N_129TestNotifiesReporterOfTestEndD1Ev,_ZN12_GLOBAL__N_129TestNotifiesReporterO
 3874              		.align 2
 3876              	_ZN12_GLOBAL__N_129TestNotifiesReporterOfTestEndD0Ev:
 3877              	.LFB1151:
  98:TestTestResults.cpp **** {
 3878              		.loc 5 98 0 is_stmt 1
 3879              		.cfi_startproc
 3880 1766 55       		pushq	%rbp
 3881              		.cfi_def_cfa_offset 16
 3882              		.cfi_offset 6, -16
 3883 1767 4889E5   		movq	%rsp, %rbp
 3884              		.cfi_def_cfa_register 6
 3885 176a 4883EC10 		subq	$16, %rsp
 3886 176e 48897DF8 		movq	%rdi, -8(%rbp)
  98:TestTestResults.cpp **** {
 3887              		.loc 5 98 0
 3888 1772 488B45F8 		movq	-8(%rbp), %rax
 3889 1776 4889C7   		movq	%rax, %rdi
 3890 1779 E8AEFFFF 		call	_ZN12_GLOBAL__N_129TestNotifiesReporterOfTestEndD1Ev
 3890      FF
 3891 177e 488B45F8 		movq	-8(%rbp), %rax
 3892 1782 4889C7   		movq	%rax, %rdi
 3893 1785 E8000000 		call	_ZdlPv
 3893      00
 3894 178a C9       		leave
 3895              		.cfi_def_cfa 7, 8
 3896 178b C3       		ret
 3897              		.cfi_endproc
 3898              	.LFE1151:
 3900              		.section	.rodata
 3901 06e8 00000000 		.align 32
 3901      00000000 
 3901      00000000 
 3901      00000000 
 3901      00000000 
 3904              	_ZTVN12_GLOBAL__N_149TestNotifiesReporterOfCheckFailureWithCorrectInfoE:
 3905 0700 00000000 		.quad	0
 3905      00000000 
 3906 0708 00000000 		.quad	_ZTIN12_GLOBAL__N_149TestNotifiesReporterOfCheckFailureWithCorrectInfoE
 3906      00000000 
 3907 0710 00000000 		.quad	_ZN12_GLOBAL__N_149TestNotifiesReporterOfCheckFailureWithCorrectInfoD1Ev
 3907      00000000 
 3908 0718 00000000 		.quad	_ZN12_GLOBAL__N_149TestNotifiesReporterOfCheckFailureWithCorrectInfoD0Ev
 3908      00000000 
 3909 0720 00000000 		.quad	_ZNK12_GLOBAL__N_149TestNotifiesReporterOfCheckFailureWithCorrectInfo7RunImplEv
 3909      00000000 
 3910              		.text
 3911              		.align 2
 3913              	_ZN12_GLOBAL__N_149TestNotifiesReporterOfCheckFailureWithCorrectInfoD2Ev:
 3914              	.LFB1153:
  83:TestTestResults.cpp **** {
 3915              		.loc 5 83 0
 3916              		.cfi_startproc
 3917 178c 55       		pushq	%rbp
 3918              		.cfi_def_cfa_offset 16
 3919              		.cfi_offset 6, -16
 3920 178d 4889E5   		movq	%rsp, %rbp
 3921              		.cfi_def_cfa_register 6
 3922 1790 4883EC10 		subq	$16, %rsp
 3923 1794 48897DF8 		movq	%rdi, -8(%rbp)
 3924              	.LBB47:
  83:TestTestResults.cpp **** {
 3925              		.loc 5 83 0
 3926 1798 488B45F8 		movq	-8(%rbp), %rax
 3927 179c 48C70000 		movq	$_ZTVN12_GLOBAL__N_149TestNotifiesReporterOfCheckFailureWithCorrectInfoE+16, (%rax)
 3927      000000
 3928 17a3 488B45F8 		movq	-8(%rbp), %rax
 3929 17a7 4889C7   		movq	%rax, %rdi
 3930 17aa E8000000 		call	_ZN8UnitTest4TestD2Ev
 3930      00
 3931              	.LBE47:
 3932 17af B8000000 		movl	$0, %eax
 3932      00
 3933 17b4 85C0     		testl	%eax, %eax
 3934 17b6 740C     		je	.L208
  83:TestTestResults.cpp **** {
 3935              		.loc 5 83 0 is_stmt 0 discriminator 1
 3936 17b8 488B45F8 		movq	-8(%rbp), %rax
 3937 17bc 4889C7   		movq	%rax, %rdi
 3938 17bf E8000000 		call	_ZdlPv
 3938      00
 3939              	.L208:
  83:TestTestResults.cpp **** {
 3940              		.loc 5 83 0
 3941 17c4 C9       		leave
 3942              		.cfi_def_cfa 7, 8
 3943 17c5 C3       		ret
 3944              		.cfi_endproc
 3945              	.LFE1153:
 3947              		.set	_ZN12_GLOBAL__N_149TestNotifiesReporterOfCheckFailureWithCorrectInfoD1Ev,_ZN12_GLOBAL__N_149T
 3948              		.align 2
 3950              	_ZN12_GLOBAL__N_149TestNotifiesReporterOfCheckFailureWithCorrectInfoD0Ev:
 3951              	.LFB1155:
  83:TestTestResults.cpp **** {
 3952              		.loc 5 83 0 is_stmt 1
 3953              		.cfi_startproc
 3954 17c6 55       		pushq	%rbp
 3955              		.cfi_def_cfa_offset 16
 3956              		.cfi_offset 6, -16
 3957 17c7 4889E5   		movq	%rsp, %rbp
 3958              		.cfi_def_cfa_register 6
 3959 17ca 4883EC10 		subq	$16, %rsp
 3960 17ce 48897DF8 		movq	%rdi, -8(%rbp)
  83:TestTestResults.cpp **** {
 3961              		.loc 5 83 0
 3962 17d2 488B45F8 		movq	-8(%rbp), %rax
 3963 17d6 4889C7   		movq	%rax, %rdi
 3964 17d9 E8AEFFFF 		call	_ZN12_GLOBAL__N_149TestNotifiesReporterOfCheckFailureWithCorrectInfoD1Ev
 3964      FF
 3965 17de 488B45F8 		movq	-8(%rbp), %rax
 3966 17e2 4889C7   		movq	%rax, %rdi
 3967 17e5 E8000000 		call	_ZdlPv
 3967      00
 3968 17ea C9       		leave
 3969              		.cfi_def_cfa 7, 8
 3970 17eb C3       		ret
 3971              		.cfi_endproc
 3972              	.LFE1155:
 3974              		.section	.rodata
 3975 0728 00000000 		.align 32
 3975      00000000 
 3975      00000000 
 3975      00000000 
 3975      00000000 
 3978              	_ZTVN12_GLOBAL__N_148TestNotifiesReporterOfTestFailureWithCorrectInfoE:
 3979 0740 00000000 		.quad	0
 3979      00000000 
 3980 0748 00000000 		.quad	_ZTIN12_GLOBAL__N_148TestNotifiesReporterOfTestFailureWithCorrectInfoE
 3980      00000000 
 3981 0750 00000000 		.quad	_ZN12_GLOBAL__N_148TestNotifiesReporterOfTestFailureWithCorrectInfoD1Ev
 3981      00000000 
 3982 0758 00000000 		.quad	_ZN12_GLOBAL__N_148TestNotifiesReporterOfTestFailureWithCorrectInfoD0Ev
 3982      00000000 
 3983 0760 00000000 		.quad	_ZNK12_GLOBAL__N_148TestNotifiesReporterOfTestFailureWithCorrectInfo7RunImplEv
 3983      00000000 
 3984              		.text
 3985              		.align 2
 3987              	_ZN12_GLOBAL__N_148TestNotifiesReporterOfTestFailureWithCorrectInfoD2Ev:
 3988              	.LFB1157:
  69:TestTestResults.cpp **** {
 3989              		.loc 5 69 0
 3990              		.cfi_startproc
 3991 17ec 55       		pushq	%rbp
 3992              		.cfi_def_cfa_offset 16
 3993              		.cfi_offset 6, -16
 3994 17ed 4889E5   		movq	%rsp, %rbp
 3995              		.cfi_def_cfa_register 6
 3996 17f0 4883EC10 		subq	$16, %rsp
 3997 17f4 48897DF8 		movq	%rdi, -8(%rbp)
 3998              	.LBB48:
  69:TestTestResults.cpp **** {
 3999              		.loc 5 69 0
 4000 17f8 488B45F8 		movq	-8(%rbp), %rax
 4001 17fc 48C70000 		movq	$_ZTVN12_GLOBAL__N_148TestNotifiesReporterOfTestFailureWithCorrectInfoE+16, (%rax)
 4001      000000
 4002 1803 488B45F8 		movq	-8(%rbp), %rax
 4003 1807 4889C7   		movq	%rax, %rdi
 4004 180a E8000000 		call	_ZN8UnitTest4TestD2Ev
 4004      00
 4005              	.LBE48:
 4006 180f B8000000 		movl	$0, %eax
 4006      00
 4007 1814 85C0     		testl	%eax, %eax
 4008 1816 740C     		je	.L213
  69:TestTestResults.cpp **** {
 4009              		.loc 5 69 0 is_stmt 0 discriminator 1
 4010 1818 488B45F8 		movq	-8(%rbp), %rax
 4011 181c 4889C7   		movq	%rax, %rdi
 4012 181f E8000000 		call	_ZdlPv
 4012      00
 4013              	.L213:
  69:TestTestResults.cpp **** {
 4014              		.loc 5 69 0
 4015 1824 C9       		leave
 4016              		.cfi_def_cfa 7, 8
 4017 1825 C3       		ret
 4018              		.cfi_endproc
 4019              	.LFE1157:
 4021              		.set	_ZN12_GLOBAL__N_148TestNotifiesReporterOfTestFailureWithCorrectInfoD1Ev,_ZN12_GLOBAL__N_148Te
 4022              		.align 2
 4024              	_ZN12_GLOBAL__N_148TestNotifiesReporterOfTestFailureWithCorrectInfoD0Ev:
 4025              	.LFB1159:
  69:TestTestResults.cpp **** {
 4026              		.loc 5 69 0 is_stmt 1
 4027              		.cfi_startproc
 4028 1826 55       		pushq	%rbp
 4029              		.cfi_def_cfa_offset 16
 4030              		.cfi_offset 6, -16
 4031 1827 4889E5   		movq	%rsp, %rbp
 4032              		.cfi_def_cfa_register 6
 4033 182a 4883EC10 		subq	$16, %rsp
 4034 182e 48897DF8 		movq	%rdi, -8(%rbp)
  69:TestTestResults.cpp **** {
 4035              		.loc 5 69 0
 4036 1832 488B45F8 		movq	-8(%rbp), %rax
 4037 1836 4889C7   		movq	%rax, %rdi
 4038 1839 E8AEFFFF 		call	_ZN12_GLOBAL__N_148TestNotifiesReporterOfTestFailureWithCorrectInfoD1Ev
 4038      FF
 4039 183e 488B45F8 		movq	-8(%rbp), %rax
 4040 1842 4889C7   		movq	%rax, %rdi
 4041 1845 E8000000 		call	_ZdlPv
 4041      00
 4042 184a C9       		leave
 4043              		.cfi_def_cfa 7, 8
 4044 184b C3       		ret
 4045              		.cfi_endproc
 4046              	.LFE1159:
 4048              		.section	.rodata
 4049 0768 00000000 		.align 32
 4049      00000000 
 4049      00000000 
 4049      00000000 
 4049      00000000 
 4052              	_ZTVN12_GLOBAL__N_146TestNotifiesReporterOfTestStartWithCorrectInfoE:
 4053 0780 00000000 		.quad	0
 4053      00000000 
 4054 0788 00000000 		.quad	_ZTIN12_GLOBAL__N_146TestNotifiesReporterOfTestStartWithCorrectInfoE
 4054      00000000 
 4055 0790 00000000 		.quad	_ZN12_GLOBAL__N_146TestNotifiesReporterOfTestStartWithCorrectInfoD1Ev
 4055      00000000 
 4056 0798 00000000 		.quad	_ZN12_GLOBAL__N_146TestNotifiesReporterOfTestStartWithCorrectInfoD0Ev
 4056      00000000 
 4057 07a0 00000000 		.quad	_ZNK12_GLOBAL__N_146TestNotifiesReporterOfTestStartWithCorrectInfo7RunImplEv
 4057      00000000 
 4058              		.text
 4059              		.align 2
 4061              	_ZN12_GLOBAL__N_146TestNotifiesReporterOfTestStartWithCorrectInfoD2Ev:
 4062              	.LFB1161:
  58:TestTestResults.cpp **** {
 4063              		.loc 5 58 0
 4064              		.cfi_startproc
 4065 184c 55       		pushq	%rbp
 4066              		.cfi_def_cfa_offset 16
 4067              		.cfi_offset 6, -16
 4068 184d 4889E5   		movq	%rsp, %rbp
 4069              		.cfi_def_cfa_register 6
 4070 1850 4883EC10 		subq	$16, %rsp
 4071 1854 48897DF8 		movq	%rdi, -8(%rbp)
 4072              	.LBB49:
  58:TestTestResults.cpp **** {
 4073              		.loc 5 58 0
 4074 1858 488B45F8 		movq	-8(%rbp), %rax
 4075 185c 48C70000 		movq	$_ZTVN12_GLOBAL__N_146TestNotifiesReporterOfTestStartWithCorrectInfoE+16, (%rax)
 4075      000000
 4076 1863 488B45F8 		movq	-8(%rbp), %rax
 4077 1867 4889C7   		movq	%rax, %rdi
 4078 186a E8000000 		call	_ZN8UnitTest4TestD2Ev
 4078      00
 4079              	.LBE49:
 4080 186f B8000000 		movl	$0, %eax
 4080      00
 4081 1874 85C0     		testl	%eax, %eax
 4082 1876 740C     		je	.L218
  58:TestTestResults.cpp **** {
 4083              		.loc 5 58 0 is_stmt 0 discriminator 1
 4084 1878 488B45F8 		movq	-8(%rbp), %rax
 4085 187c 4889C7   		movq	%rax, %rdi
 4086 187f E8000000 		call	_ZdlPv
 4086      00
 4087              	.L218:
  58:TestTestResults.cpp **** {
 4088              		.loc 5 58 0
 4089 1884 C9       		leave
 4090              		.cfi_def_cfa 7, 8
 4091 1885 C3       		ret
 4092              		.cfi_endproc
 4093              	.LFE1161:
 4095              		.set	_ZN12_GLOBAL__N_146TestNotifiesReporterOfTestStartWithCorrectInfoD1Ev,_ZN12_GLOBAL__N_146Test
 4096              		.align 2
 4098              	_ZN12_GLOBAL__N_146TestNotifiesReporterOfTestStartWithCorrectInfoD0Ev:
 4099              	.LFB1163:
  58:TestTestResults.cpp **** {
 4100              		.loc 5 58 0 is_stmt 1
 4101              		.cfi_startproc
 4102 1886 55       		pushq	%rbp
 4103              		.cfi_def_cfa_offset 16
 4104              		.cfi_offset 6, -16
 4105 1887 4889E5   		movq	%rsp, %rbp
 4106              		.cfi_def_cfa_register 6
 4107 188a 4883EC10 		subq	$16, %rsp
 4108 188e 48897DF8 		movq	%rdi, -8(%rbp)
  58:TestTestResults.cpp **** {
 4109              		.loc 5 58 0
 4110 1892 488B45F8 		movq	-8(%rbp), %rax
 4111 1896 4889C7   		movq	%rax, %rdi
 4112 1899 E8AEFFFF 		call	_ZN12_GLOBAL__N_146TestNotifiesReporterOfTestStartWithCorrectInfoD1Ev
 4112      FF
 4113 189e 488B45F8 		movq	-8(%rbp), %rax
 4114 18a2 4889C7   		movq	%rax, %rdi
 4115 18a5 E8000000 		call	_ZdlPv
 4115      00
 4116 18aa C9       		leave
 4117              		.cfi_def_cfa 7, 8
 4118 18ab C3       		ret
 4119              		.cfi_endproc
 4120              	.LFE1163:
 4122              		.section	.rodata
 4123 07a8 00000000 		.align 32
 4123      00000000 
 4123      00000000 
 4123      00000000 
 4123      00000000 
 4126              	_ZTVN12_GLOBAL__N_130TestRecordsNumberOfFailedTestsE:
 4127 07c0 00000000 		.quad	0
 4127      00000000 
 4128 07c8 00000000 		.quad	_ZTIN12_GLOBAL__N_130TestRecordsNumberOfFailedTestsE
 4128      00000000 
 4129 07d0 00000000 		.quad	_ZN12_GLOBAL__N_130TestRecordsNumberOfFailedTestsD1Ev
 4129      00000000 
 4130 07d8 00000000 		.quad	_ZN12_GLOBAL__N_130TestRecordsNumberOfFailedTestsD0Ev
 4130      00000000 
 4131 07e0 00000000 		.quad	_ZNK12_GLOBAL__N_130TestRecordsNumberOfFailedTests7RunImplEv
 4131      00000000 
 4132              		.text
 4133              		.align 2
 4135              	_ZN12_GLOBAL__N_130TestRecordsNumberOfFailedTestsD2Ev:
 4136              	.LFB1165:
  41:TestTestResults.cpp **** {
 4137              		.loc 5 41 0
 4138              		.cfi_startproc
 4139 18ac 55       		pushq	%rbp
 4140              		.cfi_def_cfa_offset 16
 4141              		.cfi_offset 6, -16
 4142 18ad 4889E5   		movq	%rsp, %rbp
 4143              		.cfi_def_cfa_register 6
 4144 18b0 4883EC10 		subq	$16, %rsp
 4145 18b4 48897DF8 		movq	%rdi, -8(%rbp)
 4146              	.LBB50:
  41:TestTestResults.cpp **** {
 4147              		.loc 5 41 0
 4148 18b8 488B45F8 		movq	-8(%rbp), %rax
 4149 18bc 48C70000 		movq	$_ZTVN12_GLOBAL__N_130TestRecordsNumberOfFailedTestsE+16, (%rax)
 4149      000000
 4150 18c3 488B45F8 		movq	-8(%rbp), %rax
 4151 18c7 4889C7   		movq	%rax, %rdi
 4152 18ca E8000000 		call	_ZN8UnitTest4TestD2Ev
 4152      00
 4153              	.LBE50:
 4154 18cf B8000000 		movl	$0, %eax
 4154      00
 4155 18d4 85C0     		testl	%eax, %eax
 4156 18d6 740C     		je	.L223
  41:TestTestResults.cpp **** {
 4157              		.loc 5 41 0 is_stmt 0 discriminator 1
 4158 18d8 488B45F8 		movq	-8(%rbp), %rax
 4159 18dc 4889C7   		movq	%rax, %rdi
 4160 18df E8000000 		call	_ZdlPv
 4160      00
 4161              	.L223:
  41:TestTestResults.cpp **** {
 4162              		.loc 5 41 0
 4163 18e4 C9       		leave
 4164              		.cfi_def_cfa 7, 8
 4165 18e5 C3       		ret
 4166              		.cfi_endproc
 4167              	.LFE1165:
 4169              		.set	_ZN12_GLOBAL__N_130TestRecordsNumberOfFailedTestsD1Ev,_ZN12_GLOBAL__N_130TestRecordsNumberOfF
 4170              		.align 2
 4172              	_ZN12_GLOBAL__N_130TestRecordsNumberOfFailedTestsD0Ev:
 4173              	.LFB1167:
  41:TestTestResults.cpp **** {
 4174              		.loc 5 41 0 is_stmt 1
 4175              		.cfi_startproc
 4176 18e6 55       		pushq	%rbp
 4177              		.cfi_def_cfa_offset 16
 4178              		.cfi_offset 6, -16
 4179 18e7 4889E5   		movq	%rsp, %rbp
 4180              		.cfi_def_cfa_register 6
 4181 18ea 4883EC10 		subq	$16, %rsp
 4182 18ee 48897DF8 		movq	%rdi, -8(%rbp)
  41:TestTestResults.cpp **** {
 4183              		.loc 5 41 0
 4184 18f2 488B45F8 		movq	-8(%rbp), %rax
 4185 18f6 4889C7   		movq	%rax, %rdi
 4186 18f9 E8AEFFFF 		call	_ZN12_GLOBAL__N_130TestRecordsNumberOfFailedTestsD1Ev
 4186      FF
 4187 18fe 488B45F8 		movq	-8(%rbp), %rax
 4188 1902 4889C7   		movq	%rax, %rdi
 4189 1905 E8000000 		call	_ZdlPv
 4189      00
 4190 190a C9       		leave
 4191              		.cfi_def_cfa 7, 8
 4192 190b C3       		ret
 4193              		.cfi_endproc
 4194              	.LFE1167:
 4196              		.section	.rodata
 4197 07e8 00000000 		.align 32
 4197      00000000 
 4197      00000000 
 4197      00000000 
 4197      00000000 
 4200              	_ZTVN12_GLOBAL__N_127TestRecordsNumberOfFailuresE:
 4201 0800 00000000 		.quad	0
 4201      00000000 
 4202 0808 00000000 		.quad	_ZTIN12_GLOBAL__N_127TestRecordsNumberOfFailuresE
 4202      00000000 
 4203 0810 00000000 		.quad	_ZN12_GLOBAL__N_127TestRecordsNumberOfFailuresD1Ev
 4203      00000000 
 4204 0818 00000000 		.quad	_ZN12_GLOBAL__N_127TestRecordsNumberOfFailuresD0Ev
 4204      00000000 
 4205 0820 00000000 		.quad	_ZNK12_GLOBAL__N_127TestRecordsNumberOfFailures7RunImplEv
 4205      00000000 
 4206              		.text
 4207              		.align 2
 4209              	_ZN12_GLOBAL__N_127TestRecordsNumberOfFailuresD2Ev:
 4210              	.LFB1169:
  33:TestTestResults.cpp **** {
 4211              		.loc 5 33 0
 4212              		.cfi_startproc
 4213 190c 55       		pushq	%rbp
 4214              		.cfi_def_cfa_offset 16
 4215              		.cfi_offset 6, -16
 4216 190d 4889E5   		movq	%rsp, %rbp
 4217              		.cfi_def_cfa_register 6
 4218 1910 4883EC10 		subq	$16, %rsp
 4219 1914 48897DF8 		movq	%rdi, -8(%rbp)
 4220              	.LBB51:
  33:TestTestResults.cpp **** {
 4221              		.loc 5 33 0
 4222 1918 488B45F8 		movq	-8(%rbp), %rax
 4223 191c 48C70000 		movq	$_ZTVN12_GLOBAL__N_127TestRecordsNumberOfFailuresE+16, (%rax)
 4223      000000
 4224 1923 488B45F8 		movq	-8(%rbp), %rax
 4225 1927 4889C7   		movq	%rax, %rdi
 4226 192a E8000000 		call	_ZN8UnitTest4TestD2Ev
 4226      00
 4227              	.LBE51:
 4228 192f B8000000 		movl	$0, %eax
 4228      00
 4229 1934 85C0     		testl	%eax, %eax
 4230 1936 740C     		je	.L228
  33:TestTestResults.cpp **** {
 4231              		.loc 5 33 0 is_stmt 0 discriminator 1
 4232 1938 488B45F8 		movq	-8(%rbp), %rax
 4233 193c 4889C7   		movq	%rax, %rdi
 4234 193f E8000000 		call	_ZdlPv
 4234      00
 4235              	.L228:
  33:TestTestResults.cpp **** {
 4236              		.loc 5 33 0
 4237 1944 C9       		leave
 4238              		.cfi_def_cfa 7, 8
 4239 1945 C3       		ret
 4240              		.cfi_endproc
 4241              	.LFE1169:
 4243              		.set	_ZN12_GLOBAL__N_127TestRecordsNumberOfFailuresD1Ev,_ZN12_GLOBAL__N_127TestRecordsNumberOfFail
 4244              		.align 2
 4246              	_ZN12_GLOBAL__N_127TestRecordsNumberOfFailuresD0Ev:
 4247              	.LFB1171:
  33:TestTestResults.cpp **** {
 4248              		.loc 5 33 0 is_stmt 1
 4249              		.cfi_startproc
 4250 1946 55       		pushq	%rbp
 4251              		.cfi_def_cfa_offset 16
 4252              		.cfi_offset 6, -16
 4253 1947 4889E5   		movq	%rsp, %rbp
 4254              		.cfi_def_cfa_register 6
 4255 194a 4883EC10 		subq	$16, %rsp
 4256 194e 48897DF8 		movq	%rdi, -8(%rbp)
  33:TestTestResults.cpp **** {
 4257              		.loc 5 33 0
 4258 1952 488B45F8 		movq	-8(%rbp), %rax
 4259 1956 4889C7   		movq	%rax, %rdi
 4260 1959 E8AEFFFF 		call	_ZN12_GLOBAL__N_127TestRecordsNumberOfFailuresD1Ev
 4260      FF
 4261 195e 488B45F8 		movq	-8(%rbp), %rax
 4262 1962 4889C7   		movq	%rax, %rdi
 4263 1965 E8000000 		call	_ZdlPv
 4263      00
 4264 196a C9       		leave
 4265              		.cfi_def_cfa 7, 8
 4266 196b C3       		ret
 4267              		.cfi_endproc
 4268              	.LFE1171:
 4270              		.section	.rodata
 4271 0828 00000000 		.align 32
 4271      00000000 
 4271      00000000 
 4271      00000000 
 4271      00000000 
 4274              	_ZTVN12_GLOBAL__N_128TestStartsWithNoTestsFailingE:
 4275 0840 00000000 		.quad	0
 4275      00000000 
 4276 0848 00000000 		.quad	_ZTIN12_GLOBAL__N_128TestStartsWithNoTestsFailingE
 4276      00000000 
 4277 0850 00000000 		.quad	_ZN12_GLOBAL__N_128TestStartsWithNoTestsFailingD1Ev
 4277      00000000 
 4278 0858 00000000 		.quad	_ZN12_GLOBAL__N_128TestStartsWithNoTestsFailingD0Ev
 4278      00000000 
 4279 0860 00000000 		.quad	_ZNK12_GLOBAL__N_128TestStartsWithNoTestsFailing7RunImplEv
 4279      00000000 
 4280              		.text
 4281              		.align 2
 4283              	_ZN12_GLOBAL__N_128TestStartsWithNoTestsFailingD2Ev:
 4284              	.LFB1173:
  27:TestTestResults.cpp **** {
 4285              		.loc 5 27 0
 4286              		.cfi_startproc
 4287 196c 55       		pushq	%rbp
 4288              		.cfi_def_cfa_offset 16
 4289              		.cfi_offset 6, -16
 4290 196d 4889E5   		movq	%rsp, %rbp
 4291              		.cfi_def_cfa_register 6
 4292 1970 4883EC10 		subq	$16, %rsp
 4293 1974 48897DF8 		movq	%rdi, -8(%rbp)
 4294              	.LBB52:
  27:TestTestResults.cpp **** {
 4295              		.loc 5 27 0
 4296 1978 488B45F8 		movq	-8(%rbp), %rax
 4297 197c 48C70000 		movq	$_ZTVN12_GLOBAL__N_128TestStartsWithNoTestsFailingE+16, (%rax)
 4297      000000
 4298 1983 488B45F8 		movq	-8(%rbp), %rax
 4299 1987 4889C7   		movq	%rax, %rdi
 4300 198a E8000000 		call	_ZN8UnitTest4TestD2Ev
 4300      00
 4301              	.LBE52:
 4302 198f B8000000 		movl	$0, %eax
 4302      00
 4303 1994 85C0     		testl	%eax, %eax
 4304 1996 740C     		je	.L233
  27:TestTestResults.cpp **** {
 4305              		.loc 5 27 0 is_stmt 0 discriminator 1
 4306 1998 488B45F8 		movq	-8(%rbp), %rax
 4307 199c 4889C7   		movq	%rax, %rdi
 4308 199f E8000000 		call	_ZdlPv
 4308      00
 4309              	.L233:
  27:TestTestResults.cpp **** {
 4310              		.loc 5 27 0
 4311 19a4 C9       		leave
 4312              		.cfi_def_cfa 7, 8
 4313 19a5 C3       		ret
 4314              		.cfi_endproc
 4315              	.LFE1173:
 4317              		.set	_ZN12_GLOBAL__N_128TestStartsWithNoTestsFailingD1Ev,_ZN12_GLOBAL__N_128TestStartsWithNoTestsF
 4318              		.align 2
 4320              	_ZN12_GLOBAL__N_128TestStartsWithNoTestsFailingD0Ev:
 4321              	.LFB1175:
  27:TestTestResults.cpp **** {
 4322              		.loc 5 27 0 is_stmt 1
 4323              		.cfi_startproc
 4324 19a6 55       		pushq	%rbp
 4325              		.cfi_def_cfa_offset 16
 4326              		.cfi_offset 6, -16
 4327 19a7 4889E5   		movq	%rsp, %rbp
 4328              		.cfi_def_cfa_register 6
 4329 19aa 4883EC10 		subq	$16, %rsp
 4330 19ae 48897DF8 		movq	%rdi, -8(%rbp)
  27:TestTestResults.cpp **** {
 4331              		.loc 5 27 0
 4332 19b2 488B45F8 		movq	-8(%rbp), %rax
 4333 19b6 4889C7   		movq	%rax, %rdi
 4334 19b9 E8AEFFFF 		call	_ZN12_GLOBAL__N_128TestStartsWithNoTestsFailingD1Ev
 4334      FF
 4335 19be 488B45F8 		movq	-8(%rbp), %rax
 4336 19c2 4889C7   		movq	%rax, %rdi
 4337 19c5 E8000000 		call	_ZdlPv
 4337      00
 4338 19ca C9       		leave
 4339              		.cfi_def_cfa 7, 8
 4340 19cb C3       		ret
 4341              		.cfi_endproc
 4342              	.LFE1175:
 4344              		.section	.rodata
 4345 0868 00000000 		.align 32
 4345      00000000 
 4345      00000000 
 4345      00000000 
 4345      00000000 
 4348              	_ZTVN12_GLOBAL__N_125TestRecordsNumbersOfTestsE:
 4349 0880 00000000 		.quad	0
 4349      00000000 
 4350 0888 00000000 		.quad	_ZTIN12_GLOBAL__N_125TestRecordsNumbersOfTestsE
 4350      00000000 
 4351 0890 00000000 		.quad	_ZN12_GLOBAL__N_125TestRecordsNumbersOfTestsD1Ev
 4351      00000000 
 4352 0898 00000000 		.quad	_ZN12_GLOBAL__N_125TestRecordsNumbersOfTestsD0Ev
 4352      00000000 
 4353 08a0 00000000 		.quad	_ZNK12_GLOBAL__N_125TestRecordsNumbersOfTests7RunImplEv
 4353      00000000 
 4354              		.text
 4355              		.align 2
 4357              	_ZN12_GLOBAL__N_125TestRecordsNumbersOfTestsD2Ev:
 4358              	.LFB1177:
  18:TestTestResults.cpp **** {
 4359              		.loc 5 18 0
 4360              		.cfi_startproc
 4361 19cc 55       		pushq	%rbp
 4362              		.cfi_def_cfa_offset 16
 4363              		.cfi_offset 6, -16
 4364 19cd 4889E5   		movq	%rsp, %rbp
 4365              		.cfi_def_cfa_register 6
 4366 19d0 4883EC10 		subq	$16, %rsp
 4367 19d4 48897DF8 		movq	%rdi, -8(%rbp)
 4368              	.LBB53:
  18:TestTestResults.cpp **** {
 4369              		.loc 5 18 0
 4370 19d8 488B45F8 		movq	-8(%rbp), %rax
 4371 19dc 48C70000 		movq	$_ZTVN12_GLOBAL__N_125TestRecordsNumbersOfTestsE+16, (%rax)
 4371      000000
 4372 19e3 488B45F8 		movq	-8(%rbp), %rax
 4373 19e7 4889C7   		movq	%rax, %rdi
 4374 19ea E8000000 		call	_ZN8UnitTest4TestD2Ev
 4374      00
 4375              	.LBE53:
 4376 19ef B8000000 		movl	$0, %eax
 4376      00
 4377 19f4 85C0     		testl	%eax, %eax
 4378 19f6 740C     		je	.L238
  18:TestTestResults.cpp **** {
 4379              		.loc 5 18 0 is_stmt 0 discriminator 1
 4380 19f8 488B45F8 		movq	-8(%rbp), %rax
 4381 19fc 4889C7   		movq	%rax, %rdi
 4382 19ff E8000000 		call	_ZdlPv
 4382      00
 4383              	.L238:
  18:TestTestResults.cpp **** {
 4384              		.loc 5 18 0
 4385 1a04 C9       		leave
 4386              		.cfi_def_cfa 7, 8
 4387 1a05 C3       		ret
 4388              		.cfi_endproc
 4389              	.LFE1177:
 4391              		.set	_ZN12_GLOBAL__N_125TestRecordsNumbersOfTestsD1Ev,_ZN12_GLOBAL__N_125TestRecordsNumbersOfTests
 4392              		.align 2
 4394              	_ZN12_GLOBAL__N_125TestRecordsNumbersOfTestsD0Ev:
 4395              	.LFB1179:
  18:TestTestResults.cpp **** {
 4396              		.loc 5 18 0 is_stmt 1
 4397              		.cfi_startproc
 4398 1a06 55       		pushq	%rbp
 4399              		.cfi_def_cfa_offset 16
 4400              		.cfi_offset 6, -16
 4401 1a07 4889E5   		movq	%rsp, %rbp
 4402              		.cfi_def_cfa_register 6
 4403 1a0a 4883EC10 		subq	$16, %rsp
 4404 1a0e 48897DF8 		movq	%rdi, -8(%rbp)
  18:TestTestResults.cpp **** {
 4405              		.loc 5 18 0
 4406 1a12 488B45F8 		movq	-8(%rbp), %rax
 4407 1a16 4889C7   		movq	%rax, %rdi
 4408 1a19 E8AEFFFF 		call	_ZN12_GLOBAL__N_125TestRecordsNumbersOfTestsD1Ev
 4408      FF
 4409 1a1e 488B45F8 		movq	-8(%rbp), %rax
 4410 1a22 4889C7   		movq	%rax, %rdi
 4411 1a25 E8000000 		call	_ZdlPv
 4411      00
 4412 1a2a C9       		leave
 4413              		.cfi_def_cfa 7, 8
 4414 1a2b C3       		ret
 4415              		.cfi_endproc
 4416              	.LFE1179:
 4418              		.section	.rodata
 4419 08a8 00000000 		.align 32
 4419      00000000 
 4419      00000000 
 4419      00000000 
 4419      00000000 
 4422              	_ZTVN12_GLOBAL__N_124TestStartsWithNoTestsRunE:
 4423 08c0 00000000 		.quad	0
 4423      00000000 
 4424 08c8 00000000 		.quad	_ZTIN12_GLOBAL__N_124TestStartsWithNoTestsRunE
 4424      00000000 
 4425 08d0 00000000 		.quad	_ZN12_GLOBAL__N_124TestStartsWithNoTestsRunD1Ev
 4425      00000000 
 4426 08d8 00000000 		.quad	_ZN12_GLOBAL__N_124TestStartsWithNoTestsRunD0Ev
 4426      00000000 
 4427 08e0 00000000 		.quad	_ZNK12_GLOBAL__N_124TestStartsWithNoTestsRun7RunImplEv
 4427      00000000 
 4428              		.text
 4429              		.align 2
 4431              	_ZN12_GLOBAL__N_124TestStartsWithNoTestsRunD2Ev:
 4432              	.LFB1181:
  12:TestTestResults.cpp **** {
 4433              		.loc 5 12 0
 4434              		.cfi_startproc
 4435 1a2c 55       		pushq	%rbp
 4436              		.cfi_def_cfa_offset 16
 4437              		.cfi_offset 6, -16
 4438 1a2d 4889E5   		movq	%rsp, %rbp
 4439              		.cfi_def_cfa_register 6
 4440 1a30 4883EC10 		subq	$16, %rsp
 4441 1a34 48897DF8 		movq	%rdi, -8(%rbp)
 4442              	.LBB54:
  12:TestTestResults.cpp **** {
 4443              		.loc 5 12 0
 4444 1a38 488B45F8 		movq	-8(%rbp), %rax
 4445 1a3c 48C70000 		movq	$_ZTVN12_GLOBAL__N_124TestStartsWithNoTestsRunE+16, (%rax)
 4445      000000
 4446 1a43 488B45F8 		movq	-8(%rbp), %rax
 4447 1a47 4889C7   		movq	%rax, %rdi
 4448 1a4a E8000000 		call	_ZN8UnitTest4TestD2Ev
 4448      00
 4449              	.LBE54:
 4450 1a4f B8000000 		movl	$0, %eax
 4450      00
 4451 1a54 85C0     		testl	%eax, %eax
 4452 1a56 740C     		je	.L243
  12:TestTestResults.cpp **** {
 4453              		.loc 5 12 0 is_stmt 0 discriminator 1
 4454 1a58 488B45F8 		movq	-8(%rbp), %rax
 4455 1a5c 4889C7   		movq	%rax, %rdi
 4456 1a5f E8000000 		call	_ZdlPv
 4456      00
 4457              	.L243:
  12:TestTestResults.cpp **** {
 4458              		.loc 5 12 0
 4459 1a64 C9       		leave
 4460              		.cfi_def_cfa 7, 8
 4461 1a65 C3       		ret
 4462              		.cfi_endproc
 4463              	.LFE1181:
 4465              		.set	_ZN12_GLOBAL__N_124TestStartsWithNoTestsRunD1Ev,_ZN12_GLOBAL__N_124TestStartsWithNoTestsRunD2
 4466              		.align 2
 4468              	_ZN12_GLOBAL__N_124TestStartsWithNoTestsRunD0Ev:
 4469              	.LFB1183:
  12:TestTestResults.cpp **** {
 4470              		.loc 5 12 0 is_stmt 1
 4471              		.cfi_startproc
 4472 1a66 55       		pushq	%rbp
 4473              		.cfi_def_cfa_offset 16
 4474              		.cfi_offset 6, -16
 4475 1a67 4889E5   		movq	%rsp, %rbp
 4476              		.cfi_def_cfa_register 6
 4477 1a6a 4883EC10 		subq	$16, %rsp
 4478 1a6e 48897DF8 		movq	%rdi, -8(%rbp)
  12:TestTestResults.cpp **** {
 4479              		.loc 5 12 0
 4480 1a72 488B45F8 		movq	-8(%rbp), %rax
 4481 1a76 4889C7   		movq	%rax, %rdi
 4482 1a79 E8AEFFFF 		call	_ZN12_GLOBAL__N_124TestStartsWithNoTestsRunD1Ev
 4482      FF
 4483 1a7e 488B45F8 		movq	-8(%rbp), %rax
 4484 1a82 4889C7   		movq	%rax, %rdi
 4485 1a85 E8000000 		call	_ZdlPv
 4485      00
 4486 1a8a C9       		leave
 4487              		.cfi_def_cfa 7, 8
 4488 1a8b C3       		ret
 4489              		.cfi_endproc
 4490              	.LFE1183:
 4492              		.weak	_ZTV17RecordingReporter
 4493              		.section	.rodata._ZTV17RecordingReporter,"aG",@progbits,_ZTV17RecordingReporter,comdat
 4494              		.align 32
 4497              	_ZTV17RecordingReporter:
 4498 0000 00000000 		.quad	0
 4498      00000000 
 4499 0008 00000000 		.quad	_ZTI17RecordingReporter
 4499      00000000 
 4500 0010 00000000 		.quad	_ZN17RecordingReporterD1Ev
 4500      00000000 
 4501 0018 00000000 		.quad	_ZN17RecordingReporterD0Ev
 4501      00000000 
 4502 0020 00000000 		.quad	_ZN17RecordingReporter15ReportTestStartERKN8UnitTest11TestDetailsE
 4502      00000000 
 4503 0028 00000000 		.quad	_ZN17RecordingReporter13ReportFailureERKN8UnitTest11TestDetailsEPKc
 4503      00000000 
 4504 0030 00000000 		.quad	_ZN17RecordingReporter16ReportTestFinishERKN8UnitTest11TestDetailsEf
 4504      00000000 
 4505 0038 00000000 		.quad	_ZN17RecordingReporter13ReportSummaryEiiif
 4505      00000000 
 4506              		.section	.text._ZN17RecordingReporterD2Ev,"axG",@progbits,_ZN17RecordingReporterD5Ev,comdat
 4507              		.align 2
 4508              		.weak	_ZN17RecordingReporterD2Ev
 4510              	_ZN17RecordingReporterD2Ev:
 4511              	.LFB1185:
   9:RecordingReporter.h **** {
 4512              		.loc 4 9 0
 4513              		.cfi_startproc
 4514 0000 55       		pushq	%rbp
 4515              		.cfi_def_cfa_offset 16
 4516              		.cfi_offset 6, -16
 4517 0001 4889E5   		movq	%rsp, %rbp
 4518              		.cfi_def_cfa_register 6
 4519 0004 4883EC10 		subq	$16, %rsp
 4520 0008 48897DF8 		movq	%rdi, -8(%rbp)
 4521              	.LBB55:
   9:RecordingReporter.h **** {
 4522              		.loc 4 9 0
 4523 000c 488B45F8 		movq	-8(%rbp), %rax
 4524 0010 48C70000 		movq	$_ZTV17RecordingReporter+16, (%rax)
 4524      000000
 4525 0017 488B45F8 		movq	-8(%rbp), %rax
 4526 001b 4889C7   		movq	%rax, %rdi
 4527 001e E8000000 		call	_ZN8UnitTest12TestReporterD2Ev
 4527      00
 4528              	.LBE55:
 4529 0023 B8000000 		movl	$0, %eax
 4529      00
 4530 0028 85C0     		testl	%eax, %eax
 4531 002a 740C     		je	.L248
   9:RecordingReporter.h **** {
 4532              		.loc 4 9 0 is_stmt 0 discriminator 1
 4533 002c 488B45F8 		movq	-8(%rbp), %rax
 4534 0030 4889C7   		movq	%rax, %rdi
 4535 0033 E8000000 		call	_ZdlPv
 4535      00
 4536              	.L248:
   9:RecordingReporter.h **** {
 4537              		.loc 4 9 0
 4538 0038 C9       		leave
 4539              		.cfi_def_cfa 7, 8
 4540 0039 C3       		ret
 4541              		.cfi_endproc
 4542              	.LFE1185:
 4544              		.weak	_ZN17RecordingReporterD1Ev
 4545              		.set	_ZN17RecordingReporterD1Ev,_ZN17RecordingReporterD2Ev
 4546              		.section	.text._ZN17RecordingReporterD0Ev,"axG",@progbits,_ZN17RecordingReporterD0Ev,comdat
 4547              		.align 2
 4548              		.weak	_ZN17RecordingReporterD0Ev
 4550              	_ZN17RecordingReporterD0Ev:
 4551              	.LFB1187:
   9:RecordingReporter.h **** {
 4552              		.loc 4 9 0 is_stmt 1
 4553              		.cfi_startproc
 4554 0000 55       		pushq	%rbp
 4555              		.cfi_def_cfa_offset 16
 4556              		.cfi_offset 6, -16
 4557 0001 4889E5   		movq	%rsp, %rbp
 4558              		.cfi_def_cfa_register 6
 4559 0004 4883EC10 		subq	$16, %rsp
 4560 0008 48897DF8 		movq	%rdi, -8(%rbp)
   9:RecordingReporter.h **** {
 4561              		.loc 4 9 0
 4562 000c 488B45F8 		movq	-8(%rbp), %rax
 4563 0010 4889C7   		movq	%rax, %rdi
 4564 0013 E8000000 		call	_ZN17RecordingReporterD1Ev
 4564      00
 4565 0018 488B45F8 		movq	-8(%rbp), %rax
 4566 001c 4889C7   		movq	%rax, %rdi
 4567 001f E8000000 		call	_ZdlPv
 4567      00
 4568 0024 C9       		leave
 4569              		.cfi_def_cfa 7, 8
 4570 0025 C3       		ret
 4571              		.cfi_endproc
 4572              	.LFE1187:
 4574              		.weak	_ZTVN8UnitTest15MemoryOutStreamE
 4575              		.section	.rodata._ZTVN8UnitTest15MemoryOutStreamE,"aG",@progbits,_ZTVN8UnitTest15MemoryOutStreamE,
 4576              		.align 32
 4579              	_ZTVN8UnitTest15MemoryOutStreamE:
 4580 0000 60000000 		.quad	96
 4580      00000000 
 4581 0008 00000000 		.quad	0
 4581      00000000 
 4582 0010 00000000 		.quad	_ZTIN8UnitTest15MemoryOutStreamE
 4582      00000000 
 4583 0018 00000000 		.quad	_ZN8UnitTest15MemoryOutStreamD1Ev
 4583      00000000 
 4584 0020 00000000 		.quad	_ZN8UnitTest15MemoryOutStreamD0Ev
 4584      00000000 
 4585 0028 A0FFFFFF 		.quad	-96
 4585      FFFFFFFF 
 4586 0030 A0FFFFFF 		.quad	-96
 4586      FFFFFFFF 
 4587 0038 00000000 		.quad	_ZTIN8UnitTest15MemoryOutStreamE
 4587      00000000 
 4588 0040 00000000 		.quad	_ZTv0_n24_N8UnitTest15MemoryOutStreamD1Ev
 4588      00000000 
 4589 0048 00000000 		.quad	_ZTv0_n24_N8UnitTest15MemoryOutStreamD0Ev
 4589      00000000 
 4590              		.weak	_ZTTN8UnitTest15MemoryOutStreamE
 4591              		.section	.rodata._ZTTN8UnitTest15MemoryOutStreamE,"aG",@progbits,_ZTVN8UnitTest15MemoryOutStreamE,
 4592              		.align 32
 4595              	_ZTTN8UnitTest15MemoryOutStreamE:
 4596 0000 00000000 		.quad	_ZTVN8UnitTest15MemoryOutStreamE+24
 4596      00000000 
 4597 0008 00000000 		.quad	_ZTCN8UnitTest15MemoryOutStreamE0_St19basic_ostringstreamIcSt11char_traitsIcESaIcEE+24
 4597      00000000 
 4598 0010 00000000 		.quad	_ZTCN8UnitTest15MemoryOutStreamE0_So+24
 4598      00000000 
 4599 0018 00000000 		.quad	_ZTCN8UnitTest15MemoryOutStreamE0_So+64
 4599      00000000 
 4600 0020 00000000 		.quad	_ZTCN8UnitTest15MemoryOutStreamE0_St19basic_ostringstreamIcSt11char_traitsIcESaIcEE+64
 4600      00000000 
 4601 0028 00000000 		.quad	_ZTVN8UnitTest15MemoryOutStreamE+64
 4601      00000000 
 4602              		.hidden	_ZTCN8UnitTest15MemoryOutStreamE0_St19basic_ostringstreamIcSt11char_traitsIcESaIcEE
 4603              		.weak	_ZTCN8UnitTest15MemoryOutStreamE0_St19basic_ostringstreamIcSt11char_traitsIcESaIcEE
 4604              		.section	.rodata._ZTCN8UnitTest15MemoryOutStreamE0_St19basic_ostringstreamIcSt11char_traitsIcESaIc
 4605              		.align 32
 4608              	_ZTCN8UnitTest15MemoryOutStreamE0_St19basic_ostringstreamIcSt11char_traitsIcESaIcEE:
 4609 0000 60000000 		.quad	96
 4609      00000000 
 4610 0008 00000000 		.quad	0
 4610      00000000 
 4611 0010 00000000 		.quad	_ZTISt19basic_ostringstreamIcSt11char_traitsIcESaIcEE
 4611      00000000 
 4612 0018 00000000 		.quad	_ZNSt19basic_ostringstreamIcSt11char_traitsIcESaIcEED1Ev
 4612      00000000 
 4613 0020 00000000 		.quad	_ZNSt19basic_ostringstreamIcSt11char_traitsIcESaIcEED0Ev
 4613      00000000 
 4614 0028 A0FFFFFF 		.quad	-96
 4614      FFFFFFFF 
 4615 0030 A0FFFFFF 		.quad	-96
 4615      FFFFFFFF 
 4616 0038 00000000 		.quad	_ZTISt19basic_ostringstreamIcSt11char_traitsIcESaIcEE
 4616      00000000 
 4617 0040 00000000 		.quad	_ZTv0_n24_NSt19basic_ostringstreamIcSt11char_traitsIcESaIcEED1Ev
 4617      00000000 
 4618 0048 00000000 		.quad	_ZTv0_n24_NSt19basic_ostringstreamIcSt11char_traitsIcESaIcEED0Ev
 4618      00000000 
 4619              		.hidden	_ZTCN8UnitTest15MemoryOutStreamE0_So
 4620              		.weak	_ZTCN8UnitTest15MemoryOutStreamE0_So
 4621              		.section	.rodata._ZTCN8UnitTest15MemoryOutStreamE0_So,"aG",@progbits,_ZTVN8UnitTest15MemoryOutStre
 4622              		.align 32
 4625              	_ZTCN8UnitTest15MemoryOutStreamE0_So:
 4626 0000 60000000 		.quad	96
 4626      00000000 
 4627 0008 00000000 		.quad	0
 4627      00000000 
 4628 0010 00000000 		.quad	_ZTISo
 4628      00000000 
 4629 0018 00000000 		.quad	_ZNSoD1Ev
 4629      00000000 
 4630 0020 00000000 		.quad	_ZNSoD0Ev
 4630      00000000 
 4631 0028 A0FFFFFF 		.quad	-96
 4631      FFFFFFFF 
 4632 0030 A0FFFFFF 		.quad	-96
 4632      FFFFFFFF 
 4633 0038 00000000 		.quad	_ZTISo
 4633      00000000 
 4634 0040 00000000 		.quad	_ZTv0_n24_NSoD1Ev
 4634      00000000 
 4635 0048 00000000 		.quad	_ZTv0_n24_NSoD0Ev
 4635      00000000 
 4636              		.weak	_ZTS17RecordingReporter
 4637              		.section	.rodata._ZTS17RecordingReporter,"aG",@progbits,_ZTS17RecordingReporter,comdat
 4638              		.align 16
 4641              	_ZTS17RecordingReporter:
 4642 0000 31375265 		.string	"17RecordingReporter"
 4642      636F7264 
 4642      696E6752 
 4642      65706F72 
 4642      74657200 
 4643              		.weak	_ZTI17RecordingReporter
 4644              		.section	.rodata._ZTI17RecordingReporter,"aG",@progbits,_ZTI17RecordingReporter,comdat
 4645              		.align 16
 4648              	_ZTI17RecordingReporter:
 4649 0000 00000000 		.quad	_ZTVN10__cxxabiv120__si_class_type_infoE+16
 4649      00000000 
 4650 0008 00000000 		.quad	_ZTS17RecordingReporter
 4650      00000000 
 4651 0010 00000000 		.quad	_ZTIN8UnitTest12TestReporterE
 4651      00000000 
 4652              		.weak	_ZTSN8UnitTest15MemoryOutStreamE
 4653              		.section	.rodata._ZTSN8UnitTest15MemoryOutStreamE,"aG",@progbits,_ZTSN8UnitTest15MemoryOutStreamE,
 4654              		.align 16
 4657              	_ZTSN8UnitTest15MemoryOutStreamE:
 4658 0000 4E38556E 		.string	"N8UnitTest15MemoryOutStreamE"
 4658      69745465 
 4658      73743135 
 4658      4D656D6F 
 4658      72794F75 
 4659              		.weak	_ZTIN8UnitTest15MemoryOutStreamE
 4660              		.section	.rodata._ZTIN8UnitTest15MemoryOutStreamE,"aG",@progbits,_ZTIN8UnitTest15MemoryOutStreamE,
 4661              		.align 16
 4664              	_ZTIN8UnitTest15MemoryOutStreamE:
 4665 0000 00000000 		.quad	_ZTVN10__cxxabiv120__si_class_type_infoE+16
 4665      00000000 
 4666 0008 00000000 		.quad	_ZTSN8UnitTest15MemoryOutStreamE
 4666      00000000 
 4667 0010 00000000 		.quad	_ZTISt19basic_ostringstreamIcSt11char_traitsIcESaIcEE
 4667      00000000 
 4668              		.text
 4670              	_Z41__static_initialization_and_destruction_0ii:
 4671              	.LFB1188:
 109:TestTestResults.cpp **** 
 110:TestTestResults.cpp **** 
 111:TestTestResults.cpp **** }
 4672              		.loc 5 111 0
 4673              		.cfi_startproc
 4674 1a8c 55       		pushq	%rbp
 4675              		.cfi_def_cfa_offset 16
 4676              		.cfi_offset 6, -16
 4677 1a8d 4889E5   		movq	%rsp, %rbp
 4678              		.cfi_def_cfa_register 6
 4679 1a90 4883EC10 		subq	$16, %rsp
 4680 1a94 897DFC   		movl	%edi, -4(%rbp)
 4681 1a97 8975F8   		movl	%esi, -8(%rbp)
 4682              		.loc 5 111 0
 4683 1a9a 837DFC01 		cmpl	$1, -4(%rbp)
 4684 1a9e 0F850902 		jne	.L253
 4684      0000
 4685              		.loc 5 111 0 is_stmt 0 discriminator 1
 4686 1aa4 817DF8FF 		cmpl	$65535, -8(%rbp)
 4686      FF0000
 4687 1aab 0F85FC01 		jne	.L253
 4687      0000
   9:TestTestResults.cpp **** 
 4688              		.loc 5 9 0 is_stmt 1
 4689 1ab1 41B87B00 		movl	$123, %r8d
 4689      0000
 4690 1ab7 B9000000 		movl	$.LC22, %ecx
 4690      00
 4691 1abc BA000000 		movl	$.LC15, %edx
 4691      00
 4692 1ac1 BE000000 		movl	$.LC16, %esi
 4692      00
 4693 1ac6 BF000000 		movl	$_ZN12_GLOBAL__N_1L7detailsE, %edi
 4693      00
 4694 1acb E8000000 		call	_ZN8UnitTest11TestDetailsC1EPKcS2_S2_i
 4694      00
  12:TestTestResults.cpp **** {
 4695              		.loc 5 12 0
 4696 1ad0 BF000000 		movl	$_ZN12_GLOBAL__N_132testStartsWithNoTestsRunInstanceE, %edi
 4696      00
 4697 1ad5 E826E5FF 		call	_ZN12_GLOBAL__N_124TestStartsWithNoTestsRunC1Ev
 4697      FF
 4698 1ada BA000000 		movl	$__dso_handle, %edx
 4698      00
 4699 1adf BE000000 		movl	$_ZN12_GLOBAL__N_132testStartsWithNoTestsRunInstanceE, %esi
 4699      00
 4700 1ae4 BF000000 		movl	$_ZN12_GLOBAL__N_124TestStartsWithNoTestsRunD1Ev, %edi
 4700      00
 4701 1ae9 E8000000 		call	__cxa_atexit
 4701      00
 4702 1aee E8000000 		call	_ZN8UnitTest4Test11GetTestListEv
 4702      00
 4703 1af3 BA000000 		movl	$_ZN12_GLOBAL__N_132testStartsWithNoTestsRunInstanceE, %edx
 4703      00
 4704 1af8 4889C6   		movq	%rax, %rsi
 4705 1afb BF000000 		movl	$_ZN12_GLOBAL__N_125adderStartsWithNoTestsRunE, %edi
 4705      00
 4706 1b00 E8000000 		call	_ZN8UnitTest9ListAdderC1ERNS_8TestListEPNS_4TestE
 4706      00
  18:TestTestResults.cpp **** {
 4707              		.loc 5 18 0
 4708 1b05 BF000000 		movl	$_ZN12_GLOBAL__N_133testRecordsNumbersOfTestsInstanceE, %edi
 4708      00
 4709 1b0a E8FDE5FF 		call	_ZN12_GLOBAL__N_125TestRecordsNumbersOfTestsC1Ev
 4709      FF
 4710 1b0f BA000000 		movl	$__dso_handle, %edx
 4710      00
 4711 1b14 BE000000 		movl	$_ZN12_GLOBAL__N_133testRecordsNumbersOfTestsInstanceE, %esi
 4711      00
 4712 1b19 BF000000 		movl	$_ZN12_GLOBAL__N_125TestRecordsNumbersOfTestsD1Ev, %edi
 4712      00
 4713 1b1e E8000000 		call	__cxa_atexit
 4713      00
 4714 1b23 E8000000 		call	_ZN8UnitTest4Test11GetTestListEv
 4714      00
 4715 1b28 BA000000 		movl	$_ZN12_GLOBAL__N_133testRecordsNumbersOfTestsInstanceE, %edx
 4715      00
 4716 1b2d 4889C6   		movq	%rax, %rsi
 4717 1b30 BF000000 		movl	$_ZN12_GLOBAL__N_126adderRecordsNumbersOfTestsE, %edi
 4717      00
 4718 1b35 E8000000 		call	_ZN8UnitTest9ListAdderC1ERNS_8TestListEPNS_4TestE
 4718      00
  27:TestTestResults.cpp **** {
 4719              		.loc 5 27 0
 4720 1b3a BF000000 		movl	$_ZN12_GLOBAL__N_136testStartsWithNoTestsFailingInstanceE, %edi
 4720      00
 4721 1b3f E808E7FF 		call	_ZN12_GLOBAL__N_128TestStartsWithNoTestsFailingC1Ev
 4721      FF
 4722 1b44 BA000000 		movl	$__dso_handle, %edx
 4722      00
 4723 1b49 BE000000 		movl	$_ZN12_GLOBAL__N_136testStartsWithNoTestsFailingInstanceE, %esi
 4723      00
 4724 1b4e BF000000 		movl	$_ZN12_GLOBAL__N_128TestStartsWithNoTestsFailingD1Ev, %edi
 4724      00
 4725 1b53 E8000000 		call	__cxa_atexit
 4725      00
 4726 1b58 E8000000 		call	_ZN8UnitTest4Test11GetTestListEv
 4726      00
 4727 1b5d BA000000 		movl	$_ZN12_GLOBAL__N_136testStartsWithNoTestsFailingInstanceE, %edx
 4727      00
 4728 1b62 4889C6   		movq	%rax, %rsi
 4729 1b65 BF000000 		movl	$_ZN12_GLOBAL__N_129adderStartsWithNoTestsFailingE, %edi
 4729      00
 4730 1b6a E8000000 		call	_ZN8UnitTest9ListAdderC1ERNS_8TestListEPNS_4TestE
 4730      00
  33:TestTestResults.cpp **** {
 4731              		.loc 5 33 0
 4732 1b6f BF000000 		movl	$_ZN12_GLOBAL__N_135testRecordsNumberOfFailuresInstanceE, %edi
 4732      00
 4733 1b74 E8DFE7FF 		call	_ZN12_GLOBAL__N_127TestRecordsNumberOfFailuresC1Ev
 4733      FF
 4734 1b79 BA000000 		movl	$__dso_handle, %edx
 4734      00
 4735 1b7e BE000000 		movl	$_ZN12_GLOBAL__N_135testRecordsNumberOfFailuresInstanceE, %esi
 4735      00
 4736 1b83 BF000000 		movl	$_ZN12_GLOBAL__N_127TestRecordsNumberOfFailuresD1Ev, %edi
 4736      00
 4737 1b88 E8000000 		call	__cxa_atexit
 4737      00
 4738 1b8d E8000000 		call	_ZN8UnitTest4Test11GetTestListEv
 4738      00
 4739 1b92 BA000000 		movl	$_ZN12_GLOBAL__N_135testRecordsNumberOfFailuresInstanceE, %edx
 4739      00
 4740 1b97 4889C6   		movq	%rax, %rsi
 4741 1b9a BF000000 		movl	$_ZN12_GLOBAL__N_128adderRecordsNumberOfFailuresE, %edi
 4741      00
 4742 1b9f E8000000 		call	_ZN8UnitTest9ListAdderC1ERNS_8TestListEPNS_4TestE
 4742      00
  41:TestTestResults.cpp **** {
 4743              		.loc 5 41 0
 4744 1ba4 BF000000 		movl	$_ZN12_GLOBAL__N_138testRecordsNumberOfFailedTestsInstanceE, %edi
 4744      00
 4745 1ba9 E8E2E8FF 		call	_ZN12_GLOBAL__N_130TestRecordsNumberOfFailedTestsC1Ev
 4745      FF
 4746 1bae BA000000 		movl	$__dso_handle, %edx
 4746      00
 4747 1bb3 BE000000 		movl	$_ZN12_GLOBAL__N_138testRecordsNumberOfFailedTestsInstanceE, %esi
 4747      00
 4748 1bb8 BF000000 		movl	$_ZN12_GLOBAL__N_130TestRecordsNumberOfFailedTestsD1Ev, %edi
 4748      00
 4749 1bbd E8000000 		call	__cxa_atexit
 4749      00
 4750 1bc2 E8000000 		call	_ZN8UnitTest4Test11GetTestListEv
 4750      00
 4751 1bc7 BA000000 		movl	$_ZN12_GLOBAL__N_138testRecordsNumberOfFailedTestsInstanceE, %edx
 4751      00
 4752 1bcc 4889C6   		movq	%rax, %rsi
 4753 1bcf BF000000 		movl	$_ZN12_GLOBAL__N_131adderRecordsNumberOfFailedTestsE, %edi
 4753      00
 4754 1bd4 E8000000 		call	_ZN8UnitTest9ListAdderC1ERNS_8TestListEPNS_4TestE
 4754      00
  58:TestTestResults.cpp **** {
 4755              		.loc 5 58 0
 4756 1bd9 BF000000 		movl	$_ZN12_GLOBAL__N_154testNotifiesReporterOfTestStartWithCorrectInfoInstanceE, %edi
 4756      00
 4757 1bde E85BEAFF 		call	_ZN12_GLOBAL__N_146TestNotifiesReporterOfTestStartWithCorrectInfoC1Ev
 4757      FF
 4758 1be3 BA000000 		movl	$__dso_handle, %edx
 4758      00
 4759 1be8 BE000000 		movl	$_ZN12_GLOBAL__N_154testNotifiesReporterOfTestStartWithCorrectInfoInstanceE, %esi
 4759      00
 4760 1bed BF000000 		movl	$_ZN12_GLOBAL__N_146TestNotifiesReporterOfTestStartWithCorrectInfoD1Ev, %edi
 4760      00
 4761 1bf2 E8000000 		call	__cxa_atexit
 4761      00
 4762 1bf7 E8000000 		call	_ZN8UnitTest4Test11GetTestListEv
 4762      00
 4763 1bfc BA000000 		movl	$_ZN12_GLOBAL__N_154testNotifiesReporterOfTestStartWithCorrectInfoInstanceE, %edx
 4763      00
 4764 1c01 4889C6   		movq	%rax, %rsi
 4765 1c04 BF000000 		movl	$_ZN12_GLOBAL__N_147adderNotifiesReporterOfTestStartWithCorrectInfoE, %edi
 4765      00
 4766 1c09 E8000000 		call	_ZN8UnitTest9ListAdderC1ERNS_8TestListEPNS_4TestE
 4766      00
  69:TestTestResults.cpp **** {
 4767              		.loc 5 69 0
 4768 1c0e BF000000 		movl	$_ZN12_GLOBAL__N_156testNotifiesReporterOfTestFailureWithCorrectInfoInstanceE, %edi
 4768      00
 4769 1c13 E81CEDFF 		call	_ZN12_GLOBAL__N_148TestNotifiesReporterOfTestFailureWithCorrectInfoC1Ev
 4769      FF
 4770 1c18 BA000000 		movl	$__dso_handle, %edx
 4770      00
 4771 1c1d BE000000 		movl	$_ZN12_GLOBAL__N_156testNotifiesReporterOfTestFailureWithCorrectInfoInstanceE, %esi
 4771      00
 4772 1c22 BF000000 		movl	$_ZN12_GLOBAL__N_148TestNotifiesReporterOfTestFailureWithCorrectInfoD1Ev, %edi
 4772      00
 4773 1c27 E8000000 		call	__cxa_atexit
 4773      00
 4774 1c2c E8000000 		call	_ZN8UnitTest4Test11GetTestListEv
 4774      00
 4775 1c31 BA000000 		movl	$_ZN12_GLOBAL__N_156testNotifiesReporterOfTestFailureWithCorrectInfoInstanceE, %edx
 4775      00
 4776 1c36 4889C6   		movq	%rax, %rsi
 4777 1c39 BF000000 		movl	$_ZN12_GLOBAL__N_149adderNotifiesReporterOfTestFailureWithCorrectInfoE, %edi
 4777      00
 4778 1c3e E8000000 		call	_ZN8UnitTest9ListAdderC1ERNS_8TestListEPNS_4TestE
 4778      00
  83:TestTestResults.cpp **** {
 4779              		.loc 5 83 0
 4780 1c43 BF000000 		movl	$_ZN12_GLOBAL__N_157testNotifiesReporterOfCheckFailureWithCorrectInfoInstanceE, %edi
 4780      00
 4781 1c48 E8F9F1FF 		call	_ZN12_GLOBAL__N_149TestNotifiesReporterOfCheckFailureWithCorrectInfoC1Ev
 4781      FF
 4782 1c4d BA000000 		movl	$__dso_handle, %edx
 4782      00
 4783 1c52 BE000000 		movl	$_ZN12_GLOBAL__N_157testNotifiesReporterOfCheckFailureWithCorrectInfoInstanceE, %esi
 4783      00
 4784 1c57 BF000000 		movl	$_ZN12_GLOBAL__N_149TestNotifiesReporterOfCheckFailureWithCorrectInfoD1Ev, %edi
 4784      00
 4785 1c5c E8000000 		call	__cxa_atexit
 4785      00
 4786 1c61 E8000000 		call	_ZN8UnitTest4Test11GetTestListEv
 4786      00
 4787 1c66 BA000000 		movl	$_ZN12_GLOBAL__N_157testNotifiesReporterOfCheckFailureWithCorrectInfoInstanceE, %edx
 4787      00
 4788 1c6b 4889C6   		movq	%rax, %rsi
 4789 1c6e BF000000 		movl	$_ZN12_GLOBAL__N_150adderNotifiesReporterOfCheckFailureWithCorrectInfoE, %edi
 4789      00
 4790 1c73 E8000000 		call	_ZN8UnitTest9ListAdderC1ERNS_8TestListEPNS_4TestE
 4790      00
  98:TestTestResults.cpp **** {
 4791              		.loc 5 98 0
 4792 1c78 BF000000 		movl	$_ZN12_GLOBAL__N_137testNotifiesReporterOfTestEndInstanceE, %edi
 4792      00
 4793 1c7d E8D6F6FF 		call	_ZN12_GLOBAL__N_129TestNotifiesReporterOfTestEndC1Ev
 4793      FF
 4794 1c82 BA000000 		movl	$__dso_handle, %edx
 4794      00
 4795 1c87 BE000000 		movl	$_ZN12_GLOBAL__N_137testNotifiesReporterOfTestEndInstanceE, %esi
 4795      00
 4796 1c8c BF000000 		movl	$_ZN12_GLOBAL__N_129TestNotifiesReporterOfTestEndD1Ev, %edi
 4796      00
 4797 1c91 E8000000 		call	__cxa_atexit
 4797      00
 4798 1c96 E8000000 		call	_ZN8UnitTest4Test11GetTestListEv
 4798      00
 4799 1c9b BA000000 		movl	$_ZN12_GLOBAL__N_137testNotifiesReporterOfTestEndInstanceE, %edx
 4799      00
 4800 1ca0 4889C6   		movq	%rax, %rsi
 4801 1ca3 BF000000 		movl	$_ZN12_GLOBAL__N_130adderNotifiesReporterOfTestEndE, %edi
 4801      00
 4802 1ca8 E8000000 		call	_ZN8UnitTest9ListAdderC1ERNS_8TestListEPNS_4TestE
 4802      00
 4803              	.L253:
 4804              		.loc 5 111 0
 4805 1cad C9       		leave
 4806              		.cfi_def_cfa 7, 8
 4807 1cae C3       		ret
 4808              		.cfi_endproc
 4809              	.LFE1188:
 4811              		.section	.rodata
 4812 08e8 00000000 		.align 16
 4812      00000000 
 4815              	_ZTIN12_GLOBAL__N_124TestStartsWithNoTestsRunE:
 4816 08f0 00000000 		.quad	_ZTVN10__cxxabiv120__si_class_type_infoE+16
 4816      00000000 
 4817 08f8 00000000 		.quad	_ZTSN12_GLOBAL__N_124TestStartsWithNoTestsRunE
 4817      00000000 
 4818 0900 00000000 		.quad	_ZTIN8UnitTest4TestE
 4818      00000000 
 4819 0908 00000000 		.align 16
 4819      00000000 
 4822              	_ZTIN12_GLOBAL__N_125TestRecordsNumbersOfTestsE:
 4823 0910 00000000 		.quad	_ZTVN10__cxxabiv120__si_class_type_infoE+16
 4823      00000000 
 4824 0918 00000000 		.quad	_ZTSN12_GLOBAL__N_125TestRecordsNumbersOfTestsE
 4824      00000000 
 4825 0920 00000000 		.quad	_ZTIN8UnitTest4TestE
 4825      00000000 
 4826 0928 00000000 		.align 16
 4826      00000000 
 4829              	_ZTIN12_GLOBAL__N_128TestStartsWithNoTestsFailingE:
 4830 0930 00000000 		.quad	_ZTVN10__cxxabiv120__si_class_type_infoE+16
 4830      00000000 
 4831 0938 00000000 		.quad	_ZTSN12_GLOBAL__N_128TestStartsWithNoTestsFailingE
 4831      00000000 
 4832 0940 00000000 		.quad	_ZTIN8UnitTest4TestE
 4832      00000000 
 4833 0948 00000000 		.align 16
 4833      00000000 
 4836              	_ZTIN12_GLOBAL__N_127TestRecordsNumberOfFailuresE:
 4837 0950 00000000 		.quad	_ZTVN10__cxxabiv120__si_class_type_infoE+16
 4837      00000000 
 4838 0958 00000000 		.quad	_ZTSN12_GLOBAL__N_127TestRecordsNumberOfFailuresE
 4838      00000000 
 4839 0960 00000000 		.quad	_ZTIN8UnitTest4TestE
 4839      00000000 
 4840 0968 00000000 		.align 16
 4840      00000000 
 4843              	_ZTIN12_GLOBAL__N_130TestRecordsNumberOfFailedTestsE:
 4844 0970 00000000 		.quad	_ZTVN10__cxxabiv120__si_class_type_infoE+16
 4844      00000000 
 4845 0978 00000000 		.quad	_ZTSN12_GLOBAL__N_130TestRecordsNumberOfFailedTestsE
 4845      00000000 
 4846 0980 00000000 		.quad	_ZTIN8UnitTest4TestE
 4846      00000000 
 4847 0988 00000000 		.align 16
 4847      00000000 
 4850              	_ZTIN12_GLOBAL__N_146TestNotifiesReporterOfTestStartWithCorrectInfoE:
 4851 0990 00000000 		.quad	_ZTVN10__cxxabiv120__si_class_type_infoE+16
 4851      00000000 
 4852 0998 00000000 		.quad	_ZTSN12_GLOBAL__N_146TestNotifiesReporterOfTestStartWithCorrectInfoE
 4852      00000000 
 4853 09a0 00000000 		.quad	_ZTIN8UnitTest4TestE
 4853      00000000 
 4854 09a8 00000000 		.align 16
 4854      00000000 
