   1              		.file	"TestChecks.cpp"
   2              		.text
   3              	.Ltext0:
   4              		.section	.rodata
   5              	.LC0:
   6 0000 44656661 		.string	"DefaultSuite"
   6      756C7453 
   6      75697465 
   6      00
   7              		.section	.text._ZN13UnitTestSuite12GetSuiteNameEv,"axG",@progbits,_ZN13UnitTestSuite12GetSuiteName
   8              		.weak	_ZN13UnitTestSuite12GetSuiteNameEv
  10              	_ZN13UnitTestSuite12GetSuiteNameEv:
  11              	.LFB0:
  12              		.file 1 "../TestSuite.h"
   1:../TestSuite.h **** #ifndef UNITTEST_TESTSUITE_H
   2:../TestSuite.h **** #define UNITTEST_TESTSUITE_H
   3:../TestSuite.h **** 
   4:../TestSuite.h **** namespace UnitTestSuite {
   5:../TestSuite.h **** 
   6:../TestSuite.h ****     inline char const* GetSuiteName ()
   7:../TestSuite.h ****     {
  13              		.loc 1 7 0
  14              		.cfi_startproc
  15 0000 55       		pushq	%rbp
  16              		.cfi_def_cfa_offset 16
  17              		.cfi_offset 6, -16
  18 0001 4889E5   		movq	%rsp, %rbp
  19              		.cfi_def_cfa_register 6
   8:../TestSuite.h ****         return "DefaultSuite";
  20              		.loc 1 8 0
  21 0004 B8000000 		movl	$.LC0, %eax
  21      00
   9:../TestSuite.h ****     }
  22              		.loc 1 9 0
  23 0009 5D       		popq	%rbp
  24              		.cfi_def_cfa 7, 8
  25 000a C3       		ret
  26              		.cfi_endproc
  27              	.LFE0:
  29              		.section	.text._ZN8UnitTest15MemoryOutStreamC1Ev,"axG",@progbits,_ZN8UnitTest15MemoryOutStreamC1Ev
  30              		.align 2
  31              		.weak	_ZN8UnitTest15MemoryOutStreamC1Ev
  33              	_ZN8UnitTest15MemoryOutStreamC1Ev:
  34              	.LFB1007:
  35              		.file 2 "../MemoryOutStream.h"
   1:../MemoryOutStream.h **** #ifndef UNITTEST_MEMORYOUTSTREAM_H
   2:../MemoryOutStream.h **** #define UNITTEST_MEMORYOUTSTREAM_H
   3:../MemoryOutStream.h **** 
   4:../MemoryOutStream.h **** #include "Config.h"
   5:../MemoryOutStream.h **** 
   6:../MemoryOutStream.h **** #ifndef UNITTEST_USE_CUSTOM_STREAMS
   7:../MemoryOutStream.h **** 
   8:../MemoryOutStream.h **** #include <sstream>
   9:../MemoryOutStream.h **** 
  10:../MemoryOutStream.h **** namespace UnitTest
  11:../MemoryOutStream.h **** {
  12:../MemoryOutStream.h **** 
  13:../MemoryOutStream.h **** class MemoryOutStream : public std::ostringstream
  14:../MemoryOutStream.h **** {
  15:../MemoryOutStream.h **** public:
  16:../MemoryOutStream.h ****     MemoryOutStream() {}
  36              		.loc 2 16 0
  37              		.cfi_startproc
  38              		.cfi_personality 0x3,__gxx_personality_v0
  39              		.cfi_lsda 0x3,.LLSDA1007
  40 0000 55       		pushq	%rbp
  41              		.cfi_def_cfa_offset 16
  42              		.cfi_offset 6, -16
  43 0001 4889E5   		movq	%rsp, %rbp
  44              		.cfi_def_cfa_register 6
  45 0004 53       		pushq	%rbx
  46 0005 4883EC18 		subq	$24, %rsp
  47              		.cfi_offset 3, -24
  48 0009 48897DE8 		movq	%rdi, -24(%rbp)
  49              	.LBB2:
  50              		.loc 2 16 0
  51 000d 488B45E8 		movq	-24(%rbp), %rax
  52 0011 4883C060 		addq	$96, %rax
  53 0015 4889C7   		movq	%rax, %rdi
  54              	.LEHB0:
  55 0018 E8000000 		call	_ZNSt9basic_iosIcSt11char_traitsIcEEC2Ev
  55      00
  56              	.LEHE0:
  57 001d B9000000 		movl	$_ZTTN8UnitTest15MemoryOutStreamE+8, %ecx
  57      00
  58 0022 488B45E8 		movq	-24(%rbp), %rax
  59 0026 BA100000 		movl	$16, %edx
  59      00
  60 002b 4889CE   		movq	%rcx, %rsi
  61 002e 4889C7   		movq	%rax, %rdi
  62              	.LEHB1:
  63 0031 E8000000 		call	_ZNSt19basic_ostringstreamIcSt11char_traitsIcESaIcEEC2ESt13_Ios_Openmode
  63      00
  64              	.LEHE1:
  65              		.loc 2 16 0 is_stmt 0 discriminator 6
  66 0036 BA000000 		movl	$_ZTVN8UnitTest15MemoryOutStreamE+24, %edx
  66      00
  67 003b 488B45E8 		movq	-24(%rbp), %rax
  68 003f 488910   		movq	%rdx, (%rax)
  69 0042 BA600000 		movl	$96, %edx
  69      00
  70 0047 488B45E8 		movq	-24(%rbp), %rax
  71 004b 4801C2   		addq	%rax, %rdx
  72 004e B8000000 		movl	$_ZTVN8UnitTest15MemoryOutStreamE+64, %eax
  72      00
  73 0053 488902   		movq	%rax, (%rdx)
  74 0056 488B45E8 		movq	-24(%rbp), %rax
  75 005a 4883C058 		addq	$88, %rax
  76 005e 4889C7   		movq	%rax, %rdi
  77              	.LEHB2:
  78 0061 E8000000 		call	_ZNSsC1Ev
  78      00
  79              	.LEHE2:
  80              	.LBE2:
  81              		.loc 2 16 0
  82 0066 EB37     		jmp	.L8
  83              	.L6:
  84 0068 4889C3   		movq	%rax, %rbx
  85              	.LBB3:
  86 006b BA000000 		movl	$_ZTTN8UnitTest15MemoryOutStreamE+8, %edx
  86      00
  87 0070 488B45E8 		movq	-24(%rbp), %rax
  88 0074 4889D6   		movq	%rdx, %rsi
  89 0077 4889C7   		movq	%rax, %rdi
  90 007a E8000000 		call	_ZNSt19basic_ostringstreamIcSt11char_traitsIcESaIcEED2Ev
  90      00
  91 007f EB03     		jmp	.L5
  92              	.L7:
  93 0081 4889C3   		movq	%rax, %rbx
  94              	.L5:
  95              		.loc 2 16 0 discriminator 19
  96 0084 488B45E8 		movq	-24(%rbp), %rax
  97 0088 4883C060 		addq	$96, %rax
  98 008c 4889C7   		movq	%rax, %rdi
  99 008f E8000000 		call	_ZNSt9basic_iosIcSt11char_traitsIcEED2Ev
  99      00
 100 0094 4889D8   		movq	%rbx, %rax
 101 0097 4889C7   		movq	%rax, %rdi
 102              	.LEHB3:
 103 009a E8000000 		call	_Unwind_Resume
 103      00
 104              	.LEHE3:
 105              	.L8:
 106              	.LBE3:
 107              		.loc 2 16 0
 108 009f 4883C418 		addq	$24, %rsp
 109 00a3 5B       		popq	%rbx
 110 00a4 5D       		popq	%rbp
 111              		.cfi_def_cfa 7, 8
 112 00a5 C3       		ret
 113              		.cfi_endproc
 114              	.LFE1007:
 115              		.globl	__gxx_personality_v0
 116              		.section	.gcc_except_table._ZN8UnitTest15MemoryOutStreamC1Ev,"aG",@progbits,_ZN8UnitTest15MemoryOu
 117              	.LLSDA1007:
 118 0000 FF       		.byte	0xff
 119 0001 FF       		.byte	0xff
 120 0002 01       		.byte	0x1
 121 0003 12       		.uleb128 .LLSDACSE1007-.LLSDACSB1007
 122              	.LLSDACSB1007:
 123 0004 18       		.uleb128 .LEHB0-.LFB1007
 124 0005 05       		.uleb128 .LEHE0-.LEHB0
 125 0006 00       		.uleb128 0
 126 0007 00       		.uleb128 0
 127 0008 31       		.uleb128 .LEHB1-.LFB1007
 128 0009 05       		.uleb128 .LEHE1-.LEHB1
 129 000a 8101     		.uleb128 .L7-.LFB1007
 130 000c 00       		.uleb128 0
 131 000d 61       		.uleb128 .LEHB2-.LFB1007
 132 000e 05       		.uleb128 .LEHE2-.LEHB2
 133 000f 68       		.uleb128 .L6-.LFB1007
 134 0010 00       		.uleb128 0
 135 0011 9A01     		.uleb128 .LEHB3-.LFB1007
 136 0013 05       		.uleb128 .LEHE3-.LEHB3
 137 0014 00       		.uleb128 0
 138 0015 00       		.uleb128 0
 139              	.LLSDACSE1007:
 140              		.section	.text._ZN8UnitTest15MemoryOutStreamC1Ev,"axG",@progbits,_ZN8UnitTest15MemoryOutStreamC1Ev
 142              		.section	.text._ZN8UnitTest12TestReporterC2Ev,"axG",@progbits,_ZN8UnitTest12TestReporterC5Ev,comda
 143              		.align 2
 144              		.weak	_ZN8UnitTest12TestReporterC2Ev
 146              	_ZN8UnitTest12TestReporterC2Ev:
 147              	.LFB1021:
 148              		.file 3 "../TestReporter.h"
   1:../TestReporter.h **** #ifndef UNITTEST_TESTREPORTER_H
   2:../TestReporter.h **** #define UNITTEST_TESTREPORTER_H
   3:../TestReporter.h **** 
   4:../TestReporter.h **** namespace UnitTest {
   5:../TestReporter.h **** 
   6:../TestReporter.h **** class TestDetails;
   7:../TestReporter.h **** 
   8:../TestReporter.h **** class TestReporter
 149              		.loc 3 8 0 is_stmt 1
 150              		.cfi_startproc
 151 0000 55       		pushq	%rbp
 152              		.cfi_def_cfa_offset 16
 153              		.cfi_offset 6, -16
 154 0001 4889E5   		movq	%rsp, %rbp
 155              		.cfi_def_cfa_register 6
 156 0004 48897DF8 		movq	%rdi, -8(%rbp)
 157              	.LBB4:
 158              		.loc 3 8 0
 159 0008 488B45F8 		movq	-8(%rbp), %rax
 160 000c 48C70000 		movq	$_ZTVN8UnitTest12TestReporterE+16, (%rax)
 160      000000
 161              	.LBE4:
 162 0013 5D       		popq	%rbp
 163              		.cfi_def_cfa 7, 8
 164 0014 C3       		ret
 165              		.cfi_endproc
 166              	.LFE1021:
 168              		.weak	_ZN8UnitTest12TestReporterC1Ev
 169              		.set	_ZN8UnitTest12TestReporterC1Ev,_ZN8UnitTest12TestReporterC2Ev
 170              		.section	.text._ZN17RecordingReporterC2Ev,"axG",@progbits,_ZN17RecordingReporterC5Ev,comdat
 171              		.align 2
 172              		.weak	_ZN17RecordingReporterC2Ev
 174              	_ZN17RecordingReporterC2Ev:
 175              	.LFB1023:
 176              		.file 4 "RecordingReporter.h"
   1:RecordingReporter.h **** #ifndef UNITTEST_RECORDINGREPORTER_H
   2:RecordingReporter.h **** #define UNITTEST_RECORDINGREPORTER_H
   3:RecordingReporter.h **** 
   4:RecordingReporter.h **** #include "../TestReporter.h"
   5:RecordingReporter.h **** #include <cstring>
   6:RecordingReporter.h **** 
   7:RecordingReporter.h **** #include "../TestDetails.h"
   8:RecordingReporter.h **** 
   9:RecordingReporter.h **** struct RecordingReporter : public UnitTest::TestReporter
  10:RecordingReporter.h **** {
  11:RecordingReporter.h **** private:
  12:RecordingReporter.h ****     enum { kMaxStringLength = 256 };
  13:RecordingReporter.h **** 
  14:RecordingReporter.h **** public:
  15:RecordingReporter.h ****     RecordingReporter()
 177              		.loc 4 15 0
 178              		.cfi_startproc
 179 0000 55       		pushq	%rbp
 180              		.cfi_def_cfa_offset 16
 181              		.cfi_offset 6, -16
 182 0001 4889E5   		movq	%rsp, %rbp
 183              		.cfi_def_cfa_register 6
 184 0004 4883EC10 		subq	$16, %rsp
 185 0008 48897DF8 		movq	%rdi, -8(%rbp)
 186              	.LBB5:
  16:RecordingReporter.h ****         : testRunCount(0)
  17:RecordingReporter.h ****         , testFailedCount(0)
  18:RecordingReporter.h ****         , lastFailedLine(0)
  19:RecordingReporter.h ****         , testFinishedCount(0)
  20:RecordingReporter.h ****         , lastFinishedTestTime(0)
  21:RecordingReporter.h ****         , summaryTotalTestCount(0)
  22:RecordingReporter.h ****         , summaryFailedTestCount(0)
  23:RecordingReporter.h ****         , summaryFailureCount(0)
  24:RecordingReporter.h ****         , summarySecondsElapsed(0)
 187              		.loc 4 24 0
 188 000c 488B45F8 		movq	-8(%rbp), %rax
 189 0010 4889C7   		movq	%rax, %rdi
 190 0013 E8000000 		call	_ZN8UnitTest12TestReporterC2Ev
 190      00
 191 0018 488B45F8 		movq	-8(%rbp), %rax
 192 001c 48C70000 		movq	$_ZTV17RecordingReporter+16, (%rax)
 192      000000
 193 0023 488B45F8 		movq	-8(%rbp), %rax
 194 0027 C7400800 		movl	$0, 8(%rax)
 194      000000
 195 002e 488B45F8 		movq	-8(%rbp), %rax
 196 0032 C7800C02 		movl	$0, 524(%rax)
 196      00000000 
 196      0000
 197 003c 488B45F8 		movq	-8(%rbp), %rax
 198 0040 C7801003 		movl	$0, 784(%rax)
 198      00000000 
 198      0000
 199 004a 488B45F8 		movq	-8(%rbp), %rax
 200 004e C7801406 		movl	$0, 1556(%rax)
 200      00000000 
 200      0000
 201 0058 488B55F8 		movq	-8(%rbp), %rdx
 202 005c 8B050000 		movl	.LC1(%rip), %eax
 202      0000
 203 0062 89821808 		movl	%eax, 2072(%rdx)
 203      0000
 204 0068 488B45F8 		movq	-8(%rbp), %rax
 205 006c C7801C08 		movl	$0, 2076(%rax)
 205      00000000 
 205      0000
 206 0076 488B45F8 		movq	-8(%rbp), %rax
 207 007a C7802008 		movl	$0, 2080(%rax)
 207      00000000 
 207      0000
 208 0084 488B45F8 		movq	-8(%rbp), %rax
 209 0088 C7802408 		movl	$0, 2084(%rax)
 209      00000000 
 209      0000
 210 0092 488B55F8 		movq	-8(%rbp), %rdx
 211 0096 8B050000 		movl	.LC1(%rip), %eax
 211      0000
 212 009c 89822808 		movl	%eax, 2088(%rdx)
 212      0000
  25:RecordingReporter.h ****     {
  26:RecordingReporter.h ****         lastStartedSuite[0] = '\0';
 213              		.loc 4 26 0
 214 00a2 488B45F8 		movq	-8(%rbp), %rax
 215 00a6 C6400C00 		movb	$0, 12(%rax)
  27:RecordingReporter.h ****         lastStartedTest[0] = '\0';
 216              		.loc 4 27 0
 217 00aa 488B45F8 		movq	-8(%rbp), %rax
 218 00ae C6800C01 		movb	$0, 268(%rax)
 218      000000
  28:RecordingReporter.h ****         lastFailedFile[0] = '\0';
 219              		.loc 4 28 0
 220 00b5 488B45F8 		movq	-8(%rbp), %rax
 221 00b9 C6801002 		movb	$0, 528(%rax)
 221      000000
  29:RecordingReporter.h ****         lastFailedSuite[0] = '\0';
 222              		.loc 4 29 0
 223 00c0 488B45F8 		movq	-8(%rbp), %rax
 224 00c4 C6801403 		movb	$0, 788(%rax)
 224      000000
  30:RecordingReporter.h ****         lastFailedTest[0] = '\0';
 225              		.loc 4 30 0
 226 00cb 488B45F8 		movq	-8(%rbp), %rax
 227 00cf C6801404 		movb	$0, 1044(%rax)
 227      000000
  31:RecordingReporter.h ****         lastFailedMessage[0] = '\0';
 228              		.loc 4 31 0
 229 00d6 488B45F8 		movq	-8(%rbp), %rax
 230 00da C6801405 		movb	$0, 1300(%rax)
 230      000000
  32:RecordingReporter.h ****         lastFinishedSuite[0] = '\0';
 231              		.loc 4 32 0
 232 00e1 488B45F8 		movq	-8(%rbp), %rax
 233 00e5 C6801806 		movb	$0, 1560(%rax)
 233      000000
  33:RecordingReporter.h ****         lastFinishedTest[0] = '\0';
 234              		.loc 4 33 0
 235 00ec 488B45F8 		movq	-8(%rbp), %rax
 236 00f0 C6801807 		movb	$0, 1816(%rax)
 236      000000
 237              	.LBE5:
  34:RecordingReporter.h ****     }
 238              		.loc 4 34 0
 239 00f7 C9       		leave
 240              		.cfi_def_cfa 7, 8
 241 00f8 C3       		ret
 242              		.cfi_endproc
 243              	.LFE1023:
 245              		.weak	_ZN17RecordingReporterC1Ev
 246              		.set	_ZN17RecordingReporterC1Ev,_ZN17RecordingReporterC2Ev
 247              		.section	.text._ZN17RecordingReporter15ReportTestStartERKN8UnitTest11TestDetailsE,"axG",@progbits,
 248              		.align 2
 249              		.weak	_ZN17RecordingReporter15ReportTestStartERKN8UnitTest11TestDetailsE
 251              	_ZN17RecordingReporter15ReportTestStartERKN8UnitTest11TestDetailsE:
 252              	.LFB1025:
  35:RecordingReporter.h **** 
  36:RecordingReporter.h ****     virtual void ReportTestStart(UnitTest::TestDetails const& test)
 253              		.loc 4 36 0
 254              		.cfi_startproc
 255 0000 55       		pushq	%rbp
 256              		.cfi_def_cfa_offset 16
 257              		.cfi_offset 6, -16
 258 0001 4889E5   		movq	%rsp, %rbp
 259              		.cfi_def_cfa_register 6
 260 0004 4883EC10 		subq	$16, %rsp
 261 0008 48897DF8 		movq	%rdi, -8(%rbp)
 262 000c 488975F0 		movq	%rsi, -16(%rbp)
 263              	.LBB6:
  37:RecordingReporter.h ****     {
  38:RecordingReporter.h **** 		using namespace std;
  39:RecordingReporter.h **** 
  40:RecordingReporter.h ****         ++testRunCount;
 264              		.loc 4 40 0
 265 0010 488B45F8 		movq	-8(%rbp), %rax
 266 0014 8B4008   		movl	8(%rax), %eax
 267 0017 8D5001   		leal	1(%rax), %edx
 268 001a 488B45F8 		movq	-8(%rbp), %rax
 269 001e 895008   		movl	%edx, 8(%rax)
  41:RecordingReporter.h ****         strcpy(lastStartedSuite, test.suiteName);
 270              		.loc 4 41 0
 271 0021 488B45F0 		movq	-16(%rbp), %rax
 272 0025 488B00   		movq	(%rax), %rax
 273 0028 488B55F8 		movq	-8(%rbp), %rdx
 274 002c 4883C20C 		addq	$12, %rdx
 275 0030 4889C6   		movq	%rax, %rsi
 276 0033 4889D7   		movq	%rdx, %rdi
 277 0036 E8000000 		call	strcpy
 277      00
  42:RecordingReporter.h ****         strcpy(lastStartedTest, test.testName);
 278              		.loc 4 42 0
 279 003b 488B45F0 		movq	-16(%rbp), %rax
 280 003f 488B4008 		movq	8(%rax), %rax
 281 0043 488B55F8 		movq	-8(%rbp), %rdx
 282 0047 4881C20C 		addq	$268, %rdx
 282      010000
 283 004e 4889C6   		movq	%rax, %rsi
 284 0051 4889D7   		movq	%rdx, %rdi
 285 0054 E8000000 		call	strcpy
 285      00
 286              	.LBE6:
  43:RecordingReporter.h ****     }
 287              		.loc 4 43 0
 288 0059 C9       		leave
 289              		.cfi_def_cfa 7, 8
 290 005a C3       		ret
 291              		.cfi_endproc
 292              	.LFE1025:
 294              		.section	.text._ZN17RecordingReporter13ReportFailureERKN8UnitTest11TestDetailsEPKc,"axG",@progbits
 295              		.align 2
 296              		.weak	_ZN17RecordingReporter13ReportFailureERKN8UnitTest11TestDetailsEPKc
 298              	_ZN17RecordingReporter13ReportFailureERKN8UnitTest11TestDetailsEPKc:
 299              	.LFB1026:
  44:RecordingReporter.h **** 
  45:RecordingReporter.h ****     virtual void ReportFailure(UnitTest::TestDetails const& test, char const* failure)
 300              		.loc 4 45 0
 301              		.cfi_startproc
 302 0000 55       		pushq	%rbp
 303              		.cfi_def_cfa_offset 16
 304              		.cfi_offset 6, -16
 305 0001 4889E5   		movq	%rsp, %rbp
 306              		.cfi_def_cfa_register 6
 307 0004 4883EC20 		subq	$32, %rsp
 308 0008 48897DF8 		movq	%rdi, -8(%rbp)
 309 000c 488975F0 		movq	%rsi, -16(%rbp)
 310 0010 488955E8 		movq	%rdx, -24(%rbp)
 311              	.LBB7:
  46:RecordingReporter.h ****     {
  47:RecordingReporter.h **** 		using namespace std;
  48:RecordingReporter.h **** 
  49:RecordingReporter.h **** 		++testFailedCount;
 312              		.loc 4 49 0
 313 0014 488B45F8 		movq	-8(%rbp), %rax
 314 0018 8B800C02 		movl	524(%rax), %eax
 314      0000
 315 001e 8D5001   		leal	1(%rax), %edx
 316 0021 488B45F8 		movq	-8(%rbp), %rax
 317 0025 89900C02 		movl	%edx, 524(%rax)
 317      0000
  50:RecordingReporter.h ****         strcpy(lastFailedFile, test.filename);
 318              		.loc 4 50 0
 319 002b 488B45F0 		movq	-16(%rbp), %rax
 320 002f 488B4010 		movq	16(%rax), %rax
 321 0033 488B55F8 		movq	-8(%rbp), %rdx
 322 0037 4881C210 		addq	$528, %rdx
 322      020000
 323 003e 4889C6   		movq	%rax, %rsi
 324 0041 4889D7   		movq	%rdx, %rdi
 325 0044 E8000000 		call	strcpy
 325      00
  51:RecordingReporter.h ****         lastFailedLine = test.lineNumber;
 326              		.loc 4 51 0
 327 0049 488B45F0 		movq	-16(%rbp), %rax
 328 004d 8B5018   		movl	24(%rax), %edx
 329 0050 488B45F8 		movq	-8(%rbp), %rax
 330 0054 89901003 		movl	%edx, 784(%rax)
 330      0000
  52:RecordingReporter.h ****         strcpy(lastFailedSuite, test.suiteName);
 331              		.loc 4 52 0
 332 005a 488B45F0 		movq	-16(%rbp), %rax
 333 005e 488B00   		movq	(%rax), %rax
 334 0061 488B55F8 		movq	-8(%rbp), %rdx
 335 0065 4881C214 		addq	$788, %rdx
 335      030000
 336 006c 4889C6   		movq	%rax, %rsi
 337 006f 4889D7   		movq	%rdx, %rdi
 338 0072 E8000000 		call	strcpy
 338      00
  53:RecordingReporter.h ****         strcpy(lastFailedTest, test.testName);
 339              		.loc 4 53 0
 340 0077 488B45F0 		movq	-16(%rbp), %rax
 341 007b 488B4008 		movq	8(%rax), %rax
 342 007f 488B55F8 		movq	-8(%rbp), %rdx
 343 0083 4881C214 		addq	$1044, %rdx
 343      040000
 344 008a 4889C6   		movq	%rax, %rsi
 345 008d 4889D7   		movq	%rdx, %rdi
 346 0090 E8000000 		call	strcpy
 346      00
  54:RecordingReporter.h ****         strcpy(lastFailedMessage, failure);
 347              		.loc 4 54 0
 348 0095 488B45F8 		movq	-8(%rbp), %rax
 349 0099 488D9014 		leaq	1300(%rax), %rdx
 349      050000
 350 00a0 488B45E8 		movq	-24(%rbp), %rax
 351 00a4 4889C6   		movq	%rax, %rsi
 352 00a7 4889D7   		movq	%rdx, %rdi
 353 00aa E8000000 		call	strcpy
 353      00
 354              	.LBE7:
  55:RecordingReporter.h ****     }
 355              		.loc 4 55 0
 356 00af C9       		leave
 357              		.cfi_def_cfa 7, 8
 358 00b0 C3       		ret
 359              		.cfi_endproc
 360              	.LFE1026:
 362              		.section	.text._ZN17RecordingReporter16ReportTestFinishERKN8UnitTest11TestDetailsEf,"axG",@progbit
 363              		.align 2
 364              		.weak	_ZN17RecordingReporter16ReportTestFinishERKN8UnitTest11TestDetailsEf
 366              	_ZN17RecordingReporter16ReportTestFinishERKN8UnitTest11TestDetailsEf:
 367              	.LFB1027:
  56:RecordingReporter.h **** 
  57:RecordingReporter.h ****     virtual void ReportTestFinish(UnitTest::TestDetails const& test, float testDuration)
 368              		.loc 4 57 0
 369              		.cfi_startproc
 370 0000 55       		pushq	%rbp
 371              		.cfi_def_cfa_offset 16
 372              		.cfi_offset 6, -16
 373 0001 4889E5   		movq	%rsp, %rbp
 374              		.cfi_def_cfa_register 6
 375 0004 4883EC20 		subq	$32, %rsp
 376 0008 48897DF8 		movq	%rdi, -8(%rbp)
 377 000c 488975F0 		movq	%rsi, -16(%rbp)
 378 0010 F30F1145 		movss	%xmm0, -20(%rbp)
 378      EC
 379              	.LBB8:
  58:RecordingReporter.h ****     {
  59:RecordingReporter.h **** 		using namespace std;
  60:RecordingReporter.h **** 
  61:RecordingReporter.h **** 		++testFinishedCount;
 380              		.loc 4 61 0
 381 0015 488B45F8 		movq	-8(%rbp), %rax
 382 0019 8B801406 		movl	1556(%rax), %eax
 382      0000
 383 001f 8D5001   		leal	1(%rax), %edx
 384 0022 488B45F8 		movq	-8(%rbp), %rax
 385 0026 89901406 		movl	%edx, 1556(%rax)
 385      0000
  62:RecordingReporter.h ****         strcpy(lastFinishedSuite, test.suiteName);
 386              		.loc 4 62 0
 387 002c 488B45F0 		movq	-16(%rbp), %rax
 388 0030 488B00   		movq	(%rax), %rax
 389 0033 488B55F8 		movq	-8(%rbp), %rdx
 390 0037 4881C218 		addq	$1560, %rdx
 390      060000
 391 003e 4889C6   		movq	%rax, %rsi
 392 0041 4889D7   		movq	%rdx, %rdi
 393 0044 E8000000 		call	strcpy
 393      00
  63:RecordingReporter.h ****         strcpy(lastFinishedTest, test.testName);
 394              		.loc 4 63 0
 395 0049 488B45F0 		movq	-16(%rbp), %rax
 396 004d 488B4008 		movq	8(%rax), %rax
 397 0051 488B55F8 		movq	-8(%rbp), %rdx
 398 0055 4881C218 		addq	$1816, %rdx
 398      070000
 399 005c 4889C6   		movq	%rax, %rsi
 400 005f 4889D7   		movq	%rdx, %rdi
 401 0062 E8000000 		call	strcpy
 401      00
  64:RecordingReporter.h ****         lastFinishedTestTime = testDuration;
 402              		.loc 4 64 0
 403 0067 488B55F8 		movq	-8(%rbp), %rdx
 404 006b 8B45EC   		movl	-20(%rbp), %eax
 405 006e 89821808 		movl	%eax, 2072(%rdx)
 405      0000
 406              	.LBE8:
  65:RecordingReporter.h ****     }
 407              		.loc 4 65 0
 408 0074 C9       		leave
 409              		.cfi_def_cfa 7, 8
 410 0075 C3       		ret
 411              		.cfi_endproc
 412              	.LFE1027:
 414              		.section	.text._ZN17RecordingReporter13ReportSummaryEiiif,"axG",@progbits,_ZN17RecordingReporter13
 415              		.align 2
 416              		.weak	_ZN17RecordingReporter13ReportSummaryEiiif
 418              	_ZN17RecordingReporter13ReportSummaryEiiif:
 419              	.LFB1028:
  66:RecordingReporter.h **** 
  67:RecordingReporter.h ****     virtual void ReportSummary(int totalTestCount, int failedTestCount, int failureCount, float sec
 420              		.loc 4 67 0
 421              		.cfi_startproc
 422 0000 55       		pushq	%rbp
 423              		.cfi_def_cfa_offset 16
 424              		.cfi_offset 6, -16
 425 0001 4889E5   		movq	%rsp, %rbp
 426              		.cfi_def_cfa_register 6
 427 0004 48897DF8 		movq	%rdi, -8(%rbp)
 428 0008 8975F4   		movl	%esi, -12(%rbp)
 429 000b 8955F0   		movl	%edx, -16(%rbp)
 430 000e 894DEC   		movl	%ecx, -20(%rbp)
 431 0011 F30F1145 		movss	%xmm0, -24(%rbp)
 431      E8
  68:RecordingReporter.h ****     {
  69:RecordingReporter.h ****         summaryTotalTestCount = totalTestCount;
 432              		.loc 4 69 0
 433 0016 488B45F8 		movq	-8(%rbp), %rax
 434 001a 8B55F4   		movl	-12(%rbp), %edx
 435 001d 89901C08 		movl	%edx, 2076(%rax)
 435      0000
  70:RecordingReporter.h ****         summaryFailedTestCount = failedTestCount;
 436              		.loc 4 70 0
 437 0023 488B45F8 		movq	-8(%rbp), %rax
 438 0027 8B55F0   		movl	-16(%rbp), %edx
 439 002a 89902008 		movl	%edx, 2080(%rax)
 439      0000
  71:RecordingReporter.h ****         summaryFailureCount = failureCount;
 440              		.loc 4 71 0
 441 0030 488B45F8 		movq	-8(%rbp), %rax
 442 0034 8B55EC   		movl	-20(%rbp), %edx
 443 0037 89902408 		movl	%edx, 2084(%rax)
 443      0000
  72:RecordingReporter.h ****         summarySecondsElapsed = secondsElapsed;
 444              		.loc 4 72 0
 445 003d 488B55F8 		movq	-8(%rbp), %rdx
 446 0041 8B45E8   		movl	-24(%rbp), %eax
 447 0044 89822808 		movl	%eax, 2088(%rdx)
 447      0000
  73:RecordingReporter.h ****     }
 448              		.loc 4 73 0
 449 004a 5D       		popq	%rbp
 450              		.cfi_def_cfa 7, 8
 451 004b C3       		ret
 452              		.cfi_endproc
 453              	.LFE1028:
 455              		.section	.rodata
 456              	.LC2:
 457 000d 54657374 		.string	"TestChecks.cpp"
 457      43686563 
 457      6B732E63 
 457      707000
 458              	.LC3:
 459 001c 43686563 		.string	"CheckEqualWithUnsignedLong"
 459      6B457175 
 459      616C5769 
 459      7468556E 
 459      7369676E 
 460              		.text
 461              		.align 2
 463              	_ZN12_GLOBAL__N_130TestCheckEqualWithUnsignedLongC2Ev:
 464              	.LFB1030:
 465              		.file 5 "TestChecks.cpp"
   1:TestChecks.cpp **** #include "../UnitTest++.h"
   2:TestChecks.cpp **** #include "RecordingReporter.h"
   3:TestChecks.cpp **** 
   4:TestChecks.cpp **** using namespace UnitTest;
   5:TestChecks.cpp **** 
   6:TestChecks.cpp **** 
   7:TestChecks.cpp **** namespace {
   8:TestChecks.cpp **** 
   9:TestChecks.cpp **** 
  10:TestChecks.cpp **** TEST(CheckEqualWithUnsignedLong)
 466              		.loc 5 10 0
 467              		.cfi_startproc
 468 0000 55       		pushq	%rbp
 469              		.cfi_def_cfa_offset 16
 470              		.cfi_offset 6, -16
 471 0001 4889E5   		movq	%rsp, %rbp
 472              		.cfi_def_cfa_register 6
 473 0004 4883EC10 		subq	$16, %rsp
 474 0008 48897DF8 		movq	%rdi, -8(%rbp)
 475              	.LBB9:
 476              		.loc 5 10 0
 477 000c E8000000 		call	_ZN13UnitTestSuite12GetSuiteNameEv
 477      00
 478 0011 4889C2   		movq	%rax, %rdx
 479 0014 488B45F8 		movq	-8(%rbp), %rax
 480 0018 41B80A00 		movl	$10, %r8d
 480      0000
 481 001e B9000000 		movl	$.LC2, %ecx
 481      00
 482 0023 BE000000 		movl	$.LC3, %esi
 482      00
 483 0028 4889C7   		movq	%rax, %rdi
 484 002b E8000000 		call	_ZN8UnitTest4TestC2EPKcS2_S2_i
 484      00
 485 0030 488B45F8 		movq	-8(%rbp), %rax
 486 0034 48C70000 		movq	$_ZTVN12_GLOBAL__N_130TestCheckEqualWithUnsignedLongE+16, (%rax)
 486      000000
 487              	.LBE9:
 488 003b C9       		leave
 489              		.cfi_def_cfa 7, 8
 490 003c C3       		ret
 491              		.cfi_endproc
 492              	.LFE1030:
 494              		.set	_ZN12_GLOBAL__N_130TestCheckEqualWithUnsignedLongC1Ev,_ZN12_GLOBAL__N_130TestCheckEqualWithUn
 495              		.local	_ZN12_GLOBAL__N_138testCheckEqualWithUnsignedLongInstanceE
 496              		.comm	_ZN12_GLOBAL__N_138testCheckEqualWithUnsignedLongInstanceE,56,32
 497              		.local	_ZN12_GLOBAL__N_131adderCheckEqualWithUnsignedLongE
 498              		.comm	_ZN12_GLOBAL__N_131adderCheckEqualWithUnsignedLongE,1,1
 499              		.section	.rodata
 500 0037 00       		.align 8
 501              	.LC4:
 502 0038 556E6861 		.string	"Unhandled exception in CHECK_EQUAL(something, something)"
 502      6E646C65 
 502      64206578 
 502      63657074 
 502      696F6E20 
 503              		.text
 504 003d 90       		.align 2
 506              	_ZNK12_GLOBAL__N_130TestCheckEqualWithUnsignedLong7RunImplEv:
 507              	.LFB1032:
  11:TestChecks.cpp **** {
 508              		.loc 5 11 0
 509              		.cfi_startproc
 510              		.cfi_personality 0x3,__gxx_personality_v0
 511              		.cfi_lsda 0x3,.LLSDA1032
 512 003e 55       		pushq	%rbp
 513              		.cfi_def_cfa_offset 16
 514              		.cfi_offset 6, -16
 515 003f 4889E5   		movq	%rsp, %rbp
 516              		.cfi_def_cfa_register 6
 517 0042 53       		pushq	%rbx
 518 0043 4883EC68 		subq	$104, %rsp
 519              		.cfi_offset 3, -24
 520 0047 48897D98 		movq	%rdi, -104(%rbp)
 521              	.LBB10:
  12:TestChecks.cpp ****     TestResults results;
 522              		.loc 5 12 0
 523 004b 488D45B0 		leaq	-80(%rbp), %rax
 524 004f BE000000 		movl	$0, %esi
 524      00
 525 0054 4889C7   		movq	%rax, %rdi
 526              	.LEHB4:
 527 0057 E8000000 		call	_ZN8UnitTest11TestResultsC1EPNS_12TestReporterE
 527      00
 528              	.LEHE4:
  13:TestChecks.cpp ****     unsigned long something = 2;
 529              		.loc 5 13 0
 530 005c 48C745A8 		movq	$2, -88(%rbp)
 530      02000000 
 531              	.LEHB5:
  14:TestChecks.cpp ****     CHECK_EQUAL(something, something);
 532              		.loc 5 14 0
 533 0064 E8000000 		call	_ZN8UnitTest11CurrentTest7DetailsEv
 533      00
 534 0069 488B08   		movq	(%rax), %rcx
 535 006c 488D45D0 		leaq	-48(%rbp), %rax
 536 0070 BA0E0000 		movl	$14, %edx
 536      00
 537 0075 4889CE   		movq	%rcx, %rsi
 538 0078 4889C7   		movq	%rax, %rdi
 539 007b E8000000 		call	_ZN8UnitTest11TestDetailsC1ERKS0_i
 539      00
 540              		.loc 5 14 0 is_stmt 0 discriminator 1
 541 0080 E8000000 		call	_ZN8UnitTest11CurrentTest7ResultsEv
 541      00
 542 0085 488B00   		movq	(%rax), %rax
 543 0088 488D4DD0 		leaq	-48(%rbp), %rcx
 544 008c 488D55A8 		leaq	-88(%rbp), %rdx
 545 0090 488D75A8 		leaq	-88(%rbp), %rsi
 546 0094 4889C7   		movq	%rax, %rdi
 547 0097 E8000000 		call	_ZN8UnitTest10CheckEqualImmEEvRNS_11TestResultsERKT_RKT0_RKNS_11TestDetailsE
 547      00
 548              	.LEHE5:
 549              	.LBE10:
  15:TestChecks.cpp **** }
 550              		.loc 5 15 0 is_stmt 1
 551 009c EB58     		jmp	.L22
 552              	.L21:
 553 009e 4889C3   		movq	%rax, %rbx
 554              	.LBB11:
  14:TestChecks.cpp ****     CHECK_EQUAL(something, something);
 555              		.loc 5 14 0
 556 00a1 E8000000 		call	__cxa_end_catch
 556      00
 557 00a6 4889D8   		movq	%rbx, %rax
 558 00a9 4889C7   		movq	%rax, %rdi
 559              	.LEHB6:
 560 00ac E8000000 		call	_Unwind_Resume
 560      00
 561              	.LEHE6:
 562              	.L20:
 563 00b1 4889C7   		movq	%rax, %rdi
 564 00b4 E8000000 		call	__cxa_begin_catch
 564      00
 565              	.LEHB7:
 566 00b9 E8000000 		call	_ZN8UnitTest11CurrentTest7DetailsEv
 566      00
 567 00be 488B08   		movq	(%rax), %rcx
 568 00c1 488D45D0 		leaq	-48(%rbp), %rax
 569 00c5 BA0E0000 		movl	$14, %edx
 569      00
 570 00ca 4889CE   		movq	%rcx, %rsi
 571 00cd 4889C7   		movq	%rax, %rdi
 572 00d0 E8000000 		call	_ZN8UnitTest11TestDetailsC1ERKS0_i
 572      00
  14:TestChecks.cpp ****     CHECK_EQUAL(something, something);
 573              		.loc 5 14 0 is_stmt 0 discriminator 1
 574 00d5 E8000000 		call	_ZN8UnitTest11CurrentTest7ResultsEv
 574      00
 575 00da 488B00   		movq	(%rax), %rax
 576 00dd 488D4DD0 		leaq	-48(%rbp), %rcx
 577 00e1 BA000000 		movl	$.LC4, %edx
 577      00
 578 00e6 4889CE   		movq	%rcx, %rsi
 579 00e9 4889C7   		movq	%rax, %rdi
 580 00ec E8000000 		call	_ZN8UnitTest11TestResults13OnTestFailureERKNS_11TestDetailsEPKc
 580      00
 581              	.LEHE7:
 582              	.LEHB8:
 583 00f1 E8000000 		call	__cxa_end_catch
 583      00
 584              	.LEHE8:
 585              	.L22:
 586              	.LBE11:
 587              		.loc 5 15 0 is_stmt 1
 588 00f6 90       		nop
 589 00f7 4883C468 		addq	$104, %rsp
 590 00fb 5B       		popq	%rbx
 591 00fc 5D       		popq	%rbp
 592              		.cfi_def_cfa 7, 8
 593 00fd C3       		ret
 594              		.cfi_endproc
 595              	.LFE1032:
 596              		.section	.gcc_except_table,"a",@progbits
 597              		.align 4
 598              	.LLSDA1032:
 599 0000 FF       		.byte	0xff
 600 0001 03       		.byte	0x3
 601 0002 1D       		.uleb128 .LLSDATT1032-.LLSDATTD1032
 602              	.LLSDATTD1032:
 603 0003 01       		.byte	0x1
 604 0004 15       		.uleb128 .LLSDACSE1032-.LLSDACSB1032
 605              	.LLSDACSB1032:
 606 0005 19       		.uleb128 .LEHB4-.LFB1032
 607 0006 05       		.uleb128 .LEHE4-.LEHB4
 608 0007 00       		.uleb128 0
 609 0008 00       		.uleb128 0
 610 0009 26       		.uleb128 .LEHB5-.LFB1032
 611 000a 38       		.uleb128 .LEHE5-.LEHB5
 612 000b 73       		.uleb128 .L20-.LFB1032
 613 000c 01       		.uleb128 0x1
 614 000d 6E       		.uleb128 .LEHB6-.LFB1032
 615 000e 05       		.uleb128 .LEHE6-.LEHB6
 616 000f 00       		.uleb128 0
 617 0010 00       		.uleb128 0
 618 0011 7B       		.uleb128 .LEHB7-.LFB1032
 619 0012 38       		.uleb128 .LEHE7-.LEHB7
 620 0013 60       		.uleb128 .L21-.LFB1032
 621 0014 00       		.uleb128 0
 622 0015 B301     		.uleb128 .LEHB8-.LFB1032
 623 0017 05       		.uleb128 .LEHE8-.LEHB8
 624 0018 00       		.uleb128 0
 625 0019 00       		.uleb128 0
 626              	.LLSDACSE1032:
 627 001a 01       		.byte	0x1
 628 001b 00       		.byte	0
 629              		.align 4
 630 001c 00000000 		.long	0
 631              	
 632              	.LLSDATT1032:
 633              		.text
 635              		.section	.rodata
 636 0071 00000000 		.align 8
 636      000000
 637              	.LC5:
 638 0078 43686563 		.string	"CheckEqualsWithStringsFailsOnDifferentStrings"
 638      6B457175 
 638      616C7357 
 638      69746853 
 638      7472696E 
 639              		.text
 640              		.align 2
 642              	_ZN12_GLOBAL__N_149TestCheckEqualsWithStringsFailsOnDifferentStringsC2Ev:
 643              	.LFB1034:
  16:TestChecks.cpp **** 
  17:TestChecks.cpp **** TEST(CheckEqualsWithStringsFailsOnDifferentStrings)
 644              		.loc 5 17 0
 645              		.cfi_startproc
 646 00fe 55       		pushq	%rbp
 647              		.cfi_def_cfa_offset 16
 648              		.cfi_offset 6, -16
 649 00ff 4889E5   		movq	%rsp, %rbp
 650              		.cfi_def_cfa_register 6
 651 0102 4883EC10 		subq	$16, %rsp
 652 0106 48897DF8 		movq	%rdi, -8(%rbp)
 653              	.LBB12:
 654              		.loc 5 17 0
 655 010a E8000000 		call	_ZN13UnitTestSuite12GetSuiteNameEv
 655      00
 656 010f 4889C2   		movq	%rax, %rdx
 657 0112 488B45F8 		movq	-8(%rbp), %rax
 658 0116 41B81100 		movl	$17, %r8d
 658      0000
 659 011c B9000000 		movl	$.LC2, %ecx
 659      00
 660 0121 BE000000 		movl	$.LC5, %esi
 660      00
 661 0126 4889C7   		movq	%rax, %rdi
 662 0129 E8000000 		call	_ZN8UnitTest4TestC2EPKcS2_S2_i
 662      00
 663 012e 488B45F8 		movq	-8(%rbp), %rax
 664 0132 48C70000 		movq	$_ZTVN12_GLOBAL__N_149TestCheckEqualsWithStringsFailsOnDifferentStringsE+16, (%rax)
 664      000000
 665              	.LBE12:
 666 0139 C9       		leave
 667              		.cfi_def_cfa 7, 8
 668 013a C3       		ret
 669              		.cfi_endproc
 670              	.LFE1034:
 672              		.set	_ZN12_GLOBAL__N_149TestCheckEqualsWithStringsFailsOnDifferentStringsC1Ev,_ZN12_GLOBAL__N_149T
 673              		.local	_ZN12_GLOBAL__N_157testCheckEqualsWithStringsFailsOnDifferentStringsInstanceE
 674              		.comm	_ZN12_GLOBAL__N_157testCheckEqualsWithStringsFailsOnDifferentStringsInstanceE,56,32
 675              		.local	_ZN12_GLOBAL__N_150adderCheckEqualsWithStringsFailsOnDifferentStringsE
 676              		.comm	_ZN12_GLOBAL__N_150adderCheckEqualsWithStringsFailsOnDifferentStringsE,1,1
 677              		.section	.rodata
 678              	.LC6:
 679 00a6 00       		.string	""
 680 00a7 00       		.align 8
 681              	.LC7:
 682 00a8 556E6861 		.string	"Unhandled exception in CHECK_EQUAL(1, results.GetFailureCount())"
 682      6E646C65 
 682      64206578 
 682      63657074 
 682      696F6E20 
 683              		.text
 684 013b 90       		.align 2
 686              	_ZNK12_GLOBAL__N_149TestCheckEqualsWithStringsFailsOnDifferentStrings7RunImplEv:
 687              	.LFB1036:
  18:TestChecks.cpp **** {
 688              		.loc 5 18 0
 689              		.cfi_startproc
 690              		.cfi_personality 0x3,__gxx_personality_v0
 691              		.cfi_lsda 0x3,.LLSDA1036
 692 013c 55       		pushq	%rbp
 693              		.cfi_def_cfa_offset 16
 694              		.cfi_offset 6, -16
 695 013d 4889E5   		movq	%rsp, %rbp
 696              		.cfi_def_cfa_register 6
 697 0140 53       		pushq	%rbx
 698 0141 4881EC88 		subq	$136, %rsp
 698      000000
 699              		.cfi_offset 3, -24
 700 0148 4889BD78 		movq	%rdi, -136(%rbp)
 700      FFFFFF
 701              		.loc 5 18 0
 702 014f 64488B04 		movq	%fs:40, %rax
 702      25280000 
 702      00
 703 0158 488945E8 		movq	%rax, -24(%rbp)
 704 015c 31C0     		xorl	%eax, %eax
 705              	.LBB13:
  19:TestChecks.cpp ****     char txt1[] = "Hello";
 706              		.loc 5 19 0
 707 015e C745D048 		movl	$1819043144, -48(%rbp)
 707      656C6C
 708 0165 66C745D4 		movw	$111, -44(%rbp)
 708      6F00
  20:TestChecks.cpp ****     char txt2[] = "Hallo";
 709              		.loc 5 20 0
 710 016b C745E048 		movl	$1819042120, -32(%rbp)
 710      616C6C
 711 0172 66C745E4 		movw	$111, -28(%rbp)
 711      6F00
  21:TestChecks.cpp ****     TestResults results;
 712              		.loc 5 21 0
 713 0178 488D4590 		leaq	-112(%rbp), %rax
 714 017c BE000000 		movl	$0, %esi
 714      00
 715 0181 4889C7   		movq	%rax, %rdi
 716              	.LEHB9:
 717 0184 E8000000 		call	_ZN8UnitTest11TestResultsC1EPNS_12TestReporterE
 717      00
  22:TestChecks.cpp ****     CheckEqual(results, txt1, txt2, TestDetails("", "", "", 0));
 718              		.loc 5 22 0
 719 0189 488D45B0 		leaq	-80(%rbp), %rax
 720 018d 41B80000 		movl	$0, %r8d
 720      0000
 721 0193 B9000000 		movl	$.LC6, %ecx
 721      00
 722 0198 BA000000 		movl	$.LC6, %edx
 722      00
 723 019d BE000000 		movl	$.LC6, %esi
 723      00
 724 01a2 4889C7   		movq	%rax, %rdi
 725 01a5 E8000000 		call	_ZN8UnitTest11TestDetailsC1EPKcS2_S2_i
 725      00
 726 01aa 488D4DB0 		leaq	-80(%rbp), %rcx
 727 01ae 488D55E0 		leaq	-32(%rbp), %rdx
 728 01b2 488D75D0 		leaq	-48(%rbp), %rsi
 729 01b6 488D4590 		leaq	-112(%rbp), %rax
 730 01ba 4889C7   		movq	%rax, %rdi
 731 01bd E8000000 		call	_ZN8UnitTest10CheckEqualERNS_11TestResultsEPcS2_RKNS_11TestDetailsE
 731      00
 732              	.LEHE9:
 733              	.LEHB10:
  23:TestChecks.cpp ****     CHECK_EQUAL(1, results.GetFailureCount());
 734              		.loc 5 23 0
 735 01c2 E8000000 		call	_ZN8UnitTest11CurrentTest7DetailsEv
 735      00
 736 01c7 488B08   		movq	(%rax), %rcx
 737 01ca 488D45B0 		leaq	-80(%rbp), %rax
 738 01ce BA170000 		movl	$23, %edx
 738      00
 739 01d3 4889CE   		movq	%rcx, %rsi
 740 01d6 4889C7   		movq	%rax, %rdi
 741 01d9 E8000000 		call	_ZN8UnitTest11TestDetailsC1ERKS0_i
 741      00
 742              		.loc 5 23 0 is_stmt 0 discriminator 1
 743 01de 488D4590 		leaq	-112(%rbp), %rax
 744 01e2 4889C7   		movq	%rax, %rdi
 745 01e5 E8000000 		call	_ZNK8UnitTest11TestResults15GetFailureCountEv
 745      00
 746 01ea 89458C   		movl	%eax, -116(%rbp)
 747 01ed C7458801 		movl	$1, -120(%rbp)
 747      000000
 748 01f4 E8000000 		call	_ZN8UnitTest11CurrentTest7ResultsEv
 748      00
 749 01f9 488B00   		movq	(%rax), %rax
 750 01fc 488D4DB0 		leaq	-80(%rbp), %rcx
 751 0200 488D558C 		leaq	-116(%rbp), %rdx
 752 0204 488D7588 		leaq	-120(%rbp), %rsi
 753 0208 4889C7   		movq	%rax, %rdi
 754 020b E8000000 		call	_ZN8UnitTest10CheckEqualIiiEEvRNS_11TestResultsERKT_RKT0_RKNS_11TestDetailsE
 754      00
 755              	.LEHE10:
 756              	.LBE13:
  24:TestChecks.cpp **** }
 757              		.loc 5 24 0 is_stmt 1
 758 0210 EB58     		jmp	.L31
 759              	.L30:
 760 0212 4889C3   		movq	%rax, %rbx
 761              	.LBB14:
  23:TestChecks.cpp ****     CHECK_EQUAL(1, results.GetFailureCount());
 762              		.loc 5 23 0
 763 0215 E8000000 		call	__cxa_end_catch
 763      00
 764 021a 4889D8   		movq	%rbx, %rax
 765 021d 4889C7   		movq	%rax, %rdi
 766              	.LEHB11:
 767 0220 E8000000 		call	_Unwind_Resume
 767      00
 768              	.LEHE11:
 769              	.L29:
 770 0225 4889C7   		movq	%rax, %rdi
 771 0228 E8000000 		call	__cxa_begin_catch
 771      00
 772              	.LEHB12:
 773 022d E8000000 		call	_ZN8UnitTest11CurrentTest7DetailsEv
 773      00
 774 0232 488B08   		movq	(%rax), %rcx
 775 0235 488D45B0 		leaq	-80(%rbp), %rax
 776 0239 BA170000 		movl	$23, %edx
 776      00
 777 023e 4889CE   		movq	%rcx, %rsi
 778 0241 4889C7   		movq	%rax, %rdi
 779 0244 E8000000 		call	_ZN8UnitTest11TestDetailsC1ERKS0_i
 779      00
  23:TestChecks.cpp ****     CHECK_EQUAL(1, results.GetFailureCount());
 780              		.loc 5 23 0 is_stmt 0 discriminator 1
 781 0249 E8000000 		call	_ZN8UnitTest11CurrentTest7ResultsEv
 781      00
 782 024e 488B00   		movq	(%rax), %rax
 783 0251 488D4DB0 		leaq	-80(%rbp), %rcx
 784 0255 BA000000 		movl	$.LC7, %edx
 784      00
 785 025a 4889CE   		movq	%rcx, %rsi
 786 025d 4889C7   		movq	%rax, %rdi
 787 0260 E8000000 		call	_ZN8UnitTest11TestResults13OnTestFailureERKNS_11TestDetailsEPKc
 787      00
 788              	.LEHE12:
 789              	.LEHB13:
 790 0265 E8000000 		call	__cxa_end_catch
 790      00
 791              	.LEHE13:
 792              	.L31:
 793              	.LBE14:
 794              		.loc 5 24 0 is_stmt 1
 795 026a 90       		nop
 796 026b 488B45E8 		movq	-24(%rbp), %rax
 797 026f 64483304 		xorq	%fs:40, %rax
 797      25280000 
 797      00
 798 0278 7405     		je	.L28
 799 027a E8000000 		call	__stack_chk_fail
 799      00
 800              	.L28:
 801 027f 4881C488 		addq	$136, %rsp
 801      000000
 802 0286 5B       		popq	%rbx
 803 0287 5D       		popq	%rbp
 804              		.cfi_def_cfa 7, 8
 805 0288 C3       		ret
 806              		.cfi_endproc
 807              	.LFE1036:
 808              		.section	.gcc_except_table
 809              		.align 4
 810              	.LLSDA1036:
 811 0020 FF       		.byte	0xff
 812 0021 03       		.byte	0x3
 813 0022 25       		.uleb128 .LLSDATT1036-.LLSDATTD1036
 814              	.LLSDATTD1036:
 815 0023 01       		.byte	0x1
 816 0024 1A       		.uleb128 .LLSDACSE1036-.LLSDACSB1036
 817              	.LLSDACSB1036:
 818 0025 48       		.uleb128 .LEHB9-.LFB1036
 819 0026 3E       		.uleb128 .LEHE9-.LEHB9
 820 0027 00       		.uleb128 0
 821 0028 00       		.uleb128 0
 822 0029 8601     		.uleb128 .LEHB10-.LFB1036
 823 002b 4E       		.uleb128 .LEHE10-.LEHB10
 824 002c E901     		.uleb128 .L29-.LFB1036
 825 002e 01       		.uleb128 0x1
 826 002f E401     		.uleb128 .LEHB11-.LFB1036
 827 0031 05       		.uleb128 .LEHE11-.LEHB11
 828 0032 00       		.uleb128 0
 829 0033 00       		.uleb128 0
 830 0034 F101     		.uleb128 .LEHB12-.LFB1036
 831 0036 38       		.uleb128 .LEHE12-.LEHB12
 832 0037 D601     		.uleb128 .L30-.LFB1036
 833 0039 00       		.uleb128 0
 834 003a A902     		.uleb128 .LEHB13-.LFB1036
 835 003c 05       		.uleb128 .LEHE13-.LEHB13
 836 003d 00       		.uleb128 0
 837 003e 00       		.uleb128 0
 838              	.LLSDACSE1036:
 839 003f 01       		.byte	0x1
 840 0040 00       		.byte	0
 841 0041 000000   		.align 4
 842 0044 00000000 		.long	0
 843              	
 844              	.LLSDATT1036:
 845              		.text
 847              		.data
 850              	_ZN12_GLOBAL__N_14txt1E:
 851 0000 48656C6C 		.string	"Hello"
 851      6F00
 854              	_ZN12_GLOBAL__N_14txt2E:
 855 0006 48656C6C 		.string	"Hello"
 855      6F00
 856              		.section	.rodata
 857 00e9 00000000 		.align 8
 857      000000
 858              	.LC8:
 859 00f0 43686563 		.string	"CheckEqualsWithStringsWorksOnContentsNonConstNonConst"
 859      6B457175 
 859      616C7357 
 859      69746853 
 859      7472696E 
 860              		.text
 861 0289 90       		.align 2
 863              	_ZN12_GLOBAL__N_157TestCheckEqualsWithStringsWorksOnContentsNonConstNonConstC2Ev:
 864              	.LFB1038:
  25:TestChecks.cpp **** 
  26:TestChecks.cpp **** char txt1[] = "Hello"; // non-const on purpose so no folding of duplicate data
  27:TestChecks.cpp **** char txt2[] = "Hello";
  28:TestChecks.cpp **** 
  29:TestChecks.cpp **** TEST(CheckEqualsWithStringsWorksOnContentsNonConstNonConst)
 865              		.loc 5 29 0
 866              		.cfi_startproc
 867 028a 55       		pushq	%rbp
 868              		.cfi_def_cfa_offset 16
 869              		.cfi_offset 6, -16
 870 028b 4889E5   		movq	%rsp, %rbp
 871              		.cfi_def_cfa_register 6
 872 028e 4883EC10 		subq	$16, %rsp
 873 0292 48897DF8 		movq	%rdi, -8(%rbp)
 874              	.LBB15:
 875              		.loc 5 29 0
 876 0296 E8000000 		call	_ZN13UnitTestSuite12GetSuiteNameEv
 876      00
 877 029b 4889C2   		movq	%rax, %rdx
 878 029e 488B45F8 		movq	-8(%rbp), %rax
 879 02a2 41B81D00 		movl	$29, %r8d
 879      0000
 880 02a8 B9000000 		movl	$.LC2, %ecx
 880      00
 881 02ad BE000000 		movl	$.LC8, %esi
 881      00
 882 02b2 4889C7   		movq	%rax, %rdi
 883 02b5 E8000000 		call	_ZN8UnitTest4TestC2EPKcS2_S2_i
 883      00
 884 02ba 488B45F8 		movq	-8(%rbp), %rax
 885 02be 48C70000 		movq	$_ZTVN12_GLOBAL__N_157TestCheckEqualsWithStringsWorksOnContentsNonConstNonConstE+16, (%rax)
 885      000000
 886              	.LBE15:
 887 02c5 C9       		leave
 888              		.cfi_def_cfa 7, 8
 889 02c6 C3       		ret
 890              		.cfi_endproc
 891              	.LFE1038:
 893              		.set	_ZN12_GLOBAL__N_157TestCheckEqualsWithStringsWorksOnContentsNonConstNonConstC1Ev,_ZN12_GLOBAL
 894              		.local	_ZN12_GLOBAL__N_165testCheckEqualsWithStringsWorksOnContentsNonConstNonConstInstanceE
 895              		.comm	_ZN12_GLOBAL__N_165testCheckEqualsWithStringsWorksOnContentsNonConstNonConstInstanceE,56,32
 896              		.local	_ZN12_GLOBAL__N_158adderCheckEqualsWithStringsWorksOnContentsNonConstNonConstE
 897              		.comm	_ZN12_GLOBAL__N_158adderCheckEqualsWithStringsWorksOnContentsNonConstNonConstE,1,1
 898              		.section	.rodata
 899 0126 0000     		.align 8
 900              	.LC9:
 901 0128 556E6861 		.string	"Unhandled exception in CHECK_EQUAL(0, results.GetFailureCount())"
 901      6E646C65 
 901      64206578 
 901      63657074 
 901      696F6E20 
 902              		.text
 903 02c7 90       		.align 2
 905              	_ZNK12_GLOBAL__N_157TestCheckEqualsWithStringsWorksOnContentsNonConstNonConst7RunImplEv:
 906              	.LFB1040:
  30:TestChecks.cpp **** {
 907              		.loc 5 30 0
 908              		.cfi_startproc
 909              		.cfi_personality 0x3,__gxx_personality_v0
 910              		.cfi_lsda 0x3,.LLSDA1040
 911 02c8 55       		pushq	%rbp
 912              		.cfi_def_cfa_offset 16
 913              		.cfi_offset 6, -16
 914 02c9 4889E5   		movq	%rsp, %rbp
 915              		.cfi_def_cfa_register 6
 916 02cc 53       		pushq	%rbx
 917 02cd 4883EC78 		subq	$120, %rsp
 918              		.cfi_offset 3, -24
 919 02d1 48897D88 		movq	%rdi, -120(%rbp)
 920              	.LBB16:
  31:TestChecks.cpp ****     char const* const p1 = txt1;
 921              		.loc 5 31 0
 922 02d5 48C745A0 		movq	$_ZN12_GLOBAL__N_14txt1E, -96(%rbp)
 922      00000000 
  32:TestChecks.cpp ****     char const* const p2 = txt2;
 923              		.loc 5 32 0
 924 02dd 48C745A8 		movq	$_ZN12_GLOBAL__N_14txt2E, -88(%rbp)
 924      00000000 
  33:TestChecks.cpp ****     TestResults results;
 925              		.loc 5 33 0
 926 02e5 488D45B0 		leaq	-80(%rbp), %rax
 927 02e9 BE000000 		movl	$0, %esi
 927      00
 928 02ee 4889C7   		movq	%rax, %rdi
 929              	.LEHB14:
 930 02f1 E8000000 		call	_ZN8UnitTest11TestResultsC1EPNS_12TestReporterE
 930      00
  34:TestChecks.cpp ****     CheckEqual(results, p1, p2, TestDetails("", "", "", 0));
 931              		.loc 5 34 0
 932 02f6 488D45D0 		leaq	-48(%rbp), %rax
 933 02fa 41B80000 		movl	$0, %r8d
 933      0000
 934 0300 B9000000 		movl	$.LC6, %ecx
 934      00
 935 0305 BA000000 		movl	$.LC6, %edx
 935      00
 936 030a BE000000 		movl	$.LC6, %esi
 936      00
 937 030f 4889C7   		movq	%rax, %rdi
 938 0312 E8000000 		call	_ZN8UnitTest11TestDetailsC1EPKcS2_S2_i
 938      00
 939 0317 488D55D0 		leaq	-48(%rbp), %rdx
 940 031b 488D45B0 		leaq	-80(%rbp), %rax
 941 031f 4889D1   		movq	%rdx, %rcx
 942 0322 BA000000 		movl	$_ZN12_GLOBAL__N_14txt2E, %edx
 942      00
 943 0327 BE000000 		movl	$_ZN12_GLOBAL__N_14txt1E, %esi
 943      00
 944 032c 4889C7   		movq	%rax, %rdi
 945 032f E8000000 		call	_ZN8UnitTest10CheckEqualERNS_11TestResultsEPKcS3_RKNS_11TestDetailsE
 945      00
 946              	.LEHE14:
 947              	.LEHB15:
  35:TestChecks.cpp ****     CHECK_EQUAL(0, results.GetFailureCount());
 948              		.loc 5 35 0
 949 0334 E8000000 		call	_ZN8UnitTest11CurrentTest7DetailsEv
 949      00
 950 0339 488B08   		movq	(%rax), %rcx
 951 033c 488D45D0 		leaq	-48(%rbp), %rax
 952 0340 BA230000 		movl	$35, %edx
 952      00
 953 0345 4889CE   		movq	%rcx, %rsi
 954 0348 4889C7   		movq	%rax, %rdi
 955 034b E8000000 		call	_ZN8UnitTest11TestDetailsC1ERKS0_i
 955      00
 956              		.loc 5 35 0 is_stmt 0 discriminator 1
 957 0350 488D45B0 		leaq	-80(%rbp), %rax
 958 0354 4889C7   		movq	%rax, %rdi
 959 0357 E8000000 		call	_ZNK8UnitTest11TestResults15GetFailureCountEv
 959      00
 960 035c 89459C   		movl	%eax, -100(%rbp)
 961 035f C7459800 		movl	$0, -104(%rbp)
 961      000000
 962 0366 E8000000 		call	_ZN8UnitTest11CurrentTest7ResultsEv
 962      00
 963 036b 488B00   		movq	(%rax), %rax
 964 036e 488D4DD0 		leaq	-48(%rbp), %rcx
 965 0372 488D559C 		leaq	-100(%rbp), %rdx
 966 0376 488D7598 		leaq	-104(%rbp), %rsi
 967 037a 4889C7   		movq	%rax, %rdi
 968 037d E8000000 		call	_ZN8UnitTest10CheckEqualIiiEEvRNS_11TestResultsERKT_RKT0_RKNS_11TestDetailsE
 968      00
 969              	.LEHE15:
 970              	.LBE16:
  36:TestChecks.cpp **** }
 971              		.loc 5 36 0 is_stmt 1
 972 0382 EB58     		jmp	.L39
 973              	.L38:
 974 0384 4889C3   		movq	%rax, %rbx
 975              	.LBB17:
  35:TestChecks.cpp ****     CHECK_EQUAL(0, results.GetFailureCount());
 976              		.loc 5 35 0
 977 0387 E8000000 		call	__cxa_end_catch
 977      00
 978 038c 4889D8   		movq	%rbx, %rax
 979 038f 4889C7   		movq	%rax, %rdi
 980              	.LEHB16:
 981 0392 E8000000 		call	_Unwind_Resume
 981      00
 982              	.LEHE16:
 983              	.L37:
 984 0397 4889C7   		movq	%rax, %rdi
 985 039a E8000000 		call	__cxa_begin_catch
 985      00
 986              	.LEHB17:
 987 039f E8000000 		call	_ZN8UnitTest11CurrentTest7DetailsEv
 987      00
 988 03a4 488B08   		movq	(%rax), %rcx
 989 03a7 488D45D0 		leaq	-48(%rbp), %rax
 990 03ab BA230000 		movl	$35, %edx
 990      00
 991 03b0 4889CE   		movq	%rcx, %rsi
 992 03b3 4889C7   		movq	%rax, %rdi
 993 03b6 E8000000 		call	_ZN8UnitTest11TestDetailsC1ERKS0_i
 993      00
  35:TestChecks.cpp ****     CHECK_EQUAL(0, results.GetFailureCount());
 994              		.loc 5 35 0 is_stmt 0 discriminator 1
 995 03bb E8000000 		call	_ZN8UnitTest11CurrentTest7ResultsEv
 995      00
 996 03c0 488B00   		movq	(%rax), %rax
 997 03c3 488D4DD0 		leaq	-48(%rbp), %rcx
 998 03c7 BA000000 		movl	$.LC9, %edx
 998      00
 999 03cc 4889CE   		movq	%rcx, %rsi
 1000 03cf 4889C7   		movq	%rax, %rdi
 1001 03d2 E8000000 		call	_ZN8UnitTest11TestResults13OnTestFailureERKNS_11TestDetailsEPKc
 1001      00
 1002              	.LEHE17:
 1003              	.LEHB18:
 1004 03d7 E8000000 		call	__cxa_end_catch
 1004      00
 1005              	.LEHE18:
 1006              	.L39:
 1007              	.LBE17:
 1008              		.loc 5 36 0 is_stmt 1
 1009 03dc 90       		nop
 1010 03dd 4883C478 		addq	$120, %rsp
 1011 03e1 5B       		popq	%rbx
 1012 03e2 5D       		popq	%rbp
 1013              		.cfi_def_cfa 7, 8
 1014 03e3 C3       		ret
 1015              		.cfi_endproc
 1016              	.LFE1040:
 1017              		.section	.gcc_except_table
 1018              		.align 4
 1019              	.LLSDA1040:
 1020 0048 FF       		.byte	0xff
 1021 0049 03       		.byte	0x3
 1022 004a 21       		.uleb128 .LLSDATT1040-.LLSDATTD1040
 1023              	.LLSDATTD1040:
 1024 004b 01       		.byte	0x1
 1025 004c 19       		.uleb128 .LLSDACSE1040-.LLSDACSB1040
 1026              	.LLSDACSB1040:
 1027 004d 29       		.uleb128 .LEHB14-.LFB1040
 1028 004e 43       		.uleb128 .LEHE14-.LEHB14
 1029 004f 00       		.uleb128 0
 1030 0050 00       		.uleb128 0
 1031 0051 6C       		.uleb128 .LEHB15-.LFB1040
 1032 0052 4E       		.uleb128 .LEHE15-.LEHB15
 1033 0053 CF01     		.uleb128 .L37-.LFB1040
 1034 0055 01       		.uleb128 0x1
 1035 0056 CA01     		.uleb128 .LEHB16-.LFB1040
 1036 0058 05       		.uleb128 .LEHE16-.LEHB16
 1037 0059 00       		.uleb128 0
 1038 005a 00       		.uleb128 0
 1039 005b D701     		.uleb128 .LEHB17-.LFB1040
 1040 005d 38       		.uleb128 .LEHE17-.LEHB17
 1041 005e BC01     		.uleb128 .L38-.LFB1040
 1042 0060 00       		.uleb128 0
 1043 0061 8F02     		.uleb128 .LEHB18-.LFB1040
 1044 0063 05       		.uleb128 .LEHE18-.LEHB18
 1045 0064 00       		.uleb128 0
 1046 0065 00       		.uleb128 0
 1047              	.LLSDACSE1040:
 1048 0066 01       		.byte	0x1
 1049 0067 00       		.byte	0
 1050              		.align 4
 1051 0068 00000000 		.long	0
 1052              	
 1053              	.LLSDATT1040:
 1054              		.text
 1056              		.section	.rodata
 1057 0169 00000000 		.align 8
 1057      000000
 1058              	.LC10:
 1059 0170 43686563 		.string	"CheckEqualsWithStringsWorksOnContentsConstConst"
 1059      6B457175 
 1059      616C7357 
 1059      69746853 
 1059      7472696E 
 1060              		.text
 1061              		.align 2
 1063              	_ZN12_GLOBAL__N_151TestCheckEqualsWithStringsWorksOnContentsConstConstC2Ev:
 1064              	.LFB1042:
  37:TestChecks.cpp **** 
  38:TestChecks.cpp **** TEST(CheckEqualsWithStringsWorksOnContentsConstConst)
 1065              		.loc 5 38 0
 1066              		.cfi_startproc
 1067 03e4 55       		pushq	%rbp
 1068              		.cfi_def_cfa_offset 16
 1069              		.cfi_offset 6, -16
 1070 03e5 4889E5   		movq	%rsp, %rbp
 1071              		.cfi_def_cfa_register 6
 1072 03e8 4883EC10 		subq	$16, %rsp
 1073 03ec 48897DF8 		movq	%rdi, -8(%rbp)
 1074              	.LBB18:
 1075              		.loc 5 38 0
 1076 03f0 E8000000 		call	_ZN13UnitTestSuite12GetSuiteNameEv
 1076      00
 1077 03f5 4889C2   		movq	%rax, %rdx
 1078 03f8 488B45F8 		movq	-8(%rbp), %rax
 1079 03fc 41B82600 		movl	$38, %r8d
 1079      0000
 1080 0402 B9000000 		movl	$.LC2, %ecx
 1080      00
 1081 0407 BE000000 		movl	$.LC10, %esi
 1081      00
 1082 040c 4889C7   		movq	%rax, %rdi
 1083 040f E8000000 		call	_ZN8UnitTest4TestC2EPKcS2_S2_i
 1083      00
 1084 0414 488B45F8 		movq	-8(%rbp), %rax
 1085 0418 48C70000 		movq	$_ZTVN12_GLOBAL__N_151TestCheckEqualsWithStringsWorksOnContentsConstConstE+16, (%rax)
 1085      000000
 1086              	.LBE18:
 1087 041f C9       		leave
 1088              		.cfi_def_cfa 7, 8
 1089 0420 C3       		ret
 1090              		.cfi_endproc
 1091              	.LFE1042:
 1093              		.set	_ZN12_GLOBAL__N_151TestCheckEqualsWithStringsWorksOnContentsConstConstC1Ev,_ZN12_GLOBAL__N_15
 1094              		.local	_ZN12_GLOBAL__N_159testCheckEqualsWithStringsWorksOnContentsConstConstInstanceE
 1095              		.comm	_ZN12_GLOBAL__N_159testCheckEqualsWithStringsWorksOnContentsConstConstInstanceE,56,32
 1096              		.local	_ZN12_GLOBAL__N_152adderCheckEqualsWithStringsWorksOnContentsConstConstE
 1097              		.comm	_ZN12_GLOBAL__N_152adderCheckEqualsWithStringsWorksOnContentsConstConstE,1,1
 1098 0421 90       		.align 2
 1100              	_ZNK12_GLOBAL__N_151TestCheckEqualsWithStringsWorksOnContentsConstConst7RunImplEv:
 1101              	.LFB1044:
  39:TestChecks.cpp **** {
 1102              		.loc 5 39 0
 1103              		.cfi_startproc
 1104              		.cfi_personality 0x3,__gxx_personality_v0
 1105              		.cfi_lsda 0x3,.LLSDA1044
 1106 0422 55       		pushq	%rbp
 1107              		.cfi_def_cfa_offset 16
 1108              		.cfi_offset 6, -16
 1109 0423 4889E5   		movq	%rsp, %rbp
 1110              		.cfi_def_cfa_register 6
 1111 0426 53       		pushq	%rbx
 1112 0427 4883EC78 		subq	$120, %rsp
 1113              		.cfi_offset 3, -24
 1114 042b 48897D88 		movq	%rdi, -120(%rbp)
 1115              	.LBB19:
  40:TestChecks.cpp ****     char* const p1 = txt1;
 1116              		.loc 5 40 0
 1117 042f 48C745A0 		movq	$_ZN12_GLOBAL__N_14txt1E, -96(%rbp)
 1117      00000000 
  41:TestChecks.cpp ****     char* const p2 = txt2;
 1118              		.loc 5 41 0
 1119 0437 48C745A8 		movq	$_ZN12_GLOBAL__N_14txt2E, -88(%rbp)
 1119      00000000 
  42:TestChecks.cpp ****     TestResults results;
 1120              		.loc 5 42 0
 1121 043f 488D45B0 		leaq	-80(%rbp), %rax
 1122 0443 BE000000 		movl	$0, %esi
 1122      00
 1123 0448 4889C7   		movq	%rax, %rdi
 1124              	.LEHB19:
 1125 044b E8000000 		call	_ZN8UnitTest11TestResultsC1EPNS_12TestReporterE
 1125      00
  43:TestChecks.cpp ****     CheckEqual(results, p1, p2, TestDetails("", "", "", 0));
 1126              		.loc 5 43 0
 1127 0450 488D45D0 		leaq	-48(%rbp), %rax
 1128 0454 41B80000 		movl	$0, %r8d
 1128      0000
 1129 045a B9000000 		movl	$.LC6, %ecx
 1129      00
 1130 045f BA000000 		movl	$.LC6, %edx
 1130      00
 1131 0464 BE000000 		movl	$.LC6, %esi
 1131      00
 1132 0469 4889C7   		movq	%rax, %rdi
 1133 046c E8000000 		call	_ZN8UnitTest11TestDetailsC1EPKcS2_S2_i
 1133      00
 1134 0471 488D55D0 		leaq	-48(%rbp), %rdx
 1135 0475 488D45B0 		leaq	-80(%rbp), %rax
 1136 0479 4889D1   		movq	%rdx, %rcx
 1137 047c BA000000 		movl	$_ZN12_GLOBAL__N_14txt2E, %edx
 1137      00
 1138 0481 BE000000 		movl	$_ZN12_GLOBAL__N_14txt1E, %esi
 1138      00
 1139 0486 4889C7   		movq	%rax, %rdi
 1140 0489 E8000000 		call	_ZN8UnitTest10CheckEqualERNS_11TestResultsEPcS2_RKNS_11TestDetailsE
 1140      00
 1141              	.LEHE19:
 1142              	.LEHB20:
  44:TestChecks.cpp ****     CHECK_EQUAL(0, results.GetFailureCount());
 1143              		.loc 5 44 0
 1144 048e E8000000 		call	_ZN8UnitTest11CurrentTest7DetailsEv
 1144      00
 1145 0493 488B08   		movq	(%rax), %rcx
 1146 0496 488D45D0 		leaq	-48(%rbp), %rax
 1147 049a BA2C0000 		movl	$44, %edx
 1147      00
 1148 049f 4889CE   		movq	%rcx, %rsi
 1149 04a2 4889C7   		movq	%rax, %rdi
 1150 04a5 E8000000 		call	_ZN8UnitTest11TestDetailsC1ERKS0_i
 1150      00
 1151              		.loc 5 44 0 is_stmt 0 discriminator 1
 1152 04aa 488D45B0 		leaq	-80(%rbp), %rax
 1153 04ae 4889C7   		movq	%rax, %rdi
 1154 04b1 E8000000 		call	_ZNK8UnitTest11TestResults15GetFailureCountEv
 1154      00
 1155 04b6 89459C   		movl	%eax, -100(%rbp)
 1156 04b9 C7459800 		movl	$0, -104(%rbp)
 1156      000000
 1157 04c0 E8000000 		call	_ZN8UnitTest11CurrentTest7ResultsEv
 1157      00
 1158 04c5 488B00   		movq	(%rax), %rax
 1159 04c8 488D4DD0 		leaq	-48(%rbp), %rcx
 1160 04cc 488D559C 		leaq	-100(%rbp), %rdx
 1161 04d0 488D7598 		leaq	-104(%rbp), %rsi
 1162 04d4 4889C7   		movq	%rax, %rdi
 1163 04d7 E8000000 		call	_ZN8UnitTest10CheckEqualIiiEEvRNS_11TestResultsERKT_RKT0_RKNS_11TestDetailsE
 1163      00
 1164              	.LEHE20:
 1165              	.LBE19:
  45:TestChecks.cpp **** }
 1166              		.loc 5 45 0 is_stmt 1
 1167 04dc EB58     		jmp	.L47
 1168              	.L46:
 1169 04de 4889C3   		movq	%rax, %rbx
 1170              	.LBB20:
  44:TestChecks.cpp ****     CHECK_EQUAL(0, results.GetFailureCount());
 1171              		.loc 5 44 0
 1172 04e1 E8000000 		call	__cxa_end_catch
 1172      00
 1173 04e6 4889D8   		movq	%rbx, %rax
 1174 04e9 4889C7   		movq	%rax, %rdi
 1175              	.LEHB21:
 1176 04ec E8000000 		call	_Unwind_Resume
 1176      00
 1177              	.LEHE21:
 1178              	.L45:
 1179 04f1 4889C7   		movq	%rax, %rdi
 1180 04f4 E8000000 		call	__cxa_begin_catch
 1180      00
 1181              	.LEHB22:
 1182 04f9 E8000000 		call	_ZN8UnitTest11CurrentTest7DetailsEv
 1182      00
 1183 04fe 488B08   		movq	(%rax), %rcx
 1184 0501 488D45D0 		leaq	-48(%rbp), %rax
 1185 0505 BA2C0000 		movl	$44, %edx
 1185      00
 1186 050a 4889CE   		movq	%rcx, %rsi
 1187 050d 4889C7   		movq	%rax, %rdi
 1188 0510 E8000000 		call	_ZN8UnitTest11TestDetailsC1ERKS0_i
 1188      00
  44:TestChecks.cpp ****     CHECK_EQUAL(0, results.GetFailureCount());
 1189              		.loc 5 44 0 is_stmt 0 discriminator 1
 1190 0515 E8000000 		call	_ZN8UnitTest11CurrentTest7ResultsEv
 1190      00
 1191 051a 488B00   		movq	(%rax), %rax
 1192 051d 488D4DD0 		leaq	-48(%rbp), %rcx
 1193 0521 BA000000 		movl	$.LC9, %edx
 1193      00
 1194 0526 4889CE   		movq	%rcx, %rsi
 1195 0529 4889C7   		movq	%rax, %rdi
 1196 052c E8000000 		call	_ZN8UnitTest11TestResults13OnTestFailureERKNS_11TestDetailsEPKc
 1196      00
 1197              	.LEHE22:
 1198              	.LEHB23:
 1199 0531 E8000000 		call	__cxa_end_catch
 1199      00
 1200              	.LEHE23:
 1201              	.L47:
 1202              	.LBE20:
 1203              		.loc 5 45 0 is_stmt 1
 1204 0536 90       		nop
 1205 0537 4883C478 		addq	$120, %rsp
 1206 053b 5B       		popq	%rbx
 1207 053c 5D       		popq	%rbp
 1208              		.cfi_def_cfa 7, 8
 1209 053d C3       		ret
 1210              		.cfi_endproc
 1211              	.LFE1044:
 1212              		.section	.gcc_except_table
 1213              		.align 4
 1214              	.LLSDA1044:
 1215 006c FF       		.byte	0xff
 1216 006d 03       		.byte	0x3
 1217 006e 21       		.uleb128 .LLSDATT1044-.LLSDATTD1044
 1218              	.LLSDATTD1044:
 1219 006f 01       		.byte	0x1
 1220 0070 19       		.uleb128 .LLSDACSE1044-.LLSDACSB1044
 1221              	.LLSDACSB1044:
 1222 0071 29       		.uleb128 .LEHB19-.LFB1044
 1223 0072 43       		.uleb128 .LEHE19-.LEHB19
 1224 0073 00       		.uleb128 0
 1225 0074 00       		.uleb128 0
 1226 0075 6C       		.uleb128 .LEHB20-.LFB1044
 1227 0076 4E       		.uleb128 .LEHE20-.LEHB20
 1228 0077 CF01     		.uleb128 .L45-.LFB1044
 1229 0079 01       		.uleb128 0x1
 1230 007a CA01     		.uleb128 .LEHB21-.LFB1044
 1231 007c 05       		.uleb128 .LEHE21-.LEHB21
 1232 007d 00       		.uleb128 0
 1233 007e 00       		.uleb128 0
 1234 007f D701     		.uleb128 .LEHB22-.LFB1044
 1235 0081 38       		.uleb128 .LEHE22-.LEHB22
 1236 0082 BC01     		.uleb128 .L46-.LFB1044
 1237 0084 00       		.uleb128 0
 1238 0085 8F02     		.uleb128 .LEHB23-.LFB1044
 1239 0087 05       		.uleb128 .LEHE23-.LEHB23
 1240 0088 00       		.uleb128 0
 1241 0089 00       		.uleb128 0
 1242              	.LLSDACSE1044:
 1243 008a 01       		.byte	0x1
 1244 008b 00       		.byte	0
 1245              		.align 4
 1246 008c 00000000 		.long	0
 1247              	
 1248              	.LLSDATT1044:
 1249              		.text
 1251              		.section	.rodata
 1252              		.align 8
 1253              	.LC11:
 1254 01a0 43686563 		.string	"CheckEqualsWithStringsWorksOnContentsNonConstConst"
 1254      6B457175 
 1254      616C7357 
 1254      69746853 
 1254      7472696E 
 1255              		.text
 1256              		.align 2
 1258              	_ZN12_GLOBAL__N_154TestCheckEqualsWithStringsWorksOnContentsNonConstConstC2Ev:
 1259              	.LFB1046:
  46:TestChecks.cpp **** 
  47:TestChecks.cpp **** TEST(CheckEqualsWithStringsWorksOnContentsNonConstConst)
 1260              		.loc 5 47 0
 1261              		.cfi_startproc
 1262 053e 55       		pushq	%rbp
 1263              		.cfi_def_cfa_offset 16
 1264              		.cfi_offset 6, -16
 1265 053f 4889E5   		movq	%rsp, %rbp
 1266              		.cfi_def_cfa_register 6
 1267 0542 4883EC10 		subq	$16, %rsp
 1268 0546 48897DF8 		movq	%rdi, -8(%rbp)
 1269              	.LBB21:
 1270              		.loc 5 47 0
 1271 054a E8000000 		call	_ZN13UnitTestSuite12GetSuiteNameEv
 1271      00
 1272 054f 4889C2   		movq	%rax, %rdx
 1273 0552 488B45F8 		movq	-8(%rbp), %rax
 1274 0556 41B82F00 		movl	$47, %r8d
 1274      0000
 1275 055c B9000000 		movl	$.LC2, %ecx
 1275      00
 1276 0561 BE000000 		movl	$.LC11, %esi
 1276      00
 1277 0566 4889C7   		movq	%rax, %rdi
 1278 0569 E8000000 		call	_ZN8UnitTest4TestC2EPKcS2_S2_i
 1278      00
 1279 056e 488B45F8 		movq	-8(%rbp), %rax
 1280 0572 48C70000 		movq	$_ZTVN12_GLOBAL__N_154TestCheckEqualsWithStringsWorksOnContentsNonConstConstE+16, (%rax)
 1280      000000
 1281              	.LBE21:
 1282 0579 C9       		leave
 1283              		.cfi_def_cfa 7, 8
 1284 057a C3       		ret
 1285              		.cfi_endproc
 1286              	.LFE1046:
 1288              		.set	_ZN12_GLOBAL__N_154TestCheckEqualsWithStringsWorksOnContentsNonConstConstC1Ev,_ZN12_GLOBAL__N
 1289              		.local	_ZN12_GLOBAL__N_162testCheckEqualsWithStringsWorksOnContentsNonConstConstInstanceE
 1290              		.comm	_ZN12_GLOBAL__N_162testCheckEqualsWithStringsWorksOnContentsNonConstConstInstanceE,56,32
 1291              		.local	_ZN12_GLOBAL__N_155adderCheckEqualsWithStringsWorksOnContentsNonConstConstE
 1292              		.comm	_ZN12_GLOBAL__N_155adderCheckEqualsWithStringsWorksOnContentsNonConstConstE,1,1
 1293 057b 90       		.align 2
 1295              	_ZNK12_GLOBAL__N_154TestCheckEqualsWithStringsWorksOnContentsNonConstConst7RunImplEv:
 1296              	.LFB1048:
  48:TestChecks.cpp **** {
 1297              		.loc 5 48 0
 1298              		.cfi_startproc
 1299              		.cfi_personality 0x3,__gxx_personality_v0
 1300              		.cfi_lsda 0x3,.LLSDA1048
 1301 057c 55       		pushq	%rbp
 1302              		.cfi_def_cfa_offset 16
 1303              		.cfi_offset 6, -16
 1304 057d 4889E5   		movq	%rsp, %rbp
 1305              		.cfi_def_cfa_register 6
 1306 0580 53       		pushq	%rbx
 1307 0581 4883EC78 		subq	$120, %rsp
 1308              		.cfi_offset 3, -24
 1309 0585 48897D88 		movq	%rdi, -120(%rbp)
 1310              	.LBB22:
  49:TestChecks.cpp ****     char* const p1 = txt1;
 1311              		.loc 5 49 0
 1312 0589 48C745A0 		movq	$_ZN12_GLOBAL__N_14txt1E, -96(%rbp)
 1312      00000000 
  50:TestChecks.cpp ****     char const* const p2 = txt2;
 1313              		.loc 5 50 0
 1314 0591 48C745A8 		movq	$_ZN12_GLOBAL__N_14txt2E, -88(%rbp)
 1314      00000000 
  51:TestChecks.cpp ****     TestResults results;
 1315              		.loc 5 51 0
 1316 0599 488D45B0 		leaq	-80(%rbp), %rax
 1317 059d BE000000 		movl	$0, %esi
 1317      00
 1318 05a2 4889C7   		movq	%rax, %rdi
 1319              	.LEHB24:
 1320 05a5 E8000000 		call	_ZN8UnitTest11TestResultsC1EPNS_12TestReporterE
 1320      00
  52:TestChecks.cpp ****     CheckEqual(results, p1, p2, TestDetails("", "", "", 0));
 1321              		.loc 5 52 0
 1322 05aa 488D45D0 		leaq	-48(%rbp), %rax
 1323 05ae 41B80000 		movl	$0, %r8d
 1323      0000
 1324 05b4 B9000000 		movl	$.LC6, %ecx
 1324      00
 1325 05b9 BA000000 		movl	$.LC6, %edx
 1325      00
 1326 05be BE000000 		movl	$.LC6, %esi
 1326      00
 1327 05c3 4889C7   		movq	%rax, %rdi
 1328 05c6 E8000000 		call	_ZN8UnitTest11TestDetailsC1EPKcS2_S2_i
 1328      00
 1329 05cb 488D55D0 		leaq	-48(%rbp), %rdx
 1330 05cf 488D45B0 		leaq	-80(%rbp), %rax
 1331 05d3 4889D1   		movq	%rdx, %rcx
 1332 05d6 BA000000 		movl	$_ZN12_GLOBAL__N_14txt2E, %edx
 1332      00
 1333 05db BE000000 		movl	$_ZN12_GLOBAL__N_14txt1E, %esi
 1333      00
 1334 05e0 4889C7   		movq	%rax, %rdi
 1335 05e3 E8000000 		call	_ZN8UnitTest10CheckEqualERNS_11TestResultsEPcPKcRKNS_11TestDetailsE
 1335      00
 1336              	.LEHE24:
 1337              	.LEHB25:
  53:TestChecks.cpp ****     CHECK_EQUAL(0, results.GetFailureCount());
 1338              		.loc 5 53 0
 1339 05e8 E8000000 		call	_ZN8UnitTest11CurrentTest7DetailsEv
 1339      00
 1340 05ed 488B08   		movq	(%rax), %rcx
 1341 05f0 488D45D0 		leaq	-48(%rbp), %rax
 1342 05f4 BA350000 		movl	$53, %edx
 1342      00
 1343 05f9 4889CE   		movq	%rcx, %rsi
 1344 05fc 4889C7   		movq	%rax, %rdi
 1345 05ff E8000000 		call	_ZN8UnitTest11TestDetailsC1ERKS0_i
 1345      00
 1346              		.loc 5 53 0 is_stmt 0 discriminator 1
 1347 0604 488D45B0 		leaq	-80(%rbp), %rax
 1348 0608 4889C7   		movq	%rax, %rdi
 1349 060b E8000000 		call	_ZNK8UnitTest11TestResults15GetFailureCountEv
 1349      00
 1350 0610 89459C   		movl	%eax, -100(%rbp)
 1351 0613 C7459800 		movl	$0, -104(%rbp)
 1351      000000
 1352 061a E8000000 		call	_ZN8UnitTest11CurrentTest7ResultsEv
 1352      00
 1353 061f 488B00   		movq	(%rax), %rax
 1354 0622 488D4DD0 		leaq	-48(%rbp), %rcx
 1355 0626 488D559C 		leaq	-100(%rbp), %rdx
 1356 062a 488D7598 		leaq	-104(%rbp), %rsi
 1357 062e 4889C7   		movq	%rax, %rdi
 1358 0631 E8000000 		call	_ZN8UnitTest10CheckEqualIiiEEvRNS_11TestResultsERKT_RKT0_RKNS_11TestDetailsE
 1358      00
 1359              	.LEHE25:
 1360              	.LBE22:
  54:TestChecks.cpp **** }
 1361              		.loc 5 54 0 is_stmt 1
 1362 0636 EB58     		jmp	.L55
 1363              	.L54:
 1364 0638 4889C3   		movq	%rax, %rbx
 1365              	.LBB23:
  53:TestChecks.cpp ****     CHECK_EQUAL(0, results.GetFailureCount());
 1366              		.loc 5 53 0
 1367 063b E8000000 		call	__cxa_end_catch
 1367      00
 1368 0640 4889D8   		movq	%rbx, %rax
 1369 0643 4889C7   		movq	%rax, %rdi
 1370              	.LEHB26:
 1371 0646 E8000000 		call	_Unwind_Resume
 1371      00
 1372              	.LEHE26:
 1373              	.L53:
 1374 064b 4889C7   		movq	%rax, %rdi
 1375 064e E8000000 		call	__cxa_begin_catch
 1375      00
 1376              	.LEHB27:
 1377 0653 E8000000 		call	_ZN8UnitTest11CurrentTest7DetailsEv
 1377      00
 1378 0658 488B08   		movq	(%rax), %rcx
 1379 065b 488D45D0 		leaq	-48(%rbp), %rax
 1380 065f BA350000 		movl	$53, %edx
 1380      00
 1381 0664 4889CE   		movq	%rcx, %rsi
 1382 0667 4889C7   		movq	%rax, %rdi
 1383 066a E8000000 		call	_ZN8UnitTest11TestDetailsC1ERKS0_i
 1383      00
  53:TestChecks.cpp ****     CHECK_EQUAL(0, results.GetFailureCount());
 1384              		.loc 5 53 0 is_stmt 0 discriminator 1
 1385 066f E8000000 		call	_ZN8UnitTest11CurrentTest7ResultsEv
 1385      00
 1386 0674 488B00   		movq	(%rax), %rax
 1387 0677 488D4DD0 		leaq	-48(%rbp), %rcx
 1388 067b BA000000 		movl	$.LC9, %edx
 1388      00
 1389 0680 4889CE   		movq	%rcx, %rsi
 1390 0683 4889C7   		movq	%rax, %rdi
 1391 0686 E8000000 		call	_ZN8UnitTest11TestResults13OnTestFailureERKNS_11TestDetailsEPKc
 1391      00
 1392              	.LEHE27:
 1393              	.LEHB28:
 1394 068b E8000000 		call	__cxa_end_catch
 1394      00
 1395              	.LEHE28:
 1396              	.L55:
 1397              	.LBE23:
 1398              		.loc 5 54 0 is_stmt 1
 1399 0690 90       		nop
 1400 0691 4883C478 		addq	$120, %rsp
 1401 0695 5B       		popq	%rbx
 1402 0696 5D       		popq	%rbp
 1403              		.cfi_def_cfa 7, 8
 1404 0697 C3       		ret
 1405              		.cfi_endproc
 1406              	.LFE1048:
 1407              		.section	.gcc_except_table
 1408              		.align 4
 1409              	.LLSDA1048:
 1410 0090 FF       		.byte	0xff
 1411 0091 03       		.byte	0x3
 1412 0092 21       		.uleb128 .LLSDATT1048-.LLSDATTD1048
 1413              	.LLSDATTD1048:
 1414 0093 01       		.byte	0x1
 1415 0094 19       		.uleb128 .LLSDACSE1048-.LLSDACSB1048
 1416              	.LLSDACSB1048:
 1417 0095 29       		.uleb128 .LEHB24-.LFB1048
 1418 0096 43       		.uleb128 .LEHE24-.LEHB24
 1419 0097 00       		.uleb128 0
 1420 0098 00       		.uleb128 0
 1421 0099 6C       		.uleb128 .LEHB25-.LFB1048
 1422 009a 4E       		.uleb128 .LEHE25-.LEHB25
 1423 009b CF01     		.uleb128 .L53-.LFB1048
 1424 009d 01       		.uleb128 0x1
 1425 009e CA01     		.uleb128 .LEHB26-.LFB1048
 1426 00a0 05       		.uleb128 .LEHE26-.LEHB26
 1427 00a1 00       		.uleb128 0
 1428 00a2 00       		.uleb128 0
 1429 00a3 D701     		.uleb128 .LEHB27-.LFB1048
 1430 00a5 38       		.uleb128 .LEHE27-.LEHB27
 1431 00a6 BC01     		.uleb128 .L54-.LFB1048
 1432 00a8 00       		.uleb128 0
 1433 00a9 8F02     		.uleb128 .LEHB28-.LFB1048
 1434 00ab 05       		.uleb128 .LEHE28-.LEHB28
 1435 00ac 00       		.uleb128 0
 1436 00ad 00       		.uleb128 0
 1437              	.LLSDACSE1048:
 1438 00ae 01       		.byte	0x1
 1439 00af 00       		.byte	0
 1440              		.align 4
 1441 00b0 00000000 		.long	0
 1442              	
 1443              	.LLSDATT1048:
 1444              		.text
 1446              		.section	.rodata
 1447 01d3 00000000 		.align 8
 1447      00
 1448              	.LC12:
 1449 01d8 43686563 		.string	"CheckEqualsWithStringsWorksOnContentsConstNonConst"
 1449      6B457175 
 1449      616C7357 
 1449      69746853 
 1449      7472696E 
 1450              		.text
 1451              		.align 2
 1453              	_ZN12_GLOBAL__N_154TestCheckEqualsWithStringsWorksOnContentsConstNonConstC2Ev:
 1454              	.LFB1050:
  55:TestChecks.cpp **** 
  56:TestChecks.cpp **** TEST(CheckEqualsWithStringsWorksOnContentsConstNonConst)
 1455              		.loc 5 56 0
 1456              		.cfi_startproc
 1457 0698 55       		pushq	%rbp
 1458              		.cfi_def_cfa_offset 16
 1459              		.cfi_offset 6, -16
 1460 0699 4889E5   		movq	%rsp, %rbp
 1461              		.cfi_def_cfa_register 6
 1462 069c 4883EC10 		subq	$16, %rsp
 1463 06a0 48897DF8 		movq	%rdi, -8(%rbp)
 1464              	.LBB24:
 1465              		.loc 5 56 0
 1466 06a4 E8000000 		call	_ZN13UnitTestSuite12GetSuiteNameEv
 1466      00
 1467 06a9 4889C2   		movq	%rax, %rdx
 1468 06ac 488B45F8 		movq	-8(%rbp), %rax
 1469 06b0 41B83800 		movl	$56, %r8d
 1469      0000
 1470 06b6 B9000000 		movl	$.LC2, %ecx
 1470      00
 1471 06bb BE000000 		movl	$.LC12, %esi
 1471      00
 1472 06c0 4889C7   		movq	%rax, %rdi
 1473 06c3 E8000000 		call	_ZN8UnitTest4TestC2EPKcS2_S2_i
 1473      00
 1474 06c8 488B45F8 		movq	-8(%rbp), %rax
 1475 06cc 48C70000 		movq	$_ZTVN12_GLOBAL__N_154TestCheckEqualsWithStringsWorksOnContentsConstNonConstE+16, (%rax)
 1475      000000
 1476              	.LBE24:
 1477 06d3 C9       		leave
 1478              		.cfi_def_cfa 7, 8
 1479 06d4 C3       		ret
 1480              		.cfi_endproc
 1481              	.LFE1050:
 1483              		.set	_ZN12_GLOBAL__N_154TestCheckEqualsWithStringsWorksOnContentsConstNonConstC1Ev,_ZN12_GLOBAL__N
 1484              		.local	_ZN12_GLOBAL__N_162testCheckEqualsWithStringsWorksOnContentsConstNonConstInstanceE
 1485              		.comm	_ZN12_GLOBAL__N_162testCheckEqualsWithStringsWorksOnContentsConstNonConstInstanceE,56,32
 1486              		.local	_ZN12_GLOBAL__N_155adderCheckEqualsWithStringsWorksOnContentsConstNonConstE
 1487              		.comm	_ZN12_GLOBAL__N_155adderCheckEqualsWithStringsWorksOnContentsConstNonConstE,1,1
 1488 06d5 90       		.align 2
 1490              	_ZNK12_GLOBAL__N_154TestCheckEqualsWithStringsWorksOnContentsConstNonConst7RunImplEv:
 1491              	.LFB1052:
  57:TestChecks.cpp **** {
 1492              		.loc 5 57 0
 1493              		.cfi_startproc
 1494              		.cfi_personality 0x3,__gxx_personality_v0
 1495              		.cfi_lsda 0x3,.LLSDA1052
 1496 06d6 55       		pushq	%rbp
 1497              		.cfi_def_cfa_offset 16
 1498              		.cfi_offset 6, -16
 1499 06d7 4889E5   		movq	%rsp, %rbp
 1500              		.cfi_def_cfa_register 6
 1501 06da 53       		pushq	%rbx
 1502 06db 4883EC78 		subq	$120, %rsp
 1503              		.cfi_offset 3, -24
 1504 06df 48897D88 		movq	%rdi, -120(%rbp)
 1505              	.LBB25:
  58:TestChecks.cpp ****     char const* const p1 = txt1;
 1506              		.loc 5 58 0
 1507 06e3 48C745A0 		movq	$_ZN12_GLOBAL__N_14txt1E, -96(%rbp)
 1507      00000000 
  59:TestChecks.cpp ****     char* const p2 = txt2;
 1508              		.loc 5 59 0
 1509 06eb 48C745A8 		movq	$_ZN12_GLOBAL__N_14txt2E, -88(%rbp)
 1509      00000000 
  60:TestChecks.cpp ****     TestResults results;
 1510              		.loc 5 60 0
 1511 06f3 488D45B0 		leaq	-80(%rbp), %rax
 1512 06f7 BE000000 		movl	$0, %esi
 1512      00
 1513 06fc 4889C7   		movq	%rax, %rdi
 1514              	.LEHB29:
 1515 06ff E8000000 		call	_ZN8UnitTest11TestResultsC1EPNS_12TestReporterE
 1515      00
  61:TestChecks.cpp ****     CheckEqual(results, p1, p2, TestDetails("", "", "", 0));
 1516              		.loc 5 61 0
 1517 0704 488D45D0 		leaq	-48(%rbp), %rax
 1518 0708 41B80000 		movl	$0, %r8d
 1518      0000
 1519 070e B9000000 		movl	$.LC6, %ecx
 1519      00
 1520 0713 BA000000 		movl	$.LC6, %edx
 1520      00
 1521 0718 BE000000 		movl	$.LC6, %esi
 1521      00
 1522 071d 4889C7   		movq	%rax, %rdi
 1523 0720 E8000000 		call	_ZN8UnitTest11TestDetailsC1EPKcS2_S2_i
 1523      00
 1524 0725 488D55D0 		leaq	-48(%rbp), %rdx
 1525 0729 488D45B0 		leaq	-80(%rbp), %rax
 1526 072d 4889D1   		movq	%rdx, %rcx
 1527 0730 BA000000 		movl	$_ZN12_GLOBAL__N_14txt2E, %edx
 1527      00
 1528 0735 BE000000 		movl	$_ZN12_GLOBAL__N_14txt1E, %esi
 1528      00
 1529 073a 4889C7   		movq	%rax, %rdi
 1530 073d E8000000 		call	_ZN8UnitTest10CheckEqualERNS_11TestResultsEPKcPcRKNS_11TestDetailsE
 1530      00
 1531              	.LEHE29:
 1532              	.LEHB30:
  62:TestChecks.cpp ****     CHECK_EQUAL(0, results.GetFailureCount());
 1533              		.loc 5 62 0
 1534 0742 E8000000 		call	_ZN8UnitTest11CurrentTest7DetailsEv
 1534      00
 1535 0747 488B08   		movq	(%rax), %rcx
 1536 074a 488D45D0 		leaq	-48(%rbp), %rax
 1537 074e BA3E0000 		movl	$62, %edx
 1537      00
 1538 0753 4889CE   		movq	%rcx, %rsi
 1539 0756 4889C7   		movq	%rax, %rdi
 1540 0759 E8000000 		call	_ZN8UnitTest11TestDetailsC1ERKS0_i
 1540      00
 1541              		.loc 5 62 0 is_stmt 0 discriminator 1
 1542 075e 488D45B0 		leaq	-80(%rbp), %rax
 1543 0762 4889C7   		movq	%rax, %rdi
 1544 0765 E8000000 		call	_ZNK8UnitTest11TestResults15GetFailureCountEv
 1544      00
 1545 076a 89459C   		movl	%eax, -100(%rbp)
 1546 076d C7459800 		movl	$0, -104(%rbp)
 1546      000000
 1547 0774 E8000000 		call	_ZN8UnitTest11CurrentTest7ResultsEv
 1547      00
 1548 0779 488B00   		movq	(%rax), %rax
 1549 077c 488D4DD0 		leaq	-48(%rbp), %rcx
 1550 0780 488D559C 		leaq	-100(%rbp), %rdx
 1551 0784 488D7598 		leaq	-104(%rbp), %rsi
 1552 0788 4889C7   		movq	%rax, %rdi
 1553 078b E8000000 		call	_ZN8UnitTest10CheckEqualIiiEEvRNS_11TestResultsERKT_RKT0_RKNS_11TestDetailsE
 1553      00
 1554              	.LEHE30:
 1555              	.LBE25:
  63:TestChecks.cpp **** }
 1556              		.loc 5 63 0 is_stmt 1
 1557 0790 EB58     		jmp	.L63
 1558              	.L62:
 1559 0792 4889C3   		movq	%rax, %rbx
 1560              	.LBB26:
  62:TestChecks.cpp ****     CHECK_EQUAL(0, results.GetFailureCount());
 1561              		.loc 5 62 0
 1562 0795 E8000000 		call	__cxa_end_catch
 1562      00
 1563 079a 4889D8   		movq	%rbx, %rax
 1564 079d 4889C7   		movq	%rax, %rdi
 1565              	.LEHB31:
 1566 07a0 E8000000 		call	_Unwind_Resume
 1566      00
 1567              	.LEHE31:
 1568              	.L61:
 1569 07a5 4889C7   		movq	%rax, %rdi
 1570 07a8 E8000000 		call	__cxa_begin_catch
 1570      00
 1571              	.LEHB32:
 1572 07ad E8000000 		call	_ZN8UnitTest11CurrentTest7DetailsEv
 1572      00
 1573 07b2 488B08   		movq	(%rax), %rcx
 1574 07b5 488D45D0 		leaq	-48(%rbp), %rax
 1575 07b9 BA3E0000 		movl	$62, %edx
 1575      00
 1576 07be 4889CE   		movq	%rcx, %rsi
 1577 07c1 4889C7   		movq	%rax, %rdi
 1578 07c4 E8000000 		call	_ZN8UnitTest11TestDetailsC1ERKS0_i
 1578      00
  62:TestChecks.cpp ****     CHECK_EQUAL(0, results.GetFailureCount());
 1579              		.loc 5 62 0 is_stmt 0 discriminator 1
 1580 07c9 E8000000 		call	_ZN8UnitTest11CurrentTest7ResultsEv
 1580      00
 1581 07ce 488B00   		movq	(%rax), %rax
 1582 07d1 488D4DD0 		leaq	-48(%rbp), %rcx
 1583 07d5 BA000000 		movl	$.LC9, %edx
 1583      00
 1584 07da 4889CE   		movq	%rcx, %rsi
 1585 07dd 4889C7   		movq	%rax, %rdi
 1586 07e0 E8000000 		call	_ZN8UnitTest11TestResults13OnTestFailureERKNS_11TestDetailsEPKc
 1586      00
 1587              	.LEHE32:
 1588              	.LEHB33:
 1589 07e5 E8000000 		call	__cxa_end_catch
 1589      00
 1590              	.LEHE33:
 1591              	.L63:
 1592              	.LBE26:
 1593              		.loc 5 63 0 is_stmt 1
 1594 07ea 90       		nop
 1595 07eb 4883C478 		addq	$120, %rsp
 1596 07ef 5B       		popq	%rbx
 1597 07f0 5D       		popq	%rbp
 1598              		.cfi_def_cfa 7, 8
 1599 07f1 C3       		ret
 1600              		.cfi_endproc
 1601              	.LFE1052:
 1602              		.section	.gcc_except_table
 1603              		.align 4
 1604              	.LLSDA1052:
 1605 00b4 FF       		.byte	0xff
 1606 00b5 03       		.byte	0x3
 1607 00b6 21       		.uleb128 .LLSDATT1052-.LLSDATTD1052
 1608              	.LLSDATTD1052:
 1609 00b7 01       		.byte	0x1
 1610 00b8 19       		.uleb128 .LLSDACSE1052-.LLSDACSB1052
 1611              	.LLSDACSB1052:
 1612 00b9 29       		.uleb128 .LEHB29-.LFB1052
 1613 00ba 43       		.uleb128 .LEHE29-.LEHB29
 1614 00bb 00       		.uleb128 0
 1615 00bc 00       		.uleb128 0
 1616 00bd 6C       		.uleb128 .LEHB30-.LFB1052
 1617 00be 4E       		.uleb128 .LEHE30-.LEHB30
 1618 00bf CF01     		.uleb128 .L61-.LFB1052
 1619 00c1 01       		.uleb128 0x1
 1620 00c2 CA01     		.uleb128 .LEHB31-.LFB1052
 1621 00c4 05       		.uleb128 .LEHE31-.LEHB31
 1622 00c5 00       		.uleb128 0
 1623 00c6 00       		.uleb128 0
 1624 00c7 D701     		.uleb128 .LEHB32-.LFB1052
 1625 00c9 38       		.uleb128 .LEHE32-.LEHB32
 1626 00ca BC01     		.uleb128 .L62-.LFB1052
 1627 00cc 00       		.uleb128 0
 1628 00cd 8F02     		.uleb128 .LEHB33-.LFB1052
 1629 00cf 05       		.uleb128 .LEHE33-.LEHB33
 1630 00d0 00       		.uleb128 0
 1631 00d1 00       		.uleb128 0
 1632              	.LLSDACSE1052:
 1633 00d2 01       		.byte	0x1
 1634 00d3 00       		.byte	0
 1635              		.align 4
 1636 00d4 00000000 		.long	0
 1637              	
 1638              	.LLSDATT1052:
 1639              		.text
 1641              		.section	.rodata
 1642 020b 00000000 		.align 8
 1642      00
 1643              	.LC13:
 1644 0210 43686563 		.string	"CheckEqualsWithStringsWorksOnContentsWithALiteral"
 1644      6B457175 
 1644      616C7357 
 1644      69746853 
 1644      7472696E 
 1645              		.text
 1646              		.align 2
 1648              	_ZN12_GLOBAL__N_153TestCheckEqualsWithStringsWorksOnContentsWithALiteralC2Ev:
 1649              	.LFB1054:
  64:TestChecks.cpp **** 
  65:TestChecks.cpp **** TEST(CheckEqualsWithStringsWorksOnContentsWithALiteral)
 1650              		.loc 5 65 0
 1651              		.cfi_startproc
 1652 07f2 55       		pushq	%rbp
 1653              		.cfi_def_cfa_offset 16
 1654              		.cfi_offset 6, -16
 1655 07f3 4889E5   		movq	%rsp, %rbp
 1656              		.cfi_def_cfa_register 6
 1657 07f6 4883EC10 		subq	$16, %rsp
 1658 07fa 48897DF8 		movq	%rdi, -8(%rbp)
 1659              	.LBB27:
 1660              		.loc 5 65 0
 1661 07fe E8000000 		call	_ZN13UnitTestSuite12GetSuiteNameEv
 1661      00
 1662 0803 4889C2   		movq	%rax, %rdx
 1663 0806 488B45F8 		movq	-8(%rbp), %rax
 1664 080a 41B84100 		movl	$65, %r8d
 1664      0000
 1665 0810 B9000000 		movl	$.LC2, %ecx
 1665      00
 1666 0815 BE000000 		movl	$.LC13, %esi
 1666      00
 1667 081a 4889C7   		movq	%rax, %rdi
 1668 081d E8000000 		call	_ZN8UnitTest4TestC2EPKcS2_S2_i
 1668      00
 1669 0822 488B45F8 		movq	-8(%rbp), %rax
 1670 0826 48C70000 		movq	$_ZTVN12_GLOBAL__N_153TestCheckEqualsWithStringsWorksOnContentsWithALiteralE+16, (%rax)
 1670      000000
 1671              	.LBE27:
 1672 082d C9       		leave
 1673              		.cfi_def_cfa 7, 8
 1674 082e C3       		ret
 1675              		.cfi_endproc
 1676              	.LFE1054:
 1678              		.set	_ZN12_GLOBAL__N_153TestCheckEqualsWithStringsWorksOnContentsWithALiteralC1Ev,_ZN12_GLOBAL__N_
 1679              		.local	_ZN12_GLOBAL__N_161testCheckEqualsWithStringsWorksOnContentsWithALiteralInstanceE
 1680              		.comm	_ZN12_GLOBAL__N_161testCheckEqualsWithStringsWorksOnContentsWithALiteralInstanceE,56,32
 1681              		.local	_ZN12_GLOBAL__N_154adderCheckEqualsWithStringsWorksOnContentsWithALiteralE
 1682              		.comm	_ZN12_GLOBAL__N_154adderCheckEqualsWithStringsWorksOnContentsWithALiteralE,1,1
 1683              		.section	.rodata
 1684              	.LC14:
 1685 0242 48656C6C 		.string	"Hello"
 1685      6F00
 1686              		.text
 1687 082f 90       		.align 2
 1689              	_ZNK12_GLOBAL__N_153TestCheckEqualsWithStringsWorksOnContentsWithALiteral7RunImplEv:
 1690              	.LFB1056:
  66:TestChecks.cpp **** {
 1691              		.loc 5 66 0
 1692              		.cfi_startproc
 1693              		.cfi_personality 0x3,__gxx_personality_v0
 1694              		.cfi_lsda 0x3,.LLSDA1056
 1695 0830 55       		pushq	%rbp
 1696              		.cfi_def_cfa_offset 16
 1697              		.cfi_offset 6, -16
 1698 0831 4889E5   		movq	%rsp, %rbp
 1699              		.cfi_def_cfa_register 6
 1700 0834 53       		pushq	%rbx
 1701 0835 4883EC68 		subq	$104, %rsp
 1702              		.cfi_offset 3, -24
 1703 0839 48897D98 		movq	%rdi, -104(%rbp)
 1704              	.LBB28:
  67:TestChecks.cpp ****     char const* const p1 = txt1;
 1705              		.loc 5 67 0
 1706 083d 48C745A8 		movq	$_ZN12_GLOBAL__N_14txt1E, -88(%rbp)
 1706      00000000 
  68:TestChecks.cpp ****     TestResults results;
 1707              		.loc 5 68 0
 1708 0845 488D45B0 		leaq	-80(%rbp), %rax
 1709 0849 BE000000 		movl	$0, %esi
 1709      00
 1710 084e 4889C7   		movq	%rax, %rdi
 1711              	.LEHB34:
 1712 0851 E8000000 		call	_ZN8UnitTest11TestResultsC1EPNS_12TestReporterE
 1712      00
  69:TestChecks.cpp ****     CheckEqual(results, "Hello", p1, TestDetails("", "", "", 0));
 1713              		.loc 5 69 0
 1714 0856 488D45D0 		leaq	-48(%rbp), %rax
 1715 085a 41B80000 		movl	$0, %r8d
 1715      0000
 1716 0860 B9000000 		movl	$.LC6, %ecx
 1716      00
 1717 0865 BA000000 		movl	$.LC6, %edx
 1717      00
 1718 086a BE000000 		movl	$.LC6, %esi
 1718      00
 1719 086f 4889C7   		movq	%rax, %rdi
 1720 0872 E8000000 		call	_ZN8UnitTest11TestDetailsC1EPKcS2_S2_i
 1720      00
 1721 0877 488D55D0 		leaq	-48(%rbp), %rdx
 1722 087b 488D45B0 		leaq	-80(%rbp), %rax
 1723 087f 4889D1   		movq	%rdx, %rcx
 1724 0882 BA000000 		movl	$_ZN12_GLOBAL__N_14txt1E, %edx
 1724      00
 1725 0887 BE000000 		movl	$.LC14, %esi
 1725      00
 1726 088c 4889C7   		movq	%rax, %rdi
 1727 088f E8000000 		call	_ZN8UnitTest10CheckEqualERNS_11TestResultsEPKcS3_RKNS_11TestDetailsE
 1727      00
 1728              	.LEHE34:
 1729              	.LEHB35:
  70:TestChecks.cpp ****     CHECK_EQUAL(0, results.GetFailureCount());
 1730              		.loc 5 70 0
 1731 0894 E8000000 		call	_ZN8UnitTest11CurrentTest7DetailsEv
 1731      00
 1732 0899 488B08   		movq	(%rax), %rcx
 1733 089c 488D45D0 		leaq	-48(%rbp), %rax
 1734 08a0 BA460000 		movl	$70, %edx
 1734      00
 1735 08a5 4889CE   		movq	%rcx, %rsi
 1736 08a8 4889C7   		movq	%rax, %rdi
 1737 08ab E8000000 		call	_ZN8UnitTest11TestDetailsC1ERKS0_i
 1737      00
 1738              		.loc 5 70 0 is_stmt 0 discriminator 1
 1739 08b0 488D45B0 		leaq	-80(%rbp), %rax
 1740 08b4 4889C7   		movq	%rax, %rdi
 1741 08b7 E8000000 		call	_ZNK8UnitTest11TestResults15GetFailureCountEv
 1741      00
 1742 08bc 8945A4   		movl	%eax, -92(%rbp)
 1743 08bf C745A000 		movl	$0, -96(%rbp)
 1743      000000
 1744 08c6 E8000000 		call	_ZN8UnitTest11CurrentTest7ResultsEv
 1744      00
 1745 08cb 488B00   		movq	(%rax), %rax
 1746 08ce 488D4DD0 		leaq	-48(%rbp), %rcx
 1747 08d2 488D55A4 		leaq	-92(%rbp), %rdx
 1748 08d6 488D75A0 		leaq	-96(%rbp), %rsi
 1749 08da 4889C7   		movq	%rax, %rdi
 1750 08dd E8000000 		call	_ZN8UnitTest10CheckEqualIiiEEvRNS_11TestResultsERKT_RKT0_RKNS_11TestDetailsE
 1750      00
 1751              	.LEHE35:
 1752              	.LBE28:
  71:TestChecks.cpp **** }
 1753              		.loc 5 71 0 is_stmt 1
 1754 08e2 EB58     		jmp	.L71
 1755              	.L70:
 1756 08e4 4889C3   		movq	%rax, %rbx
 1757              	.LBB29:
  70:TestChecks.cpp ****     CHECK_EQUAL(0, results.GetFailureCount());
 1758              		.loc 5 70 0
 1759 08e7 E8000000 		call	__cxa_end_catch
 1759      00
 1760 08ec 4889D8   		movq	%rbx, %rax
 1761 08ef 4889C7   		movq	%rax, %rdi
 1762              	.LEHB36:
 1763 08f2 E8000000 		call	_Unwind_Resume
 1763      00
 1764              	.LEHE36:
 1765              	.L69:
 1766 08f7 4889C7   		movq	%rax, %rdi
 1767 08fa E8000000 		call	__cxa_begin_catch
 1767      00
 1768              	.LEHB37:
 1769 08ff E8000000 		call	_ZN8UnitTest11CurrentTest7DetailsEv
 1769      00
 1770 0904 488B08   		movq	(%rax), %rcx
 1771 0907 488D45D0 		leaq	-48(%rbp), %rax
 1772 090b BA460000 		movl	$70, %edx
 1772      00
 1773 0910 4889CE   		movq	%rcx, %rsi
 1774 0913 4889C7   		movq	%rax, %rdi
 1775 0916 E8000000 		call	_ZN8UnitTest11TestDetailsC1ERKS0_i
 1775      00
  70:TestChecks.cpp ****     CHECK_EQUAL(0, results.GetFailureCount());
 1776              		.loc 5 70 0 is_stmt 0 discriminator 1
 1777 091b E8000000 		call	_ZN8UnitTest11CurrentTest7ResultsEv
 1777      00
 1778 0920 488B00   		movq	(%rax), %rax
 1779 0923 488D4DD0 		leaq	-48(%rbp), %rcx
 1780 0927 BA000000 		movl	$.LC9, %edx
 1780      00
 1781 092c 4889CE   		movq	%rcx, %rsi
 1782 092f 4889C7   		movq	%rax, %rdi
 1783 0932 E8000000 		call	_ZN8UnitTest11TestResults13OnTestFailureERKNS_11TestDetailsEPKc
 1783      00
 1784              	.LEHE37:
 1785              	.LEHB38:
 1786 0937 E8000000 		call	__cxa_end_catch
 1786      00
 1787              	.LEHE38:
 1788              	.L71:
 1789              	.LBE29:
 1790              		.loc 5 71 0 is_stmt 1
 1791 093c 90       		nop
 1792 093d 4883C468 		addq	$104, %rsp
 1793 0941 5B       		popq	%rbx
 1794 0942 5D       		popq	%rbp
 1795              		.cfi_def_cfa 7, 8
 1796 0943 C3       		ret
 1797              		.cfi_endproc
 1798              	.LFE1056:
 1799              		.section	.gcc_except_table
 1800              		.align 4
 1801              	.LLSDA1056:
 1802 00d8 FF       		.byte	0xff
 1803 00d9 03       		.byte	0x3
 1804 00da 21       		.uleb128 .LLSDATT1056-.LLSDATTD1056
 1805              	.LLSDATTD1056:
 1806 00db 01       		.byte	0x1
 1807 00dc 19       		.uleb128 .LLSDACSE1056-.LLSDACSB1056
 1808              	.LLSDACSB1056:
 1809 00dd 21       		.uleb128 .LEHB34-.LFB1056
 1810 00de 43       		.uleb128 .LEHE34-.LEHB34
 1811 00df 00       		.uleb128 0
 1812 00e0 00       		.uleb128 0
 1813 00e1 64       		.uleb128 .LEHB35-.LFB1056
 1814 00e2 4E       		.uleb128 .LEHE35-.LEHB35
 1815 00e3 C701     		.uleb128 .L69-.LFB1056
 1816 00e5 01       		.uleb128 0x1
 1817 00e6 C201     		.uleb128 .LEHB36-.LFB1056
 1818 00e8 05       		.uleb128 .LEHE36-.LEHB36
 1819 00e9 00       		.uleb128 0
 1820 00ea 00       		.uleb128 0
 1821 00eb CF01     		.uleb128 .LEHB37-.LFB1056
 1822 00ed 38       		.uleb128 .LEHE37-.LEHB37
 1823 00ee B401     		.uleb128 .L70-.LFB1056
 1824 00f0 00       		.uleb128 0
 1825 00f1 8702     		.uleb128 .LEHB38-.LFB1056
 1826 00f3 05       		.uleb128 .LEHE38-.LEHB38
 1827 00f4 00       		.uleb128 0
 1828 00f5 00       		.uleb128 0
 1829              	.LLSDACSE1056:
 1830 00f6 01       		.byte	0x1
 1831 00f7 00       		.byte	0
 1832              		.align 4
 1833 00f8 00000000 		.long	0
 1834              	
 1835              	.LLSDATT1056:
 1836              		.text
 1838              		.section	.rodata
 1839              		.align 8
 1840              	.LC15:
 1841 0248 43686563 		.string	"CheckEqualFailureIncludesCheckExpectedAndActual"
 1841      6B457175 
 1841      616C4661 
 1841      696C7572 
 1841      65496E63 
 1842              		.text
 1843              		.align 2
 1845              	_ZN12_GLOBAL__N_151TestCheckEqualFailureIncludesCheckExpectedAndActualC2Ev:
 1846              	.LFB1058:
  72:TestChecks.cpp **** 
  73:TestChecks.cpp **** TEST(CheckEqualFailureIncludesCheckExpectedAndActual)
 1847              		.loc 5 73 0
 1848              		.cfi_startproc
 1849 0944 55       		pushq	%rbp
 1850              		.cfi_def_cfa_offset 16
 1851              		.cfi_offset 6, -16
 1852 0945 4889E5   		movq	%rsp, %rbp
 1853              		.cfi_def_cfa_register 6
 1854 0948 4883EC10 		subq	$16, %rsp
 1855 094c 48897DF8 		movq	%rdi, -8(%rbp)
 1856              	.LBB30:
 1857              		.loc 5 73 0
 1858 0950 E8000000 		call	_ZN13UnitTestSuite12GetSuiteNameEv
 1858      00
 1859 0955 4889C2   		movq	%rax, %rdx
 1860 0958 488B45F8 		movq	-8(%rbp), %rax
 1861 095c 41B84900 		movl	$73, %r8d
 1861      0000
 1862 0962 B9000000 		movl	$.LC2, %ecx
 1862      00
 1863 0967 BE000000 		movl	$.LC15, %esi
 1863      00
 1864 096c 4889C7   		movq	%rax, %rdi
 1865 096f E8000000 		call	_ZN8UnitTest4TestC2EPKcS2_S2_i
 1865      00
 1866 0974 488B45F8 		movq	-8(%rbp), %rax
 1867 0978 48C70000 		movq	$_ZTVN12_GLOBAL__N_151TestCheckEqualFailureIncludesCheckExpectedAndActualE+16, (%rax)
 1867      000000
 1868              	.LBE30:
 1869 097f C9       		leave
 1870              		.cfi_def_cfa 7, 8
 1871 0980 C3       		ret
 1872              		.cfi_endproc
 1873              	.LFE1058:
 1875              		.set	_ZN12_GLOBAL__N_151TestCheckEqualFailureIncludesCheckExpectedAndActualC1Ev,_ZN12_GLOBAL__N_15
 1876              		.local	_ZN12_GLOBAL__N_159testCheckEqualFailureIncludesCheckExpectedAndActualInstanceE
 1877              		.comm	_ZN12_GLOBAL__N_159testCheckEqualFailureIncludesCheckExpectedAndActualInstanceE,56,32
 1878              		.local	_ZN12_GLOBAL__N_152adderCheckEqualFailureIncludesCheckExpectedAndActualE
 1879              		.comm	_ZN12_GLOBAL__N_152adderCheckEqualFailureIncludesCheckExpectedAndActualE,1,1
 1880              		.section	.rodata
 1881              	.LC16:
 1882 0278 78706563 		.string	"xpected 1"
 1882      74656420 
 1882      3100
 1883 0282 00000000 		.align 8
 1883      0000
 1884              	.LC17:
 1885 0288 73747273 		.string	"strstr(reporter.lastFailedMessage, \"xpected 1\")"
 1885      74722872 
 1885      65706F72 
 1885      7465722E 
 1885      6C617374 
 1886              	.LC18:
 1887 02b8 77617320 		.string	"was 2"
 1887      3200
 1888 02be 0000     		.align 8
 1889              	.LC19:
 1890 02c0 73747273 		.string	"strstr(reporter.lastFailedMessage, \"was 2\")"
 1890      74722872 
 1890      65706F72 
 1890      7465722E 
 1890      6C617374 
 1891 02ec 00000000 		.align 8
 1892              	.LC20:
 1893 02f0 556E6861 		.string	"Unhandled exception in CHECK(strstr(reporter.lastFailedMessage, \"xpected 1\"))"
 1893      6E646C65 
 1893      64206578 
 1893      63657074 
 1893      696F6E20 
 1894 033e 0000     		.align 8
 1895              	.LC21:
 1896 0340 556E6861 		.string	"Unhandled exception in CHECK(strstr(reporter.lastFailedMessage, \"was 2\"))"
 1896      6E646C65 
 1896      64206578 
 1896      63657074 
 1896      696F6E20 
 1897              		.text
 1898 0981 90       		.align 2
 1900              	_ZNK12_GLOBAL__N_151TestCheckEqualFailureIncludesCheckExpectedAndActual7RunImplEv:
 1901              	.LFB1060:
  74:TestChecks.cpp **** {
 1902              		.loc 5 74 0
 1903              		.cfi_startproc
 1904              		.cfi_personality 0x3,__gxx_personality_v0
 1905              		.cfi_lsda 0x3,.LLSDA1060
 1906 0982 55       		pushq	%rbp
 1907              		.cfi_def_cfa_offset 16
 1908              		.cfi_offset 6, -16
 1909 0983 4889E5   		movq	%rsp, %rbp
 1910              		.cfi_def_cfa_register 6
 1911 0986 53       		pushq	%rbx
 1912 0987 4881ECA8 		subq	$2216, %rsp
 1912      080000
 1913              		.cfi_offset 3, -24
 1914 098e 4889BD58 		movq	%rdi, -2216(%rbp)
 1914      F7FFFF
 1915              		.loc 5 74 0
 1916 0995 64488B04 		movq	%fs:40, %rax
 1916      25280000 
 1916      00
 1917 099e 488945E8 		movq	%rax, -24(%rbp)
 1918 09a2 31C0     		xorl	%eax, %eax
 1919              	.LBB31:
  75:TestChecks.cpp ****     RecordingReporter reporter;
 1920              		.loc 5 75 0
 1921 09a4 488D85B0 		leaq	-2128(%rbp), %rax
 1921      F7FFFF
 1922 09ab 4889C7   		movq	%rax, %rdi
 1923 09ae E8000000 		call	_ZN17RecordingReporterC1Ev
 1923      00
  76:TestChecks.cpp ****     TestResults results(&reporter);
 1924              		.loc 5 76 0
 1925 09b3 488D95B0 		leaq	-2128(%rbp), %rdx
 1925      F7FFFF
 1926 09ba 488D8570 		leaq	-2192(%rbp), %rax
 1926      F7FFFF
 1927 09c1 4889D6   		movq	%rdx, %rsi
 1928 09c4 4889C7   		movq	%rax, %rdi
 1929              	.LEHB39:
 1930 09c7 E8000000 		call	_ZN8UnitTest11TestResultsC1EPNS_12TestReporterE
 1930      00
  77:TestChecks.cpp ****     const int something = 2;
 1931              		.loc 5 77 0
 1932 09cc C78568F7 		movl	$2, -2200(%rbp)
 1932      FFFF0200 
 1932      0000
  78:TestChecks.cpp ****     CheckEqual(results, 1, something, TestDetails("", "", "", 0));
 1933              		.loc 5 78 0
 1934 09d6 488D8590 		leaq	-2160(%rbp), %rax
 1934      F7FFFF
 1935 09dd 41B80000 		movl	$0, %r8d
 1935      0000
 1936 09e3 B9000000 		movl	$.LC6, %ecx
 1936      00
 1937 09e8 BA000000 		movl	$.LC6, %edx
 1937      00
 1938 09ed BE000000 		movl	$.LC6, %esi
 1938      00
 1939 09f2 4889C7   		movq	%rax, %rdi
 1940 09f5 E8000000 		call	_ZN8UnitTest11TestDetailsC1EPKcS2_S2_i
 1940      00
 1941              		.loc 5 78 0 is_stmt 0 discriminator 1
 1942 09fa C7856CF7 		movl	$1, -2196(%rbp)
 1942      FFFF0100 
 1942      0000
 1943 0a04 488D8D90 		leaq	-2160(%rbp), %rcx
 1943      F7FFFF
 1944 0a0b 488D9568 		leaq	-2200(%rbp), %rdx
 1944      F7FFFF
 1945 0a12 488DB56C 		leaq	-2196(%rbp), %rsi
 1945      F7FFFF
 1946 0a19 488D8570 		leaq	-2192(%rbp), %rax
 1946      F7FFFF
 1947 0a20 4889C7   		movq	%rax, %rdi
 1948 0a23 E8000000 		call	_ZN8UnitTest10CheckEqualIiiEEvRNS_11TestResultsERKT_RKT0_RKNS_11TestDetailsE
 1948      00
 1949              	.LEHE39:
  79:TestChecks.cpp **** 
  80:TestChecks.cpp **** 	using namespace std;
  81:TestChecks.cpp ****     CHECK(strstr(reporter.lastFailedMessage, "xpected 1"));
 1950              		.loc 5 81 0 is_stmt 1 discriminator 1
 1951 0a28 488D85B0 		leaq	-2128(%rbp), %rax
 1951      F7FFFF
 1952 0a2f 48051405 		addq	$1300, %rax
 1952      0000
 1953 0a35 BE000000 		movl	$.LC16, %esi
 1953      00
 1954 0a3a 4889C7   		movq	%rax, %rdi
 1955 0a3d E8000000 		call	strstr
 1955      00
 1956 0a42 4889C7   		movq	%rax, %rdi
 1957 0a45 E8000000 		call	_ZN8UnitTest5CheckIPcEEbT_
 1957      00
 1958 0a4a 83F001   		xorl	$1, %eax
 1959 0a4d 84C0     		testb	%al, %al
 1960 0a4f 743E     		je	.L74
 1961              	.LEHB40:
 1962 0a51 E8000000 		call	_ZN8UnitTest11CurrentTest7DetailsEv
 1962      00
 1963 0a56 488B08   		movq	(%rax), %rcx
 1964 0a59 488D8590 		leaq	-2160(%rbp), %rax
 1964      F7FFFF
 1965 0a60 BA510000 		movl	$81, %edx
 1965      00
 1966 0a65 4889CE   		movq	%rcx, %rsi
 1967 0a68 4889C7   		movq	%rax, %rdi
 1968 0a6b E8000000 		call	_ZN8UnitTest11TestDetailsC1ERKS0_i
 1968      00
 1969 0a70 E8000000 		call	_ZN8UnitTest11CurrentTest7ResultsEv
 1969      00
 1970 0a75 488B00   		movq	(%rax), %rax
 1971 0a78 488D8D90 		leaq	-2160(%rbp), %rcx
 1971      F7FFFF
 1972 0a7f BA000000 		movl	$.LC17, %edx
 1972      00
 1973 0a84 4889CE   		movq	%rcx, %rsi
 1974 0a87 4889C7   		movq	%rax, %rdi
 1975 0a8a E8000000 		call	_ZN8UnitTest11TestResults13OnTestFailureERKNS_11TestDetailsEPKc
 1975      00
 1976              	.LEHE40:
 1977              	.L74:
  82:TestChecks.cpp ****     CHECK(strstr(reporter.lastFailedMessage, "was 2"));
 1978              		.loc 5 82 0
 1979 0a8f 488D85B0 		leaq	-2128(%rbp), %rax
 1979      F7FFFF
 1980 0a96 48051405 		addq	$1300, %rax
 1980      0000
 1981 0a9c BE000000 		movl	$.LC18, %esi
 1981      00
 1982 0aa1 4889C7   		movq	%rax, %rdi
 1983 0aa4 E8000000 		call	strstr
 1983      00
 1984 0aa9 4889C7   		movq	%rax, %rdi
 1985 0aac E8000000 		call	_ZN8UnitTest5CheckIPcEEbT_
 1985      00
 1986 0ab1 83F001   		xorl	$1, %eax
 1987 0ab4 84C0     		testb	%al, %al
 1988 0ab6 743E     		je	.L75
 1989              	.LEHB41:
 1990              		.loc 5 82 0 is_stmt 0 discriminator 1
 1991 0ab8 E8000000 		call	_ZN8UnitTest11CurrentTest7DetailsEv
 1991      00
 1992 0abd 488B08   		movq	(%rax), %rcx
 1993 0ac0 488D8590 		leaq	-2160(%rbp), %rax
 1993      F7FFFF
 1994 0ac7 BA520000 		movl	$82, %edx
 1994      00
 1995 0acc 4889CE   		movq	%rcx, %rsi
 1996 0acf 4889C7   		movq	%rax, %rdi
 1997 0ad2 E8000000 		call	_ZN8UnitTest11TestDetailsC1ERKS0_i
 1997      00
 1998 0ad7 E8000000 		call	_ZN8UnitTest11CurrentTest7ResultsEv
 1998      00
 1999 0adc 488B00   		movq	(%rax), %rax
 2000 0adf 488D8D90 		leaq	-2160(%rbp), %rcx
 2000      F7FFFF
 2001 0ae6 BA000000 		movl	$.LC19, %edx
 2001      00
 2002 0aeb 4889CE   		movq	%rcx, %rsi
 2003 0aee 4889C7   		movq	%rax, %rdi
 2004 0af1 E8000000 		call	_ZN8UnitTest11TestResults13OnTestFailureERKNS_11TestDetailsEPKc
 2004      00
 2005              	.LEHE41:
 2006              	.L75:
 2007              		.loc 5 82 0 discriminator 2
 2008 0af6 488D85B0 		leaq	-2128(%rbp), %rax
 2008      F7FFFF
 2009 0afd 4889C7   		movq	%rax, %rdi
 2010              	.LEHB42:
 2011 0b00 E8000000 		call	_ZN17RecordingReporterD1Ev
 2011      00
 2012              	.LEHE42:
 2013              	.LBE31:
  83:TestChecks.cpp **** }
 2014              		.loc 5 83 0 is_stmt 1 discriminator 2
 2015 0b05 488B45E8 		movq	-24(%rbp), %rax
 2016 0b09 64483304 		xorq	%fs:40, %rax
 2016      25280000 
 2016      00
 2017 0b12 0F84DE00 		je	.L81
 2017      0000
 2018 0b18 E9D40000 		jmp	.L87
 2018      00
 2019              	.L84:
 2020 0b1d 4889C3   		movq	%rax, %rbx
 2021              	.LBB32:
  81:TestChecks.cpp ****     CHECK(strstr(reporter.lastFailedMessage, "was 2"));
 2022              		.loc 5 81 0
 2023 0b20 E8000000 		call	__cxa_end_catch
 2023      00
 2024 0b25 E9AD0000 		jmp	.L77
 2024      00
 2025              	.L83:
 2026 0b2a 4889C7   		movq	%rax, %rdi
 2027 0b2d E8000000 		call	__cxa_begin_catch
 2027      00
 2028              	.LEHB43:
 2029 0b32 E8000000 		call	_ZN8UnitTest11CurrentTest7DetailsEv
 2029      00
 2030 0b37 488B08   		movq	(%rax), %rcx
 2031 0b3a 488D8590 		leaq	-2160(%rbp), %rax
 2031      F7FFFF
 2032 0b41 BA510000 		movl	$81, %edx
 2032      00
 2033 0b46 4889CE   		movq	%rcx, %rsi
 2034 0b49 4889C7   		movq	%rax, %rdi
 2035 0b4c E8000000 		call	_ZN8UnitTest11TestDetailsC1ERKS0_i
 2035      00
  81:TestChecks.cpp ****     CHECK(strstr(reporter.lastFailedMessage, "was 2"));
 2036              		.loc 5 81 0 is_stmt 0 discriminator 1
 2037 0b51 E8000000 		call	_ZN8UnitTest11CurrentTest7ResultsEv
 2037      00
 2038 0b56 488B00   		movq	(%rax), %rax
 2039 0b59 488D8D90 		leaq	-2160(%rbp), %rcx
 2039      F7FFFF
 2040 0b60 BA000000 		movl	$.LC20, %edx
 2040      00
 2041 0b65 4889CE   		movq	%rcx, %rsi
 2042 0b68 4889C7   		movq	%rax, %rdi
 2043 0b6b E8000000 		call	_ZN8UnitTest11TestResults13OnTestFailureERKNS_11TestDetailsEPKc
 2043      00
 2044              	.LEHE43:
 2045              	.LEHB44:
 2046 0b70 E8000000 		call	__cxa_end_catch
 2046      00
 2047              	.LEHE44:
  81:TestChecks.cpp ****     CHECK(strstr(reporter.lastFailedMessage, "was 2"));
 2048              		.loc 5 81 0
 2049 0b75 E915FFFF 		jmp	.L74
 2049      FF
 2050              	.L86:
 2051 0b7a 4889C3   		movq	%rax, %rbx
  82:TestChecks.cpp ****     CHECK(strstr(reporter.lastFailedMessage, "was 2"));
 2052              		.loc 5 82 0 is_stmt 1
 2053 0b7d E8000000 		call	__cxa_end_catch
 2053      00
 2054 0b82 EB53     		jmp	.L77
 2055              	.L85:
 2056 0b84 4889C7   		movq	%rax, %rdi
 2057 0b87 E8000000 		call	__cxa_begin_catch
 2057      00
 2058              	.LEHB45:
 2059 0b8c E8000000 		call	_ZN8UnitTest11CurrentTest7DetailsEv
 2059      00
 2060 0b91 488B08   		movq	(%rax), %rcx
 2061 0b94 488D8590 		leaq	-2160(%rbp), %rax
 2061      F7FFFF
 2062 0b9b BA520000 		movl	$82, %edx
 2062      00
 2063 0ba0 4889CE   		movq	%rcx, %rsi
 2064 0ba3 4889C7   		movq	%rax, %rdi
 2065 0ba6 E8000000 		call	_ZN8UnitTest11TestDetailsC1ERKS0_i
 2065      00
  82:TestChecks.cpp ****     CHECK(strstr(reporter.lastFailedMessage, "was 2"));
 2066              		.loc 5 82 0 is_stmt 0 discriminator 1
 2067 0bab E8000000 		call	_ZN8UnitTest11CurrentTest7ResultsEv
 2067      00
 2068 0bb0 488B00   		movq	(%rax), %rax
 2069 0bb3 488D8D90 		leaq	-2160(%rbp), %rcx
 2069      F7FFFF
 2070 0bba BA000000 		movl	$.LC21, %edx
 2070      00
 2071 0bbf 4889CE   		movq	%rcx, %rsi
 2072 0bc2 4889C7   		movq	%rax, %rdi
 2073 0bc5 E8000000 		call	_ZN8UnitTest11TestResults13OnTestFailureERKNS_11TestDetailsEPKc
 2073      00
 2074              	.LEHE45:
 2075              	.LEHB46:
 2076 0bca E8000000 		call	__cxa_end_catch
 2076      00
 2077              	.LEHE46:
  82:TestChecks.cpp ****     CHECK(strstr(reporter.lastFailedMessage, "was 2"));
 2078              		.loc 5 82 0
 2079 0bcf E922FFFF 		jmp	.L75
 2079      FF
 2080              	.L82:
 2081 0bd4 4889C3   		movq	%rax, %rbx
 2082              	.L77:
 2083 0bd7 488D85B0 		leaq	-2128(%rbp), %rax
 2083      F7FFFF
 2084 0bde 4889C7   		movq	%rax, %rdi
 2085 0be1 E8000000 		call	_ZN17RecordingReporterD1Ev
 2085      00
 2086 0be6 4889D8   		movq	%rbx, %rax
 2087 0be9 4889C7   		movq	%rax, %rdi
 2088              	.LEHB47:
 2089 0bec E8000000 		call	_Unwind_Resume
 2089      00
 2090              	.LEHE47:
 2091              	.L87:
 2092              	.LBE32:
 2093              		.loc 5 83 0 is_stmt 1
 2094 0bf1 E8000000 		call	__stack_chk_fail
 2094      00
 2095              	.L81:
 2096 0bf6 4881C4A8 		addq	$2216, %rsp
 2096      080000
 2097 0bfd 5B       		popq	%rbx
 2098 0bfe 5D       		popq	%rbp
 2099              		.cfi_def_cfa 7, 8
 2100 0bff C3       		ret
 2101              		.cfi_endproc
 2102              	.LFE1060:
 2103              		.section	.gcc_except_table
 2104              		.align 4
 2105              	.LLSDA1060:
 2106 00fc FF       		.byte	0xff
 2107 00fd 03       		.byte	0x3
 2108 00fe 3D       		.uleb128 .LLSDATT1060-.LLSDATTD1060
 2109              	.LLSDATTD1060:
 2110 00ff 01       		.byte	0x1
 2111 0100 33       		.uleb128 .LLSDACSE1060-.LLSDACSB1060
 2112              	.LLSDACSB1060:
 2113 0101 45       		.uleb128 .LEHB39-.LFB1060
 2114 0102 61       		.uleb128 .LEHE39-.LEHB39
 2115 0103 D204     		.uleb128 .L82-.LFB1060
 2116 0105 00       		.uleb128 0
 2117 0106 CF01     		.uleb128 .LEHB40-.LFB1060
 2118 0108 3E       		.uleb128 .LEHE40-.LEHB40
 2119 0109 A803     		.uleb128 .L83-.LFB1060
 2120 010b 01       		.uleb128 0x1
 2121 010c B602     		.uleb128 .LEHB41-.LFB1060
 2122 010e 3E       		.uleb128 .LEHE41-.LEHB41
 2123 010f 8204     		.uleb128 .L85-.LFB1060
 2124 0111 01       		.uleb128 0x1
 2125 0112 FE02     		.uleb128 .LEHB42-.LFB1060
 2126 0114 05       		.uleb128 .LEHE42-.LEHB42
 2127 0115 00       		.uleb128 0
 2128 0116 00       		.uleb128 0
 2129 0117 B003     		.uleb128 .LEHB43-.LFB1060
 2130 0119 3E       		.uleb128 .LEHE43-.LEHB43
 2131 011a 9B03     		.uleb128 .L84-.LFB1060
 2132 011c 00       		.uleb128 0
 2133 011d EE03     		.uleb128 .LEHB44-.LFB1060
 2134 011f 05       		.uleb128 .LEHE44-.LEHB44
 2135 0120 D204     		.uleb128 .L82-.LFB1060
 2136 0122 00       		.uleb128 0
 2137 0123 8A04     		.uleb128 .LEHB45-.LFB1060
 2138 0125 3E       		.uleb128 .LEHE45-.LEHB45
 2139 0126 F803     		.uleb128 .L86-.LFB1060
 2140 0128 00       		.uleb128 0
 2141 0129 C804     		.uleb128 .LEHB46-.LFB1060
 2142 012b 05       		.uleb128 .LEHE46-.LEHB46
 2143 012c D204     		.uleb128 .L82-.LFB1060
 2144 012e 00       		.uleb128 0
 2145 012f EA04     		.uleb128 .LEHB47-.LFB1060
 2146 0131 05       		.uleb128 .LEHE47-.LEHB47
 2147 0132 00       		.uleb128 0
 2148 0133 00       		.uleb128 0
 2149              	.LLSDACSE1060:
 2150 0134 01       		.byte	0x1
 2151 0135 00       		.byte	0
 2152 0136 0000     		.align 4
 2153 0138 00000000 		.long	0
 2154              	
 2155              	.LLSDATT1060:
 2156              		.text
 2158              		.section	.rodata
 2159 038a 00000000 		.align 8
 2159      0000
 2160              	.LC22:
 2161 0390 43686563 		.string	"CheckEqualFailureIncludesDetails"
 2161      6B457175 
 2161      616C4661 
 2161      696C7572 
 2161      65496E63 
 2162              		.text
 2163              		.align 2
 2165              	_ZN12_GLOBAL__N_136TestCheckEqualFailureIncludesDetailsC2Ev:
 2166              	.LFB1062:
  84:TestChecks.cpp **** 
  85:TestChecks.cpp **** TEST(CheckEqualFailureIncludesDetails)
 2167              		.loc 5 85 0
 2168              		.cfi_startproc
 2169 0c00 55       		pushq	%rbp
 2170              		.cfi_def_cfa_offset 16
 2171              		.cfi_offset 6, -16
 2172 0c01 4889E5   		movq	%rsp, %rbp
 2173              		.cfi_def_cfa_register 6
 2174 0c04 4883EC10 		subq	$16, %rsp
 2175 0c08 48897DF8 		movq	%rdi, -8(%rbp)
 2176              	.LBB33:
 2177              		.loc 5 85 0
 2178 0c0c E8000000 		call	_ZN13UnitTestSuite12GetSuiteNameEv
 2178      00
 2179 0c11 4889C2   		movq	%rax, %rdx
 2180 0c14 488B45F8 		movq	-8(%rbp), %rax
 2181 0c18 41B85500 		movl	$85, %r8d
 2181      0000
 2182 0c1e B9000000 		movl	$.LC2, %ecx
 2182      00
 2183 0c23 BE000000 		movl	$.LC22, %esi
 2183      00
 2184 0c28 4889C7   		movq	%rax, %rdi
 2185 0c2b E8000000 		call	_ZN8UnitTest4TestC2EPKcS2_S2_i
 2185      00
 2186 0c30 488B45F8 		movq	-8(%rbp), %rax
 2187 0c34 48C70000 		movq	$_ZTVN12_GLOBAL__N_136TestCheckEqualFailureIncludesDetailsE+16, (%rax)
 2187      000000
 2188              	.LBE33:
 2189 0c3b C9       		leave
 2190              		.cfi_def_cfa 7, 8
 2191 0c3c C3       		ret
 2192              		.cfi_endproc
 2193              	.LFE1062:
 2195              		.set	_ZN12_GLOBAL__N_136TestCheckEqualFailureIncludesDetailsC1Ev,_ZN12_GLOBAL__N_136TestCheckEqual
 2196              		.local	_ZN12_GLOBAL__N_144testCheckEqualFailureIncludesDetailsInstanceE
 2197              		.comm	_ZN12_GLOBAL__N_144testCheckEqualFailureIncludesDetailsInstanceE,56,32
 2198              		.local	_ZN12_GLOBAL__N_137adderCheckEqualFailureIncludesDetailsE
 2199              		.comm	_ZN12_GLOBAL__N_137adderCheckEqualFailureIncludesDetailsE,1,1
 2200              		.section	.rodata
 2201              	.LC23:
 2202 03b1 66696C65 		.string	"file.h"
 2202      2E6800
 2203              	.LC24:
 2204 03b8 6D797375 		.string	"mysuite"
 2204      69746500 
 2205              	.LC25:
 2206 03c0 6D797465 		.string	"mytest"
 2206      737400
 2207 03c7 00       		.align 8
 2208              	.LC26:
 2209 03c8 556E6861 		.string	"Unhandled exception in CHECK_EQUAL(\"mytest\", reporter.lastFailedTest)"
 2209      6E646C65 
 2209      64206578 
 2209      63657074 
 2209      696F6E20 
 2210 040e 0000     		.align 8
 2211              	.LC27:
 2212 0410 556E6861 		.string	"Unhandled exception in CHECK_EQUAL(\"mysuite\", reporter.lastFailedSuite)"
 2212      6E646C65 
 2212      64206578 
 2212      63657074 
 2212      696F6E20 
 2213              		.align 8
 2214              	.LC28:
 2215 0458 556E6861 		.string	"Unhandled exception in CHECK_EQUAL(\"file.h\", reporter.lastFailedFile)"
 2215      6E646C65 
 2215      64206578 
 2215      63657074 
 2215      696F6E20 
 2216 049e 0000     		.align 8
 2217              	.LC29:
 2218 04a0 556E6861 		.string	"Unhandled exception in CHECK_EQUAL(101, reporter.lastFailedLine)"
 2218      6E646C65 
 2218      64206578 
 2218      63657074 
 2218      696F6E20 
 2219              		.text
 2220 0c3d 90       		.align 2
 2222              	_ZNK12_GLOBAL__N_136TestCheckEqualFailureIncludesDetails7RunImplEv:
 2223              	.LFB1064:
  86:TestChecks.cpp **** {
 2224              		.loc 5 86 0
 2225              		.cfi_startproc
 2226              		.cfi_personality 0x3,__gxx_personality_v0
 2227              		.cfi_lsda 0x3,.LLSDA1064
 2228 0c3e 55       		pushq	%rbp
 2229              		.cfi_def_cfa_offset 16
 2230              		.cfi_offset 6, -16
 2231 0c3f 4889E5   		movq	%rsp, %rbp
 2232              		.cfi_def_cfa_register 6
 2233 0c42 53       		pushq	%rbx
 2234 0c43 4881ECC8 		subq	$2248, %rsp
 2234      080000
 2235              		.cfi_offset 3, -24
 2236 0c4a 4889BD38 		movq	%rdi, -2248(%rbp)
 2236      F7FFFF
 2237              		.loc 5 86 0
 2238 0c51 64488B04 		movq	%fs:40, %rax
 2238      25280000 
 2238      00
 2239 0c5a 488945E8 		movq	%rax, -24(%rbp)
 2240 0c5e 31C0     		xorl	%eax, %eax
 2241              	.LBB34:
  87:TestChecks.cpp ****     RecordingReporter reporter;
 2242              		.loc 5 87 0
 2243 0c60 488D85B0 		leaq	-2128(%rbp), %rax
 2243      F7FFFF
 2244 0c67 4889C7   		movq	%rax, %rdi
 2245 0c6a E8000000 		call	_ZN17RecordingReporterC1Ev
 2245      00
  88:TestChecks.cpp ****     TestResults results(&reporter);
 2246              		.loc 5 88 0
 2247 0c6f 488D95B0 		leaq	-2128(%rbp), %rdx
 2247      F7FFFF
 2248 0c76 488D8550 		leaq	-2224(%rbp), %rax
 2248      F7FFFF
 2249 0c7d 4889D6   		movq	%rdx, %rsi
 2250 0c80 4889C7   		movq	%rax, %rdi
 2251              	.LEHB48:
 2252 0c83 E8000000 		call	_ZN8UnitTest11TestResultsC1EPNS_12TestReporterE
 2252      00
  89:TestChecks.cpp ****     TestDetails const details("mytest", "mysuite", "file.h", 101);
 2253              		.loc 5 89 0
 2254 0c88 488D8570 		leaq	-2192(%rbp), %rax
 2254      F7FFFF
 2255 0c8f 41B86500 		movl	$101, %r8d
 2255      0000
 2256 0c95 B9000000 		movl	$.LC23, %ecx
 2256      00
 2257 0c9a BA000000 		movl	$.LC24, %edx
 2257      00
 2258 0c9f BE000000 		movl	$.LC25, %esi
 2258      00
 2259 0ca4 4889C7   		movq	%rax, %rdi
 2260 0ca7 E8000000 		call	_ZN8UnitTest11TestDetailsC1EPKcS2_S2_i
 2260      00
  90:TestChecks.cpp **** 
  91:TestChecks.cpp ****     CheckEqual(results, 1, 2, details);
 2261              		.loc 5 91 0
 2262 0cac C78590F7 		movl	$2, -2160(%rbp)
 2262      FFFF0200 
 2262      0000
 2263 0cb6 C7854CF7 		movl	$1, -2228(%rbp)
 2263      FFFF0100 
 2263      0000
 2264 0cc0 488D8D70 		leaq	-2192(%rbp), %rcx
 2264      F7FFFF
 2265 0cc7 488D9590 		leaq	-2160(%rbp), %rdx
 2265      F7FFFF
 2266 0cce 488DB54C 		leaq	-2228(%rbp), %rsi
 2266      F7FFFF
 2267 0cd5 488D8550 		leaq	-2224(%rbp), %rax
 2267      F7FFFF
 2268 0cdc 4889C7   		movq	%rax, %rdi
 2269 0cdf E8000000 		call	_ZN8UnitTest10CheckEqualIiiEEvRNS_11TestResultsERKT_RKT0_RKNS_11TestDetailsE
 2269      00
 2270              	.LEHE48:
 2271              	.LEHB49:
  92:TestChecks.cpp **** 
  93:TestChecks.cpp ****     CHECK_EQUAL("mytest", reporter.lastFailedTest);
 2272              		.loc 5 93 0 discriminator 1
 2273 0ce4 E8000000 		call	_ZN8UnitTest11CurrentTest7DetailsEv
 2273      00
 2274 0ce9 488B08   		movq	(%rax), %rcx
 2275 0cec 488D8590 		leaq	-2160(%rbp), %rax
 2275      F7FFFF
 2276 0cf3 BA5D0000 		movl	$93, %edx
 2276      00
 2277 0cf8 4889CE   		movq	%rcx, %rsi
 2278 0cfb 4889C7   		movq	%rax, %rdi
 2279 0cfe E8000000 		call	_ZN8UnitTest11TestDetailsC1ERKS0_i
 2279      00
 2280 0d03 E8000000 		call	_ZN8UnitTest11CurrentTest7ResultsEv
 2280      00
 2281 0d08 488B00   		movq	(%rax), %rax
 2282 0d0b 488D9590 		leaq	-2160(%rbp), %rdx
 2282      F7FFFF
 2283 0d12 488D8DB0 		leaq	-2128(%rbp), %rcx
 2283      F7FFFF
 2284 0d19 488DB114 		leaq	1044(%rcx), %rsi
 2284      040000
 2285 0d20 4889D1   		movq	%rdx, %rcx
 2286 0d23 4889F2   		movq	%rsi, %rdx
 2287 0d26 BE000000 		movl	$.LC25, %esi
 2287      00
 2288 0d2b 4889C7   		movq	%rax, %rdi
 2289 0d2e E8000000 		call	_ZN8UnitTest10CheckEqualERNS_11TestResultsEPKcPcRKNS_11TestDetailsE
 2289      00
 2290              	.LEHE49:
 2291              	.L93:
 2292              	.LEHB50:
  94:TestChecks.cpp ****     CHECK_EQUAL("mysuite", reporter.lastFailedSuite);
 2293              		.loc 5 94 0
 2294 0d33 E8000000 		call	_ZN8UnitTest11CurrentTest7DetailsEv
 2294      00
 2295 0d38 488B08   		movq	(%rax), %rcx
 2296 0d3b 488D8590 		leaq	-2160(%rbp), %rax
 2296      F7FFFF
 2297 0d42 BA5E0000 		movl	$94, %edx
 2297      00
 2298 0d47 4889CE   		movq	%rcx, %rsi
 2299 0d4a 4889C7   		movq	%rax, %rdi
 2300 0d4d E8000000 		call	_ZN8UnitTest11TestDetailsC1ERKS0_i
 2300      00
 2301              		.loc 5 94 0 is_stmt 0 discriminator 1
 2302 0d52 E8000000 		call	_ZN8UnitTest11CurrentTest7ResultsEv
 2302      00
 2303 0d57 488B00   		movq	(%rax), %rax
 2304 0d5a 488D9590 		leaq	-2160(%rbp), %rdx
 2304      F7FFFF
 2305 0d61 488D8DB0 		leaq	-2128(%rbp), %rcx
 2305      F7FFFF
 2306 0d68 488DB114 		leaq	788(%rcx), %rsi
 2306      030000
 2307 0d6f 4889D1   		movq	%rdx, %rcx
 2308 0d72 4889F2   		movq	%rsi, %rdx
 2309 0d75 BE000000 		movl	$.LC24, %esi
 2309      00
 2310 0d7a 4889C7   		movq	%rax, %rdi
 2311 0d7d E8000000 		call	_ZN8UnitTest10CheckEqualERNS_11TestResultsEPKcPcRKNS_11TestDetailsE
 2311      00
 2312              	.LEHE50:
 2313              	.L96:
 2314              	.LEHB51:
  95:TestChecks.cpp ****     CHECK_EQUAL("file.h", reporter.lastFailedFile);
 2315              		.loc 5 95 0 is_stmt 1
 2316 0d82 E8000000 		call	_ZN8UnitTest11CurrentTest7DetailsEv
 2316      00
 2317 0d87 488B08   		movq	(%rax), %rcx
 2318 0d8a 488D8590 		leaq	-2160(%rbp), %rax
 2318      F7FFFF
 2319 0d91 BA5F0000 		movl	$95, %edx
 2319      00
 2320 0d96 4889CE   		movq	%rcx, %rsi
 2321 0d99 4889C7   		movq	%rax, %rdi
 2322 0d9c E8000000 		call	_ZN8UnitTest11TestDetailsC1ERKS0_i
 2322      00
 2323              		.loc 5 95 0 is_stmt 0 discriminator 1
 2324 0da1 E8000000 		call	_ZN8UnitTest11CurrentTest7ResultsEv
 2324      00
 2325 0da6 488B00   		movq	(%rax), %rax
 2326 0da9 488D9590 		leaq	-2160(%rbp), %rdx
 2326      F7FFFF
 2327 0db0 488D8DB0 		leaq	-2128(%rbp), %rcx
 2327      F7FFFF
 2328 0db7 488DB110 		leaq	528(%rcx), %rsi
 2328      020000
 2329 0dbe 4889D1   		movq	%rdx, %rcx
 2330 0dc1 4889F2   		movq	%rsi, %rdx
 2331 0dc4 BE000000 		movl	$.LC23, %esi
 2331      00
 2332 0dc9 4889C7   		movq	%rax, %rdi
 2333 0dcc E8000000 		call	_ZN8UnitTest10CheckEqualERNS_11TestResultsEPKcPcRKNS_11TestDetailsE
 2333      00
 2334              	.LEHE51:
 2335              	.L99:
 2336              	.LEHB52:
  96:TestChecks.cpp ****     CHECK_EQUAL(101, reporter.lastFailedLine);
 2337              		.loc 5 96 0 is_stmt 1
 2338 0dd1 E8000000 		call	_ZN8UnitTest11CurrentTest7DetailsEv
 2338      00
 2339 0dd6 488B08   		movq	(%rax), %rcx
 2340 0dd9 488D8590 		leaq	-2160(%rbp), %rax
 2340      F7FFFF
 2341 0de0 BA600000 		movl	$96, %edx
 2341      00
 2342 0de5 4889CE   		movq	%rcx, %rsi
 2343 0de8 4889C7   		movq	%rax, %rdi
 2344 0deb E8000000 		call	_ZN8UnitTest11TestDetailsC1ERKS0_i
 2344      00
 2345              		.loc 5 96 0 is_stmt 0 discriminator 1
 2346 0df0 C7854CF7 		movl	$101, -2228(%rbp)
 2346      FFFF6500 
 2346      0000
 2347 0dfa E8000000 		call	_ZN8UnitTest11CurrentTest7ResultsEv
 2347      00
 2348 0dff 488B00   		movq	(%rax), %rax
 2349 0e02 488D9590 		leaq	-2160(%rbp), %rdx
 2349      F7FFFF
 2350 0e09 488D8DB0 		leaq	-2128(%rbp), %rcx
 2350      F7FFFF
 2351 0e10 488DB910 		leaq	784(%rcx), %rdi
 2351      030000
 2352 0e17 488DB54C 		leaq	-2228(%rbp), %rsi
 2352      F7FFFF
 2353 0e1e 4889D1   		movq	%rdx, %rcx
 2354 0e21 4889FA   		movq	%rdi, %rdx
 2355 0e24 4889C7   		movq	%rax, %rdi
 2356 0e27 E8000000 		call	_ZN8UnitTest10CheckEqualIiiEEvRNS_11TestResultsERKT_RKT0_RKNS_11TestDetailsE
 2356      00
 2357              	.LEHE52:
 2358              	.L102:
 2359              		.loc 5 96 0 discriminator 2
 2360 0e2c 488D85B0 		leaq	-2128(%rbp), %rax
 2360      F7FFFF
 2361 0e33 4889C7   		movq	%rax, %rdi
 2362              	.LEHB53:
 2363 0e36 E8000000 		call	_ZN17RecordingReporterD1Ev
 2363      00
 2364              	.LEHE53:
 2365              	.LBE34:
  97:TestChecks.cpp **** }
 2366              		.loc 5 97 0 is_stmt 1 discriminator 2
 2367 0e3b 488B45E8 		movq	-24(%rbp), %rax
 2368 0e3f 64483304 		xorq	%fs:40, %rax
 2368      25280000 
 2368      00
 2369 0e48 0F849801 		je	.L103
 2369      0000
 2370 0e4e E98E0100 		jmp	.L113
 2370      00
 2371              	.L106:
 2372 0e53 4889C3   		movq	%rax, %rbx
 2373              	.LBB35:
  93:TestChecks.cpp ****     CHECK_EQUAL("mysuite", reporter.lastFailedSuite);
 2374              		.loc 5 93 0
 2375 0e56 E8000000 		call	__cxa_end_catch
 2375      00
 2376 0e5b E9670100 		jmp	.L91
 2376      00
 2377              	.L105:
 2378 0e60 4889C7   		movq	%rax, %rdi
 2379 0e63 E8000000 		call	__cxa_begin_catch
 2379      00
 2380              	.LEHB54:
 2381 0e68 E8000000 		call	_ZN8UnitTest11CurrentTest7DetailsEv
 2381      00
 2382 0e6d 488B08   		movq	(%rax), %rcx
 2383 0e70 488D8590 		leaq	-2160(%rbp), %rax
 2383      F7FFFF
 2384 0e77 BA5D0000 		movl	$93, %edx
 2384      00
 2385 0e7c 4889CE   		movq	%rcx, %rsi
 2386 0e7f 4889C7   		movq	%rax, %rdi
 2387 0e82 E8000000 		call	_ZN8UnitTest11TestDetailsC1ERKS0_i
 2387      00
  93:TestChecks.cpp ****     CHECK_EQUAL("mysuite", reporter.lastFailedSuite);
 2388              		.loc 5 93 0 is_stmt 0 discriminator 1
 2389 0e87 E8000000 		call	_ZN8UnitTest11CurrentTest7ResultsEv
 2389      00
 2390 0e8c 488B00   		movq	(%rax), %rax
 2391 0e8f 488D8D90 		leaq	-2160(%rbp), %rcx
 2391      F7FFFF
 2392 0e96 BA000000 		movl	$.LC26, %edx
 2392      00
 2393 0e9b 4889CE   		movq	%rcx, %rsi
 2394 0e9e 4889C7   		movq	%rax, %rdi
 2395 0ea1 E8000000 		call	_ZN8UnitTest11TestResults13OnTestFailureERKNS_11TestDetailsEPKc
 2395      00
 2396              	.LEHE54:
 2397              	.LEHB55:
 2398 0ea6 E8000000 		call	__cxa_end_catch
 2398      00
 2399              	.LEHE55:
  93:TestChecks.cpp ****     CHECK_EQUAL("mysuite", reporter.lastFailedSuite);
 2400              		.loc 5 93 0
 2401 0eab E983FEFF 		jmp	.L93
 2401      FF
 2402              	.L108:
 2403 0eb0 4889C3   		movq	%rax, %rbx
  94:TestChecks.cpp ****     CHECK_EQUAL("file.h", reporter.lastFailedFile);
 2404              		.loc 5 94 0 is_stmt 1
 2405 0eb3 E8000000 		call	__cxa_end_catch
 2405      00
 2406 0eb8 E90A0100 		jmp	.L91
 2406      00
 2407              	.L107:
 2408 0ebd 4889C7   		movq	%rax, %rdi
 2409 0ec0 E8000000 		call	__cxa_begin_catch
 2409      00
 2410              	.LEHB56:
 2411 0ec5 E8000000 		call	_ZN8UnitTest11CurrentTest7DetailsEv
 2411      00
 2412 0eca 488B08   		movq	(%rax), %rcx
 2413 0ecd 488D8590 		leaq	-2160(%rbp), %rax
 2413      F7FFFF
 2414 0ed4 BA5E0000 		movl	$94, %edx
 2414      00
 2415 0ed9 4889CE   		movq	%rcx, %rsi
 2416 0edc 4889C7   		movq	%rax, %rdi
 2417 0edf E8000000 		call	_ZN8UnitTest11TestDetailsC1ERKS0_i
 2417      00
  94:TestChecks.cpp ****     CHECK_EQUAL("file.h", reporter.lastFailedFile);
 2418              		.loc 5 94 0 is_stmt 0 discriminator 1
 2419 0ee4 E8000000 		call	_ZN8UnitTest11CurrentTest7ResultsEv
 2419      00
 2420 0ee9 488B00   		movq	(%rax), %rax
 2421 0eec 488D8D90 		leaq	-2160(%rbp), %rcx
 2421      F7FFFF
 2422 0ef3 BA000000 		movl	$.LC27, %edx
 2422      00
 2423 0ef8 4889CE   		movq	%rcx, %rsi
 2424 0efb 4889C7   		movq	%rax, %rdi
 2425 0efe E8000000 		call	_ZN8UnitTest11TestResults13OnTestFailureERKNS_11TestDetailsEPKc
 2425      00
 2426              	.LEHE56:
 2427              	.LEHB57:
 2428 0f03 E8000000 		call	__cxa_end_catch
 2428      00
 2429              	.LEHE57:
  94:TestChecks.cpp ****     CHECK_EQUAL("file.h", reporter.lastFailedFile);
 2430              		.loc 5 94 0
 2431 0f08 E975FEFF 		jmp	.L96
 2431      FF
 2432              	.L110:
 2433 0f0d 4889C3   		movq	%rax, %rbx
  95:TestChecks.cpp ****     CHECK_EQUAL(101, reporter.lastFailedLine);
 2434              		.loc 5 95 0 is_stmt 1
 2435 0f10 E8000000 		call	__cxa_end_catch
 2435      00
 2436 0f15 E9AD0000 		jmp	.L91
 2436      00
 2437              	.L109:
 2438 0f1a 4889C7   		movq	%rax, %rdi
 2439 0f1d E8000000 		call	__cxa_begin_catch
 2439      00
 2440              	.LEHB58:
 2441 0f22 E8000000 		call	_ZN8UnitTest11CurrentTest7DetailsEv
 2441      00
 2442 0f27 488B08   		movq	(%rax), %rcx
 2443 0f2a 488D8590 		leaq	-2160(%rbp), %rax
 2443      F7FFFF
 2444 0f31 BA5F0000 		movl	$95, %edx
 2444      00
 2445 0f36 4889CE   		movq	%rcx, %rsi
 2446 0f39 4889C7   		movq	%rax, %rdi
 2447 0f3c E8000000 		call	_ZN8UnitTest11TestDetailsC1ERKS0_i
 2447      00
  95:TestChecks.cpp ****     CHECK_EQUAL(101, reporter.lastFailedLine);
 2448              		.loc 5 95 0 is_stmt 0 discriminator 1
 2449 0f41 E8000000 		call	_ZN8UnitTest11CurrentTest7ResultsEv
 2449      00
 2450 0f46 488B00   		movq	(%rax), %rax
 2451 0f49 488D8D90 		leaq	-2160(%rbp), %rcx
 2451      F7FFFF
 2452 0f50 BA000000 		movl	$.LC28, %edx
 2452      00
 2453 0f55 4889CE   		movq	%rcx, %rsi
 2454 0f58 4889C7   		movq	%rax, %rdi
 2455 0f5b E8000000 		call	_ZN8UnitTest11TestResults13OnTestFailureERKNS_11TestDetailsEPKc
 2455      00
 2456              	.LEHE58:
 2457              	.LEHB59:
 2458 0f60 E8000000 		call	__cxa_end_catch
 2458      00
 2459              	.LEHE59:
  95:TestChecks.cpp ****     CHECK_EQUAL(101, reporter.lastFailedLine);
 2460              		.loc 5 95 0
 2461 0f65 E967FEFF 		jmp	.L99
 2461      FF
 2462              	.L112:
 2463 0f6a 4889C3   		movq	%rax, %rbx
  96:TestChecks.cpp **** }
 2464              		.loc 5 96 0 is_stmt 1
 2465 0f6d E8000000 		call	__cxa_end_catch
 2465      00
 2466 0f72 EB53     		jmp	.L91
 2467              	.L111:
 2468 0f74 4889C7   		movq	%rax, %rdi
 2469 0f77 E8000000 		call	__cxa_begin_catch
 2469      00
 2470              	.LEHB60:
 2471 0f7c E8000000 		call	_ZN8UnitTest11CurrentTest7DetailsEv
 2471      00
 2472 0f81 488B08   		movq	(%rax), %rcx
 2473 0f84 488D8590 		leaq	-2160(%rbp), %rax
 2473      F7FFFF
 2474 0f8b BA600000 		movl	$96, %edx
 2474      00
 2475 0f90 4889CE   		movq	%rcx, %rsi
 2476 0f93 4889C7   		movq	%rax, %rdi
 2477 0f96 E8000000 		call	_ZN8UnitTest11TestDetailsC1ERKS0_i
 2477      00
  96:TestChecks.cpp **** }
 2478              		.loc 5 96 0 is_stmt 0 discriminator 1
 2479 0f9b E8000000 		call	_ZN8UnitTest11CurrentTest7ResultsEv
 2479      00
 2480 0fa0 488B00   		movq	(%rax), %rax
 2481 0fa3 488D8D90 		leaq	-2160(%rbp), %rcx
 2481      F7FFFF
 2482 0faa BA000000 		movl	$.LC29, %edx
 2482      00
 2483 0faf 4889CE   		movq	%rcx, %rsi
 2484 0fb2 4889C7   		movq	%rax, %rdi
 2485 0fb5 E8000000 		call	_ZN8UnitTest11TestResults13OnTestFailureERKNS_11TestDetailsEPKc
 2485      00
 2486              	.LEHE60:
 2487              	.LEHB61:
 2488 0fba E8000000 		call	__cxa_end_catch
 2488      00
 2489              	.LEHE61:
  96:TestChecks.cpp **** }
 2490              		.loc 5 96 0
 2491 0fbf E968FEFF 		jmp	.L102
 2491      FF
 2492              	.L104:
 2493 0fc4 4889C3   		movq	%rax, %rbx
 2494              	.L91:
 2495 0fc7 488D85B0 		leaq	-2128(%rbp), %rax
 2495      F7FFFF
 2496 0fce 4889C7   		movq	%rax, %rdi
 2497 0fd1 E8000000 		call	_ZN17RecordingReporterD1Ev
 2497      00
 2498 0fd6 4889D8   		movq	%rbx, %rax
 2499 0fd9 4889C7   		movq	%rax, %rdi
 2500              	.LEHB62:
 2501 0fdc E8000000 		call	_Unwind_Resume
 2501      00
 2502              	.LEHE62:
 2503              	.L113:
 2504              	.LBE35:
 2505              		.loc 5 97 0 is_stmt 1
 2506 0fe1 E8000000 		call	__stack_chk_fail
 2506      00
 2507              	.L103:
 2508 0fe6 4881C4C8 		addq	$2248, %rsp
 2508      080000
 2509 0fed 5B       		popq	%rbx
 2510 0fee 5D       		popq	%rbp
 2511              		.cfi_def_cfa 7, 8
 2512 0fef C3       		ret
 2513              		.cfi_endproc
 2514              	.LFE1064:
 2515              		.section	.gcc_except_table
 2516              		.align 4
 2517              	.LLSDA1064:
 2518 013c FF       		.byte	0xff
 2519 013d 03       		.byte	0x3
 2520 013e 61       		.uleb128 .LLSDATT1064-.LLSDATTD1064
 2521              	.LLSDATTD1064:
 2522 013f 01       		.byte	0x1
 2523 0140 57       		.uleb128 .LLSDACSE1064-.LLSDACSB1064
 2524              	.LLSDACSB1064:
 2525 0141 45       		.uleb128 .LEHB48-.LFB1064
 2526 0142 61       		.uleb128 .LEHE48-.LEHB48
 2527 0143 8607     		.uleb128 .L104-.LFB1064
 2528 0145 00       		.uleb128 0
 2529 0146 A601     		.uleb128 .LEHB49-.LFB1064
 2530 0148 4F       		.uleb128 .LEHE49-.LEHB49
 2531 0149 A204     		.uleb128 .L105-.LFB1064
 2532 014b 01       		.uleb128 0x1
 2533 014c F501     		.uleb128 .LEHB50-.LFB1064
 2534 014e 4F       		.uleb128 .LEHE50-.LEHB50
 2535 014f FF04     		.uleb128 .L107-.LFB1064
 2536 0151 01       		.uleb128 0x1
 2537 0152 C402     		.uleb128 .LEHB51-.LFB1064
 2538 0154 4F       		.uleb128 .LEHE51-.LEHB51
 2539 0155 DC05     		.uleb128 .L109-.LFB1064
 2540 0157 01       		.uleb128 0x1
 2541 0158 9303     		.uleb128 .LEHB52-.LFB1064
 2542 015a 5B       		.uleb128 .LEHE52-.LEHB52
 2543 015b B606     		.uleb128 .L111-.LFB1064
 2544 015d 01       		.uleb128 0x1
 2545 015e F803     		.uleb128 .LEHB53-.LFB1064
 2546 0160 05       		.uleb128 .LEHE53-.LEHB53
 2547 0161 00       		.uleb128 0
 2548 0162 00       		.uleb128 0
 2549 0163 AA04     		.uleb128 .LEHB54-.LFB1064
 2550 0165 3E       		.uleb128 .LEHE54-.LEHB54
 2551 0166 9504     		.uleb128 .L106-.LFB1064
 2552 0168 00       		.uleb128 0
 2553 0169 E804     		.uleb128 .LEHB55-.LFB1064
 2554 016b 05       		.uleb128 .LEHE55-.LEHB55
 2555 016c 8607     		.uleb128 .L104-.LFB1064
 2556 016e 00       		.uleb128 0
 2557 016f 8705     		.uleb128 .LEHB56-.LFB1064
 2558 0171 3E       		.uleb128 .LEHE56-.LEHB56
 2559 0172 F204     		.uleb128 .L108-.LFB1064
 2560 0174 00       		.uleb128 0
 2561 0175 C505     		.uleb128 .LEHB57-.LFB1064
 2562 0177 05       		.uleb128 .LEHE57-.LEHB57
 2563 0178 8607     		.uleb128 .L104-.LFB1064
 2564 017a 00       		.uleb128 0
 2565 017b E405     		.uleb128 .LEHB58-.LFB1064
 2566 017d 3E       		.uleb128 .LEHE58-.LEHB58
 2567 017e CF05     		.uleb128 .L110-.LFB1064
 2568 0180 00       		.uleb128 0
 2569 0181 A206     		.uleb128 .LEHB59-.LFB1064
 2570 0183 05       		.uleb128 .LEHE59-.LEHB59
 2571 0184 8607     		.uleb128 .L104-.LFB1064
 2572 0186 00       		.uleb128 0
 2573 0187 BE06     		.uleb128 .LEHB60-.LFB1064
 2574 0189 3E       		.uleb128 .LEHE60-.LEHB60
 2575 018a AC06     		.uleb128 .L112-.LFB1064
 2576 018c 00       		.uleb128 0
 2577 018d FC06     		.uleb128 .LEHB61-.LFB1064
 2578 018f 05       		.uleb128 .LEHE61-.LEHB61
 2579 0190 8607     		.uleb128 .L104-.LFB1064
 2580 0192 00       		.uleb128 0
 2581 0193 9E07     		.uleb128 .LEHB62-.LFB1064
 2582 0195 05       		.uleb128 .LEHE62-.LEHB62
 2583 0196 00       		.uleb128 0
 2584 0197 00       		.uleb128 0
 2585              	.LLSDACSE1064:
 2586 0198 01       		.byte	0x1
 2587 0199 00       		.byte	0
 2588 019a 0000     		.align 4
 2589 019c 00000000 		.long	0
 2590              	
 2591              	.LLSDATT1064:
 2592              		.text
 2594              		.section	.rodata
 2595              	.LC30:
 2596 04e1 43686563 		.string	"CheckCloseTrue"
 2596      6B436C6F 
 2596      73655472 
 2596      756500
 2597              		.text
 2598              		.align 2
 2600              	_ZN12_GLOBAL__N_118TestCheckCloseTrueC2Ev:
 2601              	.LFB1066:
  98:TestChecks.cpp **** 
  99:TestChecks.cpp **** TEST(CheckCloseTrue)
 2602              		.loc 5 99 0
 2603              		.cfi_startproc
 2604 0ff0 55       		pushq	%rbp
 2605              		.cfi_def_cfa_offset 16
 2606              		.cfi_offset 6, -16
 2607 0ff1 4889E5   		movq	%rsp, %rbp
 2608              		.cfi_def_cfa_register 6
 2609 0ff4 4883EC10 		subq	$16, %rsp
 2610 0ff8 48897DF8 		movq	%rdi, -8(%rbp)
 2611              	.LBB36:
 2612              		.loc 5 99 0
 2613 0ffc E8000000 		call	_ZN13UnitTestSuite12GetSuiteNameEv
 2613      00
 2614 1001 4889C2   		movq	%rax, %rdx
 2615 1004 488B45F8 		movq	-8(%rbp), %rax
 2616 1008 41B86300 		movl	$99, %r8d
 2616      0000
 2617 100e B9000000 		movl	$.LC2, %ecx
 2617      00
 2618 1013 BE000000 		movl	$.LC30, %esi
 2618      00
 2619 1018 4889C7   		movq	%rax, %rdi
 2620 101b E8000000 		call	_ZN8UnitTest4TestC2EPKcS2_S2_i
 2620      00
 2621 1020 488B45F8 		movq	-8(%rbp), %rax
 2622 1024 48C70000 		movq	$_ZTVN12_GLOBAL__N_118TestCheckCloseTrueE+16, (%rax)
 2622      000000
 2623              	.LBE36:
 2624 102b C9       		leave
 2625              		.cfi_def_cfa 7, 8
 2626 102c C3       		ret
 2627              		.cfi_endproc
 2628              	.LFE1066:
 2630              		.set	_ZN12_GLOBAL__N_118TestCheckCloseTrueC1Ev,_ZN12_GLOBAL__N_118TestCheckCloseTrueC2Ev
 2631              		.local	_ZN12_GLOBAL__N_126testCheckCloseTrueInstanceE
 2632              		.comm	_ZN12_GLOBAL__N_126testCheckCloseTrueInstanceE,56,32
 2633              		.local	_ZN12_GLOBAL__N_119adderCheckCloseTrueE
 2634              		.comm	_ZN12_GLOBAL__N_119adderCheckCloseTrueE,1,1
 2635 102d 90       		.align 2
 2637              	_ZNK12_GLOBAL__N_118TestCheckCloseTrue7RunImplEv:
 2638              	.LFB1068:
 100:TestChecks.cpp **** {
 2639              		.loc 5 100 0
 2640              		.cfi_startproc
 2641              		.cfi_personality 0x3,__gxx_personality_v0
 2642              		.cfi_lsda 0x3,.LLSDA1068
 2643 102e 55       		pushq	%rbp
 2644              		.cfi_def_cfa_offset 16
 2645              		.cfi_offset 6, -16
 2646 102f 4889E5   		movq	%rsp, %rbp
 2647              		.cfi_def_cfa_register 6
 2648 1032 53       		pushq	%rbx
 2649 1033 4883EC68 		subq	$104, %rsp
 2650              		.cfi_offset 3, -24
 2651 1037 48897D98 		movq	%rdi, -104(%rbp)
 2652              	.LBB37:
 101:TestChecks.cpp ****     TestResults results;
 2653              		.loc 5 101 0
 2654 103b 488D45B0 		leaq	-80(%rbp), %rax
 2655 103f BE000000 		movl	$0, %esi
 2655      00
 2656 1044 4889C7   		movq	%rax, %rdi
 2657              	.LEHB63:
 2658 1047 E8000000 		call	_ZN8UnitTest11TestResultsC1EPNS_12TestReporterE
 2658      00
 102:TestChecks.cpp ****     CheckClose(results, 3.001f, 3.0f, 0.1f, TestDetails("", "", "", 0));
 2659              		.loc 5 102 0
 2660 104c 488D45D0 		leaq	-48(%rbp), %rax
 2661 1050 41B80000 		movl	$0, %r8d
 2661      0000
 2662 1056 B9000000 		movl	$.LC6, %ecx
 2662      00
 2663 105b BA000000 		movl	$.LC6, %edx
 2663      00
 2664 1060 BE000000 		movl	$.LC6, %esi
 2664      00
 2665 1065 4889C7   		movq	%rax, %rdi
 2666 1068 E8000000 		call	_ZN8UnitTest11TestDetailsC1EPKcS2_S2_i
 2666      00
 2667 106d 8B050000 		movl	.LC31(%rip), %eax
 2667      0000
 2668 1073 8945AC   		movl	%eax, -84(%rbp)
 2669 1076 8B050000 		movl	.LC32(%rip), %eax
 2669      0000
 2670 107c 8945A8   		movl	%eax, -88(%rbp)
 2671 107f 8B050000 		movl	.LC33(%rip), %eax
 2671      0000
 2672 1085 8945A4   		movl	%eax, -92(%rbp)
 2673 1088 488D7DD0 		leaq	-48(%rbp), %rdi
 2674 108c 488D4DAC 		leaq	-84(%rbp), %rcx
 2675 1090 488D55A8 		leaq	-88(%rbp), %rdx
 2676 1094 488D75A4 		leaq	-92(%rbp), %rsi
 2677 1098 488D45B0 		leaq	-80(%rbp), %rax
 2678 109c 4989F8   		movq	%rdi, %r8
 2679 109f 4889C7   		movq	%rax, %rdi
 2680 10a2 E8000000 		call	_ZN8UnitTest10CheckCloseIfffEEvRNS_11TestResultsERKT_RKT0_RKT1_RKNS_11TestDetailsE
 2680      00
 2681              	.LEHE63:
 2682              	.LEHB64:
 103:TestChecks.cpp ****     CHECK_EQUAL(0, results.GetFailureCount());
 2683              		.loc 5 103 0
 2684 10a7 E8000000 		call	_ZN8UnitTest11CurrentTest7DetailsEv
 2684      00
 2685 10ac 488B08   		movq	(%rax), %rcx
 2686 10af 488D45D0 		leaq	-48(%rbp), %rax
 2687 10b3 BA670000 		movl	$103, %edx
 2687      00
 2688 10b8 4889CE   		movq	%rcx, %rsi
 2689 10bb 4889C7   		movq	%rax, %rdi
 2690 10be E8000000 		call	_ZN8UnitTest11TestDetailsC1ERKS0_i
 2690      00
 2691              		.loc 5 103 0 is_stmt 0 discriminator 1
 2692 10c3 488D45B0 		leaq	-80(%rbp), %rax
 2693 10c7 4889C7   		movq	%rax, %rdi
 2694 10ca E8000000 		call	_ZNK8UnitTest11TestResults15GetFailureCountEv
 2694      00
 2695 10cf 8945AC   		movl	%eax, -84(%rbp)
 2696 10d2 C745A800 		movl	$0, -88(%rbp)
 2696      000000
 2697 10d9 E8000000 		call	_ZN8UnitTest11CurrentTest7ResultsEv
 2697      00
 2698 10de 488B00   		movq	(%rax), %rax
 2699 10e1 488D4DD0 		leaq	-48(%rbp), %rcx
 2700 10e5 488D55AC 		leaq	-84(%rbp), %rdx
 2701 10e9 488D75A8 		leaq	-88(%rbp), %rsi
 2702 10ed 4889C7   		movq	%rax, %rdi
 2703 10f0 E8000000 		call	_ZN8UnitTest10CheckEqualIiiEEvRNS_11TestResultsERKT_RKT0_RKNS_11TestDetailsE
 2703      00
 2704              	.LEHE64:
 2705              	.LBE37:
 104:TestChecks.cpp **** }
 2706              		.loc 5 104 0 is_stmt 1
 2707 10f5 EB58     		jmp	.L121
 2708              	.L120:
 2709 10f7 4889C3   		movq	%rax, %rbx
 2710              	.LBB38:
 103:TestChecks.cpp ****     CHECK_EQUAL(0, results.GetFailureCount());
 2711              		.loc 5 103 0
 2712 10fa E8000000 		call	__cxa_end_catch
 2712      00
 2713 10ff 4889D8   		movq	%rbx, %rax
 2714 1102 4889C7   		movq	%rax, %rdi
 2715              	.LEHB65:
 2716 1105 E8000000 		call	_Unwind_Resume
 2716      00
 2717              	.LEHE65:
 2718              	.L119:
 2719 110a 4889C7   		movq	%rax, %rdi
 2720 110d E8000000 		call	__cxa_begin_catch
 2720      00
 2721              	.LEHB66:
 2722 1112 E8000000 		call	_ZN8UnitTest11CurrentTest7DetailsEv
 2722      00
 2723 1117 488B08   		movq	(%rax), %rcx
 2724 111a 488D45D0 		leaq	-48(%rbp), %rax
 2725 111e BA670000 		movl	$103, %edx
 2725      00
 2726 1123 4889CE   		movq	%rcx, %rsi
 2727 1126 4889C7   		movq	%rax, %rdi
 2728 1129 E8000000 		call	_ZN8UnitTest11TestDetailsC1ERKS0_i
 2728      00
 103:TestChecks.cpp ****     CHECK_EQUAL(0, results.GetFailureCount());
 2729              		.loc 5 103 0 is_stmt 0 discriminator 1
 2730 112e E8000000 		call	_ZN8UnitTest11CurrentTest7ResultsEv
 2730      00
 2731 1133 488B00   		movq	(%rax), %rax
 2732 1136 488D4DD0 		leaq	-48(%rbp), %rcx
 2733 113a BA000000 		movl	$.LC9, %edx
 2733      00
 2734 113f 4889CE   		movq	%rcx, %rsi
 2735 1142 4889C7   		movq	%rax, %rdi
 2736 1145 E8000000 		call	_ZN8UnitTest11TestResults13OnTestFailureERKNS_11TestDetailsEPKc
 2736      00
 2737              	.LEHE66:
 2738              	.LEHB67:
 2739 114a E8000000 		call	__cxa_end_catch
 2739      00
 2740              	.LEHE67:
 2741              	.L121:
 2742              	.LBE38:
 2743              		.loc 5 104 0 is_stmt 1
 2744 114f 90       		nop
 2745 1150 4883C468 		addq	$104, %rsp
 2746 1154 5B       		popq	%rbx
 2747 1155 5D       		popq	%rbp
 2748              		.cfi_def_cfa 7, 8
 2749 1156 C3       		ret
 2750              		.cfi_endproc
 2751              	.LFE1068:
 2752              		.section	.gcc_except_table
 2753              		.align 4
 2754              	.LLSDA1068:
 2755 01a0 FF       		.byte	0xff
 2756 01a1 03       		.byte	0x3
 2757 01a2 21       		.uleb128 .LLSDATT1068-.LLSDATTD1068
 2758              	.LLSDATTD1068:
 2759 01a3 01       		.byte	0x1
 2760 01a4 19       		.uleb128 .LLSDACSE1068-.LLSDACSB1068
 2761              	.LLSDACSB1068:
 2762 01a5 19       		.uleb128 .LEHB63-.LFB1068
 2763 01a6 60       		.uleb128 .LEHE63-.LEHB63
 2764 01a7 00       		.uleb128 0
 2765 01a8 00       		.uleb128 0
 2766 01a9 79       		.uleb128 .LEHB64-.LFB1068
 2767 01aa 4E       		.uleb128 .LEHE64-.LEHB64
 2768 01ab DC01     		.uleb128 .L119-.LFB1068
 2769 01ad 01       		.uleb128 0x1
 2770 01ae D701     		.uleb128 .LEHB65-.LFB1068
 2771 01b0 05       		.uleb128 .LEHE65-.LEHB65
 2772 01b1 00       		.uleb128 0
 2773 01b2 00       		.uleb128 0
 2774 01b3 E401     		.uleb128 .LEHB66-.LFB1068
 2775 01b5 38       		.uleb128 .LEHE66-.LEHB66
 2776 01b6 C901     		.uleb128 .L120-.LFB1068
 2777 01b8 00       		.uleb128 0
 2778 01b9 9C02     		.uleb128 .LEHB67-.LFB1068
 2779 01bb 05       		.uleb128 .LEHE67-.LEHB67
 2780 01bc 00       		.uleb128 0
 2781 01bd 00       		.uleb128 0
 2782              	.LLSDACSE1068:
 2783 01be 01       		.byte	0x1
 2784 01bf 00       		.byte	0
 2785              		.align 4
 2786 01c0 00000000 		.long	0
 2787              	
 2788              	.LLSDATT1068:
 2789              		.text
 2791              		.section	.rodata
 2792              	.LC34:
 2793 04f0 43686563 		.string	"CheckCloseFalse"
 2793      6B436C6F 
 2793      73654661 
 2793      6C736500 
 2794              		.text
 2795 1157 90       		.align 2
 2797              	_ZN12_GLOBAL__N_119TestCheckCloseFalseC2Ev:
 2798              	.LFB1070:
 105:TestChecks.cpp **** 
 106:TestChecks.cpp **** TEST(CheckCloseFalse)
 2799              		.loc 5 106 0
 2800              		.cfi_startproc
 2801 1158 55       		pushq	%rbp
 2802              		.cfi_def_cfa_offset 16
 2803              		.cfi_offset 6, -16
 2804 1159 4889E5   		movq	%rsp, %rbp
 2805              		.cfi_def_cfa_register 6
 2806 115c 4883EC10 		subq	$16, %rsp
 2807 1160 48897DF8 		movq	%rdi, -8(%rbp)
 2808              	.LBB39:
 2809              		.loc 5 106 0
 2810 1164 E8000000 		call	_ZN13UnitTestSuite12GetSuiteNameEv
 2810      00
 2811 1169 4889C2   		movq	%rax, %rdx
 2812 116c 488B45F8 		movq	-8(%rbp), %rax
 2813 1170 41B86A00 		movl	$106, %r8d
 2813      0000
 2814 1176 B9000000 		movl	$.LC2, %ecx
 2814      00
 2815 117b BE000000 		movl	$.LC34, %esi
 2815      00
 2816 1180 4889C7   		movq	%rax, %rdi
 2817 1183 E8000000 		call	_ZN8UnitTest4TestC2EPKcS2_S2_i
 2817      00
 2818 1188 488B45F8 		movq	-8(%rbp), %rax
 2819 118c 48C70000 		movq	$_ZTVN12_GLOBAL__N_119TestCheckCloseFalseE+16, (%rax)
 2819      000000
 2820              	.LBE39:
 2821 1193 C9       		leave
 2822              		.cfi_def_cfa 7, 8
 2823 1194 C3       		ret
 2824              		.cfi_endproc
 2825              	.LFE1070:
 2827              		.set	_ZN12_GLOBAL__N_119TestCheckCloseFalseC1Ev,_ZN12_GLOBAL__N_119TestCheckCloseFalseC2Ev
 2828              		.local	_ZN12_GLOBAL__N_127testCheckCloseFalseInstanceE
 2829              		.comm	_ZN12_GLOBAL__N_127testCheckCloseFalseInstanceE,56,32
 2830              		.local	_ZN12_GLOBAL__N_120adderCheckCloseFalseE
 2831              		.comm	_ZN12_GLOBAL__N_120adderCheckCloseFalseE,1,1
 2832 1195 90       		.align 2
 2834              	_ZNK12_GLOBAL__N_119TestCheckCloseFalse7RunImplEv:
 2835              	.LFB1072:
 107:TestChecks.cpp **** {
 2836              		.loc 5 107 0
 2837              		.cfi_startproc
 2838              		.cfi_personality 0x3,__gxx_personality_v0
 2839              		.cfi_lsda 0x3,.LLSDA1072
 2840 1196 55       		pushq	%rbp
 2841              		.cfi_def_cfa_offset 16
 2842              		.cfi_offset 6, -16
 2843 1197 4889E5   		movq	%rsp, %rbp
 2844              		.cfi_def_cfa_register 6
 2845 119a 53       		pushq	%rbx
 2846 119b 4883EC68 		subq	$104, %rsp
 2847              		.cfi_offset 3, -24
 2848 119f 48897D98 		movq	%rdi, -104(%rbp)
 2849              	.LBB40:
 108:TestChecks.cpp ****     TestResults results;
 2850              		.loc 5 108 0
 2851 11a3 488D45B0 		leaq	-80(%rbp), %rax
 2852 11a7 BE000000 		movl	$0, %esi
 2852      00
 2853 11ac 4889C7   		movq	%rax, %rdi
 2854              	.LEHB68:
 2855 11af E8000000 		call	_ZN8UnitTest11TestResultsC1EPNS_12TestReporterE
 2855      00
 109:TestChecks.cpp ****     CheckClose(results, 3.12f, 3.0f, 0.1f, TestDetails("", "", "", 0));
 2856              		.loc 5 109 0
 2857 11b4 488D45D0 		leaq	-48(%rbp), %rax
 2858 11b8 41B80000 		movl	$0, %r8d
 2858      0000
 2859 11be B9000000 		movl	$.LC6, %ecx
 2859      00
 2860 11c3 BA000000 		movl	$.LC6, %edx
 2860      00
 2861 11c8 BE000000 		movl	$.LC6, %esi
 2861      00
 2862 11cd 4889C7   		movq	%rax, %rdi
 2863 11d0 E8000000 		call	_ZN8UnitTest11TestDetailsC1EPKcS2_S2_i
 2863      00
 2864 11d5 8B050000 		movl	.LC31(%rip), %eax
 2864      0000
 2865 11db 8945AC   		movl	%eax, -84(%rbp)
 2866 11de 8B050000 		movl	.LC32(%rip), %eax
 2866      0000
 2867 11e4 8945A8   		movl	%eax, -88(%rbp)
 2868 11e7 8B050000 		movl	.LC35(%rip), %eax
 2868      0000
 2869 11ed 8945A4   		movl	%eax, -92(%rbp)
 2870 11f0 488D7DD0 		leaq	-48(%rbp), %rdi
 2871 11f4 488D4DAC 		leaq	-84(%rbp), %rcx
 2872 11f8 488D55A8 		leaq	-88(%rbp), %rdx
 2873 11fc 488D75A4 		leaq	-92(%rbp), %rsi
 2874 1200 488D45B0 		leaq	-80(%rbp), %rax
 2875 1204 4989F8   		movq	%rdi, %r8
 2876 1207 4889C7   		movq	%rax, %rdi
 2877 120a E8000000 		call	_ZN8UnitTest10CheckCloseIfffEEvRNS_11TestResultsERKT_RKT0_RKT1_RKNS_11TestDetailsE
 2877      00
 2878              	.LEHE68:
 2879              	.LEHB69:
 110:TestChecks.cpp ****     CHECK_EQUAL(1, results.GetFailureCount());
 2880              		.loc 5 110 0
 2881 120f E8000000 		call	_ZN8UnitTest11CurrentTest7DetailsEv
 2881      00
 2882 1214 488B08   		movq	(%rax), %rcx
 2883 1217 488D45D0 		leaq	-48(%rbp), %rax
 2884 121b BA6E0000 		movl	$110, %edx
 2884      00
 2885 1220 4889CE   		movq	%rcx, %rsi
 2886 1223 4889C7   		movq	%rax, %rdi
 2887 1226 E8000000 		call	_ZN8UnitTest11TestDetailsC1ERKS0_i
 2887      00
 2888              		.loc 5 110 0 is_stmt 0 discriminator 1
 2889 122b 488D45B0 		leaq	-80(%rbp), %rax
 2890 122f 4889C7   		movq	%rax, %rdi
 2891 1232 E8000000 		call	_ZNK8UnitTest11TestResults15GetFailureCountEv
 2891      00
 2892 1237 8945AC   		movl	%eax, -84(%rbp)
 2893 123a C745A801 		movl	$1, -88(%rbp)
 2893      000000
 2894 1241 E8000000 		call	_ZN8UnitTest11CurrentTest7ResultsEv
 2894      00
 2895 1246 488B00   		movq	(%rax), %rax
 2896 1249 488D4DD0 		leaq	-48(%rbp), %rcx
 2897 124d 488D55AC 		leaq	-84(%rbp), %rdx
 2898 1251 488D75A8 		leaq	-88(%rbp), %rsi
 2899 1255 4889C7   		movq	%rax, %rdi
 2900 1258 E8000000 		call	_ZN8UnitTest10CheckEqualIiiEEvRNS_11TestResultsERKT_RKT0_RKNS_11TestDetailsE
 2900      00
 2901              	.LEHE69:
 2902              	.LBE40:
 111:TestChecks.cpp **** }
 2903              		.loc 5 111 0 is_stmt 1
 2904 125d EB58     		jmp	.L129
 2905              	.L128:
 2906 125f 4889C3   		movq	%rax, %rbx
 2907              	.LBB41:
 110:TestChecks.cpp ****     CHECK_EQUAL(1, results.GetFailureCount());
 2908              		.loc 5 110 0
 2909 1262 E8000000 		call	__cxa_end_catch
 2909      00
 2910 1267 4889D8   		movq	%rbx, %rax
 2911 126a 4889C7   		movq	%rax, %rdi
 2912              	.LEHB70:
 2913 126d E8000000 		call	_Unwind_Resume
 2913      00
 2914              	.LEHE70:
 2915              	.L127:
 2916 1272 4889C7   		movq	%rax, %rdi
 2917 1275 E8000000 		call	__cxa_begin_catch
 2917      00
 2918              	.LEHB71:
 2919 127a E8000000 		call	_ZN8UnitTest11CurrentTest7DetailsEv
 2919      00
 2920 127f 488B08   		movq	(%rax), %rcx
 2921 1282 488D45D0 		leaq	-48(%rbp), %rax
 2922 1286 BA6E0000 		movl	$110, %edx
 2922      00
 2923 128b 4889CE   		movq	%rcx, %rsi
 2924 128e 4889C7   		movq	%rax, %rdi
 2925 1291 E8000000 		call	_ZN8UnitTest11TestDetailsC1ERKS0_i
 2925      00
 110:TestChecks.cpp ****     CHECK_EQUAL(1, results.GetFailureCount());
 2926              		.loc 5 110 0 is_stmt 0 discriminator 1
 2927 1296 E8000000 		call	_ZN8UnitTest11CurrentTest7ResultsEv
 2927      00
 2928 129b 488B00   		movq	(%rax), %rax
 2929 129e 488D4DD0 		leaq	-48(%rbp), %rcx
 2930 12a2 BA000000 		movl	$.LC7, %edx
 2930      00
 2931 12a7 4889CE   		movq	%rcx, %rsi
 2932 12aa 4889C7   		movq	%rax, %rdi
 2933 12ad E8000000 		call	_ZN8UnitTest11TestResults13OnTestFailureERKNS_11TestDetailsEPKc
 2933      00
 2934              	.LEHE71:
 2935              	.LEHB72:
 2936 12b2 E8000000 		call	__cxa_end_catch
 2936      00
 2937              	.LEHE72:
 2938              	.L129:
 2939              	.LBE41:
 2940              		.loc 5 111 0 is_stmt 1
 2941 12b7 90       		nop
 2942 12b8 4883C468 		addq	$104, %rsp
 2943 12bc 5B       		popq	%rbx
 2944 12bd 5D       		popq	%rbp
 2945              		.cfi_def_cfa 7, 8
 2946 12be C3       		ret
 2947              		.cfi_endproc
 2948              	.LFE1072:
 2949              		.section	.gcc_except_table
 2950              		.align 4
 2951              	.LLSDA1072:
 2952 01c4 FF       		.byte	0xff
 2953 01c5 03       		.byte	0x3
 2954 01c6 21       		.uleb128 .LLSDATT1072-.LLSDATTD1072
 2955              	.LLSDATTD1072:
 2956 01c7 01       		.byte	0x1
 2957 01c8 19       		.uleb128 .LLSDACSE1072-.LLSDACSB1072
 2958              	.LLSDACSB1072:
 2959 01c9 19       		.uleb128 .LEHB68-.LFB1072
 2960 01ca 60       		.uleb128 .LEHE68-.LEHB68
 2961 01cb 00       		.uleb128 0
 2962 01cc 00       		.uleb128 0
 2963 01cd 79       		.uleb128 .LEHB69-.LFB1072
 2964 01ce 4E       		.uleb128 .LEHE69-.LEHB69
 2965 01cf DC01     		.uleb128 .L127-.LFB1072
 2966 01d1 01       		.uleb128 0x1
 2967 01d2 D701     		.uleb128 .LEHB70-.LFB1072
 2968 01d4 05       		.uleb128 .LEHE70-.LEHB70
 2969 01d5 00       		.uleb128 0
 2970 01d6 00       		.uleb128 0
 2971 01d7 E401     		.uleb128 .LEHB71-.LFB1072
 2972 01d9 38       		.uleb128 .LEHE71-.LEHB71
 2973 01da C901     		.uleb128 .L128-.LFB1072
 2974 01dc 00       		.uleb128 0
 2975 01dd 9C02     		.uleb128 .LEHB72-.LFB1072
 2976 01df 05       		.uleb128 .LEHE72-.LEHB72
 2977 01e0 00       		.uleb128 0
 2978 01e1 00       		.uleb128 0
 2979              	.LLSDACSE1072:
 2980 01e2 01       		.byte	0x1
 2981 01e3 00       		.byte	0
 2982              		.align 4
 2983 01e4 00000000 		.long	0
 2984              	
 2985              	.LLSDATT1072:
 2986              		.text
 2988              		.section	.rodata
 2989              		.align 8
 2990              	.LC36:
 2991 0500 43686563 		.string	"CheckCloseWithZeroEpsilonWorksForSameNumber"
 2991      6B436C6F 
 2991      73655769 
 2991      74685A65 
 2991      726F4570 
 2992              		.text
 2993 12bf 90       		.align 2
 2995              	_ZN12_GLOBAL__N_147TestCheckCloseWithZeroEpsilonWorksForSameNumberC2Ev:
 2996              	.LFB1074:
 112:TestChecks.cpp **** 
 113:TestChecks.cpp **** TEST(CheckCloseWithZeroEpsilonWorksForSameNumber)
 2997              		.loc 5 113 0
 2998              		.cfi_startproc
 2999 12c0 55       		pushq	%rbp
 3000              		.cfi_def_cfa_offset 16
 3001              		.cfi_offset 6, -16
 3002 12c1 4889E5   		movq	%rsp, %rbp
 3003              		.cfi_def_cfa_register 6
 3004 12c4 4883EC10 		subq	$16, %rsp
 3005 12c8 48897DF8 		movq	%rdi, -8(%rbp)
 3006              	.LBB42:
 3007              		.loc 5 113 0
 3008 12cc E8000000 		call	_ZN13UnitTestSuite12GetSuiteNameEv
 3008      00
 3009 12d1 4889C2   		movq	%rax, %rdx
 3010 12d4 488B45F8 		movq	-8(%rbp), %rax
 3011 12d8 41B87100 		movl	$113, %r8d
 3011      0000
 3012 12de B9000000 		movl	$.LC2, %ecx
 3012      00
 3013 12e3 BE000000 		movl	$.LC36, %esi
 3013      00
 3014 12e8 4889C7   		movq	%rax, %rdi
 3015 12eb E8000000 		call	_ZN8UnitTest4TestC2EPKcS2_S2_i
 3015      00
 3016 12f0 488B45F8 		movq	-8(%rbp), %rax
 3017 12f4 48C70000 		movq	$_ZTVN12_GLOBAL__N_147TestCheckCloseWithZeroEpsilonWorksForSameNumberE+16, (%rax)
 3017      000000
 3018              	.LBE42:
 3019 12fb C9       		leave
 3020              		.cfi_def_cfa 7, 8
 3021 12fc C3       		ret
 3022              		.cfi_endproc
 3023              	.LFE1074:
 3025              		.set	_ZN12_GLOBAL__N_147TestCheckCloseWithZeroEpsilonWorksForSameNumberC1Ev,_ZN12_GLOBAL__N_147Tes
 3026              		.local	_ZN12_GLOBAL__N_155testCheckCloseWithZeroEpsilonWorksForSameNumberInstanceE
 3027              		.comm	_ZN12_GLOBAL__N_155testCheckCloseWithZeroEpsilonWorksForSameNumberInstanceE,56,32
 3028              		.local	_ZN12_GLOBAL__N_148adderCheckCloseWithZeroEpsilonWorksForSameNumberE
 3029              		.comm	_ZN12_GLOBAL__N_148adderCheckCloseWithZeroEpsilonWorksForSameNumberE,1,1
 3030 12fd 90       		.align 2
 3032              	_ZNK12_GLOBAL__N_147TestCheckCloseWithZeroEpsilonWorksForSameNumber7RunImplEv:
 3033              	.LFB1076:
 114:TestChecks.cpp **** {
 3034              		.loc 5 114 0
 3035              		.cfi_startproc
 3036              		.cfi_personality 0x3,__gxx_personality_v0
 3037              		.cfi_lsda 0x3,.LLSDA1076
 3038 12fe 55       		pushq	%rbp
 3039              		.cfi_def_cfa_offset 16
 3040              		.cfi_offset 6, -16
 3041 12ff 4889E5   		movq	%rsp, %rbp
 3042              		.cfi_def_cfa_register 6
 3043 1302 53       		pushq	%rbx
 3044 1303 4883EC68 		subq	$104, %rsp
 3045              		.cfi_offset 3, -24
 3046 1307 48897D98 		movq	%rdi, -104(%rbp)
 3047              	.LBB43:
 115:TestChecks.cpp ****     TestResults results;
 3048              		.loc 5 115 0
 3049 130b 488D45B0 		leaq	-80(%rbp), %rax
 3050 130f BE000000 		movl	$0, %esi
 3050      00
 3051 1314 4889C7   		movq	%rax, %rdi
 3052              	.LEHB73:
 3053 1317 E8000000 		call	_ZN8UnitTest11TestResultsC1EPNS_12TestReporterE
 3053      00
 116:TestChecks.cpp ****     CheckClose(results, 0.1f, 0.1f, 0, TestDetails("", "", "", 0));
 3054              		.loc 5 116 0
 3055 131c 488D45D0 		leaq	-48(%rbp), %rax
 3056 1320 41B80000 		movl	$0, %r8d
 3056      0000
 3057 1326 B9000000 		movl	$.LC6, %ecx
 3057      00
 3058 132b BA000000 		movl	$.LC6, %edx
 3058      00
 3059 1330 BE000000 		movl	$.LC6, %esi
 3059      00
 3060 1335 4889C7   		movq	%rax, %rdi
 3061 1338 E8000000 		call	_ZN8UnitTest11TestDetailsC1EPKcS2_S2_i
 3061      00
 3062 133d C745AC00 		movl	$0, -84(%rbp)
 3062      000000
 3063 1344 8B050000 		movl	.LC31(%rip), %eax
 3063      0000
 3064 134a 8945A8   		movl	%eax, -88(%rbp)
 3065 134d 8B050000 		movl	.LC31(%rip), %eax
 3065      0000
 3066 1353 8945A4   		movl	%eax, -92(%rbp)
 3067 1356 488D7DD0 		leaq	-48(%rbp), %rdi
 3068 135a 488D4DAC 		leaq	-84(%rbp), %rcx
 3069 135e 488D55A8 		leaq	-88(%rbp), %rdx
 3070 1362 488D75A4 		leaq	-92(%rbp), %rsi
 3071 1366 488D45B0 		leaq	-80(%rbp), %rax
 3072 136a 4989F8   		movq	%rdi, %r8
 3073 136d 4889C7   		movq	%rax, %rdi
 3074 1370 E8000000 		call	_ZN8UnitTest10CheckCloseIffiEEvRNS_11TestResultsERKT_RKT0_RKT1_RKNS_11TestDetailsE
 3074      00
 3075              	.LEHE73:
 3076              	.LEHB74:
 117:TestChecks.cpp ****     CHECK_EQUAL(0, results.GetFailureCount());
 3077              		.loc 5 117 0
 3078 1375 E8000000 		call	_ZN8UnitTest11CurrentTest7DetailsEv
 3078      00
 3079 137a 488B08   		movq	(%rax), %rcx
 3080 137d 488D45D0 		leaq	-48(%rbp), %rax
 3081 1381 BA750000 		movl	$117, %edx
 3081      00
 3082 1386 4889CE   		movq	%rcx, %rsi
 3083 1389 4889C7   		movq	%rax, %rdi
 3084 138c E8000000 		call	_ZN8UnitTest11TestDetailsC1ERKS0_i
 3084      00
 3085              		.loc 5 117 0 is_stmt 0 discriminator 1
 3086 1391 488D45B0 		leaq	-80(%rbp), %rax
 3087 1395 4889C7   		movq	%rax, %rdi
 3088 1398 E8000000 		call	_ZNK8UnitTest11TestResults15GetFailureCountEv
 3088      00
 3089 139d 8945AC   		movl	%eax, -84(%rbp)
 3090 13a0 C745A800 		movl	$0, -88(%rbp)
 3090      000000
 3091 13a7 E8000000 		call	_ZN8UnitTest11CurrentTest7ResultsEv
 3091      00
 3092 13ac 488B00   		movq	(%rax), %rax
 3093 13af 488D4DD0 		leaq	-48(%rbp), %rcx
 3094 13b3 488D55AC 		leaq	-84(%rbp), %rdx
 3095 13b7 488D75A8 		leaq	-88(%rbp), %rsi
 3096 13bb 4889C7   		movq	%rax, %rdi
 3097 13be E8000000 		call	_ZN8UnitTest10CheckEqualIiiEEvRNS_11TestResultsERKT_RKT0_RKNS_11TestDetailsE
 3097      00
 3098              	.LEHE74:
 3099              	.LBE43:
 118:TestChecks.cpp **** }
 3100              		.loc 5 118 0 is_stmt 1
 3101 13c3 EB58     		jmp	.L137
 3102              	.L136:
 3103 13c5 4889C3   		movq	%rax, %rbx
 3104              	.LBB44:
 117:TestChecks.cpp ****     CHECK_EQUAL(0, results.GetFailureCount());
 3105              		.loc 5 117 0
 3106 13c8 E8000000 		call	__cxa_end_catch
 3106      00
 3107 13cd 4889D8   		movq	%rbx, %rax
 3108 13d0 4889C7   		movq	%rax, %rdi
 3109              	.LEHB75:
 3110 13d3 E8000000 		call	_Unwind_Resume
 3110      00
 3111              	.LEHE75:
 3112              	.L135:
 3113 13d8 4889C7   		movq	%rax, %rdi
 3114 13db E8000000 		call	__cxa_begin_catch
 3114      00
 3115              	.LEHB76:
 3116 13e0 E8000000 		call	_ZN8UnitTest11CurrentTest7DetailsEv
 3116      00
 3117 13e5 488B08   		movq	(%rax), %rcx
 3118 13e8 488D45D0 		leaq	-48(%rbp), %rax
 3119 13ec BA750000 		movl	$117, %edx
 3119      00
 3120 13f1 4889CE   		movq	%rcx, %rsi
 3121 13f4 4889C7   		movq	%rax, %rdi
 3122 13f7 E8000000 		call	_ZN8UnitTest11TestDetailsC1ERKS0_i
 3122      00
 117:TestChecks.cpp ****     CHECK_EQUAL(0, results.GetFailureCount());
 3123              		.loc 5 117 0 is_stmt 0 discriminator 1
 3124 13fc E8000000 		call	_ZN8UnitTest11CurrentTest7ResultsEv
 3124      00
 3125 1401 488B00   		movq	(%rax), %rax
 3126 1404 488D4DD0 		leaq	-48(%rbp), %rcx
 3127 1408 BA000000 		movl	$.LC9, %edx
 3127      00
 3128 140d 4889CE   		movq	%rcx, %rsi
 3129 1410 4889C7   		movq	%rax, %rdi
 3130 1413 E8000000 		call	_ZN8UnitTest11TestResults13OnTestFailureERKNS_11TestDetailsEPKc
 3130      00
 3131              	.LEHE76:
 3132              	.LEHB77:
 3133 1418 E8000000 		call	__cxa_end_catch
 3133      00
 3134              	.LEHE77:
 3135              	.L137:
 3136              	.LBE44:
 3137              		.loc 5 118 0 is_stmt 1
 3138 141d 90       		nop
 3139 141e 4883C468 		addq	$104, %rsp
 3140 1422 5B       		popq	%rbx
 3141 1423 5D       		popq	%rbp
 3142              		.cfi_def_cfa 7, 8
 3143 1424 C3       		ret
 3144              		.cfi_endproc
 3145              	.LFE1076:
 3146              		.section	.gcc_except_table
 3147              		.align 4
 3148              	.LLSDA1076:
 3149 01e8 FF       		.byte	0xff
 3150 01e9 03       		.byte	0x3
 3151 01ea 21       		.uleb128 .LLSDATT1076-.LLSDATTD1076
 3152              	.LLSDATTD1076:
 3153 01eb 01       		.byte	0x1
 3154 01ec 19       		.uleb128 .LLSDACSE1076-.LLSDACSB1076
 3155              	.LLSDACSB1076:
 3156 01ed 19       		.uleb128 .LEHB73-.LFB1076
 3157 01ee 5E       		.uleb128 .LEHE73-.LEHB73
 3158 01ef 00       		.uleb128 0
 3159 01f0 00       		.uleb128 0
 3160 01f1 77       		.uleb128 .LEHB74-.LFB1076
 3161 01f2 4E       		.uleb128 .LEHE74-.LEHB74
 3162 01f3 DA01     		.uleb128 .L135-.LFB1076
 3163 01f5 01       		.uleb128 0x1
 3164 01f6 D501     		.uleb128 .LEHB75-.LFB1076
 3165 01f8 05       		.uleb128 .LEHE75-.LEHB75
 3166 01f9 00       		.uleb128 0
 3167 01fa 00       		.uleb128 0
 3168 01fb E201     		.uleb128 .LEHB76-.LFB1076
 3169 01fd 38       		.uleb128 .LEHE76-.LEHB76
 3170 01fe C701     		.uleb128 .L136-.LFB1076
 3171 0200 00       		.uleb128 0
 3172 0201 9A02     		.uleb128 .LEHB77-.LFB1076
 3173 0203 05       		.uleb128 .LEHE77-.LEHB77
 3174 0204 00       		.uleb128 0
 3175 0205 00       		.uleb128 0
 3176              	.LLSDACSE1076:
 3177 0206 01       		.byte	0x1
 3178 0207 00       		.byte	0
 3179              		.align 4
 3180 0208 00000000 		.long	0
 3181              	
 3182              	.LLSDATT1076:
 3183              		.text
 3185              		.section	.rodata
 3186              	.LC37:
 3187 052c 43686563 		.string	"CheckCloseWithNaNFails"
 3187      6B436C6F 
 3187      73655769 
 3187      74684E61 
 3187      4E466169 
 3188              		.text
 3189 1425 90       		.align 2
 3191              	_ZN12_GLOBAL__N_126TestCheckCloseWithNaNFailsC2Ev:
 3192              	.LFB1078:
 119:TestChecks.cpp **** 
 120:TestChecks.cpp **** TEST(CheckCloseWithNaNFails)
 3193              		.loc 5 120 0
 3194              		.cfi_startproc
 3195 1426 55       		pushq	%rbp
 3196              		.cfi_def_cfa_offset 16
 3197              		.cfi_offset 6, -16
 3198 1427 4889E5   		movq	%rsp, %rbp
 3199              		.cfi_def_cfa_register 6
 3200 142a 4883EC10 		subq	$16, %rsp
 3201 142e 48897DF8 		movq	%rdi, -8(%rbp)
 3202              	.LBB45:
 3203              		.loc 5 120 0
 3204 1432 E8000000 		call	_ZN13UnitTestSuite12GetSuiteNameEv
 3204      00
 3205 1437 4889C2   		movq	%rax, %rdx
 3206 143a 488B45F8 		movq	-8(%rbp), %rax
 3207 143e 41B87800 		movl	$120, %r8d
 3207      0000
 3208 1444 B9000000 		movl	$.LC2, %ecx
 3208      00
 3209 1449 BE000000 		movl	$.LC37, %esi
 3209      00
 3210 144e 4889C7   		movq	%rax, %rdi
 3211 1451 E8000000 		call	_ZN8UnitTest4TestC2EPKcS2_S2_i
 3211      00
 3212 1456 488B45F8 		movq	-8(%rbp), %rax
 3213 145a 48C70000 		movq	$_ZTVN12_GLOBAL__N_126TestCheckCloseWithNaNFailsE+16, (%rax)
 3213      000000
 3214              	.LBE45:
 3215 1461 C9       		leave
 3216              		.cfi_def_cfa 7, 8
 3217 1462 C3       		ret
 3218              		.cfi_endproc
 3219              	.LFE1078:
 3221              		.set	_ZN12_GLOBAL__N_126TestCheckCloseWithNaNFailsC1Ev,_ZN12_GLOBAL__N_126TestCheckCloseWithNaNFai
 3222              		.local	_ZN12_GLOBAL__N_134testCheckCloseWithNaNFailsInstanceE
 3223              		.comm	_ZN12_GLOBAL__N_134testCheckCloseWithNaNFailsInstanceE,56,32
 3224              		.local	_ZN12_GLOBAL__N_127adderCheckCloseWithNaNFailsE
 3225              		.comm	_ZN12_GLOBAL__N_127adderCheckCloseWithNaNFailsE,1,1
 3226 1463 90       		.align 2
 3228              	_ZNK12_GLOBAL__N_126TestCheckCloseWithNaNFails7RunImplEv:
 3229              	.LFB1080:
 121:TestChecks.cpp **** {
 3230              		.loc 5 121 0
 3231              		.cfi_startproc
 3232              		.cfi_personality 0x3,__gxx_personality_v0
 3233              		.cfi_lsda 0x3,.LLSDA1080
 3234 1464 55       		pushq	%rbp
 3235              		.cfi_def_cfa_offset 16
 3236              		.cfi_offset 6, -16
 3237 1465 4889E5   		movq	%rsp, %rbp
 3238              		.cfi_def_cfa_register 6
 3239 1468 53       		pushq	%rbx
 3240 1469 4883EC68 		subq	$104, %rsp
 3241              		.cfi_offset 3, -24
 3242 146d 48897D98 		movq	%rdi, -104(%rbp)
 3243              	.LBB46:
 122:TestChecks.cpp ****     union
 123:TestChecks.cpp ****     {
 124:TestChecks.cpp ****         unsigned int bitpattern;
 125:TestChecks.cpp ****         float nan;
 126:TestChecks.cpp ****     };
 127:TestChecks.cpp ****     bitpattern = 0xFFFFFFFF;
 3244              		.loc 5 127 0
 3245 1471 C745A0FF 		movl	$-1, -96(%rbp)
 3245      FFFFFF
 128:TestChecks.cpp ****     TestResults results;
 3246              		.loc 5 128 0
 3247 1478 488D45B0 		leaq	-80(%rbp), %rax
 3248 147c BE000000 		movl	$0, %esi
 3248      00
 3249 1481 4889C7   		movq	%rax, %rdi
 3250              	.LEHB78:
 3251 1484 E8000000 		call	_ZN8UnitTest11TestResultsC1EPNS_12TestReporterE
 3251      00
 129:TestChecks.cpp ****     CheckClose(results, 3.0f, nan, 0.1f, TestDetails("", "", "", 0));
 3252              		.loc 5 129 0
 3253 1489 488D45D0 		leaq	-48(%rbp), %rax
 3254 148d 41B80000 		movl	$0, %r8d
 3254      0000
 3255 1493 B9000000 		movl	$.LC6, %ecx
 3255      00
 3256 1498 BA000000 		movl	$.LC6, %edx
 3256      00
 3257 149d BE000000 		movl	$.LC6, %esi
 3257      00
 3258 14a2 4889C7   		movq	%rax, %rdi
 3259 14a5 E8000000 		call	_ZN8UnitTest11TestDetailsC1EPKcS2_S2_i
 3259      00
 3260 14aa 8B050000 		movl	.LC31(%rip), %eax
 3260      0000
 3261 14b0 8945AC   		movl	%eax, -84(%rbp)
 3262 14b3 8B050000 		movl	.LC32(%rip), %eax
 3262      0000
 3263 14b9 8945A8   		movl	%eax, -88(%rbp)
 3264 14bc 488D7DD0 		leaq	-48(%rbp), %rdi
 3265 14c0 488D4DAC 		leaq	-84(%rbp), %rcx
 3266 14c4 488D55A0 		leaq	-96(%rbp), %rdx
 3267 14c8 488D75A8 		leaq	-88(%rbp), %rsi
 3268 14cc 488D45B0 		leaq	-80(%rbp), %rax
 3269 14d0 4989F8   		movq	%rdi, %r8
 3270 14d3 4889C7   		movq	%rax, %rdi
 3271 14d6 E8000000 		call	_ZN8UnitTest10CheckCloseIfffEEvRNS_11TestResultsERKT_RKT0_RKT1_RKNS_11TestDetailsE
 3271      00
 3272              	.LEHE78:
 3273              	.LEHB79:
 130:TestChecks.cpp ****     CHECK_EQUAL(1, results.GetFailureCount());
 3274              		.loc 5 130 0
 3275 14db E8000000 		call	_ZN8UnitTest11CurrentTest7DetailsEv
 3275      00
 3276 14e0 488B08   		movq	(%rax), %rcx
 3277 14e3 488D45D0 		leaq	-48(%rbp), %rax
 3278 14e7 BA820000 		movl	$130, %edx
 3278      00
 3279 14ec 4889CE   		movq	%rcx, %rsi
 3280 14ef 4889C7   		movq	%rax, %rdi
 3281 14f2 E8000000 		call	_ZN8UnitTest11TestDetailsC1ERKS0_i
 3281      00
 3282              		.loc 5 130 0 is_stmt 0 discriminator 1
 3283 14f7 488D45B0 		leaq	-80(%rbp), %rax
 3284 14fb 4889C7   		movq	%rax, %rdi
 3285 14fe E8000000 		call	_ZNK8UnitTest11TestResults15GetFailureCountEv
 3285      00
 3286 1503 8945AC   		movl	%eax, -84(%rbp)
 3287 1506 C745A801 		movl	$1, -88(%rbp)
 3287      000000
 3288 150d E8000000 		call	_ZN8UnitTest11CurrentTest7ResultsEv
 3288      00
 3289 1512 488B00   		movq	(%rax), %rax
 3290 1515 488D4DD0 		leaq	-48(%rbp), %rcx
 3291 1519 488D55AC 		leaq	-84(%rbp), %rdx
 3292 151d 488D75A8 		leaq	-88(%rbp), %rsi
 3293 1521 4889C7   		movq	%rax, %rdi
 3294 1524 E8000000 		call	_ZN8UnitTest10CheckEqualIiiEEvRNS_11TestResultsERKT_RKT0_RKNS_11TestDetailsE
 3294      00
 3295              	.LEHE79:
 3296              	.LBE46:
 131:TestChecks.cpp **** }
 3297              		.loc 5 131 0 is_stmt 1
 3298 1529 EB58     		jmp	.L145
 3299              	.L144:
 3300 152b 4889C3   		movq	%rax, %rbx
 3301              	.LBB47:
 130:TestChecks.cpp ****     CHECK_EQUAL(1, results.GetFailureCount());
 3302              		.loc 5 130 0
 3303 152e E8000000 		call	__cxa_end_catch
 3303      00
 3304 1533 4889D8   		movq	%rbx, %rax
 3305 1536 4889C7   		movq	%rax, %rdi
 3306              	.LEHB80:
 3307 1539 E8000000 		call	_Unwind_Resume
 3307      00
 3308              	.LEHE80:
 3309              	.L143:
 3310 153e 4889C7   		movq	%rax, %rdi
 3311 1541 E8000000 		call	__cxa_begin_catch
 3311      00
 3312              	.LEHB81:
 3313 1546 E8000000 		call	_ZN8UnitTest11CurrentTest7DetailsEv
 3313      00
 3314 154b 488B08   		movq	(%rax), %rcx
 3315 154e 488D45D0 		leaq	-48(%rbp), %rax
 3316 1552 BA820000 		movl	$130, %edx
 3316      00
 3317 1557 4889CE   		movq	%rcx, %rsi
 3318 155a 4889C7   		movq	%rax, %rdi
 3319 155d E8000000 		call	_ZN8UnitTest11TestDetailsC1ERKS0_i
 3319      00
 130:TestChecks.cpp ****     CHECK_EQUAL(1, results.GetFailureCount());
 3320              		.loc 5 130 0 is_stmt 0 discriminator 1
 3321 1562 E8000000 		call	_ZN8UnitTest11CurrentTest7ResultsEv
 3321      00
 3322 1567 488B00   		movq	(%rax), %rax
 3323 156a 488D4DD0 		leaq	-48(%rbp), %rcx
 3324 156e BA000000 		movl	$.LC7, %edx
 3324      00
 3325 1573 4889CE   		movq	%rcx, %rsi
 3326 1576 4889C7   		movq	%rax, %rdi
 3327 1579 E8000000 		call	_ZN8UnitTest11TestResults13OnTestFailureERKNS_11TestDetailsEPKc
 3327      00
 3328              	.LEHE81:
 3329              	.LEHB82:
 3330 157e E8000000 		call	__cxa_end_catch
 3330      00
 3331              	.LEHE82:
 3332              	.L145:
 3333              	.LBE47:
 3334              		.loc 5 131 0 is_stmt 1
 3335 1583 90       		nop
 3336 1584 4883C468 		addq	$104, %rsp
 3337 1588 5B       		popq	%rbx
 3338 1589 5D       		popq	%rbp
 3339              		.cfi_def_cfa 7, 8
 3340 158a C3       		ret
 3341              		.cfi_endproc
 3342              	.LFE1080:
 3343              		.section	.gcc_except_table
 3344              		.align 4
 3345              	.LLSDA1080:
 3346 020c FF       		.byte	0xff
 3347 020d 03       		.byte	0x3
 3348 020e 21       		.uleb128 .LLSDATT1080-.LLSDATTD1080
 3349              	.LLSDATTD1080:
 3350 020f 01       		.byte	0x1
 3351 0210 19       		.uleb128 .LLSDACSE1080-.LLSDACSB1080
 3352              	.LLSDACSB1080:
 3353 0211 20       		.uleb128 .LEHB78-.LFB1080
 3354 0212 57       		.uleb128 .LEHE78-.LEHB78
 3355 0213 00       		.uleb128 0
 3356 0214 00       		.uleb128 0
 3357 0215 77       		.uleb128 .LEHB79-.LFB1080
 3358 0216 4E       		.uleb128 .LEHE79-.LEHB79
 3359 0217 DA01     		.uleb128 .L143-.LFB1080
 3360 0219 01       		.uleb128 0x1
 3361 021a D501     		.uleb128 .LEHB80-.LFB1080
 3362 021c 05       		.uleb128 .LEHE80-.LEHB80
 3363 021d 00       		.uleb128 0
 3364 021e 00       		.uleb128 0
 3365 021f E201     		.uleb128 .LEHB81-.LFB1080
 3366 0221 38       		.uleb128 .LEHE81-.LEHB81
 3367 0222 C701     		.uleb128 .L144-.LFB1080
 3368 0224 00       		.uleb128 0
 3369 0225 9A02     		.uleb128 .LEHB82-.LFB1080
 3370 0227 05       		.uleb128 .LEHE82-.LEHB82
 3371 0228 00       		.uleb128 0
 3372 0229 00       		.uleb128 0
 3373              	.LLSDACSE1080:
 3374 022a 01       		.byte	0x1
 3375 022b 00       		.byte	0
 3376              		.align 4
 3377 022c 00000000 		.long	0
 3378              	
 3379              	.LLSDATT1080:
 3380              		.text
 3382              		.section	.rodata
 3383 0543 00000000 		.align 8
 3383      00
 3384              	.LC38:
 3385 0548 43686563 		.string	"CheckCloseWithNaNAgainstItselfFails"
 3385      6B436C6F 
 3385      73655769 
 3385      74684E61 
 3385      4E416761 
 3386              		.text
 3387 158b 90       		.align 2
 3389              	_ZN12_GLOBAL__N_139TestCheckCloseWithNaNAgainstItselfFailsC2Ev:
 3390              	.LFB1082:
 132:TestChecks.cpp **** 
 133:TestChecks.cpp **** TEST(CheckCloseWithNaNAgainstItselfFails)
 3391              		.loc 5 133 0
 3392              		.cfi_startproc
 3393 158c 55       		pushq	%rbp
 3394              		.cfi_def_cfa_offset 16
 3395              		.cfi_offset 6, -16
 3396 158d 4889E5   		movq	%rsp, %rbp
 3397              		.cfi_def_cfa_register 6
 3398 1590 4883EC10 		subq	$16, %rsp
 3399 1594 48897DF8 		movq	%rdi, -8(%rbp)
 3400              	.LBB48:
 3401              		.loc 5 133 0
 3402 1598 E8000000 		call	_ZN13UnitTestSuite12GetSuiteNameEv
 3402      00
 3403 159d 4889C2   		movq	%rax, %rdx
 3404 15a0 488B45F8 		movq	-8(%rbp), %rax
 3405 15a4 41B88500 		movl	$133, %r8d
 3405      0000
 3406 15aa B9000000 		movl	$.LC2, %ecx
 3406      00
 3407 15af BE000000 		movl	$.LC38, %esi
 3407      00
 3408 15b4 4889C7   		movq	%rax, %rdi
 3409 15b7 E8000000 		call	_ZN8UnitTest4TestC2EPKcS2_S2_i
 3409      00
 3410 15bc 488B45F8 		movq	-8(%rbp), %rax
 3411 15c0 48C70000 		movq	$_ZTVN12_GLOBAL__N_139TestCheckCloseWithNaNAgainstItselfFailsE+16, (%rax)
 3411      000000
 3412              	.LBE48:
 3413 15c7 C9       		leave
 3414              		.cfi_def_cfa 7, 8
 3415 15c8 C3       		ret
 3416              		.cfi_endproc
 3417              	.LFE1082:
 3419              		.set	_ZN12_GLOBAL__N_139TestCheckCloseWithNaNAgainstItselfFailsC1Ev,_ZN12_GLOBAL__N_139TestCheckCl
 3420              		.local	_ZN12_GLOBAL__N_147testCheckCloseWithNaNAgainstItselfFailsInstanceE
 3421              		.comm	_ZN12_GLOBAL__N_147testCheckCloseWithNaNAgainstItselfFailsInstanceE,56,32
 3422              		.local	_ZN12_GLOBAL__N_140adderCheckCloseWithNaNAgainstItselfFailsE
 3423              		.comm	_ZN12_GLOBAL__N_140adderCheckCloseWithNaNAgainstItselfFailsE,1,1
 3424 15c9 90       		.align 2
 3426              	_ZNK12_GLOBAL__N_139TestCheckCloseWithNaNAgainstItselfFails7RunImplEv:
 3427              	.LFB1084:
 134:TestChecks.cpp **** {
 3428              		.loc 5 134 0
 3429              		.cfi_startproc
 3430              		.cfi_personality 0x3,__gxx_personality_v0
 3431              		.cfi_lsda 0x3,.LLSDA1084
 3432 15ca 55       		pushq	%rbp
 3433              		.cfi_def_cfa_offset 16
 3434              		.cfi_offset 6, -16
 3435 15cb 4889E5   		movq	%rsp, %rbp
 3436              		.cfi_def_cfa_register 6
 3437 15ce 53       		pushq	%rbx
 3438 15cf 4883EC68 		subq	$104, %rsp
 3439              		.cfi_offset 3, -24
 3440 15d3 48897D98 		movq	%rdi, -104(%rbp)
 3441              	.LBB49:
 135:TestChecks.cpp ****     union
 136:TestChecks.cpp ****     {
 137:TestChecks.cpp ****         unsigned int bitpattern;
 138:TestChecks.cpp ****         float nan;
 139:TestChecks.cpp ****     };
 140:TestChecks.cpp ****     bitpattern = 0xFFFFFFFF;
 3442              		.loc 5 140 0
 3443 15d7 C745A0FF 		movl	$-1, -96(%rbp)
 3443      FFFFFF
 141:TestChecks.cpp ****     TestResults results;
 3444              		.loc 5 141 0
 3445 15de 488D45B0 		leaq	-80(%rbp), %rax
 3446 15e2 BE000000 		movl	$0, %esi
 3446      00
 3447 15e7 4889C7   		movq	%rax, %rdi
 3448              	.LEHB83:
 3449 15ea E8000000 		call	_ZN8UnitTest11TestResultsC1EPNS_12TestReporterE
 3449      00
 142:TestChecks.cpp ****     CheckClose(results, nan, nan, 0.1f, TestDetails("", "", "", 0));
 3450              		.loc 5 142 0
 3451 15ef 488D45D0 		leaq	-48(%rbp), %rax
 3452 15f3 41B80000 		movl	$0, %r8d
 3452      0000
 3453 15f9 B9000000 		movl	$.LC6, %ecx
 3453      00
 3454 15fe BA000000 		movl	$.LC6, %edx
 3454      00
 3455 1603 BE000000 		movl	$.LC6, %esi
 3455      00
 3456 1608 4889C7   		movq	%rax, %rdi
 3457 160b E8000000 		call	_ZN8UnitTest11TestDetailsC1EPKcS2_S2_i
 3457      00
 3458 1610 8B050000 		movl	.LC31(%rip), %eax
 3458      0000
 3459 1616 8945AC   		movl	%eax, -84(%rbp)
 3460 1619 488D7DD0 		leaq	-48(%rbp), %rdi
 3461 161d 488D4DAC 		leaq	-84(%rbp), %rcx
 3462 1621 488D55A0 		leaq	-96(%rbp), %rdx
 3463 1625 488D75A0 		leaq	-96(%rbp), %rsi
 3464 1629 488D45B0 		leaq	-80(%rbp), %rax
 3465 162d 4989F8   		movq	%rdi, %r8
 3466 1630 4889C7   		movq	%rax, %rdi
 3467 1633 E8000000 		call	_ZN8UnitTest10CheckCloseIfffEEvRNS_11TestResultsERKT_RKT0_RKT1_RKNS_11TestDetailsE
 3467      00
 3468              	.LEHE83:
 3469              	.LEHB84:
 143:TestChecks.cpp ****     CHECK_EQUAL(1, results.GetFailureCount());
 3470              		.loc 5 143 0
 3471 1638 E8000000 		call	_ZN8UnitTest11CurrentTest7DetailsEv
 3471      00
 3472 163d 488B08   		movq	(%rax), %rcx
 3473 1640 488D45D0 		leaq	-48(%rbp), %rax
 3474 1644 BA8F0000 		movl	$143, %edx
 3474      00
 3475 1649 4889CE   		movq	%rcx, %rsi
 3476 164c 4889C7   		movq	%rax, %rdi
 3477 164f E8000000 		call	_ZN8UnitTest11TestDetailsC1ERKS0_i
 3477      00
 3478              		.loc 5 143 0 is_stmt 0 discriminator 1
 3479 1654 488D45B0 		leaq	-80(%rbp), %rax
 3480 1658 4889C7   		movq	%rax, %rdi
 3481 165b E8000000 		call	_ZNK8UnitTest11TestResults15GetFailureCountEv
 3481      00
 3482 1660 8945AC   		movl	%eax, -84(%rbp)
 3483 1663 C745A801 		movl	$1, -88(%rbp)
 3483      000000
 3484 166a E8000000 		call	_ZN8UnitTest11CurrentTest7ResultsEv
 3484      00
 3485 166f 488B00   		movq	(%rax), %rax
 3486 1672 488D4DD0 		leaq	-48(%rbp), %rcx
 3487 1676 488D55AC 		leaq	-84(%rbp), %rdx
 3488 167a 488D75A8 		leaq	-88(%rbp), %rsi
 3489 167e 4889C7   		movq	%rax, %rdi
 3490 1681 E8000000 		call	_ZN8UnitTest10CheckEqualIiiEEvRNS_11TestResultsERKT_RKT0_RKNS_11TestDetailsE
 3490      00
 3491              	.LEHE84:
 3492              	.LBE49:
 144:TestChecks.cpp **** }
 3493              		.loc 5 144 0 is_stmt 1
 3494 1686 EB58     		jmp	.L153
 3495              	.L152:
 3496 1688 4889C3   		movq	%rax, %rbx
 3497              	.LBB50:
 143:TestChecks.cpp ****     CHECK_EQUAL(1, results.GetFailureCount());
 3498              		.loc 5 143 0
 3499 168b E8000000 		call	__cxa_end_catch
 3499      00
 3500 1690 4889D8   		movq	%rbx, %rax
 3501 1693 4889C7   		movq	%rax, %rdi
 3502              	.LEHB85:
 3503 1696 E8000000 		call	_Unwind_Resume
 3503      00
 3504              	.LEHE85:
 3505              	.L151:
 3506 169b 4889C7   		movq	%rax, %rdi
 3507 169e E8000000 		call	__cxa_begin_catch
 3507      00
 3508              	.LEHB86:
 3509 16a3 E8000000 		call	_ZN8UnitTest11CurrentTest7DetailsEv
 3509      00
 3510 16a8 488B08   		movq	(%rax), %rcx
 3511 16ab 488D45D0 		leaq	-48(%rbp), %rax
 3512 16af BA8F0000 		movl	$143, %edx
 3512      00
 3513 16b4 4889CE   		movq	%rcx, %rsi
 3514 16b7 4889C7   		movq	%rax, %rdi
 3515 16ba E8000000 		call	_ZN8UnitTest11TestDetailsC1ERKS0_i
 3515      00
 143:TestChecks.cpp ****     CHECK_EQUAL(1, results.GetFailureCount());
 3516              		.loc 5 143 0 is_stmt 0 discriminator 1
 3517 16bf E8000000 		call	_ZN8UnitTest11CurrentTest7ResultsEv
 3517      00
 3518 16c4 488B00   		movq	(%rax), %rax
 3519 16c7 488D4DD0 		leaq	-48(%rbp), %rcx
 3520 16cb BA000000 		movl	$.LC7, %edx
 3520      00
 3521 16d0 4889CE   		movq	%rcx, %rsi
 3522 16d3 4889C7   		movq	%rax, %rdi
 3523 16d6 E8000000 		call	_ZN8UnitTest11TestResults13OnTestFailureERKNS_11TestDetailsEPKc
 3523      00
 3524              	.LEHE86:
 3525              	.LEHB87:
 3526 16db E8000000 		call	__cxa_end_catch
 3526      00
 3527              	.LEHE87:
 3528              	.L153:
 3529              	.LBE50:
 3530              		.loc 5 144 0 is_stmt 1
 3531 16e0 90       		nop
 3532 16e1 4883C468 		addq	$104, %rsp
 3533 16e5 5B       		popq	%rbx
 3534 16e6 5D       		popq	%rbp
 3535              		.cfi_def_cfa 7, 8
 3536 16e7 C3       		ret
 3537              		.cfi_endproc
 3538              	.LFE1084:
 3539              		.section	.gcc_except_table
 3540              		.align 4
 3541              	.LLSDA1084:
 3542 0230 FF       		.byte	0xff
 3543 0231 03       		.byte	0x3
 3544 0232 21       		.uleb128 .LLSDATT1084-.LLSDATTD1084
 3545              	.LLSDATTD1084:
 3546 0233 01       		.byte	0x1
 3547 0234 19       		.uleb128 .LLSDACSE1084-.LLSDACSB1084
 3548              	.LLSDACSB1084:
 3549 0235 20       		.uleb128 .LEHB83-.LFB1084
 3550 0236 4E       		.uleb128 .LEHE83-.LEHB83
 3551 0237 00       		.uleb128 0
 3552 0238 00       		.uleb128 0
 3553 0239 6E       		.uleb128 .LEHB84-.LFB1084
 3554 023a 4E       		.uleb128 .LEHE84-.LEHB84
 3555 023b D101     		.uleb128 .L151-.LFB1084
 3556 023d 01       		.uleb128 0x1
 3557 023e CC01     		.uleb128 .LEHB85-.LFB1084
 3558 0240 05       		.uleb128 .LEHE85-.LEHB85
 3559 0241 00       		.uleb128 0
 3560 0242 00       		.uleb128 0
 3561 0243 D901     		.uleb128 .LEHB86-.LFB1084
 3562 0245 38       		.uleb128 .LEHE86-.LEHB86
 3563 0246 BE01     		.uleb128 .L152-.LFB1084
 3564 0248 00       		.uleb128 0
 3565 0249 9102     		.uleb128 .LEHB87-.LFB1084
 3566 024b 05       		.uleb128 .LEHE87-.LEHB87
 3567 024c 00       		.uleb128 0
 3568 024d 00       		.uleb128 0
 3569              	.LLSDACSE1084:
 3570 024e 01       		.byte	0x1
 3571 024f 00       		.byte	0
 3572              		.align 4
 3573 0250 00000000 		.long	0
 3574              	
 3575              	.LLSDATT1084:
 3576              		.text
 3578              		.section	.rodata
 3579 056c 00000000 		.align 8
 3580              	.LC39:
 3581 0570 43686563 		.string	"CheckCloseFailureIncludesCheckExpectedAndActual"
 3581      6B436C6F 
 3581      73654661 
 3581      696C7572 
 3581      65496E63 
 3582              		.text
 3583              		.align 2
 3585              	_ZN12_GLOBAL__N_151TestCheckCloseFailureIncludesCheckExpectedAndActualC2Ev:
 3586              	.LFB1086:
 145:TestChecks.cpp **** 
 146:TestChecks.cpp **** TEST(CheckCloseFailureIncludesCheckExpectedAndActual)
 3587              		.loc 5 146 0
 3588              		.cfi_startproc
 3589 16e8 55       		pushq	%rbp
 3590              		.cfi_def_cfa_offset 16
 3591              		.cfi_offset 6, -16
 3592 16e9 4889E5   		movq	%rsp, %rbp
 3593              		.cfi_def_cfa_register 6
 3594 16ec 4883EC10 		subq	$16, %rsp
 3595 16f0 48897DF8 		movq	%rdi, -8(%rbp)
 3596              	.LBB51:
 3597              		.loc 5 146 0
 3598 16f4 E8000000 		call	_ZN13UnitTestSuite12GetSuiteNameEv
 3598      00
 3599 16f9 4889C2   		movq	%rax, %rdx
 3600 16fc 488B45F8 		movq	-8(%rbp), %rax
 3601 1700 41B89200 		movl	$146, %r8d
 3601      0000
 3602 1706 B9000000 		movl	$.LC2, %ecx
 3602      00
 3603 170b BE000000 		movl	$.LC39, %esi
 3603      00
 3604 1710 4889C7   		movq	%rax, %rdi
 3605 1713 E8000000 		call	_ZN8UnitTest4TestC2EPKcS2_S2_i
 3605      00
 3606 1718 488B45F8 		movq	-8(%rbp), %rax
 3607 171c 48C70000 		movq	$_ZTVN12_GLOBAL__N_151TestCheckCloseFailureIncludesCheckExpectedAndActualE+16, (%rax)
 3607      000000
 3608              	.LBE51:
 3609 1723 C9       		leave
 3610              		.cfi_def_cfa 7, 8
 3611 1724 C3       		ret
 3612              		.cfi_endproc
 3613              	.LFE1086:
 3615              		.set	_ZN12_GLOBAL__N_151TestCheckCloseFailureIncludesCheckExpectedAndActualC1Ev,_ZN12_GLOBAL__N_15
 3616              		.local	_ZN12_GLOBAL__N_159testCheckCloseFailureIncludesCheckExpectedAndActualInstanceE
 3617              		.comm	_ZN12_GLOBAL__N_159testCheckCloseFailureIncludesCheckExpectedAndActualInstanceE,56,32
 3618              		.local	_ZN12_GLOBAL__N_152adderCheckCloseFailureIncludesCheckExpectedAndActualE
 3619              		.comm	_ZN12_GLOBAL__N_152adderCheckCloseFailureIncludesCheckExpectedAndActualE,1,1
 3620              		.section	.rodata
 3621              	.LC43:
 3622 05a0 78706563 		.string	"xpected 0.9"
 3622      74656420 
 3622      302E3900 
 3623 05ac 00000000 		.align 8
 3624              	.LC44:
 3625 05b0 73747273 		.string	"strstr(reporter.lastFailedMessage, \"xpected 0.9\")"
 3625      74722872 
 3625      65706F72 
 3625      7465722E 
 3625      6C617374 
 3626              	.LC45:
 3627 05e2 77617320 		.string	"was 1.1"
 3627      312E3100 
 3628 05ea 00000000 		.align 8
 3628      0000
 3629              	.LC46:
 3630 05f0 73747273 		.string	"strstr(reporter.lastFailedMessage, \"was 1.1\")"
 3630      74722872 
 3630      65706F72 
 3630      7465722E 
 3630      6C617374 
 3631 061e 0000     		.align 8
 3632              	.LC47:
 3633 0620 556E6861 		.string	"Unhandled exception in CHECK(strstr(reporter.lastFailedMessage, \"xpected 0.9\"))"
 3633      6E646C65 
 3633      64206578 
 3633      63657074 
 3633      696F6E20 
 3634              		.align 8
 3635              	.LC48:
 3636 0670 556E6861 		.string	"Unhandled exception in CHECK(strstr(reporter.lastFailedMessage, \"was 1.1\"))"
 3636      6E646C65 
 3636      64206578 
 3636      63657074 
 3636      696F6E20 
 3637              		.text
 3638 1725 90       		.align 2
 3640              	_ZNK12_GLOBAL__N_151TestCheckCloseFailureIncludesCheckExpectedAndActual7RunImplEv:
 3641              	.LFB1088:
 147:TestChecks.cpp **** {
 3642              		.loc 5 147 0
 3643              		.cfi_startproc
 3644              		.cfi_personality 0x3,__gxx_personality_v0
 3645              		.cfi_lsda 0x3,.LLSDA1088
 3646 1726 55       		pushq	%rbp
 3647              		.cfi_def_cfa_offset 16
 3648              		.cfi_offset 6, -16
 3649 1727 4889E5   		movq	%rsp, %rbp
 3650              		.cfi_def_cfa_register 6
 3651 172a 53       		pushq	%rbx
 3652 172b 4881ECA8 		subq	$2216, %rsp
 3652      080000
 3653              		.cfi_offset 3, -24
 3654 1732 4889BD58 		movq	%rdi, -2216(%rbp)
 3654      F7FFFF
 3655              		.loc 5 147 0
 3656 1739 64488B04 		movq	%fs:40, %rax
 3656      25280000 
 3656      00
 3657 1742 488945E8 		movq	%rax, -24(%rbp)
 3658 1746 31C0     		xorl	%eax, %eax
 3659              	.LBB52:
 148:TestChecks.cpp ****     RecordingReporter reporter;
 3660              		.loc 5 148 0
 3661 1748 488D85B0 		leaq	-2128(%rbp), %rax
 3661      F7FFFF
 3662 174f 4889C7   		movq	%rax, %rdi
 3663 1752 E8000000 		call	_ZN17RecordingReporterC1Ev
 3663      00
 149:TestChecks.cpp ****     TestResults results(&reporter);
 3664              		.loc 5 149 0
 3665 1757 488D95B0 		leaq	-2128(%rbp), %rdx
 3665      F7FFFF
 3666 175e 488D8570 		leaq	-2192(%rbp), %rax
 3666      F7FFFF
 3667 1765 4889D6   		movq	%rdx, %rsi
 3668 1768 4889C7   		movq	%rax, %rdi
 3669              	.LEHB88:
 3670 176b E8000000 		call	_ZN8UnitTest11TestResultsC1EPNS_12TestReporterE
 3670      00
 150:TestChecks.cpp ****     const float expected = 0.9f;
 3671              		.loc 5 150 0
 3672 1770 8B050000 		movl	.LC40(%rip), %eax
 3672      0000
 3673 1776 898564F7 		movl	%eax, -2204(%rbp)
 3673      FFFF
 151:TestChecks.cpp ****     const float actual = 1.1f;
 3674              		.loc 5 151 0
 3675 177c 8B050000 		movl	.LC41(%rip), %eax
 3675      0000
 3676 1782 898568F7 		movl	%eax, -2200(%rbp)
 3676      FFFF
 152:TestChecks.cpp ****     CheckClose(results, expected, actual, 0.01f, TestDetails("", "", "", 0));
 3677              		.loc 5 152 0
 3678 1788 488D8590 		leaq	-2160(%rbp), %rax
 3678      F7FFFF
 3679 178f 41B80000 		movl	$0, %r8d
 3679      0000
 3680 1795 B9000000 		movl	$.LC6, %ecx
 3680      00
 3681 179a BA000000 		movl	$.LC6, %edx
 3681      00
 3682 179f BE000000 		movl	$.LC6, %esi
 3682      00
 3683 17a4 4889C7   		movq	%rax, %rdi
 3684 17a7 E8000000 		call	_ZN8UnitTest11TestDetailsC1EPKcS2_S2_i
 3684      00
 3685              		.loc 5 152 0 is_stmt 0 discriminator 1
 3686 17ac 8B050000 		movl	.LC42(%rip), %eax
 3686      0000
 3687 17b2 89856CF7 		movl	%eax, -2196(%rbp)
 3687      FFFF
 3688 17b8 488DBD90 		leaq	-2160(%rbp), %rdi
 3688      F7FFFF
 3689 17bf 488D8D6C 		leaq	-2196(%rbp), %rcx
 3689      F7FFFF
 3690 17c6 488D9568 		leaq	-2200(%rbp), %rdx
 3690      F7FFFF
 3691 17cd 488DB564 		leaq	-2204(%rbp), %rsi
 3691      F7FFFF
 3692 17d4 488D8570 		leaq	-2192(%rbp), %rax
 3692      F7FFFF
 3693 17db 4989F8   		movq	%rdi, %r8
 3694 17de 4889C7   		movq	%rax, %rdi
 3695 17e1 E8000000 		call	_ZN8UnitTest10CheckCloseIfffEEvRNS_11TestResultsERKT_RKT0_RKT1_RKNS_11TestDetailsE
 3695      00
 3696              	.LEHE88:
 153:TestChecks.cpp **** 
 154:TestChecks.cpp **** 	using namespace std;
 155:TestChecks.cpp ****     CHECK(strstr(reporter.lastFailedMessage, "xpected 0.9"));
 3697              		.loc 5 155 0 is_stmt 1 discriminator 1
 3698 17e6 488D85B0 		leaq	-2128(%rbp), %rax
 3698      F7FFFF
 3699 17ed 48051405 		addq	$1300, %rax
 3699      0000
 3700 17f3 BE000000 		movl	$.LC43, %esi
 3700      00
 3701 17f8 4889C7   		movq	%rax, %rdi
 3702 17fb E8000000 		call	strstr
 3702      00
 3703 1800 4889C7   		movq	%rax, %rdi
 3704 1803 E8000000 		call	_ZN8UnitTest5CheckIPcEEbT_
 3704      00
 3705 1808 83F001   		xorl	$1, %eax
 3706 180b 84C0     		testb	%al, %al
 3707 180d 743E     		je	.L156
 3708              	.LEHB89:
 3709 180f E8000000 		call	_ZN8UnitTest11CurrentTest7DetailsEv
 3709      00
 3710 1814 488B08   		movq	(%rax), %rcx
 3711 1817 488D8590 		leaq	-2160(%rbp), %rax
 3711      F7FFFF
 3712 181e BA9B0000 		movl	$155, %edx
 3712      00
 3713 1823 4889CE   		movq	%rcx, %rsi
 3714 1826 4889C7   		movq	%rax, %rdi
 3715 1829 E8000000 		call	_ZN8UnitTest11TestDetailsC1ERKS0_i
 3715      00
 3716 182e E8000000 		call	_ZN8UnitTest11CurrentTest7ResultsEv
 3716      00
 3717 1833 488B00   		movq	(%rax), %rax
 3718 1836 488D8D90 		leaq	-2160(%rbp), %rcx
 3718      F7FFFF
 3719 183d BA000000 		movl	$.LC44, %edx
 3719      00
 3720 1842 4889CE   		movq	%rcx, %rsi
 3721 1845 4889C7   		movq	%rax, %rdi
 3722 1848 E8000000 		call	_ZN8UnitTest11TestResults13OnTestFailureERKNS_11TestDetailsEPKc
 3722      00
 3723              	.LEHE89:
 3724              	.L156:
 156:TestChecks.cpp ****     CHECK(strstr(reporter.lastFailedMessage, "was 1.1"));
 3725              		.loc 5 156 0
 3726 184d 488D85B0 		leaq	-2128(%rbp), %rax
 3726      F7FFFF
 3727 1854 48051405 		addq	$1300, %rax
 3727      0000
 3728 185a BE000000 		movl	$.LC45, %esi
 3728      00
 3729 185f 4889C7   		movq	%rax, %rdi
 3730 1862 E8000000 		call	strstr
 3730      00
 3731 1867 4889C7   		movq	%rax, %rdi
 3732 186a E8000000 		call	_ZN8UnitTest5CheckIPcEEbT_
 3732      00
 3733 186f 83F001   		xorl	$1, %eax
 3734 1872 84C0     		testb	%al, %al
 3735 1874 743E     		je	.L157
 3736              	.LEHB90:
 3737              		.loc 5 156 0 is_stmt 0 discriminator 1
 3738 1876 E8000000 		call	_ZN8UnitTest11CurrentTest7DetailsEv
 3738      00
 3739 187b 488B08   		movq	(%rax), %rcx
 3740 187e 488D8590 		leaq	-2160(%rbp), %rax
 3740      F7FFFF
 3741 1885 BA9C0000 		movl	$156, %edx
 3741      00
 3742 188a 4889CE   		movq	%rcx, %rsi
 3743 188d 4889C7   		movq	%rax, %rdi
 3744 1890 E8000000 		call	_ZN8UnitTest11TestDetailsC1ERKS0_i
 3744      00
 3745 1895 E8000000 		call	_ZN8UnitTest11CurrentTest7ResultsEv
 3745      00
 3746 189a 488B00   		movq	(%rax), %rax
 3747 189d 488D8D90 		leaq	-2160(%rbp), %rcx
 3747      F7FFFF
 3748 18a4 BA000000 		movl	$.LC46, %edx
 3748      00
 3749 18a9 4889CE   		movq	%rcx, %rsi
 3750 18ac 4889C7   		movq	%rax, %rdi
 3751 18af E8000000 		call	_ZN8UnitTest11TestResults13OnTestFailureERKNS_11TestDetailsEPKc
 3751      00
 3752              	.LEHE90:
 3753              	.L157:
 3754              		.loc 5 156 0 discriminator 2
 3755 18b4 488D85B0 		leaq	-2128(%rbp), %rax
 3755      F7FFFF
 3756 18bb 4889C7   		movq	%rax, %rdi
 3757              	.LEHB91:
 3758 18be E8000000 		call	_ZN17RecordingReporterD1Ev
 3758      00
 3759              	.LEHE91:
 3760              	.LBE52:
 157:TestChecks.cpp **** }
 3761              		.loc 5 157 0 is_stmt 1 discriminator 2
 3762 18c3 488B45E8 		movq	-24(%rbp), %rax
 3763 18c7 64483304 		xorq	%fs:40, %rax
 3763      25280000 
 3763      00
 3764 18d0 0F84DE00 		je	.L163
 3764      0000
 3765 18d6 E9D40000 		jmp	.L169
 3765      00
 3766              	.L166:
 3767 18db 4889C3   		movq	%rax, %rbx
 3768              	.LBB53:
 155:TestChecks.cpp ****     CHECK(strstr(reporter.lastFailedMessage, "was 1.1"));
 3769              		.loc 5 155 0
 3770 18de E8000000 		call	__cxa_end_catch
 3770      00
 3771 18e3 E9AD0000 		jmp	.L159
 3771      00
 3772              	.L165:
 3773 18e8 4889C7   		movq	%rax, %rdi
 3774 18eb E8000000 		call	__cxa_begin_catch
 3774      00
 3775              	.LEHB92:
 3776 18f0 E8000000 		call	_ZN8UnitTest11CurrentTest7DetailsEv
 3776      00
 3777 18f5 488B08   		movq	(%rax), %rcx
 3778 18f8 488D8590 		leaq	-2160(%rbp), %rax
 3778      F7FFFF
 3779 18ff BA9B0000 		movl	$155, %edx
 3779      00
 3780 1904 4889CE   		movq	%rcx, %rsi
 3781 1907 4889C7   		movq	%rax, %rdi
 3782 190a E8000000 		call	_ZN8UnitTest11TestDetailsC1ERKS0_i
 3782      00
 155:TestChecks.cpp ****     CHECK(strstr(reporter.lastFailedMessage, "was 1.1"));
 3783              		.loc 5 155 0 is_stmt 0 discriminator 1
 3784 190f E8000000 		call	_ZN8UnitTest11CurrentTest7ResultsEv
 3784      00
 3785 1914 488B00   		movq	(%rax), %rax
 3786 1917 488D8D90 		leaq	-2160(%rbp), %rcx
 3786      F7FFFF
 3787 191e BA000000 		movl	$.LC47, %edx
 3787      00
 3788 1923 4889CE   		movq	%rcx, %rsi
 3789 1926 4889C7   		movq	%rax, %rdi
 3790 1929 E8000000 		call	_ZN8UnitTest11TestResults13OnTestFailureERKNS_11TestDetailsEPKc
 3790      00
 3791              	.LEHE92:
 3792              	.LEHB93:
 3793 192e E8000000 		call	__cxa_end_catch
 3793      00
 3794              	.LEHE93:
 155:TestChecks.cpp ****     CHECK(strstr(reporter.lastFailedMessage, "was 1.1"));
 3795              		.loc 5 155 0
 3796 1933 E915FFFF 		jmp	.L156
 3796      FF
 3797              	.L168:
 3798 1938 4889C3   		movq	%rax, %rbx
 156:TestChecks.cpp ****     CHECK(strstr(reporter.lastFailedMessage, "was 1.1"));
 3799              		.loc 5 156 0 is_stmt 1
 3800 193b E8000000 		call	__cxa_end_catch
 3800      00
 3801 1940 EB53     		jmp	.L159
 3802              	.L167:
 3803 1942 4889C7   		movq	%rax, %rdi
 3804 1945 E8000000 		call	__cxa_begin_catch
 3804      00
 3805              	.LEHB94:
 3806 194a E8000000 		call	_ZN8UnitTest11CurrentTest7DetailsEv
 3806      00
 3807 194f 488B08   		movq	(%rax), %rcx
 3808 1952 488D8590 		leaq	-2160(%rbp), %rax
 3808      F7FFFF
 3809 1959 BA9C0000 		movl	$156, %edx
 3809      00
 3810 195e 4889CE   		movq	%rcx, %rsi
 3811 1961 4889C7   		movq	%rax, %rdi
 3812 1964 E8000000 		call	_ZN8UnitTest11TestDetailsC1ERKS0_i
 3812      00
 156:TestChecks.cpp ****     CHECK(strstr(reporter.lastFailedMessage, "was 1.1"));
 3813              		.loc 5 156 0 is_stmt 0 discriminator 1
 3814 1969 E8000000 		call	_ZN8UnitTest11CurrentTest7ResultsEv
 3814      00
 3815 196e 488B00   		movq	(%rax), %rax
 3816 1971 488D8D90 		leaq	-2160(%rbp), %rcx
 3816      F7FFFF
 3817 1978 BA000000 		movl	$.LC48, %edx
 3817      00
 3818 197d 4889CE   		movq	%rcx, %rsi
 3819 1980 4889C7   		movq	%rax, %rdi
 3820 1983 E8000000 		call	_ZN8UnitTest11TestResults13OnTestFailureERKNS_11TestDetailsEPKc
 3820      00
 3821              	.LEHE94:
 3822              	.LEHB95:
 3823 1988 E8000000 		call	__cxa_end_catch
 3823      00
 3824              	.LEHE95:
 156:TestChecks.cpp ****     CHECK(strstr(reporter.lastFailedMessage, "was 1.1"));
 3825              		.loc 5 156 0
 3826 198d E922FFFF 		jmp	.L157
 3826      FF
 3827              	.L164:
 3828 1992 4889C3   		movq	%rax, %rbx
 3829              	.L159:
 3830 1995 488D85B0 		leaq	-2128(%rbp), %rax
 3830      F7FFFF
 3831 199c 4889C7   		movq	%rax, %rdi
 3832 199f E8000000 		call	_ZN17RecordingReporterD1Ev
 3832      00
 3833 19a4 4889D8   		movq	%rbx, %rax
 3834 19a7 4889C7   		movq	%rax, %rdi
 3835              	.LEHB96:
 3836 19aa E8000000 		call	_Unwind_Resume
 3836      00
 3837              	.LEHE96:
 3838              	.L169:
 3839              	.LBE53:
 3840              		.loc 5 157 0 is_stmt 1
 3841 19af E8000000 		call	__stack_chk_fail
 3841      00
 3842              	.L163:
 3843 19b4 4881C4A8 		addq	$2216, %rsp
 3843      080000
 3844 19bb 5B       		popq	%rbx
 3845 19bc 5D       		popq	%rbp
 3846              		.cfi_def_cfa 7, 8
 3847 19bd C3       		ret
 3848              		.cfi_endproc
 3849              	.LFE1088:
 3850              		.section	.gcc_except_table
 3851              		.align 4
 3852              	.LLSDA1088:
 3853 0254 FF       		.byte	0xff
 3854 0255 03       		.byte	0x3
 3855 0256 3D       		.uleb128 .LLSDATT1088-.LLSDATTD1088
 3856              	.LLSDATTD1088:
 3857 0257 01       		.byte	0x1
 3858 0258 33       		.uleb128 .LLSDACSE1088-.LLSDACSB1088
 3859              	.LLSDACSB1088:
 3860 0259 45       		.uleb128 .LEHB88-.LFB1088
 3861 025a 7B       		.uleb128 .LEHE88-.LEHB88
 3862 025b EC04     		.uleb128 .L164-.LFB1088
 3863 025d 00       		.uleb128 0
 3864 025e E901     		.uleb128 .LEHB89-.LFB1088
 3865 0260 3E       		.uleb128 .LEHE89-.LEHB89
 3866 0261 C203     		.uleb128 .L165-.LFB1088
 3867 0263 01       		.uleb128 0x1
 3868 0264 D002     		.uleb128 .LEHB90-.LFB1088
 3869 0266 3E       		.uleb128 .LEHE90-.LEHB90
 3870 0267 9C04     		.uleb128 .L167-.LFB1088
 3871 0269 01       		.uleb128 0x1
 3872 026a 9803     		.uleb128 .LEHB91-.LFB1088
 3873 026c 05       		.uleb128 .LEHE91-.LEHB91
 3874 026d 00       		.uleb128 0
 3875 026e 00       		.uleb128 0
 3876 026f CA03     		.uleb128 .LEHB92-.LFB1088
 3877 0271 3E       		.uleb128 .LEHE92-.LEHB92
 3878 0272 B503     		.uleb128 .L166-.LFB1088
 3879 0274 00       		.uleb128 0
 3880 0275 8804     		.uleb128 .LEHB93-.LFB1088
 3881 0277 05       		.uleb128 .LEHE93-.LEHB93
 3882 0278 EC04     		.uleb128 .L164-.LFB1088
 3883 027a 00       		.uleb128 0
 3884 027b A404     		.uleb128 .LEHB94-.LFB1088
 3885 027d 3E       		.uleb128 .LEHE94-.LEHB94
 3886 027e 9204     		.uleb128 .L168-.LFB1088
 3887 0280 00       		.uleb128 0
 3888 0281 E204     		.uleb128 .LEHB95-.LFB1088
 3889 0283 05       		.uleb128 .LEHE95-.LEHB95
 3890 0284 EC04     		.uleb128 .L164-.LFB1088
 3891 0286 00       		.uleb128 0
 3892 0287 8405     		.uleb128 .LEHB96-.LFB1088
 3893 0289 05       		.uleb128 .LEHE96-.LEHB96
 3894 028a 00       		.uleb128 0
 3895 028b 00       		.uleb128 0
 3896              	.LLSDACSE1088:
 3897 028c 01       		.byte	0x1
 3898 028d 00       		.byte	0
 3899 028e 0000     		.align 4
 3900 0290 00000000 		.long	0
 3901              	
 3902              	.LLSDATT1088:
 3903              		.text
 3905              		.section	.rodata
 3906 06bc 00000000 		.align 8
 3907              	.LC49:
 3908 06c0 43686563 		.string	"CheckCloseFailureIncludesTolerance"
 3908      6B436C6F 
 3908      73654661 
 3908      696C7572 
 3908      65496E63 
 3909              		.text
 3910              		.align 2
 3912              	_ZN12_GLOBAL__N_138TestCheckCloseFailureIncludesToleranceC2Ev:
 3913              	.LFB1090:
 158:TestChecks.cpp **** 
 159:TestChecks.cpp **** TEST(CheckCloseFailureIncludesTolerance)
 3914              		.loc 5 159 0
 3915              		.cfi_startproc
 3916 19be 55       		pushq	%rbp
 3917              		.cfi_def_cfa_offset 16
 3918              		.cfi_offset 6, -16
 3919 19bf 4889E5   		movq	%rsp, %rbp
 3920              		.cfi_def_cfa_register 6
 3921 19c2 4883EC10 		subq	$16, %rsp
 3922 19c6 48897DF8 		movq	%rdi, -8(%rbp)
 3923              	.LBB54:
 3924              		.loc 5 159 0
 3925 19ca E8000000 		call	_ZN13UnitTestSuite12GetSuiteNameEv
 3925      00
 3926 19cf 4889C2   		movq	%rax, %rdx
 3927 19d2 488B45F8 		movq	-8(%rbp), %rax
 3928 19d6 41B89F00 		movl	$159, %r8d
 3928      0000
 3929 19dc B9000000 		movl	$.LC2, %ecx
 3929      00
 3930 19e1 BE000000 		movl	$.LC49, %esi
 3930      00
 3931 19e6 4889C7   		movq	%rax, %rdi
 3932 19e9 E8000000 		call	_ZN8UnitTest4TestC2EPKcS2_S2_i
 3932      00
 3933 19ee 488B45F8 		movq	-8(%rbp), %rax
 3934 19f2 48C70000 		movq	$_ZTVN12_GLOBAL__N_138TestCheckCloseFailureIncludesToleranceE+16, (%rax)
 3934      000000
 3935              	.LBE54:
 3936 19f9 C9       		leave
 3937              		.cfi_def_cfa 7, 8
 3938 19fa C3       		ret
 3939              		.cfi_endproc
 3940              	.LFE1090:
 3942              		.set	_ZN12_GLOBAL__N_138TestCheckCloseFailureIncludesToleranceC1Ev,_ZN12_GLOBAL__N_138TestCheckClo
 3943              		.local	_ZN12_GLOBAL__N_146testCheckCloseFailureIncludesToleranceInstanceE
 3944              		.comm	_ZN12_GLOBAL__N_146testCheckCloseFailureIncludesToleranceInstanceE,56,32
 3945              		.local	_ZN12_GLOBAL__N_139adderCheckCloseFailureIncludesToleranceE
 3946              		.comm	_ZN12_GLOBAL__N_139adderCheckCloseFailureIncludesToleranceE,1,1
 3947              		.section	.rodata
 3948              	.LC50:
 3949 06e3 302E3031 		.string	"0.01"
 3949      00
 3950              		.align 8
 3951              	.LC51:
 3952 06e8 73747273 		.string	"strstr(reporter.lastFailedMessage, \"0.01\")"
 3952      74722872 
 3952      65706F72 
 3952      7465722E 
 3952      6C617374 
 3953 0713 00000000 		.align 8
 3953      00
 3954              	.LC52:
 3955 0718 556E6861 		.string	"Unhandled exception in CHECK(strstr(reporter.lastFailedMessage, \"0.01\"))"
 3955      6E646C65 
 3955      64206578 
 3955      63657074 
 3955      696F6E20 
 3956              		.text
 3957 19fb 90       		.align 2
 3959              	_ZNK12_GLOBAL__N_138TestCheckCloseFailureIncludesTolerance7RunImplEv:
 3960              	.LFB1092:
 160:TestChecks.cpp **** {
 3961              		.loc 5 160 0
 3962              		.cfi_startproc
 3963              		.cfi_personality 0x3,__gxx_personality_v0
 3964              		.cfi_lsda 0x3,.LLSDA1092
 3965 19fc 55       		pushq	%rbp
 3966              		.cfi_def_cfa_offset 16
 3967              		.cfi_offset 6, -16
 3968 19fd 4889E5   		movq	%rsp, %rbp
 3969              		.cfi_def_cfa_register 6
 3970 1a00 53       		pushq	%rbx
 3971 1a01 4881ECA8 		subq	$2216, %rsp
 3971      080000
 3972              		.cfi_offset 3, -24
 3973 1a08 4889BD58 		movq	%rdi, -2216(%rbp)
 3973      F7FFFF
 3974              		.loc 5 160 0
 3975 1a0f 64488B04 		movq	%fs:40, %rax
 3975      25280000 
 3975      00
 3976 1a18 488945E8 		movq	%rax, -24(%rbp)
 3977 1a1c 31C0     		xorl	%eax, %eax
 3978              	.LBB55:
 161:TestChecks.cpp ****     RecordingReporter reporter;
 3979              		.loc 5 161 0
 3980 1a1e 488D85B0 		leaq	-2128(%rbp), %rax
 3980      F7FFFF
 3981 1a25 4889C7   		movq	%rax, %rdi
 3982 1a28 E8000000 		call	_ZN17RecordingReporterC1Ev
 3982      00
 162:TestChecks.cpp ****     TestResults results(&reporter);
 3983              		.loc 5 162 0
 3984 1a2d 488D95B0 		leaq	-2128(%rbp), %rdx
 3984      F7FFFF
 3985 1a34 488D8570 		leaq	-2192(%rbp), %rax
 3985      F7FFFF
 3986 1a3b 4889D6   		movq	%rdx, %rsi
 3987 1a3e 4889C7   		movq	%rax, %rdi
 3988              	.LEHB97:
 3989 1a41 E8000000 		call	_ZN8UnitTest11TestResultsC1EPNS_12TestReporterE
 3989      00
 163:TestChecks.cpp ****     CheckClose(results, 2, 3, 0.01f, TestDetails("", "", "", 0));
 3990              		.loc 5 163 0
 3991 1a46 488D8590 		leaq	-2160(%rbp), %rax
 3991      F7FFFF
 3992 1a4d 41B80000 		movl	$0, %r8d
 3992      0000
 3993 1a53 B9000000 		movl	$.LC6, %ecx
 3993      00
 3994 1a58 BA000000 		movl	$.LC6, %edx
 3994      00
 3995 1a5d BE000000 		movl	$.LC6, %esi
 3995      00
 3996 1a62 4889C7   		movq	%rax, %rdi
 3997 1a65 E8000000 		call	_ZN8UnitTest11TestDetailsC1EPKcS2_S2_i
 3997      00
 3998              		.loc 5 163 0 is_stmt 0 discriminator 1
 3999 1a6a 8B050000 		movl	.LC42(%rip), %eax
 3999      0000
 4000 1a70 89856CF7 		movl	%eax, -2196(%rbp)
 4000      FFFF
 4001 1a76 C78568F7 		movl	$3, -2200(%rbp)
 4001      FFFF0300 
 4001      0000
 4002 1a80 C78564F7 		movl	$2, -2204(%rbp)
 4002      FFFF0200 
 4002      0000
 4003 1a8a 488DBD90 		leaq	-2160(%rbp), %rdi
 4003      F7FFFF
 4004 1a91 488D8D6C 		leaq	-2196(%rbp), %rcx
 4004      F7FFFF
 4005 1a98 488D9568 		leaq	-2200(%rbp), %rdx
 4005      F7FFFF
 4006 1a9f 488DB564 		leaq	-2204(%rbp), %rsi
 4006      F7FFFF
 4007 1aa6 488D8570 		leaq	-2192(%rbp), %rax
 4007      F7FFFF
 4008 1aad 4989F8   		movq	%rdi, %r8
 4009 1ab0 4889C7   		movq	%rax, %rdi
 4010 1ab3 E8000000 		call	_ZN8UnitTest10CheckCloseIiifEEvRNS_11TestResultsERKT_RKT0_RKT1_RKNS_11TestDetailsE
 4010      00
 4011              	.LEHE97:
 164:TestChecks.cpp **** 
 165:TestChecks.cpp **** 	using namespace std;
 166:TestChecks.cpp ****     CHECK(strstr(reporter.lastFailedMessage, "0.01"));
 4012              		.loc 5 166 0 is_stmt 1 discriminator 1
 4013 1ab8 488D85B0 		leaq	-2128(%rbp), %rax
 4013      F7FFFF
 4014 1abf 48051405 		addq	$1300, %rax
 4014      0000
 4015 1ac5 BE000000 		movl	$.LC50, %esi
 4015      00
 4016 1aca 4889C7   		movq	%rax, %rdi
 4017 1acd E8000000 		call	strstr
 4017      00
 4018 1ad2 4889C7   		movq	%rax, %rdi
 4019 1ad5 E8000000 		call	_ZN8UnitTest5CheckIPcEEbT_
 4019      00
 4020 1ada 83F001   		xorl	$1, %eax
 4021 1add 84C0     		testb	%al, %al
 4022 1adf 743E     		je	.L172
 4023              	.LEHB98:
 4024 1ae1 E8000000 		call	_ZN8UnitTest11CurrentTest7DetailsEv
 4024      00
 4025 1ae6 488B08   		movq	(%rax), %rcx
 4026 1ae9 488D8590 		leaq	-2160(%rbp), %rax
 4026      F7FFFF
 4027 1af0 BAA60000 		movl	$166, %edx
 4027      00
 4028 1af5 4889CE   		movq	%rcx, %rsi
 4029 1af8 4889C7   		movq	%rax, %rdi
 4030 1afb E8000000 		call	_ZN8UnitTest11TestDetailsC1ERKS0_i
 4030      00
 4031 1b00 E8000000 		call	_ZN8UnitTest11CurrentTest7ResultsEv
 4031      00
 4032 1b05 488B00   		movq	(%rax), %rax
 4033 1b08 488D8D90 		leaq	-2160(%rbp), %rcx
 4033      F7FFFF
 4034 1b0f BA000000 		movl	$.LC51, %edx
 4034      00
 4035 1b14 4889CE   		movq	%rcx, %rsi
 4036 1b17 4889C7   		movq	%rax, %rdi
 4037 1b1a E8000000 		call	_ZN8UnitTest11TestResults13OnTestFailureERKNS_11TestDetailsEPKc
 4037      00
 4038              	.LEHE98:
 4039              	.L172:
 4040              		.loc 5 166 0 is_stmt 0 discriminator 2
 4041 1b1f 488D85B0 		leaq	-2128(%rbp), %rax
 4041      F7FFFF
 4042 1b26 4889C7   		movq	%rax, %rdi
 4043              	.LEHB99:
 4044 1b29 E8000000 		call	_ZN17RecordingReporterD1Ev
 4044      00
 4045              	.LEHE99:
 4046              	.LBE55:
 167:TestChecks.cpp **** }
 4047              		.loc 5 167 0 is_stmt 1 discriminator 2
 4048 1b2e 488B45E8 		movq	-24(%rbp), %rax
 4049 1b32 64483304 		xorq	%fs:40, %rax
 4049      25280000 
 4049      00
 4050 1b3b 747B     		je	.L176
 4051 1b3d EB74     		jmp	.L180
 4052              	.L179:
 4053 1b3f 4889C3   		movq	%rax, %rbx
 4054              	.LBB56:
 166:TestChecks.cpp **** }
 4055              		.loc 5 166 0
 4056 1b42 E8000000 		call	__cxa_end_catch
 4056      00
 4057 1b47 EB50     		jmp	.L174
 4058              	.L178:
 4059 1b49 4889C7   		movq	%rax, %rdi
 4060 1b4c E8000000 		call	__cxa_begin_catch
 4060      00
 4061              	.LEHB100:
 4062 1b51 E8000000 		call	_ZN8UnitTest11CurrentTest7DetailsEv
 4062      00
 4063 1b56 488B08   		movq	(%rax), %rcx
 4064 1b59 488D8590 		leaq	-2160(%rbp), %rax
 4064      F7FFFF
 4065 1b60 BAA60000 		movl	$166, %edx
 4065      00
 4066 1b65 4889CE   		movq	%rcx, %rsi
 4067 1b68 4889C7   		movq	%rax, %rdi
 4068 1b6b E8000000 		call	_ZN8UnitTest11TestDetailsC1ERKS0_i
 4068      00
 166:TestChecks.cpp **** }
 4069              		.loc 5 166 0 is_stmt 0 discriminator 1
 4070 1b70 E8000000 		call	_ZN8UnitTest11CurrentTest7ResultsEv
 4070      00
 4071 1b75 488B00   		movq	(%rax), %rax
 4072 1b78 488D8D90 		leaq	-2160(%rbp), %rcx
 4072      F7FFFF
 4073 1b7f BA000000 		movl	$.LC52, %edx
 4073      00
 4074 1b84 4889CE   		movq	%rcx, %rsi
 4075 1b87 4889C7   		movq	%rax, %rdi
 4076 1b8a E8000000 		call	_ZN8UnitTest11TestResults13OnTestFailureERKNS_11TestDetailsEPKc
 4076      00
 4077              	.LEHE100:
 4078              	.LEHB101:
 4079 1b8f E8000000 		call	__cxa_end_catch
 4079      00
 4080              	.LEHE101:
 166:TestChecks.cpp **** }
 4081              		.loc 5 166 0
 4082 1b94 EB89     		jmp	.L172
 4083              	.L177:
 4084 1b96 4889C3   		movq	%rax, %rbx
 4085              	.L174:
 4086 1b99 488D85B0 		leaq	-2128(%rbp), %rax
 4086      F7FFFF
 4087 1ba0 4889C7   		movq	%rax, %rdi
 4088 1ba3 E8000000 		call	_ZN17RecordingReporterD1Ev
 4088      00
 4089 1ba8 4889D8   		movq	%rbx, %rax
 4090 1bab 4889C7   		movq	%rax, %rdi
 4091              	.LEHB102:
 4092 1bae E8000000 		call	_Unwind_Resume
 4092      00
 4093              	.LEHE102:
 4094              	.L180:
 4095              	.LBE56:
 4096              		.loc 5 167 0 is_stmt 1
 4097 1bb3 E8000000 		call	__stack_chk_fail
 4097      00
 4098              	.L176:
 4099 1bb8 4881C4A8 		addq	$2216, %rsp
 4099      080000
 4100 1bbf 5B       		popq	%rbx
 4101 1bc0 5D       		popq	%rbp
 4102              		.cfi_def_cfa 7, 8
 4103 1bc1 C3       		ret
 4104              		.cfi_endproc
 4105              	.LFE1092:
 4106              		.section	.gcc_except_table
 4107              		.align 4
 4108              	.LLSDA1092:
 4109 0294 FF       		.byte	0xff
 4110 0295 03       		.byte	0x3
 4111 0296 29       		.uleb128 .LLSDATT1092-.LLSDATTD1092
 4112              	.LLSDATTD1092:
 4113 0297 01       		.byte	0x1
 4114 0298 21       		.uleb128 .LLSDACSE1092-.LLSDACSB1092
 4115              	.LLSDACSB1092:
 4116 0299 45       		.uleb128 .LEHB97-.LFB1092
 4117 029a 77       		.uleb128 .LEHE97-.LEHB97
 4118 029b 9A03     		.uleb128 .L177-.LFB1092
 4119 029d 00       		.uleb128 0
 4120 029e E501     		.uleb128 .LEHB98-.LFB1092
 4121 02a0 3E       		.uleb128 .LEHE98-.LEHB98
 4122 02a1 CD02     		.uleb128 .L178-.LFB1092
 4123 02a3 01       		.uleb128 0x1
 4124 02a4 AD02     		.uleb128 .LEHB99-.LFB1092
 4125 02a6 05       		.uleb128 .LEHE99-.LEHB99
 4126 02a7 00       		.uleb128 0
 4127 02a8 00       		.uleb128 0
 4128 02a9 D502     		.uleb128 .LEHB100-.LFB1092
 4129 02ab 3E       		.uleb128 .LEHE100-.LEHB100
 4130 02ac C302     		.uleb128 .L179-.LFB1092
 4131 02ae 00       		.uleb128 0
 4132 02af 9303     		.uleb128 .LEHB101-.LFB1092
 4133 02b1 05       		.uleb128 .LEHE101-.LEHB101
 4134 02b2 9A03     		.uleb128 .L177-.LFB1092
 4135 02b4 00       		.uleb128 0
 4136 02b5 B203     		.uleb128 .LEHB102-.LFB1092
 4137 02b7 05       		.uleb128 .LEHE102-.LEHB102
 4138 02b8 00       		.uleb128 0
 4139 02b9 00       		.uleb128 0
 4140              	.LLSDACSE1092:
 4141 02ba 01       		.byte	0x1
 4142 02bb 00       		.byte	0
 4143              		.align 4
 4144 02bc 00000000 		.long	0
 4145              	
 4146              	.LLSDATT1092:
 4147              		.text
 4149              		.section	.rodata
 4150 0761 00000000 		.align 8
 4150      000000
 4151              	.LC53:
 4152 0768 43686563 		.string	"CheckCloseFailureIncludesDetails"
 4152      6B436C6F 
 4152      73654661 
 4152      696C7572 
 4152      65496E63 
 4153              		.text
 4154              		.align 2
 4156              	_ZN12_GLOBAL__N_136TestCheckCloseFailureIncludesDetailsC2Ev:
 4157              	.LFB1094:
 168:TestChecks.cpp **** 
 169:TestChecks.cpp **** TEST(CheckCloseFailureIncludesDetails)
 4158              		.loc 5 169 0
 4159              		.cfi_startproc
 4160 1bc2 55       		pushq	%rbp
 4161              		.cfi_def_cfa_offset 16
 4162              		.cfi_offset 6, -16
 4163 1bc3 4889E5   		movq	%rsp, %rbp
 4164              		.cfi_def_cfa_register 6
 4165 1bc6 4883EC10 		subq	$16, %rsp
 4166 1bca 48897DF8 		movq	%rdi, -8(%rbp)
 4167              	.LBB57:
 4168              		.loc 5 169 0
 4169 1bce E8000000 		call	_ZN13UnitTestSuite12GetSuiteNameEv
 4169      00
 4170 1bd3 4889C2   		movq	%rax, %rdx
 4171 1bd6 488B45F8 		movq	-8(%rbp), %rax
 4172 1bda 41B8A900 		movl	$169, %r8d
 4172      0000
 4173 1be0 B9000000 		movl	$.LC2, %ecx
 4173      00
 4174 1be5 BE000000 		movl	$.LC53, %esi
 4174      00
 4175 1bea 4889C7   		movq	%rax, %rdi
 4176 1bed E8000000 		call	_ZN8UnitTest4TestC2EPKcS2_S2_i
 4176      00
 4177 1bf2 488B45F8 		movq	-8(%rbp), %rax
 4178 1bf6 48C70000 		movq	$_ZTVN12_GLOBAL__N_136TestCheckCloseFailureIncludesDetailsE+16, (%rax)
 4178      000000
 4179              	.LBE57:
 4180 1bfd C9       		leave
 4181              		.cfi_def_cfa 7, 8
 4182 1bfe C3       		ret
 4183              		.cfi_endproc
 4184              	.LFE1094:
 4186              		.set	_ZN12_GLOBAL__N_136TestCheckCloseFailureIncludesDetailsC1Ev,_ZN12_GLOBAL__N_136TestCheckClose
 4187              		.local	_ZN12_GLOBAL__N_144testCheckCloseFailureIncludesDetailsInstanceE
 4188              		.comm	_ZN12_GLOBAL__N_144testCheckCloseFailureIncludesDetailsInstanceE,56,32
 4189              		.local	_ZN12_GLOBAL__N_137adderCheckCloseFailureIncludesDetailsE
 4190              		.comm	_ZN12_GLOBAL__N_137adderCheckCloseFailureIncludesDetailsE,1,1
 4191              		.section	.rodata
 4192              	.LC54:
 4193 0789 68656164 		.string	"header.h"
 4193      65722E68 
 4193      00
 4194 0792 00000000 		.align 8
 4194      0000
 4195              	.LC55:
 4196 0798 556E6861 		.string	"Unhandled exception in CHECK_EQUAL(\"header.h\", reporter.lastFailedFile)"
 4196      6E646C65 
 4196      64206578 
 4196      63657074 
 4196      696F6E20 
 4197              		.align 8
 4198              	.LC56:
 4199 07e0 556E6861 		.string	"Unhandled exception in CHECK_EQUAL(10, reporter.lastFailedLine)"
 4199      6E646C65 
 4199      64206578 
 4199      63657074 
 4199      696F6E20 
 4200              		.text
 4201 1bff 90       		.align 2
 4203              	_ZNK12_GLOBAL__N_136TestCheckCloseFailureIncludesDetails7RunImplEv:
 4204              	.LFB1096:
 170:TestChecks.cpp **** {
 4205              		.loc 5 170 0
 4206              		.cfi_startproc
 4207              		.cfi_personality 0x3,__gxx_personality_v0
 4208              		.cfi_lsda 0x3,.LLSDA1096
 4209 1c00 55       		pushq	%rbp
 4210              		.cfi_def_cfa_offset 16
 4211              		.cfi_offset 6, -16
 4212 1c01 4889E5   		movq	%rsp, %rbp
 4213              		.cfi_def_cfa_register 6
 4214 1c04 53       		pushq	%rbx
 4215 1c05 4881ECC8 		subq	$2248, %rsp
 4215      080000
 4216              		.cfi_offset 3, -24
 4217 1c0c 4889BD38 		movq	%rdi, -2248(%rbp)
 4217      F7FFFF
 4218              		.loc 5 170 0
 4219 1c13 64488B04 		movq	%fs:40, %rax
 4219      25280000 
 4219      00
 4220 1c1c 488945E8 		movq	%rax, -24(%rbp)
 4221 1c20 31C0     		xorl	%eax, %eax
 4222              	.LBB58:
 171:TestChecks.cpp ****     RecordingReporter reporter;
 4223              		.loc 5 171 0
 4224 1c22 488D85B0 		leaq	-2128(%rbp), %rax
 4224      F7FFFF
 4225 1c29 4889C7   		movq	%rax, %rdi
 4226 1c2c E8000000 		call	_ZN17RecordingReporterC1Ev
 4226      00
 172:TestChecks.cpp ****     TestResults results(&reporter);
 4227              		.loc 5 172 0
 4228 1c31 488D95B0 		leaq	-2128(%rbp), %rdx
 4228      F7FFFF
 4229 1c38 488D8550 		leaq	-2224(%rbp), %rax
 4229      F7FFFF
 4230 1c3f 4889D6   		movq	%rdx, %rsi
 4231 1c42 4889C7   		movq	%rax, %rdi
 4232              	.LEHB103:
 4233 1c45 E8000000 		call	_ZN8UnitTest11TestResultsC1EPNS_12TestReporterE
 4233      00
 173:TestChecks.cpp ****     TestDetails const details("mytest", "mysuite", "header.h", 10);
 4234              		.loc 5 173 0
 4235 1c4a 488D8570 		leaq	-2192(%rbp), %rax
 4235      F7FFFF
 4236 1c51 41B80A00 		movl	$10, %r8d
 4236      0000
 4237 1c57 B9000000 		movl	$.LC54, %ecx
 4237      00
 4238 1c5c BA000000 		movl	$.LC24, %edx
 4238      00
 4239 1c61 BE000000 		movl	$.LC25, %esi
 4239      00
 4240 1c66 4889C7   		movq	%rax, %rdi
 4241 1c69 E8000000 		call	_ZN8UnitTest11TestDetailsC1EPKcS2_S2_i
 4241      00
 174:TestChecks.cpp **** 
 175:TestChecks.cpp ****     CheckClose(results, 2, 3, 0.01f, details);
 4242              		.loc 5 175 0
 4243 1c6e 8B050000 		movl	.LC42(%rip), %eax
 4243      0000
 4244 1c74 898590F7 		movl	%eax, -2160(%rbp)
 4244      FFFF
 4245 1c7a C7854CF7 		movl	$3, -2228(%rbp)
 4245      FFFF0300 
 4245      0000
 4246 1c84 C78548F7 		movl	$2, -2232(%rbp)
 4246      FFFF0200 
 4246      0000
 4247 1c8e 488DBD70 		leaq	-2192(%rbp), %rdi
 4247      F7FFFF
 4248 1c95 488D8D90 		leaq	-2160(%rbp), %rcx
 4248      F7FFFF
 4249 1c9c 488D954C 		leaq	-2228(%rbp), %rdx
 4249      F7FFFF
 4250 1ca3 488DB548 		leaq	-2232(%rbp), %rsi
 4250      F7FFFF
 4251 1caa 488D8550 		leaq	-2224(%rbp), %rax
 4251      F7FFFF
 4252 1cb1 4989F8   		movq	%rdi, %r8
 4253 1cb4 4889C7   		movq	%rax, %rdi
 4254 1cb7 E8000000 		call	_ZN8UnitTest10CheckCloseIiifEEvRNS_11TestResultsERKT_RKT0_RKT1_RKNS_11TestDetailsE
 4254      00
 4255              	.LEHE103:
 4256              	.LEHB104:
 176:TestChecks.cpp **** 
 177:TestChecks.cpp ****     CHECK_EQUAL("mytest", reporter.lastFailedTest);
 4257              		.loc 5 177 0 discriminator 1
 4258 1cbc E8000000 		call	_ZN8UnitTest11CurrentTest7DetailsEv
 4258      00
 4259 1cc1 488B08   		movq	(%rax), %rcx
 4260 1cc4 488D8590 		leaq	-2160(%rbp), %rax
 4260      F7FFFF
 4261 1ccb BAB10000 		movl	$177, %edx
 4261      00
 4262 1cd0 4889CE   		movq	%rcx, %rsi
 4263 1cd3 4889C7   		movq	%rax, %rdi
 4264 1cd6 E8000000 		call	_ZN8UnitTest11TestDetailsC1ERKS0_i
 4264      00
 4265 1cdb E8000000 		call	_ZN8UnitTest11CurrentTest7ResultsEv
 4265      00
 4266 1ce0 488B00   		movq	(%rax), %rax
 4267 1ce3 488D9590 		leaq	-2160(%rbp), %rdx
 4267      F7FFFF
 4268 1cea 488D8DB0 		leaq	-2128(%rbp), %rcx
 4268      F7FFFF
 4269 1cf1 488DB114 		leaq	1044(%rcx), %rsi
 4269      040000
 4270 1cf8 4889D1   		movq	%rdx, %rcx
 4271 1cfb 4889F2   		movq	%rsi, %rdx
 4272 1cfe BE000000 		movl	$.LC25, %esi
 4272      00
 4273 1d03 4889C7   		movq	%rax, %rdi
 4274 1d06 E8000000 		call	_ZN8UnitTest10CheckEqualERNS_11TestResultsEPKcPcRKNS_11TestDetailsE
 4274      00
 4275              	.LEHE104:
 4276              	.L186:
 4277              	.LEHB105:
 178:TestChecks.cpp ****     CHECK_EQUAL("mysuite", reporter.lastFailedSuite);
 4278              		.loc 5 178 0
 4279 1d0b E8000000 		call	_ZN8UnitTest11CurrentTest7DetailsEv
 4279      00
 4280 1d10 488B08   		movq	(%rax), %rcx
 4281 1d13 488D8590 		leaq	-2160(%rbp), %rax
 4281      F7FFFF
 4282 1d1a BAB20000 		movl	$178, %edx
 4282      00
 4283 1d1f 4889CE   		movq	%rcx, %rsi
 4284 1d22 4889C7   		movq	%rax, %rdi
 4285 1d25 E8000000 		call	_ZN8UnitTest11TestDetailsC1ERKS0_i
 4285      00
 4286              		.loc 5 178 0 is_stmt 0 discriminator 1
 4287 1d2a E8000000 		call	_ZN8UnitTest11CurrentTest7ResultsEv
 4287      00
 4288 1d2f 488B00   		movq	(%rax), %rax
 4289 1d32 488D9590 		leaq	-2160(%rbp), %rdx
 4289      F7FFFF
 4290 1d39 488D8DB0 		leaq	-2128(%rbp), %rcx
 4290      F7FFFF
 4291 1d40 488DB114 		leaq	788(%rcx), %rsi
 4291      030000
 4292 1d47 4889D1   		movq	%rdx, %rcx
 4293 1d4a 4889F2   		movq	%rsi, %rdx
 4294 1d4d BE000000 		movl	$.LC24, %esi
 4294      00
 4295 1d52 4889C7   		movq	%rax, %rdi
 4296 1d55 E8000000 		call	_ZN8UnitTest10CheckEqualERNS_11TestResultsEPKcPcRKNS_11TestDetailsE
 4296      00
 4297              	.LEHE105:
 4298              	.L189:
 4299              	.LEHB106:
 179:TestChecks.cpp ****     CHECK_EQUAL("header.h", reporter.lastFailedFile);
 4300              		.loc 5 179 0 is_stmt 1
 4301 1d5a E8000000 		call	_ZN8UnitTest11CurrentTest7DetailsEv
 4301      00
 4302 1d5f 488B08   		movq	(%rax), %rcx
 4303 1d62 488D8590 		leaq	-2160(%rbp), %rax
 4303      F7FFFF
 4304 1d69 BAB30000 		movl	$179, %edx
 4304      00
 4305 1d6e 4889CE   		movq	%rcx, %rsi
 4306 1d71 4889C7   		movq	%rax, %rdi
 4307 1d74 E8000000 		call	_ZN8UnitTest11TestDetailsC1ERKS0_i
 4307      00
 4308              		.loc 5 179 0 is_stmt 0 discriminator 1
 4309 1d79 E8000000 		call	_ZN8UnitTest11CurrentTest7ResultsEv
 4309      00
 4310 1d7e 488B00   		movq	(%rax), %rax
 4311 1d81 488D9590 		leaq	-2160(%rbp), %rdx
 4311      F7FFFF
 4312 1d88 488D8DB0 		leaq	-2128(%rbp), %rcx
 4312      F7FFFF
 4313 1d8f 488DB110 		leaq	528(%rcx), %rsi
 4313      020000
 4314 1d96 4889D1   		movq	%rdx, %rcx
 4315 1d99 4889F2   		movq	%rsi, %rdx
 4316 1d9c BE000000 		movl	$.LC54, %esi
 4316      00
 4317 1da1 4889C7   		movq	%rax, %rdi
 4318 1da4 E8000000 		call	_ZN8UnitTest10CheckEqualERNS_11TestResultsEPKcPcRKNS_11TestDetailsE
 4318      00
 4319              	.LEHE106:
 4320              	.L192:
 4321              	.LEHB107:
 180:TestChecks.cpp ****     CHECK_EQUAL(10, reporter.lastFailedLine);
 4322              		.loc 5 180 0 is_stmt 1
 4323 1da9 E8000000 		call	_ZN8UnitTest11CurrentTest7DetailsEv
 4323      00
 4324 1dae 488B08   		movq	(%rax), %rcx
 4325 1db1 488D8590 		leaq	-2160(%rbp), %rax
 4325      F7FFFF
 4326 1db8 BAB40000 		movl	$180, %edx
 4326      00
 4327 1dbd 4889CE   		movq	%rcx, %rsi
 4328 1dc0 4889C7   		movq	%rax, %rdi
 4329 1dc3 E8000000 		call	_ZN8UnitTest11TestDetailsC1ERKS0_i
 4329      00
 4330              		.loc 5 180 0 is_stmt 0 discriminator 1
 4331 1dc8 C7854CF7 		movl	$10, -2228(%rbp)
 4331      FFFF0A00 
 4331      0000
 4332 1dd2 E8000000 		call	_ZN8UnitTest11CurrentTest7ResultsEv
 4332      00
 4333 1dd7 488B00   		movq	(%rax), %rax
 4334 1dda 488D9590 		leaq	-2160(%rbp), %rdx
 4334      F7FFFF
 4335 1de1 488D8DB0 		leaq	-2128(%rbp), %rcx
 4335      F7FFFF
 4336 1de8 488DB910 		leaq	784(%rcx), %rdi
 4336      030000
 4337 1def 488DB54C 		leaq	-2228(%rbp), %rsi
 4337      F7FFFF
 4338 1df6 4889D1   		movq	%rdx, %rcx
 4339 1df9 4889FA   		movq	%rdi, %rdx
 4340 1dfc 4889C7   		movq	%rax, %rdi
 4341 1dff E8000000 		call	_ZN8UnitTest10CheckEqualIiiEEvRNS_11TestResultsERKT_RKT0_RKNS_11TestDetailsE
 4341      00
 4342              	.LEHE107:
 4343              	.L195:
 4344              		.loc 5 180 0 discriminator 2
 4345 1e04 488D85B0 		leaq	-2128(%rbp), %rax
 4345      F7FFFF
 4346 1e0b 4889C7   		movq	%rax, %rdi
 4347              	.LEHB108:
 4348 1e0e E8000000 		call	_ZN17RecordingReporterD1Ev
 4348      00
 4349              	.LEHE108:
 4350              	.LBE58:
 181:TestChecks.cpp **** }
 4351              		.loc 5 181 0 is_stmt 1 discriminator 2
 4352 1e13 488B45E8 		movq	-24(%rbp), %rax
 4353 1e17 64483304 		xorq	%fs:40, %rax
 4353      25280000 
 4353      00
 4354 1e20 0F849801 		je	.L196
 4354      0000
 4355 1e26 E98E0100 		jmp	.L206
 4355      00
 4356              	.L199:
 4357 1e2b 4889C3   		movq	%rax, %rbx
 4358              	.LBB59:
 177:TestChecks.cpp ****     CHECK_EQUAL("mysuite", reporter.lastFailedSuite);
 4359              		.loc 5 177 0
 4360 1e2e E8000000 		call	__cxa_end_catch
 4360      00
 4361 1e33 E9670100 		jmp	.L184
 4361      00
 4362              	.L198:
 4363 1e38 4889C7   		movq	%rax, %rdi
 4364 1e3b E8000000 		call	__cxa_begin_catch
 4364      00
 4365              	.LEHB109:
 4366 1e40 E8000000 		call	_ZN8UnitTest11CurrentTest7DetailsEv
 4366      00
 4367 1e45 488B08   		movq	(%rax), %rcx
 4368 1e48 488D8590 		leaq	-2160(%rbp), %rax
 4368      F7FFFF
 4369 1e4f BAB10000 		movl	$177, %edx
 4369      00
 4370 1e54 4889CE   		movq	%rcx, %rsi
 4371 1e57 4889C7   		movq	%rax, %rdi
 4372 1e5a E8000000 		call	_ZN8UnitTest11TestDetailsC1ERKS0_i
 4372      00
 177:TestChecks.cpp ****     CHECK_EQUAL("mysuite", reporter.lastFailedSuite);
 4373              		.loc 5 177 0 is_stmt 0 discriminator 1
 4374 1e5f E8000000 		call	_ZN8UnitTest11CurrentTest7ResultsEv
 4374      00
 4375 1e64 488B00   		movq	(%rax), %rax
 4376 1e67 488D8D90 		leaq	-2160(%rbp), %rcx
 4376      F7FFFF
 4377 1e6e BA000000 		movl	$.LC26, %edx
 4377      00
 4378 1e73 4889CE   		movq	%rcx, %rsi
 4379 1e76 4889C7   		movq	%rax, %rdi
 4380 1e79 E8000000 		call	_ZN8UnitTest11TestResults13OnTestFailureERKNS_11TestDetailsEPKc
 4380      00
 4381              	.LEHE109:
 4382              	.LEHB110:
 4383 1e7e E8000000 		call	__cxa_end_catch
 4383      00
 4384              	.LEHE110:
 177:TestChecks.cpp ****     CHECK_EQUAL("mysuite", reporter.lastFailedSuite);
 4385              		.loc 5 177 0
 4386 1e83 E983FEFF 		jmp	.L186
 4386      FF
 4387              	.L201:
 4388 1e88 4889C3   		movq	%rax, %rbx
 178:TestChecks.cpp ****     CHECK_EQUAL("header.h", reporter.lastFailedFile);
 4389              		.loc 5 178 0 is_stmt 1
 4390 1e8b E8000000 		call	__cxa_end_catch
 4390      00
 4391 1e90 E90A0100 		jmp	.L184
 4391      00
 4392              	.L200:
 4393 1e95 4889C7   		movq	%rax, %rdi
 4394 1e98 E8000000 		call	__cxa_begin_catch
 4394      00
 4395              	.LEHB111:
 4396 1e9d E8000000 		call	_ZN8UnitTest11CurrentTest7DetailsEv
 4396      00
 4397 1ea2 488B08   		movq	(%rax), %rcx
 4398 1ea5 488D8590 		leaq	-2160(%rbp), %rax
 4398      F7FFFF
 4399 1eac BAB20000 		movl	$178, %edx
 4399      00
 4400 1eb1 4889CE   		movq	%rcx, %rsi
 4401 1eb4 4889C7   		movq	%rax, %rdi
 4402 1eb7 E8000000 		call	_ZN8UnitTest11TestDetailsC1ERKS0_i
 4402      00
 178:TestChecks.cpp ****     CHECK_EQUAL("header.h", reporter.lastFailedFile);
 4403              		.loc 5 178 0 is_stmt 0 discriminator 1
 4404 1ebc E8000000 		call	_ZN8UnitTest11CurrentTest7ResultsEv
 4404      00
 4405 1ec1 488B00   		movq	(%rax), %rax
 4406 1ec4 488D8D90 		leaq	-2160(%rbp), %rcx
 4406      F7FFFF
 4407 1ecb BA000000 		movl	$.LC27, %edx
 4407      00
 4408 1ed0 4889CE   		movq	%rcx, %rsi
 4409 1ed3 4889C7   		movq	%rax, %rdi
 4410 1ed6 E8000000 		call	_ZN8UnitTest11TestResults13OnTestFailureERKNS_11TestDetailsEPKc
 4410      00
 4411              	.LEHE111:
 4412              	.LEHB112:
 4413 1edb E8000000 		call	__cxa_end_catch
 4413      00
 4414              	.LEHE112:
 178:TestChecks.cpp ****     CHECK_EQUAL("header.h", reporter.lastFailedFile);
 4415              		.loc 5 178 0
 4416 1ee0 E975FEFF 		jmp	.L189
 4416      FF
 4417              	.L203:
 4418 1ee5 4889C3   		movq	%rax, %rbx
 179:TestChecks.cpp ****     CHECK_EQUAL(10, reporter.lastFailedLine);
 4419              		.loc 5 179 0 is_stmt 1
 4420 1ee8 E8000000 		call	__cxa_end_catch
 4420      00
 4421 1eed E9AD0000 		jmp	.L184
 4421      00
 4422              	.L202:
 4423 1ef2 4889C7   		movq	%rax, %rdi
 4424 1ef5 E8000000 		call	__cxa_begin_catch
 4424      00
 4425              	.LEHB113:
 4426 1efa E8000000 		call	_ZN8UnitTest11CurrentTest7DetailsEv
 4426      00
 4427 1eff 488B08   		movq	(%rax), %rcx
 4428 1f02 488D8590 		leaq	-2160(%rbp), %rax
 4428      F7FFFF
 4429 1f09 BAB30000 		movl	$179, %edx
 4429      00
 4430 1f0e 4889CE   		movq	%rcx, %rsi
 4431 1f11 4889C7   		movq	%rax, %rdi
 4432 1f14 E8000000 		call	_ZN8UnitTest11TestDetailsC1ERKS0_i
 4432      00
 179:TestChecks.cpp ****     CHECK_EQUAL(10, reporter.lastFailedLine);
 4433              		.loc 5 179 0 is_stmt 0 discriminator 1
 4434 1f19 E8000000 		call	_ZN8UnitTest11CurrentTest7ResultsEv
 4434      00
 4435 1f1e 488B00   		movq	(%rax), %rax
 4436 1f21 488D8D90 		leaq	-2160(%rbp), %rcx
 4436      F7FFFF
 4437 1f28 BA000000 		movl	$.LC55, %edx
 4437      00
 4438 1f2d 4889CE   		movq	%rcx, %rsi
 4439 1f30 4889C7   		movq	%rax, %rdi
 4440 1f33 E8000000 		call	_ZN8UnitTest11TestResults13OnTestFailureERKNS_11TestDetailsEPKc
 4440      00
 4441              	.LEHE113:
 4442              	.LEHB114:
 4443 1f38 E8000000 		call	__cxa_end_catch
 4443      00
 4444              	.LEHE114:
 179:TestChecks.cpp ****     CHECK_EQUAL(10, reporter.lastFailedLine);
 4445              		.loc 5 179 0
 4446 1f3d E967FEFF 		jmp	.L192
 4446      FF
 4447              	.L205:
 4448 1f42 4889C3   		movq	%rax, %rbx
 180:TestChecks.cpp **** }
 4449              		.loc 5 180 0 is_stmt 1
 4450 1f45 E8000000 		call	__cxa_end_catch
 4450      00
 4451 1f4a EB53     		jmp	.L184
 4452              	.L204:
 4453 1f4c 4889C7   		movq	%rax, %rdi
 4454 1f4f E8000000 		call	__cxa_begin_catch
 4454      00
 4455              	.LEHB115:
 4456 1f54 E8000000 		call	_ZN8UnitTest11CurrentTest7DetailsEv
 4456      00
 4457 1f59 488B08   		movq	(%rax), %rcx
 4458 1f5c 488D8590 		leaq	-2160(%rbp), %rax
 4458      F7FFFF
 4459 1f63 BAB40000 		movl	$180, %edx
 4459      00
 4460 1f68 4889CE   		movq	%rcx, %rsi
 4461 1f6b 4889C7   		movq	%rax, %rdi
 4462 1f6e E8000000 		call	_ZN8UnitTest11TestDetailsC1ERKS0_i
 4462      00
 180:TestChecks.cpp **** }
 4463              		.loc 5 180 0 is_stmt 0 discriminator 1
 4464 1f73 E8000000 		call	_ZN8UnitTest11CurrentTest7ResultsEv
 4464      00
 4465 1f78 488B00   		movq	(%rax), %rax
 4466 1f7b 488D8D90 		leaq	-2160(%rbp), %rcx
 4466      F7FFFF
 4467 1f82 BA000000 		movl	$.LC56, %edx
 4467      00
 4468 1f87 4889CE   		movq	%rcx, %rsi
 4469 1f8a 4889C7   		movq	%rax, %rdi
 4470 1f8d E8000000 		call	_ZN8UnitTest11TestResults13OnTestFailureERKNS_11TestDetailsEPKc
 4470      00
 4471              	.LEHE115:
 4472              	.LEHB116:
 4473 1f92 E8000000 		call	__cxa_end_catch
 4473      00
 4474              	.LEHE116:
 180:TestChecks.cpp **** }
 4475              		.loc 5 180 0
 4476 1f97 E968FEFF 		jmp	.L195
 4476      FF
 4477              	.L197:
 4478 1f9c 4889C3   		movq	%rax, %rbx
 4479              	.L184:
 4480 1f9f 488D85B0 		leaq	-2128(%rbp), %rax
 4480      F7FFFF
 4481 1fa6 4889C7   		movq	%rax, %rdi
 4482 1fa9 E8000000 		call	_ZN17RecordingReporterD1Ev
 4482      00
 4483 1fae 4889D8   		movq	%rbx, %rax
 4484 1fb1 4889C7   		movq	%rax, %rdi
 4485              	.LEHB117:
 4486 1fb4 E8000000 		call	_Unwind_Resume
 4486      00
 4487              	.LEHE117:
 4488              	.L206:
 4489              	.LBE59:
 4490              		.loc 5 181 0 is_stmt 1
 4491 1fb9 E8000000 		call	__stack_chk_fail
 4491      00
 4492              	.L196:
 4493 1fbe 4881C4C8 		addq	$2248, %rsp
 4493      080000
 4494 1fc5 5B       		popq	%rbx
 4495 1fc6 5D       		popq	%rbp
 4496              		.cfi_def_cfa 7, 8
 4497 1fc7 C3       		ret
 4498              		.cfi_endproc
 4499              	.LFE1096:
 4500              		.section	.gcc_except_table
 4501              		.align 4
 4502              	.LLSDA1096:
 4503 02c0 FF       		.byte	0xff
 4504 02c1 03       		.byte	0x3
 4505 02c2 61       		.uleb128 .LLSDATT1096-.LLSDATTD1096
 4506              	.LLSDATTD1096:
 4507 02c3 01       		.byte	0x1
 4508 02c4 57       		.uleb128 .LLSDACSE1096-.LLSDACSB1096
 4509              	.LLSDACSB1096:
 4510 02c5 45       		.uleb128 .LEHB103-.LFB1096
 4511 02c6 77       		.uleb128 .LEHE103-.LEHB103
 4512 02c7 9C07     		.uleb128 .L197-.LFB1096
 4513 02c9 00       		.uleb128 0
 4514 02ca BC01     		.uleb128 .LEHB104-.LFB1096
 4515 02cc 4F       		.uleb128 .LEHE104-.LEHB104
 4516 02cd B804     		.uleb128 .L198-.LFB1096
 4517 02cf 01       		.uleb128 0x1
 4518 02d0 8B02     		.uleb128 .LEHB105-.LFB1096
 4519 02d2 4F       		.uleb128 .LEHE105-.LEHB105
 4520 02d3 9505     		.uleb128 .L200-.LFB1096
 4521 02d5 01       		.uleb128 0x1
 4522 02d6 DA02     		.uleb128 .LEHB106-.LFB1096
 4523 02d8 4F       		.uleb128 .LEHE106-.LEHB106
 4524 02d9 F205     		.uleb128 .L202-.LFB1096
 4525 02db 01       		.uleb128 0x1
 4526 02dc A903     		.uleb128 .LEHB107-.LFB1096
 4527 02de 5B       		.uleb128 .LEHE107-.LEHB107
 4528 02df CC06     		.uleb128 .L204-.LFB1096
 4529 02e1 01       		.uleb128 0x1
 4530 02e2 8E04     		.uleb128 .LEHB108-.LFB1096
 4531 02e4 05       		.uleb128 .LEHE108-.LEHB108
 4532 02e5 00       		.uleb128 0
 4533 02e6 00       		.uleb128 0
 4534 02e7 C004     		.uleb128 .LEHB109-.LFB1096
 4535 02e9 3E       		.uleb128 .LEHE109-.LEHB109
 4536 02ea AB04     		.uleb128 .L199-.LFB1096
 4537 02ec 00       		.uleb128 0
 4538 02ed FE04     		.uleb128 .LEHB110-.LFB1096
 4539 02ef 05       		.uleb128 .LEHE110-.LEHB110
 4540 02f0 9C07     		.uleb128 .L197-.LFB1096
 4541 02f2 00       		.uleb128 0
 4542 02f3 9D05     		.uleb128 .LEHB111-.LFB1096
 4543 02f5 3E       		.uleb128 .LEHE111-.LEHB111
 4544 02f6 8805     		.uleb128 .L201-.LFB1096
 4545 02f8 00       		.uleb128 0
 4546 02f9 DB05     		.uleb128 .LEHB112-.LFB1096
 4547 02fb 05       		.uleb128 .LEHE112-.LEHB112
 4548 02fc 9C07     		.uleb128 .L197-.LFB1096
 4549 02fe 00       		.uleb128 0
 4550 02ff FA05     		.uleb128 .LEHB113-.LFB1096
 4551 0301 3E       		.uleb128 .LEHE113-.LEHB113
 4552 0302 E505     		.uleb128 .L203-.LFB1096
 4553 0304 00       		.uleb128 0
 4554 0305 B806     		.uleb128 .LEHB114-.LFB1096
 4555 0307 05       		.uleb128 .LEHE114-.LEHB114
 4556 0308 9C07     		.uleb128 .L197-.LFB1096
 4557 030a 00       		.uleb128 0
 4558 030b D406     		.uleb128 .LEHB115-.LFB1096
 4559 030d 3E       		.uleb128 .LEHE115-.LEHB115
 4560 030e C206     		.uleb128 .L205-.LFB1096
 4561 0310 00       		.uleb128 0
 4562 0311 9207     		.uleb128 .LEHB116-.LFB1096
 4563 0313 05       		.uleb128 .LEHE116-.LEHB116
 4564 0314 9C07     		.uleb128 .L197-.LFB1096
 4565 0316 00       		.uleb128 0
 4566 0317 B407     		.uleb128 .LEHB117-.LFB1096
 4567 0319 05       		.uleb128 .LEHE117-.LEHB117
 4568 031a 00       		.uleb128 0
 4569 031b 00       		.uleb128 0
 4570              	.LLSDACSE1096:
 4571 031c 01       		.byte	0x1
 4572 031d 00       		.byte	0
 4573 031e 0000     		.align 4
 4574 0320 00000000 		.long	0
 4575              	
 4576              	.LLSDATT1096:
 4577              		.text
 4579              		.section	.rodata
 4580              	.LC57:
 4581 0820 43686563 		.string	"CheckArrayEqualTrue"
 4581      6B417272 
 4581      61794571 
 4581      75616C54 
 4581      72756500 
 4582              		.text
 4583              		.align 2
 4585              	_ZN12_GLOBAL__N_123TestCheckArrayEqualTrueC2Ev:
 4586              	.LFB1098:
 182:TestChecks.cpp **** 
 183:TestChecks.cpp **** 
 184:TestChecks.cpp **** TEST(CheckArrayEqualTrue)
 4587              		.loc 5 184 0
 4588              		.cfi_startproc
 4589 1fc8 55       		pushq	%rbp
 4590              		.cfi_def_cfa_offset 16
 4591              		.cfi_offset 6, -16
 4592 1fc9 4889E5   		movq	%rsp, %rbp
 4593              		.cfi_def_cfa_register 6
 4594 1fcc 4883EC10 		subq	$16, %rsp
 4595 1fd0 48897DF8 		movq	%rdi, -8(%rbp)
 4596              	.LBB60:
 4597              		.loc 5 184 0
 4598 1fd4 E8000000 		call	_ZN13UnitTestSuite12GetSuiteNameEv
 4598      00
 4599 1fd9 4889C2   		movq	%rax, %rdx
 4600 1fdc 488B45F8 		movq	-8(%rbp), %rax
 4601 1fe0 41B8B800 		movl	$184, %r8d
 4601      0000
 4602 1fe6 B9000000 		movl	$.LC2, %ecx
 4602      00
 4603 1feb BE000000 		movl	$.LC57, %esi
 4603      00
 4604 1ff0 4889C7   		movq	%rax, %rdi
 4605 1ff3 E8000000 		call	_ZN8UnitTest4TestC2EPKcS2_S2_i
 4605      00
 4606 1ff8 488B45F8 		movq	-8(%rbp), %rax
 4607 1ffc 48C70000 		movq	$_ZTVN12_GLOBAL__N_123TestCheckArrayEqualTrueE+16, (%rax)
 4607      000000
 4608              	.LBE60:
 4609 2003 C9       		leave
 4610              		.cfi_def_cfa 7, 8
 4611 2004 C3       		ret
 4612              		.cfi_endproc
 4613              	.LFE1098:
 4615              		.set	_ZN12_GLOBAL__N_123TestCheckArrayEqualTrueC1Ev,_ZN12_GLOBAL__N_123TestCheckArrayEqualTrueC2Ev
 4616              		.local	_ZN12_GLOBAL__N_131testCheckArrayEqualTrueInstanceE
 4617              		.comm	_ZN12_GLOBAL__N_131testCheckArrayEqualTrueInstanceE,56,32
 4618              		.local	_ZN12_GLOBAL__N_124adderCheckArrayEqualTrueE
 4619              		.comm	_ZN12_GLOBAL__N_124adderCheckArrayEqualTrueE,1,1
 4620 2005 90       		.align 2
 4622              	_ZNK12_GLOBAL__N_123TestCheckArrayEqualTrue7RunImplEv:
 4623              	.LFB1100:
 185:TestChecks.cpp **** {
 4624              		.loc 5 185 0
 4625              		.cfi_startproc
 4626              		.cfi_personality 0x3,__gxx_personality_v0
 4627              		.cfi_lsda 0x3,.LLSDA1100
 4628 2006 55       		pushq	%rbp
 4629              		.cfi_def_cfa_offset 16
 4630              		.cfi_offset 6, -16
 4631 2007 4889E5   		movq	%rsp, %rbp
 4632              		.cfi_def_cfa_register 6
 4633 200a 53       		pushq	%rbx
 4634 200b 4883EC78 		subq	$120, %rsp
 4635              		.cfi_offset 3, -24
 4636 200f 48897D88 		movq	%rdi, -120(%rbp)
 4637              	.LBB61:
 186:TestChecks.cpp ****     TestResults results;
 4638              		.loc 5 186 0
 4639 2013 488D45B0 		leaq	-80(%rbp), %rax
 4640 2017 BE000000 		movl	$0, %esi
 4640      00
 4641 201c 4889C7   		movq	%rax, %rdi
 4642              	.LEHB118:
 4643 201f E8000000 		call	_ZN8UnitTest11TestResultsC1EPNS_12TestReporterE
 4643      00
 187:TestChecks.cpp **** 
 188:TestChecks.cpp ****     int const array[3] = { 1, 2, 3 };
 4644              		.loc 5 188 0
 4645 2024 C745A001 		movl	$1, -96(%rbp)
 4645      000000
 4646 202b C745A402 		movl	$2, -92(%rbp)
 4646      000000
 4647 2032 C745A803 		movl	$3, -88(%rbp)
 4647      000000
 189:TestChecks.cpp ****     CheckArrayEqual(results, array, array, 3, TestDetails("", "", "", 0));
 4648              		.loc 5 189 0
 4649 2039 488D45D0 		leaq	-48(%rbp), %rax
 4650 203d 41B80000 		movl	$0, %r8d
 4650      0000
 4651 2043 B9000000 		movl	$.LC6, %ecx
 4651      00
 4652 2048 BA000000 		movl	$.LC6, %edx
 4652      00
 4653 204d BE000000 		movl	$.LC6, %esi
 4653      00
 4654 2052 4889C7   		movq	%rax, %rdi
 4655 2055 E8000000 		call	_ZN8UnitTest11TestDetailsC1EPKcS2_S2_i
 4655      00
 4656 205a 488D4DD0 		leaq	-48(%rbp), %rcx
 4657 205e 488D55A0 		leaq	-96(%rbp), %rdx
 4658 2062 488D75A0 		leaq	-96(%rbp), %rsi
 4659 2066 488D45B0 		leaq	-80(%rbp), %rax
 4660 206a 4989C8   		movq	%rcx, %r8
 4661 206d B9030000 		movl	$3, %ecx
 4661      00
 4662 2072 4889C7   		movq	%rax, %rdi
 4663 2075 E8000000 		call	_ZN8UnitTest15CheckArrayEqualIA3_iS1_EEvRNS_11TestResultsERKT_RKT0_iRKNS_11TestDetailsE
 4663      00
 4664              	.LEHE118:
 4665              	.LEHB119:
 190:TestChecks.cpp ****     CHECK_EQUAL(0, results.GetFailureCount());
 4666              		.loc 5 190 0
 4667 207a E8000000 		call	_ZN8UnitTest11CurrentTest7DetailsEv
 4667      00
 4668 207f 488B08   		movq	(%rax), %rcx
 4669 2082 488D45D0 		leaq	-48(%rbp), %rax
 4670 2086 BABE0000 		movl	$190, %edx
 4670      00
 4671 208b 4889CE   		movq	%rcx, %rsi
 4672 208e 4889C7   		movq	%rax, %rdi
 4673 2091 E8000000 		call	_ZN8UnitTest11TestDetailsC1ERKS0_i
 4673      00
 4674              		.loc 5 190 0 is_stmt 0 discriminator 1
 4675 2096 488D45B0 		leaq	-80(%rbp), %rax
 4676 209a 4889C7   		movq	%rax, %rdi
 4677 209d E8000000 		call	_ZNK8UnitTest11TestResults15GetFailureCountEv
 4677      00
 4678 20a2 89459C   		movl	%eax, -100(%rbp)
 4679 20a5 C7459800 		movl	$0, -104(%rbp)
 4679      000000
 4680 20ac E8000000 		call	_ZN8UnitTest11CurrentTest7ResultsEv
 4680      00
 4681 20b1 488B00   		movq	(%rax), %rax
 4682 20b4 488D4DD0 		leaq	-48(%rbp), %rcx
 4683 20b8 488D559C 		leaq	-100(%rbp), %rdx
 4684 20bc 488D7598 		leaq	-104(%rbp), %rsi
 4685 20c0 4889C7   		movq	%rax, %rdi
 4686 20c3 E8000000 		call	_ZN8UnitTest10CheckEqualIiiEEvRNS_11TestResultsERKT_RKT0_RKNS_11TestDetailsE
 4686      00
 4687              	.LEHE119:
 4688              	.LBE61:
 191:TestChecks.cpp **** }
 4689              		.loc 5 191 0 is_stmt 1
 4690 20c8 EB58     		jmp	.L214
 4691              	.L213:
 4692 20ca 4889C3   		movq	%rax, %rbx
 4693              	.LBB62:
 190:TestChecks.cpp ****     CHECK_EQUAL(0, results.GetFailureCount());
 4694              		.loc 5 190 0
 4695 20cd E8000000 		call	__cxa_end_catch
 4695      00
 4696 20d2 4889D8   		movq	%rbx, %rax
 4697 20d5 4889C7   		movq	%rax, %rdi
 4698              	.LEHB120:
 4699 20d8 E8000000 		call	_Unwind_Resume
 4699      00
 4700              	.LEHE120:
 4701              	.L212:
 4702 20dd 4889C7   		movq	%rax, %rdi
 4703 20e0 E8000000 		call	__cxa_begin_catch
 4703      00
 4704              	.LEHB121:
 4705 20e5 E8000000 		call	_ZN8UnitTest11CurrentTest7DetailsEv
 4705      00
 4706 20ea 488B08   		movq	(%rax), %rcx
 4707 20ed 488D45D0 		leaq	-48(%rbp), %rax
 4708 20f1 BABE0000 		movl	$190, %edx
 4708      00
 4709 20f6 4889CE   		movq	%rcx, %rsi
 4710 20f9 4889C7   		movq	%rax, %rdi
 4711 20fc E8000000 		call	_ZN8UnitTest11TestDetailsC1ERKS0_i
 4711      00
 190:TestChecks.cpp ****     CHECK_EQUAL(0, results.GetFailureCount());
 4712              		.loc 5 190 0 is_stmt 0 discriminator 1
 4713 2101 E8000000 		call	_ZN8UnitTest11CurrentTest7ResultsEv
 4713      00
 4714 2106 488B00   		movq	(%rax), %rax
 4715 2109 488D4DD0 		leaq	-48(%rbp), %rcx
 4716 210d BA000000 		movl	$.LC9, %edx
 4716      00
 4717 2112 4889CE   		movq	%rcx, %rsi
 4718 2115 4889C7   		movq	%rax, %rdi
 4719 2118 E8000000 		call	_ZN8UnitTest11TestResults13OnTestFailureERKNS_11TestDetailsEPKc
 4719      00
 4720              	.LEHE121:
 4721              	.LEHB122:
 4722 211d E8000000 		call	__cxa_end_catch
 4722      00
 4723              	.LEHE122:
 4724              	.L214:
 4725              	.LBE62:
 4726              		.loc 5 191 0 is_stmt 1
 4727 2122 90       		nop
 4728 2123 4883C478 		addq	$120, %rsp
 4729 2127 5B       		popq	%rbx
 4730 2128 5D       		popq	%rbp
 4731              		.cfi_def_cfa 7, 8
 4732 2129 C3       		ret
 4733              		.cfi_endproc
 4734              	.LFE1100:
 4735              		.section	.gcc_except_table
 4736              		.align 4
 4737              	.LLSDA1100:
 4738 0324 FF       		.byte	0xff
 4739 0325 03       		.byte	0x3
 4740 0326 21       		.uleb128 .LLSDATT1100-.LLSDATTD1100
 4741              	.LLSDATTD1100:
 4742 0327 01       		.byte	0x1
 4743 0328 19       		.uleb128 .LLSDACSE1100-.LLSDACSB1100
 4744              	.LLSDACSB1100:
 4745 0329 19       		.uleb128 .LEHB118-.LFB1100
 4746 032a 5B       		.uleb128 .LEHE118-.LEHB118
 4747 032b 00       		.uleb128 0
 4748 032c 00       		.uleb128 0
 4749 032d 74       		.uleb128 .LEHB119-.LFB1100
 4750 032e 4E       		.uleb128 .LEHE119-.LEHB119
 4751 032f D701     		.uleb128 .L212-.LFB1100
 4752 0331 01       		.uleb128 0x1
 4753 0332 D201     		.uleb128 .LEHB120-.LFB1100
 4754 0334 05       		.uleb128 .LEHE120-.LEHB120
 4755 0335 00       		.uleb128 0
 4756 0336 00       		.uleb128 0
 4757 0337 DF01     		.uleb128 .LEHB121-.LFB1100
 4758 0339 38       		.uleb128 .LEHE121-.LEHB121
 4759 033a C401     		.uleb128 .L213-.LFB1100
 4760 033c 00       		.uleb128 0
 4761 033d 9702     		.uleb128 .LEHB122-.LFB1100
 4762 033f 05       		.uleb128 .LEHE122-.LEHB122
 4763 0340 00       		.uleb128 0
 4764 0341 00       		.uleb128 0
 4765              	.LLSDACSE1100:
 4766 0342 01       		.byte	0x1
 4767 0343 00       		.byte	0
 4768              		.align 4
 4769 0344 00000000 		.long	0
 4770              	
 4771              	.LLSDATT1100:
 4772              		.text
 4774              		.section	.rodata
 4775              	.LC58:
 4776 0834 43686563 		.string	"CheckArrayEqualFalse"
 4776      6B417272 
 4776      61794571 
 4776      75616C46 
 4776      616C7365 
 4777              		.text
 4778              		.align 2
 4780              	_ZN12_GLOBAL__N_124TestCheckArrayEqualFalseC2Ev:
 4781              	.LFB1102:
 192:TestChecks.cpp **** 
 193:TestChecks.cpp **** TEST(CheckArrayEqualFalse)
 4782              		.loc 5 193 0
 4783              		.cfi_startproc
 4784 212a 55       		pushq	%rbp
 4785              		.cfi_def_cfa_offset 16
 4786              		.cfi_offset 6, -16
 4787 212b 4889E5   		movq	%rsp, %rbp
 4788              		.cfi_def_cfa_register 6
 4789 212e 4883EC10 		subq	$16, %rsp
 4790 2132 48897DF8 		movq	%rdi, -8(%rbp)
 4791              	.LBB63:
 4792              		.loc 5 193 0
 4793 2136 E8000000 		call	_ZN13UnitTestSuite12GetSuiteNameEv
 4793      00
 4794 213b 4889C2   		movq	%rax, %rdx
 4795 213e 488B45F8 		movq	-8(%rbp), %rax
 4796 2142 41B8C100 		movl	$193, %r8d
 4796      0000
 4797 2148 B9000000 		movl	$.LC2, %ecx
 4797      00
 4798 214d BE000000 		movl	$.LC58, %esi
 4798      00
 4799 2152 4889C7   		movq	%rax, %rdi
 4800 2155 E8000000 		call	_ZN8UnitTest4TestC2EPKcS2_S2_i
 4800      00
 4801 215a 488B45F8 		movq	-8(%rbp), %rax
 4802 215e 48C70000 		movq	$_ZTVN12_GLOBAL__N_124TestCheckArrayEqualFalseE+16, (%rax)
 4802      000000
 4803              	.LBE63:
 4804 2165 C9       		leave
 4805              		.cfi_def_cfa 7, 8
 4806 2166 C3       		ret
 4807              		.cfi_endproc
 4808              	.LFE1102:
 4810              		.set	_ZN12_GLOBAL__N_124TestCheckArrayEqualFalseC1Ev,_ZN12_GLOBAL__N_124TestCheckArrayEqualFalseC2
 4811              		.local	_ZN12_GLOBAL__N_132testCheckArrayEqualFalseInstanceE
 4812              		.comm	_ZN12_GLOBAL__N_132testCheckArrayEqualFalseInstanceE,56,32
 4813              		.local	_ZN12_GLOBAL__N_125adderCheckArrayEqualFalseE
 4814              		.comm	_ZN12_GLOBAL__N_125adderCheckArrayEqualFalseE,1,1
 4815 2167 90       		.align 2
 4817              	_ZNK12_GLOBAL__N_124TestCheckArrayEqualFalse7RunImplEv:
 4818              	.LFB1104:
 194:TestChecks.cpp **** {
 4819              		.loc 5 194 0
 4820              		.cfi_startproc
 4821              		.cfi_personality 0x3,__gxx_personality_v0
 4822              		.cfi_lsda 0x3,.LLSDA1104
 4823 2168 55       		pushq	%rbp
 4824              		.cfi_def_cfa_offset 16
 4825              		.cfi_offset 6, -16
 4826 2169 4889E5   		movq	%rsp, %rbp
 4827              		.cfi_def_cfa_register 6
 4828 216c 53       		pushq	%rbx
 4829 216d 4881EC88 		subq	$136, %rsp
 4829      000000
 4830              		.cfi_offset 3, -24
 4831 2174 4889BD78 		movq	%rdi, -136(%rbp)
 4831      FFFFFF
 4832              	.LBB64:
 195:TestChecks.cpp ****     TestResults results;
 4833              		.loc 5 195 0
 4834 217b 488D45B0 		leaq	-80(%rbp), %rax
 4835 217f BE000000 		movl	$0, %esi
 4835      00
 4836 2184 4889C7   		movq	%rax, %rdi
 4837              	.LEHB123:
 4838 2187 E8000000 		call	_ZN8UnitTest11TestResultsC1EPNS_12TestReporterE
 4838      00
 196:TestChecks.cpp **** 
 197:TestChecks.cpp ****     int const array1[3] = { 1, 2, 3 };
 4839              		.loc 5 197 0
 4840 218c C7459001 		movl	$1, -112(%rbp)
 4840      000000
 4841 2193 C7459402 		movl	$2, -108(%rbp)
 4841      000000
 4842 219a C7459803 		movl	$3, -104(%rbp)
 4842      000000
 198:TestChecks.cpp ****     int const array2[3] = { 1, 2, 2 };
 4843              		.loc 5 198 0
 4844 21a1 C745A001 		movl	$1, -96(%rbp)
 4844      000000
 4845 21a8 C745A402 		movl	$2, -92(%rbp)
 4845      000000
 4846 21af C745A802 		movl	$2, -88(%rbp)
 4846      000000
 199:TestChecks.cpp ****     CheckArrayEqual(results, array1, array2, 3, TestDetails("", "", "", 0));
 4847              		.loc 5 199 0
 4848 21b6 488D45D0 		leaq	-48(%rbp), %rax
 4849 21ba 41B80000 		movl	$0, %r8d
 4849      0000
 4850 21c0 B9000000 		movl	$.LC6, %ecx
 4850      00
 4851 21c5 BA000000 		movl	$.LC6, %edx
 4851      00
 4852 21ca BE000000 		movl	$.LC6, %esi
 4852      00
 4853 21cf 4889C7   		movq	%rax, %rdi
 4854 21d2 E8000000 		call	_ZN8UnitTest11TestDetailsC1EPKcS2_S2_i
 4854      00
 4855 21d7 488D4DD0 		leaq	-48(%rbp), %rcx
 4856 21db 488D55A0 		leaq	-96(%rbp), %rdx
 4857 21df 488D7590 		leaq	-112(%rbp), %rsi
 4858 21e3 488D45B0 		leaq	-80(%rbp), %rax
 4859 21e7 4989C8   		movq	%rcx, %r8
 4860 21ea B9030000 		movl	$3, %ecx
 4860      00
 4861 21ef 4889C7   		movq	%rax, %rdi
 4862 21f2 E8000000 		call	_ZN8UnitTest15CheckArrayEqualIA3_iS1_EEvRNS_11TestResultsERKT_RKT0_iRKNS_11TestDetailsE
 4862      00
 4863              	.LEHE123:
 4864              	.LEHB124:
 200:TestChecks.cpp ****     CHECK_EQUAL(1, results.GetFailureCount());
 4865              		.loc 5 200 0
 4866 21f7 E8000000 		call	_ZN8UnitTest11CurrentTest7DetailsEv
 4866      00
 4867 21fc 488B08   		movq	(%rax), %rcx
 4868 21ff 488D45D0 		leaq	-48(%rbp), %rax
 4869 2203 BAC80000 		movl	$200, %edx
 4869      00
 4870 2208 4889CE   		movq	%rcx, %rsi
 4871 220b 4889C7   		movq	%rax, %rdi
 4872 220e E8000000 		call	_ZN8UnitTest11TestDetailsC1ERKS0_i
 4872      00
 4873              		.loc 5 200 0 is_stmt 0 discriminator 1
 4874 2213 488D45B0 		leaq	-80(%rbp), %rax
 4875 2217 4889C7   		movq	%rax, %rdi
 4876 221a E8000000 		call	_ZNK8UnitTest11TestResults15GetFailureCountEv
 4876      00
 4877 221f 89458C   		movl	%eax, -116(%rbp)
 4878 2222 C7458801 		movl	$1, -120(%rbp)
 4878      000000
 4879 2229 E8000000 		call	_ZN8UnitTest11CurrentTest7ResultsEv
 4879      00
 4880 222e 488B00   		movq	(%rax), %rax
 4881 2231 488D4DD0 		leaq	-48(%rbp), %rcx
 4882 2235 488D558C 		leaq	-116(%rbp), %rdx
 4883 2239 488D7588 		leaq	-120(%rbp), %rsi
 4884 223d 4889C7   		movq	%rax, %rdi
 4885 2240 E8000000 		call	_ZN8UnitTest10CheckEqualIiiEEvRNS_11TestResultsERKT_RKT0_RKNS_11TestDetailsE
 4885      00
 4886              	.LEHE124:
 4887              	.LBE64:
 201:TestChecks.cpp **** }
 4888              		.loc 5 201 0 is_stmt 1
 4889 2245 EB58     		jmp	.L222
 4890              	.L221:
 4891 2247 4889C3   		movq	%rax, %rbx
 4892              	.LBB65:
 200:TestChecks.cpp ****     CHECK_EQUAL(1, results.GetFailureCount());
 4893              		.loc 5 200 0
 4894 224a E8000000 		call	__cxa_end_catch
 4894      00
 4895 224f 4889D8   		movq	%rbx, %rax
 4896 2252 4889C7   		movq	%rax, %rdi
 4897              	.LEHB125:
 4898 2255 E8000000 		call	_Unwind_Resume
 4898      00
 4899              	.LEHE125:
 4900              	.L220:
 4901 225a 4889C7   		movq	%rax, %rdi
 4902 225d E8000000 		call	__cxa_begin_catch
 4902      00
 4903              	.LEHB126:
 4904 2262 E8000000 		call	_ZN8UnitTest11CurrentTest7DetailsEv
 4904      00
 4905 2267 488B08   		movq	(%rax), %rcx
 4906 226a 488D45D0 		leaq	-48(%rbp), %rax
 4907 226e BAC80000 		movl	$200, %edx
 4907      00
 4908 2273 4889CE   		movq	%rcx, %rsi
 4909 2276 4889C7   		movq	%rax, %rdi
 4910 2279 E8000000 		call	_ZN8UnitTest11TestDetailsC1ERKS0_i
 4910      00
 200:TestChecks.cpp ****     CHECK_EQUAL(1, results.GetFailureCount());
 4911              		.loc 5 200 0 is_stmt 0 discriminator 1
 4912 227e E8000000 		call	_ZN8UnitTest11CurrentTest7ResultsEv
 4912      00
 4913 2283 488B00   		movq	(%rax), %rax
 4914 2286 488D4DD0 		leaq	-48(%rbp), %rcx
 4915 228a BA000000 		movl	$.LC7, %edx
 4915      00
 4916 228f 4889CE   		movq	%rcx, %rsi
 4917 2292 4889C7   		movq	%rax, %rdi
 4918 2295 E8000000 		call	_ZN8UnitTest11TestResults13OnTestFailureERKNS_11TestDetailsEPKc
 4918      00
 4919              	.LEHE126:
 4920              	.LEHB127:
 4921 229a E8000000 		call	__cxa_end_catch
 4921      00
 4922              	.LEHE127:
 4923              	.L222:
 4924              	.LBE65:
 4925              		.loc 5 201 0 is_stmt 1
 4926 229f 90       		nop
 4927 22a0 4881C488 		addq	$136, %rsp
 4927      000000
 4928 22a7 5B       		popq	%rbx
 4929 22a8 5D       		popq	%rbp
 4930              		.cfi_def_cfa 7, 8
 4931 22a9 C3       		ret
 4932              		.cfi_endproc
 4933              	.LFE1104:
 4934              		.section	.gcc_except_table
 4935              		.align 4
 4936              	.LLSDA1104:
 4937 0348 FF       		.byte	0xff
 4938 0349 03       		.byte	0x3
 4939 034a 25       		.uleb128 .LLSDATT1104-.LLSDATTD1104
 4940              	.LLSDATTD1104:
 4941 034b 01       		.byte	0x1
 4942 034c 1A       		.uleb128 .LLSDACSE1104-.LLSDACSB1104
 4943              	.LLSDACSB1104:
 4944 034d 1F       		.uleb128 .LEHB123-.LFB1104
 4945 034e 70       		.uleb128 .LEHE123-.LEHB123
 4946 034f 00       		.uleb128 0
 4947 0350 00       		.uleb128 0
 4948 0351 8F01     		.uleb128 .LEHB124-.LFB1104
 4949 0353 4E       		.uleb128 .LEHE124-.LEHB124
 4950 0354 F201     		.uleb128 .L220-.LFB1104
 4951 0356 01       		.uleb128 0x1
 4952 0357 ED01     		.uleb128 .LEHB125-.LFB1104
 4953 0359 05       		.uleb128 .LEHE125-.LEHB125
 4954 035a 00       		.uleb128 0
 4955 035b 00       		.uleb128 0
 4956 035c FA01     		.uleb128 .LEHB126-.LFB1104
 4957 035e 38       		.uleb128 .LEHE126-.LEHB126
 4958 035f DF01     		.uleb128 .L221-.LFB1104
 4959 0361 00       		.uleb128 0
 4960 0362 B202     		.uleb128 .LEHB127-.LFB1104
 4961 0364 05       		.uleb128 .LEHE127-.LEHB127
 4962 0365 00       		.uleb128 0
 4963 0366 00       		.uleb128 0
 4964              	.LLSDACSE1104:
 4965 0367 01       		.byte	0x1
 4966 0368 00       		.byte	0
 4967 0369 000000   		.align 4
 4968 036c 00000000 		.long	0
 4969              	
 4970              	.LLSDATT1104:
 4971              		.text
 4973              		.section	.rodata
 4974              	.LC59:
 4975 0849 43686563 		.string	"CheckArrayCloseTrue"
 4975      6B417272 
 4975      6179436C 
 4975      6F736554 
 4975      72756500 
 4976              		.text
 4977              		.align 2
 4979              	_ZN12_GLOBAL__N_123TestCheckArrayCloseTrueC2Ev:
 4980              	.LFB1106:
 202:TestChecks.cpp **** 
 203:TestChecks.cpp **** TEST(CheckArrayCloseTrue)
 4981              		.loc 5 203 0
 4982              		.cfi_startproc
 4983 22aa 55       		pushq	%rbp
 4984              		.cfi_def_cfa_offset 16
 4985              		.cfi_offset 6, -16
 4986 22ab 4889E5   		movq	%rsp, %rbp
 4987              		.cfi_def_cfa_register 6
 4988 22ae 4883EC10 		subq	$16, %rsp
 4989 22b2 48897DF8 		movq	%rdi, -8(%rbp)
 4990              	.LBB66:
 4991              		.loc 5 203 0
 4992 22b6 E8000000 		call	_ZN13UnitTestSuite12GetSuiteNameEv
 4992      00
 4993 22bb 4889C2   		movq	%rax, %rdx
 4994 22be 488B45F8 		movq	-8(%rbp), %rax
 4995 22c2 41B8CB00 		movl	$203, %r8d
 4995      0000
 4996 22c8 B9000000 		movl	$.LC2, %ecx
 4996      00
 4997 22cd BE000000 		movl	$.LC59, %esi
 4997      00
 4998 22d2 4889C7   		movq	%rax, %rdi
 4999 22d5 E8000000 		call	_ZN8UnitTest4TestC2EPKcS2_S2_i
 4999      00
 5000 22da 488B45F8 		movq	-8(%rbp), %rax
 5001 22de 48C70000 		movq	$_ZTVN12_GLOBAL__N_123TestCheckArrayCloseTrueE+16, (%rax)
 5001      000000
 5002              	.LBE66:
 5003 22e5 C9       		leave
 5004              		.cfi_def_cfa 7, 8
 5005 22e6 C3       		ret
 5006              		.cfi_endproc
 5007              	.LFE1106:
 5009              		.set	_ZN12_GLOBAL__N_123TestCheckArrayCloseTrueC1Ev,_ZN12_GLOBAL__N_123TestCheckArrayCloseTrueC2Ev
 5010              		.local	_ZN12_GLOBAL__N_131testCheckArrayCloseTrueInstanceE
 5011              		.comm	_ZN12_GLOBAL__N_131testCheckArrayCloseTrueInstanceE,56,32
 5012              		.local	_ZN12_GLOBAL__N_124adderCheckArrayCloseTrueE
 5013              		.comm	_ZN12_GLOBAL__N_124adderCheckArrayCloseTrueE,1,1
 5014 22e7 90       		.align 2
 5016              	_ZNK12_GLOBAL__N_123TestCheckArrayCloseTrue7RunImplEv:
 5017              	.LFB1108:
 204:TestChecks.cpp **** {
 5018              		.loc 5 204 0
 5019              		.cfi_startproc
 5020              		.cfi_personality 0x3,__gxx_personality_v0
 5021              		.cfi_lsda 0x3,.LLSDA1108
 5022 22e8 55       		pushq	%rbp
 5023              		.cfi_def_cfa_offset 16
 5024              		.cfi_offset 6, -16
 5025 22e9 4889E5   		movq	%rsp, %rbp
 5026              		.cfi_def_cfa_register 6
 5027 22ec 53       		pushq	%rbx
 5028 22ed 4881EC88 		subq	$136, %rsp
 5028      000000
 5029              		.cfi_offset 3, -24
 5030 22f4 4889BD78 		movq	%rdi, -136(%rbp)
 5030      FFFFFF
 5031              	.LBB67:
 205:TestChecks.cpp ****     TestResults results;
 5032              		.loc 5 205 0
 5033 22fb 488D45B0 		leaq	-80(%rbp), %rax
 5034 22ff BE000000 		movl	$0, %esi
 5034      00
 5035 2304 4889C7   		movq	%rax, %rdi
 5036              	.LEHB128:
 5037 2307 E8000000 		call	_ZN8UnitTest11TestResultsC1EPNS_12TestReporterE
 5037      00
 206:TestChecks.cpp **** 
 207:TestChecks.cpp ****     float const array1[3] = { 1.0f, 1.5f, 2.0f };
 5038              		.loc 5 207 0
 5039 230c 8B050000 		movl	.LC60(%rip), %eax
 5039      0000
 5040 2312 894590   		movl	%eax, -112(%rbp)
 5041 2315 8B050000 		movl	.LC61(%rip), %eax
 5041      0000
 5042 231b 894594   		movl	%eax, -108(%rbp)
 5043 231e 8B050000 		movl	.LC62(%rip), %eax
 5043      0000
 5044 2324 894598   		movl	%eax, -104(%rbp)
 208:TestChecks.cpp ****     float const array2[3] = { 1.01f, 1.51f, 2.01f };
 5045              		.loc 5 208 0
 5046 2327 8B050000 		movl	.LC63(%rip), %eax
 5046      0000
 5047 232d 8945A0   		movl	%eax, -96(%rbp)
 5048 2330 8B050000 		movl	.LC64(%rip), %eax
 5048      0000
 5049 2336 8945A4   		movl	%eax, -92(%rbp)
 5050 2339 8B050000 		movl	.LC65(%rip), %eax
 5050      0000
 5051 233f 8945A8   		movl	%eax, -88(%rbp)
 209:TestChecks.cpp ****     CheckArrayClose(results, array1, array2, 3, 0.02f, TestDetails("", "", "", 0));
 5052              		.loc 5 209 0
 5053 2342 488D45D0 		leaq	-48(%rbp), %rax
 5054 2346 41B80000 		movl	$0, %r8d
 5054      0000
 5055 234c B9000000 		movl	$.LC6, %ecx
 5055      00
 5056 2351 BA000000 		movl	$.LC6, %edx
 5056      00
 5057 2356 BE000000 		movl	$.LC6, %esi
 5057      00
 5058 235b 4889C7   		movq	%rax, %rdi
 5059 235e E8000000 		call	_ZN8UnitTest11TestDetailsC1EPKcS2_S2_i
 5059      00
 5060 2363 8B050000 		movl	.LC66(%rip), %eax
 5060      0000
 5061 2369 89458C   		movl	%eax, -116(%rbp)
 5062 236c 488D7DD0 		leaq	-48(%rbp), %rdi
 5063 2370 488D4D8C 		leaq	-116(%rbp), %rcx
 5064 2374 488D55A0 		leaq	-96(%rbp), %rdx
 5065 2378 488D7590 		leaq	-112(%rbp), %rsi
 5066 237c 488D45B0 		leaq	-80(%rbp), %rax
 5067 2380 4989F9   		movq	%rdi, %r9
 5068 2383 4989C8   		movq	%rcx, %r8
 5069 2386 B9030000 		movl	$3, %ecx
 5069      00
 5070 238b 4889C7   		movq	%rax, %rdi
 5071 238e E8000000 		call	_ZN8UnitTest15CheckArrayCloseIA3_fS1_fEEvRNS_11TestResultsERKT_RKT0_iRKT1_RKNS_11TestDetailsE
 5071      00
 5072              	.LEHE128:
 5073              	.LEHB129:
 210:TestChecks.cpp ****     CHECK_EQUAL(0, results.GetFailureCount());
 5074              		.loc 5 210 0
 5075 2393 E8000000 		call	_ZN8UnitTest11CurrentTest7DetailsEv
 5075      00
 5076 2398 488B08   		movq	(%rax), %rcx
 5077 239b 488D45D0 		leaq	-48(%rbp), %rax
 5078 239f BAD20000 		movl	$210, %edx
 5078      00
 5079 23a4 4889CE   		movq	%rcx, %rsi
 5080 23a7 4889C7   		movq	%rax, %rdi
 5081 23aa E8000000 		call	_ZN8UnitTest11TestDetailsC1ERKS0_i
 5081      00
 5082              		.loc 5 210 0 is_stmt 0 discriminator 1
 5083 23af 488D45B0 		leaq	-80(%rbp), %rax
 5084 23b3 4889C7   		movq	%rax, %rdi
 5085 23b6 E8000000 		call	_ZNK8UnitTest11TestResults15GetFailureCountEv
 5085      00
 5086 23bb 89458C   		movl	%eax, -116(%rbp)
 5087 23be C7458800 		movl	$0, -120(%rbp)
 5087      000000
 5088 23c5 E8000000 		call	_ZN8UnitTest11CurrentTest7ResultsEv
 5088      00
 5089 23ca 488B00   		movq	(%rax), %rax
 5090 23cd 488D4DD0 		leaq	-48(%rbp), %rcx
 5091 23d1 488D558C 		leaq	-116(%rbp), %rdx
 5092 23d5 488D7588 		leaq	-120(%rbp), %rsi
 5093 23d9 4889C7   		movq	%rax, %rdi
 5094 23dc E8000000 		call	_ZN8UnitTest10CheckEqualIiiEEvRNS_11TestResultsERKT_RKT0_RKNS_11TestDetailsE
 5094      00
 5095              	.LEHE129:
 5096              	.LBE67:
 211:TestChecks.cpp **** }
 5097              		.loc 5 211 0 is_stmt 1
 5098 23e1 EB58     		jmp	.L230
 5099              	.L229:
 5100 23e3 4889C3   		movq	%rax, %rbx
 5101              	.LBB68:
 210:TestChecks.cpp ****     CHECK_EQUAL(0, results.GetFailureCount());
 5102              		.loc 5 210 0
 5103 23e6 E8000000 		call	__cxa_end_catch
 5103      00
 5104 23eb 4889D8   		movq	%rbx, %rax
 5105 23ee 4889C7   		movq	%rax, %rdi
 5106              	.LEHB130:
 5107 23f1 E8000000 		call	_Unwind_Resume
 5107      00
 5108              	.LEHE130:
 5109              	.L228:
 5110 23f6 4889C7   		movq	%rax, %rdi
 5111 23f9 E8000000 		call	__cxa_begin_catch
 5111      00
 5112              	.LEHB131:
 5113 23fe E8000000 		call	_ZN8UnitTest11CurrentTest7DetailsEv
 5113      00
 5114 2403 488B08   		movq	(%rax), %rcx
 5115 2406 488D45D0 		leaq	-48(%rbp), %rax
 5116 240a BAD20000 		movl	$210, %edx
 5116      00
 5117 240f 4889CE   		movq	%rcx, %rsi
 5118 2412 4889C7   		movq	%rax, %rdi
 5119 2415 E8000000 		call	_ZN8UnitTest11TestDetailsC1ERKS0_i
 5119      00
 210:TestChecks.cpp ****     CHECK_EQUAL(0, results.GetFailureCount());
 5120              		.loc 5 210 0 is_stmt 0 discriminator 1
 5121 241a E8000000 		call	_ZN8UnitTest11CurrentTest7ResultsEv
 5121      00
 5122 241f 488B00   		movq	(%rax), %rax
 5123 2422 488D4DD0 		leaq	-48(%rbp), %rcx
 5124 2426 BA000000 		movl	$.LC9, %edx
 5124      00
 5125 242b 4889CE   		movq	%rcx, %rsi
 5126 242e 4889C7   		movq	%rax, %rdi
 5127 2431 E8000000 		call	_ZN8UnitTest11TestResults13OnTestFailureERKNS_11TestDetailsEPKc
 5127      00
 5128              	.LEHE131:
 5129              	.LEHB132:
 5130 2436 E8000000 		call	__cxa_end_catch
 5130      00
 5131              	.LEHE132:
 5132              	.L230:
 5133              	.LBE68:
 5134              		.loc 5 211 0 is_stmt 1
 5135 243b 90       		nop
 5136 243c 4881C488 		addq	$136, %rsp
 5136      000000
 5137 2443 5B       		popq	%rbx
 5138 2444 5D       		popq	%rbp
 5139              		.cfi_def_cfa 7, 8
 5140 2445 C3       		ret
 5141              		.cfi_endproc
 5142              	.LFE1108:
 5143              		.section	.gcc_except_table
 5144              		.align 4
 5145              	.LLSDA1108:
 5146 0370 FF       		.byte	0xff
 5147 0371 03       		.byte	0x3
 5148 0372 25       		.uleb128 .LLSDATT1108-.LLSDATTD1108
 5149              	.LLSDATTD1108:
 5150 0373 01       		.byte	0x1
 5151 0374 1B       		.uleb128 .LLSDACSE1108-.LLSDACSB1108
 5152              	.LLSDACSB1108:
 5153 0375 1F       		.uleb128 .LEHB128-.LFB1108
 5154 0376 8C01     		.uleb128 .LEHE128-.LEHB128
 5155 0378 00       		.uleb128 0
 5156 0379 00       		.uleb128 0
 5157 037a AB01     		.uleb128 .LEHB129-.LFB1108
 5158 037c 4E       		.uleb128 .LEHE129-.LEHB129
 5159 037d 8E02     		.uleb128 .L228-.LFB1108
 5160 037f 01       		.uleb128 0x1
 5161 0380 8902     		.uleb128 .LEHB130-.LFB1108
 5162 0382 05       		.uleb128 .LEHE130-.LEHB130
 5163 0383 00       		.uleb128 0
 5164 0384 00       		.uleb128 0
 5165 0385 9602     		.uleb128 .LEHB131-.LFB1108
 5166 0387 38       		.uleb128 .LEHE131-.LEHB131
 5167 0388 FB01     		.uleb128 .L229-.LFB1108
 5168 038a 00       		.uleb128 0
 5169 038b CE02     		.uleb128 .LEHB132-.LFB1108
 5170 038d 05       		.uleb128 .LEHE132-.LEHB132
 5171 038e 00       		.uleb128 0
 5172 038f 00       		.uleb128 0
 5173              	.LLSDACSE1108:
 5174 0390 01       		.byte	0x1
 5175 0391 00       		.byte	0
 5176 0392 0000     		.align 4
 5177 0394 00000000 		.long	0
 5178              	
 5179              	.LLSDATT1108:
 5180              		.text
 5182              		.section	.rodata
 5183              	.LC67:
 5184 085d 43686563 		.string	"CheckArrayCloseFalse"
 5184      6B417272 
 5184      6179436C 
 5184      6F736546 
 5184      616C7365 
 5185              		.text
 5186              		.align 2
 5188              	_ZN12_GLOBAL__N_124TestCheckArrayCloseFalseC2Ev:
 5189              	.LFB1110:
 212:TestChecks.cpp **** 
 213:TestChecks.cpp **** TEST(CheckArrayCloseFalse)
 5190              		.loc 5 213 0
 5191              		.cfi_startproc
 5192 2446 55       		pushq	%rbp
 5193              		.cfi_def_cfa_offset 16
 5194              		.cfi_offset 6, -16
 5195 2447 4889E5   		movq	%rsp, %rbp
 5196              		.cfi_def_cfa_register 6
 5197 244a 4883EC10 		subq	$16, %rsp
 5198 244e 48897DF8 		movq	%rdi, -8(%rbp)
 5199              	.LBB69:
 5200              		.loc 5 213 0
 5201 2452 E8000000 		call	_ZN13UnitTestSuite12GetSuiteNameEv
 5201      00
 5202 2457 4889C2   		movq	%rax, %rdx
 5203 245a 488B45F8 		movq	-8(%rbp), %rax
 5204 245e 41B8D500 		movl	$213, %r8d
 5204      0000
 5205 2464 B9000000 		movl	$.LC2, %ecx
 5205      00
 5206 2469 BE000000 		movl	$.LC67, %esi
 5206      00
 5207 246e 4889C7   		movq	%rax, %rdi
 5208 2471 E8000000 		call	_ZN8UnitTest4TestC2EPKcS2_S2_i
 5208      00
 5209 2476 488B45F8 		movq	-8(%rbp), %rax
 5210 247a 48C70000 		movq	$_ZTVN12_GLOBAL__N_124TestCheckArrayCloseFalseE+16, (%rax)
 5210      000000
 5211              	.LBE69:
 5212 2481 C9       		leave
 5213              		.cfi_def_cfa 7, 8
 5214 2482 C3       		ret
 5215              		.cfi_endproc
 5216              	.LFE1110:
 5218              		.set	_ZN12_GLOBAL__N_124TestCheckArrayCloseFalseC1Ev,_ZN12_GLOBAL__N_124TestCheckArrayCloseFalseC2
 5219              		.local	_ZN12_GLOBAL__N_132testCheckArrayCloseFalseInstanceE
 5220              		.comm	_ZN12_GLOBAL__N_132testCheckArrayCloseFalseInstanceE,56,32
 5221              		.local	_ZN12_GLOBAL__N_125adderCheckArrayCloseFalseE
 5222              		.comm	_ZN12_GLOBAL__N_125adderCheckArrayCloseFalseE,1,1
 5223 2483 90       		.align 2
 5225              	_ZNK12_GLOBAL__N_124TestCheckArrayCloseFalse7RunImplEv:
 5226              	.LFB1112:
 214:TestChecks.cpp **** {
 5227              		.loc 5 214 0
 5228              		.cfi_startproc
 5229              		.cfi_personality 0x3,__gxx_personality_v0
 5230              		.cfi_lsda 0x3,.LLSDA1112
 5231 2484 55       		pushq	%rbp
 5232              		.cfi_def_cfa_offset 16
 5233              		.cfi_offset 6, -16
 5234 2485 4889E5   		movq	%rsp, %rbp
 5235              		.cfi_def_cfa_register 6
 5236 2488 53       		pushq	%rbx
 5237 2489 4881EC88 		subq	$136, %rsp
 5237      000000
 5238              		.cfi_offset 3, -24
 5239 2490 4889BD78 		movq	%rdi, -136(%rbp)
 5239      FFFFFF
 5240              	.LBB70:
 215:TestChecks.cpp ****     TestResults results;
 5241              		.loc 5 215 0
 5242 2497 488D45B0 		leaq	-80(%rbp), %rax
 5243 249b BE000000 		movl	$0, %esi
 5243      00
 5244 24a0 4889C7   		movq	%rax, %rdi
 5245              	.LEHB133:
 5246 24a3 E8000000 		call	_ZN8UnitTest11TestResultsC1EPNS_12TestReporterE
 5246      00
 216:TestChecks.cpp **** 
 217:TestChecks.cpp ****     float const array1[3] = { 1.0f, 1.5f, 2.0f };
 5247              		.loc 5 217 0
 5248 24a8 8B050000 		movl	.LC60(%rip), %eax
 5248      0000
 5249 24ae 894590   		movl	%eax, -112(%rbp)
 5250 24b1 8B050000 		movl	.LC61(%rip), %eax
 5250      0000
 5251 24b7 894594   		movl	%eax, -108(%rbp)
 5252 24ba 8B050000 		movl	.LC62(%rip), %eax
 5252      0000
 5253 24c0 894598   		movl	%eax, -104(%rbp)
 218:TestChecks.cpp ****     float const array2[3] = { 1.01f, 1.51f, 2.01f };
 5254              		.loc 5 218 0
 5255 24c3 8B050000 		movl	.LC63(%rip), %eax
 5255      0000
 5256 24c9 8945A0   		movl	%eax, -96(%rbp)
 5257 24cc 8B050000 		movl	.LC64(%rip), %eax
 5257      0000
 5258 24d2 8945A4   		movl	%eax, -92(%rbp)
 5259 24d5 8B050000 		movl	.LC65(%rip), %eax
 5259      0000
 5260 24db 8945A8   		movl	%eax, -88(%rbp)
 219:TestChecks.cpp ****     CheckArrayClose(results, array1, array2, 3, 0.001f, TestDetails("", "", "", 0));
 5261              		.loc 5 219 0
 5262 24de 488D45D0 		leaq	-48(%rbp), %rax
 5263 24e2 41B80000 		movl	$0, %r8d
 5263      0000
 5264 24e8 B9000000 		movl	$.LC6, %ecx
 5264      00
 5265 24ed BA000000 		movl	$.LC6, %edx
 5265      00
 5266 24f2 BE000000 		movl	$.LC6, %esi
 5266      00
 5267 24f7 4889C7   		movq	%rax, %rdi
 5268 24fa E8000000 		call	_ZN8UnitTest11TestDetailsC1EPKcS2_S2_i
 5268      00
 5269 24ff 8B050000 		movl	.LC68(%rip), %eax
 5269      0000
 5270 2505 89458C   		movl	%eax, -116(%rbp)
 5271 2508 488D7DD0 		leaq	-48(%rbp), %rdi
 5272 250c 488D4D8C 		leaq	-116(%rbp), %rcx
 5273 2510 488D55A0 		leaq	-96(%rbp), %rdx
 5274 2514 488D7590 		leaq	-112(%rbp), %rsi
 5275 2518 488D45B0 		leaq	-80(%rbp), %rax
 5276 251c 4989F9   		movq	%rdi, %r9
 5277 251f 4989C8   		movq	%rcx, %r8
 5278 2522 B9030000 		movl	$3, %ecx
 5278      00
 5279 2527 4889C7   		movq	%rax, %rdi
 5280 252a E8000000 		call	_ZN8UnitTest15CheckArrayCloseIA3_fS1_fEEvRNS_11TestResultsERKT_RKT0_iRKT1_RKNS_11TestDetailsE
 5280      00
 5281              	.LEHE133:
 5282              	.LEHB134:
 220:TestChecks.cpp ****     CHECK_EQUAL(1, results.GetFailureCount());
 5283              		.loc 5 220 0
 5284 252f E8000000 		call	_ZN8UnitTest11CurrentTest7DetailsEv
 5284      00
 5285 2534 488B08   		movq	(%rax), %rcx
 5286 2537 488D45D0 		leaq	-48(%rbp), %rax
 5287 253b BADC0000 		movl	$220, %edx
 5287      00
 5288 2540 4889CE   		movq	%rcx, %rsi
 5289 2543 4889C7   		movq	%rax, %rdi
 5290 2546 E8000000 		call	_ZN8UnitTest11TestDetailsC1ERKS0_i
 5290      00
 5291              		.loc 5 220 0 is_stmt 0 discriminator 1
 5292 254b 488D45B0 		leaq	-80(%rbp), %rax
 5293 254f 4889C7   		movq	%rax, %rdi
 5294 2552 E8000000 		call	_ZNK8UnitTest11TestResults15GetFailureCountEv
 5294      00
 5295 2557 89458C   		movl	%eax, -116(%rbp)
 5296 255a C7458801 		movl	$1, -120(%rbp)
 5296      000000
 5297 2561 E8000000 		call	_ZN8UnitTest11CurrentTest7ResultsEv
 5297      00
 5298 2566 488B00   		movq	(%rax), %rax
 5299 2569 488D4DD0 		leaq	-48(%rbp), %rcx
 5300 256d 488D558C 		leaq	-116(%rbp), %rdx
 5301 2571 488D7588 		leaq	-120(%rbp), %rsi
 5302 2575 4889C7   		movq	%rax, %rdi
 5303 2578 E8000000 		call	_ZN8UnitTest10CheckEqualIiiEEvRNS_11TestResultsERKT_RKT0_RKNS_11TestDetailsE
 5303      00
 5304              	.LEHE134:
 5305              	.LBE70:
 221:TestChecks.cpp **** }
 5306              		.loc 5 221 0 is_stmt 1
 5307 257d EB58     		jmp	.L238
 5308              	.L237:
 5309 257f 4889C3   		movq	%rax, %rbx
 5310              	.LBB71:
 220:TestChecks.cpp ****     CHECK_EQUAL(1, results.GetFailureCount());
 5311              		.loc 5 220 0
 5312 2582 E8000000 		call	__cxa_end_catch
 5312      00
 5313 2587 4889D8   		movq	%rbx, %rax
 5314 258a 4889C7   		movq	%rax, %rdi
 5315              	.LEHB135:
 5316 258d E8000000 		call	_Unwind_Resume
 5316      00
 5317              	.LEHE135:
 5318              	.L236:
 5319 2592 4889C7   		movq	%rax, %rdi
 5320 2595 E8000000 		call	__cxa_begin_catch
 5320      00
 5321              	.LEHB136:
 5322 259a E8000000 		call	_ZN8UnitTest11CurrentTest7DetailsEv
 5322      00
 5323 259f 488B08   		movq	(%rax), %rcx
 5324 25a2 488D45D0 		leaq	-48(%rbp), %rax
 5325 25a6 BADC0000 		movl	$220, %edx
 5325      00
 5326 25ab 4889CE   		movq	%rcx, %rsi
 5327 25ae 4889C7   		movq	%rax, %rdi
 5328 25b1 E8000000 		call	_ZN8UnitTest11TestDetailsC1ERKS0_i
 5328      00
 220:TestChecks.cpp ****     CHECK_EQUAL(1, results.GetFailureCount());
 5329              		.loc 5 220 0 is_stmt 0 discriminator 1
 5330 25b6 E8000000 		call	_ZN8UnitTest11CurrentTest7ResultsEv
 5330      00
 5331 25bb 488B00   		movq	(%rax), %rax
 5332 25be 488D4DD0 		leaq	-48(%rbp), %rcx
 5333 25c2 BA000000 		movl	$.LC7, %edx
 5333      00
 5334 25c7 4889CE   		movq	%rcx, %rsi
 5335 25ca 4889C7   		movq	%rax, %rdi
 5336 25cd E8000000 		call	_ZN8UnitTest11TestResults13OnTestFailureERKNS_11TestDetailsEPKc
 5336      00
 5337              	.LEHE136:
 5338              	.LEHB137:
 5339 25d2 E8000000 		call	__cxa_end_catch
 5339      00
 5340              	.LEHE137:
 5341              	.L238:
 5342              	.LBE71:
 5343              		.loc 5 221 0 is_stmt 1
 5344 25d7 90       		nop
 5345 25d8 4881C488 		addq	$136, %rsp
 5345      000000
 5346 25df 5B       		popq	%rbx
 5347 25e0 5D       		popq	%rbp
 5348              		.cfi_def_cfa 7, 8
 5349 25e1 C3       		ret
 5350              		.cfi_endproc
 5351              	.LFE1112:
 5352              		.section	.gcc_except_table
 5353              		.align 4
 5354              	.LLSDA1112:
 5355 0398 FF       		.byte	0xff
 5356 0399 03       		.byte	0x3
 5357 039a 25       		.uleb128 .LLSDATT1112-.LLSDATTD1112
 5358              	.LLSDATTD1112:
 5359 039b 01       		.byte	0x1
 5360 039c 1B       		.uleb128 .LLSDACSE1112-.LLSDACSB1112
 5361              	.LLSDACSB1112:
 5362 039d 1F       		.uleb128 .LEHB133-.LFB1112
 5363 039e 8C01     		.uleb128 .LEHE133-.LEHB133
 5364 03a0 00       		.uleb128 0
 5365 03a1 00       		.uleb128 0
 5366 03a2 AB01     		.uleb128 .LEHB134-.LFB1112
 5367 03a4 4E       		.uleb128 .LEHE134-.LEHB134
 5368 03a5 8E02     		.uleb128 .L236-.LFB1112
 5369 03a7 01       		.uleb128 0x1
 5370 03a8 8902     		.uleb128 .LEHB135-.LFB1112
 5371 03aa 05       		.uleb128 .LEHE135-.LEHB135
 5372 03ab 00       		.uleb128 0
 5373 03ac 00       		.uleb128 0
 5374 03ad 9602     		.uleb128 .LEHB136-.LFB1112
 5375 03af 38       		.uleb128 .LEHE136-.LEHB136
 5376 03b0 FB01     		.uleb128 .L237-.LFB1112
 5377 03b2 00       		.uleb128 0
 5378 03b3 CE02     		.uleb128 .LEHB137-.LFB1112
 5379 03b5 05       		.uleb128 .LEHE137-.LEHB137
 5380 03b6 00       		.uleb128 0
 5381 03b7 00       		.uleb128 0
 5382              	.LLSDACSE1112:
 5383 03b8 01       		.byte	0x1
 5384 03b9 00       		.byte	0
 5385 03ba 0000     		.align 4
 5386 03bc 00000000 		.long	0
 5387              	
 5388              	.LLSDATT1112:
 5389              		.text
 5391              		.section	.rodata
 5392 0872 00000000 		.align 8
 5392      0000
 5393              	.LC69:
 5394 0878 43686563 		.string	"CheckArrayCloseFailureIncludesDetails"
 5394      6B417272 
 5394      6179436C 
 5394      6F736546 
 5394      61696C75 
 5395              		.text
 5396              		.align 2
 5398              	_ZN12_GLOBAL__N_141TestCheckArrayCloseFailureIncludesDetailsC2Ev:
 5399              	.LFB1114:
 222:TestChecks.cpp **** 
 223:TestChecks.cpp **** TEST(CheckArrayCloseFailureIncludesDetails)
 5400              		.loc 5 223 0
 5401              		.cfi_startproc
 5402 25e2 55       		pushq	%rbp
 5403              		.cfi_def_cfa_offset 16
 5404              		.cfi_offset 6, -16
 5405 25e3 4889E5   		movq	%rsp, %rbp
 5406              		.cfi_def_cfa_register 6
 5407 25e6 4883EC10 		subq	$16, %rsp
 5408 25ea 48897DF8 		movq	%rdi, -8(%rbp)
 5409              	.LBB72:
 5410              		.loc 5 223 0
 5411 25ee E8000000 		call	_ZN13UnitTestSuite12GetSuiteNameEv
 5411      00
 5412 25f3 4889C2   		movq	%rax, %rdx
 5413 25f6 488B45F8 		movq	-8(%rbp), %rax
 5414 25fa 41B8DF00 		movl	$223, %r8d
 5414      0000
 5415 2600 B9000000 		movl	$.LC2, %ecx
 5415      00
 5416 2605 BE000000 		movl	$.LC69, %esi
 5416      00
 5417 260a 4889C7   		movq	%rax, %rdi
 5418 260d E8000000 		call	_ZN8UnitTest4TestC2EPKcS2_S2_i
 5418      00
 5419 2612 488B45F8 		movq	-8(%rbp), %rax
 5420 2616 48C70000 		movq	$_ZTVN12_GLOBAL__N_141TestCheckArrayCloseFailureIncludesDetailsE+16, (%rax)
 5420      000000
 5421              	.LBE72:
 5422 261d C9       		leave
 5423              		.cfi_def_cfa 7, 8
 5424 261e C3       		ret
 5425              		.cfi_endproc
 5426              	.LFE1114:
 5428              		.set	_ZN12_GLOBAL__N_141TestCheckArrayCloseFailureIncludesDetailsC1Ev,_ZN12_GLOBAL__N_141TestCheck
 5429              		.local	_ZN12_GLOBAL__N_149testCheckArrayCloseFailureIncludesDetailsInstanceE
 5430              		.comm	_ZN12_GLOBAL__N_149testCheckArrayCloseFailureIncludesDetailsInstanceE,56,32
 5431              		.local	_ZN12_GLOBAL__N_142adderCheckArrayCloseFailureIncludesDetailsE
 5432              		.comm	_ZN12_GLOBAL__N_142adderCheckArrayCloseFailureIncludesDetailsE,1,1
 5433              		.section	.rodata
 5434              	.LC70:
 5435 089e 66696C65 		.string	"file"
 5435      00
 5436              	.LC71:
 5437 08a3 61727261 		.string	"arrayCloseSuite"
 5437      79436C6F 
 5437      73655375 
 5437      69746500 
 5438              	.LC72:
 5439 08b3 61727261 		.string	"arrayCloseTest"
 5439      79436C6F 
 5439      73655465 
 5439      737400
 5440 08c2 00000000 		.align 8
 5440      0000
 5441              	.LC73:
 5442 08c8 556E6861 		.string	"Unhandled exception in CHECK_EQUAL(\"arrayCloseTest\", reporter.lastFailedTest)"
 5442      6E646C65 
 5442      64206578 
 5442      63657074 
 5442      696F6E20 
 5443 0916 0000     		.align 8
 5444              	.LC74:
 5445 0918 556E6861 		.string	"Unhandled exception in CHECK_EQUAL(\"arrayCloseSuite\", reporter.lastFailedSuite)"
 5445      6E646C65 
 5445      64206578 
 5445      63657074 
 5445      696F6E20 
 5446              		.align 8
 5447              	.LC75:
 5448 0968 556E6861 		.string	"Unhandled exception in CHECK_EQUAL(\"file\", reporter.lastFailedFile)"
 5448      6E646C65 
 5448      64206578 
 5448      63657074 
 5448      696F6E20 
 5449 09ac 00000000 		.align 8
 5450              	.LC76:
 5451 09b0 556E6861 		.string	"Unhandled exception in CHECK_EQUAL(1337, reporter.lastFailedLine)"
 5451      6E646C65 
 5451      64206578 
 5451      63657074 
 5451      696F6E20 
 5452              		.text
 5453 261f 90       		.align 2
 5455              	_ZNK12_GLOBAL__N_141TestCheckArrayCloseFailureIncludesDetails7RunImplEv:
 5456              	.LFB1116:
 224:TestChecks.cpp **** {
 5457              		.loc 5 224 0
 5458              		.cfi_startproc
 5459              		.cfi_personality 0x3,__gxx_personality_v0
 5460              		.cfi_lsda 0x3,.LLSDA1116
 5461 2620 55       		pushq	%rbp
 5462              		.cfi_def_cfa_offset 16
 5463              		.cfi_offset 6, -16
 5464 2621 4889E5   		movq	%rsp, %rbp
 5465              		.cfi_def_cfa_register 6
 5466 2624 53       		pushq	%rbx
 5467 2625 4881ECE8 		subq	$2280, %rsp
 5467      080000
 5468              		.cfi_offset 3, -24
 5469 262c 4889BD18 		movq	%rdi, -2280(%rbp)
 5469      F7FFFF
 5470              		.loc 5 224 0
 5471 2633 64488B04 		movq	%fs:40, %rax
 5471      25280000 
 5471      00
 5472 263c 488945E8 		movq	%rax, -24(%rbp)
 5473 2640 31C0     		xorl	%eax, %eax
 5474              	.LBB73:
 225:TestChecks.cpp ****     RecordingReporter reporter;
 5475              		.loc 5 225 0
 5476 2642 488D85B0 		leaq	-2128(%rbp), %rax
 5476      F7FFFF
 5477 2649 4889C7   		movq	%rax, %rdi
 5478 264c E8000000 		call	_ZN17RecordingReporterC1Ev
 5478      00
 226:TestChecks.cpp ****     TestResults results(&reporter);
 5479              		.loc 5 226 0
 5480 2651 488D95B0 		leaq	-2128(%rbp), %rdx
 5480      F7FFFF
 5481 2658 488D8550 		leaq	-2224(%rbp), %rax
 5481      F7FFFF
 5482 265f 4889D6   		movq	%rdx, %rsi
 5483 2662 4889C7   		movq	%rax, %rdi
 5484              	.LEHB138:
 5485 2665 E8000000 		call	_ZN8UnitTest11TestResultsC1EPNS_12TestReporterE
 5485      00
 227:TestChecks.cpp ****     TestDetails const details("arrayCloseTest", "arrayCloseSuite", "file", 1337);
 5486              		.loc 5 227 0
 5487 266a 488D8570 		leaq	-2192(%rbp), %rax
 5487      F7FFFF
 5488 2671 41B83905 		movl	$1337, %r8d
 5488      0000
 5489 2677 B9000000 		movl	$.LC70, %ecx
 5489      00
 5490 267c BA000000 		movl	$.LC71, %edx
 5490      00
 5491 2681 BE000000 		movl	$.LC72, %esi
 5491      00
 5492 2686 4889C7   		movq	%rax, %rdi
 5493 2689 E8000000 		call	_ZN8UnitTest11TestDetailsC1EPKcS2_S2_i
 5493      00
 228:TestChecks.cpp **** 
 229:TestChecks.cpp ****     float const array1[3] = { 1.0f, 1.5f, 2.0f };
 5494              		.loc 5 229 0
 5495 268e 8B050000 		movl	.LC60(%rip), %eax
 5495      0000
 5496 2694 898530F7 		movl	%eax, -2256(%rbp)
 5496      FFFF
 5497 269a 8B050000 		movl	.LC61(%rip), %eax
 5497      0000
 5498 26a0 898534F7 		movl	%eax, -2252(%rbp)
 5498      FFFF
 5499 26a6 8B050000 		movl	.LC62(%rip), %eax
 5499      0000
 5500 26ac 898538F7 		movl	%eax, -2248(%rbp)
 5500      FFFF
 230:TestChecks.cpp ****     float const array2[3] = { 1.01f, 1.51f, 2.01f };
 5501              		.loc 5 230 0
 5502 26b2 8B050000 		movl	.LC63(%rip), %eax
 5502      0000
 5503 26b8 898540F7 		movl	%eax, -2240(%rbp)
 5503      FFFF
 5504 26be 8B050000 		movl	.LC64(%rip), %eax
 5504      0000
 5505 26c4 898544F7 		movl	%eax, -2236(%rbp)
 5505      FFFF
 5506 26ca 8B050000 		movl	.LC65(%rip), %eax
 5506      0000
 5507 26d0 898548F7 		movl	%eax, -2232(%rbp)
 5507      FFFF
 231:TestChecks.cpp ****     CheckArrayClose(results, array1, array2, 3, 0.001f, details);
 5508              		.loc 5 231 0
 5509 26d6 8B050000 		movl	.LC68(%rip), %eax
 5509      0000
 5510 26dc 898590F7 		movl	%eax, -2160(%rbp)
 5510      FFFF
 5511 26e2 488DBD70 		leaq	-2192(%rbp), %rdi
 5511      F7FFFF
 5512 26e9 488D8D90 		leaq	-2160(%rbp), %rcx
 5512      F7FFFF
 5513 26f0 488D9540 		leaq	-2240(%rbp), %rdx
 5513      F7FFFF
 5514 26f7 488DB530 		leaq	-2256(%rbp), %rsi
 5514      F7FFFF
 5515 26fe 488D8550 		leaq	-2224(%rbp), %rax
 5515      F7FFFF
 5516 2705 4989F9   		movq	%rdi, %r9
 5517 2708 4989C8   		movq	%rcx, %r8
 5518 270b B9030000 		movl	$3, %ecx
 5518      00
 5519 2710 4889C7   		movq	%rax, %rdi
 5520 2713 E8000000 		call	_ZN8UnitTest15CheckArrayCloseIA3_fS1_fEEvRNS_11TestResultsERKT_RKT0_iRKT1_RKNS_11TestDetailsE
 5520      00
 5521              	.LEHE138:
 5522              	.LEHB139:
 232:TestChecks.cpp **** 
 233:TestChecks.cpp ****     CHECK_EQUAL("arrayCloseTest", reporter.lastFailedTest);
 5523              		.loc 5 233 0 discriminator 1
 5524 2718 E8000000 		call	_ZN8UnitTest11CurrentTest7DetailsEv
 5524      00
 5525 271d 488B08   		movq	(%rax), %rcx
 5526 2720 488D8590 		leaq	-2160(%rbp), %rax
 5526      F7FFFF
 5527 2727 BAE90000 		movl	$233, %edx
 5527      00
 5528 272c 4889CE   		movq	%rcx, %rsi
 5529 272f 4889C7   		movq	%rax, %rdi
 5530 2732 E8000000 		call	_ZN8UnitTest11TestDetailsC1ERKS0_i
 5530      00
 5531 2737 E8000000 		call	_ZN8UnitTest11CurrentTest7ResultsEv
 5531      00
 5532 273c 488B00   		movq	(%rax), %rax
 5533 273f 488D9590 		leaq	-2160(%rbp), %rdx
 5533      F7FFFF
 5534 2746 488D8DB0 		leaq	-2128(%rbp), %rcx
 5534      F7FFFF
 5535 274d 488DB114 		leaq	1044(%rcx), %rsi
 5535      040000
 5536 2754 4889D1   		movq	%rdx, %rcx
 5537 2757 4889F2   		movq	%rsi, %rdx
 5538 275a BE000000 		movl	$.LC72, %esi
 5538      00
 5539 275f 4889C7   		movq	%rax, %rdi
 5540 2762 E8000000 		call	_ZN8UnitTest10CheckEqualERNS_11TestResultsEPKcPcRKNS_11TestDetailsE
 5540      00
 5541              	.LEHE139:
 5542              	.L244:
 5543              	.LEHB140:
 234:TestChecks.cpp ****     CHECK_EQUAL("arrayCloseSuite", reporter.lastFailedSuite);
 5544              		.loc 5 234 0
 5545 2767 E8000000 		call	_ZN8UnitTest11CurrentTest7DetailsEv
 5545      00
 5546 276c 488B08   		movq	(%rax), %rcx
 5547 276f 488D8590 		leaq	-2160(%rbp), %rax
 5547      F7FFFF
 5548 2776 BAEA0000 		movl	$234, %edx
 5548      00
 5549 277b 4889CE   		movq	%rcx, %rsi
 5550 277e 4889C7   		movq	%rax, %rdi
 5551 2781 E8000000 		call	_ZN8UnitTest11TestDetailsC1ERKS0_i
 5551      00
 5552              		.loc 5 234 0 is_stmt 0 discriminator 1
 5553 2786 E8000000 		call	_ZN8UnitTest11CurrentTest7ResultsEv
 5553      00
 5554 278b 488B00   		movq	(%rax), %rax
 5555 278e 488D9590 		leaq	-2160(%rbp), %rdx
 5555      F7FFFF
 5556 2795 488D8DB0 		leaq	-2128(%rbp), %rcx
 5556      F7FFFF
 5557 279c 488DB114 		leaq	788(%rcx), %rsi
 5557      030000
 5558 27a3 4889D1   		movq	%rdx, %rcx
 5559 27a6 4889F2   		movq	%rsi, %rdx
 5560 27a9 BE000000 		movl	$.LC71, %esi
 5560      00
 5561 27ae 4889C7   		movq	%rax, %rdi
 5562 27b1 E8000000 		call	_ZN8UnitTest10CheckEqualERNS_11TestResultsEPKcPcRKNS_11TestDetailsE
 5562      00
 5563              	.LEHE140:
 5564              	.L247:
 5565              	.LEHB141:
 235:TestChecks.cpp ****     CHECK_EQUAL("file", reporter.lastFailedFile);
 5566              		.loc 5 235 0 is_stmt 1
 5567 27b6 E8000000 		call	_ZN8UnitTest11CurrentTest7DetailsEv
 5567      00
 5568 27bb 488B08   		movq	(%rax), %rcx
 5569 27be 488D8590 		leaq	-2160(%rbp), %rax
 5569      F7FFFF
 5570 27c5 BAEB0000 		movl	$235, %edx
 5570      00
 5571 27ca 4889CE   		movq	%rcx, %rsi
 5572 27cd 4889C7   		movq	%rax, %rdi
 5573 27d0 E8000000 		call	_ZN8UnitTest11TestDetailsC1ERKS0_i
 5573      00
 5574              		.loc 5 235 0 is_stmt 0 discriminator 1
 5575 27d5 E8000000 		call	_ZN8UnitTest11CurrentTest7ResultsEv
 5575      00
 5576 27da 488B00   		movq	(%rax), %rax
 5577 27dd 488D9590 		leaq	-2160(%rbp), %rdx
 5577      F7FFFF
 5578 27e4 488D8DB0 		leaq	-2128(%rbp), %rcx
 5578      F7FFFF
 5579 27eb 488DB110 		leaq	528(%rcx), %rsi
 5579      020000
 5580 27f2 4889D1   		movq	%rdx, %rcx
 5581 27f5 4889F2   		movq	%rsi, %rdx
 5582 27f8 BE000000 		movl	$.LC70, %esi
 5582      00
 5583 27fd 4889C7   		movq	%rax, %rdi
 5584 2800 E8000000 		call	_ZN8UnitTest10CheckEqualERNS_11TestResultsEPKcPcRKNS_11TestDetailsE
 5584      00
 5585              	.LEHE141:
 5586              	.L250:
 5587              	.LEHB142:
 236:TestChecks.cpp ****     CHECK_EQUAL(1337, reporter.lastFailedLine);
 5588              		.loc 5 236 0 is_stmt 1
 5589 2805 E8000000 		call	_ZN8UnitTest11CurrentTest7DetailsEv
 5589      00
 5590 280a 488B08   		movq	(%rax), %rcx
 5591 280d 488D8590 		leaq	-2160(%rbp), %rax
 5591      F7FFFF
 5592 2814 BAEC0000 		movl	$236, %edx
 5592      00
 5593 2819 4889CE   		movq	%rcx, %rsi
 5594 281c 4889C7   		movq	%rax, %rdi
 5595 281f E8000000 		call	_ZN8UnitTest11TestDetailsC1ERKS0_i
 5595      00
 5596              		.loc 5 236 0 is_stmt 0 discriminator 1
 5597 2824 C7852CF7 		movl	$1337, -2260(%rbp)
 5597      FFFF3905 
 5597      0000
 5598 282e E8000000 		call	_ZN8UnitTest11CurrentTest7ResultsEv
 5598      00
 5599 2833 488B00   		movq	(%rax), %rax
 5600 2836 488D9590 		leaq	-2160(%rbp), %rdx
 5600      F7FFFF
 5601 283d 488D8DB0 		leaq	-2128(%rbp), %rcx
 5601      F7FFFF
 5602 2844 488DB910 		leaq	784(%rcx), %rdi
 5602      030000
 5603 284b 488DB52C 		leaq	-2260(%rbp), %rsi
 5603      F7FFFF
 5604 2852 4889D1   		movq	%rdx, %rcx
 5605 2855 4889FA   		movq	%rdi, %rdx
 5606 2858 4889C7   		movq	%rax, %rdi
 5607 285b E8000000 		call	_ZN8UnitTest10CheckEqualIiiEEvRNS_11TestResultsERKT_RKT0_RKNS_11TestDetailsE
 5607      00
 5608              	.LEHE142:
 5609              	.L253:
 5610              		.loc 5 236 0 discriminator 2
 5611 2860 488D85B0 		leaq	-2128(%rbp), %rax
 5611      F7FFFF
 5612 2867 4889C7   		movq	%rax, %rdi
 5613              	.LEHB143:
 5614 286a E8000000 		call	_ZN17RecordingReporterD1Ev
 5614      00
 5615              	.LEHE143:
 5616              	.LBE73:
 237:TestChecks.cpp **** }
 5617              		.loc 5 237 0 is_stmt 1 discriminator 2
 5618 286f 488B45E8 		movq	-24(%rbp), %rax
 5619 2873 64483304 		xorq	%fs:40, %rax
 5619      25280000 
 5619      00
 5620 287c 0F849801 		je	.L254
 5620      0000
 5621 2882 E98E0100 		jmp	.L264
 5621      00
 5622              	.L257:
 5623 2887 4889C3   		movq	%rax, %rbx
 5624              	.LBB74:
 233:TestChecks.cpp ****     CHECK_EQUAL("arrayCloseSuite", reporter.lastFailedSuite);
 5625              		.loc 5 233 0
 5626 288a E8000000 		call	__cxa_end_catch
 5626      00
 5627 288f E9670100 		jmp	.L242
 5627      00
 5628              	.L256:
 5629 2894 4889C7   		movq	%rax, %rdi
 5630 2897 E8000000 		call	__cxa_begin_catch
 5630      00
 5631              	.LEHB144:
 5632 289c E8000000 		call	_ZN8UnitTest11CurrentTest7DetailsEv
 5632      00
 5633 28a1 488B08   		movq	(%rax), %rcx
 5634 28a4 488D8590 		leaq	-2160(%rbp), %rax
 5634      F7FFFF
 5635 28ab BAE90000 		movl	$233, %edx
 5635      00
 5636 28b0 4889CE   		movq	%rcx, %rsi
 5637 28b3 4889C7   		movq	%rax, %rdi
 5638 28b6 E8000000 		call	_ZN8UnitTest11TestDetailsC1ERKS0_i
 5638      00
 233:TestChecks.cpp ****     CHECK_EQUAL("arrayCloseSuite", reporter.lastFailedSuite);
 5639              		.loc 5 233 0 is_stmt 0 discriminator 1
 5640 28bb E8000000 		call	_ZN8UnitTest11CurrentTest7ResultsEv
 5640      00
 5641 28c0 488B00   		movq	(%rax), %rax
 5642 28c3 488D8D90 		leaq	-2160(%rbp), %rcx
 5642      F7FFFF
 5643 28ca BA000000 		movl	$.LC73, %edx
 5643      00
 5644 28cf 4889CE   		movq	%rcx, %rsi
 5645 28d2 4889C7   		movq	%rax, %rdi
 5646 28d5 E8000000 		call	_ZN8UnitTest11TestResults13OnTestFailureERKNS_11TestDetailsEPKc
 5646      00
 5647              	.LEHE144:
 5648              	.LEHB145:
 5649 28da E8000000 		call	__cxa_end_catch
 5649      00
 5650              	.LEHE145:
 233:TestChecks.cpp ****     CHECK_EQUAL("arrayCloseSuite", reporter.lastFailedSuite);
 5651              		.loc 5 233 0
 5652 28df E983FEFF 		jmp	.L244
 5652      FF
 5653              	.L259:
 5654 28e4 4889C3   		movq	%rax, %rbx
 234:TestChecks.cpp ****     CHECK_EQUAL("file", reporter.lastFailedFile);
 5655              		.loc 5 234 0 is_stmt 1
 5656 28e7 E8000000 		call	__cxa_end_catch
 5656      00
 5657 28ec E90A0100 		jmp	.L242
 5657      00
 5658              	.L258:
 5659 28f1 4889C7   		movq	%rax, %rdi
 5660 28f4 E8000000 		call	__cxa_begin_catch
 5660      00
 5661              	.LEHB146:
 5662 28f9 E8000000 		call	_ZN8UnitTest11CurrentTest7DetailsEv
 5662      00
 5663 28fe 488B08   		movq	(%rax), %rcx
 5664 2901 488D8590 		leaq	-2160(%rbp), %rax
 5664      F7FFFF
 5665 2908 BAEA0000 		movl	$234, %edx
 5665      00
 5666 290d 4889CE   		movq	%rcx, %rsi
 5667 2910 4889C7   		movq	%rax, %rdi
 5668 2913 E8000000 		call	_ZN8UnitTest11TestDetailsC1ERKS0_i
 5668      00
 234:TestChecks.cpp ****     CHECK_EQUAL("file", reporter.lastFailedFile);
 5669              		.loc 5 234 0 is_stmt 0 discriminator 1
 5670 2918 E8000000 		call	_ZN8UnitTest11CurrentTest7ResultsEv
 5670      00
 5671 291d 488B00   		movq	(%rax), %rax
 5672 2920 488D8D90 		leaq	-2160(%rbp), %rcx
 5672      F7FFFF
 5673 2927 BA000000 		movl	$.LC74, %edx
 5673      00
 5674 292c 4889CE   		movq	%rcx, %rsi
 5675 292f 4889C7   		movq	%rax, %rdi
 5676 2932 E8000000 		call	_ZN8UnitTest11TestResults13OnTestFailureERKNS_11TestDetailsEPKc
 5676      00
 5677              	.LEHE146:
 5678              	.LEHB147:
 5679 2937 E8000000 		call	__cxa_end_catch
 5679      00
 5680              	.LEHE147:
 234:TestChecks.cpp ****     CHECK_EQUAL("file", reporter.lastFailedFile);
 5681              		.loc 5 234 0
 5682 293c E975FEFF 		jmp	.L247
 5682      FF
 5683              	.L261:
 5684 2941 4889C3   		movq	%rax, %rbx
 235:TestChecks.cpp ****     CHECK_EQUAL(1337, reporter.lastFailedLine);
 5685              		.loc 5 235 0 is_stmt 1
 5686 2944 E8000000 		call	__cxa_end_catch
 5686      00
 5687 2949 E9AD0000 		jmp	.L242
 5687      00
 5688              	.L260:
 5689 294e 4889C7   		movq	%rax, %rdi
 5690 2951 E8000000 		call	__cxa_begin_catch
 5690      00
 5691              	.LEHB148:
 5692 2956 E8000000 		call	_ZN8UnitTest11CurrentTest7DetailsEv
 5692      00
 5693 295b 488B08   		movq	(%rax), %rcx
 5694 295e 488D8590 		leaq	-2160(%rbp), %rax
 5694      F7FFFF
 5695 2965 BAEB0000 		movl	$235, %edx
 5695      00
 5696 296a 4889CE   		movq	%rcx, %rsi
 5697 296d 4889C7   		movq	%rax, %rdi
 5698 2970 E8000000 		call	_ZN8UnitTest11TestDetailsC1ERKS0_i
 5698      00
 235:TestChecks.cpp ****     CHECK_EQUAL(1337, reporter.lastFailedLine);
 5699              		.loc 5 235 0 is_stmt 0 discriminator 1
 5700 2975 E8000000 		call	_ZN8UnitTest11CurrentTest7ResultsEv
 5700      00
 5701 297a 488B00   		movq	(%rax), %rax
 5702 297d 488D8D90 		leaq	-2160(%rbp), %rcx
 5702      F7FFFF
 5703 2984 BA000000 		movl	$.LC75, %edx
 5703      00
 5704 2989 4889CE   		movq	%rcx, %rsi
 5705 298c 4889C7   		movq	%rax, %rdi
 5706 298f E8000000 		call	_ZN8UnitTest11TestResults13OnTestFailureERKNS_11TestDetailsEPKc
 5706      00
 5707              	.LEHE148:
 5708              	.LEHB149:
 5709 2994 E8000000 		call	__cxa_end_catch
 5709      00
 5710              	.LEHE149:
 235:TestChecks.cpp ****     CHECK_EQUAL(1337, reporter.lastFailedLine);
 5711              		.loc 5 235 0
 5712 2999 E967FEFF 		jmp	.L250
 5712      FF
 5713              	.L263:
 5714 299e 4889C3   		movq	%rax, %rbx
 236:TestChecks.cpp **** }
 5715              		.loc 5 236 0 is_stmt 1
 5716 29a1 E8000000 		call	__cxa_end_catch
 5716      00
 5717 29a6 EB53     		jmp	.L242
 5718              	.L262:
 5719 29a8 4889C7   		movq	%rax, %rdi
 5720 29ab E8000000 		call	__cxa_begin_catch
 5720      00
 5721              	.LEHB150:
 5722 29b0 E8000000 		call	_ZN8UnitTest11CurrentTest7DetailsEv
 5722      00
 5723 29b5 488B08   		movq	(%rax), %rcx
 5724 29b8 488D8590 		leaq	-2160(%rbp), %rax
 5724      F7FFFF
 5725 29bf BAEC0000 		movl	$236, %edx
 5725      00
 5726 29c4 4889CE   		movq	%rcx, %rsi
 5727 29c7 4889C7   		movq	%rax, %rdi
 5728 29ca E8000000 		call	_ZN8UnitTest11TestDetailsC1ERKS0_i
 5728      00
 236:TestChecks.cpp **** }
 5729              		.loc 5 236 0 is_stmt 0 discriminator 1
 5730 29cf E8000000 		call	_ZN8UnitTest11CurrentTest7ResultsEv
 5730      00
 5731 29d4 488B00   		movq	(%rax), %rax
 5732 29d7 488D8D90 		leaq	-2160(%rbp), %rcx
 5732      F7FFFF
 5733 29de BA000000 		movl	$.LC76, %edx
 5733      00
 5734 29e3 4889CE   		movq	%rcx, %rsi
 5735 29e6 4889C7   		movq	%rax, %rdi
 5736 29e9 E8000000 		call	_ZN8UnitTest11TestResults13OnTestFailureERKNS_11TestDetailsEPKc
 5736      00
 5737              	.LEHE150:
 5738              	.LEHB151:
 5739 29ee E8000000 		call	__cxa_end_catch
 5739      00
 5740              	.LEHE151:
 236:TestChecks.cpp **** }
 5741              		.loc 5 236 0
 5742 29f3 E968FEFF 		jmp	.L253
 5742      FF
 5743              	.L255:
 5744 29f8 4889C3   		movq	%rax, %rbx
 5745              	.L242:
 5746 29fb 488D85B0 		leaq	-2128(%rbp), %rax
 5746      F7FFFF
 5747 2a02 4889C7   		movq	%rax, %rdi
 5748 2a05 E8000000 		call	_ZN17RecordingReporterD1Ev
 5748      00
 5749 2a0a 4889D8   		movq	%rbx, %rax
 5750 2a0d 4889C7   		movq	%rax, %rdi
 5751              	.LEHB152:
 5752 2a10 E8000000 		call	_Unwind_Resume
 5752      00
 5753              	.LEHE152:
 5754              	.L264:
 5755              	.LBE74:
 5756              		.loc 5 237 0 is_stmt 1
 5757 2a15 E8000000 		call	__stack_chk_fail
 5757      00
 5758              	.L254:
 5759 2a1a 4881C4E8 		addq	$2280, %rsp
 5759      080000
 5760 2a21 5B       		popq	%rbx
 5761 2a22 5D       		popq	%rbp
 5762              		.cfi_def_cfa 7, 8
 5763 2a23 C3       		ret
 5764              		.cfi_endproc
 5765              	.LFE1116:
 5766              		.section	.gcc_except_table
 5767              		.align 4
 5768              	.LLSDA1116:
 5769 03c0 FF       		.byte	0xff
 5770 03c1 03       		.byte	0x3
 5771 03c2 61       		.uleb128 .LLSDATT1116-.LLSDATTD1116
 5772              	.LLSDATTD1116:
 5773 03c3 01       		.byte	0x1
 5774 03c4 58       		.uleb128 .LLSDACSE1116-.LLSDACSB1116
 5775              	.LLSDACSB1116:
 5776 03c5 45       		.uleb128 .LEHB138-.LFB1116
 5777 03c6 B301     		.uleb128 .LEHE138-.LEHB138
 5778 03c8 D807     		.uleb128 .L255-.LFB1116
 5779 03ca 00       		.uleb128 0
 5780 03cb F801     		.uleb128 .LEHB139-.LFB1116
 5781 03cd 4F       		.uleb128 .LEHE139-.LEHB139
 5782 03ce F404     		.uleb128 .L256-.LFB1116
 5783 03d0 01       		.uleb128 0x1
 5784 03d1 C702     		.uleb128 .LEHB140-.LFB1116
 5785 03d3 4F       		.uleb128 .LEHE140-.LEHB140
 5786 03d4 D105     		.uleb128 .L258-.LFB1116
 5787 03d6 01       		.uleb128 0x1
 5788 03d7 9603     		.uleb128 .LEHB141-.LFB1116
 5789 03d9 4F       		.uleb128 .LEHE141-.LEHB141
 5790 03da AE06     		.uleb128 .L260-.LFB1116
 5791 03dc 01       		.uleb128 0x1
 5792 03dd E503     		.uleb128 .LEHB142-.LFB1116
 5793 03df 5B       		.uleb128 .LEHE142-.LEHB142
 5794 03e0 8807     		.uleb128 .L262-.LFB1116
 5795 03e2 01       		.uleb128 0x1
 5796 03e3 CA04     		.uleb128 .LEHB143-.LFB1116
 5797 03e5 05       		.uleb128 .LEHE143-.LEHB143
 5798 03e6 00       		.uleb128 0
 5799 03e7 00       		.uleb128 0
 5800 03e8 FC04     		.uleb128 .LEHB144-.LFB1116
 5801 03ea 3E       		.uleb128 .LEHE144-.LEHB144
 5802 03eb E704     		.uleb128 .L257-.LFB1116
 5803 03ed 00       		.uleb128 0
 5804 03ee BA05     		.uleb128 .LEHB145-.LFB1116
 5805 03f0 05       		.uleb128 .LEHE145-.LEHB145
 5806 03f1 D807     		.uleb128 .L255-.LFB1116
 5807 03f3 00       		.uleb128 0
 5808 03f4 D905     		.uleb128 .LEHB146-.LFB1116
 5809 03f6 3E       		.uleb128 .LEHE146-.LEHB146
 5810 03f7 C405     		.uleb128 .L259-.LFB1116
 5811 03f9 00       		.uleb128 0
 5812 03fa 9706     		.uleb128 .LEHB147-.LFB1116
 5813 03fc 05       		.uleb128 .LEHE147-.LEHB147
 5814 03fd D807     		.uleb128 .L255-.LFB1116
 5815 03ff 00       		.uleb128 0
 5816 0400 B606     		.uleb128 .LEHB148-.LFB1116
 5817 0402 3E       		.uleb128 .LEHE148-.LEHB148
 5818 0403 A106     		.uleb128 .L261-.LFB1116
 5819 0405 00       		.uleb128 0
 5820 0406 F406     		.uleb128 .LEHB149-.LFB1116
 5821 0408 05       		.uleb128 .LEHE149-.LEHB149
 5822 0409 D807     		.uleb128 .L255-.LFB1116
 5823 040b 00       		.uleb128 0
 5824 040c 9007     		.uleb128 .LEHB150-.LFB1116
 5825 040e 3E       		.uleb128 .LEHE150-.LEHB150
 5826 040f FE06     		.uleb128 .L263-.LFB1116
 5827 0411 00       		.uleb128 0
 5828 0412 CE07     		.uleb128 .LEHB151-.LFB1116
 5829 0414 05       		.uleb128 .LEHE151-.LEHB151
 5830 0415 D807     		.uleb128 .L255-.LFB1116
 5831 0417 00       		.uleb128 0
 5832 0418 F007     		.uleb128 .LEHB152-.LFB1116
 5833 041a 05       		.uleb128 .LEHE152-.LEHB152
 5834 041b 00       		.uleb128 0
 5835 041c 00       		.uleb128 0
 5836              	.LLSDACSE1116:
 5837 041d 01       		.byte	0x1
 5838 041e 00       		.byte	0
 5839 041f 00       		.align 4
 5840 0420 00000000 		.long	0
 5841              	
 5842              	.LLSDATT1116:
 5843              		.text
 5845              		.section	.rodata
 5846              	.LC77:
 5847 09f2 43686563 		.string	"CheckArray2DCloseTrue"
 5847      6B417272 
 5847      61793244 
 5847      436C6F73 
 5847      65547275 
 5848              		.text
 5849              		.align 2
 5851              	_ZN12_GLOBAL__N_125TestCheckArray2DCloseTrueC2Ev:
 5852              	.LFB1118:
 238:TestChecks.cpp **** 
 239:TestChecks.cpp **** 
 240:TestChecks.cpp **** TEST(CheckArray2DCloseTrue)
 5853              		.loc 5 240 0
 5854              		.cfi_startproc
 5855 2a24 55       		pushq	%rbp
 5856              		.cfi_def_cfa_offset 16
 5857              		.cfi_offset 6, -16
 5858 2a25 4889E5   		movq	%rsp, %rbp
 5859              		.cfi_def_cfa_register 6
 5860 2a28 4883EC10 		subq	$16, %rsp
 5861 2a2c 48897DF8 		movq	%rdi, -8(%rbp)
 5862              	.LBB75:
 5863              		.loc 5 240 0
 5864 2a30 E8000000 		call	_ZN13UnitTestSuite12GetSuiteNameEv
 5864      00
 5865 2a35 4889C2   		movq	%rax, %rdx
 5866 2a38 488B45F8 		movq	-8(%rbp), %rax
 5867 2a3c 41B8F000 		movl	$240, %r8d
 5867      0000
 5868 2a42 B9000000 		movl	$.LC2, %ecx
 5868      00
 5869 2a47 BE000000 		movl	$.LC77, %esi
 5869      00
 5870 2a4c 4889C7   		movq	%rax, %rdi
 5871 2a4f E8000000 		call	_ZN8UnitTest4TestC2EPKcS2_S2_i
 5871      00
 5872 2a54 488B45F8 		movq	-8(%rbp), %rax
 5873 2a58 48C70000 		movq	$_ZTVN12_GLOBAL__N_125TestCheckArray2DCloseTrueE+16, (%rax)
 5873      000000
 5874              	.LBE75:
 5875 2a5f C9       		leave
 5876              		.cfi_def_cfa 7, 8
 5877 2a60 C3       		ret
 5878              		.cfi_endproc
 5879              	.LFE1118:
 5881              		.set	_ZN12_GLOBAL__N_125TestCheckArray2DCloseTrueC1Ev,_ZN12_GLOBAL__N_125TestCheckArray2DCloseTrue
 5882              		.local	_ZN12_GLOBAL__N_133testCheckArray2DCloseTrueInstanceE
 5883              		.comm	_ZN12_GLOBAL__N_133testCheckArray2DCloseTrueInstanceE,56,32
 5884              		.local	_ZN12_GLOBAL__N_126adderCheckArray2DCloseTrueE
 5885              		.comm	_ZN12_GLOBAL__N_126adderCheckArray2DCloseTrueE,1,1
 5886 2a61 90       		.align 2
 5888              	_ZNK12_GLOBAL__N_125TestCheckArray2DCloseTrue7RunImplEv:
 5889              	.LFB1120:
 241:TestChecks.cpp **** {
 5890              		.loc 5 241 0
 5891              		.cfi_startproc
 5892              		.cfi_personality 0x3,__gxx_personality_v0
 5893              		.cfi_lsda 0x3,.LLSDA1120
 5894 2a62 55       		pushq	%rbp
 5895              		.cfi_def_cfa_offset 16
 5896              		.cfi_offset 6, -16
 5897 2a63 4889E5   		movq	%rsp, %rbp
 5898              		.cfi_def_cfa_register 6
 5899 2a66 53       		pushq	%rbx
 5900 2a67 4881ECC8 		subq	$200, %rsp
 5900      000000
 5901              		.cfi_offset 3, -24
 5902 2a6e 4889BD38 		movq	%rdi, -200(%rbp)
 5902      FFFFFF
 5903              	.LBB76:
 242:TestChecks.cpp ****     TestResults results;
 5904              		.loc 5 242 0
 5905 2a75 488D8550 		leaq	-176(%rbp), %rax
 5905      FFFFFF
 5906 2a7c BE000000 		movl	$0, %esi
 5906      00
 5907 2a81 4889C7   		movq	%rax, %rdi
 5908              	.LEHB153:
 5909 2a84 E8000000 		call	_ZN8UnitTest11TestResultsC1EPNS_12TestReporterE
 5909      00
 243:TestChecks.cpp **** 
 244:TestChecks.cpp ****     float const array1[3][3] = { { 1.0f, 1.5f, 2.0f },
 245:TestChecks.cpp ****                                  { 2.0f, 2.5f, 3.0f },
 246:TestChecks.cpp ****                                  { 3.0f, 3.5f, 4.0f } };
 5910              		.loc 5 246 0
 5911 2a89 8B050000 		movl	.LC60(%rip), %eax
 5911      0000
 5912 2a8f 894590   		movl	%eax, -112(%rbp)
 5913 2a92 8B050000 		movl	.LC61(%rip), %eax
 5913      0000
 5914 2a98 894594   		movl	%eax, -108(%rbp)
 5915 2a9b 8B050000 		movl	.LC62(%rip), %eax
 5915      0000
 5916 2aa1 894598   		movl	%eax, -104(%rbp)
 5917 2aa4 8B050000 		movl	.LC62(%rip), %eax
 5917      0000
 5918 2aaa 89459C   		movl	%eax, -100(%rbp)
 5919 2aad 8B050000 		movl	.LC78(%rip), %eax
 5919      0000
 5920 2ab3 8945A0   		movl	%eax, -96(%rbp)
 5921 2ab6 8B050000 		movl	.LC32(%rip), %eax
 5921      0000
 5922 2abc 8945A4   		movl	%eax, -92(%rbp)
 5923 2abf 8B050000 		movl	.LC32(%rip), %eax
 5923      0000
 5924 2ac5 8945A8   		movl	%eax, -88(%rbp)
 5925 2ac8 8B050000 		movl	.LC79(%rip), %eax
 5925      0000
 5926 2ace 8945AC   		movl	%eax, -84(%rbp)
 5927 2ad1 8B050000 		movl	.LC80(%rip), %eax
 5927      0000
 5928 2ad7 8945B0   		movl	%eax, -80(%rbp)
 247:TestChecks.cpp ****     float const array2[3][3] = { { 1.01f, 1.51f, 2.01f },
 248:TestChecks.cpp ****                                  { 2.01f, 2.51f, 3.01f },
 249:TestChecks.cpp ****                                  { 3.01f, 3.51f, 4.01f } };
 5929              		.loc 5 249 0
 5930 2ada 8B050000 		movl	.LC63(%rip), %eax
 5930      0000
 5931 2ae0 8945C0   		movl	%eax, -64(%rbp)
 5932 2ae3 8B050000 		movl	.LC64(%rip), %eax
 5932      0000
 5933 2ae9 8945C4   		movl	%eax, -60(%rbp)
 5934 2aec 8B050000 		movl	.LC65(%rip), %eax
 5934      0000
 5935 2af2 8945C8   		movl	%eax, -56(%rbp)
 5936 2af5 8B050000 		movl	.LC65(%rip), %eax
 5936      0000
 5937 2afb 8945CC   		movl	%eax, -52(%rbp)
 5938 2afe 8B050000 		movl	.LC81(%rip), %eax
 5938      0000
 5939 2b04 8945D0   		movl	%eax, -48(%rbp)
 5940 2b07 8B050000 		movl	.LC82(%rip), %eax
 5940      0000
 5941 2b0d 8945D4   		movl	%eax, -44(%rbp)
 5942 2b10 8B050000 		movl	.LC82(%rip), %eax
 5942      0000
 5943 2b16 8945D8   		movl	%eax, -40(%rbp)
 5944 2b19 8B050000 		movl	.LC83(%rip), %eax
 5944      0000
 5945 2b1f 8945DC   		movl	%eax, -36(%rbp)
 5946 2b22 8B050000 		movl	.LC84(%rip), %eax
 5946      0000
 5947 2b28 8945E0   		movl	%eax, -32(%rbp)
 250:TestChecks.cpp ****     CheckArray2DClose(results, array1, array2, 3, 3, 0.02f, TestDetails("", "", "", 0));
 5948              		.loc 5 250 0
 5949 2b2b 488D8570 		leaq	-144(%rbp), %rax
 5949      FFFFFF
 5950 2b32 41B80000 		movl	$0, %r8d
 5950      0000
 5951 2b38 B9000000 		movl	$.LC6, %ecx
 5951      00
 5952 2b3d BA000000 		movl	$.LC6, %edx
 5952      00
 5953 2b42 BE000000 		movl	$.LC6, %esi
 5953      00
 5954 2b47 4889C7   		movq	%rax, %rdi
 5955 2b4a E8000000 		call	_ZN8UnitTest11TestDetailsC1EPKcS2_S2_i
 5955      00
 5956 2b4f 8B050000 		movl	.LC66(%rip), %eax
 5956      0000
 5957 2b55 89854CFF 		movl	%eax, -180(%rbp)
 5957      FFFF
 5958 2b5b 488DBD4C 		leaq	-180(%rbp), %rdi
 5958      FFFFFF
 5959 2b62 488D55C0 		leaq	-64(%rbp), %rdx
 5960 2b66 488D7590 		leaq	-112(%rbp), %rsi
 5961 2b6a 488D8550 		leaq	-176(%rbp), %rax
 5961      FFFFFF
 5962 2b71 488D8D70 		leaq	-144(%rbp), %rcx
 5962      FFFFFF
 5963 2b78 48890C24 		movq	%rcx, (%rsp)
 5964 2b7c 4989F9   		movq	%rdi, %r9
 5965 2b7f 41B80300 		movl	$3, %r8d
 5965      0000
 5966 2b85 B9030000 		movl	$3, %ecx
 5966      00
 5967 2b8a 4889C7   		movq	%rax, %rdi
 5968 2b8d E8000000 		call	_ZN8UnitTest17CheckArray2DCloseIA3_A3_fS2_fEEvRNS_11TestResultsERKT_RKT0_iiRKT1_RKNS_11TestDe
 5968      00
 5969              	.LEHE153:
 5970              	.LEHB154:
 251:TestChecks.cpp ****     CHECK_EQUAL(0, results.GetFailureCount());
 5971              		.loc 5 251 0
 5972 2b92 E8000000 		call	_ZN8UnitTest11CurrentTest7DetailsEv
 5972      00
 5973 2b97 488B08   		movq	(%rax), %rcx
 5974 2b9a 488D8570 		leaq	-144(%rbp), %rax
 5974      FFFFFF
 5975 2ba1 BAFB0000 		movl	$251, %edx
 5975      00
 5976 2ba6 4889CE   		movq	%rcx, %rsi
 5977 2ba9 4889C7   		movq	%rax, %rdi
 5978 2bac E8000000 		call	_ZN8UnitTest11TestDetailsC1ERKS0_i
 5978      00
 5979              		.loc 5 251 0 is_stmt 0 discriminator 1
 5980 2bb1 488D8550 		leaq	-176(%rbp), %rax
 5980      FFFFFF
 5981 2bb8 4889C7   		movq	%rax, %rdi
 5982 2bbb E8000000 		call	_ZNK8UnitTest11TestResults15GetFailureCountEv
 5982      00
 5983 2bc0 89854CFF 		movl	%eax, -180(%rbp)
 5983      FFFF
 5984 2bc6 C78548FF 		movl	$0, -184(%rbp)
 5984      FFFF0000 
 5984      0000
 5985 2bd0 E8000000 		call	_ZN8UnitTest11CurrentTest7ResultsEv
 5985      00
 5986 2bd5 488B00   		movq	(%rax), %rax
 5987 2bd8 488D8D70 		leaq	-144(%rbp), %rcx
 5987      FFFFFF
 5988 2bdf 488D954C 		leaq	-180(%rbp), %rdx
 5988      FFFFFF
 5989 2be6 488DB548 		leaq	-184(%rbp), %rsi
 5989      FFFFFF
 5990 2bed 4889C7   		movq	%rax, %rdi
 5991 2bf0 E8000000 		call	_ZN8UnitTest10CheckEqualIiiEEvRNS_11TestResultsERKT_RKT0_RKNS_11TestDetailsE
 5991      00
 5992              	.LEHE154:
 5993              	.LBE76:
 252:TestChecks.cpp **** }
 5994              		.loc 5 252 0 is_stmt 1
 5995 2bf5 EB5E     		jmp	.L272
 5996              	.L271:
 5997 2bf7 4889C3   		movq	%rax, %rbx
 5998              	.LBB77:
 251:TestChecks.cpp ****     CHECK_EQUAL(0, results.GetFailureCount());
 5999              		.loc 5 251 0
 6000 2bfa E8000000 		call	__cxa_end_catch
 6000      00
 6001 2bff 4889D8   		movq	%rbx, %rax
 6002 2c02 4889C7   		movq	%rax, %rdi
 6003              	.LEHB155:
 6004 2c05 E8000000 		call	_Unwind_Resume
 6004      00
 6005              	.LEHE155:
 6006              	.L270:
 6007 2c0a 4889C7   		movq	%rax, %rdi
 6008 2c0d E8000000 		call	__cxa_begin_catch
 6008      00
 6009              	.LEHB156:
 6010 2c12 E8000000 		call	_ZN8UnitTest11CurrentTest7DetailsEv
 6010      00
 6011 2c17 488B08   		movq	(%rax), %rcx
 6012 2c1a 488D8570 		leaq	-144(%rbp), %rax
 6012      FFFFFF
 6013 2c21 BAFB0000 		movl	$251, %edx
 6013      00
 6014 2c26 4889CE   		movq	%rcx, %rsi
 6015 2c29 4889C7   		movq	%rax, %rdi
 6016 2c2c E8000000 		call	_ZN8UnitTest11TestDetailsC1ERKS0_i
 6016      00
 251:TestChecks.cpp ****     CHECK_EQUAL(0, results.GetFailureCount());
 6017              		.loc 5 251 0 is_stmt 0 discriminator 1
 6018 2c31 E8000000 		call	_ZN8UnitTest11CurrentTest7ResultsEv
 6018      00
 6019 2c36 488B00   		movq	(%rax), %rax
 6020 2c39 488D8D70 		leaq	-144(%rbp), %rcx
 6020      FFFFFF
 6021 2c40 BA000000 		movl	$.LC9, %edx
 6021      00
 6022 2c45 4889CE   		movq	%rcx, %rsi
 6023 2c48 4889C7   		movq	%rax, %rdi
 6024 2c4b E8000000 		call	_ZN8UnitTest11TestResults13OnTestFailureERKNS_11TestDetailsEPKc
 6024      00
 6025              	.LEHE156:
 6026              	.LEHB157:
 6027 2c50 E8000000 		call	__cxa_end_catch
 6027      00
 6028              	.LEHE157:
 6029              	.L272:
 6030              	.LBE77:
 6031              		.loc 5 252 0 is_stmt 1
 6032 2c55 90       		nop
 6033 2c56 4881C4C8 		addq	$200, %rsp
 6033      000000
 6034 2c5d 5B       		popq	%rbx
 6035 2c5e 5D       		popq	%rbp
 6036              		.cfi_def_cfa 7, 8
 6037 2c5f C3       		ret
 6038              		.cfi_endproc
 6039              	.LFE1120:
 6040              		.section	.gcc_except_table
 6041              		.align 4
 6042              	.LLSDA1120:
 6043 0424 FF       		.byte	0xff
 6044 0425 03       		.byte	0x3
 6045 0426 25       		.uleb128 .LLSDATT1120-.LLSDATTD1120
 6046              	.LLSDATTD1120:
 6047 0427 01       		.byte	0x1
 6048 0428 1B       		.uleb128 .LLSDACSE1120-.LLSDACSB1120
 6049              	.LLSDACSB1120:
 6050 0429 22       		.uleb128 .LEHB153-.LFB1120
 6051 042a 8E02     		.uleb128 .LEHE153-.LEHB153
 6052 042c 00       		.uleb128 0
 6053 042d 00       		.uleb128 0
 6054 042e B002     		.uleb128 .LEHB154-.LFB1120
 6055 0430 63       		.uleb128 .LEHE154-.LEHB154
 6056 0431 A803     		.uleb128 .L270-.LFB1120
 6057 0433 01       		.uleb128 0x1
 6058 0434 A303     		.uleb128 .LEHB155-.LFB1120
 6059 0436 05       		.uleb128 .LEHE155-.LEHB155
 6060 0437 00       		.uleb128 0
 6061 0438 00       		.uleb128 0
 6062 0439 B003     		.uleb128 .LEHB156-.LFB1120
 6063 043b 3E       		.uleb128 .LEHE156-.LEHB156
 6064 043c 9503     		.uleb128 .L271-.LFB1120
 6065 043e 00       		.uleb128 0
 6066 043f EE03     		.uleb128 .LEHB157-.LFB1120
 6067 0441 05       		.uleb128 .LEHE157-.LEHB157
 6068 0442 00       		.uleb128 0
 6069 0443 00       		.uleb128 0
 6070              	.LLSDACSE1120:
 6071 0444 01       		.byte	0x1
 6072 0445 00       		.byte	0
 6073 0446 0000     		.align 4
 6074 0448 00000000 		.long	0
 6075              	
 6076              	.LLSDATT1120:
 6077              		.text
 6079              		.section	.rodata
 6080              	.LC85:
 6081 0a08 43686563 		.string	"CheckArray2DCloseFalse"
 6081      6B417272 
 6081      61793244 
 6081      436C6F73 
 6081      6546616C 
 6082              		.text
 6083              		.align 2
 6085              	_ZN12_GLOBAL__N_126TestCheckArray2DCloseFalseC2Ev:
 6086              	.LFB1122:
 253:TestChecks.cpp **** 
 254:TestChecks.cpp **** TEST(CheckArray2DCloseFalse)
 6087              		.loc 5 254 0
 6088              		.cfi_startproc
 6089 2c60 55       		pushq	%rbp
 6090              		.cfi_def_cfa_offset 16
 6091              		.cfi_offset 6, -16
 6092 2c61 4889E5   		movq	%rsp, %rbp
 6093              		.cfi_def_cfa_register 6
 6094 2c64 4883EC10 		subq	$16, %rsp
 6095 2c68 48897DF8 		movq	%rdi, -8(%rbp)
 6096              	.LBB78:
 6097              		.loc 5 254 0
 6098 2c6c E8000000 		call	_ZN13UnitTestSuite12GetSuiteNameEv
 6098      00
 6099 2c71 4889C2   		movq	%rax, %rdx
 6100 2c74 488B45F8 		movq	-8(%rbp), %rax
 6101 2c78 41B8FE00 		movl	$254, %r8d
 6101      0000
 6102 2c7e B9000000 		movl	$.LC2, %ecx
 6102      00
 6103 2c83 BE000000 		movl	$.LC85, %esi
 6103      00
 6104 2c88 4889C7   		movq	%rax, %rdi
 6105 2c8b E8000000 		call	_ZN8UnitTest4TestC2EPKcS2_S2_i
 6105      00
 6106 2c90 488B45F8 		movq	-8(%rbp), %rax
 6107 2c94 48C70000 		movq	$_ZTVN12_GLOBAL__N_126TestCheckArray2DCloseFalseE+16, (%rax)
 6107      000000
 6108              	.LBE78:
 6109 2c9b C9       		leave
 6110              		.cfi_def_cfa 7, 8
 6111 2c9c C3       		ret
 6112              		.cfi_endproc
 6113              	.LFE1122:
 6115              		.set	_ZN12_GLOBAL__N_126TestCheckArray2DCloseFalseC1Ev,_ZN12_GLOBAL__N_126TestCheckArray2DCloseFal
 6116              		.local	_ZN12_GLOBAL__N_134testCheckArray2DCloseFalseInstanceE
 6117              		.comm	_ZN12_GLOBAL__N_134testCheckArray2DCloseFalseInstanceE,56,32
 6118              		.local	_ZN12_GLOBAL__N_127adderCheckArray2DCloseFalseE
 6119              		.comm	_ZN12_GLOBAL__N_127adderCheckArray2DCloseFalseE,1,1
 6120 2c9d 90       		.align 2
 6122              	_ZNK12_GLOBAL__N_126TestCheckArray2DCloseFalse7RunImplEv:
 6123              	.LFB1124:
 255:TestChecks.cpp **** {
 6124              		.loc 5 255 0
 6125              		.cfi_startproc
 6126              		.cfi_personality 0x3,__gxx_personality_v0
 6127              		.cfi_lsda 0x3,.LLSDA1124
 6128 2c9e 55       		pushq	%rbp
 6129              		.cfi_def_cfa_offset 16
 6130              		.cfi_offset 6, -16
 6131 2c9f 4889E5   		movq	%rsp, %rbp
 6132              		.cfi_def_cfa_register 6
 6133 2ca2 53       		pushq	%rbx
 6134 2ca3 4881ECC8 		subq	$200, %rsp
 6134      000000
 6135              		.cfi_offset 3, -24
 6136 2caa 4889BD38 		movq	%rdi, -200(%rbp)
 6136      FFFFFF
 6137              	.LBB79:
 256:TestChecks.cpp ****     TestResults results;
 6138              		.loc 5 256 0
 6139 2cb1 488D8550 		leaq	-176(%rbp), %rax
 6139      FFFFFF
 6140 2cb8 BE000000 		movl	$0, %esi
 6140      00
 6141 2cbd 4889C7   		movq	%rax, %rdi
 6142              	.LEHB158:
 6143 2cc0 E8000000 		call	_ZN8UnitTest11TestResultsC1EPNS_12TestReporterE
 6143      00
 257:TestChecks.cpp **** 
 258:TestChecks.cpp ****     float const array1[3][3] = { { 1.0f, 1.5f, 2.0f },
 259:TestChecks.cpp ****                                  { 2.0f, 2.5f, 3.0f },
 260:TestChecks.cpp ****                                  { 3.0f, 3.5f, 4.0f } };
 6144              		.loc 5 260 0
 6145 2cc5 8B050000 		movl	.LC60(%rip), %eax
 6145      0000
 6146 2ccb 894590   		movl	%eax, -112(%rbp)
 6147 2cce 8B050000 		movl	.LC61(%rip), %eax
 6147      0000
 6148 2cd4 894594   		movl	%eax, -108(%rbp)
 6149 2cd7 8B050000 		movl	.LC62(%rip), %eax
 6149      0000
 6150 2cdd 894598   		movl	%eax, -104(%rbp)
 6151 2ce0 8B050000 		movl	.LC62(%rip), %eax
 6151      0000
 6152 2ce6 89459C   		movl	%eax, -100(%rbp)
 6153 2ce9 8B050000 		movl	.LC78(%rip), %eax
 6153      0000
 6154 2cef 8945A0   		movl	%eax, -96(%rbp)
 6155 2cf2 8B050000 		movl	.LC32(%rip), %eax
 6155      0000
 6156 2cf8 8945A4   		movl	%eax, -92(%rbp)
 6157 2cfb 8B050000 		movl	.LC32(%rip), %eax
 6157      0000
 6158 2d01 8945A8   		movl	%eax, -88(%rbp)
 6159 2d04 8B050000 		movl	.LC79(%rip), %eax
 6159      0000
 6160 2d0a 8945AC   		movl	%eax, -84(%rbp)
 6161 2d0d 8B050000 		movl	.LC80(%rip), %eax
 6161      0000
 6162 2d13 8945B0   		movl	%eax, -80(%rbp)
 261:TestChecks.cpp ****     float const array2[3][3] = { { 1.01f, 1.51f, 2.01f },
 262:TestChecks.cpp ****                                  { 2.01f, 2.51f, 3.01f },
 263:TestChecks.cpp ****                                  { 3.01f, 3.51f, 4.01f } };
 6163              		.loc 5 263 0
 6164 2d16 8B050000 		movl	.LC63(%rip), %eax
 6164      0000
 6165 2d1c 8945C0   		movl	%eax, -64(%rbp)
 6166 2d1f 8B050000 		movl	.LC64(%rip), %eax
 6166      0000
 6167 2d25 8945C4   		movl	%eax, -60(%rbp)
 6168 2d28 8B050000 		movl	.LC65(%rip), %eax
 6168      0000
 6169 2d2e 8945C8   		movl	%eax, -56(%rbp)
 6170 2d31 8B050000 		movl	.LC65(%rip), %eax
 6170      0000
 6171 2d37 8945CC   		movl	%eax, -52(%rbp)
 6172 2d3a 8B050000 		movl	.LC81(%rip), %eax
 6172      0000
 6173 2d40 8945D0   		movl	%eax, -48(%rbp)
 6174 2d43 8B050000 		movl	.LC82(%rip), %eax
 6174      0000
 6175 2d49 8945D4   		movl	%eax, -44(%rbp)
 6176 2d4c 8B050000 		movl	.LC82(%rip), %eax
 6176      0000
 6177 2d52 8945D8   		movl	%eax, -40(%rbp)
 6178 2d55 8B050000 		movl	.LC83(%rip), %eax
 6178      0000
 6179 2d5b 8945DC   		movl	%eax, -36(%rbp)
 6180 2d5e 8B050000 		movl	.LC84(%rip), %eax
 6180      0000
 6181 2d64 8945E0   		movl	%eax, -32(%rbp)
 264:TestChecks.cpp ****     CheckArray2DClose(results, array1, array2, 3, 3, 0.001f, TestDetails("", "", "", 0));
 6182              		.loc 5 264 0
 6183 2d67 488D8570 		leaq	-144(%rbp), %rax
 6183      FFFFFF
 6184 2d6e 41B80000 		movl	$0, %r8d
 6184      0000
 6185 2d74 B9000000 		movl	$.LC6, %ecx
 6185      00
 6186 2d79 BA000000 		movl	$.LC6, %edx
 6186      00
 6187 2d7e BE000000 		movl	$.LC6, %esi
 6187      00
 6188 2d83 4889C7   		movq	%rax, %rdi
 6189 2d86 E8000000 		call	_ZN8UnitTest11TestDetailsC1EPKcS2_S2_i
 6189      00
 6190 2d8b 8B050000 		movl	.LC68(%rip), %eax
 6190      0000
 6191 2d91 89854CFF 		movl	%eax, -180(%rbp)
 6191      FFFF
 6192 2d97 488DBD4C 		leaq	-180(%rbp), %rdi
 6192      FFFFFF
 6193 2d9e 488D55C0 		leaq	-64(%rbp), %rdx
 6194 2da2 488D7590 		leaq	-112(%rbp), %rsi
 6195 2da6 488D8550 		leaq	-176(%rbp), %rax
 6195      FFFFFF
 6196 2dad 488D8D70 		leaq	-144(%rbp), %rcx
 6196      FFFFFF
 6197 2db4 48890C24 		movq	%rcx, (%rsp)
 6198 2db8 4989F9   		movq	%rdi, %r9
 6199 2dbb 41B80300 		movl	$3, %r8d
 6199      0000
 6200 2dc1 B9030000 		movl	$3, %ecx
 6200      00
 6201 2dc6 4889C7   		movq	%rax, %rdi
 6202 2dc9 E8000000 		call	_ZN8UnitTest17CheckArray2DCloseIA3_A3_fS2_fEEvRNS_11TestResultsERKT_RKT0_iiRKT1_RKNS_11TestDe
 6202      00
 6203              	.LEHE158:
 6204              	.LEHB159:
 265:TestChecks.cpp ****     CHECK_EQUAL(1, results.GetFailureCount());
 6205              		.loc 5 265 0
 6206 2dce E8000000 		call	_ZN8UnitTest11CurrentTest7DetailsEv
 6206      00
 6207 2dd3 488B08   		movq	(%rax), %rcx
 6208 2dd6 488D8570 		leaq	-144(%rbp), %rax
 6208      FFFFFF
 6209 2ddd BA090100 		movl	$265, %edx
 6209      00
 6210 2de2 4889CE   		movq	%rcx, %rsi
 6211 2de5 4889C7   		movq	%rax, %rdi
 6212 2de8 E8000000 		call	_ZN8UnitTest11TestDetailsC1ERKS0_i
 6212      00
 6213              		.loc 5 265 0 is_stmt 0 discriminator 1
 6214 2ded 488D8550 		leaq	-176(%rbp), %rax
 6214      FFFFFF
 6215 2df4 4889C7   		movq	%rax, %rdi
 6216 2df7 E8000000 		call	_ZNK8UnitTest11TestResults15GetFailureCountEv
 6216      00
 6217 2dfc 89854CFF 		movl	%eax, -180(%rbp)
 6217      FFFF
 6218 2e02 C78548FF 		movl	$1, -184(%rbp)
 6218      FFFF0100 
 6218      0000
 6219 2e0c E8000000 		call	_ZN8UnitTest11CurrentTest7ResultsEv
 6219      00
 6220 2e11 488B00   		movq	(%rax), %rax
 6221 2e14 488D8D70 		leaq	-144(%rbp), %rcx
 6221      FFFFFF
 6222 2e1b 488D954C 		leaq	-180(%rbp), %rdx
 6222      FFFFFF
 6223 2e22 488DB548 		leaq	-184(%rbp), %rsi
 6223      FFFFFF
 6224 2e29 4889C7   		movq	%rax, %rdi
 6225 2e2c E8000000 		call	_ZN8UnitTest10CheckEqualIiiEEvRNS_11TestResultsERKT_RKT0_RKNS_11TestDetailsE
 6225      00
 6226              	.LEHE159:
 6227              	.LBE79:
 266:TestChecks.cpp **** }
 6228              		.loc 5 266 0 is_stmt 1
 6229 2e31 EB5E     		jmp	.L280
 6230              	.L279:
 6231 2e33 4889C3   		movq	%rax, %rbx
 6232              	.LBB80:
 265:TestChecks.cpp ****     CHECK_EQUAL(1, results.GetFailureCount());
 6233              		.loc 5 265 0
 6234 2e36 E8000000 		call	__cxa_end_catch
 6234      00
 6235 2e3b 4889D8   		movq	%rbx, %rax
 6236 2e3e 4889C7   		movq	%rax, %rdi
 6237              	.LEHB160:
 6238 2e41 E8000000 		call	_Unwind_Resume
 6238      00
 6239              	.LEHE160:
 6240              	.L278:
 6241 2e46 4889C7   		movq	%rax, %rdi
 6242 2e49 E8000000 		call	__cxa_begin_catch
 6242      00
 6243              	.LEHB161:
 6244 2e4e E8000000 		call	_ZN8UnitTest11CurrentTest7DetailsEv
 6244      00
 6245 2e53 488B08   		movq	(%rax), %rcx
 6246 2e56 488D8570 		leaq	-144(%rbp), %rax
 6246      FFFFFF
 6247 2e5d BA090100 		movl	$265, %edx
 6247      00
 6248 2e62 4889CE   		movq	%rcx, %rsi
 6249 2e65 4889C7   		movq	%rax, %rdi
 6250 2e68 E8000000 		call	_ZN8UnitTest11TestDetailsC1ERKS0_i
 6250      00
 265:TestChecks.cpp ****     CHECK_EQUAL(1, results.GetFailureCount());
 6251              		.loc 5 265 0 is_stmt 0 discriminator 1
 6252 2e6d E8000000 		call	_ZN8UnitTest11CurrentTest7ResultsEv
 6252      00
 6253 2e72 488B00   		movq	(%rax), %rax
 6254 2e75 488D8D70 		leaq	-144(%rbp), %rcx
 6254      FFFFFF
 6255 2e7c BA000000 		movl	$.LC7, %edx
 6255      00
 6256 2e81 4889CE   		movq	%rcx, %rsi
 6257 2e84 4889C7   		movq	%rax, %rdi
 6258 2e87 E8000000 		call	_ZN8UnitTest11TestResults13OnTestFailureERKNS_11TestDetailsEPKc
 6258      00
 6259              	.LEHE161:
 6260              	.LEHB162:
 6261 2e8c E8000000 		call	__cxa_end_catch
 6261      00
 6262              	.LEHE162:
 6263              	.L280:
 6264              	.LBE80:
 6265              		.loc 5 266 0 is_stmt 1
 6266 2e91 90       		nop
 6267 2e92 4881C4C8 		addq	$200, %rsp
 6267      000000
 6268 2e99 5B       		popq	%rbx
 6269 2e9a 5D       		popq	%rbp
 6270              		.cfi_def_cfa 7, 8
 6271 2e9b C3       		ret
 6272              		.cfi_endproc
 6273              	.LFE1124:
 6274              		.section	.gcc_except_table
 6275              		.align 4
 6276              	.LLSDA1124:
 6277 044c FF       		.byte	0xff
 6278 044d 03       		.byte	0x3
 6279 044e 25       		.uleb128 .LLSDATT1124-.LLSDATTD1124
 6280              	.LLSDATTD1124:
 6281 044f 01       		.byte	0x1
 6282 0450 1B       		.uleb128 .LLSDACSE1124-.LLSDACSB1124
 6283              	.LLSDACSB1124:
 6284 0451 22       		.uleb128 .LEHB158-.LFB1124
 6285 0452 8E02     		.uleb128 .LEHE158-.LEHB158
 6286 0454 00       		.uleb128 0
 6287 0455 00       		.uleb128 0
 6288 0456 B002     		.uleb128 .LEHB159-.LFB1124
 6289 0458 63       		.uleb128 .LEHE159-.LEHB159
 6290 0459 A803     		.uleb128 .L278-.LFB1124
 6291 045b 01       		.uleb128 0x1
 6292 045c A303     		.uleb128 .LEHB160-.LFB1124
 6293 045e 05       		.uleb128 .LEHE160-.LEHB160
 6294 045f 00       		.uleb128 0
 6295 0460 00       		.uleb128 0
 6296 0461 B003     		.uleb128 .LEHB161-.LFB1124
 6297 0463 3E       		.uleb128 .LEHE161-.LEHB161
 6298 0464 9503     		.uleb128 .L279-.LFB1124
 6299 0466 00       		.uleb128 0
 6300 0467 EE03     		.uleb128 .LEHB162-.LFB1124
 6301 0469 05       		.uleb128 .LEHE162-.LEHB162
 6302 046a 00       		.uleb128 0
 6303 046b 00       		.uleb128 0
 6304              	.LLSDACSE1124:
 6305 046c 01       		.byte	0x1
 6306 046d 00       		.byte	0
 6307 046e 0000     		.align 4
 6308 0470 00000000 		.long	0
 6309              	
 6310              	.LLSDATT1124:
 6311              		.text
 6313              		.section	.rodata
 6314              	.LC86:
 6315 0a1f 43686563 		.string	"CheckCloseWithDoublesSucceeds"
 6315      6B436C6F 
 6315      73655769 
 6315      7468446F 
 6315      75626C65 
 6316              		.text
 6317              		.align 2
 6319              	_ZN12_GLOBAL__N_133TestCheckCloseWithDoublesSucceedsC2Ev:
 6320              	.LFB1126:
 267:TestChecks.cpp **** 
 268:TestChecks.cpp **** TEST(CheckCloseWithDoublesSucceeds)
 6321              		.loc 5 268 0
 6322              		.cfi_startproc
 6323 2e9c 55       		pushq	%rbp
 6324              		.cfi_def_cfa_offset 16
 6325              		.cfi_offset 6, -16
 6326 2e9d 4889E5   		movq	%rsp, %rbp
 6327              		.cfi_def_cfa_register 6
 6328 2ea0 4883EC10 		subq	$16, %rsp
 6329 2ea4 48897DF8 		movq	%rdi, -8(%rbp)
 6330              	.LBB81:
 6331              		.loc 5 268 0
 6332 2ea8 E8000000 		call	_ZN13UnitTestSuite12GetSuiteNameEv
 6332      00
 6333 2ead 4889C2   		movq	%rax, %rdx
 6334 2eb0 488B45F8 		movq	-8(%rbp), %rax
 6335 2eb4 41B80C01 		movl	$268, %r8d
 6335      0000
 6336 2eba B9000000 		movl	$.LC2, %ecx
 6336      00
 6337 2ebf BE000000 		movl	$.LC86, %esi
 6337      00
 6338 2ec4 4889C7   		movq	%rax, %rdi
 6339 2ec7 E8000000 		call	_ZN8UnitTest4TestC2EPKcS2_S2_i
 6339      00
 6340 2ecc 488B45F8 		movq	-8(%rbp), %rax
 6341 2ed0 48C70000 		movq	$_ZTVN12_GLOBAL__N_133TestCheckCloseWithDoublesSucceedsE+16, (%rax)
 6341      000000
 6342              	.LBE81:
 6343 2ed7 C9       		leave
 6344              		.cfi_def_cfa 7, 8
 6345 2ed8 C3       		ret
 6346              		.cfi_endproc
 6347              	.LFE1126:
 6349              		.set	_ZN12_GLOBAL__N_133TestCheckCloseWithDoublesSucceedsC1Ev,_ZN12_GLOBAL__N_133TestCheckCloseWit
 6350              		.local	_ZN12_GLOBAL__N_141testCheckCloseWithDoublesSucceedsInstanceE
 6351              		.comm	_ZN12_GLOBAL__N_141testCheckCloseWithDoublesSucceedsInstanceE,56,32
 6352              		.local	_ZN12_GLOBAL__N_134adderCheckCloseWithDoublesSucceedsE
 6353              		.comm	_ZN12_GLOBAL__N_134adderCheckCloseWithDoublesSucceedsE,1,1
 6354              		.section	.rodata
 6355 0a3d 000000   		.align 8
 6356              	.LC89:
 6357 0a40 556E6861 		.string	"Unhandled exception in CHECK_CLOSE(0.5, 0.5)"
 6357      6E646C65 
 6357      64206578 
 6357      63657074 
 6357      696F6E20 
 6358              		.text
 6359 2ed9 90       		.align 2
 6361              	_ZNK12_GLOBAL__N_133TestCheckCloseWithDoublesSucceeds7RunImplEv:
 6362              	.LFB1128:
 269:TestChecks.cpp **** {
 6363              		.loc 5 269 0
 6364              		.cfi_startproc
 6365              		.cfi_personality 0x3,__gxx_personality_v0
 6366              		.cfi_lsda 0x3,.LLSDA1128
 6367 2eda 55       		pushq	%rbp
 6368              		.cfi_def_cfa_offset 16
 6369              		.cfi_offset 6, -16
 6370 2edb 4889E5   		movq	%rsp, %rbp
 6371              		.cfi_def_cfa_register 6
 6372 2ede 53       		pushq	%rbx
 6373 2edf 4883EC58 		subq	$88, %rsp
 6374              		.cfi_offset 3, -24
 6375 2ee3 48897DA8 		movq	%rdi, -88(%rbp)
 6376              	.LEHB163:
 270:TestChecks.cpp ****     CHECK_CLOSE(0.5, 0.5, 0.0001);
 6377              		.loc 5 270 0
 6378 2ee7 E8000000 		call	_ZN8UnitTest11CurrentTest7DetailsEv
 6378      00
 6379 2eec 488B08   		movq	(%rax), %rcx
 6380 2eef 488D45D0 		leaq	-48(%rbp), %rax
 6381 2ef3 BA0E0100 		movl	$270, %edx
 6381      00
 6382 2ef8 4889CE   		movq	%rcx, %rsi
 6383 2efb 4889C7   		movq	%rax, %rdi
 6384 2efe E8000000 		call	_ZN8UnitTest11TestDetailsC1ERKS0_i
 6384      00
 6385              		.loc 5 270 0 is_stmt 0 discriminator 1
 6386 2f03 48B82D43 		movabsq	$4547007122018943789, %rax
 6386      1CEBE236 
 6386      1A3F
 6387 2f0d 488945C8 		movq	%rax, -56(%rbp)
 6388 2f11 48B80000 		movabsq	$4602678819172646912, %rax
 6388      00000000 
 6388      E03F
 6389 2f1b 488945C0 		movq	%rax, -64(%rbp)
 6390 2f1f 48B80000 		movabsq	$4602678819172646912, %rax
 6390      00000000 
 6390      E03F
 6391 2f29 488945B8 		movq	%rax, -72(%rbp)
 6392 2f2d E8000000 		call	_ZN8UnitTest11CurrentTest7ResultsEv
 6392      00
 6393 2f32 488B00   		movq	(%rax), %rax
 6394 2f35 488D7DD0 		leaq	-48(%rbp), %rdi
 6395 2f39 488D4DC8 		leaq	-56(%rbp), %rcx
 6396 2f3d 488D55C0 		leaq	-64(%rbp), %rdx
 6397 2f41 488D75B8 		leaq	-72(%rbp), %rsi
 6398 2f45 4989F8   		movq	%rdi, %r8
 6399 2f48 4889C7   		movq	%rax, %rdi
 6400 2f4b E8000000 		call	_ZN8UnitTest10CheckCloseIdddEEvRNS_11TestResultsERKT_RKT0_RKT1_RKNS_11TestDetailsE
 6400      00
 6401              	.LEHE163:
 271:TestChecks.cpp **** }
 6402              		.loc 5 271 0 is_stmt 1
 6403 2f50 EB58     		jmp	.L288
 6404              	.L287:
 6405 2f52 4889C3   		movq	%rax, %rbx
 270:TestChecks.cpp ****     CHECK_CLOSE(0.5, 0.5, 0.0001);
 6406              		.loc 5 270 0
 6407 2f55 E8000000 		call	__cxa_end_catch
 6407      00
 6408 2f5a 4889D8   		movq	%rbx, %rax
 6409 2f5d 4889C7   		movq	%rax, %rdi
 6410              	.LEHB164:
 6411 2f60 E8000000 		call	_Unwind_Resume
 6411      00
 6412              	.LEHE164:
 6413              	.L286:
 6414 2f65 4889C7   		movq	%rax, %rdi
 6415 2f68 E8000000 		call	__cxa_begin_catch
 6415      00
 6416              	.LEHB165:
 6417 2f6d E8000000 		call	_ZN8UnitTest11CurrentTest7DetailsEv
 6417      00
 6418 2f72 488B08   		movq	(%rax), %rcx
 6419 2f75 488D45D0 		leaq	-48(%rbp), %rax
 6420 2f79 BA0E0100 		movl	$270, %edx
 6420      00
 6421 2f7e 4889CE   		movq	%rcx, %rsi
 6422 2f81 4889C7   		movq	%rax, %rdi
 6423 2f84 E8000000 		call	_ZN8UnitTest11TestDetailsC1ERKS0_i
 6423      00
 270:TestChecks.cpp ****     CHECK_CLOSE(0.5, 0.5, 0.0001);
 6424              		.loc 5 270 0 is_stmt 0 discriminator 1
 6425 2f89 E8000000 		call	_ZN8UnitTest11CurrentTest7ResultsEv
 6425      00
 6426 2f8e 488B00   		movq	(%rax), %rax
 6427 2f91 488D4DD0 		leaq	-48(%rbp), %rcx
 6428 2f95 BA000000 		movl	$.LC89, %edx
 6428      00
 6429 2f9a 4889CE   		movq	%rcx, %rsi
 6430 2f9d 4889C7   		movq	%rax, %rdi
 6431 2fa0 E8000000 		call	_ZN8UnitTest11TestResults13OnTestFailureERKNS_11TestDetailsEPKc
 6431      00
 6432              	.LEHE165:
 6433              	.LEHB166:
 6434 2fa5 E8000000 		call	__cxa_end_catch
 6434      00
 6435              	.LEHE166:
 6436              	.L288:
 6437              		.loc 5 271 0 is_stmt 1
 6438 2faa 90       		nop
 6439 2fab 4883C458 		addq	$88, %rsp
 6440 2faf 5B       		popq	%rbx
 6441 2fb0 5D       		popq	%rbp
 6442              		.cfi_def_cfa 7, 8
 6443 2fb1 C3       		ret
 6444              		.cfi_endproc
 6445              	.LFE1128:
 6446              		.section	.gcc_except_table
 6447              		.align 4
 6448              	.LLSDA1128:
 6449 0474 FF       		.byte	0xff
 6450 0475 03       		.byte	0x3
 6451 0476 1D       		.uleb128 .LLSDATT1128-.LLSDATTD1128
 6452              	.LLSDATTD1128:
 6453 0477 01       		.byte	0x1
 6454 0478 14       		.uleb128 .LLSDACSE1128-.LLSDACSB1128
 6455              	.LLSDACSB1128:
 6456 0479 0D       		.uleb128 .LEHB163-.LFB1128
 6457 047a 69       		.uleb128 .LEHE163-.LEHB163
 6458 047b 8B01     		.uleb128 .L286-.LFB1128
 6459 047d 01       		.uleb128 0x1
 6460 047e 8601     		.uleb128 .LEHB164-.LFB1128
 6461 0480 05       		.uleb128 .LEHE164-.LEHB164
 6462 0481 00       		.uleb128 0
 6463 0482 00       		.uleb128 0
 6464 0483 9301     		.uleb128 .LEHB165-.LFB1128
 6465 0485 38       		.uleb128 .LEHE165-.LEHB165
 6466 0486 78       		.uleb128 .L287-.LFB1128
 6467 0487 00       		.uleb128 0
 6468 0488 CB01     		.uleb128 .LEHB166-.LFB1128
 6469 048a 05       		.uleb128 .LEHE166-.LEHB166
 6470 048b 00       		.uleb128 0
 6471 048c 00       		.uleb128 0
 6472              	.LLSDACSE1128:
 6473 048d 01       		.byte	0x1
 6474 048e 00       		.byte	0
 6475 048f 00       		.align 4
 6476 0490 00000000 		.long	0
 6477              	
 6478              	.LLSDATT1128:
 6479              		.text
 6481              		.section	.rodata
 6482 0a6d 000000   		.align 8
 6483              	.LC90:
 6484 0a70 43686563 		.string	"CheckArray2DCloseFailureIncludesDetails"
 6484      6B417272 
 6484      61793244 
 6484      436C6F73 
 6484      65466169 
 6485              		.text
 6486              		.align 2
 6488              	_ZN12_GLOBAL__N_143TestCheckArray2DCloseFailureIncludesDetailsC2Ev:
 6489              	.LFB1130:
 272:TestChecks.cpp **** 
 273:TestChecks.cpp **** TEST(CheckArray2DCloseFailureIncludesDetails)
 6490              		.loc 5 273 0
 6491              		.cfi_startproc
 6492 2fb2 55       		pushq	%rbp
 6493              		.cfi_def_cfa_offset 16
 6494              		.cfi_offset 6, -16
 6495 2fb3 4889E5   		movq	%rsp, %rbp
 6496              		.cfi_def_cfa_register 6
 6497 2fb6 4883EC10 		subq	$16, %rsp
 6498 2fba 48897DF8 		movq	%rdi, -8(%rbp)
 6499              	.LBB82:
 6500              		.loc 5 273 0
 6501 2fbe E8000000 		call	_ZN13UnitTestSuite12GetSuiteNameEv
 6501      00
 6502 2fc3 4889C2   		movq	%rax, %rdx
 6503 2fc6 488B45F8 		movq	-8(%rbp), %rax
 6504 2fca 41B81101 		movl	$273, %r8d
 6504      0000
 6505 2fd0 B9000000 		movl	$.LC2, %ecx
 6505      00
 6506 2fd5 BE000000 		movl	$.LC90, %esi
 6506      00
 6507 2fda 4889C7   		movq	%rax, %rdi
 6508 2fdd E8000000 		call	_ZN8UnitTest4TestC2EPKcS2_S2_i
 6508      00
 6509 2fe2 488B45F8 		movq	-8(%rbp), %rax
 6510 2fe6 48C70000 		movq	$_ZTVN12_GLOBAL__N_143TestCheckArray2DCloseFailureIncludesDetailsE+16, (%rax)
 6510      000000
 6511              	.LBE82:
 6512 2fed C9       		leave
 6513              		.cfi_def_cfa 7, 8
 6514 2fee C3       		ret
 6515              		.cfi_endproc
 6516              	.LFE1130:
 6518              		.set	_ZN12_GLOBAL__N_143TestCheckArray2DCloseFailureIncludesDetailsC1Ev,_ZN12_GLOBAL__N_143TestChe
 6519              		.local	_ZN12_GLOBAL__N_151testCheckArray2DCloseFailureIncludesDetailsInstanceE
 6520              		.comm	_ZN12_GLOBAL__N_151testCheckArray2DCloseFailureIncludesDetailsInstanceE,56,32
 6521              		.local	_ZN12_GLOBAL__N_144adderCheckArray2DCloseFailureIncludesDetailsE
 6522              		.comm	_ZN12_GLOBAL__N_144adderCheckArray2DCloseFailureIncludesDetailsE,1,1
 6523              		.section	.rodata
 6524              	.LC91:
 6525 0a98 61727261 		.string	"array2DCloseSuite"
 6525      79324443 
 6525      6C6F7365 
 6525      53756974 
 6525      6500
 6526              	.LC92:
 6527 0aaa 61727261 		.string	"array2DCloseTest"
 6527      79324443 
 6527      6C6F7365 
 6527      54657374 
 6527      00
 6528 0abb 00000000 		.align 8
 6528      00
 6529              	.LC93:
 6530 0ac0 556E6861 		.string	"Unhandled exception in CHECK_EQUAL(\"array2DCloseTest\", reporter.lastFailedTest)"
 6530      6E646C65 
 6530      64206578 
 6530      63657074 
 6530      696F6E20 
 6531              		.align 8
 6532              	.LC94:
 6533 0b10 556E6861 		.string	"Unhandled exception in CHECK_EQUAL(\"array2DCloseSuite\", reporter.lastFailedSuite)"
 6533      6E646C65 
 6533      64206578 
 6533      63657074 
 6533      696F6E20 
 6534 0b62 00000000 		.align 8
 6534      0000
 6535              	.LC95:
 6536 0b68 556E6861 		.string	"Unhandled exception in CHECK_EQUAL(1234, reporter.lastFailedLine)"
 6536      6E646C65 
 6536      64206578 
 6536      63657074 
 6536      696F6E20 
 6537              		.text
 6538 2fef 90       		.align 2
 6540              	_ZNK12_GLOBAL__N_143TestCheckArray2DCloseFailureIncludesDetails7RunImplEv:
 6541              	.LFB1132:
 274:TestChecks.cpp **** {
 6542              		.loc 5 274 0
 6543              		.cfi_startproc
 6544              		.cfi_personality 0x3,__gxx_personality_v0
 6545              		.cfi_lsda 0x3,.LLSDA1132
 6546 2ff0 55       		pushq	%rbp
 6547              		.cfi_def_cfa_offset 16
 6548              		.cfi_offset 6, -16
 6549 2ff1 4889E5   		movq	%rsp, %rbp
 6550              		.cfi_def_cfa_register 6
 6551 2ff4 53       		pushq	%rbx
 6552 2ff5 4881EC28 		subq	$2344, %rsp
 6552      090000
 6553              		.cfi_offset 3, -24
 6554 2ffc 4889BDD8 		movq	%rdi, -2344(%rbp)
 6554      F6FFFF
 6555              		.loc 5 274 0
 6556 3003 64488B04 		movq	%fs:40, %rax
 6556      25280000 
 6556      00
 6557 300c 488945E8 		movq	%rax, -24(%rbp)
 6558 3010 31C0     		xorl	%eax, %eax
 6559              	.LBB83:
 275:TestChecks.cpp ****     RecordingReporter reporter;
 6560              		.loc 5 275 0
 6561 3012 488D85B0 		leaq	-2128(%rbp), %rax
 6561      F7FFFF
 6562 3019 4889C7   		movq	%rax, %rdi
 6563 301c E8000000 		call	_ZN17RecordingReporterC1Ev
 6563      00
 276:TestChecks.cpp ****     TestResults results(&reporter);
 6564              		.loc 5 276 0
 6565 3021 488D95B0 		leaq	-2128(%rbp), %rdx
 6565      F7FFFF
 6566 3028 488D85F0 		leaq	-2320(%rbp), %rax
 6566      F6FFFF
 6567 302f 4889D6   		movq	%rdx, %rsi
 6568 3032 4889C7   		movq	%rax, %rdi
 6569              	.LEHB167:
 6570 3035 E8000000 		call	_ZN8UnitTest11TestResultsC1EPNS_12TestReporterE
 6570      00
 277:TestChecks.cpp ****     TestDetails const details("array2DCloseTest", "array2DCloseSuite", "file", 1234);
 6571              		.loc 5 277 0
 6572 303a 488D8510 		leaq	-2288(%rbp), %rax
 6572      F7FFFF
 6573 3041 41B8D204 		movl	$1234, %r8d
 6573      0000
 6574 3047 B9000000 		movl	$.LC70, %ecx
 6574      00
 6575 304c BA000000 		movl	$.LC91, %edx
 6575      00
 6576 3051 BE000000 		movl	$.LC92, %esi
 6576      00
 6577 3056 4889C7   		movq	%rax, %rdi
 6578 3059 E8000000 		call	_ZN8UnitTest11TestDetailsC1EPKcS2_S2_i
 6578      00
 278:TestChecks.cpp **** 
 279:TestChecks.cpp ****     float const array1[3][3] = { { 1.0f, 1.5f, 2.0f },
 280:TestChecks.cpp ****                                  { 2.0f, 2.5f, 3.0f },
 281:TestChecks.cpp ****                                  { 3.0f, 3.5f, 4.0f } };
 6579              		.loc 5 281 0
 6580 305e 8B050000 		movl	.LC60(%rip), %eax
 6580      0000
 6581 3064 898550F7 		movl	%eax, -2224(%rbp)
 6581      FFFF
 6582 306a 8B050000 		movl	.LC61(%rip), %eax
 6582      0000
 6583 3070 898554F7 		movl	%eax, -2220(%rbp)
 6583      FFFF
 6584 3076 8B050000 		movl	.LC62(%rip), %eax
 6584      0000
 6585 307c 898558F7 		movl	%eax, -2216(%rbp)
 6585      FFFF
 6586 3082 8B050000 		movl	.LC62(%rip), %eax
 6586      0000
 6587 3088 89855CF7 		movl	%eax, -2212(%rbp)
 6587      FFFF
 6588 308e 8B050000 		movl	.LC78(%rip), %eax
 6588      0000
 6589 3094 898560F7 		movl	%eax, -2208(%rbp)
 6589      FFFF
 6590 309a 8B050000 		movl	.LC32(%rip), %eax
 6590      0000
 6591 30a0 898564F7 		movl	%eax, -2204(%rbp)
 6591      FFFF
 6592 30a6 8B050000 		movl	.LC32(%rip), %eax
 6592      0000
 6593 30ac 898568F7 		movl	%eax, -2200(%rbp)
 6593      FFFF
 6594 30b2 8B050000 		movl	.LC79(%rip), %eax
 6594      0000
 6595 30b8 89856CF7 		movl	%eax, -2196(%rbp)
 6595      FFFF
 6596 30be 8B050000 		movl	.LC80(%rip), %eax
 6596      0000
 6597 30c4 898570F7 		movl	%eax, -2192(%rbp)
 6597      FFFF
 282:TestChecks.cpp ****     float const array2[3][3] = { { 1.01f, 1.51f, 2.01f },
 283:TestChecks.cpp ****                                  { 2.01f, 2.51f, 3.01f },
 284:TestChecks.cpp ****                                  { 3.01f, 3.51f, 4.01f } };
 6598              		.loc 5 284 0
 6599 30ca 8B050000 		movl	.LC63(%rip), %eax
 6599      0000
 6600 30d0 898580F7 		movl	%eax, -2176(%rbp)
 6600      FFFF
 6601 30d6 8B050000 		movl	.LC64(%rip), %eax
 6601      0000
 6602 30dc 898584F7 		movl	%eax, -2172(%rbp)
 6602      FFFF
 6603 30e2 8B050000 		movl	.LC65(%rip), %eax
 6603      0000
 6604 30e8 898588F7 		movl	%eax, -2168(%rbp)
 6604      FFFF
 6605 30ee 8B050000 		movl	.LC65(%rip), %eax
 6605      0000
 6606 30f4 89858CF7 		movl	%eax, -2164(%rbp)
 6606      FFFF
 6607 30fa 8B050000 		movl	.LC81(%rip), %eax
 6607      0000
 6608 3100 898590F7 		movl	%eax, -2160(%rbp)
 6608      FFFF
 6609 3106 8B050000 		movl	.LC82(%rip), %eax
 6609      0000
 6610 310c 898594F7 		movl	%eax, -2156(%rbp)
 6610      FFFF
 6611 3112 8B050000 		movl	.LC82(%rip), %eax
 6611      0000
 6612 3118 898598F7 		movl	%eax, -2152(%rbp)
 6612      FFFF
 6613 311e 8B050000 		movl	.LC83(%rip), %eax
 6613      0000
 6614 3124 89859CF7 		movl	%eax, -2148(%rbp)
 6614      FFFF
 6615 312a 8B050000 		movl	.LC84(%rip), %eax
 6615      0000
 6616 3130 8985A0F7 		movl	%eax, -2144(%rbp)
 6616      FFFF
 285:TestChecks.cpp ****     CheckArray2DClose(results, array1, array2, 3, 3, 0.001f, details);
 6617              		.loc 5 285 0
 6618 3136 8B050000 		movl	.LC68(%rip), %eax
 6618      0000
 6619 313c 898530F7 		movl	%eax, -2256(%rbp)
 6619      FFFF
 6620 3142 488DBD30 		leaq	-2256(%rbp), %rdi
 6620      F7FFFF
 6621 3149 488D9580 		leaq	-2176(%rbp), %rdx
 6621      F7FFFF
 6622 3150 488DB550 		leaq	-2224(%rbp), %rsi
 6622      F7FFFF
 6623 3157 488D85F0 		leaq	-2320(%rbp), %rax
 6623      F6FFFF
 6624 315e 488D8D10 		leaq	-2288(%rbp), %rcx
 6624      F7FFFF
 6625 3165 48890C24 		movq	%rcx, (%rsp)
 6626 3169 4989F9   		movq	%rdi, %r9
 6627 316c 41B80300 		movl	$3, %r8d
 6627      0000
 6628 3172 B9030000 		movl	$3, %ecx
 6628      00
 6629 3177 4889C7   		movq	%rax, %rdi
 6630 317a E8000000 		call	_ZN8UnitTest17CheckArray2DCloseIA3_A3_fS2_fEEvRNS_11TestResultsERKT_RKT0_iiRKT1_RKNS_11TestDe
 6630      00
 6631              	.LEHE167:
 6632              	.LEHB168:
 286:TestChecks.cpp **** 
 287:TestChecks.cpp ****     CHECK_EQUAL("array2DCloseTest", reporter.lastFailedTest);
 6633              		.loc 5 287 0 discriminator 1
 6634 317f E8000000 		call	_ZN8UnitTest11CurrentTest7DetailsEv
 6634      00
 6635 3184 488B08   		movq	(%rax), %rcx
 6636 3187 488D8530 		leaq	-2256(%rbp), %rax
 6636      F7FFFF
 6637 318e BA1F0100 		movl	$287, %edx
 6637      00
 6638 3193 4889CE   		movq	%rcx, %rsi
 6639 3196 4889C7   		movq	%rax, %rdi
 6640 3199 E8000000 		call	_ZN8UnitTest11TestDetailsC1ERKS0_i
 6640      00
 6641 319e E8000000 		call	_ZN8UnitTest11CurrentTest7ResultsEv
 6641      00
 6642 31a3 488B00   		movq	(%rax), %rax
 6643 31a6 488D9530 		leaq	-2256(%rbp), %rdx
 6643      F7FFFF
 6644 31ad 488D8DB0 		leaq	-2128(%rbp), %rcx
 6644      F7FFFF
 6645 31b4 488DB114 		leaq	1044(%rcx), %rsi
 6645      040000
 6646 31bb 4889D1   		movq	%rdx, %rcx
 6647 31be 4889F2   		movq	%rsi, %rdx
 6648 31c1 BE000000 		movl	$.LC92, %esi
 6648      00
 6649 31c6 4889C7   		movq	%rax, %rdi
 6650 31c9 E8000000 		call	_ZN8UnitTest10CheckEqualERNS_11TestResultsEPKcPcRKNS_11TestDetailsE
 6650      00
 6651              	.LEHE168:
 6652              	.L294:
 6653              	.LEHB169:
 288:TestChecks.cpp ****     CHECK_EQUAL("array2DCloseSuite", reporter.lastFailedSuite);
 6654              		.loc 5 288 0
 6655 31ce E8000000 		call	_ZN8UnitTest11CurrentTest7DetailsEv
 6655      00
 6656 31d3 488B08   		movq	(%rax), %rcx
 6657 31d6 488D8530 		leaq	-2256(%rbp), %rax
 6657      F7FFFF
 6658 31dd BA200100 		movl	$288, %edx
 6658      00
 6659 31e2 4889CE   		movq	%rcx, %rsi
 6660 31e5 4889C7   		movq	%rax, %rdi
 6661 31e8 E8000000 		call	_ZN8UnitTest11TestDetailsC1ERKS0_i
 6661      00
 6662              		.loc 5 288 0 is_stmt 0 discriminator 1
 6663 31ed E8000000 		call	_ZN8UnitTest11CurrentTest7ResultsEv
 6663      00
 6664 31f2 488B00   		movq	(%rax), %rax
 6665 31f5 488D9530 		leaq	-2256(%rbp), %rdx
 6665      F7FFFF
 6666 31fc 488D8DB0 		leaq	-2128(%rbp), %rcx
 6666      F7FFFF
 6667 3203 488DB114 		leaq	788(%rcx), %rsi
 6667      030000
 6668 320a 4889D1   		movq	%rdx, %rcx
 6669 320d 4889F2   		movq	%rsi, %rdx
 6670 3210 BE000000 		movl	$.LC91, %esi
 6670      00
 6671 3215 4889C7   		movq	%rax, %rdi
 6672 3218 E8000000 		call	_ZN8UnitTest10CheckEqualERNS_11TestResultsEPKcPcRKNS_11TestDetailsE
 6672      00
 6673              	.LEHE169:
 6674              	.L297:
 6675              	.LEHB170:
 289:TestChecks.cpp ****     CHECK_EQUAL("file", reporter.lastFailedFile);
 6676              		.loc 5 289 0 is_stmt 1
 6677 321d E8000000 		call	_ZN8UnitTest11CurrentTest7DetailsEv
 6677      00
 6678 3222 488B08   		movq	(%rax), %rcx
 6679 3225 488D8530 		leaq	-2256(%rbp), %rax
 6679      F7FFFF
 6680 322c BA210100 		movl	$289, %edx
 6680      00
 6681 3231 4889CE   		movq	%rcx, %rsi
 6682 3234 4889C7   		movq	%rax, %rdi
 6683 3237 E8000000 		call	_ZN8UnitTest11TestDetailsC1ERKS0_i
 6683      00
 6684              		.loc 5 289 0 is_stmt 0 discriminator 1
 6685 323c E8000000 		call	_ZN8UnitTest11CurrentTest7ResultsEv
 6685      00
 6686 3241 488B00   		movq	(%rax), %rax
 6687 3244 488D9530 		leaq	-2256(%rbp), %rdx
 6687      F7FFFF
 6688 324b 488D8DB0 		leaq	-2128(%rbp), %rcx
 6688      F7FFFF
 6689 3252 488DB110 		leaq	528(%rcx), %rsi
 6689      020000
 6690 3259 4889D1   		movq	%rdx, %rcx
 6691 325c 4889F2   		movq	%rsi, %rdx
 6692 325f BE000000 		movl	$.LC70, %esi
 6692      00
 6693 3264 4889C7   		movq	%rax, %rdi
 6694 3267 E8000000 		call	_ZN8UnitTest10CheckEqualERNS_11TestResultsEPKcPcRKNS_11TestDetailsE
 6694      00
 6695              	.LEHE170:
 6696              	.L300:
 6697              	.LEHB171:
 290:TestChecks.cpp ****     CHECK_EQUAL(1234, reporter.lastFailedLine);
 6698              		.loc 5 290 0 is_stmt 1
 6699 326c E8000000 		call	_ZN8UnitTest11CurrentTest7DetailsEv
 6699      00
 6700 3271 488B08   		movq	(%rax), %rcx
 6701 3274 488D8530 		leaq	-2256(%rbp), %rax
 6701      F7FFFF
 6702 327b BA220100 		movl	$290, %edx
 6702      00
 6703 3280 4889CE   		movq	%rcx, %rsi
 6704 3283 4889C7   		movq	%rax, %rdi
 6705 3286 E8000000 		call	_ZN8UnitTest11TestDetailsC1ERKS0_i
 6705      00
 6706              		.loc 5 290 0 is_stmt 0 discriminator 1
 6707 328b C785ECF6 		movl	$1234, -2324(%rbp)
 6707      FFFFD204 
 6707      0000
 6708 3295 E8000000 		call	_ZN8UnitTest11CurrentTest7ResultsEv
 6708      00
 6709 329a 488B00   		movq	(%rax), %rax
 6710 329d 488D9530 		leaq	-2256(%rbp), %rdx
 6710      F7FFFF
 6711 32a4 488D8DB0 		leaq	-2128(%rbp), %rcx
 6711      F7FFFF
 6712 32ab 488DB910 		leaq	784(%rcx), %rdi
 6712      030000
 6713 32b2 488DB5EC 		leaq	-2324(%rbp), %rsi
 6713      F6FFFF
 6714 32b9 4889D1   		movq	%rdx, %rcx
 6715 32bc 4889FA   		movq	%rdi, %rdx
 6716 32bf 4889C7   		movq	%rax, %rdi
 6717 32c2 E8000000 		call	_ZN8UnitTest10CheckEqualIiiEEvRNS_11TestResultsERKT_RKT0_RKNS_11TestDetailsE
 6717      00
 6718              	.LEHE171:
 6719              	.L303:
 6720              		.loc 5 290 0 discriminator 2
 6721 32c7 488D85B0 		leaq	-2128(%rbp), %rax
 6721      F7FFFF
 6722 32ce 4889C7   		movq	%rax, %rdi
 6723              	.LEHB172:
 6724 32d1 E8000000 		call	_ZN17RecordingReporterD1Ev
 6724      00
 6725              	.LEHE172:
 6726              	.LBE83:
 291:TestChecks.cpp **** }
 6727              		.loc 5 291 0 is_stmt 1 discriminator 2
 6728 32d6 488B45E8 		movq	-24(%rbp), %rax
 6729 32da 64483304 		xorq	%fs:40, %rax
 6729      25280000 
 6729      00
 6730 32e3 0F849801 		je	.L304
 6730      0000
 6731 32e9 E98E0100 		jmp	.L314
 6731      00
 6732              	.L307:
 6733 32ee 4889C3   		movq	%rax, %rbx
 6734              	.LBB84:
 287:TestChecks.cpp ****     CHECK_EQUAL("array2DCloseSuite", reporter.lastFailedSuite);
 6735              		.loc 5 287 0
 6736 32f1 E8000000 		call	__cxa_end_catch
 6736      00
 6737 32f6 E9670100 		jmp	.L292
 6737      00
 6738              	.L306:
 6739 32fb 4889C7   		movq	%rax, %rdi
 6740 32fe E8000000 		call	__cxa_begin_catch
 6740      00
 6741              	.LEHB173:
 6742 3303 E8000000 		call	_ZN8UnitTest11CurrentTest7DetailsEv
 6742      00
 6743 3308 488B08   		movq	(%rax), %rcx
 6744 330b 488D8530 		leaq	-2256(%rbp), %rax
 6744      F7FFFF
 6745 3312 BA1F0100 		movl	$287, %edx
 6745      00
 6746 3317 4889CE   		movq	%rcx, %rsi
 6747 331a 4889C7   		movq	%rax, %rdi
 6748 331d E8000000 		call	_ZN8UnitTest11TestDetailsC1ERKS0_i
 6748      00
 287:TestChecks.cpp ****     CHECK_EQUAL("array2DCloseSuite", reporter.lastFailedSuite);
 6749              		.loc 5 287 0 is_stmt 0 discriminator 1
 6750 3322 E8000000 		call	_ZN8UnitTest11CurrentTest7ResultsEv
 6750      00
 6751 3327 488B00   		movq	(%rax), %rax
 6752 332a 488D8D30 		leaq	-2256(%rbp), %rcx
 6752      F7FFFF
 6753 3331 BA000000 		movl	$.LC93, %edx
 6753      00
 6754 3336 4889CE   		movq	%rcx, %rsi
 6755 3339 4889C7   		movq	%rax, %rdi
 6756 333c E8000000 		call	_ZN8UnitTest11TestResults13OnTestFailureERKNS_11TestDetailsEPKc
 6756      00
 6757              	.LEHE173:
 6758              	.LEHB174:
 6759 3341 E8000000 		call	__cxa_end_catch
 6759      00
 6760              	.LEHE174:
 287:TestChecks.cpp ****     CHECK_EQUAL("array2DCloseSuite", reporter.lastFailedSuite);
 6761              		.loc 5 287 0
 6762 3346 E983FEFF 		jmp	.L294
 6762      FF
 6763              	.L309:
 6764 334b 4889C3   		movq	%rax, %rbx
 288:TestChecks.cpp ****     CHECK_EQUAL("file", reporter.lastFailedFile);
 6765              		.loc 5 288 0 is_stmt 1
 6766 334e E8000000 		call	__cxa_end_catch
 6766      00
 6767 3353 E90A0100 		jmp	.L292
 6767      00
 6768              	.L308:
 6769 3358 4889C7   		movq	%rax, %rdi
 6770 335b E8000000 		call	__cxa_begin_catch
 6770      00
 6771              	.LEHB175:
 6772 3360 E8000000 		call	_ZN8UnitTest11CurrentTest7DetailsEv
 6772      00
 6773 3365 488B08   		movq	(%rax), %rcx
 6774 3368 488D8530 		leaq	-2256(%rbp), %rax
 6774      F7FFFF
 6775 336f BA200100 		movl	$288, %edx
 6775      00
 6776 3374 4889CE   		movq	%rcx, %rsi
 6777 3377 4889C7   		movq	%rax, %rdi
 6778 337a E8000000 		call	_ZN8UnitTest11TestDetailsC1ERKS0_i
 6778      00
 288:TestChecks.cpp ****     CHECK_EQUAL("file", reporter.lastFailedFile);
 6779              		.loc 5 288 0 is_stmt 0 discriminator 1
 6780 337f E8000000 		call	_ZN8UnitTest11CurrentTest7ResultsEv
 6780      00
 6781 3384 488B00   		movq	(%rax), %rax
 6782 3387 488D8D30 		leaq	-2256(%rbp), %rcx
 6782      F7FFFF
 6783 338e BA000000 		movl	$.LC94, %edx
 6783      00
 6784 3393 4889CE   		movq	%rcx, %rsi
 6785 3396 4889C7   		movq	%rax, %rdi
 6786 3399 E8000000 		call	_ZN8UnitTest11TestResults13OnTestFailureERKNS_11TestDetailsEPKc
 6786      00
 6787              	.LEHE175:
 6788              	.LEHB176:
 6789 339e E8000000 		call	__cxa_end_catch
 6789      00
 6790              	.LEHE176:
 288:TestChecks.cpp ****     CHECK_EQUAL("file", reporter.lastFailedFile);
 6791              		.loc 5 288 0
 6792 33a3 E975FEFF 		jmp	.L297
 6792      FF
 6793              	.L311:
 6794 33a8 4889C3   		movq	%rax, %rbx
 289:TestChecks.cpp ****     CHECK_EQUAL(1234, reporter.lastFailedLine);
 6795              		.loc 5 289 0 is_stmt 1
 6796 33ab E8000000 		call	__cxa_end_catch
 6796      00
 6797 33b0 E9AD0000 		jmp	.L292
 6797      00
 6798              	.L310:
 6799 33b5 4889C7   		movq	%rax, %rdi
 6800 33b8 E8000000 		call	__cxa_begin_catch
 6800      00
 6801              	.LEHB177:
 6802 33bd E8000000 		call	_ZN8UnitTest11CurrentTest7DetailsEv
 6802      00
 6803 33c2 488B08   		movq	(%rax), %rcx
 6804 33c5 488D8530 		leaq	-2256(%rbp), %rax
 6804      F7FFFF
 6805 33cc BA210100 		movl	$289, %edx
 6805      00
 6806 33d1 4889CE   		movq	%rcx, %rsi
 6807 33d4 4889C7   		movq	%rax, %rdi
 6808 33d7 E8000000 		call	_ZN8UnitTest11TestDetailsC1ERKS0_i
 6808      00
 289:TestChecks.cpp ****     CHECK_EQUAL(1234, reporter.lastFailedLine);
 6809              		.loc 5 289 0 is_stmt 0 discriminator 1
 6810 33dc E8000000 		call	_ZN8UnitTest11CurrentTest7ResultsEv
 6810      00
 6811 33e1 488B00   		movq	(%rax), %rax
 6812 33e4 488D8D30 		leaq	-2256(%rbp), %rcx
 6812      F7FFFF
 6813 33eb BA000000 		movl	$.LC75, %edx
 6813      00
 6814 33f0 4889CE   		movq	%rcx, %rsi
 6815 33f3 4889C7   		movq	%rax, %rdi
 6816 33f6 E8000000 		call	_ZN8UnitTest11TestResults13OnTestFailureERKNS_11TestDetailsEPKc
 6816      00
 6817              	.LEHE177:
 6818              	.LEHB178:
 6819 33fb E8000000 		call	__cxa_end_catch
 6819      00
 6820              	.LEHE178:
 289:TestChecks.cpp ****     CHECK_EQUAL(1234, reporter.lastFailedLine);
 6821              		.loc 5 289 0
 6822 3400 E967FEFF 		jmp	.L300
 6822      FF
 6823              	.L313:
 6824 3405 4889C3   		movq	%rax, %rbx
 290:TestChecks.cpp **** }
 6825              		.loc 5 290 0 is_stmt 1
 6826 3408 E8000000 		call	__cxa_end_catch
 6826      00
 6827 340d EB53     		jmp	.L292
 6828              	.L312:
 6829 340f 4889C7   		movq	%rax, %rdi
 6830 3412 E8000000 		call	__cxa_begin_catch
 6830      00
 6831              	.LEHB179:
 6832 3417 E8000000 		call	_ZN8UnitTest11CurrentTest7DetailsEv
 6832      00
 6833 341c 488B08   		movq	(%rax), %rcx
 6834 341f 488D8530 		leaq	-2256(%rbp), %rax
 6834      F7FFFF
 6835 3426 BA220100 		movl	$290, %edx
 6835      00
 6836 342b 4889CE   		movq	%rcx, %rsi
 6837 342e 4889C7   		movq	%rax, %rdi
 6838 3431 E8000000 		call	_ZN8UnitTest11TestDetailsC1ERKS0_i
 6838      00
 290:TestChecks.cpp **** }
 6839              		.loc 5 290 0 is_stmt 0 discriminator 1
 6840 3436 E8000000 		call	_ZN8UnitTest11CurrentTest7ResultsEv
 6840      00
 6841 343b 488B00   		movq	(%rax), %rax
 6842 343e 488D8D30 		leaq	-2256(%rbp), %rcx
 6842      F7FFFF
 6843 3445 BA000000 		movl	$.LC95, %edx
 6843      00
 6844 344a 4889CE   		movq	%rcx, %rsi
 6845 344d 4889C7   		movq	%rax, %rdi
 6846 3450 E8000000 		call	_ZN8UnitTest11TestResults13OnTestFailureERKNS_11TestDetailsEPKc
 6846      00
 6847              	.LEHE179:
 6848              	.LEHB180:
 6849 3455 E8000000 		call	__cxa_end_catch
 6849      00
 6850              	.LEHE180:
 290:TestChecks.cpp **** }
 6851              		.loc 5 290 0
 6852 345a E968FEFF 		jmp	.L303
 6852      FF
 6853              	.L305:
 6854 345f 4889C3   		movq	%rax, %rbx
 6855              	.L292:
 6856 3462 488D85B0 		leaq	-2128(%rbp), %rax
 6856      F7FFFF
 6857 3469 4889C7   		movq	%rax, %rdi
 6858 346c E8000000 		call	_ZN17RecordingReporterD1Ev
 6858      00
 6859 3471 4889D8   		movq	%rbx, %rax
 6860 3474 4889C7   		movq	%rax, %rdi
 6861              	.LEHB181:
 6862 3477 E8000000 		call	_Unwind_Resume
 6862      00
 6863              	.LEHE181:
 6864              	.L314:
 6865              	.LBE84:
 6866              		.loc 5 291 0 is_stmt 1
 6867 347c E8000000 		call	__stack_chk_fail
 6867      00
 6868              	.L304:
 6869 3481 4881C428 		addq	$2344, %rsp
 6869      090000
 6870 3488 5B       		popq	%rbx
 6871 3489 5D       		popq	%rbp
 6872              		.cfi_def_cfa 7, 8
 6873 348a C3       		ret
 6874              		.cfi_endproc
 6875              	.LFE1132:
 6876              		.section	.gcc_except_table
 6877              		.align 4
 6878              	.LLSDA1132:
 6879 0494 FF       		.byte	0xff
 6880 0495 03       		.byte	0x3
 6881 0496 61       		.uleb128 .LLSDATT1132-.LLSDATTD1132
 6882              	.LLSDATTD1132:
 6883 0497 01       		.byte	0x1
 6884 0498 58       		.uleb128 .LLSDACSE1132-.LLSDACSB1132
 6885              	.LLSDACSB1132:
 6886 0499 45       		.uleb128 .LEHB167-.LFB1132
 6887 049a CA02     		.uleb128 .LEHE167-.LEHB167
 6888 049c EF08     		.uleb128 .L305-.LFB1132
 6889 049e 00       		.uleb128 0
 6890 049f 8F03     		.uleb128 .LEHB168-.LFB1132
 6891 04a1 4F       		.uleb128 .LEHE168-.LEHB168
 6892 04a2 8B06     		.uleb128 .L306-.LFB1132
 6893 04a4 01       		.uleb128 0x1
 6894 04a5 DE03     		.uleb128 .LEHB169-.LFB1132
 6895 04a7 4F       		.uleb128 .LEHE169-.LEHB169
 6896 04a8 E806     		.uleb128 .L308-.LFB1132
 6897 04aa 01       		.uleb128 0x1
 6898 04ab AD04     		.uleb128 .LEHB170-.LFB1132
 6899 04ad 4F       		.uleb128 .LEHE170-.LEHB170
 6900 04ae C507     		.uleb128 .L310-.LFB1132
 6901 04b0 01       		.uleb128 0x1
 6902 04b1 FC04     		.uleb128 .LEHB171-.LFB1132
 6903 04b3 5B       		.uleb128 .LEHE171-.LEHB171
 6904 04b4 9F08     		.uleb128 .L312-.LFB1132
 6905 04b6 01       		.uleb128 0x1
 6906 04b7 E105     		.uleb128 .LEHB172-.LFB1132
 6907 04b9 05       		.uleb128 .LEHE172-.LEHB172
 6908 04ba 00       		.uleb128 0
 6909 04bb 00       		.uleb128 0
 6910 04bc 9306     		.uleb128 .LEHB173-.LFB1132
 6911 04be 3E       		.uleb128 .LEHE173-.LEHB173
 6912 04bf FE05     		.uleb128 .L307-.LFB1132
 6913 04c1 00       		.uleb128 0
 6914 04c2 D106     		.uleb128 .LEHB174-.LFB1132
 6915 04c4 05       		.uleb128 .LEHE174-.LEHB174
 6916 04c5 EF08     		.uleb128 .L305-.LFB1132
 6917 04c7 00       		.uleb128 0
 6918 04c8 F006     		.uleb128 .LEHB175-.LFB1132
 6919 04ca 3E       		.uleb128 .LEHE175-.LEHB175
 6920 04cb DB06     		.uleb128 .L309-.LFB1132
 6921 04cd 00       		.uleb128 0
 6922 04ce AE07     		.uleb128 .LEHB176-.LFB1132
 6923 04d0 05       		.uleb128 .LEHE176-.LEHB176
 6924 04d1 EF08     		.uleb128 .L305-.LFB1132
 6925 04d3 00       		.uleb128 0
 6926 04d4 CD07     		.uleb128 .LEHB177-.LFB1132
 6927 04d6 3E       		.uleb128 .LEHE177-.LEHB177
 6928 04d7 B807     		.uleb128 .L311-.LFB1132
 6929 04d9 00       		.uleb128 0
 6930 04da 8B08     		.uleb128 .LEHB178-.LFB1132
 6931 04dc 05       		.uleb128 .LEHE178-.LEHB178
 6932 04dd EF08     		.uleb128 .L305-.LFB1132
 6933 04df 00       		.uleb128 0
 6934 04e0 A708     		.uleb128 .LEHB179-.LFB1132
 6935 04e2 3E       		.uleb128 .LEHE179-.LEHB179
 6936 04e3 9508     		.uleb128 .L313-.LFB1132
 6937 04e5 00       		.uleb128 0
 6938 04e6 E508     		.uleb128 .LEHB180-.LFB1132
 6939 04e8 05       		.uleb128 .LEHE180-.LEHB180
 6940 04e9 EF08     		.uleb128 .L305-.LFB1132
 6941 04eb 00       		.uleb128 0
 6942 04ec 8709     		.uleb128 .LEHB181-.LFB1132
 6943 04ee 05       		.uleb128 .LEHE181-.LEHB181
 6944 04ef 00       		.uleb128 0
 6945 04f0 00       		.uleb128 0
 6946              	.LLSDACSE1132:
 6947 04f1 01       		.byte	0x1
 6948 04f2 00       		.byte	0
 6949 04f3 00       		.align 4
 6950 04f4 00000000 		.long	0
 6951              	
 6952              	.LLSDATT1132:
 6953              		.text
 6955              		.section	.text._ZN8UnitTest15MemoryOutStreamD1Ev,"axG",@progbits,_ZN8UnitTest15MemoryOutStreamD1Ev
 6956              		.align 2
 6957              		.weak	_ZN8UnitTest15MemoryOutStreamD1Ev
 6959              	_ZN8UnitTest15MemoryOutStreamD1Ev:
 6960              	.LFB1163:
  13:../MemoryOutStream.h **** {
 6961              		.loc 2 13 0
 6962              		.cfi_startproc
 6963              		.cfi_personality 0x3,__gxx_personality_v0
 6964              		.cfi_lsda 0x3,.LLSDA1163
 6965 0000 55       		pushq	%rbp
 6966              		.cfi_def_cfa_offset 16
 6967              		.cfi_offset 6, -16
 6968 0001 4889E5   		movq	%rsp, %rbp
 6969              		.cfi_def_cfa_register 6
 6970 0004 53       		pushq	%rbx
 6971 0005 4883EC18 		subq	$24, %rsp
 6972              		.cfi_offset 3, -24
 6973 0009 48897DE8 		movq	%rdi, -24(%rbp)
 6974              	.LBB85:
  13:../MemoryOutStream.h **** {
 6975              		.loc 2 13 0
 6976 000d BA000000 		movl	$_ZTVN8UnitTest15MemoryOutStreamE+24, %edx
 6976      00
 6977 0012 488B45E8 		movq	-24(%rbp), %rax
 6978 0016 488910   		movq	%rdx, (%rax)
 6979 0019 BA600000 		movl	$96, %edx
 6979      00
 6980 001e 488B45E8 		movq	-24(%rbp), %rax
 6981 0022 4801C2   		addq	%rax, %rdx
 6982 0025 B8000000 		movl	$_ZTVN8UnitTest15MemoryOutStreamE+64, %eax
 6982      00
 6983 002a 488902   		movq	%rax, (%rdx)
 6984 002d 488B45E8 		movq	-24(%rbp), %rax
 6985 0031 4883C058 		addq	$88, %rax
 6986 0035 4889C7   		movq	%rax, %rdi
 6987              	.LEHB182:
 6988 0038 E8000000 		call	_ZNSsD1Ev
 6988      00
 6989              	.LEHE182:
  13:../MemoryOutStream.h **** {
 6990              		.loc 2 13 0 is_stmt 0 discriminator 10
 6991 003d BA000000 		movl	$_ZTTN8UnitTest15MemoryOutStreamE+8, %edx
 6991      00
 6992 0042 488B45E8 		movq	-24(%rbp), %rax
 6993 0046 4889D6   		movq	%rdx, %rsi
 6994 0049 4889C7   		movq	%rax, %rdi
 6995              	.LEHB183:
 6996 004c E8000000 		call	_ZNSt19basic_ostringstreamIcSt11char_traitsIcESaIcEED2Ev
 6996      00
 6997              	.LEHE183:
  13:../MemoryOutStream.h **** {
 6998              		.loc 2 13 0 discriminator 14
 6999 0051 B8020000 		movl	$2, %eax
 6999      00
 7000 0056 85C0     		testl	%eax, %eax
 7001 0058 7410     		je	.L316
  13:../MemoryOutStream.h **** {
 7002              		.loc 2 13 0 discriminator 15
 7003 005a 488B45E8 		movq	-24(%rbp), %rax
 7004 005e 4883C060 		addq	$96, %rax
 7005 0062 4889C7   		movq	%rax, %rdi
 7006              	.LEHB184:
 7007 0065 E8000000 		call	_ZNSt9basic_iosIcSt11char_traitsIcEED2Ev
 7007      00
 7008              	.LEHE184:
 7009              	.L316:
 7010              	.LBE85:
  13:../MemoryOutStream.h **** {
 7011              		.loc 2 13 0 discriminator 16
 7012 006a B8000000 		movl	$0, %eax
 7012      00
 7013 006f 85C0     		testl	%eax, %eax
 7014 0071 744E     		je	.L323
  13:../MemoryOutStream.h **** {
 7015              		.loc 2 13 0 discriminator 1
 7016 0073 488B45E8 		movq	-24(%rbp), %rax
 7017 0077 4889C7   		movq	%rax, %rdi
 7018 007a E8000000 		call	_ZdlPv
 7018      00
 7019 007f EB40     		jmp	.L323
 7020              	.L321:
 7021 0081 4889C3   		movq	%rax, %rbx
 7022              	.LBB86:
  13:../MemoryOutStream.h **** {
 7023              		.loc 2 13 0
 7024 0084 BA000000 		movl	$_ZTTN8UnitTest15MemoryOutStreamE+8, %edx
 7024      00
 7025 0089 488B45E8 		movq	-24(%rbp), %rax
 7026 008d 4889D6   		movq	%rdx, %rsi
 7027 0090 4889C7   		movq	%rax, %rdi
 7028 0093 E8000000 		call	_ZNSt19basic_ostringstreamIcSt11char_traitsIcESaIcEED2Ev
 7028      00
 7029 0098 EB03     		jmp	.L319
 7030              	.L322:
 7031 009a 4889C3   		movq	%rax, %rbx
 7032              	.L319:
 7033 009d B8020000 		movl	$2, %eax
 7033      00
 7034 00a2 85C0     		testl	%eax, %eax
 7035 00a4 7410     		je	.L320
  13:../MemoryOutStream.h **** {
 7036              		.loc 2 13 0 discriminator 20
 7037 00a6 488B45E8 		movq	-24(%rbp), %rax
 7038 00aa 4883C060 		addq	$96, %rax
 7039 00ae 4889C7   		movq	%rax, %rdi
 7040 00b1 E8000000 		call	_ZNSt9basic_iosIcSt11char_traitsIcEED2Ev
 7040      00
 7041              	.L320:
 7042 00b6 4889D8   		movq	%rbx, %rax
 7043 00b9 4889C7   		movq	%rax, %rdi
 7044              	.LEHB185:
 7045 00bc E8000000 		call	_Unwind_Resume
 7045      00
 7046              	.LEHE185:
 7047              	.L323:
 7048              	.LBE86:
  13:../MemoryOutStream.h **** {
 7049              		.loc 2 13 0
 7050 00c1 4883C418 		addq	$24, %rsp
 7051 00c5 5B       		popq	%rbx
 7052 00c6 5D       		popq	%rbp
 7053              		.cfi_def_cfa 7, 8
 7054 00c7 C3       		ret
 7055              		.cfi_endproc
 7056              	.LFE1163:
 7057              		.section	.gcc_except_table
 7058              	.LLSDA1163:
 7059 04f8 FF       		.byte	0xff
 7060 04f9 FF       		.byte	0xff
 7061 04fa 01       		.byte	0x1
 7062 04fb 13       		.uleb128 .LLSDACSE1163-.LLSDACSB1163
 7063              	.LLSDACSB1163:
 7064 04fc 38       		.uleb128 .LEHB182-.LFB1163
 7065 04fd 05       		.uleb128 .LEHE182-.LEHB182
 7066 04fe 8101     		.uleb128 .L321-.LFB1163
 7067 0500 00       		.uleb128 0
 7068 0501 4C       		.uleb128 .LEHB183-.LFB1163
 7069 0502 05       		.uleb128 .LEHE183-.LEHB183
 7070 0503 9A01     		.uleb128 .L322-.LFB1163
 7071 0505 00       		.uleb128 0
 7072 0506 65       		.uleb128 .LEHB184-.LFB1163
 7073 0507 05       		.uleb128 .LEHE184-.LEHB184
 7074 0508 00       		.uleb128 0
 7075 0509 00       		.uleb128 0
 7076 050a BC01     		.uleb128 .LEHB185-.LFB1163
 7077 050c 05       		.uleb128 .LEHE185-.LEHB185
 7078 050d 00       		.uleb128 0
 7079 050e 00       		.uleb128 0
 7080              	.LLSDACSE1163:
 7081              		.section	.text._ZN8UnitTest15MemoryOutStreamD1Ev,"axG",@progbits,_ZN8UnitTest15MemoryOutStreamD1Ev
 7083              		.set	.LTHUNK0,_ZN8UnitTest15MemoryOutStreamD1Ev
 7084              		.weak	_ZTv0_n24_N8UnitTest15MemoryOutStreamD1Ev
 7086              	_ZTv0_n24_N8UnitTest15MemoryOutStreamD1Ev:
 7087              	.LFB1340:
  13:../MemoryOutStream.h **** {
 7088              		.loc 2 13 0 is_stmt 1
 7089              		.cfi_startproc
 7090 00c8 4C8B17   		movq	(%rdi), %r10
 7091 00cb 49037AE8 		addq	-24(%r10), %rdi
 7092 00cf E92CFFFF 		jmp	.LTHUNK0
 7092      FF
 7093              		.cfi_endproc
 7094              	.LFE1340:
 7096              		.section	.text._ZN8UnitTest15MemoryOutStreamD0Ev,"axG",@progbits,_ZN8UnitTest15MemoryOutStreamD0Ev
 7097              		.align 2
 7098              		.weak	_ZN8UnitTest15MemoryOutStreamD0Ev
 7100              	_ZN8UnitTest15MemoryOutStreamD0Ev:
 7101              	.LFB1164:
  13:../MemoryOutStream.h **** {
 7102              		.loc 2 13 0
 7103              		.cfi_startproc
 7104 0000 55       		pushq	%rbp
 7105              		.cfi_def_cfa_offset 16
 7106              		.cfi_offset 6, -16
 7107 0001 4889E5   		movq	%rsp, %rbp
 7108              		.cfi_def_cfa_register 6
 7109 0004 4883EC10 		subq	$16, %rsp
 7110 0008 48897DF8 		movq	%rdi, -8(%rbp)
  13:../MemoryOutStream.h **** {
 7111              		.loc 2 13 0
 7112 000c 488B45F8 		movq	-8(%rbp), %rax
 7113 0010 4889C7   		movq	%rax, %rdi
 7114 0013 E8000000 		call	_ZN8UnitTest15MemoryOutStreamD1Ev
 7114      00
 7115 0018 488B45F8 		movq	-8(%rbp), %rax
 7116 001c 4889C7   		movq	%rax, %rdi
 7117 001f E8000000 		call	_ZdlPv
 7117      00
 7118 0024 C9       		leave
 7119              		.cfi_def_cfa 7, 8
 7120 0025 C3       		ret
 7121              		.cfi_endproc
 7122              	.LFE1164:
 7124              		.set	.LTHUNK1,_ZN8UnitTest15MemoryOutStreamD0Ev
 7125              		.weak	_ZTv0_n24_N8UnitTest15MemoryOutStreamD0Ev
 7127              	_ZTv0_n24_N8UnitTest15MemoryOutStreamD0Ev:
 7128              	.LFB1341:
  13:../MemoryOutStream.h **** {
 7129              		.loc 2 13 0
 7130              		.cfi_startproc
 7131 0026 4C8B17   		movq	(%rdi), %r10
 7132 0029 49037AE8 		addq	-24(%r10), %rdi
 7133 002d EBD1     		jmp	.LTHUNK1
 7134              		.cfi_endproc
 7135              	.LFE1341:
 7137              		.section	.rodata
 7138              	.LC96:
 7139 0baa 45787065 		.string	"Expected "
 7139      63746564 
 7139      2000
 7140              	.LC97:
 7141 0bb4 20627574 		.string	" but was "
 7141      20776173 
 7141      2000
 7142              		.section	.text._ZN8UnitTest10CheckEqualImmEEvRNS_11TestResultsERKT_RKT0_RKNS_11TestDetailsE,"axG",
 7143              		.weak	_ZN8UnitTest10CheckEqualImmEEvRNS_11TestResultsERKT_RKT0_RKNS_11TestDetailsE
 7145              	_ZN8UnitTest10CheckEqualImmEEvRNS_11TestResultsERKT_RKT0_RKNS_11TestDetailsE:
 7146              	.LFB1160:
 7147              		.file 6 "../Checks.h"
   1:../Checks.h   **** #ifndef UNITTEST_CHECKS_H
   2:../Checks.h   **** #define UNITTEST_CHECKS_H
   3:../Checks.h   **** 
   4:../Checks.h   **** #include "Config.h"
   5:../Checks.h   **** #include "TestResults.h"
   6:../Checks.h   **** #include "MemoryOutStream.h"
   7:../Checks.h   **** 
   8:../Checks.h   **** namespace UnitTest {
   9:../Checks.h   **** 
  10:../Checks.h   **** 
  11:../Checks.h   **** template< typename Value >
  12:../Checks.h   **** bool Check(Value const value)
  13:../Checks.h   **** {
  14:../Checks.h   ****     return !!value; // doing double negative to avoid silly VS warnings
  15:../Checks.h   **** }
  16:../Checks.h   **** 
  17:../Checks.h   **** 
  18:../Checks.h   **** template< typename Expected, typename Actual >
  19:../Checks.h   **** void CheckEqual(TestResults& results, Expected const& expected, Actual const& actual, TestDetails c
 7148              		.loc 6 19 0
 7149              		.cfi_startproc
 7150              		.cfi_personality 0x3,__gxx_personality_v0
 7151              		.cfi_lsda 0x3,.LLSDA1160
 7152 0000 55       		pushq	%rbp
 7153              		.cfi_def_cfa_offset 16
 7154              		.cfi_offset 6, -16
 7155 0001 4889E5   		movq	%rsp, %rbp
 7156              		.cfi_def_cfa_register 6
 7157 0004 4154     		pushq	%r12
 7158 0006 53       		pushq	%rbx
 7159 0007 4881EC90 		subq	$400, %rsp
 7159      010000
 7160              		.cfi_offset 12, -24
 7161              		.cfi_offset 3, -32
 7162 000e 4889BD78 		movq	%rdi, -392(%rbp)
 7162      FEFFFF
 7163 0015 4889B570 		movq	%rsi, -400(%rbp)
 7163      FEFFFF
 7164 001c 48899568 		movq	%rdx, -408(%rbp)
 7164      FEFFFF
 7165 0023 48898D60 		movq	%rcx, -416(%rbp)
 7165      FEFFFF
 7166              	.LBB87:
 7167              	.LBB88:
  20:../Checks.h   **** {
  21:../Checks.h   ****     if (!(expected == actual))
 7168              		.loc 6 21 0
 7169 002a 488B8570 		movq	-400(%rbp), %rax
 7169      FEFFFF
 7170 0031 488B10   		movq	(%rax), %rdx
 7171 0034 488B8568 		movq	-408(%rbp), %rax
 7171      FEFFFF
 7172 003b 488B00   		movq	(%rax), %rax
 7173 003e 4839C2   		cmpq	%rax, %rdx
 7174 0041 0F84B300 		je	.L330
 7174      0000
 7175              	.LBB89:
  22:../Checks.h   ****     {
  23:../Checks.h   ****         UnitTest::MemoryOutStream stream;
 7176              		.loc 6 23 0
 7177 0047 488D8580 		leaq	-384(%rbp), %rax
 7177      FEFFFF
 7178 004e 4889C7   		movq	%rax, %rdi
 7179              	.LEHB186:
 7180 0051 E8000000 		call	_ZN8UnitTest15MemoryOutStreamC1Ev
 7180      00
 7181              	.LEHE186:
  24:../Checks.h   ****         stream << "Expected " << expected << " but was " << actual;
 7182              		.loc 6 24 0
 7183 0056 488B8568 		movq	-408(%rbp), %rax
 7183      FEFFFF
 7184 005d 488B18   		movq	(%rax), %rbx
 7185 0060 488B8570 		movq	-400(%rbp), %rax
 7185      FEFFFF
 7186 0067 4C8B20   		movq	(%rax), %r12
 7187 006a 488D8580 		leaq	-384(%rbp), %rax
 7187      FEFFFF
 7188 0071 BE000000 		movl	$.LC96, %esi
 7188      00
 7189 0076 4889C7   		movq	%rax, %rdi
 7190              	.LEHB187:
 7191 0079 E8000000 		call	_ZStlsISt11char_traitsIcEERSt13basic_ostreamIcT_ES5_PKc
 7191      00
 7192 007e 4C89E6   		movq	%r12, %rsi
 7193 0081 4889C7   		movq	%rax, %rdi
 7194 0084 E8000000 		call	_ZNSolsEm
 7194      00
 7195              		.loc 6 24 0 is_stmt 0 discriminator 1
 7196 0089 BE000000 		movl	$.LC97, %esi
 7196      00
 7197 008e 4889C7   		movq	%rax, %rdi
 7198 0091 E8000000 		call	_ZStlsISt11char_traitsIcEERSt13basic_ostreamIcT_ES5_PKc
 7198      00
 7199 0096 4889DE   		movq	%rbx, %rsi
 7200 0099 4889C7   		movq	%rax, %rdi
 7201 009c E8000000 		call	_ZNSolsEm
 7201      00
  25:../Checks.h   **** 
  26:../Checks.h   ****         results.OnTestFailure(details, stream.GetText());
 7202              		.loc 6 26 0 is_stmt 1
 7203 00a1 488D8580 		leaq	-384(%rbp), %rax
 7203      FEFFFF
 7204 00a8 4889C7   		movq	%rax, %rdi
 7205 00ab E8000000 		call	_ZNK8UnitTest15MemoryOutStream7GetTextEv
 7205      00
 7206 00b0 4889C2   		movq	%rax, %rdx
 7207 00b3 488B8D60 		movq	-416(%rbp), %rcx
 7207      FEFFFF
 7208 00ba 488B8578 		movq	-392(%rbp), %rax
 7208      FEFFFF
 7209 00c1 4889CE   		movq	%rcx, %rsi
 7210 00c4 4889C7   		movq	%rax, %rdi
 7211 00c7 E8000000 		call	_ZN8UnitTest11TestResults13OnTestFailureERKNS_11TestDetailsEPKc
 7211      00
 7212              	.LEHE187:
 7213              		.loc 6 26 0 is_stmt 0 discriminator 1
 7214 00cc 488D8580 		leaq	-384(%rbp), %rax
 7214      FEFFFF
 7215 00d3 4889C7   		movq	%rax, %rdi
 7216              	.LEHB188:
 7217 00d6 E8000000 		call	_ZN8UnitTest15MemoryOutStreamD1Ev
 7217      00
 7218              	.LEHE188:
 7219              	.LBE89:
 7220 00db EB1D     		jmp	.L330
 7221              	.L329:
 7222 00dd 4889C3   		movq	%rax, %rbx
 7223              	.LBB90:
 7224              		.loc 6 26 0
 7225 00e0 488D8580 		leaq	-384(%rbp), %rax
 7225      FEFFFF
 7226 00e7 4889C7   		movq	%rax, %rdi
 7227 00ea E8000000 		call	_ZN8UnitTest15MemoryOutStreamD1Ev
 7227      00
 7228 00ef 4889D8   		movq	%rbx, %rax
 7229 00f2 4889C7   		movq	%rax, %rdi
 7230              	.LEHB189:
 7231 00f5 E8000000 		call	_Unwind_Resume
 7231      00
 7232              	.LEHE189:
 7233              	.L330:
 7234              	.LBE90:
 7235              	.LBE88:
 7236              	.LBE87:
  27:../Checks.h   ****     }
  28:../Checks.h   **** }
 7237              		.loc 6 28 0 is_stmt 1
 7238 00fa 4881C490 		addq	$400, %rsp
 7238      010000
 7239 0101 5B       		popq	%rbx
 7240 0102 415C     		popq	%r12
 7241 0104 5D       		popq	%rbp
 7242              		.cfi_def_cfa 7, 8
 7243 0105 C3       		ret
 7244              		.cfi_endproc
 7245              	.LFE1160:
 7246              		.section	.gcc_except_table
 7247              	.LLSDA1160:
 7248 050f FF       		.byte	0xff
 7249 0510 FF       		.byte	0xff
 7250 0511 01       		.byte	0x1
 7251 0512 13       		.uleb128 .LLSDACSE1160-.LLSDACSB1160
 7252              	.LLSDACSB1160:
 7253 0513 51       		.uleb128 .LEHB186-.LFB1160
 7254 0514 05       		.uleb128 .LEHE186-.LEHB186
 7255 0515 00       		.uleb128 0
 7256 0516 00       		.uleb128 0
 7257 0517 79       		.uleb128 .LEHB187-.LFB1160
 7258 0518 53       		.uleb128 .LEHE187-.LEHB187
 7259 0519 DD01     		.uleb128 .L329-.LFB1160
 7260 051b 00       		.uleb128 0
 7261 051c D601     		.uleb128 .LEHB188-.LFB1160
 7262 051e 05       		.uleb128 .LEHE188-.LEHB188
 7263 051f 00       		.uleb128 0
 7264 0520 00       		.uleb128 0
 7265 0521 F501     		.uleb128 .LEHB189-.LFB1160
 7266 0523 05       		.uleb128 .LEHE189-.LEHB189
 7267 0524 00       		.uleb128 0
 7268 0525 00       		.uleb128 0
 7269              	.LLSDACSE1160:
 7270              		.section	.text._ZN8UnitTest10CheckEqualImmEEvRNS_11TestResultsERKT_RKT0_RKNS_11TestDetailsE,"axG",
 7272              		.section	.text._ZN8UnitTest10CheckEqualIiiEEvRNS_11TestResultsERKT_RKT0_RKNS_11TestDetailsE,"axG",
 7273              		.weak	_ZN8UnitTest10CheckEqualIiiEEvRNS_11TestResultsERKT_RKT0_RKNS_11TestDetailsE
 7275              	_ZN8UnitTest10CheckEqualIiiEEvRNS_11TestResultsERKT_RKT0_RKNS_11TestDetailsE:
 7276              	.LFB1165:
  19:../Checks.h   **** {
 7277              		.loc 6 19 0
 7278              		.cfi_startproc
 7279              		.cfi_personality 0x3,__gxx_personality_v0
 7280              		.cfi_lsda 0x3,.LLSDA1165
 7281 0000 55       		pushq	%rbp
 7282              		.cfi_def_cfa_offset 16
 7283              		.cfi_offset 6, -16
 7284 0001 4889E5   		movq	%rsp, %rbp
 7285              		.cfi_def_cfa_register 6
 7286 0004 4154     		pushq	%r12
 7287 0006 53       		pushq	%rbx
 7288 0007 4881EC90 		subq	$400, %rsp
 7288      010000
 7289              		.cfi_offset 12, -24
 7290              		.cfi_offset 3, -32
 7291 000e 4889BD78 		movq	%rdi, -392(%rbp)
 7291      FEFFFF
 7292 0015 4889B570 		movq	%rsi, -400(%rbp)
 7292      FEFFFF
 7293 001c 48899568 		movq	%rdx, -408(%rbp)
 7293      FEFFFF
 7294 0023 48898D60 		movq	%rcx, -416(%rbp)
 7294      FEFFFF
 7295              	.LBB91:
 7296              	.LBB92:
  21:../Checks.h   ****     {
 7297              		.loc 6 21 0
 7298 002a 488B8570 		movq	-400(%rbp), %rax
 7298      FEFFFF
 7299 0031 8B10     		movl	(%rax), %edx
 7300 0033 488B8568 		movq	-408(%rbp), %rax
 7300      FEFFFF
 7301 003a 8B00     		movl	(%rax), %eax
 7302 003c 39C2     		cmpl	%eax, %edx
 7303 003e 0F84B100 		je	.L335
 7303      0000
 7304              	.LBB93:
  23:../Checks.h   ****         stream << "Expected " << expected << " but was " << actual;
 7305              		.loc 6 23 0
 7306 0044 488D8580 		leaq	-384(%rbp), %rax
 7306      FEFFFF
 7307 004b 4889C7   		movq	%rax, %rdi
 7308              	.LEHB190:
 7309 004e E8000000 		call	_ZN8UnitTest15MemoryOutStreamC1Ev
 7309      00
 7310              	.LEHE190:
  24:../Checks.h   **** 
 7311              		.loc 6 24 0
 7312 0053 488B8568 		movq	-408(%rbp), %rax
 7312      FEFFFF
 7313 005a 8B18     		movl	(%rax), %ebx
 7314 005c 488B8570 		movq	-400(%rbp), %rax
 7314      FEFFFF
 7315 0063 448B20   		movl	(%rax), %r12d
 7316 0066 488D8580 		leaq	-384(%rbp), %rax
 7316      FEFFFF
 7317 006d BE000000 		movl	$.LC96, %esi
 7317      00
 7318 0072 4889C7   		movq	%rax, %rdi
 7319              	.LEHB191:
 7320 0075 E8000000 		call	_ZStlsISt11char_traitsIcEERSt13basic_ostreamIcT_ES5_PKc
 7320      00
 7321 007a 4489E6   		movl	%r12d, %esi
 7322 007d 4889C7   		movq	%rax, %rdi
 7323 0080 E8000000 		call	_ZNSolsEi
 7323      00
  24:../Checks.h   **** 
 7324              		.loc 6 24 0 is_stmt 0 discriminator 1
 7325 0085 BE000000 		movl	$.LC97, %esi
 7325      00
 7326 008a 4889C7   		movq	%rax, %rdi
 7327 008d E8000000 		call	_ZStlsISt11char_traitsIcEERSt13basic_ostreamIcT_ES5_PKc
 7327      00
 7328 0092 89DE     		movl	%ebx, %esi
 7329 0094 4889C7   		movq	%rax, %rdi
 7330 0097 E8000000 		call	_ZNSolsEi
 7330      00
  26:../Checks.h   ****     }
 7331              		.loc 6 26 0 is_stmt 1
 7332 009c 488D8580 		leaq	-384(%rbp), %rax
 7332      FEFFFF
 7333 00a3 4889C7   		movq	%rax, %rdi
 7334 00a6 E8000000 		call	_ZNK8UnitTest15MemoryOutStream7GetTextEv
 7334      00
 7335 00ab 4889C2   		movq	%rax, %rdx
 7336 00ae 488B8D60 		movq	-416(%rbp), %rcx
 7336      FEFFFF
 7337 00b5 488B8578 		movq	-392(%rbp), %rax
 7337      FEFFFF
 7338 00bc 4889CE   		movq	%rcx, %rsi
 7339 00bf 4889C7   		movq	%rax, %rdi
 7340 00c2 E8000000 		call	_ZN8UnitTest11TestResults13OnTestFailureERKNS_11TestDetailsEPKc
 7340      00
 7341              	.LEHE191:
  26:../Checks.h   ****     }
 7342              		.loc 6 26 0 is_stmt 0 discriminator 1
 7343 00c7 488D8580 		leaq	-384(%rbp), %rax
 7343      FEFFFF
 7344 00ce 4889C7   		movq	%rax, %rdi
 7345              	.LEHB192:
 7346 00d1 E8000000 		call	_ZN8UnitTest15MemoryOutStreamD1Ev
 7346      00
 7347              	.LEHE192:
 7348              	.LBE93:
 7349 00d6 EB1D     		jmp	.L335
 7350              	.L334:
 7351 00d8 4889C3   		movq	%rax, %rbx
 7352              	.LBB94:
  26:../Checks.h   ****     }
 7353              		.loc 6 26 0
 7354 00db 488D8580 		leaq	-384(%rbp), %rax
 7354      FEFFFF
 7355 00e2 4889C7   		movq	%rax, %rdi
 7356 00e5 E8000000 		call	_ZN8UnitTest15MemoryOutStreamD1Ev
 7356      00
 7357 00ea 4889D8   		movq	%rbx, %rax
 7358 00ed 4889C7   		movq	%rax, %rdi
 7359              	.LEHB193:
 7360 00f0 E8000000 		call	_Unwind_Resume
 7360      00
 7361              	.LEHE193:
 7362              	.L335:
 7363              	.LBE94:
 7364              	.LBE92:
 7365              	.LBE91:
 7366              		.loc 6 28 0 is_stmt 1
 7367 00f5 4881C490 		addq	$400, %rsp
 7367      010000
 7368 00fc 5B       		popq	%rbx
 7369 00fd 415C     		popq	%r12
 7370 00ff 5D       		popq	%rbp
 7371              		.cfi_def_cfa 7, 8
 7372 0100 C3       		ret
 7373              		.cfi_endproc
 7374              	.LFE1165:
 7375              		.section	.gcc_except_table
 7376              	.LLSDA1165:
 7377 0526 FF       		.byte	0xff
 7378 0527 FF       		.byte	0xff
 7379 0528 01       		.byte	0x1
 7380 0529 13       		.uleb128 .LLSDACSE1165-.LLSDACSB1165
 7381              	.LLSDACSB1165:
 7382 052a 4E       		.uleb128 .LEHB190-.LFB1165
 7383 052b 05       		.uleb128 .LEHE190-.LEHB190
 7384 052c 00       		.uleb128 0
 7385 052d 00       		.uleb128 0
 7386 052e 75       		.uleb128 .LEHB191-.LFB1165
 7387 052f 52       		.uleb128 .LEHE191-.LEHB191
 7388 0530 D801     		.uleb128 .L334-.LFB1165
 7389 0532 00       		.uleb128 0
 7390 0533 D101     		.uleb128 .LEHB192-.LFB1165
 7391 0535 05       		.uleb128 .LEHE192-.LEHB192
 7392 0536 00       		.uleb128 0
 7393 0537 00       		.uleb128 0
 7394 0538 F001     		.uleb128 .LEHB193-.LFB1165
 7395 053a 05       		.uleb128 .LEHE193-.LEHB193
 7396 053b 00       		.uleb128 0
 7397 053c 00       		.uleb128 0
 7398              	.LLSDACSE1165:
 7399              		.section	.text._ZN8UnitTest10CheckEqualIiiEEvRNS_11TestResultsERKT_RKT0_RKNS_11TestDetailsE,"axG",
 7401              		.section	.text._ZN8UnitTest5CheckIPcEEbT_,"axG",@progbits,_ZN8UnitTest5CheckIPcEEbT_,comdat
 7402              		.weak	_ZN8UnitTest5CheckIPcEEbT_
 7404              	_ZN8UnitTest5CheckIPcEEbT_:
 7405              	.LFB1166:
  12:../Checks.h   **** {
 7406              		.loc 6 12 0
 7407              		.cfi_startproc
 7408 0000 55       		pushq	%rbp
 7409              		.cfi_def_cfa_offset 16
 7410              		.cfi_offset 6, -16
 7411 0001 4889E5   		movq	%rsp, %rbp
 7412              		.cfi_def_cfa_register 6
 7413 0004 48897DF8 		movq	%rdi, -8(%rbp)
  14:../Checks.h   **** }
 7414              		.loc 6 14 0
 7415 0008 48837DF8 		cmpq	$0, -8(%rbp)
 7415      00
 7416 000d 0F95C0   		setne	%al
  15:../Checks.h   **** 
 7417              		.loc 6 15 0
 7418 0010 5D       		popq	%rbp
 7419              		.cfi_def_cfa 7, 8
 7420 0011 C3       		ret
 7421              		.cfi_endproc
 7422              	.LFE1166:
 7424              		.section	.rodata
 7425              	.LC98:
 7426 0bbe 202B2F2D 		.string	" +/- "
 7426      2000
 7427              		.section	.text._ZN8UnitTest10CheckCloseIfffEEvRNS_11TestResultsERKT_RKT0_RKT1_RKNS_11TestDetailsE,
 7428              		.weak	_ZN8UnitTest10CheckCloseIfffEEvRNS_11TestResultsERKT_RKT0_RKT1_RKNS_11TestDetailsE
 7430              	_ZN8UnitTest10CheckCloseIfffEEvRNS_11TestResultsERKT_RKT0_RKT1_RKNS_11TestDetailsE:
 7431              	.LFB1167:
  29:../Checks.h   **** 
  30:../Checks.h   **** void CheckEqual(TestResults& results, char const* expected, char const* actual, TestDetails const& 
  31:../Checks.h   **** 
  32:../Checks.h   **** void CheckEqual(TestResults& results, char* expected, char* actual, TestDetails const& details);
  33:../Checks.h   **** 
  34:../Checks.h   **** void CheckEqual(TestResults& results, char* expected, char const* actual, TestDetails const& detail
  35:../Checks.h   **** 
  36:../Checks.h   **** void CheckEqual(TestResults& results, char const* expected, char* actual, TestDetails const& detail
  37:../Checks.h   **** 
  38:../Checks.h   **** template< typename Expected, typename Actual, typename Tolerance >
  39:../Checks.h   **** bool AreClose(Expected const& expected, Actual const& actual, Tolerance const& tolerance)
  40:../Checks.h   **** {
  41:../Checks.h   ****     return (actual >= (expected - tolerance)) && (actual <= (expected + tolerance));
  42:../Checks.h   **** }
  43:../Checks.h   **** 
  44:../Checks.h   **** template< typename Expected, typename Actual, typename Tolerance >
  45:../Checks.h   **** void CheckClose(TestResults& results, Expected const& expected, Actual const& actual, Tolerance con
 7432              		.loc 6 45 0
 7433              		.cfi_startproc
 7434              		.cfi_personality 0x3,__gxx_personality_v0
 7435              		.cfi_lsda 0x3,.LLSDA1167
 7436 0000 55       		pushq	%rbp
 7437              		.cfi_def_cfa_offset 16
 7438              		.cfi_offset 6, -16
 7439 0001 4889E5   		movq	%rsp, %rbp
 7440              		.cfi_def_cfa_register 6
 7441 0004 4155     		pushq	%r13
 7442 0006 4154     		pushq	%r12
 7443 0008 53       		pushq	%rbx
 7444 0009 4881ECA8 		subq	$424, %rsp
 7444      010000
 7445              		.cfi_offset 13, -24
 7446              		.cfi_offset 12, -32
 7447              		.cfi_offset 3, -40
 7448 0010 4889BD68 		movq	%rdi, -408(%rbp)
 7448      FEFFFF
 7449 0017 4889B560 		movq	%rsi, -416(%rbp)
 7449      FEFFFF
 7450 001e 48899558 		movq	%rdx, -424(%rbp)
 7450      FEFFFF
 7451 0025 48898D50 		movq	%rcx, -432(%rbp)
 7451      FEFFFF
 7452 002c 4C898548 		movq	%r8, -440(%rbp)
 7452      FEFFFF
 7453              	.LBB95:
 7454              	.LBB96:
  46:../Checks.h   ****                 TestDetails const& details)
  47:../Checks.h   **** {
  48:../Checks.h   ****     if (!AreClose(expected, actual, tolerance))
 7455              		.loc 6 48 0
 7456 0033 488B9550 		movq	-432(%rbp), %rdx
 7456      FEFFFF
 7457 003a 488B8D58 		movq	-424(%rbp), %rcx
 7457      FEFFFF
 7458 0041 488B8560 		movq	-416(%rbp), %rax
 7458      FEFFFF
 7459 0048 4889CE   		movq	%rcx, %rsi
 7460 004b 4889C7   		movq	%rax, %rdi
 7461 004e E8000000 		call	_ZN8UnitTest8AreCloseIfffEEbRKT_RKT0_RKT1_
 7461      00
 7462 0053 83F001   		xorl	$1, %eax
 7463 0056 84C0     		testb	%al, %al
 7464 0058 0F84F700 		je	.L342
 7464      0000
 7465              	.LBB97:
  49:../Checks.h   ****     { 
  50:../Checks.h   ****         UnitTest::MemoryOutStream stream;
 7466              		.loc 6 50 0
 7467 005e 488D8570 		leaq	-400(%rbp), %rax
 7467      FEFFFF
 7468 0065 4889C7   		movq	%rax, %rdi
 7469              	.LEHB194:
 7470 0068 E8000000 		call	_ZN8UnitTest15MemoryOutStreamC1Ev
 7470      00
 7471              	.LEHE194:
  51:../Checks.h   ****         stream << "Expected " << expected << " +/- " << tolerance << " but was " << actual;
 7472              		.loc 6 51 0
 7473 006d 488B8558 		movq	-424(%rbp), %rax
 7473      FEFFFF
 7474 0074 8B18     		movl	(%rax), %ebx
 7475 0076 488B8550 		movq	-432(%rbp), %rax
 7475      FEFFFF
 7476 007d 448B20   		movl	(%rax), %r12d
 7477 0080 488B8560 		movq	-416(%rbp), %rax
 7477      FEFFFF
 7478 0087 448B28   		movl	(%rax), %r13d
 7479 008a 488D8570 		leaq	-400(%rbp), %rax
 7479      FEFFFF
 7480 0091 BE000000 		movl	$.LC96, %esi
 7480      00
 7481 0096 4889C7   		movq	%rax, %rdi
 7482              	.LEHB195:
 7483 0099 E8000000 		call	_ZStlsISt11char_traitsIcEERSt13basic_ostreamIcT_ES5_PKc
 7483      00
 7484 009e 4489AD44 		movl	%r13d, -444(%rbp)
 7484      FEFFFF
 7485 00a5 F30F1085 		movss	-444(%rbp), %xmm0
 7485      44FEFFFF 
 7486 00ad 4889C7   		movq	%rax, %rdi
 7487 00b0 E8000000 		call	_ZNSolsEf
 7487      00
 7488              		.loc 6 51 0 is_stmt 0 discriminator 1
 7489 00b5 BE000000 		movl	$.LC98, %esi
 7489      00
 7490 00ba 4889C7   		movq	%rax, %rdi
 7491 00bd E8000000 		call	_ZStlsISt11char_traitsIcEERSt13basic_ostreamIcT_ES5_PKc
 7491      00
 7492 00c2 4489A544 		movl	%r12d, -444(%rbp)
 7492      FEFFFF
 7493 00c9 F30F1085 		movss	-444(%rbp), %xmm0
 7493      44FEFFFF 
 7494 00d1 4889C7   		movq	%rax, %rdi
 7495 00d4 E8000000 		call	_ZNSolsEf
 7495      00
 7496 00d9 BE000000 		movl	$.LC97, %esi
 7496      00
 7497 00de 4889C7   		movq	%rax, %rdi
 7498 00e1 E8000000 		call	_ZStlsISt11char_traitsIcEERSt13basic_ostreamIcT_ES5_PKc
 7498      00
 7499 00e6 899D44FE 		movl	%ebx, -444(%rbp)
 7499      FFFF
 7500 00ec F30F1085 		movss	-444(%rbp), %xmm0
 7500      44FEFFFF 
 7501 00f4 4889C7   		movq	%rax, %rdi
 7502 00f7 E8000000 		call	_ZNSolsEf
 7502      00
  52:../Checks.h   **** 
  53:../Checks.h   ****         results.OnTestFailure(details, stream.GetText());
 7503              		.loc 6 53 0 is_stmt 1
 7504 00fc 488D8570 		leaq	-400(%rbp), %rax
 7504      FEFFFF
 7505 0103 4889C7   		movq	%rax, %rdi
 7506 0106 E8000000 		call	_ZNK8UnitTest15MemoryOutStream7GetTextEv
 7506      00
 7507 010b 4889C2   		movq	%rax, %rdx
 7508 010e 488B8D48 		movq	-440(%rbp), %rcx
 7508      FEFFFF
 7509 0115 488B8568 		movq	-408(%rbp), %rax
 7509      FEFFFF
 7510 011c 4889CE   		movq	%rcx, %rsi
 7511 011f 4889C7   		movq	%rax, %rdi
 7512 0122 E8000000 		call	_ZN8UnitTest11TestResults13OnTestFailureERKNS_11TestDetailsEPKc
 7512      00
 7513              	.LEHE195:
 7514              		.loc 6 53 0 is_stmt 0 discriminator 1
 7515 0127 488D8570 		leaq	-400(%rbp), %rax
 7515      FEFFFF
 7516 012e 4889C7   		movq	%rax, %rdi
 7517              	.LEHB196:
 7518 0131 E8000000 		call	_ZN8UnitTest15MemoryOutStreamD1Ev
 7518      00
 7519              	.LEHE196:
 7520              	.LBE97:
 7521 0136 EB1D     		jmp	.L342
 7522              	.L341:
 7523 0138 4889C3   		movq	%rax, %rbx
 7524              	.LBB98:
 7525              		.loc 6 53 0
 7526 013b 488D8570 		leaq	-400(%rbp), %rax
 7526      FEFFFF
 7527 0142 4889C7   		movq	%rax, %rdi
 7528 0145 E8000000 		call	_ZN8UnitTest15MemoryOutStreamD1Ev
 7528      00
 7529 014a 4889D8   		movq	%rbx, %rax
 7530 014d 4889C7   		movq	%rax, %rdi
 7531              	.LEHB197:
 7532 0150 E8000000 		call	_Unwind_Resume
 7532      00
 7533              	.LEHE197:
 7534              	.L342:
 7535              	.LBE98:
 7536              	.LBE96:
 7537              	.LBE95:
  54:../Checks.h   ****     }
  55:../Checks.h   **** }
 7538              		.loc 6 55 0 is_stmt 1
 7539 0155 4881C4A8 		addq	$424, %rsp
 7539      010000
 7540 015c 5B       		popq	%rbx
 7541 015d 415C     		popq	%r12
 7542 015f 415D     		popq	%r13
 7543 0161 5D       		popq	%rbp
 7544              		.cfi_def_cfa 7, 8
 7545 0162 C3       		ret
 7546              		.cfi_endproc
 7547              	.LFE1167:
 7548              		.section	.gcc_except_table
 7549              	.LLSDA1167:
 7550 053d FF       		.byte	0xff
 7551 053e FF       		.byte	0xff
 7552 053f 01       		.byte	0x1
 7553 0540 15       		.uleb128 .LLSDACSE1167-.LLSDACSB1167
 7554              	.LLSDACSB1167:
 7555 0541 68       		.uleb128 .LEHB194-.LFB1167
 7556 0542 05       		.uleb128 .LEHE194-.LEHB194
 7557 0543 00       		.uleb128 0
 7558 0544 00       		.uleb128 0
 7559 0545 9901     		.uleb128 .LEHB195-.LFB1167
 7560 0547 8E01     		.uleb128 .LEHE195-.LEHB195
 7561 0549 B802     		.uleb128 .L341-.LFB1167
 7562 054b 00       		.uleb128 0
 7563 054c B102     		.uleb128 .LEHB196-.LFB1167
 7564 054e 05       		.uleb128 .LEHE196-.LEHB196
 7565 054f 00       		.uleb128 0
 7566 0550 00       		.uleb128 0
 7567 0551 D002     		.uleb128 .LEHB197-.LFB1167
 7568 0553 05       		.uleb128 .LEHE197-.LEHB197
 7569 0554 00       		.uleb128 0
 7570 0555 00       		.uleb128 0
 7571              	.LLSDACSE1167:
 7572              		.section	.text._ZN8UnitTest10CheckCloseIfffEEvRNS_11TestResultsERKT_RKT0_RKT1_RKNS_11TestDetailsE,
 7574              		.section	.text._ZN8UnitTest10CheckCloseIffiEEvRNS_11TestResultsERKT_RKT0_RKT1_RKNS_11TestDetailsE,
 7575              		.weak	_ZN8UnitTest10CheckCloseIffiEEvRNS_11TestResultsERKT_RKT0_RKT1_RKNS_11TestDetailsE
 7577              	_ZN8UnitTest10CheckCloseIffiEEvRNS_11TestResultsERKT_RKT0_RKT1_RKNS_11TestDetailsE:
 7578              	.LFB1168:
  45:../Checks.h   ****                 TestDetails const& details)
 7579              		.loc 6 45 0
 7580              		.cfi_startproc
 7581              		.cfi_personality 0x3,__gxx_personality_v0
 7582              		.cfi_lsda 0x3,.LLSDA1168
 7583 0000 55       		pushq	%rbp
 7584              		.cfi_def_cfa_offset 16
 7585              		.cfi_offset 6, -16
 7586 0001 4889E5   		movq	%rsp, %rbp
 7587              		.cfi_def_cfa_register 6
 7588 0004 4155     		pushq	%r13
 7589 0006 4154     		pushq	%r12
 7590 0008 53       		pushq	%rbx
 7591 0009 4881ECA8 		subq	$424, %rsp
 7591      010000
 7592              		.cfi_offset 13, -24
 7593              		.cfi_offset 12, -32
 7594              		.cfi_offset 3, -40
 7595 0010 4889BD68 		movq	%rdi, -408(%rbp)
 7595      FEFFFF
 7596 0017 4889B560 		movq	%rsi, -416(%rbp)
 7596      FEFFFF
 7597 001e 48899558 		movq	%rdx, -424(%rbp)
 7597      FEFFFF
 7598 0025 48898D50 		movq	%rcx, -432(%rbp)
 7598      FEFFFF
 7599 002c 4C898548 		movq	%r8, -440(%rbp)
 7599      FEFFFF
 7600              	.LBB99:
 7601              	.LBB100:
  48:../Checks.h   ****     { 
 7602              		.loc 6 48 0
 7603 0033 488B9550 		movq	-432(%rbp), %rdx
 7603      FEFFFF
 7604 003a 488B8D58 		movq	-424(%rbp), %rcx
 7604      FEFFFF
 7605 0041 488B8560 		movq	-416(%rbp), %rax
 7605      FEFFFF
 7606 0048 4889CE   		movq	%rcx, %rsi
 7607 004b 4889C7   		movq	%rax, %rdi
 7608 004e E8000000 		call	_ZN8UnitTest8AreCloseIffiEEbRKT_RKT0_RKT1_
 7608      00
 7609 0053 83F001   		xorl	$1, %eax
 7610 0056 84C0     		testb	%al, %al
 7611 0058 0F84EB00 		je	.L347
 7611      0000
 7612              	.LBB101:
  50:../Checks.h   ****         stream << "Expected " << expected << " +/- " << tolerance << " but was " << actual;
 7613              		.loc 6 50 0
 7614 005e 488D8570 		leaq	-400(%rbp), %rax
 7614      FEFFFF
 7615 0065 4889C7   		movq	%rax, %rdi
 7616              	.LEHB198:
 7617 0068 E8000000 		call	_ZN8UnitTest15MemoryOutStreamC1Ev
 7617      00
 7618              	.LEHE198:
  51:../Checks.h   **** 
 7619              		.loc 6 51 0
 7620 006d 488B8558 		movq	-424(%rbp), %rax
 7620      FEFFFF
 7621 0074 8B18     		movl	(%rax), %ebx
 7622 0076 488B8550 		movq	-432(%rbp), %rax
 7622      FEFFFF
 7623 007d 448B28   		movl	(%rax), %r13d
 7624 0080 488B8560 		movq	-416(%rbp), %rax
 7624      FEFFFF
 7625 0087 448B20   		movl	(%rax), %r12d
 7626 008a 488D8570 		leaq	-400(%rbp), %rax
 7626      FEFFFF
 7627 0091 BE000000 		movl	$.LC96, %esi
 7627      00
 7628 0096 4889C7   		movq	%rax, %rdi
 7629              	.LEHB199:
 7630 0099 E8000000 		call	_ZStlsISt11char_traitsIcEERSt13basic_ostreamIcT_ES5_PKc
 7630      00
 7631 009e 4489A544 		movl	%r12d, -444(%rbp)
 7631      FEFFFF
 7632 00a5 F30F1085 		movss	-444(%rbp), %xmm0
 7632      44FEFFFF 
 7633 00ad 4889C7   		movq	%rax, %rdi
 7634 00b0 E8000000 		call	_ZNSolsEf
 7634      00
  51:../Checks.h   **** 
 7635              		.loc 6 51 0 is_stmt 0 discriminator 1
 7636 00b5 BE000000 		movl	$.LC98, %esi
 7636      00
 7637 00ba 4889C7   		movq	%rax, %rdi
 7638 00bd E8000000 		call	_ZStlsISt11char_traitsIcEERSt13basic_ostreamIcT_ES5_PKc
 7638      00
 7639 00c2 4489EE   		movl	%r13d, %esi
 7640 00c5 4889C7   		movq	%rax, %rdi
 7641 00c8 E8000000 		call	_ZNSolsEi
 7641      00
 7642 00cd BE000000 		movl	$.LC97, %esi
 7642      00
 7643 00d2 4889C7   		movq	%rax, %rdi
 7644 00d5 E8000000 		call	_ZStlsISt11char_traitsIcEERSt13basic_ostreamIcT_ES5_PKc
 7644      00
 7645 00da 899D44FE 		movl	%ebx, -444(%rbp)
 7645      FFFF
 7646 00e0 F30F1085 		movss	-444(%rbp), %xmm0
 7646      44FEFFFF 
 7647 00e8 4889C7   		movq	%rax, %rdi
 7648 00eb E8000000 		call	_ZNSolsEf
 7648      00
  53:../Checks.h   ****     }
 7649              		.loc 6 53 0 is_stmt 1
 7650 00f0 488D8570 		leaq	-400(%rbp), %rax
 7650      FEFFFF
 7651 00f7 4889C7   		movq	%rax, %rdi
 7652 00fa E8000000 		call	_ZNK8UnitTest15MemoryOutStream7GetTextEv
 7652      00
 7653 00ff 4889C2   		movq	%rax, %rdx
 7654 0102 488B8D48 		movq	-440(%rbp), %rcx
 7654      FEFFFF
 7655 0109 488B8568 		movq	-408(%rbp), %rax
 7655      FEFFFF
 7656 0110 4889CE   		movq	%rcx, %rsi
 7657 0113 4889C7   		movq	%rax, %rdi
 7658 0116 E8000000 		call	_ZN8UnitTest11TestResults13OnTestFailureERKNS_11TestDetailsEPKc
 7658      00
 7659              	.LEHE199:
  53:../Checks.h   ****     }
 7660              		.loc 6 53 0 is_stmt 0 discriminator 1
 7661 011b 488D8570 		leaq	-400(%rbp), %rax
 7661      FEFFFF
 7662 0122 4889C7   		movq	%rax, %rdi
 7663              	.LEHB200:
 7664 0125 E8000000 		call	_ZN8UnitTest15MemoryOutStreamD1Ev
 7664      00
 7665              	.LEHE200:
 7666              	.LBE101:
 7667 012a EB1D     		jmp	.L347
 7668              	.L346:
 7669 012c 4889C3   		movq	%rax, %rbx
 7670              	.LBB102:
  53:../Checks.h   ****     }
 7671              		.loc 6 53 0
 7672 012f 488D8570 		leaq	-400(%rbp), %rax
 7672      FEFFFF
 7673 0136 4889C7   		movq	%rax, %rdi
 7674 0139 E8000000 		call	_ZN8UnitTest15MemoryOutStreamD1Ev
 7674      00
 7675 013e 4889D8   		movq	%rbx, %rax
 7676 0141 4889C7   		movq	%rax, %rdi
 7677              	.LEHB201:
 7678 0144 E8000000 		call	_Unwind_Resume
 7678      00
 7679              	.LEHE201:
 7680              	.L347:
 7681              	.LBE102:
 7682              	.LBE100:
 7683              	.LBE99:
 7684              		.loc 6 55 0 is_stmt 1
 7685 0149 4881C4A8 		addq	$424, %rsp
 7685      010000
 7686 0150 5B       		popq	%rbx
 7687 0151 415C     		popq	%r12
 7688 0153 415D     		popq	%r13
 7689 0155 5D       		popq	%rbp
 7690              		.cfi_def_cfa 7, 8
 7691 0156 C3       		ret
 7692              		.cfi_endproc
 7693              	.LFE1168:
 7694              		.section	.gcc_except_table
 7695              	.LLSDA1168:
 7696 0556 FF       		.byte	0xff
 7697 0557 FF       		.byte	0xff
 7698 0558 01       		.byte	0x1
 7699 0559 15       		.uleb128 .LLSDACSE1168-.LLSDACSB1168
 7700              	.LLSDACSB1168:
 7701 055a 68       		.uleb128 .LEHB198-.LFB1168
 7702 055b 05       		.uleb128 .LEHE198-.LEHB198
 7703 055c 00       		.uleb128 0
 7704 055d 00       		.uleb128 0
 7705 055e 9901     		.uleb128 .LEHB199-.LFB1168
 7706 0560 8201     		.uleb128 .LEHE199-.LEHB199
 7707 0562 AC02     		.uleb128 .L346-.LFB1168
 7708 0564 00       		.uleb128 0
 7709 0565 A502     		.uleb128 .LEHB200-.LFB1168
 7710 0567 05       		.uleb128 .LEHE200-.LEHB200
 7711 0568 00       		.uleb128 0
 7712 0569 00       		.uleb128 0
 7713 056a C402     		.uleb128 .LEHB201-.LFB1168
 7714 056c 05       		.uleb128 .LEHE201-.LEHB201
 7715 056d 00       		.uleb128 0
 7716 056e 00       		.uleb128 0
 7717              	.LLSDACSE1168:
 7718              		.section	.text._ZN8UnitTest10CheckCloseIffiEEvRNS_11TestResultsERKT_RKT0_RKT1_RKNS_11TestDetailsE,
 7720              		.section	.text._ZN8UnitTest10CheckCloseIiifEEvRNS_11TestResultsERKT_RKT0_RKT1_RKNS_11TestDetailsE,
 7721              		.weak	_ZN8UnitTest10CheckCloseIiifEEvRNS_11TestResultsERKT_RKT0_RKT1_RKNS_11TestDetailsE
 7723              	_ZN8UnitTest10CheckCloseIiifEEvRNS_11TestResultsERKT_RKT0_RKT1_RKNS_11TestDetailsE:
 7724              	.LFB1169:
  45:../Checks.h   ****                 TestDetails const& details)
 7725              		.loc 6 45 0
 7726              		.cfi_startproc
 7727              		.cfi_personality 0x3,__gxx_personality_v0
 7728              		.cfi_lsda 0x3,.LLSDA1169
 7729 0000 55       		pushq	%rbp
 7730              		.cfi_def_cfa_offset 16
 7731              		.cfi_offset 6, -16
 7732 0001 4889E5   		movq	%rsp, %rbp
 7733              		.cfi_def_cfa_register 6
 7734 0004 4155     		pushq	%r13
 7735 0006 4154     		pushq	%r12
 7736 0008 53       		pushq	%rbx
 7737 0009 4881ECA8 		subq	$424, %rsp
 7737      010000
 7738              		.cfi_offset 13, -24
 7739              		.cfi_offset 12, -32
 7740              		.cfi_offset 3, -40
 7741 0010 4889BD68 		movq	%rdi, -408(%rbp)
 7741      FEFFFF
 7742 0017 4889B560 		movq	%rsi, -416(%rbp)
 7742      FEFFFF
 7743 001e 48899558 		movq	%rdx, -424(%rbp)
 7743      FEFFFF
 7744 0025 48898D50 		movq	%rcx, -432(%rbp)
 7744      FEFFFF
 7745 002c 4C898548 		movq	%r8, -440(%rbp)
 7745      FEFFFF
 7746              	.LBB103:
 7747              	.LBB104:
  48:../Checks.h   ****     { 
 7748              		.loc 6 48 0
 7749 0033 488B9550 		movq	-432(%rbp), %rdx
 7749      FEFFFF
 7750 003a 488B8D58 		movq	-424(%rbp), %rcx
 7750      FEFFFF
 7751 0041 488B8560 		movq	-416(%rbp), %rax
 7751      FEFFFF
 7752 0048 4889CE   		movq	%rcx, %rsi
 7753 004b 4889C7   		movq	%rax, %rdi
 7754 004e E8000000 		call	_ZN8UnitTest8AreCloseIiifEEbRKT_RKT0_RKT1_
 7754      00
 7755 0053 83F001   		xorl	$1, %eax
 7756 0056 84C0     		testb	%al, %al
 7757 0058 0F84DF00 		je	.L352
 7757      0000
 7758              	.LBB105:
  50:../Checks.h   ****         stream << "Expected " << expected << " +/- " << tolerance << " but was " << actual;
 7759              		.loc 6 50 0
 7760 005e 488D8570 		leaq	-400(%rbp), %rax
 7760      FEFFFF
 7761 0065 4889C7   		movq	%rax, %rdi
 7762              	.LEHB202:
 7763 0068 E8000000 		call	_ZN8UnitTest15MemoryOutStreamC1Ev
 7763      00
 7764              	.LEHE202:
  51:../Checks.h   **** 
 7765              		.loc 6 51 0
 7766 006d 488B8558 		movq	-424(%rbp), %rax
 7766      FEFFFF
 7767 0074 448B20   		movl	(%rax), %r12d
 7768 0077 488B8550 		movq	-432(%rbp), %rax
 7768      FEFFFF
 7769 007e 8B18     		movl	(%rax), %ebx
 7770 0080 488B8560 		movq	-416(%rbp), %rax
 7770      FEFFFF
 7771 0087 448B28   		movl	(%rax), %r13d
 7772 008a 488D8570 		leaq	-400(%rbp), %rax
 7772      FEFFFF
 7773 0091 BE000000 		movl	$.LC96, %esi
 7773      00
 7774 0096 4889C7   		movq	%rax, %rdi
 7775              	.LEHB203:
 7776 0099 E8000000 		call	_ZStlsISt11char_traitsIcEERSt13basic_ostreamIcT_ES5_PKc
 7776      00
 7777 009e 4489EE   		movl	%r13d, %esi
 7778 00a1 4889C7   		movq	%rax, %rdi
 7779 00a4 E8000000 		call	_ZNSolsEi
 7779      00
  51:../Checks.h   **** 
 7780              		.loc 6 51 0 is_stmt 0 discriminator 1
 7781 00a9 BE000000 		movl	$.LC98, %esi
 7781      00
 7782 00ae 4889C7   		movq	%rax, %rdi
 7783 00b1 E8000000 		call	_ZStlsISt11char_traitsIcEERSt13basic_ostreamIcT_ES5_PKc
 7783      00
 7784 00b6 899D44FE 		movl	%ebx, -444(%rbp)
 7784      FFFF
 7785 00bc F30F1085 		movss	-444(%rbp), %xmm0
 7785      44FEFFFF 
 7786 00c4 4889C7   		movq	%rax, %rdi
 7787 00c7 E8000000 		call	_ZNSolsEf
 7787      00
 7788 00cc BE000000 		movl	$.LC97, %esi
 7788      00
 7789 00d1 4889C7   		movq	%rax, %rdi
 7790 00d4 E8000000 		call	_ZStlsISt11char_traitsIcEERSt13basic_ostreamIcT_ES5_PKc
 7790      00
 7791 00d9 4489E6   		movl	%r12d, %esi
 7792 00dc 4889C7   		movq	%rax, %rdi
 7793 00df E8000000 		call	_ZNSolsEi
 7793      00
  53:../Checks.h   ****     }
 7794              		.loc 6 53 0 is_stmt 1
 7795 00e4 488D8570 		leaq	-400(%rbp), %rax
 7795      FEFFFF
 7796 00eb 4889C7   		movq	%rax, %rdi
 7797 00ee E8000000 		call	_ZNK8UnitTest15MemoryOutStream7GetTextEv
 7797      00
 7798 00f3 4889C2   		movq	%rax, %rdx
 7799 00f6 488B8D48 		movq	-440(%rbp), %rcx
 7799      FEFFFF
 7800 00fd 488B8568 		movq	-408(%rbp), %rax
 7800      FEFFFF
 7801 0104 4889CE   		movq	%rcx, %rsi
 7802 0107 4889C7   		movq	%rax, %rdi
 7803 010a E8000000 		call	_ZN8UnitTest11TestResults13OnTestFailureERKNS_11TestDetailsEPKc
 7803      00
 7804              	.LEHE203:
  53:../Checks.h   ****     }
 7805              		.loc 6 53 0 is_stmt 0 discriminator 1
 7806 010f 488D8570 		leaq	-400(%rbp), %rax
 7806      FEFFFF
 7807 0116 4889C7   		movq	%rax, %rdi
 7808              	.LEHB204:
 7809 0119 E8000000 		call	_ZN8UnitTest15MemoryOutStreamD1Ev
 7809      00
 7810              	.LEHE204:
 7811              	.LBE105:
 7812 011e EB1D     		jmp	.L352
 7813              	.L351:
 7814 0120 4889C3   		movq	%rax, %rbx
 7815              	.LBB106:
  53:../Checks.h   ****     }
 7816              		.loc 6 53 0
 7817 0123 488D8570 		leaq	-400(%rbp), %rax
 7817      FEFFFF
 7818 012a 4889C7   		movq	%rax, %rdi
 7819 012d E8000000 		call	_ZN8UnitTest15MemoryOutStreamD1Ev
 7819      00
 7820 0132 4889D8   		movq	%rbx, %rax
 7821 0135 4889C7   		movq	%rax, %rdi
 7822              	.LEHB205:
 7823 0138 E8000000 		call	_Unwind_Resume
 7823      00
 7824              	.LEHE205:
 7825              	.L352:
 7826              	.LBE106:
 7827              	.LBE104:
 7828              	.LBE103:
 7829              		.loc 6 55 0 is_stmt 1
 7830 013d 4881C4A8 		addq	$424, %rsp
 7830      010000
 7831 0144 5B       		popq	%rbx
 7832 0145 415C     		popq	%r12
 7833 0147 415D     		popq	%r13
 7834 0149 5D       		popq	%rbp
 7835              		.cfi_def_cfa 7, 8
 7836 014a C3       		ret
 7837              		.cfi_endproc
 7838              	.LFE1169:
 7839              		.section	.gcc_except_table
 7840              	.LLSDA1169:
 7841 056f FF       		.byte	0xff
 7842 0570 FF       		.byte	0xff
 7843 0571 01       		.byte	0x1
 7844 0572 14       		.uleb128 .LLSDACSE1169-.LLSDACSB1169
 7845              	.LLSDACSB1169:
 7846 0573 68       		.uleb128 .LEHB202-.LFB1169
 7847 0574 05       		.uleb128 .LEHE202-.LEHB202
 7848 0575 00       		.uleb128 0
 7849 0576 00       		.uleb128 0
 7850 0577 9901     		.uleb128 .LEHB203-.LFB1169
 7851 0579 76       		.uleb128 .LEHE203-.LEHB203
 7852 057a A002     		.uleb128 .L351-.LFB1169
 7853 057c 00       		.uleb128 0
 7854 057d 9902     		.uleb128 .LEHB204-.LFB1169
 7855 057f 05       		.uleb128 .LEHE204-.LEHB204
 7856 0580 00       		.uleb128 0
 7857 0581 00       		.uleb128 0
 7858 0582 B802     		.uleb128 .LEHB205-.LFB1169
 7859 0584 05       		.uleb128 .LEHE205-.LEHB205
 7860 0585 00       		.uleb128 0
 7861 0586 00       		.uleb128 0
 7862              	.LLSDACSE1169:
 7863              		.section	.text._ZN8UnitTest10CheckCloseIiifEEvRNS_11TestResultsERKT_RKT0_RKT1_RKNS_11TestDetailsE,
 7865              		.section	.rodata
 7866              	.LC99:
 7867 0bc4 45787065 		.string	"Expected [ "
 7867      63746564 
 7867      205B2000 
 7868              	.LC100:
 7869 0bd0 2000     		.string	" "
 7870              	.LC101:
 7871 0bd2 5D206275 		.string	"] but was [ "
 7871      74207761 
 7871      73205B20 
 7871      00
 7872              	.LC102:
 7873 0bdf 5D00     		.string	"]"
 7874              		.section	.text._ZN8UnitTest15CheckArrayEqualIA3_iS1_EEvRNS_11TestResultsERKT_RKT0_iRKNS_11TestDeta
 7875              		.weak	_ZN8UnitTest15CheckArrayEqualIA3_iS1_EEvRNS_11TestResultsERKT_RKT0_iRKNS_11TestDetailsE
 7877              	_ZN8UnitTest15CheckArrayEqualIA3_iS1_EEvRNS_11TestResultsERKT_RKT0_iRKNS_11TestDetailsE:
 7878              	.LFB1170:
  56:../Checks.h   **** 
  57:../Checks.h   **** 
  58:../Checks.h   **** template< typename Expected, typename Actual >
  59:../Checks.h   **** void CheckArrayEqual(TestResults& results, Expected const& expected, Actual const& actual,
 7879              		.loc 6 59 0
 7880              		.cfi_startproc
 7881              		.cfi_personality 0x3,__gxx_personality_v0
 7882              		.cfi_lsda 0x3,.LLSDA1170
 7883 0000 55       		pushq	%rbp
 7884              		.cfi_def_cfa_offset 16
 7885              		.cfi_offset 6, -16
 7886 0001 4889E5   		movq	%rsp, %rbp
 7887              		.cfi_def_cfa_register 6
 7888 0004 53       		pushq	%rbx
 7889 0005 4881ECB8 		subq	$440, %rsp
 7889      010000
 7890              		.cfi_offset 3, -24
 7891 000c 4889BD68 		movq	%rdi, -408(%rbp)
 7891      FEFFFF
 7892 0013 4889B560 		movq	%rsi, -416(%rbp)
 7892      FEFFFF
 7893 001a 48899558 		movq	%rdx, -424(%rbp)
 7893      FEFFFF
 7894 0021 898D54FE 		movl	%ecx, -428(%rbp)
 7894      FFFF
 7895 0027 4C898548 		movq	%r8, -440(%rbp)
 7895      FEFFFF
 7896              	.LBB107:
  60:../Checks.h   ****                 int const count, TestDetails const& details)
  61:../Checks.h   **** {
  62:../Checks.h   ****     bool equal = true;
 7897              		.loc 6 62 0
 7898 002e C68573FE 		movb	$1, -397(%rbp)
 7898      FFFF01
 7899              	.LBB108:
  63:../Checks.h   ****     for (int i = 0; i < count; ++i)
 7900              		.loc 6 63 0
 7901 0035 C78574FE 		movl	$0, -396(%rbp)
 7901      FFFF0000 
 7901      0000
 7902 003f EB49     		jmp	.L354
 7903              	.L355:
  64:../Checks.h   ****         equal &= (expected[i] == actual[i]);
 7904              		.loc 6 64 0 discriminator 2
 7905 0041 0FB68D73 		movzbl	-397(%rbp), %ecx
 7905      FEFFFF
 7906 0048 488B8560 		movq	-416(%rbp), %rax
 7906      FEFFFF
 7907 004f 8B9574FE 		movl	-396(%rbp), %edx
 7907      FFFF
 7908 0055 4863D2   		movslq	%edx, %rdx
 7909 0058 8B3490   		movl	(%rax,%rdx,4), %esi
 7910 005b 488B8558 		movq	-424(%rbp), %rax
 7910      FEFFFF
 7911 0062 8B9574FE 		movl	-396(%rbp), %edx
 7911      FFFF
 7912 0068 4863D2   		movslq	%edx, %rdx
 7913 006b 8B0490   		movl	(%rax,%rdx,4), %eax
 7914 006e 39C6     		cmpl	%eax, %esi
 7915 0070 0F94C0   		sete	%al
 7916 0073 0FB6C0   		movzbl	%al, %eax
 7917 0076 21C8     		andl	%ecx, %eax
 7918 0078 85C0     		testl	%eax, %eax
 7919 007a 0F95C0   		setne	%al
 7920 007d 888573FE 		movb	%al, -397(%rbp)
 7920      FFFF
  63:../Checks.h   ****     for (int i = 0; i < count; ++i)
 7921              		.loc 6 63 0 discriminator 2
 7922 0083 838574FE 		addl	$1, -396(%rbp)
 7922      FFFF01
 7923              	.L354:
  63:../Checks.h   ****     for (int i = 0; i < count; ++i)
 7924              		.loc 6 63 0 is_stmt 0 discriminator 1
 7925 008a 8B8574FE 		movl	-396(%rbp), %eax
 7925      FFFF
 7926 0090 3B8554FE 		cmpl	-428(%rbp), %eax
 7926      FFFF
 7927 0096 7CA9     		jl	.L355
 7928              	.LBE108:
 7929              	.LBB109:
  65:../Checks.h   **** 
  66:../Checks.h   ****     if (!equal)
 7930              		.loc 6 66 0 is_stmt 1
 7931 0098 0FB68573 		movzbl	-397(%rbp), %eax
 7931      FEFFFF
 7932 009f 83F001   		xorl	$1, %eax
 7933 00a2 84C0     		testb	%al, %al
 7934 00a4 0F844801 		je	.L363
 7934      0000
 7935              	.LBB110:
  67:../Checks.h   ****     {
  68:../Checks.h   ****         UnitTest::MemoryOutStream stream;
 7936              		.loc 6 68 0
 7937 00aa 488D8580 		leaq	-384(%rbp), %rax
 7937      FEFFFF
 7938 00b1 4889C7   		movq	%rax, %rdi
 7939              	.LEHB206:
 7940 00b4 E8000000 		call	_ZN8UnitTest15MemoryOutStreamC1Ev
 7940      00
 7941              	.LEHE206:
  69:../Checks.h   **** 
  70:../Checks.h   **** 		stream << "Expected [ ";
 7942              		.loc 6 70 0
 7943 00b9 488D8580 		leaq	-384(%rbp), %rax
 7943      FEFFFF
 7944 00c0 BE000000 		movl	$.LC99, %esi
 7944      00
 7945 00c5 4889C7   		movq	%rax, %rdi
 7946              	.LEHB207:
 7947 00c8 E8000000 		call	_ZStlsISt11char_traitsIcEERSt13basic_ostreamIcT_ES5_PKc
 7947      00
 7948              	.LBB111:
  71:../Checks.h   **** 
  72:../Checks.h   **** 		for (int expectedIndex = 0; expectedIndex < count; ++expectedIndex)
 7949              		.loc 6 72 0
 7950 00cd C78578FE 		movl	$0, -392(%rbp)
 7950      FFFF0000 
 7950      0000
 7951 00d7 EB38     		jmp	.L357
 7952              	.L358:
  73:../Checks.h   ****             stream << expected[expectedIndex] << " ";
 7953              		.loc 6 73 0
 7954 00d9 488B8560 		movq	-416(%rbp), %rax
 7954      FEFFFF
 7955 00e0 8B9578FE 		movl	-392(%rbp), %edx
 7955      FFFF
 7956 00e6 4863D2   		movslq	%edx, %rdx
 7957 00e9 8B1490   		movl	(%rax,%rdx,4), %edx
 7958 00ec 488D8580 		leaq	-384(%rbp), %rax
 7958      FEFFFF
 7959 00f3 89D6     		movl	%edx, %esi
 7960 00f5 4889C7   		movq	%rax, %rdi
 7961 00f8 E8000000 		call	_ZNSolsEi
 7961      00
 7962 00fd BE000000 		movl	$.LC100, %esi
 7962      00
 7963 0102 4889C7   		movq	%rax, %rdi
 7964 0105 E8000000 		call	_ZStlsISt11char_traitsIcEERSt13basic_ostreamIcT_ES5_PKc
 7964      00
  72:../Checks.h   ****             stream << expected[expectedIndex] << " ";
 7965              		.loc 6 72 0
 7966 010a 838578FE 		addl	$1, -392(%rbp)
 7966      FFFF01
 7967              	.L357:
  72:../Checks.h   ****             stream << expected[expectedIndex] << " ";
 7968              		.loc 6 72 0 is_stmt 0 discriminator 1
 7969 0111 8B8578FE 		movl	-392(%rbp), %eax
 7969      FFFF
 7970 0117 3B8554FE 		cmpl	-428(%rbp), %eax
 7970      FFFF
 7971 011d 7CBA     		jl	.L358
 7972              	.LBE111:
  74:../Checks.h   **** 
  75:../Checks.h   **** 		stream << "] but was [ ";
 7973              		.loc 6 75 0 is_stmt 1
 7974 011f 488D8580 		leaq	-384(%rbp), %rax
 7974      FEFFFF
 7975 0126 BE000000 		movl	$.LC101, %esi
 7975      00
 7976 012b 4889C7   		movq	%rax, %rdi
 7977 012e E8000000 		call	_ZStlsISt11char_traitsIcEERSt13basic_ostreamIcT_ES5_PKc
 7977      00
 7978              	.LBB112:
  76:../Checks.h   **** 
  77:../Checks.h   **** 		for (int actualIndex = 0; actualIndex < count; ++actualIndex)
 7979              		.loc 6 77 0
 7980 0133 C7857CFE 		movl	$0, -388(%rbp)
 7980      FFFF0000 
 7980      0000
 7981 013d EB38     		jmp	.L359
 7982              	.L360:
  78:../Checks.h   ****             stream << actual[actualIndex] << " ";
 7983              		.loc 6 78 0
 7984 013f 488B8558 		movq	-424(%rbp), %rax
 7984      FEFFFF
 7985 0146 8B957CFE 		movl	-388(%rbp), %edx
 7985      FFFF
 7986 014c 4863D2   		movslq	%edx, %rdx
 7987 014f 8B1490   		movl	(%rax,%rdx,4), %edx
 7988 0152 488D8580 		leaq	-384(%rbp), %rax
 7988      FEFFFF
 7989 0159 89D6     		movl	%edx, %esi
 7990 015b 4889C7   		movq	%rax, %rdi
 7991 015e E8000000 		call	_ZNSolsEi
 7991      00
 7992 0163 BE000000 		movl	$.LC100, %esi
 7992      00
 7993 0168 4889C7   		movq	%rax, %rdi
 7994 016b E8000000 		call	_ZStlsISt11char_traitsIcEERSt13basic_ostreamIcT_ES5_PKc
 7994      00
  77:../Checks.h   ****             stream << actual[actualIndex] << " ";
 7995              		.loc 6 77 0
 7996 0170 83857CFE 		addl	$1, -388(%rbp)
 7996      FFFF01
 7997              	.L359:
  77:../Checks.h   ****             stream << actual[actualIndex] << " ";
 7998              		.loc 6 77 0 is_stmt 0 discriminator 1
 7999 0177 8B857CFE 		movl	-388(%rbp), %eax
 7999      FFFF
 8000 017d 3B8554FE 		cmpl	-428(%rbp), %eax
 8000      FFFF
 8001 0183 7CBA     		jl	.L360
 8002              	.LBE112:
  79:../Checks.h   **** 
  80:../Checks.h   **** 		stream << "]";
 8003              		.loc 6 80 0 is_stmt 1
 8004 0185 488D8580 		leaq	-384(%rbp), %rax
 8004      FEFFFF
 8005 018c BE000000 		movl	$.LC102, %esi
 8005      00
 8006 0191 4889C7   		movq	%rax, %rdi
 8007 0194 E8000000 		call	_ZStlsISt11char_traitsIcEERSt13basic_ostreamIcT_ES5_PKc
 8007      00
  81:../Checks.h   **** 
  82:../Checks.h   ****         results.OnTestFailure(details, stream.GetText());
 8008              		.loc 6 82 0
 8009 0199 488D8580 		leaq	-384(%rbp), %rax
 8009      FEFFFF
 8010 01a0 4889C7   		movq	%rax, %rdi
 8011 01a3 E8000000 		call	_ZNK8UnitTest15MemoryOutStream7GetTextEv
 8011      00
 8012 01a8 4889C2   		movq	%rax, %rdx
 8013 01ab 488B8D48 		movq	-440(%rbp), %rcx
 8013      FEFFFF
 8014 01b2 488B8568 		movq	-408(%rbp), %rax
 8014      FEFFFF
 8015 01b9 4889CE   		movq	%rcx, %rsi
 8016 01bc 4889C7   		movq	%rax, %rdi
 8017 01bf E8000000 		call	_ZN8UnitTest11TestResults13OnTestFailureERKNS_11TestDetailsEPKc
 8017      00
 8018              	.LEHE207:
 8019              		.loc 6 82 0 is_stmt 0 discriminator 1
 8020 01c4 488D8580 		leaq	-384(%rbp), %rax
 8020      FEFFFF
 8021 01cb 4889C7   		movq	%rax, %rdi
 8022              	.LEHB208:
 8023 01ce E8000000 		call	_ZN8UnitTest15MemoryOutStreamD1Ev
 8023      00
 8024              	.LEHE208:
 8025              	.LBE110:
 8026 01d3 EB1D     		jmp	.L363
 8027              	.L362:
 8028 01d5 4889C3   		movq	%rax, %rbx
 8029              	.LBB113:
 8030              		.loc 6 82 0
 8031 01d8 488D8580 		leaq	-384(%rbp), %rax
 8031      FEFFFF
 8032 01df 4889C7   		movq	%rax, %rdi
 8033 01e2 E8000000 		call	_ZN8UnitTest15MemoryOutStreamD1Ev
 8033      00
 8034 01e7 4889D8   		movq	%rbx, %rax
 8035 01ea 4889C7   		movq	%rax, %rdi
 8036              	.LEHB209:
 8037 01ed E8000000 		call	_Unwind_Resume
 8037      00
 8038              	.LEHE209:
 8039              	.L363:
 8040              	.LBE113:
 8041              	.LBE109:
 8042              	.LBE107:
  83:../Checks.h   ****     }
  84:../Checks.h   **** }
 8043              		.loc 6 84 0 is_stmt 1
 8044 01f2 4881C4B8 		addq	$440, %rsp
 8044      010000
 8045 01f9 5B       		popq	%rbx
 8046 01fa 5D       		popq	%rbp
 8047              		.cfi_def_cfa 7, 8
 8048 01fb C3       		ret
 8049              		.cfi_endproc
 8050              	.LFE1170:
 8051              		.section	.gcc_except_table
 8052              	.LLSDA1170:
 8053 0587 FF       		.byte	0xff
 8054 0588 FF       		.byte	0xff
 8055 0589 01       		.byte	0x1
 8056 058a 16       		.uleb128 .LLSDACSE1170-.LLSDACSB1170
 8057              	.LLSDACSB1170:
 8058 058b B401     		.uleb128 .LEHB206-.LFB1170
 8059 058d 05       		.uleb128 .LEHE206-.LEHB206
 8060 058e 00       		.uleb128 0
 8061 058f 00       		.uleb128 0
 8062 0590 C801     		.uleb128 .LEHB207-.LFB1170
 8063 0592 FC01     		.uleb128 .LEHE207-.LEHB207
 8064 0594 D503     		.uleb128 .L362-.LFB1170
 8065 0596 00       		.uleb128 0
 8066 0597 CE03     		.uleb128 .LEHB208-.LFB1170
 8067 0599 05       		.uleb128 .LEHE208-.LEHB208
 8068 059a 00       		.uleb128 0
 8069 059b 00       		.uleb128 0
 8070 059c ED03     		.uleb128 .LEHB209-.LFB1170
 8071 059e 05       		.uleb128 .LEHE209-.LEHB209
 8072 059f 00       		.uleb128 0
 8073 05a0 00       		.uleb128 0
 8074              	.LLSDACSE1170:
 8075              		.section	.text._ZN8UnitTest15CheckArrayEqualIA3_iS1_EEvRNS_11TestResultsERKT_RKT0_iRKNS_11TestDeta
 8077              		.section	.rodata
 8078              	.LC103:
 8079 0be1 5D202B2F 		.string	"] +/- "
 8079      2D2000
 8080              	.LC104:
 8081 0be8 20627574 		.string	" but was [ "
 8081      20776173 
 8081      205B2000 
 8082              		.section	.text._ZN8UnitTest15CheckArrayCloseIA3_fS1_fEEvRNS_11TestResultsERKT_RKT0_iRKT1_RKNS_11Te
 8083              		.weak	_ZN8UnitTest15CheckArrayCloseIA3_fS1_fEEvRNS_11TestResultsERKT_RKT0_iRKT1_RKNS_11TestDetails
 8085              	_ZN8UnitTest15CheckArrayCloseIA3_fS1_fEEvRNS_11TestResultsERKT_RKT0_iRKT1_RKNS_11TestDetailsE:
 8086              	.LFB1171:
  85:../Checks.h   **** 
  86:../Checks.h   **** template< typename Expected, typename Actual, typename Tolerance >
  87:../Checks.h   **** bool ArrayAreClose(Expected const& expected, Actual const& actual, int const count, Tolerance const
  88:../Checks.h   **** {
  89:../Checks.h   ****     bool equal = true;
  90:../Checks.h   ****     for (int i = 0; i < count; ++i)
  91:../Checks.h   ****         equal &= AreClose(expected[i], actual[i], tolerance);
  92:../Checks.h   ****     return equal;
  93:../Checks.h   **** }
  94:../Checks.h   **** 
  95:../Checks.h   **** template< typename Expected, typename Actual, typename Tolerance >
  96:../Checks.h   **** void CheckArrayClose(TestResults& results, Expected const& expected, Actual const& actual,
 8087              		.loc 6 96 0
 8088              		.cfi_startproc
 8089              		.cfi_personality 0x3,__gxx_personality_v0
 8090              		.cfi_lsda 0x3,.LLSDA1171
 8091 0000 55       		pushq	%rbp
 8092              		.cfi_def_cfa_offset 16
 8093              		.cfi_offset 6, -16
 8094 0001 4889E5   		movq	%rsp, %rbp
 8095              		.cfi_def_cfa_register 6
 8096 0004 53       		pushq	%rbx
 8097 0005 4881ECB8 		subq	$440, %rsp
 8097      010000
 8098              		.cfi_offset 3, -24
 8099 000c 4889BD68 		movq	%rdi, -408(%rbp)
 8099      FEFFFF
 8100 0013 4889B560 		movq	%rsi, -416(%rbp)
 8100      FEFFFF
 8101 001a 48899558 		movq	%rdx, -424(%rbp)
 8101      FEFFFF
 8102 0021 898D54FE 		movl	%ecx, -428(%rbp)
 8102      FFFF
 8103 0027 4C898548 		movq	%r8, -440(%rbp)
 8103      FEFFFF
 8104 002e 4C898D40 		movq	%r9, -448(%rbp)
 8104      FEFFFF
 8105              	.LBB114:
  97:../Checks.h   ****                    int const count, Tolerance const& tolerance, TestDetails const& details)
  98:../Checks.h   **** {
  99:../Checks.h   ****     bool equal = ArrayAreClose(expected, actual, count, tolerance);
 8106              		.loc 6 99 0
 8107 0035 488B8D48 		movq	-440(%rbp), %rcx
 8107      FEFFFF
 8108 003c 8B9554FE 		movl	-428(%rbp), %edx
 8108      FFFF
 8109 0042 488BB558 		movq	-424(%rbp), %rsi
 8109      FEFFFF
 8110 0049 488B8560 		movq	-416(%rbp), %rax
 8110      FEFFFF
 8111 0050 4889C7   		movq	%rax, %rdi
 8112 0053 E8000000 		call	_ZN8UnitTest13ArrayAreCloseIA3_fS1_fEEbRKT_RKT0_iRKT1_
 8112      00
 8113 0058 888577FE 		movb	%al, -393(%rbp)
 8113      FFFF
 8114              	.LBB115:
 100:../Checks.h   **** 
 101:../Checks.h   ****     if (!equal)
 8115              		.loc 6 101 0
 8116 005e 0FB68577 		movzbl	-393(%rbp), %eax
 8116      FEFFFF
 8117 0065 83F001   		xorl	$1, %eax
 8118 0068 84C0     		testb	%al, %al
 8119 006a 0F848C01 		je	.L372
 8119      0000
 8120              	.LBB116:
 102:../Checks.h   ****     {
 103:../Checks.h   ****         UnitTest::MemoryOutStream stream;
 8121              		.loc 6 103 0
 8122 0070 488D8580 		leaq	-384(%rbp), %rax
 8122      FEFFFF
 8123 0077 4889C7   		movq	%rax, %rdi
 8124              	.LEHB210:
 8125 007a E8000000 		call	_ZN8UnitTest15MemoryOutStreamC1Ev
 8125      00
 8126              	.LEHE210:
 104:../Checks.h   **** 
 105:../Checks.h   ****         stream << "Expected [ ";
 8127              		.loc 6 105 0
 8128 007f 488D8580 		leaq	-384(%rbp), %rax
 8128      FEFFFF
 8129 0086 BE000000 		movl	$.LC99, %esi
 8129      00
 8130 008b 4889C7   		movq	%rax, %rdi
 8131              	.LEHB211:
 8132 008e E8000000 		call	_ZStlsISt11char_traitsIcEERSt13basic_ostreamIcT_ES5_PKc
 8132      00
 8133              	.LBB117:
 106:../Checks.h   ****         for (int expectedIndex = 0; expectedIndex < count; ++expectedIndex)
 8134              		.loc 6 106 0
 8135 0093 C78578FE 		movl	$0, -392(%rbp)
 8135      FFFF0000 
 8135      0000
 8136 009d EB44     		jmp	.L366
 8137              	.L367:
 107:../Checks.h   ****             stream << expected[expectedIndex] << " ";
 8138              		.loc 6 107 0
 8139 009f 488B8560 		movq	-416(%rbp), %rax
 8139      FEFFFF
 8140 00a6 8B9578FE 		movl	-392(%rbp), %edx
 8140      FFFF
 8141 00ac 4863D2   		movslq	%edx, %rdx
 8142 00af 8B0490   		movl	(%rax,%rdx,4), %eax
 8143 00b2 488D9580 		leaq	-384(%rbp), %rdx
 8143      FEFFFF
 8144 00b9 898550FE 		movl	%eax, -432(%rbp)
 8144      FFFF
 8145 00bf F30F1085 		movss	-432(%rbp), %xmm0
 8145      50FEFFFF 
 8146 00c7 4889D7   		movq	%rdx, %rdi
 8147 00ca E8000000 		call	_ZNSolsEf
 8147      00
 8148 00cf BE000000 		movl	$.LC100, %esi
 8148      00
 8149 00d4 4889C7   		movq	%rax, %rdi
 8150 00d7 E8000000 		call	_ZStlsISt11char_traitsIcEERSt13basic_ostreamIcT_ES5_PKc
 8150      00
 106:../Checks.h   ****         for (int expectedIndex = 0; expectedIndex < count; ++expectedIndex)
 8151              		.loc 6 106 0
 8152 00dc 838578FE 		addl	$1, -392(%rbp)
 8152      FFFF01
 8153              	.L366:
 106:../Checks.h   ****         for (int expectedIndex = 0; expectedIndex < count; ++expectedIndex)
 8154              		.loc 6 106 0 is_stmt 0 discriminator 1
 8155 00e3 8B8578FE 		movl	-392(%rbp), %eax
 8155      FFFF
 8156 00e9 3B8554FE 		cmpl	-428(%rbp), %eax
 8156      FFFF
 8157 00ef 7CAE     		jl	.L367
 8158              	.LBE117:
 108:../Checks.h   ****         stream << "] +/- " << tolerance << " but was [ ";
 8159              		.loc 6 108 0 is_stmt 1
 8160 00f1 488B8548 		movq	-440(%rbp), %rax
 8160      FEFFFF
 8161 00f8 8B18     		movl	(%rax), %ebx
 8162 00fa 488D8580 		leaq	-384(%rbp), %rax
 8162      FEFFFF
 8163 0101 BE000000 		movl	$.LC103, %esi
 8163      00
 8164 0106 4889C7   		movq	%rax, %rdi
 8165 0109 E8000000 		call	_ZStlsISt11char_traitsIcEERSt13basic_ostreamIcT_ES5_PKc
 8165      00
 8166 010e 899D50FE 		movl	%ebx, -432(%rbp)
 8166      FFFF
 8167 0114 F30F1085 		movss	-432(%rbp), %xmm0
 8167      50FEFFFF 
 8168 011c 4889C7   		movq	%rax, %rdi
 8169 011f E8000000 		call	_ZNSolsEf
 8169      00
 8170              		.loc 6 108 0 is_stmt 0 discriminator 1
 8171 0124 BE000000 		movl	$.LC104, %esi
 8171      00
 8172 0129 4889C7   		movq	%rax, %rdi
 8173 012c E8000000 		call	_ZStlsISt11char_traitsIcEERSt13basic_ostreamIcT_ES5_PKc
 8173      00
 8174              	.LBB118:
 109:../Checks.h   **** 
 110:../Checks.h   **** 		for (int actualIndex = 0; actualIndex < count; ++actualIndex)
 8175              		.loc 6 110 0 is_stmt 1
 8176 0131 C7857CFE 		movl	$0, -388(%rbp)
 8176      FFFF0000 
 8176      0000
 8177 013b EB44     		jmp	.L368
 8178              	.L369:
 111:../Checks.h   ****             stream << actual[actualIndex] << " ";
 8179              		.loc 6 111 0
 8180 013d 488B8558 		movq	-424(%rbp), %rax
 8180      FEFFFF
 8181 0144 8B957CFE 		movl	-388(%rbp), %edx
 8181      FFFF
 8182 014a 4863D2   		movslq	%edx, %rdx
 8183 014d 8B0490   		movl	(%rax,%rdx,4), %eax
 8184 0150 488D9580 		leaq	-384(%rbp), %rdx
 8184      FEFFFF
 8185 0157 898550FE 		movl	%eax, -432(%rbp)
 8185      FFFF
 8186 015d F30F1085 		movss	-432(%rbp), %xmm0
 8186      50FEFFFF 
 8187 0165 4889D7   		movq	%rdx, %rdi
 8188 0168 E8000000 		call	_ZNSolsEf
 8188      00
 8189 016d BE000000 		movl	$.LC100, %esi
 8189      00
 8190 0172 4889C7   		movq	%rax, %rdi
 8191 0175 E8000000 		call	_ZStlsISt11char_traitsIcEERSt13basic_ostreamIcT_ES5_PKc
 8191      00
 110:../Checks.h   ****             stream << actual[actualIndex] << " ";
 8192              		.loc 6 110 0
 8193 017a 83857CFE 		addl	$1, -388(%rbp)
 8193      FFFF01
 8194              	.L368:
 110:../Checks.h   ****             stream << actual[actualIndex] << " ";
 8195              		.loc 6 110 0 is_stmt 0 discriminator 1
 8196 0181 8B857CFE 		movl	-388(%rbp), %eax
 8196      FFFF
 8197 0187 3B8554FE 		cmpl	-428(%rbp), %eax
 8197      FFFF
 8198 018d 7CAE     		jl	.L369
 8199              	.LBE118:
 112:../Checks.h   ****         stream << "]";
 8200              		.loc 6 112 0 is_stmt 1
 8201 018f 488D8580 		leaq	-384(%rbp), %rax
 8201      FEFFFF
 8202 0196 BE000000 		movl	$.LC102, %esi
 8202      00
 8203 019b 4889C7   		movq	%rax, %rdi
 8204 019e E8000000 		call	_ZStlsISt11char_traitsIcEERSt13basic_ostreamIcT_ES5_PKc
 8204      00
 113:../Checks.h   **** 
 114:../Checks.h   ****         results.OnTestFailure(details, stream.GetText());
 8205              		.loc 6 114 0
 8206 01a3 488D8580 		leaq	-384(%rbp), %rax
 8206      FEFFFF
 8207 01aa 4889C7   		movq	%rax, %rdi
 8208 01ad E8000000 		call	_ZNK8UnitTest15MemoryOutStream7GetTextEv
 8208      00
 8209 01b2 4889C2   		movq	%rax, %rdx
 8210 01b5 488B8D40 		movq	-448(%rbp), %rcx
 8210      FEFFFF
 8211 01bc 488B8568 		movq	-408(%rbp), %rax
 8211      FEFFFF
 8212 01c3 4889CE   		movq	%rcx, %rsi
 8213 01c6 4889C7   		movq	%rax, %rdi
 8214 01c9 E8000000 		call	_ZN8UnitTest11TestResults13OnTestFailureERKNS_11TestDetailsEPKc
 8214      00
 8215              	.LEHE211:
 8216              		.loc 6 114 0 is_stmt 0 discriminator 1
 8217 01ce 488D8580 		leaq	-384(%rbp), %rax
 8217      FEFFFF
 8218 01d5 4889C7   		movq	%rax, %rdi
 8219              	.LEHB212:
 8220 01d8 E8000000 		call	_ZN8UnitTest15MemoryOutStreamD1Ev
 8220      00
 8221              	.LEHE212:
 8222              	.LBE116:
 8223 01dd EB1D     		jmp	.L372
 8224              	.L371:
 8225 01df 4889C3   		movq	%rax, %rbx
 8226              	.LBB119:
 8227              		.loc 6 114 0
 8228 01e2 488D8580 		leaq	-384(%rbp), %rax
 8228      FEFFFF
 8229 01e9 4889C7   		movq	%rax, %rdi
 8230 01ec E8000000 		call	_ZN8UnitTest15MemoryOutStreamD1Ev
 8230      00
 8231 01f1 4889D8   		movq	%rbx, %rax
 8232 01f4 4889C7   		movq	%rax, %rdi
 8233              	.LEHB213:
 8234 01f7 E8000000 		call	_Unwind_Resume
 8234      00
 8235              	.LEHE213:
 8236              	.L372:
 8237              	.LBE119:
 8238              	.LBE115:
 8239              	.LBE114:
 115:../Checks.h   ****     }
 116:../Checks.h   **** }
 8240              		.loc 6 116 0 is_stmt 1
 8241 01fc 4881C4B8 		addq	$440, %rsp
 8241      010000
 8242 0203 5B       		popq	%rbx
 8243 0204 5D       		popq	%rbp
 8244              		.cfi_def_cfa 7, 8
 8245 0205 C3       		ret
 8246              		.cfi_endproc
 8247              	.LFE1171:
 8248              		.section	.gcc_except_table
 8249              	.LLSDA1171:
 8250 05a1 FF       		.byte	0xff
 8251 05a2 FF       		.byte	0xff
 8252 05a3 01       		.byte	0x1
 8253 05a4 15       		.uleb128 .LLSDACSE1171-.LLSDACSB1171
 8254              	.LLSDACSB1171:
 8255 05a5 7A       		.uleb128 .LEHB210-.LFB1171
 8256 05a6 05       		.uleb128 .LEHE210-.LEHB210
 8257 05a7 00       		.uleb128 0
 8258 05a8 00       		.uleb128 0
 8259 05a9 8E01     		.uleb128 .LEHB211-.LFB1171
 8260 05ab C002     		.uleb128 .LEHE211-.LEHB211
 8261 05ad DF03     		.uleb128 .L371-.LFB1171
 8262 05af 00       		.uleb128 0
 8263 05b0 D803     		.uleb128 .LEHB212-.LFB1171
 8264 05b2 05       		.uleb128 .LEHE212-.LEHB212
 8265 05b3 00       		.uleb128 0
 8266 05b4 00       		.uleb128 0
 8267 05b5 F703     		.uleb128 .LEHB213-.LFB1171
 8268 05b7 05       		.uleb128 .LEHE213-.LEHB213
 8269 05b8 00       		.uleb128 0
 8270 05b9 00       		.uleb128 0
 8271              	.LLSDACSE1171:
 8272              		.section	.text._ZN8UnitTest15CheckArrayCloseIA3_fS1_fEEvRNS_11TestResultsERKT_RKT0_iRKT1_RKNS_11Te
 8274              		.section	.rodata
 8275              	.LC105:
 8276 0bf4 5B2000   		.string	"[ "
 8277              	.LC106:
 8278 0bf7 5D2000   		.string	"] "
 8279              		.section	.text._ZN8UnitTest17CheckArray2DCloseIA3_A3_fS2_fEEvRNS_11TestResultsERKT_RKT0_iiRKT1_RKN
 8280              		.weak	_ZN8UnitTest17CheckArray2DCloseIA3_A3_fS2_fEEvRNS_11TestResultsERKT_RKT0_iiRKT1_RKNS_11TestD
 8282              	_ZN8UnitTest17CheckArray2DCloseIA3_A3_fS2_fEEvRNS_11TestResultsERKT_RKT0_iiRKT1_RKNS_11TestDetailsE
 8283              	.LFB1172:
 117:../Checks.h   **** 
 118:../Checks.h   **** template< typename Expected, typename Actual, typename Tolerance >
 119:../Checks.h   **** void CheckArray2DClose(TestResults& results, Expected const& expected, Actual const& actual,
 8284              		.loc 6 119 0
 8285              		.cfi_startproc
 8286              		.cfi_personality 0x3,__gxx_personality_v0
 8287              		.cfi_lsda 0x3,.LLSDA1172
 8288 0000 55       		pushq	%rbp
 8289              		.cfi_def_cfa_offset 16
 8290              		.cfi_offset 6, -16
 8291 0001 4889E5   		movq	%rsp, %rbp
 8292              		.cfi_def_cfa_register 6
 8293 0004 53       		pushq	%rbx
 8294 0005 4881ECC8 		subq	$456, %rsp
 8294      010000
 8295              		.cfi_offset 3, -24
 8296 000c 4889BD58 		movq	%rdi, -424(%rbp)
 8296      FEFFFF
 8297 0013 4889B550 		movq	%rsi, -432(%rbp)
 8297      FEFFFF
 8298 001a 48899548 		movq	%rdx, -440(%rbp)
 8298      FEFFFF
 8299 0021 898D44FE 		movl	%ecx, -444(%rbp)
 8299      FFFF
 8300 0027 44898540 		movl	%r8d, -448(%rbp)
 8300      FEFFFF
 8301 002e 4C898D38 		movq	%r9, -456(%rbp)
 8301      FEFFFF
 8302              	.LBB120:
 120:../Checks.h   ****                    int const rows, int const columns, Tolerance const& tolerance, TestDetails const
 121:../Checks.h   **** {
 122:../Checks.h   ****     bool equal = true;
 8303              		.loc 6 122 0
 8304 0035 C6856BFE 		movb	$1, -405(%rbp)
 8304      FFFF01
 8305              	.LBB121:
 123:../Checks.h   ****     for (int i = 0; i < rows; ++i)
 8306              		.loc 6 123 0
 8307 003c C7856CFE 		movl	$0, -404(%rbp)
 8307      FFFF0000 
 8307      0000
 8308 0046 EB77     		jmp	.L374
 8309              	.L375:
 124:../Checks.h   ****         equal &= ArrayAreClose(expected[i], actual[i], columns, tolerance);
 8310              		.loc 6 124 0 discriminator 2
 8311 0048 8B856CFE 		movl	-404(%rbp), %eax
 8311      FFFF
 8312 004e 4863D0   		movslq	%eax, %rdx
 8313 0051 4889D0   		movq	%rdx, %rax
 8314 0054 4801C0   		addq	%rax, %rax
 8315 0057 4801D0   		addq	%rdx, %rax
 8316 005a 48C1E002 		salq	$2, %rax
 8317 005e 488B9548 		movq	-440(%rbp), %rdx
 8317      FEFFFF
 8318 0065 488D3410 		leaq	(%rax,%rdx), %rsi
 8319 0069 8B856CFE 		movl	-404(%rbp), %eax
 8319      FFFF
 8320 006f 4863D0   		movslq	%eax, %rdx
 8321 0072 4889D0   		movq	%rdx, %rax
 8322 0075 4801C0   		addq	%rax, %rax
 8323 0078 4801D0   		addq	%rdx, %rax
 8324 007b 48C1E002 		salq	$2, %rax
 8325 007f 488B9550 		movq	-432(%rbp), %rdx
 8325      FEFFFF
 8326 0086 488D3C10 		leaq	(%rax,%rdx), %rdi
 8327 008a 488B9538 		movq	-456(%rbp), %rdx
 8327      FEFFFF
 8328 0091 8B8540FE 		movl	-448(%rbp), %eax
 8328      FFFF
 8329 0097 4889D1   		movq	%rdx, %rcx
 8330 009a 89C2     		movl	%eax, %edx
 8331 009c E8000000 		call	_ZN8UnitTest13ArrayAreCloseIA3_fS1_fEEbRKT_RKT0_iRKT1_
 8331      00
 8332 00a1 0FB6956B 		movzbl	-405(%rbp), %edx
 8332      FEFFFF
 8333 00a8 0FB6C0   		movzbl	%al, %eax
 8334 00ab 21D0     		andl	%edx, %eax
 8335 00ad 85C0     		testl	%eax, %eax
 8336 00af 0F95C0   		setne	%al
 8337 00b2 88856BFE 		movb	%al, -405(%rbp)
 8337      FFFF
 123:../Checks.h   ****     for (int i = 0; i < rows; ++i)
 8338              		.loc 6 123 0 discriminator 2
 8339 00b8 83856CFE 		addl	$1, -404(%rbp)
 8339      FFFF01
 8340              	.L374:
 123:../Checks.h   ****     for (int i = 0; i < rows; ++i)
 8341              		.loc 6 123 0 is_stmt 0 discriminator 1
 8342 00bf 8B856CFE 		movl	-404(%rbp), %eax
 8342      FFFF
 8343 00c5 3B8544FE 		cmpl	-444(%rbp), %eax
 8343      FFFF
 8344 00cb 0F8C77FF 		jl	.L375
 8344      FFFF
 8345              	.LBE121:
 8346              	.LBB122:
 125:../Checks.h   **** 
 126:../Checks.h   ****     if (!equal)
 8347              		.loc 6 126 0 is_stmt 1
 8348 00d1 0FB6856B 		movzbl	-405(%rbp), %eax
 8348      FEFFFF
 8349 00d8 83F001   		xorl	$1, %eax
 8350 00db 84C0     		testb	%al, %al
 8351 00dd 0F845002 		je	.L387
 8351      0000
 8352              	.LBB123:
 127:../Checks.h   ****     {
 128:../Checks.h   ****         UnitTest::MemoryOutStream stream;
 8353              		.loc 6 128 0
 8354 00e3 488D8580 		leaq	-384(%rbp), %rax
 8354      FEFFFF
 8355 00ea 4889C7   		movq	%rax, %rdi
 8356              	.LEHB214:
 8357 00ed E8000000 		call	_ZN8UnitTest15MemoryOutStreamC1Ev
 8357      00
 8358              	.LEHE214:
 129:../Checks.h   **** 
 130:../Checks.h   ****         stream << "Expected [ ";    
 8359              		.loc 6 130 0
 8360 00f2 488D8580 		leaq	-384(%rbp), %rax
 8360      FEFFFF
 8361 00f9 BE000000 		movl	$.LC99, %esi
 8361      00
 8362 00fe 4889C7   		movq	%rax, %rdi
 8363              	.LEHB215:
 8364 0101 E8000000 		call	_ZStlsISt11char_traitsIcEERSt13basic_ostreamIcT_ES5_PKc
 8364      00
 8365              	.LBB124:
 131:../Checks.h   **** 
 132:../Checks.h   **** 		for (int expectedRow = 0; expectedRow < rows; ++expectedRow)
 8366              		.loc 6 132 0
 8367 0106 C78570FE 		movl	$0, -400(%rbp)
 8367      FFFF0000 
 8367      0000
 8368 0110 E9A20000 		jmp	.L377
 8368      00
 8369              	.L380:
 8370              	.LBB125:
 133:../Checks.h   ****         {
 134:../Checks.h   ****             stream << "[ ";
 8371              		.loc 6 134 0
 8372 0115 488D8580 		leaq	-384(%rbp), %rax
 8372      FEFFFF
 8373 011c BE000000 		movl	$.LC105, %esi
 8373      00
 8374 0121 4889C7   		movq	%rax, %rdi
 8375 0124 E8000000 		call	_ZStlsISt11char_traitsIcEERSt13basic_ostreamIcT_ES5_PKc
 8375      00
 8376              	.LBB126:
 135:../Checks.h   ****             for (int expectedColumn = 0; expectedColumn < columns; ++expectedColumn)
 8377              		.loc 6 135 0
 8378 0129 C78574FE 		movl	$0, -396(%rbp)
 8378      FFFF0000 
 8378      0000
 8379 0133 EB59     		jmp	.L378
 8380              	.L379:
 136:../Checks.h   ****                 stream << expected[expectedRow][expectedColumn] << " ";
 8381              		.loc 6 136 0
 8382 0135 488B8D50 		movq	-432(%rbp), %rcx
 8382      FEFFFF
 8383 013c 8B8574FE 		movl	-396(%rbp), %eax
 8383      FFFF
 8384 0142 4863F0   		movslq	%eax, %rsi
 8385 0145 8B8570FE 		movl	-400(%rbp), %eax
 8385      FFFF
 8386 014b 4863D0   		movslq	%eax, %rdx
 8387 014e 4889D0   		movq	%rdx, %rax
 8388 0151 4801C0   		addq	%rax, %rax
 8389 0154 4801D0   		addq	%rdx, %rax
 8390 0157 4801F0   		addq	%rsi, %rax
 8391 015a 8B0481   		movl	(%rcx,%rax,4), %eax
 8392 015d 488D9580 		leaq	-384(%rbp), %rdx
 8392      FEFFFF
 8393 0164 898534FE 		movl	%eax, -460(%rbp)
 8393      FFFF
 8394 016a F30F1085 		movss	-460(%rbp), %xmm0
 8394      34FEFFFF 
 8395 0172 4889D7   		movq	%rdx, %rdi
 8396 0175 E8000000 		call	_ZNSolsEf
 8396      00
 8397 017a BE000000 		movl	$.LC100, %esi
 8397      00
 8398 017f 4889C7   		movq	%rax, %rdi
 8399 0182 E8000000 		call	_ZStlsISt11char_traitsIcEERSt13basic_ostreamIcT_ES5_PKc
 8399      00
 135:../Checks.h   ****             for (int expectedColumn = 0; expectedColumn < columns; ++expectedColumn)
 8400              		.loc 6 135 0
 8401 0187 838574FE 		addl	$1, -396(%rbp)
 8401      FFFF01
 8402              	.L378:
 135:../Checks.h   ****             for (int expectedColumn = 0; expectedColumn < columns; ++expectedColumn)
 8403              		.loc 6 135 0 is_stmt 0 discriminator 1
 8404 018e 8B8574FE 		movl	-396(%rbp), %eax
 8404      FFFF
 8405 0194 3B8540FE 		cmpl	-448(%rbp), %eax
 8405      FFFF
 8406 019a 7C99     		jl	.L379
 8407              	.LBE126:
 137:../Checks.h   ****             stream << "] ";
 8408              		.loc 6 137 0 is_stmt 1
 8409 019c 488D8580 		leaq	-384(%rbp), %rax
 8409      FEFFFF
 8410 01a3 BE000000 		movl	$.LC106, %esi
 8410      00
 8411 01a8 4889C7   		movq	%rax, %rdi
 8412 01ab E8000000 		call	_ZStlsISt11char_traitsIcEERSt13basic_ostreamIcT_ES5_PKc
 8412      00
 8413              	.LBE125:
 132:../Checks.h   ****         {
 8414              		.loc 6 132 0
 8415 01b0 838570FE 		addl	$1, -400(%rbp)
 8415      FFFF01
 8416              	.L377:
 132:../Checks.h   ****         {
 8417              		.loc 6 132 0 is_stmt 0 discriminator 1
 8418 01b7 8B8570FE 		movl	-400(%rbp), %eax
 8418      FFFF
 8419 01bd 3B8544FE 		cmpl	-444(%rbp), %eax
 8419      FFFF
 8420 01c3 0F8C4CFF 		jl	.L380
 8420      FFFF
 8421              	.LBE124:
 138:../Checks.h   ****         }
 139:../Checks.h   **** 
 140:../Checks.h   **** 		stream << "] +/- " << tolerance << " but was [ ";
 8422              		.loc 6 140 0 is_stmt 1
 8423 01c9 488B8538 		movq	-456(%rbp), %rax
 8423      FEFFFF
 8424 01d0 8B18     		movl	(%rax), %ebx
 8425 01d2 488D8580 		leaq	-384(%rbp), %rax
 8425      FEFFFF
 8426 01d9 BE000000 		movl	$.LC103, %esi
 8426      00
 8427 01de 4889C7   		movq	%rax, %rdi
 8428 01e1 E8000000 		call	_ZStlsISt11char_traitsIcEERSt13basic_ostreamIcT_ES5_PKc
 8428      00
 8429 01e6 899D34FE 		movl	%ebx, -460(%rbp)
 8429      FFFF
 8430 01ec F30F1085 		movss	-460(%rbp), %xmm0
 8430      34FEFFFF 
 8431 01f4 4889C7   		movq	%rax, %rdi
 8432 01f7 E8000000 		call	_ZNSolsEf
 8432      00
 8433              		.loc 6 140 0 is_stmt 0 discriminator 1
 8434 01fc BE000000 		movl	$.LC104, %esi
 8434      00
 8435 0201 4889C7   		movq	%rax, %rdi
 8436 0204 E8000000 		call	_ZStlsISt11char_traitsIcEERSt13basic_ostreamIcT_ES5_PKc
 8436      00
 8437              	.LBB127:
 141:../Checks.h   **** 
 142:../Checks.h   **** 		for (int actualRow = 0; actualRow < rows; ++actualRow)
 8438              		.loc 6 142 0 is_stmt 1
 8439 0209 C78578FE 		movl	$0, -392(%rbp)
 8439      FFFF0000 
 8439      0000
 8440 0213 E9A20000 		jmp	.L381
 8440      00
 8441              	.L384:
 8442              	.LBB128:
 143:../Checks.h   ****         {
 144:../Checks.h   ****             stream << "[ ";
 8443              		.loc 6 144 0
 8444 0218 488D8580 		leaq	-384(%rbp), %rax
 8444      FEFFFF
 8445 021f BE000000 		movl	$.LC105, %esi
 8445      00
 8446 0224 4889C7   		movq	%rax, %rdi
 8447 0227 E8000000 		call	_ZStlsISt11char_traitsIcEERSt13basic_ostreamIcT_ES5_PKc
 8447      00
 8448              	.LBB129:
 145:../Checks.h   ****             for (int actualColumn = 0; actualColumn < columns; ++actualColumn)
 8449              		.loc 6 145 0
 8450 022c C7857CFE 		movl	$0, -388(%rbp)
 8450      FFFF0000 
 8450      0000
 8451 0236 EB59     		jmp	.L382
 8452              	.L383:
 146:../Checks.h   ****                 stream << actual[actualRow][actualColumn] << " ";
 8453              		.loc 6 146 0
 8454 0238 488B8D48 		movq	-440(%rbp), %rcx
 8454      FEFFFF
 8455 023f 8B857CFE 		movl	-388(%rbp), %eax
 8455      FFFF
 8456 0245 4863F0   		movslq	%eax, %rsi
 8457 0248 8B8578FE 		movl	-392(%rbp), %eax
 8457      FFFF
 8458 024e 4863D0   		movslq	%eax, %rdx
 8459 0251 4889D0   		movq	%rdx, %rax
 8460 0254 4801C0   		addq	%rax, %rax
 8461 0257 4801D0   		addq	%rdx, %rax
 8462 025a 4801F0   		addq	%rsi, %rax
 8463 025d 8B0481   		movl	(%rcx,%rax,4), %eax
 8464 0260 488D9580 		leaq	-384(%rbp), %rdx
 8464      FEFFFF
 8465 0267 898534FE 		movl	%eax, -460(%rbp)
 8465      FFFF
 8466 026d F30F1085 		movss	-460(%rbp), %xmm0
 8466      34FEFFFF 
 8467 0275 4889D7   		movq	%rdx, %rdi
 8468 0278 E8000000 		call	_ZNSolsEf
 8468      00
 8469 027d BE000000 		movl	$.LC100, %esi
 8469      00
 8470 0282 4889C7   		movq	%rax, %rdi
 8471 0285 E8000000 		call	_ZStlsISt11char_traitsIcEERSt13basic_ostreamIcT_ES5_PKc
 8471      00
 145:../Checks.h   ****             for (int actualColumn = 0; actualColumn < columns; ++actualColumn)
 8472              		.loc 6 145 0
 8473 028a 83857CFE 		addl	$1, -388(%rbp)
 8473      FFFF01
 8474              	.L382:
 145:../Checks.h   ****             for (int actualColumn = 0; actualColumn < columns; ++actualColumn)
 8475              		.loc 6 145 0 is_stmt 0 discriminator 1
 8476 0291 8B857CFE 		movl	-388(%rbp), %eax
 8476      FFFF
 8477 0297 3B8540FE 		cmpl	-448(%rbp), %eax
 8477      FFFF
 8478 029d 7C99     		jl	.L383
 8479              	.LBE129:
 147:../Checks.h   ****             stream << "] ";
 8480              		.loc 6 147 0 is_stmt 1
 8481 029f 488D8580 		leaq	-384(%rbp), %rax
 8481      FEFFFF
 8482 02a6 BE000000 		movl	$.LC106, %esi
 8482      00
 8483 02ab 4889C7   		movq	%rax, %rdi
 8484 02ae E8000000 		call	_ZStlsISt11char_traitsIcEERSt13basic_ostreamIcT_ES5_PKc
 8484      00
 8485              	.LBE128:
 142:../Checks.h   ****         {
 8486              		.loc 6 142 0
 8487 02b3 838578FE 		addl	$1, -392(%rbp)
 8487      FFFF01
 8488              	.L381:
 142:../Checks.h   ****         {
 8489              		.loc 6 142 0 is_stmt 0 discriminator 1
 8490 02ba 8B8578FE 		movl	-392(%rbp), %eax
 8490      FFFF
 8491 02c0 3B8544FE 		cmpl	-444(%rbp), %eax
 8491      FFFF
 8492 02c6 0F8C4CFF 		jl	.L384
 8492      FFFF
 8493              	.LBE127:
 148:../Checks.h   ****         }
 149:../Checks.h   **** 
 150:../Checks.h   **** 		stream << "]";
 8494              		.loc 6 150 0 is_stmt 1
 8495 02cc 488D8580 		leaq	-384(%rbp), %rax
 8495      FEFFFF
 8496 02d3 BE000000 		movl	$.LC102, %esi
 8496      00
 8497 02d8 4889C7   		movq	%rax, %rdi
 8498 02db E8000000 		call	_ZStlsISt11char_traitsIcEERSt13basic_ostreamIcT_ES5_PKc
 8498      00
 151:../Checks.h   **** 
 152:../Checks.h   ****         results.OnTestFailure(details, stream.GetText());
 8499              		.loc 6 152 0
 8500 02e0 488D8580 		leaq	-384(%rbp), %rax
 8500      FEFFFF
 8501 02e7 4889C7   		movq	%rax, %rdi
 8502 02ea E8000000 		call	_ZNK8UnitTest15MemoryOutStream7GetTextEv
 8502      00
 8503 02ef 4889C2   		movq	%rax, %rdx
 8504 02f2 488B8558 		movq	-424(%rbp), %rax
 8504      FEFFFF
 8505 02f9 488B7510 		movq	16(%rbp), %rsi
 8506 02fd 4889C7   		movq	%rax, %rdi
 8507 0300 E8000000 		call	_ZN8UnitTest11TestResults13OnTestFailureERKNS_11TestDetailsEPKc
 8507      00
 8508              	.LEHE215:
 8509              		.loc 6 152 0 is_stmt 0 discriminator 1
 8510 0305 488D8580 		leaq	-384(%rbp), %rax
 8510      FEFFFF
 8511 030c 4889C7   		movq	%rax, %rdi
 8512              	.LEHB216:
 8513 030f E8000000 		call	_ZN8UnitTest15MemoryOutStreamD1Ev
 8513      00
 8514              	.LEHE216:
 8515              	.LBE123:
 8516 0314 EB1D     		jmp	.L387
 8517              	.L386:
 8518 0316 4889C3   		movq	%rax, %rbx
 8519              	.LBB130:
 8520              		.loc 6 152 0
 8521 0319 488D8580 		leaq	-384(%rbp), %rax
 8521      FEFFFF
 8522 0320 4889C7   		movq	%rax, %rdi
 8523 0323 E8000000 		call	_ZN8UnitTest15MemoryOutStreamD1Ev
 8523      00
 8524 0328 4889D8   		movq	%rbx, %rax
 8525 032b 4889C7   		movq	%rax, %rdi
 8526              	.LEHB217:
 8527 032e E8000000 		call	_Unwind_Resume
 8527      00
 8528              	.LEHE217:
 8529              	.L387:
 8530              	.LBE130:
 8531              	.LBE122:
 8532              	.LBE120:
 153:../Checks.h   ****     }
 154:../Checks.h   **** }
 8533              		.loc 6 154 0 is_stmt 1
 8534 0333 4881C4C8 		addq	$456, %rsp
 8534      010000
 8535 033a 5B       		popq	%rbx
 8536 033b 5D       		popq	%rbp
 8537              		.cfi_def_cfa 7, 8
 8538 033c C3       		ret
 8539              		.cfi_endproc
 8540              	.LFE1172:
 8541              		.section	.gcc_except_table
 8542              	.LLSDA1172:
 8543 05ba FF       		.byte	0xff
 8544 05bb FF       		.byte	0xff
 8545 05bc 01       		.byte	0x1
 8546 05bd 16       		.uleb128 .LLSDACSE1172-.LLSDACSB1172
 8547              	.LLSDACSB1172:
 8548 05be ED01     		.uleb128 .LEHB214-.LFB1172
 8549 05c0 05       		.uleb128 .LEHE214-.LEHB214
 8550 05c1 00       		.uleb128 0
 8551 05c2 00       		.uleb128 0
 8552 05c3 8102     		.uleb128 .LEHB215-.LFB1172
 8553 05c5 8404     		.uleb128 .LEHE215-.LEHB215
 8554 05c7 9606     		.uleb128 .L386-.LFB1172
 8555 05c9 00       		.uleb128 0
 8556 05ca 8F06     		.uleb128 .LEHB216-.LFB1172
 8557 05cc 05       		.uleb128 .LEHE216-.LEHB216
 8558 05cd 00       		.uleb128 0
 8559 05ce 00       		.uleb128 0
 8560 05cf AE06     		.uleb128 .LEHB217-.LFB1172
 8561 05d1 05       		.uleb128 .LEHE217-.LEHB217
 8562 05d2 00       		.uleb128 0
 8563 05d3 00       		.uleb128 0
 8564              	.LLSDACSE1172:
 8565              		.section	.text._ZN8UnitTest17CheckArray2DCloseIA3_A3_fS2_fEEvRNS_11TestResultsERKT_RKT0_iiRKT1_RKN
 8567              		.section	.text._ZN8UnitTest10CheckCloseIdddEEvRNS_11TestResultsERKT_RKT0_RKT1_RKNS_11TestDetailsE,
 8568              		.weak	_ZN8UnitTest10CheckCloseIdddEEvRNS_11TestResultsERKT_RKT0_RKT1_RKNS_11TestDetailsE
 8570              	_ZN8UnitTest10CheckCloseIdddEEvRNS_11TestResultsERKT_RKT0_RKT1_RKNS_11TestDetailsE:
 8571              	.LFB1173:
  45:../Checks.h   ****                 TestDetails const& details)
 8572              		.loc 6 45 0
 8573              		.cfi_startproc
 8574              		.cfi_personality 0x3,__gxx_personality_v0
 8575              		.cfi_lsda 0x3,.LLSDA1173
 8576 0000 55       		pushq	%rbp
 8577              		.cfi_def_cfa_offset 16
 8578              		.cfi_offset 6, -16
 8579 0001 4889E5   		movq	%rsp, %rbp
 8580              		.cfi_def_cfa_register 6
 8581 0004 4155     		pushq	%r13
 8582 0006 4154     		pushq	%r12
 8583 0008 53       		pushq	%rbx
 8584 0009 4881ECA8 		subq	$424, %rsp
 8584      010000
 8585              		.cfi_offset 13, -24
 8586              		.cfi_offset 12, -32
 8587              		.cfi_offset 3, -40
 8588 0010 4889BD68 		movq	%rdi, -408(%rbp)
 8588      FEFFFF
 8589 0017 4889B560 		movq	%rsi, -416(%rbp)
 8589      FEFFFF
 8590 001e 48899558 		movq	%rdx, -424(%rbp)
 8590      FEFFFF
 8591 0025 48898D50 		movq	%rcx, -432(%rbp)
 8591      FEFFFF
 8592 002c 4C898548 		movq	%r8, -440(%rbp)
 8592      FEFFFF
 8593              	.LBB131:
 8594              	.LBB132:
  48:../Checks.h   ****     { 
 8595              		.loc 6 48 0
 8596 0033 488B9550 		movq	-432(%rbp), %rdx
 8596      FEFFFF
 8597 003a 488B8D58 		movq	-424(%rbp), %rcx
 8597      FEFFFF
 8598 0041 488B8560 		movq	-416(%rbp), %rax
 8598      FEFFFF
 8599 0048 4889CE   		movq	%rcx, %rsi
 8600 004b 4889C7   		movq	%rax, %rdi
 8601 004e E8000000 		call	_ZN8UnitTest8AreCloseIdddEEbRKT_RKT0_RKT1_
 8601      00
 8602 0053 83F001   		xorl	$1, %eax
 8603 0056 84C0     		testb	%al, %al
 8604 0058 0F84F900 		je	.L392
 8604      0000
 8605              	.LBB133:
  50:../Checks.h   ****         stream << "Expected " << expected << " +/- " << tolerance << " but was " << actual;
 8606              		.loc 6 50 0
 8607 005e 488D8570 		leaq	-400(%rbp), %rax
 8607      FEFFFF
 8608 0065 4889C7   		movq	%rax, %rdi
 8609              	.LEHB218:
 8610 0068 E8000000 		call	_ZN8UnitTest15MemoryOutStreamC1Ev
 8610      00
 8611              	.LEHE218:
  51:../Checks.h   **** 
 8612              		.loc 6 51 0
 8613 006d 488B8558 		movq	-424(%rbp), %rax
 8613      FEFFFF
 8614 0074 488B18   		movq	(%rax), %rbx
 8615 0077 488B8550 		movq	-432(%rbp), %rax
 8615      FEFFFF
 8616 007e 4C8B20   		movq	(%rax), %r12
 8617 0081 488B8560 		movq	-416(%rbp), %rax
 8617      FEFFFF
 8618 0088 4C8B28   		movq	(%rax), %r13
 8619 008b 488D8570 		leaq	-400(%rbp), %rax
 8619      FEFFFF
 8620 0092 BE000000 		movl	$.LC96, %esi
 8620      00
 8621 0097 4889C7   		movq	%rax, %rdi
 8622              	.LEHB219:
 8623 009a E8000000 		call	_ZStlsISt11char_traitsIcEERSt13basic_ostreamIcT_ES5_PKc
 8623      00
 8624 009f 4C89AD40 		movq	%r13, -448(%rbp)
 8624      FEFFFF
 8625 00a6 F20F1085 		movsd	-448(%rbp), %xmm0
 8625      40FEFFFF 
 8626 00ae 4889C7   		movq	%rax, %rdi
 8627 00b1 E8000000 		call	_ZNSolsEd
 8627      00
  51:../Checks.h   **** 
 8628              		.loc 6 51 0 is_stmt 0 discriminator 1
 8629 00b6 BE000000 		movl	$.LC98, %esi
 8629      00
 8630 00bb 4889C7   		movq	%rax, %rdi
 8631 00be E8000000 		call	_ZStlsISt11char_traitsIcEERSt13basic_ostreamIcT_ES5_PKc
 8631      00
 8632 00c3 4C89A540 		movq	%r12, -448(%rbp)
 8632      FEFFFF
 8633 00ca F20F1085 		movsd	-448(%rbp), %xmm0
 8633      40FEFFFF 
 8634 00d2 4889C7   		movq	%rax, %rdi
 8635 00d5 E8000000 		call	_ZNSolsEd
 8635      00
 8636 00da BE000000 		movl	$.LC97, %esi
 8636      00
 8637 00df 4889C7   		movq	%rax, %rdi
 8638 00e2 E8000000 		call	_ZStlsISt11char_traitsIcEERSt13basic_ostreamIcT_ES5_PKc
 8638      00
 8639 00e7 48899D40 		movq	%rbx, -448(%rbp)
 8639      FEFFFF
 8640 00ee F20F1085 		movsd	-448(%rbp), %xmm0
 8640      40FEFFFF 
 8641 00f6 4889C7   		movq	%rax, %rdi
 8642 00f9 E8000000 		call	_ZNSolsEd
 8642      00
  53:../Checks.h   ****     }
 8643              		.loc 6 53 0 is_stmt 1
 8644 00fe 488D8570 		leaq	-400(%rbp), %rax
 8644      FEFFFF
 8645 0105 4889C7   		movq	%rax, %rdi
 8646 0108 E8000000 		call	_ZNK8UnitTest15MemoryOutStream7GetTextEv
 8646      00
 8647 010d 4889C2   		movq	%rax, %rdx
 8648 0110 488B8D48 		movq	-440(%rbp), %rcx
 8648      FEFFFF
 8649 0117 488B8568 		movq	-408(%rbp), %rax
 8649      FEFFFF
 8650 011e 4889CE   		movq	%rcx, %rsi
 8651 0121 4889C7   		movq	%rax, %rdi
 8652 0124 E8000000 		call	_ZN8UnitTest11TestResults13OnTestFailureERKNS_11TestDetailsEPKc
 8652      00
 8653              	.LEHE219:
  53:../Checks.h   ****     }
 8654              		.loc 6 53 0 is_stmt 0 discriminator 1
 8655 0129 488D8570 		leaq	-400(%rbp), %rax
 8655      FEFFFF
 8656 0130 4889C7   		movq	%rax, %rdi
 8657              	.LEHB220:
 8658 0133 E8000000 		call	_ZN8UnitTest15MemoryOutStreamD1Ev
 8658      00
 8659              	.LEHE220:
 8660              	.LBE133:
 8661 0138 EB1D     		jmp	.L392
 8662              	.L391:
 8663 013a 4889C3   		movq	%rax, %rbx
 8664              	.LBB134:
  53:../Checks.h   ****     }
 8665              		.loc 6 53 0
 8666 013d 488D8570 		leaq	-400(%rbp), %rax
 8666      FEFFFF
 8667 0144 4889C7   		movq	%rax, %rdi
 8668 0147 E8000000 		call	_ZN8UnitTest15MemoryOutStreamD1Ev
 8668      00
 8669 014c 4889D8   		movq	%rbx, %rax
 8670 014f 4889C7   		movq	%rax, %rdi
 8671              	.LEHB221:
 8672 0152 E8000000 		call	_Unwind_Resume
 8672      00
 8673              	.LEHE221:
 8674              	.L392:
 8675              	.LBE134:
 8676              	.LBE132:
 8677              	.LBE131:
  55:../Checks.h   **** 
 8678              		.loc 6 55 0 is_stmt 1
 8679 0157 4881C4A8 		addq	$424, %rsp
 8679      010000
 8680 015e 5B       		popq	%rbx
 8681 015f 415C     		popq	%r12
 8682 0161 415D     		popq	%r13
 8683 0163 5D       		popq	%rbp
 8684              		.cfi_def_cfa 7, 8
 8685 0164 C3       		ret
 8686              		.cfi_endproc
 8687              	.LFE1173:
 8688              		.section	.gcc_except_table
 8689              	.LLSDA1173:
 8690 05d4 FF       		.byte	0xff
 8691 05d5 FF       		.byte	0xff
 8692 05d6 01       		.byte	0x1
 8693 05d7 15       		.uleb128 .LLSDACSE1173-.LLSDACSB1173
 8694              	.LLSDACSB1173:
 8695 05d8 68       		.uleb128 .LEHB218-.LFB1173
 8696 05d9 05       		.uleb128 .LEHE218-.LEHB218
 8697 05da 00       		.uleb128 0
 8698 05db 00       		.uleb128 0
 8699 05dc 9A01     		.uleb128 .LEHB219-.LFB1173
 8700 05de 8F01     		.uleb128 .LEHE219-.LEHB219
 8701 05e0 BA02     		.uleb128 .L391-.LFB1173
 8702 05e2 00       		.uleb128 0
 8703 05e3 B302     		.uleb128 .LEHB220-.LFB1173
 8704 05e5 05       		.uleb128 .LEHE220-.LEHB220
 8705 05e6 00       		.uleb128 0
 8706 05e7 00       		.uleb128 0
 8707 05e8 D202     		.uleb128 .LEHB221-.LFB1173
 8708 05ea 05       		.uleb128 .LEHE221-.LEHB221
 8709 05eb 00       		.uleb128 0
 8710 05ec 00       		.uleb128 0
 8711              	.LLSDACSE1173:
 8712              		.section	.text._ZN8UnitTest10CheckCloseIdddEEvRNS_11TestResultsERKT_RKT0_RKT1_RKNS_11TestDetailsE,
 8714              		.section	.text._ZN8UnitTest8AreCloseIfffEEbRKT_RKT0_RKT1_,"axG",@progbits,_ZN8UnitTest8AreCloseIff
 8715              		.weak	_ZN8UnitTest8AreCloseIfffEEbRKT_RKT0_RKT1_
 8717              	_ZN8UnitTest8AreCloseIfffEEbRKT_RKT0_RKT1_:
 8718              	.LFB1204:
  39:../Checks.h   **** {
 8719              		.loc 6 39 0
 8720              		.cfi_startproc
 8721 0000 55       		pushq	%rbp
 8722              		.cfi_def_cfa_offset 16
 8723              		.cfi_offset 6, -16
 8724 0001 4889E5   		movq	%rsp, %rbp
 8725              		.cfi_def_cfa_register 6
 8726 0004 48897DF8 		movq	%rdi, -8(%rbp)
 8727 0008 488975F0 		movq	%rsi, -16(%rbp)
 8728 000c 488955E8 		movq	%rdx, -24(%rbp)
  41:../Checks.h   **** }
 8729              		.loc 6 41 0
 8730 0010 488B45F0 		movq	-16(%rbp), %rax
 8731 0014 F30F1008 		movss	(%rax), %xmm1
 8732 0018 488B45F8 		movq	-8(%rbp), %rax
 8733 001c F30F1000 		movss	(%rax), %xmm0
 8734 0020 488B45E8 		movq	-24(%rbp), %rax
 8735 0024 F30F1010 		movss	(%rax), %xmm2
 8736 0028 F30F5CC2 		subss	%xmm2, %xmm0
 8737 002c 0F2EC8   		ucomiss	%xmm0, %xmm1
 8738 002f 7228     		jb	.L394
  41:../Checks.h   **** }
 8739              		.loc 6 41 0 is_stmt 0 discriminator 1
 8740 0031 488B45F0 		movq	-16(%rbp), %rax
 8741 0035 F30F1008 		movss	(%rax), %xmm1
 8742 0039 488B45F8 		movq	-8(%rbp), %rax
 8743 003d F30F1010 		movss	(%rax), %xmm2
 8744 0041 488B45E8 		movq	-24(%rbp), %rax
 8745 0045 F30F1000 		movss	(%rax), %xmm0
 8746 0049 F30F58C2 		addss	%xmm2, %xmm0
 8747 004d 0F2EC1   		ucomiss	%xmm1, %xmm0
 8748 0050 7207     		jb	.L394
  41:../Checks.h   **** }
 8749              		.loc 6 41 0 discriminator 3
 8750 0052 B8010000 		movl	$1, %eax
 8750      00
 8751 0057 EB05     		jmp	.L397
 8752              	.L394:
  41:../Checks.h   **** }
 8753              		.loc 6 41 0 discriminator 2
 8754 0059 B8000000 		movl	$0, %eax
 8754      00
 8755              	.L397:
  42:../Checks.h   **** 
 8756              		.loc 6 42 0 is_stmt 1 discriminator 4
 8757 005e 5D       		popq	%rbp
 8758              		.cfi_def_cfa 7, 8
 8759 005f C3       		ret
 8760              		.cfi_endproc
 8761              	.LFE1204:
 8763              		.section	.text._ZN8UnitTest8AreCloseIffiEEbRKT_RKT0_RKT1_,"axG",@progbits,_ZN8UnitTest8AreCloseIff
 8764              		.weak	_ZN8UnitTest8AreCloseIffiEEbRKT_RKT0_RKT1_
 8766              	_ZN8UnitTest8AreCloseIffiEEbRKT_RKT0_RKT1_:
 8767              	.LFB1206:
  39:../Checks.h   **** {
 8768              		.loc 6 39 0
 8769              		.cfi_startproc
 8770 0000 55       		pushq	%rbp
 8771              		.cfi_def_cfa_offset 16
 8772              		.cfi_offset 6, -16
 8773 0001 4889E5   		movq	%rsp, %rbp
 8774              		.cfi_def_cfa_register 6
 8775 0004 48897DF8 		movq	%rdi, -8(%rbp)
 8776 0008 488975F0 		movq	%rsi, -16(%rbp)
 8777 000c 488955E8 		movq	%rdx, -24(%rbp)
  41:../Checks.h   **** }
 8778              		.loc 6 41 0
 8779 0010 488B45F0 		movq	-16(%rbp), %rax
 8780 0014 F30F1008 		movss	(%rax), %xmm1
 8781 0018 488B45F8 		movq	-8(%rbp), %rax
 8782 001c F30F1010 		movss	(%rax), %xmm2
 8783 0020 488B45E8 		movq	-24(%rbp), %rax
 8784 0024 8B00     		movl	(%rax), %eax
 8785 0026 F30F2AC0 		cvtsi2ss	%eax, %xmm0
 8786 002a F30F5CD0 		subss	%xmm0, %xmm2
 8787 002e 0F28C2   		movaps	%xmm2, %xmm0
 8788 0031 0F2EC8   		ucomiss	%xmm0, %xmm1
 8789 0034 722A     		jb	.L402
  41:../Checks.h   **** }
 8790              		.loc 6 41 0 is_stmt 0 discriminator 1
 8791 0036 488B45F0 		movq	-16(%rbp), %rax
 8792 003a F30F1008 		movss	(%rax), %xmm1
 8793 003e 488B45F8 		movq	-8(%rbp), %rax
 8794 0042 F30F1010 		movss	(%rax), %xmm2
 8795 0046 488B45E8 		movq	-24(%rbp), %rax
 8796 004a 8B00     		movl	(%rax), %eax
 8797 004c F30F2AC0 		cvtsi2ss	%eax, %xmm0
 8798 0050 F30F58C2 		addss	%xmm2, %xmm0
 8799 0054 0F2EC1   		ucomiss	%xmm1, %xmm0
 8800 0057 7207     		jb	.L402
  41:../Checks.h   **** }
 8801              		.loc 6 41 0 discriminator 3
 8802 0059 B8010000 		movl	$1, %eax
 8802      00
 8803 005e EB05     		jmp	.L405
 8804              	.L402:
  41:../Checks.h   **** }
 8805              		.loc 6 41 0 discriminator 2
 8806 0060 B8000000 		movl	$0, %eax
 8806      00
 8807              	.L405:
  42:../Checks.h   **** 
 8808              		.loc 6 42 0 is_stmt 1 discriminator 4
 8809 0065 5D       		popq	%rbp
 8810              		.cfi_def_cfa 7, 8
 8811 0066 C3       		ret
 8812              		.cfi_endproc
 8813              	.LFE1206:
 8815              		.section	.text._ZN8UnitTest8AreCloseIiifEEbRKT_RKT0_RKT1_,"axG",@progbits,_ZN8UnitTest8AreCloseIii
 8816              		.weak	_ZN8UnitTest8AreCloseIiifEEbRKT_RKT0_RKT1_
 8818              	_ZN8UnitTest8AreCloseIiifEEbRKT_RKT0_RKT1_:
 8819              	.LFB1207:
  39:../Checks.h   **** {
 8820              		.loc 6 39 0
 8821              		.cfi_startproc
 8822 0000 55       		pushq	%rbp
 8823              		.cfi_def_cfa_offset 16
 8824              		.cfi_offset 6, -16
 8825 0001 4889E5   		movq	%rsp, %rbp
 8826              		.cfi_def_cfa_register 6
 8827 0004 48897DF8 		movq	%rdi, -8(%rbp)
 8828 0008 488975F0 		movq	%rsi, -16(%rbp)
 8829 000c 488955E8 		movq	%rdx, -24(%rbp)
  41:../Checks.h   **** }
 8830              		.loc 6 41 0
 8831 0010 488B45F0 		movq	-16(%rbp), %rax
 8832 0014 8B00     		movl	(%rax), %eax
 8833 0016 F30F2AC0 		cvtsi2ss	%eax, %xmm0
 8834 001a 488B45F8 		movq	-8(%rbp), %rax
 8835 001e 8B00     		movl	(%rax), %eax
 8836 0020 F30F2AC8 		cvtsi2ss	%eax, %xmm1
 8837 0024 488B45E8 		movq	-24(%rbp), %rax
 8838 0028 F30F1010 		movss	(%rax), %xmm2
 8839 002c F30F5CCA 		subss	%xmm2, %xmm1
 8840 0030 0F2EC1   		ucomiss	%xmm1, %xmm0
 8841 0033 722C     		jb	.L410
  41:../Checks.h   **** }
 8842              		.loc 6 41 0 is_stmt 0 discriminator 1
 8843 0035 488B45F0 		movq	-16(%rbp), %rax
 8844 0039 8B00     		movl	(%rax), %eax
 8845 003b F30F2AC8 		cvtsi2ss	%eax, %xmm1
 8846 003f 488B45F8 		movq	-8(%rbp), %rax
 8847 0043 8B00     		movl	(%rax), %eax
 8848 0045 F30F2AC0 		cvtsi2ss	%eax, %xmm0
 8849 0049 488B45E8 		movq	-24(%rbp), %rax
 8850 004d F30F1010 		movss	(%rax), %xmm2
 8851 0051 F30F58C2 		addss	%xmm2, %xmm0
 8852 0055 0F2EC1   		ucomiss	%xmm1, %xmm0
 8853 0058 7207     		jb	.L410
  41:../Checks.h   **** }
 8854              		.loc 6 41 0 discriminator 3
 8855 005a B8010000 		movl	$1, %eax
 8855      00
 8856 005f EB05     		jmp	.L413
 8857              	.L410:
  41:../Checks.h   **** }
 8858              		.loc 6 41 0 discriminator 2
 8859 0061 B8000000 		movl	$0, %eax
 8859      00
 8860              	.L413:
  42:../Checks.h   **** 
 8861              		.loc 6 42 0 is_stmt 1 discriminator 4
 8862 0066 5D       		popq	%rbp
 8863              		.cfi_def_cfa 7, 8
 8864 0067 C3       		ret
 8865              		.cfi_endproc
 8866              	.LFE1207:
 8868              		.section	.text._ZN8UnitTest13ArrayAreCloseIA3_fS1_fEEbRKT_RKT0_iRKT1_,"axG",@progbits,_ZN8UnitTest
 8869              		.weak	_ZN8UnitTest13ArrayAreCloseIA3_fS1_fEEbRKT_RKT0_iRKT1_
 8871              	_ZN8UnitTest13ArrayAreCloseIA3_fS1_fEEbRKT_RKT0_iRKT1_:
 8872              	.LFB1208:
  87:../Checks.h   **** {
 8873              		.loc 6 87 0
 8874              		.cfi_startproc
 8875 0000 55       		pushq	%rbp
 8876              		.cfi_def_cfa_offset 16
 8877              		.cfi_offset 6, -16
 8878 0001 4889E5   		movq	%rsp, %rbp
 8879              		.cfi_def_cfa_register 6
 8880 0004 4883EC30 		subq	$48, %rsp
 8881 0008 48897DE8 		movq	%rdi, -24(%rbp)
 8882 000c 488975E0 		movq	%rsi, -32(%rbp)
 8883 0010 8955DC   		movl	%edx, -36(%rbp)
 8884 0013 48894DD0 		movq	%rcx, -48(%rbp)
 8885              	.LBB135:
  89:../Checks.h   ****     for (int i = 0; i < count; ++i)
 8886              		.loc 6 89 0
 8887 0017 C645FB01 		movb	$1, -5(%rbp)
 8888              	.LBB136:
  90:../Checks.h   ****         equal &= AreClose(expected[i], actual[i], tolerance);
 8889              		.loc 6 90 0
 8890 001b C745FC00 		movl	$0, -4(%rbp)
 8890      000000
 8891 0022 EB4E     		jmp	.L418
 8892              	.L419:
  91:../Checks.h   ****     return equal;
 8893              		.loc 6 91 0 discriminator 2
 8894 0024 8B45FC   		movl	-4(%rbp), %eax
 8895 0027 4898     		cltq
 8896 0029 488D1485 		leaq	0(,%rax,4), %rdx
 8896      00000000 
 8897 0031 488B45E0 		movq	-32(%rbp), %rax
 8898 0035 488D3402 		leaq	(%rdx,%rax), %rsi
 8899 0039 8B45FC   		movl	-4(%rbp), %eax
 8900 003c 4898     		cltq
 8901 003e 488D1485 		leaq	0(,%rax,4), %rdx
 8901      00000000 
 8902 0046 488B45E8 		movq	-24(%rbp), %rax
 8903 004a 488D0C02 		leaq	(%rdx,%rax), %rcx
 8904 004e 488B45D0 		movq	-48(%rbp), %rax
 8905 0052 4889C2   		movq	%rax, %rdx
 8906 0055 4889CF   		movq	%rcx, %rdi
 8907 0058 E8000000 		call	_ZN8UnitTest8AreCloseIfffEEbRKT_RKT0_RKT1_
 8907      00
 8908 005d 0FB655FB 		movzbl	-5(%rbp), %edx
 8909 0061 0FB6C0   		movzbl	%al, %eax
 8910 0064 21D0     		andl	%edx, %eax
 8911 0066 85C0     		testl	%eax, %eax
 8912 0068 0F95C0   		setne	%al
 8913 006b 8845FB   		movb	%al, -5(%rbp)
  90:../Checks.h   ****         equal &= AreClose(expected[i], actual[i], tolerance);
 8914              		.loc 6 90 0 discriminator 2
 8915 006e 8345FC01 		addl	$1, -4(%rbp)
 8916              	.L418:
  90:../Checks.h   ****         equal &= AreClose(expected[i], actual[i], tolerance);
 8917              		.loc 6 90 0 is_stmt 0 discriminator 1
 8918 0072 8B45FC   		movl	-4(%rbp), %eax
 8919 0075 3B45DC   		cmpl	-36(%rbp), %eax
 8920 0078 7CAA     		jl	.L419
 8921              	.LBE136:
  92:../Checks.h   **** }
 8922              		.loc 6 92 0 is_stmt 1
 8923 007a 0FB645FB 		movzbl	-5(%rbp), %eax
 8924              	.LBE135:
  93:../Checks.h   **** 
 8925              		.loc 6 93 0
 8926 007e C9       		leave
 8927              		.cfi_def_cfa 7, 8
 8928 007f C3       		ret
 8929              		.cfi_endproc
 8930              	.LFE1208:
 8932              		.section	.text._ZN8UnitTest8AreCloseIdddEEbRKT_RKT0_RKT1_,"axG",@progbits,_ZN8UnitTest8AreCloseIdd
 8933              		.weak	_ZN8UnitTest8AreCloseIdddEEbRKT_RKT0_RKT1_
 8935              	_ZN8UnitTest8AreCloseIdddEEbRKT_RKT0_RKT1_:
 8936              	.LFB1209:
  39:../Checks.h   **** {
 8937              		.loc 6 39 0
 8938              		.cfi_startproc
 8939 0000 55       		pushq	%rbp
 8940              		.cfi_def_cfa_offset 16
 8941              		.cfi_offset 6, -16
 8942 0001 4889E5   		movq	%rsp, %rbp
 8943              		.cfi_def_cfa_register 6
 8944 0004 48897DF8 		movq	%rdi, -8(%rbp)
 8945 0008 488975F0 		movq	%rsi, -16(%rbp)
 8946 000c 488955E8 		movq	%rdx, -24(%rbp)
  41:../Checks.h   **** }
 8947              		.loc 6 41 0
 8948 0010 488B45F0 		movq	-16(%rbp), %rax
 8949 0014 F20F1008 		movsd	(%rax), %xmm1
 8950 0018 488B45F8 		movq	-8(%rbp), %rax
 8951 001c F20F1000 		movsd	(%rax), %xmm0
 8952 0020 488B45E8 		movq	-24(%rbp), %rax
 8953 0024 F20F1010 		movsd	(%rax), %xmm2
 8954 0028 F20F5CC2 		subsd	%xmm2, %xmm0
 8955 002c 660F2EC8 		ucomisd	%xmm0, %xmm1
 8956 0030 7229     		jb	.L422
  41:../Checks.h   **** }
 8957              		.loc 6 41 0 is_stmt 0 discriminator 1
 8958 0032 488B45F0 		movq	-16(%rbp), %rax
 8959 0036 F20F1008 		movsd	(%rax), %xmm1
 8960 003a 488B45F8 		movq	-8(%rbp), %rax
 8961 003e F20F1010 		movsd	(%rax), %xmm2
 8962 0042 488B45E8 		movq	-24(%rbp), %rax
 8963 0046 F20F1000 		movsd	(%rax), %xmm0
 8964 004a F20F58C2 		addsd	%xmm2, %xmm0
 8965 004e 660F2EC1 		ucomisd	%xmm1, %xmm0
 8966 0052 7207     		jb	.L422
  41:../Checks.h   **** }
 8967              		.loc 6 41 0 discriminator 3
 8968 0054 B8010000 		movl	$1, %eax
 8968      00
 8969 0059 EB05     		jmp	.L425
 8970              	.L422:
  41:../Checks.h   **** }
 8971              		.loc 6 41 0 discriminator 2
 8972 005b B8000000 		movl	$0, %eax
 8972      00
 8973              	.L425:
  42:../Checks.h   **** 
 8974              		.loc 6 42 0 is_stmt 1 discriminator 4
 8975 0060 5D       		popq	%rbp
 8976              		.cfi_def_cfa 7, 8
 8977 0061 C3       		ret
 8978              		.cfi_endproc
 8979              	.LFE1209:
 8981              		.section	.rodata
 8982 0bfa 00000000 		.align 32
 8982      0000
 8985              	_ZTVN12_GLOBAL__N_143TestCheckArray2DCloseFailureIncludesDetailsE:
 8986 0c00 00000000 		.quad	0
 8986      00000000 
 8987 0c08 00000000 		.quad	_ZTIN12_GLOBAL__N_143TestCheckArray2DCloseFailureIncludesDetailsE
 8987      00000000 
 8988 0c10 00000000 		.quad	_ZN12_GLOBAL__N_143TestCheckArray2DCloseFailureIncludesDetailsD1Ev
 8988      00000000 
 8989 0c18 00000000 		.quad	_ZN12_GLOBAL__N_143TestCheckArray2DCloseFailureIncludesDetailsD0Ev
 8989      00000000 
 8990 0c20 00000000 		.quad	_ZNK12_GLOBAL__N_143TestCheckArray2DCloseFailureIncludesDetails7RunImplEv
 8990      00000000 
 8991              		.text
 8992 348b 90       		.align 2
 8994              	_ZN12_GLOBAL__N_143TestCheckArray2DCloseFailureIncludesDetailsD2Ev:
 8995              	.LFB1231:
 273:TestChecks.cpp **** {
 8996              		.loc 5 273 0
 8997              		.cfi_startproc
 8998 348c 55       		pushq	%rbp
 8999              		.cfi_def_cfa_offset 16
 9000              		.cfi_offset 6, -16
 9001 348d 4889E5   		movq	%rsp, %rbp
 9002              		.cfi_def_cfa_register 6
 9003 3490 4883EC10 		subq	$16, %rsp
 9004 3494 48897DF8 		movq	%rdi, -8(%rbp)
 9005              	.LBB137:
 273:TestChecks.cpp **** {
 9006              		.loc 5 273 0
 9007 3498 488B45F8 		movq	-8(%rbp), %rax
 9008 349c 48C70000 		movq	$_ZTVN12_GLOBAL__N_143TestCheckArray2DCloseFailureIncludesDetailsE+16, (%rax)
 9008      000000
 9009 34a3 488B45F8 		movq	-8(%rbp), %rax
 9010 34a7 4889C7   		movq	%rax, %rdi
 9011 34aa E8000000 		call	_ZN8UnitTest4TestD2Ev
 9011      00
 9012              	.LBE137:
 9013 34af B8000000 		movl	$0, %eax
 9013      00
 9014 34b4 85C0     		testl	%eax, %eax
 9015 34b6 740C     		je	.L429
 273:TestChecks.cpp **** {
 9016              		.loc 5 273 0 is_stmt 0 discriminator 1
 9017 34b8 488B45F8 		movq	-8(%rbp), %rax
 9018 34bc 4889C7   		movq	%rax, %rdi
 9019 34bf E8000000 		call	_ZdlPv
 9019      00
 9020              	.L429:
 273:TestChecks.cpp **** {
 9021              		.loc 5 273 0
 9022 34c4 C9       		leave
 9023              		.cfi_def_cfa 7, 8
 9024 34c5 C3       		ret
 9025              		.cfi_endproc
 9026              	.LFE1231:
 9028              		.set	_ZN12_GLOBAL__N_143TestCheckArray2DCloseFailureIncludesDetailsD1Ev,_ZN12_GLOBAL__N_143TestChe
 9029              		.align 2
 9031              	_ZN12_GLOBAL__N_143TestCheckArray2DCloseFailureIncludesDetailsD0Ev:
 9032              	.LFB1233:
 273:TestChecks.cpp **** {
 9033              		.loc 5 273 0 is_stmt 1
 9034              		.cfi_startproc
 9035 34c6 55       		pushq	%rbp
 9036              		.cfi_def_cfa_offset 16
 9037              		.cfi_offset 6, -16
 9038 34c7 4889E5   		movq	%rsp, %rbp
 9039              		.cfi_def_cfa_register 6
 9040 34ca 4883EC10 		subq	$16, %rsp
 9041 34ce 48897DF8 		movq	%rdi, -8(%rbp)
 273:TestChecks.cpp **** {
 9042              		.loc 5 273 0
 9043 34d2 488B45F8 		movq	-8(%rbp), %rax
 9044 34d6 4889C7   		movq	%rax, %rdi
 9045 34d9 E8AEFFFF 		call	_ZN12_GLOBAL__N_143TestCheckArray2DCloseFailureIncludesDetailsD1Ev
 9045      FF
 9046 34de 488B45F8 		movq	-8(%rbp), %rax
 9047 34e2 4889C7   		movq	%rax, %rdi
 9048 34e5 E8000000 		call	_ZdlPv
 9048      00
 9049 34ea C9       		leave
 9050              		.cfi_def_cfa 7, 8
 9051 34eb C3       		ret
 9052              		.cfi_endproc
 9053              	.LFE1233:
 9055              		.section	.rodata
 9056 0c28 00000000 		.align 32
 9056      00000000 
 9056      00000000 
 9056      00000000 
 9056      00000000 
 9059              	_ZTVN12_GLOBAL__N_133TestCheckCloseWithDoublesSucceedsE:
 9060 0c40 00000000 		.quad	0
 9060      00000000 
 9061 0c48 00000000 		.quad	_ZTIN12_GLOBAL__N_133TestCheckCloseWithDoublesSucceedsE
 9061      00000000 
 9062 0c50 00000000 		.quad	_ZN12_GLOBAL__N_133TestCheckCloseWithDoublesSucceedsD1Ev
 9062      00000000 
 9063 0c58 00000000 		.quad	_ZN12_GLOBAL__N_133TestCheckCloseWithDoublesSucceedsD0Ev
 9063      00000000 
 9064 0c60 00000000 		.quad	_ZNK12_GLOBAL__N_133TestCheckCloseWithDoublesSucceeds7RunImplEv
 9064      00000000 
 9065              		.text
 9066              		.align 2
 9068              	_ZN12_GLOBAL__N_133TestCheckCloseWithDoublesSucceedsD2Ev:
 9069              	.LFB1235:
 268:TestChecks.cpp **** {
 9070              		.loc 5 268 0
 9071              		.cfi_startproc
 9072 34ec 55       		pushq	%rbp
 9073              		.cfi_def_cfa_offset 16
 9074              		.cfi_offset 6, -16
 9075 34ed 4889E5   		movq	%rsp, %rbp
 9076              		.cfi_def_cfa_register 6
 9077 34f0 4883EC10 		subq	$16, %rsp
 9078 34f4 48897DF8 		movq	%rdi, -8(%rbp)
 9079              	.LBB138:
 268:TestChecks.cpp **** {
 9080              		.loc 5 268 0
 9081 34f8 488B45F8 		movq	-8(%rbp), %rax
 9082 34fc 48C70000 		movq	$_ZTVN12_GLOBAL__N_133TestCheckCloseWithDoublesSucceedsE+16, (%rax)
 9082      000000
 9083 3503 488B45F8 		movq	-8(%rbp), %rax
 9084 3507 4889C7   		movq	%rax, %rdi
 9085 350a E8000000 		call	_ZN8UnitTest4TestD2Ev
 9085      00
 9086              	.LBE138:
 9087 350f B8000000 		movl	$0, %eax
 9087      00
 9088 3514 85C0     		testl	%eax, %eax
 9089 3516 740C     		je	.L434
 268:TestChecks.cpp **** {
 9090              		.loc 5 268 0 is_stmt 0 discriminator 1
 9091 3518 488B45F8 		movq	-8(%rbp), %rax
 9092 351c 4889C7   		movq	%rax, %rdi
 9093 351f E8000000 		call	_ZdlPv
 9093      00
 9094              	.L434:
 268:TestChecks.cpp **** {
 9095              		.loc 5 268 0
 9096 3524 C9       		leave
 9097              		.cfi_def_cfa 7, 8
 9098 3525 C3       		ret
 9099              		.cfi_endproc
 9100              	.LFE1235:
 9102              		.set	_ZN12_GLOBAL__N_133TestCheckCloseWithDoublesSucceedsD1Ev,_ZN12_GLOBAL__N_133TestCheckCloseWit
 9103              		.align 2
 9105              	_ZN12_GLOBAL__N_133TestCheckCloseWithDoublesSucceedsD0Ev:
 9106              	.LFB1237:
 268:TestChecks.cpp **** {
 9107              		.loc 5 268 0 is_stmt 1
 9108              		.cfi_startproc
 9109 3526 55       		pushq	%rbp
 9110              		.cfi_def_cfa_offset 16
 9111              		.cfi_offset 6, -16
 9112 3527 4889E5   		movq	%rsp, %rbp
 9113              		.cfi_def_cfa_register 6
 9114 352a 4883EC10 		subq	$16, %rsp
 9115 352e 48897DF8 		movq	%rdi, -8(%rbp)
 268:TestChecks.cpp **** {
 9116              		.loc 5 268 0
 9117 3532 488B45F8 		movq	-8(%rbp), %rax
 9118 3536 4889C7   		movq	%rax, %rdi
 9119 3539 E8AEFFFF 		call	_ZN12_GLOBAL__N_133TestCheckCloseWithDoublesSucceedsD1Ev
 9119      FF
 9120 353e 488B45F8 		movq	-8(%rbp), %rax
 9121 3542 4889C7   		movq	%rax, %rdi
 9122 3545 E8000000 		call	_ZdlPv
 9122      00
 9123 354a C9       		leave
 9124              		.cfi_def_cfa 7, 8
 9125 354b C3       		ret
 9126              		.cfi_endproc
 9127              	.LFE1237:
 9129              		.section	.rodata
 9130 0c68 00000000 		.align 32
 9130      00000000 
 9130      00000000 
 9130      00000000 
 9130      00000000 
 9133              	_ZTVN12_GLOBAL__N_126TestCheckArray2DCloseFalseE:
 9134 0c80 00000000 		.quad	0
 9134      00000000 
 9135 0c88 00000000 		.quad	_ZTIN12_GLOBAL__N_126TestCheckArray2DCloseFalseE
 9135      00000000 
 9136 0c90 00000000 		.quad	_ZN12_GLOBAL__N_126TestCheckArray2DCloseFalseD1Ev
 9136      00000000 
 9137 0c98 00000000 		.quad	_ZN12_GLOBAL__N_126TestCheckArray2DCloseFalseD0Ev
 9137      00000000 
 9138 0ca0 00000000 		.quad	_ZNK12_GLOBAL__N_126TestCheckArray2DCloseFalse7RunImplEv
 9138      00000000 
 9139              		.text
 9140              		.align 2
 9142              	_ZN12_GLOBAL__N_126TestCheckArray2DCloseFalseD2Ev:
 9143              	.LFB1239:
 254:TestChecks.cpp **** {
 9144              		.loc 5 254 0
 9145              		.cfi_startproc
 9146 354c 55       		pushq	%rbp
 9147              		.cfi_def_cfa_offset 16
 9148              		.cfi_offset 6, -16
 9149 354d 4889E5   		movq	%rsp, %rbp
 9150              		.cfi_def_cfa_register 6
 9151 3550 4883EC10 		subq	$16, %rsp
 9152 3554 48897DF8 		movq	%rdi, -8(%rbp)
 9153              	.LBB139:
 254:TestChecks.cpp **** {
 9154              		.loc 5 254 0
 9155 3558 488B45F8 		movq	-8(%rbp), %rax
 9156 355c 48C70000 		movq	$_ZTVN12_GLOBAL__N_126TestCheckArray2DCloseFalseE+16, (%rax)
 9156      000000
 9157 3563 488B45F8 		movq	-8(%rbp), %rax
 9158 3567 4889C7   		movq	%rax, %rdi
 9159 356a E8000000 		call	_ZN8UnitTest4TestD2Ev
 9159      00
 9160              	.LBE139:
 9161 356f B8000000 		movl	$0, %eax
 9161      00
 9162 3574 85C0     		testl	%eax, %eax
 9163 3576 740C     		je	.L439
 254:TestChecks.cpp **** {
 9164              		.loc 5 254 0 is_stmt 0 discriminator 1
 9165 3578 488B45F8 		movq	-8(%rbp), %rax
 9166 357c 4889C7   		movq	%rax, %rdi
 9167 357f E8000000 		call	_ZdlPv
 9167      00
 9168              	.L439:
 254:TestChecks.cpp **** {
 9169              		.loc 5 254 0
 9170 3584 C9       		leave
 9171              		.cfi_def_cfa 7, 8
 9172 3585 C3       		ret
 9173              		.cfi_endproc
 9174              	.LFE1239:
 9176              		.set	_ZN12_GLOBAL__N_126TestCheckArray2DCloseFalseD1Ev,_ZN12_GLOBAL__N_126TestCheckArray2DCloseFal
 9177              		.align 2
 9179              	_ZN12_GLOBAL__N_126TestCheckArray2DCloseFalseD0Ev:
 9180              	.LFB1241:
 254:TestChecks.cpp **** {
 9181              		.loc 5 254 0 is_stmt 1
 9182              		.cfi_startproc
 9183 3586 55       		pushq	%rbp
 9184              		.cfi_def_cfa_offset 16
 9185              		.cfi_offset 6, -16
 9186 3587 4889E5   		movq	%rsp, %rbp
 9187              		.cfi_def_cfa_register 6
 9188 358a 4883EC10 		subq	$16, %rsp
 9189 358e 48897DF8 		movq	%rdi, -8(%rbp)
 254:TestChecks.cpp **** {
 9190              		.loc 5 254 0
 9191 3592 488B45F8 		movq	-8(%rbp), %rax
 9192 3596 4889C7   		movq	%rax, %rdi
 9193 3599 E8AEFFFF 		call	_ZN12_GLOBAL__N_126TestCheckArray2DCloseFalseD1Ev
 9193      FF
 9194 359e 488B45F8 		movq	-8(%rbp), %rax
 9195 35a2 4889C7   		movq	%rax, %rdi
 9196 35a5 E8000000 		call	_ZdlPv
 9196      00
 9197 35aa C9       		leave
 9198              		.cfi_def_cfa 7, 8
 9199 35ab C3       		ret
 9200              		.cfi_endproc
 9201              	.LFE1241:
 9203              		.section	.rodata
 9204 0ca8 00000000 		.align 32
 9204      00000000 
 9204      00000000 
 9204      00000000 
 9204      00000000 
 9207              	_ZTVN12_GLOBAL__N_125TestCheckArray2DCloseTrueE:
 9208 0cc0 00000000 		.quad	0
 9208      00000000 
 9209 0cc8 00000000 		.quad	_ZTIN12_GLOBAL__N_125TestCheckArray2DCloseTrueE
 9209      00000000 
 9210 0cd0 00000000 		.quad	_ZN12_GLOBAL__N_125TestCheckArray2DCloseTrueD1Ev
 9210      00000000 
 9211 0cd8 00000000 		.quad	_ZN12_GLOBAL__N_125TestCheckArray2DCloseTrueD0Ev
 9211      00000000 
 9212 0ce0 00000000 		.quad	_ZNK12_GLOBAL__N_125TestCheckArray2DCloseTrue7RunImplEv
 9212      00000000 
 9213              		.text
 9214              		.align 2
 9216              	_ZN12_GLOBAL__N_125TestCheckArray2DCloseTrueD2Ev:
 9217              	.LFB1243:
 240:TestChecks.cpp **** {
 9218              		.loc 5 240 0
 9219              		.cfi_startproc
 9220 35ac 55       		pushq	%rbp
 9221              		.cfi_def_cfa_offset 16
 9222              		.cfi_offset 6, -16
 9223 35ad 4889E5   		movq	%rsp, %rbp
 9224              		.cfi_def_cfa_register 6
 9225 35b0 4883EC10 		subq	$16, %rsp
 9226 35b4 48897DF8 		movq	%rdi, -8(%rbp)
 9227              	.LBB140:
 240:TestChecks.cpp **** {
 9228              		.loc 5 240 0
 9229 35b8 488B45F8 		movq	-8(%rbp), %rax
 9230 35bc 48C70000 		movq	$_ZTVN12_GLOBAL__N_125TestCheckArray2DCloseTrueE+16, (%rax)
 9230      000000
 9231 35c3 488B45F8 		movq	-8(%rbp), %rax
 9232 35c7 4889C7   		movq	%rax, %rdi
 9233 35ca E8000000 		call	_ZN8UnitTest4TestD2Ev
 9233      00
 9234              	.LBE140:
 9235 35cf B8000000 		movl	$0, %eax
 9235      00
 9236 35d4 85C0     		testl	%eax, %eax
 9237 35d6 740C     		je	.L444
 240:TestChecks.cpp **** {
 9238              		.loc 5 240 0 is_stmt 0 discriminator 1
 9239 35d8 488B45F8 		movq	-8(%rbp), %rax
 9240 35dc 4889C7   		movq	%rax, %rdi
 9241 35df E8000000 		call	_ZdlPv
 9241      00
 9242              	.L444:
 240:TestChecks.cpp **** {
 9243              		.loc 5 240 0
 9244 35e4 C9       		leave
 9245              		.cfi_def_cfa 7, 8
 9246 35e5 C3       		ret
 9247              		.cfi_endproc
 9248              	.LFE1243:
 9250              		.set	_ZN12_GLOBAL__N_125TestCheckArray2DCloseTrueD1Ev,_ZN12_GLOBAL__N_125TestCheckArray2DCloseTrue
 9251              		.align 2
 9253              	_ZN12_GLOBAL__N_125TestCheckArray2DCloseTrueD0Ev:
 9254              	.LFB1245:
 240:TestChecks.cpp **** {
 9255              		.loc 5 240 0 is_stmt 1
 9256              		.cfi_startproc
 9257 35e6 55       		pushq	%rbp
 9258              		.cfi_def_cfa_offset 16
 9259              		.cfi_offset 6, -16
 9260 35e7 4889E5   		movq	%rsp, %rbp
 9261              		.cfi_def_cfa_register 6
 9262 35ea 4883EC10 		subq	$16, %rsp
 9263 35ee 48897DF8 		movq	%rdi, -8(%rbp)
 240:TestChecks.cpp **** {
 9264              		.loc 5 240 0
 9265 35f2 488B45F8 		movq	-8(%rbp), %rax
 9266 35f6 4889C7   		movq	%rax, %rdi
 9267 35f9 E8AEFFFF 		call	_ZN12_GLOBAL__N_125TestCheckArray2DCloseTrueD1Ev
 9267      FF
 9268 35fe 488B45F8 		movq	-8(%rbp), %rax
 9269 3602 4889C7   		movq	%rax, %rdi
 9270 3605 E8000000 		call	_ZdlPv
 9270      00
 9271 360a C9       		leave
 9272              		.cfi_def_cfa 7, 8
 9273 360b C3       		ret
 9274              		.cfi_endproc
 9275              	.LFE1245:
 9277              		.section	.rodata
 9278 0ce8 00000000 		.align 32
 9278      00000000 
 9278      00000000 
 9278      00000000 
 9278      00000000 
 9281              	_ZTVN12_GLOBAL__N_141TestCheckArrayCloseFailureIncludesDetailsE:
 9282 0d00 00000000 		.quad	0
 9282      00000000 
 9283 0d08 00000000 		.quad	_ZTIN12_GLOBAL__N_141TestCheckArrayCloseFailureIncludesDetailsE
 9283      00000000 
 9284 0d10 00000000 		.quad	_ZN12_GLOBAL__N_141TestCheckArrayCloseFailureIncludesDetailsD1Ev
 9284      00000000 
 9285 0d18 00000000 		.quad	_ZN12_GLOBAL__N_141TestCheckArrayCloseFailureIncludesDetailsD0Ev
 9285      00000000 
 9286 0d20 00000000 		.quad	_ZNK12_GLOBAL__N_141TestCheckArrayCloseFailureIncludesDetails7RunImplEv
 9286      00000000 
 9287              		.text
 9288              		.align 2
 9290              	_ZN12_GLOBAL__N_141TestCheckArrayCloseFailureIncludesDetailsD2Ev:
 9291              	.LFB1247:
 223:TestChecks.cpp **** {
 9292              		.loc 5 223 0
 9293              		.cfi_startproc
 9294 360c 55       		pushq	%rbp
 9295              		.cfi_def_cfa_offset 16
 9296              		.cfi_offset 6, -16
 9297 360d 4889E5   		movq	%rsp, %rbp
 9298              		.cfi_def_cfa_register 6
 9299 3610 4883EC10 		subq	$16, %rsp
 9300 3614 48897DF8 		movq	%rdi, -8(%rbp)
 9301              	.LBB141:
 223:TestChecks.cpp **** {
 9302              		.loc 5 223 0
 9303 3618 488B45F8 		movq	-8(%rbp), %rax
 9304 361c 48C70000 		movq	$_ZTVN12_GLOBAL__N_141TestCheckArrayCloseFailureIncludesDetailsE+16, (%rax)
 9304      000000
 9305 3623 488B45F8 		movq	-8(%rbp), %rax
 9306 3627 4889C7   		movq	%rax, %rdi
 9307 362a E8000000 		call	_ZN8UnitTest4TestD2Ev
 9307      00
 9308              	.LBE141:
 9309 362f B8000000 		movl	$0, %eax
 9309      00
 9310 3634 85C0     		testl	%eax, %eax
 9311 3636 740C     		je	.L449
 223:TestChecks.cpp **** {
 9312              		.loc 5 223 0 is_stmt 0 discriminator 1
 9313 3638 488B45F8 		movq	-8(%rbp), %rax
 9314 363c 4889C7   		movq	%rax, %rdi
 9315 363f E8000000 		call	_ZdlPv
 9315      00
 9316              	.L449:
 223:TestChecks.cpp **** {
 9317              		.loc 5 223 0
 9318 3644 C9       		leave
 9319              		.cfi_def_cfa 7, 8
 9320 3645 C3       		ret
 9321              		.cfi_endproc
 9322              	.LFE1247:
 9324              		.set	_ZN12_GLOBAL__N_141TestCheckArrayCloseFailureIncludesDetailsD1Ev,_ZN12_GLOBAL__N_141TestCheck
 9325              		.align 2
 9327              	_ZN12_GLOBAL__N_141TestCheckArrayCloseFailureIncludesDetailsD0Ev:
 9328              	.LFB1249:
 223:TestChecks.cpp **** {
 9329              		.loc 5 223 0 is_stmt 1
 9330              		.cfi_startproc
 9331 3646 55       		pushq	%rbp
 9332              		.cfi_def_cfa_offset 16
 9333              		.cfi_offset 6, -16
 9334 3647 4889E5   		movq	%rsp, %rbp
 9335              		.cfi_def_cfa_register 6
 9336 364a 4883EC10 		subq	$16, %rsp
 9337 364e 48897DF8 		movq	%rdi, -8(%rbp)
 223:TestChecks.cpp **** {
 9338              		.loc 5 223 0
 9339 3652 488B45F8 		movq	-8(%rbp), %rax
 9340 3656 4889C7   		movq	%rax, %rdi
 9341 3659 E8AEFFFF 		call	_ZN12_GLOBAL__N_141TestCheckArrayCloseFailureIncludesDetailsD1Ev
 9341      FF
 9342 365e 488B45F8 		movq	-8(%rbp), %rax
 9343 3662 4889C7   		movq	%rax, %rdi
 9344 3665 E8000000 		call	_ZdlPv
 9344      00
 9345 366a C9       		leave
 9346              		.cfi_def_cfa 7, 8
 9347 366b C3       		ret
 9348              		.cfi_endproc
 9349              	.LFE1249:
 9351              		.section	.rodata
 9352 0d28 00000000 		.align 32
 9352      00000000 
 9352      00000000 
 9352      00000000 
 9352      00000000 
 9355              	_ZTVN12_GLOBAL__N_124TestCheckArrayCloseFalseE:
 9356 0d40 00000000 		.quad	0
 9356      00000000 
 9357 0d48 00000000 		.quad	_ZTIN12_GLOBAL__N_124TestCheckArrayCloseFalseE
 9357      00000000 
 9358 0d50 00000000 		.quad	_ZN12_GLOBAL__N_124TestCheckArrayCloseFalseD1Ev
 9358      00000000 
 9359 0d58 00000000 		.quad	_ZN12_GLOBAL__N_124TestCheckArrayCloseFalseD0Ev
 9359      00000000 
 9360 0d60 00000000 		.quad	_ZNK12_GLOBAL__N_124TestCheckArrayCloseFalse7RunImplEv
 9360      00000000 
 9361              		.text
 9362              		.align 2
 9364              	_ZN12_GLOBAL__N_124TestCheckArrayCloseFalseD2Ev:
 9365              	.LFB1251:
 213:TestChecks.cpp **** {
 9366              		.loc 5 213 0
 9367              		.cfi_startproc
 9368 366c 55       		pushq	%rbp
 9369              		.cfi_def_cfa_offset 16
 9370              		.cfi_offset 6, -16
 9371 366d 4889E5   		movq	%rsp, %rbp
 9372              		.cfi_def_cfa_register 6
 9373 3670 4883EC10 		subq	$16, %rsp
 9374 3674 48897DF8 		movq	%rdi, -8(%rbp)
 9375              	.LBB142:
 213:TestChecks.cpp **** {
 9376              		.loc 5 213 0
 9377 3678 488B45F8 		movq	-8(%rbp), %rax
 9378 367c 48C70000 		movq	$_ZTVN12_GLOBAL__N_124TestCheckArrayCloseFalseE+16, (%rax)
 9378      000000
 9379 3683 488B45F8 		movq	-8(%rbp), %rax
 9380 3687 4889C7   		movq	%rax, %rdi
 9381 368a E8000000 		call	_ZN8UnitTest4TestD2Ev
 9381      00
 9382              	.LBE142:
 9383 368f B8000000 		movl	$0, %eax
 9383      00
 9384 3694 85C0     		testl	%eax, %eax
 9385 3696 740C     		je	.L454
 213:TestChecks.cpp **** {
 9386              		.loc 5 213 0 is_stmt 0 discriminator 1
 9387 3698 488B45F8 		movq	-8(%rbp), %rax
 9388 369c 4889C7   		movq	%rax, %rdi
 9389 369f E8000000 		call	_ZdlPv
 9389      00
 9390              	.L454:
 213:TestChecks.cpp **** {
 9391              		.loc 5 213 0
 9392 36a4 C9       		leave
 9393              		.cfi_def_cfa 7, 8
 9394 36a5 C3       		ret
 9395              		.cfi_endproc
 9396              	.LFE1251:
 9398              		.set	_ZN12_GLOBAL__N_124TestCheckArrayCloseFalseD1Ev,_ZN12_GLOBAL__N_124TestCheckArrayCloseFalseD2
 9399              		.align 2
 9401              	_ZN12_GLOBAL__N_124TestCheckArrayCloseFalseD0Ev:
 9402              	.LFB1253:
 213:TestChecks.cpp **** {
 9403              		.loc 5 213 0 is_stmt 1
 9404              		.cfi_startproc
 9405 36a6 55       		pushq	%rbp
 9406              		.cfi_def_cfa_offset 16
 9407              		.cfi_offset 6, -16
 9408 36a7 4889E5   		movq	%rsp, %rbp
 9409              		.cfi_def_cfa_register 6
 9410 36aa 4883EC10 		subq	$16, %rsp
 9411 36ae 48897DF8 		movq	%rdi, -8(%rbp)
 213:TestChecks.cpp **** {
 9412              		.loc 5 213 0
 9413 36b2 488B45F8 		movq	-8(%rbp), %rax
 9414 36b6 4889C7   		movq	%rax, %rdi
 9415 36b9 E8AEFFFF 		call	_ZN12_GLOBAL__N_124TestCheckArrayCloseFalseD1Ev
 9415      FF
 9416 36be 488B45F8 		movq	-8(%rbp), %rax
 9417 36c2 4889C7   		movq	%rax, %rdi
 9418 36c5 E8000000 		call	_ZdlPv
 9418      00
 9419 36ca C9       		leave
 9420              		.cfi_def_cfa 7, 8
 9421 36cb C3       		ret
 9422              		.cfi_endproc
 9423              	.LFE1253:
 9425              		.section	.rodata
 9426 0d68 00000000 		.align 32
 9426      00000000 
 9426      00000000 
 9426      00000000 
 9426      00000000 
 9429              	_ZTVN12_GLOBAL__N_123TestCheckArrayCloseTrueE:
 9430 0d80 00000000 		.quad	0
 9430      00000000 
 9431 0d88 00000000 		.quad	_ZTIN12_GLOBAL__N_123TestCheckArrayCloseTrueE
 9431      00000000 
 9432 0d90 00000000 		.quad	_ZN12_GLOBAL__N_123TestCheckArrayCloseTrueD1Ev
 9432      00000000 
 9433 0d98 00000000 		.quad	_ZN12_GLOBAL__N_123TestCheckArrayCloseTrueD0Ev
 9433      00000000 
 9434 0da0 00000000 		.quad	_ZNK12_GLOBAL__N_123TestCheckArrayCloseTrue7RunImplEv
 9434      00000000 
 9435              		.text
 9436              		.align 2
 9438              	_ZN12_GLOBAL__N_123TestCheckArrayCloseTrueD2Ev:
 9439              	.LFB1255:
 203:TestChecks.cpp **** {
 9440              		.loc 5 203 0
 9441              		.cfi_startproc
 9442 36cc 55       		pushq	%rbp
 9443              		.cfi_def_cfa_offset 16
 9444              		.cfi_offset 6, -16
 9445 36cd 4889E5   		movq	%rsp, %rbp
 9446              		.cfi_def_cfa_register 6
 9447 36d0 4883EC10 		subq	$16, %rsp
 9448 36d4 48897DF8 		movq	%rdi, -8(%rbp)
 9449              	.LBB143:
 203:TestChecks.cpp **** {
 9450              		.loc 5 203 0
 9451 36d8 488B45F8 		movq	-8(%rbp), %rax
 9452 36dc 48C70000 		movq	$_ZTVN12_GLOBAL__N_123TestCheckArrayCloseTrueE+16, (%rax)
 9452      000000
 9453 36e3 488B45F8 		movq	-8(%rbp), %rax
 9454 36e7 4889C7   		movq	%rax, %rdi
 9455 36ea E8000000 		call	_ZN8UnitTest4TestD2Ev
 9455      00
 9456              	.LBE143:
 9457 36ef B8000000 		movl	$0, %eax
 9457      00
 9458 36f4 85C0     		testl	%eax, %eax
 9459 36f6 740C     		je	.L459
 203:TestChecks.cpp **** {
 9460              		.loc 5 203 0 is_stmt 0 discriminator 1
 9461 36f8 488B45F8 		movq	-8(%rbp), %rax
 9462 36fc 4889C7   		movq	%rax, %rdi
 9463 36ff E8000000 		call	_ZdlPv
 9463      00
 9464              	.L459:
 203:TestChecks.cpp **** {
 9465              		.loc 5 203 0
 9466 3704 C9       		leave
 9467              		.cfi_def_cfa 7, 8
 9468 3705 C3       		ret
 9469              		.cfi_endproc
 9470              	.LFE1255:
 9472              		.set	_ZN12_GLOBAL__N_123TestCheckArrayCloseTrueD1Ev,_ZN12_GLOBAL__N_123TestCheckArrayCloseTrueD2Ev
 9473              		.align 2
 9475              	_ZN12_GLOBAL__N_123TestCheckArrayCloseTrueD0Ev:
 9476              	.LFB1257:
 203:TestChecks.cpp **** {
 9477              		.loc 5 203 0 is_stmt 1
 9478              		.cfi_startproc
 9479 3706 55       		pushq	%rbp
 9480              		.cfi_def_cfa_offset 16
 9481              		.cfi_offset 6, -16
 9482 3707 4889E5   		movq	%rsp, %rbp
 9483              		.cfi_def_cfa_register 6
 9484 370a 4883EC10 		subq	$16, %rsp
 9485 370e 48897DF8 		movq	%rdi, -8(%rbp)
 203:TestChecks.cpp **** {
 9486              		.loc 5 203 0
 9487 3712 488B45F8 		movq	-8(%rbp), %rax
 9488 3716 4889C7   		movq	%rax, %rdi
 9489 3719 E8AEFFFF 		call	_ZN12_GLOBAL__N_123TestCheckArrayCloseTrueD1Ev
 9489      FF
 9490 371e 488B45F8 		movq	-8(%rbp), %rax
 9491 3722 4889C7   		movq	%rax, %rdi
 9492 3725 E8000000 		call	_ZdlPv
 9492      00
 9493 372a C9       		leave
 9494              		.cfi_def_cfa 7, 8
 9495 372b C3       		ret
 9496              		.cfi_endproc
 9497              	.LFE1257:
 9499              		.section	.rodata
 9500 0da8 00000000 		.align 32
 9500      00000000 
 9500      00000000 
 9500      00000000 
 9500      00000000 
 9503              	_ZTVN12_GLOBAL__N_124TestCheckArrayEqualFalseE:
 9504 0dc0 00000000 		.quad	0
 9504      00000000 
 9505 0dc8 00000000 		.quad	_ZTIN12_GLOBAL__N_124TestCheckArrayEqualFalseE
 9505      00000000 
 9506 0dd0 00000000 		.quad	_ZN12_GLOBAL__N_124TestCheckArrayEqualFalseD1Ev
 9506      00000000 
 9507 0dd8 00000000 		.quad	_ZN12_GLOBAL__N_124TestCheckArrayEqualFalseD0Ev
 9507      00000000 
 9508 0de0 00000000 		.quad	_ZNK12_GLOBAL__N_124TestCheckArrayEqualFalse7RunImplEv
 9508      00000000 
 9509              		.text
 9510              		.align 2
 9512              	_ZN12_GLOBAL__N_124TestCheckArrayEqualFalseD2Ev:
 9513              	.LFB1259:
 193:TestChecks.cpp **** {
 9514              		.loc 5 193 0
 9515              		.cfi_startproc
 9516 372c 55       		pushq	%rbp
 9517              		.cfi_def_cfa_offset 16
 9518              		.cfi_offset 6, -16
 9519 372d 4889E5   		movq	%rsp, %rbp
 9520              		.cfi_def_cfa_register 6
 9521 3730 4883EC10 		subq	$16, %rsp
 9522 3734 48897DF8 		movq	%rdi, -8(%rbp)
 9523              	.LBB144:
 193:TestChecks.cpp **** {
 9524              		.loc 5 193 0
 9525 3738 488B45F8 		movq	-8(%rbp), %rax
 9526 373c 48C70000 		movq	$_ZTVN12_GLOBAL__N_124TestCheckArrayEqualFalseE+16, (%rax)
 9526      000000
 9527 3743 488B45F8 		movq	-8(%rbp), %rax
 9528 3747 4889C7   		movq	%rax, %rdi
 9529 374a E8000000 		call	_ZN8UnitTest4TestD2Ev
 9529      00
 9530              	.LBE144:
 9531 374f B8000000 		movl	$0, %eax
 9531      00
 9532 3754 85C0     		testl	%eax, %eax
 9533 3756 740C     		je	.L464
 193:TestChecks.cpp **** {
 9534              		.loc 5 193 0 is_stmt 0 discriminator 1
 9535 3758 488B45F8 		movq	-8(%rbp), %rax
 9536 375c 4889C7   		movq	%rax, %rdi
 9537 375f E8000000 		call	_ZdlPv
 9537      00
 9538              	.L464:
 193:TestChecks.cpp **** {
 9539              		.loc 5 193 0
 9540 3764 C9       		leave
 9541              		.cfi_def_cfa 7, 8
 9542 3765 C3       		ret
 9543              		.cfi_endproc
 9544              	.LFE1259:
 9546              		.set	_ZN12_GLOBAL__N_124TestCheckArrayEqualFalseD1Ev,_ZN12_GLOBAL__N_124TestCheckArrayEqualFalseD2
 9547              		.align 2
 9549              	_ZN12_GLOBAL__N_124TestCheckArrayEqualFalseD0Ev:
 9550              	.LFB1261:
 193:TestChecks.cpp **** {
 9551              		.loc 5 193 0 is_stmt 1
 9552              		.cfi_startproc
 9553 3766 55       		pushq	%rbp
 9554              		.cfi_def_cfa_offset 16
 9555              		.cfi_offset 6, -16
 9556 3767 4889E5   		movq	%rsp, %rbp
 9557              		.cfi_def_cfa_register 6
 9558 376a 4883EC10 		subq	$16, %rsp
 9559 376e 48897DF8 		movq	%rdi, -8(%rbp)
 193:TestChecks.cpp **** {
 9560              		.loc 5 193 0
 9561 3772 488B45F8 		movq	-8(%rbp), %rax
 9562 3776 4889C7   		movq	%rax, %rdi
 9563 3779 E8AEFFFF 		call	_ZN12_GLOBAL__N_124TestCheckArrayEqualFalseD1Ev
 9563      FF
 9564 377e 488B45F8 		movq	-8(%rbp), %rax
 9565 3782 4889C7   		movq	%rax, %rdi
 9566 3785 E8000000 		call	_ZdlPv
 9566      00
 9567 378a C9       		leave
 9568              		.cfi_def_cfa 7, 8
 9569 378b C3       		ret
 9570              		.cfi_endproc
 9571              	.LFE1261:
 9573              		.section	.rodata
 9574 0de8 00000000 		.align 32
 9574      00000000 
 9574      00000000 
 9574      00000000 
 9574      00000000 
 9577              	_ZTVN12_GLOBAL__N_123TestCheckArrayEqualTrueE:
 9578 0e00 00000000 		.quad	0
 9578      00000000 
 9579 0e08 00000000 		.quad	_ZTIN12_GLOBAL__N_123TestCheckArrayEqualTrueE
 9579      00000000 
 9580 0e10 00000000 		.quad	_ZN12_GLOBAL__N_123TestCheckArrayEqualTrueD1Ev
 9580      00000000 
 9581 0e18 00000000 		.quad	_ZN12_GLOBAL__N_123TestCheckArrayEqualTrueD0Ev
 9581      00000000 
 9582 0e20 00000000 		.quad	_ZNK12_GLOBAL__N_123TestCheckArrayEqualTrue7RunImplEv
 9582      00000000 
 9583              		.text
 9584              		.align 2
 9586              	_ZN12_GLOBAL__N_123TestCheckArrayEqualTrueD2Ev:
 9587              	.LFB1263:
 184:TestChecks.cpp **** {
 9588              		.loc 5 184 0
 9589              		.cfi_startproc
 9590 378c 55       		pushq	%rbp
 9591              		.cfi_def_cfa_offset 16
 9592              		.cfi_offset 6, -16
 9593 378d 4889E5   		movq	%rsp, %rbp
 9594              		.cfi_def_cfa_register 6
 9595 3790 4883EC10 		subq	$16, %rsp
 9596 3794 48897DF8 		movq	%rdi, -8(%rbp)
 9597              	.LBB145:
 184:TestChecks.cpp **** {
 9598              		.loc 5 184 0
 9599 3798 488B45F8 		movq	-8(%rbp), %rax
 9600 379c 48C70000 		movq	$_ZTVN12_GLOBAL__N_123TestCheckArrayEqualTrueE+16, (%rax)
 9600      000000
 9601 37a3 488B45F8 		movq	-8(%rbp), %rax
 9602 37a7 4889C7   		movq	%rax, %rdi
 9603 37aa E8000000 		call	_ZN8UnitTest4TestD2Ev
 9603      00
 9604              	.LBE145:
 9605 37af B8000000 		movl	$0, %eax
 9605      00
 9606 37b4 85C0     		testl	%eax, %eax
 9607 37b6 740C     		je	.L469
 184:TestChecks.cpp **** {
 9608              		.loc 5 184 0 is_stmt 0 discriminator 1
 9609 37b8 488B45F8 		movq	-8(%rbp), %rax
 9610 37bc 4889C7   		movq	%rax, %rdi
 9611 37bf E8000000 		call	_ZdlPv
 9611      00
 9612              	.L469:
 184:TestChecks.cpp **** {
 9613              		.loc 5 184 0
 9614 37c4 C9       		leave
 9615              		.cfi_def_cfa 7, 8
 9616 37c5 C3       		ret
 9617              		.cfi_endproc
 9618              	.LFE1263:
 9620              		.set	_ZN12_GLOBAL__N_123TestCheckArrayEqualTrueD1Ev,_ZN12_GLOBAL__N_123TestCheckArrayEqualTrueD2Ev
 9621              		.align 2
 9623              	_ZN12_GLOBAL__N_123TestCheckArrayEqualTrueD0Ev:
 9624              	.LFB1265:
 184:TestChecks.cpp **** {
 9625              		.loc 5 184 0 is_stmt 1
 9626              		.cfi_startproc
 9627 37c6 55       		pushq	%rbp
 9628              		.cfi_def_cfa_offset 16
 9629              		.cfi_offset 6, -16
 9630 37c7 4889E5   		movq	%rsp, %rbp
 9631              		.cfi_def_cfa_register 6
 9632 37ca 4883EC10 		subq	$16, %rsp
 9633 37ce 48897DF8 		movq	%rdi, -8(%rbp)
 184:TestChecks.cpp **** {
 9634              		.loc 5 184 0
 9635 37d2 488B45F8 		movq	-8(%rbp), %rax
 9636 37d6 4889C7   		movq	%rax, %rdi
 9637 37d9 E8AEFFFF 		call	_ZN12_GLOBAL__N_123TestCheckArrayEqualTrueD1Ev
 9637      FF
 9638 37de 488B45F8 		movq	-8(%rbp), %rax
 9639 37e2 4889C7   		movq	%rax, %rdi
 9640 37e5 E8000000 		call	_ZdlPv
 9640      00
 9641 37ea C9       		leave
 9642              		.cfi_def_cfa 7, 8
 9643 37eb C3       		ret
 9644              		.cfi_endproc
 9645              	.LFE1265:
 9647              		.section	.rodata
 9648 0e28 00000000 		.align 32
 9648      00000000 
 9648      00000000 
 9648      00000000 
 9648      00000000 
 9651              	_ZTVN12_GLOBAL__N_136TestCheckCloseFailureIncludesDetailsE:
 9652 0e40 00000000 		.quad	0
 9652      00000000 
 9653 0e48 00000000 		.quad	_ZTIN12_GLOBAL__N_136TestCheckCloseFailureIncludesDetailsE
 9653      00000000 
 9654 0e50 00000000 		.quad	_ZN12_GLOBAL__N_136TestCheckCloseFailureIncludesDetailsD1Ev
 9654      00000000 
 9655 0e58 00000000 		.quad	_ZN12_GLOBAL__N_136TestCheckCloseFailureIncludesDetailsD0Ev
 9655      00000000 
 9656 0e60 00000000 		.quad	_ZNK12_GLOBAL__N_136TestCheckCloseFailureIncludesDetails7RunImplEv
 9656      00000000 
 9657              		.text
 9658              		.align 2
 9660              	_ZN12_GLOBAL__N_136TestCheckCloseFailureIncludesDetailsD2Ev:
 9661              	.LFB1267:
 169:TestChecks.cpp **** {
 9662              		.loc 5 169 0
 9663              		.cfi_startproc
 9664 37ec 55       		pushq	%rbp
 9665              		.cfi_def_cfa_offset 16
 9666              		.cfi_offset 6, -16
 9667 37ed 4889E5   		movq	%rsp, %rbp
 9668              		.cfi_def_cfa_register 6
 9669 37f0 4883EC10 		subq	$16, %rsp
 9670 37f4 48897DF8 		movq	%rdi, -8(%rbp)
 9671              	.LBB146:
 169:TestChecks.cpp **** {
 9672              		.loc 5 169 0
 9673 37f8 488B45F8 		movq	-8(%rbp), %rax
 9674 37fc 48C70000 		movq	$_ZTVN12_GLOBAL__N_136TestCheckCloseFailureIncludesDetailsE+16, (%rax)
 9674      000000
 9675 3803 488B45F8 		movq	-8(%rbp), %rax
 9676 3807 4889C7   		movq	%rax, %rdi
 9677 380a E8000000 		call	_ZN8UnitTest4TestD2Ev
 9677      00
 9678              	.LBE146:
 9679 380f B8000000 		movl	$0, %eax
 9679      00
 9680 3814 85C0     		testl	%eax, %eax
 9681 3816 740C     		je	.L474
 169:TestChecks.cpp **** {
 9682              		.loc 5 169 0 is_stmt 0 discriminator 1
 9683 3818 488B45F8 		movq	-8(%rbp), %rax
 9684 381c 4889C7   		movq	%rax, %rdi
 9685 381f E8000000 		call	_ZdlPv
 9685      00
 9686              	.L474:
 169:TestChecks.cpp **** {
 9687              		.loc 5 169 0
 9688 3824 C9       		leave
 9689              		.cfi_def_cfa 7, 8
 9690 3825 C3       		ret
 9691              		.cfi_endproc
 9692              	.LFE1267:
 9694              		.set	_ZN12_GLOBAL__N_136TestCheckCloseFailureIncludesDetailsD1Ev,_ZN12_GLOBAL__N_136TestCheckClose
 9695              		.align 2
 9697              	_ZN12_GLOBAL__N_136TestCheckCloseFailureIncludesDetailsD0Ev:
 9698              	.LFB1269:
 169:TestChecks.cpp **** {
 9699              		.loc 5 169 0 is_stmt 1
 9700              		.cfi_startproc
 9701 3826 55       		pushq	%rbp
 9702              		.cfi_def_cfa_offset 16
 9703              		.cfi_offset 6, -16
 9704 3827 4889E5   		movq	%rsp, %rbp
 9705              		.cfi_def_cfa_register 6
 9706 382a 4883EC10 		subq	$16, %rsp
 9707 382e 48897DF8 		movq	%rdi, -8(%rbp)
 169:TestChecks.cpp **** {
 9708              		.loc 5 169 0
 9709 3832 488B45F8 		movq	-8(%rbp), %rax
 9710 3836 4889C7   		movq	%rax, %rdi
 9711 3839 E8AEFFFF 		call	_ZN12_GLOBAL__N_136TestCheckCloseFailureIncludesDetailsD1Ev
 9711      FF
 9712 383e 488B45F8 		movq	-8(%rbp), %rax
 9713 3842 4889C7   		movq	%rax, %rdi
 9714 3845 E8000000 		call	_ZdlPv
 9714      00
 9715 384a C9       		leave
 9716              		.cfi_def_cfa 7, 8
 9717 384b C3       		ret
 9718              		.cfi_endproc
 9719              	.LFE1269:
 9721              		.section	.rodata
 9722 0e68 00000000 		.align 32
 9722      00000000 
 9722      00000000 
 9722      00000000 
 9722      00000000 
 9725              	_ZTVN12_GLOBAL__N_138TestCheckCloseFailureIncludesToleranceE:
 9726 0e80 00000000 		.quad	0
 9726      00000000 
 9727 0e88 00000000 		.quad	_ZTIN12_GLOBAL__N_138TestCheckCloseFailureIncludesToleranceE
 9727      00000000 
 9728 0e90 00000000 		.quad	_ZN12_GLOBAL__N_138TestCheckCloseFailureIncludesToleranceD1Ev
 9728      00000000 
 9729 0e98 00000000 		.quad	_ZN12_GLOBAL__N_138TestCheckCloseFailureIncludesToleranceD0Ev
 9729      00000000 
 9730 0ea0 00000000 		.quad	_ZNK12_GLOBAL__N_138TestCheckCloseFailureIncludesTolerance7RunImplEv
 9730      00000000 
 9731              		.text
 9732              		.align 2
 9734              	_ZN12_GLOBAL__N_138TestCheckCloseFailureIncludesToleranceD2Ev:
 9735              	.LFB1271:
 159:TestChecks.cpp **** {
 9736              		.loc 5 159 0
 9737              		.cfi_startproc
 9738 384c 55       		pushq	%rbp
 9739              		.cfi_def_cfa_offset 16
 9740              		.cfi_offset 6, -16
 9741 384d 4889E5   		movq	%rsp, %rbp
 9742              		.cfi_def_cfa_register 6
 9743 3850 4883EC10 		subq	$16, %rsp
 9744 3854 48897DF8 		movq	%rdi, -8(%rbp)
 9745              	.LBB147:
 159:TestChecks.cpp **** {
 9746              		.loc 5 159 0
 9747 3858 488B45F8 		movq	-8(%rbp), %rax
 9748 385c 48C70000 		movq	$_ZTVN12_GLOBAL__N_138TestCheckCloseFailureIncludesToleranceE+16, (%rax)
 9748      000000
 9749 3863 488B45F8 		movq	-8(%rbp), %rax
 9750 3867 4889C7   		movq	%rax, %rdi
 9751 386a E8000000 		call	_ZN8UnitTest4TestD2Ev
 9751      00
 9752              	.LBE147:
 9753 386f B8000000 		movl	$0, %eax
 9753      00
 9754 3874 85C0     		testl	%eax, %eax
 9755 3876 740C     		je	.L479
 159:TestChecks.cpp **** {
 9756              		.loc 5 159 0 is_stmt 0 discriminator 1
 9757 3878 488B45F8 		movq	-8(%rbp), %rax
 9758 387c 4889C7   		movq	%rax, %rdi
 9759 387f E8000000 		call	_ZdlPv
 9759      00
 9760              	.L479:
 159:TestChecks.cpp **** {
 9761              		.loc 5 159 0
 9762 3884 C9       		leave
 9763              		.cfi_def_cfa 7, 8
 9764 3885 C3       		ret
 9765              		.cfi_endproc
 9766              	.LFE1271:
 9768              		.set	_ZN12_GLOBAL__N_138TestCheckCloseFailureIncludesToleranceD1Ev,_ZN12_GLOBAL__N_138TestCheckClo
 9769              		.align 2
 9771              	_ZN12_GLOBAL__N_138TestCheckCloseFailureIncludesToleranceD0Ev:
 9772              	.LFB1273:
 159:TestChecks.cpp **** {
 9773              		.loc 5 159 0 is_stmt 1
 9774              		.cfi_startproc
 9775 3886 55       		pushq	%rbp
 9776              		.cfi_def_cfa_offset 16
 9777              		.cfi_offset 6, -16
 9778 3887 4889E5   		movq	%rsp, %rbp
 9779              		.cfi_def_cfa_register 6
 9780 388a 4883EC10 		subq	$16, %rsp
 9781 388e 48897DF8 		movq	%rdi, -8(%rbp)
 159:TestChecks.cpp **** {
 9782              		.loc 5 159 0
 9783 3892 488B45F8 		movq	-8(%rbp), %rax
 9784 3896 4889C7   		movq	%rax, %rdi
 9785 3899 E8AEFFFF 		call	_ZN12_GLOBAL__N_138TestCheckCloseFailureIncludesToleranceD1Ev
 9785      FF
 9786 389e 488B45F8 		movq	-8(%rbp), %rax
 9787 38a2 4889C7   		movq	%rax, %rdi
 9788 38a5 E8000000 		call	_ZdlPv
 9788      00
 9789 38aa C9       		leave
 9790              		.cfi_def_cfa 7, 8
 9791 38ab C3       		ret
 9792              		.cfi_endproc
 9793              	.LFE1273:
 9795              		.section	.rodata
 9796 0ea8 00000000 		.align 32
 9796      00000000 
 9796      00000000 
 9796      00000000 
 9796      00000000 
 9799              	_ZTVN12_GLOBAL__N_151TestCheckCloseFailureIncludesCheckExpectedAndActualE:
 9800 0ec0 00000000 		.quad	0
 9800      00000000 
 9801 0ec8 00000000 		.quad	_ZTIN12_GLOBAL__N_151TestCheckCloseFailureIncludesCheckExpectedAndActualE
 9801      00000000 
 9802 0ed0 00000000 		.quad	_ZN12_GLOBAL__N_151TestCheckCloseFailureIncludesCheckExpectedAndActualD1Ev
 9802      00000000 
 9803 0ed8 00000000 		.quad	_ZN12_GLOBAL__N_151TestCheckCloseFailureIncludesCheckExpectedAndActualD0Ev
 9803      00000000 
 9804 0ee0 00000000 		.quad	_ZNK12_GLOBAL__N_151TestCheckCloseFailureIncludesCheckExpectedAndActual7RunImplEv
 9804      00000000 
 9805              		.text
 9806              		.align 2
 9808              	_ZN12_GLOBAL__N_151TestCheckCloseFailureIncludesCheckExpectedAndActualD2Ev:
 9809              	.LFB1275:
 146:TestChecks.cpp **** {
 9810              		.loc 5 146 0
 9811              		.cfi_startproc
 9812 38ac 55       		pushq	%rbp
 9813              		.cfi_def_cfa_offset 16
 9814              		.cfi_offset 6, -16
 9815 38ad 4889E5   		movq	%rsp, %rbp
 9816              		.cfi_def_cfa_register 6
 9817 38b0 4883EC10 		subq	$16, %rsp
 9818 38b4 48897DF8 		movq	%rdi, -8(%rbp)
 9819              	.LBB148:
 146:TestChecks.cpp **** {
 9820              		.loc 5 146 0
 9821 38b8 488B45F8 		movq	-8(%rbp), %rax
 9822 38bc 48C70000 		movq	$_ZTVN12_GLOBAL__N_151TestCheckCloseFailureIncludesCheckExpectedAndActualE+16, (%rax)
 9822      000000
 9823 38c3 488B45F8 		movq	-8(%rbp), %rax
 9824 38c7 4889C7   		movq	%rax, %rdi
 9825 38ca E8000000 		call	_ZN8UnitTest4TestD2Ev
 9825      00
 9826              	.LBE148:
 9827 38cf B8000000 		movl	$0, %eax
 9827      00
 9828 38d4 85C0     		testl	%eax, %eax
 9829 38d6 740C     		je	.L484
 146:TestChecks.cpp **** {
 9830              		.loc 5 146 0 is_stmt 0 discriminator 1
 9831 38d8 488B45F8 		movq	-8(%rbp), %rax
 9832 38dc 4889C7   		movq	%rax, %rdi
 9833 38df E8000000 		call	_ZdlPv
 9833      00
 9834              	.L484:
 146:TestChecks.cpp **** {
 9835              		.loc 5 146 0
 9836 38e4 C9       		leave
 9837              		.cfi_def_cfa 7, 8
 9838 38e5 C3       		ret
 9839              		.cfi_endproc
 9840              	.LFE1275:
 9842              		.set	_ZN12_GLOBAL__N_151TestCheckCloseFailureIncludesCheckExpectedAndActualD1Ev,_ZN12_GLOBAL__N_15
 9843              		.align 2
 9845              	_ZN12_GLOBAL__N_151TestCheckCloseFailureIncludesCheckExpectedAndActualD0Ev:
 9846              	.LFB1277:
 146:TestChecks.cpp **** {
 9847              		.loc 5 146 0 is_stmt 1
 9848              		.cfi_startproc
 9849 38e6 55       		pushq	%rbp
 9850              		.cfi_def_cfa_offset 16
 9851              		.cfi_offset 6, -16
 9852 38e7 4889E5   		movq	%rsp, %rbp
 9853              		.cfi_def_cfa_register 6
 9854 38ea 4883EC10 		subq	$16, %rsp
 9855 38ee 48897DF8 		movq	%rdi, -8(%rbp)
 146:TestChecks.cpp **** {
 9856              		.loc 5 146 0
 9857 38f2 488B45F8 		movq	-8(%rbp), %rax
 9858 38f6 4889C7   		movq	%rax, %rdi
 9859 38f9 E8AEFFFF 		call	_ZN12_GLOBAL__N_151TestCheckCloseFailureIncludesCheckExpectedAndActualD1Ev
 9859      FF
 9860 38fe 488B45F8 		movq	-8(%rbp), %rax
 9861 3902 4889C7   		movq	%rax, %rdi
 9862 3905 E8000000 		call	_ZdlPv
 9862      00
 9863 390a C9       		leave
 9864              		.cfi_def_cfa 7, 8
 9865 390b C3       		ret
 9866              		.cfi_endproc
 9867              	.LFE1277:
 9869              		.section	.rodata
 9870 0ee8 00000000 		.align 32
 9870      00000000 
 9870      00000000 
 9870      00000000 
 9870      00000000 
 9873              	_ZTVN12_GLOBAL__N_139TestCheckCloseWithNaNAgainstItselfFailsE:
 9874 0f00 00000000 		.quad	0
 9874      00000000 
 9875 0f08 00000000 		.quad	_ZTIN12_GLOBAL__N_139TestCheckCloseWithNaNAgainstItselfFailsE
 9875      00000000 
 9876 0f10 00000000 		.quad	_ZN12_GLOBAL__N_139TestCheckCloseWithNaNAgainstItselfFailsD1Ev
 9876      00000000 
 9877 0f18 00000000 		.quad	_ZN12_GLOBAL__N_139TestCheckCloseWithNaNAgainstItselfFailsD0Ev
 9877      00000000 
 9878 0f20 00000000 		.quad	_ZNK12_GLOBAL__N_139TestCheckCloseWithNaNAgainstItselfFails7RunImplEv
 9878      00000000 
 9879              		.text
 9880              		.align 2
 9882              	_ZN12_GLOBAL__N_139TestCheckCloseWithNaNAgainstItselfFailsD2Ev:
 9883              	.LFB1279:
 133:TestChecks.cpp **** {
 9884              		.loc 5 133 0
 9885              		.cfi_startproc
 9886 390c 55       		pushq	%rbp
 9887              		.cfi_def_cfa_offset 16
 9888              		.cfi_offset 6, -16
 9889 390d 4889E5   		movq	%rsp, %rbp
 9890              		.cfi_def_cfa_register 6
 9891 3910 4883EC10 		subq	$16, %rsp
 9892 3914 48897DF8 		movq	%rdi, -8(%rbp)
 9893              	.LBB149:
 133:TestChecks.cpp **** {
 9894              		.loc 5 133 0
 9895 3918 488B45F8 		movq	-8(%rbp), %rax
 9896 391c 48C70000 		movq	$_ZTVN12_GLOBAL__N_139TestCheckCloseWithNaNAgainstItselfFailsE+16, (%rax)
 9896      000000
 9897 3923 488B45F8 		movq	-8(%rbp), %rax
 9898 3927 4889C7   		movq	%rax, %rdi
 9899 392a E8000000 		call	_ZN8UnitTest4TestD2Ev
 9899      00
 9900              	.LBE149:
 9901 392f B8000000 		movl	$0, %eax
 9901      00
 9902 3934 85C0     		testl	%eax, %eax
 9903 3936 740C     		je	.L489
 133:TestChecks.cpp **** {
 9904              		.loc 5 133 0 is_stmt 0 discriminator 1
 9905 3938 488B45F8 		movq	-8(%rbp), %rax
 9906 393c 4889C7   		movq	%rax, %rdi
 9907 393f E8000000 		call	_ZdlPv
 9907      00
 9908              	.L489:
 133:TestChecks.cpp **** {
 9909              		.loc 5 133 0
 9910 3944 C9       		leave
 9911              		.cfi_def_cfa 7, 8
 9912 3945 C3       		ret
 9913              		.cfi_endproc
 9914              	.LFE1279:
 9916              		.set	_ZN12_GLOBAL__N_139TestCheckCloseWithNaNAgainstItselfFailsD1Ev,_ZN12_GLOBAL__N_139TestCheckCl
 9917              		.align 2
 9919              	_ZN12_GLOBAL__N_139TestCheckCloseWithNaNAgainstItselfFailsD0Ev:
 9920              	.LFB1281:
 133:TestChecks.cpp **** {
 9921              		.loc 5 133 0 is_stmt 1
 9922              		.cfi_startproc
 9923 3946 55       		pushq	%rbp
 9924              		.cfi_def_cfa_offset 16
 9925              		.cfi_offset 6, -16
 9926 3947 4889E5   		movq	%rsp, %rbp
 9927              		.cfi_def_cfa_register 6
 9928 394a 4883EC10 		subq	$16, %rsp
 9929 394e 48897DF8 		movq	%rdi, -8(%rbp)
 133:TestChecks.cpp **** {
 9930              		.loc 5 133 0
 9931 3952 488B45F8 		movq	-8(%rbp), %rax
 9932 3956 4889C7   		movq	%rax, %rdi
 9933 3959 E8AEFFFF 		call	_ZN12_GLOBAL__N_139TestCheckCloseWithNaNAgainstItselfFailsD1Ev
 9933      FF
 9934 395e 488B45F8 		movq	-8(%rbp), %rax
 9935 3962 4889C7   		movq	%rax, %rdi
 9936 3965 E8000000 		call	_ZdlPv
 9936      00
 9937 396a C9       		leave
 9938              		.cfi_def_cfa 7, 8
 9939 396b C3       		ret
 9940              		.cfi_endproc
 9941              	.LFE1281:
 9943              		.section	.rodata
 9944 0f28 00000000 		.align 32
 9944      00000000 
 9944      00000000 
 9944      00000000 
 9944      00000000 
 9947              	_ZTVN12_GLOBAL__N_126TestCheckCloseWithNaNFailsE:
 9948 0f40 00000000 		.quad	0
 9948      00000000 
 9949 0f48 00000000 		.quad	_ZTIN12_GLOBAL__N_126TestCheckCloseWithNaNFailsE
 9949      00000000 
 9950 0f50 00000000 		.quad	_ZN12_GLOBAL__N_126TestCheckCloseWithNaNFailsD1Ev
 9950      00000000 
 9951 0f58 00000000 		.quad	_ZN12_GLOBAL__N_126TestCheckCloseWithNaNFailsD0Ev
 9951      00000000 
 9952 0f60 00000000 		.quad	_ZNK12_GLOBAL__N_126TestCheckCloseWithNaNFails7RunImplEv
 9952      00000000 
 9953              		.text
 9954              		.align 2
 9956              	_ZN12_GLOBAL__N_126TestCheckCloseWithNaNFailsD2Ev:
 9957              	.LFB1283:
 120:TestChecks.cpp **** {
 9958              		.loc 5 120 0
 9959              		.cfi_startproc
 9960 396c 55       		pushq	%rbp
 9961              		.cfi_def_cfa_offset 16
 9962              		.cfi_offset 6, -16
 9963 396d 4889E5   		movq	%rsp, %rbp
 9964              		.cfi_def_cfa_register 6
 9965 3970 4883EC10 		subq	$16, %rsp
 9966 3974 48897DF8 		movq	%rdi, -8(%rbp)
 9967              	.LBB150:
 120:TestChecks.cpp **** {
 9968              		.loc 5 120 0
 9969 3978 488B45F8 		movq	-8(%rbp), %rax
 9970 397c 48C70000 		movq	$_ZTVN12_GLOBAL__N_126TestCheckCloseWithNaNFailsE+16, (%rax)
 9970      000000
 9971 3983 488B45F8 		movq	-8(%rbp), %rax
 9972 3987 4889C7   		movq	%rax, %rdi
 9973 398a E8000000 		call	_ZN8UnitTest4TestD2Ev
 9973      00
 9974              	.LBE150:
 9975 398f B8000000 		movl	$0, %eax
 9975      00
 9976 3994 85C0     		testl	%eax, %eax
 9977 3996 740C     		je	.L494
 120:TestChecks.cpp **** {
 9978              		.loc 5 120 0 is_stmt 0 discriminator 1
 9979 3998 488B45F8 		movq	-8(%rbp), %rax
 9980 399c 4889C7   		movq	%rax, %rdi
 9981 399f E8000000 		call	_ZdlPv
 9981      00
 9982              	.L494:
 120:TestChecks.cpp **** {
 9983              		.loc 5 120 0
 9984 39a4 C9       		leave
 9985              		.cfi_def_cfa 7, 8
 9986 39a5 C3       		ret
 9987              		.cfi_endproc
 9988              	.LFE1283:
 9990              		.set	_ZN12_GLOBAL__N_126TestCheckCloseWithNaNFailsD1Ev,_ZN12_GLOBAL__N_126TestCheckCloseWithNaNFai
 9991              		.align 2
 9993              	_ZN12_GLOBAL__N_126TestCheckCloseWithNaNFailsD0Ev:
 9994              	.LFB1285:
 120:TestChecks.cpp **** {
 9995              		.loc 5 120 0 is_stmt 1
 9996              		.cfi_startproc
 9997 39a6 55       		pushq	%rbp
 9998              		.cfi_def_cfa_offset 16
 9999              		.cfi_offset 6, -16
 10000 39a7 4889E5   		movq	%rsp, %rbp
 10001              		.cfi_def_cfa_register 6
 10002 39aa 4883EC10 		subq	$16, %rsp
 10003 39ae 48897DF8 		movq	%rdi, -8(%rbp)
 120:TestChecks.cpp **** {
 10004              		.loc 5 120 0
 10005 39b2 488B45F8 		movq	-8(%rbp), %rax
 10006 39b6 4889C7   		movq	%rax, %rdi
 10007 39b9 E8AEFFFF 		call	_ZN12_GLOBAL__N_126TestCheckCloseWithNaNFailsD1Ev
 10007      FF
 10008 39be 488B45F8 		movq	-8(%rbp), %rax
 10009 39c2 4889C7   		movq	%rax, %rdi
 10010 39c5 E8000000 		call	_ZdlPv
 10010      00
 10011 39ca C9       		leave
 10012              		.cfi_def_cfa 7, 8
 10013 39cb C3       		ret
 10014              		.cfi_endproc
 10015              	.LFE1285:
 10017              		.section	.rodata
 10018 0f68 00000000 		.align 32
 10018      00000000 
 10018      00000000 
 10018      00000000 
 10018      00000000 
 10021              	_ZTVN12_GLOBAL__N_147TestCheckCloseWithZeroEpsilonWorksForSameNumberE:
 10022 0f80 00000000 		.quad	0
 10022      00000000 
 10023 0f88 00000000 		.quad	_ZTIN12_GLOBAL__N_147TestCheckCloseWithZeroEpsilonWorksForSameNumberE
 10023      00000000 
 10024 0f90 00000000 		.quad	_ZN12_GLOBAL__N_147TestCheckCloseWithZeroEpsilonWorksForSameNumberD1Ev
 10024      00000000 
 10025 0f98 00000000 		.quad	_ZN12_GLOBAL__N_147TestCheckCloseWithZeroEpsilonWorksForSameNumberD0Ev
 10025      00000000 
 10026 0fa0 00000000 		.quad	_ZNK12_GLOBAL__N_147TestCheckCloseWithZeroEpsilonWorksForSameNumber7RunImplEv
 10026      00000000 
 10027              		.text
 10028              		.align 2
 10030              	_ZN12_GLOBAL__N_147TestCheckCloseWithZeroEpsilonWorksForSameNumberD2Ev:
 10031              	.LFB1287:
 113:TestChecks.cpp **** {
 10032              		.loc 5 113 0
 10033              		.cfi_startproc
 10034 39cc 55       		pushq	%rbp
 10035              		.cfi_def_cfa_offset 16
 10036              		.cfi_offset 6, -16
 10037 39cd 4889E5   		movq	%rsp, %rbp
 10038              		.cfi_def_cfa_register 6
 10039 39d0 4883EC10 		subq	$16, %rsp
 10040 39d4 48897DF8 		movq	%rdi, -8(%rbp)
 10041              	.LBB151:
 113:TestChecks.cpp **** {
 10042              		.loc 5 113 0
 10043 39d8 488B45F8 		movq	-8(%rbp), %rax
 10044 39dc 48C70000 		movq	$_ZTVN12_GLOBAL__N_147TestCheckCloseWithZeroEpsilonWorksForSameNumberE+16, (%rax)
 10044      000000
 10045 39e3 488B45F8 		movq	-8(%rbp), %rax
 10046 39e7 4889C7   		movq	%rax, %rdi
 10047 39ea E8000000 		call	_ZN8UnitTest4TestD2Ev
 10047      00
 10048              	.LBE151:
 10049 39ef B8000000 		movl	$0, %eax
 10049      00
 10050 39f4 85C0     		testl	%eax, %eax
 10051 39f6 740C     		je	.L499
 113:TestChecks.cpp **** {
 10052              		.loc 5 113 0 is_stmt 0 discriminator 1
 10053 39f8 488B45F8 		movq	-8(%rbp), %rax
 10054 39fc 4889C7   		movq	%rax, %rdi
 10055 39ff E8000000 		call	_ZdlPv
 10055      00
 10056              	.L499:
 113:TestChecks.cpp **** {
 10057              		.loc 5 113 0
 10058 3a04 C9       		leave
 10059              		.cfi_def_cfa 7, 8
 10060 3a05 C3       		ret
 10061              		.cfi_endproc
 10062              	.LFE1287:
 10064              		.set	_ZN12_GLOBAL__N_147TestCheckCloseWithZeroEpsilonWorksForSameNumberD1Ev,_ZN12_GLOBAL__N_147Tes
 10065              		.align 2
 10067              	_ZN12_GLOBAL__N_147TestCheckCloseWithZeroEpsilonWorksForSameNumberD0Ev:
 10068              	.LFB1289:
 113:TestChecks.cpp **** {
 10069              		.loc 5 113 0 is_stmt 1
 10070              		.cfi_startproc
 10071 3a06 55       		pushq	%rbp
 10072              		.cfi_def_cfa_offset 16
 10073              		.cfi_offset 6, -16
 10074 3a07 4889E5   		movq	%rsp, %rbp
 10075              		.cfi_def_cfa_register 6
 10076 3a0a 4883EC10 		subq	$16, %rsp
 10077 3a0e 48897DF8 		movq	%rdi, -8(%rbp)
 113:TestChecks.cpp **** {
 10078              		.loc 5 113 0
 10079 3a12 488B45F8 		movq	-8(%rbp), %rax
 10080 3a16 4889C7   		movq	%rax, %rdi
 10081 3a19 E8AEFFFF 		call	_ZN12_GLOBAL__N_147TestCheckCloseWithZeroEpsilonWorksForSameNumberD1Ev
 10081      FF
 10082 3a1e 488B45F8 		movq	-8(%rbp), %rax
 10083 3a22 4889C7   		movq	%rax, %rdi
 10084 3a25 E8000000 		call	_ZdlPv
 10084      00
 10085 3a2a C9       		leave
 10086              		.cfi_def_cfa 7, 8
 10087 3a2b C3       		ret
 10088              		.cfi_endproc
 10089              	.LFE1289:
 10091              		.section	.rodata
 10092 0fa8 00000000 		.align 32
 10092      00000000 
 10092      00000000 
 10092      00000000 
 10092      00000000 
 10095              	_ZTVN12_GLOBAL__N_119TestCheckCloseFalseE:
 10096 0fc0 00000000 		.quad	0
 10096      00000000 
 10097 0fc8 00000000 		.quad	_ZTIN12_GLOBAL__N_119TestCheckCloseFalseE
 10097      00000000 
 10098 0fd0 00000000 		.quad	_ZN12_GLOBAL__N_119TestCheckCloseFalseD1Ev
 10098      00000000 
 10099 0fd8 00000000 		.quad	_ZN12_GLOBAL__N_119TestCheckCloseFalseD0Ev
 10099      00000000 
 10100 0fe0 00000000 		.quad	_ZNK12_GLOBAL__N_119TestCheckCloseFalse7RunImplEv
 10100      00000000 
 10101              		.text
 10102              		.align 2
 10104              	_ZN12_GLOBAL__N_119TestCheckCloseFalseD2Ev:
 10105              	.LFB1291:
 106:TestChecks.cpp **** {
 10106              		.loc 5 106 0
 10107              		.cfi_startproc
 10108 3a2c 55       		pushq	%rbp
 10109              		.cfi_def_cfa_offset 16
 10110              		.cfi_offset 6, -16
 10111 3a2d 4889E5   		movq	%rsp, %rbp
 10112              		.cfi_def_cfa_register 6
 10113 3a30 4883EC10 		subq	$16, %rsp
 10114 3a34 48897DF8 		movq	%rdi, -8(%rbp)
 10115              	.LBB152:
 106:TestChecks.cpp **** {
 10116              		.loc 5 106 0
 10117 3a38 488B45F8 		movq	-8(%rbp), %rax
 10118 3a3c 48C70000 		movq	$_ZTVN12_GLOBAL__N_119TestCheckCloseFalseE+16, (%rax)
 10118      000000
 10119 3a43 488B45F8 		movq	-8(%rbp), %rax
 10120 3a47 4889C7   		movq	%rax, %rdi
 10121 3a4a E8000000 		call	_ZN8UnitTest4TestD2Ev
 10121      00
 10122              	.LBE152:
 10123 3a4f B8000000 		movl	$0, %eax
 10123      00
 10124 3a54 85C0     		testl	%eax, %eax
 10125 3a56 740C     		je	.L504
 106:TestChecks.cpp **** {
 10126              		.loc 5 106 0 is_stmt 0 discriminator 1
 10127 3a58 488B45F8 		movq	-8(%rbp), %rax
 10128 3a5c 4889C7   		movq	%rax, %rdi
 10129 3a5f E8000000 		call	_ZdlPv
 10129      00
 10130              	.L504:
 106:TestChecks.cpp **** {
 10131              		.loc 5 106 0
 10132 3a64 C9       		leave
 10133              		.cfi_def_cfa 7, 8
 10134 3a65 C3       		ret
 10135              		.cfi_endproc
 10136              	.LFE1291:
 10138              		.set	_ZN12_GLOBAL__N_119TestCheckCloseFalseD1Ev,_ZN12_GLOBAL__N_119TestCheckCloseFalseD2Ev
 10139              		.align 2
 10141              	_ZN12_GLOBAL__N_119TestCheckCloseFalseD0Ev:
 10142              	.LFB1293:
 106:TestChecks.cpp **** {
 10143              		.loc 5 106 0 is_stmt 1
 10144              		.cfi_startproc
 10145 3a66 55       		pushq	%rbp
 10146              		.cfi_def_cfa_offset 16
 10147              		.cfi_offset 6, -16
 10148 3a67 4889E5   		movq	%rsp, %rbp
 10149              		.cfi_def_cfa_register 6
 10150 3a6a 4883EC10 		subq	$16, %rsp
 10151 3a6e 48897DF8 		movq	%rdi, -8(%rbp)
 106:TestChecks.cpp **** {
 10152              		.loc 5 106 0
 10153 3a72 488B45F8 		movq	-8(%rbp), %rax
 10154 3a76 4889C7   		movq	%rax, %rdi
 10155 3a79 E8AEFFFF 		call	_ZN12_GLOBAL__N_119TestCheckCloseFalseD1Ev
 10155      FF
 10156 3a7e 488B45F8 		movq	-8(%rbp), %rax
 10157 3a82 4889C7   		movq	%rax, %rdi
 10158 3a85 E8000000 		call	_ZdlPv
 10158      00
 10159 3a8a C9       		leave
 10160              		.cfi_def_cfa 7, 8
 10161 3a8b C3       		ret
 10162              		.cfi_endproc
 10163              	.LFE1293:
 10165              		.section	.rodata
 10166 0fe8 00000000 		.align 32
 10166      00000000 
 10166      00000000 
 10166      00000000 
 10166      00000000 
 10169              	_ZTVN12_GLOBAL__N_118TestCheckCloseTrueE:
 10170 1000 00000000 		.quad	0
 10170      00000000 
 10171 1008 00000000 		.quad	_ZTIN12_GLOBAL__N_118TestCheckCloseTrueE
 10171      00000000 
 10172 1010 00000000 		.quad	_ZN12_GLOBAL__N_118TestCheckCloseTrueD1Ev
 10172      00000000 
 10173 1018 00000000 		.quad	_ZN12_GLOBAL__N_118TestCheckCloseTrueD0Ev
 10173      00000000 
 10174 1020 00000000 		.quad	_ZNK12_GLOBAL__N_118TestCheckCloseTrue7RunImplEv
 10174      00000000 
 10175              		.text
 10176              		.align 2
 10178              	_ZN12_GLOBAL__N_118TestCheckCloseTrueD2Ev:
 10179              	.LFB1295:
  99:TestChecks.cpp **** {
 10180              		.loc 5 99 0
 10181              		.cfi_startproc
 10182 3a8c 55       		pushq	%rbp
 10183              		.cfi_def_cfa_offset 16
 10184              		.cfi_offset 6, -16
 10185 3a8d 4889E5   		movq	%rsp, %rbp
 10186              		.cfi_def_cfa_register 6
 10187 3a90 4883EC10 		subq	$16, %rsp
 10188 3a94 48897DF8 		movq	%rdi, -8(%rbp)
 10189              	.LBB153:
  99:TestChecks.cpp **** {
 10190              		.loc 5 99 0
 10191 3a98 488B45F8 		movq	-8(%rbp), %rax
 10192 3a9c 48C70000 		movq	$_ZTVN12_GLOBAL__N_118TestCheckCloseTrueE+16, (%rax)
 10192      000000
 10193 3aa3 488B45F8 		movq	-8(%rbp), %rax
 10194 3aa7 4889C7   		movq	%rax, %rdi
 10195 3aaa E8000000 		call	_ZN8UnitTest4TestD2Ev
 10195      00
 10196              	.LBE153:
 10197 3aaf B8000000 		movl	$0, %eax
 10197      00
 10198 3ab4 85C0     		testl	%eax, %eax
 10199 3ab6 740C     		je	.L509
  99:TestChecks.cpp **** {
 10200              		.loc 5 99 0 is_stmt 0 discriminator 1
 10201 3ab8 488B45F8 		movq	-8(%rbp), %rax
 10202 3abc 4889C7   		movq	%rax, %rdi
 10203 3abf E8000000 		call	_ZdlPv
 10203      00
 10204              	.L509:
  99:TestChecks.cpp **** {
 10205              		.loc 5 99 0
 10206 3ac4 C9       		leave
 10207              		.cfi_def_cfa 7, 8
 10208 3ac5 C3       		ret
 10209              		.cfi_endproc
 10210              	.LFE1295:
 10212              		.set	_ZN12_GLOBAL__N_118TestCheckCloseTrueD1Ev,_ZN12_GLOBAL__N_118TestCheckCloseTrueD2Ev
 10213              		.align 2
 10215              	_ZN12_GLOBAL__N_118TestCheckCloseTrueD0Ev:
 10216              	.LFB1297:
  99:TestChecks.cpp **** {
 10217              		.loc 5 99 0 is_stmt 1
 10218              		.cfi_startproc
 10219 3ac6 55       		pushq	%rbp
 10220              		.cfi_def_cfa_offset 16
 10221              		.cfi_offset 6, -16
 10222 3ac7 4889E5   		movq	%rsp, %rbp
 10223              		.cfi_def_cfa_register 6
 10224 3aca 4883EC10 		subq	$16, %rsp
 10225 3ace 48897DF8 		movq	%rdi, -8(%rbp)
  99:TestChecks.cpp **** {
 10226              		.loc 5 99 0
 10227 3ad2 488B45F8 		movq	-8(%rbp), %rax
 10228 3ad6 4889C7   		movq	%rax, %rdi
 10229 3ad9 E8AEFFFF 		call	_ZN12_GLOBAL__N_118TestCheckCloseTrueD1Ev
 10229      FF
 10230 3ade 488B45F8 		movq	-8(%rbp), %rax
 10231 3ae2 4889C7   		movq	%rax, %rdi
 10232 3ae5 E8000000 		call	_ZdlPv
 10232      00
 10233 3aea C9       		leave
 10234              		.cfi_def_cfa 7, 8
 10235 3aeb C3       		ret
 10236              		.cfi_endproc
 10237              	.LFE1297:
 10239              		.section	.rodata
 10240 1028 00000000 		.align 32
 10240      00000000 
 10240      00000000 
 10240      00000000 
 10240      00000000 
 10243              	_ZTVN12_GLOBAL__N_136TestCheckEqualFailureIncludesDetailsE:
 10244 1040 00000000 		.quad	0
 10244      00000000 
 10245 1048 00000000 		.quad	_ZTIN12_GLOBAL__N_136TestCheckEqualFailureIncludesDetailsE
 10245      00000000 
 10246 1050 00000000 		.quad	_ZN12_GLOBAL__N_136TestCheckEqualFailureIncludesDetailsD1Ev
 10246      00000000 
 10247 1058 00000000 		.quad	_ZN12_GLOBAL__N_136TestCheckEqualFailureIncludesDetailsD0Ev
 10247      00000000 
 10248 1060 00000000 		.quad	_ZNK12_GLOBAL__N_136TestCheckEqualFailureIncludesDetails7RunImplEv
 10248      00000000 
 10249              		.text
 10250              		.align 2
 10252              	_ZN12_GLOBAL__N_136TestCheckEqualFailureIncludesDetailsD2Ev:
 10253              	.LFB1299:
  85:TestChecks.cpp **** {
 10254              		.loc 5 85 0
 10255              		.cfi_startproc
 10256 3aec 55       		pushq	%rbp
 10257              		.cfi_def_cfa_offset 16
 10258              		.cfi_offset 6, -16
 10259 3aed 4889E5   		movq	%rsp, %rbp
 10260              		.cfi_def_cfa_register 6
 10261 3af0 4883EC10 		subq	$16, %rsp
 10262 3af4 48897DF8 		movq	%rdi, -8(%rbp)
 10263              	.LBB154:
  85:TestChecks.cpp **** {
 10264              		.loc 5 85 0
 10265 3af8 488B45F8 		movq	-8(%rbp), %rax
 10266 3afc 48C70000 		movq	$_ZTVN12_GLOBAL__N_136TestCheckEqualFailureIncludesDetailsE+16, (%rax)
 10266      000000
 10267 3b03 488B45F8 		movq	-8(%rbp), %rax
 10268 3b07 4889C7   		movq	%rax, %rdi
 10269 3b0a E8000000 		call	_ZN8UnitTest4TestD2Ev
 10269      00
 10270              	.LBE154:
 10271 3b0f B8000000 		movl	$0, %eax
 10271      00
 10272 3b14 85C0     		testl	%eax, %eax
 10273 3b16 740C     		je	.L514
  85:TestChecks.cpp **** {
 10274              		.loc 5 85 0 is_stmt 0 discriminator 1
 10275 3b18 488B45F8 		movq	-8(%rbp), %rax
 10276 3b1c 4889C7   		movq	%rax, %rdi
 10277 3b1f E8000000 		call	_ZdlPv
 10277      00
 10278              	.L514:
  85:TestChecks.cpp **** {
 10279              		.loc 5 85 0
 10280 3b24 C9       		leave
 10281              		.cfi_def_cfa 7, 8
 10282 3b25 C3       		ret
 10283              		.cfi_endproc
 10284              	.LFE1299:
 10286              		.set	_ZN12_GLOBAL__N_136TestCheckEqualFailureIncludesDetailsD1Ev,_ZN12_GLOBAL__N_136TestCheckEqual
 10287              		.align 2
 10289              	_ZN12_GLOBAL__N_136TestCheckEqualFailureIncludesDetailsD0Ev:
 10290              	.LFB1301:
  85:TestChecks.cpp **** {
 10291              		.loc 5 85 0 is_stmt 1
 10292              		.cfi_startproc
 10293 3b26 55       		pushq	%rbp
 10294              		.cfi_def_cfa_offset 16
 10295              		.cfi_offset 6, -16
 10296 3b27 4889E5   		movq	%rsp, %rbp
 10297              		.cfi_def_cfa_register 6
 10298 3b2a 4883EC10 		subq	$16, %rsp
 10299 3b2e 48897DF8 		movq	%rdi, -8(%rbp)
  85:TestChecks.cpp **** {
 10300              		.loc 5 85 0
 10301 3b32 488B45F8 		movq	-8(%rbp), %rax
 10302 3b36 4889C7   		movq	%rax, %rdi
 10303 3b39 E8AEFFFF 		call	_ZN12_GLOBAL__N_136TestCheckEqualFailureIncludesDetailsD1Ev
 10303      FF
 10304 3b3e 488B45F8 		movq	-8(%rbp), %rax
 10305 3b42 4889C7   		movq	%rax, %rdi
 10306 3b45 E8000000 		call	_ZdlPv
 10306      00
 10307 3b4a C9       		leave
 10308              		.cfi_def_cfa 7, 8
 10309 3b4b C3       		ret
 10310              		.cfi_endproc
 10311              	.LFE1301:
 10313              		.section	.rodata
 10314 1068 00000000 		.align 32
 10314      00000000 
 10314      00000000 
 10314      00000000 
 10314      00000000 
 10317              	_ZTVN12_GLOBAL__N_151TestCheckEqualFailureIncludesCheckExpectedAndActualE:
 10318 1080 00000000 		.quad	0
 10318      00000000 
 10319 1088 00000000 		.quad	_ZTIN12_GLOBAL__N_151TestCheckEqualFailureIncludesCheckExpectedAndActualE
 10319      00000000 
 10320 1090 00000000 		.quad	_ZN12_GLOBAL__N_151TestCheckEqualFailureIncludesCheckExpectedAndActualD1Ev
 10320      00000000 
 10321 1098 00000000 		.quad	_ZN12_GLOBAL__N_151TestCheckEqualFailureIncludesCheckExpectedAndActualD0Ev
 10321      00000000 
 10322 10a0 00000000 		.quad	_ZNK12_GLOBAL__N_151TestCheckEqualFailureIncludesCheckExpectedAndActual7RunImplEv
 10322      00000000 
 10323              		.text
 10324              		.align 2
 10326              	_ZN12_GLOBAL__N_151TestCheckEqualFailureIncludesCheckExpectedAndActualD2Ev:
 10327              	.LFB1303:
  73:TestChecks.cpp **** {
 10328              		.loc 5 73 0
 10329              		.cfi_startproc
 10330 3b4c 55       		pushq	%rbp
 10331              		.cfi_def_cfa_offset 16
 10332              		.cfi_offset 6, -16
 10333 3b4d 4889E5   		movq	%rsp, %rbp
 10334              		.cfi_def_cfa_register 6
 10335 3b50 4883EC10 		subq	$16, %rsp
 10336 3b54 48897DF8 		movq	%rdi, -8(%rbp)
 10337              	.LBB155:
  73:TestChecks.cpp **** {
 10338              		.loc 5 73 0
 10339 3b58 488B45F8 		movq	-8(%rbp), %rax
 10340 3b5c 48C70000 		movq	$_ZTVN12_GLOBAL__N_151TestCheckEqualFailureIncludesCheckExpectedAndActualE+16, (%rax)
 10340      000000
 10341 3b63 488B45F8 		movq	-8(%rbp), %rax
 10342 3b67 4889C7   		movq	%rax, %rdi
 10343 3b6a E8000000 		call	_ZN8UnitTest4TestD2Ev
 10343      00
 10344              	.LBE155:
 10345 3b6f B8000000 		movl	$0, %eax
 10345      00
 10346 3b74 85C0     		testl	%eax, %eax
 10347 3b76 740C     		je	.L519
  73:TestChecks.cpp **** {
 10348              		.loc 5 73 0 is_stmt 0 discriminator 1
 10349 3b78 488B45F8 		movq	-8(%rbp), %rax
 10350 3b7c 4889C7   		movq	%rax, %rdi
 10351 3b7f E8000000 		call	_ZdlPv
 10351      00
 10352              	.L519:
  73:TestChecks.cpp **** {
 10353              		.loc 5 73 0
 10354 3b84 C9       		leave
 10355              		.cfi_def_cfa 7, 8
 10356 3b85 C3       		ret
 10357              		.cfi_endproc
 10358              	.LFE1303:
 10360              		.set	_ZN12_GLOBAL__N_151TestCheckEqualFailureIncludesCheckExpectedAndActualD1Ev,_ZN12_GLOBAL__N_15
 10361              		.align 2
 10363              	_ZN12_GLOBAL__N_151TestCheckEqualFailureIncludesCheckExpectedAndActualD0Ev:
 10364              	.LFB1305:
  73:TestChecks.cpp **** {
 10365              		.loc 5 73 0 is_stmt 1
 10366              		.cfi_startproc
 10367 3b86 55       		pushq	%rbp
 10368              		.cfi_def_cfa_offset 16
 10369              		.cfi_offset 6, -16
 10370 3b87 4889E5   		movq	%rsp, %rbp
 10371              		.cfi_def_cfa_register 6
 10372 3b8a 4883EC10 		subq	$16, %rsp
 10373 3b8e 48897DF8 		movq	%rdi, -8(%rbp)
  73:TestChecks.cpp **** {
 10374              		.loc 5 73 0
 10375 3b92 488B45F8 		movq	-8(%rbp), %rax
 10376 3b96 4889C7   		movq	%rax, %rdi
 10377 3b99 E8AEFFFF 		call	_ZN12_GLOBAL__N_151TestCheckEqualFailureIncludesCheckExpectedAndActualD1Ev
 10377      FF
 10378 3b9e 488B45F8 		movq	-8(%rbp), %rax
 10379 3ba2 4889C7   		movq	%rax, %rdi
 10380 3ba5 E8000000 		call	_ZdlPv
 10380      00
 10381 3baa C9       		leave
 10382              		.cfi_def_cfa 7, 8
 10383 3bab C3       		ret
 10384              		.cfi_endproc
 10385              	.LFE1305:
 10387              		.section	.rodata
 10388 10a8 00000000 		.align 32
 10388      00000000 
 10388      00000000 
 10388      00000000 
 10388      00000000 
 10391              	_ZTVN12_GLOBAL__N_153TestCheckEqualsWithStringsWorksOnContentsWithALiteralE:
 10392 10c0 00000000 		.quad	0
 10392      00000000 
 10393 10c8 00000000 		.quad	_ZTIN12_GLOBAL__N_153TestCheckEqualsWithStringsWorksOnContentsWithALiteralE
 10393      00000000 
 10394 10d0 00000000 		.quad	_ZN12_GLOBAL__N_153TestCheckEqualsWithStringsWorksOnContentsWithALiteralD1Ev
 10394      00000000 
 10395 10d8 00000000 		.quad	_ZN12_GLOBAL__N_153TestCheckEqualsWithStringsWorksOnContentsWithALiteralD0Ev
 10395      00000000 
 10396 10e0 00000000 		.quad	_ZNK12_GLOBAL__N_153TestCheckEqualsWithStringsWorksOnContentsWithALiteral7RunImplEv
 10396      00000000 
 10397              		.text
 10398              		.align 2
 10400              	_ZN12_GLOBAL__N_153TestCheckEqualsWithStringsWorksOnContentsWithALiteralD2Ev:
 10401              	.LFB1307:
  65:TestChecks.cpp **** {
 10402              		.loc 5 65 0
 10403              		.cfi_startproc
 10404 3bac 55       		pushq	%rbp
 10405              		.cfi_def_cfa_offset 16
 10406              		.cfi_offset 6, -16
 10407 3bad 4889E5   		movq	%rsp, %rbp
 10408              		.cfi_def_cfa_register 6
 10409 3bb0 4883EC10 		subq	$16, %rsp
 10410 3bb4 48897DF8 		movq	%rdi, -8(%rbp)
 10411              	.LBB156:
  65:TestChecks.cpp **** {
 10412              		.loc 5 65 0
 10413 3bb8 488B45F8 		movq	-8(%rbp), %rax
 10414 3bbc 48C70000 		movq	$_ZTVN12_GLOBAL__N_153TestCheckEqualsWithStringsWorksOnContentsWithALiteralE+16, (%rax)
 10414      000000
 10415 3bc3 488B45F8 		movq	-8(%rbp), %rax
 10416 3bc7 4889C7   		movq	%rax, %rdi
 10417 3bca E8000000 		call	_ZN8UnitTest4TestD2Ev
 10417      00
 10418              	.LBE156:
 10419 3bcf B8000000 		movl	$0, %eax
 10419      00
 10420 3bd4 85C0     		testl	%eax, %eax
 10421 3bd6 740C     		je	.L524
  65:TestChecks.cpp **** {
 10422              		.loc 5 65 0 is_stmt 0 discriminator 1
 10423 3bd8 488B45F8 		movq	-8(%rbp), %rax
 10424 3bdc 4889C7   		movq	%rax, %rdi
 10425 3bdf E8000000 		call	_ZdlPv
 10425      00
 10426              	.L524:
  65:TestChecks.cpp **** {
 10427              		.loc 5 65 0
 10428 3be4 C9       		leave
 10429              		.cfi_def_cfa 7, 8
 10430 3be5 C3       		ret
 10431              		.cfi_endproc
 10432              	.LFE1307:
 10434              		.set	_ZN12_GLOBAL__N_153TestCheckEqualsWithStringsWorksOnContentsWithALiteralD1Ev,_ZN12_GLOBAL__N_
 10435              		.align 2
 10437              	_ZN12_GLOBAL__N_153TestCheckEqualsWithStringsWorksOnContentsWithALiteralD0Ev:
 10438              	.LFB1309:
  65:TestChecks.cpp **** {
 10439              		.loc 5 65 0 is_stmt 1
 10440              		.cfi_startproc
 10441 3be6 55       		pushq	%rbp
 10442              		.cfi_def_cfa_offset 16
 10443              		.cfi_offset 6, -16
 10444 3be7 4889E5   		movq	%rsp, %rbp
 10445              		.cfi_def_cfa_register 6
 10446 3bea 4883EC10 		subq	$16, %rsp
 10447 3bee 48897DF8 		movq	%rdi, -8(%rbp)
  65:TestChecks.cpp **** {
 10448              		.loc 5 65 0
 10449 3bf2 488B45F8 		movq	-8(%rbp), %rax
 10450 3bf6 4889C7   		movq	%rax, %rdi
 10451 3bf9 E8AEFFFF 		call	_ZN12_GLOBAL__N_153TestCheckEqualsWithStringsWorksOnContentsWithALiteralD1Ev
 10451      FF
 10452 3bfe 488B45F8 		movq	-8(%rbp), %rax
 10453 3c02 4889C7   		movq	%rax, %rdi
 10454 3c05 E8000000 		call	_ZdlPv
 10454      00
 10455 3c0a C9       		leave
 10456              		.cfi_def_cfa 7, 8
 10457 3c0b C3       		ret
 10458              		.cfi_endproc
 10459              	.LFE1309:
 10461              		.section	.rodata
 10462 10e8 00000000 		.align 32
 10462      00000000 
 10462      00000000 
 10462      00000000 
 10462      00000000 
 10465              	_ZTVN12_GLOBAL__N_154TestCheckEqualsWithStringsWorksOnContentsConstNonConstE:
 10466 1100 00000000 		.quad	0
 10466      00000000 
 10467 1108 00000000 		.quad	_ZTIN12_GLOBAL__N_154TestCheckEqualsWithStringsWorksOnContentsConstNonConstE
 10467      00000000 
 10468 1110 00000000 		.quad	_ZN12_GLOBAL__N_154TestCheckEqualsWithStringsWorksOnContentsConstNonConstD1Ev
 10468      00000000 
 10469 1118 00000000 		.quad	_ZN12_GLOBAL__N_154TestCheckEqualsWithStringsWorksOnContentsConstNonConstD0Ev
 10469      00000000 
 10470 1120 00000000 		.quad	_ZNK12_GLOBAL__N_154TestCheckEqualsWithStringsWorksOnContentsConstNonConst7RunImplEv
 10470      00000000 
 10471              		.text
 10472              		.align 2
 10474              	_ZN12_GLOBAL__N_154TestCheckEqualsWithStringsWorksOnContentsConstNonConstD2Ev:
 10475              	.LFB1311:
  56:TestChecks.cpp **** {
 10476              		.loc 5 56 0
 10477              		.cfi_startproc
 10478 3c0c 55       		pushq	%rbp
 10479              		.cfi_def_cfa_offset 16
 10480              		.cfi_offset 6, -16
 10481 3c0d 4889E5   		movq	%rsp, %rbp
 10482              		.cfi_def_cfa_register 6
 10483 3c10 4883EC10 		subq	$16, %rsp
 10484 3c14 48897DF8 		movq	%rdi, -8(%rbp)
 10485              	.LBB157:
  56:TestChecks.cpp **** {
 10486              		.loc 5 56 0
 10487 3c18 488B45F8 		movq	-8(%rbp), %rax
 10488 3c1c 48C70000 		movq	$_ZTVN12_GLOBAL__N_154TestCheckEqualsWithStringsWorksOnContentsConstNonConstE+16, (%rax)
 10488      000000
 10489 3c23 488B45F8 		movq	-8(%rbp), %rax
 10490 3c27 4889C7   		movq	%rax, %rdi
 10491 3c2a E8000000 		call	_ZN8UnitTest4TestD2Ev
 10491      00
 10492              	.LBE157:
 10493 3c2f B8000000 		movl	$0, %eax
 10493      00
 10494 3c34 85C0     		testl	%eax, %eax
 10495 3c36 740C     		je	.L529
  56:TestChecks.cpp **** {
 10496              		.loc 5 56 0 is_stmt 0 discriminator 1
 10497 3c38 488B45F8 		movq	-8(%rbp), %rax
 10498 3c3c 4889C7   		movq	%rax, %rdi
 10499 3c3f E8000000 		call	_ZdlPv
 10499      00
 10500              	.L529:
  56:TestChecks.cpp **** {
 10501              		.loc 5 56 0
 10502 3c44 C9       		leave
 10503              		.cfi_def_cfa 7, 8
 10504 3c45 C3       		ret
 10505              		.cfi_endproc
 10506              	.LFE1311:
 10508              		.set	_ZN12_GLOBAL__N_154TestCheckEqualsWithStringsWorksOnContentsConstNonConstD1Ev,_ZN12_GLOBAL__N
 10509              		.align 2
 10511              	_ZN12_GLOBAL__N_154TestCheckEqualsWithStringsWorksOnContentsConstNonConstD0Ev:
 10512              	.LFB1313:
  56:TestChecks.cpp **** {
 10513              		.loc 5 56 0 is_stmt 1
 10514              		.cfi_startproc
 10515 3c46 55       		pushq	%rbp
 10516              		.cfi_def_cfa_offset 16
 10517              		.cfi_offset 6, -16
 10518 3c47 4889E5   		movq	%rsp, %rbp
 10519              		.cfi_def_cfa_register 6
 10520 3c4a 4883EC10 		subq	$16, %rsp
 10521 3c4e 48897DF8 		movq	%rdi, -8(%rbp)
  56:TestChecks.cpp **** {
 10522              		.loc 5 56 0
 10523 3c52 488B45F8 		movq	-8(%rbp), %rax
 10524 3c56 4889C7   		movq	%rax, %rdi
 10525 3c59 E8AEFFFF 		call	_ZN12_GLOBAL__N_154TestCheckEqualsWithStringsWorksOnContentsConstNonConstD1Ev
 10525      FF
 10526 3c5e 488B45F8 		movq	-8(%rbp), %rax
 10527 3c62 4889C7   		movq	%rax, %rdi
 10528 3c65 E8000000 		call	_ZdlPv
 10528      00
 10529 3c6a C9       		leave
 10530              		.cfi_def_cfa 7, 8
 10531 3c6b C3       		ret
 10532              		.cfi_endproc
 10533              	.LFE1313:
 10535              		.section	.rodata
 10536 1128 00000000 		.align 32
 10536      00000000 
 10536      00000000 
 10536      00000000 
 10536      00000000 
 10539              	_ZTVN12_GLOBAL__N_154TestCheckEqualsWithStringsWorksOnContentsNonConstConstE:
 10540 1140 00000000 		.quad	0
 10540      00000000 
 10541 1148 00000000 		.quad	_ZTIN12_GLOBAL__N_154TestCheckEqualsWithStringsWorksOnContentsNonConstConstE
 10541      00000000 
 10542 1150 00000000 		.quad	_ZN12_GLOBAL__N_154TestCheckEqualsWithStringsWorksOnContentsNonConstConstD1Ev
 10542      00000000 
 10543 1158 00000000 		.quad	_ZN12_GLOBAL__N_154TestCheckEqualsWithStringsWorksOnContentsNonConstConstD0Ev
 10543      00000000 
 10544 1160 00000000 		.quad	_ZNK12_GLOBAL__N_154TestCheckEqualsWithStringsWorksOnContentsNonConstConst7RunImplEv
 10544      00000000 
 10545              		.text
 10546              		.align 2
 10548              	_ZN12_GLOBAL__N_154TestCheckEqualsWithStringsWorksOnContentsNonConstConstD2Ev:
 10549              	.LFB1315:
  47:TestChecks.cpp **** {
 10550              		.loc 5 47 0
 10551              		.cfi_startproc
 10552 3c6c 55       		pushq	%rbp
 10553              		.cfi_def_cfa_offset 16
 10554              		.cfi_offset 6, -16
 10555 3c6d 4889E5   		movq	%rsp, %rbp
 10556              		.cfi_def_cfa_register 6
 10557 3c70 4883EC10 		subq	$16, %rsp
 10558 3c74 48897DF8 		movq	%rdi, -8(%rbp)
 10559              	.LBB158:
  47:TestChecks.cpp **** {
 10560              		.loc 5 47 0
 10561 3c78 488B45F8 		movq	-8(%rbp), %rax
 10562 3c7c 48C70000 		movq	$_ZTVN12_GLOBAL__N_154TestCheckEqualsWithStringsWorksOnContentsNonConstConstE+16, (%rax)
 10562      000000
 10563 3c83 488B45F8 		movq	-8(%rbp), %rax
 10564 3c87 4889C7   		movq	%rax, %rdi
 10565 3c8a E8000000 		call	_ZN8UnitTest4TestD2Ev
 10565      00
 10566              	.LBE158:
 10567 3c8f B8000000 		movl	$0, %eax
 10567      00
 10568 3c94 85C0     		testl	%eax, %eax
 10569 3c96 740C     		je	.L534
  47:TestChecks.cpp **** {
 10570              		.loc 5 47 0 is_stmt 0 discriminator 1
 10571 3c98 488B45F8 		movq	-8(%rbp), %rax
 10572 3c9c 4889C7   		movq	%rax, %rdi
 10573 3c9f E8000000 		call	_ZdlPv
 10573      00
 10574              	.L534:
  47:TestChecks.cpp **** {
 10575              		.loc 5 47 0
 10576 3ca4 C9       		leave
 10577              		.cfi_def_cfa 7, 8
 10578 3ca5 C3       		ret
 10579              		.cfi_endproc
 10580              	.LFE1315:
 10582              		.set	_ZN12_GLOBAL__N_154TestCheckEqualsWithStringsWorksOnContentsNonConstConstD1Ev,_ZN12_GLOBAL__N
 10583              		.align 2
 10585              	_ZN12_GLOBAL__N_154TestCheckEqualsWithStringsWorksOnContentsNonConstConstD0Ev:
 10586              	.LFB1317:
  47:TestChecks.cpp **** {
 10587              		.loc 5 47 0 is_stmt 1
 10588              		.cfi_startproc
 10589 3ca6 55       		pushq	%rbp
 10590              		.cfi_def_cfa_offset 16
 10591              		.cfi_offset 6, -16
 10592 3ca7 4889E5   		movq	%rsp, %rbp
 10593              		.cfi_def_cfa_register 6
 10594 3caa 4883EC10 		subq	$16, %rsp
 10595 3cae 48897DF8 		movq	%rdi, -8(%rbp)
  47:TestChecks.cpp **** {
 10596              		.loc 5 47 0
 10597 3cb2 488B45F8 		movq	-8(%rbp), %rax
 10598 3cb6 4889C7   		movq	%rax, %rdi
 10599 3cb9 E8AEFFFF 		call	_ZN12_GLOBAL__N_154TestCheckEqualsWithStringsWorksOnContentsNonConstConstD1Ev
 10599      FF
 10600 3cbe 488B45F8 		movq	-8(%rbp), %rax
 10601 3cc2 4889C7   		movq	%rax, %rdi
 10602 3cc5 E8000000 		call	_ZdlPv
 10602      00
 10603 3cca C9       		leave
 10604              		.cfi_def_cfa 7, 8
 10605 3ccb C3       		ret
 10606              		.cfi_endproc
 10607              	.LFE1317:
 10609              		.section	.rodata
 10610 1168 00000000 		.align 32
 10610      00000000 
 10610      00000000 
 10610      00000000 
 10610      00000000 
 10613              	_ZTVN12_GLOBAL__N_151TestCheckEqualsWithStringsWorksOnContentsConstConstE:
 10614 1180 00000000 		.quad	0
 10614      00000000 
 10615 1188 00000000 		.quad	_ZTIN12_GLOBAL__N_151TestCheckEqualsWithStringsWorksOnContentsConstConstE
 10615      00000000 
 10616 1190 00000000 		.quad	_ZN12_GLOBAL__N_151TestCheckEqualsWithStringsWorksOnContentsConstConstD1Ev
 10616      00000000 
 10617 1198 00000000 		.quad	_ZN12_GLOBAL__N_151TestCheckEqualsWithStringsWorksOnContentsConstConstD0Ev
 10617      00000000 
 10618 11a0 00000000 		.quad	_ZNK12_GLOBAL__N_151TestCheckEqualsWithStringsWorksOnContentsConstConst7RunImplEv
 10618      00000000 
 10619              		.text
 10620              		.align 2
 10622              	_ZN12_GLOBAL__N_151TestCheckEqualsWithStringsWorksOnContentsConstConstD2Ev:
 10623              	.LFB1319:
  38:TestChecks.cpp **** {
 10624              		.loc 5 38 0
 10625              		.cfi_startproc
 10626 3ccc 55       		pushq	%rbp
 10627              		.cfi_def_cfa_offset 16
 10628              		.cfi_offset 6, -16
 10629 3ccd 4889E5   		movq	%rsp, %rbp
 10630              		.cfi_def_cfa_register 6
 10631 3cd0 4883EC10 		subq	$16, %rsp
 10632 3cd4 48897DF8 		movq	%rdi, -8(%rbp)
 10633              	.LBB159:
  38:TestChecks.cpp **** {
 10634              		.loc 5 38 0
 10635 3cd8 488B45F8 		movq	-8(%rbp), %rax
 10636 3cdc 48C70000 		movq	$_ZTVN12_GLOBAL__N_151TestCheckEqualsWithStringsWorksOnContentsConstConstE+16, (%rax)
 10636      000000
 10637 3ce3 488B45F8 		movq	-8(%rbp), %rax
 10638 3ce7 4889C7   		movq	%rax, %rdi
 10639 3cea E8000000 		call	_ZN8UnitTest4TestD2Ev
 10639      00
 10640              	.LBE159:
 10641 3cef B8000000 		movl	$0, %eax
 10641      00
 10642 3cf4 85C0     		testl	%eax, %eax
 10643 3cf6 740C     		je	.L539
  38:TestChecks.cpp **** {
 10644              		.loc 5 38 0 is_stmt 0 discriminator 1
 10645 3cf8 488B45F8 		movq	-8(%rbp), %rax
 10646 3cfc 4889C7   		movq	%rax, %rdi
 10647 3cff E8000000 		call	_ZdlPv
 10647      00
 10648              	.L539:
  38:TestChecks.cpp **** {
 10649              		.loc 5 38 0
 10650 3d04 C9       		leave
 10651              		.cfi_def_cfa 7, 8
 10652 3d05 C3       		ret
 10653              		.cfi_endproc
 10654              	.LFE1319:
 10656              		.set	_ZN12_GLOBAL__N_151TestCheckEqualsWithStringsWorksOnContentsConstConstD1Ev,_ZN12_GLOBAL__N_15
 10657              		.align 2
 10659              	_ZN12_GLOBAL__N_151TestCheckEqualsWithStringsWorksOnContentsConstConstD0Ev:
 10660              	.LFB1321:
  38:TestChecks.cpp **** {
 10661              		.loc 5 38 0 is_stmt 1
 10662              		.cfi_startproc
 10663 3d06 55       		pushq	%rbp
 10664              		.cfi_def_cfa_offset 16
 10665              		.cfi_offset 6, -16
 10666 3d07 4889E5   		movq	%rsp, %rbp
 10667              		.cfi_def_cfa_register 6
 10668 3d0a 4883EC10 		subq	$16, %rsp
 10669 3d0e 48897DF8 		movq	%rdi, -8(%rbp)
  38:TestChecks.cpp **** {
 10670              		.loc 5 38 0
 10671 3d12 488B45F8 		movq	-8(%rbp), %rax
 10672 3d16 4889C7   		movq	%rax, %rdi
 10673 3d19 E8AEFFFF 		call	_ZN12_GLOBAL__N_151TestCheckEqualsWithStringsWorksOnContentsConstConstD1Ev
 10673      FF
 10674 3d1e 488B45F8 		movq	-8(%rbp), %rax
 10675 3d22 4889C7   		movq	%rax, %rdi
 10676 3d25 E8000000 		call	_ZdlPv
 10676      00
 10677 3d2a C9       		leave
 10678              		.cfi_def_cfa 7, 8
 10679 3d2b C3       		ret
 10680              		.cfi_endproc
 10681              	.LFE1321:
 10683              		.section	.rodata
 10684 11a8 00000000 		.align 32
 10684      00000000 
 10684      00000000 
 10684      00000000 
 10684      00000000 
 10687              	_ZTVN12_GLOBAL__N_157TestCheckEqualsWithStringsWorksOnContentsNonConstNonConstE:
 10688 11c0 00000000 		.quad	0
 10688      00000000 
 10689 11c8 00000000 		.quad	_ZTIN12_GLOBAL__N_157TestCheckEqualsWithStringsWorksOnContentsNonConstNonConstE
 10689      00000000 
 10690 11d0 00000000 		.quad	_ZN12_GLOBAL__N_157TestCheckEqualsWithStringsWorksOnContentsNonConstNonConstD1Ev
 10690      00000000 
 10691 11d8 00000000 		.quad	_ZN12_GLOBAL__N_157TestCheckEqualsWithStringsWorksOnContentsNonConstNonConstD0Ev
 10691      00000000 
 10692 11e0 00000000 		.quad	_ZNK12_GLOBAL__N_157TestCheckEqualsWithStringsWorksOnContentsNonConstNonConst7RunImplEv
 10692      00000000 
 10693              		.text
 10694              		.align 2
 10696              	_ZN12_GLOBAL__N_157TestCheckEqualsWithStringsWorksOnContentsNonConstNonConstD2Ev:
 10697              	.LFB1323:
  29:TestChecks.cpp **** {
 10698              		.loc 5 29 0
 10699              		.cfi_startproc
 10700 3d2c 55       		pushq	%rbp
 10701              		.cfi_def_cfa_offset 16
 10702              		.cfi_offset 6, -16
 10703 3d2d 4889E5   		movq	%rsp, %rbp
 10704              		.cfi_def_cfa_register 6
 10705 3d30 4883EC10 		subq	$16, %rsp
 10706 3d34 48897DF8 		movq	%rdi, -8(%rbp)
 10707              	.LBB160:
  29:TestChecks.cpp **** {
 10708              		.loc 5 29 0
 10709 3d38 488B45F8 		movq	-8(%rbp), %rax
 10710 3d3c 48C70000 		movq	$_ZTVN12_GLOBAL__N_157TestCheckEqualsWithStringsWorksOnContentsNonConstNonConstE+16, (%rax)
 10710      000000
 10711 3d43 488B45F8 		movq	-8(%rbp), %rax
 10712 3d47 4889C7   		movq	%rax, %rdi
 10713 3d4a E8000000 		call	_ZN8UnitTest4TestD2Ev
 10713      00
 10714              	.LBE160:
 10715 3d4f B8000000 		movl	$0, %eax
 10715      00
 10716 3d54 85C0     		testl	%eax, %eax
 10717 3d56 740C     		je	.L544
  29:TestChecks.cpp **** {
 10718              		.loc 5 29 0 is_stmt 0 discriminator 1
 10719 3d58 488B45F8 		movq	-8(%rbp), %rax
 10720 3d5c 4889C7   		movq	%rax, %rdi
 10721 3d5f E8000000 		call	_ZdlPv
 10721      00
 10722              	.L544:
  29:TestChecks.cpp **** {
 10723              		.loc 5 29 0
 10724 3d64 C9       		leave
 10725              		.cfi_def_cfa 7, 8
 10726 3d65 C3       		ret
 10727              		.cfi_endproc
 10728              	.LFE1323:
 10730              		.set	_ZN12_GLOBAL__N_157TestCheckEqualsWithStringsWorksOnContentsNonConstNonConstD1Ev,_ZN12_GLOBAL
 10731              		.align 2
 10733              	_ZN12_GLOBAL__N_157TestCheckEqualsWithStringsWorksOnContentsNonConstNonConstD0Ev:
 10734              	.LFB1325:
  29:TestChecks.cpp **** {
 10735              		.loc 5 29 0 is_stmt 1
 10736              		.cfi_startproc
 10737 3d66 55       		pushq	%rbp
 10738              		.cfi_def_cfa_offset 16
 10739              		.cfi_offset 6, -16
 10740 3d67 4889E5   		movq	%rsp, %rbp
 10741              		.cfi_def_cfa_register 6
 10742 3d6a 4883EC10 		subq	$16, %rsp
 10743 3d6e 48897DF8 		movq	%rdi, -8(%rbp)
  29:TestChecks.cpp **** {
 10744              		.loc 5 29 0
 10745 3d72 488B45F8 		movq	-8(%rbp), %rax
 10746 3d76 4889C7   		movq	%rax, %rdi
 10747 3d79 E8AEFFFF 		call	_ZN12_GLOBAL__N_157TestCheckEqualsWithStringsWorksOnContentsNonConstNonConstD1Ev
 10747      FF
 10748 3d7e 488B45F8 		movq	-8(%rbp), %rax
 10749 3d82 4889C7   		movq	%rax, %rdi
 10750 3d85 E8000000 		call	_ZdlPv
 10750      00
 10751 3d8a C9       		leave
 10752              		.cfi_def_cfa 7, 8
 10753 3d8b C3       		ret
 10754              		.cfi_endproc
 10755              	.LFE1325:
 10757              		.section	.rodata
 10758 11e8 00000000 		.align 32
 10758      00000000 
 10758      00000000 
 10758      00000000 
 10758      00000000 
 10761              	_ZTVN12_GLOBAL__N_149TestCheckEqualsWithStringsFailsOnDifferentStringsE:
 10762 1200 00000000 		.quad	0
 10762      00000000 
 10763 1208 00000000 		.quad	_ZTIN12_GLOBAL__N_149TestCheckEqualsWithStringsFailsOnDifferentStringsE
 10763      00000000 
 10764 1210 00000000 		.quad	_ZN12_GLOBAL__N_149TestCheckEqualsWithStringsFailsOnDifferentStringsD1Ev
 10764      00000000 
 10765 1218 00000000 		.quad	_ZN12_GLOBAL__N_149TestCheckEqualsWithStringsFailsOnDifferentStringsD0Ev
 10765      00000000 
 10766 1220 00000000 		.quad	_ZNK12_GLOBAL__N_149TestCheckEqualsWithStringsFailsOnDifferentStrings7RunImplEv
 10766      00000000 
 10767              		.text
 10768              		.align 2
 10770              	_ZN12_GLOBAL__N_149TestCheckEqualsWithStringsFailsOnDifferentStringsD2Ev:
 10771              	.LFB1327:
  17:TestChecks.cpp **** {
 10772              		.loc 5 17 0
 10773              		.cfi_startproc
 10774 3d8c 55       		pushq	%rbp
 10775              		.cfi_def_cfa_offset 16
 10776              		.cfi_offset 6, -16
 10777 3d8d 4889E5   		movq	%rsp, %rbp
 10778              		.cfi_def_cfa_register 6
 10779 3d90 4883EC10 		subq	$16, %rsp
 10780 3d94 48897DF8 		movq	%rdi, -8(%rbp)
 10781              	.LBB161:
  17:TestChecks.cpp **** {
 10782              		.loc 5 17 0
 10783 3d98 488B45F8 		movq	-8(%rbp), %rax
 10784 3d9c 48C70000 		movq	$_ZTVN12_GLOBAL__N_149TestCheckEqualsWithStringsFailsOnDifferentStringsE+16, (%rax)
 10784      000000
 10785 3da3 488B45F8 		movq	-8(%rbp), %rax
 10786 3da7 4889C7   		movq	%rax, %rdi
 10787 3daa E8000000 		call	_ZN8UnitTest4TestD2Ev
 10787      00
 10788              	.LBE161:
 10789 3daf B8000000 		movl	$0, %eax
 10789      00
 10790 3db4 85C0     		testl	%eax, %eax
 10791 3db6 740C     		je	.L549
  17:TestChecks.cpp **** {
 10792              		.loc 5 17 0 is_stmt 0 discriminator 1
 10793 3db8 488B45F8 		movq	-8(%rbp), %rax
 10794 3dbc 4889C7   		movq	%rax, %rdi
 10795 3dbf E8000000 		call	_ZdlPv
 10795      00
 10796              	.L549:
  17:TestChecks.cpp **** {
 10797              		.loc 5 17 0
 10798 3dc4 C9       		leave
 10799              		.cfi_def_cfa 7, 8
 10800 3dc5 C3       		ret
 10801              		.cfi_endproc
 10802              	.LFE1327:
 10804              		.set	_ZN12_GLOBAL__N_149TestCheckEqualsWithStringsFailsOnDifferentStringsD1Ev,_ZN12_GLOBAL__N_149T
 10805              		.align 2
 10807              	_ZN12_GLOBAL__N_149TestCheckEqualsWithStringsFailsOnDifferentStringsD0Ev:
 10808              	.LFB1329:
  17:TestChecks.cpp **** {
 10809              		.loc 5 17 0 is_stmt 1
 10810              		.cfi_startproc
 10811 3dc6 55       		pushq	%rbp
 10812              		.cfi_def_cfa_offset 16
 10813              		.cfi_offset 6, -16
 10814 3dc7 4889E5   		movq	%rsp, %rbp
 10815              		.cfi_def_cfa_register 6
 10816 3dca 4883EC10 		subq	$16, %rsp
 10817 3dce 48897DF8 		movq	%rdi, -8(%rbp)
  17:TestChecks.cpp **** {
 10818              		.loc 5 17 0
 10819 3dd2 488B45F8 		movq	-8(%rbp), %rax
 10820 3dd6 4889C7   		movq	%rax, %rdi
 10821 3dd9 E8AEFFFF 		call	_ZN12_GLOBAL__N_149TestCheckEqualsWithStringsFailsOnDifferentStringsD1Ev
 10821      FF
 10822 3dde 488B45F8 		movq	-8(%rbp), %rax
 10823 3de2 4889C7   		movq	%rax, %rdi
 10824 3de5 E8000000 		call	_ZdlPv
 10824      00
 10825 3dea C9       		leave
 10826              		.cfi_def_cfa 7, 8
 10827 3deb C3       		ret
 10828              		.cfi_endproc
 10829              	.LFE1329:
 10831              		.section	.rodata
 10832 1228 00000000 		.align 32
 10832      00000000 
 10832      00000000 
 10832      00000000 
 10832      00000000 
 10835              	_ZTVN12_GLOBAL__N_130TestCheckEqualWithUnsignedLongE:
 10836 1240 00000000 		.quad	0
 10836      00000000 
 10837 1248 00000000 		.quad	_ZTIN12_GLOBAL__N_130TestCheckEqualWithUnsignedLongE
 10837      00000000 
 10838 1250 00000000 		.quad	_ZN12_GLOBAL__N_130TestCheckEqualWithUnsignedLongD1Ev
 10838      00000000 
 10839 1258 00000000 		.quad	_ZN12_GLOBAL__N_130TestCheckEqualWithUnsignedLongD0Ev
 10839      00000000 
 10840 1260 00000000 		.quad	_ZNK12_GLOBAL__N_130TestCheckEqualWithUnsignedLong7RunImplEv
 10840      00000000 
 10841              		.text
 10842              		.align 2
 10844              	_ZN12_GLOBAL__N_130TestCheckEqualWithUnsignedLongD2Ev:
 10845              	.LFB1331:
  10:TestChecks.cpp **** {
 10846              		.loc 5 10 0
 10847              		.cfi_startproc
 10848 3dec 55       		pushq	%rbp
 10849              		.cfi_def_cfa_offset 16
 10850              		.cfi_offset 6, -16
 10851 3ded 4889E5   		movq	%rsp, %rbp
 10852              		.cfi_def_cfa_register 6
 10853 3df0 4883EC10 		subq	$16, %rsp
 10854 3df4 48897DF8 		movq	%rdi, -8(%rbp)
 10855              	.LBB162:
  10:TestChecks.cpp **** {
 10856              		.loc 5 10 0
 10857 3df8 488B45F8 		movq	-8(%rbp), %rax
 10858 3dfc 48C70000 		movq	$_ZTVN12_GLOBAL__N_130TestCheckEqualWithUnsignedLongE+16, (%rax)
 10858      000000
 10859 3e03 488B45F8 		movq	-8(%rbp), %rax
 10860 3e07 4889C7   		movq	%rax, %rdi
 10861 3e0a E8000000 		call	_ZN8UnitTest4TestD2Ev
 10861      00
 10862              	.LBE162:
 10863 3e0f B8000000 		movl	$0, %eax
 10863      00
 10864 3e14 85C0     		testl	%eax, %eax
 10865 3e16 740C     		je	.L554
  10:TestChecks.cpp **** {
 10866              		.loc 5 10 0 is_stmt 0 discriminator 1
 10867 3e18 488B45F8 		movq	-8(%rbp), %rax
 10868 3e1c 4889C7   		movq	%rax, %rdi
 10869 3e1f E8000000 		call	_ZdlPv
 10869      00
 10870              	.L554:
  10:TestChecks.cpp **** {
 10871              		.loc 5 10 0
 10872 3e24 C9       		leave
 10873              		.cfi_def_cfa 7, 8
 10874 3e25 C3       		ret
 10875              		.cfi_endproc
 10876              	.LFE1331:
 10878              		.set	_ZN12_GLOBAL__N_130TestCheckEqualWithUnsignedLongD1Ev,_ZN12_GLOBAL__N_130TestCheckEqualWithUn
 10879              		.align 2
 10881              	_ZN12_GLOBAL__N_130TestCheckEqualWithUnsignedLongD0Ev:
 10882              	.LFB1333:
  10:TestChecks.cpp **** {
 10883              		.loc 5 10 0 is_stmt 1
 10884              		.cfi_startproc
 10885 3e26 55       		pushq	%rbp
 10886              		.cfi_def_cfa_offset 16
 10887              		.cfi_offset 6, -16
 10888 3e27 4889E5   		movq	%rsp, %rbp
 10889              		.cfi_def_cfa_register 6
 10890 3e2a 4883EC10 		subq	$16, %rsp
 10891 3e2e 48897DF8 		movq	%rdi, -8(%rbp)
  10:TestChecks.cpp **** {
 10892              		.loc 5 10 0
 10893 3e32 488B45F8 		movq	-8(%rbp), %rax
 10894 3e36 4889C7   		movq	%rax, %rdi
 10895 3e39 E8AEFFFF 		call	_ZN12_GLOBAL__N_130TestCheckEqualWithUnsignedLongD1Ev
 10895      FF
 10896 3e3e 488B45F8 		movq	-8(%rbp), %rax
 10897 3e42 4889C7   		movq	%rax, %rdi
 10898 3e45 E8000000 		call	_ZdlPv
 10898      00
 10899 3e4a C9       		leave
 10900              		.cfi_def_cfa 7, 8
 10901 3e4b C3       		ret
 10902              		.cfi_endproc
 10903              	.LFE1333:
 10905              		.weak	_ZTV17RecordingReporter
 10906              		.section	.rodata._ZTV17RecordingReporter,"aG",@progbits,_ZTV17RecordingReporter,comdat
 10907              		.align 32
 10910              	_ZTV17RecordingReporter:
 10911 0000 00000000 		.quad	0
 10911      00000000 
 10912 0008 00000000 		.quad	_ZTI17RecordingReporter
 10912      00000000 
 10913 0010 00000000 		.quad	_ZN17RecordingReporterD1Ev
 10913      00000000 
 10914 0018 00000000 		.quad	_ZN17RecordingReporterD0Ev
 10914      00000000 
 10915 0020 00000000 		.quad	_ZN17RecordingReporter15ReportTestStartERKN8UnitTest11TestDetailsE
 10915      00000000 
 10916 0028 00000000 		.quad	_ZN17RecordingReporter13ReportFailureERKN8UnitTest11TestDetailsEPKc
 10916      00000000 
 10917 0030 00000000 		.quad	_ZN17RecordingReporter16ReportTestFinishERKN8UnitTest11TestDetailsEf
 10917      00000000 
 10918 0038 00000000 		.quad	_ZN17RecordingReporter13ReportSummaryEiiif
 10918      00000000 
 10919              		.section	.text._ZN17RecordingReporterD2Ev,"axG",@progbits,_ZN17RecordingReporterD5Ev,comdat
 10920              		.align 2
 10921              		.weak	_ZN17RecordingReporterD2Ev
 10923              	_ZN17RecordingReporterD2Ev:
 10924              	.LFB1335:
   9:RecordingReporter.h **** {
 10925              		.loc 4 9 0
 10926              		.cfi_startproc
 10927 0000 55       		pushq	%rbp
 10928              		.cfi_def_cfa_offset 16
 10929              		.cfi_offset 6, -16
 10930 0001 4889E5   		movq	%rsp, %rbp
 10931              		.cfi_def_cfa_register 6
 10932 0004 4883EC10 		subq	$16, %rsp
 10933 0008 48897DF8 		movq	%rdi, -8(%rbp)
 10934              	.LBB163:
   9:RecordingReporter.h **** {
 10935              		.loc 4 9 0
 10936 000c 488B45F8 		movq	-8(%rbp), %rax
 10937 0010 48C70000 		movq	$_ZTV17RecordingReporter+16, (%rax)
 10937      000000
 10938 0017 488B45F8 		movq	-8(%rbp), %rax
 10939 001b 4889C7   		movq	%rax, %rdi
 10940 001e E8000000 		call	_ZN8UnitTest12TestReporterD2Ev
 10940      00
 10941              	.LBE163:
 10942 0023 B8000000 		movl	$0, %eax
 10942      00
 10943 0028 85C0     		testl	%eax, %eax
 10944 002a 740C     		je	.L559
   9:RecordingReporter.h **** {
 10945              		.loc 4 9 0 is_stmt 0 discriminator 1
 10946 002c 488B45F8 		movq	-8(%rbp), %rax
 10947 0030 4889C7   		movq	%rax, %rdi
 10948 0033 E8000000 		call	_ZdlPv
 10948      00
 10949              	.L559:
   9:RecordingReporter.h **** {
 10950              		.loc 4 9 0
 10951 0038 C9       		leave
 10952              		.cfi_def_cfa 7, 8
 10953 0039 C3       		ret
 10954              		.cfi_endproc
 10955              	.LFE1335:
 10957              		.weak	_ZN17RecordingReporterD1Ev
 10958              		.set	_ZN17RecordingReporterD1Ev,_ZN17RecordingReporterD2Ev
 10959              		.section	.text._ZN17RecordingReporterD0Ev,"axG",@progbits,_ZN17RecordingReporterD0Ev,comdat
 10960              		.align 2
 10961              		.weak	_ZN17RecordingReporterD0Ev
 10963              	_ZN17RecordingReporterD0Ev:
 10964              	.LFB1337:
   9:RecordingReporter.h **** {
 10965              		.loc 4 9 0 is_stmt 1
 10966              		.cfi_startproc
 10967 0000 55       		pushq	%rbp
 10968              		.cfi_def_cfa_offset 16
 10969              		.cfi_offset 6, -16
 10970 0001 4889E5   		movq	%rsp, %rbp
 10971              		.cfi_def_cfa_register 6
 10972 0004 4883EC10 		subq	$16, %rsp
 10973 0008 48897DF8 		movq	%rdi, -8(%rbp)
   9:RecordingReporter.h **** {
 10974              		.loc 4 9 0
 10975 000c 488B45F8 		movq	-8(%rbp), %rax
 10976 0010 4889C7   		movq	%rax, %rdi
 10977 0013 E8000000 		call	_ZN17RecordingReporterD1Ev
 10977      00
 10978 0018 488B45F8 		movq	-8(%rbp), %rax
 10979 001c 4889C7   		movq	%rax, %rdi
 10980 001f E8000000 		call	_ZdlPv
 10980      00
 10981 0024 C9       		leave
 10982              		.cfi_def_cfa 7, 8
 10983 0025 C3       		ret
 10984              		.cfi_endproc
 10985              	.LFE1337:
 10987              		.weak	_ZTVN8UnitTest15MemoryOutStreamE
 10988              		.section	.rodata._ZTVN8UnitTest15MemoryOutStreamE,"aG",@progbits,_ZTVN8UnitTest15MemoryOutStreamE,
 10989              		.align 32
 10992              	_ZTVN8UnitTest15MemoryOutStreamE:
 10993 0000 60000000 		.quad	96
 10993      00000000 
 10994 0008 00000000 		.quad	0
 10994      00000000 
 10995 0010 00000000 		.quad	_ZTIN8UnitTest15MemoryOutStreamE
 10995      00000000 
 10996 0018 00000000 		.quad	_ZN8UnitTest15MemoryOutStreamD1Ev
 10996      00000000 
 10997 0020 00000000 		.quad	_ZN8UnitTest15MemoryOutStreamD0Ev
 10997      00000000 
 10998 0028 A0FFFFFF 		.quad	-96
 10998      FFFFFFFF 
 10999 0030 A0FFFFFF 		.quad	-96
 10999      FFFFFFFF 
 11000 0038 00000000 		.quad	_ZTIN8UnitTest15MemoryOutStreamE
 11000      00000000 
 11001 0040 00000000 		.quad	_ZTv0_n24_N8UnitTest15MemoryOutStreamD1Ev
 11001      00000000 
 11002 0048 00000000 		.quad	_ZTv0_n24_N8UnitTest15MemoryOutStreamD0Ev
 11002      00000000 
 11003              		.weak	_ZTTN8UnitTest15MemoryOutStreamE
 11004              		.section	.rodata._ZTTN8UnitTest15MemoryOutStreamE,"aG",@progbits,_ZTVN8UnitTest15MemoryOutStreamE,
 11005              		.align 32
 11008              	_ZTTN8UnitTest15MemoryOutStreamE:
 11009 0000 00000000 		.quad	_ZTVN8UnitTest15MemoryOutStreamE+24
 11009      00000000 
 11010 0008 00000000 		.quad	_ZTCN8UnitTest15MemoryOutStreamE0_St19basic_ostringstreamIcSt11char_traitsIcESaIcEE+24
 11010      00000000 
 11011 0010 00000000 		.quad	_ZTCN8UnitTest15MemoryOutStreamE0_So+24
 11011      00000000 
 11012 0018 00000000 		.quad	_ZTCN8UnitTest15MemoryOutStreamE0_So+64
 11012      00000000 
 11013 0020 00000000 		.quad	_ZTCN8UnitTest15MemoryOutStreamE0_St19basic_ostringstreamIcSt11char_traitsIcESaIcEE+64
 11013      00000000 
 11014 0028 00000000 		.quad	_ZTVN8UnitTest15MemoryOutStreamE+64
 11014      00000000 
 11015              		.hidden	_ZTCN8UnitTest15MemoryOutStreamE0_St19basic_ostringstreamIcSt11char_traitsIcESaIcEE
 11016              		.weak	_ZTCN8UnitTest15MemoryOutStreamE0_St19basic_ostringstreamIcSt11char_traitsIcESaIcEE
 11017              		.section	.rodata._ZTCN8UnitTest15MemoryOutStreamE0_St19basic_ostringstreamIcSt11char_traitsIcESaIc
 11018              		.align 32
 11021              	_ZTCN8UnitTest15MemoryOutStreamE0_St19basic_ostringstreamIcSt11char_traitsIcESaIcEE:
 11022 0000 60000000 		.quad	96
 11022      00000000 
 11023 0008 00000000 		.quad	0
 11023      00000000 
 11024 0010 00000000 		.quad	_ZTISt19basic_ostringstreamIcSt11char_traitsIcESaIcEE
 11024      00000000 
 11025 0018 00000000 		.quad	_ZNSt19basic_ostringstreamIcSt11char_traitsIcESaIcEED1Ev
 11025      00000000 
 11026 0020 00000000 		.quad	_ZNSt19basic_ostringstreamIcSt11char_traitsIcESaIcEED0Ev
 11026      00000000 
 11027 0028 A0FFFFFF 		.quad	-96
 11027      FFFFFFFF 
 11028 0030 A0FFFFFF 		.quad	-96
 11028      FFFFFFFF 
 11029 0038 00000000 		.quad	_ZTISt19basic_ostringstreamIcSt11char_traitsIcESaIcEE
 11029      00000000 
 11030 0040 00000000 		.quad	_ZTv0_n24_NSt19basic_ostringstreamIcSt11char_traitsIcESaIcEED1Ev
 11030      00000000 
 11031 0048 00000000 		.quad	_ZTv0_n24_NSt19basic_ostringstreamIcSt11char_traitsIcESaIcEED0Ev
 11031      00000000 
 11032              		.hidden	_ZTCN8UnitTest15MemoryOutStreamE0_So
 11033              		.weak	_ZTCN8UnitTest15MemoryOutStreamE0_So
 11034              		.section	.rodata._ZTCN8UnitTest15MemoryOutStreamE0_So,"aG",@progbits,_ZTVN8UnitTest15MemoryOutStre
 11035              		.align 32
 11038              	_ZTCN8UnitTest15MemoryOutStreamE0_So:
 11039 0000 60000000 		.quad	96
 11039      00000000 
 11040 0008 00000000 		.quad	0
 11040      00000000 
 11041 0010 00000000 		.quad	_ZTISo
 11041      00000000 
 11042 0018 00000000 		.quad	_ZNSoD1Ev
 11042      00000000 
 11043 0020 00000000 		.quad	_ZNSoD0Ev
 11043      00000000 
 11044 0028 A0FFFFFF 		.quad	-96
 11044      FFFFFFFF 
 11045 0030 A0FFFFFF 		.quad	-96
 11045      FFFFFFFF 
 11046 0038 00000000 		.quad	_ZTISo
 11046      00000000 
 11047 0040 00000000 		.quad	_ZTv0_n24_NSoD1Ev
 11047      00000000 
 11048 0048 00000000 		.quad	_ZTv0_n24_NSoD0Ev
 11048      00000000 
 11049              		.weak	_ZTS17RecordingReporter
 11050              		.section	.rodata._ZTS17RecordingReporter,"aG",@progbits,_ZTS17RecordingReporter,comdat
 11051              		.align 16
 11054              	_ZTS17RecordingReporter:
 11055 0000 31375265 		.string	"17RecordingReporter"
 11055      636F7264 
 11055      696E6752 
 11055      65706F72 
 11055      74657200 
 11056              		.weak	_ZTI17RecordingReporter
 11057              		.section	.rodata._ZTI17RecordingReporter,"aG",@progbits,_ZTI17RecordingReporter,comdat
 11058              		.align 16
 11061              	_ZTI17RecordingReporter:
 11062 0000 00000000 		.quad	_ZTVN10__cxxabiv120__si_class_type_infoE+16
 11062      00000000 
 11063 0008 00000000 		.quad	_ZTS17RecordingReporter
 11063      00000000 
 11064 0010 00000000 		.quad	_ZTIN8UnitTest12TestReporterE
 11064      00000000 
 11065              		.weak	_ZTSN8UnitTest15MemoryOutStreamE
 11066              		.section	.rodata._ZTSN8UnitTest15MemoryOutStreamE,"aG",@progbits,_ZTSN8UnitTest15MemoryOutStreamE,
 11067              		.align 16
 11070              	_ZTSN8UnitTest15MemoryOutStreamE:
 11071 0000 4E38556E 		.string	"N8UnitTest15MemoryOutStreamE"
 11071      69745465 
 11071      73743135 
 11071      4D656D6F 
 11071      72794F75 
 11072              		.weak	_ZTIN8UnitTest15MemoryOutStreamE
 11073              		.section	.rodata._ZTIN8UnitTest15MemoryOutStreamE,"aG",@progbits,_ZTIN8UnitTest15MemoryOutStreamE,
 11074              		.align 16
 11077              	_ZTIN8UnitTest15MemoryOutStreamE:
 11078 0000 00000000 		.quad	_ZTVN10__cxxabiv120__si_class_type_infoE+16
 11078      00000000 
 11079 0008 00000000 		.quad	_ZTSN8UnitTest15MemoryOutStreamE
 11079      00000000 
 11080 0010 00000000 		.quad	_ZTISt19basic_ostringstreamIcSt11char_traitsIcESaIcEE
 11080      00000000 
 11081              		.text
 11083              	_Z41__static_initialization_and_destruction_0ii:
 11084              	.LFB1338:
 292:TestChecks.cpp **** 
 293:TestChecks.cpp **** }
 11085              		.loc 5 293 0
 11086              		.cfi_startproc
 11087 3e4c 55       		pushq	%rbp
 11088              		.cfi_def_cfa_offset 16
 11089              		.cfi_offset 6, -16
 11090 3e4d 4889E5   		movq	%rsp, %rbp
 11091              		.cfi_def_cfa_register 6
 11092 3e50 4883EC10 		subq	$16, %rsp
 11093 3e54 897DFC   		movl	%edi, -4(%rbp)
 11094 3e57 8975F8   		movl	%esi, -8(%rbp)
 11095              		.loc 5 293 0
 11096 3e5a 837DFC01 		cmpl	$1, -4(%rbp)
 11097 3e5e 0F856F05 		jne	.L564
 11097      0000
 11098              		.loc 5 293 0 is_stmt 0 discriminator 1
 11099 3e64 817DF8FF 		cmpl	$65535, -8(%rbp)
 11099      FF0000
 11100 3e6b 0F856205 		jne	.L564
 11100      0000
  10:TestChecks.cpp **** {
 11101              		.loc 5 10 0 is_stmt 1
 11102 3e71 BF000000 		movl	$_ZN12_GLOBAL__N_138testCheckEqualWithUnsignedLongInstanceE, %edi
 11102      00
 11103 3e76 E885C1FF 		call	_ZN12_GLOBAL__N_130TestCheckEqualWithUnsignedLongC1Ev
 11103      FF
 11104 3e7b BA000000 		movl	$__dso_handle, %edx
 11104      00
 11105 3e80 BE000000 		movl	$_ZN12_GLOBAL__N_138testCheckEqualWithUnsignedLongInstanceE, %esi
 11105      00
 11106 3e85 BF000000 		movl	$_ZN12_GLOBAL__N_130TestCheckEqualWithUnsignedLongD1Ev, %edi
 11106      00
 11107 3e8a E8000000 		call	__cxa_atexit
 11107      00
 11108 3e8f E8000000 		call	_ZN8UnitTest4Test11GetTestListEv
 11108      00
 11109 3e94 BA000000 		movl	$_ZN12_GLOBAL__N_138testCheckEqualWithUnsignedLongInstanceE, %edx
 11109      00
 11110 3e99 4889C6   		movq	%rax, %rsi
 11111 3e9c BF000000 		movl	$_ZN12_GLOBAL__N_131adderCheckEqualWithUnsignedLongE, %edi
 11111      00
 11112 3ea1 E8000000 		call	_ZN8UnitTest9ListAdderC1ERNS_8TestListEPNS_4TestE
 11112      00
  17:TestChecks.cpp **** {
 11113              		.loc 5 17 0
 11114 3ea6 BF000000 		movl	$_ZN12_GLOBAL__N_157testCheckEqualsWithStringsFailsOnDifferentStringsInstanceE, %edi
 11114      00
 11115 3eab E84EC2FF 		call	_ZN12_GLOBAL__N_149TestCheckEqualsWithStringsFailsOnDifferentStringsC1Ev
 11115      FF
 11116 3eb0 BA000000 		movl	$__dso_handle, %edx
 11116      00
 11117 3eb5 BE000000 		movl	$_ZN12_GLOBAL__N_157testCheckEqualsWithStringsFailsOnDifferentStringsInstanceE, %esi
 11117      00
 11118 3eba BF000000 		movl	$_ZN12_GLOBAL__N_149TestCheckEqualsWithStringsFailsOnDifferentStringsD1Ev, %edi
 11118      00
 11119 3ebf E8000000 		call	__cxa_atexit
 11119      00
 11120 3ec4 E8000000 		call	_ZN8UnitTest4Test11GetTestListEv
 11120      00
 11121 3ec9 BA000000 		movl	$_ZN12_GLOBAL__N_157testCheckEqualsWithStringsFailsOnDifferentStringsInstanceE, %edx
 11121      00
 11122 3ece 4889C6   		movq	%rax, %rsi
 11123 3ed1 BF000000 		movl	$_ZN12_GLOBAL__N_150adderCheckEqualsWithStringsFailsOnDifferentStringsE, %edi
 11123      00
 11124 3ed6 E8000000 		call	_ZN8UnitTest9ListAdderC1ERNS_8TestListEPNS_4TestE
 11124      00
  29:TestChecks.cpp **** {
 11125              		.loc 5 29 0
 11126 3edb BF000000 		movl	$_ZN12_GLOBAL__N_165testCheckEqualsWithStringsWorksOnContentsNonConstNonConstInstanceE, %edi
 11126      00
 11127 3ee0 E8A5C3FF 		call	_ZN12_GLOBAL__N_157TestCheckEqualsWithStringsWorksOnContentsNonConstNonConstC1Ev
 11127      FF
 11128 3ee5 BA000000 		movl	$__dso_handle, %edx
 11128      00
 11129 3eea BE000000 		movl	$_ZN12_GLOBAL__N_165testCheckEqualsWithStringsWorksOnContentsNonConstNonConstInstanceE, %esi
 11129      00
 11130 3eef BF000000 		movl	$_ZN12_GLOBAL__N_157TestCheckEqualsWithStringsWorksOnContentsNonConstNonConstD1Ev, %edi
 11130      00
 11131 3ef4 E8000000 		call	__cxa_atexit
 11131      00
 11132 3ef9 E8000000 		call	_ZN8UnitTest4Test11GetTestListEv
 11132      00
 11133 3efe BA000000 		movl	$_ZN12_GLOBAL__N_165testCheckEqualsWithStringsWorksOnContentsNonConstNonConstInstanceE, %edx
 11133      00
 11134 3f03 4889C6   		movq	%rax, %rsi
 11135 3f06 BF000000 		movl	$_ZN12_GLOBAL__N_158adderCheckEqualsWithStringsWorksOnContentsNonConstNonConstE, %edi
 11135      00
 11136 3f0b E8000000 		call	_ZN8UnitTest9ListAdderC1ERNS_8TestListEPNS_4TestE
 11136      00
  38:TestChecks.cpp **** {
 11137              		.loc 5 38 0
 11138 3f10 BF000000 		movl	$_ZN12_GLOBAL__N_159testCheckEqualsWithStringsWorksOnContentsConstConstInstanceE, %edi
 11138      00
 11139 3f15 E8CAC4FF 		call	_ZN12_GLOBAL__N_151TestCheckEqualsWithStringsWorksOnContentsConstConstC1Ev
 11139      FF
 11140 3f1a BA000000 		movl	$__dso_handle, %edx
 11140      00
 11141 3f1f BE000000 		movl	$_ZN12_GLOBAL__N_159testCheckEqualsWithStringsWorksOnContentsConstConstInstanceE, %esi
 11141      00
 11142 3f24 BF000000 		movl	$_ZN12_GLOBAL__N_151TestCheckEqualsWithStringsWorksOnContentsConstConstD1Ev, %edi
 11142      00
 11143 3f29 E8000000 		call	__cxa_atexit
 11143      00
 11144 3f2e E8000000 		call	_ZN8UnitTest4Test11GetTestListEv
 11144      00
 11145 3f33 BA000000 		movl	$_ZN12_GLOBAL__N_159testCheckEqualsWithStringsWorksOnContentsConstConstInstanceE, %edx
 11145      00
 11146 3f38 4889C6   		movq	%rax, %rsi
 11147 3f3b BF000000 		movl	$_ZN12_GLOBAL__N_152adderCheckEqualsWithStringsWorksOnContentsConstConstE, %edi
 11147      00
 11148 3f40 E8000000 		call	_ZN8UnitTest9ListAdderC1ERNS_8TestListEPNS_4TestE
 11148      00
  47:TestChecks.cpp **** {
 11149              		.loc 5 47 0
 11150 3f45 BF000000 		movl	$_ZN12_GLOBAL__N_162testCheckEqualsWithStringsWorksOnContentsNonConstConstInstanceE, %edi
 11150      00
 11151 3f4a E8EFC5FF 		call	_ZN12_GLOBAL__N_154TestCheckEqualsWithStringsWorksOnContentsNonConstConstC1Ev
 11151      FF
 11152 3f4f BA000000 		movl	$__dso_handle, %edx
 11152      00
 11153 3f54 BE000000 		movl	$_ZN12_GLOBAL__N_162testCheckEqualsWithStringsWorksOnContentsNonConstConstInstanceE, %esi
 11153      00
 11154 3f59 BF000000 		movl	$_ZN12_GLOBAL__N_154TestCheckEqualsWithStringsWorksOnContentsNonConstConstD1Ev, %edi
 11154      00
 11155 3f5e E8000000 		call	__cxa_atexit
 11155      00
 11156 3f63 E8000000 		call	_ZN8UnitTest4Test11GetTestListEv
 11156      00
 11157 3f68 BA000000 		movl	$_ZN12_GLOBAL__N_162testCheckEqualsWithStringsWorksOnContentsNonConstConstInstanceE, %edx
 11157      00
 11158 3f6d 4889C6   		movq	%rax, %rsi
 11159 3f70 BF000000 		movl	$_ZN12_GLOBAL__N_155adderCheckEqualsWithStringsWorksOnContentsNonConstConstE, %edi
 11159      00
 11160 3f75 E8000000 		call	_ZN8UnitTest9ListAdderC1ERNS_8TestListEPNS_4TestE
 11160      00
  56:TestChecks.cpp **** {
 11161              		.loc 5 56 0
 11162 3f7a BF000000 		movl	$_ZN12_GLOBAL__N_162testCheckEqualsWithStringsWorksOnContentsConstNonConstInstanceE, %edi
 11162      00
 11163 3f7f E814C7FF 		call	_ZN12_GLOBAL__N_154TestCheckEqualsWithStringsWorksOnContentsConstNonConstC1Ev
 11163      FF
 11164 3f84 BA000000 		movl	$__dso_handle, %edx
 11164      00
 11165 3f89 BE000000 		movl	$_ZN12_GLOBAL__N_162testCheckEqualsWithStringsWorksOnContentsConstNonConstInstanceE, %esi
 11165      00
 11166 3f8e BF000000 		movl	$_ZN12_GLOBAL__N_154TestCheckEqualsWithStringsWorksOnContentsConstNonConstD1Ev, %edi
 11166      00
 11167 3f93 E8000000 		call	__cxa_atexit
 11167      00
 11168 3f98 E8000000 		call	_ZN8UnitTest4Test11GetTestListEv
 11168      00
 11169 3f9d BA000000 		movl	$_ZN12_GLOBAL__N_162testCheckEqualsWithStringsWorksOnContentsConstNonConstInstanceE, %edx
 11169      00
 11170 3fa2 4889C6   		movq	%rax, %rsi
 11171 3fa5 BF000000 		movl	$_ZN12_GLOBAL__N_155adderCheckEqualsWithStringsWorksOnContentsConstNonConstE, %edi
 11171      00
 11172 3faa E8000000 		call	_ZN8UnitTest9ListAdderC1ERNS_8TestListEPNS_4TestE
 11172      00
  65:TestChecks.cpp **** {
 11173              		.loc 5 65 0
 11174 3faf BF000000 		movl	$_ZN12_GLOBAL__N_161testCheckEqualsWithStringsWorksOnContentsWithALiteralInstanceE, %edi
 11174      00
 11175 3fb4 E839C8FF 		call	_ZN12_GLOBAL__N_153TestCheckEqualsWithStringsWorksOnContentsWithALiteralC1Ev
 11175      FF
 11176 3fb9 BA000000 		movl	$__dso_handle, %edx
 11176      00
 11177 3fbe BE000000 		movl	$_ZN12_GLOBAL__N_161testCheckEqualsWithStringsWorksOnContentsWithALiteralInstanceE, %esi
 11177      00
 11178 3fc3 BF000000 		movl	$_ZN12_GLOBAL__N_153TestCheckEqualsWithStringsWorksOnContentsWithALiteralD1Ev, %edi
 11178      00
 11179 3fc8 E8000000 		call	__cxa_atexit
 11179      00
 11180 3fcd E8000000 		call	_ZN8UnitTest4Test11GetTestListEv
 11180      00
 11181 3fd2 BA000000 		movl	$_ZN12_GLOBAL__N_161testCheckEqualsWithStringsWorksOnContentsWithALiteralInstanceE, %edx
 11181      00
 11182 3fd7 4889C6   		movq	%rax, %rsi
 11183 3fda BF000000 		movl	$_ZN12_GLOBAL__N_154adderCheckEqualsWithStringsWorksOnContentsWithALiteralE, %edi
 11183      00
 11184 3fdf E8000000 		call	_ZN8UnitTest9ListAdderC1ERNS_8TestListEPNS_4TestE
 11184      00
  73:TestChecks.cpp **** {
 11185              		.loc 5 73 0
 11186 3fe4 BF000000 		movl	$_ZN12_GLOBAL__N_159testCheckEqualFailureIncludesCheckExpectedAndActualInstanceE, %edi
 11186      00
 11187 3fe9 E856C9FF 		call	_ZN12_GLOBAL__N_151TestCheckEqualFailureIncludesCheckExpectedAndActualC1Ev
 11187      FF
 11188 3fee BA000000 		movl	$__dso_handle, %edx
 11188      00
 11189 3ff3 BE000000 		movl	$_ZN12_GLOBAL__N_159testCheckEqualFailureIncludesCheckExpectedAndActualInstanceE, %esi
 11189      00
 11190 3ff8 BF000000 		movl	$_ZN12_GLOBAL__N_151TestCheckEqualFailureIncludesCheckExpectedAndActualD1Ev, %edi
 11190      00
 11191 3ffd E8000000 		call	__cxa_atexit
 11191      00
 11192 4002 E8000000 		call	_ZN8UnitTest4Test11GetTestListEv
 11192      00
 11193 4007 BA000000 		movl	$_ZN12_GLOBAL__N_159testCheckEqualFailureIncludesCheckExpectedAndActualInstanceE, %edx
 11193      00
 11194 400c 4889C6   		movq	%rax, %rsi
 11195 400f BF000000 		movl	$_ZN12_GLOBAL__N_152adderCheckEqualFailureIncludesCheckExpectedAndActualE, %edi
 11195      00
 11196 4014 E8000000 		call	_ZN8UnitTest9ListAdderC1ERNS_8TestListEPNS_4TestE
 11196      00
  85:TestChecks.cpp **** {
 11197              		.loc 5 85 0
 11198 4019 BF000000 		movl	$_ZN12_GLOBAL__N_144testCheckEqualFailureIncludesDetailsInstanceE, %edi
 11198      00
 11199 401e E8DDCBFF 		call	_ZN12_GLOBAL__N_136TestCheckEqualFailureIncludesDetailsC1Ev
 11199      FF
 11200 4023 BA000000 		movl	$__dso_handle, %edx
 11200      00
 11201 4028 BE000000 		movl	$_ZN12_GLOBAL__N_144testCheckEqualFailureIncludesDetailsInstanceE, %esi
 11201      00
 11202 402d BF000000 		movl	$_ZN12_GLOBAL__N_136TestCheckEqualFailureIncludesDetailsD1Ev, %edi
 11202      00
 11203 4032 E8000000 		call	__cxa_atexit
 11203      00
 11204 4037 E8000000 		call	_ZN8UnitTest4Test11GetTestListEv
 11204      00
 11205 403c BA000000 		movl	$_ZN12_GLOBAL__N_144testCheckEqualFailureIncludesDetailsInstanceE, %edx
 11205      00
 11206 4041 4889C6   		movq	%rax, %rsi
 11207 4044 BF000000 		movl	$_ZN12_GLOBAL__N_137adderCheckEqualFailureIncludesDetailsE, %edi
 11207      00
 11208 4049 E8000000 		call	_ZN8UnitTest9ListAdderC1ERNS_8TestListEPNS_4TestE
 11208      00
  99:TestChecks.cpp **** {
 11209              		.loc 5 99 0
 11210 404e BF000000 		movl	$_ZN12_GLOBAL__N_126testCheckCloseTrueInstanceE, %edi
 11210      00
 11211 4053 E898CFFF 		call	_ZN12_GLOBAL__N_118TestCheckCloseTrueC1Ev
 11211      FF
 11212 4058 BA000000 		movl	$__dso_handle, %edx
 11212      00
 11213 405d BE000000 		movl	$_ZN12_GLOBAL__N_126testCheckCloseTrueInstanceE, %esi
 11213      00
 11214 4062 BF000000 		movl	$_ZN12_GLOBAL__N_118TestCheckCloseTrueD1Ev, %edi
 11214      00
 11215 4067 E8000000 		call	__cxa_atexit
 11215      00
 11216 406c E8000000 		call	_ZN8UnitTest4Test11GetTestListEv
 11216      00
 11217 4071 BA000000 		movl	$_ZN12_GLOBAL__N_126testCheckCloseTrueInstanceE, %edx
 11217      00
 11218 4076 4889C6   		movq	%rax, %rsi
 11219 4079 BF000000 		movl	$_ZN12_GLOBAL__N_119adderCheckCloseTrueE, %edi
 11219      00
 11220 407e E8000000 		call	_ZN8UnitTest9ListAdderC1ERNS_8TestListEPNS_4TestE
 11220      00
 106:TestChecks.cpp **** {
 11221              		.loc 5 106 0
 11222 4083 BF000000 		movl	$_ZN12_GLOBAL__N_127testCheckCloseFalseInstanceE, %edi
 11222      00
 11223 4088 E8CBD0FF 		call	_ZN12_GLOBAL__N_119TestCheckCloseFalseC1Ev
 11223      FF
 11224 408d BA000000 		movl	$__dso_handle, %edx
 11224      00
 11225 4092 BE000000 		movl	$_ZN12_GLOBAL__N_127testCheckCloseFalseInstanceE, %esi
 11225      00
 11226 4097 BF000000 		movl	$_ZN12_GLOBAL__N_119TestCheckCloseFalseD1Ev, %edi
 11226      00
 11227 409c E8000000 		call	__cxa_atexit
 11227      00
 11228 40a1 E8000000 		call	_ZN8UnitTest4Test11GetTestListEv
 11228      00
 11229 40a6 BA000000 		movl	$_ZN12_GLOBAL__N_127testCheckCloseFalseInstanceE, %edx
 11229      00
 11230 40ab 4889C6   		movq	%rax, %rsi
 11231 40ae BF000000 		movl	$_ZN12_GLOBAL__N_120adderCheckCloseFalseE, %edi
 11231      00
 11232 40b3 E8000000 		call	_ZN8UnitTest9ListAdderC1ERNS_8TestListEPNS_4TestE
 11232      00
 113:TestChecks.cpp **** {
 11233              		.loc 5 113 0
 11234 40b8 BF000000 		movl	$_ZN12_GLOBAL__N_155testCheckCloseWithZeroEpsilonWorksForSameNumberInstanceE, %edi
 11234      00
 11235 40bd E8FED1FF 		call	_ZN12_GLOBAL__N_147TestCheckCloseWithZeroEpsilonWorksForSameNumberC1Ev
 11235      FF
 11236 40c2 BA000000 		movl	$__dso_handle, %edx
 11236      00
 11237 40c7 BE000000 		movl	$_ZN12_GLOBAL__N_155testCheckCloseWithZeroEpsilonWorksForSameNumberInstanceE, %esi
 11237      00
 11238 40cc BF000000 		movl	$_ZN12_GLOBAL__N_147TestCheckCloseWithZeroEpsilonWorksForSameNumberD1Ev, %edi
 11238      00
 11239 40d1 E8000000 		call	__cxa_atexit
 11239      00
 11240 40d6 E8000000 		call	_ZN8UnitTest4Test11GetTestListEv
 11240      00
 11241 40db BA000000 		movl	$_ZN12_GLOBAL__N_155testCheckCloseWithZeroEpsilonWorksForSameNumberInstanceE, %edx
 11241      00
 11242 40e0 4889C6   		movq	%rax, %rsi
 11243 40e3 BF000000 		movl	$_ZN12_GLOBAL__N_148adderCheckCloseWithZeroEpsilonWorksForSameNumberE, %edi
 11243      00
 11244 40e8 E8000000 		call	_ZN8UnitTest9ListAdderC1ERNS_8TestListEPNS_4TestE
 11244      00
 120:TestChecks.cpp **** {
 11245              		.loc 5 120 0
 11246 40ed BF000000 		movl	$_ZN12_GLOBAL__N_134testCheckCloseWithNaNFailsInstanceE, %edi
 11246      00
 11247 40f2 E82FD3FF 		call	_ZN12_GLOBAL__N_126TestCheckCloseWithNaNFailsC1Ev
 11247      FF
 11248 40f7 BA000000 		movl	$__dso_handle, %edx
 11248      00
 11249 40fc BE000000 		movl	$_ZN12_GLOBAL__N_134testCheckCloseWithNaNFailsInstanceE, %esi
 11249      00
 11250 4101 BF000000 		movl	$_ZN12_GLOBAL__N_126TestCheckCloseWithNaNFailsD1Ev, %edi
 11250      00
 11251 4106 E8000000 		call	__cxa_atexit
 11251      00
 11252 410b E8000000 		call	_ZN8UnitTest4Test11GetTestListEv
 11252      00
 11253 4110 BA000000 		movl	$_ZN12_GLOBAL__N_134testCheckCloseWithNaNFailsInstanceE, %edx
 11253      00
 11254 4115 4889C6   		movq	%rax, %rsi
 11255 4118 BF000000 		movl	$_ZN12_GLOBAL__N_127adderCheckCloseWithNaNFailsE, %edi
 11255      00
 11256 411d E8000000 		call	_ZN8UnitTest9ListAdderC1ERNS_8TestListEPNS_4TestE
 11256      00
 133:TestChecks.cpp **** {
 11257              		.loc 5 133 0
 11258 4122 BF000000 		movl	$_ZN12_GLOBAL__N_147testCheckCloseWithNaNAgainstItselfFailsInstanceE, %edi
 11258      00
 11259 4127 E860D4FF 		call	_ZN12_GLOBAL__N_139TestCheckCloseWithNaNAgainstItselfFailsC1Ev
 11259      FF
 11260 412c BA000000 		movl	$__dso_handle, %edx
 11260      00
 11261 4131 BE000000 		movl	$_ZN12_GLOBAL__N_147testCheckCloseWithNaNAgainstItselfFailsInstanceE, %esi
 11261      00
 11262 4136 BF000000 		movl	$_ZN12_GLOBAL__N_139TestCheckCloseWithNaNAgainstItselfFailsD1Ev, %edi
 11262      00
 11263 413b E8000000 		call	__cxa_atexit
 11263      00
 11264 4140 E8000000 		call	_ZN8UnitTest4Test11GetTestListEv
 11264      00
 11265 4145 BA000000 		movl	$_ZN12_GLOBAL__N_147testCheckCloseWithNaNAgainstItselfFailsInstanceE, %edx
 11265      00
 11266 414a 4889C6   		movq	%rax, %rsi
 11267 414d BF000000 		movl	$_ZN12_GLOBAL__N_140adderCheckCloseWithNaNAgainstItselfFailsE, %edi
 11267      00
 11268 4152 E8000000 		call	_ZN8UnitTest9ListAdderC1ERNS_8TestListEPNS_4TestE
 11268      00
 146:TestChecks.cpp **** {
 11269              		.loc 5 146 0
 11270 4157 BF000000 		movl	$_ZN12_GLOBAL__N_159testCheckCloseFailureIncludesCheckExpectedAndActualInstanceE, %edi
 11270      00
 11271 415c E887D5FF 		call	_ZN12_GLOBAL__N_151TestCheckCloseFailureIncludesCheckExpectedAndActualC1Ev
 11271      FF
 11272 4161 BA000000 		movl	$__dso_handle, %edx
 11272      00
 11273 4166 BE000000 		movl	$_ZN12_GLOBAL__N_159testCheckCloseFailureIncludesCheckExpectedAndActualInstanceE, %esi
 11273      00
 11274 416b BF000000 		movl	$_ZN12_GLOBAL__N_151TestCheckCloseFailureIncludesCheckExpectedAndActualD1Ev, %edi
 11274      00
 11275 4170 E8000000 		call	__cxa_atexit
 11275      00
 11276 4175 E8000000 		call	_ZN8UnitTest4Test11GetTestListEv
 11276      00
 11277 417a BA000000 		movl	$_ZN12_GLOBAL__N_159testCheckCloseFailureIncludesCheckExpectedAndActualInstanceE, %edx
 11277      00
 11278 417f 4889C6   		movq	%rax, %rsi
 11279 4182 BF000000 		movl	$_ZN12_GLOBAL__N_152adderCheckCloseFailureIncludesCheckExpectedAndActualE, %edi
 11279      00
 11280 4187 E8000000 		call	_ZN8UnitTest9ListAdderC1ERNS_8TestListEPNS_4TestE
 11280      00
 159:TestChecks.cpp **** {
 11281              		.loc 5 159 0
 11282 418c BF000000 		movl	$_ZN12_GLOBAL__N_146testCheckCloseFailureIncludesToleranceInstanceE, %edi
 11282      00
 11283 4191 E828D8FF 		call	_ZN12_GLOBAL__N_138TestCheckCloseFailureIncludesToleranceC1Ev
 11283      FF
 11284 4196 BA000000 		movl	$__dso_handle, %edx
 11284      00
 11285 419b BE000000 		movl	$_ZN12_GLOBAL__N_146testCheckCloseFailureIncludesToleranceInstanceE, %esi
 11285      00
 11286 41a0 BF000000 		movl	$_ZN12_GLOBAL__N_138TestCheckCloseFailureIncludesToleranceD1Ev, %edi
 11286      00
 11287 41a5 E8000000 		call	__cxa_atexit
 11287      00
 11288 41aa E8000000 		call	_ZN8UnitTest4Test11GetTestListEv
 11288      00
 11289 41af BA000000 		movl	$_ZN12_GLOBAL__N_146testCheckCloseFailureIncludesToleranceInstanceE, %edx
 11289      00
 11290 41b4 4889C6   		movq	%rax, %rsi
 11291 41b7 BF000000 		movl	$_ZN12_GLOBAL__N_139adderCheckCloseFailureIncludesToleranceE, %edi
 11291      00
 11292 41bc E8000000 		call	_ZN8UnitTest9ListAdderC1ERNS_8TestListEPNS_4TestE
 11292      00
 169:TestChecks.cpp **** {
 11293              		.loc 5 169 0
 11294 41c1 BF000000 		movl	$_ZN12_GLOBAL__N_144testCheckCloseFailureIncludesDetailsInstanceE, %edi
 11294      00
 11295 41c6 E8F7D9FF 		call	_ZN12_GLOBAL__N_136TestCheckCloseFailureIncludesDetailsC1Ev
 11295      FF
 11296 41cb BA000000 		movl	$__dso_handle, %edx
 11296      00
 11297 41d0 BE000000 		movl	$_ZN12_GLOBAL__N_144testCheckCloseFailureIncludesDetailsInstanceE, %esi
 11297      00
 11298 41d5 BF000000 		movl	$_ZN12_GLOBAL__N_136TestCheckCloseFailureIncludesDetailsD1Ev, %edi
 11298      00
 11299 41da E8000000 		call	__cxa_atexit
 11299      00
 11300 41df E8000000 		call	_ZN8UnitTest4Test11GetTestListEv
 11300      00
 11301 41e4 BA000000 		movl	$_ZN12_GLOBAL__N_144testCheckCloseFailureIncludesDetailsInstanceE, %edx
 11301      00
 11302 41e9 4889C6   		movq	%rax, %rsi
 11303 41ec BF000000 		movl	$_ZN12_GLOBAL__N_137adderCheckCloseFailureIncludesDetailsE, %edi
 11303      00
 11304 41f1 E8000000 		call	_ZN8UnitTest9ListAdderC1ERNS_8TestListEPNS_4TestE
 11304      00
 184:TestChecks.cpp **** {
 11305              		.loc 5 184 0
 11306 41f6 BF000000 		movl	$_ZN12_GLOBAL__N_131testCheckArrayEqualTrueInstanceE, %edi
 11306      00
 11307 41fb E8C8DDFF 		call	_ZN12_GLOBAL__N_123TestCheckArrayEqualTrueC1Ev
 11307      FF
 11308 4200 BA000000 		movl	$__dso_handle, %edx
 11308      00
 11309 4205 BE000000 		movl	$_ZN12_GLOBAL__N_131testCheckArrayEqualTrueInstanceE, %esi
 11309      00
 11310 420a BF000000 		movl	$_ZN12_GLOBAL__N_123TestCheckArrayEqualTrueD1Ev, %edi
 11310      00
 11311 420f E8000000 		call	__cxa_atexit
 11311      00
 11312 4214 E8000000 		call	_ZN8UnitTest4Test11GetTestListEv
 11312      00
 11313 4219 BA000000 		movl	$_ZN12_GLOBAL__N_131testCheckArrayEqualTrueInstanceE, %edx
 11313      00
 11314 421e 4889C6   		movq	%rax, %rsi
 11315 4221 BF000000 		movl	$_ZN12_GLOBAL__N_124adderCheckArrayEqualTrueE, %edi
 11315      00
 11316 4226 E8000000 		call	_ZN8UnitTest9ListAdderC1ERNS_8TestListEPNS_4TestE
 11316      00
 193:TestChecks.cpp **** {
 11317              		.loc 5 193 0
 11318 422b BF000000 		movl	$_ZN12_GLOBAL__N_132testCheckArrayEqualFalseInstanceE, %edi
 11318      00
 11319 4230 E8F5DEFF 		call	_ZN12_GLOBAL__N_124TestCheckArrayEqualFalseC1Ev
 11319      FF
 11320 4235 BA000000 		movl	$__dso_handle, %edx
 11320      00
 11321 423a BE000000 		movl	$_ZN12_GLOBAL__N_132testCheckArrayEqualFalseInstanceE, %esi
 11321      00
 11322 423f BF000000 		movl	$_ZN12_GLOBAL__N_124TestCheckArrayEqualFalseD1Ev, %edi
 11322      00
 11323 4244 E8000000 		call	__cxa_atexit
 11323      00
 11324 4249 E8000000 		call	_ZN8UnitTest4Test11GetTestListEv
 11324      00
 11325 424e BA000000 		movl	$_ZN12_GLOBAL__N_132testCheckArrayEqualFalseInstanceE, %edx
 11325      00
 11326 4253 4889C6   		movq	%rax, %rsi
 11327 4256 BF000000 		movl	$_ZN12_GLOBAL__N_125adderCheckArrayEqualFalseE, %edi
 11327      00
 11328 425b E8000000 		call	_ZN8UnitTest9ListAdderC1ERNS_8TestListEPNS_4TestE
 11328      00
 203:TestChecks.cpp **** {
 11329              		.loc 5 203 0
 11330 4260 BF000000 		movl	$_ZN12_GLOBAL__N_131testCheckArrayCloseTrueInstanceE, %edi
 11330      00
 11331 4265 E840E0FF 		call	_ZN12_GLOBAL__N_123TestCheckArrayCloseTrueC1Ev
 11331      FF
 11332 426a BA000000 		movl	$__dso_handle, %edx
 11332      00
 11333 426f BE000000 		movl	$_ZN12_GLOBAL__N_131testCheckArrayCloseTrueInstanceE, %esi
 11333      00
 11334 4274 BF000000 		movl	$_ZN12_GLOBAL__N_123TestCheckArrayCloseTrueD1Ev, %edi
 11334      00
 11335 4279 E8000000 		call	__cxa_atexit
 11335      00
 11336 427e E8000000 		call	_ZN8UnitTest4Test11GetTestListEv
 11336      00
 11337 4283 BA000000 		movl	$_ZN12_GLOBAL__N_131testCheckArrayCloseTrueInstanceE, %edx
 11337      00
 11338 4288 4889C6   		movq	%rax, %rsi
 11339 428b BF000000 		movl	$_ZN12_GLOBAL__N_124adderCheckArrayCloseTrueE, %edi
 11339      00
 11340 4290 E8000000 		call	_ZN8UnitTest9ListAdderC1ERNS_8TestListEPNS_4TestE
 11340      00
 213:TestChecks.cpp **** {
 11341              		.loc 5 213 0
 11342 4295 BF000000 		movl	$_ZN12_GLOBAL__N_132testCheckArrayCloseFalseInstanceE, %edi
 11342      00
 11343 429a E8A7E1FF 		call	_ZN12_GLOBAL__N_124TestCheckArrayCloseFalseC1Ev
 11343      FF
 11344 429f BA000000 		movl	$__dso_handle, %edx
 11344      00
 11345 42a4 BE000000 		movl	$_ZN12_GLOBAL__N_132testCheckArrayCloseFalseInstanceE, %esi
 11345      00
 11346 42a9 BF000000 		movl	$_ZN12_GLOBAL__N_124TestCheckArrayCloseFalseD1Ev, %edi
 11346      00
 11347 42ae E8000000 		call	__cxa_atexit
 11347      00
 11348 42b3 E8000000 		call	_ZN8UnitTest4Test11GetTestListEv
 11348      00
 11349 42b8 BA000000 		movl	$_ZN12_GLOBAL__N_132testCheckArrayCloseFalseInstanceE, %edx
 11349      00
 11350 42bd 4889C6   		movq	%rax, %rsi
 11351 42c0 BF000000 		movl	$_ZN12_GLOBAL__N_125adderCheckArrayCloseFalseE, %edi
 11351      00
 11352 42c5 E8000000 		call	_ZN8UnitTest9ListAdderC1ERNS_8TestListEPNS_4TestE
 11352      00
 223:TestChecks.cpp **** {
 11353              		.loc 5 223 0
 11354 42ca BF000000 		movl	$_ZN12_GLOBAL__N_149testCheckArrayCloseFailureIncludesDetailsInstanceE, %edi
 11354      00
 11355 42cf E80EE3FF 		call	_ZN12_GLOBAL__N_141TestCheckArrayCloseFailureIncludesDetailsC1Ev
 11355      FF
 11356 42d4 BA000000 		movl	$__dso_handle, %edx
 11356      00
 11357 42d9 BE000000 		movl	$_ZN12_GLOBAL__N_149testCheckArrayCloseFailureIncludesDetailsInstanceE, %esi
 11357      00
 11358 42de BF000000 		movl	$_ZN12_GLOBAL__N_141TestCheckArrayCloseFailureIncludesDetailsD1Ev, %edi
 11358      00
 11359 42e3 E8000000 		call	__cxa_atexit
 11359      00
 11360 42e8 E8000000 		call	_ZN8UnitTest4Test11GetTestListEv
 11360      00
 11361 42ed BA000000 		movl	$_ZN12_GLOBAL__N_149testCheckArrayCloseFailureIncludesDetailsInstanceE, %edx
 11361      00
 11362 42f2 4889C6   		movq	%rax, %rsi
 11363 42f5 BF000000 		movl	$_ZN12_GLOBAL__N_142adderCheckArrayCloseFailureIncludesDetailsE, %edi
 11363      00
 11364 42fa E8000000 		call	_ZN8UnitTest9ListAdderC1ERNS_8TestListEPNS_4TestE
 11364      00
 240:TestChecks.cpp **** {
 11365              		.loc 5 240 0
 11366 42ff BF000000 		movl	$_ZN12_GLOBAL__N_133testCheckArray2DCloseTrueInstanceE, %edi
 11366      00
 11367 4304 E81BE7FF 		call	_ZN12_GLOBAL__N_125TestCheckArray2DCloseTrueC1Ev
 11367      FF
 11368 4309 BA000000 		movl	$__dso_handle, %edx
 11368      00
 11369 430e BE000000 		movl	$_ZN12_GLOBAL__N_133testCheckArray2DCloseTrueInstanceE, %esi
 11369      00
 11370 4313 BF000000 		movl	$_ZN12_GLOBAL__N_125TestCheckArray2DCloseTrueD1Ev, %edi
 11370      00
 11371 4318 E8000000 		call	__cxa_atexit
 11371      00
 11372 431d E8000000 		call	_ZN8UnitTest4Test11GetTestListEv
 11372      00
 11373 4322 BA000000 		movl	$_ZN12_GLOBAL__N_133testCheckArray2DCloseTrueInstanceE, %edx
 11373      00
 11374 4327 4889C6   		movq	%rax, %rsi
 11375 432a BF000000 		movl	$_ZN12_GLOBAL__N_126adderCheckArray2DCloseTrueE, %edi
 11375      00
 11376 432f E8000000 		call	_ZN8UnitTest9ListAdderC1ERNS_8TestListEPNS_4TestE
 11376      00
 254:TestChecks.cpp **** {
 11377              		.loc 5 254 0
 11378 4334 BF000000 		movl	$_ZN12_GLOBAL__N_134testCheckArray2DCloseFalseInstanceE, %edi
 11378      00
 11379 4339 E822E9FF 		call	_ZN12_GLOBAL__N_126TestCheckArray2DCloseFalseC1Ev
 11379      FF
 11380 433e BA000000 		movl	$__dso_handle, %edx
 11380      00
 11381 4343 BE000000 		movl	$_ZN12_GLOBAL__N_134testCheckArray2DCloseFalseInstanceE, %esi
 11381      00
 11382 4348 BF000000 		movl	$_ZN12_GLOBAL__N_126TestCheckArray2DCloseFalseD1Ev, %edi
 11382      00
 11383 434d E8000000 		call	__cxa_atexit
 11383      00
 11384 4352 E8000000 		call	_ZN8UnitTest4Test11GetTestListEv
 11384      00
 11385 4357 BA000000 		movl	$_ZN12_GLOBAL__N_134testCheckArray2DCloseFalseInstanceE, %edx
 11385      00
 11386 435c 4889C6   		movq	%rax, %rsi
 11387 435f BF000000 		movl	$_ZN12_GLOBAL__N_127adderCheckArray2DCloseFalseE, %edi
 11387      00
 11388 4364 E8000000 		call	_ZN8UnitTest9ListAdderC1ERNS_8TestListEPNS_4TestE
 11388      00
 268:TestChecks.cpp **** {
 11389              		.loc 5 268 0
 11390 4369 BF000000 		movl	$_ZN12_GLOBAL__N_141testCheckCloseWithDoublesSucceedsInstanceE, %edi
 11390      00
 11391 436e E829EBFF 		call	_ZN12_GLOBAL__N_133TestCheckCloseWithDoublesSucceedsC1Ev
 11391      FF
 11392 4373 BA000000 		movl	$__dso_handle, %edx
 11392      00
 11393 4378 BE000000 		movl	$_ZN12_GLOBAL__N_141testCheckCloseWithDoublesSucceedsInstanceE, %esi
 11393      00
 11394 437d BF000000 		movl	$_ZN12_GLOBAL__N_133TestCheckCloseWithDoublesSucceedsD1Ev, %edi
 11394      00
 11395 4382 E8000000 		call	__cxa_atexit
 11395      00
 11396 4387 E8000000 		call	_ZN8UnitTest4Test11GetTestListEv
 11396      00
 11397 438c BA000000 		movl	$_ZN12_GLOBAL__N_141testCheckCloseWithDoublesSucceedsInstanceE, %edx
 11397      00
 11398 4391 4889C6   		movq	%rax, %rsi
 11399 4394 BF000000 		movl	$_ZN12_GLOBAL__N_134adderCheckCloseWithDoublesSucceedsE, %edi
 11399      00
 11400 4399 E8000000 		call	_ZN8UnitTest9ListAdderC1ERNS_8TestListEPNS_4TestE
 11400      00
 273:TestChecks.cpp **** {
 11401              		.loc 5 273 0
 11402 439e BF000000 		movl	$_ZN12_GLOBAL__N_151testCheckArray2DCloseFailureIncludesDetailsInstanceE, %edi
 11402      00
 11403 43a3 E80AECFF 		call	_ZN12_GLOBAL__N_143TestCheckArray2DCloseFailureIncludesDetailsC1Ev
 11403      FF
 11404 43a8 BA000000 		movl	$__dso_handle, %edx
 11404      00
 11405 43ad BE000000 		movl	$_ZN12_GLOBAL__N_151testCheckArray2DCloseFailureIncludesDetailsInstanceE, %esi
 11405      00
 11406 43b2 BF000000 		movl	$_ZN12_GLOBAL__N_143TestCheckArray2DCloseFailureIncludesDetailsD1Ev, %edi
 11406      00
 11407 43b7 E8000000 		call	__cxa_atexit
 11407      00
 11408 43bc E8000000 		call	_ZN8UnitTest4Test11GetTestListEv
 11408      00
 11409 43c1 BA000000 		movl	$_ZN12_GLOBAL__N_151testCheckArray2DCloseFailureIncludesDetailsInstanceE, %edx
 11409      00
 11410 43c6 4889C6   		movq	%rax, %rsi
 11411 43c9 BF000000 		movl	$_ZN12_GLOBAL__N_144adderCheckArray2DCloseFailureIncludesDetailsE, %edi
 11411      00
 11412 43ce E8000000 		call	_ZN8UnitTest9ListAdderC1ERNS_8TestListEPNS_4TestE
 11412      00
 11413              	.L564:
 11414              		.loc 5 293 0
 11415 43d3 C9       		leave
 11416              		.cfi_def_cfa 7, 8
 11417 43d4 C3       		ret
 11418              		.cfi_endproc
 11419              	.LFE1338:
 11421              		.section	.rodata
 11422 1268 00000000 		.align 16
 11422      00000000 
 11425              	_ZTIN12_GLOBAL__N_130TestCheckEqualWithUnsignedLongE:
 11426 1270 00000000 		.quad	_ZTVN10__cxxabiv120__si_class_type_infoE+16
 11426      00000000 
 11427 1278 00000000 		.quad	_ZTSN12_GLOBAL__N_130TestCheckEqualWithUnsignedLongE
 11427      00000000 
 11428 1280 00000000 		.quad	_ZTIN8UnitTest4TestE
 11428      00000000 
 11429 1288 00000000 		.align 16
 11429      00000000 
 11432              	_ZTIN12_GLOBAL__N_149TestCheckEqualsWithStringsFailsOnDifferentStringsE:
 11433 1290 00000000 		.quad	_ZTVN10__cxxabiv120__si_class_type_infoE+16
 11433      00000000 
 11434 1298 00000000 		.quad	_ZTSN12_GLOBAL__N_149TestCheckEqualsWithStringsFailsOnDifferentStringsE
 11434      00000000 
 11435 12a0 00000000 		.quad	_ZTIN8UnitTest4TestE
 11435      00000000 
 11436 12a8 00000000 		.align 16
 11436      00000000 
 11439              	_ZTIN12_GLOBAL__N_157TestCheckEqualsWithStringsWorksOnContentsNonConstNonConstE:
 11440 12b0 00000000 		.quad	_ZTVN10__cxxabiv120__si_class_type_infoE+16
 11440      00000000 
 11441 12b8 00000000 		.quad	_ZTSN12_GLOBAL__N_157TestCheckEqualsWithStringsWorksOnContentsNonConstNonConstE
 11441      00000000 
 11442 12c0 00000000 		.quad	_ZTIN8UnitTest4TestE
 11442      00000000 
 11443 12c8 00000000 		.align 16
 11443      00000000 
 11446              	_ZTIN12_GLOBAL__N_151TestCheckEqualsWithStringsWorksOnContentsConstConstE:
 11447 12d0 00000000 		.quad	_ZTVN10__cxxabiv120__si_class_type_infoE+16
 11447      00000000 
 11448 12d8 00000000 		.quad	_ZTSN12_GLOBAL__N_151TestCheckEqualsWithStringsWorksOnContentsConstConstE
 11448      00000000 
 11449 12e0 00000000 		.quad	_ZTIN8UnitTest4TestE
 11449      00000000 
 11450 12e8 00000000 		.align 16
 11450      00000000 
 11453              	_ZTIN12_GLOBAL__N_154TestCheckEqualsWithStringsWorksOnContentsNonConstConstE:
 11454 12f0 00000000 		.quad	_ZTVN10__cxxabiv120__si_class_type_infoE+16
 11454      00000000 
 11455 12f8 00000000 		.quad	_ZTSN12_GLOBAL__N_154TestCheckEqualsWithStringsWorksOnContentsNonConstConstE
 11455      00000000 
 11456 1300 00000000 		.quad	_ZTIN8UnitTest4TestE
 11456      00000000 
 11457 1308 00000000 		.align 16
 11457      00000000 
 11460              	_ZTIN12_GLOBAL__N_154TestCheckEqualsWithStringsWorksOnContentsConstNonConstE:
 11461 1310 00000000 		.quad	_ZTVN10__cxxabiv120__si_class_type_infoE+16
 11461      00000000 
 11462 1318 00000000 		.quad	_ZTSN12_GLOBAL__N_154TestCheckEqualsWithStringsWorksOnContentsConstNonConstE
 11462      00000000 
 11463 1320 00000000 		.quad	_ZTIN8UnitTest4TestE
 11463      00000000 
 11464 1328 00000000 		.align 16
 11464      00000000 
 11467              	_ZTIN12_GLOBAL__N_153TestCheckEqualsWithStringsWorksOnContentsWithALiteralE:
 11468 1330 00000000 		.quad	_ZTVN10__cxxabiv120__si_class_type_infoE+16
 11468      00000000 
 11469 1338 00000000 		.quad	_ZTSN12_GLOBAL__N_153TestCheckEqualsWithStringsWorksOnContentsWithALiteralE
 11469      00000000 
 11470 1340 00000000 		.quad	_ZTIN8UnitTest4TestE
 11470      00000000 
 11471 1348 00000000 		.align 16
 11471      00000000 
 11474              	_ZTIN12_GLOBAL__N_151TestCheckEqualFailureIncludesCheckExpectedAndActualE:
 11475 1350 00000000 		.quad	_ZTVN10__cxxabiv120__si_class_type_infoE+16
 11475      00000000 
 11476 1358 00000000 		.quad	_ZTSN12_GLOBAL__N_151TestCheckEqualFailureIncludesCheckExpectedAndActualE
 11476      00000000 
 11477 1360 00000000 		.quad	_ZTIN8UnitTest4TestE
 11477      00000000 
 11478 1368 00000000 		.align 16
 11478      00000000 
 11481              	_ZTIN12_GLOBAL__N_136TestCheckEqualFailureIncludesDetailsE:
 11482 1370 00000000 		.quad	_ZTVN10__cxxabiv120__si_class_type_infoE+16
 11482      00000000 
 11483 1378 00000000 		.quad	_ZTSN12_GLOBAL__N_136TestCheckEqualFailureIncludesDetailsE
 11483      00000000 
 11484 1380 00000000 		.quad	_ZTIN8UnitTest4TestE
 11484      00000000 
 11485 1388 00000000 		.align 16
 11485      00000000 
 11488              	_ZTIN12_GLOBAL__N_118TestCheckCloseTrueE:
 11489 1390 00000000 		.quad	_ZTVN10__cxxabiv120__si_class_type_infoE+16
 11489      00000000 
 11490 1398 00000000 		.quad	_ZTSN12_GLOBAL__N_118TestCheckCloseTrueE
 11490      00000000 
 11491 13a0 00000000 		.quad	_ZTIN8UnitTest4TestE
 11491      00000000 
 11492 13a8 00000000 		.align 16
 11492      00000000 
 11495              	_ZTIN12_GLOBAL__N_119TestCheckCloseFalseE:
 11496 13b0 00000000 		.quad	_ZTVN10__cxxabiv120__si_class_type_infoE+16
 11496      00000000 
 11497 13b8 00000000 		.quad	_ZTSN12_GLOBAL__N_119TestCheckCloseFalseE
 11497      00000000 
 11498 13c0 00000000 		.quad	_ZTIN8UnitTest4TestE
 11498      00000000 
 11499 13c8 00000000 		.align 16
 11499      00000000 
 11502              	_ZTIN12_GLOBAL__N_147TestCheckCloseWithZeroEpsilonWorksForSameNumberE:
 11503 13d0 00000000 		.quad	_ZTVN10__cxxabiv120__si_class_type_infoE+16
 11503      00000000 
 11504 13d8 00000000 		.quad	_ZTSN12_GLOBAL__N_147TestCheckCloseWithZeroEpsilonWorksForSameNumberE
 11504      00000000 
 11505 13e0 00000000 		.quad	_ZTIN8UnitTest4TestE
 11505      00000000 
 11506 13e8 00000000 		.align 16
 11506      00000000 
 11509              	_ZTIN12_GLOBAL__N_126TestCheckCloseWithNaNFailsE:
 11510 13f0 00000000 		.quad	_ZTVN10__cxxabiv120__si_class_type_infoE+16
 11510      00000000 
 11511 13f8 00000000 		.quad	_ZTSN12_GLOBAL__N_126TestCheckCloseWithNaNFailsE
 11511      00000000 
 11512 1400 00000000 		.quad	_ZTIN8UnitTest4TestE
 11512      00000000 
 11513 1408 00000000 		.align 16
 11513      00000000 
 11516              	_ZTIN12_GLOBAL__N_139TestCheckCloseWithNaNAgainstItselfFailsE:
 11517 1410 00000000 		.quad	_ZTVN10__cxxabiv120__si_class_type_infoE+16
 11517      00000000 
 11518 1418 00000000 		.quad	_ZTSN12_GLOBAL__N_139TestCheckCloseWithNaNAgainstItselfFailsE
 11518      00000000 
 11519 1420 00000000 		.quad	_ZTIN8UnitTest4TestE
 11519      00000000 
 11520 1428 00000000 		.align 16
 11520      00000000 
 11523              	_ZTIN12_GLOBAL__N_151TestCheckCloseFailureIncludesCheckExpectedAndActualE:
 11524 1430 00000000 		.quad	_ZTVN10__cxxabiv120__si_class_type_infoE+16
 11524      00000000 
 11525 1438 00000000 		.quad	_ZTSN12_GLOBAL__N_151TestCheckCloseFailureIncludesCheckExpectedAndActualE
 11525      00000000 
 11526 1440 00000000 		.quad	_ZTIN8UnitTest4TestE
 11526      00000000 
 11527 1448 00000000 		.align 16
 11527      00000000 
 11530              	_ZTIN12_GLOBAL__N_138TestCheckCloseFailureIncludesToleranceE:
 11531 1450 00000000 		.quad	_ZTVN10__cxxabiv120__si_class_type_infoE+16
 11531      00000000 
 11532 1458 00000000 		.quad	_ZTSN12_GLOBAL__N_138TestCheckCloseFailureIncludesToleranceE
 11532      00000000 
 11533 1460 00000000 		.quad	_ZTIN8UnitTest4TestE
 11533      00000000 
 11534 1468 00000000 		.align 16
 11534      00000000 
 11537              	_ZTIN12_GLOBAL__N_136TestCheckCloseFailureIncludesDetailsE:
 11538 1470 00000000 		.quad	_ZTVN10__cxxabiv120__si_class_type_infoE+16
 11538      00000000 
 11539 1478 00000000 		.quad	_ZTSN12_GLOBAL__N_136TestCheckCloseFailureIncludesDetailsE
 11539      00000000 
 11540 1480 00000000 		.quad	_ZTIN8UnitTest4TestE
 11540      00000000 
 11541 1488 00000000 		.align 16
 11541      00000000 
 11544              	_ZTIN12_GLOBAL__N_123TestCheckArrayEqualTrueE:
 11545 1490 00000000 		.quad	_ZTVN10__cxxabiv120__si_class_type_infoE+16
 11545      00000000 
 11546 1498 00000000 		.quad	_ZTSN12_GLOBAL__N_123TestCheckArrayEqualTrueE
 11546      00000000 
 11547 14a0 00000000 		.quad	_ZTIN8UnitTest4TestE
 11547      00000000 
 11548 14a8 00000000 		.align 16
 11548      00000000 
 11551              	_ZTIN12_GLOBAL__N_124TestCheckArrayEqualFalseE:
 11552 14b0 00000000 		.quad	_ZTVN10__cxxabiv120__si_class_type_infoE+16
 11552      00000000 
 11553 14b8 00000000 		.quad	_ZTSN12_GLOBAL__N_124TestCheckArrayEqualFalseE
 11553      00000000 
 11554 14c0 00000000 		.quad	_ZTIN8UnitTest4TestE
 11554      00000000 
 11555 14c8 00000000 		.align 16
 11555      00000000 
 11558              	_ZTIN12_GLOBAL__N_123TestCheckArrayCloseTrueE:
 11559 14d0 00000000 		.quad	_ZTVN10__cxxabiv120__si_class_type_infoE+16
 11559      00000000 
 11560 14d8 00000000 		.quad	_ZTSN12_GLOBAL__N_123TestCheckArrayCloseTrueE
 11560      00000000 
 11561 14e0 00000000 		.quad	_ZTIN8UnitTest4TestE
 11561      00000000 
 11562 14e8 00000000 		.align 16
 11562      00000000 
 11565              	_ZTIN12_GLOBAL__N_124TestCheckArrayCloseFalseE:
 11566 14f0 00000000 		.quad	_ZTVN10__cxxabiv120__si_class_type_infoE+16
 11566      00000000 
 11567 14f8 00000000 		.quad	_ZTSN12_GLOBAL__N_124TestCheckArrayCloseFalseE
 11567      00000000 
 11568 1500 00000000 		.quad	_ZTIN8UnitTest4TestE
 11568      00000000 
 11569 1508 00000000 		.align 16
 11569      00000000 
 11572              	_ZTIN12_GLOBAL__N_141TestCheckArrayCloseFailureIncludesDetailsE:
 11573 1510 00000000 		.quad	_ZTVN10__cxxabiv120__si_class_type_infoE+16
 11573      00000000 
 11574 1518 00000000 		.quad	_ZTSN12_GLOBAL__N_141TestCheckArrayCloseFailureIncludesDetailsE
 11574      00000000 
 11575 1520 00000000 		.quad	_ZTIN8UnitTest4TestE
 11575      00000000 
 11576 1528 00000000 		.align 16
 11576      00000000 
 11579              	_ZTIN12_GLOBAL__N_125TestCheckArray2DCloseTrueE:
 11580 1530 00000000 		.quad	_ZTVN10__cxxabiv120__si_class_type_infoE+16
 11580      00000000 
 11581 1538 00000000 		.quad	_ZTSN12_GLOBAL__N_125TestCheckArray2DCloseTrueE
 11581      00000000 
 11582 1540 00000000 		.quad	_ZTIN8UnitTest4TestE
 11582      00000000 
 11583 1548 00000000 		.align 16
 11583      00000000 
 11586              	_ZTIN12_GLOBAL__N_126TestCheckArray2DCloseFalseE:
 11587 1550 00000000 		.quad	_ZTVN10__cxxabiv120__si_class_type_infoE+16
 11587      00000000 
 11588 1558 00000000 		.quad	_ZTSN12_GLOBAL__N_126TestCheckArray2DCloseFalseE
 11588      00000000 
 11589 1560 00000000 		.quad	_ZTIN8UnitTest4TestE
 11589      00000000 
 11590 1568 00000000 		.align 16
 11590      00000000 
 11593              	_ZTIN12_GLOBAL__N_133TestCheckCloseWithDoublesSucceedsE:
 11594 1570 00000000 		.quad	_ZTVN10__cxxabiv120__si_class_type_infoE+16
 11594      00000000 
 11595 1578 00000000 		.quad	_ZTSN12_GLOBAL__N_133TestCheckCloseWithDoublesSucceedsE
 11595      00000000 
 11596 1580 00000000 		.quad	_ZTIN8UnitTest4TestE
 11596      00000000 
 11597 1588 00000000 		.align 16
 11597      00000000 
 11600              	_ZTIN12_GLOBAL__N_143TestCheckArray2DCloseFailureIncludesDetailsE:
 11601 1590 00000000 		.quad	_ZTVN10__cxxabiv120__si_class_type_infoE+16
 11601      00000000 
 11602 1598 00000000 		.quad	_ZTSN12_GLOBAL__N_143TestCheckArray2DCloseFailureIncludesDetailsE
 11602      00000000 
 11603 15a0 00000000 		.quad	_ZTIN8UnitTest4TestE
 11603      00000000 
 11604 15a8 00000000 		.align 32
 11604      00000000 
 11604      00000000 
 11604      00000000 
 11604      00000000 
 11607              	_ZTSN12_GLOBAL__N_143TestCheckArray2DCloseFailureIncludesDetailsE:
 11608 15c0 2A4E3132 		.string	"*N12_GLOBAL__N_143TestCheckArray2DCloseFailureIncludesDetailsE"
 11608      5F474C4F 
 11608      42414C5F 
 11608      5F4E5F31 
 11608      34335465 
 11609 15ff 00       		.align 32
 11612              	_ZTSN12_GLOBAL__N_133TestCheckCloseWithDoublesSucceedsE:
 11613 1600 2A4E3132 		.string	"*N12_GLOBAL__N_133TestCheckCloseWithDoublesSucceedsE"
 11613      5F474C4F 
 11613      42414C5F 
 11613      5F4E5F31 
 11613      33335465 
 11614 1635 00000000 		.align 32
 11614      00000000 
 11614      000000
 11617              	_ZTSN12_GLOBAL__N_126TestCheckArray2DCloseFalseE:
 11618 1640 2A4E3132 		.string	"*N12_GLOBAL__N_126TestCheckArray2DCloseFalseE"
 11618      5F474C4F 
 11618      42414C5F 
 11618      5F4E5F31 
 11618      32365465 
 11619 166e 00000000 		.align 32
 11619      00000000 
 11619      00000000 
 11619      00000000 
 11619      0000
 11622              	_ZTSN12_GLOBAL__N_125TestCheckArray2DCloseTrueE:
 11623 1680 2A4E3132 		.string	"*N12_GLOBAL__N_125TestCheckArray2DCloseTrueE"
 11623      5F474C4F 
 11623      42414C5F 
 11623      5F4E5F31 
 11623      32355465 
 11624 16ad 00000000 		.align 32
 11624      00000000 
 11624      00000000 
 11624      00000000 
 11624      000000
 11627              	_ZTSN12_GLOBAL__N_141TestCheckArrayCloseFailureIncludesDetailsE:
 11628 16c0 2A4E3132 		.string	"*N12_GLOBAL__N_141TestCheckArrayCloseFailureIncludesDetailsE"
 11628      5F474C4F 
 11628      42414C5F 
 11628      5F4E5F31 
 11628      34315465 
 11629 16fd 000000   		.align 32
 11632              	_ZTSN12_GLOBAL__N_124TestCheckArrayCloseFalseE:
 11633 1700 2A4E3132 		.string	"*N12_GLOBAL__N_124TestCheckArrayCloseFalseE"
 11633      5F474C4F 
 11633      42414C5F 
 11633      5F4E5F31 
 11633      32345465 
 11634 172c 00000000 		.align 32
 11634      00000000 
 11634      00000000 
 11634      00000000 
 11634      00000000 
 11637              	_ZTSN12_GLOBAL__N_123TestCheckArrayCloseTrueE:
 11638 1740 2A4E3132 		.string	"*N12_GLOBAL__N_123TestCheckArrayCloseTrueE"
 11638      5F474C4F 
 11638      42414C5F 
 11638      5F4E5F31 
 11638      32335465 
 11639 176b 00000000 		.align 32
 11639      00000000 
 11639      00000000 
 11639      00000000 
 11639      00000000 
 11642              	_ZTSN12_GLOBAL__N_124TestCheckArrayEqualFalseE:
 11643 1780 2A4E3132 		.string	"*N12_GLOBAL__N_124TestCheckArrayEqualFalseE"
 11643      5F474C4F 
 11643      42414C5F 
 11643      5F4E5F31 
 11643      32345465 
 11644 17ac 00000000 		.align 32
 11644      00000000 
 11644      00000000 
 11644      00000000 
 11644      00000000 
 11647              	_ZTSN12_GLOBAL__N_123TestCheckArrayEqualTrueE:
 11648 17c0 2A4E3132 		.string	"*N12_GLOBAL__N_123TestCheckArrayEqualTrueE"
 11648      5F474C4F 
 11648      42414C5F 
 11648      5F4E5F31 
 11648      32335465 
 11649 17eb 00000000 		.align 32
 11649      00000000 
 11649      00000000 
 11649      00000000 
 11649      00000000 
 11652              	_ZTSN12_GLOBAL__N_136TestCheckCloseFailureIncludesDetailsE:
 11653 1800 2A4E3132 		.string	"*N12_GLOBAL__N_136TestCheckCloseFailureIncludesDetailsE"
 11653      5F474C4F 
 11653      42414C5F 
 11653      5F4E5F31 
 11653      33365465 
 11654 1838 00000000 		.align 32
 11654      00000000 
 11657              	_ZTSN12_GLOBAL__N_138TestCheckCloseFailureIncludesToleranceE:
 11658 1840 2A4E3132 		.string	"*N12_GLOBAL__N_138TestCheckCloseFailureIncludesToleranceE"
 11658      5F474C4F 
 11658      42414C5F 
 11658      5F4E5F31 
 11658      33385465 
 11659 187a 00000000 		.align 32
 11659      0000
 11662              	_ZTSN12_GLOBAL__N_151TestCheckCloseFailureIncludesCheckExpectedAndActualE:
 11663 1880 2A4E3132 		.string	"*N12_GLOBAL__N_151TestCheckCloseFailureIncludesCheckExpectedAndActualE"
 11663      5F474C4F 
 11663      42414C5F 
 11663      5F4E5F31 
 11663      35315465 
 11664 18c7 00000000 		.align 32
 11664      00000000 
 11664      00000000 
 11664      00000000 
 11664      00000000 
 11667              	_ZTSN12_GLOBAL__N_139TestCheckCloseWithNaNAgainstItselfFailsE:
 11668 18e0 2A4E3132 		.string	"*N12_GLOBAL__N_139TestCheckCloseWithNaNAgainstItselfFailsE"
 11668      5F474C4F 
 11668      42414C5F 
 11668      5F4E5F31 
 11668      33395465 
 11669 191b 00000000 		.align 32
 11669      00
 11672              	_ZTSN12_GLOBAL__N_126TestCheckCloseWithNaNFailsE:
 11673 1920 2A4E3132 		.string	"*N12_GLOBAL__N_126TestCheckCloseWithNaNFailsE"
 11673      5F474C4F 
 11673      42414C5F 
 11673      5F4E5F31 
 11673      32365465 
 11674 194e 00000000 		.align 32
 11674      00000000 
 11674      00000000 
 11674      00000000 
 11674      0000
 11677              	_ZTSN12_GLOBAL__N_147TestCheckCloseWithZeroEpsilonWorksForSameNumberE:
 11678 1960 2A4E3132 		.string	"*N12_GLOBAL__N_147TestCheckCloseWithZeroEpsilonWorksForSameNumberE"
 11678      5F474C4F 
 11678      42414C5F 
 11678      5F4E5F31 
 11678      34375465 
 11679 19a3 00000000 		.align 32
 11679      00000000 
 11679      00000000 
 11679      00000000 
 11679      00000000 
 11682              	_ZTSN12_GLOBAL__N_119TestCheckCloseFalseE:
 11683 19c0 2A4E3132 		.string	"*N12_GLOBAL__N_119TestCheckCloseFalseE"
 11683      5F474C4F 
 11683      42414C5F 
 11683      5F4E5F31 
 11683      31395465 
 11684 19e7 00000000 		.align 32
 11684      00000000 
 11684      00000000 
 11684      00000000 
 11684      00000000 
 11687              	_ZTSN12_GLOBAL__N_118TestCheckCloseTrueE:
 11688 1a00 2A4E3132 		.string	"*N12_GLOBAL__N_118TestCheckCloseTrueE"
 11688      5F474C4F 
 11688      42414C5F 
 11688      5F4E5F31 
 11688      31385465 
 11689 1a26 00000000 		.align 32
 11689      00000000 
 11689      00000000 
 11689      00000000 
 11689      00000000 
 11692              	_ZTSN12_GLOBAL__N_136TestCheckEqualFailureIncludesDetailsE:
 11693 1a40 2A4E3132 		.string	"*N12_GLOBAL__N_136TestCheckEqualFailureIncludesDetailsE"
 11693      5F474C4F 
 11693      42414C5F 
 11693      5F4E5F31 
 11693      33365465 
 11694 1a78 00000000 		.align 32
 11694      00000000 
 11697              	_ZTSN12_GLOBAL__N_151TestCheckEqualFailureIncludesCheckExpectedAndActualE:
 11698 1a80 2A4E3132 		.string	"*N12_GLOBAL__N_151TestCheckEqualFailureIncludesCheckExpectedAndActualE"
 11698      5F474C4F 
 11698      42414C5F 
 11698      5F4E5F31 
 11698      35315465 
 11699 1ac7 00000000 		.align 32
 11699      00000000 
 11699      00000000 
 11699      00000000 
 11699      00000000 
 11702              	_ZTSN12_GLOBAL__N_153TestCheckEqualsWithStringsWorksOnContentsWithALiteralE:
 11703 1ae0 2A4E3132 		.string	"*N12_GLOBAL__N_153TestCheckEqualsWithStringsWorksOnContentsWithALiteralE"
 11703      5F474C4F 
 11703      42414C5F 
 11703      5F4E5F31 
 11703      35335465 
 11704 1b29 00000000 		.align 32
 11704      00000000 
 11704      00000000 
 11704      00000000 
 11704      00000000 
 11707              	_ZTSN12_GLOBAL__N_154TestCheckEqualsWithStringsWorksOnContentsConstNonConstE:
 11708 1b40 2A4E3132 		.string	"*N12_GLOBAL__N_154TestCheckEqualsWithStringsWorksOnContentsConstNonConstE"
 11708      5F474C4F 
 11708      42414C5F 
 11708      5F4E5F31 
 11708      35345465 
 11709 1b8a 00000000 		.align 32
 11709      00000000 
 11709      00000000 
 11709      00000000 
 11709      00000000 
 11712              	_ZTSN12_GLOBAL__N_154TestCheckEqualsWithStringsWorksOnContentsNonConstConstE:
 11713 1ba0 2A4E3132 		.string	"*N12_GLOBAL__N_154TestCheckEqualsWithStringsWorksOnContentsNonConstConstE"
 11713      5F474C4F 
 11713      42414C5F 
 11713      5F4E5F31 
 11713      35345465 
 11714 1bea 00000000 		.align 32
 11714      00000000 
 11714      00000000 
 11714      00000000 
 11714      00000000 
 11717              	_ZTSN12_GLOBAL__N_151TestCheckEqualsWithStringsWorksOnContentsConstConstE:
 11718 1c00 2A4E3132 		.string	"*N12_GLOBAL__N_151TestCheckEqualsWithStringsWorksOnContentsConstConstE"
 11718      5F474C4F 
 11718      42414C5F 
 11718      5F4E5F31 
 11718      35315465 
 11719 1c47 00000000 		.align 32
 11719      00000000 
 11719      00000000 
 11719      00000000 
 11719      00000000 
 11722              	_ZTSN12_GLOBAL__N_157TestCheckEqualsWithStringsWorksOnContentsNonConstNonConstE:
 11723 1c60 2A4E3132 		.string	"*N12_GLOBAL__N_157TestCheckEqualsWithStringsWorksOnContentsNonConstNonConstE"
 11723      5F474C4F 
 11723      42414C5F 
 11723      5F4E5F31 
 11723      35375465 
 11724 1cad 00000000 		.align 32
 11724      00000000 
 11724      00000000 
 11724      00000000 
 11724      000000
 11727              	_ZTSN12_GLOBAL__N_149TestCheckEqualsWithStringsFailsOnDifferentStringsE:
 11728 1cc0 2A4E3132 		.string	"*N12_GLOBAL__N_149TestCheckEqualsWithStringsFailsOnDifferentStringsE"
 11728      5F474C4F 
 11728      42414C5F 
 11728      5F4E5F31 
 11728      34395465 
 11729 1d05 00000000 		.align 32
 11729      00000000 
 11729      00000000 
 11729      00000000 
 11729      00000000 
 11732              	_ZTSN12_GLOBAL__N_130TestCheckEqualWithUnsignedLongE:
 11733 1d20 2A4E3132 		.string	"*N12_GLOBAL__N_130TestCheckEqualWithUnsignedLongE"
 11733      5F474C4F 
 11733      42414C5F 
 11733      5F4E5F31 
 11733      33305465 
 11734              		.text
 11736              	_GLOBAL__sub_I_TestChecks.cpp:
 11737              	.LFB1339:
 11738              		.loc 5 293 0
 11739              		.cfi_startproc
 11740 43d5 55       		pushq	%rbp
 11741              		.cfi_def_cfa_offset 16
 11742              		.cfi_offset 6, -16
 11743 43d6 4889E5   		movq	%rsp, %rbp
 11744              		.cfi_def_cfa_register 6
 11745              		.loc 5 293 0
 11746 43d9 BEFFFF00 		movl	$65535, %esi
 11746      00
 11747 43de BF010000 		movl	$1, %edi
 11747      00
 11748 43e3 E864FAFF 		call	_Z41__static_initialization_and_destruction_0ii
 11748      FF
 11749 43e8 5D       		popq	%rbp
 11750              		.cfi_def_cfa 7, 8
 11751 43e9 C3       		ret
 11752              		.cfi_endproc
 11753              	.LFE1339:
 11755              		.section	.init_array,"aw"
 11756              		.align 8
 11757 0000 00000000 		.quad	_GLOBAL__sub_I_TestChecks.cpp
 11757      00000000 
 11758              		.section	.rodata
 11759 1d52 00000000 		.align 8
 11759      0000
 11762              	_ZZL18__gthread_active_pvE20__gthread_active_ptr:
 11763 1d58 00000000 		.quad	_ZL28__gthrw___pthread_key_createPjPFvPvE
 11763      00000000 
 11764              		.weakref	_ZL28__gthrw___pthread_key_createPjPFvPvE,__pthread_key_create
 11765              		.align 4
 11766              	.LC1:
 11767 1d60 00000000 		.long	0
 11768              		.align 4
 11769              	.LC31:
 11770 1d64 CDCCCC3D 		.long	1036831949
 11771              		.align 4
 11772              	.LC32:
 11773 1d68 00004040 		.long	1077936128
 11774              		.align 4
 11775              	.LC33:
 11776 1d6c 62104040 		.long	1077940322
 11777              		.align 4
 11778              	.LC35:
 11779 1d70 14AE4740 		.long	1078439444
 11780              		.align 4
 11781              	.LC40:
 11782 1d74 6666663F 		.long	1063675494
 11783              		.align 4
 11784              	.LC41:
 11785 1d78 CDCC8C3F 		.long	1066192077
 11786              		.align 4
 11787              	.LC42:
 11788 1d7c 0AD7233C 		.long	1008981770
 11789              		.align 4
 11790              	.LC60:
 11791 1d80 0000803F 		.long	1065353216
 11792              		.align 4
 11793              	.LC61:
 11794 1d84 0000C03F 		.long	1069547520
 11795              		.align 4
 11796              	.LC62:
 11797 1d88 00000040 		.long	1073741824
 11798              		.align 4
 11799              	.LC63:
 11800 1d8c AE47813F 		.long	1065437102
 11801              		.align 4
 11802              	.LC64:
 11803 1d90 AE47C13F 		.long	1069631406
 11804              		.align 4
 11805              	.LC65:
 11806 1d94 D7A30040 		.long	1073783767
 11807              		.align 4
 11808              	.LC66:
 11809 1d98 0AD7A33C 		.long	1017370378
 11810              		.align 4
 11811              	.LC68:
 11812 1d9c 6F12833A 		.long	981668463
 11813              		.align 4
 11814              	.LC78:
 11815 1da0 00002040 		.long	1075838976
 11816              		.align 4
 11817              	.LC79:
 11818 1da4 00006040 		.long	1080033280
 11819              		.align 4
 11820              	.LC80:
 11821 1da8 00008040 		.long	1082130432
 11822              		.align 4
 11823              	.LC81:
 11824 1dac D7A32040 		.long	1075880919
 11825              		.align 4
 11826              	.LC82:
 11827 1db0 D7A34040 		.long	1077978071
 11828              		.align 4
 11829              	.LC83:
 11830 1db4 D7A36040 		.long	1080075223
 11831              		.align 4
 11832              	.LC84:
 11833 1db8 EC518040 		.long	1082151404
 11834              		.text
 11835              	.Letext0:
 11836              		.file 7 "../TestDetails.h"
 11837              		.file 8 "../TestList.h"
 11838              		.file 9 "../TestResults.h"
 11839              		.file 10 "<built-in>"
 11840              		.file 11 "/usr/include/stdio.h"
 11841              		.file 12 "/usr/lib/gcc/x86_64-linux-gnu/4.8/include/stddef.h"
 11842              		.file 13 "/usr/include/wchar.h"
 11843              		.file 14 "/usr/include/c++/4.8/cwchar"
 11844              		.file 15 "/usr/include/c++/4.8/bits/char_traits.h"
 11845              		.file 16 "/usr/include/x86_64-linux-gnu/c++/4.8/bits/c++config.h"
 11846              		.file 17 "/usr/include/c++/4.8/clocale"
 11847              		.file 18 "/usr/include/c++/4.8/bits/allocator.h"
 11848              		.file 19 "/usr/include/c++/4.8/bits/basic_string.h"
 11849              		.file 20 "/usr/include/c++/4.8/bits/basic_string.tcc"
 11850              		.file 21 "/usr/include/c++/4.8/bits/stringfwd.h"
 11851              		.file 22 "/usr/include/c++/4.8/cwctype"
 11852              		.file 23 "/usr/include/c++/4.8/cstring"
 11853              		.file 24 "/usr/include/time.h"
 11854              		.file 25 "/usr/include/c++/4.8/ext/new_allocator.h"
 11855              		.file 26 "/usr/include/c++/4.8/ext/numeric_traits.h"
 11856              		.file 27 "/usr/include/c++/4.8/debug/debug.h"
 11857              		.file 28 "/usr/include/locale.h"
 11858              		.file 29 "/usr/include/x86_64-linux-gnu/bits/types.h"
 11859              		.file 30 "/usr/include/x86_64-linux-gnu/c++/4.8/bits/atomic_word.h"
 11860              		.file 31 "/usr/include/wctype.h"
 11861              		.file 32 "/usr/include/string.h"
DEFINED SYMBOLS
                            *ABS*:0000000000000000 TestChecks.cpp
     /tmp/ccV2gjPH.s:10     .text._ZN13UnitTestSuite12GetSuiteNameEv:0000000000000000 _ZN13UnitTestSuite12GetSuiteNameEv
     /tmp/ccV2gjPH.s:33     .text._ZN8UnitTest15MemoryOutStreamC1Ev:0000000000000000 _ZN8UnitTest15MemoryOutStreamC1Ev
     /tmp/ccV2gjPH.s:11008  .rodata._ZTTN8UnitTest15MemoryOutStreamE:0000000000000000 _ZTTN8UnitTest15MemoryOutStreamE
     /tmp/ccV2gjPH.s:10992  .rodata._ZTVN8UnitTest15MemoryOutStreamE:0000000000000000 _ZTVN8UnitTest15MemoryOutStreamE
     /tmp/ccV2gjPH.s:146    .text._ZN8UnitTest12TestReporterC2Ev:0000000000000000 _ZN8UnitTest12TestReporterC2Ev
     /tmp/ccV2gjPH.s:146    .text._ZN8UnitTest12TestReporterC2Ev:0000000000000000 _ZN8UnitTest12TestReporterC1Ev
     /tmp/ccV2gjPH.s:174    .text._ZN17RecordingReporterC2Ev:0000000000000000 _ZN17RecordingReporterC2Ev
     /tmp/ccV2gjPH.s:10910  .rodata._ZTV17RecordingReporter:0000000000000000 _ZTV17RecordingReporter
     /tmp/ccV2gjPH.s:174    .text._ZN17RecordingReporterC2Ev:0000000000000000 _ZN17RecordingReporterC1Ev
     /tmp/ccV2gjPH.s:251    .text._ZN17RecordingReporter15ReportTestStartERKN8UnitTest11TestDetailsE:0000000000000000 _ZN17RecordingReporter15ReportTestStartERKN8UnitTest11TestDetailsE
     /tmp/ccV2gjPH.s:298    .text._ZN17RecordingReporter13ReportFailureERKN8UnitTest11TestDetailsEPKc:0000000000000000 _ZN17RecordingReporter13ReportFailureERKN8UnitTest11TestDetailsEPKc
     /tmp/ccV2gjPH.s:366    .text._ZN17RecordingReporter16ReportTestFinishERKN8UnitTest11TestDetailsEf:0000000000000000 _ZN17RecordingReporter16ReportTestFinishERKN8UnitTest11TestDetailsEf
     /tmp/ccV2gjPH.s:418    .text._ZN17RecordingReporter13ReportSummaryEiiif:0000000000000000 _ZN17RecordingReporter13ReportSummaryEiiif
     /tmp/ccV2gjPH.s:463    .text:0000000000000000 _ZN12_GLOBAL__N_130TestCheckEqualWithUnsignedLongC2Ev
     /tmp/ccV2gjPH.s:10835  .rodata:0000000000001240 _ZTVN12_GLOBAL__N_130TestCheckEqualWithUnsignedLongE
     /tmp/ccV2gjPH.s:463    .text:0000000000000000 _ZN12_GLOBAL__N_130TestCheckEqualWithUnsignedLongC1Ev
     /tmp/ccV2gjPH.s:496    .bss:0000000000000000 _ZN12_GLOBAL__N_138testCheckEqualWithUnsignedLongInstanceE
     /tmp/ccV2gjPH.s:496    .bss:0000000000000038 _ZN12_GLOBAL__N_131adderCheckEqualWithUnsignedLongE
     /tmp/ccV2gjPH.s:506    .text:000000000000003e _ZNK12_GLOBAL__N_130TestCheckEqualWithUnsignedLong7RunImplEv
     /tmp/ccV2gjPH.s:7145   .text._ZN8UnitTest10CheckEqualImmEEvRNS_11TestResultsERKT_RKT0_RKNS_11TestDetailsE:0000000000000000 _ZN8UnitTest10CheckEqualImmEEvRNS_11TestResultsERKT_RKT0_RKNS_11TestDetailsE
     /tmp/ccV2gjPH.s:642    .text:00000000000000fe _ZN12_GLOBAL__N_149TestCheckEqualsWithStringsFailsOnDifferentStringsC2Ev
     /tmp/ccV2gjPH.s:10761  .rodata:0000000000001200 _ZTVN12_GLOBAL__N_149TestCheckEqualsWithStringsFailsOnDifferentStringsE
     /tmp/ccV2gjPH.s:642    .text:00000000000000fe _ZN12_GLOBAL__N_149TestCheckEqualsWithStringsFailsOnDifferentStringsC1Ev
     /tmp/ccV2gjPH.s:674    .bss:0000000000000040 _ZN12_GLOBAL__N_157testCheckEqualsWithStringsFailsOnDifferentStringsInstanceE
     /tmp/ccV2gjPH.s:674    .bss:0000000000000078 _ZN12_GLOBAL__N_150adderCheckEqualsWithStringsFailsOnDifferentStringsE
     /tmp/ccV2gjPH.s:686    .text:000000000000013c _ZNK12_GLOBAL__N_149TestCheckEqualsWithStringsFailsOnDifferentStrings7RunImplEv
     /tmp/ccV2gjPH.s:7275   .text._ZN8UnitTest10CheckEqualIiiEEvRNS_11TestResultsERKT_RKT0_RKNS_11TestDetailsE:0000000000000000 _ZN8UnitTest10CheckEqualIiiEEvRNS_11TestResultsERKT_RKT0_RKNS_11TestDetailsE
     /tmp/ccV2gjPH.s:850    .data:0000000000000000 _ZN12_GLOBAL__N_14txt1E
     /tmp/ccV2gjPH.s:854    .data:0000000000000006 _ZN12_GLOBAL__N_14txt2E
     /tmp/ccV2gjPH.s:863    .text:000000000000028a _ZN12_GLOBAL__N_157TestCheckEqualsWithStringsWorksOnContentsNonConstNonConstC2Ev
     /tmp/ccV2gjPH.s:10687  .rodata:00000000000011c0 _ZTVN12_GLOBAL__N_157TestCheckEqualsWithStringsWorksOnContentsNonConstNonConstE
     /tmp/ccV2gjPH.s:863    .text:000000000000028a _ZN12_GLOBAL__N_157TestCheckEqualsWithStringsWorksOnContentsNonConstNonConstC1Ev
     /tmp/ccV2gjPH.s:895    .bss:0000000000000080 _ZN12_GLOBAL__N_165testCheckEqualsWithStringsWorksOnContentsNonConstNonConstInstanceE
     /tmp/ccV2gjPH.s:895    .bss:00000000000000b8 _ZN12_GLOBAL__N_158adderCheckEqualsWithStringsWorksOnContentsNonConstNonConstE
     /tmp/ccV2gjPH.s:905    .text:00000000000002c8 _ZNK12_GLOBAL__N_157TestCheckEqualsWithStringsWorksOnContentsNonConstNonConst7RunImplEv
     /tmp/ccV2gjPH.s:1063   .text:00000000000003e4 _ZN12_GLOBAL__N_151TestCheckEqualsWithStringsWorksOnContentsConstConstC2Ev
     /tmp/ccV2gjPH.s:10613  .rodata:0000000000001180 _ZTVN12_GLOBAL__N_151TestCheckEqualsWithStringsWorksOnContentsConstConstE
     /tmp/ccV2gjPH.s:1063   .text:00000000000003e4 _ZN12_GLOBAL__N_151TestCheckEqualsWithStringsWorksOnContentsConstConstC1Ev
     /tmp/ccV2gjPH.s:1095   .bss:00000000000000c0 _ZN12_GLOBAL__N_159testCheckEqualsWithStringsWorksOnContentsConstConstInstanceE
     /tmp/ccV2gjPH.s:1095   .bss:00000000000000f8 _ZN12_GLOBAL__N_152adderCheckEqualsWithStringsWorksOnContentsConstConstE
     /tmp/ccV2gjPH.s:1100   .text:0000000000000422 _ZNK12_GLOBAL__N_151TestCheckEqualsWithStringsWorksOnContentsConstConst7RunImplEv
     /tmp/ccV2gjPH.s:1258   .text:000000000000053e _ZN12_GLOBAL__N_154TestCheckEqualsWithStringsWorksOnContentsNonConstConstC2Ev
     /tmp/ccV2gjPH.s:10539  .rodata:0000000000001140 _ZTVN12_GLOBAL__N_154TestCheckEqualsWithStringsWorksOnContentsNonConstConstE
     /tmp/ccV2gjPH.s:1258   .text:000000000000053e _ZN12_GLOBAL__N_154TestCheckEqualsWithStringsWorksOnContentsNonConstConstC1Ev
     /tmp/ccV2gjPH.s:1290   .bss:0000000000000100 _ZN12_GLOBAL__N_162testCheckEqualsWithStringsWorksOnContentsNonConstConstInstanceE
     /tmp/ccV2gjPH.s:1290   .bss:0000000000000138 _ZN12_GLOBAL__N_155adderCheckEqualsWithStringsWorksOnContentsNonConstConstE
     /tmp/ccV2gjPH.s:1295   .text:000000000000057c _ZNK12_GLOBAL__N_154TestCheckEqualsWithStringsWorksOnContentsNonConstConst7RunImplEv
     /tmp/ccV2gjPH.s:1453   .text:0000000000000698 _ZN12_GLOBAL__N_154TestCheckEqualsWithStringsWorksOnContentsConstNonConstC2Ev
     /tmp/ccV2gjPH.s:10465  .rodata:0000000000001100 _ZTVN12_GLOBAL__N_154TestCheckEqualsWithStringsWorksOnContentsConstNonConstE
     /tmp/ccV2gjPH.s:1453   .text:0000000000000698 _ZN12_GLOBAL__N_154TestCheckEqualsWithStringsWorksOnContentsConstNonConstC1Ev
     /tmp/ccV2gjPH.s:1485   .bss:0000000000000140 _ZN12_GLOBAL__N_162testCheckEqualsWithStringsWorksOnContentsConstNonConstInstanceE
     /tmp/ccV2gjPH.s:1485   .bss:0000000000000178 _ZN12_GLOBAL__N_155adderCheckEqualsWithStringsWorksOnContentsConstNonConstE
     /tmp/ccV2gjPH.s:1490   .text:00000000000006d6 _ZNK12_GLOBAL__N_154TestCheckEqualsWithStringsWorksOnContentsConstNonConst7RunImplEv
     /tmp/ccV2gjPH.s:1648   .text:00000000000007f2 _ZN12_GLOBAL__N_153TestCheckEqualsWithStringsWorksOnContentsWithALiteralC2Ev
     /tmp/ccV2gjPH.s:10391  .rodata:00000000000010c0 _ZTVN12_GLOBAL__N_153TestCheckEqualsWithStringsWorksOnContentsWithALiteralE
     /tmp/ccV2gjPH.s:1648   .text:00000000000007f2 _ZN12_GLOBAL__N_153TestCheckEqualsWithStringsWorksOnContentsWithALiteralC1Ev
     /tmp/ccV2gjPH.s:1680   .bss:0000000000000180 _ZN12_GLOBAL__N_161testCheckEqualsWithStringsWorksOnContentsWithALiteralInstanceE
     /tmp/ccV2gjPH.s:1680   .bss:00000000000001b8 _ZN12_GLOBAL__N_154adderCheckEqualsWithStringsWorksOnContentsWithALiteralE
     /tmp/ccV2gjPH.s:1689   .text:0000000000000830 _ZNK12_GLOBAL__N_153TestCheckEqualsWithStringsWorksOnContentsWithALiteral7RunImplEv
     /tmp/ccV2gjPH.s:1845   .text:0000000000000944 _ZN12_GLOBAL__N_151TestCheckEqualFailureIncludesCheckExpectedAndActualC2Ev
     /tmp/ccV2gjPH.s:10317  .rodata:0000000000001080 _ZTVN12_GLOBAL__N_151TestCheckEqualFailureIncludesCheckExpectedAndActualE
     /tmp/ccV2gjPH.s:1845   .text:0000000000000944 _ZN12_GLOBAL__N_151TestCheckEqualFailureIncludesCheckExpectedAndActualC1Ev
     /tmp/ccV2gjPH.s:1877   .bss:00000000000001c0 _ZN12_GLOBAL__N_159testCheckEqualFailureIncludesCheckExpectedAndActualInstanceE
     /tmp/ccV2gjPH.s:1877   .bss:00000000000001f8 _ZN12_GLOBAL__N_152adderCheckEqualFailureIncludesCheckExpectedAndActualE
     /tmp/ccV2gjPH.s:1900   .text:0000000000000982 _ZNK12_GLOBAL__N_151TestCheckEqualFailureIncludesCheckExpectedAndActual7RunImplEv
     /tmp/ccV2gjPH.s:7404   .text._ZN8UnitTest5CheckIPcEEbT_:0000000000000000 _ZN8UnitTest5CheckIPcEEbT_
     /tmp/ccV2gjPH.s:10923  .text._ZN17RecordingReporterD2Ev:0000000000000000 _ZN17RecordingReporterD1Ev
     /tmp/ccV2gjPH.s:2165   .text:0000000000000c00 _ZN12_GLOBAL__N_136TestCheckEqualFailureIncludesDetailsC2Ev
     /tmp/ccV2gjPH.s:10243  .rodata:0000000000001040 _ZTVN12_GLOBAL__N_136TestCheckEqualFailureIncludesDetailsE
     /tmp/ccV2gjPH.s:2165   .text:0000000000000c00 _ZN12_GLOBAL__N_136TestCheckEqualFailureIncludesDetailsC1Ev
     /tmp/ccV2gjPH.s:2197   .bss:0000000000000200 _ZN12_GLOBAL__N_144testCheckEqualFailureIncludesDetailsInstanceE
     /tmp/ccV2gjPH.s:2197   .bss:0000000000000238 _ZN12_GLOBAL__N_137adderCheckEqualFailureIncludesDetailsE
     /tmp/ccV2gjPH.s:2222   .text:0000000000000c3e _ZNK12_GLOBAL__N_136TestCheckEqualFailureIncludesDetails7RunImplEv
     /tmp/ccV2gjPH.s:2600   .text:0000000000000ff0 _ZN12_GLOBAL__N_118TestCheckCloseTrueC2Ev
     /tmp/ccV2gjPH.s:10169  .rodata:0000000000001000 _ZTVN12_GLOBAL__N_118TestCheckCloseTrueE
     /tmp/ccV2gjPH.s:2600   .text:0000000000000ff0 _ZN12_GLOBAL__N_118TestCheckCloseTrueC1Ev
     /tmp/ccV2gjPH.s:2632   .bss:0000000000000240 _ZN12_GLOBAL__N_126testCheckCloseTrueInstanceE
     /tmp/ccV2gjPH.s:2632   .bss:0000000000000278 _ZN12_GLOBAL__N_119adderCheckCloseTrueE
     /tmp/ccV2gjPH.s:2637   .text:000000000000102e _ZNK12_GLOBAL__N_118TestCheckCloseTrue7RunImplEv
     /tmp/ccV2gjPH.s:7430   .text._ZN8UnitTest10CheckCloseIfffEEvRNS_11TestResultsERKT_RKT0_RKT1_RKNS_11TestDetailsE:0000000000000000 _ZN8UnitTest10CheckCloseIfffEEvRNS_11TestResultsERKT_RKT0_RKT1_RKNS_11TestDetailsE
     /tmp/ccV2gjPH.s:2797   .text:0000000000001158 _ZN12_GLOBAL__N_119TestCheckCloseFalseC2Ev
     /tmp/ccV2gjPH.s:10095  .rodata:0000000000000fc0 _ZTVN12_GLOBAL__N_119TestCheckCloseFalseE
     /tmp/ccV2gjPH.s:2797   .text:0000000000001158 _ZN12_GLOBAL__N_119TestCheckCloseFalseC1Ev
     /tmp/ccV2gjPH.s:2829   .bss:0000000000000280 _ZN12_GLOBAL__N_127testCheckCloseFalseInstanceE
     /tmp/ccV2gjPH.s:2829   .bss:00000000000002b8 _ZN12_GLOBAL__N_120adderCheckCloseFalseE
     /tmp/ccV2gjPH.s:2834   .text:0000000000001196 _ZNK12_GLOBAL__N_119TestCheckCloseFalse7RunImplEv
     /tmp/ccV2gjPH.s:2995   .text:00000000000012c0 _ZN12_GLOBAL__N_147TestCheckCloseWithZeroEpsilonWorksForSameNumberC2Ev
     /tmp/ccV2gjPH.s:10021  .rodata:0000000000000f80 _ZTVN12_GLOBAL__N_147TestCheckCloseWithZeroEpsilonWorksForSameNumberE
     /tmp/ccV2gjPH.s:2995   .text:00000000000012c0 _ZN12_GLOBAL__N_147TestCheckCloseWithZeroEpsilonWorksForSameNumberC1Ev
     /tmp/ccV2gjPH.s:3027   .bss:00000000000002c0 _ZN12_GLOBAL__N_155testCheckCloseWithZeroEpsilonWorksForSameNumberInstanceE
     /tmp/ccV2gjPH.s:3027   .bss:00000000000002f8 _ZN12_GLOBAL__N_148adderCheckCloseWithZeroEpsilonWorksForSameNumberE
     /tmp/ccV2gjPH.s:3032   .text:00000000000012fe _ZNK12_GLOBAL__N_147TestCheckCloseWithZeroEpsilonWorksForSameNumber7RunImplEv
     /tmp/ccV2gjPH.s:7577   .text._ZN8UnitTest10CheckCloseIffiEEvRNS_11TestResultsERKT_RKT0_RKT1_RKNS_11TestDetailsE:0000000000000000 _ZN8UnitTest10CheckCloseIffiEEvRNS_11TestResultsERKT_RKT0_RKT1_RKNS_11TestDetailsE
     /tmp/ccV2gjPH.s:3191   .text:0000000000001426 _ZN12_GLOBAL__N_126TestCheckCloseWithNaNFailsC2Ev
     /tmp/ccV2gjPH.s:9947   .rodata:0000000000000f40 _ZTVN12_GLOBAL__N_126TestCheckCloseWithNaNFailsE
     /tmp/ccV2gjPH.s:3191   .text:0000000000001426 _ZN12_GLOBAL__N_126TestCheckCloseWithNaNFailsC1Ev
     /tmp/ccV2gjPH.s:3223   .bss:0000000000000300 _ZN12_GLOBAL__N_134testCheckCloseWithNaNFailsInstanceE
     /tmp/ccV2gjPH.s:3223   .bss:0000000000000338 _ZN12_GLOBAL__N_127adderCheckCloseWithNaNFailsE
     /tmp/ccV2gjPH.s:3228   .text:0000000000001464 _ZNK12_GLOBAL__N_126TestCheckCloseWithNaNFails7RunImplEv
     /tmp/ccV2gjPH.s:3389   .text:000000000000158c _ZN12_GLOBAL__N_139TestCheckCloseWithNaNAgainstItselfFailsC2Ev
     /tmp/ccV2gjPH.s:9873   .rodata:0000000000000f00 _ZTVN12_GLOBAL__N_139TestCheckCloseWithNaNAgainstItselfFailsE
     /tmp/ccV2gjPH.s:3389   .text:000000000000158c _ZN12_GLOBAL__N_139TestCheckCloseWithNaNAgainstItselfFailsC1Ev
     /tmp/ccV2gjPH.s:3421   .bss:0000000000000340 _ZN12_GLOBAL__N_147testCheckCloseWithNaNAgainstItselfFailsInstanceE
     /tmp/ccV2gjPH.s:3421   .bss:0000000000000378 _ZN12_GLOBAL__N_140adderCheckCloseWithNaNAgainstItselfFailsE
     /tmp/ccV2gjPH.s:3426   .text:00000000000015ca _ZNK12_GLOBAL__N_139TestCheckCloseWithNaNAgainstItselfFails7RunImplEv
     /tmp/ccV2gjPH.s:3585   .text:00000000000016e8 _ZN12_GLOBAL__N_151TestCheckCloseFailureIncludesCheckExpectedAndActualC2Ev
     /tmp/ccV2gjPH.s:9799   .rodata:0000000000000ec0 _ZTVN12_GLOBAL__N_151TestCheckCloseFailureIncludesCheckExpectedAndActualE
     /tmp/ccV2gjPH.s:3585   .text:00000000000016e8 _ZN12_GLOBAL__N_151TestCheckCloseFailureIncludesCheckExpectedAndActualC1Ev
     /tmp/ccV2gjPH.s:3617   .bss:0000000000000380 _ZN12_GLOBAL__N_159testCheckCloseFailureIncludesCheckExpectedAndActualInstanceE
     /tmp/ccV2gjPH.s:3617   .bss:00000000000003b8 _ZN12_GLOBAL__N_152adderCheckCloseFailureIncludesCheckExpectedAndActualE
     /tmp/ccV2gjPH.s:3640   .text:0000000000001726 _ZNK12_GLOBAL__N_151TestCheckCloseFailureIncludesCheckExpectedAndActual7RunImplEv
     /tmp/ccV2gjPH.s:3912   .text:00000000000019be _ZN12_GLOBAL__N_138TestCheckCloseFailureIncludesToleranceC2Ev
     /tmp/ccV2gjPH.s:9725   .rodata:0000000000000e80 _ZTVN12_GLOBAL__N_138TestCheckCloseFailureIncludesToleranceE
     /tmp/ccV2gjPH.s:3912   .text:00000000000019be _ZN12_GLOBAL__N_138TestCheckCloseFailureIncludesToleranceC1Ev
     /tmp/ccV2gjPH.s:3944   .bss:00000000000003c0 _ZN12_GLOBAL__N_146testCheckCloseFailureIncludesToleranceInstanceE
     /tmp/ccV2gjPH.s:3944   .bss:00000000000003f8 _ZN12_GLOBAL__N_139adderCheckCloseFailureIncludesToleranceE
     /tmp/ccV2gjPH.s:3959   .text:00000000000019fc _ZNK12_GLOBAL__N_138TestCheckCloseFailureIncludesTolerance7RunImplEv
     /tmp/ccV2gjPH.s:7723   .text._ZN8UnitTest10CheckCloseIiifEEvRNS_11TestResultsERKT_RKT0_RKT1_RKNS_11TestDetailsE:0000000000000000 _ZN8UnitTest10CheckCloseIiifEEvRNS_11TestResultsERKT_RKT0_RKT1_RKNS_11TestDetailsE
     /tmp/ccV2gjPH.s:4156   .text:0000000000001bc2 _ZN12_GLOBAL__N_136TestCheckCloseFailureIncludesDetailsC2Ev
     /tmp/ccV2gjPH.s:9651   .rodata:0000000000000e40 _ZTVN12_GLOBAL__N_136TestCheckCloseFailureIncludesDetailsE
     /tmp/ccV2gjPH.s:4156   .text:0000000000001bc2 _ZN12_GLOBAL__N_136TestCheckCloseFailureIncludesDetailsC1Ev
     /tmp/ccV2gjPH.s:4188   .bss:0000000000000400 _ZN12_GLOBAL__N_144testCheckCloseFailureIncludesDetailsInstanceE
     /tmp/ccV2gjPH.s:4188   .bss:0000000000000438 _ZN12_GLOBAL__N_137adderCheckCloseFailureIncludesDetailsE
     /tmp/ccV2gjPH.s:4203   .text:0000000000001c00 _ZNK12_GLOBAL__N_136TestCheckCloseFailureIncludesDetails7RunImplEv
     /tmp/ccV2gjPH.s:4585   .text:0000000000001fc8 _ZN12_GLOBAL__N_123TestCheckArrayEqualTrueC2Ev
     /tmp/ccV2gjPH.s:9577   .rodata:0000000000000e00 _ZTVN12_GLOBAL__N_123TestCheckArrayEqualTrueE
     /tmp/ccV2gjPH.s:4585   .text:0000000000001fc8 _ZN12_GLOBAL__N_123TestCheckArrayEqualTrueC1Ev
     /tmp/ccV2gjPH.s:4617   .bss:0000000000000440 _ZN12_GLOBAL__N_131testCheckArrayEqualTrueInstanceE
     /tmp/ccV2gjPH.s:4617   .bss:0000000000000478 _ZN12_GLOBAL__N_124adderCheckArrayEqualTrueE
     /tmp/ccV2gjPH.s:4622   .text:0000000000002006 _ZNK12_GLOBAL__N_123TestCheckArrayEqualTrue7RunImplEv
     /tmp/ccV2gjPH.s:7877   .text._ZN8UnitTest15CheckArrayEqualIA3_iS1_EEvRNS_11TestResultsERKT_RKT0_iRKNS_11TestDetailsE:0000000000000000 _ZN8UnitTest15CheckArrayEqualIA3_iS1_EEvRNS_11TestResultsERKT_RKT0_iRKNS_11TestDetailsE
     /tmp/ccV2gjPH.s:4780   .text:000000000000212a _ZN12_GLOBAL__N_124TestCheckArrayEqualFalseC2Ev
     /tmp/ccV2gjPH.s:9503   .rodata:0000000000000dc0 _ZTVN12_GLOBAL__N_124TestCheckArrayEqualFalseE
     /tmp/ccV2gjPH.s:4780   .text:000000000000212a _ZN12_GLOBAL__N_124TestCheckArrayEqualFalseC1Ev
     /tmp/ccV2gjPH.s:4812   .bss:0000000000000480 _ZN12_GLOBAL__N_132testCheckArrayEqualFalseInstanceE
     /tmp/ccV2gjPH.s:4812   .bss:00000000000004b8 _ZN12_GLOBAL__N_125adderCheckArrayEqualFalseE
     /tmp/ccV2gjPH.s:4817   .text:0000000000002168 _ZNK12_GLOBAL__N_124TestCheckArrayEqualFalse7RunImplEv
     /tmp/ccV2gjPH.s:4979   .text:00000000000022aa _ZN12_GLOBAL__N_123TestCheckArrayCloseTrueC2Ev
     /tmp/ccV2gjPH.s:9429   .rodata:0000000000000d80 _ZTVN12_GLOBAL__N_123TestCheckArrayCloseTrueE
     /tmp/ccV2gjPH.s:4979   .text:00000000000022aa _ZN12_GLOBAL__N_123TestCheckArrayCloseTrueC1Ev
     /tmp/ccV2gjPH.s:5011   .bss:00000000000004c0 _ZN12_GLOBAL__N_131testCheckArrayCloseTrueInstanceE
     /tmp/ccV2gjPH.s:5011   .bss:00000000000004f8 _ZN12_GLOBAL__N_124adderCheckArrayCloseTrueE
     /tmp/ccV2gjPH.s:5016   .text:00000000000022e8 _ZNK12_GLOBAL__N_123TestCheckArrayCloseTrue7RunImplEv
     /tmp/ccV2gjPH.s:8085   .text._ZN8UnitTest15CheckArrayCloseIA3_fS1_fEEvRNS_11TestResultsERKT_RKT0_iRKT1_RKNS_11TestDetailsE:0000000000000000 _ZN8UnitTest15CheckArrayCloseIA3_fS1_fEEvRNS_11TestResultsERKT_RKT0_iRKT1_RKNS_11TestDetailsE
     /tmp/ccV2gjPH.s:5188   .text:0000000000002446 _ZN12_GLOBAL__N_124TestCheckArrayCloseFalseC2Ev
     /tmp/ccV2gjPH.s:9355   .rodata:0000000000000d40 _ZTVN12_GLOBAL__N_124TestCheckArrayCloseFalseE
     /tmp/ccV2gjPH.s:5188   .text:0000000000002446 _ZN12_GLOBAL__N_124TestCheckArrayCloseFalseC1Ev
     /tmp/ccV2gjPH.s:5220   .bss:0000000000000500 _ZN12_GLOBAL__N_132testCheckArrayCloseFalseInstanceE
     /tmp/ccV2gjPH.s:5220   .bss:0000000000000538 _ZN12_GLOBAL__N_125adderCheckArrayCloseFalseE
     /tmp/ccV2gjPH.s:5225   .text:0000000000002484 _ZNK12_GLOBAL__N_124TestCheckArrayCloseFalse7RunImplEv
     /tmp/ccV2gjPH.s:5398   .text:00000000000025e2 _ZN12_GLOBAL__N_141TestCheckArrayCloseFailureIncludesDetailsC2Ev
     /tmp/ccV2gjPH.s:9281   .rodata:0000000000000d00 _ZTVN12_GLOBAL__N_141TestCheckArrayCloseFailureIncludesDetailsE
     /tmp/ccV2gjPH.s:5398   .text:00000000000025e2 _ZN12_GLOBAL__N_141TestCheckArrayCloseFailureIncludesDetailsC1Ev
     /tmp/ccV2gjPH.s:5430   .bss:0000000000000540 _ZN12_GLOBAL__N_149testCheckArrayCloseFailureIncludesDetailsInstanceE
     /tmp/ccV2gjPH.s:5430   .bss:0000000000000578 _ZN12_GLOBAL__N_142adderCheckArrayCloseFailureIncludesDetailsE
     /tmp/ccV2gjPH.s:5455   .text:0000000000002620 _ZNK12_GLOBAL__N_141TestCheckArrayCloseFailureIncludesDetails7RunImplEv
     /tmp/ccV2gjPH.s:5851   .text:0000000000002a24 _ZN12_GLOBAL__N_125TestCheckArray2DCloseTrueC2Ev
     /tmp/ccV2gjPH.s:9207   .rodata:0000000000000cc0 _ZTVN12_GLOBAL__N_125TestCheckArray2DCloseTrueE
     /tmp/ccV2gjPH.s:5851   .text:0000000000002a24 _ZN12_GLOBAL__N_125TestCheckArray2DCloseTrueC1Ev
     /tmp/ccV2gjPH.s:5883   .bss:0000000000000580 _ZN12_GLOBAL__N_133testCheckArray2DCloseTrueInstanceE
     /tmp/ccV2gjPH.s:5883   .bss:00000000000005b8 _ZN12_GLOBAL__N_126adderCheckArray2DCloseTrueE
     /tmp/ccV2gjPH.s:5888   .text:0000000000002a62 _ZNK12_GLOBAL__N_125TestCheckArray2DCloseTrue7RunImplEv
     /tmp/ccV2gjPH.s:8282   .text._ZN8UnitTest17CheckArray2DCloseIA3_A3_fS2_fEEvRNS_11TestResultsERKT_RKT0_iiRKT1_RKNS_11TestDetailsE:0000000000000000 _ZN8UnitTest17CheckArray2DCloseIA3_A3_fS2_fEEvRNS_11TestResultsERKT_RKT0_iiRKT1_RKNS_11TestDetailsE
     /tmp/ccV2gjPH.s:6085   .text:0000000000002c60 _ZN12_GLOBAL__N_126TestCheckArray2DCloseFalseC2Ev
     /tmp/ccV2gjPH.s:9133   .rodata:0000000000000c80 _ZTVN12_GLOBAL__N_126TestCheckArray2DCloseFalseE
     /tmp/ccV2gjPH.s:6085   .text:0000000000002c60 _ZN12_GLOBAL__N_126TestCheckArray2DCloseFalseC1Ev
     /tmp/ccV2gjPH.s:6117   .bss:00000000000005c0 _ZN12_GLOBAL__N_134testCheckArray2DCloseFalseInstanceE
     /tmp/ccV2gjPH.s:6117   .bss:00000000000005f8 _ZN12_GLOBAL__N_127adderCheckArray2DCloseFalseE
     /tmp/ccV2gjPH.s:6122   .text:0000000000002c9e _ZNK12_GLOBAL__N_126TestCheckArray2DCloseFalse7RunImplEv
     /tmp/ccV2gjPH.s:6319   .text:0000000000002e9c _ZN12_GLOBAL__N_133TestCheckCloseWithDoublesSucceedsC2Ev
     /tmp/ccV2gjPH.s:9059   .rodata:0000000000000c40 _ZTVN12_GLOBAL__N_133TestCheckCloseWithDoublesSucceedsE
     /tmp/ccV2gjPH.s:6319   .text:0000000000002e9c _ZN12_GLOBAL__N_133TestCheckCloseWithDoublesSucceedsC1Ev
     /tmp/ccV2gjPH.s:6351   .bss:0000000000000600 _ZN12_GLOBAL__N_141testCheckCloseWithDoublesSucceedsInstanceE
     /tmp/ccV2gjPH.s:6351   .bss:0000000000000638 _ZN12_GLOBAL__N_134adderCheckCloseWithDoublesSucceedsE
     /tmp/ccV2gjPH.s:6361   .text:0000000000002eda _ZNK12_GLOBAL__N_133TestCheckCloseWithDoublesSucceeds7RunImplEv
     /tmp/ccV2gjPH.s:8570   .text._ZN8UnitTest10CheckCloseIdddEEvRNS_11TestResultsERKT_RKT0_RKT1_RKNS_11TestDetailsE:0000000000000000 _ZN8UnitTest10CheckCloseIdddEEvRNS_11TestResultsERKT_RKT0_RKT1_RKNS_11TestDetailsE
     /tmp/ccV2gjPH.s:6488   .text:0000000000002fb2 _ZN12_GLOBAL__N_143TestCheckArray2DCloseFailureIncludesDetailsC2Ev
     /tmp/ccV2gjPH.s:8985   .rodata:0000000000000c00 _ZTVN12_GLOBAL__N_143TestCheckArray2DCloseFailureIncludesDetailsE
     /tmp/ccV2gjPH.s:6488   .text:0000000000002fb2 _ZN12_GLOBAL__N_143TestCheckArray2DCloseFailureIncludesDetailsC1Ev
     /tmp/ccV2gjPH.s:6520   .bss:0000000000000640 _ZN12_GLOBAL__N_151testCheckArray2DCloseFailureIncludesDetailsInstanceE
     /tmp/ccV2gjPH.s:6520   .bss:0000000000000678 _ZN12_GLOBAL__N_144adderCheckArray2DCloseFailureIncludesDetailsE
     /tmp/ccV2gjPH.s:6540   .text:0000000000002ff0 _ZNK12_GLOBAL__N_143TestCheckArray2DCloseFailureIncludesDetails7RunImplEv
     /tmp/ccV2gjPH.s:6959   .text._ZN8UnitTest15MemoryOutStreamD1Ev:0000000000000000 _ZN8UnitTest15MemoryOutStreamD1Ev
     /tmp/ccV2gjPH.s:7086   .text._ZN8UnitTest15MemoryOutStreamD1Ev:00000000000000c8 _ZTv0_n24_N8UnitTest15MemoryOutStreamD1Ev
     /tmp/ccV2gjPH.s:7100   .text._ZN8UnitTest15MemoryOutStreamD0Ev:0000000000000000 _ZN8UnitTest15MemoryOutStreamD0Ev
     /tmp/ccV2gjPH.s:7127   .text._ZN8UnitTest15MemoryOutStreamD0Ev:0000000000000026 _ZTv0_n24_N8UnitTest15MemoryOutStreamD0Ev
     /tmp/ccV2gjPH.s:8717   .text._ZN8UnitTest8AreCloseIfffEEbRKT_RKT0_RKT1_:0000000000000000 _ZN8UnitTest8AreCloseIfffEEbRKT_RKT0_RKT1_
     /tmp/ccV2gjPH.s:8766   .text._ZN8UnitTest8AreCloseIffiEEbRKT_RKT0_RKT1_:0000000000000000 _ZN8UnitTest8AreCloseIffiEEbRKT_RKT0_RKT1_
     /tmp/ccV2gjPH.s:8818   .text._ZN8UnitTest8AreCloseIiifEEbRKT_RKT0_RKT1_:0000000000000000 _ZN8UnitTest8AreCloseIiifEEbRKT_RKT0_RKT1_
     /tmp/ccV2gjPH.s:8871   .text._ZN8UnitTest13ArrayAreCloseIA3_fS1_fEEbRKT_RKT0_iRKT1_:0000000000000000 _ZN8UnitTest13ArrayAreCloseIA3_fS1_fEEbRKT_RKT0_iRKT1_
     /tmp/ccV2gjPH.s:8935   .text._ZN8UnitTest8AreCloseIdddEEbRKT_RKT0_RKT1_:0000000000000000 _ZN8UnitTest8AreCloseIdddEEbRKT_RKT0_RKT1_
     /tmp/ccV2gjPH.s:11600  .rodata:0000000000001590 _ZTIN12_GLOBAL__N_143TestCheckArray2DCloseFailureIncludesDetailsE
     /tmp/ccV2gjPH.s:8994   .text:000000000000348c _ZN12_GLOBAL__N_143TestCheckArray2DCloseFailureIncludesDetailsD1Ev
     /tmp/ccV2gjPH.s:9031   .text:00000000000034c6 _ZN12_GLOBAL__N_143TestCheckArray2DCloseFailureIncludesDetailsD0Ev
     /tmp/ccV2gjPH.s:8994   .text:000000000000348c _ZN12_GLOBAL__N_143TestCheckArray2DCloseFailureIncludesDetailsD2Ev
     /tmp/ccV2gjPH.s:11593  .rodata:0000000000001570 _ZTIN12_GLOBAL__N_133TestCheckCloseWithDoublesSucceedsE
     /tmp/ccV2gjPH.s:9068   .text:00000000000034ec _ZN12_GLOBAL__N_133TestCheckCloseWithDoublesSucceedsD1Ev
     /tmp/ccV2gjPH.s:9105   .text:0000000000003526 _ZN12_GLOBAL__N_133TestCheckCloseWithDoublesSucceedsD0Ev
     /tmp/ccV2gjPH.s:9068   .text:00000000000034ec _ZN12_GLOBAL__N_133TestCheckCloseWithDoublesSucceedsD2Ev
     /tmp/ccV2gjPH.s:11586  .rodata:0000000000001550 _ZTIN12_GLOBAL__N_126TestCheckArray2DCloseFalseE
     /tmp/ccV2gjPH.s:9142   .text:000000000000354c _ZN12_GLOBAL__N_126TestCheckArray2DCloseFalseD1Ev
     /tmp/ccV2gjPH.s:9179   .text:0000000000003586 _ZN12_GLOBAL__N_126TestCheckArray2DCloseFalseD0Ev
     /tmp/ccV2gjPH.s:9142   .text:000000000000354c _ZN12_GLOBAL__N_126TestCheckArray2DCloseFalseD2Ev
     /tmp/ccV2gjPH.s:11579  .rodata:0000000000001530 _ZTIN12_GLOBAL__N_125TestCheckArray2DCloseTrueE
     /tmp/ccV2gjPH.s:9216   .text:00000000000035ac _ZN12_GLOBAL__N_125TestCheckArray2DCloseTrueD1Ev
     /tmp/ccV2gjPH.s:9253   .text:00000000000035e6 _ZN12_GLOBAL__N_125TestCheckArray2DCloseTrueD0Ev
     /tmp/ccV2gjPH.s:9216   .text:00000000000035ac _ZN12_GLOBAL__N_125TestCheckArray2DCloseTrueD2Ev
     /tmp/ccV2gjPH.s:11572  .rodata:0000000000001510 _ZTIN12_GLOBAL__N_141TestCheckArrayCloseFailureIncludesDetailsE
     /tmp/ccV2gjPH.s:9290   .text:000000000000360c _ZN12_GLOBAL__N_141TestCheckArrayCloseFailureIncludesDetailsD1Ev
     /tmp/ccV2gjPH.s:9327   .text:0000000000003646 _ZN12_GLOBAL__N_141TestCheckArrayCloseFailureIncludesDetailsD0Ev
     /tmp/ccV2gjPH.s:9290   .text:000000000000360c _ZN12_GLOBAL__N_141TestCheckArrayCloseFailureIncludesDetailsD2Ev
     /tmp/ccV2gjPH.s:11565  .rodata:00000000000014f0 _ZTIN12_GLOBAL__N_124TestCheckArrayCloseFalseE
     /tmp/ccV2gjPH.s:9364   .text:000000000000366c _ZN12_GLOBAL__N_124TestCheckArrayCloseFalseD1Ev
     /tmp/ccV2gjPH.s:9401   .text:00000000000036a6 _ZN12_GLOBAL__N_124TestCheckArrayCloseFalseD0Ev
     /tmp/ccV2gjPH.s:9364   .text:000000000000366c _ZN12_GLOBAL__N_124TestCheckArrayCloseFalseD2Ev
     /tmp/ccV2gjPH.s:11558  .rodata:00000000000014d0 _ZTIN12_GLOBAL__N_123TestCheckArrayCloseTrueE
     /tmp/ccV2gjPH.s:9438   .text:00000000000036cc _ZN12_GLOBAL__N_123TestCheckArrayCloseTrueD1Ev
     /tmp/ccV2gjPH.s:9475   .text:0000000000003706 _ZN12_GLOBAL__N_123TestCheckArrayCloseTrueD0Ev
     /tmp/ccV2gjPH.s:9438   .text:00000000000036cc _ZN12_GLOBAL__N_123TestCheckArrayCloseTrueD2Ev
     /tmp/ccV2gjPH.s:11551  .rodata:00000000000014b0 _ZTIN12_GLOBAL__N_124TestCheckArrayEqualFalseE
     /tmp/ccV2gjPH.s:9512   .text:000000000000372c _ZN12_GLOBAL__N_124TestCheckArrayEqualFalseD1Ev
     /tmp/ccV2gjPH.s:9549   .text:0000000000003766 _ZN12_GLOBAL__N_124TestCheckArrayEqualFalseD0Ev
     /tmp/ccV2gjPH.s:9512   .text:000000000000372c _ZN12_GLOBAL__N_124TestCheckArrayEqualFalseD2Ev
     /tmp/ccV2gjPH.s:11544  .rodata:0000000000001490 _ZTIN12_GLOBAL__N_123TestCheckArrayEqualTrueE
     /tmp/ccV2gjPH.s:9586   .text:000000000000378c _ZN12_GLOBAL__N_123TestCheckArrayEqualTrueD1Ev
     /tmp/ccV2gjPH.s:9623   .text:00000000000037c6 _ZN12_GLOBAL__N_123TestCheckArrayEqualTrueD0Ev
     /tmp/ccV2gjPH.s:9586   .text:000000000000378c _ZN12_GLOBAL__N_123TestCheckArrayEqualTrueD2Ev
     /tmp/ccV2gjPH.s:11537  .rodata:0000000000001470 _ZTIN12_GLOBAL__N_136TestCheckCloseFailureIncludesDetailsE
     /tmp/ccV2gjPH.s:9660   .text:00000000000037ec _ZN12_GLOBAL__N_136TestCheckCloseFailureIncludesDetailsD1Ev
     /tmp/ccV2gjPH.s:9697   .text:0000000000003826 _ZN12_GLOBAL__N_136TestCheckCloseFailureIncludesDetailsD0Ev
     /tmp/ccV2gjPH.s:9660   .text:00000000000037ec _ZN12_GLOBAL__N_136TestCheckCloseFailureIncludesDetailsD2Ev
     /tmp/ccV2gjPH.s:11530  .rodata:0000000000001450 _ZTIN12_GLOBAL__N_138TestCheckCloseFailureIncludesToleranceE
     /tmp/ccV2gjPH.s:9734   .text:000000000000384c _ZN12_GLOBAL__N_138TestCheckCloseFailureIncludesToleranceD1Ev
     /tmp/ccV2gjPH.s:9771   .text:0000000000003886 _ZN12_GLOBAL__N_138TestCheckCloseFailureIncludesToleranceD0Ev
     /tmp/ccV2gjPH.s:9734   .text:000000000000384c _ZN12_GLOBAL__N_138TestCheckCloseFailureIncludesToleranceD2Ev
     /tmp/ccV2gjPH.s:11523  .rodata:0000000000001430 _ZTIN12_GLOBAL__N_151TestCheckCloseFailureIncludesCheckExpectedAndActualE
     /tmp/ccV2gjPH.s:9808   .text:00000000000038ac _ZN12_GLOBAL__N_151TestCheckCloseFailureIncludesCheckExpectedAndActualD1Ev
     /tmp/ccV2gjPH.s:9845   .text:00000000000038e6 _ZN12_GLOBAL__N_151TestCheckCloseFailureIncludesCheckExpectedAndActualD0Ev
     /tmp/ccV2gjPH.s:9808   .text:00000000000038ac _ZN12_GLOBAL__N_151TestCheckCloseFailureIncludesCheckExpectedAndActualD2Ev
     /tmp/ccV2gjPH.s:11516  .rodata:0000000000001410 _ZTIN12_GLOBAL__N_139TestCheckCloseWithNaNAgainstItselfFailsE
     /tmp/ccV2gjPH.s:9882   .text:000000000000390c _ZN12_GLOBAL__N_139TestCheckCloseWithNaNAgainstItselfFailsD1Ev
     /tmp/ccV2gjPH.s:9919   .text:0000000000003946 _ZN12_GLOBAL__N_139TestCheckCloseWithNaNAgainstItselfFailsD0Ev
     /tmp/ccV2gjPH.s:9882   .text:000000000000390c _ZN12_GLOBAL__N_139TestCheckCloseWithNaNAgainstItselfFailsD2Ev
     /tmp/ccV2gjPH.s:11509  .rodata:00000000000013f0 _ZTIN12_GLOBAL__N_126TestCheckCloseWithNaNFailsE
     /tmp/ccV2gjPH.s:9956   .text:000000000000396c _ZN12_GLOBAL__N_126TestCheckCloseWithNaNFailsD1Ev
     /tmp/ccV2gjPH.s:9993   .text:00000000000039a6 _ZN12_GLOBAL__N_126TestCheckCloseWithNaNFailsD0Ev
     /tmp/ccV2gjPH.s:9956   .text:000000000000396c _ZN12_GLOBAL__N_126TestCheckCloseWithNaNFailsD2Ev
     /tmp/ccV2gjPH.s:11502  .rodata:00000000000013d0 _ZTIN12_GLOBAL__N_147TestCheckCloseWithZeroEpsilonWorksForSameNumberE
     /tmp/ccV2gjPH.s:10030  .text:00000000000039cc _ZN12_GLOBAL__N_147TestCheckCloseWithZeroEpsilonWorksForSameNumberD1Ev
     /tmp/ccV2gjPH.s:10067  .text:0000000000003a06 _ZN12_GLOBAL__N_147TestCheckCloseWithZeroEpsilonWorksForSameNumberD0Ev
     /tmp/ccV2gjPH.s:10030  .text:00000000000039cc _ZN12_GLOBAL__N_147TestCheckCloseWithZeroEpsilonWorksForSameNumberD2Ev
     /tmp/ccV2gjPH.s:11495  .rodata:00000000000013b0 _ZTIN12_GLOBAL__N_119TestCheckCloseFalseE
     /tmp/ccV2gjPH.s:10104  .text:0000000000003a2c _ZN12_GLOBAL__N_119TestCheckCloseFalseD1Ev
     /tmp/ccV2gjPH.s:10141  .text:0000000000003a66 _ZN12_GLOBAL__N_119TestCheckCloseFalseD0Ev
     /tmp/ccV2gjPH.s:10104  .text:0000000000003a2c _ZN12_GLOBAL__N_119TestCheckCloseFalseD2Ev
     /tmp/ccV2gjPH.s:11488  .rodata:0000000000001390 _ZTIN12_GLOBAL__N_118TestCheckCloseTrueE
     /tmp/ccV2gjPH.s:10178  .text:0000000000003a8c _ZN12_GLOBAL__N_118TestCheckCloseTrueD1Ev
     /tmp/ccV2gjPH.s:10215  .text:0000000000003ac6 _ZN12_GLOBAL__N_118TestCheckCloseTrueD0Ev
     /tmp/ccV2gjPH.s:10178  .text:0000000000003a8c _ZN12_GLOBAL__N_118TestCheckCloseTrueD2Ev
     /tmp/ccV2gjPH.s:11481  .rodata:0000000000001370 _ZTIN12_GLOBAL__N_136TestCheckEqualFailureIncludesDetailsE
     /tmp/ccV2gjPH.s:10252  .text:0000000000003aec _ZN12_GLOBAL__N_136TestCheckEqualFailureIncludesDetailsD1Ev
     /tmp/ccV2gjPH.s:10289  .text:0000000000003b26 _ZN12_GLOBAL__N_136TestCheckEqualFailureIncludesDetailsD0Ev
     /tmp/ccV2gjPH.s:10252  .text:0000000000003aec _ZN12_GLOBAL__N_136TestCheckEqualFailureIncludesDetailsD2Ev
     /tmp/ccV2gjPH.s:11474  .rodata:0000000000001350 _ZTIN12_GLOBAL__N_151TestCheckEqualFailureIncludesCheckExpectedAndActualE
     /tmp/ccV2gjPH.s:10326  .text:0000000000003b4c _ZN12_GLOBAL__N_151TestCheckEqualFailureIncludesCheckExpectedAndActualD1Ev
     /tmp/ccV2gjPH.s:10363  .text:0000000000003b86 _ZN12_GLOBAL__N_151TestCheckEqualFailureIncludesCheckExpectedAndActualD0Ev
     /tmp/ccV2gjPH.s:10326  .text:0000000000003b4c _ZN12_GLOBAL__N_151TestCheckEqualFailureIncludesCheckExpectedAndActualD2Ev
     /tmp/ccV2gjPH.s:11467  .rodata:0000000000001330 _ZTIN12_GLOBAL__N_153TestCheckEqualsWithStringsWorksOnContentsWithALiteralE
     /tmp/ccV2gjPH.s:10400  .text:0000000000003bac _ZN12_GLOBAL__N_153TestCheckEqualsWithStringsWorksOnContentsWithALiteralD1Ev
     /tmp/ccV2gjPH.s:10437  .text:0000000000003be6 _ZN12_GLOBAL__N_153TestCheckEqualsWithStringsWorksOnContentsWithALiteralD0Ev
     /tmp/ccV2gjPH.s:10400  .text:0000000000003bac _ZN12_GLOBAL__N_153TestCheckEqualsWithStringsWorksOnContentsWithALiteralD2Ev
     /tmp/ccV2gjPH.s:11460  .rodata:0000000000001310 _ZTIN12_GLOBAL__N_154TestCheckEqualsWithStringsWorksOnContentsConstNonConstE
     /tmp/ccV2gjPH.s:10474  .text:0000000000003c0c _ZN12_GLOBAL__N_154TestCheckEqualsWithStringsWorksOnContentsConstNonConstD1Ev
     /tmp/ccV2gjPH.s:10511  .text:0000000000003c46 _ZN12_GLOBAL__N_154TestCheckEqualsWithStringsWorksOnContentsConstNonConstD0Ev
     /tmp/ccV2gjPH.s:10474  .text:0000000000003c0c _ZN12_GLOBAL__N_154TestCheckEqualsWithStringsWorksOnContentsConstNonConstD2Ev
     /tmp/ccV2gjPH.s:11453  .rodata:00000000000012f0 _ZTIN12_GLOBAL__N_154TestCheckEqualsWithStringsWorksOnContentsNonConstConstE
     /tmp/ccV2gjPH.s:10548  .text:0000000000003c6c _ZN12_GLOBAL__N_154TestCheckEqualsWithStringsWorksOnContentsNonConstConstD1Ev
     /tmp/ccV2gjPH.s:10585  .text:0000000000003ca6 _ZN12_GLOBAL__N_154TestCheckEqualsWithStringsWorksOnContentsNonConstConstD0Ev
     /tmp/ccV2gjPH.s:10548  .text:0000000000003c6c _ZN12_GLOBAL__N_154TestCheckEqualsWithStringsWorksOnContentsNonConstConstD2Ev
     /tmp/ccV2gjPH.s:11446  .rodata:00000000000012d0 _ZTIN12_GLOBAL__N_151TestCheckEqualsWithStringsWorksOnContentsConstConstE
     /tmp/ccV2gjPH.s:10622  .text:0000000000003ccc _ZN12_GLOBAL__N_151TestCheckEqualsWithStringsWorksOnContentsConstConstD1Ev
     /tmp/ccV2gjPH.s:10659  .text:0000000000003d06 _ZN12_GLOBAL__N_151TestCheckEqualsWithStringsWorksOnContentsConstConstD0Ev
     /tmp/ccV2gjPH.s:10622  .text:0000000000003ccc _ZN12_GLOBAL__N_151TestCheckEqualsWithStringsWorksOnContentsConstConstD2Ev
     /tmp/ccV2gjPH.s:11439  .rodata:00000000000012b0 _ZTIN12_GLOBAL__N_157TestCheckEqualsWithStringsWorksOnContentsNonConstNonConstE
     /tmp/ccV2gjPH.s:10696  .text:0000000000003d2c _ZN12_GLOBAL__N_157TestCheckEqualsWithStringsWorksOnContentsNonConstNonConstD1Ev
     /tmp/ccV2gjPH.s:10733  .text:0000000000003d66 _ZN12_GLOBAL__N_157TestCheckEqualsWithStringsWorksOnContentsNonConstNonConstD0Ev
     /tmp/ccV2gjPH.s:10696  .text:0000000000003d2c _ZN12_GLOBAL__N_157TestCheckEqualsWithStringsWorksOnContentsNonConstNonConstD2Ev
     /tmp/ccV2gjPH.s:11432  .rodata:0000000000001290 _ZTIN12_GLOBAL__N_149TestCheckEqualsWithStringsFailsOnDifferentStringsE
     /tmp/ccV2gjPH.s:10770  .text:0000000000003d8c _ZN12_GLOBAL__N_149TestCheckEqualsWithStringsFailsOnDifferentStringsD1Ev
     /tmp/ccV2gjPH.s:10807  .text:0000000000003dc6 _ZN12_GLOBAL__N_149TestCheckEqualsWithStringsFailsOnDifferentStringsD0Ev
     /tmp/ccV2gjPH.s:10770  .text:0000000000003d8c _ZN12_GLOBAL__N_149TestCheckEqualsWithStringsFailsOnDifferentStringsD2Ev
     /tmp/ccV2gjPH.s:11425  .rodata:0000000000001270 _ZTIN12_GLOBAL__N_130TestCheckEqualWithUnsignedLongE
     /tmp/ccV2gjPH.s:10844  .text:0000000000003dec _ZN12_GLOBAL__N_130TestCheckEqualWithUnsignedLongD1Ev
     /tmp/ccV2gjPH.s:10881  .text:0000000000003e26 _ZN12_GLOBAL__N_130TestCheckEqualWithUnsignedLongD0Ev
     /tmp/ccV2gjPH.s:10844  .text:0000000000003dec _ZN12_GLOBAL__N_130TestCheckEqualWithUnsignedLongD2Ev
     /tmp/ccV2gjPH.s:11061  .rodata._ZTI17RecordingReporter:0000000000000000 _ZTI17RecordingReporter
     /tmp/ccV2gjPH.s:10963  .text._ZN17RecordingReporterD0Ev:0000000000000000 _ZN17RecordingReporterD0Ev
     /tmp/ccV2gjPH.s:10923  .text._ZN17RecordingReporterD2Ev:0000000000000000 _ZN17RecordingReporterD2Ev
     /tmp/ccV2gjPH.s:11077  .rodata._ZTIN8UnitTest15MemoryOutStreamE:0000000000000000 _ZTIN8UnitTest15MemoryOutStreamE
     /tmp/ccV2gjPH.s:11021  .rodata._ZTCN8UnitTest15MemoryOutStreamE0_St19basic_ostringstreamIcSt11char_traitsIcESaIcEE:0000000000000000 _ZTCN8UnitTest15MemoryOutStreamE0_St19basic_ostringstreamIcSt11char_traitsIcESaIcEE
     /tmp/ccV2gjPH.s:11038  .rodata._ZTCN8UnitTest15MemoryOutStreamE0_So:0000000000000000 _ZTCN8UnitTest15MemoryOutStreamE0_So
     /tmp/ccV2gjPH.s:11054  .rodata._ZTS17RecordingReporter:0000000000000000 _ZTS17RecordingReporter
     /tmp/ccV2gjPH.s:11070  .rodata._ZTSN8UnitTest15MemoryOutStreamE:0000000000000000 _ZTSN8UnitTest15MemoryOutStreamE
     /tmp/ccV2gjPH.s:11083  .text:0000000000003e4c _Z41__static_initialization_and_destruction_0ii
     /tmp/ccV2gjPH.s:11732  .rodata:0000000000001d20 _ZTSN12_GLOBAL__N_130TestCheckEqualWithUnsignedLongE
     /tmp/ccV2gjPH.s:11727  .rodata:0000000000001cc0 _ZTSN12_GLOBAL__N_149TestCheckEqualsWithStringsFailsOnDifferentStringsE
     /tmp/ccV2gjPH.s:11722  .rodata:0000000000001c60 _ZTSN12_GLOBAL__N_157TestCheckEqualsWithStringsWorksOnContentsNonConstNonConstE
     /tmp/ccV2gjPH.s:11717  .rodata:0000000000001c00 _ZTSN12_GLOBAL__N_151TestCheckEqualsWithStringsWorksOnContentsConstConstE
     /tmp/ccV2gjPH.s:11712  .rodata:0000000000001ba0 _ZTSN12_GLOBAL__N_154TestCheckEqualsWithStringsWorksOnContentsNonConstConstE
     /tmp/ccV2gjPH.s:11707  .rodata:0000000000001b40 _ZTSN12_GLOBAL__N_154TestCheckEqualsWithStringsWorksOnContentsConstNonConstE
     /tmp/ccV2gjPH.s:11702  .rodata:0000000000001ae0 _ZTSN12_GLOBAL__N_153TestCheckEqualsWithStringsWorksOnContentsWithALiteralE
     /tmp/ccV2gjPH.s:11697  .rodata:0000000000001a80 _ZTSN12_GLOBAL__N_151TestCheckEqualFailureIncludesCheckExpectedAndActualE
     /tmp/ccV2gjPH.s:11692  .rodata:0000000000001a40 _ZTSN12_GLOBAL__N_136TestCheckEqualFailureIncludesDetailsE
     /tmp/ccV2gjPH.s:11687  .rodata:0000000000001a00 _ZTSN12_GLOBAL__N_118TestCheckCloseTrueE
     /tmp/ccV2gjPH.s:11682  .rodata:00000000000019c0 _ZTSN12_GLOBAL__N_119TestCheckCloseFalseE
     /tmp/ccV2gjPH.s:11677  .rodata:0000000000001960 _ZTSN12_GLOBAL__N_147TestCheckCloseWithZeroEpsilonWorksForSameNumberE
     /tmp/ccV2gjPH.s:11672  .rodata:0000000000001920 _ZTSN12_GLOBAL__N_126TestCheckCloseWithNaNFailsE
     /tmp/ccV2gjPH.s:11667  .rodata:00000000000018e0 _ZTSN12_GLOBAL__N_139TestCheckCloseWithNaNAgainstItselfFailsE
     /tmp/ccV2gjPH.s:11662  .rodata:0000000000001880 _ZTSN12_GLOBAL__N_151TestCheckCloseFailureIncludesCheckExpectedAndActualE
     /tmp/ccV2gjPH.s:11657  .rodata:0000000000001840 _ZTSN12_GLOBAL__N_138TestCheckCloseFailureIncludesToleranceE
     /tmp/ccV2gjPH.s:11652  .rodata:0000000000001800 _ZTSN12_GLOBAL__N_136TestCheckCloseFailureIncludesDetailsE
     /tmp/ccV2gjPH.s:11647  .rodata:00000000000017c0 _ZTSN12_GLOBAL__N_123TestCheckArrayEqualTrueE
     /tmp/ccV2gjPH.s:11642  .rodata:0000000000001780 _ZTSN12_GLOBAL__N_124TestCheckArrayEqualFalseE
     /tmp/ccV2gjPH.s:11637  .rodata:0000000000001740 _ZTSN12_GLOBAL__N_123TestCheckArrayCloseTrueE
     /tmp/ccV2gjPH.s:11632  .rodata:0000000000001700 _ZTSN12_GLOBAL__N_124TestCheckArrayCloseFalseE
     /tmp/ccV2gjPH.s:11627  .rodata:00000000000016c0 _ZTSN12_GLOBAL__N_141TestCheckArrayCloseFailureIncludesDetailsE
     /tmp/ccV2gjPH.s:11622  .rodata:0000000000001680 _ZTSN12_GLOBAL__N_125TestCheckArray2DCloseTrueE
     /tmp/ccV2gjPH.s:11617  .rodata:0000000000001640 _ZTSN12_GLOBAL__N_126TestCheckArray2DCloseFalseE
     /tmp/ccV2gjPH.s:11612  .rodata:0000000000001600 _ZTSN12_GLOBAL__N_133TestCheckCloseWithDoublesSucceedsE
     /tmp/ccV2gjPH.s:11607  .rodata:00000000000015c0 _ZTSN12_GLOBAL__N_143TestCheckArray2DCloseFailureIncludesDetailsE
     /tmp/ccV2gjPH.s:11736  .text:00000000000043d5 _GLOBAL__sub_I_TestChecks.cpp
     /tmp/ccV2gjPH.s:11762  .rodata:0000000000001d58 _ZZL18__gthread_active_pvE20__gthread_active_ptr
                           .group:0000000000000000 _ZN8UnitTest12TestReporterC5Ev
                           .group:0000000000000000 _ZN17RecordingReporterC5Ev
                           .group:0000000000000000 _ZN17RecordingReporterD5Ev

UNDEFINED SYMBOLS
__gxx_personality_v0
_ZNSt9basic_iosIcSt11char_traitsIcEEC2Ev
_ZNSt19basic_ostringstreamIcSt11char_traitsIcESaIcEEC2ESt13_Ios_Openmode
_ZNSsC1Ev
_ZNSt19basic_ostringstreamIcSt11char_traitsIcESaIcEED2Ev
_ZNSt9basic_iosIcSt11char_traitsIcEED2Ev
_Unwind_Resume
_ZTVN8UnitTest12TestReporterE
strcpy
_ZN8UnitTest4TestC2EPKcS2_S2_i
_ZN8UnitTest11TestResultsC1EPNS_12TestReporterE
_ZN8UnitTest11CurrentTest7DetailsEv
_ZN8UnitTest11TestDetailsC1ERKS0_i
_ZN8UnitTest11CurrentTest7ResultsEv
__cxa_end_catch
__cxa_begin_catch
_ZN8UnitTest11TestResults13OnTestFailureERKNS_11TestDetailsEPKc
_ZN8UnitTest11TestDetailsC1EPKcS2_S2_i
_ZN8UnitTest10CheckEqualERNS_11TestResultsEPcS2_RKNS_11TestDetailsE
_ZNK8UnitTest11TestResults15GetFailureCountEv
__stack_chk_fail
_ZN8UnitTest10CheckEqualERNS_11TestResultsEPKcS3_RKNS_11TestDetailsE
_ZN8UnitTest10CheckEqualERNS_11TestResultsEPcPKcRKNS_11TestDetailsE
_ZN8UnitTest10CheckEqualERNS_11TestResultsEPKcPcRKNS_11TestDetailsE
strstr
_ZNSsD1Ev
_ZdlPv
_ZStlsISt11char_traitsIcEERSt13basic_ostreamIcT_ES5_PKc
_ZNSolsEm
_ZNK8UnitTest15MemoryOutStream7GetTextEv
_ZNSolsEi
_ZNSolsEf
_ZNSolsEd
_ZN8UnitTest4TestD2Ev
_ZN8UnitTest12TestReporterD2Ev
_ZTISt19basic_ostringstreamIcSt11char_traitsIcESaIcEE
_ZNSt19basic_ostringstreamIcSt11char_traitsIcESaIcEED1Ev
_ZNSt19basic_ostringstreamIcSt11char_traitsIcESaIcEED0Ev
_ZTv0_n24_NSt19basic_ostringstreamIcSt11char_traitsIcESaIcEED1Ev
_ZTv0_n24_NSt19basic_ostringstreamIcSt11char_traitsIcESaIcEED0Ev
_ZTISo
_ZNSoD1Ev
_ZNSoD0Ev
_ZTv0_n24_NSoD1Ev
_ZTv0_n24_NSoD0Ev
_ZTVN10__cxxabiv120__si_class_type_infoE
_ZTIN8UnitTest12TestReporterE
__dso_handle
__cxa_atexit
_ZN8UnitTest4Test11GetTestListEv
_ZN8UnitTest9ListAdderC1ERNS_8TestListEPNS_4TestE
_ZTIN8UnitTest4TestE
__pthread_key_create
