   1              		.file	"TestTest.cpp"
   2              		.text
   3              	.Ltext0:
   4              		.section	.rodata
   5              	.LC0:
   6 0000 44656661 		.string	"DefaultSuite"
   6      756C7453 
   6      75697465 
   6      00
   7              		.section	.text._ZN13UnitTestSuite12GetSuiteNameEv,"axG",@progbits,_ZN13UnitTestSuite12GetSuiteName
   8              		.weak	_ZN13UnitTestSuite12GetSuiteNameEv
  10              	_ZN13UnitTestSuite12GetSuiteNameEv:
  11              	.LFB0:
  12              		.file 1 "../TestSuite.h"
   1:../TestSuite.h **** #ifndef UNITTEST_TESTSUITE_H
   2:../TestSuite.h **** #define UNITTEST_TESTSUITE_H
   3:../TestSuite.h **** 
   4:../TestSuite.h **** namespace UnitTestSuite {
   5:../TestSuite.h **** 
   6:../TestSuite.h ****     inline char const* GetSuiteName ()
   7:../TestSuite.h ****     {
  13              		.loc 1 7 0
  14              		.cfi_startproc
  15 0000 55       		pushq	%rbp
  16              		.cfi_def_cfa_offset 16
  17              		.cfi_offset 6, -16
  18 0001 4889E5   		movq	%rsp, %rbp
  19              		.cfi_def_cfa_register 6
   8:../TestSuite.h ****         return "DefaultSuite";
  20              		.loc 1 8 0
  21 0004 B8000000 		movl	$.LC0, %eax
  21      00
   9:../TestSuite.h ****     }
  22              		.loc 1 9 0
  23 0009 5D       		popq	%rbp
  24              		.cfi_def_cfa 7, 8
  25 000a C3       		ret
  26              		.cfi_endproc
  27              	.LFE0:
  29              		.section	.text._ZN8UnitTest15MemoryOutStreamC1Ev,"axG",@progbits,_ZN8UnitTest15MemoryOutStreamC1Ev
  30              		.align 2
  31              		.weak	_ZN8UnitTest15MemoryOutStreamC1Ev
  33              	_ZN8UnitTest15MemoryOutStreamC1Ev:
  34              	.LFB1007:
  35              		.file 2 "../MemoryOutStream.h"
   1:../MemoryOutStream.h **** #ifndef UNITTEST_MEMORYOUTSTREAM_H
   2:../MemoryOutStream.h **** #define UNITTEST_MEMORYOUTSTREAM_H
   3:../MemoryOutStream.h **** 
   4:../MemoryOutStream.h **** #include "Config.h"
   5:../MemoryOutStream.h **** 
   6:../MemoryOutStream.h **** #ifndef UNITTEST_USE_CUSTOM_STREAMS
   7:../MemoryOutStream.h **** 
   8:../MemoryOutStream.h **** #include <sstream>
   9:../MemoryOutStream.h **** 
  10:../MemoryOutStream.h **** namespace UnitTest
  11:../MemoryOutStream.h **** {
  12:../MemoryOutStream.h **** 
  13:../MemoryOutStream.h **** class MemoryOutStream : public std::ostringstream
  14:../MemoryOutStream.h **** {
  15:../MemoryOutStream.h **** public:
  16:../MemoryOutStream.h ****     MemoryOutStream() {}
  36              		.loc 2 16 0
  37              		.cfi_startproc
  38              		.cfi_personality 0x3,__gxx_personality_v0
  39              		.cfi_lsda 0x3,.LLSDA1007
  40 0000 55       		pushq	%rbp
  41              		.cfi_def_cfa_offset 16
  42              		.cfi_offset 6, -16
  43 0001 4889E5   		movq	%rsp, %rbp
  44              		.cfi_def_cfa_register 6
  45 0004 53       		pushq	%rbx
  46 0005 4883EC18 		subq	$24, %rsp
  47              		.cfi_offset 3, -24
  48 0009 48897DE8 		movq	%rdi, -24(%rbp)
  49              	.LBB2:
  50              		.loc 2 16 0
  51 000d 488B45E8 		movq	-24(%rbp), %rax
  52 0011 4883C060 		addq	$96, %rax
  53 0015 4889C7   		movq	%rax, %rdi
  54              	.LEHB0:
  55 0018 E8000000 		call	_ZNSt9basic_iosIcSt11char_traitsIcEEC2Ev
  55      00
  56              	.LEHE0:
  57 001d B9000000 		movl	$_ZTTN8UnitTest15MemoryOutStreamE+8, %ecx
  57      00
  58 0022 488B45E8 		movq	-24(%rbp), %rax
  59 0026 BA100000 		movl	$16, %edx
  59      00
  60 002b 4889CE   		movq	%rcx, %rsi
  61 002e 4889C7   		movq	%rax, %rdi
  62              	.LEHB1:
  63 0031 E8000000 		call	_ZNSt19basic_ostringstreamIcSt11char_traitsIcESaIcEEC2ESt13_Ios_Openmode
  63      00
  64              	.LEHE1:
  65              		.loc 2 16 0 is_stmt 0 discriminator 6
  66 0036 BA000000 		movl	$_ZTVN8UnitTest15MemoryOutStreamE+24, %edx
  66      00
  67 003b 488B45E8 		movq	-24(%rbp), %rax
  68 003f 488910   		movq	%rdx, (%rax)
  69 0042 BA600000 		movl	$96, %edx
  69      00
  70 0047 488B45E8 		movq	-24(%rbp), %rax
  71 004b 4801C2   		addq	%rax, %rdx
  72 004e B8000000 		movl	$_ZTVN8UnitTest15MemoryOutStreamE+64, %eax
  72      00
  73 0053 488902   		movq	%rax, (%rdx)
  74 0056 488B45E8 		movq	-24(%rbp), %rax
  75 005a 4883C058 		addq	$88, %rax
  76 005e 4889C7   		movq	%rax, %rdi
  77              	.LEHB2:
  78 0061 E8000000 		call	_ZNSsC1Ev
  78      00
  79              	.LEHE2:
  80              	.LBE2:
  81              		.loc 2 16 0
  82 0066 EB37     		jmp	.L8
  83              	.L6:
  84 0068 4889C3   		movq	%rax, %rbx
  85              	.LBB3:
  86 006b BA000000 		movl	$_ZTTN8UnitTest15MemoryOutStreamE+8, %edx
  86      00
  87 0070 488B45E8 		movq	-24(%rbp), %rax
  88 0074 4889D6   		movq	%rdx, %rsi
  89 0077 4889C7   		movq	%rax, %rdi
  90 007a E8000000 		call	_ZNSt19basic_ostringstreamIcSt11char_traitsIcESaIcEED2Ev
  90      00
  91 007f EB03     		jmp	.L5
  92              	.L7:
  93 0081 4889C3   		movq	%rax, %rbx
  94              	.L5:
  95              		.loc 2 16 0 discriminator 19
  96 0084 488B45E8 		movq	-24(%rbp), %rax
  97 0088 4883C060 		addq	$96, %rax
  98 008c 4889C7   		movq	%rax, %rdi
  99 008f E8000000 		call	_ZNSt9basic_iosIcSt11char_traitsIcEED2Ev
  99      00
 100 0094 4889D8   		movq	%rbx, %rax
 101 0097 4889C7   		movq	%rax, %rdi
 102              	.LEHB3:
 103 009a E8000000 		call	_Unwind_Resume
 103      00
 104              	.LEHE3:
 105              	.L8:
 106              	.LBE3:
 107              		.loc 2 16 0
 108 009f 4883C418 		addq	$24, %rsp
 109 00a3 5B       		popq	%rbx
 110 00a4 5D       		popq	%rbp
 111              		.cfi_def_cfa 7, 8
 112 00a5 C3       		ret
 113              		.cfi_endproc
 114              	.LFE1007:
 115              		.globl	__gxx_personality_v0
 116              		.section	.gcc_except_table._ZN8UnitTest15MemoryOutStreamC1Ev,"aG",@progbits,_ZN8UnitTest15MemoryOu
 117              	.LLSDA1007:
 118 0000 FF       		.byte	0xff
 119 0001 FF       		.byte	0xff
 120 0002 01       		.byte	0x1
 121 0003 12       		.uleb128 .LLSDACSE1007-.LLSDACSB1007
 122              	.LLSDACSB1007:
 123 0004 18       		.uleb128 .LEHB0-.LFB1007
 124 0005 05       		.uleb128 .LEHE0-.LEHB0
 125 0006 00       		.uleb128 0
 126 0007 00       		.uleb128 0
 127 0008 31       		.uleb128 .LEHB1-.LFB1007
 128 0009 05       		.uleb128 .LEHE1-.LEHB1
 129 000a 8101     		.uleb128 .L7-.LFB1007
 130 000c 00       		.uleb128 0
 131 000d 61       		.uleb128 .LEHB2-.LFB1007
 132 000e 05       		.uleb128 .LEHE2-.LEHB2
 133 000f 68       		.uleb128 .L6-.LFB1007
 134 0010 00       		.uleb128 0
 135 0011 9A01     		.uleb128 .LEHB3-.LFB1007
 136 0013 05       		.uleb128 .LEHE3-.LEHB3
 137 0014 00       		.uleb128 0
 138 0015 00       		.uleb128 0
 139              	.LLSDACSE1007:
 140              		.section	.text._ZN8UnitTest15MemoryOutStreamC1Ev,"axG",@progbits,_ZN8UnitTest15MemoryOutStreamC1Ev
 142              		.section	.text._ZN17ScopedCurrentTestC2ERN8UnitTest11TestResultsEPKNS0_11TestDetailsE,"axG",@progb
 143              		.align 2
 144              		.weak	_ZN17ScopedCurrentTestC2ERN8UnitTest11TestResultsEPKNS0_11TestDetailsE
 146              	_ZN17ScopedCurrentTestC2ERN8UnitTest11TestResultsEPKNS0_11TestDetailsE:
 147              	.LFB1023:
 148              		.file 3 "ScopedCurrentTest.h"
   1:ScopedCurrentTest.h **** #ifndef UNITTEST_SCOPEDCURRENTTEST_H
   2:ScopedCurrentTest.h **** #define UNITTEST_SCOPEDCURRENTTEST_H
   3:ScopedCurrentTest.h **** 
   4:ScopedCurrentTest.h **** #include "../CurrentTest.h"
   5:ScopedCurrentTest.h **** #include <cstddef>
   6:ScopedCurrentTest.h **** 
   7:ScopedCurrentTest.h **** class ScopedCurrentTest
   8:ScopedCurrentTest.h **** {
   9:ScopedCurrentTest.h **** public:
  10:ScopedCurrentTest.h **** 	ScopedCurrentTest()
  11:ScopedCurrentTest.h **** 		: m_oldTestResults(UnitTest::CurrentTest::Results())
  12:ScopedCurrentTest.h **** 		, m_oldTestDetails(UnitTest::CurrentTest::Details())
  13:ScopedCurrentTest.h **** 	{
  14:ScopedCurrentTest.h **** 	}
  15:ScopedCurrentTest.h **** 
  16:ScopedCurrentTest.h **** 	explicit ScopedCurrentTest(UnitTest::TestResults& newResults, const UnitTest::TestDetails* newDeta
 149              		.loc 3 16 0 is_stmt 1
 150              		.cfi_startproc
 151 0000 55       		pushq	%rbp
 152              		.cfi_def_cfa_offset 16
 153              		.cfi_offset 6, -16
 154 0001 4889E5   		movq	%rsp, %rbp
 155              		.cfi_def_cfa_register 6
 156 0004 4883EC20 		subq	$32, %rsp
 157 0008 48897DF8 		movq	%rdi, -8(%rbp)
 158 000c 488975F0 		movq	%rsi, -16(%rbp)
 159 0010 488955E8 		movq	%rdx, -24(%rbp)
 160              	.LBB4:
  17:ScopedCurrentTest.h **** 		: m_oldTestResults(UnitTest::CurrentTest::Results())
 161              		.loc 3 17 0
 162 0014 E8000000 		call	_ZN8UnitTest11CurrentTest7ResultsEv
 162      00
  18:ScopedCurrentTest.h **** 		, m_oldTestDetails(UnitTest::CurrentTest::Details())
 163              		.loc 3 18 0
 164 0019 488B10   		movq	(%rax), %rdx
 165 001c 488B45F8 		movq	-8(%rbp), %rax
 166 0020 488910   		movq	%rdx, (%rax)
 167 0023 E8000000 		call	_ZN8UnitTest11CurrentTest7DetailsEv
 167      00
 168 0028 488B10   		movq	(%rax), %rdx
 169 002b 488B45F8 		movq	-8(%rbp), %rax
 170 002f 48895008 		movq	%rdx, 8(%rax)
  19:ScopedCurrentTest.h **** 	{
  20:ScopedCurrentTest.h **** 		UnitTest::CurrentTest::Results() = &newResults;
 171              		.loc 3 20 0
 172 0033 E8000000 		call	_ZN8UnitTest11CurrentTest7ResultsEv
 172      00
 173 0038 488B55F0 		movq	-16(%rbp), %rdx
 174 003c 488910   		movq	%rdx, (%rax)
  21:ScopedCurrentTest.h **** 
  22:ScopedCurrentTest.h **** 		if (newDetails != NULL)
 175              		.loc 3 22 0
 176 003f 48837DE8 		cmpq	$0, -24(%rbp)
 176      00
 177 0044 740C     		je	.L9
  23:ScopedCurrentTest.h **** 			UnitTest::CurrentTest::Details() = newDetails;
 178              		.loc 3 23 0
 179 0046 E8000000 		call	_ZN8UnitTest11CurrentTest7DetailsEv
 179      00
 180 004b 488B55E8 		movq	-24(%rbp), %rdx
 181 004f 488910   		movq	%rdx, (%rax)
 182              	.L9:
 183              	.LBE4:
  24:ScopedCurrentTest.h **** 	}
 184              		.loc 3 24 0
 185 0052 C9       		leave
 186              		.cfi_def_cfa 7, 8
 187 0053 C3       		ret
 188              		.cfi_endproc
 189              	.LFE1023:
 191              		.weak	_ZN17ScopedCurrentTestC1ERN8UnitTest11TestResultsEPKNS0_11TestDetailsE
 192              		.set	_ZN17ScopedCurrentTestC1ERN8UnitTest11TestResultsEPKNS0_11TestDetailsE,_ZN17ScopedCurrentTest
 193              		.section	.text._ZN17ScopedCurrentTestD2Ev,"axG",@progbits,_ZN17ScopedCurrentTestD5Ev,comdat
 194              		.align 2
 195              		.weak	_ZN17ScopedCurrentTestD2Ev
 197              	_ZN17ScopedCurrentTestD2Ev:
 198              	.LFB1026:
  25:ScopedCurrentTest.h **** 
  26:ScopedCurrentTest.h **** 	~ScopedCurrentTest()
 199              		.loc 3 26 0
 200              		.cfi_startproc
 201 0000 55       		pushq	%rbp
 202              		.cfi_def_cfa_offset 16
 203              		.cfi_offset 6, -16
 204 0001 4889E5   		movq	%rsp, %rbp
 205              		.cfi_def_cfa_register 6
 206 0004 4883EC10 		subq	$16, %rsp
 207 0008 48897DF8 		movq	%rdi, -8(%rbp)
 208              	.LBB5:
  27:ScopedCurrentTest.h **** 	{
  28:ScopedCurrentTest.h **** 		UnitTest::CurrentTest::Results() = m_oldTestResults;
 209              		.loc 3 28 0
 210 000c E8000000 		call	_ZN8UnitTest11CurrentTest7ResultsEv
 210      00
 211 0011 488B55F8 		movq	-8(%rbp), %rdx
 212 0015 488B12   		movq	(%rdx), %rdx
 213 0018 488910   		movq	%rdx, (%rax)
  29:ScopedCurrentTest.h **** 		UnitTest::CurrentTest::Details() = m_oldTestDetails;
 214              		.loc 3 29 0
 215 001b E8000000 		call	_ZN8UnitTest11CurrentTest7DetailsEv
 215      00
 216 0020 488B55F8 		movq	-8(%rbp), %rdx
 217 0024 488B5208 		movq	8(%rdx), %rdx
 218 0028 488910   		movq	%rdx, (%rax)
 219              	.LBE5:
  30:ScopedCurrentTest.h **** 	}
 220              		.loc 3 30 0
 221 002b C9       		leave
 222              		.cfi_def_cfa 7, 8
 223 002c C3       		ret
 224              		.cfi_endproc
 225              	.LFE1026:
 227              		.weak	_ZN17ScopedCurrentTestD1Ev
 228              		.set	_ZN17ScopedCurrentTestD1Ev,_ZN17ScopedCurrentTestD2Ev
 229              		.section	.rodata
 230              	.LC1:
 231 000d 54657374 		.string	"TestTest.cpp"
 231      54657374 
 231      2E637070 
 231      00
 232              	.LC2:
 233 001a 50617373 		.string	"PassingTestHasNoFailures"
 233      696E6754 
 233      65737448 
 233      61734E6F 
 233      4661696C 
 234              		.text
 235              		.align 2
 237              	_ZN12_GLOBAL__N_128TestPassingTestHasNoFailuresC2Ev:
 238              	.LFB1029:
 239              		.file 4 "TestTest.cpp"
   1:TestTest.cpp  **** #include "../UnitTest++.h"
   2:TestTest.cpp  **** #include "../TestReporter.h"
   3:TestTest.cpp  **** #include "../TimeHelpers.h"
   4:TestTest.cpp  **** #include "ScopedCurrentTest.h"
   5:TestTest.cpp  **** 
   6:TestTest.cpp  **** using namespace UnitTest;
   7:TestTest.cpp  **** 
   8:TestTest.cpp  **** namespace {
   9:TestTest.cpp  **** 
  10:TestTest.cpp  **** TEST(PassingTestHasNoFailures)
 240              		.loc 4 10 0
 241              		.cfi_startproc
 242 0000 55       		pushq	%rbp
 243              		.cfi_def_cfa_offset 16
 244              		.cfi_offset 6, -16
 245 0001 4889E5   		movq	%rsp, %rbp
 246              		.cfi_def_cfa_register 6
 247 0004 4883EC10 		subq	$16, %rsp
 248 0008 48897DF8 		movq	%rdi, -8(%rbp)
 249              	.LBB6:
 250              		.loc 4 10 0
 251 000c E8000000 		call	_ZN13UnitTestSuite12GetSuiteNameEv
 251      00
 252 0011 4889C2   		movq	%rax, %rdx
 253 0014 488B45F8 		movq	-8(%rbp), %rax
 254 0018 41B80A00 		movl	$10, %r8d
 254      0000
 255 001e B9000000 		movl	$.LC1, %ecx
 255      00
 256 0023 BE000000 		movl	$.LC2, %esi
 256      00
 257 0028 4889C7   		movq	%rax, %rdi
 258 002b E8000000 		call	_ZN8UnitTest4TestC2EPKcS2_S2_i
 258      00
 259 0030 488B45F8 		movq	-8(%rbp), %rax
 260 0034 48C70000 		movq	$_ZTVN12_GLOBAL__N_128TestPassingTestHasNoFailuresE+16, (%rax)
 260      000000
 261              	.LBE6:
 262 003b C9       		leave
 263              		.cfi_def_cfa 7, 8
 264 003c C3       		ret
 265              		.cfi_endproc
 266              	.LFE1029:
 268              		.set	_ZN12_GLOBAL__N_128TestPassingTestHasNoFailuresC1Ev,_ZN12_GLOBAL__N_128TestPassingTestHasNoFa
 269              		.local	_ZN12_GLOBAL__N_136testPassingTestHasNoFailuresInstanceE
 270              		.comm	_ZN12_GLOBAL__N_136testPassingTestHasNoFailuresInstanceE,56,32
 271              		.local	_ZN12_GLOBAL__N_129adderPassingTestHasNoFailuresE
 272              		.comm	_ZN12_GLOBAL__N_129adderPassingTestHasNoFailuresE,1,1
 273              		.section	.rodata
 274              	.LC3:
 275 0033 00       		.string	""
 276              	.LC4:
 277 0034 70617373 		.string	"passing"
 277      696E6700 
 278              		.text
 279 003d 90       		.align 2
 281              	_ZZNK12_GLOBAL__N_128TestPassingTestHasNoFailures7RunImplEvEN11PassingTestC2Ev:
 282              	.LFB1033:
  11:TestTest.cpp  **** {
  12:TestTest.cpp  ****     class PassingTest : public Test
  13:TestTest.cpp  ****     {
  14:TestTest.cpp  ****     public:
  15:TestTest.cpp  ****         PassingTest() : Test("passing") {}
 283              		.loc 4 15 0
 284              		.cfi_startproc
 285 003e 55       		pushq	%rbp
 286              		.cfi_def_cfa_offset 16
 287              		.cfi_offset 6, -16
 288 003f 4889E5   		movq	%rsp, %rbp
 289              		.cfi_def_cfa_register 6
 290 0042 4883EC10 		subq	$16, %rsp
 291 0046 48897DF8 		movq	%rdi, -8(%rbp)
 292              	.LBB7:
 293              		.loc 4 15 0
 294 004a 488B45F8 		movq	-8(%rbp), %rax
 295 004e 41B80000 		movl	$0, %r8d
 295      0000
 296 0054 B9000000 		movl	$.LC3, %ecx
 296      00
 297 0059 BA000000 		movl	$.LC0, %edx
 297      00
 298 005e BE000000 		movl	$.LC4, %esi
 298      00
 299 0063 4889C7   		movq	%rax, %rdi
 300 0066 E8000000 		call	_ZN8UnitTest4TestC2EPKcS2_S2_i
 300      00
 301 006b 488B45F8 		movq	-8(%rbp), %rax
 302 006f 48C70000 		movq	$_ZTVZNK12_GLOBAL__N_128TestPassingTestHasNoFailures7RunImplEvE11PassingTest+16, (%rax)
 302      000000
 303              	.LBE7:
 304 0076 C9       		leave
 305              		.cfi_def_cfa 7, 8
 306 0077 C3       		ret
 307              		.cfi_endproc
 308              	.LFE1033:
 310              		.set	_ZZNK12_GLOBAL__N_128TestPassingTestHasNoFailures7RunImplEvEN11PassingTestC1Ev,_ZZNK12_GLOBAL
 311              		.section	.rodata
 312              	.LC5:
 313 003c 74727565 		.string	"true"
 313      00
 314 0041 00000000 		.align 8
 314      000000
 315              	.LC6:
 316 0048 556E6861 		.string	"Unhandled exception in CHECK(true)"
 316      6E646C65 
 316      64206578 
 316      63657074 
 316      696F6E20 
 317              		.text
 318              		.align 2
 320              	_ZZNK12_GLOBAL__N_128TestPassingTestHasNoFailures7RunImplEvENK11PassingTest7RunImplEv:
 321              	.LFB1035:
  16:TestTest.cpp  ****         virtual void RunImpl() const
 322              		.loc 4 16 0
 323              		.cfi_startproc
 324              		.cfi_personality 0x3,__gxx_personality_v0
 325              		.cfi_lsda 0x3,.LLSDA1035
 326 0078 55       		pushq	%rbp
 327              		.cfi_def_cfa_offset 16
 328              		.cfi_offset 6, -16
 329 0079 4889E5   		movq	%rsp, %rbp
 330              		.cfi_def_cfa_register 6
 331 007c 53       		pushq	%rbx
 332 007d 4883EC38 		subq	$56, %rsp
 333              		.cfi_offset 3, -24
 334 0081 48897DC8 		movq	%rdi, -56(%rbp)
  17:TestTest.cpp  ****         {
  18:TestTest.cpp  ****             CHECK(true);
 335              		.loc 4 18 0
 336 0085 BF010000 		movl	$1, %edi
 336      00
 337 008a E8000000 		call	_ZN8UnitTest5CheckIbEEbT_
 337      00
 338 008f 83F001   		xorl	$1, %eax
 339 0092 84C0     		testb	%al, %al
 340 0094 0F849300 		je	.L15
 340      0000
 341              	.LEHB4:
 342              		.loc 4 18 0 is_stmt 0 discriminator 1
 343 009a E8000000 		call	_ZN8UnitTest11CurrentTest7DetailsEv
 343      00
 344 009f 488B08   		movq	(%rax), %rcx
 345 00a2 488D45D0 		leaq	-48(%rbp), %rax
 346 00a6 BA120000 		movl	$18, %edx
 346      00
 347 00ab 4889CE   		movq	%rcx, %rsi
 348 00ae 4889C7   		movq	%rax, %rdi
 349 00b1 E8000000 		call	_ZN8UnitTest11TestDetailsC1ERKS0_i
 349      00
 350 00b6 E8000000 		call	_ZN8UnitTest11CurrentTest7ResultsEv
 350      00
 351 00bb 488B00   		movq	(%rax), %rax
 352 00be 488D4DD0 		leaq	-48(%rbp), %rcx
 353 00c2 BA000000 		movl	$.LC5, %edx
 353      00
 354 00c7 4889CE   		movq	%rcx, %rsi
 355 00ca 4889C7   		movq	%rax, %rdi
 356 00cd E8000000 		call	_ZN8UnitTest11TestResults13OnTestFailureERKNS_11TestDetailsEPKc
 356      00
 357              	.LEHE4:
 358 00d2 EB59     		jmp	.L15
 359              	.L20:
 360 00d4 4889C3   		movq	%rax, %rbx
 361              		.loc 4 18 0
 362 00d7 E8000000 		call	__cxa_end_catch
 362      00
 363 00dc 4889D8   		movq	%rbx, %rax
 364 00df 4889C7   		movq	%rax, %rdi
 365              	.LEHB5:
 366 00e2 E8000000 		call	_Unwind_Resume
 366      00
 367              	.LEHE5:
 368              	.L19:
 369 00e7 4889C7   		movq	%rax, %rdi
 370 00ea E8000000 		call	__cxa_begin_catch
 370      00
 371              	.LEHB6:
 372 00ef E8000000 		call	_ZN8UnitTest11CurrentTest7DetailsEv
 372      00
 373 00f4 488B08   		movq	(%rax), %rcx
 374 00f7 488D45D0 		leaq	-48(%rbp), %rax
 375 00fb BA120000 		movl	$18, %edx
 375      00
 376 0100 4889CE   		movq	%rcx, %rsi
 377 0103 4889C7   		movq	%rax, %rdi
 378 0106 E8000000 		call	_ZN8UnitTest11TestDetailsC1ERKS0_i
 378      00
 379              		.loc 4 18 0 discriminator 1
 380 010b E8000000 		call	_ZN8UnitTest11CurrentTest7ResultsEv
 380      00
 381 0110 488B00   		movq	(%rax), %rax
 382 0113 488D4DD0 		leaq	-48(%rbp), %rcx
 383 0117 BA000000 		movl	$.LC6, %edx
 383      00
 384 011c 4889CE   		movq	%rcx, %rsi
 385 011f 4889C7   		movq	%rax, %rdi
 386 0122 E8000000 		call	_ZN8UnitTest11TestResults13OnTestFailureERKNS_11TestDetailsEPKc
 386      00
 387              	.LEHE6:
 388              	.LEHB7:
 389 0127 E8000000 		call	__cxa_end_catch
 389      00
 390              	.LEHE7:
  19:TestTest.cpp  ****         }
 391              		.loc 4 19 0 is_stmt 1 discriminator 1
 392 012c 90       		nop
 393              	.L15:
 394              		.loc 4 19 0 is_stmt 0
 395 012d 4883C438 		addq	$56, %rsp
 396 0131 5B       		popq	%rbx
 397 0132 5D       		popq	%rbp
 398              		.cfi_def_cfa 7, 8
 399 0133 C3       		ret
 400              		.cfi_endproc
 401              	.LFE1035:
 402              		.section	.gcc_except_table,"a",@progbits
 403              		.align 4
 404              	.LLSDA1035:
 405 0000 FF       		.byte	0xff
 406 0001 03       		.byte	0x3
 407 0002 19       		.uleb128 .LLSDATT1035-.LLSDATTD1035
 408              	.LLSDATTD1035:
 409 0003 01       		.byte	0x1
 410 0004 11       		.uleb128 .LLSDACSE1035-.LLSDACSB1035
 411              	.LLSDACSB1035:
 412 0005 22       		.uleb128 .LEHB4-.LFB1035
 413 0006 38       		.uleb128 .LEHE4-.LEHB4
 414 0007 6F       		.uleb128 .L19-.LFB1035
 415 0008 01       		.uleb128 0x1
 416 0009 6A       		.uleb128 .LEHB5-.LFB1035
 417 000a 05       		.uleb128 .LEHE5-.LEHB5
 418 000b 00       		.uleb128 0
 419 000c 00       		.uleb128 0
 420 000d 77       		.uleb128 .LEHB6-.LFB1035
 421 000e 38       		.uleb128 .LEHE6-.LEHB6
 422 000f 5C       		.uleb128 .L20-.LFB1035
 423 0010 00       		.uleb128 0
 424 0011 AF01     		.uleb128 .LEHB7-.LFB1035
 425 0013 05       		.uleb128 .LEHE7-.LEHB7
 426 0014 00       		.uleb128 0
 427 0015 00       		.uleb128 0
 428              	.LLSDACSE1035:
 429 0016 01       		.byte	0x1
 430 0017 00       		.byte	0
 431              		.align 4
 432 0018 00000000 		.long	0
 433              	
 434              	.LLSDATT1035:
 435              		.text
 437              		.section	.rodata
 438 006b 00000000 		.align 8
 438      00
 439              	.LC7:
 440 0070 556E6861 		.string	"Unhandled exception in CHECK_EQUAL(0, results.GetFailureCount())"
 440      6E646C65 
 440      64206578 
 440      63657074 
 440      696F6E20 
 441              		.text
 442              		.align 2
 444              	_ZNK12_GLOBAL__N_128TestPassingTestHasNoFailures7RunImplEv:
 445              	.LFB1031:
  11:TestTest.cpp  ****     class PassingTest : public Test
 446              		.loc 4 11 0 is_stmt 1
 447              		.cfi_startproc
 448              		.cfi_personality 0x3,__gxx_personality_v0
 449              		.cfi_lsda 0x3,.LLSDA1031
 450 0134 55       		pushq	%rbp
 451              		.cfi_def_cfa_offset 16
 452              		.cfi_offset 6, -16
 453 0135 4889E5   		movq	%rsp, %rbp
 454              		.cfi_def_cfa_register 6
 455 0138 53       		pushq	%rbx
 456 0139 4881EC98 		subq	$152, %rsp
 456      000000
 457              		.cfi_offset 3, -24
 458 0140 4889BD68 		movq	%rdi, -152(%rbp)
 458      FFFFFF
 459              	.LBB8:
  20:TestTest.cpp  ****     };
  21:TestTest.cpp  **** 
  22:TestTest.cpp  ****     TestResults results;
 460              		.loc 4 22 0
 461 0147 488D4590 		leaq	-112(%rbp), %rax
 462 014b BE000000 		movl	$0, %esi
 462      00
 463 0150 4889C7   		movq	%rax, %rdi
 464              	.LEHB8:
 465 0153 E8000000 		call	_ZN8UnitTest11TestResultsC1EPNS_12TestReporterE
 465      00
 466              	.LBB9:
  23:TestTest.cpp  **** 	{
  24:TestTest.cpp  **** 		ScopedCurrentTest scopedResults(results);
 467              		.loc 4 24 0
 468 0158 488D4D90 		leaq	-112(%rbp), %rcx
 469 015c 488D4580 		leaq	-128(%rbp), %rax
 470 0160 BA000000 		movl	$0, %edx
 470      00
 471 0165 4889CE   		movq	%rcx, %rsi
 472 0168 4889C7   		movq	%rax, %rdi
 473 016b E8000000 		call	_ZN17ScopedCurrentTestC1ERN8UnitTest11TestResultsEPKNS0_11TestDetailsE
 473      00
 474              	.LEHE8:
  25:TestTest.cpp  **** 		PassingTest().Run();
 475              		.loc 4 25 0
 476 0170 488D45B0 		leaq	-80(%rbp), %rax
 477 0174 4889C7   		movq	%rax, %rdi
 478              	.LEHB9:
 479 0177 E8C2FEFF 		call	_ZZNK12_GLOBAL__N_128TestPassingTestHasNoFailures7RunImplEvEN11PassingTestC1Ev
 479      FF
 480              	.LEHE9:
 481              		.loc 4 25 0 is_stmt 0 discriminator 1
 482 017c 488D45B0 		leaq	-80(%rbp), %rax
 483 0180 4889C7   		movq	%rax, %rdi
 484              	.LEHB10:
 485 0183 E8000000 		call	_ZN8UnitTest4Test3RunEv
 485      00
 486              	.LEHE10:
 487 0188 488D45B0 		leaq	-80(%rbp), %rax
 488 018c 4889C7   		movq	%rax, %rdi
 489              	.LEHB11:
 490 018f E8E01000 		call	_ZZNK12_GLOBAL__N_128TestPassingTestHasNoFailures7RunImplEvEN11PassingTestD1Ev
 490      00
 491              	.LEHE11:
 492              		.loc 4 25 0 discriminator 2
 493 0194 488D4580 		leaq	-128(%rbp), %rax
 494 0198 4889C7   		movq	%rax, %rdi
 495              	.LEHB12:
 496 019b E8000000 		call	_ZN17ScopedCurrentTestD1Ev
 496      00
 497              	.LEHE12:
 498              	.LEHB13:
 499              	.LBE9:
  26:TestTest.cpp  **** 	}
  27:TestTest.cpp  **** 
  28:TestTest.cpp  ****     CHECK_EQUAL(0, results.GetFailureCount());
 500              		.loc 4 28 0 is_stmt 1 discriminator 2
 501 01a0 E8000000 		call	_ZN8UnitTest11CurrentTest7DetailsEv
 501      00
 502 01a5 488B08   		movq	(%rax), %rcx
 503 01a8 488D45B0 		leaq	-80(%rbp), %rax
 504 01ac BA1C0000 		movl	$28, %edx
 504      00
 505 01b1 4889CE   		movq	%rcx, %rsi
 506 01b4 4889C7   		movq	%rax, %rdi
 507 01b7 E8000000 		call	_ZN8UnitTest11TestDetailsC1ERKS0_i
 507      00
 508              		.loc 4 28 0 is_stmt 0 discriminator 1
 509 01bc 488D4590 		leaq	-112(%rbp), %rax
 510 01c0 4889C7   		movq	%rax, %rdi
 511 01c3 E8000000 		call	_ZNK8UnitTest11TestResults15GetFailureCountEv
 511      00
 512 01c8 894580   		movl	%eax, -128(%rbp)
 513 01cb C7857CFF 		movl	$0, -132(%rbp)
 513      FFFF0000 
 513      0000
 514 01d5 E8000000 		call	_ZN8UnitTest11CurrentTest7ResultsEv
 514      00
 515 01da 488B00   		movq	(%rax), %rax
 516 01dd 488D4DB0 		leaq	-80(%rbp), %rcx
 517 01e1 488D5580 		leaq	-128(%rbp), %rdx
 518 01e5 488DB57C 		leaq	-132(%rbp), %rsi
 518      FFFFFF
 519 01ec 4889C7   		movq	%rax, %rdi
 520 01ef E8000000 		call	_ZN8UnitTest10CheckEqualIiiEEvRNS_11TestResultsERKT_RKT0_RKNS_11TestDetailsE
 520      00
 521              	.LEHE13:
 522              	.LBE8:
  29:TestTest.cpp  **** }
 523              		.loc 4 29 0 is_stmt 1
 524 01f4 E9830000 		jmp	.L31
 524      00
 525              	.L28:
 526 01f9 4889C3   		movq	%rax, %rbx
 527              	.LBB11:
 528              	.LBB10:
  25:TestTest.cpp  **** 		PassingTest().Run();
 529              		.loc 4 25 0
 530 01fc 488D45B0 		leaq	-80(%rbp), %rax
 531 0200 4889C7   		movq	%rax, %rdi
 532 0203 E86C1000 		call	_ZZNK12_GLOBAL__N_128TestPassingTestHasNoFailures7RunImplEvEN11PassingTestD1Ev
 532      00
 533 0208 EB03     		jmp	.L23
 534              	.L27:
 535 020a 4889C3   		movq	%rax, %rbx
 536              	.L23:
 537 020d 488D4580 		leaq	-128(%rbp), %rax
 538 0211 4889C7   		movq	%rax, %rdi
 539 0214 E8000000 		call	_ZN17ScopedCurrentTestD1Ev
 539      00
 540 0219 4889D8   		movq	%rbx, %rax
 541 021c 4889C7   		movq	%rax, %rdi
 542              	.LEHB14:
 543 021f E8000000 		call	_Unwind_Resume
 543      00
 544              	.LEHE14:
 545              	.L30:
 546 0224 4889C3   		movq	%rax, %rbx
 547              	.LBE10:
  28:TestTest.cpp  **** }
 548              		.loc 4 28 0
 549 0227 E8000000 		call	__cxa_end_catch
 549      00
 550 022c 4889D8   		movq	%rbx, %rax
 551 022f 4889C7   		movq	%rax, %rdi
 552              	.LEHB15:
 553 0232 E8000000 		call	_Unwind_Resume
 553      00
 554              	.LEHE15:
 555              	.L29:
 556 0237 4889C7   		movq	%rax, %rdi
 557 023a E8000000 		call	__cxa_begin_catch
 557      00
 558              	.LEHB16:
 559 023f E8000000 		call	_ZN8UnitTest11CurrentTest7DetailsEv
 559      00
 560 0244 488B08   		movq	(%rax), %rcx
 561 0247 488D45B0 		leaq	-80(%rbp), %rax
 562 024b BA1C0000 		movl	$28, %edx
 562      00
 563 0250 4889CE   		movq	%rcx, %rsi
 564 0253 4889C7   		movq	%rax, %rdi
 565 0256 E8000000 		call	_ZN8UnitTest11TestDetailsC1ERKS0_i
 565      00
  28:TestTest.cpp  **** }
 566              		.loc 4 28 0 is_stmt 0 discriminator 1
 567 025b E8000000 		call	_ZN8UnitTest11CurrentTest7ResultsEv
 567      00
 568 0260 488B00   		movq	(%rax), %rax
 569 0263 488D4DB0 		leaq	-80(%rbp), %rcx
 570 0267 BA000000 		movl	$.LC7, %edx
 570      00
 571 026c 4889CE   		movq	%rcx, %rsi
 572 026f 4889C7   		movq	%rax, %rdi
 573 0272 E8000000 		call	_ZN8UnitTest11TestResults13OnTestFailureERKNS_11TestDetailsEPKc
 573      00
 574              	.LEHE16:
 575              	.LEHB17:
 576 0277 E8000000 		call	__cxa_end_catch
 576      00
 577              	.LEHE17:
 578              	.L31:
 579              	.LBE11:
 580              		.loc 4 29 0 is_stmt 1
 581 027c 90       		nop
 582 027d 4881C498 		addq	$152, %rsp
 582      000000
 583 0284 5B       		popq	%rbx
 584 0285 5D       		popq	%rbp
 585              		.cfi_def_cfa 7, 8
 586 0286 C3       		ret
 587              		.cfi_endproc
 588              	.LFE1031:
 589              		.section	.gcc_except_table
 590              		.align 4
 591              	.LLSDA1031:
 592 001c FF       		.byte	0xff
 593 001d 03       		.byte	0x3
 594 001e 39       		.uleb128 .LLSDATT1031-.LLSDATTD1031
 595              	.LLSDATTD1031:
 596 001f 01       		.byte	0x1
 597 0020 31       		.uleb128 .LLSDACSE1031-.LLSDACSB1031
 598              	.LLSDACSB1031:
 599 0021 1F       		.uleb128 .LEHB8-.LFB1031
 600 0022 1D       		.uleb128 .LEHE8-.LEHB8
 601 0023 00       		.uleb128 0
 602 0024 00       		.uleb128 0
 603 0025 43       		.uleb128 .LEHB9-.LFB1031
 604 0026 05       		.uleb128 .LEHE9-.LEHB9
 605 0027 D601     		.uleb128 .L27-.LFB1031
 606 0029 00       		.uleb128 0
 607 002a 4F       		.uleb128 .LEHB10-.LFB1031
 608 002b 05       		.uleb128 .LEHE10-.LEHB10
 609 002c C501     		.uleb128 .L28-.LFB1031
 610 002e 00       		.uleb128 0
 611 002f 5B       		.uleb128 .LEHB11-.LFB1031
 612 0030 05       		.uleb128 .LEHE11-.LEHB11
 613 0031 D601     		.uleb128 .L27-.LFB1031
 614 0033 00       		.uleb128 0
 615 0034 67       		.uleb128 .LEHB12-.LFB1031
 616 0035 05       		.uleb128 .LEHE12-.LEHB12
 617 0036 00       		.uleb128 0
 618 0037 00       		.uleb128 0
 619 0038 6C       		.uleb128 .LEHB13-.LFB1031
 620 0039 54       		.uleb128 .LEHE13-.LEHB13
 621 003a 8302     		.uleb128 .L29-.LFB1031
 622 003c 01       		.uleb128 0x1
 623 003d EB01     		.uleb128 .LEHB14-.LFB1031
 624 003f 05       		.uleb128 .LEHE14-.LEHB14
 625 0040 00       		.uleb128 0
 626 0041 00       		.uleb128 0
 627 0042 FE01     		.uleb128 .LEHB15-.LFB1031
 628 0044 05       		.uleb128 .LEHE15-.LEHB15
 629 0045 00       		.uleb128 0
 630 0046 00       		.uleb128 0
 631 0047 8B02     		.uleb128 .LEHB16-.LFB1031
 632 0049 38       		.uleb128 .LEHE16-.LEHB16
 633 004a F001     		.uleb128 .L30-.LFB1031
 634 004c 00       		.uleb128 0
 635 004d C302     		.uleb128 .LEHB17-.LFB1031
 636 004f 05       		.uleb128 .LEHE17-.LEHB17
 637 0050 00       		.uleb128 0
 638 0051 00       		.uleb128 0
 639              	.LLSDACSE1031:
 640 0052 01       		.byte	0x1
 641 0053 00       		.byte	0
 642              		.align 4
 643 0054 00000000 		.long	0
 644              	
 645              	.LLSDATT1031:
 646              		.text
 648              		.section	.rodata
 649              	.LC8:
 650 00b1 4661696C 		.string	"FailingTestHasFailures"
 650      696E6754 
 650      65737448 
 650      61734661 
 650      696C7572 
 651              		.text
 652 0287 90       		.align 2
 654              	_ZN12_GLOBAL__N_126TestFailingTestHasFailuresC2Ev:
 655              	.LFB1037:
  30:TestTest.cpp  **** 
  31:TestTest.cpp  **** 
  32:TestTest.cpp  **** TEST(FailingTestHasFailures)
 656              		.loc 4 32 0
 657              		.cfi_startproc
 658 0288 55       		pushq	%rbp
 659              		.cfi_def_cfa_offset 16
 660              		.cfi_offset 6, -16
 661 0289 4889E5   		movq	%rsp, %rbp
 662              		.cfi_def_cfa_register 6
 663 028c 4883EC10 		subq	$16, %rsp
 664 0290 48897DF8 		movq	%rdi, -8(%rbp)
 665              	.LBB12:
 666              		.loc 4 32 0
 667 0294 E8000000 		call	_ZN13UnitTestSuite12GetSuiteNameEv
 667      00
 668 0299 4889C2   		movq	%rax, %rdx
 669 029c 488B45F8 		movq	-8(%rbp), %rax
 670 02a0 41B82000 		movl	$32, %r8d
 670      0000
 671 02a6 B9000000 		movl	$.LC1, %ecx
 671      00
 672 02ab BE000000 		movl	$.LC8, %esi
 672      00
 673 02b0 4889C7   		movq	%rax, %rdi
 674 02b3 E8000000 		call	_ZN8UnitTest4TestC2EPKcS2_S2_i
 674      00
 675 02b8 488B45F8 		movq	-8(%rbp), %rax
 676 02bc 48C70000 		movq	$_ZTVN12_GLOBAL__N_126TestFailingTestHasFailuresE+16, (%rax)
 676      000000
 677              	.LBE12:
 678 02c3 C9       		leave
 679              		.cfi_def_cfa 7, 8
 680 02c4 C3       		ret
 681              		.cfi_endproc
 682              	.LFE1037:
 684              		.set	_ZN12_GLOBAL__N_126TestFailingTestHasFailuresC1Ev,_ZN12_GLOBAL__N_126TestFailingTestHasFailur
 685              		.local	_ZN12_GLOBAL__N_134testFailingTestHasFailuresInstanceE
 686              		.comm	_ZN12_GLOBAL__N_134testFailingTestHasFailuresInstanceE,56,32
 687              		.local	_ZN12_GLOBAL__N_127adderFailingTestHasFailuresE
 688              		.comm	_ZN12_GLOBAL__N_127adderFailingTestHasFailuresE,1,1
 689              		.section	.rodata
 690              	.LC9:
 691 00c8 6661696C 		.string	"failing"
 691      696E6700 
 692              		.text
 693 02c5 90       		.align 2
 695              	_ZZNK12_GLOBAL__N_126TestFailingTestHasFailures7RunImplEvEN11FailingTestC2Ev:
 696              	.LFB1041:
  33:TestTest.cpp  **** {
  34:TestTest.cpp  ****     class FailingTest : public Test
  35:TestTest.cpp  ****     {
  36:TestTest.cpp  ****     public:
  37:TestTest.cpp  ****         FailingTest() : Test("failing") {}
 697              		.loc 4 37 0
 698              		.cfi_startproc
 699 02c6 55       		pushq	%rbp
 700              		.cfi_def_cfa_offset 16
 701              		.cfi_offset 6, -16
 702 02c7 4889E5   		movq	%rsp, %rbp
 703              		.cfi_def_cfa_register 6
 704 02ca 4883EC10 		subq	$16, %rsp
 705 02ce 48897DF8 		movq	%rdi, -8(%rbp)
 706              	.LBB13:
 707              		.loc 4 37 0
 708 02d2 488B45F8 		movq	-8(%rbp), %rax
 709 02d6 41B80000 		movl	$0, %r8d
 709      0000
 710 02dc B9000000 		movl	$.LC3, %ecx
 710      00
 711 02e1 BA000000 		movl	$.LC0, %edx
 711      00
 712 02e6 BE000000 		movl	$.LC9, %esi
 712      00
 713 02eb 4889C7   		movq	%rax, %rdi
 714 02ee E8000000 		call	_ZN8UnitTest4TestC2EPKcS2_S2_i
 714      00
 715 02f3 488B45F8 		movq	-8(%rbp), %rax
 716 02f7 48C70000 		movq	$_ZTVZNK12_GLOBAL__N_126TestFailingTestHasFailures7RunImplEvE11FailingTest+16, (%rax)
 716      000000
 717              	.LBE13:
 718 02fe C9       		leave
 719              		.cfi_def_cfa 7, 8
 720 02ff C3       		ret
 721              		.cfi_endproc
 722              	.LFE1041:
 724              		.set	_ZZNK12_GLOBAL__N_126TestFailingTestHasFailures7RunImplEvEN11FailingTestC1Ev,_ZZNK12_GLOBAL__
 725              		.section	.rodata
 726              	.LC10:
 727 00d0 66616C73 		.string	"false"
 727      6500
 728 00d6 0000     		.align 8
 729              	.LC11:
 730 00d8 556E6861 		.string	"Unhandled exception in CHECK(false)"
 730      6E646C65 
 730      64206578 
 730      63657074 
 730      696F6E20 
 731              		.text
 732              		.align 2
 734              	_ZZNK12_GLOBAL__N_126TestFailingTestHasFailures7RunImplEvENK11FailingTest7RunImplEv:
 735              	.LFB1043:
  38:TestTest.cpp  ****         virtual void RunImpl() const
 736              		.loc 4 38 0
 737              		.cfi_startproc
 738              		.cfi_personality 0x3,__gxx_personality_v0
 739              		.cfi_lsda 0x3,.LLSDA1043
 740 0300 55       		pushq	%rbp
 741              		.cfi_def_cfa_offset 16
 742              		.cfi_offset 6, -16
 743 0301 4889E5   		movq	%rsp, %rbp
 744              		.cfi_def_cfa_register 6
 745 0304 53       		pushq	%rbx
 746 0305 4883EC38 		subq	$56, %rsp
 747              		.cfi_offset 3, -24
 748 0309 48897DC8 		movq	%rdi, -56(%rbp)
  39:TestTest.cpp  ****         {
  40:TestTest.cpp  ****             CHECK(false);
 749              		.loc 4 40 0
 750 030d BF000000 		movl	$0, %edi
 750      00
 751 0312 E8000000 		call	_ZN8UnitTest5CheckIbEEbT_
 751      00
 752 0317 83F001   		xorl	$1, %eax
 753 031a 84C0     		testb	%al, %al
 754 031c 0F849300 		je	.L34
 754      0000
 755              	.LEHB18:
 756              		.loc 4 40 0 is_stmt 0 discriminator 1
 757 0322 E8000000 		call	_ZN8UnitTest11CurrentTest7DetailsEv
 757      00
 758 0327 488B08   		movq	(%rax), %rcx
 759 032a 488D45D0 		leaq	-48(%rbp), %rax
 760 032e BA280000 		movl	$40, %edx
 760      00
 761 0333 4889CE   		movq	%rcx, %rsi
 762 0336 4889C7   		movq	%rax, %rdi
 763 0339 E8000000 		call	_ZN8UnitTest11TestDetailsC1ERKS0_i
 763      00
 764 033e E8000000 		call	_ZN8UnitTest11CurrentTest7ResultsEv
 764      00
 765 0343 488B00   		movq	(%rax), %rax
 766 0346 488D4DD0 		leaq	-48(%rbp), %rcx
 767 034a BA000000 		movl	$.LC10, %edx
 767      00
 768 034f 4889CE   		movq	%rcx, %rsi
 769 0352 4889C7   		movq	%rax, %rdi
 770 0355 E8000000 		call	_ZN8UnitTest11TestResults13OnTestFailureERKNS_11TestDetailsEPKc
 770      00
 771              	.LEHE18:
 772 035a EB59     		jmp	.L34
 773              	.L39:
 774 035c 4889C3   		movq	%rax, %rbx
 775              		.loc 4 40 0
 776 035f E8000000 		call	__cxa_end_catch
 776      00
 777 0364 4889D8   		movq	%rbx, %rax
 778 0367 4889C7   		movq	%rax, %rdi
 779              	.LEHB19:
 780 036a E8000000 		call	_Unwind_Resume
 780      00
 781              	.LEHE19:
 782              	.L38:
 783 036f 4889C7   		movq	%rax, %rdi
 784 0372 E8000000 		call	__cxa_begin_catch
 784      00
 785              	.LEHB20:
 786 0377 E8000000 		call	_ZN8UnitTest11CurrentTest7DetailsEv
 786      00
 787 037c 488B08   		movq	(%rax), %rcx
 788 037f 488D45D0 		leaq	-48(%rbp), %rax
 789 0383 BA280000 		movl	$40, %edx
 789      00
 790 0388 4889CE   		movq	%rcx, %rsi
 791 038b 4889C7   		movq	%rax, %rdi
 792 038e E8000000 		call	_ZN8UnitTest11TestDetailsC1ERKS0_i
 792      00
 793              		.loc 4 40 0 discriminator 1
 794 0393 E8000000 		call	_ZN8UnitTest11CurrentTest7ResultsEv
 794      00
 795 0398 488B00   		movq	(%rax), %rax
 796 039b 488D4DD0 		leaq	-48(%rbp), %rcx
 797 039f BA000000 		movl	$.LC11, %edx
 797      00
 798 03a4 4889CE   		movq	%rcx, %rsi
 799 03a7 4889C7   		movq	%rax, %rdi
 800 03aa E8000000 		call	_ZN8UnitTest11TestResults13OnTestFailureERKNS_11TestDetailsEPKc
 800      00
 801              	.LEHE20:
 802              	.LEHB21:
 803 03af E8000000 		call	__cxa_end_catch
 803      00
 804              	.LEHE21:
  41:TestTest.cpp  ****         }
 805              		.loc 4 41 0 is_stmt 1 discriminator 1
 806 03b4 90       		nop
 807              	.L34:
 808              		.loc 4 41 0 is_stmt 0
 809 03b5 4883C438 		addq	$56, %rsp
 810 03b9 5B       		popq	%rbx
 811 03ba 5D       		popq	%rbp
 812              		.cfi_def_cfa 7, 8
 813 03bb C3       		ret
 814              		.cfi_endproc
 815              	.LFE1043:
 816              		.section	.gcc_except_table
 817              		.align 4
 818              	.LLSDA1043:
 819 0058 FF       		.byte	0xff
 820 0059 03       		.byte	0x3
 821 005a 19       		.uleb128 .LLSDATT1043-.LLSDATTD1043
 822              	.LLSDATTD1043:
 823 005b 01       		.byte	0x1
 824 005c 11       		.uleb128 .LLSDACSE1043-.LLSDACSB1043
 825              	.LLSDACSB1043:
 826 005d 22       		.uleb128 .LEHB18-.LFB1043
 827 005e 38       		.uleb128 .LEHE18-.LEHB18
 828 005f 6F       		.uleb128 .L38-.LFB1043
 829 0060 01       		.uleb128 0x1
 830 0061 6A       		.uleb128 .LEHB19-.LFB1043
 831 0062 05       		.uleb128 .LEHE19-.LEHB19
 832 0063 00       		.uleb128 0
 833 0064 00       		.uleb128 0
 834 0065 77       		.uleb128 .LEHB20-.LFB1043
 835 0066 38       		.uleb128 .LEHE20-.LEHB20
 836 0067 5C       		.uleb128 .L39-.LFB1043
 837 0068 00       		.uleb128 0
 838 0069 AF01     		.uleb128 .LEHB21-.LFB1043
 839 006b 05       		.uleb128 .LEHE21-.LEHB21
 840 006c 00       		.uleb128 0
 841 006d 00       		.uleb128 0
 842              	.LLSDACSE1043:
 843 006e 01       		.byte	0x1
 844 006f 00       		.byte	0
 845              		.align 4
 846 0070 00000000 		.long	0
 847              	
 848              	.LLSDATT1043:
 849              		.text
 851              		.section	.rodata
 852 00fc 00000000 		.align 8
 853              	.LC12:
 854 0100 556E6861 		.string	"Unhandled exception in CHECK_EQUAL(1, results.GetFailureCount())"
 854      6E646C65 
 854      64206578 
 854      63657074 
 854      696F6E20 
 855              		.text
 856              		.align 2
 858              	_ZNK12_GLOBAL__N_126TestFailingTestHasFailures7RunImplEv:
 859              	.LFB1039:
  33:TestTest.cpp  ****     class FailingTest : public Test
 860              		.loc 4 33 0 is_stmt 1
 861              		.cfi_startproc
 862              		.cfi_personality 0x3,__gxx_personality_v0
 863              		.cfi_lsda 0x3,.LLSDA1039
 864 03bc 55       		pushq	%rbp
 865              		.cfi_def_cfa_offset 16
 866              		.cfi_offset 6, -16
 867 03bd 4889E5   		movq	%rsp, %rbp
 868              		.cfi_def_cfa_register 6
 869 03c0 53       		pushq	%rbx
 870 03c1 4881EC98 		subq	$152, %rsp
 870      000000
 871              		.cfi_offset 3, -24
 872 03c8 4889BD68 		movq	%rdi, -152(%rbp)
 872      FFFFFF
 873              	.LBB14:
  42:TestTest.cpp  ****     };
  43:TestTest.cpp  **** 
  44:TestTest.cpp  ****     TestResults results;
 874              		.loc 4 44 0
 875 03cf 488D4590 		leaq	-112(%rbp), %rax
 876 03d3 BE000000 		movl	$0, %esi
 876      00
 877 03d8 4889C7   		movq	%rax, %rdi
 878              	.LEHB22:
 879 03db E8000000 		call	_ZN8UnitTest11TestResultsC1EPNS_12TestReporterE
 879      00
 880              	.LBB15:
  45:TestTest.cpp  **** 	{
  46:TestTest.cpp  **** 		ScopedCurrentTest scopedResults(results);
 881              		.loc 4 46 0
 882 03e0 488D4D90 		leaq	-112(%rbp), %rcx
 883 03e4 488D4580 		leaq	-128(%rbp), %rax
 884 03e8 BA000000 		movl	$0, %edx
 884      00
 885 03ed 4889CE   		movq	%rcx, %rsi
 886 03f0 4889C7   		movq	%rax, %rdi
 887 03f3 E8000000 		call	_ZN17ScopedCurrentTestC1ERN8UnitTest11TestResultsEPKNS0_11TestDetailsE
 887      00
 888              	.LEHE22:
  47:TestTest.cpp  **** 		FailingTest().Run();
 889              		.loc 4 47 0
 890 03f8 488D45B0 		leaq	-80(%rbp), %rax
 891 03fc 4889C7   		movq	%rax, %rdi
 892              	.LEHB23:
 893 03ff E8C2FEFF 		call	_ZZNK12_GLOBAL__N_126TestFailingTestHasFailures7RunImplEvEN11FailingTestC1Ev
 893      FF
 894              	.LEHE23:
 895              		.loc 4 47 0 is_stmt 0 discriminator 1
 896 0404 488D45B0 		leaq	-80(%rbp), %rax
 897 0408 4889C7   		movq	%rax, %rdi
 898              	.LEHB24:
 899 040b E8000000 		call	_ZN8UnitTest4Test3RunEv
 899      00
 900              	.LEHE24:
 901 0410 488D45B0 		leaq	-80(%rbp), %rax
 902 0414 4889C7   		movq	%rax, %rdi
 903              	.LEHB25:
 904 0417 E8980D00 		call	_ZZNK12_GLOBAL__N_126TestFailingTestHasFailures7RunImplEvEN11FailingTestD1Ev
 904      00
 905              	.LEHE25:
 906              		.loc 4 47 0 discriminator 2
 907 041c 488D4580 		leaq	-128(%rbp), %rax
 908 0420 4889C7   		movq	%rax, %rdi
 909              	.LEHB26:
 910 0423 E8000000 		call	_ZN17ScopedCurrentTestD1Ev
 910      00
 911              	.LEHE26:
 912              	.LEHB27:
 913              	.LBE15:
  48:TestTest.cpp  **** 	}
  49:TestTest.cpp  **** 
  50:TestTest.cpp  ****     CHECK_EQUAL(1, results.GetFailureCount());
 914              		.loc 4 50 0 is_stmt 1 discriminator 2
 915 0428 E8000000 		call	_ZN8UnitTest11CurrentTest7DetailsEv
 915      00
 916 042d 488B08   		movq	(%rax), %rcx
 917 0430 488D45B0 		leaq	-80(%rbp), %rax
 918 0434 BA320000 		movl	$50, %edx
 918      00
 919 0439 4889CE   		movq	%rcx, %rsi
 920 043c 4889C7   		movq	%rax, %rdi
 921 043f E8000000 		call	_ZN8UnitTest11TestDetailsC1ERKS0_i
 921      00
 922              		.loc 4 50 0 is_stmt 0 discriminator 1
 923 0444 488D4590 		leaq	-112(%rbp), %rax
 924 0448 4889C7   		movq	%rax, %rdi
 925 044b E8000000 		call	_ZNK8UnitTest11TestResults15GetFailureCountEv
 925      00
 926 0450 894580   		movl	%eax, -128(%rbp)
 927 0453 C7857CFF 		movl	$1, -132(%rbp)
 927      FFFF0100 
 927      0000
 928 045d E8000000 		call	_ZN8UnitTest11CurrentTest7ResultsEv
 928      00
 929 0462 488B00   		movq	(%rax), %rax
 930 0465 488D4DB0 		leaq	-80(%rbp), %rcx
 931 0469 488D5580 		leaq	-128(%rbp), %rdx
 932 046d 488DB57C 		leaq	-132(%rbp), %rsi
 932      FFFFFF
 933 0474 4889C7   		movq	%rax, %rdi
 934 0477 E8000000 		call	_ZN8UnitTest10CheckEqualIiiEEvRNS_11TestResultsERKT_RKT0_RKNS_11TestDetailsE
 934      00
 935              	.LEHE27:
 936              	.LBE14:
  51:TestTest.cpp  **** }
 937              		.loc 4 51 0 is_stmt 1
 938 047c E9830000 		jmp	.L50
 938      00
 939              	.L47:
 940 0481 4889C3   		movq	%rax, %rbx
 941              	.LBB17:
 942              	.LBB16:
  47:TestTest.cpp  **** 		FailingTest().Run();
 943              		.loc 4 47 0
 944 0484 488D45B0 		leaq	-80(%rbp), %rax
 945 0488 4889C7   		movq	%rax, %rdi
 946 048b E8240D00 		call	_ZZNK12_GLOBAL__N_126TestFailingTestHasFailures7RunImplEvEN11FailingTestD1Ev
 946      00
 947 0490 EB03     		jmp	.L42
 948              	.L46:
 949 0492 4889C3   		movq	%rax, %rbx
 950              	.L42:
 951 0495 488D4580 		leaq	-128(%rbp), %rax
 952 0499 4889C7   		movq	%rax, %rdi
 953 049c E8000000 		call	_ZN17ScopedCurrentTestD1Ev
 953      00
 954 04a1 4889D8   		movq	%rbx, %rax
 955 04a4 4889C7   		movq	%rax, %rdi
 956              	.LEHB28:
 957 04a7 E8000000 		call	_Unwind_Resume
 957      00
 958              	.LEHE28:
 959              	.L49:
 960 04ac 4889C3   		movq	%rax, %rbx
 961              	.LBE16:
  50:TestTest.cpp  **** }
 962              		.loc 4 50 0
 963 04af E8000000 		call	__cxa_end_catch
 963      00
 964 04b4 4889D8   		movq	%rbx, %rax
 965 04b7 4889C7   		movq	%rax, %rdi
 966              	.LEHB29:
 967 04ba E8000000 		call	_Unwind_Resume
 967      00
 968              	.LEHE29:
 969              	.L48:
 970 04bf 4889C7   		movq	%rax, %rdi
 971 04c2 E8000000 		call	__cxa_begin_catch
 971      00
 972              	.LEHB30:
 973 04c7 E8000000 		call	_ZN8UnitTest11CurrentTest7DetailsEv
 973      00
 974 04cc 488B08   		movq	(%rax), %rcx
 975 04cf 488D45B0 		leaq	-80(%rbp), %rax
 976 04d3 BA320000 		movl	$50, %edx
 976      00
 977 04d8 4889CE   		movq	%rcx, %rsi
 978 04db 4889C7   		movq	%rax, %rdi
 979 04de E8000000 		call	_ZN8UnitTest11TestDetailsC1ERKS0_i
 979      00
  50:TestTest.cpp  **** }
 980              		.loc 4 50 0 is_stmt 0 discriminator 1
 981 04e3 E8000000 		call	_ZN8UnitTest11CurrentTest7ResultsEv
 981      00
 982 04e8 488B00   		movq	(%rax), %rax
 983 04eb 488D4DB0 		leaq	-80(%rbp), %rcx
 984 04ef BA000000 		movl	$.LC12, %edx
 984      00
 985 04f4 4889CE   		movq	%rcx, %rsi
 986 04f7 4889C7   		movq	%rax, %rdi
 987 04fa E8000000 		call	_ZN8UnitTest11TestResults13OnTestFailureERKNS_11TestDetailsEPKc
 987      00
 988              	.LEHE30:
 989              	.LEHB31:
 990 04ff E8000000 		call	__cxa_end_catch
 990      00
 991              	.LEHE31:
 992              	.L50:
 993              	.LBE17:
 994              		.loc 4 51 0 is_stmt 1
 995 0504 90       		nop
 996 0505 4881C498 		addq	$152, %rsp
 996      000000
 997 050c 5B       		popq	%rbx
 998 050d 5D       		popq	%rbp
 999              		.cfi_def_cfa 7, 8
 1000 050e C3       		ret
 1001              		.cfi_endproc
 1002              	.LFE1039:
 1003              		.section	.gcc_except_table
 1004              		.align 4
 1005              	.LLSDA1039:
 1006 0074 FF       		.byte	0xff
 1007 0075 03       		.byte	0x3
 1008 0076 39       		.uleb128 .LLSDATT1039-.LLSDATTD1039
 1009              	.LLSDATTD1039:
 1010 0077 01       		.byte	0x1
 1011 0078 31       		.uleb128 .LLSDACSE1039-.LLSDACSB1039
 1012              	.LLSDACSB1039:
 1013 0079 1F       		.uleb128 .LEHB22-.LFB1039
 1014 007a 1D       		.uleb128 .LEHE22-.LEHB22
 1015 007b 00       		.uleb128 0
 1016 007c 00       		.uleb128 0
 1017 007d 43       		.uleb128 .LEHB23-.LFB1039
 1018 007e 05       		.uleb128 .LEHE23-.LEHB23
 1019 007f D601     		.uleb128 .L46-.LFB1039
 1020 0081 00       		.uleb128 0
 1021 0082 4F       		.uleb128 .LEHB24-.LFB1039
 1022 0083 05       		.uleb128 .LEHE24-.LEHB24
 1023 0084 C501     		.uleb128 .L47-.LFB1039
 1024 0086 00       		.uleb128 0
 1025 0087 5B       		.uleb128 .LEHB25-.LFB1039
 1026 0088 05       		.uleb128 .LEHE25-.LEHB25
 1027 0089 D601     		.uleb128 .L46-.LFB1039
 1028 008b 00       		.uleb128 0
 1029 008c 67       		.uleb128 .LEHB26-.LFB1039
 1030 008d 05       		.uleb128 .LEHE26-.LEHB26
 1031 008e 00       		.uleb128 0
 1032 008f 00       		.uleb128 0
 1033 0090 6C       		.uleb128 .LEHB27-.LFB1039
 1034 0091 54       		.uleb128 .LEHE27-.LEHB27
 1035 0092 8302     		.uleb128 .L48-.LFB1039
 1036 0094 01       		.uleb128 0x1
 1037 0095 EB01     		.uleb128 .LEHB28-.LFB1039
 1038 0097 05       		.uleb128 .LEHE28-.LEHB28
 1039 0098 00       		.uleb128 0
 1040 0099 00       		.uleb128 0
 1041 009a FE01     		.uleb128 .LEHB29-.LFB1039
 1042 009c 05       		.uleb128 .LEHE29-.LEHB29
 1043 009d 00       		.uleb128 0
 1044 009e 00       		.uleb128 0
 1045 009f 8B02     		.uleb128 .LEHB30-.LFB1039
 1046 00a1 38       		.uleb128 .LEHE30-.LEHB30
 1047 00a2 F001     		.uleb128 .L49-.LFB1039
 1048 00a4 00       		.uleb128 0
 1049 00a5 C302     		.uleb128 .LEHB31-.LFB1039
 1050 00a7 05       		.uleb128 .LEHE31-.LEHB31
 1051 00a8 00       		.uleb128 0
 1052 00a9 00       		.uleb128 0
 1053              	.LLSDACSE1039:
 1054 00aa 01       		.byte	0x1
 1055 00ab 00       		.byte	0
 1056              		.align 4
 1057 00ac 00000000 		.long	0
 1058              	
 1059              	.LLSDATT1039:
 1060              		.text
 1062              		.section	.rodata
 1063 0141 00000000 		.align 8
 1063      000000
 1064              	.LC13:
 1065 0148 5468726F 		.string	"ThrowingTestsAreReportedAsFailures"
 1065      77696E67 
 1065      54657374 
 1065      73417265 
 1065      5265706F 
 1066              		.text
 1067 050f 90       		.align 2
 1069              	_ZN12_GLOBAL__N_138TestThrowingTestsAreReportedAsFailuresC2Ev:
 1070              	.LFB1045:
  52:TestTest.cpp  **** 
  53:TestTest.cpp  **** 
  54:TestTest.cpp  **** TEST(ThrowingTestsAreReportedAsFailures)
 1071              		.loc 4 54 0
 1072              		.cfi_startproc
 1073 0510 55       		pushq	%rbp
 1074              		.cfi_def_cfa_offset 16
 1075              		.cfi_offset 6, -16
 1076 0511 4889E5   		movq	%rsp, %rbp
 1077              		.cfi_def_cfa_register 6
 1078 0514 4883EC10 		subq	$16, %rsp
 1079 0518 48897DF8 		movq	%rdi, -8(%rbp)
 1080              	.LBB18:
 1081              		.loc 4 54 0
 1082 051c E8000000 		call	_ZN13UnitTestSuite12GetSuiteNameEv
 1082      00
 1083 0521 4889C2   		movq	%rax, %rdx
 1084 0524 488B45F8 		movq	-8(%rbp), %rax
 1085 0528 41B83600 		movl	$54, %r8d
 1085      0000
 1086 052e B9000000 		movl	$.LC1, %ecx
 1086      00
 1087 0533 BE000000 		movl	$.LC13, %esi
 1087      00
 1088 0538 4889C7   		movq	%rax, %rdi
 1089 053b E8000000 		call	_ZN8UnitTest4TestC2EPKcS2_S2_i
 1089      00
 1090 0540 488B45F8 		movq	-8(%rbp), %rax
 1091 0544 48C70000 		movq	$_ZTVN12_GLOBAL__N_138TestThrowingTestsAreReportedAsFailuresE+16, (%rax)
 1091      000000
 1092              	.LBE18:
 1093 054b C9       		leave
 1094              		.cfi_def_cfa 7, 8
 1095 054c C3       		ret
 1096              		.cfi_endproc
 1097              	.LFE1045:
 1099              		.set	_ZN12_GLOBAL__N_138TestThrowingTestsAreReportedAsFailuresC1Ev,_ZN12_GLOBAL__N_138TestThrowing
 1100              		.local	_ZN12_GLOBAL__N_146testThrowingTestsAreReportedAsFailuresInstanceE
 1101              		.comm	_ZN12_GLOBAL__N_146testThrowingTestsAreReportedAsFailuresInstanceE,56,32
 1102              		.local	_ZN12_GLOBAL__N_139adderThrowingTestsAreReportedAsFailuresE
 1103              		.comm	_ZN12_GLOBAL__N_139adderThrowingTestsAreReportedAsFailuresE,1,1
 1104              		.section	.rodata
 1105              	.LC14:
 1106 016b 7468726F 		.string	"throwing"
 1106      77696E67 
 1106      00
 1107              		.text
 1108 054d 90       		.align 2
 1110              	_ZZNK12_GLOBAL__N_138TestThrowingTestsAreReportedAsFailures7RunImplEvEN12CrashingTestC2Ev:
 1111              	.LFB1049:
  55:TestTest.cpp  **** {
  56:TestTest.cpp  ****     class CrashingTest : public Test
  57:TestTest.cpp  ****     {
  58:TestTest.cpp  ****     public:
  59:TestTest.cpp  ****         CrashingTest() : Test("throwing") {}
 1112              		.loc 4 59 0
 1113              		.cfi_startproc
 1114 054e 55       		pushq	%rbp
 1115              		.cfi_def_cfa_offset 16
 1116              		.cfi_offset 6, -16
 1117 054f 4889E5   		movq	%rsp, %rbp
 1118              		.cfi_def_cfa_register 6
 1119 0552 4883EC10 		subq	$16, %rsp
 1120 0556 48897DF8 		movq	%rdi, -8(%rbp)
 1121              	.LBB19:
 1122              		.loc 4 59 0
 1123 055a 488B45F8 		movq	-8(%rbp), %rax
 1124 055e 41B80000 		movl	$0, %r8d
 1124      0000
 1125 0564 B9000000 		movl	$.LC3, %ecx
 1125      00
 1126 0569 BA000000 		movl	$.LC0, %edx
 1126      00
 1127 056e BE000000 		movl	$.LC14, %esi
 1127      00
 1128 0573 4889C7   		movq	%rax, %rdi
 1129 0576 E8000000 		call	_ZN8UnitTest4TestC2EPKcS2_S2_i
 1129      00
 1130 057b 488B45F8 		movq	-8(%rbp), %rax
 1131 057f 48C70000 		movq	$_ZTVZNK12_GLOBAL__N_138TestThrowingTestsAreReportedAsFailures7RunImplEvE12CrashingTest+16, (
 1131      000000
 1132              	.LBE19:
 1133 0586 C9       		leave
 1134              		.cfi_def_cfa 7, 8
 1135 0587 C3       		ret
 1136              		.cfi_endproc
 1137              	.LFE1049:
 1139              		.set	_ZZNK12_GLOBAL__N_138TestThrowingTestsAreReportedAsFailures7RunImplEvEN12CrashingTestC1Ev,_ZZ
 1140              		.section	.rodata
 1141              	.LC15:
 1142 0174 426C6168 		.string	"Blah"
 1142      00
 1143              		.text
 1144              		.align 2
 1146              	_ZZNK12_GLOBAL__N_138TestThrowingTestsAreReportedAsFailures7RunImplEvENK12CrashingTest7RunImplEv:
 1147              	.LFB1051:
  60:TestTest.cpp  ****         virtual void RunImpl() const
 1148              		.loc 4 60 0
 1149              		.cfi_startproc
 1150 0588 55       		pushq	%rbp
 1151              		.cfi_def_cfa_offset 16
 1152              		.cfi_offset 6, -16
 1153 0589 4889E5   		movq	%rsp, %rbp
 1154              		.cfi_def_cfa_register 6
 1155 058c 4883EC10 		subq	$16, %rsp
 1156 0590 48897DF8 		movq	%rdi, -8(%rbp)
  61:TestTest.cpp  ****         {
  62:TestTest.cpp  ****             throw "Blah";
 1157              		.loc 4 62 0
 1158 0594 BF080000 		movl	$8, %edi
 1158      00
 1159 0599 E8000000 		call	__cxa_allocate_exception
 1159      00
 1160 059e 48C70000 		movq	$.LC15, (%rax)
 1160      000000
 1161 05a5 BA000000 		movl	$0, %edx
 1161      00
 1162 05aa BE000000 		movl	$_ZTIPKc, %esi
 1162      00
 1163 05af 4889C7   		movq	%rax, %rdi
 1164 05b2 E8000000 		call	__cxa_throw
 1164      00
 1165              		.cfi_endproc
 1166              	.LFE1051:
 1168 05b7 90       		.align 2
 1170              	_ZNK12_GLOBAL__N_138TestThrowingTestsAreReportedAsFailures7RunImplEv:
 1171              	.LFB1047:
  55:TestTest.cpp  ****     class CrashingTest : public Test
 1172              		.loc 4 55 0
 1173              		.cfi_startproc
 1174              		.cfi_personality 0x3,__gxx_personality_v0
 1175              		.cfi_lsda 0x3,.LLSDA1047
 1176 05b8 55       		pushq	%rbp
 1177              		.cfi_def_cfa_offset 16
 1178              		.cfi_offset 6, -16
 1179 05b9 4889E5   		movq	%rsp, %rbp
 1180              		.cfi_def_cfa_register 6
 1181 05bc 53       		pushq	%rbx
 1182 05bd 4881EC98 		subq	$152, %rsp
 1182      000000
 1183              		.cfi_offset 3, -24
 1184 05c4 4889BD68 		movq	%rdi, -152(%rbp)
 1184      FFFFFF
 1185              	.LBB20:
  63:TestTest.cpp  ****         }
  64:TestTest.cpp  ****     };
  65:TestTest.cpp  ****  
  66:TestTest.cpp  ****     TestResults results;
 1186              		.loc 4 66 0
 1187 05cb 488D4590 		leaq	-112(%rbp), %rax
 1188 05cf BE000000 		movl	$0, %esi
 1188      00
 1189 05d4 4889C7   		movq	%rax, %rdi
 1190              	.LEHB32:
 1191 05d7 E8000000 		call	_ZN8UnitTest11TestResultsC1EPNS_12TestReporterE
 1191      00
 1192              	.LBB21:
  67:TestTest.cpp  **** 	{
  68:TestTest.cpp  **** 		ScopedCurrentTest scopedResult(results);
 1193              		.loc 4 68 0
 1194 05dc 488D4D90 		leaq	-112(%rbp), %rcx
 1195 05e0 488D4580 		leaq	-128(%rbp), %rax
 1196 05e4 BA000000 		movl	$0, %edx
 1196      00
 1197 05e9 4889CE   		movq	%rcx, %rsi
 1198 05ec 4889C7   		movq	%rax, %rdi
 1199 05ef E8000000 		call	_ZN17ScopedCurrentTestC1ERN8UnitTest11TestResultsEPKNS0_11TestDetailsE
 1199      00
 1200              	.LEHE32:
  69:TestTest.cpp  **** 		CrashingTest().Run();
 1201              		.loc 4 69 0
 1202 05f4 488D45B0 		leaq	-80(%rbp), %rax
 1203 05f8 4889C7   		movq	%rax, %rdi
 1204              	.LEHB33:
 1205 05fb E84EFFFF 		call	_ZZNK12_GLOBAL__N_138TestThrowingTestsAreReportedAsFailures7RunImplEvEN12CrashingTestC1Ev
 1205      FF
 1206              	.LEHE33:
 1207              		.loc 4 69 0 is_stmt 0 discriminator 1
 1208 0600 488D45B0 		leaq	-80(%rbp), %rax
 1209 0604 4889C7   		movq	%rax, %rdi
 1210              	.LEHB34:
 1211 0607 E8000000 		call	_ZN8UnitTest4Test3RunEv
 1211      00
 1212              	.LEHE34:
 1213 060c 488D45B0 		leaq	-80(%rbp), %rax
 1214 0610 4889C7   		movq	%rax, %rdi
 1215              	.LEHB35:
 1216 0613 E8DC0A00 		call	_ZZNK12_GLOBAL__N_138TestThrowingTestsAreReportedAsFailures7RunImplEvEN12CrashingTestD1Ev
 1216      00
 1217              	.LEHE35:
 1218              		.loc 4 69 0 discriminator 2
 1219 0618 488D4580 		leaq	-128(%rbp), %rax
 1220 061c 4889C7   		movq	%rax, %rdi
 1221              	.LEHB36:
 1222 061f E8000000 		call	_ZN17ScopedCurrentTestD1Ev
 1222      00
 1223              	.LEHE36:
 1224              	.LEHB37:
 1225              	.LBE21:
  70:TestTest.cpp  **** 	}
  71:TestTest.cpp  **** 
  72:TestTest.cpp  **** 	CHECK_EQUAL(1, results.GetFailureCount());
 1226              		.loc 4 72 0 is_stmt 1 discriminator 2
 1227 0624 E8000000 		call	_ZN8UnitTest11CurrentTest7DetailsEv
 1227      00
 1228 0629 488B08   		movq	(%rax), %rcx
 1229 062c 488D45B0 		leaq	-80(%rbp), %rax
 1230 0630 BA480000 		movl	$72, %edx
 1230      00
 1231 0635 4889CE   		movq	%rcx, %rsi
 1232 0638 4889C7   		movq	%rax, %rdi
 1233 063b E8000000 		call	_ZN8UnitTest11TestDetailsC1ERKS0_i
 1233      00
 1234              		.loc 4 72 0 is_stmt 0 discriminator 1
 1235 0640 488D4590 		leaq	-112(%rbp), %rax
 1236 0644 4889C7   		movq	%rax, %rdi
 1237 0647 E8000000 		call	_ZNK8UnitTest11TestResults15GetFailureCountEv
 1237      00
 1238 064c 894580   		movl	%eax, -128(%rbp)
 1239 064f C7857CFF 		movl	$1, -132(%rbp)
 1239      FFFF0100 
 1239      0000
 1240 0659 E8000000 		call	_ZN8UnitTest11CurrentTest7ResultsEv
 1240      00
 1241 065e 488B00   		movq	(%rax), %rax
 1242 0661 488D4DB0 		leaq	-80(%rbp), %rcx
 1243 0665 488D5580 		leaq	-128(%rbp), %rdx
 1244 0669 488DB57C 		leaq	-132(%rbp), %rsi
 1244      FFFFFF
 1245 0670 4889C7   		movq	%rax, %rdi
 1246 0673 E8000000 		call	_ZN8UnitTest10CheckEqualIiiEEvRNS_11TestResultsERKT_RKT0_RKNS_11TestDetailsE
 1246      00
 1247              	.LEHE37:
 1248              	.LBE20:
  73:TestTest.cpp  **** }
 1249              		.loc 4 73 0 is_stmt 1
 1250 0678 E9830000 		jmp	.L64
 1250      00
 1251              	.L61:
 1252 067d 4889C3   		movq	%rax, %rbx
 1253              	.LBB23:
 1254              	.LBB22:
  69:TestTest.cpp  **** 		CrashingTest().Run();
 1255              		.loc 4 69 0
 1256 0680 488D45B0 		leaq	-80(%rbp), %rax
 1257 0684 4889C7   		movq	%rax, %rdi
 1258 0687 E8680A00 		call	_ZZNK12_GLOBAL__N_138TestThrowingTestsAreReportedAsFailures7RunImplEvEN12CrashingTestD1Ev
 1258      00
 1259 068c EB03     		jmp	.L56
 1260              	.L60:
 1261 068e 4889C3   		movq	%rax, %rbx
 1262              	.L56:
 1263 0691 488D4580 		leaq	-128(%rbp), %rax
 1264 0695 4889C7   		movq	%rax, %rdi
 1265 0698 E8000000 		call	_ZN17ScopedCurrentTestD1Ev
 1265      00
 1266 069d 4889D8   		movq	%rbx, %rax
 1267 06a0 4889C7   		movq	%rax, %rdi
 1268              	.LEHB38:
 1269 06a3 E8000000 		call	_Unwind_Resume
 1269      00
 1270              	.LEHE38:
 1271              	.L63:
 1272 06a8 4889C3   		movq	%rax, %rbx
 1273              	.LBE22:
  72:TestTest.cpp  **** }
 1274              		.loc 4 72 0
 1275 06ab E8000000 		call	__cxa_end_catch
 1275      00
 1276 06b0 4889D8   		movq	%rbx, %rax
 1277 06b3 4889C7   		movq	%rax, %rdi
 1278              	.LEHB39:
 1279 06b6 E8000000 		call	_Unwind_Resume
 1279      00
 1280              	.LEHE39:
 1281              	.L62:
 1282 06bb 4889C7   		movq	%rax, %rdi
 1283 06be E8000000 		call	__cxa_begin_catch
 1283      00
 1284              	.LEHB40:
 1285 06c3 E8000000 		call	_ZN8UnitTest11CurrentTest7DetailsEv
 1285      00
 1286 06c8 488B08   		movq	(%rax), %rcx
 1287 06cb 488D45B0 		leaq	-80(%rbp), %rax
 1288 06cf BA480000 		movl	$72, %edx
 1288      00
 1289 06d4 4889CE   		movq	%rcx, %rsi
 1290 06d7 4889C7   		movq	%rax, %rdi
 1291 06da E8000000 		call	_ZN8UnitTest11TestDetailsC1ERKS0_i
 1291      00
  72:TestTest.cpp  **** }
 1292              		.loc 4 72 0 is_stmt 0 discriminator 1
 1293 06df E8000000 		call	_ZN8UnitTest11CurrentTest7ResultsEv
 1293      00
 1294 06e4 488B00   		movq	(%rax), %rax
 1295 06e7 488D4DB0 		leaq	-80(%rbp), %rcx
 1296 06eb BA000000 		movl	$.LC12, %edx
 1296      00
 1297 06f0 4889CE   		movq	%rcx, %rsi
 1298 06f3 4889C7   		movq	%rax, %rdi
 1299 06f6 E8000000 		call	_ZN8UnitTest11TestResults13OnTestFailureERKNS_11TestDetailsEPKc
 1299      00
 1300              	.LEHE40:
 1301              	.LEHB41:
 1302 06fb E8000000 		call	__cxa_end_catch
 1302      00
 1303              	.LEHE41:
 1304              	.L64:
 1305              	.LBE23:
 1306              		.loc 4 73 0 is_stmt 1
 1307 0700 90       		nop
 1308 0701 4881C498 		addq	$152, %rsp
 1308      000000
 1309 0708 5B       		popq	%rbx
 1310 0709 5D       		popq	%rbp
 1311              		.cfi_def_cfa 7, 8
 1312 070a C3       		ret
 1313              		.cfi_endproc
 1314              	.LFE1047:
 1315              		.section	.gcc_except_table
 1316              		.align 4
 1317              	.LLSDA1047:
 1318 00b0 FF       		.byte	0xff
 1319 00b1 03       		.byte	0x3
 1320 00b2 39       		.uleb128 .LLSDATT1047-.LLSDATTD1047
 1321              	.LLSDATTD1047:
 1322 00b3 01       		.byte	0x1
 1323 00b4 31       		.uleb128 .LLSDACSE1047-.LLSDACSB1047
 1324              	.LLSDACSB1047:
 1325 00b5 1F       		.uleb128 .LEHB32-.LFB1047
 1326 00b6 1D       		.uleb128 .LEHE32-.LEHB32
 1327 00b7 00       		.uleb128 0
 1328 00b8 00       		.uleb128 0
 1329 00b9 43       		.uleb128 .LEHB33-.LFB1047
 1330 00ba 05       		.uleb128 .LEHE33-.LEHB33
 1331 00bb D601     		.uleb128 .L60-.LFB1047
 1332 00bd 00       		.uleb128 0
 1333 00be 4F       		.uleb128 .LEHB34-.LFB1047
 1334 00bf 05       		.uleb128 .LEHE34-.LEHB34
 1335 00c0 C501     		.uleb128 .L61-.LFB1047
 1336 00c2 00       		.uleb128 0
 1337 00c3 5B       		.uleb128 .LEHB35-.LFB1047
 1338 00c4 05       		.uleb128 .LEHE35-.LEHB35
 1339 00c5 D601     		.uleb128 .L60-.LFB1047
 1340 00c7 00       		.uleb128 0
 1341 00c8 67       		.uleb128 .LEHB36-.LFB1047
 1342 00c9 05       		.uleb128 .LEHE36-.LEHB36
 1343 00ca 00       		.uleb128 0
 1344 00cb 00       		.uleb128 0
 1345 00cc 6C       		.uleb128 .LEHB37-.LFB1047
 1346 00cd 54       		.uleb128 .LEHE37-.LEHB37
 1347 00ce 8302     		.uleb128 .L62-.LFB1047
 1348 00d0 01       		.uleb128 0x1
 1349 00d1 EB01     		.uleb128 .LEHB38-.LFB1047
 1350 00d3 05       		.uleb128 .LEHE38-.LEHB38
 1351 00d4 00       		.uleb128 0
 1352 00d5 00       		.uleb128 0
 1353 00d6 FE01     		.uleb128 .LEHB39-.LFB1047
 1354 00d8 05       		.uleb128 .LEHE39-.LEHB39
 1355 00d9 00       		.uleb128 0
 1356 00da 00       		.uleb128 0
 1357 00db 8B02     		.uleb128 .LEHB40-.LFB1047
 1358 00dd 38       		.uleb128 .LEHE40-.LEHB40
 1359 00de F001     		.uleb128 .L63-.LFB1047
 1360 00e0 00       		.uleb128 0
 1361 00e1 C302     		.uleb128 .LEHB41-.LFB1047
 1362 00e3 05       		.uleb128 .LEHE41-.LEHB41
 1363 00e4 00       		.uleb128 0
 1364 00e5 00       		.uleb128 0
 1365              	.LLSDACSE1047:
 1366 00e6 01       		.byte	0x1
 1367 00e7 00       		.byte	0
 1368              		.align 4
 1369 00e8 00000000 		.long	0
 1370              	
 1371              	.LLSDATT1047:
 1372              		.text
 1374              		.section	.rodata
 1375 0179 00000000 		.align 8
 1375      000000
 1376              	.LC16:
 1377 0180 43726173 		.string	"CrashingTestsAreReportedAsFailures"
 1377      68696E67 
 1377      54657374 
 1377      73417265 
 1377      5265706F 
 1378              		.text
 1379 070b 90       		.align 2
 1381              	_ZN12_GLOBAL__N_138TestCrashingTestsAreReportedAsFailuresC2Ev:
 1382              	.LFB1053:
  74:TestTest.cpp  **** 
  75:TestTest.cpp  **** 
  76:TestTest.cpp  **** #ifndef UNITTEST_MINGW
  77:TestTest.cpp  **** TEST(CrashingTestsAreReportedAsFailures)
 1383              		.loc 4 77 0
 1384              		.cfi_startproc
 1385 070c 55       		pushq	%rbp
 1386              		.cfi_def_cfa_offset 16
 1387              		.cfi_offset 6, -16
 1388 070d 4889E5   		movq	%rsp, %rbp
 1389              		.cfi_def_cfa_register 6
 1390 0710 4883EC10 		subq	$16, %rsp
 1391 0714 48897DF8 		movq	%rdi, -8(%rbp)
 1392              	.LBB24:
 1393              		.loc 4 77 0
 1394 0718 E8000000 		call	_ZN13UnitTestSuite12GetSuiteNameEv
 1394      00
 1395 071d 4889C2   		movq	%rax, %rdx
 1396 0720 488B45F8 		movq	-8(%rbp), %rax
 1397 0724 41B84D00 		movl	$77, %r8d
 1397      0000
 1398 072a B9000000 		movl	$.LC1, %ecx
 1398      00
 1399 072f BE000000 		movl	$.LC16, %esi
 1399      00
 1400 0734 4889C7   		movq	%rax, %rdi
 1401 0737 E8000000 		call	_ZN8UnitTest4TestC2EPKcS2_S2_i
 1401      00
 1402 073c 488B45F8 		movq	-8(%rbp), %rax
 1403 0740 48C70000 		movq	$_ZTVN12_GLOBAL__N_138TestCrashingTestsAreReportedAsFailuresE+16, (%rax)
 1403      000000
 1404              	.LBE24:
 1405 0747 C9       		leave
 1406              		.cfi_def_cfa 7, 8
 1407 0748 C3       		ret
 1408              		.cfi_endproc
 1409              	.LFE1053:
 1411              		.set	_ZN12_GLOBAL__N_138TestCrashingTestsAreReportedAsFailuresC1Ev,_ZN12_GLOBAL__N_138TestCrashing
 1412              		.local	_ZN12_GLOBAL__N_146testCrashingTestsAreReportedAsFailuresInstanceE
 1413              		.comm	_ZN12_GLOBAL__N_146testCrashingTestsAreReportedAsFailuresInstanceE,56,32
 1414              		.local	_ZN12_GLOBAL__N_139adderCrashingTestsAreReportedAsFailuresE
 1415              		.comm	_ZN12_GLOBAL__N_139adderCrashingTestsAreReportedAsFailuresE,1,1
 1416              		.section	.rodata
 1417              	.LC17:
 1418 01a3 63726173 		.string	"crashing"
 1418      68696E67 
 1418      00
 1419              		.text
 1420 0749 90       		.align 2
 1422              	_ZZNK12_GLOBAL__N_138TestCrashingTestsAreReportedAsFailures7RunImplEvEN12CrashingTestC2Ev:
 1423              	.LFB1057:
  78:TestTest.cpp  **** {
  79:TestTest.cpp  ****     class CrashingTest : public Test
  80:TestTest.cpp  ****     {
  81:TestTest.cpp  ****     public:
  82:TestTest.cpp  ****         CrashingTest() : Test("crashing") {}
 1424              		.loc 4 82 0
 1425              		.cfi_startproc
 1426 074a 55       		pushq	%rbp
 1427              		.cfi_def_cfa_offset 16
 1428              		.cfi_offset 6, -16
 1429 074b 4889E5   		movq	%rsp, %rbp
 1430              		.cfi_def_cfa_register 6
 1431 074e 4883EC10 		subq	$16, %rsp
 1432 0752 48897DF8 		movq	%rdi, -8(%rbp)
 1433              	.LBB25:
 1434              		.loc 4 82 0
 1435 0756 488B45F8 		movq	-8(%rbp), %rax
 1436 075a 41B80000 		movl	$0, %r8d
 1436      0000
 1437 0760 B9000000 		movl	$.LC3, %ecx
 1437      00
 1438 0765 BA000000 		movl	$.LC0, %edx
 1438      00
 1439 076a BE000000 		movl	$.LC17, %esi
 1439      00
 1440 076f 4889C7   		movq	%rax, %rdi
 1441 0772 E8000000 		call	_ZN8UnitTest4TestC2EPKcS2_S2_i
 1441      00
 1442 0777 488B45F8 		movq	-8(%rbp), %rax
 1443 077b 48C70000 		movq	$_ZTVZNK12_GLOBAL__N_138TestCrashingTestsAreReportedAsFailures7RunImplEvE12CrashingTest+16, (
 1443      000000
 1444              	.LBE25:
 1445 0782 C9       		leave
 1446              		.cfi_def_cfa 7, 8
 1447 0783 C3       		ret
 1448              		.cfi_endproc
 1449              	.LFE1057:
 1451              		.set	_ZZNK12_GLOBAL__N_138TestCrashingTestsAreReportedAsFailures7RunImplEvEN12CrashingTestC1Ev,_ZZ
 1452              		.align 2
 1454              	_ZZNK12_GLOBAL__N_138TestCrashingTestsAreReportedAsFailures7RunImplEvENK12CrashingTest7RunImplEv:
 1455              	.LFB1059:
  83:TestTest.cpp  ****         virtual void RunImpl() const
 1456              		.loc 4 83 0
 1457              		.cfi_startproc
 1458 0784 55       		pushq	%rbp
 1459              		.cfi_def_cfa_offset 16
 1460              		.cfi_offset 6, -16
 1461 0785 4889E5   		movq	%rsp, %rbp
 1462              		.cfi_def_cfa_register 6
 1463 0788 48897DE8 		movq	%rdi, -24(%rbp)
 1464              	.LBB26:
  84:TestTest.cpp  ****         {
  85:TestTest.cpp  ****             int *p = NULL;
 1465              		.loc 4 85 0
 1466 078c 48C745F8 		movq	$0, -8(%rbp)
 1466      00000000 
  86:TestTest.cpp  ****             *p = 42;
 1467              		.loc 4 86 0
 1468 0794 488B45F8 		movq	-8(%rbp), %rax
 1469 0798 C7002A00 		movl	$42, (%rax)
 1469      0000
 1470              	.LBE26:
  87:TestTest.cpp  ****             // TODO: restore this jump to NULL when QEMU-Linaro fixes hanging issue
  88:TestTest.cpp  ****             // reinterpret_cast< void (*)() >(0)();
  89:TestTest.cpp  ****         }
 1471              		.loc 4 89 0
 1472 079e 5D       		popq	%rbp
 1473              		.cfi_def_cfa 7, 8
 1474 079f C3       		ret
 1475              		.cfi_endproc
 1476              	.LFE1059:
 1478              		.align 2
 1480              	_ZNK12_GLOBAL__N_138TestCrashingTestsAreReportedAsFailures7RunImplEv:
 1481              	.LFB1055:
  78:TestTest.cpp  ****     class CrashingTest : public Test
 1482              		.loc 4 78 0
 1483              		.cfi_startproc
 1484              		.cfi_personality 0x3,__gxx_personality_v0
 1485              		.cfi_lsda 0x3,.LLSDA1055
 1486 07a0 55       		pushq	%rbp
 1487              		.cfi_def_cfa_offset 16
 1488              		.cfi_offset 6, -16
 1489 07a1 4889E5   		movq	%rsp, %rbp
 1490              		.cfi_def_cfa_register 6
 1491 07a4 53       		pushq	%rbx
 1492 07a5 4881EC98 		subq	$152, %rsp
 1492      000000
 1493              		.cfi_offset 3, -24
 1494 07ac 4889BD68 		movq	%rdi, -152(%rbp)
 1494      FFFFFF
 1495              	.LBB27:
  90:TestTest.cpp  ****     };
  91:TestTest.cpp  **** 
  92:TestTest.cpp  ****     TestResults results;
 1496              		.loc 4 92 0
 1497 07b3 488D4590 		leaq	-112(%rbp), %rax
 1498 07b7 BE000000 		movl	$0, %esi
 1498      00
 1499 07bc 4889C7   		movq	%rax, %rdi
 1500              	.LEHB42:
 1501 07bf E8000000 		call	_ZN8UnitTest11TestResultsC1EPNS_12TestReporterE
 1501      00
 1502              	.LBB28:
  93:TestTest.cpp  **** 	{
  94:TestTest.cpp  **** 		ScopedCurrentTest scopedResult(results);
 1503              		.loc 4 94 0
 1504 07c4 488D4D90 		leaq	-112(%rbp), %rcx
 1505 07c8 488D4580 		leaq	-128(%rbp), %rax
 1506 07cc BA000000 		movl	$0, %edx
 1506      00
 1507 07d1 4889CE   		movq	%rcx, %rsi
 1508 07d4 4889C7   		movq	%rax, %rdi
 1509 07d7 E8000000 		call	_ZN17ScopedCurrentTestC1ERN8UnitTest11TestResultsEPKNS0_11TestDetailsE
 1509      00
 1510              	.LEHE42:
  95:TestTest.cpp  **** 		CrashingTest().Run();
 1511              		.loc 4 95 0
 1512 07dc 488D45B0 		leaq	-80(%rbp), %rax
 1513 07e0 4889C7   		movq	%rax, %rdi
 1514              	.LEHB43:
 1515 07e3 E862FFFF 		call	_ZZNK12_GLOBAL__N_138TestCrashingTestsAreReportedAsFailures7RunImplEvEN12CrashingTestC1Ev
 1515      FF
 1516              	.LEHE43:
 1517              		.loc 4 95 0 is_stmt 0 discriminator 1
 1518 07e8 488D45B0 		leaq	-80(%rbp), %rax
 1519 07ec 4889C7   		movq	%rax, %rdi
 1520              	.LEHB44:
 1521 07ef E8000000 		call	_ZN8UnitTest4Test3RunEv
 1521      00
 1522              	.LEHE44:
 1523 07f4 488D45B0 		leaq	-80(%rbp), %rax
 1524 07f8 4889C7   		movq	%rax, %rdi
 1525              	.LEHB45:
 1526 07fb E8340800 		call	_ZZNK12_GLOBAL__N_138TestCrashingTestsAreReportedAsFailures7RunImplEvEN12CrashingTestD1Ev
 1526      00
 1527              	.LEHE45:
 1528              		.loc 4 95 0 discriminator 2
 1529 0800 488D4580 		leaq	-128(%rbp), %rax
 1530 0804 4889C7   		movq	%rax, %rdi
 1531              	.LEHB46:
 1532 0807 E8000000 		call	_ZN17ScopedCurrentTestD1Ev
 1532      00
 1533              	.LEHE46:
 1534              	.LEHB47:
 1535              	.LBE28:
  96:TestTest.cpp  **** 	}
  97:TestTest.cpp  **** 
  98:TestTest.cpp  **** 	CHECK_EQUAL(1, results.GetFailureCount());
 1536              		.loc 4 98 0 is_stmt 1 discriminator 2
 1537 080c E8000000 		call	_ZN8UnitTest11CurrentTest7DetailsEv
 1537      00
 1538 0811 488B08   		movq	(%rax), %rcx
 1539 0814 488D45B0 		leaq	-80(%rbp), %rax
 1540 0818 BA620000 		movl	$98, %edx
 1540      00
 1541 081d 4889CE   		movq	%rcx, %rsi
 1542 0820 4889C7   		movq	%rax, %rdi
 1543 0823 E8000000 		call	_ZN8UnitTest11TestDetailsC1ERKS0_i
 1543      00
 1544              		.loc 4 98 0 is_stmt 0 discriminator 1
 1545 0828 488D4590 		leaq	-112(%rbp), %rax
 1546 082c 4889C7   		movq	%rax, %rdi
 1547 082f E8000000 		call	_ZNK8UnitTest11TestResults15GetFailureCountEv
 1547      00
 1548 0834 894580   		movl	%eax, -128(%rbp)
 1549 0837 C7857CFF 		movl	$1, -132(%rbp)
 1549      FFFF0100 
 1549      0000
 1550 0841 E8000000 		call	_ZN8UnitTest11CurrentTest7ResultsEv
 1550      00
 1551 0846 488B00   		movq	(%rax), %rax
 1552 0849 488D4DB0 		leaq	-80(%rbp), %rcx
 1553 084d 488D5580 		leaq	-128(%rbp), %rdx
 1554 0851 488DB57C 		leaq	-132(%rbp), %rsi
 1554      FFFFFF
 1555 0858 4889C7   		movq	%rax, %rdi
 1556 085b E8000000 		call	_ZN8UnitTest10CheckEqualIiiEEvRNS_11TestResultsERKT_RKT0_RKNS_11TestDetailsE
 1556      00
 1557              	.LEHE47:
 1558              	.LBE27:
  99:TestTest.cpp  **** }
 1559              		.loc 4 99 0 is_stmt 1
 1560 0860 E9830000 		jmp	.L78
 1560      00
 1561              	.L75:
 1562 0865 4889C3   		movq	%rax, %rbx
 1563              	.LBB30:
 1564              	.LBB29:
  95:TestTest.cpp  **** 		CrashingTest().Run();
 1565              		.loc 4 95 0
 1566 0868 488D45B0 		leaq	-80(%rbp), %rax
 1567 086c 4889C7   		movq	%rax, %rdi
 1568 086f E8C00700 		call	_ZZNK12_GLOBAL__N_138TestCrashingTestsAreReportedAsFailures7RunImplEvEN12CrashingTestD1Ev
 1568      00
 1569 0874 EB03     		jmp	.L70
 1570              	.L74:
 1571 0876 4889C3   		movq	%rax, %rbx
 1572              	.L70:
 1573 0879 488D4580 		leaq	-128(%rbp), %rax
 1574 087d 4889C7   		movq	%rax, %rdi
 1575 0880 E8000000 		call	_ZN17ScopedCurrentTestD1Ev
 1575      00
 1576 0885 4889D8   		movq	%rbx, %rax
 1577 0888 4889C7   		movq	%rax, %rdi
 1578              	.LEHB48:
 1579 088b E8000000 		call	_Unwind_Resume
 1579      00
 1580              	.LEHE48:
 1581              	.L77:
 1582 0890 4889C3   		movq	%rax, %rbx
 1583              	.LBE29:
  98:TestTest.cpp  **** }
 1584              		.loc 4 98 0
 1585 0893 E8000000 		call	__cxa_end_catch
 1585      00
 1586 0898 4889D8   		movq	%rbx, %rax
 1587 089b 4889C7   		movq	%rax, %rdi
 1588              	.LEHB49:
 1589 089e E8000000 		call	_Unwind_Resume
 1589      00
 1590              	.LEHE49:
 1591              	.L76:
 1592 08a3 4889C7   		movq	%rax, %rdi
 1593 08a6 E8000000 		call	__cxa_begin_catch
 1593      00
 1594              	.LEHB50:
 1595 08ab E8000000 		call	_ZN8UnitTest11CurrentTest7DetailsEv
 1595      00
 1596 08b0 488B08   		movq	(%rax), %rcx
 1597 08b3 488D45B0 		leaq	-80(%rbp), %rax
 1598 08b7 BA620000 		movl	$98, %edx
 1598      00
 1599 08bc 4889CE   		movq	%rcx, %rsi
 1600 08bf 4889C7   		movq	%rax, %rdi
 1601 08c2 E8000000 		call	_ZN8UnitTest11TestDetailsC1ERKS0_i
 1601      00
  98:TestTest.cpp  **** }
 1602              		.loc 4 98 0 is_stmt 0 discriminator 1
 1603 08c7 E8000000 		call	_ZN8UnitTest11CurrentTest7ResultsEv
 1603      00
 1604 08cc 488B00   		movq	(%rax), %rax
 1605 08cf 488D4DB0 		leaq	-80(%rbp), %rcx
 1606 08d3 BA000000 		movl	$.LC12, %edx
 1606      00
 1607 08d8 4889CE   		movq	%rcx, %rsi
 1608 08db 4889C7   		movq	%rax, %rdi
 1609 08de E8000000 		call	_ZN8UnitTest11TestResults13OnTestFailureERKNS_11TestDetailsEPKc
 1609      00
 1610              	.LEHE50:
 1611              	.LEHB51:
 1612 08e3 E8000000 		call	__cxa_end_catch
 1612      00
 1613              	.LEHE51:
 1614              	.L78:
 1615              	.LBE30:
 1616              		.loc 4 99 0 is_stmt 1
 1617 08e8 90       		nop
 1618 08e9 4881C498 		addq	$152, %rsp
 1618      000000
 1619 08f0 5B       		popq	%rbx
 1620 08f1 5D       		popq	%rbp
 1621              		.cfi_def_cfa 7, 8
 1622 08f2 C3       		ret
 1623              		.cfi_endproc
 1624              	.LFE1055:
 1625              		.section	.gcc_except_table
 1626              		.align 4
 1627              	.LLSDA1055:
 1628 00ec FF       		.byte	0xff
 1629 00ed 03       		.byte	0x3
 1630 00ee 39       		.uleb128 .LLSDATT1055-.LLSDATTD1055
 1631              	.LLSDATTD1055:
 1632 00ef 01       		.byte	0x1
 1633 00f0 31       		.uleb128 .LLSDACSE1055-.LLSDACSB1055
 1634              	.LLSDACSB1055:
 1635 00f1 1F       		.uleb128 .LEHB42-.LFB1055
 1636 00f2 1D       		.uleb128 .LEHE42-.LEHB42
 1637 00f3 00       		.uleb128 0
 1638 00f4 00       		.uleb128 0
 1639 00f5 43       		.uleb128 .LEHB43-.LFB1055
 1640 00f6 05       		.uleb128 .LEHE43-.LEHB43
 1641 00f7 D601     		.uleb128 .L74-.LFB1055
 1642 00f9 00       		.uleb128 0
 1643 00fa 4F       		.uleb128 .LEHB44-.LFB1055
 1644 00fb 05       		.uleb128 .LEHE44-.LEHB44
 1645 00fc C501     		.uleb128 .L75-.LFB1055
 1646 00fe 00       		.uleb128 0
 1647 00ff 5B       		.uleb128 .LEHB45-.LFB1055
 1648 0100 05       		.uleb128 .LEHE45-.LEHB45
 1649 0101 D601     		.uleb128 .L74-.LFB1055
 1650 0103 00       		.uleb128 0
 1651 0104 67       		.uleb128 .LEHB46-.LFB1055
 1652 0105 05       		.uleb128 .LEHE46-.LEHB46
 1653 0106 00       		.uleb128 0
 1654 0107 00       		.uleb128 0
 1655 0108 6C       		.uleb128 .LEHB47-.LFB1055
 1656 0109 54       		.uleb128 .LEHE47-.LEHB47
 1657 010a 8302     		.uleb128 .L76-.LFB1055
 1658 010c 01       		.uleb128 0x1
 1659 010d EB01     		.uleb128 .LEHB48-.LFB1055
 1660 010f 05       		.uleb128 .LEHE48-.LEHB48
 1661 0110 00       		.uleb128 0
 1662 0111 00       		.uleb128 0
 1663 0112 FE01     		.uleb128 .LEHB49-.LFB1055
 1664 0114 05       		.uleb128 .LEHE49-.LEHB49
 1665 0115 00       		.uleb128 0
 1666 0116 00       		.uleb128 0
 1667 0117 8B02     		.uleb128 .LEHB50-.LFB1055
 1668 0119 38       		.uleb128 .LEHE50-.LEHB50
 1669 011a F001     		.uleb128 .L77-.LFB1055
 1670 011c 00       		.uleb128 0
 1671 011d C302     		.uleb128 .LEHB51-.LFB1055
 1672 011f 05       		.uleb128 .LEHE51-.LEHB51
 1673 0120 00       		.uleb128 0
 1674 0121 00       		.uleb128 0
 1675              	.LLSDACSE1055:
 1676 0122 01       		.byte	0x1
 1677 0123 00       		.byte	0
 1678              		.align 4
 1679 0124 00000000 		.long	0
 1680              	
 1681              	.LLSDATT1055:
 1682              		.text
 1684              		.section	.rodata
 1685 01ac 00000000 		.align 8
 1686              	.LC18:
 1687 01b0 54657374 		.string	"TestWithUnspecifiedSuiteGetsDefaultSuite"
 1687      57697468 
 1687      556E7370 
 1687      65636966 
 1687      69656453 
 1688              		.text
 1689 08f3 90       		.align 2
 1691              	_ZN12_GLOBAL__N_144TestTestWithUnspecifiedSuiteGetsDefaultSuiteC2Ev:
 1692              	.LFB1061:
 100:TestTest.cpp  **** #endif
 101:TestTest.cpp  **** 
 102:TestTest.cpp  **** TEST(TestWithUnspecifiedSuiteGetsDefaultSuite)
 1693              		.loc 4 102 0
 1694              		.cfi_startproc
 1695 08f4 55       		pushq	%rbp
 1696              		.cfi_def_cfa_offset 16
 1697              		.cfi_offset 6, -16
 1698 08f5 4889E5   		movq	%rsp, %rbp
 1699              		.cfi_def_cfa_register 6
 1700 08f8 4883EC10 		subq	$16, %rsp
 1701 08fc 48897DF8 		movq	%rdi, -8(%rbp)
 1702              	.LBB31:
 1703              		.loc 4 102 0
 1704 0900 E8000000 		call	_ZN13UnitTestSuite12GetSuiteNameEv
 1704      00
 1705 0905 4889C2   		movq	%rax, %rdx
 1706 0908 488B45F8 		movq	-8(%rbp), %rax
 1707 090c 41B86600 		movl	$102, %r8d
 1707      0000
 1708 0912 B9000000 		movl	$.LC1, %ecx
 1708      00
 1709 0917 BE000000 		movl	$.LC18, %esi
 1709      00
 1710 091c 4889C7   		movq	%rax, %rdi
 1711 091f E8000000 		call	_ZN8UnitTest4TestC2EPKcS2_S2_i
 1711      00
 1712 0924 488B45F8 		movq	-8(%rbp), %rax
 1713 0928 48C70000 		movq	$_ZTVN12_GLOBAL__N_144TestTestWithUnspecifiedSuiteGetsDefaultSuiteE+16, (%rax)
 1713      000000
 1714              	.LBE31:
 1715 092f C9       		leave
 1716              		.cfi_def_cfa 7, 8
 1717 0930 C3       		ret
 1718              		.cfi_endproc
 1719              	.LFE1061:
 1721              		.set	_ZN12_GLOBAL__N_144TestTestWithUnspecifiedSuiteGetsDefaultSuiteC1Ev,_ZN12_GLOBAL__N_144TestTe
 1722              		.local	_ZN12_GLOBAL__N_152testTestWithUnspecifiedSuiteGetsDefaultSuiteInstanceE
 1723              		.comm	_ZN12_GLOBAL__N_152testTestWithUnspecifiedSuiteGetsDefaultSuiteInstanceE,56,32
 1724              		.local	_ZN12_GLOBAL__N_145adderTestWithUnspecifiedSuiteGetsDefaultSuiteE
 1725              		.comm	_ZN12_GLOBAL__N_145adderTestWithUnspecifiedSuiteGetsDefaultSuiteE,1,1
 1726              		.section	.rodata
 1727              	.LC19:
 1728 01d9 74657374 		.string	"test"
 1728      00
 1729 01de 0000     		.align 8
 1730              	.LC20:
 1731 01e0 74657374 		.string	"test.m_details.suiteName != NULL"
 1731      2E6D5F64 
 1731      65746169 
 1731      6C732E73 
 1731      75697465 
 1732 0201 00000000 		.align 8
 1732      000000
 1733              	.LC21:
 1734 0208 556E6861 		.string	"Unhandled exception in CHECK(test.m_details.suiteName != NULL)"
 1734      6E646C65 
 1734      64206578 
 1734      63657074 
 1734      696F6E20 
 1735 0247 00       		.align 8
 1736              	.LC22:
 1737 0248 556E6861 		.string	"Unhandled exception in CHECK_EQUAL(\"DefaultSuite\", test.m_details.suiteName)"
 1737      6E646C65 
 1737      64206578 
 1737      63657074 
 1737      696F6E20 
 1738              		.text
 1739 0931 90       		.align 2
 1741              	_ZNK12_GLOBAL__N_144TestTestWithUnspecifiedSuiteGetsDefaultSuite7RunImplEv:
 1742              	.LFB1063:
 103:TestTest.cpp  **** {
 1743              		.loc 4 103 0
 1744              		.cfi_startproc
 1745              		.cfi_personality 0x3,__gxx_personality_v0
 1746              		.cfi_lsda 0x3,.LLSDA1063
 1747 0932 55       		pushq	%rbp
 1748              		.cfi_def_cfa_offset 16
 1749              		.cfi_offset 6, -16
 1750 0933 4889E5   		movq	%rsp, %rbp
 1751              		.cfi_def_cfa_register 6
 1752 0936 53       		pushq	%rbx
 1753 0937 4883EC78 		subq	$120, %rsp
 1754              		.cfi_offset 3, -24
 1755 093b 48897D88 		movq	%rdi, -120(%rbp)
 1756              	.LBB32:
 104:TestTest.cpp  ****     Test test("test");
 1757              		.loc 4 104 0
 1758 093f 488D45B0 		leaq	-80(%rbp), %rax
 1759 0943 41B80000 		movl	$0, %r8d
 1759      0000
 1760 0949 B9000000 		movl	$.LC3, %ecx
 1760      00
 1761 094e BA000000 		movl	$.LC0, %edx
 1761      00
 1762 0953 BE000000 		movl	$.LC19, %esi
 1762      00
 1763 0958 4889C7   		movq	%rax, %rdi
 1764              	.LEHB52:
 1765 095b E8000000 		call	_ZN8UnitTest4TestC1EPKcS2_S2_i
 1765      00
 1766              	.LEHE52:
 105:TestTest.cpp  ****     CHECK(test.m_details.suiteName != NULL);
 1767              		.loc 4 105 0
 1768 0960 488B45B8 		movq	-72(%rbp), %rax
 1769 0964 4885C0   		testq	%rax, %rax
 1770 0967 0F95C0   		setne	%al
 1771 096a 0FB6C0   		movzbl	%al, %eax
 1772 096d 89C7     		movl	%eax, %edi
 1773 096f E8000000 		call	_ZN8UnitTest5CheckIbEEbT_
 1773      00
 1774 0974 83F001   		xorl	$1, %eax
 1775 0977 84C0     		testb	%al, %al
 1776 0979 7438     		je	.L81
 1777              	.LEHB53:
 1778              		.loc 4 105 0 is_stmt 0 discriminator 1
 1779 097b E8000000 		call	_ZN8UnitTest11CurrentTest7DetailsEv
 1779      00
 1780 0980 488B08   		movq	(%rax), %rcx
 1781 0983 488D4590 		leaq	-112(%rbp), %rax
 1782 0987 BA690000 		movl	$105, %edx
 1782      00
 1783 098c 4889CE   		movq	%rcx, %rsi
 1784 098f 4889C7   		movq	%rax, %rdi
 1785 0992 E8000000 		call	_ZN8UnitTest11TestDetailsC1ERKS0_i
 1785      00
 1786 0997 E8000000 		call	_ZN8UnitTest11CurrentTest7ResultsEv
 1786      00
 1787 099c 488B00   		movq	(%rax), %rax
 1788 099f 488D4D90 		leaq	-112(%rbp), %rcx
 1789 09a3 BA000000 		movl	$.LC20, %edx
 1789      00
 1790 09a8 4889CE   		movq	%rcx, %rsi
 1791 09ab 4889C7   		movq	%rax, %rdi
 1792 09ae E8000000 		call	_ZN8UnitTest11TestResults13OnTestFailureERKNS_11TestDetailsEPKc
 1792      00
 1793              	.LEHE53:
 1794              	.L81:
 1795              	.LEHB54:
 106:TestTest.cpp  ****     CHECK_EQUAL("DefaultSuite", test.m_details.suiteName);
 1796              		.loc 4 106 0 is_stmt 1
 1797 09b3 E8000000 		call	_ZN8UnitTest11CurrentTest7DetailsEv
 1797      00
 1798 09b8 488B08   		movq	(%rax), %rcx
 1799 09bb 488D4590 		leaq	-112(%rbp), %rax
 1800 09bf BA6A0000 		movl	$106, %edx
 1800      00
 1801 09c4 4889CE   		movq	%rcx, %rsi
 1802 09c7 4889C7   		movq	%rax, %rdi
 1803 09ca E8000000 		call	_ZN8UnitTest11TestDetailsC1ERKS0_i
 1803      00
 1804              		.loc 4 106 0 is_stmt 0 discriminator 1
 1805 09cf 488B5DB8 		movq	-72(%rbp), %rbx
 1806 09d3 E8000000 		call	_ZN8UnitTest11CurrentTest7ResultsEv
 1806      00
 1807 09d8 488B00   		movq	(%rax), %rax
 1808 09db 488D5590 		leaq	-112(%rbp), %rdx
 1809 09df 4889D1   		movq	%rdx, %rcx
 1810 09e2 4889DA   		movq	%rbx, %rdx
 1811 09e5 BE000000 		movl	$.LC0, %esi
 1811      00
 1812 09ea 4889C7   		movq	%rax, %rdi
 1813 09ed E8000000 		call	_ZN8UnitTest10CheckEqualERNS_11TestResultsEPKcS3_RKNS_11TestDetailsE
 1813      00
 1814              	.LEHE54:
 1815              	.L87:
 1816              		.loc 4 106 0 discriminator 2
 1817 09f2 488D45B0 		leaq	-80(%rbp), %rax
 1818 09f6 4889C7   		movq	%rax, %rdi
 1819              	.LEHB55:
 1820 09f9 E8000000 		call	_ZN8UnitTest4TestD1Ev
 1820      00
 1821              	.LEHE55:
 1822 09fe E9C50000 		jmp	.L93
 1822      00
 1823              	.L90:
 1824 0a03 4889C3   		movq	%rax, %rbx
 105:TestTest.cpp  ****     CHECK(test.m_details.suiteName != NULL);
 1825              		.loc 4 105 0 is_stmt 1
 1826 0a06 E8000000 		call	__cxa_end_catch
 1826      00
 1827 0a0b E9A10000 		jmp	.L83
 1827      00
 1828              	.L88:
 1829 0a10 4889C7   		movq	%rax, %rdi
 1830 0a13 E8000000 		call	__cxa_begin_catch
 1830      00
 1831              	.LEHB56:
 1832 0a18 E8000000 		call	_ZN8UnitTest11CurrentTest7DetailsEv
 1832      00
 1833 0a1d 488B08   		movq	(%rax), %rcx
 1834 0a20 488D4590 		leaq	-112(%rbp), %rax
 1835 0a24 BA690000 		movl	$105, %edx
 1835      00
 1836 0a29 4889CE   		movq	%rcx, %rsi
 1837 0a2c 4889C7   		movq	%rax, %rdi
 1838 0a2f E8000000 		call	_ZN8UnitTest11TestDetailsC1ERKS0_i
 1838      00
 105:TestTest.cpp  ****     CHECK(test.m_details.suiteName != NULL);
 1839              		.loc 4 105 0 is_stmt 0 discriminator 1
 1840 0a34 E8000000 		call	_ZN8UnitTest11CurrentTest7ResultsEv
 1840      00
 1841 0a39 488B00   		movq	(%rax), %rax
 1842 0a3c 488D4D90 		leaq	-112(%rbp), %rcx
 1843 0a40 BA000000 		movl	$.LC21, %edx
 1843      00
 1844 0a45 4889CE   		movq	%rcx, %rsi
 1845 0a48 4889C7   		movq	%rax, %rdi
 1846 0a4b E8000000 		call	_ZN8UnitTest11TestResults13OnTestFailureERKNS_11TestDetailsEPKc
 1846      00
 1847              	.LEHE56:
 1848              	.LEHB57:
 1849 0a50 E8000000 		call	__cxa_end_catch
 1849      00
 1850              	.LEHE57:
 105:TestTest.cpp  ****     CHECK(test.m_details.suiteName != NULL);
 1851              		.loc 4 105 0
 1852 0a55 E959FFFF 		jmp	.L81
 1852      FF
 1853              	.L92:
 1854 0a5a 4889C3   		movq	%rax, %rbx
 1855              		.loc 4 106 0 is_stmt 1
 1856 0a5d E8000000 		call	__cxa_end_catch
 1856      00
 1857 0a62 EB4D     		jmp	.L83
 1858              	.L91:
 1859 0a64 4889C7   		movq	%rax, %rdi
 1860 0a67 E8000000 		call	__cxa_begin_catch
 1860      00
 1861              	.LEHB58:
 1862 0a6c E8000000 		call	_ZN8UnitTest11CurrentTest7DetailsEv
 1862      00
 1863 0a71 488B08   		movq	(%rax), %rcx
 1864 0a74 488D4590 		leaq	-112(%rbp), %rax
 1865 0a78 BA6A0000 		movl	$106, %edx
 1865      00
 1866 0a7d 4889CE   		movq	%rcx, %rsi
 1867 0a80 4889C7   		movq	%rax, %rdi
 1868 0a83 E8000000 		call	_ZN8UnitTest11TestDetailsC1ERKS0_i
 1868      00
 1869              		.loc 4 106 0 is_stmt 0 discriminator 1
 1870 0a88 E8000000 		call	_ZN8UnitTest11CurrentTest7ResultsEv
 1870      00
 1871 0a8d 488B00   		movq	(%rax), %rax
 1872 0a90 488D4D90 		leaq	-112(%rbp), %rcx
 1873 0a94 BA000000 		movl	$.LC22, %edx
 1873      00
 1874 0a99 4889CE   		movq	%rcx, %rsi
 1875 0a9c 4889C7   		movq	%rax, %rdi
 1876 0a9f E8000000 		call	_ZN8UnitTest11TestResults13OnTestFailureERKNS_11TestDetailsEPKc
 1876      00
 1877              	.LEHE58:
 1878              	.LEHB59:
 1879 0aa4 E8000000 		call	__cxa_end_catch
 1879      00
 1880              	.LEHE59:
 1881              		.loc 4 106 0
 1882 0aa9 E944FFFF 		jmp	.L87
 1882      FF
 1883              	.L89:
 1884 0aae 4889C3   		movq	%rax, %rbx
 1885              	.L83:
 1886 0ab1 488D45B0 		leaq	-80(%rbp), %rax
 1887 0ab5 4889C7   		movq	%rax, %rdi
 1888 0ab8 E8000000 		call	_ZN8UnitTest4TestD1Ev
 1888      00
 1889 0abd 4889D8   		movq	%rbx, %rax
 1890 0ac0 4889C7   		movq	%rax, %rdi
 1891              	.LEHB60:
 1892 0ac3 E8000000 		call	_Unwind_Resume
 1892      00
 1893              	.LEHE60:
 1894              	.L93:
 1895              	.LBE32:
 107:TestTest.cpp  **** }
 1896              		.loc 4 107 0 is_stmt 1
 1897 0ac8 4883C478 		addq	$120, %rsp
 1898 0acc 5B       		popq	%rbx
 1899 0acd 5D       		popq	%rbp
 1900              		.cfi_def_cfa 7, 8
 1901 0ace C3       		ret
 1902              		.cfi_endproc
 1903              	.LFE1063:
 1904              		.section	.gcc_except_table
 1905              		.align 4
 1906              	.LLSDA1063:
 1907 0128 FF       		.byte	0xff
 1908 0129 03       		.byte	0x3
 1909 012a 39       		.uleb128 .LLSDATT1063-.LLSDATTD1063
 1910              	.LLSDATTD1063:
 1911 012b 01       		.byte	0x1
 1912 012c 31       		.uleb128 .LLSDACSE1063-.LLSDACSB1063
 1913              	.LLSDACSB1063:
 1914 012d 29       		.uleb128 .LEHB52-.LFB1063
 1915 012e 05       		.uleb128 .LEHE52-.LEHB52
 1916 012f 00       		.uleb128 0
 1917 0130 00       		.uleb128 0
 1918 0131 49       		.uleb128 .LEHB53-.LFB1063
 1919 0132 38       		.uleb128 .LEHE53-.LEHB53
 1920 0133 DE01     		.uleb128 .L88-.LFB1063
 1921 0135 01       		.uleb128 0x1
 1922 0136 8101     		.uleb128 .LEHB54-.LFB1063
 1923 0138 3F       		.uleb128 .LEHE54-.LEHB54
 1924 0139 B202     		.uleb128 .L91-.LFB1063
 1925 013b 01       		.uleb128 0x1
 1926 013c C701     		.uleb128 .LEHB55-.LFB1063
 1927 013e 05       		.uleb128 .LEHE55-.LEHB55
 1928 013f 00       		.uleb128 0
 1929 0140 00       		.uleb128 0
 1930 0141 E601     		.uleb128 .LEHB56-.LFB1063
 1931 0143 38       		.uleb128 .LEHE56-.LEHB56
 1932 0144 D101     		.uleb128 .L90-.LFB1063
 1933 0146 00       		.uleb128 0
 1934 0147 9E02     		.uleb128 .LEHB57-.LFB1063
 1935 0149 05       		.uleb128 .LEHE57-.LEHB57
 1936 014a FC02     		.uleb128 .L89-.LFB1063
 1937 014c 00       		.uleb128 0
 1938 014d BA02     		.uleb128 .LEHB58-.LFB1063
 1939 014f 38       		.uleb128 .LEHE58-.LEHB58
 1940 0150 A802     		.uleb128 .L92-.LFB1063
 1941 0152 00       		.uleb128 0
 1942 0153 F202     		.uleb128 .LEHB59-.LFB1063
 1943 0155 05       		.uleb128 .LEHE59-.LEHB59
 1944 0156 FC02     		.uleb128 .L89-.LFB1063
 1945 0158 00       		.uleb128 0
 1946 0159 9103     		.uleb128 .LEHB60-.LFB1063
 1947 015b 05       		.uleb128 .LEHE60-.LEHB60
 1948 015c 00       		.uleb128 0
 1949 015d 00       		.uleb128 0
 1950              	.LLSDACSE1063:
 1951 015e 01       		.byte	0x1
 1952 015f 00       		.byte	0
 1953              		.align 4
 1954 0160 00000000 		.long	0
 1955              	
 1956              	.LLSDATT1063:
 1957              		.text
 1959              		.section	.rodata
 1960 0295 000000   		.align 8
 1961              	.LC23:
 1962 0298 54657374 		.string	"TestReflectsSpecifiedSuiteName"
 1962      5265666C 
 1962      65637473 
 1962      53706563 
 1962      69666965 
 1963              		.text
 1964 0acf 90       		.align 2
 1966              	_ZN12_GLOBAL__N_134TestTestReflectsSpecifiedSuiteNameC2Ev:
 1967              	.LFB1065:
 108:TestTest.cpp  **** 
 109:TestTest.cpp  **** TEST(TestReflectsSpecifiedSuiteName)
 1968              		.loc 4 109 0
 1969              		.cfi_startproc
 1970 0ad0 55       		pushq	%rbp
 1971              		.cfi_def_cfa_offset 16
 1972              		.cfi_offset 6, -16
 1973 0ad1 4889E5   		movq	%rsp, %rbp
 1974              		.cfi_def_cfa_register 6
 1975 0ad4 4883EC10 		subq	$16, %rsp
 1976 0ad8 48897DF8 		movq	%rdi, -8(%rbp)
 1977              	.LBB33:
 1978              		.loc 4 109 0
 1979 0adc E8000000 		call	_ZN13UnitTestSuite12GetSuiteNameEv
 1979      00
 1980 0ae1 4889C2   		movq	%rax, %rdx
 1981 0ae4 488B45F8 		movq	-8(%rbp), %rax
 1982 0ae8 41B86D00 		movl	$109, %r8d
 1982      0000
 1983 0aee B9000000 		movl	$.LC1, %ecx
 1983      00
 1984 0af3 BE000000 		movl	$.LC23, %esi
 1984      00
 1985 0af8 4889C7   		movq	%rax, %rdi
 1986 0afb E8000000 		call	_ZN8UnitTest4TestC2EPKcS2_S2_i
 1986      00
 1987 0b00 488B45F8 		movq	-8(%rbp), %rax
 1988 0b04 48C70000 		movq	$_ZTVN12_GLOBAL__N_134TestTestReflectsSpecifiedSuiteNameE+16, (%rax)
 1988      000000
 1989              	.LBE33:
 1990 0b0b C9       		leave
 1991              		.cfi_def_cfa 7, 8
 1992 0b0c C3       		ret
 1993              		.cfi_endproc
 1994              	.LFE1065:
 1996              		.set	_ZN12_GLOBAL__N_134TestTestReflectsSpecifiedSuiteNameC1Ev,_ZN12_GLOBAL__N_134TestTestReflects
 1997              		.local	_ZN12_GLOBAL__N_142testTestReflectsSpecifiedSuiteNameInstanceE
 1998              		.comm	_ZN12_GLOBAL__N_142testTestReflectsSpecifiedSuiteNameInstanceE,56,32
 1999              		.local	_ZN12_GLOBAL__N_135adderTestReflectsSpecifiedSuiteNameE
 2000              		.comm	_ZN12_GLOBAL__N_135adderTestReflectsSpecifiedSuiteNameE,1,1
 2001              		.section	.rodata
 2002              	.LC24:
 2003 02b7 74657374 		.string	"testSuite"
 2003      53756974 
 2003      6500
 2004 02c1 00000000 		.align 8
 2004      000000
 2005              	.LC25:
 2006 02c8 556E6861 		.string	"Unhandled exception in CHECK_EQUAL(\"testSuite\", test.m_details.suiteName)"
 2006      6E646C65 
 2006      64206578 
 2006      63657074 
 2006      696F6E20 
 2007              		.text
 2008 0b0d 90       		.align 2
 2010              	_ZNK12_GLOBAL__N_134TestTestReflectsSpecifiedSuiteName7RunImplEv:
 2011              	.LFB1067:
 110:TestTest.cpp  **** {
 2012              		.loc 4 110 0
 2013              		.cfi_startproc
 2014              		.cfi_personality 0x3,__gxx_personality_v0
 2015              		.cfi_lsda 0x3,.LLSDA1067
 2016 0b0e 55       		pushq	%rbp
 2017              		.cfi_def_cfa_offset 16
 2018              		.cfi_offset 6, -16
 2019 0b0f 4889E5   		movq	%rsp, %rbp
 2020              		.cfi_def_cfa_register 6
 2021 0b12 53       		pushq	%rbx
 2022 0b13 4883EC78 		subq	$120, %rsp
 2023              		.cfi_offset 3, -24
 2024 0b17 48897D88 		movq	%rdi, -120(%rbp)
 2025              	.LBB34:
 111:TestTest.cpp  ****     Test test("test", "testSuite");
 2026              		.loc 4 111 0
 2027 0b1b 488D45B0 		leaq	-80(%rbp), %rax
 2028 0b1f 41B80000 		movl	$0, %r8d
 2028      0000
 2029 0b25 B9000000 		movl	$.LC3, %ecx
 2029      00
 2030 0b2a BA000000 		movl	$.LC24, %edx
 2030      00
 2031 0b2f BE000000 		movl	$.LC19, %esi
 2031      00
 2032 0b34 4889C7   		movq	%rax, %rdi
 2033              	.LEHB61:
 2034 0b37 E8000000 		call	_ZN8UnitTest4TestC1EPKcS2_S2_i
 2034      00
 2035              	.LEHE61:
 112:TestTest.cpp  ****     CHECK(test.m_details.suiteName != NULL);
 2036              		.loc 4 112 0
 2037 0b3c 488B45B8 		movq	-72(%rbp), %rax
 2038 0b40 4885C0   		testq	%rax, %rax
 2039 0b43 0F95C0   		setne	%al
 2040 0b46 0FB6C0   		movzbl	%al, %eax
 2041 0b49 89C7     		movl	%eax, %edi
 2042 0b4b E8000000 		call	_ZN8UnitTest5CheckIbEEbT_
 2042      00
 2043 0b50 83F001   		xorl	$1, %eax
 2044 0b53 84C0     		testb	%al, %al
 2045 0b55 7438     		je	.L96
 2046              	.LEHB62:
 2047              		.loc 4 112 0 is_stmt 0 discriminator 1
 2048 0b57 E8000000 		call	_ZN8UnitTest11CurrentTest7DetailsEv
 2048      00
 2049 0b5c 488B08   		movq	(%rax), %rcx
 2050 0b5f 488D4590 		leaq	-112(%rbp), %rax
 2051 0b63 BA700000 		movl	$112, %edx
 2051      00
 2052 0b68 4889CE   		movq	%rcx, %rsi
 2053 0b6b 4889C7   		movq	%rax, %rdi
 2054 0b6e E8000000 		call	_ZN8UnitTest11TestDetailsC1ERKS0_i
 2054      00
 2055 0b73 E8000000 		call	_ZN8UnitTest11CurrentTest7ResultsEv
 2055      00
 2056 0b78 488B00   		movq	(%rax), %rax
 2057 0b7b 488D4D90 		leaq	-112(%rbp), %rcx
 2058 0b7f BA000000 		movl	$.LC20, %edx
 2058      00
 2059 0b84 4889CE   		movq	%rcx, %rsi
 2060 0b87 4889C7   		movq	%rax, %rdi
 2061 0b8a E8000000 		call	_ZN8UnitTest11TestResults13OnTestFailureERKNS_11TestDetailsEPKc
 2061      00
 2062              	.LEHE62:
 2063              	.L96:
 2064              	.LEHB63:
 113:TestTest.cpp  ****     CHECK_EQUAL("testSuite", test.m_details.suiteName);
 2065              		.loc 4 113 0 is_stmt 1
 2066 0b8f E8000000 		call	_ZN8UnitTest11CurrentTest7DetailsEv
 2066      00
 2067 0b94 488B08   		movq	(%rax), %rcx
 2068 0b97 488D4590 		leaq	-112(%rbp), %rax
 2069 0b9b BA710000 		movl	$113, %edx
 2069      00
 2070 0ba0 4889CE   		movq	%rcx, %rsi
 2071 0ba3 4889C7   		movq	%rax, %rdi
 2072 0ba6 E8000000 		call	_ZN8UnitTest11TestDetailsC1ERKS0_i
 2072      00
 2073              		.loc 4 113 0 is_stmt 0 discriminator 1
 2074 0bab 488B5DB8 		movq	-72(%rbp), %rbx
 2075 0baf E8000000 		call	_ZN8UnitTest11CurrentTest7ResultsEv
 2075      00
 2076 0bb4 488B00   		movq	(%rax), %rax
 2077 0bb7 488D5590 		leaq	-112(%rbp), %rdx
 2078 0bbb 4889D1   		movq	%rdx, %rcx
 2079 0bbe 4889DA   		movq	%rbx, %rdx
 2080 0bc1 BE000000 		movl	$.LC24, %esi
 2080      00
 2081 0bc6 4889C7   		movq	%rax, %rdi
 2082 0bc9 E8000000 		call	_ZN8UnitTest10CheckEqualERNS_11TestResultsEPKcS3_RKNS_11TestDetailsE
 2082      00
 2083              	.LEHE63:
 2084              	.L102:
 2085              		.loc 4 113 0 discriminator 2
 2086 0bce 488D45B0 		leaq	-80(%rbp), %rax
 2087 0bd2 4889C7   		movq	%rax, %rdi
 2088              	.LEHB64:
 2089 0bd5 E8000000 		call	_ZN8UnitTest4TestD1Ev
 2089      00
 2090              	.LEHE64:
 2091 0bda E9C50000 		jmp	.L108
 2091      00
 2092              	.L105:
 2093 0bdf 4889C3   		movq	%rax, %rbx
 112:TestTest.cpp  ****     CHECK(test.m_details.suiteName != NULL);
 2094              		.loc 4 112 0 is_stmt 1
 2095 0be2 E8000000 		call	__cxa_end_catch
 2095      00
 2096 0be7 E9A10000 		jmp	.L98
 2096      00
 2097              	.L103:
 2098 0bec 4889C7   		movq	%rax, %rdi
 2099 0bef E8000000 		call	__cxa_begin_catch
 2099      00
 2100              	.LEHB65:
 2101 0bf4 E8000000 		call	_ZN8UnitTest11CurrentTest7DetailsEv
 2101      00
 2102 0bf9 488B08   		movq	(%rax), %rcx
 2103 0bfc 488D4590 		leaq	-112(%rbp), %rax
 2104 0c00 BA700000 		movl	$112, %edx
 2104      00
 2105 0c05 4889CE   		movq	%rcx, %rsi
 2106 0c08 4889C7   		movq	%rax, %rdi
 2107 0c0b E8000000 		call	_ZN8UnitTest11TestDetailsC1ERKS0_i
 2107      00
 112:TestTest.cpp  ****     CHECK(test.m_details.suiteName != NULL);
 2108              		.loc 4 112 0 is_stmt 0 discriminator 1
 2109 0c10 E8000000 		call	_ZN8UnitTest11CurrentTest7ResultsEv
 2109      00
 2110 0c15 488B00   		movq	(%rax), %rax
 2111 0c18 488D4D90 		leaq	-112(%rbp), %rcx
 2112 0c1c BA000000 		movl	$.LC21, %edx
 2112      00
 2113 0c21 4889CE   		movq	%rcx, %rsi
 2114 0c24 4889C7   		movq	%rax, %rdi
 2115 0c27 E8000000 		call	_ZN8UnitTest11TestResults13OnTestFailureERKNS_11TestDetailsEPKc
 2115      00
 2116              	.LEHE65:
 2117              	.LEHB66:
 2118 0c2c E8000000 		call	__cxa_end_catch
 2118      00
 2119              	.LEHE66:
 112:TestTest.cpp  ****     CHECK(test.m_details.suiteName != NULL);
 2120              		.loc 4 112 0
 2121 0c31 E959FFFF 		jmp	.L96
 2121      FF
 2122              	.L107:
 2123 0c36 4889C3   		movq	%rax, %rbx
 2124              		.loc 4 113 0 is_stmt 1
 2125 0c39 E8000000 		call	__cxa_end_catch
 2125      00
 2126 0c3e EB4D     		jmp	.L98
 2127              	.L106:
 2128 0c40 4889C7   		movq	%rax, %rdi
 2129 0c43 E8000000 		call	__cxa_begin_catch
 2129      00
 2130              	.LEHB67:
 2131 0c48 E8000000 		call	_ZN8UnitTest11CurrentTest7DetailsEv
 2131      00
 2132 0c4d 488B08   		movq	(%rax), %rcx
 2133 0c50 488D4590 		leaq	-112(%rbp), %rax
 2134 0c54 BA710000 		movl	$113, %edx
 2134      00
 2135 0c59 4889CE   		movq	%rcx, %rsi
 2136 0c5c 4889C7   		movq	%rax, %rdi
 2137 0c5f E8000000 		call	_ZN8UnitTest11TestDetailsC1ERKS0_i
 2137      00
 2138              		.loc 4 113 0 is_stmt 0 discriminator 1
 2139 0c64 E8000000 		call	_ZN8UnitTest11CurrentTest7ResultsEv
 2139      00
 2140 0c69 488B00   		movq	(%rax), %rax
 2141 0c6c 488D4D90 		leaq	-112(%rbp), %rcx
 2142 0c70 BA000000 		movl	$.LC25, %edx
 2142      00
 2143 0c75 4889CE   		movq	%rcx, %rsi
 2144 0c78 4889C7   		movq	%rax, %rdi
 2145 0c7b E8000000 		call	_ZN8UnitTest11TestResults13OnTestFailureERKNS_11TestDetailsEPKc
 2145      00
 2146              	.LEHE67:
 2147              	.LEHB68:
 2148 0c80 E8000000 		call	__cxa_end_catch
 2148      00
 2149              	.LEHE68:
 2150              		.loc 4 113 0
 2151 0c85 E944FFFF 		jmp	.L102
 2151      FF
 2152              	.L104:
 2153 0c8a 4889C3   		movq	%rax, %rbx
 2154              	.L98:
 2155 0c8d 488D45B0 		leaq	-80(%rbp), %rax
 2156 0c91 4889C7   		movq	%rax, %rdi
 2157 0c94 E8000000 		call	_ZN8UnitTest4TestD1Ev
 2157      00
 2158 0c99 4889D8   		movq	%rbx, %rax
 2159 0c9c 4889C7   		movq	%rax, %rdi
 2160              	.LEHB69:
 2161 0c9f E8000000 		call	_Unwind_Resume
 2161      00
 2162              	.LEHE69:
 2163              	.L108:
 2164              	.LBE34:
 114:TestTest.cpp  **** }
 2165              		.loc 4 114 0 is_stmt 1
 2166 0ca4 4883C478 		addq	$120, %rsp
 2167 0ca8 5B       		popq	%rbx
 2168 0ca9 5D       		popq	%rbp
 2169              		.cfi_def_cfa 7, 8
 2170 0caa C3       		ret
 2171              		.cfi_endproc
 2172              	.LFE1067:
 2173              		.section	.gcc_except_table
 2174              		.align 4
 2175              	.LLSDA1067:
 2176 0164 FF       		.byte	0xff
 2177 0165 03       		.byte	0x3
 2178 0166 39       		.uleb128 .LLSDATT1067-.LLSDATTD1067
 2179              	.LLSDATTD1067:
 2180 0167 01       		.byte	0x1
 2181 0168 31       		.uleb128 .LLSDACSE1067-.LLSDACSB1067
 2182              	.LLSDACSB1067:
 2183 0169 29       		.uleb128 .LEHB61-.LFB1067
 2184 016a 05       		.uleb128 .LEHE61-.LEHB61
 2185 016b 00       		.uleb128 0
 2186 016c 00       		.uleb128 0
 2187 016d 49       		.uleb128 .LEHB62-.LFB1067
 2188 016e 38       		.uleb128 .LEHE62-.LEHB62
 2189 016f DE01     		.uleb128 .L103-.LFB1067
 2190 0171 01       		.uleb128 0x1
 2191 0172 8101     		.uleb128 .LEHB63-.LFB1067
 2192 0174 3F       		.uleb128 .LEHE63-.LEHB63
 2193 0175 B202     		.uleb128 .L106-.LFB1067
 2194 0177 01       		.uleb128 0x1
 2195 0178 C701     		.uleb128 .LEHB64-.LFB1067
 2196 017a 05       		.uleb128 .LEHE64-.LEHB64
 2197 017b 00       		.uleb128 0
 2198 017c 00       		.uleb128 0
 2199 017d E601     		.uleb128 .LEHB65-.LFB1067
 2200 017f 38       		.uleb128 .LEHE65-.LEHB65
 2201 0180 D101     		.uleb128 .L105-.LFB1067
 2202 0182 00       		.uleb128 0
 2203 0183 9E02     		.uleb128 .LEHB66-.LFB1067
 2204 0185 05       		.uleb128 .LEHE66-.LEHB66
 2205 0186 FC02     		.uleb128 .L104-.LFB1067
 2206 0188 00       		.uleb128 0
 2207 0189 BA02     		.uleb128 .LEHB67-.LFB1067
 2208 018b 38       		.uleb128 .LEHE67-.LEHB67
 2209 018c A802     		.uleb128 .L107-.LFB1067
 2210 018e 00       		.uleb128 0
 2211 018f F202     		.uleb128 .LEHB68-.LFB1067
 2212 0191 05       		.uleb128 .LEHE68-.LEHB68
 2213 0192 FC02     		.uleb128 .L104-.LFB1067
 2214 0194 00       		.uleb128 0
 2215 0195 9103     		.uleb128 .LEHB69-.LFB1067
 2216 0197 05       		.uleb128 .LEHE69-.LEHB69
 2217 0198 00       		.uleb128 0
 2218 0199 00       		.uleb128 0
 2219              	.LLSDACSE1067:
 2220 019a 01       		.byte	0x1
 2221 019b 00       		.byte	0
 2222              		.align 4
 2223 019c 00000000 		.long	0
 2224              	
 2225              	.LLSDATT1067:
 2226              		.text
 2229              	_ZN12_GLOBAL__N_14FailEv:
 2230              	.LFB1068:
 115:TestTest.cpp  **** 
 116:TestTest.cpp  **** void Fail()
 117:TestTest.cpp  **** {
 2231              		.loc 4 117 0
 2232              		.cfi_startproc
 2233              		.cfi_personality 0x3,__gxx_personality_v0
 2234              		.cfi_lsda 0x3,.LLSDA1068
 2235 0cab 55       		pushq	%rbp
 2236              		.cfi_def_cfa_offset 16
 2237              		.cfi_offset 6, -16
 2238 0cac 4889E5   		movq	%rsp, %rbp
 2239              		.cfi_def_cfa_register 6
 2240 0caf 53       		pushq	%rbx
 2241 0cb0 4883EC28 		subq	$40, %rsp
 2242              		.cfi_offset 3, -24
 118:TestTest.cpp  **** 	CHECK(false);
 2243              		.loc 4 118 0
 2244 0cb4 BF000000 		movl	$0, %edi
 2244      00
 2245 0cb9 E8000000 		call	_ZN8UnitTest5CheckIbEEbT_
 2245      00
 2246 0cbe 83F001   		xorl	$1, %eax
 2247 0cc1 84C0     		testb	%al, %al
 2248 0cc3 0F849300 		je	.L109
 2248      0000
 2249              	.LEHB70:
 2250              		.loc 4 118 0 is_stmt 0 discriminator 1
 2251 0cc9 E8000000 		call	_ZN8UnitTest11CurrentTest7DetailsEv
 2251      00
 2252 0cce 488B08   		movq	(%rax), %rcx
 2253 0cd1 488D45D0 		leaq	-48(%rbp), %rax
 2254 0cd5 BA760000 		movl	$118, %edx
 2254      00
 2255 0cda 4889CE   		movq	%rcx, %rsi
 2256 0cdd 4889C7   		movq	%rax, %rdi
 2257 0ce0 E8000000 		call	_ZN8UnitTest11TestDetailsC1ERKS0_i
 2257      00
 2258 0ce5 E8000000 		call	_ZN8UnitTest11CurrentTest7ResultsEv
 2258      00
 2259 0cea 488B00   		movq	(%rax), %rax
 2260 0ced 488D4DD0 		leaq	-48(%rbp), %rcx
 2261 0cf1 BA000000 		movl	$.LC10, %edx
 2261      00
 2262 0cf6 4889CE   		movq	%rcx, %rsi
 2263 0cf9 4889C7   		movq	%rax, %rdi
 2264 0cfc E8000000 		call	_ZN8UnitTest11TestResults13OnTestFailureERKNS_11TestDetailsEPKc
 2264      00
 2265              	.LEHE70:
 2266 0d01 EB59     		jmp	.L109
 2267              	.L114:
 2268 0d03 4889C3   		movq	%rax, %rbx
 2269              		.loc 4 118 0
 2270 0d06 E8000000 		call	__cxa_end_catch
 2270      00
 2271 0d0b 4889D8   		movq	%rbx, %rax
 2272 0d0e 4889C7   		movq	%rax, %rdi
 2273              	.LEHB71:
 2274 0d11 E8000000 		call	_Unwind_Resume
 2274      00
 2275              	.LEHE71:
 2276              	.L113:
 2277 0d16 4889C7   		movq	%rax, %rdi
 2278 0d19 E8000000 		call	__cxa_begin_catch
 2278      00
 2279              	.LEHB72:
 2280 0d1e E8000000 		call	_ZN8UnitTest11CurrentTest7DetailsEv
 2280      00
 2281 0d23 488B08   		movq	(%rax), %rcx
 2282 0d26 488D45D0 		leaq	-48(%rbp), %rax
 2283 0d2a BA760000 		movl	$118, %edx
 2283      00
 2284 0d2f 4889CE   		movq	%rcx, %rsi
 2285 0d32 4889C7   		movq	%rax, %rdi
 2286 0d35 E8000000 		call	_ZN8UnitTest11TestDetailsC1ERKS0_i
 2286      00
 2287              		.loc 4 118 0 discriminator 1
 2288 0d3a E8000000 		call	_ZN8UnitTest11CurrentTest7ResultsEv
 2288      00
 2289 0d3f 488B00   		movq	(%rax), %rax
 2290 0d42 488D4DD0 		leaq	-48(%rbp), %rcx
 2291 0d46 BA000000 		movl	$.LC11, %edx
 2291      00
 2292 0d4b 4889CE   		movq	%rcx, %rsi
 2293 0d4e 4889C7   		movq	%rax, %rdi
 2294 0d51 E8000000 		call	_ZN8UnitTest11TestResults13OnTestFailureERKNS_11TestDetailsEPKc
 2294      00
 2295              	.LEHE72:
 2296              	.LEHB73:
 2297 0d56 E8000000 		call	__cxa_end_catch
 2297      00
 2298              	.LEHE73:
 119:TestTest.cpp  **** }
 2299              		.loc 4 119 0 is_stmt 1 discriminator 1
 2300 0d5b 90       		nop
 2301              	.L109:
 2302              		.loc 4 119 0 is_stmt 0
 2303 0d5c 4883C428 		addq	$40, %rsp
 2304 0d60 5B       		popq	%rbx
 2305 0d61 5D       		popq	%rbp
 2306              		.cfi_def_cfa 7, 8
 2307 0d62 C3       		ret
 2308              		.cfi_endproc
 2309              	.LFE1068:
 2310              		.section	.gcc_except_table
 2311              		.align 4
 2312              	.LLSDA1068:
 2313 01a0 FF       		.byte	0xff
 2314 01a1 03       		.byte	0x3
 2315 01a2 19       		.uleb128 .LLSDATT1068-.LLSDATTD1068
 2316              	.LLSDATTD1068:
 2317 01a3 01       		.byte	0x1
 2318 01a4 11       		.uleb128 .LLSDACSE1068-.LLSDACSB1068
 2319              	.LLSDACSB1068:
 2320 01a5 1E       		.uleb128 .LEHB70-.LFB1068
 2321 01a6 38       		.uleb128 .LEHE70-.LEHB70
 2322 01a7 6B       		.uleb128 .L113-.LFB1068
 2323 01a8 01       		.uleb128 0x1
 2324 01a9 66       		.uleb128 .LEHB71-.LFB1068
 2325 01aa 05       		.uleb128 .LEHE71-.LEHB71
 2326 01ab 00       		.uleb128 0
 2327 01ac 00       		.uleb128 0
 2328 01ad 73       		.uleb128 .LEHB72-.LFB1068
 2329 01ae 38       		.uleb128 .LEHE72-.LEHB72
 2330 01af 58       		.uleb128 .L114-.LFB1068
 2331 01b0 00       		.uleb128 0
 2332 01b1 AB01     		.uleb128 .LEHB73-.LFB1068
 2333 01b3 05       		.uleb128 .LEHE73-.LEHB73
 2334 01b4 00       		.uleb128 0
 2335 01b5 00       		.uleb128 0
 2336              	.LLSDACSE1068:
 2337 01b6 01       		.byte	0x1
 2338 01b7 00       		.byte	0
 2339              		.align 4
 2340 01b8 00000000 		.long	0
 2341              	
 2342              	.LLSDATT1068:
 2343              		.text
 2345              		.section	.rodata
 2346 0312 00000000 		.align 8
 2346      0000
 2347              	.LC26:
 2348 0318 4F75744F 		.string	"OutOfCoreCHECKMacrosCanFailTests"
 2348      66436F72 
 2348      65434845 
 2348      434B4D61 
 2348      63726F73 
 2349              		.text
 2350 0d63 90       		.align 2
 2352              	_ZN12_GLOBAL__N_136TestOutOfCoreCHECKMacrosCanFailTestsC2Ev:
 2353              	.LFB1070:
 120:TestTest.cpp  **** 
 121:TestTest.cpp  **** TEST(OutOfCoreCHECKMacrosCanFailTests)
 2354              		.loc 4 121 0 is_stmt 1
 2355              		.cfi_startproc
 2356 0d64 55       		pushq	%rbp
 2357              		.cfi_def_cfa_offset 16
 2358              		.cfi_offset 6, -16
 2359 0d65 4889E5   		movq	%rsp, %rbp
 2360              		.cfi_def_cfa_register 6
 2361 0d68 4883EC10 		subq	$16, %rsp
 2362 0d6c 48897DF8 		movq	%rdi, -8(%rbp)
 2363              	.LBB35:
 2364              		.loc 4 121 0
 2365 0d70 E8000000 		call	_ZN13UnitTestSuite12GetSuiteNameEv
 2365      00
 2366 0d75 4889C2   		movq	%rax, %rdx
 2367 0d78 488B45F8 		movq	-8(%rbp), %rax
 2368 0d7c 41B87900 		movl	$121, %r8d
 2368      0000
 2369 0d82 B9000000 		movl	$.LC1, %ecx
 2369      00
 2370 0d87 BE000000 		movl	$.LC26, %esi
 2370      00
 2371 0d8c 4889C7   		movq	%rax, %rdi
 2372 0d8f E8000000 		call	_ZN8UnitTest4TestC2EPKcS2_S2_i
 2372      00
 2373 0d94 488B45F8 		movq	-8(%rbp), %rax
 2374 0d98 48C70000 		movq	$_ZTVN12_GLOBAL__N_136TestOutOfCoreCHECKMacrosCanFailTestsE+16, (%rax)
 2374      000000
 2375              	.LBE35:
 2376 0d9f C9       		leave
 2377              		.cfi_def_cfa 7, 8
 2378 0da0 C3       		ret
 2379              		.cfi_endproc
 2380              	.LFE1070:
 2382              		.set	_ZN12_GLOBAL__N_136TestOutOfCoreCHECKMacrosCanFailTestsC1Ev,_ZN12_GLOBAL__N_136TestOutOfCoreC
 2383              		.local	_ZN12_GLOBAL__N_144testOutOfCoreCHECKMacrosCanFailTestsInstanceE
 2384              		.comm	_ZN12_GLOBAL__N_144testOutOfCoreCHECKMacrosCanFailTestsInstanceE,56,32
 2385              		.local	_ZN12_GLOBAL__N_137adderOutOfCoreCHECKMacrosCanFailTestsE
 2386              		.comm	_ZN12_GLOBAL__N_137adderOutOfCoreCHECKMacrosCanFailTestsE,1,1
 2387 0da1 90       		.align 2
 2389              	_ZNK12_GLOBAL__N_136TestOutOfCoreCHECKMacrosCanFailTests7RunImplEv:
 2390              	.LFB1072:
 122:TestTest.cpp  **** {
 2391              		.loc 4 122 0
 2392              		.cfi_startproc
 2393              		.cfi_personality 0x3,__gxx_personality_v0
 2394              		.cfi_lsda 0x3,.LLSDA1072
 2395 0da2 55       		pushq	%rbp
 2396              		.cfi_def_cfa_offset 16
 2397              		.cfi_offset 6, -16
 2398 0da3 4889E5   		movq	%rsp, %rbp
 2399              		.cfi_def_cfa_register 6
 2400 0da6 53       		pushq	%rbx
 2401 0da7 4883EC68 		subq	$104, %rsp
 2402              		.cfi_offset 3, -24
 2403 0dab 48897D98 		movq	%rdi, -104(%rbp)
 2404              	.LBB36:
 123:TestTest.cpp  **** 	TestResults results;
 2405              		.loc 4 123 0
 2406 0daf 488D45B0 		leaq	-80(%rbp), %rax
 2407 0db3 BE000000 		movl	$0, %esi
 2407      00
 2408 0db8 4889C7   		movq	%rax, %rdi
 2409              	.LEHB74:
 2410 0dbb E8000000 		call	_ZN8UnitTest11TestResultsC1EPNS_12TestReporterE
 2410      00
 2411              	.LBB37:
 124:TestTest.cpp  **** 	{
 125:TestTest.cpp  **** 		ScopedCurrentTest scopedResult(results);
 2412              		.loc 4 125 0
 2413 0dc0 488D4DB0 		leaq	-80(%rbp), %rcx
 2414 0dc4 488D45D0 		leaq	-48(%rbp), %rax
 2415 0dc8 BA000000 		movl	$0, %edx
 2415      00
 2416 0dcd 4889CE   		movq	%rcx, %rsi
 2417 0dd0 4889C7   		movq	%rax, %rdi
 2418 0dd3 E8000000 		call	_ZN17ScopedCurrentTestC1ERN8UnitTest11TestResultsEPKNS0_11TestDetailsE
 2418      00
 2419              	.LEHE74:
 2420              	.LEHB75:
 126:TestTest.cpp  **** 		Fail();
 2421              		.loc 4 126 0
 2422 0dd8 E8CEFEFF 		call	_ZN12_GLOBAL__N_14FailEv
 2422      FF
 2423              	.LEHE75:
 2424              		.loc 4 126 0 is_stmt 0 discriminator 1
 2425 0ddd 488D45D0 		leaq	-48(%rbp), %rax
 2426 0de1 4889C7   		movq	%rax, %rdi
 2427              	.LEHB76:
 2428 0de4 E8000000 		call	_ZN17ScopedCurrentTestD1Ev
 2428      00
 2429              	.LEHE76:
 2430              	.LEHB77:
 2431              	.LBE37:
 127:TestTest.cpp  **** 	}
 128:TestTest.cpp  **** 
 129:TestTest.cpp  **** 	CHECK_EQUAL(1, results.GetFailureCount());
 2432              		.loc 4 129 0 is_stmt 1 discriminator 1
 2433 0de9 E8000000 		call	_ZN8UnitTest11CurrentTest7DetailsEv
 2433      00
 2434 0dee 488B08   		movq	(%rax), %rcx
 2435 0df1 488D45D0 		leaq	-48(%rbp), %rax
 2436 0df5 BA810000 		movl	$129, %edx
 2436      00
 2437 0dfa 4889CE   		movq	%rcx, %rsi
 2438 0dfd 4889C7   		movq	%rax, %rdi
 2439 0e00 E8000000 		call	_ZN8UnitTest11TestDetailsC1ERKS0_i
 2439      00
 2440 0e05 488D45B0 		leaq	-80(%rbp), %rax
 2441 0e09 4889C7   		movq	%rax, %rdi
 2442 0e0c E8000000 		call	_ZNK8UnitTest11TestResults15GetFailureCountEv
 2442      00
 2443 0e11 8945AC   		movl	%eax, -84(%rbp)
 2444 0e14 C745A801 		movl	$1, -88(%rbp)
 2444      000000
 2445 0e1b E8000000 		call	_ZN8UnitTest11CurrentTest7ResultsEv
 2445      00
 2446 0e20 488B00   		movq	(%rax), %rax
 2447 0e23 488D4DD0 		leaq	-48(%rbp), %rcx
 2448 0e27 488D55AC 		leaq	-84(%rbp), %rdx
 2449 0e2b 488D75A8 		leaq	-88(%rbp), %rsi
 2450 0e2f 4889C7   		movq	%rax, %rdi
 2451 0e32 E8000000 		call	_ZN8UnitTest10CheckEqualIiiEEvRNS_11TestResultsERKT_RKT0_RKNS_11TestDetailsE
 2451      00
 2452              	.LEHE77:
 2453              	.LBE36:
 130:TestTest.cpp  **** }
 2454              		.loc 4 130 0
 2455 0e37 EB72     		jmp	.L124
 2456              	.L121:
 2457 0e39 4889C3   		movq	%rax, %rbx
 2458              	.LBB39:
 2459              	.LBB38:
 126:TestTest.cpp  **** 		Fail();
 2460              		.loc 4 126 0
 2461 0e3c 488D45D0 		leaq	-48(%rbp), %rax
 2462 0e40 4889C7   		movq	%rax, %rdi
 2463 0e43 E8000000 		call	_ZN17ScopedCurrentTestD1Ev
 2463      00
 2464 0e48 4889D8   		movq	%rbx, %rax
 2465 0e4b 4889C7   		movq	%rax, %rdi
 2466              	.LEHB78:
 2467 0e4e E8000000 		call	_Unwind_Resume
 2467      00
 2468              	.LEHE78:
 2469              	.L123:
 2470 0e53 4889C3   		movq	%rax, %rbx
 2471              	.LBE38:
 129:TestTest.cpp  **** }
 2472              		.loc 4 129 0
 2473 0e56 E8000000 		call	__cxa_end_catch
 2473      00
 2474 0e5b 4889D8   		movq	%rbx, %rax
 2475 0e5e 4889C7   		movq	%rax, %rdi
 2476              	.LEHB79:
 2477 0e61 E8000000 		call	_Unwind_Resume
 2477      00
 2478              	.LEHE79:
 2479              	.L122:
 2480 0e66 4889C7   		movq	%rax, %rdi
 2481 0e69 E8000000 		call	__cxa_begin_catch
 2481      00
 2482              	.LEHB80:
 2483 0e6e E8000000 		call	_ZN8UnitTest11CurrentTest7DetailsEv
 2483      00
 2484 0e73 488B08   		movq	(%rax), %rcx
 2485 0e76 488D45D0 		leaq	-48(%rbp), %rax
 2486 0e7a BA810000 		movl	$129, %edx
 2486      00
 2487 0e7f 4889CE   		movq	%rcx, %rsi
 2488 0e82 4889C7   		movq	%rax, %rdi
 2489 0e85 E8000000 		call	_ZN8UnitTest11TestDetailsC1ERKS0_i
 2489      00
 129:TestTest.cpp  **** }
 2490              		.loc 4 129 0 is_stmt 0 discriminator 1
 2491 0e8a E8000000 		call	_ZN8UnitTest11CurrentTest7ResultsEv
 2491      00
 2492 0e8f 488B00   		movq	(%rax), %rax
 2493 0e92 488D4DD0 		leaq	-48(%rbp), %rcx
 2494 0e96 BA000000 		movl	$.LC12, %edx
 2494      00
 2495 0e9b 4889CE   		movq	%rcx, %rsi
 2496 0e9e 4889C7   		movq	%rax, %rdi
 2497 0ea1 E8000000 		call	_ZN8UnitTest11TestResults13OnTestFailureERKNS_11TestDetailsEPKc
 2497      00
 2498              	.LEHE80:
 2499              	.LEHB81:
 2500 0ea6 E8000000 		call	__cxa_end_catch
 2500      00
 2501              	.LEHE81:
 2502              	.L124:
 2503              	.LBE39:
 2504              		.loc 4 130 0 is_stmt 1
 2505 0eab 90       		nop
 2506 0eac 4883C468 		addq	$104, %rsp
 2507 0eb0 5B       		popq	%rbx
 2508 0eb1 5D       		popq	%rbp
 2509              		.cfi_def_cfa 7, 8
 2510 0eb2 C3       		ret
 2511              		.cfi_endproc
 2512              	.LFE1072:
 2513              		.section	.gcc_except_table
 2514              		.align 4
 2515              	.LLSDA1072:
 2516 01bc FF       		.byte	0xff
 2517 01bd 03       		.byte	0x3
 2518 01be 31       		.uleb128 .LLSDATT1072-.LLSDATTD1072
 2519              	.LLSDATTD1072:
 2520 01bf 01       		.byte	0x1
 2521 01c0 27       		.uleb128 .LLSDACSE1072-.LLSDACSB1072
 2522              	.LLSDACSB1072:
 2523 01c1 19       		.uleb128 .LEHB74-.LFB1072
 2524 01c2 1D       		.uleb128 .LEHE74-.LEHB74
 2525 01c3 00       		.uleb128 0
 2526 01c4 00       		.uleb128 0
 2527 01c5 36       		.uleb128 .LEHB75-.LFB1072
 2528 01c6 05       		.uleb128 .LEHE75-.LEHB75
 2529 01c7 9701     		.uleb128 .L121-.LFB1072
 2530 01c9 00       		.uleb128 0
 2531 01ca 42       		.uleb128 .LEHB76-.LFB1072
 2532 01cb 05       		.uleb128 .LEHE76-.LEHB76
 2533 01cc 00       		.uleb128 0
 2534 01cd 00       		.uleb128 0
 2535 01ce 47       		.uleb128 .LEHB77-.LFB1072
 2536 01cf 4E       		.uleb128 .LEHE77-.LEHB77
 2537 01d0 C401     		.uleb128 .L122-.LFB1072
 2538 01d2 01       		.uleb128 0x1
 2539 01d3 AC01     		.uleb128 .LEHB78-.LFB1072
 2540 01d5 05       		.uleb128 .LEHE78-.LEHB78
 2541 01d6 00       		.uleb128 0
 2542 01d7 00       		.uleb128 0
 2543 01d8 BF01     		.uleb128 .LEHB79-.LFB1072
 2544 01da 05       		.uleb128 .LEHE79-.LEHB79
 2545 01db 00       		.uleb128 0
 2546 01dc 00       		.uleb128 0
 2547 01dd CC01     		.uleb128 .LEHB80-.LFB1072
 2548 01df 38       		.uleb128 .LEHE80-.LEHB80
 2549 01e0 B101     		.uleb128 .L123-.LFB1072
 2550 01e2 00       		.uleb128 0
 2551 01e3 8402     		.uleb128 .LEHB81-.LFB1072
 2552 01e5 05       		.uleb128 .LEHE81-.LEHB81
 2553 01e6 00       		.uleb128 0
 2554 01e7 00       		.uleb128 0
 2555              	.LLSDACSE1072:
 2556 01e8 01       		.byte	0x1
 2557 01e9 00       		.byte	0
 2558 01ea 0000     		.align 4
 2559 01ec 00000000 		.long	0
 2560              	
 2561              	.LLSDATT1072:
 2562              		.text
 2564              		.section	.text._ZN8UnitTest5CheckIbEEbT_,"axG",@progbits,_ZN8UnitTest5CheckIbEEbT_,comdat
 2565              		.weak	_ZN8UnitTest5CheckIbEEbT_
 2567              	_ZN8UnitTest5CheckIbEEbT_:
 2568              	.LFB1100:
 2569              		.file 5 "../Checks.h"
   1:../Checks.h   **** #ifndef UNITTEST_CHECKS_H
   2:../Checks.h   **** #define UNITTEST_CHECKS_H
   3:../Checks.h   **** 
   4:../Checks.h   **** #include "Config.h"
   5:../Checks.h   **** #include "TestResults.h"
   6:../Checks.h   **** #include "MemoryOutStream.h"
   7:../Checks.h   **** 
   8:../Checks.h   **** namespace UnitTest {
   9:../Checks.h   **** 
  10:../Checks.h   **** 
  11:../Checks.h   **** template< typename Value >
  12:../Checks.h   **** bool Check(Value const value)
 2570              		.loc 5 12 0
 2571              		.cfi_startproc
 2572 0000 55       		pushq	%rbp
 2573              		.cfi_def_cfa_offset 16
 2574              		.cfi_offset 6, -16
 2575 0001 4889E5   		movq	%rsp, %rbp
 2576              		.cfi_def_cfa_register 6
 2577 0004 89F8     		movl	%edi, %eax
 2578 0006 8845FC   		movb	%al, -4(%rbp)
  13:../Checks.h   **** {
  14:../Checks.h   ****     return !!value; // doing double negative to avoid silly VS warnings
 2579              		.loc 5 14 0
 2580 0009 0FB645FC 		movzbl	-4(%rbp), %eax
  15:../Checks.h   **** }
 2581              		.loc 5 15 0
 2582 000d 5D       		popq	%rbp
 2583              		.cfi_def_cfa 7, 8
 2584 000e C3       		ret
 2585              		.cfi_endproc
 2586              	.LFE1100:
 2588              		.section	.text._ZN8UnitTest15MemoryOutStreamD1Ev,"axG",@progbits,_ZN8UnitTest15MemoryOutStreamD1Ev
 2589              		.align 2
 2590              		.weak	_ZN8UnitTest15MemoryOutStreamD1Ev
 2592              	_ZN8UnitTest15MemoryOutStreamD1Ev:
 2593              	.LFB1104:
  13:../MemoryOutStream.h **** {
 2594              		.loc 2 13 0
 2595              		.cfi_startproc
 2596              		.cfi_personality 0x3,__gxx_personality_v0
 2597              		.cfi_lsda 0x3,.LLSDA1104
 2598 0000 55       		pushq	%rbp
 2599              		.cfi_def_cfa_offset 16
 2600              		.cfi_offset 6, -16
 2601 0001 4889E5   		movq	%rsp, %rbp
 2602              		.cfi_def_cfa_register 6
 2603 0004 53       		pushq	%rbx
 2604 0005 4883EC18 		subq	$24, %rsp
 2605              		.cfi_offset 3, -24
 2606 0009 48897DE8 		movq	%rdi, -24(%rbp)
 2607              	.LBB40:
  13:../MemoryOutStream.h **** {
 2608              		.loc 2 13 0
 2609 000d BA000000 		movl	$_ZTVN8UnitTest15MemoryOutStreamE+24, %edx
 2609      00
 2610 0012 488B45E8 		movq	-24(%rbp), %rax
 2611 0016 488910   		movq	%rdx, (%rax)
 2612 0019 BA600000 		movl	$96, %edx
 2612      00
 2613 001e 488B45E8 		movq	-24(%rbp), %rax
 2614 0022 4801C2   		addq	%rax, %rdx
 2615 0025 B8000000 		movl	$_ZTVN8UnitTest15MemoryOutStreamE+64, %eax
 2615      00
 2616 002a 488902   		movq	%rax, (%rdx)
 2617 002d 488B45E8 		movq	-24(%rbp), %rax
 2618 0031 4883C058 		addq	$88, %rax
 2619 0035 4889C7   		movq	%rax, %rdi
 2620              	.LEHB82:
 2621 0038 E8000000 		call	_ZNSsD1Ev
 2621      00
 2622              	.LEHE82:
  13:../MemoryOutStream.h **** {
 2623              		.loc 2 13 0 is_stmt 0 discriminator 10
 2624 003d BA000000 		movl	$_ZTTN8UnitTest15MemoryOutStreamE+8, %edx
 2624      00
 2625 0042 488B45E8 		movq	-24(%rbp), %rax
 2626 0046 4889D6   		movq	%rdx, %rsi
 2627 0049 4889C7   		movq	%rax, %rdi
 2628              	.LEHB83:
 2629 004c E8000000 		call	_ZNSt19basic_ostringstreamIcSt11char_traitsIcESaIcEED2Ev
 2629      00
 2630              	.LEHE83:
  13:../MemoryOutStream.h **** {
 2631              		.loc 2 13 0 discriminator 14
 2632 0051 B8020000 		movl	$2, %eax
 2632      00
 2633 0056 85C0     		testl	%eax, %eax
 2634 0058 7410     		je	.L128
  13:../MemoryOutStream.h **** {
 2635              		.loc 2 13 0 discriminator 15
 2636 005a 488B45E8 		movq	-24(%rbp), %rax
 2637 005e 4883C060 		addq	$96, %rax
 2638 0062 4889C7   		movq	%rax, %rdi
 2639              	.LEHB84:
 2640 0065 E8000000 		call	_ZNSt9basic_iosIcSt11char_traitsIcEED2Ev
 2640      00
 2641              	.LEHE84:
 2642              	.L128:
 2643              	.LBE40:
  13:../MemoryOutStream.h **** {
 2644              		.loc 2 13 0 discriminator 16
 2645 006a B8000000 		movl	$0, %eax
 2645      00
 2646 006f 85C0     		testl	%eax, %eax
 2647 0071 744E     		je	.L135
  13:../MemoryOutStream.h **** {
 2648              		.loc 2 13 0 discriminator 1
 2649 0073 488B45E8 		movq	-24(%rbp), %rax
 2650 0077 4889C7   		movq	%rax, %rdi
 2651 007a E8000000 		call	_ZdlPv
 2651      00
 2652 007f EB40     		jmp	.L135
 2653              	.L133:
 2654 0081 4889C3   		movq	%rax, %rbx
 2655              	.LBB41:
  13:../MemoryOutStream.h **** {
 2656              		.loc 2 13 0
 2657 0084 BA000000 		movl	$_ZTTN8UnitTest15MemoryOutStreamE+8, %edx
 2657      00
 2658 0089 488B45E8 		movq	-24(%rbp), %rax
 2659 008d 4889D6   		movq	%rdx, %rsi
 2660 0090 4889C7   		movq	%rax, %rdi
 2661 0093 E8000000 		call	_ZNSt19basic_ostringstreamIcSt11char_traitsIcESaIcEED2Ev
 2661      00
 2662 0098 EB03     		jmp	.L131
 2663              	.L134:
 2664 009a 4889C3   		movq	%rax, %rbx
 2665              	.L131:
 2666 009d B8020000 		movl	$2, %eax
 2666      00
 2667 00a2 85C0     		testl	%eax, %eax
 2668 00a4 7410     		je	.L132
  13:../MemoryOutStream.h **** {
 2669              		.loc 2 13 0 discriminator 20
 2670 00a6 488B45E8 		movq	-24(%rbp), %rax
 2671 00aa 4883C060 		addq	$96, %rax
 2672 00ae 4889C7   		movq	%rax, %rdi
 2673 00b1 E8000000 		call	_ZNSt9basic_iosIcSt11char_traitsIcEED2Ev
 2673      00
 2674              	.L132:
 2675 00b6 4889D8   		movq	%rbx, %rax
 2676 00b9 4889C7   		movq	%rax, %rdi
 2677              	.LEHB85:
 2678 00bc E8000000 		call	_Unwind_Resume
 2678      00
 2679              	.LEHE85:
 2680              	.L135:
 2681              	.LBE41:
  13:../MemoryOutStream.h **** {
 2682              		.loc 2 13 0
 2683 00c1 4883C418 		addq	$24, %rsp
 2684 00c5 5B       		popq	%rbx
 2685 00c6 5D       		popq	%rbp
 2686              		.cfi_def_cfa 7, 8
 2687 00c7 C3       		ret
 2688              		.cfi_endproc
 2689              	.LFE1104:
 2690              		.section	.gcc_except_table
 2691              	.LLSDA1104:
 2692 01f0 FF       		.byte	0xff
 2693 01f1 FF       		.byte	0xff
 2694 01f2 01       		.byte	0x1
 2695 01f3 13       		.uleb128 .LLSDACSE1104-.LLSDACSB1104
 2696              	.LLSDACSB1104:
 2697 01f4 38       		.uleb128 .LEHB82-.LFB1104
 2698 01f5 05       		.uleb128 .LEHE82-.LEHB82
 2699 01f6 8101     		.uleb128 .L133-.LFB1104
 2700 01f8 00       		.uleb128 0
 2701 01f9 4C       		.uleb128 .LEHB83-.LFB1104
 2702 01fa 05       		.uleb128 .LEHE83-.LEHB83
 2703 01fb 9A01     		.uleb128 .L134-.LFB1104
 2704 01fd 00       		.uleb128 0
 2705 01fe 65       		.uleb128 .LEHB84-.LFB1104
 2706 01ff 05       		.uleb128 .LEHE84-.LEHB84
 2707 0200 00       		.uleb128 0
 2708 0201 00       		.uleb128 0
 2709 0202 BC01     		.uleb128 .LEHB85-.LFB1104
 2710 0204 05       		.uleb128 .LEHE85-.LEHB85
 2711 0205 00       		.uleb128 0
 2712 0206 00       		.uleb128 0
 2713              	.LLSDACSE1104:
 2714              		.section	.text._ZN8UnitTest15MemoryOutStreamD1Ev,"axG",@progbits,_ZN8UnitTest15MemoryOutStreamD1Ev
 2716              		.set	.LTHUNK0,_ZN8UnitTest15MemoryOutStreamD1Ev
 2717              		.weak	_ZTv0_n24_N8UnitTest15MemoryOutStreamD1Ev
 2719              	_ZTv0_n24_N8UnitTest15MemoryOutStreamD1Ev:
 2720              	.LFB1200:
  13:../MemoryOutStream.h **** {
 2721              		.loc 2 13 0 is_stmt 1
 2722              		.cfi_startproc
 2723 00c8 4C8B17   		movq	(%rdi), %r10
 2724 00cb 49037AE8 		addq	-24(%r10), %rdi
 2725 00cf E92CFFFF 		jmp	.LTHUNK0
 2725      FF
 2726              		.cfi_endproc
 2727              	.LFE1200:
 2729              		.section	.text._ZN8UnitTest15MemoryOutStreamD0Ev,"axG",@progbits,_ZN8UnitTest15MemoryOutStreamD0Ev
 2730              		.align 2
 2731              		.weak	_ZN8UnitTest15MemoryOutStreamD0Ev
 2733              	_ZN8UnitTest15MemoryOutStreamD0Ev:
 2734              	.LFB1105:
  13:../MemoryOutStream.h **** {
 2735              		.loc 2 13 0
 2736              		.cfi_startproc
 2737 0000 55       		pushq	%rbp
 2738              		.cfi_def_cfa_offset 16
 2739              		.cfi_offset 6, -16
 2740 0001 4889E5   		movq	%rsp, %rbp
 2741              		.cfi_def_cfa_register 6
 2742 0004 4883EC10 		subq	$16, %rsp
 2743 0008 48897DF8 		movq	%rdi, -8(%rbp)
  13:../MemoryOutStream.h **** {
 2744              		.loc 2 13 0
 2745 000c 488B45F8 		movq	-8(%rbp), %rax
 2746 0010 4889C7   		movq	%rax, %rdi
 2747 0013 E8000000 		call	_ZN8UnitTest15MemoryOutStreamD1Ev
 2747      00
 2748 0018 488B45F8 		movq	-8(%rbp), %rax
 2749 001c 4889C7   		movq	%rax, %rdi
 2750 001f E8000000 		call	_ZdlPv
 2750      00
 2751 0024 C9       		leave
 2752              		.cfi_def_cfa 7, 8
 2753 0025 C3       		ret
 2754              		.cfi_endproc
 2755              	.LFE1105:
 2757              		.set	.LTHUNK1,_ZN8UnitTest15MemoryOutStreamD0Ev
 2758              		.weak	_ZTv0_n24_N8UnitTest15MemoryOutStreamD0Ev
 2760              	_ZTv0_n24_N8UnitTest15MemoryOutStreamD0Ev:
 2761              	.LFB1201:
  13:../MemoryOutStream.h **** {
 2762              		.loc 2 13 0
 2763              		.cfi_startproc
 2764 0026 4C8B17   		movq	(%rdi), %r10
 2765 0029 49037AE8 		addq	-24(%r10), %rdi
 2766 002d EBD1     		jmp	.LTHUNK1
 2767              		.cfi_endproc
 2768              	.LFE1201:
 2770              		.section	.rodata
 2771              	.LC27:
 2772 0339 45787065 		.string	"Expected "
 2772      63746564 
 2772      2000
 2773              	.LC28:
 2774 0343 20627574 		.string	" but was "
 2774      20776173 
 2774      2000
 2775              		.section	.text._ZN8UnitTest10CheckEqualIiiEEvRNS_11TestResultsERKT_RKT0_RKNS_11TestDetailsE,"axG",
 2776              		.weak	_ZN8UnitTest10CheckEqualIiiEEvRNS_11TestResultsERKT_RKT0_RKNS_11TestDetailsE
 2778              	_ZN8UnitTest10CheckEqualIiiEEvRNS_11TestResultsERKT_RKT0_RKNS_11TestDetailsE:
 2779              	.LFB1101:
  16:../Checks.h   **** 
  17:../Checks.h   **** 
  18:../Checks.h   **** template< typename Expected, typename Actual >
  19:../Checks.h   **** void CheckEqual(TestResults& results, Expected const& expected, Actual const& actual, TestDetails c
 2780              		.loc 5 19 0
 2781              		.cfi_startproc
 2782              		.cfi_personality 0x3,__gxx_personality_v0
 2783              		.cfi_lsda 0x3,.LLSDA1101
 2784 0000 55       		pushq	%rbp
 2785              		.cfi_def_cfa_offset 16
 2786              		.cfi_offset 6, -16
 2787 0001 4889E5   		movq	%rsp, %rbp
 2788              		.cfi_def_cfa_register 6
 2789 0004 4154     		pushq	%r12
 2790 0006 53       		pushq	%rbx
 2791 0007 4881EC90 		subq	$400, %rsp
 2791      010000
 2792              		.cfi_offset 12, -24
 2793              		.cfi_offset 3, -32
 2794 000e 4889BD78 		movq	%rdi, -392(%rbp)
 2794      FEFFFF
 2795 0015 4889B570 		movq	%rsi, -400(%rbp)
 2795      FEFFFF
 2796 001c 48899568 		movq	%rdx, -408(%rbp)
 2796      FEFFFF
 2797 0023 48898D60 		movq	%rcx, -416(%rbp)
 2797      FEFFFF
 2798              	.LBB42:
 2799              	.LBB43:
  20:../Checks.h   **** {
  21:../Checks.h   ****     if (!(expected == actual))
 2800              		.loc 5 21 0
 2801 002a 488B8570 		movq	-400(%rbp), %rax
 2801      FEFFFF
 2802 0031 8B10     		movl	(%rax), %edx
 2803 0033 488B8568 		movq	-408(%rbp), %rax
 2803      FEFFFF
 2804 003a 8B00     		movl	(%rax), %eax
 2805 003c 39C2     		cmpl	%eax, %edx
 2806 003e 0F84B100 		je	.L142
 2806      0000
 2807              	.LBB44:
  22:../Checks.h   ****     {
  23:../Checks.h   ****         UnitTest::MemoryOutStream stream;
 2808              		.loc 5 23 0
 2809 0044 488D8580 		leaq	-384(%rbp), %rax
 2809      FEFFFF
 2810 004b 4889C7   		movq	%rax, %rdi
 2811              	.LEHB86:
 2812 004e E8000000 		call	_ZN8UnitTest15MemoryOutStreamC1Ev
 2812      00
 2813              	.LEHE86:
  24:../Checks.h   ****         stream << "Expected " << expected << " but was " << actual;
 2814              		.loc 5 24 0
 2815 0053 488B8568 		movq	-408(%rbp), %rax
 2815      FEFFFF
 2816 005a 8B18     		movl	(%rax), %ebx
 2817 005c 488B8570 		movq	-400(%rbp), %rax
 2817      FEFFFF
 2818 0063 448B20   		movl	(%rax), %r12d
 2819 0066 488D8580 		leaq	-384(%rbp), %rax
 2819      FEFFFF
 2820 006d BE000000 		movl	$.LC27, %esi
 2820      00
 2821 0072 4889C7   		movq	%rax, %rdi
 2822              	.LEHB87:
 2823 0075 E8000000 		call	_ZStlsISt11char_traitsIcEERSt13basic_ostreamIcT_ES5_PKc
 2823      00
 2824 007a 4489E6   		movl	%r12d, %esi
 2825 007d 4889C7   		movq	%rax, %rdi
 2826 0080 E8000000 		call	_ZNSolsEi
 2826      00
 2827              		.loc 5 24 0 is_stmt 0 discriminator 1
 2828 0085 BE000000 		movl	$.LC28, %esi
 2828      00
 2829 008a 4889C7   		movq	%rax, %rdi
 2830 008d E8000000 		call	_ZStlsISt11char_traitsIcEERSt13basic_ostreamIcT_ES5_PKc
 2830      00
 2831 0092 89DE     		movl	%ebx, %esi
 2832 0094 4889C7   		movq	%rax, %rdi
 2833 0097 E8000000 		call	_ZNSolsEi
 2833      00
  25:../Checks.h   **** 
  26:../Checks.h   ****         results.OnTestFailure(details, stream.GetText());
 2834              		.loc 5 26 0 is_stmt 1
 2835 009c 488D8580 		leaq	-384(%rbp), %rax
 2835      FEFFFF
 2836 00a3 4889C7   		movq	%rax, %rdi
 2837 00a6 E8000000 		call	_ZNK8UnitTest15MemoryOutStream7GetTextEv
 2837      00
 2838 00ab 4889C2   		movq	%rax, %rdx
 2839 00ae 488B8D60 		movq	-416(%rbp), %rcx
 2839      FEFFFF
 2840 00b5 488B8578 		movq	-392(%rbp), %rax
 2840      FEFFFF
 2841 00bc 4889CE   		movq	%rcx, %rsi
 2842 00bf 4889C7   		movq	%rax, %rdi
 2843 00c2 E8000000 		call	_ZN8UnitTest11TestResults13OnTestFailureERKNS_11TestDetailsEPKc
 2843      00
 2844              	.LEHE87:
 2845              		.loc 5 26 0 is_stmt 0 discriminator 1
 2846 00c7 488D8580 		leaq	-384(%rbp), %rax
 2846      FEFFFF
 2847 00ce 4889C7   		movq	%rax, %rdi
 2848              	.LEHB88:
 2849 00d1 E8000000 		call	_ZN8UnitTest15MemoryOutStreamD1Ev
 2849      00
 2850              	.LEHE88:
 2851              	.LBE44:
 2852 00d6 EB1D     		jmp	.L142
 2853              	.L141:
 2854 00d8 4889C3   		movq	%rax, %rbx
 2855              	.LBB45:
 2856              		.loc 5 26 0
 2857 00db 488D8580 		leaq	-384(%rbp), %rax
 2857      FEFFFF
 2858 00e2 4889C7   		movq	%rax, %rdi
 2859 00e5 E8000000 		call	_ZN8UnitTest15MemoryOutStreamD1Ev
 2859      00
 2860 00ea 4889D8   		movq	%rbx, %rax
 2861 00ed 4889C7   		movq	%rax, %rdi
 2862              	.LEHB89:
 2863 00f0 E8000000 		call	_Unwind_Resume
 2863      00
 2864              	.LEHE89:
 2865              	.L142:
 2866              	.LBE45:
 2867              	.LBE43:
 2868              	.LBE42:
  27:../Checks.h   ****     }
  28:../Checks.h   **** }
 2869              		.loc 5 28 0 is_stmt 1
 2870 00f5 4881C490 		addq	$400, %rsp
 2870      010000
 2871 00fc 5B       		popq	%rbx
 2872 00fd 415C     		popq	%r12
 2873 00ff 5D       		popq	%rbp
 2874              		.cfi_def_cfa 7, 8
 2875 0100 C3       		ret
 2876              		.cfi_endproc
 2877              	.LFE1101:
 2878              		.section	.gcc_except_table
 2879              	.LLSDA1101:
 2880 0207 FF       		.byte	0xff
 2881 0208 FF       		.byte	0xff
 2882 0209 01       		.byte	0x1
 2883 020a 13       		.uleb128 .LLSDACSE1101-.LLSDACSB1101
 2884              	.LLSDACSB1101:
 2885 020b 4E       		.uleb128 .LEHB86-.LFB1101
 2886 020c 05       		.uleb128 .LEHE86-.LEHB86
 2887 020d 00       		.uleb128 0
 2888 020e 00       		.uleb128 0
 2889 020f 75       		.uleb128 .LEHB87-.LFB1101
 2890 0210 52       		.uleb128 .LEHE87-.LEHB87
 2891 0211 D801     		.uleb128 .L141-.LFB1101
 2892 0213 00       		.uleb128 0
 2893 0214 D101     		.uleb128 .LEHB88-.LFB1101
 2894 0216 05       		.uleb128 .LEHE88-.LEHB88
 2895 0217 00       		.uleb128 0
 2896 0218 00       		.uleb128 0
 2897 0219 F001     		.uleb128 .LEHB89-.LFB1101
 2898 021b 05       		.uleb128 .LEHE89-.LEHB89
 2899 021c 00       		.uleb128 0
 2900 021d 00       		.uleb128 0
 2901              	.LLSDACSE1101:
 2902              		.section	.text._ZN8UnitTest10CheckEqualIiiEEvRNS_11TestResultsERKT_RKT0_RKNS_11TestDetailsE,"axG",
 2904              		.section	.rodata
 2905 034d 00000000 		.align 32
 2905      00000000 
 2905      00000000 
 2905      00000000 
 2905      000000
 2908              	_ZTVN12_GLOBAL__N_136TestOutOfCoreCHECKMacrosCanFailTestsE:
 2909 0360 00000000 		.quad	0
 2909      00000000 
 2910 0368 00000000 		.quad	_ZTIN12_GLOBAL__N_136TestOutOfCoreCHECKMacrosCanFailTestsE
 2910      00000000 
 2911 0370 00000000 		.quad	_ZN12_GLOBAL__N_136TestOutOfCoreCHECKMacrosCanFailTestsD1Ev
 2911      00000000 
 2912 0378 00000000 		.quad	_ZN12_GLOBAL__N_136TestOutOfCoreCHECKMacrosCanFailTestsD0Ev
 2912      00000000 
 2913 0380 00000000 		.quad	_ZNK12_GLOBAL__N_136TestOutOfCoreCHECKMacrosCanFailTests7RunImplEv
 2913      00000000 
 2914              		.text
 2915 0eb3 90       		.align 2
 2917              	_ZN12_GLOBAL__N_136TestOutOfCoreCHECKMacrosCanFailTestsD2Ev:
 2918              	.LFB1155:
 121:TestTest.cpp  **** {
 2919              		.loc 4 121 0
 2920              		.cfi_startproc
 2921 0eb4 55       		pushq	%rbp
 2922              		.cfi_def_cfa_offset 16
 2923              		.cfi_offset 6, -16
 2924 0eb5 4889E5   		movq	%rsp, %rbp
 2925              		.cfi_def_cfa_register 6
 2926 0eb8 4883EC10 		subq	$16, %rsp
 2927 0ebc 48897DF8 		movq	%rdi, -8(%rbp)
 2928              	.LBB46:
 121:TestTest.cpp  **** {
 2929              		.loc 4 121 0
 2930 0ec0 488B45F8 		movq	-8(%rbp), %rax
 2931 0ec4 48C70000 		movq	$_ZTVN12_GLOBAL__N_136TestOutOfCoreCHECKMacrosCanFailTestsE+16, (%rax)
 2931      000000
 2932 0ecb 488B45F8 		movq	-8(%rbp), %rax
 2933 0ecf 4889C7   		movq	%rax, %rdi
 2934 0ed2 E8000000 		call	_ZN8UnitTest4TestD2Ev
 2934      00
 2935              	.LBE46:
 2936 0ed7 B8000000 		movl	$0, %eax
 2936      00
 2937 0edc 85C0     		testl	%eax, %eax
 2938 0ede 740C     		je	.L143
 121:TestTest.cpp  **** {
 2939              		.loc 4 121 0 is_stmt 0 discriminator 1
 2940 0ee0 488B45F8 		movq	-8(%rbp), %rax
 2941 0ee4 4889C7   		movq	%rax, %rdi
 2942 0ee7 E8000000 		call	_ZdlPv
 2942      00
 2943              	.L143:
 121:TestTest.cpp  **** {
 2944              		.loc 4 121 0
 2945 0eec C9       		leave
 2946              		.cfi_def_cfa 7, 8
 2947 0eed C3       		ret
 2948              		.cfi_endproc
 2949              	.LFE1155:
 2951              		.set	_ZN12_GLOBAL__N_136TestOutOfCoreCHECKMacrosCanFailTestsD1Ev,_ZN12_GLOBAL__N_136TestOutOfCoreC
 2952              		.align 2
 2954              	_ZN12_GLOBAL__N_136TestOutOfCoreCHECKMacrosCanFailTestsD0Ev:
 2955              	.LFB1157:
 121:TestTest.cpp  **** {
 2956              		.loc 4 121 0 is_stmt 1
 2957              		.cfi_startproc
 2958 0eee 55       		pushq	%rbp
 2959              		.cfi_def_cfa_offset 16
 2960              		.cfi_offset 6, -16
 2961 0eef 4889E5   		movq	%rsp, %rbp
 2962              		.cfi_def_cfa_register 6
 2963 0ef2 4883EC10 		subq	$16, %rsp
 2964 0ef6 48897DF8 		movq	%rdi, -8(%rbp)
 121:TestTest.cpp  **** {
 2965              		.loc 4 121 0
 2966 0efa 488B45F8 		movq	-8(%rbp), %rax
 2967 0efe 4889C7   		movq	%rax, %rdi
 2968 0f01 E8AEFFFF 		call	_ZN12_GLOBAL__N_136TestOutOfCoreCHECKMacrosCanFailTestsD1Ev
 2968      FF
 2969 0f06 488B45F8 		movq	-8(%rbp), %rax
 2970 0f0a 4889C7   		movq	%rax, %rdi
 2971 0f0d E8000000 		call	_ZdlPv
 2971      00
 2972 0f12 C9       		leave
 2973              		.cfi_def_cfa 7, 8
 2974 0f13 C3       		ret
 2975              		.cfi_endproc
 2976              	.LFE1157:
 2978              		.section	.rodata
 2979 0388 00000000 		.align 32
 2979      00000000 
 2979      00000000 
 2979      00000000 
 2979      00000000 
 2982              	_ZTVN12_GLOBAL__N_134TestTestReflectsSpecifiedSuiteNameE:
 2983 03a0 00000000 		.quad	0
 2983      00000000 
 2984 03a8 00000000 		.quad	_ZTIN12_GLOBAL__N_134TestTestReflectsSpecifiedSuiteNameE
 2984      00000000 
 2985 03b0 00000000 		.quad	_ZN12_GLOBAL__N_134TestTestReflectsSpecifiedSuiteNameD1Ev
 2985      00000000 
 2986 03b8 00000000 		.quad	_ZN12_GLOBAL__N_134TestTestReflectsSpecifiedSuiteNameD0Ev
 2986      00000000 
 2987 03c0 00000000 		.quad	_ZNK12_GLOBAL__N_134TestTestReflectsSpecifiedSuiteName7RunImplEv
 2987      00000000 
 2988              		.text
 2989              		.align 2
 2991              	_ZN12_GLOBAL__N_134TestTestReflectsSpecifiedSuiteNameD2Ev:
 2992              	.LFB1159:
 109:TestTest.cpp  **** {
 2993              		.loc 4 109 0
 2994              		.cfi_startproc
 2995 0f14 55       		pushq	%rbp
 2996              		.cfi_def_cfa_offset 16
 2997              		.cfi_offset 6, -16
 2998 0f15 4889E5   		movq	%rsp, %rbp
 2999              		.cfi_def_cfa_register 6
 3000 0f18 4883EC10 		subq	$16, %rsp
 3001 0f1c 48897DF8 		movq	%rdi, -8(%rbp)
 3002              	.LBB47:
 109:TestTest.cpp  **** {
 3003              		.loc 4 109 0
 3004 0f20 488B45F8 		movq	-8(%rbp), %rax
 3005 0f24 48C70000 		movq	$_ZTVN12_GLOBAL__N_134TestTestReflectsSpecifiedSuiteNameE+16, (%rax)
 3005      000000
 3006 0f2b 488B45F8 		movq	-8(%rbp), %rax
 3007 0f2f 4889C7   		movq	%rax, %rdi
 3008 0f32 E8000000 		call	_ZN8UnitTest4TestD2Ev
 3008      00
 3009              	.LBE47:
 3010 0f37 B8000000 		movl	$0, %eax
 3010      00
 3011 0f3c 85C0     		testl	%eax, %eax
 3012 0f3e 740C     		je	.L148
 109:TestTest.cpp  **** {
 3013              		.loc 4 109 0 is_stmt 0 discriminator 1
 3014 0f40 488B45F8 		movq	-8(%rbp), %rax
 3015 0f44 4889C7   		movq	%rax, %rdi
 3016 0f47 E8000000 		call	_ZdlPv
 3016      00
 3017              	.L148:
 109:TestTest.cpp  **** {
 3018              		.loc 4 109 0
 3019 0f4c C9       		leave
 3020              		.cfi_def_cfa 7, 8
 3021 0f4d C3       		ret
 3022              		.cfi_endproc
 3023              	.LFE1159:
 3025              		.set	_ZN12_GLOBAL__N_134TestTestReflectsSpecifiedSuiteNameD1Ev,_ZN12_GLOBAL__N_134TestTestReflects
 3026              		.align 2
 3028              	_ZN12_GLOBAL__N_134TestTestReflectsSpecifiedSuiteNameD0Ev:
 3029              	.LFB1161:
 109:TestTest.cpp  **** {
 3030              		.loc 4 109 0 is_stmt 1
 3031              		.cfi_startproc
 3032 0f4e 55       		pushq	%rbp
 3033              		.cfi_def_cfa_offset 16
 3034              		.cfi_offset 6, -16
 3035 0f4f 4889E5   		movq	%rsp, %rbp
 3036              		.cfi_def_cfa_register 6
 3037 0f52 4883EC10 		subq	$16, %rsp
 3038 0f56 48897DF8 		movq	%rdi, -8(%rbp)
 109:TestTest.cpp  **** {
 3039              		.loc 4 109 0
 3040 0f5a 488B45F8 		movq	-8(%rbp), %rax
 3041 0f5e 4889C7   		movq	%rax, %rdi
 3042 0f61 E8AEFFFF 		call	_ZN12_GLOBAL__N_134TestTestReflectsSpecifiedSuiteNameD1Ev
 3042      FF
 3043 0f66 488B45F8 		movq	-8(%rbp), %rax
 3044 0f6a 4889C7   		movq	%rax, %rdi
 3045 0f6d E8000000 		call	_ZdlPv
 3045      00
 3046 0f72 C9       		leave
 3047              		.cfi_def_cfa 7, 8
 3048 0f73 C3       		ret
 3049              		.cfi_endproc
 3050              	.LFE1161:
 3052              		.section	.rodata
 3053 03c8 00000000 		.align 32
 3053      00000000 
 3053      00000000 
 3053      00000000 
 3053      00000000 
 3056              	_ZTVN12_GLOBAL__N_144TestTestWithUnspecifiedSuiteGetsDefaultSuiteE:
 3057 03e0 00000000 		.quad	0
 3057      00000000 
 3058 03e8 00000000 		.quad	_ZTIN12_GLOBAL__N_144TestTestWithUnspecifiedSuiteGetsDefaultSuiteE
 3058      00000000 
 3059 03f0 00000000 		.quad	_ZN12_GLOBAL__N_144TestTestWithUnspecifiedSuiteGetsDefaultSuiteD1Ev
 3059      00000000 
 3060 03f8 00000000 		.quad	_ZN12_GLOBAL__N_144TestTestWithUnspecifiedSuiteGetsDefaultSuiteD0Ev
 3060      00000000 
 3061 0400 00000000 		.quad	_ZNK12_GLOBAL__N_144TestTestWithUnspecifiedSuiteGetsDefaultSuite7RunImplEv
 3061      00000000 
 3062              		.text
 3063              		.align 2
 3065              	_ZN12_GLOBAL__N_144TestTestWithUnspecifiedSuiteGetsDefaultSuiteD2Ev:
 3066              	.LFB1163:
 102:TestTest.cpp  **** {
 3067              		.loc 4 102 0
 3068              		.cfi_startproc
 3069 0f74 55       		pushq	%rbp
 3070              		.cfi_def_cfa_offset 16
 3071              		.cfi_offset 6, -16
 3072 0f75 4889E5   		movq	%rsp, %rbp
 3073              		.cfi_def_cfa_register 6
 3074 0f78 4883EC10 		subq	$16, %rsp
 3075 0f7c 48897DF8 		movq	%rdi, -8(%rbp)
 3076              	.LBB48:
 102:TestTest.cpp  **** {
 3077              		.loc 4 102 0
 3078 0f80 488B45F8 		movq	-8(%rbp), %rax
 3079 0f84 48C70000 		movq	$_ZTVN12_GLOBAL__N_144TestTestWithUnspecifiedSuiteGetsDefaultSuiteE+16, (%rax)
 3079      000000
 3080 0f8b 488B45F8 		movq	-8(%rbp), %rax
 3081 0f8f 4889C7   		movq	%rax, %rdi
 3082 0f92 E8000000 		call	_ZN8UnitTest4TestD2Ev
 3082      00
 3083              	.LBE48:
 3084 0f97 B8000000 		movl	$0, %eax
 3084      00
 3085 0f9c 85C0     		testl	%eax, %eax
 3086 0f9e 740C     		je	.L153
 102:TestTest.cpp  **** {
 3087              		.loc 4 102 0 is_stmt 0 discriminator 1
 3088 0fa0 488B45F8 		movq	-8(%rbp), %rax
 3089 0fa4 4889C7   		movq	%rax, %rdi
 3090 0fa7 E8000000 		call	_ZdlPv
 3090      00
 3091              	.L153:
 102:TestTest.cpp  **** {
 3092              		.loc 4 102 0
 3093 0fac C9       		leave
 3094              		.cfi_def_cfa 7, 8
 3095 0fad C3       		ret
 3096              		.cfi_endproc
 3097              	.LFE1163:
 3099              		.set	_ZN12_GLOBAL__N_144TestTestWithUnspecifiedSuiteGetsDefaultSuiteD1Ev,_ZN12_GLOBAL__N_144TestTe
 3100              		.align 2
 3102              	_ZN12_GLOBAL__N_144TestTestWithUnspecifiedSuiteGetsDefaultSuiteD0Ev:
 3103              	.LFB1165:
 102:TestTest.cpp  **** {
 3104              		.loc 4 102 0 is_stmt 1
 3105              		.cfi_startproc
 3106 0fae 55       		pushq	%rbp
 3107              		.cfi_def_cfa_offset 16
 3108              		.cfi_offset 6, -16
 3109 0faf 4889E5   		movq	%rsp, %rbp
 3110              		.cfi_def_cfa_register 6
 3111 0fb2 4883EC10 		subq	$16, %rsp
 3112 0fb6 48897DF8 		movq	%rdi, -8(%rbp)
 102:TestTest.cpp  **** {
 3113              		.loc 4 102 0
 3114 0fba 488B45F8 		movq	-8(%rbp), %rax
 3115 0fbe 4889C7   		movq	%rax, %rdi
 3116 0fc1 E8AEFFFF 		call	_ZN12_GLOBAL__N_144TestTestWithUnspecifiedSuiteGetsDefaultSuiteD1Ev
 3116      FF
 3117 0fc6 488B45F8 		movq	-8(%rbp), %rax
 3118 0fca 4889C7   		movq	%rax, %rdi
 3119 0fcd E8000000 		call	_ZdlPv
 3119      00
 3120 0fd2 C9       		leave
 3121              		.cfi_def_cfa 7, 8
 3122 0fd3 C3       		ret
 3123              		.cfi_endproc
 3124              	.LFE1165:
 3126              		.section	.rodata
 3127 0408 00000000 		.align 32
 3127      00000000 
 3127      00000000 
 3127      00000000 
 3127      00000000 
 3130              	_ZTVN12_GLOBAL__N_138TestCrashingTestsAreReportedAsFailuresE:
 3131 0420 00000000 		.quad	0
 3131      00000000 
 3132 0428 00000000 		.quad	_ZTIN12_GLOBAL__N_138TestCrashingTestsAreReportedAsFailuresE
 3132      00000000 
 3133 0430 00000000 		.quad	_ZN12_GLOBAL__N_138TestCrashingTestsAreReportedAsFailuresD1Ev
 3133      00000000 
 3134 0438 00000000 		.quad	_ZN12_GLOBAL__N_138TestCrashingTestsAreReportedAsFailuresD0Ev
 3134      00000000 
 3135 0440 00000000 		.quad	_ZNK12_GLOBAL__N_138TestCrashingTestsAreReportedAsFailures7RunImplEv
 3135      00000000 
 3136              		.text
 3137              		.align 2
 3139              	_ZN12_GLOBAL__N_138TestCrashingTestsAreReportedAsFailuresD2Ev:
 3140              	.LFB1167:
  77:TestTest.cpp  **** {
 3141              		.loc 4 77 0
 3142              		.cfi_startproc
 3143 0fd4 55       		pushq	%rbp
 3144              		.cfi_def_cfa_offset 16
 3145              		.cfi_offset 6, -16
 3146 0fd5 4889E5   		movq	%rsp, %rbp
 3147              		.cfi_def_cfa_register 6
 3148 0fd8 4883EC10 		subq	$16, %rsp
 3149 0fdc 48897DF8 		movq	%rdi, -8(%rbp)
 3150              	.LBB49:
  77:TestTest.cpp  **** {
 3151              		.loc 4 77 0
 3152 0fe0 488B45F8 		movq	-8(%rbp), %rax
 3153 0fe4 48C70000 		movq	$_ZTVN12_GLOBAL__N_138TestCrashingTestsAreReportedAsFailuresE+16, (%rax)
 3153      000000
 3154 0feb 488B45F8 		movq	-8(%rbp), %rax
 3155 0fef 4889C7   		movq	%rax, %rdi
 3156 0ff2 E8000000 		call	_ZN8UnitTest4TestD2Ev
 3156      00
 3157              	.LBE49:
 3158 0ff7 B8000000 		movl	$0, %eax
 3158      00
 3159 0ffc 85C0     		testl	%eax, %eax
 3160 0ffe 740C     		je	.L158
  77:TestTest.cpp  **** {
 3161              		.loc 4 77 0 is_stmt 0 discriminator 1
 3162 1000 488B45F8 		movq	-8(%rbp), %rax
 3163 1004 4889C7   		movq	%rax, %rdi
 3164 1007 E8000000 		call	_ZdlPv
 3164      00
 3165              	.L158:
  77:TestTest.cpp  **** {
 3166              		.loc 4 77 0
 3167 100c C9       		leave
 3168              		.cfi_def_cfa 7, 8
 3169 100d C3       		ret
 3170              		.cfi_endproc
 3171              	.LFE1167:
 3173              		.set	_ZN12_GLOBAL__N_138TestCrashingTestsAreReportedAsFailuresD1Ev,_ZN12_GLOBAL__N_138TestCrashing
 3174              		.align 2
 3176              	_ZN12_GLOBAL__N_138TestCrashingTestsAreReportedAsFailuresD0Ev:
 3177              	.LFB1169:
  77:TestTest.cpp  **** {
 3178              		.loc 4 77 0 is_stmt 1
 3179              		.cfi_startproc
 3180 100e 55       		pushq	%rbp
 3181              		.cfi_def_cfa_offset 16
 3182              		.cfi_offset 6, -16
 3183 100f 4889E5   		movq	%rsp, %rbp
 3184              		.cfi_def_cfa_register 6
 3185 1012 4883EC10 		subq	$16, %rsp
 3186 1016 48897DF8 		movq	%rdi, -8(%rbp)
  77:TestTest.cpp  **** {
 3187              		.loc 4 77 0
 3188 101a 488B45F8 		movq	-8(%rbp), %rax
 3189 101e 4889C7   		movq	%rax, %rdi
 3190 1021 E8AEFFFF 		call	_ZN12_GLOBAL__N_138TestCrashingTestsAreReportedAsFailuresD1Ev
 3190      FF
 3191 1026 488B45F8 		movq	-8(%rbp), %rax
 3192 102a 4889C7   		movq	%rax, %rdi
 3193 102d E8000000 		call	_ZdlPv
 3193      00
 3194 1032 C9       		leave
 3195              		.cfi_def_cfa 7, 8
 3196 1033 C3       		ret
 3197              		.cfi_endproc
 3198              	.LFE1169:
 3200              		.section	.rodata
 3201 0448 00000000 		.align 32
 3201      00000000 
 3201      00000000 
 3201      00000000 
 3201      00000000 
 3204              	_ZTVZNK12_GLOBAL__N_138TestCrashingTestsAreReportedAsFailures7RunImplEvE12CrashingTest:
 3205 0460 00000000 		.quad	0
 3205      00000000 
 3206 0468 00000000 		.quad	_ZTIZNK12_GLOBAL__N_138TestCrashingTestsAreReportedAsFailures7RunImplEvE12CrashingTest
 3206      00000000 
 3207 0470 00000000 		.quad	_ZZNK12_GLOBAL__N_138TestCrashingTestsAreReportedAsFailures7RunImplEvEN12CrashingTestD1Ev
 3207      00000000 
 3208 0478 00000000 		.quad	_ZZNK12_GLOBAL__N_138TestCrashingTestsAreReportedAsFailures7RunImplEvEN12CrashingTestD0Ev
 3208      00000000 
 3209 0480 00000000 		.quad	_ZZNK12_GLOBAL__N_138TestCrashingTestsAreReportedAsFailures7RunImplEvENK12CrashingTest7RunIm
 3209      00000000 
 3210              		.text
 3211              		.align 2
 3213              	_ZZNK12_GLOBAL__N_138TestCrashingTestsAreReportedAsFailures7RunImplEvEN12CrashingTestD2Ev:
 3214              	.LFB1171:
  79:TestTest.cpp  ****     {
 3215              		.loc 4 79 0
 3216              		.cfi_startproc
 3217 1034 55       		pushq	%rbp
 3218              		.cfi_def_cfa_offset 16
 3219              		.cfi_offset 6, -16
 3220 1035 4889E5   		movq	%rsp, %rbp
 3221              		.cfi_def_cfa_register 6
 3222 1038 4883EC10 		subq	$16, %rsp
 3223 103c 48897DF8 		movq	%rdi, -8(%rbp)
 3224              	.LBB50:
  79:TestTest.cpp  ****     {
 3225              		.loc 4 79 0
 3226 1040 488B45F8 		movq	-8(%rbp), %rax
 3227 1044 48C70000 		movq	$_ZTVZNK12_GLOBAL__N_138TestCrashingTestsAreReportedAsFailures7RunImplEvE12CrashingTest+16, (
 3227      000000
 3228 104b 488B45F8 		movq	-8(%rbp), %rax
 3229 104f 4889C7   		movq	%rax, %rdi
 3230 1052 E8000000 		call	_ZN8UnitTest4TestD2Ev
 3230      00
 3231              	.LBE50:
 3232 1057 B8000000 		movl	$0, %eax
 3232      00
 3233 105c 85C0     		testl	%eax, %eax
 3234 105e 740C     		je	.L163
  79:TestTest.cpp  ****     {
 3235              		.loc 4 79 0 is_stmt 0 discriminator 1
 3236 1060 488B45F8 		movq	-8(%rbp), %rax
 3237 1064 4889C7   		movq	%rax, %rdi
 3238 1067 E8000000 		call	_ZdlPv
 3238      00
 3239              	.L163:
  79:TestTest.cpp  ****     {
 3240              		.loc 4 79 0
 3241 106c C9       		leave
 3242              		.cfi_def_cfa 7, 8
 3243 106d C3       		ret
 3244              		.cfi_endproc
 3245              	.LFE1171:
 3247              		.set	_ZZNK12_GLOBAL__N_138TestCrashingTestsAreReportedAsFailures7RunImplEvEN12CrashingTestD1Ev,_ZZ
 3248              		.align 2
 3250              	_ZZNK12_GLOBAL__N_138TestCrashingTestsAreReportedAsFailures7RunImplEvEN12CrashingTestD0Ev:
 3251              	.LFB1173:
  79:TestTest.cpp  ****     {
 3252              		.loc 4 79 0 is_stmt 1
 3253              		.cfi_startproc
 3254 106e 55       		pushq	%rbp
 3255              		.cfi_def_cfa_offset 16
 3256              		.cfi_offset 6, -16
 3257 106f 4889E5   		movq	%rsp, %rbp
 3258              		.cfi_def_cfa_register 6
 3259 1072 4883EC10 		subq	$16, %rsp
 3260 1076 48897DF8 		movq	%rdi, -8(%rbp)
  79:TestTest.cpp  ****     {
 3261              		.loc 4 79 0
 3262 107a 488B45F8 		movq	-8(%rbp), %rax
 3263 107e 4889C7   		movq	%rax, %rdi
 3264 1081 E8AEFFFF 		call	_ZZNK12_GLOBAL__N_138TestCrashingTestsAreReportedAsFailures7RunImplEvEN12CrashingTestD1Ev
 3264      FF
 3265 1086 488B45F8 		movq	-8(%rbp), %rax
 3266 108a 4889C7   		movq	%rax, %rdi
 3267 108d E8000000 		call	_ZdlPv
 3267      00
 3268 1092 C9       		leave
 3269              		.cfi_def_cfa 7, 8
 3270 1093 C3       		ret
 3271              		.cfi_endproc
 3272              	.LFE1173:
 3274              		.section	.rodata
 3275 0488 00000000 		.align 32
 3275      00000000 
 3275      00000000 
 3275      00000000 
 3275      00000000 
 3278              	_ZTVN12_GLOBAL__N_138TestThrowingTestsAreReportedAsFailuresE:
 3279 04a0 00000000 		.quad	0
 3279      00000000 
 3280 04a8 00000000 		.quad	_ZTIN12_GLOBAL__N_138TestThrowingTestsAreReportedAsFailuresE
 3280      00000000 
 3281 04b0 00000000 		.quad	_ZN12_GLOBAL__N_138TestThrowingTestsAreReportedAsFailuresD1Ev
 3281      00000000 
 3282 04b8 00000000 		.quad	_ZN12_GLOBAL__N_138TestThrowingTestsAreReportedAsFailuresD0Ev
 3282      00000000 
 3283 04c0 00000000 		.quad	_ZNK12_GLOBAL__N_138TestThrowingTestsAreReportedAsFailures7RunImplEv
 3283      00000000 
 3284              		.text
 3285              		.align 2
 3287              	_ZN12_GLOBAL__N_138TestThrowingTestsAreReportedAsFailuresD2Ev:
 3288              	.LFB1175:
  54:TestTest.cpp  **** {
 3289              		.loc 4 54 0
 3290              		.cfi_startproc
 3291 1094 55       		pushq	%rbp
 3292              		.cfi_def_cfa_offset 16
 3293              		.cfi_offset 6, -16
 3294 1095 4889E5   		movq	%rsp, %rbp
 3295              		.cfi_def_cfa_register 6
 3296 1098 4883EC10 		subq	$16, %rsp
 3297 109c 48897DF8 		movq	%rdi, -8(%rbp)
 3298              	.LBB51:
  54:TestTest.cpp  **** {
 3299              		.loc 4 54 0
 3300 10a0 488B45F8 		movq	-8(%rbp), %rax
 3301 10a4 48C70000 		movq	$_ZTVN12_GLOBAL__N_138TestThrowingTestsAreReportedAsFailuresE+16, (%rax)
 3301      000000
 3302 10ab 488B45F8 		movq	-8(%rbp), %rax
 3303 10af 4889C7   		movq	%rax, %rdi
 3304 10b2 E8000000 		call	_ZN8UnitTest4TestD2Ev
 3304      00
 3305              	.LBE51:
 3306 10b7 B8000000 		movl	$0, %eax
 3306      00
 3307 10bc 85C0     		testl	%eax, %eax
 3308 10be 740C     		je	.L168
  54:TestTest.cpp  **** {
 3309              		.loc 4 54 0 is_stmt 0 discriminator 1
 3310 10c0 488B45F8 		movq	-8(%rbp), %rax
 3311 10c4 4889C7   		movq	%rax, %rdi
 3312 10c7 E8000000 		call	_ZdlPv
 3312      00
 3313              	.L168:
  54:TestTest.cpp  **** {
 3314              		.loc 4 54 0
 3315 10cc C9       		leave
 3316              		.cfi_def_cfa 7, 8
 3317 10cd C3       		ret
 3318              		.cfi_endproc
 3319              	.LFE1175:
 3321              		.set	_ZN12_GLOBAL__N_138TestThrowingTestsAreReportedAsFailuresD1Ev,_ZN12_GLOBAL__N_138TestThrowing
 3322              		.align 2
 3324              	_ZN12_GLOBAL__N_138TestThrowingTestsAreReportedAsFailuresD0Ev:
 3325              	.LFB1177:
  54:TestTest.cpp  **** {
 3326              		.loc 4 54 0 is_stmt 1
 3327              		.cfi_startproc
 3328 10ce 55       		pushq	%rbp
 3329              		.cfi_def_cfa_offset 16
 3330              		.cfi_offset 6, -16
 3331 10cf 4889E5   		movq	%rsp, %rbp
 3332              		.cfi_def_cfa_register 6
 3333 10d2 4883EC10 		subq	$16, %rsp
 3334 10d6 48897DF8 		movq	%rdi, -8(%rbp)
  54:TestTest.cpp  **** {
 3335              		.loc 4 54 0
 3336 10da 488B45F8 		movq	-8(%rbp), %rax
 3337 10de 4889C7   		movq	%rax, %rdi
 3338 10e1 E8AEFFFF 		call	_ZN12_GLOBAL__N_138TestThrowingTestsAreReportedAsFailuresD1Ev
 3338      FF
 3339 10e6 488B45F8 		movq	-8(%rbp), %rax
 3340 10ea 4889C7   		movq	%rax, %rdi
 3341 10ed E8000000 		call	_ZdlPv
 3341      00
 3342 10f2 C9       		leave
 3343              		.cfi_def_cfa 7, 8
 3344 10f3 C3       		ret
 3345              		.cfi_endproc
 3346              	.LFE1177:
 3348              		.section	.rodata
 3349 04c8 00000000 		.align 32
 3349      00000000 
 3349      00000000 
 3349      00000000 
 3349      00000000 
 3352              	_ZTVZNK12_GLOBAL__N_138TestThrowingTestsAreReportedAsFailures7RunImplEvE12CrashingTest:
 3353 04e0 00000000 		.quad	0
 3353      00000000 
 3354 04e8 00000000 		.quad	_ZTIZNK12_GLOBAL__N_138TestThrowingTestsAreReportedAsFailures7RunImplEvE12CrashingTest
 3354      00000000 
 3355 04f0 00000000 		.quad	_ZZNK12_GLOBAL__N_138TestThrowingTestsAreReportedAsFailures7RunImplEvEN12CrashingTestD1Ev
 3355      00000000 
 3356 04f8 00000000 		.quad	_ZZNK12_GLOBAL__N_138TestThrowingTestsAreReportedAsFailures7RunImplEvEN12CrashingTestD0Ev
 3356      00000000 
 3357 0500 00000000 		.quad	_ZZNK12_GLOBAL__N_138TestThrowingTestsAreReportedAsFailures7RunImplEvENK12CrashingTest7RunIm
 3357      00000000 
 3358              		.text
 3359              		.align 2
 3361              	_ZZNK12_GLOBAL__N_138TestThrowingTestsAreReportedAsFailures7RunImplEvEN12CrashingTestD2Ev:
 3362              	.LFB1179:
  56:TestTest.cpp  ****     {
 3363              		.loc 4 56 0
 3364              		.cfi_startproc
 3365 10f4 55       		pushq	%rbp
 3366              		.cfi_def_cfa_offset 16
 3367              		.cfi_offset 6, -16
 3368 10f5 4889E5   		movq	%rsp, %rbp
 3369              		.cfi_def_cfa_register 6
 3370 10f8 4883EC10 		subq	$16, %rsp
 3371 10fc 48897DF8 		movq	%rdi, -8(%rbp)
 3372              	.LBB52:
  56:TestTest.cpp  ****     {
 3373              		.loc 4 56 0
 3374 1100 488B45F8 		movq	-8(%rbp), %rax
 3375 1104 48C70000 		movq	$_ZTVZNK12_GLOBAL__N_138TestThrowingTestsAreReportedAsFailures7RunImplEvE12CrashingTest+16, (
 3375      000000
 3376 110b 488B45F8 		movq	-8(%rbp), %rax
 3377 110f 4889C7   		movq	%rax, %rdi
 3378 1112 E8000000 		call	_ZN8UnitTest4TestD2Ev
 3378      00
 3379              	.LBE52:
 3380 1117 B8000000 		movl	$0, %eax
 3380      00
 3381 111c 85C0     		testl	%eax, %eax
 3382 111e 740C     		je	.L173
  56:TestTest.cpp  ****     {
 3383              		.loc 4 56 0 is_stmt 0 discriminator 1
 3384 1120 488B45F8 		movq	-8(%rbp), %rax
 3385 1124 4889C7   		movq	%rax, %rdi
 3386 1127 E8000000 		call	_ZdlPv
 3386      00
 3387              	.L173:
  56:TestTest.cpp  ****     {
 3388              		.loc 4 56 0
 3389 112c C9       		leave
 3390              		.cfi_def_cfa 7, 8
 3391 112d C3       		ret
 3392              		.cfi_endproc
 3393              	.LFE1179:
 3395              		.set	_ZZNK12_GLOBAL__N_138TestThrowingTestsAreReportedAsFailures7RunImplEvEN12CrashingTestD1Ev,_ZZ
 3396              		.align 2
 3398              	_ZZNK12_GLOBAL__N_138TestThrowingTestsAreReportedAsFailures7RunImplEvEN12CrashingTestD0Ev:
 3399              	.LFB1181:
  56:TestTest.cpp  ****     {
 3400              		.loc 4 56 0 is_stmt 1
 3401              		.cfi_startproc
 3402 112e 55       		pushq	%rbp
 3403              		.cfi_def_cfa_offset 16
 3404              		.cfi_offset 6, -16
 3405 112f 4889E5   		movq	%rsp, %rbp
 3406              		.cfi_def_cfa_register 6
 3407 1132 4883EC10 		subq	$16, %rsp
 3408 1136 48897DF8 		movq	%rdi, -8(%rbp)
  56:TestTest.cpp  ****     {
 3409              		.loc 4 56 0
 3410 113a 488B45F8 		movq	-8(%rbp), %rax
 3411 113e 4889C7   		movq	%rax, %rdi
 3412 1141 E8AEFFFF 		call	_ZZNK12_GLOBAL__N_138TestThrowingTestsAreReportedAsFailures7RunImplEvEN12CrashingTestD1Ev
 3412      FF
 3413 1146 488B45F8 		movq	-8(%rbp), %rax
 3414 114a 4889C7   		movq	%rax, %rdi
 3415 114d E8000000 		call	_ZdlPv
 3415      00
 3416 1152 C9       		leave
 3417              		.cfi_def_cfa 7, 8
 3418 1153 C3       		ret
 3419              		.cfi_endproc
 3420              	.LFE1181:
 3422              		.section	.rodata
 3423 0508 00000000 		.align 32
 3423      00000000 
 3423      00000000 
 3423      00000000 
 3423      00000000 
 3426              	_ZTVN12_GLOBAL__N_126TestFailingTestHasFailuresE:
 3427 0520 00000000 		.quad	0
 3427      00000000 
 3428 0528 00000000 		.quad	_ZTIN12_GLOBAL__N_126TestFailingTestHasFailuresE
 3428      00000000 
 3429 0530 00000000 		.quad	_ZN12_GLOBAL__N_126TestFailingTestHasFailuresD1Ev
 3429      00000000 
 3430 0538 00000000 		.quad	_ZN12_GLOBAL__N_126TestFailingTestHasFailuresD0Ev
 3430      00000000 
 3431 0540 00000000 		.quad	_ZNK12_GLOBAL__N_126TestFailingTestHasFailures7RunImplEv
 3431      00000000 
 3432              		.text
 3433              		.align 2
 3435              	_ZN12_GLOBAL__N_126TestFailingTestHasFailuresD2Ev:
 3436              	.LFB1183:
  32:TestTest.cpp  **** {
 3437              		.loc 4 32 0
 3438              		.cfi_startproc
 3439 1154 55       		pushq	%rbp
 3440              		.cfi_def_cfa_offset 16
 3441              		.cfi_offset 6, -16
 3442 1155 4889E5   		movq	%rsp, %rbp
 3443              		.cfi_def_cfa_register 6
 3444 1158 4883EC10 		subq	$16, %rsp
 3445 115c 48897DF8 		movq	%rdi, -8(%rbp)
 3446              	.LBB53:
  32:TestTest.cpp  **** {
 3447              		.loc 4 32 0
 3448 1160 488B45F8 		movq	-8(%rbp), %rax
 3449 1164 48C70000 		movq	$_ZTVN12_GLOBAL__N_126TestFailingTestHasFailuresE+16, (%rax)
 3449      000000
 3450 116b 488B45F8 		movq	-8(%rbp), %rax
 3451 116f 4889C7   		movq	%rax, %rdi
 3452 1172 E8000000 		call	_ZN8UnitTest4TestD2Ev
 3452      00
 3453              	.LBE53:
 3454 1177 B8000000 		movl	$0, %eax
 3454      00
 3455 117c 85C0     		testl	%eax, %eax
 3456 117e 740C     		je	.L178
  32:TestTest.cpp  **** {
 3457              		.loc 4 32 0 is_stmt 0 discriminator 1
 3458 1180 488B45F8 		movq	-8(%rbp), %rax
 3459 1184 4889C7   		movq	%rax, %rdi
 3460 1187 E8000000 		call	_ZdlPv
 3460      00
 3461              	.L178:
  32:TestTest.cpp  **** {
 3462              		.loc 4 32 0
 3463 118c C9       		leave
 3464              		.cfi_def_cfa 7, 8
 3465 118d C3       		ret
 3466              		.cfi_endproc
 3467              	.LFE1183:
 3469              		.set	_ZN12_GLOBAL__N_126TestFailingTestHasFailuresD1Ev,_ZN12_GLOBAL__N_126TestFailingTestHasFailur
 3470              		.align 2
 3472              	_ZN12_GLOBAL__N_126TestFailingTestHasFailuresD0Ev:
 3473              	.LFB1185:
  32:TestTest.cpp  **** {
 3474              		.loc 4 32 0 is_stmt 1
 3475              		.cfi_startproc
 3476 118e 55       		pushq	%rbp
 3477              		.cfi_def_cfa_offset 16
 3478              		.cfi_offset 6, -16
 3479 118f 4889E5   		movq	%rsp, %rbp
 3480              		.cfi_def_cfa_register 6
 3481 1192 4883EC10 		subq	$16, %rsp
 3482 1196 48897DF8 		movq	%rdi, -8(%rbp)
  32:TestTest.cpp  **** {
 3483              		.loc 4 32 0
 3484 119a 488B45F8 		movq	-8(%rbp), %rax
 3485 119e 4889C7   		movq	%rax, %rdi
 3486 11a1 E8AEFFFF 		call	_ZN12_GLOBAL__N_126TestFailingTestHasFailuresD1Ev
 3486      FF
 3487 11a6 488B45F8 		movq	-8(%rbp), %rax
 3488 11aa 4889C7   		movq	%rax, %rdi
 3489 11ad E8000000 		call	_ZdlPv
 3489      00
 3490 11b2 C9       		leave
 3491              		.cfi_def_cfa 7, 8
 3492 11b3 C3       		ret
 3493              		.cfi_endproc
 3494              	.LFE1185:
 3496              		.section	.rodata
 3497 0548 00000000 		.align 32
 3497      00000000 
 3497      00000000 
 3497      00000000 
 3497      00000000 
 3500              	_ZTVZNK12_GLOBAL__N_126TestFailingTestHasFailures7RunImplEvE11FailingTest:
 3501 0560 00000000 		.quad	0
 3501      00000000 
 3502 0568 00000000 		.quad	_ZTIZNK12_GLOBAL__N_126TestFailingTestHasFailures7RunImplEvE11FailingTest
 3502      00000000 
 3503 0570 00000000 		.quad	_ZZNK12_GLOBAL__N_126TestFailingTestHasFailures7RunImplEvEN11FailingTestD1Ev
 3503      00000000 
 3504 0578 00000000 		.quad	_ZZNK12_GLOBAL__N_126TestFailingTestHasFailures7RunImplEvEN11FailingTestD0Ev
 3504      00000000 
 3505 0580 00000000 		.quad	_ZZNK12_GLOBAL__N_126TestFailingTestHasFailures7RunImplEvENK11FailingTest7RunImplEv
 3505      00000000 
 3506              		.text
 3507              		.align 2
 3509              	_ZZNK12_GLOBAL__N_126TestFailingTestHasFailures7RunImplEvEN11FailingTestD2Ev:
 3510              	.LFB1187:
  34:TestTest.cpp  ****     {
 3511              		.loc 4 34 0
 3512              		.cfi_startproc
 3513 11b4 55       		pushq	%rbp
 3514              		.cfi_def_cfa_offset 16
 3515              		.cfi_offset 6, -16
 3516 11b5 4889E5   		movq	%rsp, %rbp
 3517              		.cfi_def_cfa_register 6
 3518 11b8 4883EC10 		subq	$16, %rsp
 3519 11bc 48897DF8 		movq	%rdi, -8(%rbp)
 3520              	.LBB54:
  34:TestTest.cpp  ****     {
 3521              		.loc 4 34 0
 3522 11c0 488B45F8 		movq	-8(%rbp), %rax
 3523 11c4 48C70000 		movq	$_ZTVZNK12_GLOBAL__N_126TestFailingTestHasFailures7RunImplEvE11FailingTest+16, (%rax)
 3523      000000
 3524 11cb 488B45F8 		movq	-8(%rbp), %rax
 3525 11cf 4889C7   		movq	%rax, %rdi
 3526 11d2 E8000000 		call	_ZN8UnitTest4TestD2Ev
 3526      00
 3527              	.LBE54:
 3528 11d7 B8000000 		movl	$0, %eax
 3528      00
 3529 11dc 85C0     		testl	%eax, %eax
 3530 11de 740C     		je	.L183
  34:TestTest.cpp  ****     {
 3531              		.loc 4 34 0 is_stmt 0 discriminator 1
 3532 11e0 488B45F8 		movq	-8(%rbp), %rax
 3533 11e4 4889C7   		movq	%rax, %rdi
 3534 11e7 E8000000 		call	_ZdlPv
 3534      00
 3535              	.L183:
  34:TestTest.cpp  ****     {
 3536              		.loc 4 34 0
 3537 11ec C9       		leave
 3538              		.cfi_def_cfa 7, 8
 3539 11ed C3       		ret
 3540              		.cfi_endproc
 3541              	.LFE1187:
 3543              		.set	_ZZNK12_GLOBAL__N_126TestFailingTestHasFailures7RunImplEvEN11FailingTestD1Ev,_ZZNK12_GLOBAL__
 3544              		.align 2
 3546              	_ZZNK12_GLOBAL__N_126TestFailingTestHasFailures7RunImplEvEN11FailingTestD0Ev:
 3547              	.LFB1189:
  34:TestTest.cpp  ****     {
 3548              		.loc 4 34 0 is_stmt 1
 3549              		.cfi_startproc
 3550 11ee 55       		pushq	%rbp
 3551              		.cfi_def_cfa_offset 16
 3552              		.cfi_offset 6, -16
 3553 11ef 4889E5   		movq	%rsp, %rbp
 3554              		.cfi_def_cfa_register 6
 3555 11f2 4883EC10 		subq	$16, %rsp
 3556 11f6 48897DF8 		movq	%rdi, -8(%rbp)
  34:TestTest.cpp  ****     {
 3557              		.loc 4 34 0
 3558 11fa 488B45F8 		movq	-8(%rbp), %rax
 3559 11fe 4889C7   		movq	%rax, %rdi
 3560 1201 E8AEFFFF 		call	_ZZNK12_GLOBAL__N_126TestFailingTestHasFailures7RunImplEvEN11FailingTestD1Ev
 3560      FF
 3561 1206 488B45F8 		movq	-8(%rbp), %rax
 3562 120a 4889C7   		movq	%rax, %rdi
 3563 120d E8000000 		call	_ZdlPv
 3563      00
 3564 1212 C9       		leave
 3565              		.cfi_def_cfa 7, 8
 3566 1213 C3       		ret
 3567              		.cfi_endproc
 3568              	.LFE1189:
 3570              		.section	.rodata
 3571 0588 00000000 		.align 32
 3571      00000000 
 3571      00000000 
 3571      00000000 
 3571      00000000 
 3574              	_ZTVN12_GLOBAL__N_128TestPassingTestHasNoFailuresE:
 3575 05a0 00000000 		.quad	0
 3575      00000000 
 3576 05a8 00000000 		.quad	_ZTIN12_GLOBAL__N_128TestPassingTestHasNoFailuresE
 3576      00000000 
 3577 05b0 00000000 		.quad	_ZN12_GLOBAL__N_128TestPassingTestHasNoFailuresD1Ev
 3577      00000000 
 3578 05b8 00000000 		.quad	_ZN12_GLOBAL__N_128TestPassingTestHasNoFailuresD0Ev
 3578      00000000 
 3579 05c0 00000000 		.quad	_ZNK12_GLOBAL__N_128TestPassingTestHasNoFailures7RunImplEv
 3579      00000000 
 3580              		.text
 3581              		.align 2
 3583              	_ZN12_GLOBAL__N_128TestPassingTestHasNoFailuresD2Ev:
 3584              	.LFB1191:
  10:TestTest.cpp  **** {
 3585              		.loc 4 10 0
 3586              		.cfi_startproc
 3587 1214 55       		pushq	%rbp
 3588              		.cfi_def_cfa_offset 16
 3589              		.cfi_offset 6, -16
 3590 1215 4889E5   		movq	%rsp, %rbp
 3591              		.cfi_def_cfa_register 6
 3592 1218 4883EC10 		subq	$16, %rsp
 3593 121c 48897DF8 		movq	%rdi, -8(%rbp)
 3594              	.LBB55:
  10:TestTest.cpp  **** {
 3595              		.loc 4 10 0
 3596 1220 488B45F8 		movq	-8(%rbp), %rax
 3597 1224 48C70000 		movq	$_ZTVN12_GLOBAL__N_128TestPassingTestHasNoFailuresE+16, (%rax)
 3597      000000
 3598 122b 488B45F8 		movq	-8(%rbp), %rax
 3599 122f 4889C7   		movq	%rax, %rdi
 3600 1232 E8000000 		call	_ZN8UnitTest4TestD2Ev
 3600      00
 3601              	.LBE55:
 3602 1237 B8000000 		movl	$0, %eax
 3602      00
 3603 123c 85C0     		testl	%eax, %eax
 3604 123e 740C     		je	.L188
  10:TestTest.cpp  **** {
 3605              		.loc 4 10 0 is_stmt 0 discriminator 1
 3606 1240 488B45F8 		movq	-8(%rbp), %rax
 3607 1244 4889C7   		movq	%rax, %rdi
 3608 1247 E8000000 		call	_ZdlPv
 3608      00
 3609              	.L188:
  10:TestTest.cpp  **** {
 3610              		.loc 4 10 0
 3611 124c C9       		leave
 3612              		.cfi_def_cfa 7, 8
 3613 124d C3       		ret
 3614              		.cfi_endproc
 3615              	.LFE1191:
 3617              		.set	_ZN12_GLOBAL__N_128TestPassingTestHasNoFailuresD1Ev,_ZN12_GLOBAL__N_128TestPassingTestHasNoFa
 3618              		.align 2
 3620              	_ZN12_GLOBAL__N_128TestPassingTestHasNoFailuresD0Ev:
 3621              	.LFB1193:
  10:TestTest.cpp  **** {
 3622              		.loc 4 10 0 is_stmt 1
 3623              		.cfi_startproc
 3624 124e 55       		pushq	%rbp
 3625              		.cfi_def_cfa_offset 16
 3626              		.cfi_offset 6, -16
 3627 124f 4889E5   		movq	%rsp, %rbp
 3628              		.cfi_def_cfa_register 6
 3629 1252 4883EC10 		subq	$16, %rsp
 3630 1256 48897DF8 		movq	%rdi, -8(%rbp)
  10:TestTest.cpp  **** {
 3631              		.loc 4 10 0
 3632 125a 488B45F8 		movq	-8(%rbp), %rax
 3633 125e 4889C7   		movq	%rax, %rdi
 3634 1261 E8AEFFFF 		call	_ZN12_GLOBAL__N_128TestPassingTestHasNoFailuresD1Ev
 3634      FF
 3635 1266 488B45F8 		movq	-8(%rbp), %rax
 3636 126a 4889C7   		movq	%rax, %rdi
 3637 126d E8000000 		call	_ZdlPv
 3637      00
 3638 1272 C9       		leave
 3639              		.cfi_def_cfa 7, 8
 3640 1273 C3       		ret
 3641              		.cfi_endproc
 3642              	.LFE1193:
 3644              		.section	.rodata
 3645 05c8 00000000 		.align 32
 3645      00000000 
 3645      00000000 
 3645      00000000 
 3645      00000000 
 3648              	_ZTVZNK12_GLOBAL__N_128TestPassingTestHasNoFailures7RunImplEvE11PassingTest:
 3649 05e0 00000000 		.quad	0
 3649      00000000 
 3650 05e8 00000000 		.quad	_ZTIZNK12_GLOBAL__N_128TestPassingTestHasNoFailures7RunImplEvE11PassingTest
 3650      00000000 
 3651 05f0 00000000 		.quad	_ZZNK12_GLOBAL__N_128TestPassingTestHasNoFailures7RunImplEvEN11PassingTestD1Ev
 3651      00000000 
 3652 05f8 00000000 		.quad	_ZZNK12_GLOBAL__N_128TestPassingTestHasNoFailures7RunImplEvEN11PassingTestD0Ev
 3652      00000000 
 3653 0600 00000000 		.quad	_ZZNK12_GLOBAL__N_128TestPassingTestHasNoFailures7RunImplEvENK11PassingTest7RunImplEv
 3653      00000000 
 3654              		.text
 3655              		.align 2
 3657              	_ZZNK12_GLOBAL__N_128TestPassingTestHasNoFailures7RunImplEvEN11PassingTestD2Ev:
 3658              	.LFB1195:
  12:TestTest.cpp  ****     {
 3659              		.loc 4 12 0
 3660              		.cfi_startproc
 3661 1274 55       		pushq	%rbp
 3662              		.cfi_def_cfa_offset 16
 3663              		.cfi_offset 6, -16
 3664 1275 4889E5   		movq	%rsp, %rbp
 3665              		.cfi_def_cfa_register 6
 3666 1278 4883EC10 		subq	$16, %rsp
 3667 127c 48897DF8 		movq	%rdi, -8(%rbp)
 3668              	.LBB56:
  12:TestTest.cpp  ****     {
 3669              		.loc 4 12 0
 3670 1280 488B45F8 		movq	-8(%rbp), %rax
 3671 1284 48C70000 		movq	$_ZTVZNK12_GLOBAL__N_128TestPassingTestHasNoFailures7RunImplEvE11PassingTest+16, (%rax)
 3671      000000
 3672 128b 488B45F8 		movq	-8(%rbp), %rax
 3673 128f 4889C7   		movq	%rax, %rdi
 3674 1292 E8000000 		call	_ZN8UnitTest4TestD2Ev
 3674      00
 3675              	.LBE56:
 3676 1297 B8000000 		movl	$0, %eax
 3676      00
 3677 129c 85C0     		testl	%eax, %eax
 3678 129e 740C     		je	.L193
  12:TestTest.cpp  ****     {
 3679              		.loc 4 12 0 is_stmt 0 discriminator 1
 3680 12a0 488B45F8 		movq	-8(%rbp), %rax
 3681 12a4 4889C7   		movq	%rax, %rdi
 3682 12a7 E8000000 		call	_ZdlPv
 3682      00
 3683              	.L193:
  12:TestTest.cpp  ****     {
 3684              		.loc 4 12 0
 3685 12ac C9       		leave
 3686              		.cfi_def_cfa 7, 8
 3687 12ad C3       		ret
 3688              		.cfi_endproc
 3689              	.LFE1195:
 3691              		.set	_ZZNK12_GLOBAL__N_128TestPassingTestHasNoFailures7RunImplEvEN11PassingTestD1Ev,_ZZNK12_GLOBAL
 3692              		.align 2
 3694              	_ZZNK12_GLOBAL__N_128TestPassingTestHasNoFailures7RunImplEvEN11PassingTestD0Ev:
 3695              	.LFB1197:
  12:TestTest.cpp  ****     {
 3696              		.loc 4 12 0 is_stmt 1
 3697              		.cfi_startproc
 3698 12ae 55       		pushq	%rbp
 3699              		.cfi_def_cfa_offset 16
 3700              		.cfi_offset 6, -16
 3701 12af 4889E5   		movq	%rsp, %rbp
 3702              		.cfi_def_cfa_register 6
 3703 12b2 4883EC10 		subq	$16, %rsp
 3704 12b6 48897DF8 		movq	%rdi, -8(%rbp)
  12:TestTest.cpp  ****     {
 3705              		.loc 4 12 0
 3706 12ba 488B45F8 		movq	-8(%rbp), %rax
 3707 12be 4889C7   		movq	%rax, %rdi
 3708 12c1 E8AEFFFF 		call	_ZZNK12_GLOBAL__N_128TestPassingTestHasNoFailures7RunImplEvEN11PassingTestD1Ev
 3708      FF
 3709 12c6 488B45F8 		movq	-8(%rbp), %rax
 3710 12ca 4889C7   		movq	%rax, %rdi
 3711 12cd E8000000 		call	_ZdlPv
 3711      00
 3712 12d2 C9       		leave
 3713              		.cfi_def_cfa 7, 8
 3714 12d3 C3       		ret
 3715              		.cfi_endproc
 3716              	.LFE1197:
 3718              		.weak	_ZTVN8UnitTest15MemoryOutStreamE
 3719              		.section	.rodata._ZTVN8UnitTest15MemoryOutStreamE,"aG",@progbits,_ZTVN8UnitTest15MemoryOutStreamE,
 3720              		.align 32
 3723              	_ZTVN8UnitTest15MemoryOutStreamE:
 3724 0000 60000000 		.quad	96
 3724      00000000 
 3725 0008 00000000 		.quad	0
 3725      00000000 
 3726 0010 00000000 		.quad	_ZTIN8UnitTest15MemoryOutStreamE
 3726      00000000 
 3727 0018 00000000 		.quad	_ZN8UnitTest15MemoryOutStreamD1Ev
 3727      00000000 
 3728 0020 00000000 		.quad	_ZN8UnitTest15MemoryOutStreamD0Ev
 3728      00000000 
 3729 0028 A0FFFFFF 		.quad	-96
 3729      FFFFFFFF 
 3730 0030 A0FFFFFF 		.quad	-96
 3730      FFFFFFFF 
 3731 0038 00000000 		.quad	_ZTIN8UnitTest15MemoryOutStreamE
 3731      00000000 
 3732 0040 00000000 		.quad	_ZTv0_n24_N8UnitTest15MemoryOutStreamD1Ev
 3732      00000000 
 3733 0048 00000000 		.quad	_ZTv0_n24_N8UnitTest15MemoryOutStreamD0Ev
 3733      00000000 
 3734              		.weak	_ZTTN8UnitTest15MemoryOutStreamE
 3735              		.section	.rodata._ZTTN8UnitTest15MemoryOutStreamE,"aG",@progbits,_ZTVN8UnitTest15MemoryOutStreamE,
 3736              		.align 32
 3739              	_ZTTN8UnitTest15MemoryOutStreamE:
 3740 0000 00000000 		.quad	_ZTVN8UnitTest15MemoryOutStreamE+24
 3740      00000000 
 3741 0008 00000000 		.quad	_ZTCN8UnitTest15MemoryOutStreamE0_St19basic_ostringstreamIcSt11char_traitsIcESaIcEE+24
 3741      00000000 
 3742 0010 00000000 		.quad	_ZTCN8UnitTest15MemoryOutStreamE0_So+24
 3742      00000000 
 3743 0018 00000000 		.quad	_ZTCN8UnitTest15MemoryOutStreamE0_So+64
 3743      00000000 
 3744 0020 00000000 		.quad	_ZTCN8UnitTest15MemoryOutStreamE0_St19basic_ostringstreamIcSt11char_traitsIcESaIcEE+64
 3744      00000000 
 3745 0028 00000000 		.quad	_ZTVN8UnitTest15MemoryOutStreamE+64
 3745      00000000 
 3746              		.hidden	_ZTCN8UnitTest15MemoryOutStreamE0_St19basic_ostringstreamIcSt11char_traitsIcESaIcEE
 3747              		.weak	_ZTCN8UnitTest15MemoryOutStreamE0_St19basic_ostringstreamIcSt11char_traitsIcESaIcEE
 3748              		.section	.rodata._ZTCN8UnitTest15MemoryOutStreamE0_St19basic_ostringstreamIcSt11char_traitsIcESaIc
 3749              		.align 32
 3752              	_ZTCN8UnitTest15MemoryOutStreamE0_St19basic_ostringstreamIcSt11char_traitsIcESaIcEE:
 3753 0000 60000000 		.quad	96
 3753      00000000 
 3754 0008 00000000 		.quad	0
 3754      00000000 
 3755 0010 00000000 		.quad	_ZTISt19basic_ostringstreamIcSt11char_traitsIcESaIcEE
 3755      00000000 
 3756 0018 00000000 		.quad	_ZNSt19basic_ostringstreamIcSt11char_traitsIcESaIcEED1Ev
 3756      00000000 
 3757 0020 00000000 		.quad	_ZNSt19basic_ostringstreamIcSt11char_traitsIcESaIcEED0Ev
 3757      00000000 
 3758 0028 A0FFFFFF 		.quad	-96
 3758      FFFFFFFF 
 3759 0030 A0FFFFFF 		.quad	-96
 3759      FFFFFFFF 
 3760 0038 00000000 		.quad	_ZTISt19basic_ostringstreamIcSt11char_traitsIcESaIcEE
 3760      00000000 
 3761 0040 00000000 		.quad	_ZTv0_n24_NSt19basic_ostringstreamIcSt11char_traitsIcESaIcEED1Ev
 3761      00000000 
 3762 0048 00000000 		.quad	_ZTv0_n24_NSt19basic_ostringstreamIcSt11char_traitsIcESaIcEED0Ev
 3762      00000000 
 3763              		.hidden	_ZTCN8UnitTest15MemoryOutStreamE0_So
 3764              		.weak	_ZTCN8UnitTest15MemoryOutStreamE0_So
 3765              		.section	.rodata._ZTCN8UnitTest15MemoryOutStreamE0_So,"aG",@progbits,_ZTVN8UnitTest15MemoryOutStre
 3766              		.align 32
 3769              	_ZTCN8UnitTest15MemoryOutStreamE0_So:
 3770 0000 60000000 		.quad	96
 3770      00000000 
 3771 0008 00000000 		.quad	0
 3771      00000000 
 3772 0010 00000000 		.quad	_ZTISo
 3772      00000000 
 3773 0018 00000000 		.quad	_ZNSoD1Ev
 3773      00000000 
 3774 0020 00000000 		.quad	_ZNSoD0Ev
 3774      00000000 
 3775 0028 A0FFFFFF 		.quad	-96
 3775      FFFFFFFF 
 3776 0030 A0FFFFFF 		.quad	-96
 3776      FFFFFFFF 
 3777 0038 00000000 		.quad	_ZTISo
 3777      00000000 
 3778 0040 00000000 		.quad	_ZTv0_n24_NSoD1Ev
 3778      00000000 
 3779 0048 00000000 		.quad	_ZTv0_n24_NSoD0Ev
 3779      00000000 
 3780              		.weak	_ZTSN8UnitTest15MemoryOutStreamE
 3781              		.section	.rodata._ZTSN8UnitTest15MemoryOutStreamE,"aG",@progbits,_ZTSN8UnitTest15MemoryOutStreamE,
 3782              		.align 16
 3785              	_ZTSN8UnitTest15MemoryOutStreamE:
 3786 0000 4E38556E 		.string	"N8UnitTest15MemoryOutStreamE"
 3786      69745465 
 3786      73743135 
 3786      4D656D6F 
 3786      72794F75 
 3787              		.weak	_ZTIN8UnitTest15MemoryOutStreamE
 3788              		.section	.rodata._ZTIN8UnitTest15MemoryOutStreamE,"aG",@progbits,_ZTIN8UnitTest15MemoryOutStreamE,
 3789              		.align 16
 3792              	_ZTIN8UnitTest15MemoryOutStreamE:
 3793 0000 00000000 		.quad	_ZTVN10__cxxabiv120__si_class_type_infoE+16
 3793      00000000 
 3794 0008 00000000 		.quad	_ZTSN8UnitTest15MemoryOutStreamE
 3794      00000000 
 3795 0010 00000000 		.quad	_ZTISt19basic_ostringstreamIcSt11char_traitsIcESaIcEE
 3795      00000000 
 3796              		.text
 3798              	_Z41__static_initialization_and_destruction_0ii:
 3799              	.LFB1198:
 131:TestTest.cpp  **** 
 132:TestTest.cpp  **** }
 3800              		.loc 4 132 0
 3801              		.cfi_startproc
 3802 12d4 55       		pushq	%rbp
 3803              		.cfi_def_cfa_offset 16
 3804              		.cfi_offset 6, -16
 3805 12d5 4889E5   		movq	%rsp, %rbp
 3806              		.cfi_def_cfa_register 6
 3807 12d8 4883EC10 		subq	$16, %rsp
 3808 12dc 897DFC   		movl	%edi, -4(%rbp)
 3809 12df 8975F8   		movl	%esi, -8(%rbp)
 3810              		.loc 4 132 0
 3811 12e2 837DFC01 		cmpl	$1, -4(%rbp)
 3812 12e6 0F858001 		jne	.L198
 3812      0000
 3813              		.loc 4 132 0 is_stmt 0 discriminator 1
 3814 12ec 817DF8FF 		cmpl	$65535, -8(%rbp)
 3814      FF0000
 3815 12f3 0F857301 		jne	.L198
 3815      0000
  10:TestTest.cpp  **** {
 3816              		.loc 4 10 0 is_stmt 1
 3817 12f9 BF000000 		movl	$_ZN12_GLOBAL__N_136testPassingTestHasNoFailuresInstanceE, %edi
 3817      00
 3818 12fe E8FDECFF 		call	_ZN12_GLOBAL__N_128TestPassingTestHasNoFailuresC1Ev
 3818      FF
 3819 1303 BA000000 		movl	$__dso_handle, %edx
 3819      00
 3820 1308 BE000000 		movl	$_ZN12_GLOBAL__N_136testPassingTestHasNoFailuresInstanceE, %esi
 3820      00
 3821 130d BF000000 		movl	$_ZN12_GLOBAL__N_128TestPassingTestHasNoFailuresD1Ev, %edi
 3821      00
 3822 1312 E8000000 		call	__cxa_atexit
 3822      00
 3823 1317 E8000000 		call	_ZN8UnitTest4Test11GetTestListEv
 3823      00
 3824 131c BA000000 		movl	$_ZN12_GLOBAL__N_136testPassingTestHasNoFailuresInstanceE, %edx
 3824      00
 3825 1321 4889C6   		movq	%rax, %rsi
 3826 1324 BF000000 		movl	$_ZN12_GLOBAL__N_129adderPassingTestHasNoFailuresE, %edi
 3826      00
 3827 1329 E8000000 		call	_ZN8UnitTest9ListAdderC1ERNS_8TestListEPNS_4TestE
 3827      00
  32:TestTest.cpp  **** {
 3828              		.loc 4 32 0
 3829 132e BF000000 		movl	$_ZN12_GLOBAL__N_134testFailingTestHasFailuresInstanceE, %edi
 3829      00
 3830 1333 E850EFFF 		call	_ZN12_GLOBAL__N_126TestFailingTestHasFailuresC1Ev
 3830      FF
 3831 1338 BA000000 		movl	$__dso_handle, %edx
 3831      00
 3832 133d BE000000 		movl	$_ZN12_GLOBAL__N_134testFailingTestHasFailuresInstanceE, %esi
 3832      00
 3833 1342 BF000000 		movl	$_ZN12_GLOBAL__N_126TestFailingTestHasFailuresD1Ev, %edi
 3833      00
 3834 1347 E8000000 		call	__cxa_atexit
 3834      00
 3835 134c E8000000 		call	_ZN8UnitTest4Test11GetTestListEv
 3835      00
 3836 1351 BA000000 		movl	$_ZN12_GLOBAL__N_134testFailingTestHasFailuresInstanceE, %edx
 3836      00
 3837 1356 4889C6   		movq	%rax, %rsi
 3838 1359 BF000000 		movl	$_ZN12_GLOBAL__N_127adderFailingTestHasFailuresE, %edi
 3838      00
 3839 135e E8000000 		call	_ZN8UnitTest9ListAdderC1ERNS_8TestListEPNS_4TestE
 3839      00
  54:TestTest.cpp  **** {
 3840              		.loc 4 54 0
 3841 1363 BF000000 		movl	$_ZN12_GLOBAL__N_146testThrowingTestsAreReportedAsFailuresInstanceE, %edi
 3841      00
 3842 1368 E8A3F1FF 		call	_ZN12_GLOBAL__N_138TestThrowingTestsAreReportedAsFailuresC1Ev
 3842      FF
 3843 136d BA000000 		movl	$__dso_handle, %edx
 3843      00
 3844 1372 BE000000 		movl	$_ZN12_GLOBAL__N_146testThrowingTestsAreReportedAsFailuresInstanceE, %esi
 3844      00
 3845 1377 BF000000 		movl	$_ZN12_GLOBAL__N_138TestThrowingTestsAreReportedAsFailuresD1Ev, %edi
 3845      00
 3846 137c E8000000 		call	__cxa_atexit
 3846      00
 3847 1381 E8000000 		call	_ZN8UnitTest4Test11GetTestListEv
 3847      00
 3848 1386 BA000000 		movl	$_ZN12_GLOBAL__N_146testThrowingTestsAreReportedAsFailuresInstanceE, %edx
 3848      00
 3849 138b 4889C6   		movq	%rax, %rsi
 3850 138e BF000000 		movl	$_ZN12_GLOBAL__N_139adderThrowingTestsAreReportedAsFailuresE, %edi
 3850      00
 3851 1393 E8000000 		call	_ZN8UnitTest9ListAdderC1ERNS_8TestListEPNS_4TestE
 3851      00
  77:TestTest.cpp  **** {
 3852              		.loc 4 77 0
 3853 1398 BF000000 		movl	$_ZN12_GLOBAL__N_146testCrashingTestsAreReportedAsFailuresInstanceE, %edi
 3853      00
 3854 139d E86AF3FF 		call	_ZN12_GLOBAL__N_138TestCrashingTestsAreReportedAsFailuresC1Ev
 3854      FF
 3855 13a2 BA000000 		movl	$__dso_handle, %edx
 3855      00
 3856 13a7 BE000000 		movl	$_ZN12_GLOBAL__N_146testCrashingTestsAreReportedAsFailuresInstanceE, %esi
 3856      00
 3857 13ac BF000000 		movl	$_ZN12_GLOBAL__N_138TestCrashingTestsAreReportedAsFailuresD1Ev, %edi
 3857      00
 3858 13b1 E8000000 		call	__cxa_atexit
 3858      00
 3859 13b6 E8000000 		call	_ZN8UnitTest4Test11GetTestListEv
 3859      00
 3860 13bb BA000000 		movl	$_ZN12_GLOBAL__N_146testCrashingTestsAreReportedAsFailuresInstanceE, %edx
 3860      00
 3861 13c0 4889C6   		movq	%rax, %rsi
 3862 13c3 BF000000 		movl	$_ZN12_GLOBAL__N_139adderCrashingTestsAreReportedAsFailuresE, %edi
 3862      00
 3863 13c8 E8000000 		call	_ZN8UnitTest9ListAdderC1ERNS_8TestListEPNS_4TestE
 3863      00
 102:TestTest.cpp  **** {
 3864              		.loc 4 102 0
 3865 13cd BF000000 		movl	$_ZN12_GLOBAL__N_152testTestWithUnspecifiedSuiteGetsDefaultSuiteInstanceE, %edi
 3865      00
 3866 13d2 E81DF5FF 		call	_ZN12_GLOBAL__N_144TestTestWithUnspecifiedSuiteGetsDefaultSuiteC1Ev
 3866      FF
 3867 13d7 BA000000 		movl	$__dso_handle, %edx
 3867      00
 3868 13dc BE000000 		movl	$_ZN12_GLOBAL__N_152testTestWithUnspecifiedSuiteGetsDefaultSuiteInstanceE, %esi
 3868      00
 3869 13e1 BF000000 		movl	$_ZN12_GLOBAL__N_144TestTestWithUnspecifiedSuiteGetsDefaultSuiteD1Ev, %edi
 3869      00
 3870 13e6 E8000000 		call	__cxa_atexit
 3870      00
 3871 13eb E8000000 		call	_ZN8UnitTest4Test11GetTestListEv
 3871      00
 3872 13f0 BA000000 		movl	$_ZN12_GLOBAL__N_152testTestWithUnspecifiedSuiteGetsDefaultSuiteInstanceE, %edx
 3872      00
 3873 13f5 4889C6   		movq	%rax, %rsi
 3874 13f8 BF000000 		movl	$_ZN12_GLOBAL__N_145adderTestWithUnspecifiedSuiteGetsDefaultSuiteE, %edi
 3874      00
 3875 13fd E8000000 		call	_ZN8UnitTest9ListAdderC1ERNS_8TestListEPNS_4TestE
 3875      00
 109:TestTest.cpp  **** {
 3876              		.loc 4 109 0
 3877 1402 BF000000 		movl	$_ZN12_GLOBAL__N_142testTestReflectsSpecifiedSuiteNameInstanceE, %edi
 3877      00
 3878 1407 E8C4F6FF 		call	_ZN12_GLOBAL__N_134TestTestReflectsSpecifiedSuiteNameC1Ev
 3878      FF
 3879 140c BA000000 		movl	$__dso_handle, %edx
 3879      00
 3880 1411 BE000000 		movl	$_ZN12_GLOBAL__N_142testTestReflectsSpecifiedSuiteNameInstanceE, %esi
 3880      00
 3881 1416 BF000000 		movl	$_ZN12_GLOBAL__N_134TestTestReflectsSpecifiedSuiteNameD1Ev, %edi
 3881      00
 3882 141b E8000000 		call	__cxa_atexit
 3882      00
 3883 1420 E8000000 		call	_ZN8UnitTest4Test11GetTestListEv
 3883      00
 3884 1425 BA000000 		movl	$_ZN12_GLOBAL__N_142testTestReflectsSpecifiedSuiteNameInstanceE, %edx
 3884      00
 3885 142a 4889C6   		movq	%rax, %rsi
 3886 142d BF000000 		movl	$_ZN12_GLOBAL__N_135adderTestReflectsSpecifiedSuiteNameE, %edi
 3886      00
 3887 1432 E8000000 		call	_ZN8UnitTest9ListAdderC1ERNS_8TestListEPNS_4TestE
 3887      00
 121:TestTest.cpp  **** {
 3888              		.loc 4 121 0
 3889 1437 BF000000 		movl	$_ZN12_GLOBAL__N_144testOutOfCoreCHECKMacrosCanFailTestsInstanceE, %edi
 3889      00
 3890 143c E823F9FF 		call	_ZN12_GLOBAL__N_136TestOutOfCoreCHECKMacrosCanFailTestsC1Ev
 3890      FF
 3891 1441 BA000000 		movl	$__dso_handle, %edx
 3891      00
 3892 1446 BE000000 		movl	$_ZN12_GLOBAL__N_144testOutOfCoreCHECKMacrosCanFailTestsInstanceE, %esi
 3892      00
 3893 144b BF000000 		movl	$_ZN12_GLOBAL__N_136TestOutOfCoreCHECKMacrosCanFailTestsD1Ev, %edi
 3893      00
 3894 1450 E8000000 		call	__cxa_atexit
 3894      00
 3895 1455 E8000000 		call	_ZN8UnitTest4Test11GetTestListEv
 3895      00
 3896 145a BA000000 		movl	$_ZN12_GLOBAL__N_144testOutOfCoreCHECKMacrosCanFailTestsInstanceE, %edx
 3896      00
 3897 145f 4889C6   		movq	%rax, %rsi
 3898 1462 BF000000 		movl	$_ZN12_GLOBAL__N_137adderOutOfCoreCHECKMacrosCanFailTestsE, %edi
 3898      00
 3899 1467 E8000000 		call	_ZN8UnitTest9ListAdderC1ERNS_8TestListEPNS_4TestE
 3899      00
 3900              	.L198:
 3901              		.loc 4 132 0
 3902 146c C9       		leave
 3903              		.cfi_def_cfa 7, 8
 3904 146d C3       		ret
 3905              		.cfi_endproc
 3906              	.LFE1198:
 3908              		.section	.rodata
 3909 0608 00000000 		.align 16
 3909      00000000 
 3912              	_ZTIN12_GLOBAL__N_128TestPassingTestHasNoFailuresE:
 3913 0610 00000000 		.quad	_ZTVN10__cxxabiv120__si_class_type_infoE+16
 3913      00000000 
 3914 0618 00000000 		.quad	_ZTSN12_GLOBAL__N_128TestPassingTestHasNoFailuresE
 3914      00000000 
 3915 0620 00000000 		.quad	_ZTIN8UnitTest4TestE
 3915      00000000 
 3916 0628 00000000 		.align 16
 3916      00000000 
 3919              	_ZTIZNK12_GLOBAL__N_128TestPassingTestHasNoFailures7RunImplEvE11PassingTest:
 3920 0630 00000000 		.quad	_ZTVN10__cxxabiv120__si_class_type_infoE+16
 3920      00000000 
 3921 0638 00000000 		.quad	_ZTSZNK12_GLOBAL__N_128TestPassingTestHasNoFailures7RunImplEvE11PassingTest
 3921      00000000 
 3922 0640 00000000 		.quad	_ZTIN8UnitTest4TestE
 3922      00000000 
 3923 0648 00000000 		.align 16
 3923      00000000 
 3926              	_ZTIN12_GLOBAL__N_126TestFailingTestHasFailuresE:
 3927 0650 00000000 		.quad	_ZTVN10__cxxabiv120__si_class_type_infoE+16
 3927      00000000 
 3928 0658 00000000 		.quad	_ZTSN12_GLOBAL__N_126TestFailingTestHasFailuresE
 3928      00000000 
 3929 0660 00000000 		.quad	_ZTIN8UnitTest4TestE
 3929      00000000 
 3930 0668 00000000 		.align 16
 3930      00000000 
 3933              	_ZTIZNK12_GLOBAL__N_126TestFailingTestHasFailures7RunImplEvE11FailingTest:
 3934 0670 00000000 		.quad	_ZTVN10__cxxabiv120__si_class_type_infoE+16
 3934      00000000 
 3935 0678 00000000 		.quad	_ZTSZNK12_GLOBAL__N_126TestFailingTestHasFailures7RunImplEvE11FailingTest
 3935      00000000 
 3936 0680 00000000 		.quad	_ZTIN8UnitTest4TestE
 3936      00000000 
 3937 0688 00000000 		.align 16
 3937      00000000 
 3940              	_ZTIN12_GLOBAL__N_138TestThrowingTestsAreReportedAsFailuresE:
 3941 0690 00000000 		.quad	_ZTVN10__cxxabiv120__si_class_type_infoE+16
 3941      00000000 
 3942 0698 00000000 		.quad	_ZTSN12_GLOBAL__N_138TestThrowingTestsAreReportedAsFailuresE
 3942      00000000 
 3943 06a0 00000000 		.quad	_ZTIN8UnitTest4TestE
 3943      00000000 
 3944 06a8 00000000 		.align 16
 3944      00000000 
 3947              	_ZTIZNK12_GLOBAL__N_138TestThrowingTestsAreReportedAsFailures7RunImplEvE12CrashingTest:
 3948 06b0 00000000 		.quad	_ZTVN10__cxxabiv120__si_class_type_infoE+16
 3948      00000000 
 3949 06b8 00000000 		.quad	_ZTSZNK12_GLOBAL__N_138TestThrowingTestsAreReportedAsFailures7RunImplEvE12CrashingTest
 3949      00000000 
 3950 06c0 00000000 		.quad	_ZTIN8UnitTest4TestE
 3950      00000000 
 3951 06c8 00000000 		.align 16
 3951      00000000 
 3954              	_ZTIN12_GLOBAL__N_138TestCrashingTestsAreReportedAsFailuresE:
 3955 06d0 00000000 		.quad	_ZTVN10__cxxabiv120__si_class_type_infoE+16
 3955      00000000 
 3956 06d8 00000000 		.quad	_ZTSN12_GLOBAL__N_138TestCrashingTestsAreReportedAsFailuresE
 3956      00000000 
 3957 06e0 00000000 		.quad	_ZTIN8UnitTest4TestE
 3957      00000000 
 3958 06e8 00000000 		.align 16
 3958      00000000 
 3961              	_ZTIZNK12_GLOBAL__N_138TestCrashingTestsAreReportedAsFailures7RunImplEvE12CrashingTest:
 3962 06f0 00000000 		.quad	_ZTVN10__cxxabiv120__si_class_type_infoE+16
 3962      00000000 
 3963 06f8 00000000 		.quad	_ZTSZNK12_GLOBAL__N_138TestCrashingTestsAreReportedAsFailures7RunImplEvE12CrashingTest
 3963      00000000 
 3964 0700 00000000 		.quad	_ZTIN8UnitTest4TestE
 3964      00000000 
 3965 0708 00000000 		.align 16
 3965      00000000 
 3968              	_ZTIN12_GLOBAL__N_144TestTestWithUnspecifiedSuiteGetsDefaultSuiteE:
 3969 0710 00000000 		.quad	_ZTVN10__cxxabiv120__si_class_type_infoE+16
 3969      00000000 
 3970 0718 00000000 		.quad	_ZTSN12_GLOBAL__N_144TestTestWithUnspecifiedSuiteGetsDefaultSuiteE
 3970      00000000 
 3971 0720 00000000 		.quad	_ZTIN8UnitTest4TestE
 3971      00000000 
 3972 0728 00000000 		.align 16
 3972      00000000 
 3975              	_ZTIN12_GLOBAL__N_134TestTestReflectsSpecifiedSuiteNameE:
 3976 0730 00000000 		.quad	_ZTVN10__cxxabiv120__si_class_type_infoE+16
 3976      00000000 
 3977 0738 00000000 		.quad	_ZTSN12_GLOBAL__N_134TestTestReflectsSpecifiedSuiteNameE
 3977      00000000 
 3978 0740 00000000 		.quad	_ZTIN8UnitTest4TestE
 3978      00000000 
 3979 0748 00000000 		.align 16
 3979      00000000 
 3982              	_ZTIN12_GLOBAL__N_136TestOutOfCoreCHECKMacrosCanFailTestsE:
 3983 0750 00000000 		.quad	_ZTVN10__cxxabiv120__si_class_type_infoE+16
 3983      00000000 
 3984 0758 00000000 		.quad	_ZTSN12_GLOBAL__N_136TestOutOfCoreCHECKMacrosCanFailTestsE
 3984      00000000 
 3985 0760 00000000 		.quad	_ZTIN8UnitTest4TestE
 3985      00000000 
 3986 0768 00000000 		.align 32
 3986      00000000 
 3986      00000000 
 3986      00000000 
 3986      00000000 
 3989              	_ZTSN12_GLOBAL__N_136TestOutOfCoreCHECKMacrosCanFailTestsE:
 3990 0780 2A4E3132 		.string	"*N12_GLOBAL__N_136TestOutOfCoreCHECKMacrosCanFailTestsE"
 3990      5F474C4F 
 3990      42414C5F 
 3990      5F4E5F31 
 3990      33365465 
 3991 07b8 00000000 		.align 32
 3991      00000000 
 3994              	_ZTSN12_GLOBAL__N_134TestTestReflectsSpecifiedSuiteNameE:
 3995 07c0 2A4E3132 		.string	"*N12_GLOBAL__N_134TestTestReflectsSpecifiedSuiteNameE"
 3995      5F474C4F 
 3995      42414C5F 
 3995      5F4E5F31 
 3995      33345465 
 3996 07f6 00000000 		.align 32
 3996      00000000 
 3996      0000
 3999              	_ZTSN12_GLOBAL__N_144TestTestWithUnspecifiedSuiteGetsDefaultSuiteE:
 4000 0800 2A4E3132 		.string	"*N12_GLOBAL__N_144TestTestWithUnspecifiedSuiteGetsDefaultSuiteE"
 4000      5F474C4F 
 4000      42414C5F 
 4000      5F4E5F31 
 4000      34345465 
 4001              		.align 32
 4004              	_ZTSZNK12_GLOBAL__N_138TestCrashingTestsAreReportedAsFailures7RunImplEvE12CrashingTest:
 4005 0840 2A5A4E4B 		.string	"*ZNK12_GLOBAL__N_138TestCrashingTestsAreReportedAsFailures7RunImplEvE12CrashingTest"
 4005      31325F47 
 4005      4C4F4241 
 4005      4C5F5F4E 
 4005      5F313338 
 4006 0894 00000000 		.align 32
 4006      00000000 
 4006      00000000 
 4009              	_ZTSN12_GLOBAL__N_138TestCrashingTestsAreReportedAsFailuresE:
 4010 08a0 2A4E3132 		.string	"*N12_GLOBAL__N_138TestCrashingTestsAreReportedAsFailuresE"
 4010      5F474C4F 
 4010      42414C5F 
 4010      5F4E5F31 
 4010      33385465 
 4011 08da 00000000 		.align 32
 4011      0000
 4014              	_ZTSZNK12_GLOBAL__N_138TestThrowingTestsAreReportedAsFailures7RunImplEvE12CrashingTest:
 4015 08e0 2A5A4E4B 		.string	"*ZNK12_GLOBAL__N_138TestThrowingTestsAreReportedAsFailures7RunImplEvE12CrashingTest"
 4015      31325F47 
 4015      4C4F4241 
 4015      4C5F5F4E 
 4015      5F313338 
 4016 0934 00000000 		.align 32
 4016      00000000 
 4016      00000000 
 4019              	_ZTSN12_GLOBAL__N_138TestThrowingTestsAreReportedAsFailuresE:
 4020 0940 2A4E3132 		.string	"*N12_GLOBAL__N_138TestThrowingTestsAreReportedAsFailuresE"
 4020      5F474C4F 
 4020      42414C5F 
 4020      5F4E5F31 
 4020      33385465 
 4021 097a 00000000 		.align 32
 4021      0000
 4024              	_ZTSZNK12_GLOBAL__N_126TestFailingTestHasFailures7RunImplEvE11FailingTest:
 4025 0980 2A5A4E4B 		.string	"*ZNK12_GLOBAL__N_126TestFailingTestHasFailures7RunImplEvE11FailingTest"
 4025      31325F47 
 4025      4C4F4241 
 4025      4C5F5F4E 
 4025      5F313236 
 4026 09c7 00000000 		.align 32
 4026      00000000 
 4026      00000000 
 4026      00000000 
 4026      00000000 
 4029              	_ZTSN12_GLOBAL__N_126TestFailingTestHasFailuresE:
 4030 09e0 2A4E3132 		.string	"*N12_GLOBAL__N_126TestFailingTestHasFailuresE"
 4030      5F474C4F 
 4030      42414C5F 
 4030      5F4E5F31 
 4030      32365465 
 4031 0a0e 00000000 		.align 32
 4031      00000000 
 4031      00000000 
 4031      00000000 
 4031      0000
 4034              	_ZTSZNK12_GLOBAL__N_128TestPassingTestHasNoFailures7RunImplEvE11PassingTest:
 4035 0a20 2A5A4E4B 		.string	"*ZNK12_GLOBAL__N_128TestPassingTestHasNoFailures7RunImplEvE11PassingTest"
 4035      31325F47 
 4035      4C4F4241 
 4035      4C5F5F4E 
 4035      5F313238 
 4036 0a69 00000000 		.align 32
 4036      00000000 
 4036      00000000 
 4036      00000000 
 4036      00000000 
 4039              	_ZTSN12_GLOBAL__N_128TestPassingTestHasNoFailuresE:
 4040 0a80 2A4E3132 		.string	"*N12_GLOBAL__N_128TestPassingTestHasNoFailuresE"
 4040      5F474C4F 
 4040      42414C5F 
 4040      5F4E5F31 
 4040      32385465 
 4041              		.text
 4043              	_GLOBAL__sub_I_TestTest.cpp:
 4044              	.LFB1199:
 4045              		.loc 4 132 0
 4046              		.cfi_startproc
 4047 146e 55       		pushq	%rbp
 4048              		.cfi_def_cfa_offset 16
 4049              		.cfi_offset 6, -16
 4050 146f 4889E5   		movq	%rsp, %rbp
 4051              		.cfi_def_cfa_register 6
 4052              		.loc 4 132 0
 4053 1472 BEFFFF00 		movl	$65535, %esi
 4053      00
 4054 1477 BF010000 		movl	$1, %edi
 4054      00
 4055 147c E853FEFF 		call	_Z41__static_initialization_and_destruction_0ii
 4055      FF
 4056 1481 5D       		popq	%rbp
 4057              		.cfi_def_cfa 7, 8
 4058 1482 C3       		ret
 4059              		.cfi_endproc
 4060              	.LFE1199:
 4062              		.section	.init_array,"aw"
 4063              		.align 8
 4064 0000 00000000 		.quad	_GLOBAL__sub_I_TestTest.cpp
 4064      00000000 
 4065              		.section	.rodata
 4066              		.align 8
 4069              	_ZZL18__gthread_active_pvE20__gthread_active_ptr:
 4070 0ab0 00000000 		.quad	_ZL28__gthrw___pthread_key_createPjPFvPvE
 4070      00000000 
 4071              		.weakref	_ZL28__gthrw___pthread_key_createPjPFvPvE,__pthread_key_create
 4072              		.text
 4073              	.Letext0:
 4074              		.file 6 "../TestDetails.h"
 4075              		.file 7 "../TestList.h"
 4076              		.file 8 "../TestResults.h"
 4077              		.file 9 "<built-in>"
 4078              		.file 10 "/usr/include/stdio.h"
 4079              		.file 11 "/usr/lib/gcc/x86_64-linux-gnu/4.8/include/stddef.h"
 4080              		.file 12 "/usr/include/wchar.h"
 4081              		.file 13 "/usr/include/c++/4.8/cwchar"
 4082              		.file 14 "/usr/include/c++/4.8/bits/char_traits.h"
 4083              		.file 15 "/usr/include/x86_64-linux-gnu/c++/4.8/bits/c++config.h"
 4084              		.file 16 "/usr/include/c++/4.8/clocale"
 4085              		.file 17 "/usr/include/c++/4.8/bits/allocator.h"
 4086              		.file 18 "/usr/include/c++/4.8/bits/basic_string.h"
 4087              		.file 19 "/usr/include/c++/4.8/bits/basic_string.tcc"
 4088              		.file 20 "/usr/include/c++/4.8/bits/stringfwd.h"
 4089              		.file 21 "/usr/include/c++/4.8/cwctype"
 4090              		.file 22 "/usr/include/time.h"
 4091              		.file 23 "/usr/include/c++/4.8/ext/new_allocator.h"
 4092              		.file 24 "/usr/include/c++/4.8/ext/numeric_traits.h"
 4093              		.file 25 "/usr/include/c++/4.8/debug/debug.h"
 4094              		.file 26 "/usr/include/locale.h"
 4095              		.file 27 "/usr/include/x86_64-linux-gnu/bits/types.h"
 4096              		.file 28 "/usr/include/x86_64-linux-gnu/c++/4.8/bits/atomic_word.h"
 4097              		.file 29 "/usr/include/wctype.h"
DEFINED SYMBOLS
                            *ABS*:0000000000000000 TestTest.cpp
     /tmp/ccWZolhL.s:10     .text._ZN13UnitTestSuite12GetSuiteNameEv:0000000000000000 _ZN13UnitTestSuite12GetSuiteNameEv
     /tmp/ccWZolhL.s:33     .text._ZN8UnitTest15MemoryOutStreamC1Ev:0000000000000000 _ZN8UnitTest15MemoryOutStreamC1Ev
     /tmp/ccWZolhL.s:3739   .rodata._ZTTN8UnitTest15MemoryOutStreamE:0000000000000000 _ZTTN8UnitTest15MemoryOutStreamE
     /tmp/ccWZolhL.s:3723   .rodata._ZTVN8UnitTest15MemoryOutStreamE:0000000000000000 _ZTVN8UnitTest15MemoryOutStreamE
     /tmp/ccWZolhL.s:146    .text._ZN17ScopedCurrentTestC2ERN8UnitTest11TestResultsEPKNS0_11TestDetailsE:0000000000000000 _ZN17ScopedCurrentTestC2ERN8UnitTest11TestResultsEPKNS0_11TestDetailsE
     /tmp/ccWZolhL.s:146    .text._ZN17ScopedCurrentTestC2ERN8UnitTest11TestResultsEPKNS0_11TestDetailsE:0000000000000000 _ZN17ScopedCurrentTestC1ERN8UnitTest11TestResultsEPKNS0_11TestDetailsE
     /tmp/ccWZolhL.s:197    .text._ZN17ScopedCurrentTestD2Ev:0000000000000000 _ZN17ScopedCurrentTestD2Ev
     /tmp/ccWZolhL.s:197    .text._ZN17ScopedCurrentTestD2Ev:0000000000000000 _ZN17ScopedCurrentTestD1Ev
     /tmp/ccWZolhL.s:237    .text:0000000000000000 _ZN12_GLOBAL__N_128TestPassingTestHasNoFailuresC2Ev
     /tmp/ccWZolhL.s:3574   .rodata:00000000000005a0 _ZTVN12_GLOBAL__N_128TestPassingTestHasNoFailuresE
     /tmp/ccWZolhL.s:237    .text:0000000000000000 _ZN12_GLOBAL__N_128TestPassingTestHasNoFailuresC1Ev
     /tmp/ccWZolhL.s:270    .bss:0000000000000000 _ZN12_GLOBAL__N_136testPassingTestHasNoFailuresInstanceE
     /tmp/ccWZolhL.s:270    .bss:0000000000000038 _ZN12_GLOBAL__N_129adderPassingTestHasNoFailuresE
     /tmp/ccWZolhL.s:281    .text:000000000000003e _ZZNK12_GLOBAL__N_128TestPassingTestHasNoFailures7RunImplEvEN11PassingTestC2Ev
     /tmp/ccWZolhL.s:3648   .rodata:00000000000005e0 _ZTVZNK12_GLOBAL__N_128TestPassingTestHasNoFailures7RunImplEvE11PassingTest
     /tmp/ccWZolhL.s:281    .text:000000000000003e _ZZNK12_GLOBAL__N_128TestPassingTestHasNoFailures7RunImplEvEN11PassingTestC1Ev
     /tmp/ccWZolhL.s:320    .text:0000000000000078 _ZZNK12_GLOBAL__N_128TestPassingTestHasNoFailures7RunImplEvENK11PassingTest7RunImplEv
     /tmp/ccWZolhL.s:2567   .text._ZN8UnitTest5CheckIbEEbT_:0000000000000000 _ZN8UnitTest5CheckIbEEbT_
     /tmp/ccWZolhL.s:444    .text:0000000000000134 _ZNK12_GLOBAL__N_128TestPassingTestHasNoFailures7RunImplEv
     /tmp/ccWZolhL.s:3657   .text:0000000000001274 _ZZNK12_GLOBAL__N_128TestPassingTestHasNoFailures7RunImplEvEN11PassingTestD1Ev
     /tmp/ccWZolhL.s:2778   .text._ZN8UnitTest10CheckEqualIiiEEvRNS_11TestResultsERKT_RKT0_RKNS_11TestDetailsE:0000000000000000 _ZN8UnitTest10CheckEqualIiiEEvRNS_11TestResultsERKT_RKT0_RKNS_11TestDetailsE
     /tmp/ccWZolhL.s:654    .text:0000000000000288 _ZN12_GLOBAL__N_126TestFailingTestHasFailuresC2Ev
     /tmp/ccWZolhL.s:3426   .rodata:0000000000000520 _ZTVN12_GLOBAL__N_126TestFailingTestHasFailuresE
     /tmp/ccWZolhL.s:654    .text:0000000000000288 _ZN12_GLOBAL__N_126TestFailingTestHasFailuresC1Ev
     /tmp/ccWZolhL.s:686    .bss:0000000000000040 _ZN12_GLOBAL__N_134testFailingTestHasFailuresInstanceE
     /tmp/ccWZolhL.s:686    .bss:0000000000000078 _ZN12_GLOBAL__N_127adderFailingTestHasFailuresE
     /tmp/ccWZolhL.s:695    .text:00000000000002c6 _ZZNK12_GLOBAL__N_126TestFailingTestHasFailures7RunImplEvEN11FailingTestC2Ev
     /tmp/ccWZolhL.s:3500   .rodata:0000000000000560 _ZTVZNK12_GLOBAL__N_126TestFailingTestHasFailures7RunImplEvE11FailingTest
     /tmp/ccWZolhL.s:695    .text:00000000000002c6 _ZZNK12_GLOBAL__N_126TestFailingTestHasFailures7RunImplEvEN11FailingTestC1Ev
     /tmp/ccWZolhL.s:734    .text:0000000000000300 _ZZNK12_GLOBAL__N_126TestFailingTestHasFailures7RunImplEvENK11FailingTest7RunImplEv
     /tmp/ccWZolhL.s:858    .text:00000000000003bc _ZNK12_GLOBAL__N_126TestFailingTestHasFailures7RunImplEv
     /tmp/ccWZolhL.s:3509   .text:00000000000011b4 _ZZNK12_GLOBAL__N_126TestFailingTestHasFailures7RunImplEvEN11FailingTestD1Ev
     /tmp/ccWZolhL.s:1069   .text:0000000000000510 _ZN12_GLOBAL__N_138TestThrowingTestsAreReportedAsFailuresC2Ev
     /tmp/ccWZolhL.s:3278   .rodata:00000000000004a0 _ZTVN12_GLOBAL__N_138TestThrowingTestsAreReportedAsFailuresE
     /tmp/ccWZolhL.s:1069   .text:0000000000000510 _ZN12_GLOBAL__N_138TestThrowingTestsAreReportedAsFailuresC1Ev
     /tmp/ccWZolhL.s:1101   .bss:0000000000000080 _ZN12_GLOBAL__N_146testThrowingTestsAreReportedAsFailuresInstanceE
     /tmp/ccWZolhL.s:1101   .bss:00000000000000b8 _ZN12_GLOBAL__N_139adderThrowingTestsAreReportedAsFailuresE
     /tmp/ccWZolhL.s:1110   .text:000000000000054e _ZZNK12_GLOBAL__N_138TestThrowingTestsAreReportedAsFailures7RunImplEvEN12CrashingTestC2Ev
     /tmp/ccWZolhL.s:3352   .rodata:00000000000004e0 _ZTVZNK12_GLOBAL__N_138TestThrowingTestsAreReportedAsFailures7RunImplEvE12CrashingTest
     /tmp/ccWZolhL.s:1110   .text:000000000000054e _ZZNK12_GLOBAL__N_138TestThrowingTestsAreReportedAsFailures7RunImplEvEN12CrashingTestC1Ev
     /tmp/ccWZolhL.s:1146   .text:0000000000000588 _ZZNK12_GLOBAL__N_138TestThrowingTestsAreReportedAsFailures7RunImplEvENK12CrashingTest7RunImplEv
     /tmp/ccWZolhL.s:1170   .text:00000000000005b8 _ZNK12_GLOBAL__N_138TestThrowingTestsAreReportedAsFailures7RunImplEv
     /tmp/ccWZolhL.s:3361   .text:00000000000010f4 _ZZNK12_GLOBAL__N_138TestThrowingTestsAreReportedAsFailures7RunImplEvEN12CrashingTestD1Ev
     /tmp/ccWZolhL.s:1381   .text:000000000000070c _ZN12_GLOBAL__N_138TestCrashingTestsAreReportedAsFailuresC2Ev
     /tmp/ccWZolhL.s:3130   .rodata:0000000000000420 _ZTVN12_GLOBAL__N_138TestCrashingTestsAreReportedAsFailuresE
     /tmp/ccWZolhL.s:1381   .text:000000000000070c _ZN12_GLOBAL__N_138TestCrashingTestsAreReportedAsFailuresC1Ev
     /tmp/ccWZolhL.s:1413   .bss:00000000000000c0 _ZN12_GLOBAL__N_146testCrashingTestsAreReportedAsFailuresInstanceE
     /tmp/ccWZolhL.s:1413   .bss:00000000000000f8 _ZN12_GLOBAL__N_139adderCrashingTestsAreReportedAsFailuresE
     /tmp/ccWZolhL.s:1422   .text:000000000000074a _ZZNK12_GLOBAL__N_138TestCrashingTestsAreReportedAsFailures7RunImplEvEN12CrashingTestC2Ev
     /tmp/ccWZolhL.s:3204   .rodata:0000000000000460 _ZTVZNK12_GLOBAL__N_138TestCrashingTestsAreReportedAsFailures7RunImplEvE12CrashingTest
     /tmp/ccWZolhL.s:1422   .text:000000000000074a _ZZNK12_GLOBAL__N_138TestCrashingTestsAreReportedAsFailures7RunImplEvEN12CrashingTestC1Ev
     /tmp/ccWZolhL.s:1454   .text:0000000000000784 _ZZNK12_GLOBAL__N_138TestCrashingTestsAreReportedAsFailures7RunImplEvENK12CrashingTest7RunImplEv
     /tmp/ccWZolhL.s:1480   .text:00000000000007a0 _ZNK12_GLOBAL__N_138TestCrashingTestsAreReportedAsFailures7RunImplEv
     /tmp/ccWZolhL.s:3213   .text:0000000000001034 _ZZNK12_GLOBAL__N_138TestCrashingTestsAreReportedAsFailures7RunImplEvEN12CrashingTestD1Ev
     /tmp/ccWZolhL.s:1691   .text:00000000000008f4 _ZN12_GLOBAL__N_144TestTestWithUnspecifiedSuiteGetsDefaultSuiteC2Ev
     /tmp/ccWZolhL.s:3056   .rodata:00000000000003e0 _ZTVN12_GLOBAL__N_144TestTestWithUnspecifiedSuiteGetsDefaultSuiteE
     /tmp/ccWZolhL.s:1691   .text:00000000000008f4 _ZN12_GLOBAL__N_144TestTestWithUnspecifiedSuiteGetsDefaultSuiteC1Ev
     /tmp/ccWZolhL.s:1723   .bss:0000000000000100 _ZN12_GLOBAL__N_152testTestWithUnspecifiedSuiteGetsDefaultSuiteInstanceE
     /tmp/ccWZolhL.s:1723   .bss:0000000000000138 _ZN12_GLOBAL__N_145adderTestWithUnspecifiedSuiteGetsDefaultSuiteE
     /tmp/ccWZolhL.s:1741   .text:0000000000000932 _ZNK12_GLOBAL__N_144TestTestWithUnspecifiedSuiteGetsDefaultSuite7RunImplEv
     /tmp/ccWZolhL.s:1966   .text:0000000000000ad0 _ZN12_GLOBAL__N_134TestTestReflectsSpecifiedSuiteNameC2Ev
     /tmp/ccWZolhL.s:2982   .rodata:00000000000003a0 _ZTVN12_GLOBAL__N_134TestTestReflectsSpecifiedSuiteNameE
     /tmp/ccWZolhL.s:1966   .text:0000000000000ad0 _ZN12_GLOBAL__N_134TestTestReflectsSpecifiedSuiteNameC1Ev
     /tmp/ccWZolhL.s:1998   .bss:0000000000000140 _ZN12_GLOBAL__N_142testTestReflectsSpecifiedSuiteNameInstanceE
     /tmp/ccWZolhL.s:1998   .bss:0000000000000178 _ZN12_GLOBAL__N_135adderTestReflectsSpecifiedSuiteNameE
     /tmp/ccWZolhL.s:2010   .text:0000000000000b0e _ZNK12_GLOBAL__N_134TestTestReflectsSpecifiedSuiteName7RunImplEv
     /tmp/ccWZolhL.s:2229   .text:0000000000000cab _ZN12_GLOBAL__N_14FailEv
     /tmp/ccWZolhL.s:2352   .text:0000000000000d64 _ZN12_GLOBAL__N_136TestOutOfCoreCHECKMacrosCanFailTestsC2Ev
     /tmp/ccWZolhL.s:2908   .rodata:0000000000000360 _ZTVN12_GLOBAL__N_136TestOutOfCoreCHECKMacrosCanFailTestsE
     /tmp/ccWZolhL.s:2352   .text:0000000000000d64 _ZN12_GLOBAL__N_136TestOutOfCoreCHECKMacrosCanFailTestsC1Ev
     /tmp/ccWZolhL.s:2384   .bss:0000000000000180 _ZN12_GLOBAL__N_144testOutOfCoreCHECKMacrosCanFailTestsInstanceE
     /tmp/ccWZolhL.s:2384   .bss:00000000000001b8 _ZN12_GLOBAL__N_137adderOutOfCoreCHECKMacrosCanFailTestsE
     /tmp/ccWZolhL.s:2389   .text:0000000000000da2 _ZNK12_GLOBAL__N_136TestOutOfCoreCHECKMacrosCanFailTests7RunImplEv
     /tmp/ccWZolhL.s:2592   .text._ZN8UnitTest15MemoryOutStreamD1Ev:0000000000000000 _ZN8UnitTest15MemoryOutStreamD1Ev
     /tmp/ccWZolhL.s:2719   .text._ZN8UnitTest15MemoryOutStreamD1Ev:00000000000000c8 _ZTv0_n24_N8UnitTest15MemoryOutStreamD1Ev
     /tmp/ccWZolhL.s:2733   .text._ZN8UnitTest15MemoryOutStreamD0Ev:0000000000000000 _ZN8UnitTest15MemoryOutStreamD0Ev
     /tmp/ccWZolhL.s:2760   .text._ZN8UnitTest15MemoryOutStreamD0Ev:0000000000000026 _ZTv0_n24_N8UnitTest15MemoryOutStreamD0Ev
     /tmp/ccWZolhL.s:3982   .rodata:0000000000000750 _ZTIN12_GLOBAL__N_136TestOutOfCoreCHECKMacrosCanFailTestsE
     /tmp/ccWZolhL.s:2917   .text:0000000000000eb4 _ZN12_GLOBAL__N_136TestOutOfCoreCHECKMacrosCanFailTestsD1Ev
     /tmp/ccWZolhL.s:2954   .text:0000000000000eee _ZN12_GLOBAL__N_136TestOutOfCoreCHECKMacrosCanFailTestsD0Ev
     /tmp/ccWZolhL.s:2917   .text:0000000000000eb4 _ZN12_GLOBAL__N_136TestOutOfCoreCHECKMacrosCanFailTestsD2Ev
     /tmp/ccWZolhL.s:3975   .rodata:0000000000000730 _ZTIN12_GLOBAL__N_134TestTestReflectsSpecifiedSuiteNameE
     /tmp/ccWZolhL.s:2991   .text:0000000000000f14 _ZN12_GLOBAL__N_134TestTestReflectsSpecifiedSuiteNameD1Ev
     /tmp/ccWZolhL.s:3028   .text:0000000000000f4e _ZN12_GLOBAL__N_134TestTestReflectsSpecifiedSuiteNameD0Ev
     /tmp/ccWZolhL.s:2991   .text:0000000000000f14 _ZN12_GLOBAL__N_134TestTestReflectsSpecifiedSuiteNameD2Ev
     /tmp/ccWZolhL.s:3968   .rodata:0000000000000710 _ZTIN12_GLOBAL__N_144TestTestWithUnspecifiedSuiteGetsDefaultSuiteE
     /tmp/ccWZolhL.s:3065   .text:0000000000000f74 _ZN12_GLOBAL__N_144TestTestWithUnspecifiedSuiteGetsDefaultSuiteD1Ev
     /tmp/ccWZolhL.s:3102   .text:0000000000000fae _ZN12_GLOBAL__N_144TestTestWithUnspecifiedSuiteGetsDefaultSuiteD0Ev
     /tmp/ccWZolhL.s:3065   .text:0000000000000f74 _ZN12_GLOBAL__N_144TestTestWithUnspecifiedSuiteGetsDefaultSuiteD2Ev
     /tmp/ccWZolhL.s:3954   .rodata:00000000000006d0 _ZTIN12_GLOBAL__N_138TestCrashingTestsAreReportedAsFailuresE
     /tmp/ccWZolhL.s:3139   .text:0000000000000fd4 _ZN12_GLOBAL__N_138TestCrashingTestsAreReportedAsFailuresD1Ev
     /tmp/ccWZolhL.s:3176   .text:000000000000100e _ZN12_GLOBAL__N_138TestCrashingTestsAreReportedAsFailuresD0Ev
     /tmp/ccWZolhL.s:3139   .text:0000000000000fd4 _ZN12_GLOBAL__N_138TestCrashingTestsAreReportedAsFailuresD2Ev
     /tmp/ccWZolhL.s:3961   .rodata:00000000000006f0 _ZTIZNK12_GLOBAL__N_138TestCrashingTestsAreReportedAsFailures7RunImplEvE12CrashingTest
     /tmp/ccWZolhL.s:3250   .text:000000000000106e _ZZNK12_GLOBAL__N_138TestCrashingTestsAreReportedAsFailures7RunImplEvEN12CrashingTestD0Ev
     /tmp/ccWZolhL.s:3213   .text:0000000000001034 _ZZNK12_GLOBAL__N_138TestCrashingTestsAreReportedAsFailures7RunImplEvEN12CrashingTestD2Ev
     /tmp/ccWZolhL.s:3940   .rodata:0000000000000690 _ZTIN12_GLOBAL__N_138TestThrowingTestsAreReportedAsFailuresE
     /tmp/ccWZolhL.s:3287   .text:0000000000001094 _ZN12_GLOBAL__N_138TestThrowingTestsAreReportedAsFailuresD1Ev
     /tmp/ccWZolhL.s:3324   .text:00000000000010ce _ZN12_GLOBAL__N_138TestThrowingTestsAreReportedAsFailuresD0Ev
     /tmp/ccWZolhL.s:3287   .text:0000000000001094 _ZN12_GLOBAL__N_138TestThrowingTestsAreReportedAsFailuresD2Ev
     /tmp/ccWZolhL.s:3947   .rodata:00000000000006b0 _ZTIZNK12_GLOBAL__N_138TestThrowingTestsAreReportedAsFailures7RunImplEvE12CrashingTest
     /tmp/ccWZolhL.s:3398   .text:000000000000112e _ZZNK12_GLOBAL__N_138TestThrowingTestsAreReportedAsFailures7RunImplEvEN12CrashingTestD0Ev
     /tmp/ccWZolhL.s:3361   .text:00000000000010f4 _ZZNK12_GLOBAL__N_138TestThrowingTestsAreReportedAsFailures7RunImplEvEN12CrashingTestD2Ev
     /tmp/ccWZolhL.s:3926   .rodata:0000000000000650 _ZTIN12_GLOBAL__N_126TestFailingTestHasFailuresE
     /tmp/ccWZolhL.s:3435   .text:0000000000001154 _ZN12_GLOBAL__N_126TestFailingTestHasFailuresD1Ev
     /tmp/ccWZolhL.s:3472   .text:000000000000118e _ZN12_GLOBAL__N_126TestFailingTestHasFailuresD0Ev
     /tmp/ccWZolhL.s:3435   .text:0000000000001154 _ZN12_GLOBAL__N_126TestFailingTestHasFailuresD2Ev
     /tmp/ccWZolhL.s:3933   .rodata:0000000000000670 _ZTIZNK12_GLOBAL__N_126TestFailingTestHasFailures7RunImplEvE11FailingTest
     /tmp/ccWZolhL.s:3546   .text:00000000000011ee _ZZNK12_GLOBAL__N_126TestFailingTestHasFailures7RunImplEvEN11FailingTestD0Ev
     /tmp/ccWZolhL.s:3509   .text:00000000000011b4 _ZZNK12_GLOBAL__N_126TestFailingTestHasFailures7RunImplEvEN11FailingTestD2Ev
     /tmp/ccWZolhL.s:3912   .rodata:0000000000000610 _ZTIN12_GLOBAL__N_128TestPassingTestHasNoFailuresE
     /tmp/ccWZolhL.s:3583   .text:0000000000001214 _ZN12_GLOBAL__N_128TestPassingTestHasNoFailuresD1Ev
     /tmp/ccWZolhL.s:3620   .text:000000000000124e _ZN12_GLOBAL__N_128TestPassingTestHasNoFailuresD0Ev
     /tmp/ccWZolhL.s:3583   .text:0000000000001214 _ZN12_GLOBAL__N_128TestPassingTestHasNoFailuresD2Ev
     /tmp/ccWZolhL.s:3919   .rodata:0000000000000630 _ZTIZNK12_GLOBAL__N_128TestPassingTestHasNoFailures7RunImplEvE11PassingTest
     /tmp/ccWZolhL.s:3694   .text:00000000000012ae _ZZNK12_GLOBAL__N_128TestPassingTestHasNoFailures7RunImplEvEN11PassingTestD0Ev
     /tmp/ccWZolhL.s:3657   .text:0000000000001274 _ZZNK12_GLOBAL__N_128TestPassingTestHasNoFailures7RunImplEvEN11PassingTestD2Ev
     /tmp/ccWZolhL.s:3792   .rodata._ZTIN8UnitTest15MemoryOutStreamE:0000000000000000 _ZTIN8UnitTest15MemoryOutStreamE
     /tmp/ccWZolhL.s:3752   .rodata._ZTCN8UnitTest15MemoryOutStreamE0_St19basic_ostringstreamIcSt11char_traitsIcESaIcEE:0000000000000000 _ZTCN8UnitTest15MemoryOutStreamE0_St19basic_ostringstreamIcSt11char_traitsIcESaIcEE
     /tmp/ccWZolhL.s:3769   .rodata._ZTCN8UnitTest15MemoryOutStreamE0_So:0000000000000000 _ZTCN8UnitTest15MemoryOutStreamE0_So
     /tmp/ccWZolhL.s:3785   .rodata._ZTSN8UnitTest15MemoryOutStreamE:0000000000000000 _ZTSN8UnitTest15MemoryOutStreamE
     /tmp/ccWZolhL.s:3798   .text:00000000000012d4 _Z41__static_initialization_and_destruction_0ii
     /tmp/ccWZolhL.s:4039   .rodata:0000000000000a80 _ZTSN12_GLOBAL__N_128TestPassingTestHasNoFailuresE
     /tmp/ccWZolhL.s:4034   .rodata:0000000000000a20 _ZTSZNK12_GLOBAL__N_128TestPassingTestHasNoFailures7RunImplEvE11PassingTest
     /tmp/ccWZolhL.s:4029   .rodata:00000000000009e0 _ZTSN12_GLOBAL__N_126TestFailingTestHasFailuresE
     /tmp/ccWZolhL.s:4024   .rodata:0000000000000980 _ZTSZNK12_GLOBAL__N_126TestFailingTestHasFailures7RunImplEvE11FailingTest
     /tmp/ccWZolhL.s:4019   .rodata:0000000000000940 _ZTSN12_GLOBAL__N_138TestThrowingTestsAreReportedAsFailuresE
     /tmp/ccWZolhL.s:4014   .rodata:00000000000008e0 _ZTSZNK12_GLOBAL__N_138TestThrowingTestsAreReportedAsFailures7RunImplEvE12CrashingTest
     /tmp/ccWZolhL.s:4009   .rodata:00000000000008a0 _ZTSN12_GLOBAL__N_138TestCrashingTestsAreReportedAsFailuresE
     /tmp/ccWZolhL.s:4004   .rodata:0000000000000840 _ZTSZNK12_GLOBAL__N_138TestCrashingTestsAreReportedAsFailures7RunImplEvE12CrashingTest
     /tmp/ccWZolhL.s:3999   .rodata:0000000000000800 _ZTSN12_GLOBAL__N_144TestTestWithUnspecifiedSuiteGetsDefaultSuiteE
     /tmp/ccWZolhL.s:3994   .rodata:00000000000007c0 _ZTSN12_GLOBAL__N_134TestTestReflectsSpecifiedSuiteNameE
     /tmp/ccWZolhL.s:3989   .rodata:0000000000000780 _ZTSN12_GLOBAL__N_136TestOutOfCoreCHECKMacrosCanFailTestsE
     /tmp/ccWZolhL.s:4043   .text:000000000000146e _GLOBAL__sub_I_TestTest.cpp
     /tmp/ccWZolhL.s:4069   .rodata:0000000000000ab0 _ZZL18__gthread_active_pvE20__gthread_active_ptr
                           .group:0000000000000000 _ZN17ScopedCurrentTestC5ERN8UnitTest11TestResultsEPKNS0_11TestDetailsE
                           .group:0000000000000000 _ZN17ScopedCurrentTestD5Ev

UNDEFINED SYMBOLS
__gxx_personality_v0
_ZNSt9basic_iosIcSt11char_traitsIcEEC2Ev
_ZNSt19basic_ostringstreamIcSt11char_traitsIcESaIcEEC2ESt13_Ios_Openmode
_ZNSsC1Ev
_ZNSt19basic_ostringstreamIcSt11char_traitsIcESaIcEED2Ev
_ZNSt9basic_iosIcSt11char_traitsIcEED2Ev
_Unwind_Resume
_ZN8UnitTest11CurrentTest7ResultsEv
_ZN8UnitTest11CurrentTest7DetailsEv
_ZN8UnitTest4TestC2EPKcS2_S2_i
_ZN8UnitTest11TestDetailsC1ERKS0_i
_ZN8UnitTest11TestResults13OnTestFailureERKNS_11TestDetailsEPKc
__cxa_end_catch
__cxa_begin_catch
_ZN8UnitTest11TestResultsC1EPNS_12TestReporterE
_ZN8UnitTest4Test3RunEv
_ZNK8UnitTest11TestResults15GetFailureCountEv
__cxa_allocate_exception
_ZTIPKc
__cxa_throw
_ZN8UnitTest4TestC1EPKcS2_S2_i
_ZN8UnitTest10CheckEqualERNS_11TestResultsEPKcS3_RKNS_11TestDetailsE
_ZN8UnitTest4TestD1Ev
_ZNSsD1Ev
_ZdlPv
_ZStlsISt11char_traitsIcEERSt13basic_ostreamIcT_ES5_PKc
_ZNSolsEi
_ZNK8UnitTest15MemoryOutStream7GetTextEv
_ZN8UnitTest4TestD2Ev
_ZTISt19basic_ostringstreamIcSt11char_traitsIcESaIcEE
_ZNSt19basic_ostringstreamIcSt11char_traitsIcESaIcEED1Ev
_ZNSt19basic_ostringstreamIcSt11char_traitsIcESaIcEED0Ev
_ZTv0_n24_NSt19basic_ostringstreamIcSt11char_traitsIcESaIcEED1Ev
_ZTv0_n24_NSt19basic_ostringstreamIcSt11char_traitsIcESaIcEED0Ev
_ZTISo
_ZNSoD1Ev
_ZNSoD0Ev
_ZTv0_n24_NSoD1Ev
_ZTv0_n24_NSoD0Ev
_ZTVN10__cxxabiv120__si_class_type_infoE
__dso_handle
__cxa_atexit
_ZN8UnitTest4Test11GetTestListEv
_ZN8UnitTest9ListAdderC1ERNS_8TestListEPNS_4TestE
_ZTIN8UnitTest4TestE
__pthread_key_create
