   1              		.file	"TestChecks.cpp"
   2              		.text
   3              	.Ltext0:
   4              		.section	.rodata
   5              	.LC0:
   6 0000 44656661 		.string	"DefaultSuite"
   6      756C7453 
   6      75697465 
   6      00
   7              		.section	.text._ZN13UnitTestSuite12GetSuiteNameEv,"axG",@progbits,_ZN13UnitTestSuite12GetSuiteName
   8              		.weak	_ZN13UnitTestSuite12GetSuiteNameEv
  10              	_ZN13UnitTestSuite12GetSuiteNameEv:
  11              	.LFB0:
  12              		.file 1 "../TestSuite.h"
   1:../TestSuite.h **** #ifndef UNITTEST_TESTSUITE_H
   2:../TestSuite.h **** #define UNITTEST_TESTSUITE_H
   3:../TestSuite.h **** 
   4:../TestSuite.h **** namespace UnitTestSuite {
   5:../TestSuite.h **** 
   6:../TestSuite.h ****     inline char const* GetSuiteName ()
   7:../TestSuite.h ****     {
  13              		.loc 1 7 0
  14              		.cfi_startproc
  15 0000 55       		pushq	%rbp
  16              		.cfi_def_cfa_offset 16
  17              		.cfi_offset 6, -16
  18 0001 4889E5   		movq	%rsp, %rbp
  19              		.cfi_def_cfa_register 6
   8:../TestSuite.h ****         return "DefaultSuite";
  20              		.loc 1 8 0
  21 0004 B8000000 		movl	$.LC0, %eax
  21      00
   9:../TestSuite.h ****     }
  22              		.loc 1 9 0
  23 0009 5D       		popq	%rbp
  24              		.cfi_def_cfa 7, 8
  25 000a C3       		ret
  26              		.cfi_endproc
  27              	.LFE0:
  29              		.section	.text._ZN8UnitTest15MemoryOutStreamC1Ev,"axG",@progbits,_ZN8UnitTest15MemoryOutStreamC1Ev
  30              		.align 2
  31              		.weak	_ZN8UnitTest15MemoryOutStreamC1Ev
  33              	_ZN8UnitTest15MemoryOutStreamC1Ev:
  34              	.LFB1007:
  35              		.file 2 "../MemoryOutStream.h"
   1:../MemoryOutStream.h **** #ifndef UNITTEST_MEMORYOUTSTREAM_H
   2:../MemoryOutStream.h **** #define UNITTEST_MEMORYOUTSTREAM_H
   3:../MemoryOutStream.h **** 
   4:../MemoryOutStream.h **** #include "Config.h"
   5:../MemoryOutStream.h **** 
   6:../MemoryOutStream.h **** #ifndef UNITTEST_USE_CUSTOM_STREAMS
   7:../MemoryOutStream.h **** 
   8:../MemoryOutStream.h **** #include <sstream>
   9:../MemoryOutStream.h **** 
  10:../MemoryOutStream.h **** namespace UnitTest
  11:../MemoryOutStream.h **** {
  12:../MemoryOutStream.h **** 
  13:../MemoryOutStream.h **** class MemoryOutStream : public std::ostringstream
  14:../MemoryOutStream.h **** {
  15:../MemoryOutStream.h **** public:
  16:../MemoryOutStream.h ****     MemoryOutStream() {}
  36              		.loc 2 16 0
  37              		.cfi_startproc
  38              		.cfi_personality 0x3,__gxx_personality_v0
  39              		.cfi_lsda 0x3,.LLSDA1007
  40 0000 55       		pushq	%rbp
  41              		.cfi_def_cfa_offset 16
  42              		.cfi_offset 6, -16
  43 0001 4889E5   		movq	%rsp, %rbp
  44              		.cfi_def_cfa_register 6
  45 0004 53       		pushq	%rbx
  46 0005 4883EC18 		subq	$24, %rsp
  47              		.cfi_offset 3, -24
  48 0009 48897DE8 		movq	%rdi, -24(%rbp)
  49              	.LBB2:
  50              		.loc 2 16 0
  51 000d 488B45E8 		movq	-24(%rbp), %rax
  52 0011 4883C060 		addq	$96, %rax
  53 0015 4889C7   		movq	%rax, %rdi
  54              	.LEHB0:
  55 0018 E8000000 		call	_ZNSt9basic_iosIcSt11char_traitsIcEEC2Ev
  55      00
  56              	.LEHE0:
  57 001d B9000000 		movl	$_ZTTN8UnitTest15MemoryOutStreamE+8, %ecx
  57      00
  58 0022 488B45E8 		movq	-24(%rbp), %rax
  59 0026 BA100000 		movl	$16, %edx
  59      00
  60 002b 4889CE   		movq	%rcx, %rsi
  61 002e 4889C7   		movq	%rax, %rdi
  62              	.LEHB1:
  63 0031 E8000000 		call	_ZNSt19basic_ostringstreamIcSt11char_traitsIcESaIcEEC2ESt13_Ios_Openmode
  63      00
  64              	.LEHE1:
  65              		.loc 2 16 0 is_stmt 0 discriminator 6
  66 0036 BA000000 		movl	$_ZTVN8UnitTest15MemoryOutStreamE+24, %edx
  66      00
  67 003b 488B45E8 		movq	-24(%rbp), %rax
  68 003f 488910   		movq	%rdx, (%rax)
  69 0042 BA600000 		movl	$96, %edx
  69      00
  70 0047 488B45E8 		movq	-24(%rbp), %rax
  71 004b 4801C2   		addq	%rax, %rdx
  72 004e B8000000 		movl	$_ZTVN8UnitTest15MemoryOutStreamE+64, %eax
  72      00
  73 0053 488902   		movq	%rax, (%rdx)
  74 0056 488B45E8 		movq	-24(%rbp), %rax
  75 005a 4883C058 		addq	$88, %rax
  76 005e 4889C7   		movq	%rax, %rdi
  77              	.LEHB2:
  78 0061 E8000000 		call	_ZNSsC1Ev
  78      00
  79              	.LEHE2:
  80              	.LBE2:
  81              		.loc 2 16 0
  82 0066 EB37     		jmp	.L8
  83              	.L6:
  84 0068 4889C3   		movq	%rax, %rbx
  85              	.LBB3:
  86 006b BA000000 		movl	$_ZTTN8UnitTest15MemoryOutStreamE+8, %edx
  86      00
  87 0070 488B45E8 		movq	-24(%rbp), %rax
  88 0074 4889D6   		movq	%rdx, %rsi
  89 0077 4889C7   		movq	%rax, %rdi
  90 007a E8000000 		call	_ZNSt19basic_ostringstreamIcSt11char_traitsIcESaIcEED2Ev
  90      00
  91 007f EB03     		jmp	.L5
  92              	.L7:
  93 0081 4889C3   		movq	%rax, %rbx
  94              	.L5:
  95              		.loc 2 16 0 discriminator 19
  96 0084 488B45E8 		movq	-24(%rbp), %rax
  97 0088 4883C060 		addq	$96, %rax
  98 008c 4889C7   		movq	%rax, %rdi
  99 008f E8000000 		call	_ZNSt9basic_iosIcSt11char_traitsIcEED2Ev
  99      00
 100 0094 4889D8   		movq	%rbx, %rax
 101 0097 4889C7   		movq	%rax, %rdi
 102              	.LEHB3:
 103 009a E8000000 		call	_Unwind_Resume
 103      00
 104              	.LEHE3:
 105              	.L8:
 106              	.LBE3:
 107              		.loc 2 16 0
 108 009f 4883C418 		addq	$24, %rsp
 109 00a3 5B       		popq	%rbx
 110 00a4 5D       		popq	%rbp
 111              		.cfi_def_cfa 7, 8
 112 00a5 C3       		ret
 113              		.cfi_endproc
 114              	.LFE1007:
 115              		.globl	__gxx_personality_v0
 116              		.section	.gcc_except_table._ZN8UnitTest15MemoryOutStreamC1Ev,"aG",@progbits,_ZN8UnitTest15MemoryOu
 117              	.LLSDA1007:
 118 0000 FF       		.byte	0xff
 119 0001 FF       		.byte	0xff
 120 0002 01       		.byte	0x1
 121 0003 12       		.uleb128 .LLSDACSE1007-.LLSDACSB1007
 122              	.LLSDACSB1007:
 123 0004 18       		.uleb128 .LEHB0-.LFB1007
 124 0005 05       		.uleb128 .LEHE0-.LEHB0
 125 0006 00       		.uleb128 0
 126 0007 00       		.uleb128 0
 127 0008 31       		.uleb128 .LEHB1-.LFB1007
 128 0009 05       		.uleb128 .LEHE1-.LEHB1
 129 000a 8101     		.uleb128 .L7-.LFB1007
 130 000c 00       		.uleb128 0
 131 000d 61       		.uleb128 .LEHB2-.LFB1007
 132 000e 05       		.uleb128 .LEHE2-.LEHB2
 133 000f 68       		.uleb128 .L6-.LFB1007
 134 0010 00       		.uleb128 0
 135 0011 9A01     		.uleb128 .LEHB3-.LFB1007
 136 0013 05       		.uleb128 .LEHE3-.LEHB3
 137 0014 00       		.uleb128 0
 138 0015 00       		.uleb128 0
 139              	.LLSDACSE1007:
 140              		.section	.text._ZN8UnitTest15MemoryOutStreamC1Ev,"axG",@progbits,_ZN8UnitTest15MemoryOutStreamC1Ev
 142              		.section	.text._ZN8UnitTest12TestReporterC2Ev,"axG",@progbits,_ZN8UnitTest12TestReporterC5Ev,comda
 143              		.align 2
 144              		.weak	_ZN8UnitTest12TestReporterC2Ev
 146              	_ZN8UnitTest12TestReporterC2Ev:
 147              	.LFB1021:
 148              		.file 3 "../TestReporter.h"
   1:../TestReporter.h **** #ifndef UNITTEST_TESTREPORTER_H
   2:../TestReporter.h **** #define UNITTEST_TESTREPORTER_H
   3:../TestReporter.h **** 
   4:../TestReporter.h **** namespace UnitTest {
   5:../TestReporter.h **** 
   6:../TestReporter.h **** class TestDetails;
   7:../TestReporter.h **** 
   8:../TestReporter.h **** class TestReporter
 149              		.loc 3 8 0 is_stmt 1
 150              		.cfi_startproc
 151 0000 55       		pushq	%rbp
 152              		.cfi_def_cfa_offset 16
 153              		.cfi_offset 6, -16
 154 0001 4889E5   		movq	%rsp, %rbp
 155              		.cfi_def_cfa_register 6
 156 0004 48897DF8 		movq	%rdi, -8(%rbp)
 157              	.LBB4:
 158              		.loc 3 8 0
 159 0008 488B45F8 		movq	-8(%rbp), %rax
 160 000c 48C70000 		movq	$_ZTVN8UnitTest12TestReporterE+16, (%rax)
 160      000000
 161              	.LBE4:
 162 0013 5D       		popq	%rbp
 163              		.cfi_def_cfa 7, 8
 164 0014 C3       		ret
 165              		.cfi_endproc
 166              	.LFE1021:
 168              		.weak	_ZN8UnitTest12TestReporterC1Ev
 169              		.set	_ZN8UnitTest12TestReporterC1Ev,_ZN8UnitTest12TestReporterC2Ev
 170              		.section	.text._ZN17RecordingReporterC2Ev,"axG",@progbits,_ZN17RecordingReporterC5Ev,comdat
 171              		.align 2
 172              		.weak	_ZN17RecordingReporterC2Ev
 174              	_ZN17RecordingReporterC2Ev:
 175              	.LFB1023:
 176              		.file 4 "RecordingReporter.h"
   1:RecordingReporter.h **** #ifndef UNITTEST_RECORDINGREPORTER_H
   2:RecordingReporter.h **** #define UNITTEST_RECORDINGREPORTER_H
   3:RecordingReporter.h **** 
   4:RecordingReporter.h **** #include "../TestReporter.h"
   5:RecordingReporter.h **** #include <cstring>
   6:RecordingReporter.h **** 
   7:RecordingReporter.h **** #include "../TestDetails.h"
   8:RecordingReporter.h **** 
   9:RecordingReporter.h **** struct RecordingReporter : public UnitTest::TestReporter
  10:RecordingReporter.h **** {
  11:RecordingReporter.h **** private:
  12:RecordingReporter.h ****     enum { kMaxStringLength = 256 };
  13:RecordingReporter.h **** 
  14:RecordingReporter.h **** public:
  15:RecordingReporter.h ****     RecordingReporter()
 177              		.loc 4 15 0
 178              		.cfi_startproc
 179 0000 55       		pushq	%rbp
 180              		.cfi_def_cfa_offset 16
 181              		.cfi_offset 6, -16
 182 0001 4889E5   		movq	%rsp, %rbp
 183              		.cfi_def_cfa_register 6
 184 0004 4883EC10 		subq	$16, %rsp
 185 0008 48897DF8 		movq	%rdi, -8(%rbp)
 186              	.LBB5:
  16:RecordingReporter.h ****         : testRunCount(0)
  17:RecordingReporter.h ****         , testFailedCount(0)
  18:RecordingReporter.h ****         , lastFailedLine(0)
  19:RecordingReporter.h ****         , testFinishedCount(0)
  20:RecordingReporter.h ****         , lastFinishedTestTime(0)
  21:RecordingReporter.h ****         , summaryTotalTestCount(0)
  22:RecordingReporter.h ****         , summaryFailedTestCount(0)
  23:RecordingReporter.h ****         , summaryFailureCount(0)
  24:RecordingReporter.h ****         , summarySecondsElapsed(0)
 187              		.loc 4 24 0
 188 000c 488B45F8 		movq	-8(%rbp), %rax
 189 0010 4889C7   		movq	%rax, %rdi
 190 0013 E8000000 		call	_ZN8UnitTest12TestReporterC2Ev
 190      00
 191 0018 488B45F8 		movq	-8(%rbp), %rax
 192 001c 48C70000 		movq	$_ZTV17RecordingReporter+16, (%rax)
 192      000000
 193 0023 488B45F8 		movq	-8(%rbp), %rax
 194 0027 C7400800 		movl	$0, 8(%rax)
 194      000000
 195 002e 488B45F8 		movq	-8(%rbp), %rax
 196 0032 C7800C02 		movl	$0, 524(%rax)
 196      00000000 
 196      0000
 197 003c 488B45F8 		movq	-8(%rbp), %rax
 198 0040 C7801003 		movl	$0, 784(%rax)
 198      00000000 
 198      0000
 199 004a 488B45F8 		movq	-8(%rbp), %rax
 200 004e C7801406 		movl	$0, 1556(%rax)
 200      00000000 
 200      0000
 201 0058 488B55F8 		movq	-8(%rbp), %rdx
 202 005c 8B050000 		movl	.LC1(%rip), %eax
 202      0000
 203 0062 89821808 		movl	%eax, 2072(%rdx)
 203      0000
 204 0068 488B45F8 		movq	-8(%rbp), %rax
 205 006c C7801C08 		movl	$0, 2076(%rax)
 205      00000000 
 205      0000
 206 0076 488B45F8 		movq	-8(%rbp), %rax
 207 007a C7802008 		movl	$0, 2080(%rax)
 207      00000000 
 207      0000
 208 0084 488B45F8 		movq	-8(%rbp), %rax
 209 0088 C7802408 		movl	$0, 2084(%rax)
 209      00000000 
 209      0000
 210 0092 488B55F8 		movq	-8(%rbp), %rdx
 211 0096 8B050000 		movl	.LC1(%rip), %eax
 211      0000
 212 009c 89822808 		movl	%eax, 2088(%rdx)
 212      0000
  25:RecordingReporter.h ****     {
  26:RecordingReporter.h ****         lastStartedSuite[0] = '\0';
 213              		.loc 4 26 0
 214 00a2 488B45F8 		movq	-8(%rbp), %rax
 215 00a6 C6400C00 		movb	$0, 12(%rax)
  27:RecordingReporter.h ****         lastStartedTest[0] = '\0';
 216              		.loc 4 27 0
 217 00aa 488B45F8 		movq	-8(%rbp), %rax
 218 00ae C6800C01 		movb	$0, 268(%rax)
 218      000000
  28:RecordingReporter.h ****         lastFailedFile[0] = '\0';
 219              		.loc 4 28 0
 220 00b5 488B45F8 		movq	-8(%rbp), %rax
 221 00b9 C6801002 		movb	$0, 528(%rax)
 221      000000
  29:RecordingReporter.h ****         lastFailedSuite[0] = '\0';
 222              		.loc 4 29 0
 223 00c0 488B45F8 		movq	-8(%rbp), %rax
 224 00c4 C6801403 		movb	$0, 788(%rax)
 224      000000
  30:RecordingReporter.h ****         lastFailedTest[0] = '\0';
 225              		.loc 4 30 0
 226 00cb 488B45F8 		movq	-8(%rbp), %rax
 227 00cf C6801404 		movb	$0, 1044(%rax)
 227      000000
  31:RecordingReporter.h ****         lastFailedMessage[0] = '\0';
 228              		.loc 4 31 0
 229 00d6 488B45F8 		movq	-8(%rbp), %rax
 230 00da C6801405 		movb	$0, 1300(%rax)
 230      000000
  32:RecordingReporter.h ****         lastFinishedSuite[0] = '\0';
 231              		.loc 4 32 0
 232 00e1 488B45F8 		movq	-8(%rbp), %rax
 233 00e5 C6801806 		movb	$0, 1560(%rax)
 233      000000
  33:RecordingReporter.h ****         lastFinishedTest[0] = '\0';
 234              		.loc 4 33 0
 235 00ec 488B45F8 		movq	-8(%rbp), %rax
 236 00f0 C6801807 		movb	$0, 1816(%rax)
 236      000000
 237              	.LBE5:
  34:RecordingReporter.h ****     }
 238              		.loc 4 34 0
 239 00f7 C9       		leave
 240              		.cfi_def_cfa 7, 8
 241 00f8 C3       		ret
 242              		.cfi_endproc
 243              	.LFE1023:
 245              		.weak	_ZN17RecordingReporterC1Ev
 246              		.set	_ZN17RecordingReporterC1Ev,_ZN17RecordingReporterC2Ev
 247              		.section	.text._ZN17RecordingReporter15ReportTestStartERKN8UnitTest11TestDetailsE,"axG",@progbits,
 248              		.align 2
 249              		.weak	_ZN17RecordingReporter15ReportTestStartERKN8UnitTest11TestDetailsE
 251              	_ZN17RecordingReporter15ReportTestStartERKN8UnitTest11TestDetailsE:
 252              	.LFB1025:
  35:RecordingReporter.h **** 
  36:RecordingReporter.h ****     virtual void ReportTestStart(UnitTest::TestDetails const& test)
 253              		.loc 4 36 0
 254              		.cfi_startproc
 255 0000 55       		pushq	%rbp
 256              		.cfi_def_cfa_offset 16
 257              		.cfi_offset 6, -16
 258 0001 4889E5   		movq	%rsp, %rbp
 259              		.cfi_def_cfa_register 6
 260 0004 4883EC10 		subq	$16, %rsp
 261 0008 48897DF8 		movq	%rdi, -8(%rbp)
 262 000c 488975F0 		movq	%rsi, -16(%rbp)
 263              	.LBB6:
  37:RecordingReporter.h ****     {
  38:RecordingReporter.h **** 		using namespace std;
  39:RecordingReporter.h **** 
  40:RecordingReporter.h ****         ++testRunCount;
 264              		.loc 4 40 0
 265 0010 488B45F8 		movq	-8(%rbp), %rax
 266 0014 8B4008   		movl	8(%rax), %eax
 267 0017 8D5001   		leal	1(%rax), %edx
 268 001a 488B45F8 		movq	-8(%rbp), %rax
 269 001e 895008   		movl	%edx, 8(%rax)
  41:RecordingReporter.h ****         strcpy(lastStartedSuite, test.suiteName);
 270              		.loc 4 41 0
 271 0021 488B45F0 		movq	-16(%rbp), %rax
 272 0025 488B00   		movq	(%rax), %rax
 273 0028 488B55F8 		movq	-8(%rbp), %rdx
 274 002c 4883C20C 		addq	$12, %rdx
 275 0030 4889C6   		movq	%rax, %rsi
 276 0033 4889D7   		movq	%rdx, %rdi
 277 0036 E8000000 		call	strcpy
 277      00
  42:RecordingReporter.h ****         strcpy(lastStartedTest, test.testName);
 278              		.loc 4 42 0
 279 003b 488B45F0 		movq	-16(%rbp), %rax
 280 003f 488B4008 		movq	8(%rax), %rax
 281 0043 488B55F8 		movq	-8(%rbp), %rdx
 282 0047 4881C20C 		addq	$268, %rdx
 282      010000
 283 004e 4889C6   		movq	%rax, %rsi
 284 0051 4889D7   		movq	%rdx, %rdi
 285 0054 E8000000 		call	strcpy
 285      00
 286              	.LBE6:
  43:RecordingReporter.h ****     }
 287              		.loc 4 43 0
 288 0059 C9       		leave
 289              		.cfi_def_cfa 7, 8
 290 005a C3       		ret
 291              		.cfi_endproc
 292              	.LFE1025:
 294              		.section	.text._ZN17RecordingReporter13ReportFailureERKN8UnitTest11TestDetailsEPKc,"axG",@progbits
 295              		.align 2
 296              		.weak	_ZN17RecordingReporter13ReportFailureERKN8UnitTest11TestDetailsEPKc
 298              	_ZN17RecordingReporter13ReportFailureERKN8UnitTest11TestDetailsEPKc:
 299              	.LFB1026:
  44:RecordingReporter.h **** 
  45:RecordingReporter.h ****     virtual void ReportFailure(UnitTest::TestDetails const& test, char const* failure)
 300              		.loc 4 45 0
 301              		.cfi_startproc
 302 0000 55       		pushq	%rbp
 303              		.cfi_def_cfa_offset 16
 304              		.cfi_offset 6, -16
 305 0001 4889E5   		movq	%rsp, %rbp
 306              		.cfi_def_cfa_register 6
 307 0004 4883EC20 		subq	$32, %rsp
 308 0008 48897DF8 		movq	%rdi, -8(%rbp)
 309 000c 488975F0 		movq	%rsi, -16(%rbp)
 310 0010 488955E8 		movq	%rdx, -24(%rbp)
 311              	.LBB7:
  46:RecordingReporter.h ****     {
  47:RecordingReporter.h **** 		using namespace std;
  48:RecordingReporter.h **** 
  49:RecordingReporter.h **** 		++testFailedCount;
 312              		.loc 4 49 0
 313 0014 488B45F8 		movq	-8(%rbp), %rax
 314 0018 8B800C02 		movl	524(%rax), %eax
 314      0000
 315 001e 8D5001   		leal	1(%rax), %edx
 316 0021 488B45F8 		movq	-8(%rbp), %rax
 317 0025 89900C02 		movl	%edx, 524(%rax)
 317      0000
  50:RecordingReporter.h ****         strcpy(lastFailedFile, test.filename);
 318              		.loc 4 50 0
 319 002b 488B45F0 		movq	-16(%rbp), %rax
 320 002f 488B4010 		movq	16(%rax), %rax
 321 0033 488B55F8 		movq	-8(%rbp), %rdx
 322 0037 4881C210 		addq	$528, %rdx
 322      020000
 323 003e 4889C6   		movq	%rax, %rsi
 324 0041 4889D7   		movq	%rdx, %rdi
 325 0044 E8000000 		call	strcpy
 325      00
  51:RecordingReporter.h ****         lastFailedLine = test.lineNumber;
 326              		.loc 4 51 0
 327 0049 488B45F0 		movq	-16(%rbp), %rax
 328 004d 8B5018   		movl	24(%rax), %edx
 329 0050 488B45F8 		movq	-8(%rbp), %rax
 330 0054 89901003 		movl	%edx, 784(%rax)
 330      0000
  52:RecordingReporter.h ****         strcpy(lastFailedSuite, test.suiteName);
 331              		.loc 4 52 0
 332 005a 488B45F0 		movq	-16(%rbp), %rax
 333 005e 488B00   		movq	(%rax), %rax
 334 0061 488B55F8 		movq	-8(%rbp), %rdx
 335 0065 4881C214 		addq	$788, %rdx
 335      030000
 336 006c 4889C6   		movq	%rax, %rsi
 337 006f 4889D7   		movq	%rdx, %rdi
 338 0072 E8000000 		call	strcpy
 338      00
  53:RecordingReporter.h ****         strcpy(lastFailedTest, test.testName);
 339              		.loc 4 53 0
 340 0077 488B45F0 		movq	-16(%rbp), %rax
 341 007b 488B4008 		movq	8(%rax), %rax
 342 007f 488B55F8 		movq	-8(%rbp), %rdx
 343 0083 4881C214 		addq	$1044, %rdx
 343      040000
 344 008a 4889C6   		movq	%rax, %rsi
 345 008d 4889D7   		movq	%rdx, %rdi
 346 0090 E8000000 		call	strcpy
 346      00
  54:RecordingReporter.h ****         strcpy(lastFailedMessage, failure);
 347              		.loc 4 54 0
 348 0095 488B45F8 		movq	-8(%rbp), %rax
 349 0099 488D9014 		leaq	1300(%rax), %rdx
 349      050000
 350 00a0 488B45E8 		movq	-24(%rbp), %rax
 351 00a4 4889C6   		movq	%rax, %rsi
 352 00a7 4889D7   		movq	%rdx, %rdi
 353 00aa E8000000 		call	strcpy
 353      00
 354              	.LBE7:
  55:RecordingReporter.h ****     }
 355              		.loc 4 55 0
 356 00af C9       		leave
 357              		.cfi_def_cfa 7, 8
 358 00b0 C3       		ret
 359              		.cfi_endproc
 360              	.LFE1026:
 362              		.section	.text._ZN17RecordingReporter16ReportTestFinishERKN8UnitTest11TestDetailsEf,"axG",@progbit
 363              		.align 2
 364              		.weak	_ZN17RecordingReporter16ReportTestFinishERKN8UnitTest11TestDetailsEf
 366              	_ZN17RecordingReporter16ReportTestFinishERKN8UnitTest11TestDetailsEf:
 367              	.LFB1027:
  56:RecordingReporter.h **** 
  57:RecordingReporter.h ****     virtual void ReportTestFinish(UnitTest::TestDetails const& test, float testDuration)
 368              		.loc 4 57 0
 369              		.cfi_startproc
 370 0000 55       		pushq	%rbp
 371              		.cfi_def_cfa_offset 16
 372              		.cfi_offset 6, -16
 373 0001 4889E5   		movq	%rsp, %rbp
 374              		.cfi_def_cfa_register 6
 375 0004 4883EC20 		subq	$32, %rsp
 376 0008 48897DF8 		movq	%rdi, -8(%rbp)
 377 000c 488975F0 		movq	%rsi, -16(%rbp)
 378 0010 F30F1145 		movss	%xmm0, -20(%rbp)
 378      EC
 379              	.LBB8:
  58:RecordingReporter.h ****     {
  59:RecordingReporter.h **** 		using namespace std;
  60:RecordingReporter.h **** 
  61:RecordingReporter.h **** 		++testFinishedCount;
 380              		.loc 4 61 0
 381 0015 488B45F8 		movq	-8(%rbp), %rax
 382 0019 8B801406 		movl	1556(%rax), %eax
 382      0000
 383 001f 8D5001   		leal	1(%rax), %edx
 384 0022 488B45F8 		movq	-8(%rbp), %rax
 385 0026 89901406 		movl	%edx, 1556(%rax)
 385      0000
  62:RecordingReporter.h ****         strcpy(lastFinishedSuite, test.suiteName);
 386              		.loc 4 62 0
 387 002c 488B45F0 		movq	-16(%rbp), %rax
 388 0030 488B00   		movq	(%rax), %rax
 389 0033 488B55F8 		movq	-8(%rbp), %rdx
 390 0037 4881C218 		addq	$1560, %rdx
 390      060000
 391 003e 4889C6   		movq	%rax, %rsi
 392 0041 4889D7   		movq	%rdx, %rdi
 393 0044 E8000000 		call	strcpy
 393      00
  63:RecordingReporter.h ****         strcpy(lastFinishedTest, test.testName);
 394              		.loc 4 63 0
 395 0049 488B45F0 		movq	-16(%rbp), %rax
 396 004d 488B4008 		movq	8(%rax), %rax
 397 0051 488B55F8 		movq	-8(%rbp), %rdx
 398 0055 4881C218 		addq	$1816, %rdx
 398      070000
 399 005c 4889C6   		movq	%rax, %rsi
 400 005f 4889D7   		movq	%rdx, %rdi
 401 0062 E8000000 		call	strcpy
 401      00
  64:RecordingReporter.h ****         lastFinishedTestTime = testDuration;
 402              		.loc 4 64 0
 403 0067 488B55F8 		movq	-8(%rbp), %rdx
 404 006b 8B45EC   		movl	-20(%rbp), %eax
 405 006e 89821808 		movl	%eax, 2072(%rdx)
 405      0000
 406              	.LBE8:
  65:RecordingReporter.h ****     }
 407              		.loc 4 65 0
 408 0074 C9       		leave
 409              		.cfi_def_cfa 7, 8
 410 0075 C3       		ret
 411              		.cfi_endproc
 412              	.LFE1027:
 414              		.section	.text._ZN17RecordingReporter13ReportSummaryEiiif,"axG",@progbits,_ZN17RecordingReporter13
 415              		.align 2
 416              		.weak	_ZN17RecordingReporter13ReportSummaryEiiif
 418              	_ZN17RecordingReporter13ReportSummaryEiiif:
 419              	.LFB1028:
  66:RecordingReporter.h **** 
  67:RecordingReporter.h ****     virtual void ReportSummary(int totalTestCount, int failedTestCount, int failureCount, float sec
 420              		.loc 4 67 0
 421              		.cfi_startproc
 422 0000 55       		pushq	%rbp
 423              		.cfi_def_cfa_offset 16
 424              		.cfi_offset 6, -16
 425 0001 4889E5   		movq	%rsp, %rbp
 426              		.cfi_def_cfa_register 6
 427 0004 48897DF8 		movq	%rdi, -8(%rbp)
 428 0008 8975F4   		movl	%esi, -12(%rbp)
 429 000b 8955F0   		movl	%edx, -16(%rbp)
 430 000e 894DEC   		movl	%ecx, -20(%rbp)
 431 0011 F30F1145 		movss	%xmm0, -24(%rbp)
 431      E8
  68:RecordingReporter.h ****     {
  69:RecordingReporter.h ****         summaryTotalTestCount = totalTestCount;
 432              		.loc 4 69 0
 433 0016 488B45F8 		movq	-8(%rbp), %rax
 434 001a 8B55F4   		movl	-12(%rbp), %edx
 435 001d 89901C08 		movl	%edx, 2076(%rax)
 435      0000
  70:RecordingReporter.h ****         summaryFailedTestCount = failedTestCount;
 436              		.loc 4 70 0
 437 0023 488B45F8 		movq	-8(%rbp), %rax
 438 0027 8B55F0   		movl	-16(%rbp), %edx
 439 002a 89902008 		movl	%edx, 2080(%rax)
 439      0000
  71:RecordingReporter.h ****         summaryFailureCount = failureCount;
 440              		.loc 4 71 0
 441 0030 488B45F8 		movq	-8(%rbp), %rax
 442 0034 8B55EC   		movl	-20(%rbp), %edx
 443 0037 89902408 		movl	%edx, 2084(%rax)
 443      0000
  72:RecordingReporter.h ****         summarySecondsElapsed = secondsElapsed;
 444              		.loc 4 72 0
 445 003d 488B55F8 		movq	-8(%rbp), %rdx
 446 0041 8B45E8   		movl	-24(%rbp), %eax
 447 0044 89822808 		movl	%eax, 2088(%rdx)
 447      0000
  73:RecordingReporter.h ****     }
 448              		.loc 4 73 0
 449 004a 5D       		popq	%rbp
 450              		.cfi_def_cfa 7, 8
 451 004b C3       		ret
 452              		.cfi_endproc
 453              	.LFE1028:
 455              		.section	.rodata
 456              	.LC2:
 457 000d 54657374 		.string	"TestChecks.cpp"
 457      43686563 
 457      6B732E63 
 457      707000
 458              	.LC3:
 459 001c 43686563 		.string	"CheckEqualWithUnsignedLong"
 459      6B457175 
 459      616C5769 
 459      7468556E 
 459      7369676E 
 460              		.text
 461              		.align 2
 463              	_ZN12_GLOBAL__N_130TestCheckEqualWithUnsignedLongC2Ev:
 464              	.LFB1030:
 465              		.file 5 "TestChecks.cpp"
   1:TestChecks.cpp **** #include "../UnitTest++.h"
   2:TestChecks.cpp **** #include "RecordingReporter.h"
   3:TestChecks.cpp **** 
   4:TestChecks.cpp **** using namespace UnitTest;
   5:TestChecks.cpp **** 
   6:TestChecks.cpp **** 
   7:TestChecks.cpp **** namespace {
   8:TestChecks.cpp **** 
   9:TestChecks.cpp **** 
  10:TestChecks.cpp **** TEST(CheckEqualWithUnsignedLong)
 466              		.loc 5 10 0
 467              		.cfi_startproc
 468 0000 55       		pushq	%rbp
 469              		.cfi_def_cfa_offset 16
 470              		.cfi_offset 6, -16
 471 0001 4889E5   		movq	%rsp, %rbp
 472              		.cfi_def_cfa_register 6
 473 0004 4883EC10 		subq	$16, %rsp
 474 0008 48897DF8 		movq	%rdi, -8(%rbp)
 475              	.LBB9:
 476              		.loc 5 10 0
 477 000c E8000000 		call	_ZN13UnitTestSuite12GetSuiteNameEv
 477      00
 478 0011 4889C2   		movq	%rax, %rdx
 479 0014 488B45F8 		movq	-8(%rbp), %rax
 480 0018 41B80A00 		movl	$10, %r8d
 480      0000
 481 001e B9000000 		movl	$.LC2, %ecx
 481      00
 482 0023 BE000000 		movl	$.LC3, %esi
 482      00
 483 0028 4889C7   		movq	%rax, %rdi
 484 002b E8000000 		call	_ZN8UnitTest4TestC2EPKcS2_S2_i
 484      00
 485 0030 488B45F8 		movq	-8(%rbp), %rax
 486 0034 48C70000 		movq	$_ZTVN12_GLOBAL__N_130TestCheckEqualWithUnsignedLongE+16, (%rax)
 486      000000
 487              	.LBE9:
 488 003b C9       		leave
 489              		.cfi_def_cfa 7, 8
 490 003c C3       		ret
 491              		.cfi_endproc
 492              	.LFE1030:
 494              		.set	_ZN12_GLOBAL__N_130TestCheckEqualWithUnsignedLongC1Ev,_ZN12_GLOBAL__N_130TestCheckEqualWithUn
 495              		.local	_ZN12_GLOBAL__N_138testCheckEqualWithUnsignedLongInstanceE
 496              		.comm	_ZN12_GLOBAL__N_138testCheckEqualWithUnsignedLongInstanceE,56,32
 497              		.local	_ZN12_GLOBAL__N_131adderCheckEqualWithUnsignedLongE
 498              		.comm	_ZN12_GLOBAL__N_131adderCheckEqualWithUnsignedLongE,1,1
 499              		.section	.rodata
 500 0037 00       		.align 8
 501              	.LC4:
 502 0038 556E6861 		.string	"Unhandled exception in CHECK_EQUAL(something, something)"
 502      6E646C65 
 502      64206578 
 502      63657074 
 502      696F6E20 
 503              		.text
 504 003d 90       		.align 2
 506              	_ZNK12_GLOBAL__N_130TestCheckEqualWithUnsignedLong7RunImplEv:
 507              	.LFB1032:
  11:TestChecks.cpp **** {
 508              		.loc 5 11 0
 509              		.cfi_startproc
 510              		.cfi_personality 0x3,__gxx_personality_v0
 511              		.cfi_lsda 0x3,.LLSDA1032
 512 003e 55       		pushq	%rbp
 513              		.cfi_def_cfa_offset 16
 514              		.cfi_offset 6, -16
 515 003f 4889E5   		movq	%rsp, %rbp
 516              		.cfi_def_cfa_register 6
 517 0042 53       		pushq	%rbx
 518 0043 4883EC68 		subq	$104, %rsp
 519              		.cfi_offset 3, -24
 520 0047 48897D98 		movq	%rdi, -104(%rbp)
 521              	.LBB10:
  12:TestChecks.cpp ****     TestResults results;
 522              		.loc 5 12 0
 523 004b 488D45B0 		leaq	-80(%rbp), %rax
 524 004f BE000000 		movl	$0, %esi
 524      00
 525 0054 4889C7   		movq	%rax, %rdi
 526              	.LEHB4:
 527 0057 E8000000 		call	_ZN8UnitTest11TestResultsC1EPNS_12TestReporterE
 527      00
 528              	.LEHE4:
  13:TestChecks.cpp ****     unsigned long something = 2;
 529              		.loc 5 13 0
 530 005c 48C745A8 		movq	$2, -88(%rbp)
 530      02000000 
 531              	.LEHB5:
  14:TestChecks.cpp ****     CHECK_EQUAL(something, something);
 532              		.loc 5 14 0
 533 0064 E8000000 		call	_ZN8UnitTest11CurrentTest7DetailsEv
 533      00
 534 0069 488B08   		movq	(%rax), %rcx
 535 006c 488D45D0 		leaq	-48(%rbp), %rax
 536 0070 BA0E0000 		movl	$14, %edx
 536      00
 537 0075 4889CE   		movq	%rcx, %rsi
 538 0078 4889C7   		movq	%rax, %rdi
 539 007b E8000000 		call	_ZN8UnitTest11TestDetailsC1ERKS0_i
 539      00
 540              		.loc 5 14 0 is_stmt 0 discriminator 1
 541 0080 E8000000 		call	_ZN8UnitTest11CurrentTest7ResultsEv
 541      00
 542 0085 488B00   		movq	(%rax), %rax
 543 0088 488D4DD0 		leaq	-48(%rbp), %rcx
 544 008c 488D55A8 		leaq	-88(%rbp), %rdx
 545 0090 488D75A8 		leaq	-88(%rbp), %rsi
 546 0094 4889C7   		movq	%rax, %rdi
 547 0097 E8000000 		call	_ZN8UnitTest10CheckEqualImmEEvRNS_11TestResultsERKT_RKT0_RKNS_11TestDetailsE
 547      00
 548              	.LEHE5:
 549              	.LBE10:
  15:TestChecks.cpp **** }
 550              		.loc 5 15 0 is_stmt 1
 551 009c EB58     		jmp	.L22
 552              	.L21:
 553 009e 4889C3   		movq	%rax, %rbx
 554              	.LBB11:
  14:TestChecks.cpp ****     CHECK_EQUAL(something, something);
 555              		.loc 5 14 0
 556 00a1 E8000000 		call	__cxa_end_catch
 556      00
 557 00a6 4889D8   		movq	%rbx, %rax
 558 00a9 4889C7   		movq	%rax, %rdi
 559              	.LEHB6:
 560 00ac E8000000 		call	_Unwind_Resume
 560      00
 561              	.LEHE6:
 562              	.L20:
 563 00b1 4889C7   		movq	%rax, %rdi
 564 00b4 E8000000 		call	__cxa_begin_catch
 564      00
 565              	.LEHB7:
 566 00b9 E8000000 		call	_ZN8UnitTest11CurrentTest7DetailsEv
 566      00
 567 00be 488B08   		movq	(%rax), %rcx
 568 00c1 488D45D0 		leaq	-48(%rbp), %rax
 569 00c5 BA0E0000 		movl	$14, %edx
 569      00
 570 00ca 4889CE   		movq	%rcx, %rsi
 571 00cd 4889C7   		movq	%rax, %rdi
 572 00d0 E8000000 		call	_ZN8UnitTest11TestDetailsC1ERKS0_i
 572      00
  14:TestChecks.cpp ****     CHECK_EQUAL(something, something);
 573              		.loc 5 14 0 is_stmt 0 discriminator 1
 574 00d5 E8000000 		call	_ZN8UnitTest11CurrentTest7ResultsEv
 574      00
 575 00da 488B00   		movq	(%rax), %rax
 576 00dd 488D4DD0 		leaq	-48(%rbp), %rcx
 577 00e1 BA000000 		movl	$.LC4, %edx
 577      00
 578 00e6 4889CE   		movq	%rcx, %rsi
 579 00e9 4889C7   		movq	%rax, %rdi
 580 00ec E8000000 		call	_ZN8UnitTest11TestResults13OnTestFailureERKNS_11TestDetailsEPKc
 580      00
 581              	.LEHE7:
 582              	.LEHB8:
 583 00f1 E8000000 		call	__cxa_end_catch
 583      00
 584              	.LEHE8:
 585              	.L22:
 586              	.LBE11:
 587              		.loc 5 15 0 is_stmt 1
 588 00f6 90       		nop
 589 00f7 4883C468 		addq	$104, %rsp
 590 00fb 5B       		popq	%rbx
 591 00fc 5D       		popq	%rbp
 592              		.cfi_def_cfa 7, 8
 593 00fd C3       		ret
 594              		.cfi_endproc
 595              	.LFE1032:
 596              		.section	.gcc_except_table,"a",@progbits
 597              		.align 4
 598              	.LLSDA1032:
 599 0000 FF       		.byte	0xff
 600 0001 03       		.byte	0x3
 601 0002 1D       		.uleb128 .LLSDATT1032-.LLSDATTD1032
 602              	.LLSDATTD1032:
 603 0003 01       		.byte	0x1
 604 0004 15       		.uleb128 .LLSDACSE1032-.LLSDACSB1032
 605              	.LLSDACSB1032:
 606 0005 19       		.uleb128 .LEHB4-.LFB1032
 607 0006 05       		.uleb128 .LEHE4-.LEHB4
 608 0007 00       		.uleb128 0
 609 0008 00       		.uleb128 0
 610 0009 26       		.uleb128 .LEHB5-.LFB1032
 611 000a 38       		.uleb128 .LEHE5-.LEHB5
 612 000b 73       		.uleb128 .L20-.LFB1032
 613 000c 01       		.uleb128 0x1
 614 000d 6E       		.uleb128 .LEHB6-.LFB1032
 615 000e 05       		.uleb128 .LEHE6-.LEHB6
 616 000f 00       		.uleb128 0
 617 0010 00       		.uleb128 0
 618 0011 7B       		.uleb128 .LEHB7-.LFB1032
 619 0012 38       		.uleb128 .LEHE7-.LEHB7
 620 0013 60       		.uleb128 .L21-.LFB1032
 621 0014 00       		.uleb128 0
 622 0015 B301     		.uleb128 .LEHB8-.LFB1032
 623 0017 05       		.uleb128 .LEHE8-.LEHB8
 624 0018 00       		.uleb128 0
 625 0019 00       		.uleb128 0
 626              	.LLSDACSE1032:
 627 001a 01       		.byte	0x1
 628 001b 00       		.byte	0
 629              		.align 4
 630 001c 00000000 		.long	0
 631              	
 632              	.LLSDATT1032:
 633              		.text
 635              		.section	.rodata
 636 0071 00000000 		.align 8
 636      000000
 637              	.LC5:
 638 0078 43686563 		.string	"CheckEqualsWithStringsFailsOnDifferentStrings"
 638      6B457175 
 638      616C7357 
 638      69746853 
 638      7472696E 
 639              		.text
 640              		.align 2
 642              	_ZN12_GLOBAL__N_149TestCheckEqualsWithStringsFailsOnDifferentStringsC2Ev:
 643              	.LFB1034:
  16:TestChecks.cpp **** 
  17:TestChecks.cpp **** TEST(CheckEqualsWithStringsFailsOnDifferentStrings)
 644              		.loc 5 17 0
 645              		.cfi_startproc
 646 00fe 55       		pushq	%rbp
 647              		.cfi_def_cfa_offset 16
 648              		.cfi_offset 6, -16
 649 00ff 4889E5   		movq	%rsp, %rbp
 650              		.cfi_def_cfa_register 6
 651 0102 4883EC10 		subq	$16, %rsp
 652 0106 48897DF8 		movq	%rdi, -8(%rbp)
 653              	.LBB12:
 654              		.loc 5 17 0
 655 010a E8000000 		call	_ZN13UnitTestSuite12GetSuiteNameEv
 655      00
 656 010f 4889C2   		movq	%rax, %rdx
 657 0112 488B45F8 		movq	-8(%rbp), %rax
 658 0116 41B81100 		movl	$17, %r8d
 658      0000
 659 011c B9000000 		movl	$.LC2, %ecx
 659      00
 660 0121 BE000000 		movl	$.LC5, %esi
 660      00
 661 0126 4889C7   		movq	%rax, %rdi
 662 0129 E8000000 		call	_ZN8UnitTest4TestC2EPKcS2_S2_i
 662      00
 663 012e 488B45F8 		movq	-8(%rbp), %rax
 664 0132 48C70000 		movq	$_ZTVN12_GLOBAL__N_149TestCheckEqualsWithStringsFailsOnDifferentStringsE+16, (%rax)
 664      000000
 665              	.LBE12:
 666 0139 C9       		leave
 667              		.cfi_def_cfa 7, 8
 668 013a C3       		ret
 669              		.cfi_endproc
 670              	.LFE1034:
 672              		.set	_ZN12_GLOBAL__N_149TestCheckEqualsWithStringsFailsOnDifferentStringsC1Ev,_ZN12_GLOBAL__N_149T
 673              		.local	_ZN12_GLOBAL__N_157testCheckEqualsWithStringsFailsOnDifferentStringsInstanceE
 674              		.comm	_ZN12_GLOBAL__N_157testCheckEqualsWithStringsFailsOnDifferentStringsInstanceE,56,32
 675              		.local	_ZN12_GLOBAL__N_150adderCheckEqualsWithStringsFailsOnDifferentStringsE
 676              		.comm	_ZN12_GLOBAL__N_150adderCheckEqualsWithStringsFailsOnDifferentStringsE,1,1
 677              		.section	.rodata
 678              	.LC6:
 679 00a6 00       		.string	""
 680 00a7 00       		.align 8
 681              	.LC7:
 682 00a8 556E6861 		.string	"Unhandled exception in CHECK_EQUAL(1, results.GetFailureCount())"
 682      6E646C65 
 682      64206578 
 682      63657074 
 682      696F6E20 
 683              		.text
 684 013b 90       		.align 2
 686              	_ZNK12_GLOBAL__N_149TestCheckEqualsWithStringsFailsOnDifferentStrings7RunImplEv:
 687              	.LFB1036:
  18:TestChecks.cpp **** {
 688              		.loc 5 18 0
 689              		.cfi_startproc
 690              		.cfi_personality 0x3,__gxx_personality_v0
 691              		.cfi_lsda 0x3,.LLSDA1036
 692 013c 55       		pushq	%rbp
 693              		.cfi_def_cfa_offset 16
 694              		.cfi_offset 6, -16
 695 013d 4889E5   		movq	%rsp, %rbp
 696              		.cfi_def_cfa_register 6
 697 0140 53       		pushq	%rbx
 698 0141 4881EC88 		subq	$136, %rsp
 698      000000
 699              		.cfi_offset 3, -24
 700 0148 4889BD78 		movq	%rdi, -136(%rbp)
 700      FFFFFF
 701              		.loc 5 18 0
 702 014f 64488B04 		movq	%fs:40, %rax
 702      25280000 
 702      00
 703 0158 488945E8 		movq	%rax, -24(%rbp)
 704 015c 31C0     		xorl	%eax, %eax
 705              	.LBB13:
  19:TestChecks.cpp ****     char txt1[] = "Hello";
 706              		.loc 5 19 0
 707 015e C745D048 		movl	$1819043144, -48(%rbp)
 707      656C6C
 708 0165 66C745D4 		movw	$111, -44(%rbp)
 708      6F00
  20:TestChecks.cpp ****     char txt2[] = "Hallo";
 709              		.loc 5 20 0
 710 016b C745E048 		movl	$1819042120, -32(%rbp)
 710      616C6C
 711 0172 66C745E4 		movw	$111, -28(%rbp)
 711      6F00
  21:TestChecks.cpp ****     TestResults results;
 712              		.loc 5 21 0
 713 0178 488D4590 		leaq	-112(%rbp), %rax
 714 017c BE000000 		movl	$0, %esi
 714      00
 715 0181 4889C7   		movq	%rax, %rdi
 716              	.LEHB9:
 717 0184 E8000000 		call	_ZN8UnitTest11TestResultsC1EPNS_12TestReporterE
 717      00
  22:TestChecks.cpp ****     CheckEqual(results, txt1, txt2, TestDetails("", "", "", 0));
 718              		.loc 5 22 0
 719 0189 488D45B0 		leaq	-80(%rbp), %rax
 720 018d 41B80000 		movl	$0, %r8d
 720      0000
 721 0193 B9000000 		movl	$.LC6, %ecx
 721      00
 722 0198 BA000000 		movl	$.LC6, %edx
 722      00
 723 019d BE000000 		movl	$.LC6, %esi
 723      00
 724 01a2 4889C7   		movq	%rax, %rdi
 725 01a5 E8000000 		call	_ZN8UnitTest11TestDetailsC1EPKcS2_S2_i
 725      00
 726 01aa 488D4DB0 		leaq	-80(%rbp), %rcx
 727 01ae 488D55E0 		leaq	-32(%rbp), %rdx
 728 01b2 488D75D0 		leaq	-48(%rbp), %rsi
 729 01b6 488D4590 		leaq	-112(%rbp), %rax
 730 01ba 4889C7   		movq	%rax, %rdi
 731 01bd E8000000 		call	_ZN8UnitTest10CheckEqualERNS_11TestResultsEPcS2_RKNS_11TestDetailsE
 731      00
 732              	.LEHE9:
 733              	.LEHB10:
  23:TestChecks.cpp ****     CHECK_EQUAL(1, results.GetFailureCount());
 734              		.loc 5 23 0
 735 01c2 E8000000 		call	_ZN8UnitTest11CurrentTest7DetailsEv
 735      00
 736 01c7 488B08   		movq	(%rax), %rcx
 737 01ca 488D45B0 		leaq	-80(%rbp), %rax
 738 01ce BA170000 		movl	$23, %edx
 738      00
 739 01d3 4889CE   		movq	%rcx, %rsi
 740 01d6 4889C7   		movq	%rax, %rdi
 741 01d9 E8000000 		call	_ZN8UnitTest11TestDetailsC1ERKS0_i
 741      00
 742              		.loc 5 23 0 is_stmt 0 discriminator 1
 743 01de 488D4590 		leaq	-112(%rbp), %rax
 744 01e2 4889C7   		movq	%rax, %rdi
 745 01e5 E8000000 		call	_ZNK8UnitTest11TestResults15GetFailureCountEv
 745      00
 746 01ea 89458C   		movl	%eax, -116(%rbp)
 747 01ed C7458801 		movl	$1, -120(%rbp)
 747      000000
 748 01f4 E8000000 		call	_ZN8UnitTest11CurrentTest7ResultsEv
 748      00
 749 01f9 488B00   		movq	(%rax), %rax
 750 01fc 488D4DB0 		leaq	-80(%rbp), %rcx
 751 0200 488D558C 		leaq	-116(%rbp), %rdx
 752 0204 488D7588 		leaq	-120(%rbp), %rsi
 753 0208 4889C7   		movq	%rax, %rdi
 754 020b E8000000 		call	_ZN8UnitTest10CheckEqualIiiEEvRNS_11TestResultsERKT_RKT0_RKNS_11TestDetailsE
 754      00
 755              	.LEHE10:
 756              	.LBE13:
  24:TestChecks.cpp **** }
 757              		.loc 5 24 0 is_stmt 1
 758 0210 EB58     		jmp	.L31
 759              	.L30:
 760 0212 4889C3   		movq	%rax, %rbx
 761              	.LBB14:
  23:TestChecks.cpp ****     CHECK_EQUAL(1, results.GetFailureCount());
 762              		.loc 5 23 0
 763 0215 E8000000 		call	__cxa_end_catch
 763      00
 764 021a 4889D8   		movq	%rbx, %rax
 765 021d 4889C7   		movq	%rax, %rdi
 766              	.LEHB11:
 767 0220 E8000000 		call	_Unwind_Resume
 767      00
 768              	.LEHE11:
 769              	.L29:
 770 0225 4889C7   		movq	%rax, %rdi
 771 0228 E8000000 		call	__cxa_begin_catch
 771      00
 772              	.LEHB12:
 773 022d E8000000 		call	_ZN8UnitTest11CurrentTest7DetailsEv
 773      00
 774 0232 488B08   		movq	(%rax), %rcx
 775 0235 488D45B0 		leaq	-80(%rbp), %rax
 776 0239 BA170000 		movl	$23, %edx
 776      00
 777 023e 4889CE   		movq	%rcx, %rsi
 778 0241 4889C7   		movq	%rax, %rdi
 779 0244 E8000000 		call	_ZN8UnitTest11TestDetailsC1ERKS0_i
 779      00
  23:TestChecks.cpp ****     CHECK_EQUAL(1, results.GetFailureCount());
 780              		.loc 5 23 0 is_stmt 0 discriminator 1
 781 0249 E8000000 		call	_ZN8UnitTest11CurrentTest7ResultsEv
 781      00
 782 024e 488B00   		movq	(%rax), %rax
 783 0251 488D4DB0 		leaq	-80(%rbp), %rcx
 784 0255 BA000000 		movl	$.LC7, %edx
 784      00
 785 025a 4889CE   		movq	%rcx, %rsi
 786 025d 4889C7   		movq	%rax, %rdi
 787 0260 E8000000 		call	_ZN8UnitTest11TestResults13OnTestFailureERKNS_11TestDetailsEPKc
 787      00
 788              	.LEHE12:
 789              	.LEHB13:
 790 0265 E8000000 		call	__cxa_end_catch
 790      00
 791              	.LEHE13:
 792              	.L31:
 793              	.LBE14:
 794              		.loc 5 24 0 is_stmt 1
 795 026a 90       		nop
 796 026b 488B45E8 		movq	-24(%rbp), %rax
 797 026f 64483304 		xorq	%fs:40, %rax
 797      25280000 
 797      00
 798 0278 7405     		je	.L28
 799 027a E8000000 		call	__stack_chk_fail
 799      00
 800              	.L28:
 801 027f 4881C488 		addq	$136, %rsp
 801      000000
 802 0286 5B       		popq	%rbx
 803 0287 5D       		popq	%rbp
 804              		.cfi_def_cfa 7, 8
 805 0288 C3       		ret
 806              		.cfi_endproc
 807              	.LFE1036:
 808              		.section	.gcc_except_table
 809              		.align 4
 810              	.LLSDA1036:
 811 0020 FF       		.byte	0xff
 812 0021 03       		.byte	0x3
 813 0022 25       		.uleb128 .LLSDATT1036-.LLSDATTD1036
 814              	.LLSDATTD1036:
 815 0023 01       		.byte	0x1
 816 0024 1A       		.uleb128 .LLSDACSE1036-.LLSDACSB1036
 817              	.LLSDACSB1036:
 818 0025 48       		.uleb128 .LEHB9-.LFB1036
 819 0026 3E       		.uleb128 .LEHE9-.LEHB9
 820 0027 00       		.uleb128 0
 821 0028 00       		.uleb128 0
 822 0029 8601     		.uleb128 .LEHB10-.LFB1036
 823 002b 4E       		.uleb128 .LEHE10-.LEHB10
 824 002c E901     		.uleb128 .L29-.LFB1036
 825 002e 01       		.uleb128 0x1
 826 002f E401     		.uleb128 .LEHB11-.LFB1036
 827 0031 05       		.uleb128 .LEHE11-.LEHB11
 828 0032 00       		.uleb128 0
 829 0033 00       		.uleb128 0
 830 0034 F101     		.uleb128 .LEHB12-.LFB1036
 831 0036 38       		.uleb128 .LEHE12-.LEHB12
 832 0037 D601     		.uleb128 .L30-.LFB1036
 833 0039 00       		.uleb128 0
 834 003a A902     		.uleb128 .LEHB13-.LFB1036
 835 003c 05       		.uleb128 .LEHE13-.LEHB13
 836 003d 00       		.uleb128 0
 837 003e 00       		.uleb128 0
 838              	.LLSDACSE1036:
 839 003f 01       		.byte	0x1
 840 0040 00       		.byte	0
 841 0041 000000   		.align 4
 842 0044 00000000 		.long	0
 843              	
 844              	.LLSDATT1036:
 845              		.text
 847              		.data
 850              	_ZN12_GLOBAL__N_14txt1E:
 851 0000 48656C6C 		.string	"Hello"
 851      6F00
 854              	_ZN12_GLOBAL__N_14txt2E:
 855 0006 48656C6C 		.string	"Hello"
 855      6F00
 856              		.section	.rodata
 857 00e9 00000000 		.align 8
 857      000000
 858              	.LC8:
 859 00f0 43686563 		.string	"CheckEqualsWithStringsWorksOnContentsNonConstNonConst"
 859      6B457175 
 859      616C7357 
 859      69746853 
 859      7472696E 
 860              		.text
 861 0289 90       		.align 2
 863              	_ZN12_GLOBAL__N_157TestCheckEqualsWithStringsWorksOnContentsNonConstNonConstC2Ev:
 864              	.LFB1038:
  25:TestChecks.cpp **** 
  26:TestChecks.cpp **** char txt1[] = "Hello"; // non-const on purpose so no folding of duplicate data
  27:TestChecks.cpp **** char txt2[] = "Hello";
  28:TestChecks.cpp **** 
  29:TestChecks.cpp **** TEST(CheckEqualsWithStringsWorksOnContentsNonConstNonConst)
 865              		.loc 5 29 0
 866              		.cfi_startproc
 867 028a 55       		pushq	%rbp
 868              		.cfi_def_cfa_offset 16
 869              		.cfi_offset 6, -16
 870 028b 4889E5   		movq	%rsp, %rbp
 871              		.cfi_def_cfa_register 6
 872 028e 4883EC10 		subq	$16, %rsp
 873 0292 48897DF8 		movq	%rdi, -8(%rbp)
 874              	.LBB15:
 875              		.loc 5 29 0
 876 0296 E8000000 		call	_ZN13UnitTestSuite12GetSuiteNameEv
 876      00
 877 029b 4889C2   		movq	%rax, %rdx
 878 029e 488B45F8 		movq	-8(%rbp), %rax
 879 02a2 41B81D00 		movl	$29, %r8d
 879      0000
 880 02a8 B9000000 		movl	$.LC2, %ecx
 880      00
 881 02ad BE000000 		movl	$.LC8, %esi
 881      00
 882 02b2 4889C7   		movq	%rax, %rdi
 883 02b5 E8000000 		call	_ZN8UnitTest4TestC2EPKcS2_S2_i
 883      00
 884 02ba 488B45F8 		movq	-8(%rbp), %rax
 885 02be 48C70000 		movq	$_ZTVN12_GLOBAL__N_157TestCheckEqualsWithStringsWorksOnContentsNonConstNonConstE+16, (%rax)
 885      000000
 886              	.LBE15:
 887 02c5 C9       		leave
 888              		.cfi_def_cfa 7, 8
 889 02c6 C3       		ret
 890              		.cfi_endproc
 891              	.LFE1038:
 893              		.set	_ZN12_GLOBAL__N_157TestCheckEqualsWithStringsWorksOnContentsNonConstNonConstC1Ev,_ZN12_GLOBAL
 894              		.local	_ZN12_GLOBAL__N_165testCheckEqualsWithStringsWorksOnContentsNonConstNonConstInstanceE
 895              		.comm	_ZN12_GLOBAL__N_165testCheckEqualsWithStringsWorksOnContentsNonConstNonConstInstanceE,56,32
 896              		.local	_ZN12_GLOBAL__N_158adderCheckEqualsWithStringsWorksOnContentsNonConstNonConstE
 897              		.comm	_ZN12_GLOBAL__N_158adderCheckEqualsWithStringsWorksOnContentsNonConstNonConstE,1,1
 898              		.section	.rodata
 899 0126 0000     		.align 8
 900              	.LC9:
 901 0128 556E6861 		.string	"Unhandled exception in CHECK_EQUAL(0, results.GetFailureCount())"
 901      6E646C65 
 901      64206578 
 901      63657074 
 901      696F6E20 
 902              		.text
 903 02c7 90       		.align 2
 905              	_ZNK12_GLOBAL__N_157TestCheckEqualsWithStringsWorksOnContentsNonConstNonConst7RunImplEv:
 906              	.LFB1040:
  30:TestChecks.cpp **** {
 907              		.loc 5 30 0
 908              		.cfi_startproc
 909              		.cfi_personality 0x3,__gxx_personality_v0
 910              		.cfi_lsda 0x3,.LLSDA1040
 911 02c8 55       		pushq	%rbp
 912              		.cfi_def_cfa_offset 16
 913              		.cfi_offset 6, -16
 914 02c9 4889E5   		movq	%rsp, %rbp
 915              		.cfi_def_cfa_register 6
 916 02cc 53       		pushq	%rbx
 917 02cd 4883EC78 		subq	$120, %rsp
 918              		.cfi_offset 3, -24
 919 02d1 48897D88 		movq	%rdi, -120(%rbp)
 920              	.LBB16:
  31:TestChecks.cpp ****     char const* const p1 = txt1;
 921              		.loc 5 31 0
 922 02d5 48C745A0 		movq	$_ZN12_GLOBAL__N_14txt1E, -96(%rbp)
 922      00000000 
  32:TestChecks.cpp ****     char const* const p2 = txt2;
 923              		.loc 5 32 0
 924 02dd 48C745A8 		movq	$_ZN12_GLOBAL__N_14txt2E, -88(%rbp)
 924      00000000 
  33:TestChecks.cpp ****     TestResults results;
 925              		.loc 5 33 0
 926 02e5 488D45B0 		leaq	-80(%rbp), %rax
 927 02e9 BE000000 		movl	$0, %esi
 927      00
 928 02ee 4889C7   		movq	%rax, %rdi
 929              	.LEHB14:
 930 02f1 E8000000 		call	_ZN8UnitTest11TestResultsC1EPNS_12TestReporterE
 930      00
  34:TestChecks.cpp ****     CheckEqual(results, p1, p2, TestDetails("", "", "", 0));
 931              		.loc 5 34 0
 932 02f6 488D45D0 		leaq	-48(%rbp), %rax
 933 02fa 41B80000 		movl	$0, %r8d
 933      0000
 934 0300 B9000000 		movl	$.LC6, %ecx
 934      00
 935 0305 BA000000 		movl	$.LC6, %edx
 935      00
 936 030a BE000000 		movl	$.LC6, %esi
 936      00
 937 030f 4889C7   		movq	%rax, %rdi
 938 0312 E8000000 		call	_ZN8UnitTest11TestDetailsC1EPKcS2_S2_i
 938      00
 939 0317 488D55D0 		leaq	-48(%rbp), %rdx
 940 031b 488D45B0 		leaq	-80(%rbp), %rax
 941 031f 4889D1   		movq	%rdx, %rcx
 942 0322 BA000000 		movl	$_ZN12_GLOBAL__N_14txt2E, %edx
 942      00
 943 0327 BE000000 		movl	$_ZN12_GLOBAL__N_14txt1E, %esi
 943      00
 944 032c 4889C7   		movq	%rax, %rdi
 945 032f E8000000 		call	_ZN8UnitTest10CheckEqualERNS_11TestResultsEPKcS3_RKNS_11TestDetailsE
 945      00
 946              	.LEHE14:
 947              	.LEHB15:
  35:TestChecks.cpp ****     CHECK_EQUAL(0, results.GetFailureCount());
 948              		.loc 5 35 0
 949 0334 E8000000 		call	_ZN8UnitTest11CurrentTest7DetailsEv
 949      00
 950 0339 488B08   		movq	(%rax), %rcx
 951 033c 488D45D0 		leaq	-48(%rbp), %rax
 952 0340 BA230000 		movl	$35, %edx
 952      00
 953 0345 4889CE   		movq	%rcx, %rsi
 954 0348 4889C7   		movq	%rax, %rdi
 955 034b E8000000 		call	_ZN8UnitTest11TestDetailsC1ERKS0_i
 955      00
 956              		.loc 5 35 0 is_stmt 0 discriminator 1
 957 0350 488D45B0 		leaq	-80(%rbp), %rax
 958 0354 4889C7   		movq	%rax, %rdi
 959 0357 E8000000 		call	_ZNK8UnitTest11TestResults15GetFailureCountEv
 959      00
 960 035c 89459C   		movl	%eax, -100(%rbp)
 961 035f C7459800 		movl	$0, -104(%rbp)
 961      000000
 962 0366 E8000000 		call	_ZN8UnitTest11CurrentTest7ResultsEv
 962      00
 963 036b 488B00   		movq	(%rax), %rax
 964 036e 488D4DD0 		leaq	-48(%rbp), %rcx
 965 0372 488D559C 		leaq	-100(%rbp), %rdx
 966 0376 488D7598 		leaq	-104(%rbp), %rsi
 967 037a 4889C7   		movq	%rax, %rdi
 968 037d E8000000 		call	_ZN8UnitTest10CheckEqualIiiEEvRNS_11TestResultsERKT_RKT0_RKNS_11TestDetailsE
 968      00
 969              	.LEHE15:
 970              	.LBE16:
  36:TestChecks.cpp **** }
 971              		.loc 5 36 0 is_stmt 1
 972 0382 EB58     		jmp	.L39
 973              	.L38:
 974 0384 4889C3   		movq	%rax, %rbx
 975              	.LBB17:
  35:TestChecks.cpp ****     CHECK_EQUAL(0, results.GetFailureCount());
 976              		.loc 5 35 0
 977 0387 E8000000 		call	__cxa_end_catch
 977      00
 978 038c 4889D8   		movq	%rbx, %rax
 979 038f 4889C7   		movq	%rax, %rdi
 980              	.LEHB16:
 981 0392 E8000000 		call	_Unwind_Resume
 981      00
 982              	.LEHE16:
 983              	.L37:
 984 0397 4889C7   		movq	%rax, %rdi
 985 039a E8000000 		call	__cxa_begin_catch
 985      00
 986              	.LEHB17:
 987 039f E8000000 		call	_ZN8UnitTest11CurrentTest7DetailsEv
 987      00
 988 03a4 488B08   		movq	(%rax), %rcx
 989 03a7 488D45D0 		leaq	-48(%rbp), %rax
 990 03ab BA230000 		movl	$35, %edx
 990      00
 991 03b0 4889CE   		movq	%rcx, %rsi
 992 03b3 4889C7   		movq	%rax, %rdi
 993 03b6 E8000000 		call	_ZN8UnitTest11TestDetailsC1ERKS0_i
 993      00
  35:TestChecks.cpp ****     CHECK_EQUAL(0, results.GetFailureCount());
 994              		.loc 5 35 0 is_stmt 0 discriminator 1
 995 03bb E8000000 		call	_ZN8UnitTest11CurrentTest7ResultsEv
 995      00
 996 03c0 488B00   		movq	(%rax), %rax
 997 03c3 488D4DD0 		leaq	-48(%rbp), %rcx
 998 03c7 BA000000 		movl	$.LC9, %edx
 998      00
 999 03cc 4889CE   		movq	%rcx, %rsi
 1000 03cf 4889C7   		movq	%rax, %rdi
 1001 03d2 E8000000 		call	_ZN8UnitTest11TestResults13OnTestFailureERKNS_11TestDetailsEPKc
 1001      00
 1002              	.LEHE17:
 1003              	.LEHB18:
 1004 03d7 E8000000 		call	__cxa_end_catch
 1004      00
 1005              	.LEHE18:
 1006              	.L39:
 1007              	.LBE17:
 1008              		.loc 5 36 0 is_stmt 1
 1009 03dc 90       		nop
 1010 03dd 4883C478 		addq	$120, %rsp
 1011 03e1 5B       		popq	%rbx
 1012 03e2 5D       		popq	%rbp
 1013              		.cfi_def_cfa 7, 8
 1014 03e3 C3       		ret
 1015              		.cfi_endproc
 1016              	.LFE1040:
 1017              		.section	.gcc_except_table
 1018              		.align 4
 1019              	.LLSDA1040:
 1020 0048 FF       		.byte	0xff
 1021 0049 03       		.byte	0x3
 1022 004a 21       		.uleb128 .LLSDATT1040-.LLSDATTD1040
 1023              	.LLSDATTD1040:
 1024 004b 01       		.byte	0x1
 1025 004c 19       		.uleb128 .LLSDACSE1040-.LLSDACSB1040
 1026              	.LLSDACSB1040:
 1027 004d 29       		.uleb128 .LEHB14-.LFB1040
 1028 004e 43       		.uleb128 .LEHE14-.LEHB14
 1029 004f 00       		.uleb128 0
 1030 0050 00       		.uleb128 0
 1031 0051 6C       		.uleb128 .LEHB15-.LFB1040
 1032 0052 4E       		.uleb128 .LEHE15-.LEHB15
 1033 0053 CF01     		.uleb128 .L37-.LFB1040
 1034 0055 01       		.uleb128 0x1
 1035 0056 CA01     		.uleb128 .LEHB16-.LFB1040
 1036 0058 05       		.uleb128 .LEHE16-.LEHB16
 1037 0059 00       		.uleb128 0
 1038 005a 00       		.uleb128 0
 1039 005b D701     		.uleb128 .LEHB17-.LFB1040
 1040 005d 38       		.uleb128 .LEHE17-.LEHB17
 1041 005e BC01     		.uleb128 .L38-.LFB1040
 1042 0060 00       		.uleb128 0
 1043 0061 8F02     		.uleb128 .LEHB18-.LFB1040
 1044 0063 05       		.uleb128 .LEHE18-.LEHB18
 1045 0064 00       		.uleb128 0
 1046 0065 00       		.uleb128 0
 1047              	.LLSDACSE1040:
 1048 0066 01       		.byte	0x1
 1049 0067 00       		.byte	0
 1050              		.align 4
 1051 0068 00000000 		.long	0
 1052              	
 1053              	.LLSDATT1040:
 1054              		.text
 1056              		.section	.rodata
 1057 0169 00000000 		.align 8
 1057      000000
 1058              	.LC10:
 1059 0170 43686563 		.string	"CheckEqualsWithStringsWorksOnContentsConstConst"
 1059      6B457175 
 1059      616C7357 
 1059      69746853 
 1059      7472696E 
 1060              		.text
 1061              		.align 2
 1063              	_ZN12_GLOBAL__N_151TestCheckEqualsWithStringsWorksOnContentsConstConstC2Ev:
 1064              	.LFB1042:
  37:TestChecks.cpp **** 
  38:TestChecks.cpp **** TEST(CheckEqualsWithStringsWorksOnContentsConstConst)
 1065              		.loc 5 38 0
 1066              		.cfi_startproc
 1067 03e4 55       		pushq	%rbp
 1068              		.cfi_def_cfa_offset 16
 1069              		.cfi_offset 6, -16
 1070 03e5 4889E5   		movq	%rsp, %rbp
 1071              		.cfi_def_cfa_register 6
 1072 03e8 4883EC10 		subq	$16, %rsp
 1073 03ec 48897DF8 		movq	%rdi, -8(%rbp)
 1074              	.LBB18:
 1075              		.loc 5 38 0
 1076 03f0 E8000000 		call	_ZN13UnitTestSuite12GetSuiteNameEv
 1076      00
 1077 03f5 4889C2   		movq	%rax, %rdx
 1078 03f8 488B45F8 		movq	-8(%rbp), %rax
 1079 03fc 41B82600 		movl	$38, %r8d
 1079      0000
 1080 0402 B9000000 		movl	$.LC2, %ecx
 1080      00
 1081 0407 BE000000 		movl	$.LC10, %esi
 1081      00
 1082 040c 4889C7   		movq	%rax, %rdi
 1083 040f E8000000 		call	_ZN8UnitTest4TestC2EPKcS2_S2_i
 1083      00
 1084 0414 488B45F8 		movq	-8(%rbp), %rax
 1085 0418 48C70000 		movq	$_ZTVN12_GLOBAL__N_151TestCheckEqualsWithStringsWorksOnContentsConstConstE+16, (%rax)
 1085      000000
 1086              	.LBE18:
 1087 041f C9       		leave
 1088              		.cfi_def_cfa 7, 8
 1089 0420 C3       		ret
 1090              		.cfi_endproc
 1091              	.LFE1042:
 1093              		.set	_ZN12_GLOBAL__N_151TestCheckEqualsWithStringsWorksOnContentsConstConstC1Ev,_ZN12_GLOBAL__N_15
 1094              		.local	_ZN12_GLOBAL__N_159testCheckEqualsWithStringsWorksOnContentsConstConstInstanceE
 1095              		.comm	_ZN12_GLOBAL__N_159testCheckEqualsWithStringsWorksOnContentsConstConstInstanceE,56,32
 1096              		.local	_ZN12_GLOBAL__N_152adderCheckEqualsWithStringsWorksOnContentsConstConstE
 1097              		.comm	_ZN12_GLOBAL__N_152adderCheckEqualsWithStringsWorksOnContentsConstConstE,1,1
 1098 0421 90       		.align 2
 1100              	_ZNK12_GLOBAL__N_151TestCheckEqualsWithStringsWorksOnContentsConstConst7RunImplEv:
 1101              	.LFB1044:
  39:TestChecks.cpp **** {
 1102              		.loc 5 39 0
 1103              		.cfi_startproc
 1104              		.cfi_personality 0x3,__gxx_personality_v0
 1105              		.cfi_lsda 0x3,.LLSDA1044
 1106 0422 55       		pushq	%rbp
 1107              		.cfi_def_cfa_offset 16
 1108              		.cfi_offset 6, -16
 1109 0423 4889E5   		movq	%rsp, %rbp
 1110              		.cfi_def_cfa_register 6
 1111 0426 53       		pushq	%rbx
 1112 0427 4883EC78 		subq	$120, %rsp
 1113              		.cfi_offset 3, -24
 1114 042b 48897D88 		movq	%rdi, -120(%rbp)
 1115              	.LBB19:
  40:TestChecks.cpp ****     char* const p1 = txt1;
 1116              		.loc 5 40 0
 1117 042f 48C745A0 		movq	$_ZN12_GLOBAL__N_14txt1E, -96(%rbp)
 1117      00000000 
  41:TestChecks.cpp ****     char* const p2 = txt2;
 1118              		.loc 5 41 0
 1119 0437 48C745A8 		movq	$_ZN12_GLOBAL__N_14txt2E, -88(%rbp)
 1119      00000000 
  42:TestChecks.cpp ****     TestResults results;
 1120              		.loc 5 42 0
 1121 043f 488D45B0 		leaq	-80(%rbp), %rax
 1122 0443 BE000000 		movl	$0, %esi
 1122      00
 1123 0448 4889C7   		movq	%rax, %rdi
 1124              	.LEHB19:
 1125 044b E8000000 		call	_ZN8UnitTest11TestResultsC1EPNS_12TestReporterE
 1125      00
  43:TestChecks.cpp ****     CheckEqual(results, p1, p2, TestDetails("", "", "", 0));
 1126              		.loc 5 43 0
 1127 0450 488D45D0 		leaq	-48(%rbp), %rax
 1128 0454 41B80000 		movl	$0, %r8d
 1128      0000
 1129 045a B9000000 		movl	$.LC6, %ecx
 1129      00
 1130 045f BA000000 		movl	$.LC6, %edx
 1130      00
 1131 0464 BE000000 		movl	$.LC6, %esi
 1131      00
 1132 0469 4889C7   		movq	%rax, %rdi
 1133 046c E8000000 		call	_ZN8UnitTest11TestDetailsC1EPKcS2_S2_i
 1133      00
 1134 0471 488D55D0 		leaq	-48(%rbp), %rdx
 1135 0475 488D45B0 		leaq	-80(%rbp), %rax
 1136 0479 4889D1   		movq	%rdx, %rcx
 1137 047c BA000000 		movl	$_ZN12_GLOBAL__N_14txt2E, %edx
 1137      00
 1138 0481 BE000000 		movl	$_ZN12_GLOBAL__N_14txt1E, %esi
 1138      00
 1139 0486 4889C7   		movq	%rax, %rdi
 1140 0489 E8000000 		call	_ZN8UnitTest10CheckEqualERNS_11TestResultsEPcS2_RKNS_11TestDetailsE
 1140      00
 1141              	.LEHE19:
 1142              	.LEHB20:
  44:TestChecks.cpp ****     CHECK_EQUAL(0, results.GetFailureCount());
 1143              		.loc 5 44 0
 1144 048e E8000000 		call	_ZN8UnitTest11CurrentTest7DetailsEv
 1144      00
 1145 0493 488B08   		movq	(%rax), %rcx
 1146 0496 488D45D0 		leaq	-48(%rbp), %rax
 1147 049a BA2C0000 		movl	$44, %edx
 1147      00
 1148 049f 4889CE   		movq	%rcx, %rsi
 1149 04a2 4889C7   		movq	%rax, %rdi
 1150 04a5 E8000000 		call	_ZN8UnitTest11TestDetailsC1ERKS0_i
 1150      00
 1151              		.loc 5 44 0 is_stmt 0 discriminator 1
 1152 04aa 488D45B0 		leaq	-80(%rbp), %rax
 1153 04ae 4889C7   		movq	%rax, %rdi
 1154 04b1 E8000000 		call	_ZNK8UnitTest11TestResults15GetFailureCountEv
 1154      00
 1155 04b6 89459C   		movl	%eax, -100(%rbp)
 1156 04b9 C7459800 		movl	$0, -104(%rbp)
 1156      000000
 1157 04c0 E8000000 		call	_ZN8UnitTest11CurrentTest7ResultsEv
 1157      00
 1158 04c5 488B00   		movq	(%rax), %rax
 1159 04c8 488D4DD0 		leaq	-48(%rbp), %rcx
 1160 04cc 488D559C 		leaq	-100(%rbp), %rdx
 1161 04d0 488D7598 		leaq	-104(%rbp), %rsi
 1162 04d4 4889C7   		movq	%rax, %rdi
 1163 04d7 E8000000 		call	_ZN8UnitTest10CheckEqualIiiEEvRNS_11TestResultsERKT_RKT0_RKNS_11TestDetailsE
 1163      00
 1164              	.LEHE20:
 1165              	.LBE19:
  45:TestChecks.cpp **** }
 1166              		.loc 5 45 0 is_stmt 1
 1167 04dc EB58     		jmp	.L47
 1168              	.L46:
 1169 04de 4889C3   		movq	%rax, %rbx
 1170              	.LBB20:
  44:TestChecks.cpp ****     CHECK_EQUAL(0, results.GetFailureCount());
 1171              		.loc 5 44 0
 1172 04e1 E8000000 		call	__cxa_end_catch
 1172      00
 1173 04e6 4889D8   		movq	%rbx, %rax
 1174 04e9 4889C7   		movq	%rax, %rdi
 1175              	.LEHB21:
 1176 04ec E8000000 		call	_Unwind_Resume
 1176      00
 1177              	.LEHE21:
 1178              	.L45:
 1179 04f1 4889C7   		movq	%rax, %rdi
 1180 04f4 E8000000 		call	__cxa_begin_catch
 1180      00
 1181              	.LEHB22:
 1182 04f9 E8000000 		call	_ZN8UnitTest11CurrentTest7DetailsEv
 1182      00
 1183 04fe 488B08   		movq	(%rax), %rcx
 1184 0501 488D45D0 		leaq	-48(%rbp), %rax
 1185 0505 BA2C0000 		movl	$44, %edx
 1185      00
 1186 050a 4889CE   		movq	%rcx, %rsi
 1187 050d 4889C7   		movq	%rax, %rdi
 1188 0510 E8000000 		call	_ZN8UnitTest11TestDetailsC1ERKS0_i
 1188      00
  44:TestChecks.cpp ****     CHECK_EQUAL(0, results.GetFailureCount());
 1189              		.loc 5 44 0 is_stmt 0 discriminator 1
 1190 0515 E8000000 		call	_ZN8UnitTest11CurrentTest7ResultsEv
 1190      00
 1191 051a 488B00   		movq	(%rax), %rax
 1192 051d 488D4DD0 		leaq	-48(%rbp), %rcx
 1193 0521 BA000000 		movl	$.LC9, %edx
 1193      00
 1194 0526 4889CE   		movq	%rcx, %rsi
 1195 0529 4889C7   		movq	%rax, %rdi
 1196 052c E8000000 		call	_ZN8UnitTest11TestResults13OnTestFailureERKNS_11TestDetailsEPKc
 1196      00
 1197              	.LEHE22:
 1198              	.LEHB23:
 1199 0531 E8000000 		call	__cxa_end_catch
 1199      00
 1200              	.LEHE23:
 1201              	.L47:
 1202              	.LBE20:
 1203              		.loc 5 45 0 is_stmt 1
 1204 0536 90       		nop
 1205 0537 4883C478 		addq	$120, %rsp
 1206 053b 5B       		popq	%rbx
 1207 053c 5D       		popq	%rbp
 1208              		.cfi_def_cfa 7, 8
 1209 053d C3       		ret
 1210              		.cfi_endproc
 1211              	.LFE1044:
 1212              		.section	.gcc_except_table
 1213              		.align 4
 1214              	.LLSDA1044:
 1215 006c FF       		.byte	0xff
 1216 006d 03       		.byte	0x3
 1217 006e 21       		.uleb128 .LLSDATT1044-.LLSDATTD1044
 1218              	.LLSDATTD1044:
 1219 006f 01       		.byte	0x1
 1220 0070 19       		.uleb128 .LLSDACSE1044-.LLSDACSB1044
 1221              	.LLSDACSB1044:
 1222 0071 29       		.uleb128 .LEHB19-.LFB1044
 1223 0072 43       		.uleb128 .LEHE19-.LEHB19
 1224 0073 00       		.uleb128 0
 1225 0074 00       		.uleb128 0
 1226 0075 6C       		.uleb128 .LEHB20-.LFB1044
 1227 0076 4E       		.uleb128 .LEHE20-.LEHB20
 1228 0077 CF01     		.uleb128 .L45-.LFB1044
 1229 0079 01       		.uleb128 0x1
 1230 007a CA01     		.uleb128 .LEHB21-.LFB1044
 1231 007c 05       		.uleb128 .LEHE21-.LEHB21
 1232 007d 00       		.uleb128 0
 1233 007e 00       		.uleb128 0
 1234 007f D701     		.uleb128 .LEHB22-.LFB1044
 1235 0081 38       		.uleb128 .LEHE22-.LEHB22
 1236 0082 BC01     		.uleb128 .L46-.LFB1044
 1237 0084 00       		.uleb128 0
 1238 0085 8F02     		.uleb128 .LEHB23-.LFB1044
 1239 0087 05       		.uleb128 .LEHE23-.LEHB23
 1240 0088 00       		.uleb128 0
 1241 0089 00       		.uleb128 0
 1242              	.LLSDACSE1044:
 1243 008a 01       		.byte	0x1
 1244 008b 00       		.byte	0
 1245              		.align 4
 1246 008c 00000000 		.long	0
 1247              	
 1248              	.LLSDATT1044:
 1249              		.text
 1251              		.section	.rodata
 1252              		.align 8
 1253              	.LC11:
 1254 01a0 43686563 		.string	"CheckEqualsWithStringsWorksOnContentsNonConstConst"
 1254      6B457175 
 1254      616C7357 
 1254      69746853 
 1254      7472696E 
 1255              		.text
 1256              		.align 2
 1258              	_ZN12_GLOBAL__N_154TestCheckEqualsWithStringsWorksOnContentsNonConstConstC2Ev:
 1259              	.LFB1046:
  46:TestChecks.cpp **** 
  47:TestChecks.cpp **** TEST(CheckEqualsWithStringsWorksOnContentsNonConstConst)
 1260              		.loc 5 47 0
 1261              		.cfi_startproc
 1262 053e 55       		pushq	%rbp
 1263              		.cfi_def_cfa_offset 16
 1264              		.cfi_offset 6, -16
 1265 053f 4889E5   		movq	%rsp, %rbp
 1266              		.cfi_def_cfa_register 6
 1267 0542 4883EC10 		subq	$16, %rsp
 1268 0546 48897DF8 		movq	%rdi, -8(%rbp)
 1269              	.LBB21:
 1270              		.loc 5 47 0
 1271 054a E8000000 		call	_ZN13UnitTestSuite12GetSuiteNameEv
 1271      00
 1272 054f 4889C2   		movq	%rax, %rdx
 1273 0552 488B45F8 		movq	-8(%rbp), %rax
 1274 0556 41B82F00 		movl	$47, %r8d
 1274      0000
 1275 055c B9000000 		movl	$.LC2, %ecx
 1275      00
 1276 0561 BE000000 		movl	$.LC11, %esi
 1276      00
 1277 0566 4889C7   		movq	%rax, %rdi
 1278 0569 E8000000 		call	_ZN8UnitTest4TestC2EPKcS2_S2_i
 1278      00
 1279 056e 488B45F8 		movq	-8(%rbp), %rax
 1280 0572 48C70000 		movq	$_ZTVN12_GLOBAL__N_154TestCheckEqualsWithStringsWorksOnContentsNonConstConstE+16, (%rax)
 1280      000000
 1281              	.LBE21:
 1282 0579 C9       		leave
 1283              		.cfi_def_cfa 7, 8
 1284 057a C3       		ret
 1285              		.cfi_endproc
 1286              	.LFE1046:
 1288              		.set	_ZN12_GLOBAL__N_154TestCheckEqualsWithStringsWorksOnContentsNonConstConstC1Ev,_ZN12_GLOBAL__N
 1289              		.local	_ZN12_GLOBAL__N_162testCheckEqualsWithStringsWorksOnContentsNonConstConstInstanceE
 1290              		.comm	_ZN12_GLOBAL__N_162testCheckEqualsWithStringsWorksOnContentsNonConstConstInstanceE,56,32
 1291              		.local	_ZN12_GLOBAL__N_155adderCheckEqualsWithStringsWorksOnContentsNonConstConstE
 1292              		.comm	_ZN12_GLOBAL__N_155adderCheckEqualsWithStringsWorksOnContentsNonConstConstE,1,1
 1293 057b 90       		.align 2
 1295              	_ZNK12_GLOBAL__N_154TestCheckEqualsWithStringsWorksOnContentsNonConstConst7RunImplEv:
 1296              	.LFB1048:
  48:TestChecks.cpp **** {
 1297              		.loc 5 48 0
 1298              		.cfi_startproc
 1299              		.cfi_personality 0x3,__gxx_personality_v0
 1300              		.cfi_lsda 0x3,.LLSDA1048
 1301 057c 55       		pushq	%rbp
 1302              		.cfi_def_cfa_offset 16
 1303              		.cfi_offset 6, -16
 1304 057d 4889E5   		movq	%rsp, %rbp
 1305              		.cfi_def_cfa_register 6
 1306 0580 53       		pushq	%rbx
 1307 0581 4883EC78 		subq	$120, %rsp
 1308              		.cfi_offset 3, -24
 1309 0585 48897D88 		movq	%rdi, -120(%rbp)
 1310              	.LBB22:
  49:TestChecks.cpp ****     char* const p1 = txt1;
 1311              		.loc 5 49 0
 1312 0589 48C745A0 		movq	$_ZN12_GLOBAL__N_14txt1E, -96(%rbp)
 1312      00000000 
  50:TestChecks.cpp ****     char const* const p2 = txt2;
 1313              		.loc 5 50 0
 1314 0591 48C745A8 		movq	$_ZN12_GLOBAL__N_14txt2E, -88(%rbp)
 1314      00000000 
  51:TestChecks.cpp ****     TestResults results;
 1315              		.loc 5 51 0
 1316 0599 488D45B0 		leaq	-80(%rbp), %rax
 1317 059d BE000000 		movl	$0, %esi
 1317      00
 1318 05a2 4889C7   		movq	%rax, %rdi
 1319              	.LEHB24:
 1320 05a5 E8000000 		call	_ZN8UnitTest11TestResultsC1EPNS_12TestReporterE
 1320      00
  52:TestChecks.cpp ****     CheckEqual(results, p1, p2, TestDetails("", "", "", 0));
 1321              		.loc 5 52 0
 1322 05aa 488D45D0 		leaq	-48(%rbp), %rax
 1323 05ae 41B80000 		movl	$0, %r8d
 1323      0000
 1324 05b4 B9000000 		movl	$.LC6, %ecx
 1324      00
 1325 05b9 BA000000 		movl	$.LC6, %edx
 1325      00
 1326 05be BE000000 		movl	$.LC6, %esi
 1326      00
 1327 05c3 4889C7   		movq	%rax, %rdi
 1328 05c6 E8000000 		call	_ZN8UnitTest11TestDetailsC1EPKcS2_S2_i
 1328      00
 1329 05cb 488D55D0 		leaq	-48(%rbp), %rdx
 1330 05cf 488D45B0 		leaq	-80(%rbp), %rax
 1331 05d3 4889D1   		movq	%rdx, %rcx
 1332 05d6 BA000000 		movl	$_ZN12_GLOBAL__N_14txt2E, %edx
 1332      00
 1333 05db BE000000 		movl	$_ZN12_GLOBAL__N_14txt1E, %esi
 1333      00
 1334 05e0 4889C7   		movq	%rax, %rdi
 1335 05e3 E8000000 		call	_ZN8UnitTest10CheckEqualERNS_11TestResultsEPcPKcRKNS_11TestDetailsE
 1335      00
 1336              	.LEHE24:
 1337              	.LEHB25:
  53:TestChecks.cpp ****     CHECK_EQUAL(0, results.GetFailureCount());
 1338              		.loc 5 53 0
 1339 05e8 E8000000 		call	_ZN8UnitTest11CurrentTest7DetailsEv
 1339      00
 1340 05ed 488B08   		movq	(%rax), %rcx
 1341 05f0 488D45D0 		leaq	-48(%rbp), %rax
 1342 05f4 BA350000 		movl	$53, %edx
 1342      00
 1343 05f9 4889CE   		movq	%rcx, %rsi
 1344 05fc 4889C7   		movq	%rax, %rdi
 1345 05ff E8000000 		call	_ZN8UnitTest11TestDetailsC1ERKS0_i
 1345      00
 1346              		.loc 5 53 0 is_stmt 0 discriminator 1
 1347 0604 488D45B0 		leaq	-80(%rbp), %rax
 1348 0608 4889C7   		movq	%rax, %rdi
 1349 060b E8000000 		call	_ZNK8UnitTest11TestResults15GetFailureCountEv
 1349      00
 1350 0610 89459C   		movl	%eax, -100(%rbp)
 1351 0613 C7459800 		movl	$0, -104(%rbp)
 1351      000000
 1352 061a E8000000 		call	_ZN8UnitTest11CurrentTest7ResultsEv
 1352      00
 1353 061f 488B00   		movq	(%rax), %rax
 1354 0622 488D4DD0 		leaq	-48(%rbp), %rcx
 1355 0626 488D559C 		leaq	-100(%rbp), %rdx
 1356 062a 488D7598 		leaq	-104(%rbp), %rsi
 1357 062e 4889C7   		movq	%rax, %rdi
 1358 0631 E8000000 		call	_ZN8UnitTest10CheckEqualIiiEEvRNS_11TestResultsERKT_RKT0_RKNS_11TestDetailsE
 1358      00
 1359              	.LEHE25:
 1360              	.LBE22:
  54:TestChecks.cpp **** }
 1361              		.loc 5 54 0 is_stmt 1
 1362 0636 EB58     		jmp	.L55
 1363              	.L54:
 1364 0638 4889C3   		movq	%rax, %rbx
 1365              	.LBB23:
  53:TestChecks.cpp ****     CHECK_EQUAL(0, results.GetFailureCount());
 1366              		.loc 5 53 0
 1367 063b E8000000 		call	__cxa_end_catch
 1367      00
 1368 0640 4889D8   		movq	%rbx, %rax
 1369 0643 4889C7   		movq	%rax, %rdi
 1370              	.LEHB26:
 1371 0646 E8000000 		call	_Unwind_Resume
 1371      00
 1372              	.LEHE26:
 1373              	.L53:
 1374 064b 4889C7   		movq	%rax, %rdi
 1375 064e E8000000 		call	__cxa_begin_catch
 1375      00
 1376              	.LEHB27:
 1377 0653 E8000000 		call	_ZN8UnitTest11CurrentTest7DetailsEv
 1377      00
 1378 0658 488B08   		movq	(%rax), %rcx
 1379 065b 488D45D0 		leaq	-48(%rbp), %rax
 1380 065f BA350000 		movl	$53, %edx
 1380      00
 1381 0664 4889CE   		movq	%rcx, %rsi
 1382 0667 4889C7   		movq	%rax, %rdi
 1383 066a E8000000 		call	_ZN8UnitTest11TestDetailsC1ERKS0_i
 1383      00
  53:TestChecks.cpp ****     CHECK_EQUAL(0, results.GetFailureCount());
 1384              		.loc 5 53 0 is_stmt 0 discriminator 1
 1385 066f E8000000 		call	_ZN8UnitTest11CurrentTest7ResultsEv
 1385      00
 1386 0674 488B00   		movq	(%rax), %rax
 1387 0677 488D4DD0 		leaq	-48(%rbp), %rcx
 1388 067b BA000000 		movl	$.LC9, %edx
 1388      00
 1389 0680 4889CE   		movq	%rcx, %rsi
 1390 0683 4889C7   		movq	%rax, %rdi
 1391 0686 E8000000 		call	_ZN8UnitTest11TestResults13OnTestFailureERKNS_11TestDetailsEPKc
 1391      00
 1392              	.LEHE27:
 1393              	.LEHB28:
 1394 068b E8000000 		call	__cxa_end_catch
 1394      00
 1395              	.LEHE28:
 1396              	.L55:
 1397              	.LBE23:
 1398              		.loc 5 54 0 is_stmt 1
 1399 0690 90       		nop
 1400 0691 4883C478 		addq	$120, %rsp
 1401 0695 5B       		popq	%rbx
 1402 0696 5D       		popq	%rbp
 1403              		.cfi_def_cfa 7, 8
 1404 0697 C3       		ret
 1405              		.cfi_endproc
 1406              	.LFE1048:
 1407              		.section	.gcc_except_table
 1408              		.align 4
 1409              	.LLSDA1048:
 1410 0090 FF       		.byte	0xff
 1411 0091 03       		.byte	0x3
 1412 0092 21       		.uleb128 .LLSDATT1048-.LLSDATTD1048
 1413              	.LLSDATTD1048:
 1414 0093 01       		.byte	0x1
 1415 0094 19       		.uleb128 .LLSDACSE1048-.LLSDACSB1048
 1416              	.LLSDACSB1048:
 1417 0095 29       		.uleb128 .LEHB24-.LFB1048
 1418 0096 43       		.uleb128 .LEHE24-.LEHB24
 1419 0097 00       		.uleb128 0
 1420 0098 00       		.uleb128 0
 1421 0099 6C       		.uleb128 .LEHB25-.LFB1048
 1422 009a 4E       		.uleb128 .LEHE25-.LEHB25
 1423 009b CF01     		.uleb128 .L53-.LFB1048
 1424 009d 01       		.uleb128 0x1
 1425 009e CA01     		.uleb128 .LEHB26-.LFB1048
 1426 00a0 05       		.uleb128 .LEHE26-.LEHB26
 1427 00a1 00       		.uleb128 0
 1428 00a2 00       		.uleb128 0
 1429 00a3 D701     		.uleb128 .LEHB27-.LFB1048
 1430 00a5 38       		.uleb128 .LEHE27-.LEHB27
 1431 00a6 BC01     		.uleb128 .L54-.LFB1048
 1432 00a8 00       		.uleb128 0
 1433 00a9 8F02     		.uleb128 .LEHB28-.LFB1048
 1434 00ab 05       		.uleb128 .LEHE28-.LEHB28
 1435 00ac 00       		.uleb128 0
 1436 00ad 00       		.uleb128 0
 1437              	.LLSDACSE1048:
 1438 00ae 01       		.byte	0x1
 1439 00af 00       		.byte	0
 1440              		.align 4
 1441 00b0 00000000 		.long	0
 1442              	
 1443              	.LLSDATT1048:
 1444              		.text
 1446              		.section	.rodata
 1447 01d3 00000000 		.align 8
 1447      00
 1448              	.LC12:
 1449 01d8 43686563 		.string	"CheckEqualsWithStringsWorksOnContentsConstNonConst"
 1449      6B457175 
 1449      616C7357 
 1449      69746853 
 1449      7472696E 
 1450              		.text
 1451              		.align 2
 1453              	_ZN12_GLOBAL__N_154TestCheckEqualsWithStringsWorksOnContentsConstNonConstC2Ev:
 1454              	.LFB1050:
  55:TestChecks.cpp **** 
  56:TestChecks.cpp **** TEST(CheckEqualsWithStringsWorksOnContentsConstNonConst)
 1455              		.loc 5 56 0
 1456              		.cfi_startproc
 1457 0698 55       		pushq	%rbp
 1458              		.cfi_def_cfa_offset 16
 1459              		.cfi_offset 6, -16
 1460 0699 4889E5   		movq	%rsp, %rbp
 1461              		.cfi_def_cfa_register 6
 1462 069c 4883EC10 		subq	$16, %rsp
 1463 06a0 48897DF8 		movq	%rdi, -8(%rbp)
 1464              	.LBB24:
 1465              		.loc 5 56 0
 1466 06a4 E8000000 		call	_ZN13UnitTestSuite12GetSuiteNameEv
 1466      00
 1467 06a9 4889C2   		movq	%rax, %rdx
 1468 06ac 488B45F8 		movq	-8(%rbp), %rax
 1469 06b0 41B83800 		movl	$56, %r8d
 1469      0000
 1470 06b6 B9000000 		movl	$.LC2, %ecx
 1470      00
 1471 06bb BE000000 		movl	$.LC12, %esi
 1471      00
 1472 06c0 4889C7   		movq	%rax, %rdi
 1473 06c3 E8000000 		call	_ZN8UnitTest4TestC2EPKcS2_S2_i
 1473      00
 1474 06c8 488B45F8 		movq	-8(%rbp), %rax
 1475 06cc 48C70000 		movq	$_ZTVN12_GLOBAL__N_154TestCheckEqualsWithStringsWorksOnContentsConstNonConstE+16, (%rax)
 1475      000000
 1476              	.LBE24:
 1477 06d3 C9       		leave
 1478              		.cfi_def_cfa 7, 8
 1479 06d4 C3       		ret
 1480              		.cfi_endproc
 1481              	.LFE1050:
 1483              		.set	_ZN12_GLOBAL__N_154TestCheckEqualsWithStringsWorksOnContentsConstNonConstC1Ev,_ZN12_GLOBAL__N
 1484              		.local	_ZN12_GLOBAL__N_162testCheckEqualsWithStringsWorksOnContentsConstNonConstInstanceE
 1485              		.comm	_ZN12_GLOBAL__N_162testCheckEqualsWithStringsWorksOnContentsConstNonConstInstanceE,56,32
 1486              		.local	_ZN12_GLOBAL__N_155adderCheckEqualsWithStringsWorksOnContentsConstNonConstE
 1487              		.comm	_ZN12_GLOBAL__N_155adderCheckEqualsWithStringsWorksOnContentsConstNonConstE,1,1
 1488 06d5 90       		.align 2
 1490              	_ZNK12_GLOBAL__N_154TestCheckEqualsWithStringsWorksOnContentsConstNonConst7RunImplEv:
 1491              	.LFB1052:
  57:TestChecks.cpp **** {
 1492              		.loc 5 57 0
 1493              		.cfi_startproc
 1494              		.cfi_personality 0x3,__gxx_personality_v0
 1495              		.cfi_lsda 0x3,.LLSDA1052
 1496 06d6 55       		pushq	%rbp
 1497              		.cfi_def_cfa_offset 16
 1498              		.cfi_offset 6, -16
 1499 06d7 4889E5   		movq	%rsp, %rbp
 1500              		.cfi_def_cfa_register 6
 1501 06da 53       		pushq	%rbx
 1502 06db 4883EC78 		subq	$120, %rsp
 1503              		.cfi_offset 3, -24
 1504 06df 48897D88 		movq	%rdi, -120(%rbp)
 1505              	.LBB25:
  58:TestChecks.cpp ****     char const* const p1 = txt1;
 1506              		.loc 5 58 0
 1507 06e3 48C745A0 		movq	$_ZN12_GLOBAL__N_14txt1E, -96(%rbp)
 1507      00000000 
  59:TestChecks.cpp ****     char* const p2 = txt2;
 1508              		.loc 5 59 0
 1509 06eb 48C745A8 		movq	$_ZN12_GLOBAL__N_14txt2E, -88(%rbp)
 1509      00000000 
  60:TestChecks.cpp ****     TestResults results;
 1510              		.loc 5 60 0
 1511 06f3 488D45B0 		leaq	-80(%rbp), %rax
 1512 06f7 BE000000 		movl	$0, %esi
 1512      00
 1513 06fc 4889C7   		movq	%rax, %rdi
 1514              	.LEHB29:
 1515 06ff E8000000 		call	_ZN8UnitTest11TestResultsC1EPNS_12TestReporterE
 1515      00
  61:TestChecks.cpp ****     CheckEqual(results, p1, p2, TestDetails("", "", "", 0));
 1516              		.loc 5 61 0
 1517 0704 488D45D0 		leaq	-48(%rbp), %rax
 1518 0708 41B80000 		movl	$0, %r8d
 1518      0000
 1519 070e B9000000 		movl	$.LC6, %ecx
 1519      00
 1520 0713 BA000000 		movl	$.LC6, %edx
 1520      00
 1521 0718 BE000000 		movl	$.LC6, %esi
 1521      00
 1522 071d 4889C7   		movq	%rax, %rdi
 1523 0720 E8000000 		call	_ZN8UnitTest11TestDetailsC1EPKcS2_S2_i
 1523      00
 1524 0725 488D55D0 		leaq	-48(%rbp), %rdx
 1525 0729 488D45B0 		leaq	-80(%rbp), %rax
 1526 072d 4889D1   		movq	%rdx, %rcx
 1527 0730 BA000000 		movl	$_ZN12_GLOBAL__N_14txt2E, %edx
 1527      00
 1528 0735 BE000000 		movl	$_ZN12_GLOBAL__N_14txt1E, %esi
 1528      00
 1529 073a 4889C7   		movq	%rax, %rdi
 1530 073d E8000000 		call	_ZN8UnitTest10CheckEqualERNS_11TestResultsEPKcPcRKNS_11TestDetailsE
 1530      00
 1531              	.LEHE29:
 1532              	.LEHB30:
  62:TestChecks.cpp ****     CHECK_EQUAL(0, results.GetFailureCount());
 1533              		.loc 5 62 0
 1534 0742 E8000000 		call	_ZN8UnitTest11CurrentTest7DetailsEv
 1534      00
 1535 0747 488B08   		movq	(%rax), %rcx
 1536 074a 488D45D0 		leaq	-48(%rbp), %rax
 1537 074e BA3E0000 		movl	$62, %edx
 1537      00
 1538 0753 4889CE   		movq	%rcx, %rsi
 1539 0756 4889C7   		movq	%rax, %rdi
 1540 0759 E8000000 		call	_ZN8UnitTest11TestDetailsC1ERKS0_i
 1540      00
 1541              		.loc 5 62 0 is_stmt 0 discriminator 1
 1542 075e 488D45B0 		leaq	-80(%rbp), %rax
 1543 0762 4889C7   		movq	%rax, %rdi
 1544 0765 E8000000 		call	_ZNK8UnitTest11TestResults15GetFailureCountEv
 1544      00
 1545 076a 89459C   		movl	%eax, -100(%rbp)
 1546 076d C7459800 		movl	$0, -104(%rbp)
 1546      000000
 1547 0774 E8000000 		call	_ZN8UnitTest11CurrentTest7ResultsEv
 1547      00
 1548 0779 488B00   		movq	(%rax), %rax
 1549 077c 488D4DD0 		leaq	-48(%rbp), %rcx
 1550 0780 488D559C 		leaq	-100(%rbp), %rdx
 1551 0784 488D7598 		leaq	-104(%rbp), %rsi
 1552 0788 4889C7   		movq	%rax, %rdi
 1553 078b E8000000 		call	_ZN8UnitTest10CheckEqualIiiEEvRNS_11TestResultsERKT_RKT0_RKNS_11TestDetailsE
 1553      00
 1554              	.LEHE30:
 1555              	.LBE25:
  63:TestChecks.cpp **** }
 1556              		.loc 5 63 0 is_stmt 1
 1557 0790 EB58     		jmp	.L63
 1558              	.L62:
 1559 0792 4889C3   		movq	%rax, %rbx
 1560              	.LBB26:
  62:TestChecks.cpp ****     CHECK_EQUAL(0, results.GetFailureCount());
 1561              		.loc 5 62 0
 1562 0795 E8000000 		call	__cxa_end_catch
 1562      00
 1563 079a 4889D8   		movq	%rbx, %rax
 1564 079d 4889C7   		movq	%rax, %rdi
 1565              	.LEHB31:
 1566 07a0 E8000000 		call	_Unwind_Resume
 1566      00
 1567              	.LEHE31:
 1568              	.L61:
 1569 07a5 4889C7   		movq	%rax, %rdi
 1570 07a8 E8000000 		call	__cxa_begin_catch
 1570      00
 1571              	.LEHB32:
 1572 07ad E8000000 		call	_ZN8UnitTest11CurrentTest7DetailsEv
 1572      00
 1573 07b2 488B08   		movq	(%rax), %rcx
 1574 07b5 488D45D0 		leaq	-48(%rbp), %rax
 1575 07b9 BA3E0000 		movl	$62, %edx
 1575      00
 1576 07be 4889CE   		movq	%rcx, %rsi
 1577 07c1 4889C7   		movq	%rax, %rdi
 1578 07c4 E8000000 		call	_ZN8UnitTest11TestDetailsC1ERKS0_i
 1578      00
  62:TestChecks.cpp ****     CHECK_EQUAL(0, results.GetFailureCount());
 1579              		.loc 5 62 0 is_stmt 0 discriminator 1
 1580 07c9 E8000000 		call	_ZN8UnitTest11CurrentTest7ResultsEv
 1580      00
 1581 07ce 488B00   		movq	(%rax), %rax
 1582 07d1 488D4DD0 		leaq	-48(%rbp), %rcx
 1583 07d5 BA000000 		movl	$.LC9, %edx
 1583      00
 1584 07da 4889CE   		movq	%rcx, %rsi
 1585 07dd 4889C7   		movq	%rax, %rdi
 1586 07e0 E8000000 		call	_ZN8UnitTest11TestResults13OnTestFailureERKNS_11TestDetailsEPKc
 1586      00
 1587              	.LEHE32:
 1588              	.LEHB33:
 1589 07e5 E8000000 		call	__cxa_end_catch
 1589      00
 1590              	.LEHE33:
 1591              	.L63:
 1592              	.LBE26:
 1593              		.loc 5 63 0 is_stmt 1
 1594 07ea 90       		nop
 1595 07eb 4883C478 		addq	$120, %rsp
 1596 07ef 5B       		popq	%rbx
 1597 07f0 5D       		popq	%rbp
 1598              		.cfi_def_cfa 7, 8
 1599 07f1 C3       		ret
 1600              		.cfi_endproc
 1601              	.LFE1052:
 1602              		.section	.gcc_except_table
 1603              		.align 4
 1604              	.LLSDA1052:
 1605 00b4 FF       		.byte	0xff
 1606 00b5 03       		.byte	0x3
 1607 00b6 21       		.uleb128 .LLSDATT1052-.LLSDATTD1052
 1608              	.LLSDATTD1052:
 1609 00b7 01       		.byte	0x1
 1610 00b8 19       		.uleb128 .LLSDACSE1052-.LLSDACSB1052
 1611              	.LLSDACSB1052:
 1612 00b9 29       		.uleb128 .LEHB29-.LFB1052
 1613 00ba 43       		.uleb128 .LEHE29-.LEHB29
 1614 00bb 00       		.uleb128 0
 1615 00bc 00       		.uleb128 0
 1616 00bd 6C       		.uleb128 .LEHB30-.LFB1052
 1617 00be 4E       		.uleb128 .LEHE30-.LEHB30
 1618 00bf CF01     		.uleb128 .L61-.LFB1052
 1619 00c1 01       		.uleb128 0x1
 1620 00c2 CA01     		.uleb128 .LEHB31-.LFB1052
 1621 00c4 05       		.uleb128 .LEHE31-.LEHB31
 1622 00c5 00       		.uleb128 0
 1623 00c6 00       		.uleb128 0
 1624 00c7 D701     		.uleb128 .LEHB32-.LFB1052
 1625 00c9 38       		.uleb128 .LEHE32-.LEHB32
 1626 00ca BC01     		.uleb128 .L62-.LFB1052
 1627 00cc 00       		.uleb128 0
 1628 00cd 8F02     		.uleb128 .LEHB33-.LFB1052
 1629 00cf 05       		.uleb128 .LEHE33-.LEHB33
 1630 00d0 00       		.uleb128 0
 1631 00d1 00       		.uleb128 0
 1632              	.LLSDACSE1052:
 1633 00d2 01       		.byte	0x1
 1634 00d3 00       		.byte	0
 1635              		.align 4
 1636 00d4 00000000 		.long	0
 1637              	
 1638              	.LLSDATT1052:
 1639              		.text
 1641              		.section	.rodata
 1642 020b 00000000 		.align 8
 1642      00
 1643              	.LC13:
 1644 0210 43686563 		.string	"CheckEqualsWithStringsWorksOnContentsWithALiteral"
 1644      6B457175 
 1644      616C7357 
 1644      69746853 
 1644      7472696E 
 1645              		.text
 1646              		.align 2
 1648              	_ZN12_GLOBAL__N_153TestCheckEqualsWithStringsWorksOnContentsWithALiteralC2Ev:
 1649              	.LFB1054:
  64:TestChecks.cpp **** 
  65:TestChecks.cpp **** TEST(CheckEqualsWithStringsWorksOnContentsWithALiteral)
 1650              		.loc 5 65 0
 1651              		.cfi_startproc
 1652 07f2 55       		pushq	%rbp
 1653              		.cfi_def_cfa_offset 16
 1654              		.cfi_offset 6, -16
 1655 07f3 4889E5   		movq	%rsp, %rbp
 1656              		.cfi_def_cfa_register 6
 1657 07f6 4883EC10 		subq	$16, %rsp
 1658 07fa 48897DF8 		movq	%rdi, -8(%rbp)
 1659              	.LBB27:
 1660              		.loc 5 65 0
 1661 07fe E8000000 		call	_ZN13UnitTestSuite12GetSuiteNameEv
 1661      00
 1662 0803 4889C2   		movq	%rax, %rdx
 1663 0806 488B45F8 		movq	-8(%rbp), %rax
 1664 080a 41B84100 		movl	$65, %r8d
 1664      0000
 1665 0810 B9000000 		movl	$.LC2, %ecx
 1665      00
 1666 0815 BE000000 		movl	$.LC13, %esi
 1666      00
 1667 081a 4889C7   		movq	%rax, %rdi
 1668 081d E8000000 		call	_ZN8UnitTest4TestC2EPKcS2_S2_i
 1668      00
 1669 0822 488B45F8 		movq	-8(%rbp), %rax
 1670 0826 48C70000 		movq	$_ZTVN12_GLOBAL__N_153TestCheckEqualsWithStringsWorksOnContentsWithALiteralE+16, (%rax)
 1670      000000
 1671              	.LBE27:
 1672 082d C9       		leave
 1673              		.cfi_def_cfa 7, 8
 1674 082e C3       		ret
 1675              		.cfi_endproc
 1676              	.LFE1054:
 1678              		.set	_ZN12_GLOBAL__N_153TestCheckEqualsWithStringsWorksOnContentsWithALiteralC1Ev,_ZN12_GLOBAL__N_
 1679              		.local	_ZN12_GLOBAL__N_161testCheckEqualsWithStringsWorksOnContentsWithALiteralInstanceE
 1680              		.comm	_ZN12_GLOBAL__N_161testCheckEqualsWithStringsWorksOnContentsWithALiteralInstanceE,56,32
 1681              		.local	_ZN12_GLOBAL__N_154adderCheckEqualsWithStringsWorksOnContentsWithALiteralE
 1682              		.comm	_ZN12_GLOBAL__N_154adderCheckEqualsWithStringsWorksOnContentsWithALiteralE,1,1
 1683              		.section	.rodata
 1684              	.LC14:
 1685 0242 48656C6C 		.string	"Hello"
 1685      6F00
 1686              		.text
 1687 082f 90       		.align 2
 1689              	_ZNK12_GLOBAL__N_153TestCheckEqualsWithStringsWorksOnContentsWithALiteral7RunImplEv:
 1690              	.LFB1056:
  66:TestChecks.cpp **** {
 1691              		.loc 5 66 0
 1692              		.cfi_startproc
 1693              		.cfi_personality 0x3,__gxx_personality_v0
 1694              		.cfi_lsda 0x3,.LLSDA1056
 1695 0830 55       		pushq	%rbp
 1696              		.cfi_def_cfa_offset 16
 1697              		.cfi_offset 6, -16
 1698 0831 4889E5   		movq	%rsp, %rbp
 1699              		.cfi_def_cfa_register 6
 1700 0834 53       		pushq	%rbx
 1701 0835 4883EC68 		subq	$104, %rsp
 1702              		.cfi_offset 3, -24
 1703 0839 48897D98 		movq	%rdi, -104(%rbp)
 1704              	.LBB28:
  67:TestChecks.cpp ****     char const* const p1 = txt1;
 1705              		.loc 5 67 0
 1706 083d 48C745A8 		movq	$_ZN12_GLOBAL__N_14txt1E, -88(%rbp)
 1706      00000000 
  68:TestChecks.cpp ****     TestResults results;
 1707              		.loc 5 68 0
 1708 0845 488D45B0 		leaq	-80(%rbp), %rax
 1709 0849 BE000000 		movl	$0, %esi
 1709      00
 1710 084e 4889C7   		movq	%rax, %rdi
 1711              	.LEHB34:
 1712 0851 E8000000 		call	_ZN8UnitTest11TestResultsC1EPNS_12TestReporterE
 1712      00
  69:TestChecks.cpp ****     CheckEqual(results, "Hello", p1, TestDetails("", "", "", 0));
 1713              		.loc 5 69 0
 1714 0856 488D45D0 		leaq	-48(%rbp), %rax
 1715 085a 41B80000 		movl	$0, %r8d
 1715      0000
 1716 0860 B9000000 		movl	$.LC6, %ecx
 1716      00
 1717 0865 BA000000 		movl	$.LC6, %edx
 1717      00
 1718 086a BE000000 		movl	$.LC6, %esi
 1718      00
 1719 086f 4889C7   		movq	%rax, %rdi
 1720 0872 E8000000 		call	_ZN8UnitTest11TestDetailsC1EPKcS2_S2_i
 1720      00
 1721 0877 488D55D0 		leaq	-48(%rbp), %rdx
 1722 087b 488D45B0 		leaq	-80(%rbp), %rax
 1723 087f 4889D1   		movq	%rdx, %rcx
 1724 0882 BA000000 		movl	$_ZN12_GLOBAL__N_14txt1E, %edx
 1724      00
 1725 0887 BE000000 		movl	$.LC14, %esi
 1725      00
 1726 088c 4889C7   		movq	%rax, %rdi
 1727 088f E8000000 		call	_ZN8UnitTest10CheckEqualERNS_11TestResultsEPKcS3_RKNS_11TestDetailsE
 1727      00
 1728              	.LEHE34:
 1729              	.LEHB35:
  70:TestChecks.cpp ****     CHECK_EQUAL(0, results.GetFailureCount());
 1730              		.loc 5 70 0
 1731 0894 E8000000 		call	_ZN8UnitTest11CurrentTest7DetailsEv
 1731      00
 1732 0899 488B08   		movq	(%rax), %rcx
 1733 089c 488D45D0 		leaq	-48(%rbp), %rax
 1734 08a0 BA460000 		movl	$70, %edx
 1734      00
 1735 08a5 4889CE   		movq	%rcx, %rsi
 1736 08a8 4889C7   		movq	%rax, %rdi
 1737 08ab E8000000 		call	_ZN8UnitTest11TestDetailsC1ERKS0_i
 1737      00
 1738              		.loc 5 70 0 is_stmt 0 discriminator 1
 1739 08b0 488D45B0 		leaq	-80(%rbp), %rax
 1740 08b4 4889C7   		movq	%rax, %rdi
 1741 08b7 E8000000 		call	_ZNK8UnitTest11TestResults15GetFailureCountEv
 1741      00
 1742 08bc 8945A4   		movl	%eax, -92(%rbp)
 1743 08bf C745A000 		movl	$0, -96(%rbp)
 1743      000000
 1744 08c6 E8000000 		call	_ZN8UnitTest11CurrentTest7ResultsEv
 1744      00
 1745 08cb 488B00   		movq	(%rax), %rax
 1746 08ce 488D4DD0 		leaq	-48(%rbp), %rcx
 1747 08d2 488D55A4 		leaq	-92(%rbp), %rdx
 1748 08d6 488D75A0 		leaq	-96(%rbp), %rsi
 1749 08da 4889C7   		movq	%rax, %rdi
 1750 08dd E8000000 		call	_ZN8UnitTest10CheckEqualIiiEEvRNS_11TestResultsERKT_RKT0_RKNS_11TestDetailsE
 1750      00
 1751              	.LEHE35:
 1752              	.LBE28:
  71:TestChecks.cpp **** }
 1753              		.loc 5 71 0 is_stmt 1
 1754 08e2 EB58     		jmp	.L71
 1755              	.L70:
 1756 08e4 4889C3   		movq	%rax, %rbx
 1757              	.LBB29:
  70:TestChecks.cpp ****     CHECK_EQUAL(0, results.GetFailureCount());
 1758              		.loc 5 70 0
 1759 08e7 E8000000 		call	__cxa_end_catch
 1759      00
 1760 08ec 4889D8   		movq	%rbx, %rax
 1761 08ef 4889C7   		movq	%rax, %rdi
 1762              	.LEHB36:
 1763 08f2 E8000000 		call	_Unwind_Resume
 1763      00
 1764              	.LEHE36:
 1765              	.L69:
 1766 08f7 4889C7   		movq	%rax, %rdi
 1767 08fa E8000000 		call	__cxa_begin_catch
 1767      00
 1768              	.LEHB37:
 1769 08ff E8000000 		call	_ZN8UnitTest11CurrentTest7DetailsEv
 1769      00
 1770 0904 488B08   		movq	(%rax), %rcx
 1771 0907 488D45D0 		leaq	-48(%rbp), %rax
 1772 090b BA460000 		movl	$70, %edx
 1772      00
 1773 0910 4889CE   		movq	%rcx, %rsi
 1774 0913 4889C7   		movq	%rax, %rdi
 1775 0916 E8000000 		call	_ZN8UnitTest11TestDetailsC1ERKS0_i
 1775      00
  70:TestChecks.cpp ****     CHECK_EQUAL(0, results.GetFailureCount());
 1776              		.loc 5 70 0 is_stmt 0 discriminator 1
 1777 091b E8000000 		call	_ZN8UnitTest11CurrentTest7ResultsEv
 1777      00
 1778 0920 488B00   		movq	(%rax), %rax
 1779 0923 488D4DD0 		leaq	-48(%rbp), %rcx
 1780 0927 BA000000 		movl	$.LC9, %edx
 1780      00
 1781 092c 4889CE   		movq	%rcx, %rsi
 1782 092f 4889C7   		movq	%rax, %rdi
 1783 0932 E8000000 		call	_ZN8UnitTest11TestResults13OnTestFailureERKNS_11TestDetailsEPKc
 1783      00
 1784              	.LEHE37:
 1785              	.LEHB38:
 1786 0937 E8000000 		call	__cxa_end_catch
 1786      00
 1787              	.LEHE38:
 1788              	.L71:
 1789              	.LBE29:
 1790              		.loc 5 71 0 is_stmt 1
 1791 093c 90       		nop
 1792 093d 4883C468 		addq	$104, %rsp
 1793 0941 5B       		popq	%rbx
 1794 0942 5D       		popq	%rbp
 1795              		.cfi_def_cfa 7, 8
 1796 0943 C3       		ret
 1797              		.cfi_endproc
 1798              	.LFE1056:
 1799              		.section	.gcc_except_table
 1800              		.align 4
 1801              	.LLSDA1056:
 1802 00d8 FF       		.byte	0xff
 1803 00d9 03       		.byte	0x3
 1804 00da 21       		.uleb128 .LLSDATT1056-.LLSDATTD1056
 1805              	.LLSDATTD1056:
 1806 00db 01       		.byte	0x1
 1807 00dc 19       		.uleb128 .LLSDACSE1056-.LLSDACSB1056
 1808              	.LLSDACSB1056:
 1809 00dd 21       		.uleb128 .LEHB34-.LFB1056
 1810 00de 43       		.uleb128 .LEHE34-.LEHB34
 1811 00df 00       		.uleb128 0
 1812 00e0 00       		.uleb128 0
 1813 00e1 64       		.uleb128 .LEHB35-.LFB1056
 1814 00e2 4E       		.uleb128 .LEHE35-.LEHB35
 1815 00e3 C701     		.uleb128 .L69-.LFB1056
 1816 00e5 01       		.uleb128 0x1
 1817 00e6 C201     		.uleb128 .LEHB36-.LFB1056
 1818 00e8 05       		.uleb128 .LEHE36-.LEHB36
 1819 00e9 00       		.uleb128 0
 1820 00ea 00       		.uleb128 0
 1821 00eb CF01     		.uleb128 .LEHB37-.LFB1056
 1822 00ed 38       		.uleb128 .LEHE37-.LEHB37
 1823 00ee B401     		.uleb128 .L70-.LFB1056
 1824 00f0 00       		.uleb128 0
 1825 00f1 8702     		.uleb128 .LEHB38-.LFB1056
 1826 00f3 05       		.uleb128 .LEHE38-.LEHB38
 1827 00f4 00       		.uleb128 0
 1828 00f5 00       		.uleb128 0
 1829              	.LLSDACSE1056:
 1830 00f6 01       		.byte	0x1
 1831 00f7 00       		.byte	0
 1832              		.align 4
 1833 00f8 00000000 		.long	0
 1834              	
 1835              	.LLSDATT1056:
 1836              		.text
 1838              		.section	.rodata
 1839              		.align 8
 1840              	.LC15:
 1841 0248 43686563 		.string	"CheckEqualFailureIncludesCheckExpectedAndActual"
 1841      6B457175 
 1841      616C4661 
 1841      696C7572 
 1841      65496E63 
 1842              		.text
 1843              		.align 2
 1845              	_ZN12_GLOBAL__N_151TestCheckEqualFailureIncludesCheckExpectedAndActualC2Ev:
 1846              	.LFB1058:
  72:TestChecks.cpp **** 
  73:TestChecks.cpp **** TEST(CheckEqualFailureIncludesCheckExpectedAndActual)
 1847              		.loc 5 73 0
 1848              		.cfi_startproc
 1849 0944 55       		pushq	%rbp
 1850              		.cfi_def_cfa_offset 16
 1851              		.cfi_offset 6, -16
 1852 0945 4889E5   		movq	%rsp, %rbp
 1853              		.cfi_def_cfa_register 6
 1854 0948 4883EC10 		subq	$16, %rsp
 1855 094c 48897DF8 		movq	%rdi, -8(%rbp)
 1856              	.LBB30:
 1857              		.loc 5 73 0
 1858 0950 E8000000 		call	_ZN13UnitTestSuite12GetSuiteNameEv
 1858      00
 1859 0955 4889C2   		movq	%rax, %rdx
 1860 0958 488B45F8 		movq	-8(%rbp), %rax
 1861 095c 41B84900 		movl	$73, %r8d
 1861      0000
 1862 0962 B9000000 		movl	$.LC2, %ecx
 1862      00
 1863 0967 BE000000 		movl	$.LC15, %esi
 1863      00
 1864 096c 4889C7   		movq	%rax, %rdi
 1865 096f E8000000 		call	_ZN8UnitTest4TestC2EPKcS2_S2_i
 1865      00
 1866 0974 488B45F8 		movq	-8(%rbp), %rax
 1867 0978 48C70000 		movq	$_ZTVN12_GLOBAL__N_151TestCheckEqualFailureIncludesCheckExpectedAndActualE+16, (%rax)
 1867      000000
 1868              	.LBE30:
 1869 097f C9       		leave
 1870              		.cfi_def_cfa 7, 8
 1871 0980 C3       		ret
 1872              		.cfi_endproc
 1873              	.LFE1058:
 1875              		.set	_ZN12_GLOBAL__N_151TestCheckEqualFailureIncludesCheckExpectedAndActualC1Ev,_ZN12_GLOBAL__N_15
 1876              		.local	_ZN12_GLOBAL__N_159testCheckEqualFailureIncludesCheckExpectedAndActualInstanceE
 1877              		.comm	_ZN12_GLOBAL__N_159testCheckEqualFailureIncludesCheckExpectedAndActualInstanceE,56,32
 1878              		.local	_ZN12_GLOBAL__N_152adderCheckEqualFailureIncludesCheckExpectedAndActualE
 1879              		.comm	_ZN12_GLOBAL__N_152adderCheckEqualFailureIncludesCheckExpectedAndActualE,1,1
 1880              		.section	.rodata
 1881              	.LC16:
 1882 0278 78706563 		.string	"xpected 1"
 1882      74656420 
 1882      3100
 1883 0282 00000000 		.align 8
 1883      0000
 1884              	.LC17:
 1885 0288 73747273 		.string	"strstr(reporter.lastFailedMessage, \"xpected 1\")"
 1885      74722872 
 1885      65706F72 
 1885      7465722E 
 1885      6C617374 
 1886              	.LC18:
 1887 02b8 77617320 		.string	"was 2"
 1887      3200
 1888 02be 0000     		.align 8
 1889              	.LC19:
 1890 02c0 73747273 		.string	"strstr(reporter.lastFailedMessage, \"was 2\")"
 1890      74722872 
 1890      65706F72 
 1890      7465722E 
 1890      6C617374 
 1891 02ec 00000000 		.align 8
 1892              	.LC20:
 1893 02f0 556E6861 		.string	"Unhandled exception in CHECK(strstr(reporter.lastFailedMessage, \"xpected 1\"))"
 1893      6E646C65 
 1893      64206578 
 1893      63657074 
 1893      696F6E20 
 1894 033e 0000     		.align 8
 1895              	.LC21:
 1896 0340 556E6861 		.string	"Unhandled exception in CHECK(strstr(reporter.lastFailedMessage, \"was 2\"))"
 1896      6E646C65 
 1896      64206578 
 1896      63657074 
 1896      696F6E20 
 1897              		.text
 1898 0981 90       		.align 2
 1900              	_ZNK12_GLOBAL__N_151TestCheckEqualFailureIncludesCheckExpectedAndActual7RunImplEv:
 1901              	.LFB1060:
  74:TestChecks.cpp **** {
 1902              		.loc 5 74 0
 1903              		.cfi_startproc
 1904              		.cfi_personality 0x3,__gxx_personality_v0
 1905              		.cfi_lsda 0x3,.LLSDA1060
 1906 0982 55       		pushq	%rbp
 1907              		.cfi_def_cfa_offset 16
 1908              		.cfi_offset 6, -16
 1909 0983 4889E5   		movq	%rsp, %rbp
 1910              		.cfi_def_cfa_register 6
 1911 0986 53       		pushq	%rbx
 1912 0987 4881ECA8 		subq	$2216, %rsp
 1912      080000
 1913              		.cfi_offset 3, -24
 1914 098e 4889BD58 		movq	%rdi, -2216(%rbp)
 1914      F7FFFF
 1915              		.loc 5 74 0
 1916 0995 64488B04 		movq	%fs:40, %rax
 1916      25280000 
 1916      00
 1917 099e 488945E8 		movq	%rax, -24(%rbp)
 1918 09a2 31C0     		xorl	%eax, %eax
 1919              	.LBB31:
  75:TestChecks.cpp ****     RecordingReporter reporter;
 1920              		.loc 5 75 0
 1921 09a4 488D85B0 		leaq	-2128(%rbp), %rax
 1921      F7FFFF
 1922 09ab 4889C7   		movq	%rax, %rdi
 1923 09ae E8000000 		call	_ZN17RecordingReporterC1Ev
 1923      00
  76:TestChecks.cpp ****     TestResults results(&reporter);
 1924              		.loc 5 76 0
 1925 09b3 488D95B0 		leaq	-2128(%rbp), %rdx
 1925      F7FFFF
 1926 09ba 488D8570 		leaq	-2192(%rbp), %rax
 1926      F7FFFF
 1927 09c1 4889D6   		movq	%rdx, %rsi
 1928 09c4 4889C7   		movq	%rax, %rdi
 1929              	.LEHB39:
 1930 09c7 E8000000 		call	_ZN8UnitTest11TestResultsC1EPNS_12TestReporterE
 1930      00
  77:TestChecks.cpp ****     const int something = 2;
 1931              		.loc 5 77 0
 1932 09cc C78568F7 		movl	$2, -2200(%rbp)
 1932      FFFF0200 
 1932      0000
  78:TestChecks.cpp ****     CheckEqual(results, 1, something, TestDetails("", "", "", 0));
 1933              		.loc 5 78 0
 1934 09d6 488D8590 		leaq	-2160(%rbp), %rax
 1934      F7FFFF
 1935 09dd 41B80000 		movl	$0, %r8d
 1935      0000
 1936 09e3 B9000000 		movl	$.LC6, %ecx
 1936      00
 1937 09e8 BA000000 		movl	$.LC6, %edx
 1937      00
 1938 09ed BE000000 		movl	$.LC6, %esi
 1938      00
 1939 09f2 4889C7   		movq	%rax, %rdi
 1940 09f5 E8000000 		call	_ZN8UnitTest11TestDetailsC1EPKcS2_S2_i
 1940      00
 1941              		.loc 5 78 0 is_stmt 0 discriminator 1
 1942 09fa C7856CF7 		movl	$1, -2196(%rbp)
 1942      FFFF0100 
 1942      0000
 1943 0a04 488D8D90 		leaq	-2160(%rbp), %rcx
 1943      F7FFFF
 1944 0a0b 488D9568 		leaq	-2200(%rbp), %rdx
 1944      F7FFFF
 1945 0a12 488DB56C 		leaq	-2196(%rbp), %rsi
 1945      F7FFFF
 1946 0a19 488D8570 		leaq	-2192(%rbp), %rax
 1946      F7FFFF
 1947 0a20 4889C7   		movq	%rax, %rdi
 1948 0a23 E8000000 		call	_ZN8UnitTest10CheckEqualIiiEEvRNS_11TestResultsERKT_RKT0_RKNS_11TestDetailsE
 1948      00
 1949              	.LEHE39:
  79:TestChecks.cpp **** 
  80:TestChecks.cpp **** 	using namespace std;
  81:TestChecks.cpp ****     CHECK(strstr(reporter.lastFailedMessage, "xpected 1"));
 1950              		.loc 5 81 0 is_stmt 1 discriminator 1
 1951 0a28 488D85B0 		leaq	-2128(%rbp), %rax
 1951      F7FFFF
 1952 0a2f 48051405 		addq	$1300, %rax
 1952      0000
 1953 0a35 BE000000 		movl	$.LC16, %esi
 1953      00
 1954 0a3a 4889C7   		movq	%rax, %rdi
 1955 0a3d E8000000 		call	strstr
 1955      00
 1956 0a42 4889C7   		movq	%rax, %rdi
 1957 0a45 E8000000 		call	_ZN8UnitTest5CheckIPcEEbT_
 1957      00
 1958 0a4a 83F001   		xorl	$1, %eax
 1959 0a4d 84C0     		testb	%al, %al
 1960 0a4f 743E     		je	.L74
 1961              	.LEHB40:
 1962 0a51 E8000000 		call	_ZN8UnitTest11CurrentTest7DetailsEv
 1962      00
 1963 0a56 488B08   		movq	(%rax), %rcx
 1964 0a59 488D8590 		leaq	-2160(%rbp), %rax
 1964      F7FFFF
 1965 0a60 BA510000 		movl	$81, %edx
 1965      00
 1966 0a65 4889CE   		movq	%rcx, %rsi
 1967 0a68 4889C7   		movq	%rax, %rdi
 1968 0a6b E8000000 		call	_ZN8UnitTest11TestDetailsC1ERKS0_i
 1968      00
 1969 0a70 E8000000 		call	_ZN8UnitTest11CurrentTest7ResultsEv
 1969      00
 1970 0a75 488B00   		movq	(%rax), %rax
 1971 0a78 488D8D90 		leaq	-2160(%rbp), %rcx
 1971      F7FFFF
 1972 0a7f BA000000 		movl	$.LC17, %edx
 1972      00
 1973 0a84 4889CE   		movq	%rcx, %rsi
 1974 0a87 4889C7   		movq	%rax, %rdi
 1975 0a8a E8000000 		call	_ZN8UnitTest11TestResults13OnTestFailureERKNS_11TestDetailsEPKc
 1975      00
 1976              	.LEHE40:
 1977              	.L74:
  82:TestChecks.cpp ****     CHECK(strstr(reporter.lastFailedMessage, "was 2"));
 1978              		.loc 5 82 0
 1979 0a8f 488D85B0 		leaq	-2128(%rbp), %rax
 1979      F7FFFF
 1980 0a96 48051405 		addq	$1300, %rax
 1980      0000
 1981 0a9c BE000000 		movl	$.LC18, %esi
 1981      00
 1982 0aa1 4889C7   		movq	%rax, %rdi
 1983 0aa4 E8000000 		call	strstr
 1983      00
 1984 0aa9 4889C7   		movq	%rax, %rdi
 1985 0aac E8000000 		call	_ZN8UnitTest5CheckIPcEEbT_
 1985      00
 1986 0ab1 83F001   		xorl	$1, %eax
 1987 0ab4 84C0     		testb	%al, %al
 1988 0ab6 743E     		je	.L75
 1989              	.LEHB41:
 1990              		.loc 5 82 0 is_stmt 0 discriminator 1
 1991 0ab8 E8000000 		call	_ZN8UnitTest11CurrentTest7DetailsEv
 1991      00
 1992 0abd 488B08   		movq	(%rax), %rcx
 1993 0ac0 488D8590 		leaq	-2160(%rbp), %rax
 1993      F7FFFF
 1994 0ac7 BA520000 		movl	$82, %edx
 1994      00
 1995 0acc 4889CE   		movq	%rcx, %rsi
 1996 0acf 4889C7   		movq	%rax, %rdi
 1997 0ad2 E8000000 		call	_ZN8UnitTest11TestDetailsC1ERKS0_i
 1997      00
 1998 0ad7 E8000000 		call	_ZN8UnitTest11CurrentTest7ResultsEv
 1998      00
 1999 0adc 488B00   		movq	(%rax), %rax
 2000 0adf 488D8D90 		leaq	-2160(%rbp), %rcx
 2000      F7FFFF
 2001 0ae6 BA000000 		movl	$.LC19, %edx
 2001      00
 2002 0aeb 4889CE   		movq	%rcx, %rsi
 2003 0aee 4889C7   		movq	%rax, %rdi
 2004 0af1 E8000000 		call	_ZN8UnitTest11TestResults13OnTestFailureERKNS_11TestDetailsEPKc
 2004      00
 2005              	.LEHE41:
 2006              	.L75:
 2007              		.loc 5 82 0 discriminator 2
 2008 0af6 488D85B0 		leaq	-2128(%rbp), %rax
 2008      F7FFFF
 2009 0afd 4889C7   		movq	%rax, %rdi
 2010              	.LEHB42:
 2011 0b00 E8000000 		call	_ZN17RecordingReporterD1Ev
 2011      00
 2012              	.LEHE42:
 2013              	.LBE31:
  83:TestChecks.cpp **** }
 2014              		.loc 5 83 0 is_stmt 1 discriminator 2
 2015 0b05 488B45E8 		movq	-24(%rbp), %rax
 2016 0b09 64483304 		xorq	%fs:40, %rax
 2016      25280000 
 2016      00
 2017 0b12 0F84DE00 		je	.L81
 2017      0000
 2018 0b18 E9D40000 		jmp	.L87
 2018      00
 2019              	.L84:
 2020 0b1d 4889C3   		movq	%rax, %rbx
 2021              	.LBB32:
  81:TestChecks.cpp ****     CHECK(strstr(reporter.lastFailedMessage, "was 2"));
 2022              		.loc 5 81 0
 2023 0b20 E8000000 		call	__cxa_end_catch
 2023      00
 2024 0b25 E9AD0000 		jmp	.L77
 2024      00
 2025              	.L83:
 2026 0b2a 4889C7   		movq	%rax, %rdi
 2027 0b2d E8000000 		call	__cxa_begin_catch
 2027      00
 2028              	.LEHB43:
 2029 0b32 E8000000 		call	_ZN8UnitTest11CurrentTest7DetailsEv
 2029      00
 2030 0b37 488B08   		movq	(%rax), %rcx
 2031 0b3a 488D8590 		leaq	-2160(%rbp), %rax
 2031      F7FFFF
 2032 0b41 BA510000 		movl	$81, %edx
 2032      00
 2033 0b46 4889CE   		movq	%rcx, %rsi
 2034 0b49 4889C7   		movq	%rax, %rdi
 2035 0b4c E8000000 		call	_ZN8UnitTest11TestDetailsC1ERKS0_i
 2035      00
  81:TestChecks.cpp ****     CHECK(strstr(reporter.lastFailedMessage, "was 2"));
 2036              		.loc 5 81 0 is_stmt 0 discriminator 1
 2037 0b51 E8000000 		call	_ZN8UnitTest11CurrentTest7ResultsEv
 2037      00
 2038 0b56 488B00   		movq	(%rax), %rax
 2039 0b59 488D8D90 		leaq	-2160(%rbp), %rcx
 2039      F7FFFF
 2040 0b60 BA000000 		movl	$.LC20, %edx
 2040      00
 2041 0b65 4889CE   		movq	%rcx, %rsi
 2042 0b68 4889C7   		movq	%rax, %rdi
 2043 0b6b E8000000 		call	_ZN8UnitTest11TestResults13OnTestFailureERKNS_11TestDetailsEPKc
 2043      00
 2044              	.LEHE43:
 2045              	.LEHB44:
 2046 0b70 E8000000 		call	__cxa_end_catch
 2046      00
 2047              	.LEHE44:
  81:TestChecks.cpp ****     CHECK(strstr(reporter.lastFailedMessage, "was 2"));
 2048              		.loc 5 81 0
 2049 0b75 E915FFFF 		jmp	.L74
 2049      FF
 2050              	.L86:
 2051 0b7a 4889C3   		movq	%rax, %rbx
  82:TestChecks.cpp ****     CHECK(strstr(reporter.lastFailedMessage, "was 2"));
 2052              		.loc 5 82 0 is_stmt 1
 2053 0b7d E8000000 		call	__cxa_end_catch
 2053      00
 2054 0b82 EB53     		jmp	.L77
 2055              	.L85:
 2056 0b84 4889C7   		movq	%rax, %rdi
 2057 0b87 E8000000 		call	__cxa_begin_catch
 2057      00
 2058              	.LEHB45:
 2059 0b8c E8000000 		call	_ZN8UnitTest11CurrentTest7DetailsEv
 2059      00
 2060 0b91 488B08   		movq	(%rax), %rcx
 2061 0b94 488D8590 		leaq	-2160(%rbp), %rax
 2061      F7FFFF
 2062 0b9b BA520000 		movl	$82, %edx
 2062      00
 2063 0ba0 4889CE   		movq	%rcx, %rsi
 2064 0ba3 4889C7   		movq	%rax, %rdi
 2065 0ba6 E8000000 		call	_ZN8UnitTest11TestDetailsC1ERKS0_i
 2065      00
  82:TestChecks.cpp ****     CHECK(strstr(reporter.lastFailedMessage, "was 2"));
 2066              		.loc 5 82 0 is_stmt 0 discriminator 1
 2067 0bab E8000000 		call	_ZN8UnitTest11CurrentTest7ResultsEv
 2067      00
 2068 0bb0 488B00   		movq	(%rax), %rax
 2069 0bb3 488D8D90 		leaq	-2160(%rbp), %rcx
 2069      F7FFFF
 2070 0bba BA000000 		movl	$.LC21, %edx
 2070      00
 2071 0bbf 4889CE   		movq	%rcx, %rsi
 2072 0bc2 4889C7   		movq	%rax, %rdi
 2073 0bc5 E8000000 		call	_ZN8UnitTest11TestResults13OnTestFailureERKNS_11TestDetailsEPKc
 2073      00
 2074              	.LEHE45:
 2075              	.LEHB46:
 2076 0bca E8000000 		call	__cxa_end_catch
 2076      00
 2077              	.LEHE46:
  82:TestChecks.cpp ****     CHECK(strstr(reporter.lastFailedMessage, "was 2"));
 2078              		.loc 5 82 0
 2079 0bcf E922FFFF 		jmp	.L75
 2079      FF
 2080              	.L82:
 2081 0bd4 4889C3   		movq	%rax, %rbx
 2082              	.L77:
 2083 0bd7 488D85B0 		leaq	-2128(%rbp), %rax
 2083      F7FFFF
 2084 0bde 4889C7   		movq	%rax, %rdi
 2085 0be1 E8000000 		call	_ZN17RecordingReporterD1Ev
 2085      00
 2086 0be6 4889D8   		movq	%rbx, %rax
 2087 0be9 4889C7   		movq	%rax, %rdi
 2088              	.LEHB47:
 2089 0bec E8000000 		call	_Unwind_Resume
 2089      00
 2090              	.LEHE47:
 2091              	.L87:
 2092              	.LBE32:
 2093              		.loc 5 83 0 is_stmt 1
 2094 0bf1 E8000000 		call	__stack_chk_fail
 2094      00
 2095              	.L81:
 2096 0bf6 4881C4A8 		addq	$2216, %rsp
 2096      080000
 2097 0bfd 5B       		popq	%rbx
 2098 0bfe 5D       		popq	%rbp
 2099              		.cfi_def_cfa 7, 8
 2100 0bff C3       		ret
 2101              		.cfi_endproc
 2102              	.LFE1060:
 2103              		.section	.gcc_except_table
 2104              		.align 4
 2105              	.LLSDA1060:
 2106 00fc FF       		.byte	0xff
 2107 00fd 03       		.byte	0x3
 2108 00fe 3D       		.uleb128 .LLSDATT1060-.LLSDATTD1060
 2109              	.LLSDATTD1060:
 2110 00ff 01       		.byte	0x1
 2111 0100 33       		.uleb128 .LLSDACSE1060-.LLSDACSB1060
 2112              	.LLSDACSB1060:
 2113 0101 45       		.uleb128 .LEHB39-.LFB1060
 2114 0102 61       		.uleb128 .LEHE39-.LEHB39
 2115 0103 D204     		.uleb128 .L82-.LFB1060
 2116 0105 00       		.uleb128 0
 2117 0106 CF01     		.uleb128 .LEHB40-.LFB1060
 2118 0108 3E       		.uleb128 .LEHE40-.LEHB40
 2119 0109 A803     		.uleb128 .L83-.LFB1060
 2120 010b 01       		.uleb128 0x1
 2121 010c B602     		.uleb128 .LEHB41-.LFB1060
 2122 010e 3E       		.uleb128 .LEHE41-.LEHB41
 2123 010f 8204     		.uleb128 .L85-.LFB1060
 2124 0111 01       		.uleb128 0x1
 2125 0112 FE02     		.uleb128 .LEHB42-.LFB1060
 2126 0114 05       		.uleb128 .LEHE42-.LEHB42
 2127 0115 00       		.uleb128 0
 2128 0116 00       		.uleb128 0
 2129 0117 B003     		.uleb128 .LEHB43-.LFB1060
 2130 0119 3E       		.uleb128 .LEHE43-.LEHB43
 2131 011a 9B03     		.uleb128 .L84-.LFB1060
 2132 011c 00       		.uleb128 0
 2133 011d EE03     		.uleb128 .LEHB44-.LFB1060
 2134 011f 05       		.uleb128 .LEHE44-.LEHB44
 2135 0120 D204     		.uleb128 .L82-.LFB1060
 2136 0122 00       		.uleb128 0
 2137 0123 8A04     		.uleb128 .LEHB45-.LFB1060
 2138 0125 3E       		.uleb128 .LEHE45-.LEHB45
 2139 0126 F803     		.uleb128 .L86-.LFB1060
 2140 0128 00       		.uleb128 0
 2141 0129 C804     		.uleb128 .LEHB46-.LFB1060
 2142 012b 05       		.uleb128 .LEHE46-.LEHB46
 2143 012c D204     		.uleb128 .L82-.LFB1060
 2144 012e 00       		.uleb128 0
 2145 012f EA04     		.uleb128 .LEHB47-.LFB1060
 2146 0131 05       		.uleb128 .LEHE47-.LEHB47
 2147 0132 00       		.uleb128 0
 2148 0133 00       		.uleb128 0
 2149              	.LLSDACSE1060:
 2150 0134 01       		.byte	0x1
 2151 0135 00       		.byte	0
 2152 0136 0000     		.align 4
 2153 0138 00000000 		.long	0
 2154              	
 2155              	.LLSDATT1060:
 2156              		.text
 2158              		.section	.rodata
 2159 038a 00000000 		.align 8
 2159      0000
 2160              	.LC22:
 2161 0390 43686563 		.string	"CheckEqualFailureIncludesDetails"
 2161      6B457175 
 2161      616C4661 
 2161      696C7572 
 2161      65496E63 
 2162              		.text
 2163              		.align 2
 2165              	_ZN12_GLOBAL__N_136TestCheckEqualFailureIncludesDetailsC2Ev:
 2166              	.LFB1062:
  84:TestChecks.cpp **** 
  85:TestChecks.cpp **** TEST(CheckEqualFailureIncludesDetails)
 2167              		.loc 5 85 0
 2168              		.cfi_startproc
 2169 0c00 55       		pushq	%rbp
 2170              		.cfi_def_cfa_offset 16
 2171              		.cfi_offset 6, -16
 2172 0c01 4889E5   		movq	%rsp, %rbp
 2173              		.cfi_def_cfa_register 6
 2174 0c04 4883EC10 		subq	$16, %rsp
 2175 0c08 48897DF8 		movq	%rdi, -8(%rbp)
 2176              	.LBB33:
 2177              		.loc 5 85 0
 2178 0c0c E8000000 		call	_ZN13UnitTestSuite12GetSuiteNameEv
 2178      00
 2179 0c11 4889C2   		movq	%rax, %rdx
 2180 0c14 488B45F8 		movq	-8(%rbp), %rax
 2181 0c18 41B85500 		movl	$85, %r8d
 2181      0000
 2182 0c1e B9000000 		movl	$.LC2, %ecx
 2182      00
 2183 0c23 BE000000 		movl	$.LC22, %esi
 2183      00
 2184 0c28 4889C7   		movq	%rax, %rdi
 2185 0c2b E8000000 		call	_ZN8UnitTest4TestC2EPKcS2_S2_i
 2185      00
 2186 0c30 488B45F8 		movq	-8(%rbp), %rax
 2187 0c34 48C70000 		movq	$_ZTVN12_GLOBAL__N_136TestCheckEqualFailureIncludesDetailsE+16, (%rax)
 2187      000000
 2188              	.LBE33:
 2189 0c3b C9       		leave
 2190              		.cfi_def_cfa 7, 8
 2191 0c3c C3       		ret
 2192              		.cfi_endproc
 2193              	.LFE1062:
 2195              		.set	_ZN12_GLOBAL__N_136TestCheckEqualFailureIncludesDetailsC1Ev,_ZN12_GLOBAL__N_136TestCheckEqual
 2196              		.local	_ZN12_GLOBAL__N_144testCheckEqualFailureIncludesDetailsInstanceE
 2197              		.comm	_ZN12_GLOBAL__N_144testCheckEqualFailureIncludesDetailsInstanceE,56,32
 2198              		.local	_ZN12_GLOBAL__N_137adderCheckEqualFailureIncludesDetailsE
 2199              		.comm	_ZN12_GLOBAL__N_137adderCheckEqualFailureIncludesDetailsE,1,1
 2200              		.section	.rodata
 2201              	.LC23:
 2202 03b1 66696C65 		.string	"file.h"
 2202      2E6800
 2203              	.LC24:
 2204 03b8 6D797375 		.string	"mysuite"
 2204      69746500 
 2205              	.LC25:
 2206 03c0 6D797465 		.string	"mytest"
 2206      737400
 2207 03c7 00       		.align 8
 2208              	.LC26:
 2209 03c8 556E6861 		.string	"Unhandled exception in CHECK_EQUAL(\"mytest\", reporter.lastFailedTest)"
 2209      6E646C65 
 2209      64206578 
 2209      63657074 
 2209      696F6E20 
 2210 040e 0000     		.align 8
 2211              	.LC27:
 2212 0410 556E6861 		.string	"Unhandled exception in CHECK_EQUAL(\"mysuite\", reporter.lastFailedSuite)"
 2212      6E646C65 
 2212      64206578 
 2212      63657074 
 2212      696F6E20 
 2213              		.align 8
 2214              	.LC28:
 2215 0458 556E6861 		.string	"Unhandled exception in CHECK_EQUAL(\"file.h\", reporter.lastFailedFile)"
 2215      6E646C65 
 2215      64206578 
 2215      63657074 
 2215      696F6E20 
 2216 049e 0000     		.align 8
 2217              	.LC29:
 2218 04a0 556E6861 		.string	"Unhandled exception in CHECK_EQUAL(101, reporter.lastFailedLine)"
 2218      6E646C65 
 2218      64206578 
 2218      63657074 
 2218      696F6E20 
 2219              		.text
 2220 0c3d 90       		.align 2
 2222              	_ZNK12_GLOBAL__N_136TestCheckEqualFailureIncludesDetails7RunImplEv:
 2223              	.LFB1064:
  86:TestChecks.cpp **** {
 2224              		.loc 5 86 0
 2225              		.cfi_startproc
 2226              		.cfi_personality 0x3,__gxx_personality_v0
 2227              		.cfi_lsda 0x3,.LLSDA1064
 2228 0c3e 55       		pushq	%rbp
 2229              		.cfi_def_cfa_offset 16
 2230              		.cfi_offset 6, -16
 2231 0c3f 4889E5   		movq	%rsp, %rbp
 2232              		.cfi_def_cfa_register 6
 2233 0c42 53       		pushq	%rbx
 2234 0c43 4881ECC8 		subq	$2248, %rsp
 2234      080000
 2235              		.cfi_offset 3, -24
 2236 0c4a 4889BD38 		movq	%rdi, -2248(%rbp)
 2236      F7FFFF
 2237              		.loc 5 86 0
 2238 0c51 64488B04 		movq	%fs:40, %rax
 2238      25280000 
 2238      00
 2239 0c5a 488945E8 		movq	%rax, -24(%rbp)
 2240 0c5e 31C0     		xorl	%eax, %eax
 2241              	.LBB34:
  87:TestChecks.cpp ****     RecordingReporter reporter;
 2242              		.loc 5 87 0
 2243 0c60 488D85B0 		leaq	-2128(%rbp), %rax
 2243      F7FFFF
 2244 0c67 4889C7   		movq	%rax, %rdi
 2245 0c6a E8000000 		call	_ZN17RecordingReporterC1Ev
 2245      00
  88:TestChecks.cpp ****     TestResults results(&reporter);
 2246              		.loc 5 88 0
 2247 0c6f 488D95B0 		leaq	-2128(%rbp), %rdx
 2247      F7FFFF
 2248 0c76 488D8550 		leaq	-2224(%rbp), %rax
 2248      F7FFFF
 2249 0c7d 4889D6   		movq	%rdx, %rsi
 2250 0c80 4889C7   		movq	%rax, %rdi
 2251              	.LEHB48:
 2252 0c83 E8000000 		call	_ZN8UnitTest11TestResultsC1EPNS_12TestReporterE
 2252      00
  89:TestChecks.cpp ****     TestDetails const details("mytest", "mysuite", "file.h", 101);
 2253              		.loc 5 89 0
 2254 0c88 488D8570 		leaq	-2192(%rbp), %rax
 2254      F7FFFF
 2255 0c8f 41B86500 		movl	$101, %r8d
 2255      0000
 2256 0c95 B9000000 		movl	$.LC23, %ecx
 2256      00
 2257 0c9a BA000000 		movl	$.LC24, %edx
 2257      00
 2258 0c9f BE000000 		movl	$.LC25, %esi
 2258      00
 2259 0ca4 4889C7   		movq	%rax, %rdi
 2260 0ca7 E8000000 		call	_ZN8UnitTest11TestDetailsC1EPKcS2_S2_i
 2260      00
  90:TestChecks.cpp **** 
  91:TestChecks.cpp ****     CheckEqual(results, 1, 2, details);
 2261              		.loc 5 91 0
 2262 0cac C78590F7 		movl	$2, -2160(%rbp)
 2262      FFFF0200 
 2262      0000
 2263 0cb6 C7854CF7 		movl	$1, -2228(%rbp)
 2263      FFFF0100 
 2263      0000
 2264 0cc0 488D8D70 		leaq	-2192(%rbp), %rcx
 2264      F7FFFF
 2265 0cc7 488D9590 		leaq	-2160(%rbp), %rdx
 2265      F7FFFF
 2266 0cce 488DB54C 		leaq	-2228(%rbp), %rsi
 2266      F7FFFF
 2267 0cd5 488D8550 		leaq	-2224(%rbp), %rax
 2267      F7FFFF
 2268 0cdc 4889C7   		movq	%rax, %rdi
 2269 0cdf E8000000 		call	_ZN8UnitTest10CheckEqualIiiEEvRNS_11TestResultsERKT_RKT0_RKNS_11TestDetailsE
 2269      00
 2270              	.LEHE48:
 2271              	.LEHB49:
  92:TestChecks.cpp **** 
  93:TestChecks.cpp ****     CHECK_EQUAL("mytest", reporter.lastFailedTest);
 2272              		.loc 5 93 0 discriminator 1
 2273 0ce4 E8000000 		call	_ZN8UnitTest11CurrentTest7DetailsEv
 2273      00
 2274 0ce9 488B08   		movq	(%rax), %rcx
 2275 0cec 488D8590 		leaq	-2160(%rbp), %rax
 2275      F7FFFF
 2276 0cf3 BA5D0000 		movl	$93, %edx
 2276      00
 2277 0cf8 4889CE   		movq	%rcx, %rsi
 2278 0cfb 4889C7   		movq	%rax, %rdi
 2279 0cfe E8000000 		call	_ZN8UnitTest11TestDetailsC1ERKS0_i
 2279      00
 2280 0d03 E8000000 		call	_ZN8UnitTest11CurrentTest7ResultsEv
 2280      00
 2281 0d08 488B00   		movq	(%rax), %rax
 2282 0d0b 488D9590 		leaq	-2160(%rbp), %rdx
 2282      F7FFFF
 2283 0d12 488D8DB0 		leaq	-2128(%rbp), %rcx
 2283      F7FFFF
 2284 0d19 488DB114 		leaq	1044(%rcx), %rsi
 2284      040000
 2285 0d20 4889D1   		movq	%rdx, %rcx
 2286 0d23 4889F2   		movq	%rsi, %rdx
 2287 0d26 BE000000 		movl	$.LC25, %esi
 2287      00
 2288 0d2b 4889C7   		movq	%rax, %rdi
 2289 0d2e E8000000 		call	_ZN8UnitTest10CheckEqualERNS_11TestResultsEPKcPcRKNS_11TestDetailsE
 2289      00
 2290              	.LEHE49:
 2291              	.L93:
 2292              	.LEHB50:
  94:TestChecks.cpp ****     CHECK_EQUAL("mysuite", reporter.lastFailedSuite);
 2293              		.loc 5 94 0
 2294 0d33 E8000000 		call	_ZN8UnitTest11CurrentTest7DetailsEv
 2294      00
 2295 0d38 488B08   		movq	(%rax), %rcx
 2296 0d3b 488D8590 		leaq	-2160(%rbp), %rax
 2296      F7FFFF
 2297 0d42 BA5E0000 		movl	$94, %edx
 2297      00
 2298 0d47 4889CE   		movq	%rcx, %rsi
 2299 0d4a 4889C7   		movq	%rax, %rdi
 2300 0d4d E8000000 		call	_ZN8UnitTest11TestDetailsC1ERKS0_i
 2300      00
 2301              		.loc 5 94 0 is_stmt 0 discriminator 1
 2302 0d52 E8000000 		call	_ZN8UnitTest11CurrentTest7ResultsEv
 2302      00
 2303 0d57 488B00   		movq	(%rax), %rax
 2304 0d5a 488D9590 		leaq	-2160(%rbp), %rdx
 2304      F7FFFF
 2305 0d61 488D8DB0 		leaq	-2128(%rbp), %rcx
 2305      F7FFFF
 2306 0d68 488DB114 		leaq	788(%rcx), %rsi
 2306      030000
 2307 0d6f 4889D1   		movq	%rdx, %rcx
 2308 0d72 4889F2   		movq	%rsi, %rdx
 2309 0d75 BE000000 		movl	$.LC24, %esi
 2309      00
 2310 0d7a 4889C7   		movq	%rax, %rdi
 2311 0d7d E8000000 		call	_ZN8UnitTest10CheckEqualERNS_11TestResultsEPKcPcRKNS_11TestDetailsE
 2311      00
 2312              	.LEHE50:
 2313              	.L96:
 2314              	.LEHB51:
  95:TestChecks.cpp ****     CHECK_EQUAL("file.h", reporter.lastFailedFile);
 2315              		.loc 5 95 0 is_stmt 1
 2316 0d82 E8000000 		call	_ZN8UnitTest11CurrentTest7DetailsEv
 2316      00
 2317 0d87 488B08   		movq	(%rax), %rcx
 2318 0d8a 488D8590 		leaq	-2160(%rbp), %rax
 2318      F7FFFF
 2319 0d91 BA5F0000 		movl	$95, %edx
 2319      00
 2320 0d96 4889CE   		movq	%rcx, %rsi
 2321 0d99 4889C7   		movq	%rax, %rdi
 2322 0d9c E8000000 		call	_ZN8UnitTest11TestDetailsC1ERKS0_i
 2322      00
 2323              		.loc 5 95 0 is_stmt 0 discriminator 1
 2324 0da1 E8000000 		call	_ZN8UnitTest11CurrentTest7ResultsEv
 2324      00
 2325 0da6 488B00   		movq	(%rax), %rax
 2326 0da9 488D9590 		leaq	-2160(%rbp), %rdx
 2326      F7FFFF
 2327 0db0 488D8DB0 		leaq	-2128(%rbp), %rcx
 2327      F7FFFF
 2328 0db7 488DB110 		leaq	528(%rcx), %rsi
 2328      020000
 2329 0dbe 4889D1   		movq	%rdx, %rcx
 2330 0dc1 4889F2   		movq	%rsi, %rdx
 2331 0dc4 BE000000 		movl	$.LC23, %esi
 2331      00
 2332 0dc9 4889C7   		movq	%rax, %rdi
 2333 0dcc E8000000 		call	_ZN8UnitTest10CheckEqualERNS_11TestResultsEPKcPcRKNS_11TestDetailsE
 2333      00
 2334              	.LEHE51:
 2335              	.L99:
 2336              	.LEHB52:
  96:TestChecks.cpp ****     CHECK_EQUAL(101, reporter.lastFailedLine);
 2337              		.loc 5 96 0 is_stmt 1
 2338 0dd1 E8000000 		call	_ZN8UnitTest11CurrentTest7DetailsEv
 2338      00
 2339 0dd6 488B08   		movq	(%rax), %rcx
 2340 0dd9 488D8590 		leaq	-2160(%rbp), %rax
 2340      F7FFFF
 2341 0de0 BA600000 		movl	$96, %edx
 2341      00
 2342 0de5 4889CE   		movq	%rcx, %rsi
 2343 0de8 4889C7   		movq	%rax, %rdi
 2344 0deb E8000000 		call	_ZN8UnitTest11TestDetailsC1ERKS0_i
 2344      00
 2345              		.loc 5 96 0 is_stmt 0 discriminator 1
 2346 0df0 C7854CF7 		movl	$101, -2228(%rbp)
 2346      FFFF6500 
 2346      0000
 2347 0dfa E8000000 		call	_ZN8UnitTest11CurrentTest7ResultsEv
 2347      00
 2348 0dff 488B00   		movq	(%rax), %rax
 2349 0e02 488D9590 		leaq	-2160(%rbp), %rdx
 2349      F7FFFF
 2350 0e09 488D8DB0 		leaq	-2128(%rbp), %rcx
 2350      F7FFFF
 2351 0e10 488DB910 		leaq	784(%rcx), %rdi
 2351      030000
 2352 0e17 488DB54C 		leaq	-2228(%rbp), %rsi
 2352      F7FFFF
 2353 0e1e 4889D1   		movq	%rdx, %rcx
 2354 0e21 4889FA   		movq	%rdi, %rdx
 2355 0e24 4889C7   		movq	%rax, %rdi
 2356 0e27 E8000000 		call	_ZN8UnitTest10CheckEqualIiiEEvRNS_11TestResultsERKT_RKT0_RKNS_11TestDetailsE
 2356      00
 2357              	.LEHE52:
 2358              	.L102:
 2359              		.loc 5 96 0 discriminator 2
 2360 0e2c 488D85B0 		leaq	-2128(%rbp), %rax
 2360      F7FFFF
 2361 0e33 4889C7   		movq	%rax, %rdi
 2362              	.LEHB53:
 2363 0e36 E8000000 		call	_ZN17RecordingReporterD1Ev
 2363      00
 2364              	.LEHE53:
 2365              	.LBE34:
  97:TestChecks.cpp **** }
 2366              		.loc 5 97 0 is_stmt 1 discriminator 2
 2367 0e3b 488B45E8 		movq	-24(%rbp), %rax
 2368 0e3f 64483304 		xorq	%fs:40, %rax
 2368      25280000 
 2368      00
 2369 0e48 0F849801 		je	.L103
 2369      0000
 2370 0e4e E98E0100 		jmp	.L113
 2370      00
 2371              	.L106:
 2372 0e53 4889C3   		movq	%rax, %rbx
 2373              	.LBB35:
  93:TestChecks.cpp ****     CHECK_EQUAL("mysuite", reporter.lastFailedSuite);
 2374              		.loc 5 93 0
 2375 0e56 E8000000 		call	__cxa_end_catch
 2375      00
 2376 0e5b E9670100 		jmp	.L91
 2376      00
 2377              	.L105:
 2378 0e60 4889C7   		movq	%rax, %rdi
 2379 0e63 E8000000 		call	__cxa_begin_catch
 2379      00
 2380              	.LEHB54:
 2381 0e68 E8000000 		call	_ZN8UnitTest11CurrentTest7DetailsEv
 2381      00
 2382 0e6d 488B08   		movq	(%rax), %rcx
 2383 0e70 488D8590 		leaq	-2160(%rbp), %rax
 2383      F7FFFF
 2384 0e77 BA5D0000 		movl	$93, %edx
 2384      00
 2385 0e7c 4889CE   		movq	%rcx, %rsi
 2386 0e7f 4889C7   		movq	%rax, %rdi
 2387 0e82 E8000000 		call	_ZN8UnitTest11TestDetailsC1ERKS0_i
 2387      00
  93:TestChecks.cpp ****     CHECK_EQUAL("mysuite", reporter.lastFailedSuite);
 2388              		.loc 5 93 0 is_stmt 0 discriminator 1
 2389 0e87 E8000000 		call	_ZN8UnitTest11CurrentTest7ResultsEv
 2389      00
 2390 0e8c 488B00   		movq	(%rax), %rax
 2391 0e8f 488D8D90 		leaq	-2160(%rbp), %rcx
 2391      F7FFFF
 2392 0e96 BA000000 		movl	$.LC26, %edx
 2392      00
 2393 0e9b 4889CE   		movq	%rcx, %rsi
 2394 0e9e 4889C7   		movq	%rax, %rdi
 2395 0ea1 E8000000 		call	_ZN8UnitTest11TestResults13OnTestFailureERKNS_11TestDetailsEPKc
 2395      00
 2396              	.LEHE54:
 2397              	.LEHB55:
 2398 0ea6 E8000000 		call	__cxa_end_catch
 2398      00
 2399              	.LEHE55:
  93:TestChecks.cpp ****     CHECK_EQUAL("mysuite", reporter.lastFailedSuite);
 2400              		.loc 5 93 0
 2401 0eab E983FEFF 		jmp	.L93
 2401      FF
 2402              	.L108:
 2403 0eb0 4889C3   		movq	%rax, %rbx
  94:TestChecks.cpp ****     CHECK_EQUAL("file.h", reporter.lastFailedFile);
 2404              		.loc 5 94 0 is_stmt 1
 2405 0eb3 E8000000 		call	__cxa_end_catch
 2405      00
 2406 0eb8 E90A0100 		jmp	.L91
 2406      00
 2407              	.L107:
 2408 0ebd 4889C7   		movq	%rax, %rdi
 2409 0ec0 E8000000 		call	__cxa_begin_catch
 2409      00
 2410              	.LEHB56:
 2411 0ec5 E8000000 		call	_ZN8UnitTest11CurrentTest7DetailsEv
 2411      00
 2412 0eca 488B08   		movq	(%rax), %rcx
 2413 0ecd 488D8590 		leaq	-2160(%rbp), %rax
 2413      F7FFFF
 2414 0ed4 BA5E0000 		movl	$94, %edx
 2414      00
 2415 0ed9 4889CE   		movq	%rcx, %rsi
 2416 0edc 4889C7   		movq	%rax, %rdi
 2417 0edf E8000000 		call	_ZN8UnitTest11TestDetailsC1ERKS0_i
 2417      00
  94:TestChecks.cpp ****     CHECK_EQUAL("file.h", reporter.lastFailedFile);
 2418              		.loc 5 94 0 is_stmt 0 discriminator 1
 2419 0ee4 E8000000 		call	_ZN8UnitTest11CurrentTest7ResultsEv
 2419      00
 2420 0ee9 488B00   		movq	(%rax), %rax
 2421 0eec 488D8D90 		leaq	-2160(%rbp), %rcx
 2421      F7FFFF
 2422 0ef3 BA000000 		movl	$.LC27, %edx
 2422      00
 2423 0ef8 4889CE   		movq	%rcx, %rsi
 2424 0efb 4889C7   		movq	%rax, %rdi
 2425 0efe E8000000 		call	_ZN8UnitTest11TestResults13OnTestFailureERKNS_11TestDetailsEPKc
 2425      00
 2426              	.LEHE56:
 2427              	.LEHB57:
 2428 0f03 E8000000 		call	__cxa_end_catch
 2428      00
 2429              	.LEHE57:
  94:TestChecks.cpp ****     CHECK_EQUAL("file.h", reporter.lastFailedFile);
 2430              		.loc 5 94 0
 2431 0f08 E975FEFF 		jmp	.L96
 2431      FF
 2432              	.L110:
 2433 0f0d 4889C3   		movq	%rax, %rbx
  95:TestChecks.cpp ****     CHECK_EQUAL(101, reporter.lastFailedLine);
 2434              		.loc 5 95 0 is_stmt 1
 2435 0f10 E8000000 		call	__cxa_end_catch
 2435      00
 2436 0f15 E9AD0000 		jmp	.L91
 2436      00
 2437              	.L109:
 2438 0f1a 4889C7   		movq	%rax, %rdi
 2439 0f1d E8000000 		call	__cxa_begin_catch
 2439      00
 2440              	.LEHB58:
 2441 0f22 E8000000 		call	_ZN8UnitTest11CurrentTest7DetailsEv
 2441      00
 2442 0f27 488B08   		movq	(%rax), %rcx
 2443 0f2a 488D8590 		leaq	-2160(%rbp), %rax
 2443      F7FFFF
 2444 0f31 BA5F0000 		movl	$95, %edx
 2444      00
 2445 0f36 4889CE   		movq	%rcx, %rsi
 2446 0f39 4889C7   		movq	%rax, %rdi
 2447 0f3c E8000000 		call	_ZN8UnitTest11TestDetailsC1ERKS0_i
 2447      00
  95:TestChecks.cpp ****     CHECK_EQUAL(101, reporter.lastFailedLine);
 2448              		.loc 5 95 0 is_stmt 0 discriminator 1
 2449 0f41 E8000000 		call	_ZN8UnitTest11CurrentTest7ResultsEv
 2449      00
 2450 0f46 488B00   		movq	(%rax), %rax
 2451 0f49 488D8D90 		leaq	-2160(%rbp), %rcx
 2451      F7FFFF
 2452 0f50 BA000000 		movl	$.LC28, %edx
 2452      00
 2453 0f55 4889CE   		movq	%rcx, %rsi
 2454 0f58 4889C7   		movq	%rax, %rdi
 2455 0f5b E8000000 		call	_ZN8UnitTest11TestResults13OnTestFailureERKNS_11TestDetailsEPKc
 2455      00
 2456              	.LEHE58:
 2457              	.LEHB59:
 2458 0f60 E8000000 		call	__cxa_end_catch
 2458      00
 2459              	.LEHE59:
  95:TestChecks.cpp ****     CHECK_EQUAL(101, reporter.lastFailedLine);
 2460              		.loc 5 95 0
 2461 0f65 E967FEFF 		jmp	.L99
 2461      FF
 2462              	.L112:
 2463 0f6a 4889C3   		movq	%rax, %rbx
  96:TestChecks.cpp **** }
 2464              		.loc 5 96 0 is_stmt 1
 2465 0f6d E8000000 		call	__cxa_end_catch
 2465      00
 2466 0f72 EB53     		jmp	.L91
 2467              	.L111:
 2468 0f74 4889C7   		movq	%rax, %rdi
 2469 0f77 E8000000 		call	__cxa_begin_catch
 2469      00
 2470              	.LEHB60:
 2471 0f7c E8000000 		call	_ZN8UnitTest11CurrentTest7DetailsEv
 2471      00
 2472 0f81 488B08   		movq	(%rax), %rcx
 2473 0f84 488D8590 		leaq	-2160(%rbp), %rax
 2473      F7FFFF
 2474 0f8b BA600000 		movl	$96, %edx
 2474      00
 2475 0f90 4889CE   		movq	%rcx, %rsi
 2476 0f93 4889C7   		movq	%rax, %rdi
 2477 0f96 E8000000 		call	_ZN8UnitTest11TestDetailsC1ERKS0_i
 2477      00
  96:TestChecks.cpp **** }
 2478              		.loc 5 96 0 is_stmt 0 discriminator 1
 2479 0f9b E8000000 		call	_ZN8UnitTest11CurrentTest7ResultsEv
 2479      00
 2480 0fa0 488B00   		movq	(%rax), %rax
 2481 0fa3 488D8D90 		leaq	-2160(%rbp), %rcx
 2481      F7FFFF
 2482 0faa BA000000 		movl	$.LC29, %edx
 2482      00
 2483 0faf 4889CE   		movq	%rcx, %rsi
 2484 0fb2 4889C7   		movq	%rax, %rdi
 2485 0fb5 E8000000 		call	_ZN8UnitTest11TestResults13OnTestFailureERKNS_11TestDetailsEPKc
 2485      00
 2486              	.LEHE60:
 2487              	.LEHB61:
 2488 0fba E8000000 		call	__cxa_end_catch
 2488      00
 2489              	.LEHE61:
  96:TestChecks.cpp **** }
 2490              		.loc 5 96 0
 2491 0fbf E968FEFF 		jmp	.L102
 2491      FF
 2492              	.L104:
 2493 0fc4 4889C3   		movq	%rax, %rbx
 2494              	.L91:
 2495 0fc7 488D85B0 		leaq	-2128(%rbp), %rax
 2495      F7FFFF
 2496 0fce 4889C7   		movq	%rax, %rdi
 2497 0fd1 E8000000 		call	_ZN17RecordingReporterD1Ev
 2497      00
 2498 0fd6 4889D8   		movq	%rbx, %rax
 2499 0fd9 4889C7   		movq	%rax, %rdi
 2500              	.LEHB62:
 2501 0fdc E8000000 		call	_Unwind_Resume
 2501      00
 2502              	.LEHE62:
 2503              	.L113:
 2504              	.LBE35:
 2505              		.loc 5 97 0 is_stmt 1
 2506 0fe1 E8000000 		call	__stack_chk_fail
 2506      00
 2507              	.L103:
 2508 0fe6 4881C4C8 		addq	$2248, %rsp
 2508      080000
 2509 0fed 5B       		popq	%rbx
 2510 0fee 5D       		popq	%rbp
 2511              		.cfi_def_cfa 7, 8
 2512 0fef C3       		ret
 2513              		.cfi_endproc
 2514              	.LFE1064:
 2515              		.section	.gcc_except_table
 2516              		.align 4
 2517              	.LLSDA1064:
 2518 013c FF       		.byte	0xff
 2519 013d 03       		.byte	0x3
 2520 013e 61       		.uleb128 .LLSDATT1064-.LLSDATTD1064
 2521              	.LLSDATTD1064:
 2522 013f 01       		.byte	0x1
 2523 0140 57       		.uleb128 .LLSDACSE1064-.LLSDACSB1064
 2524              	.LLSDACSB1064:
 2525 0141 45       		.uleb128 .LEHB48-.LFB1064
 2526 0142 61       		.uleb128 .LEHE48-.LEHB48
 2527 0143 8607     		.uleb128 .L104-.LFB1064
 2528 0145 00       		.uleb128 0
 2529 0146 A601     		.uleb128 .LEHB49-.LFB1064
 2530 0148 4F       		.uleb128 .LEHE49-.LEHB49
 2531 0149 A204     		.uleb128 .L105-.LFB1064
 2532 014b 01       		.uleb128 0x1
 2533 014c F501     		.uleb128 .LEHB50-.LFB1064
 2534 014e 4F       		.uleb128 .LEHE50-.LEHB50
 2535 014f FF04     		.uleb128 .L107-.LFB1064
 2536 0151 01       		.uleb128 0x1
 2537 0152 C402     		.uleb128 .LEHB51-.LFB1064
 2538 0154 4F       		.uleb128 .LEHE51-.LEHB51
 2539 0155 DC05     		.uleb128 .L109-.LFB1064
 2540 0157 01       		.uleb128 0x1
 2541 0158 9303     		.uleb128 .LEHB52-.LFB1064
 2542 015a 5B       		.uleb128 .LEHE52-.LEHB52
 2543 015b B606     		.uleb128 .L111-.LFB1064
 2544 015d 01       		.uleb128 0x1
 2545 015e F803     		.uleb128 .LEHB53-.LFB1064
 2546 0160 05       		.uleb128 .LEHE53-.LEHB53
 2547 0161 00       		.uleb128 0
 2548 0162 00       		.uleb128 0
 2549 0163 AA04     		.uleb128 .LEHB54-.LFB1064
 2550 0165 3E       		.uleb128 .LEHE54-.LEHB54
 2551 0166 9504     		.uleb128 .L106-.LFB1064
 2552 0168 00       		.uleb128 0
 2553 0169 E804     		.uleb128 .LEHB55-.LFB1064
 2554 016b 05       		.uleb128 .LEHE55-.LEHB55
 2555 016c 8607     		.uleb128 .L104-.LFB1064
 2556 016e 00       		.uleb128 0
 2557 016f 8705     		.uleb128 .LEHB56-.LFB1064
 2558 0171 3E       		.uleb128 .LEHE56-.LEHB56
 2559 0172 F204     		.uleb128 .L108-.LFB1064
 2560 0174 00       		.uleb128 0
 2561 0175 C505     		.uleb128 .LEHB57-.LFB1064
 2562 0177 05       		.uleb128 .LEHE57-.LEHB57
 2563 0178 8607     		.uleb128 .L104-.LFB1064
 2564 017a 00       		.uleb128 0
 2565 017b E405     		.uleb128 .LEHB58-.LFB1064
 2566 017d 3E       		.uleb128 .LEHE58-.LEHB58
 2567 017e CF05     		.uleb128 .L110-.LFB1064
 2568 0180 00       		.uleb128 0
 2569 0181 A206     		.uleb128 .LEHB59-.LFB1064
 2570 0183 05       		.uleb128 .LEHE59-.LEHB59
 2571 0184 8607     		.uleb128 .L104-.LFB1064
 2572 0186 00       		.uleb128 0
 2573 0187 BE06     		.uleb128 .LEHB60-.LFB1064
 2574 0189 3E       		.uleb128 .LEHE60-.LEHB60
 2575 018a AC06     		.uleb128 .L112-.LFB1064
 2576 018c 00       		.uleb128 0
 2577 018d FC06     		.uleb128 .LEHB61-.LFB1064
 2578 018f 05       		.uleb128 .LEHE61-.LEHB61
 2579 0190 8607     		.uleb128 .L104-.LFB1064
 2580 0192 00       		.uleb128 0
 2581 0193 9E07     		.uleb128 .LEHB62-.LFB1064
 2582 0195 05       		.uleb128 .LEHE62-.LEHB62
 2583 0196 00       		.uleb128 0
 2584 0197 00       		.uleb128 0
 2585              	.LLSDACSE1064:
 2586 0198 01       		.byte	0x1
 2587 0199 00       		.byte	0
 2588 019a 0000     		.align 4
 2589 019c 00000000 		.long	0
 2590              	
 2591              	.LLSDATT1064:
 2592              		.text
 2594              		.section	.rodata
 2595              	.LC30:
 2596 04e1 43686563 		.string	"CheckCloseTrue"
 2596      6B436C6F 
 2596      73655472 
 2596      756500
 2597              		.text
 2598              		.align 2
 2600              	_ZN12_GLOBAL__N_118TestCheckCloseTrueC2Ev:
 2601              	.LFB1066:
  98:TestChecks.cpp **** 
  99:TestChecks.cpp **** TEST(CheckCloseTrue)
 2602              		.loc 5 99 0
 2603              		.cfi_startproc
 2604 0ff0 55       		pushq	%rbp
 2605              		.cfi_def_cfa_offset 16
 2606              		.cfi_offset 6, -16
 2607 0ff1 4889E5   		movq	%rsp, %rbp
 2608              		.cfi_def_cfa_register 6
 2609 0ff4 4883EC10 		subq	$16, %rsp
 2610 0ff8 48897DF8 		movq	%rdi, -8(%rbp)
 2611              	.LBB36:
 2612              		.loc 5 99 0
 2613 0ffc E8000000 		call	_ZN13UnitTestSuite12GetSuiteNameEv
 2613      00
 2614 1001 4889C2   		movq	%rax, %rdx
 2615 1004 488B45F8 		movq	-8(%rbp), %rax
 2616 1008 41B86300 		movl	$99, %r8d
 2616      0000
 2617 100e B9000000 		movl	$.LC2, %ecx
 2617      00
 2618 1013 BE000000 		movl	$.LC30, %esi
 2618      00
 2619 1018 4889C7   		movq	%rax, %rdi
 2620 101b E8000000 		call	_ZN8UnitTest4TestC2EPKcS2_S2_i
 2620      00
 2621 1020 488B45F8 		movq	-8(%rbp), %rax
 2622 1024 48C70000 		movq	$_ZTVN12_GLOBAL__N_118TestCheckCloseTrueE+16, (%rax)
 2622      000000
 2623              	.LBE36:
 2624 102b C9       		leave
 2625              		.cfi_def_cfa 7, 8
 2626 102c C3       		ret
 2627              		.cfi_endproc
 2628              	.LFE1066:
 2630              		.set	_ZN12_GLOBAL__N_118TestCheckCloseTrueC1Ev,_ZN12_GLOBAL__N_118TestCheckCloseTrueC2Ev
 2631              		.local	_ZN12_GLOBAL__N_126testCheckCloseTrueInstanceE
 2632              		.comm	_ZN12_GLOBAL__N_126testCheckCloseTrueInstanceE,56,32
 2633              		.local	_ZN12_GLOBAL__N_119adderCheckCloseTrueE
 2634              		.comm	_ZN12_GLOBAL__N_119adderCheckCloseTrueE,1,1
 2635 102d 90       		.align 2
 2637              	_ZNK12_GLOBAL__N_118TestCheckCloseTrue7RunImplEv:
 2638              	.LFB1068:
 100:TestChecks.cpp **** {
 2639              		.loc 5 100 0
 2640              		.cfi_startproc
 2641              		.cfi_personality 0x3,__gxx_personality_v0
 2642              		.cfi_lsda 0x3,.LLSDA1068
 2643 102e 55       		pushq	%rbp
 2644              		.cfi_def_cfa_offset 16
 2645              		.cfi_offset 6, -16
 2646 102f 4889E5   		movq	%rsp, %rbp
 2647              		.cfi_def_cfa_register 6
 2648 1032 53       		pushq	%rbx
 2649 1033 4883EC68 		subq	$104, %rsp
 2650              		.cfi_offset 3, -24
 2651 1037 48897D98 		movq	%rdi, -104(%rbp)
 2652              	.LBB37:
 101:TestChecks.cpp ****     TestResults results;
 2653              		.loc 5 101 0
 2654 103b 488D45B0 		leaq	-80(%rbp), %rax
 2655 103f BE000000 		movl	$0, %esi
 2655      00
 2656 1044 4889C7   		movq	%rax, %rdi
 2657              	.LEHB63:
 2658 1047 E8000000 		call	_ZN8UnitTest11TestResultsC1EPNS_12TestReporterE
 2658      00
 102:TestChecks.cpp ****     CheckClose(results, 3.001f, 3.0f, 0.1f, TestDetails("", "", "", 0));
 2659              		.loc 5 102 0
 2660 104c 488D45D0 		leaq	-48(%rbp), %rax
 2661 1050 41B80000 		movl	$0, %r8d
 2661      0000
 2662 1056 B9000000 		movl	$.LC6, %ecx
 2662      00
 2663 105b BA000000 		movl	$.LC6, %edx
 2663      00
 2664 1060 BE000000 		movl	$.LC6, %esi
 2664      00
 2665 1065 4889C7   		movq	%rax, %rdi
 2666 1068 E8000000 		call	_ZN8UnitTest11TestDetailsC1EPKcS2_S2_i
 2666      00
 2667 106d 8B050000 		movl	.LC31(%rip), %eax
 2667      0000
 2668 1073 8945AC   		movl	%eax, -84(%rbp)
 2669 1076 8B050000 		movl	.LC32(%rip), %eax
 2669      0000
 2670 107c 8945A8   		movl	%eax, -88(%rbp)
 2671 107f 8B050000 		movl	.LC33(%rip), %eax
 2671      0000
 2672 1085 8945A4   		movl	%eax, -92(%rbp)
 2673 1088 488D7DD0 		leaq	-48(%rbp), %rdi
 2674 108c 488D4DAC 		leaq	-84(%rbp), %rcx
 2675 1090 488D55A8 		leaq	-88(%rbp), %rdx
 2676 1094 488D75A4 		leaq	-92(%rbp), %rsi
 2677 1098 488D45B0 		leaq	-80(%rbp), %rax
 2678 109c 4989F8   		movq	%rdi, %r8
 2679 109f 4889C7   		movq	%rax, %rdi
 2680 10a2 E8000000 		call	_ZN8UnitTest10CheckCloseIfffEEvRNS_11TestResultsERKT_RKT0_RKT1_RKNS_11TestDetailsE
 2680      00
 2681              	.LEHE63:
 2682              	.LEHB64:
 103:TestChecks.cpp ****     CHECK_EQUAL(0, results.GetFailureCount());
 2683              		.loc 5 103 0
 2684 10a7 E8000000 		call	_ZN8UnitTest11CurrentTest7DetailsEv
 2684      00
 2685 10ac 488B08   		movq	(%rax), %rcx
 2686 10af 488D45D0 		leaq	-48(%rbp), %rax
 2687 10b3 BA670000 		movl	$103, %edx
 2687      00
 2688 10b8 4889CE   		movq	%rcx, %rsi
 2689 10bb 4889C7   		movq	%rax, %rdi
 2690 10be E8000000 		call	_ZN8UnitTest11TestDetailsC1ERKS0_i
 2690      00
 2691              		.loc 5 103 0 is_stmt 0 discriminator 1
 2692 10c3 488D45B0 		leaq	-80(%rbp), %rax
 2693 10c7 4889C7   		movq	%rax, %rdi
 2694 10ca E8000000 		call	_ZNK8UnitTest11TestResults15GetFailureCountEv
 2694      00
 2695 10cf 8945AC   		movl	%eax, -84(%rbp)
 2696 10d2 C745A800 		movl	$0, -88(%rbp)
 2696      000000
 2697 10d9 E8000000 		call	_ZN8UnitTest11CurrentTest7ResultsEv
 2697      00
 2698 10de 488B00   		movq	(%rax), %rax
 2699 10e1 488D4DD0 		leaq	-48(%rbp), %rcx
 2700 10e5 488D55AC 		leaq	-84(%rbp), %rdx
 2701 10e9 488D75A8 		leaq	-88(%rbp), %rsi
 2702 10ed 4889C7   		movq	%rax, %rdi
 2703 10f0 E8000000 		call	_ZN8UnitTest10CheckEqualIiiEEvRNS_11TestResultsERKT_RKT0_RKNS_11TestDetailsE
 2703      00
 2704              	.LEHE64:
 2705              	.LBE37:
 104:TestChecks.cpp **** }
 2706              		.loc 5 104 0 is_stmt 1
 2707 10f5 EB58     		jmp	.L121
 2708              	.L120:
 2709 10f7 4889C3   		movq	%rax, %rbx
 2710              	.LBB38:
 103:TestChecks.cpp ****     CHECK_EQUAL(0, results.GetFailureCount());
 2711              		.loc 5 103 0
 2712 10fa E8000000 		call	__cxa_end_catch
 2712      00
 2713 10ff 4889D8   		movq	%rbx, %rax
 2714 1102 4889C7   		movq	%rax, %rdi
 2715              	.LEHB65:
 2716 1105 E8000000 		call	_Unwind_Resume
 2716      00
 2717              	.LEHE65:
 2718              	.L119:
 2719 110a 4889C7   		movq	%rax, %rdi
 2720 110d E8000000 		call	__cxa_begin_catch
 2720      00
 2721              	.LEHB66:
 2722 1112 E8000000 		call	_ZN8UnitTest11CurrentTest7DetailsEv
 2722      00
 2723 1117 488B08   		movq	(%rax), %rcx
 2724 111a 488D45D0 		leaq	-48(%rbp), %rax
 2725 111e BA670000 		movl	$103, %edx
 2725      00
 2726 1123 4889CE   		movq	%rcx, %rsi
 2727 1126 4889C7   		movq	%rax, %rdi
 2728 1129 E8000000 		call	_ZN8UnitTest11TestDetailsC1ERKS0_i
 2728      00
 103:TestChecks.cpp ****     CHECK_EQUAL(0, results.GetFailureCount());
 2729              		.loc 5 103 0 is_stmt 0 discriminator 1
 2730 112e E8000000 		call	_ZN8UnitTest11CurrentTest7ResultsEv
 2730      00
 2731 1133 488B00   		movq	(%rax), %rax
 2732 1136 488D4DD0 		leaq	-48(%rbp), %rcx
 2733 113a BA000000 		movl	$.LC9, %edx
 2733      00
 2734 113f 4889CE   		movq	%rcx, %rsi
 2735 1142 4889C7   		movq	%rax, %rdi
 2736 1145 E8000000 		call	_ZN8UnitTest11TestResults13OnTestFailureERKNS_11TestDetailsEPKc
 2736      00
 2737              	.LEHE66:
 2738              	.LEHB67:
 2739 114a E8000000 		call	__cxa_end_catch
 2739      00
 2740              	.LEHE67:
 2741              	.L121:
 2742              	.LBE38:
 2743              		.loc 5 104 0 is_stmt 1
 2744 114f 90       		nop
 2745 1150 4883C468 		addq	$104, %rsp
 2746 1154 5B       		popq	%rbx
 2747 1155 5D       		popq	%rbp
 2748              		.cfi_def_cfa 7, 8
 2749 1156 C3       		ret
 2750              		.cfi_endproc
 2751              	.LFE1068:
 2752              		.section	.gcc_except_table
 2753              		.align 4
 2754              	.LLSDA1068:
 2755 01a0 FF       		.byte	0xff
 2756 01a1 03       		.byte	0x3
 2757 01a2 21       		.uleb128 .LLSDATT1068-.LLSDATTD1068
 2758              	.LLSDATTD1068:
 2759 01a3 01       		.byte	0x1
 2760 01a4 19       		.uleb128 .LLSDACSE1068-.LLSDACSB1068
 2761              	.LLSDACSB1068:
 2762 01a5 19       		.uleb128 .LEHB63-.LFB1068
 2763 01a6 60       		.uleb128 .LEHE63-.LEHB63
 2764 01a7 00       		.uleb128 0
 2765 01a8 00       		.uleb128 0
 2766 01a9 79       		.uleb128 .LEHB64-.LFB1068
 2767 01aa 4E       		.uleb128 .LEHE64-.LEHB64
 2768 01ab DC01     		.uleb128 .L119-.LFB1068
 2769 01ad 01       		.uleb128 0x1
 2770 01ae D701     		.uleb128 .LEHB65-.LFB1068
 2771 01b0 05       		.uleb128 .LEHE65-.LEHB65
 2772 01b1 00       		.uleb128 0
 2773 01b2 00       		.uleb128 0
 2774 01b3 E401     		.uleb128 .LEHB66-.LFB1068
 2775 01b5 38       		.uleb128 .LEHE66-.LEHB66
 2776 01b6 C901     		.uleb128 .L120-.LFB1068
 2777 01b8 00       		.uleb128 0
 2778 01b9 9C02     		.uleb128 .LEHB67-.LFB1068
 2779 01bb 05       		.uleb128 .LEHE67-.LEHB67
 2780 01bc 00       		.uleb128 0
 2781 01bd 00       		.uleb128 0
 2782              	.LLSDACSE1068:
 2783 01be 01       		.byte	0x1
 2784 01bf 00       		.byte	0
 2785              		.align 4
 2786 01c0 00000000 		.long	0
 2787              	
 2788              	.LLSDATT1068:
 2789              		.text
 2791              		.section	.rodata
 2792              	.LC34:
 2793 04f0 43686563 		.string	"CheckCloseFalse"
 2793      6B436C6F 
 2793      73654661 
 2793      6C736500 
 2794              		.text
 2795 1157 90       		.align 2
 2797              	_ZN12_GLOBAL__N_119TestCheckCloseFalseC2Ev:
 2798              	.LFB1070:
 105:TestChecks.cpp **** 
 106:TestChecks.cpp **** TEST(CheckCloseFalse)
 2799              		.loc 5 106 0
 2800              		.cfi_startproc
 2801 1158 55       		pushq	%rbp
 2802              		.cfi_def_cfa_offset 16
 2803              		.cfi_offset 6, -16
 2804 1159 4889E5   		movq	%rsp, %rbp
 2805              		.cfi_def_cfa_register 6
 2806 115c 4883EC10 		subq	$16, %rsp
 2807 1160 48897DF8 		movq	%rdi, -8(%rbp)
 2808              	.LBB39:
 2809              		.loc 5 106 0
 2810 1164 E8000000 		call	_ZN13UnitTestSuite12GetSuiteNameEv
 2810      00
 2811 1169 4889C2   		movq	%rax, %rdx
 2812 116c 488B45F8 		movq	-8(%rbp), %rax
 2813 1170 41B86A00 		movl	$106, %r8d
 2813      0000
 2814 1176 B9000000 		movl	$.LC2, %ecx
 2814      00
 2815 117b BE000000 		movl	$.LC34, %esi
 2815      00
 2816 1180 4889C7   		movq	%rax, %rdi
 2817 1183 E8000000 		call	_ZN8UnitTest4TestC2EPKcS2_S2_i
 2817      00
 2818 1188 488B45F8 		movq	-8(%rbp), %rax
 2819 118c 48C70000 		movq	$_ZTVN12_GLOBAL__N_119TestCheckCloseFalseE+16, (%rax)
 2819      000000
 2820              	.LBE39:
 2821 1193 C9       		leave
 2822              		.cfi_def_cfa 7, 8
 2823 1194 C3       		ret
 2824              		.cfi_endproc
 2825              	.LFE1070:
 2827              		.set	_ZN12_GLOBAL__N_119TestCheckCloseFalseC1Ev,_ZN12_GLOBAL__N_119TestCheckCloseFalseC2Ev
 2828              		.local	_ZN12_GLOBAL__N_127testCheckCloseFalseInstanceE
 2829              		.comm	_ZN12_GLOBAL__N_127testCheckCloseFalseInstanceE,56,32
 2830              		.local	_ZN12_GLOBAL__N_120adderCheckCloseFalseE
 2831              		.comm	_ZN12_GLOBAL__N_120adderCheckCloseFalseE,1,1
 2832 1195 90       		.align 2
 2834              	_ZNK12_GLOBAL__N_119TestCheckCloseFalse7RunImplEv:
 2835              	.LFB1072:
 107:TestChecks.cpp **** {
 2836              		.loc 5 107 0
 2837              		.cfi_startproc
 2838              		.cfi_personality 0x3,__gxx_personality_v0
 2839              		.cfi_lsda 0x3,.LLSDA1072
 2840 1196 55       		pushq	%rbp
 2841              		.cfi_def_cfa_offset 16
 2842              		.cfi_offset 6, -16
 2843 1197 4889E5   		movq	%rsp, %rbp
 2844              		.cfi_def_cfa_register 6
 2845 119a 53       		pushq	%rbx
 2846 119b 4883EC68 		subq	$104, %rsp
 2847              		.cfi_offset 3, -24
 2848 119f 48897D98 		movq	%rdi, -104(%rbp)
 2849              	.LBB40:
 108:TestChecks.cpp ****     TestResults results;
 2850              		.loc 5 108 0
 2851 11a3 488D45B0 		leaq	-80(%rbp), %rax
 2852 11a7 BE000000 		movl	$0, %esi
 2852      00
 2853 11ac 4889C7   		movq	%rax, %rdi
 2854              	.LEHB68:
 2855 11af E8000000 		call	_ZN8UnitTest11TestResultsC1EPNS_12TestReporterE
 2855      00
 109:TestChecks.cpp ****     CheckClose(results, 3.12f, 3.0f, 0.1f, TestDetails("", "", "", 0));
 2856              		.loc 5 109 0
 2857 11b4 488D45D0 		leaq	-48(%rbp), %rax
 2858 11b8 41B80000 		movl	$0, %r8d
 2858      0000
 2859 11be B9000000 		movl	$.LC6, %ecx
 2859      00
 2860 11c3 BA000000 		movl	$.LC6, %edx
 2860      00
 2861 11c8 BE000000 		movl	$.LC6, %esi
 2861      00
 2862 11cd 4889C7   		movq	%rax, %rdi
 2863 11d0 E8000000 		call	_ZN8UnitTest11TestDetailsC1EPKcS2_S2_i
 2863      00
 2864 11d5 8B050000 		movl	.LC31(%rip), %eax
 2864      0000
 2865 11db 8945AC   		movl	%eax, -84(%rbp)
 2866 11de 8B050000 		movl	.LC32(%rip), %eax
 2866      0000
 2867 11e4 8945A8   		movl	%eax, -88(%rbp)
 2868 11e7 8B050000 		movl	.LC35(%rip), %eax
 2868      0000
 2869 11ed 8945A4   		movl	%eax, -92(%rbp)
 2870 11f0 488D7DD0 		leaq	-48(%rbp), %rdi
 2871 11f4 488D4DAC 		leaq	-84(%rbp), %rcx
 2872 11f8 488D55A8 		leaq	-88(%rbp), %rdx
 2873 11fc 488D75A4 		leaq	-92(%rbp), %rsi
 2874 1200 488D45B0 		leaq	-80(%rbp), %rax
 2875 1204 4989F8   		movq	%rdi, %r8
 2876 1207 4889C7   		movq	%rax, %rdi
 2877 120a E8000000 		call	_ZN8UnitTest10CheckCloseIfffEEvRNS_11TestResultsERKT_RKT0_RKT1_RKNS_11TestDetailsE
 2877      00
 2878              	.LEHE68:
 2879              	.LEHB69:
 110:TestChecks.cpp ****     CHECK_EQUAL(1, results.GetFailureCount());
 2880              		.loc 5 110 0
 2881 120f E8000000 		call	_ZN8UnitTest11CurrentTest7DetailsEv
 2881      00
 2882 1214 488B08   		movq	(%rax), %rcx
 2883 1217 488D45D0 		leaq	-48(%rbp), %rax
 2884 121b BA6E0000 		movl	$110, %edx
 2884      00
 2885 1220 4889CE   		movq	%rcx, %rsi
 2886 1223 4889C7   		movq	%rax, %rdi
 2887 1226 E8000000 		call	_ZN8UnitTest11TestDetailsC1ERKS0_i
 2887      00
 2888              		.loc 5 110 0 is_stmt 0 discriminator 1
 2889 122b 488D45B0 		leaq	-80(%rbp), %rax
 2890 122f 4889C7   		movq	%rax, %rdi
 2891 1232 E8000000 		call	_ZNK8UnitTest11TestResults15GetFailureCountEv
 2891      00
 2892 1237 8945AC   		movl	%eax, -84(%rbp)
 2893 123a C745A801 		movl	$1, -88(%rbp)
 2893      000000
 2894 1241 E8000000 		call	_ZN8UnitTest11CurrentTest7ResultsEv
 2894      00
 2895 1246 488B00   		movq	(%rax), %rax
 2896 1249 488D4DD0 		leaq	-48(%rbp), %rcx
 2897 124d 488D55AC 		leaq	-84(%rbp), %rdx
 2898 1251 488D75A8 		leaq	-88(%rbp), %rsi
 2899 1255 4889C7   		movq	%rax, %rdi
 2900 1258 E8000000 		call	_ZN8UnitTest10CheckEqualIiiEEvRNS_11TestResultsERKT_RKT0_RKNS_11TestDetailsE
 2900      00
 2901              	.LEHE69:
 2902              	.LBE40:
 111:TestChecks.cpp **** }
 2903              		.loc 5 111 0 is_stmt 1
 2904 125d EB58     		jmp	.L129
 2905              	.L128:
 2906 125f 4889C3   		movq	%rax, %rbx
 2907              	.LBB41:
 110:TestChecks.cpp ****     CHECK_EQUAL(1, results.GetFailureCount());
 2908              		.loc 5 110 0
 2909 1262 E8000000 		call	__cxa_end_catch
 2909      00
 2910 1267 4889D8   		movq	%rbx, %rax
 2911 126a 4889C7   		movq	%rax, %rdi
 2912              	.LEHB70:
 2913 126d E8000000 		call	_Unwind_Resume
 2913      00
 2914              	.LEHE70:
 2915              	.L127:
 2916 1272 4889C7   		movq	%rax, %rdi
 2917 1275 E8000000 		call	__cxa_begin_catch
 2917      00
 2918              	.LEHB71:
 2919 127a E8000000 		call	_ZN8UnitTest11CurrentTest7DetailsEv
 2919      00
 2920 127f 488B08   		movq	(%rax), %rcx
 2921 1282 488D45D0 		leaq	-48(%rbp), %rax
 2922 1286 BA6E0000 		movl	$110, %edx
 2922      00
 2923 128b 4889CE   		movq	%rcx, %rsi
 2924 128e 4889C7   		movq	%rax, %rdi
 2925 1291 E8000000 		call	_ZN8UnitTest11TestDetailsC1ERKS0_i
 2925      00
 110:TestChecks.cpp ****     CHECK_EQUAL(1, results.GetFailureCount());
 2926              		.loc 5 110 0 is_stmt 0 discriminator 1
 2927 1296 E8000000 		call	_ZN8UnitTest11CurrentTest7ResultsEv
 2927      00
 2928 129b 488B00   		movq	(%rax), %rax
 2929 129e 488D4DD0 		leaq	-48(%rbp), %rcx
 2930 12a2 BA000000 		movl	$.LC7, %edx
 2930      00
 2931 12a7 4889CE   		movq	%rcx, %rsi
 2932 12aa 4889C7   		movq	%rax, %rdi
 2933 12ad E8000000 		call	_ZN8UnitTest11TestResults13OnTestFailureERKNS_11TestDetailsEPKc
 2933      00
 2934              	.LEHE71:
 2935              	.LEHB72:
 2936 12b2 E8000000 		call	__cxa_end_catch
 2936      00
 2937              	.LEHE72:
 2938              	.L129:
 2939              	.LBE41:
 2940              		.loc 5 111 0 is_stmt 1
 2941 12b7 90       		nop
 2942 12b8 4883C468 		addq	$104, %rsp
 2943 12bc 5B       		popq	%rbx
 2944 12bd 5D       		popq	%rbp
 2945              		.cfi_def_cfa 7, 8
 2946 12be C3       		ret
 2947              		.cfi_endproc
 2948              	.LFE1072:
 2949              		.section	.gcc_except_table
 2950              		.align 4
 2951              	.LLSDA1072:
 2952 01c4 FF       		.byte	0xff
 2953 01c5 03       		.byte	0x3
 2954 01c6 21       		.uleb128 .LLSDATT1072-.LLSDATTD1072
 2955              	.LLSDATTD1072:
 2956 01c7 01       		.byte	0x1
 2957 01c8 19       		.uleb128 .LLSDACSE1072-.LLSDACSB1072
 2958              	.LLSDACSB1072:
 2959 01c9 19       		.uleb128 .LEHB68-.LFB1072
 2960 01ca 60       		.uleb128 .LEHE68-.LEHB68
 2961 01cb 00       		.uleb128 0
 2962 01cc 00       		.uleb128 0
 2963 01cd 79       		.uleb128 .LEHB69-.LFB1072
 2964 01ce 4E       		.uleb128 .LEHE69-.LEHB69
 2965 01cf DC01     		.uleb128 .L127-.LFB1072
 2966 01d1 01       		.uleb128 0x1
 2967 01d2 D701     		.uleb128 .LEHB70-.LFB1072
 2968 01d4 05       		.uleb128 .LEHE70-.LEHB70
 2969 01d5 00       		.uleb128 0
 2970 01d6 00       		.uleb128 0
 2971 01d7 E401     		.uleb128 .LEHB71-.LFB1072
 2972 01d9 38       		.uleb128 .LEHE71-.LEHB71
 2973 01da C901     		.uleb128 .L128-.LFB1072
 2974 01dc 00       		.uleb128 0
 2975 01dd 9C02     		.uleb128 .LEHB72-.LFB1072
 2976 01df 05       		.uleb128 .LEHE72-.LEHB72
 2977 01e0 00       		.uleb128 0
 2978 01e1 00       		.uleb128 0
 2979              	.LLSDACSE1072:
 2980 01e2 01       		.byte	0x1
 2981 01e3 00       		.byte	0
 2982              		.align 4
 2983 01e4 00000000 		.long	0
 2984              	
 2985              	.LLSDATT1072:
 2986              		.text
 2988              		.section	.rodata
 2989              		.align 8
 2990              	.LC36:
 2991 0500 43686563 		.string	"CheckCloseWithZeroEpsilonWorksForSameNumber"
 2991      6B436C6F 
 2991      73655769 
 2991      74685A65 
 2991      726F4570 
 2992              		.text
 2993 12bf 90       		.align 2
 2995              	_ZN12_GLOBAL__N_147TestCheckCloseWithZeroEpsilonWorksForSameNumberC2Ev:
 2996              	.LFB1074:
 112:TestChecks.cpp **** 
 113:TestChecks.cpp **** TEST(CheckCloseWithZeroEpsilonWorksForSameNumber)
 2997              		.loc 5 113 0
 2998              		.cfi_startproc
 2999 12c0 55       		pushq	%rbp
 3000              		.cfi_def_cfa_offset 16
 3001              		.cfi_offset 6, -16
 3002 12c1 4889E5   		movq	%rsp, %rbp
 3003              		.cfi_def_cfa_register 6
 3004 12c4 4883EC10 		subq	$16, %rsp
 3005 12c8 48897DF8 		movq	%rdi, -8(%rbp)
 3006              	.LBB42:
 3007              		.loc 5 113 0
 3008 12cc E8000000 		call	_ZN13UnitTestSuite12GetSuiteNameEv
 3008      00
 3009 12d1 4889C2   		movq	%rax, %rdx
 3010 12d4 488B45F8 		movq	-8(%rbp), %rax
 3011 12d8 41B87100 		movl	$113, %r8d
 3011      0000
 3012 12de B9000000 		movl	$.LC2, %ecx
 3012      00
 3013 12e3 BE000000 		movl	$.LC36, %esi
 3013      00
 3014 12e8 4889C7   		movq	%rax, %rdi
 3015 12eb E8000000 		call	_ZN8UnitTest4TestC2EPKcS2_S2_i
 3015      00
 3016 12f0 488B45F8 		movq	-8(%rbp), %rax
 3017 12f4 48C70000 		movq	$_ZTVN12_GLOBAL__N_147TestCheckCloseWithZeroEpsilonWorksForSameNumberE+16, (%rax)
 3017      000000
 3018              	.LBE42:
 3019 12fb C9       		leave
 3020              		.cfi_def_cfa 7, 8
 3021 12fc C3       		ret
 3022              		.cfi_endproc
 3023              	.LFE1074:
 3025              		.set	_ZN12_GLOBAL__N_147TestCheckCloseWithZeroEpsilonWorksForSameNumberC1Ev,_ZN12_GLOBAL__N_147Tes
 3026              		.local	_ZN12_GLOBAL__N_155testCheckCloseWithZeroEpsilonWorksForSameNumberInstanceE
 3027              		.comm	_ZN12_GLOBAL__N_155testCheckCloseWithZeroEpsilonWorksForSameNumberInstanceE,56,32
 3028              		.local	_ZN12_GLOBAL__N_148adderCheckCloseWithZeroEpsilonWorksForSameNumberE
 3029              		.comm	_ZN12_GLOBAL__N_148adderCheckCloseWithZeroEpsilonWorksForSameNumberE,1,1
 3030 12fd 90       		.align 2
 3032              	_ZNK12_GLOBAL__N_147TestCheckCloseWithZeroEpsilonWorksForSameNumber7RunImplEv:
 3033              	.LFB1076:
 114:TestChecks.cpp **** {
 3034              		.loc 5 114 0
 3035              		.cfi_startproc
 3036              		.cfi_personality 0x3,__gxx_personality_v0
 3037              		.cfi_lsda 0x3,.LLSDA1076
 3038 12fe 55       		pushq	%rbp
 3039              		.cfi_def_cfa_offset 16
 3040              		.cfi_offset 6, -16
 3041 12ff 4889E5   		movq	%rsp, %rbp
 3042              		.cfi_def_cfa_register 6
 3043 1302 53       		pushq	%rbx
 3044 1303 4883EC68 		subq	$104, %rsp
 3045              		.cfi_offset 3, -24
 3046 1307 48897D98 		movq	%rdi, -104(%rbp)
 3047              	.LBB43:
 115:TestChecks.cpp ****     TestResults results;
 3048              		.loc 5 115 0
 3049 130b 488D45B0 		leaq	-80(%rbp), %rax
 3050 130f BE000000 		movl	$0, %esi
 3050      00
 3051 1314 4889C7   		movq	%rax, %rdi
 3052              	.LEHB73:
 3053 1317 E8000000 		call	_ZN8UnitTest11TestResultsC1EPNS_12TestReporterE
 3053      00
 116:TestChecks.cpp ****     CheckClose(results, 0.1f, 0.1f, 0, TestDetails("", "", "", 0));
 3054              		.loc 5 116 0
 3055 131c 488D45D0 		leaq	-48(%rbp), %rax
 3056 1320 41B80000 		movl	$0, %r8d
 3056      0000
 3057 1326 B9000000 		movl	$.LC6, %ecx
 3057      00
 3058 132b BA000000 		movl	$.LC6, %edx
 3058      00
 3059 1330 BE000000 		movl	$.LC6, %esi
 3059      00
 3060 1335 4889C7   		movq	%rax, %rdi
 3061 1338 E8000000 		call	_ZN8UnitTest11TestDetailsC1EPKcS2_S2_i
 3061      00
 3062 133d C745AC00 		movl	$0, -84(%rbp)
 3062      000000
 3063 1344 8B050000 		movl	.LC31(%rip), %eax
 3063      0000
 3064 134a 8945A8   		movl	%eax, -88(%rbp)
 3065 134d 8B050000 		movl	.LC31(%rip), %eax
 3065      0000
 3066 1353 8945A4   		movl	%eax, -92(%rbp)
 3067 1356 488D7DD0 		leaq	-48(%rbp), %rdi
 3068 135a 488D4DAC 		leaq	-84(%rbp), %rcx
 3069 135e 488D55A8 		leaq	-88(%rbp), %rdx
 3070 1362 488D75A4 		leaq	-92(%rbp), %rsi
 3071 1366 488D45B0 		leaq	-80(%rbp), %rax
 3072 136a 4989F8   		movq	%rdi, %r8
 3073 136d 4889C7   		movq	%rax, %rdi
 3074 1370 E8000000 		call	_ZN8UnitTest10CheckCloseIffiEEvRNS_11TestResultsERKT_RKT0_RKT1_RKNS_11TestDetailsE
 3074      00
 3075              	.LEHE73:
 3076              	.LEHB74:
 117:TestChecks.cpp ****     CHECK_EQUAL(0, results.GetFailureCount());
 3077              		.loc 5 117 0
 3078 1375 E8000000 		call	_ZN8UnitTest11CurrentTest7DetailsEv
 3078      00
 3079 137a 488B08   		movq	(%rax), %rcx
 3080 137d 488D45D0 		leaq	-48(%rbp), %rax
 3081 1381 BA750000 		movl	$117, %edx
 3081      00
 3082 1386 4889CE   		movq	%rcx, %rsi
 3083 1389 4889C7   		movq	%rax, %rdi
 3084 138c E8000000 		call	_ZN8UnitTest11TestDetailsC1ERKS0_i
 3084      00
 3085              		.loc 5 117 0 is_stmt 0 discriminator 1
 3086 1391 488D45B0 		leaq	-80(%rbp), %rax
 3087 1395 4889C7   		movq	%rax, %rdi
 3088 1398 E8000000 		call	_ZNK8UnitTest11TestResults15GetFailureCountEv
 3088      00
 3089 139d 8945AC   		movl	%eax, -84(%rbp)
 3090 13a0 C745A800 		movl	$0, -88(%rbp)
 3090      000000
 3091 13a7 E8000000 		call	_ZN8UnitTest11CurrentTest7ResultsEv
 3091      00
 3092 13ac 488B00   		movq	(%rax), %rax
 3093 13af 488D4DD0 		leaq	-48(%rbp), %rcx
 3094 13b3 488D55AC 		leaq	-84(%rbp), %rdx
 3095 13b7 488D75A8 		leaq	-88(%rbp), %rsi
 3096 13bb 4889C7   		movq	%rax, %rdi
 3097 13be E8000000 		call	_ZN8UnitTest10CheckEqualIiiEEvRNS_11TestResultsERKT_RKT0_RKNS_11TestDetailsE
 3097      00
 3098              	.LEHE74:
 3099              	.LBE43:
 118:TestChecks.cpp **** }
 3100              		.loc 5 118 0 is_stmt 1
 3101 13c3 EB58     		jmp	.L137
 3102              	.L136:
 3103 13c5 4889C3   		movq	%rax, %rbx
 3104              	.LBB44:
 117:TestChecks.cpp ****     CHECK_EQUAL(0, results.GetFailureCount());
 3105              		.loc 5 117 0
 3106 13c8 E8000000 		call	__cxa_end_catch
 3106      00
 3107 13cd 4889D8   		movq	%rbx, %rax
 3108 13d0 4889C7   		movq	%rax, %rdi
 3109              	.LEHB75:
 3110 13d3 E8000000 		call	_Unwind_Resume
 3110      00
 3111              	.LEHE75:
 3112              	.L135:
 3113 13d8 4889C7   		movq	%rax, %rdi
 3114 13db E8000000 		call	__cxa_begin_catch
 3114      00
 3115              	.LEHB76:
 3116 13e0 E8000000 		call	_ZN8UnitTest11CurrentTest7DetailsEv
 3116      00
 3117 13e5 488B08   		movq	(%rax), %rcx
 3118 13e8 488D45D0 		leaq	-48(%rbp), %rax
 3119 13ec BA750000 		movl	$117, %edx
 3119      00
 3120 13f1 4889CE   		movq	%rcx, %rsi
 3121 13f4 4889C7   		movq	%rax, %rdi
 3122 13f7 E8000000 		call	_ZN8UnitTest11TestDetailsC1ERKS0_i
 3122      00
 117:TestChecks.cpp ****     CHECK_EQUAL(0, results.GetFailureCount());
 3123              		.loc 5 117 0 is_stmt 0 discriminator 1
 3124 13fc E8000000 		call	_ZN8UnitTest11CurrentTest7ResultsEv
 3124      00
 3125 1401 488B00   		movq	(%rax), %rax
 3126 1404 488D4DD0 		leaq	-48(%rbp), %rcx
 3127 1408 BA000000 		movl	$.LC9, %edx
 3127      00
 3128 140d 4889CE   		movq	%rcx, %rsi
 3129 1410 4889C7   		movq	%rax, %rdi
 3130 1413 E8000000 		call	_ZN8UnitTest11TestResults13OnTestFailureERKNS_11TestDetailsEPKc
 3130      00
 3131              	.LEHE76:
 3132              	.LEHB77:
 3133 1418 E8000000 		call	__cxa_end_catch
 3133      00
 3134              	.LEHE77:
 3135              	.L137:
 3136              	.LBE44:
 3137              		.loc 5 118 0 is_stmt 1
 3138 141d 90       		nop
 3139 141e 4883C468 		addq	$104, %rsp
 3140 1422 5B       		popq	%rbx
 3141 1423 5D       		popq	%rbp
 3142              		.cfi_def_cfa 7, 8
 3143 1424 C3       		ret
 3144              		.cfi_endproc
 3145              	.LFE1076:
 3146              		.section	.gcc_except_table
 3147              		.align 4
 3148              	.LLSDA1076:
 3149 01e8 FF       		.byte	0xff
 3150 01e9 03       		.byte	0x3
 3151 01ea 21       		.uleb128 .LLSDATT1076-.LLSDATTD1076
 3152              	.LLSDATTD1076:
 3153 01eb 01       		.byte	0x1
 3154 01ec 19       		.uleb128 .LLSDACSE1076-.LLSDACSB1076
 3155              	.LLSDACSB1076:
 3156 01ed 19       		.uleb128 .LEHB73-.LFB1076
 3157 01ee 5E       		.uleb128 .LEHE73-.LEHB73
 3158 01ef 00       		.uleb128 0
 3159 01f0 00       		.uleb128 0
 3160 01f1 77       		.uleb128 .LEHB74-.LFB1076
 3161 01f2 4E       		.uleb128 .LEHE74-.LEHB74
 3162 01f3 DA01     		.uleb128 .L135-.LFB1076
 3163 01f5 01       		.uleb128 0x1
 3164 01f6 D501     		.uleb128 .LEHB75-.LFB1076
 3165 01f8 05       		.uleb128 .LEHE75-.LEHB75
 3166 01f9 00       		.uleb128 0
 3167 01fa 00       		.uleb128 0
 3168 01fb E201     		.uleb128 .LEHB76-.LFB1076
 3169 01fd 38       		.uleb128 .LEHE76-.LEHB76
 3170 01fe C701     		.uleb128 .L136-.LFB1076
 3171 0200 00       		.uleb128 0
 3172 0201 9A02     		.uleb128 .LEHB77-.LFB1076
 3173 0203 05       		.uleb128 .LEHE77-.LEHB77
 3174 0204 00       		.uleb128 0
 3175 0205 00       		.uleb128 0
 3176              	.LLSDACSE1076:
 3177 0206 01       		.byte	0x1
 3178 0207 00       		.byte	0
 3179              		.align 4
 3180 0208 00000000 		.long	0
 3181              	
 3182              	.LLSDATT1076:
 3183              		.text
 3185              		.section	.rodata
 3186              	.LC37:
 3187 052c 43686563 		.string	"CheckCloseWithNaNFails"
 3187      6B436C6F 
 3187      73655769 
 3187      74684E61 
 3187      4E466169 
 3188              		.text
 3189 1425 90       		.align 2
 3191              	_ZN12_GLOBAL__N_126TestCheckCloseWithNaNFailsC2Ev:
 3192              	.LFB1078:
 119:TestChecks.cpp **** 
 120:TestChecks.cpp **** TEST(CheckCloseWithNaNFails)
 3193              		.loc 5 120 0
 3194              		.cfi_startproc
 3195 1426 55       		pushq	%rbp
 3196              		.cfi_def_cfa_offset 16
 3197              		.cfi_offset 6, -16
 3198 1427 4889E5   		movq	%rsp, %rbp
 3199              		.cfi_def_cfa_register 6
 3200 142a 4883EC10 		subq	$16, %rsp
 3201 142e 48897DF8 		movq	%rdi, -8(%rbp)
 3202              	.LBB45:
 3203              		.loc 5 120 0
 3204 1432 E8000000 		call	_ZN13UnitTestSuite12GetSuiteNameEv
 3204      00
 3205 1437 4889C2   		movq	%rax, %rdx
 3206 143a 488B45F8 		movq	-8(%rbp), %rax
 3207 143e 41B87800 		movl	$120, %r8d
 3207      0000
 3208 1444 B9000000 		movl	$.LC2, %ecx
 3208      00
 3209 1449 BE000000 		movl	$.LC37, %esi
 3209      00
 3210 144e 4889C7   		movq	%rax, %rdi
 3211 1451 E8000000 		call	_ZN8UnitTest4TestC2EPKcS2_S2_i
 3211      00
 3212 1456 488B45F8 		movq	-8(%rbp), %rax
 3213 145a 48C70000 		movq	$_ZTVN12_GLOBAL__N_126TestCheckCloseWithNaNFailsE+16, (%rax)
 3213      000000
 3214              	.LBE45:
 3215 1461 C9       		leave
 3216              		.cfi_def_cfa 7, 8
 3217 1462 C3       		ret
 3218              		.cfi_endproc
 3219              	.LFE1078:
 3221              		.set	_ZN12_GLOBAL__N_126TestCheckCloseWithNaNFailsC1Ev,_ZN12_GLOBAL__N_126TestCheckCloseWithNaNFai
 3222              		.local	_ZN12_GLOBAL__N_134testCheckCloseWithNaNFailsInstanceE
 3223              		.comm	_ZN12_GLOBAL__N_134testCheckCloseWithNaNFailsInstanceE,56,32
 3224              		.local	_ZN12_GLOBAL__N_127adderCheckCloseWithNaNFailsE
 3225              		.comm	_ZN12_GLOBAL__N_127adderCheckCloseWithNaNFailsE,1,1
 3226 1463 90       		.align 2
 3228              	_ZNK12_GLOBAL__N_126TestCheckCloseWithNaNFails7RunImplEv:
 3229              	.LFB1080:
 121:TestChecks.cpp **** {
 3230              		.loc 5 121 0
 3231              		.cfi_startproc
 3232              		.cfi_personality 0x3,__gxx_personality_v0
 3233              		.cfi_lsda 0x3,.LLSDA1080
 3234 1464 55       		pushq	%rbp
 3235              		.cfi_def_cfa_offset 16
 3236              		.cfi_offset 6, -16
 3237 1465 4889E5   		movq	%rsp, %rbp
 3238              		.cfi_def_cfa_register 6
 3239 1468 53       		pushq	%rbx
 3240 1469 4883EC68 		subq	$104, %rsp
 3241              		.cfi_offset 3, -24
 3242 146d 48897D98 		movq	%rdi, -104(%rbp)
 3243              	.LBB46:
 122:TestChecks.cpp ****     union
 123:TestChecks.cpp ****     {
 124:TestChecks.cpp ****         unsigned int bitpattern;
 125:TestChecks.cpp ****         float nan;
 126:TestChecks.cpp ****     };
 127:TestChecks.cpp ****     bitpattern = 0xFFFFFFFF;
 3244              		.loc 5 127 0
 3245 1471 C745A0FF 		movl	$-1, -96(%rbp)
 3245      FFFFFF
 128:TestChecks.cpp ****     TestResults results;
 3246              		.loc 5 128 0
 3247 1478 488D45B0 		leaq	-80(%rbp), %rax
 3248 147c BE000000 		movl	$0, %esi
 3248      00
 3249 1481 4889C7   		movq	%rax, %rdi
 3250              	.LEHB78:
 3251 1484 E8000000 		call	_ZN8UnitTest11TestResultsC1EPNS_12TestReporterE
 3251      00
 129:TestChecks.cpp ****     CheckClose(results, 3.0f, nan, 0.1f, TestDetails("", "", "", 0));
 3252              		.loc 5 129 0
 3253 1489 488D45D0 		leaq	-48(%rbp), %rax
 3254 148d 41B80000 		movl	$0, %r8d
 3254      0000
 3255 1493 B9000000 		movl	$.LC6, %ecx
 3255      00
 3256 1498 BA000000 		movl	$.LC6, %edx
 3256      00
 3257 149d BE000000 		movl	$.LC6, %esi
 3257      00
 3258 14a2 4889C7   		movq	%rax, %rdi
 3259 14a5 E8000000 		call	_ZN8UnitTest11TestDetailsC1EPKcS2_S2_i
 3259      00
 3260 14aa 8B050000 		movl	.LC31(%rip), %eax
 3260      0000
 3261 14b0 8945AC   		movl	%eax, -84(%rbp)
 3262 14b3 8B050000 		movl	.LC32(%rip), %eax
 3262      0000
 3263 14b9 8945A8   		movl	%eax, -88(%rbp)
 3264 14bc 488D7DD0 		leaq	-48(%rbp), %rdi
 3265 14c0 488D4DAC 		leaq	-84(%rbp), %rcx
 3266 14c4 488D55A0 		leaq	-96(%rbp), %rdx
 3267 14c8 488D75A8 		leaq	-88(%rbp), %rsi
 3268 14cc 488D45B0 		leaq	-80(%rbp), %rax
 3269 14d0 4989F8   		movq	%rdi, %r8
 3270 14d3 4889C7   		movq	%rax, %rdi
 3271 14d6 E8000000 		call	_ZN8UnitTest10CheckCloseIfffEEvRNS_11TestResultsERKT_RKT0_RKT1_RKNS_11TestDetailsE
 3271      00
 3272              	.LEHE78:
 3273              	.LEHB79:
 130:TestChecks.cpp ****     CHECK_EQUAL(1, results.GetFailureCount());
 3274              		.loc 5 130 0
 3275 14db E8000000 		call	_ZN8UnitTest11CurrentTest7DetailsEv
 3275      00
 3276 14e0 488B08   		movq	(%rax), %rcx
 3277 14e3 488D45D0 		leaq	-48(%rbp), %rax
 3278 14e7 BA820000 		movl	$130, %edx
 3278      00
 3279 14ec 4889CE   		movq	%rcx, %rsi
 3280 14ef 4889C7   		movq	%rax, %rdi
 3281 14f2 E8000000 		call	_ZN8UnitTest11TestDetailsC1ERKS0_i
 3281      00
 3282              		.loc 5 130 0 is_stmt 0 discriminator 1
 3283 14f7 488D45B0 		leaq	-80(%rbp), %rax
 3284 14fb 4889C7   		movq	%rax, %rdi
 3285 14fe E8000000 		call	_ZNK8UnitTest11TestResults15GetFailureCountEv
 3285      00
 3286 1503 8945AC   		movl	%eax, -84(%rbp)
 3287 1506 C745A801 		movl	$1, -88(%rbp)
 3287      000000
 3288 150d E8000000 		call	_ZN8UnitTest11CurrentTest7ResultsEv
 3288      00
 3289 1512 488B00   		movq	(%rax), %rax
 3290 1515 488D4DD0 		leaq	-48(%rbp), %rcx
 3291 1519 488D55AC 		leaq	-84(%rbp), %rdx
 3292 151d 488D75A8 		leaq	-88(%rbp), %rsi
 3293 1521 4889C7   		movq	%rax, %rdi
 3294 1524 E8000000 		call	_ZN8UnitTest10CheckEqualIiiEEvRNS_11TestResultsERKT_RKT0_RKNS_11TestDetailsE
 3294      00
 3295              	.LEHE79:
 3296              	.LBE46:
 131:TestChecks.cpp **** }
 3297              		.loc 5 131 0 is_stmt 1
 3298 1529 EB58     		jmp	.L145
 3299              	.L144:
 3300 152b 4889C3   		movq	%rax, %rbx
 3301              	.LBB47:
 130:TestChecks.cpp ****     CHECK_EQUAL(1, results.GetFailureCount());
 3302              		.loc 5 130 0
 3303 152e E8000000 		call	__cxa_end_catch
 3303      00
 3304 1533 4889D8   		movq	%rbx, %rax
 3305 1536 4889C7   		movq	%rax, %rdi
 3306              	.LEHB80:
 3307 1539 E8000000 		call	_Unwind_Resume
 3307      00
 3308              	.LEHE80:
 3309              	.L143:
 3310 153e 4889C7   		movq	%rax, %rdi
 3311 1541 E8000000 		call	__cxa_begin_catch
 3311      00
 3312              	.LEHB81:
 3313 1546 E8000000 		call	_ZN8UnitTest11CurrentTest7DetailsEv
 3313      00
 3314 154b 488B08   		movq	(%rax), %rcx
 3315 154e 488D45D0 		leaq	-48(%rbp), %rax
 3316 1552 BA820000 		movl	$130, %edx
 3316      00
 3317 1557 4889CE   		movq	%rcx, %rsi
 3318 155a 4889C7   		movq	%rax, %rdi
 3319 155d E8000000 		call	_ZN8UnitTest11TestDetailsC1ERKS0_i
 3319      00
 130:TestChecks.cpp ****     CHECK_EQUAL(1, results.GetFailureCount());
 3320              		.loc 5 130 0 is_stmt 0 discriminator 1
 3321 1562 E8000000 		call	_ZN8UnitTest11CurrentTest7ResultsEv
 3321      00
 3322 1567 488B00   		movq	(%rax), %rax
 3323 156a 488D4DD0 		leaq	-48(%rbp), %rcx
 3324 156e BA000000 		movl	$.LC7, %edx
 3324      00
 3325 1573 4889CE   		movq	%rcx, %rsi
 3326 1576 4889C7   		movq	%rax, %rdi
 3327 1579 E8000000 		call	_ZN8UnitTest11TestResults13OnTestFailureERKNS_11TestDetailsEPKc
 3327      00
 3328              	.LEHE81:
 3329              	.LEHB82:
 3330 157e E8000000 		call	__cxa_end_catch
 3330      00
 3331              	.LEHE82:
 3332              	.L145:
 3333              	.LBE47:
 3334              		.loc 5 131 0 is_stmt 1
 3335 1583 90       		nop
 3336 1584 4883C468 		addq	$104, %rsp
 3337 1588 5B       		popq	%rbx
 3338 1589 5D       		popq	%rbp
 3339              		.cfi_def_cfa 7, 8
 3340 158a C3       		ret
 3341              		.cfi_endproc
 3342              	.LFE1080:
 3343              		.section	.gcc_except_table
 3344              		.align 4
 3345              	.LLSDA1080:
 3346 020c FF       		.byte	0xff
 3347 020d 03       		.byte	0x3
 3348 020e 21       		.uleb128 .LLSDATT1080-.LLSDATTD1080
 3349              	.LLSDATTD1080:
 3350 020f 01       		.byte	0x1
 3351 0210 19       		.uleb128 .LLSDACSE1080-.LLSDACSB1080
 3352              	.LLSDACSB1080:
 3353 0211 20       		.uleb128 .LEHB78-.LFB1080
 3354 0212 57       		.uleb128 .LEHE78-.LEHB78
 3355 0213 00       		.uleb128 0
 3356 0214 00       		.uleb128 0
 3357 0215 77       		.uleb128 .LEHB79-.LFB1080
 3358 0216 4E       		.uleb128 .LEHE79-.LEHB79
 3359 0217 DA01     		.uleb128 .L143-.LFB1080
 3360 0219 01       		.uleb128 0x1
 3361 021a D501     		.uleb128 .LEHB80-.LFB1080
 3362 021c 05       		.uleb128 .LEHE80-.LEHB80
 3363 021d 00       		.uleb128 0
 3364 021e 00       		.uleb128 0
 3365 021f E201     		.uleb128 .LEHB81-.LFB1080
 3366 0221 38       		.uleb128 .LEHE81-.LEHB81
 3367 0222 C701     		.uleb128 .L144-.LFB1080
 3368 0224 00       		.uleb128 0
 3369 0225 9A02     		.uleb128 .LEHB82-.LFB1080
 3370 0227 05       		.uleb128 .LEHE82-.LEHB82
 3371 0228 00       		.uleb128 0
 3372 0229 00       		.uleb128 0
 3373              	.LLSDACSE1080:
 3374 022a 01       		.byte	0x1
 3375 022b 00       		.byte	0
 3376              		.align 4
 3377 022c 00000000 		.long	0
 3378              	
 3379              	.LLSDATT1080:
 3380              		.text
 3382              		.section	.rodata
 3383 0543 00000000 		.align 8
 3383      00
 3384              	.LC38:
 3385 0548 43686563 		.string	"CheckCloseWithNaNAgainstItselfFails"
 3385      6B436C6F 
 3385      73655769 
 3385      74684E61 
 3385      4E416761 
 3386              		.text
 3387 158b 90       		.align 2
 3389              	_ZN12_GLOBAL__N_139TestCheckCloseWithNaNAgainstItselfFailsC2Ev:
 3390              	.LFB1082:
 132:TestChecks.cpp **** 
 133:TestChecks.cpp **** TEST(CheckCloseWithNaNAgainstItselfFails)
 3391              		.loc 5 133 0
 3392              		.cfi_startproc
 3393 158c 55       		pushq	%rbp
 3394              		.cfi_def_cfa_offset 16
 3395              		.cfi_offset 6, -16
 3396 158d 4889E5   		movq	%rsp, %rbp
 3397              		.cfi_def_cfa_register 6
 3398 1590 4883EC10 		subq	$16, %rsp
 3399 1594 48897DF8 		movq	%rdi, -8(%rbp)
 3400              	.LBB48:
 3401              		.loc 5 133 0
 3402 1598 E8000000 		call	_ZN13UnitTestSuite12GetSuiteNameEv
 3402      00
 3403 159d 4889C2   		movq	%rax, %rdx
 3404 15a0 488B45F8 		movq	-8(%rbp), %rax
 3405 15a4 41B88500 		movl	$133, %r8d
 3405      0000
 3406 15aa B9000000 		movl	$.LC2, %ecx
 3406      00
 3407 15af BE000000 		movl	$.LC38, %esi
 3407      00
 3408 15b4 4889C7   		movq	%rax, %rdi
 3409 15b7 E8000000 		call	_ZN8UnitTest4TestC2EPKcS2_S2_i
 3409      00
 3410 15bc 488B45F8 		movq	-8(%rbp), %rax
 3411 15c0 48C70000 		movq	$_ZTVN12_GLOBAL__N_139TestCheckCloseWithNaNAgainstItselfFailsE+16, (%rax)
 3411      000000
 3412              	.LBE48:
 3413 15c7 C9       		leave
 3414              		.cfi_def_cfa 7, 8
 3415 15c8 C3       		ret
 3416              		.cfi_endproc
 3417              	.LFE1082:
 3419              		.set	_ZN12_GLOBAL__N_139TestCheckCloseWithNaNAgainstItselfFailsC1Ev,_ZN12_GLOBAL__N_139TestCheckCl
 3420              		.local	_ZN12_GLOBAL__N_147testCheckCloseWithNaNAgainstItselfFailsInstanceE
 3421              		.comm	_ZN12_GLOBAL__N_147testCheckCloseWithNaNAgainstItselfFailsInstanceE,56,32
 3422              		.local	_ZN12_GLOBAL__N_140adderCheckCloseWithNaNAgainstItselfFailsE
 3423              		.comm	_ZN12_GLOBAL__N_140adderCheckCloseWithNaNAgainstItselfFailsE,1,1
 3424 15c9 90       		.align 2
 3426              	_ZNK12_GLOBAL__N_139TestCheckCloseWithNaNAgainstItselfFails7RunImplEv:
 3427              	.LFB1084:
 134:TestChecks.cpp **** {
 3428              		.loc 5 134 0
 3429              		.cfi_startproc
 3430              		.cfi_personality 0x3,__gxx_personality_v0
 3431              		.cfi_lsda 0x3,.LLSDA1084
 3432 15ca 55       		pushq	%rbp
 3433              		.cfi_def_cfa_offset 16
 3434              		.cfi_offset 6, -16
 3435 15cb 4889E5   		movq	%rsp, %rbp
 3436              		.cfi_def_cfa_register 6
 3437 15ce 53       		pushq	%rbx
 3438 15cf 4883EC68 		subq	$104, %rsp
 3439              		.cfi_offset 3, -24
 3440 15d3 48897D98 		movq	%rdi, -104(%rbp)
 3441              	.LBB49:
 135:TestChecks.cpp ****     union
 136:TestChecks.cpp ****     {
 137:TestChecks.cpp ****         unsigned int bitpattern;
 138:TestChecks.cpp ****         float nan;
 139:TestChecks.cpp ****     };
 140:TestChecks.cpp ****     bitpattern = 0xFFFFFFFF;
 3442              		.loc 5 140 0
 3443 15d7 C745A0FF 		movl	$-1, -96(%rbp)
 3443      FFFFFF
 141:TestChecks.cpp ****     TestResults results;
 3444              		.loc 5 141 0
 3445 15de 488D45B0 		leaq	-80(%rbp), %rax
 3446 15e2 BE000000 		movl	$0, %esi
 3446      00
 3447 15e7 4889C7   		movq	%rax, %rdi
 3448              	.LEHB83:
 3449 15ea E8000000 		call	_ZN8UnitTest11TestResultsC1EPNS_12TestReporterE
 3449      00
 142:TestChecks.cpp ****     CheckClose(results, nan, nan, 0.1f, TestDetails("", "", "", 0));
 3450              		.loc 5 142 0
 3451 15ef 488D45D0 		leaq	-48(%rbp), %rax
 3452 15f3 41B80000 		movl	$0, %r8d
 3452      0000
 3453 15f9 B9000000 		movl	$.LC6, %ecx
 3453      00
 3454 15fe BA000000 		movl	$.LC6, %edx
 3454      00
 3455 1603 BE000000 		movl	$.LC6, %esi
 3455      00
 3456 1608 4889C7   		movq	%rax, %rdi
 3457 160b E8000000 		call	_ZN8UnitTest11TestDetailsC1EPKcS2_S2_i
 3457      00
 3458 1610 8B050000 		movl	.LC31(%rip), %eax
 3458      0000
 3459 1616 8945AC   		movl	%eax, -84(%rbp)
 3460 1619 488D7DD0 		leaq	-48(%rbp), %rdi
 3461 161d 488D4DAC 		leaq	-84(%rbp), %rcx
 3462 1621 488D55A0 		leaq	-96(%rbp), %rdx
 3463 1625 488D75A0 		leaq	-96(%rbp), %rsi
 3464 1629 488D45B0 		leaq	-80(%rbp), %rax
 3465 162d 4989F8   		movq	%rdi, %r8
 3466 1630 4889C7   		movq	%rax, %rdi
 3467 1633 E8000000 		call	_ZN8UnitTest10CheckCloseIfffEEvRNS_11TestResultsERKT_RKT0_RKT1_RKNS_11TestDetailsE
 3467      00
 3468              	.LEHE83:
 3469              	.LEHB84:
 143:TestChecks.cpp ****     CHECK_EQUAL(1, results.GetFailureCount());
 3470              		.loc 5 143 0
 3471 1638 E8000000 		call	_ZN8UnitTest11CurrentTest7DetailsEv
 3471      00
 3472 163d 488B08   		movq	(%rax), %rcx
 3473 1640 488D45D0 		leaq	-48(%rbp), %rax
 3474 1644 BA8F0000 		movl	$143, %edx
 3474      00
 3475 1649 4889CE   		movq	%rcx, %rsi
 3476 164c 4889C7   		movq	%rax, %rdi
 3477 164f E8000000 		call	_ZN8UnitTest11TestDetailsC1ERKS0_i
 3477      00
 3478              		.loc 5 143 0 is_stmt 0 discriminator 1
 3479 1654 488D45B0 		leaq	-80(%rbp), %rax
 3480 1658 4889C7   		movq	%rax, %rdi
 3481 165b E8000000 		call	_ZNK8UnitTest11TestResults15GetFailureCountEv
 3481      00
 3482 1660 8945AC   		movl	%eax, -84(%rbp)
 3483 1663 C745A801 		movl	$1, -88(%rbp)
 3483      000000
 3484 166a E8000000 		call	_ZN8UnitTest11CurrentTest7ResultsEv
 3484      00
 3485 166f 488B00   		movq	(%rax), %rax
 3486 1672 488D4DD0 		leaq	-48(%rbp), %rcx
 3487 1676 488D55AC 		leaq	-84(%rbp), %rdx
 3488 167a 488D75A8 		leaq	-88(%rbp), %rsi
 3489 167e 4889C7   		movq	%rax, %rdi
 3490 1681 E8000000 		call	_ZN8UnitTest10CheckEqualIiiEEvRNS_11TestResultsERKT_RKT0_RKNS_11TestDetailsE
 3490      00
 3491              	.LEHE84:
 3492              	.LBE49:
 144:TestChecks.cpp **** }
 3493              		.loc 5 144 0 is_stmt 1
 3494 1686 EB58     		jmp	.L153
 3495              	.L152:
 3496 1688 4889C3   		movq	%rax, %rbx
 3497              	.LBB50:
 143:TestChecks.cpp ****     CHECK_EQUAL(1, results.GetFailureCount());
 3498              		.loc 5 143 0
 3499 168b E8000000 		call	__cxa_end_catch
 3499      00
 3500 1690 4889D8   		movq	%rbx, %rax
 3501 1693 4889C7   		movq	%rax, %rdi
 3502              	.LEHB85:
 3503 1696 E8000000 		call	_Unwind_Resume
 3503      00
 3504              	.LEHE85:
 3505              	.L151:
 3506 169b 4889C7   		movq	%rax, %rdi
 3507 169e E8000000 		call	__cxa_begin_catch
 3507      00
 3508              	.LEHB86:
 3509 16a3 E8000000 		call	_ZN8UnitTest11CurrentTest7DetailsEv
 3509      00
 3510 16a8 488B08   		movq	(%rax), %rcx
 3511 16ab 488D45D0 		leaq	-48(%rbp), %rax
 3512 16af BA8F0000 		movl	$143, %edx
 3512      00
 3513 16b4 4889CE   		movq	%rcx, %rsi
 3514 16b7 4889C7   		movq	%rax, %rdi
 3515 16ba E8000000 		call	_ZN8UnitTest11TestDetailsC1ERKS0_i
 3515      00
 143:TestChecks.cpp ****     CHECK_EQUAL(1, results.GetFailureCount());
 3516              		.loc 5 143 0 is_stmt 0 discriminator 1
 3517 16bf E8000000 		call	_ZN8UnitTest11CurrentTest7ResultsEv
 3517      00
 3518 16c4 488B00   		movq	(%rax), %rax
 3519 16c7 488D4DD0 		leaq	-48(%rbp), %rcx
 3520 16cb BA000000 		movl	$.LC7, %edx
 3520      00
 3521 16d0 4889CE   		movq	%rcx, %rsi
 3522 16d3 4889C7   		movq	%rax, %rdi
 3523 16d6 E8000000 		call	_ZN8UnitTest11TestResults13OnTestFailureERKNS_11TestDetailsEPKc
 3523      00
 3524              	.LEHE86:
 3525              	.LEHB87:
 3526 16db E8000000 		call	__cxa_end_catch
 3526      00
 3527              	.LEHE87:
 3528              	.L153:
 3529              	.LBE50:
 3530              		.loc 5 144 0 is_stmt 1
 3531 16e0 90       		nop
 3532 16e1 4883C468 		addq	$104, %rsp
 3533 16e5 5B       		popq	%rbx
 3534 16e6 5D       		popq	%rbp
 3535              		.cfi_def_cfa 7, 8
 3536 16e7 C3       		ret
 3537              		.cfi_endproc
 3538              	.LFE1084:
 3539              		.section	.gcc_except_table
 3540              		.align 4
 3541              	.LLSDA1084:
 3542 0230 FF       		.byte	0xff
 3543 0231 03       		.byte	0x3
 3544 0232 21       		.uleb128 .LLSDATT1084-.LLSDATTD1084
 3545              	.LLSDATTD1084:
 3546 0233 01       		.byte	0x1
 3547 0234 19       		.uleb128 .LLSDACSE1084-.LLSDACSB1084
 3548              	.LLSDACSB1084:
 3549 0235 20       		.uleb128 .LEHB83-.LFB1084
 3550 0236 4E       		.uleb128 .LEHE83-.LEHB83
 3551 0237 00       		.uleb128 0
 3552 0238 00       		.uleb128 0
 3553 0239 6E       		.uleb128 .LEHB84-.LFB1084
 3554 023a 4E       		.uleb128 .LEHE84-.LEHB84
 3555 023b D101     		.uleb128 .L151-.LFB1084
 3556 023d 01       		.uleb128 0x1
 3557 023e CC01     		.uleb128 .LEHB85-.LFB1084
 3558 0240 05       		.uleb128 .LEHE85-.LEHB85
 3559 0241 00       		.uleb128 0
 3560 0242 00       		.uleb128 0
 3561 0243 D901     		.uleb128 .LEHB86-.LFB1084
 3562 0245 38       		.uleb128 .LEHE86-.LEHB86
 3563 0246 BE01     		.uleb128 .L152-.LFB1084
 3564 0248 00       		.uleb128 0
 3565 0249 9102     		.uleb128 .LEHB87-.LFB1084
 3566 024b 05       		.uleb128 .LEHE87-.LEHB87
 3567 024c 00       		.uleb128 0
 3568 024d 00       		.uleb128 0
 3569              	.LLSDACSE1084:
 3570 024e 01       		.byte	0x1
 3571 024f 00       		.byte	0
 3572              		.align 4
 3573 0250 00000000 		.long	0
 3574              	
 3575              	.LLSDATT1084:
 3576              		.text
 3578              		.section	.rodata
 3579 056c 00000000 		.align 8
 3580              	.LC39:
 3581 0570 43686563 		.string	"CheckCloseFailureIncludesCheckExpectedAndActual"
 3581      6B436C6F 
 3581      73654661 
 3581      696C7572 
 3581      65496E63 
 3582              		.text
 3583              		.align 2
 3585              	_ZN12_GLOBAL__N_151TestCheckCloseFailureIncludesCheckExpectedAndActualC2Ev:
 3586              	.LFB1086:
 145:TestChecks.cpp **** 
 146:TestChecks.cpp **** TEST(CheckCloseFailureIncludesCheckExpectedAndActual)
 3587              		.loc 5 146 0
 3588              		.cfi_startproc
 3589 16e8 55       		pushq	%rbp
 3590              		.cfi_def_cfa_offset 16
 3591              		.cfi_offset 6, -16
 3592 16e9 4889E5   		movq	%rsp, %rbp
 3593              		.cfi_def_cfa_register 6
 3594 16ec 4883EC10 		subq	$16, %rsp
 3595 16f0 48897DF8 		movq	%rdi, -8(%rbp)
 3596              	.LBB51:
 3597              		.loc 5 146 0
 3598 16f4 E8000000 		call	_ZN13UnitTestSuite12GetSuiteNameEv
 3598      00
 3599 16f9 4889C2   		movq	%rax, %rdx
 3600 16fc 488B45F8 		movq	-8(%rbp), %rax
 3601 1700 41B89200 		movl	$146, %r8d
 3601      0000
 3602 1706 B9000000 		movl	$.LC2, %ecx
 3602      00
 3603 170b BE000000 		movl	$.LC39, %esi
 3603      00
 3604 1710 4889C7   		movq	%rax, %rdi
 3605 1713 E8000000 		call	_ZN8UnitTest4TestC2EPKcS2_S2_i
 3605      00
 3606 1718 488B45F8 		movq	-8(%rbp), %rax
 3607 171c 48C70000 		movq	$_ZTVN12_GLOBAL__N_151TestCheckCloseFailureIncludesCheckExpectedAndActualE+16, (%rax)
 3607      000000
 3608              	.LBE51:
 3609 1723 C9       		leave
 3610              		.cfi_def_cfa 7, 8
 3611 1724 C3       		ret
 3612              		.cfi_endproc
 3613              	.LFE1086:
 3615              		.set	_ZN12_GLOBAL__N_151TestCheckCloseFailureIncludesCheckExpectedAndActualC1Ev,_ZN12_GLOBAL__N_15
 3616              		.local	_ZN12_GLOBAL__N_159testCheckCloseFailureIncludesCheckExpectedAndActualInstanceE
 3617              		.comm	_ZN12_GLOBAL__N_159testCheckCloseFailureIncludesCheckExpectedAndActualInstanceE,56,32
 3618              		.local	_ZN12_GLOBAL__N_152adderCheckCloseFailureIncludesCheckExpectedAndActualE
 3619              		.comm	_ZN12_GLOBAL__N_152adderCheckCloseFailureIncludesCheckExpectedAndActualE,1,1
 3620              		.section	.rodata
 3621              	.LC43:
 3622 05a0 78706563 		.string	"xpected 0.9"
 3622      74656420 
 3622      302E3900 
 3623 05ac 00000000 		.align 8
 3624              	.LC44:
 3625 05b0 73747273 		.string	"strstr(reporter.lastFailedMessage, \"xpected 0.9\")"
 3625      74722872 
 3625      65706F72 
 3625      7465722E 
 3625      6C617374 
 3626              	.LC45:
 3627 05e2 77617320 		.string	"was 1.1"
 3627      312E3100 
 3628 05ea 00000000 		.align 8
 3628      0000
 3629              	.LC46:
 3630 05f0 73747273 		.string	"strstr(reporter.lastFailedMessage, \"was 1.1\")"
 3630      74722872 
 3630      65706F72 
 3630      7465722E 
 3630      6C617374 
 3631 061e 0000     		.align 8
 3632              	.LC47:
 3633 0620 556E6861 		.string	"Unhandled exception in CHECK(strstr(reporter.lastFailedMessage, \"xpected 0.9\"))"
 3633      6E646C65 
 3633      64206578 
 3633      63657074 
 3633      696F6E20 
 3634              		.align 8
 3635              	.LC48:
 3636 0670 556E6861 		.string	"Unhandled exception in CHECK(strstr(reporter.lastFailedMessage, \"was 1.1\"))"
 3636      6E646C65 
 3636      64206578 
 3636      63657074 
 3636      696F6E20 
 3637              		.text
 3638 1725 90       		.align 2
 3640              	_ZNK12_GLOBAL__N_151TestCheckCloseFailureIncludesCheckExpectedAndActual7RunImplEv:
 3641              	.LFB1088:
 147:TestChecks.cpp **** {
 3642              		.loc 5 147 0
 3643              		.cfi_startproc
 3644              		.cfi_personality 0x3,__gxx_personality_v0
 3645              		.cfi_lsda 0x3,.LLSDA1088
 3646 1726 55       		pushq	%rbp
 3647              		.cfi_def_cfa_offset 16
 3648              		.cfi_offset 6, -16
 3649 1727 4889E5   		movq	%rsp, %rbp
 3650              		.cfi_def_cfa_register 6
 3651 172a 53       		pushq	%rbx
 3652 172b 4881ECA8 		subq	$2216, %rsp
 3652      080000
 3653              		.cfi_offset 3, -24
 3654 1732 4889BD58 		movq	%rdi, -2216(%rbp)
 3654      F7FFFF
 3655              		.loc 5 147 0
 3656 1739 64488B04 		movq	%fs:40, %rax
 3656      25280000 
 3656      00
 3657 1742 488945E8 		movq	%rax, -24(%rbp)
 3658 1746 31C0     		xorl	%eax, %eax
 3659              	.LBB52:
 148:TestChecks.cpp ****     RecordingReporter reporter;
 3660              		.loc 5 148 0
 3661 1748 488D85B0 		leaq	-2128(%rbp), %rax
 3661      F7FFFF
 3662 174f 4889C7   		movq	%rax, %rdi
 3663 1752 E8000000 		call	_ZN17RecordingReporterC1Ev
 3663      00
 149:TestChecks.cpp ****     TestResults results(&reporter);
 3664              		.loc 5 149 0
 3665 1757 488D95B0 		leaq	-2128(%rbp), %rdx
 3665      F7FFFF
 3666 175e 488D8570 		leaq	-2192(%rbp), %rax
 3666      F7FFFF
 3667 1765 4889D6   		movq	%rdx, %rsi
 3668 1768 4889C7   		movq	%rax, %rdi
 3669              	.LEHB88:
 3670 176b E8000000 		call	_ZN8UnitTest11TestResultsC1EPNS_12TestReporterE
 3670      00
 150:TestChecks.cpp ****     const float expected = 0.9f;
 3671              		.loc 5 150 0
 3672 1770 8B050000 		movl	.LC40(%rip), %eax
 3672      0000
 3673 1776 898564F7 		movl	%eax, -2204(%rbp)
 3673      FFFF
 151:TestChecks.cpp ****     const float actual = 1.1f;
 3674              		.loc 5 151 0
 3675 177c 8B050000 		movl	.LC41(%rip), %eax
 3675      0000
 3676 1782 898568F7 		movl	%eax, -2200(%rbp)
 3676      FFFF
 152:TestChecks.cpp ****     CheckClose(results, expected, actual, 0.01f, TestDetails("", "", "", 0));
 3677              		.loc 5 152 0
 3678 1788 488D8590 		leaq	-2160(%rbp), %rax
 3678      F7FFFF
 3679 178f 41B80000 		movl	$0, %r8d
 3679      0000
 3680 1795 B9000000 		movl	$.LC6, %ecx
 3680      00
 3681 179a BA000000 		movl	$.LC6, %edx
 3681      00
 3682 179f BE000000 		movl	$.LC6, %esi
 3682      00
 3683 17a4 4889C7   		movq	%rax, %rdi
 3684 17a7 E8000000 		call	_ZN8UnitTest11TestDetailsC1EPKcS2_S2_i
 3684      00
 3685              		.loc 5 152 0 is_stmt 0 discriminator 1
 3686 17ac 8B050000 		movl	.LC42(%rip), %eax
 3686      0000
 3687 17b2 89856CF7 		movl	%eax, -2196(%rbp)
 3687      FFFF
 3688 17b8 488DBD90 		leaq	-2160(%rbp), %rdi
 3688      F7FFFF
 3689 17bf 488D8D6C 		leaq	-2196(%rbp), %rcx
 3689      F7FFFF
 3690 17c6 488D9568 		leaq	-2200(%rbp), %rdx
 3690      F7FFFF
 3691 17cd 488DB564 		leaq	-2204(%rbp), %rsi
 3691      F7FFFF
 3692 17d4 488D8570 		leaq	-2192(%rbp), %rax
 3692      F7FFFF
 3693 17db 4989F8   		movq	%rdi, %r8
 3694 17de 4889C7   		movq	%rax, %rdi
 3695 17e1 E8000000 		call	_ZN8UnitTest10CheckCloseIfffEEvRNS_11TestResultsERKT_RKT0_RKT1_RKNS_11TestDetailsE
 3695      00
 3696              	.LEHE88:
 153:TestChecks.cpp **** 
 154:TestChecks.cpp **** 	using namespace std;
 155:TestChecks.cpp ****     CHECK(strstr(reporter.lastFailedMessage, "xpected 0.9"));
 3697              		.loc 5 155 0 is_stmt 1 discriminator 1
 3698 17e6 488D85B0 		leaq	-2128(%rbp), %rax
 3698      F7FFFF
 3699 17ed 48051405 		addq	$1300, %rax
 3699      0000
 3700 17f3 BE000000 		movl	$.LC43, %esi
 3700      00
 3701 17f8 4889C7   		movq	%rax, %rdi
 3702 17fb E8000000 		call	strstr
 3702      00
 3703 1800 4889C7   		movq	%rax, %rdi
 3704 1803 E8000000 		call	_ZN8UnitTest5CheckIPcEEbT_
 3704      00
 3705 1808 83F001   		xorl	$1, %eax
 3706 180b 84C0     		testb	%al, %al
 3707 180d 743E     		je	.L156
 3708              	.LEHB89:
 3709 180f E8000000 		call	_ZN8UnitTest11CurrentTest7DetailsEv
 3709      00
 3710 1814 488B08   		movq	(%rax), %rcx
 3711 1817 488D8590 		leaq	-2160(%rbp), %rax
 3711      F7FFFF
 3712 181e BA9B0000 		movl	$155, %edx
 3712      00
 3713 1823 4889CE   		movq	%rcx, %rsi
 3714 1826 4889C7   		movq	%rax, %rdi
 3715 1829 E8000000 		call	_ZN8UnitTest11TestDetailsC1ERKS0_i
 3715      00
 3716 182e E8000000 		call	_ZN8UnitTest11CurrentTest7ResultsEv
 3716      00
 3717 1833 488B00   		movq	(%rax), %rax
 3718 1836 488D8D90 		leaq	-2160(%rbp), %rcx
 3718      F7FFFF
 3719 183d BA000000 		movl	$.LC44, %edx
 3719      00
 3720 1842 4889CE   		movq	%rcx, %rsi
 3721 1845 4889C7   		movq	%rax, %rdi
 3722 1848 E8000000 		call	_ZN8UnitTest11TestResults13OnTestFailureERKNS_11TestDetailsEPKc
 3722      00
 3723              	.LEHE89:
 3724              	.L156:
 156:TestChecks.cpp ****     CHECK(strstr(reporter.lastFailedMessage, "was 1.1"));
 3725              		.loc 5 156 0
 3726 184d 488D85B0 		leaq	-2128(%rbp), %rax
 3726      F7FFFF
 3727 1854 48051405 		addq	$1300, %rax
 3727      0000
 3728 185a BE000000 		movl	$.LC45, %esi
 3728      00
 3729 185f 4889C7   		movq	%rax, %rdi
 3730 1862 E8000000 		call	strstr
 3730      00
 3731 1867 4889C7   		movq	%rax, %rdi
 3732 186a E8000000 		call	_ZN8UnitTest5CheckIPcEEbT_
 3732      00
 3733 186f 83F001   		xorl	$1, %eax
 3734 1872 84C0     		testb	%al, %al
 3735 1874 743E     		je	.L157
 3736              	.LEHB90:
 3737              		.loc 5 156 0 is_stmt 0 discriminator 1
 3738 1876 E8000000 		call	_ZN8UnitTest11CurrentTest7DetailsEv
 3738      00
 3739 187b 488B08   		movq	(%rax), %rcx
 3740 187e 488D8590 		leaq	-2160(%rbp), %rax
 3740      F7FFFF
 3741 1885 BA9C0000 		movl	$156, %edx
 3741      00
 3742 188a 4889CE   		movq	%rcx, %rsi
 3743 188d 4889C7   		movq	%rax, %rdi
 3744 1890 E8000000 		call	_ZN8UnitTest11TestDetailsC1ERKS0_i
 3744      00
 3745 1895 E8000000 		call	_ZN8UnitTest11CurrentTest7ResultsEv
 3745      00
 3746 189a 488B00   		movq	(%rax), %rax
 3747 189d 488D8D90 		leaq	-2160(%rbp), %rcx
 3747      F7FFFF
 3748 18a4 BA000000 		movl	$.LC46, %edx
 3748      00
 3749 18a9 4889CE   		movq	%rcx, %rsi
 3750 18ac 4889C7   		movq	%rax, %rdi
 3751 18af E8000000 		call	_ZN8UnitTest11TestResults13OnTestFailureERKNS_11TestDetailsEPKc
 3751      00
 3752              	.LEHE90:
 3753              	.L157:
 3754              		.loc 5 156 0 discriminator 2
 3755 18b4 488D85B0 		leaq	-2128(%rbp), %rax
 3755      F7FFFF
 3756 18bb 4889C7   		movq	%rax, %rdi
 3757              	.LEHB91:
 3758 18be E8000000 		call	_ZN17RecordingReporterD1Ev
 3758      00
 3759              	.LEHE91:
 3760              	.LBE52:
 157:TestChecks.cpp **** }
 3761              		.loc 5 157 0 is_stmt 1 discriminator 2
 3762 18c3 488B45E8 		movq	-24(%rbp), %rax
 3763 18c7 64483304 		xorq	%fs:40, %rax
 3763      25280000 
 3763      00
 3764 18d0 0F84DE00 		je	.L163
 3764      0000
 3765 18d6 E9D40000 		jmp	.L169
 3765      00
 3766              	.L166:
 3767 18db 4889C3   		movq	%rax, %rbx
 3768              	.LBB53:
 155:TestChecks.cpp ****     CHECK(strstr(reporter.lastFailedMessage, "was 1.1"));
 3769              		.loc 5 155 0
 3770 18de E8000000 		call	__cxa_end_catch
 3770      00
 3771 18e3 E9AD0000 		jmp	.L159
 3771      00
 3772              	.L165:
 3773 18e8 4889C7   		movq	%rax, %rdi
 3774 18eb E8000000 		call	__cxa_begin_catch
 3774      00
 3775              	.LEHB92:
 3776 18f0 E8000000 		call	_ZN8UnitTest11CurrentTest7DetailsEv
 3776      00
 3777 18f5 488B08   		movq	(%rax), %rcx
 3778 18f8 488D8590 		leaq	-2160(%rbp), %rax
 3778      F7FFFF
 3779 18ff BA9B0000 		movl	$155, %edx
 3779      00
 3780 1904 4889CE   		movq	%rcx, %rsi
 3781 1907 4889C7   		movq	%rax, %rdi
 3782 190a E8000000 		call	_ZN8UnitTest11TestDetailsC1ERKS0_i
 3782      00
 155:TestChecks.cpp ****     CHECK(strstr(reporter.lastFailedMessage, "was 1.1"));
 3783              		.loc 5 155 0 is_stmt 0 discriminator 1
 3784 190f E8000000 		call	_ZN8UnitTest11CurrentTest7ResultsEv
 3784      00
 3785 1914 488B00   		movq	(%rax), %rax
 3786 1917 488D8D90 		leaq	-2160(%rbp), %rcx
 3786      F7FFFF
 3787 191e BA000000 		movl	$.LC47, %edx
 3787      00
 3788 1923 4889CE   		movq	%rcx, %rsi
 3789 1926 4889C7   		movq	%rax, %rdi
 3790 1929 E8000000 		call	_ZN8UnitTest11TestResults13OnTestFailureERKNS_11TestDetailsEPKc
 3790      00
 3791              	.LEHE92:
 3792              	.LEHB93:
 3793 192e E8000000 		call	__cxa_end_catch
 3793      00
 3794              	.LEHE93:
 155:TestChecks.cpp ****     CHECK(strstr(reporter.lastFailedMessage, "was 1.1"));
 3795              		.loc 5 155 0
 3796 1933 E915FFFF 		jmp	.L156
 3796      FF
 3797              	.L168:
 3798 1938 4889C3   		movq	%rax, %rbx
 156:TestChecks.cpp ****     CHECK(strstr(reporter.lastFailedMessage, "was 1.1"));
 3799              		.loc 5 156 0 is_stmt 1
 3800 193b E8000000 		call	__cxa_end_catch
 3800      00
 3801 1940 EB53     		jmp	.L159
 3802              	.L167:
 3803 1942 4889C7   		movq	%rax, %rdi
 3804 1945 E8000000 		call	__cxa_begin_catch
 3804      00
 3805              	.LEHB94:
 3806 194a E8000000 		call	_ZN8UnitTest11CurrentTest7DetailsEv
 3806      00
 3807 194f 488B08   		movq	(%rax), %rcx
 3808 1952 488D8590 		leaq	-2160(%rbp), %rax
 3808      F7FFFF
 3809 1959 BA9C0000 		movl	$156, %edx
 3809      00
 3810 195e 4889CE   		movq	%rcx, %rsi
 3811 1961 4889C7   		movq	%rax, %rdi
 3812 1964 E8000000 		call	_ZN8UnitTest11TestDetailsC1ERKS0_i
 3812      00
 156:TestChecks.cpp ****     CHECK(strstr(reporter.lastFailedMessage, "was 1.1"));
 3813              		.loc 5 156 0 is_stmt 0 discriminator 1
 3814 1969 E8000000 		call	_ZN8UnitTest11CurrentTest7ResultsEv
 3814      00
 3815 196e 488B00   		movq	(%rax), %rax
 3816 1971 488D8D90 		leaq	-2160(%rbp), %rcx
 3816      F7FFFF
 3817 1978 BA000000 		movl	$.LC48, %edx
 3817      00
 3818 197d 4889CE   		movq	%rcx, %rsi
 3819 1980 4889C7   		movq	%rax, %rdi
 3820 1983 E8000000 		call	_ZN8UnitTest11TestResults13OnTestFailureERKNS_11TestDetailsEPKc
 3820      00
 3821              	.LEHE94:
 3822              	.LEHB95:
 3823 1988 E8000000 		call	__cxa_end_catch
 3823      00
 3824              	.LEHE95:
 156:TestChecks.cpp ****     CHECK(strstr(reporter.lastFailedMessage, "was 1.1"));
 3825              		.loc 5 156 0
 3826 198d E922FFFF 		jmp	.L157
 3826      FF
 3827              	.L164:
 3828 1992 4889C3   		movq	%rax, %rbx
 3829              	.L159:
 3830 1995 488D85B0 		leaq	-2128(%rbp), %rax
 3830      F7FFFF
 3831 199c 4889C7   		movq	%rax, %rdi
 3832 199f E8000000 		call	_ZN17RecordingReporterD1Ev
 3832      00
 3833 19a4 4889D8   		movq	%rbx, %rax
 3834 19a7 4889C7   		movq	%rax, %rdi
 3835              	.LEHB96:
 3836 19aa E8000000 		call	_Unwind_Resume
 3836      00
 3837              	.LEHE96:
 3838              	.L169:
 3839              	.LBE53:
 3840              		.loc 5 157 0 is_stmt 1
 3841 19af E8000000 		call	__stack_chk_fail
 3841      00
 3842              	.L163:
 3843 19b4 4881C4A8 		addq	$2216, %rsp
 3843      080000
 3844 19bb 5B       		popq	%rbx
 3845 19bc 5D       		popq	%rbp
 3846              		.cfi_def_cfa 7, 8
 3847 19bd C3       		ret
 3848              		.cfi_endproc
 3849              	.LFE1088:
 3850              		.section	.gcc_except_table
 3851              		.align 4
 3852              	.LLSDA1088:
 3853 0254 FF       		.byte	0xff
 3854 0255 03       		.byte	0x3
 3855 0256 3D       		.uleb128 .LLSDATT1088-.LLSDATTD1088
 3856              	.LLSDATTD1088:
 3857 0257 01       		.byte	0x1
 3858 0258 33       		.uleb128 .LLSDACSE1088-.LLSDACSB1088
 3859              	.LLSDACSB1088:
 3860 0259 45       		.uleb128 .LEHB88-.LFB1088
 3861 025a 7B       		.uleb128 .LEHE88-.LEHB88
 3862 025b EC04     		.uleb128 .L164-.LFB1088
 3863 025d 00       		.uleb128 0
 3864 025e E901     		.uleb128 .LEHB89-.LFB1088
 3865 0260 3E       		.uleb128 .LEHE89-.LEHB89
 3866 0261 C203     		.uleb128 .L165-.LFB1088
 3867 0263 01       		.uleb128 0x1
 3868 0264 D002     		.uleb128 .LEHB90-.LFB1088
 3869 0266 3E       		.uleb128 .LEHE90-.LEHB90
 3870 0267 9C04     		.uleb128 .L167-.LFB1088
 3871 0269 01       		.uleb128 0x1
 3872 026a 9803     		.uleb128 .LEHB91-.LFB1088
 3873 026c 05       		.uleb128 .LEHE91-.LEHB91
 3874 026d 00       		.uleb128 0
 3875 026e 00       		.uleb128 0
 3876 026f CA03     		.uleb128 .LEHB92-.LFB1088
 3877 0271 3E       		.uleb128 .LEHE92-.LEHB92
 3878 0272 B503     		.uleb128 .L166-.LFB1088
 3879 0274 00       		.uleb128 0
 3880 0275 8804     		.uleb128 .LEHB93-.LFB1088
 3881 0277 05       		.uleb128 .LEHE93-.LEHB93
 3882 0278 EC04     		.uleb128 .L164-.LFB1088
 3883 027a 00       		.uleb128 0
 3884 027b A404     		.uleb128 .LEHB94-.LFB1088
 3885 027d 3E       		.uleb128 .LEHE94-.LEHB94
 3886 027e 9204     		.uleb128 .L168-.LFB1088
 3887 0280 00       		.uleb128 0
 3888 0281 E204     		.uleb128 .LEHB95-.LFB1088
 3889 0283 05       		.uleb128 .LEHE95-.LEHB95
 3890 0284 EC04     		.uleb128 .L164-.LFB1088
 3891 0286 00       		.uleb128 0
 3892 0287 8405     		.uleb128 .LEHB96-.LFB1088
 3893 0289 05       		.uleb128 .LEHE96-.LEHB96
 3894 028a 00       		.uleb128 0
 3895 028b 00       		.uleb128 0
 3896              	.LLSDACSE1088:
 3897 028c 01       		.byte	0x1
 3898 028d 00       		.byte	0
 3899 028e 0000     		.align 4
 3900 0290 00000000 		.long	0
 3901              	
 3902              	.LLSDATT1088:
 3903              		.text
 3905              		.section	.rodata
 3906 06bc 00000000 		.align 8
 3907              	.LC49:
 3908 06c0 43686563 		.string	"CheckCloseFailureIncludesTolerance"
 3908      6B436C6F 
 3908      73654661 
 3908      696C7572 
 3908      65496E63 
 3909              		.text
 3910              		.align 2
 3912              	_ZN12_GLOBAL__N_138TestCheckCloseFailureIncludesToleranceC2Ev:
 3913              	.LFB1090:
 158:TestChecks.cpp **** 
 159:TestChecks.cpp **** TEST(CheckCloseFailureIncludesTolerance)
 3914              		.loc 5 159 0
 3915              		.cfi_startproc
 3916 19be 55       		pushq	%rbp
 3917              		.cfi_def_cfa_offset 16
 3918              		.cfi_offset 6, -16
 3919 19bf 4889E5   		movq	%rsp, %rbp
 3920              		.cfi_def_cfa_register 6
 3921 19c2 4883EC10 		subq	$16, %rsp
 3922 19c6 48897DF8 		movq	%rdi, -8(%rbp)
 3923              	.LBB54:
 3924              		.loc 5 159 0
 3925 19ca E8000000 		call	_ZN13UnitTestSuite12GetSuiteNameEv
 3925      00
 3926 19cf 4889C2   		movq	%rax, %rdx
 3927 19d2 488B45F8 		movq	-8(%rbp), %rax
 3928 19d6 41B89F00 		movl	$159, %r8d
 3928      0000
 3929 19dc B9000000 		movl	$.LC2, %ecx
 3929      00
 3930 19e1 BE000000 		movl	$.LC49, %esi
 3930      00
 3931 19e6 4889C7   		movq	%rax, %rdi
 3932 19e9 E8000000 		call	_ZN8UnitTest4TestC2EPKcS2_S2_i
 3932      00
 3933 19ee 488B45F8 		movq	-8(%rbp), %rax
 3934 19f2 48C70000 		movq	$_ZTVN12_GLOBAL__N_138TestCheckCloseFailureIncludesToleranceE+16, (%rax)
 3934      000000
 3935              	.LBE54:
 3936 19f9 C9       		leave
 3937              		.cfi_def_cfa 7, 8
 3938 19fa C3       		ret
 3939              		.cfi_endproc
 3940              	.LFE1090:
 3942              		.set	_ZN12_GLOBAL__N_138TestCheckCloseFailureIncludesToleranceC1Ev,_ZN12_GLOBAL__N_138TestCheckClo
 3943              		.local	_ZN12_GLOBAL__N_146testCheckCloseFailureIncludesToleranceInstanceE
 3944              		.comm	_ZN12_GLOBAL__N_146testCheckCloseFailureIncludesToleranceInstanceE,56,32
 3945              		.local	_ZN12_GLOBAL__N_139adderCheckCloseFailureIncludesToleranceE
 3946              		.comm	_ZN12_GLOBAL__N_139adderCheckCloseFailureIncludesToleranceE,1,1
 3947              		.section	.rodata
 3948              	.LC50:
 3949 06e3 302E3031 		.string	"0.01"
 3949      00
 3950              		.align 8
 3951              	.LC51:
 3952 06e8 73747273 		.string	"strstr(reporter.lastFailedMessage, \"0.01\")"
 3952      74722872 
 3952      65706F72 
 3952      7465722E 
 3952      6C617374 
 3953 0713 00000000 		.align 8
 3953      00
 3954              	.LC52:
 3955 0718 556E6861 		.string	"Unhandled exception in CHECK(strstr(reporter.lastFailedMessage, \"0.01\"))"
 3955      6E646C65 
 3955      64206578 
 3955      63657074 
 3955      696F6E20 
 3956              		.text
 3957 19fb 90       		.align 2
 3959              	_ZNK12_GLOBAL__N_138TestCheckCloseFailureIncludesTolerance7RunImplEv:
 3960              	.LFB1092:
 160:TestChecks.cpp **** {
 3961              		.loc 5 160 0
 3962              		.cfi_startproc
 3963              		.cfi_personality 0x3,__gxx_personality_v0
 3964              		.cfi_lsda 0x3,.LLSDA1092
 3965 19fc 55       		pushq	%rbp
 3966              		.cfi_def_cfa_offset 16
 3967              		.cfi_offset 6, -16
 3968 19fd 4889E5   		movq	%rsp, %rbp
 3969              		.cfi_def_cfa_register 6
 3970 1a00 53       		pushq	%rbx
 3971 1a01 4881ECA8 		subq	$2216, %rsp
 3971      080000
 3972              		.cfi_offset 3, -24
 3973 1a08 4889BD58 		movq	%rdi, -2216(%rbp)
 3973      F7FFFF
 3974              		.loc 5 160 0
 3975 1a0f 64488B04 		movq	%fs:40, %rax
 3975      25280000 
 3975      00
 3976 1a18 488945E8 		movq	%rax, -24(%rbp)
 3977 1a1c 31C0     		xorl	%eax, %eax
 3978              	.LBB55:
 161:TestChecks.cpp ****     RecordingReporter reporter;
 3979              		.loc 5 161 0
 3980 1a1e 488D85B0 		leaq	-2128(%rbp), %rax
 3980      F7FFFF
 3981 1a25 4889C7   		movq	%rax, %rdi
 3982 1a28 E8000000 		call	_ZN17RecordingReporterC1Ev
 3982      00
 162:TestChecks.cpp ****     TestResults results(&reporter);
 3983              		.loc 5 162 0
 3984 1a2d 488D95B0 		leaq	-2128(%rbp), %rdx
 3984      F7FFFF
 3985 1a34 488D8570 		leaq	-2192(%rbp), %rax
 3985      F7FFFF
 3986 1a3b 4889D6   		movq	%rdx, %rsi
 3987 1a3e 4889C7   		movq	%rax, %rdi
 3988              	.LEHB97:
 3989 1a41 E8000000 		call	_ZN8UnitTest11TestResultsC1EPNS_12TestReporterE
 3989      00
 163:TestChecks.cpp ****     CheckClose(results, 2, 3, 0.01f, TestDetails("", "", "", 0));
 3990              		.loc 5 163 0
 3991 1a46 488D8590 		leaq	-2160(%rbp), %rax
 3991      F7FFFF
 3992 1a4d 41B80000 		movl	$0, %r8d
 3992      0000
 3993 1a53 B9000000 		movl	$.LC6, %ecx
 3993      00
 3994 1a58 BA000000 		movl	$.LC6, %edx
 3994      00
 3995 1a5d BE000000 		movl	$.LC6, %esi
 3995      00
 3996 1a62 4889C7   		movq	%rax, %rdi
 3997 1a65 E8000000 		call	_ZN8UnitTest11TestDetailsC1EPKcS2_S2_i
 3997      00
 3998              		.loc 5 163 0 is_stmt 0 discriminator 1
 3999 1a6a 8B050000 		movl	.LC42(%rip), %eax
 3999      0000
 4000 1a70 89856CF7 		movl	%eax, -2196(%rbp)
 4000      FFFF
 4001 1a76 C78568F7 		movl	$3, -2200(%rbp)
 4001      FFFF0300 
 4001      0000
 4002 1a80 C78564F7 		movl	$2, -2204(%rbp)
 4002      FFFF0200 
 4002      0000
 4003 1a8a 488DBD90 		leaq	-2160(%rbp), %rdi
 4003      F7FFFF
 4004 1a91 488D8D6C 		leaq	-2196(%rbp), %rcx
 4004      F7FFFF
 4005 1a98 488D9568 		leaq	-2200(%rbp), %rdx
 4005      F7FFFF
 4006 1a9f 488DB564 		leaq	-2204(%rbp), %rsi
 4006      F7FFFF
 4007 1aa6 488D8570 		leaq	-2192(%rbp), %rax
 4007      F7FFFF
 4008 1aad 4989F8   		movq	%rdi, %r8
 4009 1ab0 4889C7   		movq	%rax, %rdi
 4010 1ab3 E8000000 		call	_ZN8UnitTest10CheckCloseIiifEEvRNS_11TestResultsERKT_RKT0_RKT1_RKNS_11TestDetailsE
 4010      00
 4011              	.LEHE97:
 164:TestChecks.cpp **** 
 165:TestChecks.cpp **** 	using namespace std;
 166:TestChecks.cpp ****     CHECK(strstr(reporter.lastFailedMessage, "0.01"));
 4012              		.loc 5 166 0 is_stmt 1 discriminator 1
 4013 1ab8 488D85B0 		leaq	-2128(%rbp), %rax
 4013      F7FFFF
 4014 1abf 48051405 		addq	$1300, %rax
 4014      0000
 4015 1ac5 BE000000 		movl	$.LC50, %esi
 4015      00
 4016 1aca 4889C7   		movq	%rax, %rdi
 4017 1acd E8000000 		call	strstr
 4017      00
 4018 1ad2 4889C7   		movq	%rax, %rdi
 4019 1ad5 E8000000 		call	_ZN8UnitTest5CheckIPcEEbT_
 4019      00
 4020 1ada 83F001   		xorl	$1, %eax
 4021 1add 84C0     		testb	%al, %al
 4022 1adf 743E     		je	.L172
 4023              	.LEHB98:
 4024 1ae1 E8000000 		call	_ZN8UnitTest11CurrentTest7DetailsEv
 4024      00
 4025 1ae6 488B08   		movq	(%rax), %rcx
 4026 1ae9 488D8590 		leaq	-2160(%rbp), %rax
 4026      F7FFFF
 4027 1af0 BAA60000 		movl	$166, %edx
 4027      00
 4028 1af5 4889CE   		movq	%rcx, %rsi
 4029 1af8 4889C7   		movq	%rax, %rdi
 4030 1afb E8000000 		call	_ZN8UnitTest11TestDetailsC1ERKS0_i
 4030      00
 4031 1b00 E8000000 		call	_ZN8UnitTest11CurrentTest7ResultsEv
 4031      00
 4032 1b05 488B00   		movq	(%rax), %rax
 4033 1b08 488D8D90 		leaq	-2160(%rbp), %rcx
 4033      F7FFFF
 4034 1b0f BA000000 		movl	$.LC51, %edx
 4034      00
 4035 1b14 4889CE   		movq	%rcx, %rsi
 4036 1b17 4889C7   		movq	%rax, %rdi
 4037 1b1a E8000000 		call	_ZN8UnitTest11TestResults13OnTestFailureERKNS_11TestDetailsEPKc
 4037      00
 4038              	.LEHE98:
 4039              	.L172:
 4040              		.loc 5 166 0 is_stmt 0 discriminator 2
 4041 1b1f 488D85B0 		leaq	-2128(%rbp), %rax
 4041      F7FFFF
 4042 1b26 4889C7   		movq	%rax, %rdi
 4043              	.LEHB99:
 4044 1b29 E8000000 		call	_ZN17RecordingReporterD1Ev
 4044      00
 4045              	.LEHE99:
 4046              	.LBE55:
 167:TestChecks.cpp **** }
 4047              		.loc 5 167 0 is_stmt 1 discriminator 2
 4048 1b2e 488B45E8 		movq	-24(%rbp), %rax
 4049 1b32 64483304 		xorq	%fs:40, %rax
 4049      25280000 
 4049      00
 4050 1b3b 747B     		je	.L176
 4051 1b3d EB74     		jmp	.L180
 4052              	.L179:
 4053 1b3f 4889C3   		movq	%rax, %rbx
 4054              	.LBB56:
 166:TestChecks.cpp **** }
 4055              		.loc 5 166 0
 4056 1b42 E8000000 		call	__cxa_end_catch
 4056      00
 4057 1b47 EB50     		jmp	.L174
 4058              	.L178:
 4059 1b49 4889C7   		movq	%rax, %rdi
 4060 1b4c E8000000 		call	__cxa_begin_catch
 4060      00
 4061              	.LEHB100:
 4062 1b51 E8000000 		call	_ZN8UnitTest11CurrentTest7DetailsEv
 4062      00
 4063 1b56 488B08   		movq	(%rax), %rcx
 4064 1b59 488D8590 		leaq	-2160(%rbp), %rax
 4064      F7FFFF
 4065 1b60 BAA60000 		movl	$166, %edx
 4065      00
 4066 1b65 4889CE   		movq	%rcx, %rsi
 4067 1b68 4889C7   		movq	%rax, %rdi
 4068 1b6b E8000000 		call	_ZN8UnitTest11TestDetailsC1ERKS0_i
 4068      00
 166:TestChecks.cpp **** }
 4069              		.loc 5 166 0 is_stmt 0 discriminator 1
 4070 1b70 E8000000 		call	_ZN8UnitTest11CurrentTest7ResultsEv
 4070      00
 4071 1b75 488B00   		movq	(%rax), %rax
 4072 1b78 488D8D90 		leaq	-2160(%rbp), %rcx
 4072      F7FFFF
 4073 1b7f BA000000 		movl	$.LC52, %edx
 4073      00
 4074 1b84 4889CE   		movq	%rcx, %rsi
 4075 1b87 4889C7   		movq	%rax, %rdi
 4076 1b8a E8000000 		call	_ZN8UnitTest11TestResults13OnTestFailureERKNS_11TestDetailsEPKc
 4076      00
 4077              	.LEHE100:
 4078              	.LEHB101:
 4079 1b8f E8000000 		call	__cxa_end_catch
 4079      00
 4080              	.LEHE101:
 166:TestChecks.cpp **** }
 4081              		.loc 5 166 0
 4082 1b94 EB89     		jmp	.L172
 4083              	.L177:
 4084 1b96 4889C3   		movq	%rax, %rbx
 4085              	.L174:
 4086 1b99 488D85B0 		leaq	-2128(%rbp), %rax
 4086      F7FFFF
 4087 1ba0 4889C7   		movq	%rax, %rdi
 4088 1ba3 E8000000 		call	_ZN17RecordingReporterD1Ev
 4088      00
 4089 1ba8 4889D8   		movq	%rbx, %rax
 4090 1bab 4889C7   		movq	%rax, %rdi
 4091              	.LEHB102:
 4092 1bae E8000000 		call	_Unwind_Resume
 4092      00
 4093              	.LEHE102:
 4094              	.L180:
 4095              	.LBE56:
 4096              		.loc 5 167 0 is_stmt 1
 4097 1bb3 E8000000 		call	__stack_chk_fail
 4097      00
 4098              	.L176:
 4099 1bb8 4881C4A8 		addq	$2216, %rsp
 4099      080000
 4100 1bbf 5B       		popq	%rbx
 4101 1bc0 5D       		popq	%rbp
 4102              		.cfi_def_cfa 7, 8
 4103 1bc1 C3       		ret
 4104              		.cfi_endproc
 4105              	.LFE1092:
 4106              		.section	.gcc_except_table
 4107              		.align 4
 4108              	.LLSDA1092:
 4109 0294 FF       		.byte	0xff
 4110 0295 03       		.byte	0x3
 4111 0296 29       		.uleb128 .LLSDATT1092-.LLSDATTD1092
 4112              	.LLSDATTD1092:
 4113 0297 01       		.byte	0x1
 4114 0298 21       		.uleb128 .LLSDACSE1092-.LLSDACSB1092
 4115              	.LLSDACSB1092:
 4116 0299 45       		.uleb128 .LEHB97-.LFB1092
 4117 029a 77       		.uleb128 .LEHE97-.LEHB97
 4118 029b 9A03     		.uleb128 .L177-.LFB1092
 4119 029d 00       		.uleb128 0
 4120 029e E501     		.uleb128 .LEHB98-.LFB1092
 4121 02a0 3E       		.uleb128 .LEHE98-.LEHB98
 4122 02a1 CD02     		.uleb128 .L178-.LFB1092
 4123 02a3 01       		.uleb128 0x1
 4124 02a4 AD02     		.uleb128 .LEHB99-.LFB1092
 4125 02a6 05       		.uleb128 .LEHE99-.LEHB99
 4126 02a7 00       		.uleb128 0
 4127 02a8 00       		.uleb128 0
 4128 02a9 D502     		.uleb128 .LEHB100-.LFB1092
 4129 02ab 3E       		.uleb128 .LEHE100-.LEHB100
 4130 02ac C302     		.uleb128 .L179-.LFB1092
 4131 02ae 00       		.uleb128 0
 4132 02af 9303     		.uleb128 .LEHB101-.LFB1092
 4133 02b1 05       		.uleb128 .LEHE101-.LEHB101
 4134 02b2 9A03     		.uleb128 .L177-.LFB1092
 4135 02b4 00       		.uleb128 0
 4136 02b5 B203     		.uleb128 .LEHB102-.LFB1092
 4137 02b7 05       		.uleb128 .LEHE102-.LEHB102
 4138 02b8 00       		.uleb128 0
 4139 02b9 00       		.uleb128 0
 4140              	.LLSDACSE1092:
 4141 02ba 01       		.byte	0x1
 4142 02bb 00       		.byte	0
 4143              		.align 4
 4144 02bc 00000000 		.long	0
 4145              	
 4146              	.LLSDATT1092:
 4147              		.text
 4149              		.section	.rodata
 4150 0761 00000000 		.align 8
 4150      000000
 4151              	.LC53:
 4152 0768 43686563 		.string	"CheckCloseFailureIncludesDetails"
 4152      6B436C6F 
 4152      73654661 
 4152      696C7572 
 4152      65496E63 
 4153              		.text
 4154              		.align 2
 4156              	_ZN12_GLOBAL__N_136TestCheckCloseFailureIncludesDetailsC2Ev:
 4157              	.LFB1094:
 168:TestChecks.cpp **** 
 169:TestChecks.cpp **** TEST(CheckCloseFailureIncludesDetails)
 4158              		.loc 5 169 0
 4159              		.cfi_startproc
 4160 1bc2 55       		pushq	%rbp
 4161              		.cfi_def_cfa_offset 16
 4162              		.cfi_offset 6, -16
 4163 1bc3 4889E5   		movq	%rsp, %rbp
 4164              		.cfi_def_cfa_register 6
 4165 1bc6 4883EC10 		subq	$16, %rsp
 4166 1bca 48897DF8 		movq	%rdi, -8(%rbp)
 4167              	.LBB57:
 4168              		.loc 5 169 0
 4169 1bce E8000000 		call	_ZN13UnitTestSuite12GetSuiteNameEv
 4169      00
 4170 1bd3 4889C2   		movq	%rax, %rdx
 4171 1bd6 488B45F8 		movq	-8(%rbp), %rax
 4172 1bda 41B8A900 		movl	$169, %r8d
 4172      0000
 4173 1be0 B9000000 		movl	$.LC2, %ecx
 4173      00
 4174 1be5 BE000000 		movl	$.LC53, %esi
 4174      00
 4175 1bea 4889C7   		movq	%rax, %rdi
 4176 1bed E8000000 		call	_ZN8UnitTest4TestC2EPKcS2_S2_i
 4176      00
 4177 1bf2 488B45F8 		movq	-8(%rbp), %rax
 4178 1bf6 48C70000 		movq	$_ZTVN12_GLOBAL__N_136TestCheckCloseFailureIncludesDetailsE+16, (%rax)
 4178      000000
 4179              	.LBE57:
 4180 1bfd C9       		leave
 4181              		.cfi_def_cfa 7, 8
 4182 1bfe C3       		ret
 4183              		.cfi_endproc
 4184              	.LFE1094:
 4186              		.set	_ZN12_GLOBAL__N_136TestCheckCloseFailureIncludesDetailsC1Ev,_ZN12_GLOBAL__N_136TestCheckClose
 4187              		.local	_ZN12_GLOBAL__N_144testCheckCloseFailureIncludesDetailsInstanceE
 4188              		.comm	_ZN12_GLOBAL__N_144testCheckCloseFailureIncludesDetailsInstanceE,56,32
 4189              		.local	_ZN12_GLOBAL__N_137adderCheckCloseFailureIncludesDetailsE
 4190              		.comm	_ZN12_GLOBAL__N_137adderCheckCloseFailureIncludesDetailsE,1,1
 4191              		.section	.rodata
 4192              	.LC54:
 4193 0789 68656164 		.string	"header.h"
 4193      65722E68 
 4193      00
 4194 0792 00000000 		.align 8
 4194      0000
 4195              	.LC55:
 4196 0798 556E6861 		.string	"Unhandled exception in CHECK_EQUAL(\"header.h\", reporter.lastFailedFile)"
 4196      6E646C65 
 4196      64206578 
 4196      63657074 
 4196      696F6E20 
 4197              		.align 8
 4198              	.LC56:
 4199 07e0 556E6861 		.string	"Unhandled exception in CHECK_EQUAL(10, reporter.lastFailedLine)"
 4199      6E646C65 
 4199      64206578 
 4199      63657074 
 4199      696F6E20 
 4200              		.text
 4201 1bff 90       		.align 2
 4203              	_ZNK12_GLOBAL__N_136TestCheckCloseFailureIncludesDetails7RunImplEv:
 4204              	.LFB1096:
 170:TestChecks.cpp **** {
 4205              		.loc 5 170 0
 4206              		.cfi_startproc
 4207              		.cfi_personality 0x3,__gxx_personality_v0
 4208              		.cfi_lsda 0x3,.LLSDA1096
 4209 1c00 55       		pushq	%rbp
 4210              		.cfi_def_cfa_offset 16
 4211              		.cfi_offset 6, -16
 4212 1c01 4889E5   		movq	%rsp, %rbp
 4213              		.cfi_def_cfa_register 6
 4214 1c04 53       		pushq	%rbx
 4215 1c05 4881ECC8 		subq	$2248, %rsp
 4215      080000
 4216              		.cfi_offset 3, -24
 4217 1c0c 4889BD38 		movq	%rdi, -2248(%rbp)
 4217      F7FFFF
 4218              		.loc 5 170 0
 4219 1c13 64488B04 		movq	%fs:40, %rax
 4219      25280000 
 4219      00
 4220 1c1c 488945E8 		movq	%rax, -24(%rbp)
 4221 1c20 31C0     		xorl	%eax, %eax
 4222              	.LBB58:
 171:TestChecks.cpp ****     RecordingReporter reporter;
 4223              		.loc 5 171 0
 4224 1c22 488D85B0 		leaq	-2128(%rbp), %rax
 4224      F7FFFF
 4225 1c29 4889C7   		movq	%rax, %rdi
 4226 1c2c E8000000 		call	_ZN17RecordingReporterC1Ev
 4226      00
 172:TestChecks.cpp ****     TestResults results(&reporter);
 4227              		.loc 5 172 0
 4228 1c31 488D95B0 		leaq	-2128(%rbp), %rdx
 4228      F7FFFF
 4229 1c38 488D8550 		leaq	-2224(%rbp), %rax
 4229      F7FFFF
 4230 1c3f 4889D6   		movq	%rdx, %rsi
 4231 1c42 4889C7   		movq	%rax, %rdi
 4232              	.LEHB103:
 4233 1c45 E8000000 		call	_ZN8UnitTest11TestResultsC1EPNS_12TestReporterE
 4233      00
 173:TestChecks.cpp ****     TestDetails const details("mytest", "mysuite", "header.h", 10);
 4234              		.loc 5 173 0
 4235 1c4a 488D8570 		leaq	-2192(%rbp), %rax
 4235      F7FFFF
 4236 1c51 41B80A00 		movl	$10, %r8d
 4236      0000
 4237 1c57 B9000000 		movl	$.LC54, %ecx
 4237      00
 4238 1c5c BA000000 		movl	$.LC24, %edx
 4238      00
 4239 1c61 BE000000 		movl	$.LC25, %esi
 4239      00
 4240 1c66 4889C7   		movq	%rax, %rdi
 4241 1c69 E8000000 		call	_ZN8UnitTest11TestDetailsC1EPKcS2_S2_i
 4241      00
 174:TestChecks.cpp **** 
 175:TestChecks.cpp ****     CheckClose(results, 2, 3, 0.01f, details);
 4242              		.loc 5 175 0
 4243 1c6e 8B050000 		movl	.LC42(%rip), %eax
 4243      0000
 4244 1c74 898590F7 		movl	%eax, -2160(%rbp)
 4244      FFFF
 4245 1c7a C7854CF7 		movl	$3, -2228(%rbp)
 4245      FFFF0300 
 4245      0000
 4246 1c84 C78548F7 		movl	$2, -2232(%rbp)
 4246      FFFF0200 
 4246      0000
 4247 1c8e 488DBD70 		leaq	-2192(%rbp), %rdi
 4247      F7FFFF
 4248 1c95 488D8D90 		leaq	-2160(%rbp), %rcx
 4248      F7FFFF
 4249 1c9c 488D954C 		leaq	-2228(%rbp), %rdx
 4249      F7FFFF
 4250 1ca3 488DB548 		leaq	-2232(%rbp), %rsi
 4250      F7FFFF
 4251 1caa 488D8550 		leaq	-2224(%rbp), %rax
 4251      F7FFFF
 4252 1cb1 4989F8   		movq	%rdi, %r8
 4253 1cb4 4889C7   		movq	%rax, %rdi
 4254 1cb7 E8000000 		call	_ZN8UnitTest10CheckCloseIiifEEvRNS_11TestResultsERKT_RKT0_RKT1_RKNS_11TestDetailsE
 4254      00
 4255              	.LEHE103:
 4256              	.LEHB104:
 176:TestChecks.cpp **** 
 177:TestChecks.cpp ****     CHECK_EQUAL("mytest", reporter.lastFailedTest);
 4257              		.loc 5 177 0 discriminator 1
 4258 1cbc E8000000 		call	_ZN8UnitTest11CurrentTest7DetailsEv
 4258      00
 4259 1cc1 488B08   		movq	(%rax), %rcx
 4260 1cc4 488D8590 		leaq	-2160(%rbp), %rax
 4260      F7FFFF
 4261 1ccb BAB10000 		movl	$177, %edx
 4261      00
 4262 1cd0 4889CE   		movq	%rcx, %rsi
 4263 1cd3 4889C7   		movq	%rax, %rdi
 4264 1cd6 E8000000 		call	_ZN8UnitTest11TestDetailsC1ERKS0_i
 4264      00
 4265 1cdb E8000000 		call	_ZN8UnitTest11CurrentTest7ResultsEv
 4265      00
 4266 1ce0 488B00   		movq	(%rax), %rax
 4267 1ce3 488D9590 		leaq	-2160(%rbp), %rdx
 4267      F7FFFF
 4268 1cea 488D8DB0 		leaq	-2128(%rbp), %rcx
 4268      F7FFFF
 4269 1cf1 488DB114 		leaq	1044(%rcx), %rsi
 4269      040000
 4270 1cf8 4889D1   		movq	%rdx, %rcx
 4271 1cfb 4889F2   		movq	%rsi, %rdx
 4272 1cfe BE000000 		movl	$.LC25, %esi
 4272      00
 4273 1d03 4889C7   		movq	%rax, %rdi
 4274 1d06 E8000000 		call	_ZN8UnitTest10CheckEqualERNS_11TestResultsEPKcPcRKNS_11TestDetailsE
 4274      00
 4275              	.LEHE104:
 4276              	.L186:
 4277              	.LEHB105:
 178:TestChecks.cpp ****     CHECK_EQUAL("mysuite", reporter.lastFailedSuite);
 4278              		.loc 5 178 0
 4279 1d0b E8000000 		call	_ZN8UnitTest11CurrentTest7DetailsEv
 4279      00
 4280 1d10 488B08   		movq	(%rax), %rcx
 4281 1d13 488D8590 		leaq	-2160(%rbp), %rax
 4281      F7FFFF
 4282 1d1a BAB20000 		movl	$178, %edx
 4282      00
 4283 1d1f 4889CE   		movq	%rcx, %rsi
 4284 1d22 4889C7   		movq	%rax, %rdi
 4285 1d25 E8000000 		call	_ZN8UnitTest11TestDetailsC1ERKS0_i
 4285      00
 4286              		.loc 5 178 0 is_stmt 0 discriminator 1
 4287 1d2a E8000000 		call	_ZN8UnitTest11CurrentTest7ResultsEv
 4287      00
 4288 1d2f 488B00   		movq	(%rax), %rax
 4289 1d32 488D9590 		leaq	-2160(%rbp), %rdx
 4289      F7FFFF
 4290 1d39 488D8DB0 		leaq	-2128(%rbp), %rcx
 4290      F7FFFF
 4291 1d40 488DB114 		leaq	788(%rcx), %rsi
 4291      030000
 4292 1d47 4889D1   		movq	%rdx, %rcx
 4293 1d4a 4889F2   		movq	%rsi, %rdx
 4294 1d4d BE000000 		movl	$.LC24, %esi
 4294      00
 4295 1d52 4889C7   		movq	%rax, %rdi
 4296 1d55 E8000000 		call	_ZN8UnitTest10CheckEqualERNS_11TestResultsEPKcPcRKNS_11TestDetailsE
 4296      00
 4297              	.LEHE105:
 4298              	.L189:
 4299              	.LEHB106:
 179:TestChecks.cpp ****     CHECK_EQUAL("header.h", reporter.lastFailedFile);
 4300              		.loc 5 179 0 is_stmt 1
 4301 1d5a E8000000 		call	_ZN8UnitTest11CurrentTest7DetailsEv
 4301      00
 4302 1d5f 488B08   		movq	(%rax), %rcx
 4303 1d62 488D8590 		leaq	-2160(%rbp), %rax
 4303      F7FFFF
 4304 1d69 BAB30000 		movl	$179, %edx
 4304      00
 4305 1d6e 4889CE   		movq	%rcx, %rsi
 4306 1d71 4889C7   		movq	%rax, %rdi
 4307 1d74 E8000000 		call	_ZN8UnitTest11TestDetailsC1ERKS0_i
 4307      00
 4308              		.loc 5 179 0 is_stmt 0 discriminator 1
 4309 1d79 E8000000 		call	_ZN8UnitTest11CurrentTest7ResultsEv
 4309      00
 4310 1d7e 488B00   		movq	(%rax), %rax
 4311 1d81 488D9590 		leaq	-2160(%rbp), %rdx
 4311      F7FFFF
 4312 1d88 488D8DB0 		leaq	-2128(%rbp), %rcx
 4312      F7FFFF
 4313 1d8f 488DB110 		leaq	528(%rcx), %rsi
 4313      020000
 4314 1d96 4889D1   		movq	%rdx, %rcx
 4315 1d99 4889F2   		movq	%rsi, %rdx
 4316 1d9c BE000000 		movl	$.LC54, %esi
 4316      00
 4317 1da1 4889C7   		movq	%rax, %rdi
 4318 1da4 E8000000 		call	_ZN8UnitTest10CheckEqualERNS_11TestResultsEPKcPcRKNS_11TestDetailsE
 4318      00
 4319              	.LEHE106:
 4320              	.L192:
 4321              	.LEHB107:
 180:TestChecks.cpp ****     CHECK_EQUAL(10, reporter.lastFailedLine);
 4322              		.loc 5 180 0 is_stmt 1
 4323 1da9 E8000000 		call	_ZN8UnitTest11CurrentTest7DetailsEv
 4323      00
 4324 1dae 488B08   		movq	(%rax), %rcx
 4325 1db1 488D8590 		leaq	-2160(%rbp), %rax
 4325      F7FFFF
 4326 1db8 BAB40000 		movl	$180, %edx
 4326      00
 4327 1dbd 4889CE   		movq	%rcx, %rsi
 4328 1dc0 4889C7   		movq	%rax, %rdi
 4329 1dc3 E8000000 		call	_ZN8UnitTest11TestDetailsC1ERKS0_i
 4329      00
 4330              		.loc 5 180 0 is_stmt 0 discriminator 1
 4331 1dc8 C7854CF7 		movl	$10, -2228(%rbp)
 4331      FFFF0A00 
 4331      0000
 4332 1dd2 E8000000 		call	_ZN8UnitTest11CurrentTest7ResultsEv
 4332      00
 4333 1dd7 488B00   		movq	(%rax), %rax
 4334 1dda 488D9590 		leaq	-2160(%rbp), %rdx
 4334      F7FFFF
 4335 1de1 488D8DB0 		leaq	-2128(%rbp), %rcx
 4335      F7FFFF
 4336 1de8 488DB910 		leaq	784(%rcx), %rdi
 4336      030000
 4337 1def 488DB54C 		leaq	-2228(%rbp), %rsi
 4337      F7FFFF
 4338 1df6 4889D1   		movq	%rdx, %rcx
 4339 1df9 4889FA   		movq	%rdi, %rdx
 4340 1dfc 4889C7   		movq	%rax, %rdi
 4341 1dff E8000000 		call	_ZN8UnitTest10CheckEqualIiiEEvRNS_11TestResultsERKT_RKT0_RKNS_11TestDetailsE
 4341      00
 4342              	.LEHE107:
 4343              	.L195:
 4344              		.loc 5 180 0 discriminator 2
 4345 1e04 488D85B0 		leaq	-2128(%rbp), %rax
 4345      F7FFFF
 4346 1e0b 4889C7   		movq	%rax, %rdi
 4347              	.LEHB108:
 4348 1e0e E8000000 		call	_ZN17RecordingReporterD1Ev
 4348      00
 4349              	.LEHE108:
 4350              	.LBE58:
 181:TestChecks.cpp **** }
 4351              		.loc 5 181 0 is_stmt 1 discriminator 2
 4352 1e13 488B45E8 		movq	-24(%rbp), %rax
 4353 1e17 64483304 		xorq	%fs:40, %rax
 4353      25280000 
 4353      00
 4354 1e20 0F849801 		je	.L196
 4354      0000
 4355 1e26 E98E0100 		jmp	.L206
 4355      00
 4356              	.L199:
 4357 1e2b 4889C3   		movq	%rax, %rbx
 4358              	.LBB59:
 177:TestChecks.cpp ****     CHECK_EQUAL("mysuite", reporter.lastFailedSuite);
 4359              		.loc 5 177 0
 4360 1e2e E8000000 		call	__cxa_end_catch
 4360      00
 4361 1e33 E9670100 		jmp	.L184
 4361      00
 4362              	.L198:
 4363 1e38 4889C7   		movq	%rax, %rdi
 4364 1e3b E8000000 		call	__cxa_begin_catch
 4364      00
 4365              	.LEHB109:
 4366 1e40 E8000000 		call	_ZN8UnitTest11CurrentTest7DetailsEv
 4366      00
 4367 1e45 488B08   		movq	(%rax), %rcx
 4368 1e48 488D8590 		leaq	-2160(%rbp), %rax
 4368      F7FFFF
 4369 1e4f BAB10000 		movl	$177, %edx
 4369      00
 4370 1e54 4889CE   		movq	%rcx, %rsi
 4371 1e57 4889C7   		movq	%rax, %rdi
 4372 1e5a E8000000 		call	_ZN8UnitTest11TestDetailsC1ERKS0_i
 4372      00
 177:TestChecks.cpp ****     CHECK_EQUAL("mysuite", reporter.lastFailedSuite);
 4373              		.loc 5 177 0 is_stmt 0 discriminator 1
 4374 1e5f E8000000 		call	_ZN8UnitTest11CurrentTest7ResultsEv
 4374      00
 4375 1e64 488B00   		movq	(%rax), %rax
 4376 1e67 488D8D90 		leaq	-2160(%rbp), %rcx
 4376      F7FFFF
 4377 1e6e BA000000 		movl	$.LC26, %edx
 4377      00
 4378 1e73 4889CE   		movq	%rcx, %rsi
 4379 1e76 4889C7   		movq	%rax, %rdi
 4380 1e79 E8000000 		call	_ZN8UnitTest11TestResults13OnTestFailureERKNS_11TestDetailsEPKc
 4380      00
 4381              	.LEHE109:
 4382              	.LEHB110:
 4383 1e7e E8000000 		call	__cxa_end_catch
 4383      00
 4384              	.LEHE110:
 177:TestChecks.cpp ****     CHECK_EQUAL("mysuite", reporter.lastFailedSuite);
 4385              		.loc 5 177 0
 4386 1e83 E983FEFF 		jmp	.L186
 4386      FF
 4387              	.L201:
 4388 1e88 4889C3   		movq	%rax, %rbx
 178:TestChecks.cpp ****     CHECK_EQUAL("header.h", reporter.lastFailedFile);
 4389              		.loc 5 178 0 is_stmt 1
 4390 1e8b E8000000 		call	__cxa_end_catch
 4390      00
 4391 1e90 E90A0100 		jmp	.L184
 4391      00
 4392              	.L200:
 4393 1e95 4889C7   		movq	%rax, %rdi
 4394 1e98 E8000000 		call	__cxa_begin_catch
 4394      00
 4395              	.LEHB111:
 4396 1e9d E8000000 		call	_ZN8UnitTest11CurrentTest7DetailsEv
 4396      00
 4397 1ea2 488B08   		movq	(%rax), %rcx
 4398 1ea5 488D8590 		leaq	-2160(%rbp), %rax
 4398      F7FFFF
 4399 1eac BAB20000 		movl	$178, %edx
 4399      00
 4400 1eb1 4889CE   		movq	%rcx, %rsi
 4401 1eb4 4889C7   		movq	%rax, %rdi
 4402 1eb7 E8000000 		call	_ZN8UnitTest11TestDetailsC1ERKS0_i
 4402      00
 178:TestChecks.cpp ****     CHECK_EQUAL("header.h", reporter.lastFailedFile);
 4403              		.loc 5 178 0 is_stmt 0 discriminator 1
 4404 1ebc E8000000 		call	_ZN8UnitTest11CurrentTest7ResultsEv
 4404      00
 4405 1ec1 488B00   		movq	(%rax), %rax
 4406 1ec4 488D8D90 		leaq	-2160(%rbp), %rcx
 4406      F7FFFF
 4407 1ecb BA000000 		movl	$.LC27, %edx
 4407      00
 4408 1ed0 4889CE   		movq	%rcx, %rsi
 4409 1ed3 4889C7   		movq	%rax, %rdi
 4410 1ed6 E8000000 		call	_ZN8UnitTest11TestResults13OnTestFailureERKNS_11TestDetailsEPKc
 4410      00
 4411              	.LEHE111:
 4412              	.LEHB112:
 4413 1edb E8000000 		call	__cxa_end_catch
 4413      00
 4414              	.LEHE112:
 178:TestChecks.cpp ****     CHECK_EQUAL("header.h", reporter.lastFailedFile);
 4415              		.loc 5 178 0
 4416 1ee0 E975FEFF 		jmp	.L189
 4416      FF
 4417              	.L203:
 4418 1ee5 4889C3   		movq	%rax, %rbx
 179:TestChecks.cpp ****     CHECK_EQUAL(10, reporter.lastFailedLine);
 4419              		.loc 5 179 0 is_stmt 1
 4420 1ee8 E8000000 		call	__cxa_end_catch
 4420      00
 4421 1eed E9AD0000 		jmp	.L184
 4421      00
 4422              	.L202:
 4423 1ef2 4889C7   		movq	%rax, %rdi
 4424 1ef5 E8000000 		call	__cxa_begin_catch
 4424      00
 4425              	.LEHB113:
 4426 1efa E8000000 		call	_ZN8UnitTest11CurrentTest7DetailsEv
 4426      00
 4427 1eff 488B08   		movq	(%rax), %rcx
 4428 1f02 488D8590 		leaq	-2160(%rbp), %rax
 4428      F7FFFF
 4429 1f09 BAB30000 		movl	$179, %edx
 4429      00
 4430 1f0e 4889CE   		movq	%rcx, %rsi
 4431 1f11 4889C7   		movq	%rax, %rdi
 4432 1f14 E8000000 		call	_ZN8UnitTest11TestDetailsC1ERKS0_i
 4432      00
 179:TestChecks.cpp ****     CHECK_EQUAL(10, reporter.lastFailedLine);
 4433              		.loc 5 179 0 is_stmt 0 discriminator 1
 4434 1f19 E8000000 		call	_ZN8UnitTest11CurrentTest7ResultsEv
 4434      00
 4435 1f1e 488B00   		movq	(%rax), %rax
 4436 1f21 488D8D90 		leaq	-2160(%rbp), %rcx
 4436      F7FFFF
 4437 1f28 BA000000 		movl	$.LC55, %edx
 4437      00
 4438 1f2d 4889CE   		movq	%rcx, %rsi
 4439 1f30 4889C7   		movq	%rax, %rdi
 4440 1f33 E8000000 		call	_ZN8UnitTest11TestResults13OnTestFailureERKNS_11TestDetailsEPKc
 4440      00
 4441              	.LEHE113:
 4442              	.LEHB114:
 4443 1f38 E8000000 		call	__cxa_end_catch
 4443      00
 4444              	.LEHE114:
 179:TestChecks.cpp ****     CHECK_EQUAL(10, reporter.lastFailedLine);
 4445              		.loc 5 179 0
 4446 1f3d E967FEFF 		jmp	.L192
 4446      FF
 4447              	.L205:
 4448 1f42 4889C3   		movq	%rax, %rbx
 180:TestChecks.cpp **** }
 4449              		.loc 5 180 0 is_stmt 1
 4450 1f45 E8000000 		call	__cxa_end_catch
 4450      00
 4451 1f4a EB53     		jmp	.L184
 4452              	.L204:
 4453 1f4c 4889C7   		movq	%rax, %rdi
 4454 1f4f E8000000 		call	__cxa_begin_catch
 4454      00
 4455              	.LEHB115:
 4456 1f54 E8000000 		call	_ZN8UnitTest11CurrentTest7DetailsEv
 4456      00
 4457 1f59 488B08   		movq	(%rax), %rcx
 4458 1f5c 488D8590 		leaq	-2160(%rbp), %rax
 4458      F7FFFF
 4459 1f63 BAB40000 		movl	$180, %edx
 4459      00
 4460 1f68 4889CE   		movq	%rcx, %rsi
 4461 1f6b 4889C7   		movq	%rax, %rdi
 4462 1f6e E8000000 		call	_ZN8UnitTest11TestDetailsC1ERKS0_i
 4462      00
 180:TestChecks.cpp **** }
 4463              		.loc 5 180 0 is_stmt 0 discriminator 1
 4464 1f73 E8000000 		call	_ZN8UnitTest11CurrentTest7ResultsEv
 4464      00
 4465 1f78 488B00   		movq	(%rax), %rax
 4466 1f7b 488D8D90 		leaq	-2160(%rbp), %rcx
 4466      F7FFFF
 4467 1f82 BA000000 		movl	$.LC56, %edx
 4467      00
 4468 1f87 4889CE   		movq	%rcx, %rsi
 4469 1f8a 4889C7   		movq	%rax, %rdi
 4470 1f8d E8000000 		call	_ZN8UnitTest11TestResults13OnTestFailureERKNS_11TestDetailsEPKc
 4470      00
 4471              	.LEHE115:
 4472              	.LEHB116:
 4473 1f92 E8000000 		call	__cxa_end_catch
 4473      00
 4474              	.LEHE116:
 180:TestChecks.cpp **** }
 4475              		.loc 5 180 0
 4476 1f97 E968FEFF 		jmp	.L195
 4476      FF
 4477              	.L197:
 4478 1f9c 4889C3   		movq	%rax, %rbx
 4479              	.L184:
 4480 1f9f 488D85B0 		leaq	-2128(%rbp), %rax
 4480      F7FFFF
 4481 1fa6 4889C7   		movq	%rax, %rdi
 4482 1fa9 E8000000 		call	_ZN17RecordingReporterD1Ev
 4482      00
 4483 1fae 4889D8   		movq	%rbx, %rax
 4484 1fb1 4889C7   		movq	%rax, %rdi
 4485              	.LEHB117:
 4486 1fb4 E8000000 		call	_Unwind_Resume
 4486      00
 4487              	.LEHE117:
 4488              	.L206:
 4489              	.LBE59:
 4490              		.loc 5 181 0 is_stmt 1
 4491 1fb9 E8000000 		call	__stack_chk_fail
 4491      00
 4492              	.L196:
 4493 1fbe 4881C4C8 		addq	$2248, %rsp
 4493      080000
 4494 1fc5 5B       		popq	%rbx
 4495 1fc6 5D       		popq	%rbp
 4496              		.cfi_def_cfa 7, 8
 4497 1fc7 C3       		ret
 4498              		.cfi_endproc
 4499              	.LFE1096:
 4500              		.section	.gcc_except_table
 4501              		.align 4
 4502              	.LLSDA1096:
 4503 02c0 FF       		.byte	0xff
 4504 02c1 03       		.byte	0x3
 4505 02c2 61       		.uleb128 .LLSDATT1096-.LLSDATTD1096
 4506              	.LLSDATTD1096:
 4507 02c3 01       		.byte	0x1
 4508 02c4 57       		.uleb128 .LLSDACSE1096-.LLSDACSB1096
 4509              	.LLSDACSB1096:
 4510 02c5 45       		.uleb128 .LEHB103-.LFB1096
 4511 02c6 77       		.uleb128 .LEHE103-.LEHB103
 4512 02c7 9C07     		.uleb128 .L197-.LFB1096
 4513 02c9 00       		.uleb128 0
 4514 02ca BC01     		.uleb128 .LEHB104-.LFB1096
 4515 02cc 4F       		.uleb128 .LEHE104-.LEHB104
 4516 02cd B804     		.uleb128 .L198-.LFB1096
 4517 02cf 01       		.uleb128 0x1
 4518 02d0 8B02     		.uleb128 .LEHB105-.LFB1096
 4519 02d2 4F       		.uleb128 .LEHE105-.LEHB105
 4520 02d3 9505     		.uleb128 .L200-.LFB1096
 4521 02d5 01       		.uleb128 0x1
 4522 02d6 DA02     		.uleb128 .LEHB106-.LFB1096
 4523 02d8 4F       		.uleb128 .LEHE106-.LEHB106
 4524 02d9 F205     		.uleb128 .L202-.LFB1096
 4525 02db 01       		.uleb128 0x1
 4526 02dc A903     		.uleb128 .LEHB107-.LFB1096
 4527 02de 5B       		.uleb128 .LEHE107-.LEHB107
 4528 02df CC06     		.uleb128 .L204-.LFB1096
 4529 02e1 01       		.uleb128 0x1
 4530 02e2 8E04     		.uleb128 .LEHB108-.LFB1096
 4531 02e4 05       		.uleb128 .LEHE108-.LEHB108
 4532 02e5 00       		.uleb128 0
 4533 02e6 00       		.uleb128 0
 4534 02e7 C004     		.uleb128 .LEHB109-.LFB1096
 4535 02e9 3E       		.uleb128 .LEHE109-.LEHB109
 4536 02ea AB04     		.uleb128 .L199-.LFB1096
 4537 02ec 00       		.uleb128 0
 4538 02ed FE04     		.uleb128 .LEHB110-.LFB1096
 4539 02ef 05       		.uleb128 .LEHE110-.LEHB110
 4540 02f0 9C07     		.uleb128 .L197-.LFB1096
 4541 02f2 00       		.uleb128 0
 4542 02f3 9D05     		.uleb128 .LEHB111-.LFB1096
 4543 02f5 3E       		.uleb128 .LEHE111-.LEHB111
 4544 02f6 8805     		.uleb128 .L201-.LFB1096
 4545 02f8 00       		.uleb128 0
 4546 02f9 DB05     		.uleb128 .LEHB112-.LFB1096
 4547 02fb 05       		.uleb128 .LEHE112-.LEHB112
 4548 02fc 9C07     		.uleb128 .L197-.LFB1096
 4549 02fe 00       		.uleb128 0
 4550 02ff FA05     		.uleb128 .LEHB113-.LFB1096
 4551 0301 3E       		.uleb128 .LEHE113-.LEHB113
 4552 0302 E505     		.uleb128 .L203-.LFB1096
 4553 0304 00       		.uleb128 0
 4554 0305 B806     		.uleb128 .LEHB114-.LFB1096
 4555 0307 05       		.uleb128 .LEHE114-.LEHB114
 4556 0308 9C07     		.uleb128 .L197-.LFB1096
 4557 030a 00       		.uleb128 0
 4558 030b D406     		.uleb128 .LEHB115-.LFB1096
 4559 030d 3E       		.uleb128 .LEHE115-.LEHB115
 4560 030e C206     		.uleb128 .L205-.LFB1096
 4561 0310 00       		.uleb128 0
 4562 0311 9207     		.uleb128 .LEHB116-.LFB1096
 4563 0313 05       		.uleb128 .LEHE116-.LEHB116
 4564 0314 9C07     		.uleb128 .L197-.LFB1096
 4565 0316 00       		.uleb128 0
 4566 0317 B407     		.uleb128 .LEHB117-.LFB1096
 4567 0319 05       		.uleb128 .LEHE117-.LEHB117
 4568 031a 00       		.uleb128 0
 4569 031b 00       		.uleb128 0
 4570              	.LLSDACSE1096:
 4571 031c 01       		.byte	0x1
 4572 031d 00       		.byte	0
 4573 031e 0000     		.align 4
 4574 0320 00000000 		.long	0
 4575              	
 4576              	.LLSDATT1096:
 4577              		.text
 4579              		.section	.rodata
 4580              	.LC57:
 4581 0820 43686563 		.string	"CheckArrayEqualTrue"
 4581      6B417272 
 4581      61794571 
 4581      75616C54 
 4581      72756500 
 4582              		.text
 4583              		.align 2
 4585              	_ZN12_GLOBAL__N_123TestCheckArrayEqualTrueC2Ev:
 4586              	.LFB1098:
 182:TestChecks.cpp **** 
 183:TestChecks.cpp **** 
 184:TestChecks.cpp **** TEST(CheckArrayEqualTrue)
 4587              		.loc 5 184 0
 4588              		.cfi_startproc
 4589 1fc8 55       		pushq	%rbp
 4590              		.cfi_def_cfa_offset 16
 4591              		.cfi_offset 6, -16
 4592 1fc9 4889E5   		movq	%rsp, %rbp
 4593              		.cfi_def_cfa_register 6
 4594 1fcc 4883EC10 		subq	$16, %rsp
 4595 1fd0 48897DF8 		movq	%rdi, -8(%rbp)
 4596              	.LBB60:
 4597              		.loc 5 184 0
 4598 1fd4 E8000000 		call	_ZN13UnitTestSuite12GetSuiteNameEv
 4598      00
 4599 1fd9 4889C2   		movq	%rax, %rdx
 4600 1fdc 488B45F8 		movq	-8(%rbp), %rax
 4601 1fe0 41B8B800 		movl	$184, %r8d
 4601      0000
 4602 1fe6 B9000000 		movl	$.LC2, %ecx
 4602      00
 4603 1feb BE000000 		movl	$.LC57, %esi
 4603      00
 4604 1ff0 4889C7   		movq	%rax, %rdi
 4605 1ff3 E8000000 		call	_ZN8UnitTest4TestC2EPKcS2_S2_i
 4605      00
 4606 1ff8 488B45F8 		movq	-8(%rbp), %rax
 4607 1ffc 48C70000 		movq	$_ZTVN12_GLOBAL__N_123TestCheckArrayEqualTrueE+16, (%rax)
 4607      000000
 4608              	.LBE60:
 4609 2003 C9       		leave
 4610              		.cfi_def_cfa 7, 8
 4611 2004 C3       		ret
 4612              		.cfi_endproc
 4613              	.LFE1098:
 4615              		.set	_ZN12_GLOBAL__N_123TestCheckArrayEqualTrueC1Ev,_ZN12_GLOBAL__N_123TestCheckArrayEqualTrueC2Ev
 4616              		.local	_ZN12_GLOBAL__N_131testCheckArrayEqualTrueInstanceE
 4617              		.comm	_ZN12_GLOBAL__N_131testCheckArrayEqualTrueInstanceE,56,32
 4618              		.local	_ZN12_GLOBAL__N_124adderCheckArrayEqualTrueE
 4619              		.comm	_ZN12_GLOBAL__N_124adderCheckArrayEqualTrueE,1,1
 4620 2005 90       		.align 2
 4622              	_ZNK12_GLOBAL__N_123TestCheckArrayEqualTrue7RunImplEv:
 4623              	.LFB1100:
 185:TestChecks.cpp **** {
 4624              		.loc 5 185 0
 4625              		.cfi_startproc
 4626              		.cfi_personality 0x3,__gxx_personality_v0
 4627              		.cfi_lsda 0x3,.LLSDA1100
 4628 2006 55       		pushq	%rbp
 4629              		.cfi_def_cfa_offset 16
 4630              		.cfi_offset 6, -16
 4631 2007 4889E5   		movq	%rsp, %rbp
 4632              		.cfi_def_cfa_register 6
 4633 200a 53       		pushq	%rbx
 4634 200b 4883EC78 		subq	$120, %rsp
 4635              		.cfi_offset 3, -24
 4636 200f 48897D88 		movq	%rdi, -120(%rbp)
 4637              	.LBB61:
 186:TestChecks.cpp ****     TestResults results;
 4638              		.loc 5 186 0
 4639 2013 488D45B0 		leaq	-80(%rbp), %rax
 4640 2017 BE000000 		movl	$0, %esi
 4640      00
 4641 201c 4889C7   		movq	%rax, %rdi
 4642              	.LEHB118:
 4643 201f E8000000 		call	_ZN8UnitTest11TestResultsC1EPNS_12TestReporterE
 4643      00
 187:TestChecks.cpp **** 
 188:TestChecks.cpp ****     int const array[3] = { 1, 2, 3 };
 4644              		.loc 5 188 0
 4645 2024 C745A001 		movl	$1, -96(%rbp)
 4645      000000
 4646 202b C745A402 		movl	$2, -92(%rbp)
 4646      000000
 4647 2032 C745A803 		movl	$3, -88(%rbp)
 4647      000000
 189:TestChecks.cpp ****     CheckArrayEqual(results, array, array, 3, TestDetails("", "", "", 0));
 4648              		.loc 5 189 0
 4649 2039 488D45D0 		leaq	-48(%rbp), %rax
 4650 203d 41B80000 		movl	$0, %r8d
 4650      0000
 4651 2043 B9000000 		movl	$.LC6, %ecx
 4651      00
 4652 2048 BA000000 		movl	$.LC6, %edx
 4652      00
 4653 204d BE000000 		movl	$.LC6, %esi
 4653      00
 4654 2052 4889C7   		movq	%rax, %rdi
 4655 2055 E8000000 		call	_ZN8UnitTest11TestDetailsC1EPKcS2_S2_i
 4655      00
 4656 205a 488D4DD0 		leaq	-48(%rbp), %rcx
 4657 205e 488D55A0 		leaq	-96(%rbp), %rdx
 4658 2062 488D75A0 		leaq	-96(%rbp), %rsi
 4659 2066 488D45B0 		leaq	-80(%rbp), %rax
 4660 206a 4989C8   		movq	%rcx, %r8
 4661 206d B9030000 		movl	$3, %ecx
 4661      00
 4662 2072 4889C7   		movq	%rax, %rdi
 4663 2075 E8000000 		call	_ZN8UnitTest15CheckArrayEqualIA3_iS1_EEvRNS_11TestResultsERKT_RKT0_iRKNS_11TestDetailsE
 4663      00
 4664              	.LEHE118:
 4665              	.LEHB119:
 190:TestChecks.cpp ****     CHECK_EQUAL(0, results.GetFailureCount());
 4666              		.loc 5 190 0
 4667 207a E8000000 		call	_ZN8UnitTest11CurrentTest7DetailsEv
 4667      00
 4668 207f 488B08   		movq	(%rax), %rcx
 4669 2082 488D45D0 		leaq	-48(%rbp), %rax
 4670 2086 BABE0000 		movl	$190, %edx
 4670      00
 4671 208b 4889CE   		movq	%rcx, %rsi
 4672 208e 4889C7   		movq	%rax, %rdi
 4673 2091 E8000000 		call	_ZN8UnitTest11TestDetailsC1ERKS0_i
 4673      00
 4674              		.loc 5 190 0 is_stmt 0 discriminator 1
 4675 2096 488D45B0 		leaq	-80(%rbp), %rax
 4676 209a 4889C7   		movq	%rax, %rdi
 4677 209d E8000000 		call	_ZNK8UnitTest11TestResults15GetFailureCountEv
 4677      00
 4678 20a2 89459C   		movl	%eax, -100(%rbp)
 4679 20a5 C7459800 		movl	$0, -104(%rbp)
 4679      000000
 4680 20ac E8000000 		call	_ZN8UnitTest11CurrentTest7ResultsEv
 4680      00
 4681 20b1 488B00   		movq	(%rax), %rax
 4682 20b4 488D4DD0 		leaq	-48(%rbp), %rcx
 4683 20b8 488D559C 		leaq	-100(%rbp), %rdx
 4684 20bc 488D7598 		leaq	-104(%rbp), %rsi
 4685 20c0 4889C7   		movq	%rax, %rdi
 4686 20c3 E8000000 		call	_ZN8UnitTest10CheckEqualIiiEEvRNS_11TestResultsERKT_RKT0_RKNS_11TestDetailsE
 4686      00
 4687              	.LEHE119:
 4688              	.LBE61:
 191:TestChecks.cpp **** }
 4689              		.loc 5 191 0 is_stmt 1
 4690 20c8 EB58     		jmp	.L214
 4691              	.L213:
 4692 20ca 4889C3   		movq	%rax, %rbx
 4693              	.LBB62:
 190:TestChecks.cpp ****     CHECK_EQUAL(0, results.GetFailureCount());
 4694              		.loc 5 190 0
 4695 20cd E8000000 		call	__cxa_end_catch
 4695      00
 4696 20d2 4889D8   		movq	%rbx, %rax
 4697 20d5 4889C7   		movq	%rax, %rdi
 4698              	.LEHB120:
 4699 20d8 E8000000 		call	_Unwind_Resume
 4699      00
 4700              	.LEHE120:
 4701              	.L212:
 4702 20dd 4889C7   		movq	%rax, %rdi
 4703 20e0 E8000000 		call	__cxa_begin_catch
 4703      00
 4704              	.LEHB121:
 4705 20e5 E8000000 		call	_ZN8UnitTest11CurrentTest7DetailsEv
 4705      00
 4706 20ea 488B08   		movq	(%rax), %rcx
 4707 20ed 488D45D0 		leaq	-48(%rbp), %rax
 4708 20f1 BABE0000 		movl	$190, %edx
 4708      00
 4709 20f6 4889CE   		movq	%rcx, %rsi
 4710 20f9 4889C7   		movq	%rax, %rdi
 4711 20fc E8000000 		call	_ZN8UnitTest11TestDetailsC1ERKS0_i
 4711      00
 190:TestChecks.cpp ****     CHECK_EQUAL(0, results.GetFailureCount());
 4712              		.loc 5 190 0 is_stmt 0 discriminator 1
 4713 2101 E8000000 		call	_ZN8UnitTest11CurrentTest7ResultsEv
 4713      00
 4714 2106 488B00   		movq	(%rax), %rax
 4715 2109 488D4DD0 		leaq	-48(%rbp), %rcx
 4716 210d BA000000 		movl	$.LC9, %edx
 4716      00
 4717 2112 4889CE   		movq	%rcx, %rsi
 4718 2115 4889C7   		movq	%rax, %rdi
 4719 2118 E8000000 		call	_ZN8UnitTest11TestResults13OnTestFailureERKNS_11TestDetailsEPKc
 4719      00
 4720              	.LEHE121:
 4721              	.LEHB122:
 4722 211d E8000000 		call	__cxa_end_catch
 4722      00
 4723              	.LEHE122:
 4724              	.L214:
 4725              	.LBE62:
 4726              		.loc 5 191 0 is_stmt 1
 4727 2122 90       		nop
 4728 2123 4883C478 		addq	$120, %rsp
 4729 2127 5B       		popq	%rbx
 4730 2128 5D       		popq	%rbp
 4731              		.cfi_def_cfa 7, 8
 4732 2129 C3       		ret
 4733              		.cfi_endproc
 4734              	.LFE1100:
 4735              		.section	.gcc_except_table
 4736              		.align 4
 4737              	.LLSDA1100:
 4738 0324 FF       		.byte	0xff
 4739 0325 03       		.byte	0x3
 4740 0326 21       		.uleb128 .LLSDATT1100-.LLSDATTD1100
 4741              	.LLSDATTD1100:
 4742 0327 01       		.byte	0x1
 4743 0328 19       		.uleb128 .LLSDACSE1100-.LLSDACSB1100
 4744              	.LLSDACSB1100:
 4745 0329 19       		.uleb128 .LEHB118-.LFB1100
 4746 032a 5B       		.uleb128 .LEHE118-.LEHB118
 4747 032b 00       		.uleb128 0
 4748 032c 00       		.uleb128 0
 4749 032d 74       		.uleb128 .LEHB119-.LFB1100
 4750 032e 4E       		.uleb128 .LEHE119-.LEHB119
 4751 032f D701     		.uleb128 .L212-.LFB1100
 4752 0331 01       		.uleb128 0x1
 4753 0332 D201     		.uleb128 .LEHB120-.LFB1100
 4754 0334 05       		.uleb128 .LEHE120-.LEHB120
 4755 0335 00       		.uleb128 0
 4756 0336 00       		.uleb128 0
 4757 0337 DF01     		.uleb128 .LEHB121-.LFB1100
 4758 0339 38       		.uleb128 .LEHE121-.LEHB121
 4759 033a C401     		.uleb128 .L213-.LFB1100
 4760 033c 00       		.uleb128 0
 4761 033d 9702     		.uleb128 .LEHB122-.LFB1100
 4762 033f 05       		.uleb128 .LEHE122-.LEHB122
 4763 0340 00       		.uleb128 0
 4764 0341 00       		.uleb128 0
 4765              	.LLSDACSE1100:
 4766 0342 01       		.byte	0x1
 4767 0343 00       		.byte	0
 4768              		.align 4
 4769 0344 00000000 		.long	0
 4770              	
 4771              	.LLSDATT1100:
 4772              		.text
 4774              		.section	.rodata
 4775              	.LC58:
 4776 0834 43686563 		.string	"CheckArrayEqualFalse"
 4776      6B417272 
 4776      61794571 
 4776      75616C46 
 4776      616C7365 
 4777              		.text
 4778              		.align 2
 4780              	_ZN12_GLOBAL__N_124TestCheckArrayEqualFalseC2Ev:
 4781              	.LFB1102:
 192:TestChecks.cpp **** 
 193:TestChecks.cpp **** TEST(CheckArrayEqualFalse)
 4782              		.loc 5 193 0
 4783              		.cfi_startproc
 4784 212a 55       		pushq	%rbp
 4785              		.cfi_def_cfa_offset 16
 4786              		.cfi_offset 6, -16
 4787 212b 4889E5   		movq	%rsp, %rbp
 4788              		.cfi_def_cfa_register 6
 4789 212e 4883EC10 		subq	$16, %rsp
 4790 2132 48897DF8 		movq	%rdi, -8(%rbp)
 4791              	.LBB63:
 4792              		.loc 5 193 0
 4793 2136 E8000000 		call	_ZN13UnitTestSuite12GetSuiteNameEv
 4793      00
 4794 213b 4889C2   		movq	%rax, %rdx
 4795 213e 488B45F8 		movq	-8(%rbp), %rax
 4796 2142 41B8C100 		movl	$193, %r8d
 4796      0000
 4797 2148 B9000000 		movl	$.LC2, %ecx
 4797      00
 4798 214d BE000000 		movl	$.LC58, %esi
 4798      00
 4799 2152 4889C7   		movq	%rax, %rdi
 4800 2155 E8000000 		call	_ZN8UnitTest4TestC2EPKcS2_S2_i
 4800      00
 4801 215a 488B45F8 		movq	-8(%rbp), %rax
 4802 215e 48C70000 		movq	$_ZTVN12_GLOBAL__N_124TestCheckArrayEqualFalseE+16, (%rax)
 4802      000000
 4803              	.LBE63:
 4804 2165 C9       		leave
 4805              		.cfi_def_cfa 7, 8
 4806 2166 C3       		ret
 4807              		.cfi_endproc
 4808              	.LFE1102:
 4810              		.set	_ZN12_GLOBAL__N_124TestCheckArrayEqualFalseC1Ev,_ZN12_GLOBAL__N_124TestCheckArrayEqualFalseC2
 4811              		.local	_ZN12_GLOBAL__N_132testCheckArrayEqualFalseInstanceE
 4812              		.comm	_ZN12_GLOBAL__N_132testCheckArrayEqualFalseInstanceE,56,32
 4813              		.local	_ZN12_GLOBAL__N_125adderCheckArrayEqualFalseE
 4814              		.comm	_ZN12_GLOBAL__N_125adderCheckArrayEqualFalseE,1,1
 4815 2167 90       		.align 2
 4817              	_ZNK12_GLOBAL__N_124TestCheckArrayEqualFalse7RunImplEv:
 4818              	.LFB1104:
 194:TestChecks.cpp **** {
 4819              		.loc 5 194 0
 4820              		.cfi_startproc
 4821              		.cfi_personality 0x3,__gxx_personality_v0
 4822              		.cfi_lsda 0x3,.LLSDA1104
 4823 2168 55       		pushq	%rbp
 4824              		.cfi_def_cfa_offset 16
 4825              		.cfi_offset 6, -16
 4826 2169 4889E5   		movq	%rsp, %rbp
 4827              		.cfi_def_cfa_register 6
 4828 216c 53       		pushq	%rbx
 4829 216d 4881EC88 		subq	$136, %rsp
 4829      000000
 4830              		.cfi_offset 3, -24
 4831 2174 4889BD78 		movq	%rdi, -136(%rbp)
 4831      FFFFFF
 4832              	.LBB64:
 195:TestChecks.cpp ****     TestResults results;
 4833              		.loc 5 195 0
 4834 217b 488D45B0 		leaq	-80(%rbp), %rax
 4835 217f BE000000 		movl	$0, %esi
 4835      00
 4836 2184 4889C7   		movq	%rax, %rdi
 4837              	.LEHB123:
 4838 2187 E8000000 		call	_ZN8UnitTest11TestResultsC1EPNS_12TestReporterE
 4838      00
 196:TestChecks.cpp **** 
 197:TestChecks.cpp ****     int const array1[3] = { 1, 2, 3 };
 4839              		.loc 5 197 0
 4840 218c C7459001 		movl	$1, -112(%rbp)
 4840      000000
 4841 2193 C7459402 		movl	$2, -108(%rbp)
 4841      000000
 4842 219a C7459803 		movl	$3, -104(%rbp)
 4842      000000
 198:TestChecks.cpp ****     int const array2[3] = { 1, 2, 2 };
 4843              		.loc 5 198 0
 4844 21a1 C745A001 		movl	$1, -96(%rbp)
 4844      000000
 4845 21a8 C745A402 		movl	$2, -92(%rbp)
 4845      000000
 4846 21af C745A802 		movl	$2, -88(%rbp)
 4846      000000
 199:TestChecks.cpp ****     CheckArrayEqual(results, array1, array2, 3, TestDetails("", "", "", 0));
 4847              		.loc 5 199 0
 4848 21b6 488D45D0 		leaq	-48(%rbp), %rax
 4849 21ba 41B80000 		movl	$0, %r8d
 4849      0000
 4850 21c0 B9000000 		movl	$.LC6, %ecx
 4850      00
 4851 21c5 BA000000 		movl	$.LC6, %edx
 4851      00
 4852 21ca BE000000 		movl	$.LC6, %esi
 4852      00
 4853 21cf 4889C7   		movq	%rax, %rdi
 4854 21d2 E8000000 		call	_ZN8UnitTest11TestDetailsC1EPKcS2_S2_i
 4854      00
 4855 21d7 488D4DD0 		leaq	-48(%rbp), %rcx
 4856 21db 488D55A0 		leaq	-96(%rbp), %rdx
 4857 21df 488D7590 		leaq	-112(%rbp), %rsi
 4858 21e3 488D45B0 		leaq	-80(%rbp), %rax
 4859 21e7 4989C8   		movq	%rcx, %r8
 4860 21ea B9030000 		movl	$3, %ecx
 4860      00
 4861 21ef 4889C7   		movq	%rax, %rdi
 4862 21f2 E8000000 		call	_ZN8UnitTest15CheckArrayEqualIA3_iS1_EEvRNS_11TestResultsERKT_RKT0_iRKNS_11TestDetailsE
 4862      00
 4863              	.LEHE123:
 4864              	.LEHB124:
 200:TestChecks.cpp ****     CHECK_EQUAL(1, results.GetFailureCount());
 4865              		.loc 5 200 0
 4866 21f7 E8000000 		call	_ZN8UnitTest11CurrentTest7DetailsEv
 4866      00
 4867 21fc 488B08   		movq	(%rax), %rcx
 4868 21ff 488D45D0 		leaq	-48(%rbp), %rax
 4869 2203 BAC80000 		movl	$200, %edx
 4869      00
 4870 2208 4889CE   		movq	%rcx, %rsi
 4871 220b 4889C7   		movq	%rax, %rdi
 4872 220e E8000000 		call	_ZN8UnitTest11TestDetailsC1ERKS0_i
 4872      00
 4873              		.loc 5 200 0 is_stmt 0 discriminator 1
 4874 2213 488D45B0 		leaq	-80(%rbp), %rax
 4875 2217 4889C7   		movq	%rax, %rdi
 4876 221a E8000000 		call	_ZNK8UnitTest11TestResults15GetFailureCountEv
 4876      00
 4877 221f 89458C   		movl	%eax, -116(%rbp)
 4878 2222 C7458801 		movl	$1, -120(%rbp)
 4878      000000
 4879 2229 E8000000 		call	_ZN8UnitTest11CurrentTest7ResultsEv
 4879      00
 4880 222e 488B00   		movq	(%rax), %rax
 4881 2231 488D4DD0 		leaq	-48(%rbp), %rcx
 4882 2235 488D558C 		leaq	-116(%rbp), %rdx
 4883 2239 488D7588 		leaq	-120(%rbp), %rsi
 4884 223d 4889C7   		movq	%rax, %rdi
 4885 2240 E8000000 		call	_ZN8UnitTest10CheckEqualIiiEEvRNS_11TestResultsERKT_RKT0_RKNS_11TestDetailsE
 4885      00
 4886              	.LEHE124:
 4887              	.LBE64:
 201:TestChecks.cpp **** }
 4888              		.loc 5 201 0 is_stmt 1
 4889 2245 EB58     		jmp	.L222
 4890              	.L221:
 4891 2247 4889C3   		movq	%rax, %rbx
 4892              	.LBB65:
 200:TestChecks.cpp ****     CHECK_EQUAL(1, results.GetFailureCount());
 4893              		.loc 5 200 0
 4894 224a E8000000 		call	__cxa_end_catch
 4894      00
 4895 224f 4889D8   		movq	%rbx, %rax
 4896 2252 4889C7   		movq	%rax, %rdi
 4897              	.LEHB125:
 4898 2255 E8000000 		call	_Unwind_Resume
 4898      00
 4899              	.LEHE125:
 4900              	.L220:
 4901 225a 4889C7   		movq	%rax, %rdi
 4902 225d E8000000 		call	__cxa_begin_catch
 4902      00
 4903              	.LEHB126:
 4904 2262 E8000000 		call	_ZN8UnitTest11CurrentTest7DetailsEv
 4904      00
 4905 2267 488B08   		movq	(%rax), %rcx
 4906 226a 488D45D0 		leaq	-48(%rbp), %rax
 4907 226e BAC80000 		movl	$200, %edx
 4907      00
 4908 2273 4889CE   		movq	%rcx, %rsi
 4909 2276 4889C7   		movq	%rax, %rdi
 4910 2279 E8000000 		call	_ZN8UnitTest11TestDetailsC1ERKS0_i
 4910      00
 200:TestChecks.cpp ****     CHECK_EQUAL(1, results.GetFailureCount());
 4911              		.loc 5 200 0 is_stmt 0 discriminator 1
 4912 227e E8000000 		call	_ZN8UnitTest11CurrentTest7ResultsEv
 4912      00
 4913 2283 488B00   		movq	(%rax), %rax
 4914 2286 488D4DD0 		leaq	-48(%rbp), %rcx
 4915 228a BA000000 		movl	$.LC7, %edx
 4915      00
 4916 228f 4889CE   		movq	%rcx, %rsi
 4917 2292 4889C7   		movq	%rax, %rdi
 4918 2295 E8000000 		call	_ZN8UnitTest11TestResults13OnTestFailureERKNS_11TestDetailsEPKc
 4918      00
 4919              	.LEHE126:
 4920              	.LEHB127:
 4921 229a E8000000 		call	__cxa_end_catch
 4921      00
 4922              	.LEHE127:
 4923              	.L222:
 4924              	.LBE65:
 4925              		.loc 5 201 0 is_stmt 1
 4926 229f 90       		nop
 4927 22a0 4881C488 		addq	$136, %rsp
 4927      000000
 4928 22a7 5B       		popq	%rbx
 4929 22a8 5D       		popq	%rbp
 4930              		.cfi_def_cfa 7, 8
 4931 22a9 C3       		ret
 4932              		.cfi_endproc
 4933              	.LFE1104:
 4934              		.section	.gcc_except_table
 4935              		.align 4
 4936              	.LLSDA1104:
 4937 0348 FF       		.byte	0xff
 4938 0349 03       		.byte	0x3
 4939 034a 25       		.uleb128 .LLSDATT1104-.LLSDATTD1104
 4940              	.LLSDATTD1104:
 4941 034b 01       		.byte	0x1
 4942 034c 1A       		.uleb128 .LLSDACSE1104-.LLSDACSB1104
 4943              	.LLSDACSB1104:
 4944 034d 1F       		.uleb128 .LEHB123-.LFB1104
 4945 034e 70       		.uleb128 .LEHE123-.LEHB123
 4946 034f 00       		.uleb128 0
 4947 0350 00       		.uleb128 0
 4948 0351 8F01     		.uleb128 .LEHB124-.LFB1104
 4949 0353 4E       		.uleb128 .LEHE124-.LEHB124
 4950 0354 F201     		.uleb128 .L220-.LFB1104
 4951 0356 01       		.uleb128 0x1
 4952 0357 ED01     		.uleb128 .LEHB125-.LFB1104
 4953 0359 05       		.uleb128 .LEHE125-.LEHB125
 4954 035a 00       		.uleb128 0
 4955 035b 00       		.uleb128 0
 4956 035c FA01     		.uleb128 .LEHB126-.LFB1104
 4957 035e 38       		.uleb128 .LEHE126-.LEHB126
 4958 035f DF01     		.uleb128 .L221-.LFB1104
 4959 0361 00       		.uleb128 0
 4960 0362 B202     		.uleb128 .LEHB127-.LFB1104
 4961 0364 05       		.uleb128 .LEHE127-.LEHB127
 4962 0365 00       		.uleb128 0
 4963 0366 00       		.uleb128 0
 4964              	.LLSDACSE1104:
 4965 0367 01       		.byte	0x1
 4966 0368 00       		.byte	0
 4967 0369 000000   		.align 4
 4968 036c 00000000 		.long	0
 4969              	
 4970              	.LLSDATT1104:
 4971              		.text
 4973              		.section	.rodata
 4974              	.LC59:
 4975 0849 43686563 		.string	"CheckArrayCloseTrue"
 4975      6B417272 
 4975      6179436C 
 4975      6F736554 
 4975      72756500 
 4976              		.text
 4977              		.align 2
 4979              	_ZN12_GLOBAL__N_123TestCheckArrayCloseTrueC2Ev:
 4980              	.LFB1106:
 202:TestChecks.cpp **** 
 203:TestChecks.cpp **** TEST(CheckArrayCloseTrue)
 4981              		.loc 5 203 0
 4982              		.cfi_startproc
 4983 22aa 55       		pushq	%rbp
 4984              		.cfi_def_cfa_offset 16
 4985              		.cfi_offset 6, -16
 4986 22ab 4889E5   		movq	%rsp, %rbp
 4987              		.cfi_def_cfa_register 6
 4988 22ae 4883EC10 		subq	$16, %rsp
 4989 22b2 48897DF8 		movq	%rdi, -8(%rbp)
 4990              	.LBB66:
 4991              		.loc 5 203 0
 4992 22b6 E8000000 		call	_ZN13UnitTestSuite12GetSuiteNameEv
 4992      00
 4993 22bb 4889C2   		movq	%rax, %rdx
 4994 22be 488B45F8 		movq	-8(%rbp), %rax
 4995 22c2 41B8CB00 		movl	$203, %r8d
 4995      0000
 4996 22c8 B9000000 		movl	$.LC2, %ecx
 4996      00
 4997 22cd BE000000 		movl	$.LC59, %esi
 4997      00
 4998 22d2 4889C7   		movq	%rax, %rdi
 4999 22d5 E8000000 		call	_ZN8UnitTest4TestC2EPKcS2_S2_i
 4999      00
 5000 22da 488B45F8 		movq	-8(%rbp), %rax
 5001 22de 48C70000 		movq	$_ZTVN12_GLOBAL__N_123TestCheckArrayCloseTrueE+16, (%rax)
 5001      000000
 5002              	.LBE66:
 5003 22e5 C9       		leave
 5004              		.cfi_def_cfa 7, 8
 5005 22e6 C3       		ret
 5006              		.cfi_endproc
 5007              	.LFE1106:
 5009              		.set	_ZN12_GLOBAL__N_123TestCheckArrayCloseTrueC1Ev,_ZN12_GLOBAL__N_123TestCheckArrayCloseTrueC2Ev
 5010              		.local	_ZN12_GLOBAL__N_131testCheckArrayCloseTrueInstanceE
 5011              		.comm	_ZN12_GLOBAL__N_131testCheckArrayCloseTrueInstanceE,56,32
 5012              		.local	_ZN12_GLOBAL__N_124adderCheckArrayCloseTrueE
 5013              		.comm	_ZN12_GLOBAL__N_124adderCheckArrayCloseTrueE,1,1
 5014 22e7 90       		.align 2
 5016              	_ZNK12_GLOBAL__N_123TestCheckArrayCloseTrue7RunImplEv:
 5017              	.LFB1108:
 204:TestChecks.cpp **** {
 5018              		.loc 5 204 0
 5019              		.cfi_startproc
 5020              		.cfi_personality 0x3,__gxx_personality_v0
 5021              		.cfi_lsda 0x3,.LLSDA1108
 5022 22e8 55       		pushq	%rbp
 5023              		.cfi_def_cfa_offset 16
 5024              		.cfi_offset 6, -16
 5025 22e9 4889E5   		movq	%rsp, %rbp
 5026              		.cfi_def_cfa_register 6
 5027 22ec 53       		pushq	%rbx
 5028 22ed 4881EC88 		subq	$136, %rsp
 5028      000000
 5029              		.cfi_offset 3, -24
 5030 22f4 4889BD78 		movq	%rdi, -136(%rbp)
 5030      FFFFFF
