   1              		.file	"TestTestMacros.cpp"
   2              		.text
   3              	.Ltext0:
   4              		.section	.rodata
   5              	.LC0:
   6 0000 44656661 		.string	"DefaultSuite"
   6      756C7453 
   6      75697465 
   6      00
   7              		.section	.text._ZN13UnitTestSuite12GetSuiteNameEv,"axG",@progbits,_ZN13UnitTestSuite12GetSuiteName
   8              		.weak	_ZN13UnitTestSuite12GetSuiteNameEv
  10              	_ZN13UnitTestSuite12GetSuiteNameEv:
  11              	.LFB0:
  12              		.file 1 "../TestSuite.h"
   1:../TestSuite.h **** #ifndef UNITTEST_TESTSUITE_H
   2:../TestSuite.h **** #define UNITTEST_TESTSUITE_H
   3:../TestSuite.h **** 
   4:../TestSuite.h **** namespace UnitTestSuite {
   5:../TestSuite.h **** 
   6:../TestSuite.h ****     inline char const* GetSuiteName ()
   7:../TestSuite.h ****     {
  13              		.loc 1 7 0
  14              		.cfi_startproc
  15 0000 55       		pushq	%rbp
  16              		.cfi_def_cfa_offset 16
  17              		.cfi_offset 6, -16
  18 0001 4889E5   		movq	%rsp, %rbp
  19              		.cfi_def_cfa_register 6
   8:../TestSuite.h ****         return "DefaultSuite";
  20              		.loc 1 8 0
  21 0004 B8000000 		movl	$.LC0, %eax
  21      00
   9:../TestSuite.h ****     }
  22              		.loc 1 9 0
  23 0009 5D       		popq	%rbp
  24              		.cfi_def_cfa 7, 8
  25 000a C3       		ret
  26              		.cfi_endproc
  27              	.LFE0:
  29              		.section	.text._ZN8UnitTest15MemoryOutStreamC1Ev,"axG",@progbits,_ZN8UnitTest15MemoryOutStreamC1Ev
  30              		.align 2
  31              		.weak	_ZN8UnitTest15MemoryOutStreamC1Ev
  33              	_ZN8UnitTest15MemoryOutStreamC1Ev:
  34              	.LFB1007:
  35              		.file 2 "../MemoryOutStream.h"
   1:../MemoryOutStream.h **** #ifndef UNITTEST_MEMORYOUTSTREAM_H
   2:../MemoryOutStream.h **** #define UNITTEST_MEMORYOUTSTREAM_H
   3:../MemoryOutStream.h **** 
   4:../MemoryOutStream.h **** #include "Config.h"
   5:../MemoryOutStream.h **** 
   6:../MemoryOutStream.h **** #ifndef UNITTEST_USE_CUSTOM_STREAMS
   7:../MemoryOutStream.h **** 
   8:../MemoryOutStream.h **** #include <sstream>
   9:../MemoryOutStream.h **** 
  10:../MemoryOutStream.h **** namespace UnitTest
  11:../MemoryOutStream.h **** {
  12:../MemoryOutStream.h **** 
  13:../MemoryOutStream.h **** class MemoryOutStream : public std::ostringstream
  14:../MemoryOutStream.h **** {
  15:../MemoryOutStream.h **** public:
  16:../MemoryOutStream.h ****     MemoryOutStream() {}
  36              		.loc 2 16 0
  37              		.cfi_startproc
  38              		.cfi_personality 0x3,__gxx_personality_v0
  39              		.cfi_lsda 0x3,.LLSDA1007
  40 0000 55       		pushq	%rbp
  41              		.cfi_def_cfa_offset 16
  42              		.cfi_offset 6, -16
  43 0001 4889E5   		movq	%rsp, %rbp
  44              		.cfi_def_cfa_register 6
  45 0004 53       		pushq	%rbx
  46 0005 4883EC18 		subq	$24, %rsp
  47              		.cfi_offset 3, -24
  48 0009 48897DE8 		movq	%rdi, -24(%rbp)
  49              	.LBB2:
  50              		.loc 2 16 0
  51 000d 488B45E8 		movq	-24(%rbp), %rax
  52 0011 4883C060 		addq	$96, %rax
  53 0015 4889C7   		movq	%rax, %rdi
  54              	.LEHB0:
  55 0018 E8000000 		call	_ZNSt9basic_iosIcSt11char_traitsIcEEC2Ev
  55      00
  56              	.LEHE0:
  57 001d B9000000 		movl	$_ZTTN8UnitTest15MemoryOutStreamE+8, %ecx
  57      00
  58 0022 488B45E8 		movq	-24(%rbp), %rax
  59 0026 BA100000 		movl	$16, %edx
  59      00
  60 002b 4889CE   		movq	%rcx, %rsi
  61 002e 4889C7   		movq	%rax, %rdi
  62              	.LEHB1:
  63 0031 E8000000 		call	_ZNSt19basic_ostringstreamIcSt11char_traitsIcESaIcEEC2ESt13_Ios_Openmode
  63      00
  64              	.LEHE1:
  65              		.loc 2 16 0 is_stmt 0 discriminator 6
  66 0036 BA000000 		movl	$_ZTVN8UnitTest15MemoryOutStreamE+24, %edx
  66      00
  67 003b 488B45E8 		movq	-24(%rbp), %rax
  68 003f 488910   		movq	%rdx, (%rax)
  69 0042 BA600000 		movl	$96, %edx
  69      00
  70 0047 488B45E8 		movq	-24(%rbp), %rax
  71 004b 4801C2   		addq	%rax, %rdx
  72 004e B8000000 		movl	$_ZTVN8UnitTest15MemoryOutStreamE+64, %eax
  72      00
  73 0053 488902   		movq	%rax, (%rdx)
  74 0056 488B45E8 		movq	-24(%rbp), %rax
  75 005a 4883C058 		addq	$88, %rax
  76 005e 4889C7   		movq	%rax, %rdi
  77              	.LEHB2:
  78 0061 E8000000 		call	_ZNSsC1Ev
  78      00
  79              	.LEHE2:
  80              	.LBE2:
  81              		.loc 2 16 0
  82 0066 EB37     		jmp	.L8
  83              	.L6:
  84 0068 4889C3   		movq	%rax, %rbx
  85              	.LBB3:
  86 006b BA000000 		movl	$_ZTTN8UnitTest15MemoryOutStreamE+8, %edx
  86      00
  87 0070 488B45E8 		movq	-24(%rbp), %rax
  88 0074 4889D6   		movq	%rdx, %rsi
  89 0077 4889C7   		movq	%rax, %rdi
  90 007a E8000000 		call	_ZNSt19basic_ostringstreamIcSt11char_traitsIcESaIcEED2Ev
  90      00
  91 007f EB03     		jmp	.L5
  92              	.L7:
  93 0081 4889C3   		movq	%rax, %rbx
  94              	.L5:
  95              		.loc 2 16 0 discriminator 19
  96 0084 488B45E8 		movq	-24(%rbp), %rax
  97 0088 4883C060 		addq	$96, %rax
  98 008c 4889C7   		movq	%rax, %rdi
  99 008f E8000000 		call	_ZNSt9basic_iosIcSt11char_traitsIcEED2Ev
  99      00
 100 0094 4889D8   		movq	%rbx, %rax
 101 0097 4889C7   		movq	%rax, %rdi
 102              	.LEHB3:
 103 009a E8000000 		call	_Unwind_Resume
 103      00
 104              	.LEHE3:
 105              	.L8:
 106              	.LBE3:
 107              		.loc 2 16 0
 108 009f 4883C418 		addq	$24, %rsp
 109 00a3 5B       		popq	%rbx
 110 00a4 5D       		popq	%rbp
 111              		.cfi_def_cfa 7, 8
 112 00a5 C3       		ret
 113              		.cfi_endproc
 114              	.LFE1007:
 115              		.globl	__gxx_personality_v0
 116              		.section	.gcc_except_table._ZN8UnitTest15MemoryOutStreamC1Ev,"aG",@progbits,_ZN8UnitTest15MemoryOu
 117              	.LLSDA1007:
 118 0000 FF       		.byte	0xff
 119 0001 FF       		.byte	0xff
 120 0002 01       		.byte	0x1
 121 0003 12       		.uleb128 .LLSDACSE1007-.LLSDACSB1007
 122              	.LLSDACSB1007:
 123 0004 18       		.uleb128 .LEHB0-.LFB1007
 124 0005 05       		.uleb128 .LEHE0-.LEHB0
 125 0006 00       		.uleb128 0
 126 0007 00       		.uleb128 0
 127 0008 31       		.uleb128 .LEHB1-.LFB1007
 128 0009 05       		.uleb128 .LEHE1-.LEHB1
 129 000a 8101     		.uleb128 .L7-.LFB1007
 130 000c 00       		.uleb128 0
 131 000d 61       		.uleb128 .LEHB2-.LFB1007
 132 000e 05       		.uleb128 .LEHE2-.LEHB2
 133 000f 68       		.uleb128 .L6-.LFB1007
 134 0010 00       		.uleb128 0
 135 0011 9A01     		.uleb128 .LEHB3-.LFB1007
 136 0013 05       		.uleb128 .LEHE3-.LEHB3
 137 0014 00       		.uleb128 0
 138 0015 00       		.uleb128 0
 139              	.LLSDACSE1007:
 140              		.section	.text._ZN8UnitTest15MemoryOutStreamC1Ev,"axG",@progbits,_ZN8UnitTest15MemoryOutStreamC1Ev
 142              		.section	.text._ZN8UnitTest12TestReporterC2Ev,"axG",@progbits,_ZN8UnitTest12TestReporterC5Ev,comda
 143              		.align 2
 144              		.weak	_ZN8UnitTest12TestReporterC2Ev
 146              	_ZN8UnitTest12TestReporterC2Ev:
 147              	.LFB1021:
 148              		.file 3 "../TestReporter.h"
   1:../TestReporter.h **** #ifndef UNITTEST_TESTREPORTER_H
   2:../TestReporter.h **** #define UNITTEST_TESTREPORTER_H
   3:../TestReporter.h **** 
   4:../TestReporter.h **** namespace UnitTest {
   5:../TestReporter.h **** 
   6:../TestReporter.h **** class TestDetails;
   7:../TestReporter.h **** 
   8:../TestReporter.h **** class TestReporter
 149              		.loc 3 8 0 is_stmt 1
 150              		.cfi_startproc
 151 0000 55       		pushq	%rbp
 152              		.cfi_def_cfa_offset 16
 153              		.cfi_offset 6, -16
 154 0001 4889E5   		movq	%rsp, %rbp
 155              		.cfi_def_cfa_register 6
 156 0004 48897DF8 		movq	%rdi, -8(%rbp)
 157              	.LBB4:
 158              		.loc 3 8 0
 159 0008 488B45F8 		movq	-8(%rbp), %rax
 160 000c 48C70000 		movq	$_ZTVN8UnitTest12TestReporterE+16, (%rax)
 160      000000
 161              	.LBE4:
 162 0013 5D       		popq	%rbp
 163              		.cfi_def_cfa 7, 8
 164 0014 C3       		ret
 165              		.cfi_endproc
 166              	.LFE1021:
 168              		.weak	_ZN8UnitTest12TestReporterC1Ev
 169              		.set	_ZN8UnitTest12TestReporterC1Ev,_ZN8UnitTest12TestReporterC2Ev
 170              		.section	.text._ZN17RecordingReporterC2Ev,"axG",@progbits,_ZN17RecordingReporterC5Ev,comdat
 171              		.align 2
 172              		.weak	_ZN17RecordingReporterC2Ev
 174              	_ZN17RecordingReporterC2Ev:
 175              	.LFB1023:
 176              		.file 4 "RecordingReporter.h"
   1:RecordingReporter.h **** #ifndef UNITTEST_RECORDINGREPORTER_H
   2:RecordingReporter.h **** #define UNITTEST_RECORDINGREPORTER_H
   3:RecordingReporter.h **** 
   4:RecordingReporter.h **** #include "../TestReporter.h"
   5:RecordingReporter.h **** #include <cstring>
   6:RecordingReporter.h **** 
   7:RecordingReporter.h **** #include "../TestDetails.h"
   8:RecordingReporter.h **** 
   9:RecordingReporter.h **** struct RecordingReporter : public UnitTest::TestReporter
  10:RecordingReporter.h **** {
  11:RecordingReporter.h **** private:
  12:RecordingReporter.h ****     enum { kMaxStringLength = 256 };
  13:RecordingReporter.h **** 
  14:RecordingReporter.h **** public:
  15:RecordingReporter.h ****     RecordingReporter()
 177              		.loc 4 15 0
 178              		.cfi_startproc
 179 0000 55       		pushq	%rbp
 180              		.cfi_def_cfa_offset 16
 181              		.cfi_offset 6, -16
 182 0001 4889E5   		movq	%rsp, %rbp
 183              		.cfi_def_cfa_register 6
 184 0004 4883EC10 		subq	$16, %rsp
 185 0008 48897DF8 		movq	%rdi, -8(%rbp)
 186              	.LBB5:
  16:RecordingReporter.h ****         : testRunCount(0)
  17:RecordingReporter.h ****         , testFailedCount(0)
  18:RecordingReporter.h ****         , lastFailedLine(0)
  19:RecordingReporter.h ****         , testFinishedCount(0)
  20:RecordingReporter.h ****         , lastFinishedTestTime(0)
  21:RecordingReporter.h ****         , summaryTotalTestCount(0)
  22:RecordingReporter.h ****         , summaryFailedTestCount(0)
  23:RecordingReporter.h ****         , summaryFailureCount(0)
  24:RecordingReporter.h ****         , summarySecondsElapsed(0)
 187              		.loc 4 24 0
 188 000c 488B45F8 		movq	-8(%rbp), %rax
 189 0010 4889C7   		movq	%rax, %rdi
 190 0013 E8000000 		call	_ZN8UnitTest12TestReporterC2Ev
 190      00
 191 0018 488B45F8 		movq	-8(%rbp), %rax
 192 001c 48C70000 		movq	$_ZTV17RecordingReporter+16, (%rax)
 192      000000
 193 0023 488B45F8 		movq	-8(%rbp), %rax
 194 0027 C7400800 		movl	$0, 8(%rax)
 194      000000
 195 002e 488B45F8 		movq	-8(%rbp), %rax
 196 0032 C7800C02 		movl	$0, 524(%rax)
 196      00000000 
 196      0000
 197 003c 488B45F8 		movq	-8(%rbp), %rax
 198 0040 C7801003 		movl	$0, 784(%rax)
 198      00000000 
 198      0000
 199 004a 488B45F8 		movq	-8(%rbp), %rax
 200 004e C7801406 		movl	$0, 1556(%rax)
 200      00000000 
 200      0000
 201 0058 488B55F8 		movq	-8(%rbp), %rdx
 202 005c 8B050000 		movl	.LC1(%rip), %eax
 202      0000
 203 0062 89821808 		movl	%eax, 2072(%rdx)
 203      0000
 204 0068 488B45F8 		movq	-8(%rbp), %rax
 205 006c C7801C08 		movl	$0, 2076(%rax)
 205      00000000 
 205      0000
 206 0076 488B45F8 		movq	-8(%rbp), %rax
 207 007a C7802008 		movl	$0, 2080(%rax)
 207      00000000 
 207      0000
 208 0084 488B45F8 		movq	-8(%rbp), %rax
 209 0088 C7802408 		movl	$0, 2084(%rax)
 209      00000000 
 209      0000
 210 0092 488B55F8 		movq	-8(%rbp), %rdx
 211 0096 8B050000 		movl	.LC1(%rip), %eax
 211      0000
 212 009c 89822808 		movl	%eax, 2088(%rdx)
 212      0000
  25:RecordingReporter.h ****     {
  26:RecordingReporter.h ****         lastStartedSuite[0] = '\0';
 213              		.loc 4 26 0
 214 00a2 488B45F8 		movq	-8(%rbp), %rax
 215 00a6 C6400C00 		movb	$0, 12(%rax)
  27:RecordingReporter.h ****         lastStartedTest[0] = '\0';
 216              		.loc 4 27 0
 217 00aa 488B45F8 		movq	-8(%rbp), %rax
 218 00ae C6800C01 		movb	$0, 268(%rax)
 218      000000
  28:RecordingReporter.h ****         lastFailedFile[0] = '\0';
 219              		.loc 4 28 0
 220 00b5 488B45F8 		movq	-8(%rbp), %rax
 221 00b9 C6801002 		movb	$0, 528(%rax)
 221      000000
  29:RecordingReporter.h ****         lastFailedSuite[0] = '\0';
 222              		.loc 4 29 0
 223 00c0 488B45F8 		movq	-8(%rbp), %rax
 224 00c4 C6801403 		movb	$0, 788(%rax)
 224      000000
  30:RecordingReporter.h ****         lastFailedTest[0] = '\0';
 225              		.loc 4 30 0
 226 00cb 488B45F8 		movq	-8(%rbp), %rax
 227 00cf C6801404 		movb	$0, 1044(%rax)
 227      000000
  31:RecordingReporter.h ****         lastFailedMessage[0] = '\0';
 228              		.loc 4 31 0
 229 00d6 488B45F8 		movq	-8(%rbp), %rax
 230 00da C6801405 		movb	$0, 1300(%rax)
 230      000000
  32:RecordingReporter.h ****         lastFinishedSuite[0] = '\0';
 231              		.loc 4 32 0
 232 00e1 488B45F8 		movq	-8(%rbp), %rax
 233 00e5 C6801806 		movb	$0, 1560(%rax)
 233      000000
  33:RecordingReporter.h ****         lastFinishedTest[0] = '\0';
 234              		.loc 4 33 0
 235 00ec 488B45F8 		movq	-8(%rbp), %rax
 236 00f0 C6801807 		movb	$0, 1816(%rax)
 236      000000
 237              	.LBE5:
  34:RecordingReporter.h ****     }
 238              		.loc 4 34 0
 239 00f7 C9       		leave
 240              		.cfi_def_cfa 7, 8
 241 00f8 C3       		ret
 242              		.cfi_endproc
 243              	.LFE1023:
 245              		.weak	_ZN17RecordingReporterC1Ev
 246              		.set	_ZN17RecordingReporterC1Ev,_ZN17RecordingReporterC2Ev
 247              		.section	.text._ZN17RecordingReporter15ReportTestStartERKN8UnitTest11TestDetailsE,"axG",@progbits,
 248              		.align 2
 249              		.weak	_ZN17RecordingReporter15ReportTestStartERKN8UnitTest11TestDetailsE
 251              	_ZN17RecordingReporter15ReportTestStartERKN8UnitTest11TestDetailsE:
 252              	.LFB1025:
  35:RecordingReporter.h **** 
  36:RecordingReporter.h ****     virtual void ReportTestStart(UnitTest::TestDetails const& test)
 253              		.loc 4 36 0
 254              		.cfi_startproc
 255 0000 55       		pushq	%rbp
 256              		.cfi_def_cfa_offset 16
 257              		.cfi_offset 6, -16
 258 0001 4889E5   		movq	%rsp, %rbp
 259              		.cfi_def_cfa_register 6
 260 0004 4883EC10 		subq	$16, %rsp
 261 0008 48897DF8 		movq	%rdi, -8(%rbp)
 262 000c 488975F0 		movq	%rsi, -16(%rbp)
 263              	.LBB6:
  37:RecordingReporter.h ****     {
  38:RecordingReporter.h **** 		using namespace std;
  39:RecordingReporter.h **** 
  40:RecordingReporter.h ****         ++testRunCount;
 264              		.loc 4 40 0
 265 0010 488B45F8 		movq	-8(%rbp), %rax
 266 0014 8B4008   		movl	8(%rax), %eax
 267 0017 8D5001   		leal	1(%rax), %edx
 268 001a 488B45F8 		movq	-8(%rbp), %rax
 269 001e 895008   		movl	%edx, 8(%rax)
  41:RecordingReporter.h ****         strcpy(lastStartedSuite, test.suiteName);
 270              		.loc 4 41 0
 271 0021 488B45F0 		movq	-16(%rbp), %rax
 272 0025 488B00   		movq	(%rax), %rax
 273 0028 488B55F8 		movq	-8(%rbp), %rdx
 274 002c 4883C20C 		addq	$12, %rdx
 275 0030 4889C6   		movq	%rax, %rsi
 276 0033 4889D7   		movq	%rdx, %rdi
 277 0036 E8000000 		call	strcpy
 277      00
  42:RecordingReporter.h ****         strcpy(lastStartedTest, test.testName);
 278              		.loc 4 42 0
 279 003b 488B45F0 		movq	-16(%rbp), %rax
 280 003f 488B4008 		movq	8(%rax), %rax
 281 0043 488B55F8 		movq	-8(%rbp), %rdx
 282 0047 4881C20C 		addq	$268, %rdx
 282      010000
 283 004e 4889C6   		movq	%rax, %rsi
 284 0051 4889D7   		movq	%rdx, %rdi
 285 0054 E8000000 		call	strcpy
 285      00
 286              	.LBE6:
  43:RecordingReporter.h ****     }
 287              		.loc 4 43 0
 288 0059 C9       		leave
 289              		.cfi_def_cfa 7, 8
 290 005a C3       		ret
 291              		.cfi_endproc
 292              	.LFE1025:
 294              		.section	.text._ZN17RecordingReporter13ReportFailureERKN8UnitTest11TestDetailsEPKc,"axG",@progbits
 295              		.align 2
 296              		.weak	_ZN17RecordingReporter13ReportFailureERKN8UnitTest11TestDetailsEPKc
 298              	_ZN17RecordingReporter13ReportFailureERKN8UnitTest11TestDetailsEPKc:
 299              	.LFB1026:
  44:RecordingReporter.h **** 
  45:RecordingReporter.h ****     virtual void ReportFailure(UnitTest::TestDetails const& test, char const* failure)
 300              		.loc 4 45 0
 301              		.cfi_startproc
 302 0000 55       		pushq	%rbp
 303              		.cfi_def_cfa_offset 16
 304              		.cfi_offset 6, -16
 305 0001 4889E5   		movq	%rsp, %rbp
 306              		.cfi_def_cfa_register 6
 307 0004 4883EC20 		subq	$32, %rsp
 308 0008 48897DF8 		movq	%rdi, -8(%rbp)
 309 000c 488975F0 		movq	%rsi, -16(%rbp)
 310 0010 488955E8 		movq	%rdx, -24(%rbp)
 311              	.LBB7:
  46:RecordingReporter.h ****     {
  47:RecordingReporter.h **** 		using namespace std;
  48:RecordingReporter.h **** 
  49:RecordingReporter.h **** 		++testFailedCount;
 312              		.loc 4 49 0
 313 0014 488B45F8 		movq	-8(%rbp), %rax
 314 0018 8B800C02 		movl	524(%rax), %eax
 314      0000
 315 001e 8D5001   		leal	1(%rax), %edx
 316 0021 488B45F8 		movq	-8(%rbp), %rax
 317 0025 89900C02 		movl	%edx, 524(%rax)
 317      0000
  50:RecordingReporter.h ****         strcpy(lastFailedFile, test.filename);
 318              		.loc 4 50 0
 319 002b 488B45F0 		movq	-16(%rbp), %rax
 320 002f 488B4010 		movq	16(%rax), %rax
 321 0033 488B55F8 		movq	-8(%rbp), %rdx
 322 0037 4881C210 		addq	$528, %rdx
 322      020000
 323 003e 4889C6   		movq	%rax, %rsi
 324 0041 4889D7   		movq	%rdx, %rdi
 325 0044 E8000000 		call	strcpy
 325      00
  51:RecordingReporter.h ****         lastFailedLine = test.lineNumber;
 326              		.loc 4 51 0
 327 0049 488B45F0 		movq	-16(%rbp), %rax
 328 004d 8B5018   		movl	24(%rax), %edx
 329 0050 488B45F8 		movq	-8(%rbp), %rax
 330 0054 89901003 		movl	%edx, 784(%rax)
 330      0000
  52:RecordingReporter.h ****         strcpy(lastFailedSuite, test.suiteName);
 331              		.loc 4 52 0
 332 005a 488B45F0 		movq	-16(%rbp), %rax
 333 005e 488B00   		movq	(%rax), %rax
 334 0061 488B55F8 		movq	-8(%rbp), %rdx
 335 0065 4881C214 		addq	$788, %rdx
 335      030000
 336 006c 4889C6   		movq	%rax, %rsi
 337 006f 4889D7   		movq	%rdx, %rdi
 338 0072 E8000000 		call	strcpy
 338      00
  53:RecordingReporter.h ****         strcpy(lastFailedTest, test.testName);
 339              		.loc 4 53 0
 340 0077 488B45F0 		movq	-16(%rbp), %rax
 341 007b 488B4008 		movq	8(%rax), %rax
 342 007f 488B55F8 		movq	-8(%rbp), %rdx
 343 0083 4881C214 		addq	$1044, %rdx
 343      040000
 344 008a 4889C6   		movq	%rax, %rsi
 345 008d 4889D7   		movq	%rdx, %rdi
 346 0090 E8000000 		call	strcpy
 346      00
  54:RecordingReporter.h ****         strcpy(lastFailedMessage, failure);
 347              		.loc 4 54 0
 348 0095 488B45F8 		movq	-8(%rbp), %rax
 349 0099 488D9014 		leaq	1300(%rax), %rdx
 349      050000
 350 00a0 488B45E8 		movq	-24(%rbp), %rax
 351 00a4 4889C6   		movq	%rax, %rsi
 352 00a7 4889D7   		movq	%rdx, %rdi
 353 00aa E8000000 		call	strcpy
 353      00
 354              	.LBE7:
  55:RecordingReporter.h ****     }
 355              		.loc 4 55 0
 356 00af C9       		leave
 357              		.cfi_def_cfa 7, 8
 358 00b0 C3       		ret
 359              		.cfi_endproc
 360              	.LFE1026:
 362              		.section	.text._ZN17RecordingReporter16ReportTestFinishERKN8UnitTest11TestDetailsEf,"axG",@progbit
 363              		.align 2
 364              		.weak	_ZN17RecordingReporter16ReportTestFinishERKN8UnitTest11TestDetailsEf
 366              	_ZN17RecordingReporter16ReportTestFinishERKN8UnitTest11TestDetailsEf:
 367              	.LFB1027:
  56:RecordingReporter.h **** 
  57:RecordingReporter.h ****     virtual void ReportTestFinish(UnitTest::TestDetails const& test, float testDuration)
 368              		.loc 4 57 0
 369              		.cfi_startproc
 370 0000 55       		pushq	%rbp
 371              		.cfi_def_cfa_offset 16
 372              		.cfi_offset 6, -16
 373 0001 4889E5   		movq	%rsp, %rbp
 374              		.cfi_def_cfa_register 6
 375 0004 4883EC20 		subq	$32, %rsp
 376 0008 48897DF8 		movq	%rdi, -8(%rbp)
 377 000c 488975F0 		movq	%rsi, -16(%rbp)
 378 0010 F30F1145 		movss	%xmm0, -20(%rbp)
 378      EC
 379              	.LBB8:
  58:RecordingReporter.h ****     {
  59:RecordingReporter.h **** 		using namespace std;
  60:RecordingReporter.h **** 
  61:RecordingReporter.h **** 		++testFinishedCount;
 380              		.loc 4 61 0
 381 0015 488B45F8 		movq	-8(%rbp), %rax
 382 0019 8B801406 		movl	1556(%rax), %eax
 382      0000
 383 001f 8D5001   		leal	1(%rax), %edx
 384 0022 488B45F8 		movq	-8(%rbp), %rax
 385 0026 89901406 		movl	%edx, 1556(%rax)
 385      0000
  62:RecordingReporter.h ****         strcpy(lastFinishedSuite, test.suiteName);
 386              		.loc 4 62 0
 387 002c 488B45F0 		movq	-16(%rbp), %rax
 388 0030 488B00   		movq	(%rax), %rax
 389 0033 488B55F8 		movq	-8(%rbp), %rdx
 390 0037 4881C218 		addq	$1560, %rdx
 390      060000
 391 003e 4889C6   		movq	%rax, %rsi
 392 0041 4889D7   		movq	%rdx, %rdi
 393 0044 E8000000 		call	strcpy
 393      00
  63:RecordingReporter.h ****         strcpy(lastFinishedTest, test.testName);
 394              		.loc 4 63 0
 395 0049 488B45F0 		movq	-16(%rbp), %rax
 396 004d 488B4008 		movq	8(%rax), %rax
 397 0051 488B55F8 		movq	-8(%rbp), %rdx
 398 0055 4881C218 		addq	$1816, %rdx
 398      070000
 399 005c 4889C6   		movq	%rax, %rsi
 400 005f 4889D7   		movq	%rdx, %rdi
 401 0062 E8000000 		call	strcpy
 401      00
  64:RecordingReporter.h ****         lastFinishedTestTime = testDuration;
 402              		.loc 4 64 0
 403 0067 488B55F8 		movq	-8(%rbp), %rdx
 404 006b 8B45EC   		movl	-20(%rbp), %eax
 405 006e 89821808 		movl	%eax, 2072(%rdx)
 405      0000
 406              	.LBE8:
  65:RecordingReporter.h ****     }
 407              		.loc 4 65 0
 408 0074 C9       		leave
 409              		.cfi_def_cfa 7, 8
 410 0075 C3       		ret
 411              		.cfi_endproc
 412              	.LFE1027:
 414              		.section	.text._ZN17RecordingReporter13ReportSummaryEiiif,"axG",@progbits,_ZN17RecordingReporter13
 415              		.align 2
 416              		.weak	_ZN17RecordingReporter13ReportSummaryEiiif
 418              	_ZN17RecordingReporter13ReportSummaryEiiif:
 419              	.LFB1028:
  66:RecordingReporter.h **** 
  67:RecordingReporter.h ****     virtual void ReportSummary(int totalTestCount, int failedTestCount, int failureCount, float sec
 420              		.loc 4 67 0
 421              		.cfi_startproc
 422 0000 55       		pushq	%rbp
 423              		.cfi_def_cfa_offset 16
 424              		.cfi_offset 6, -16
 425 0001 4889E5   		movq	%rsp, %rbp
 426              		.cfi_def_cfa_register 6
 427 0004 48897DF8 		movq	%rdi, -8(%rbp)
 428 0008 8975F4   		movl	%esi, -12(%rbp)
 429 000b 8955F0   		movl	%edx, -16(%rbp)
 430 000e 894DEC   		movl	%ecx, -20(%rbp)
 431 0011 F30F1145 		movss	%xmm0, -24(%rbp)
 431      E8
  68:RecordingReporter.h ****     {
  69:RecordingReporter.h ****         summaryTotalTestCount = totalTestCount;
 432              		.loc 4 69 0
 433 0016 488B45F8 		movq	-8(%rbp), %rax
 434 001a 8B55F4   		movl	-12(%rbp), %edx
 435 001d 89901C08 		movl	%edx, 2076(%rax)
 435      0000
  70:RecordingReporter.h ****         summaryFailedTestCount = failedTestCount;
 436              		.loc 4 70 0
 437 0023 488B45F8 		movq	-8(%rbp), %rax
 438 0027 8B55F0   		movl	-16(%rbp), %edx
 439 002a 89902008 		movl	%edx, 2080(%rax)
 439      0000
  71:RecordingReporter.h ****         summaryFailureCount = failureCount;
 440              		.loc 4 71 0
 441 0030 488B45F8 		movq	-8(%rbp), %rax
 442 0034 8B55EC   		movl	-20(%rbp), %edx
 443 0037 89902408 		movl	%edx, 2084(%rax)
 443      0000
  72:RecordingReporter.h ****         summarySecondsElapsed = secondsElapsed;
 444              		.loc 4 72 0
 445 003d 488B55F8 		movq	-8(%rbp), %rdx
 446 0041 8B45E8   		movl	-24(%rbp), %eax
 447 0044 89822808 		movl	%eax, 2088(%rdx)
 447      0000
  73:RecordingReporter.h ****     }
 448              		.loc 4 73 0
 449 004a 5D       		popq	%rbp
 450              		.cfi_def_cfa 7, 8
 451 004b C3       		ret
 452              		.cfi_endproc
 453              	.LFE1028:
 455              		.section	.text._ZN17ScopedCurrentTestC2ERN8UnitTest11TestResultsEPKNS0_11TestDetailsE,"axG",@progb
 456              		.align 2
 457              		.weak	_ZN17ScopedCurrentTestC2ERN8UnitTest11TestResultsEPKNS0_11TestDetailsE
 459              	_ZN17ScopedCurrentTestC2ERN8UnitTest11TestResultsEPKNS0_11TestDetailsE:
 460              	.LFB1033:
 461              		.file 5 "ScopedCurrentTest.h"
   1:ScopedCurrentTest.h **** #ifndef UNITTEST_SCOPEDCURRENTTEST_H
   2:ScopedCurrentTest.h **** #define UNITTEST_SCOPEDCURRENTTEST_H
   3:ScopedCurrentTest.h **** 
   4:ScopedCurrentTest.h **** #include "../CurrentTest.h"
   5:ScopedCurrentTest.h **** #include <cstddef>
   6:ScopedCurrentTest.h **** 
   7:ScopedCurrentTest.h **** class ScopedCurrentTest
   8:ScopedCurrentTest.h **** {
   9:ScopedCurrentTest.h **** public:
  10:ScopedCurrentTest.h **** 	ScopedCurrentTest()
  11:ScopedCurrentTest.h **** 		: m_oldTestResults(UnitTest::CurrentTest::Results())
  12:ScopedCurrentTest.h **** 		, m_oldTestDetails(UnitTest::CurrentTest::Details())
  13:ScopedCurrentTest.h **** 	{
  14:ScopedCurrentTest.h **** 	}
  15:ScopedCurrentTest.h **** 
  16:ScopedCurrentTest.h **** 	explicit ScopedCurrentTest(UnitTest::TestResults& newResults, const UnitTest::TestDetails* newDeta
 462              		.loc 5 16 0
 463              		.cfi_startproc
 464 0000 55       		pushq	%rbp
 465              		.cfi_def_cfa_offset 16
 466              		.cfi_offset 6, -16
 467 0001 4889E5   		movq	%rsp, %rbp
 468              		.cfi_def_cfa_register 6
 469 0004 4883EC20 		subq	$32, %rsp
 470 0008 48897DF8 		movq	%rdi, -8(%rbp)
 471 000c 488975F0 		movq	%rsi, -16(%rbp)
 472 0010 488955E8 		movq	%rdx, -24(%rbp)
 473              	.LBB9:
  17:ScopedCurrentTest.h **** 		: m_oldTestResults(UnitTest::CurrentTest::Results())
 474              		.loc 5 17 0
 475 0014 E8000000 		call	_ZN8UnitTest11CurrentTest7ResultsEv
 475      00
  18:ScopedCurrentTest.h **** 		, m_oldTestDetails(UnitTest::CurrentTest::Details())
 476              		.loc 5 18 0
 477 0019 488B10   		movq	(%rax), %rdx
 478 001c 488B45F8 		movq	-8(%rbp), %rax
 479 0020 488910   		movq	%rdx, (%rax)
 480 0023 E8000000 		call	_ZN8UnitTest11CurrentTest7DetailsEv
 480      00
 481 0028 488B10   		movq	(%rax), %rdx
 482 002b 488B45F8 		movq	-8(%rbp), %rax
 483 002f 48895008 		movq	%rdx, 8(%rax)
  19:ScopedCurrentTest.h **** 	{
  20:ScopedCurrentTest.h **** 		UnitTest::CurrentTest::Results() = &newResults;
 484              		.loc 5 20 0
 485 0033 E8000000 		call	_ZN8UnitTest11CurrentTest7ResultsEv
 485      00
 486 0038 488B55F0 		movq	-16(%rbp), %rdx
 487 003c 488910   		movq	%rdx, (%rax)
  21:ScopedCurrentTest.h **** 
  22:ScopedCurrentTest.h **** 		if (newDetails != NULL)
 488              		.loc 5 22 0
 489 003f 48837DE8 		cmpq	$0, -24(%rbp)
 489      00
 490 0044 740C     		je	.L15
  23:ScopedCurrentTest.h **** 			UnitTest::CurrentTest::Details() = newDetails;
 491              		.loc 5 23 0
 492 0046 E8000000 		call	_ZN8UnitTest11CurrentTest7DetailsEv
 492      00
 493 004b 488B55E8 		movq	-24(%rbp), %rdx
 494 004f 488910   		movq	%rdx, (%rax)
 495              	.L15:
 496              	.LBE9:
  24:ScopedCurrentTest.h **** 	}
 497              		.loc 5 24 0
 498 0052 C9       		leave
 499              		.cfi_def_cfa 7, 8
 500 0053 C3       		ret
 501              		.cfi_endproc
 502              	.LFE1033:
 504              		.weak	_ZN17ScopedCurrentTestC1ERN8UnitTest11TestResultsEPKNS0_11TestDetailsE
 505              		.set	_ZN17ScopedCurrentTestC1ERN8UnitTest11TestResultsEPKNS0_11TestDetailsE,_ZN17ScopedCurrentTest
 506              		.section	.text._ZN17ScopedCurrentTestD2Ev,"axG",@progbits,_ZN17ScopedCurrentTestD5Ev,comdat
 507              		.align 2
 508              		.weak	_ZN17ScopedCurrentTestD2Ev
 510              	_ZN17ScopedCurrentTestD2Ev:
 511              	.LFB1036:
  25:ScopedCurrentTest.h **** 
  26:ScopedCurrentTest.h **** 	~ScopedCurrentTest()
 512              		.loc 5 26 0
 513              		.cfi_startproc
 514 0000 55       		pushq	%rbp
 515              		.cfi_def_cfa_offset 16
 516              		.cfi_offset 6, -16
 517 0001 4889E5   		movq	%rsp, %rbp
 518              		.cfi_def_cfa_register 6
 519 0004 4883EC10 		subq	$16, %rsp
 520 0008 48897DF8 		movq	%rdi, -8(%rbp)
 521              	.LBB10:
  27:ScopedCurrentTest.h **** 	{
  28:ScopedCurrentTest.h **** 		UnitTest::CurrentTest::Results() = m_oldTestResults;
 522              		.loc 5 28 0
 523 000c E8000000 		call	_ZN8UnitTest11CurrentTest7ResultsEv
 523      00
 524 0011 488B55F8 		movq	-8(%rbp), %rdx
 525 0015 488B12   		movq	(%rdx), %rdx
 526 0018 488910   		movq	%rdx, (%rax)
  29:ScopedCurrentTest.h **** 		UnitTest::CurrentTest::Details() = m_oldTestDetails;
 527              		.loc 5 29 0
 528 001b E8000000 		call	_ZN8UnitTest11CurrentTest7DetailsEv
 528      00
 529 0020 488B55F8 		movq	-8(%rbp), %rdx
 530 0024 488B5208 		movq	8(%rdx), %rdx
 531 0028 488910   		movq	%rdx, (%rax)
 532              	.LBE10:
  30:ScopedCurrentTest.h **** 	}
 533              		.loc 5 30 0
 534 002b C9       		leave
 535              		.cfi_def_cfa 7, 8
 536 002c C3       		ret
 537              		.cfi_endproc
 538              	.LFE1036:
 540              		.weak	_ZN17ScopedCurrentTestD1Ev
 541              		.set	_ZN17ScopedCurrentTestD1Ev,_ZN17ScopedCurrentTestD2Ev
 542              		.local	_ZN12_GLOBAL__N_15list1E
 543              		.comm	_ZN12_GLOBAL__N_15list1E,16,16
 544              		.section	.rodata
 545              	.LC2:
 546 000d 54657374 		.string	"TestTestMacros.cpp"
 546      54657374 
 546      4D616372 
 546      6F732E63 
 546      707000
 547              	.LC3:
 548 0020 44756D6D 		.string	"DummyTest"
 548      79546573 
 548      7400
 549              		.text
 550              		.align 2
 552              	_ZN12_GLOBAL__N_113TestDummyTestC2Ev:
 553              	.LFB1039:
 554              		.file 6 "TestTestMacros.cpp"
   1:TestTestMacros.cpp **** #include "../UnitTest++.h"
   2:TestTestMacros.cpp **** #include "../TestMacros.h"
   3:TestTestMacros.cpp **** #include "../TestList.h"
   4:TestTestMacros.cpp **** #include "../TestResults.h"
   5:TestTestMacros.cpp **** #include "../TestReporter.h"
   6:TestTestMacros.cpp **** #include "../ReportAssert.h"
   7:TestTestMacros.cpp **** #include "RecordingReporter.h"
   8:TestTestMacros.cpp **** #include "ScopedCurrentTest.h"
   9:TestTestMacros.cpp **** 
  10:TestTestMacros.cpp **** using namespace UnitTest;
  11:TestTestMacros.cpp **** 
  12:TestTestMacros.cpp **** namespace {
  13:TestTestMacros.cpp **** 
  14:TestTestMacros.cpp **** TestList list1;
  15:TestTestMacros.cpp **** TEST_EX(DummyTest, list1)
 555              		.loc 6 15 0
 556              		.cfi_startproc
 557 0000 55       		pushq	%rbp
 558              		.cfi_def_cfa_offset 16
 559              		.cfi_offset 6, -16
 560 0001 4889E5   		movq	%rsp, %rbp
 561              		.cfi_def_cfa_register 6
 562 0004 4883EC10 		subq	$16, %rsp
 563 0008 48897DF8 		movq	%rdi, -8(%rbp)
 564              	.LBB11:
 565              		.loc 6 15 0
 566 000c E8000000 		call	_ZN13UnitTestSuite12GetSuiteNameEv
 566      00
 567 0011 4889C2   		movq	%rax, %rdx
 568 0014 488B45F8 		movq	-8(%rbp), %rax
 569 0018 41B80F00 		movl	$15, %r8d
 569      0000
 570 001e B9000000 		movl	$.LC2, %ecx
 570      00
 571 0023 BE000000 		movl	$.LC3, %esi
 571      00
 572 0028 4889C7   		movq	%rax, %rdi
 573 002b E8000000 		call	_ZN8UnitTest4TestC2EPKcS2_S2_i
 573      00
 574 0030 488B45F8 		movq	-8(%rbp), %rax
 575 0034 48C70000 		movq	$_ZTVN12_GLOBAL__N_113TestDummyTestE+16, (%rax)
 575      000000
 576              	.LBE11:
 577 003b C9       		leave
 578              		.cfi_def_cfa 7, 8
 579 003c C3       		ret
 580              		.cfi_endproc
 581              	.LFE1039:
 583              		.set	_ZN12_GLOBAL__N_113TestDummyTestC1Ev,_ZN12_GLOBAL__N_113TestDummyTestC2Ev
 584              		.local	_ZN12_GLOBAL__N_121testDummyTestInstanceE
 585              		.comm	_ZN12_GLOBAL__N_121testDummyTestInstanceE,56,32
 586              		.local	_ZN12_GLOBAL__N_114adderDummyTestE
 587              		.comm	_ZN12_GLOBAL__N_114adderDummyTestE,1,1
 588 003d 90       		.align 2
 590              	_ZNK12_GLOBAL__N_113TestDummyTest7RunImplEv:
 591              	.LFB1041:
  16:TestTestMacros.cpp **** {
 592              		.loc 6 16 0
 593              		.cfi_startproc
 594 003e 55       		pushq	%rbp
 595              		.cfi_def_cfa_offset 16
 596              		.cfi_offset 6, -16
 597 003f 4889E5   		movq	%rsp, %rbp
 598              		.cfi_def_cfa_register 6
 599 0042 48897DF8 		movq	%rdi, -8(%rbp)
  17:TestTestMacros.cpp **** }
 600              		.loc 6 17 0
 601 0046 5D       		popq	%rbp
 602              		.cfi_def_cfa 7, 8
 603 0047 C3       		ret
 604              		.cfi_endproc
 605              	.LFE1041:
 607              		.section	.rodata
 608 002a 00000000 		.align 8
 608      0000
 609              	.LC4:
 610 0030 54657374 		.string	"TestsAreAddedToTheListThroughMacro"
 610      73417265 
 610      41646465 
 610      64546F54 
 610      68654C69 
 611              		.text
 612              		.align 2
 614              	_ZN12_GLOBAL__N_138TestTestsAreAddedToTheListThroughMacroC2Ev:
 615              	.LFB1043:
  18:TestTestMacros.cpp **** 
  19:TestTestMacros.cpp **** TEST (TestsAreAddedToTheListThroughMacro)
 616              		.loc 6 19 0
 617              		.cfi_startproc
 618 0048 55       		pushq	%rbp
 619              		.cfi_def_cfa_offset 16
 620              		.cfi_offset 6, -16
 621 0049 4889E5   		movq	%rsp, %rbp
 622              		.cfi_def_cfa_register 6
 623 004c 4883EC10 		subq	$16, %rsp
 624 0050 48897DF8 		movq	%rdi, -8(%rbp)
 625              	.LBB12:
 626              		.loc 6 19 0
 627 0054 E8000000 		call	_ZN13UnitTestSuite12GetSuiteNameEv
 627      00
 628 0059 4889C2   		movq	%rax, %rdx
 629 005c 488B45F8 		movq	-8(%rbp), %rax
 630 0060 41B81300 		movl	$19, %r8d
 630      0000
 631 0066 B9000000 		movl	$.LC2, %ecx
 631      00
 632 006b BE000000 		movl	$.LC4, %esi
 632      00
 633 0070 4889C7   		movq	%rax, %rdi
 634 0073 E8000000 		call	_ZN8UnitTest4TestC2EPKcS2_S2_i
 634      00
 635 0078 488B45F8 		movq	-8(%rbp), %rax
 636 007c 48C70000 		movq	$_ZTVN12_GLOBAL__N_138TestTestsAreAddedToTheListThroughMacroE+16, (%rax)
 636      000000
 637              	.LBE12:
 638 0083 C9       		leave
 639              		.cfi_def_cfa 7, 8
 640 0084 C3       		ret
 641              		.cfi_endproc
 642              	.LFE1043:
 644              		.set	_ZN12_GLOBAL__N_138TestTestsAreAddedToTheListThroughMacroC1Ev,_ZN12_GLOBAL__N_138TestTestsAre
 645              		.local	_ZN12_GLOBAL__N_146testTestsAreAddedToTheListThroughMacroInstanceE
 646              		.comm	_ZN12_GLOBAL__N_146testTestsAreAddedToTheListThroughMacroInstanceE,56,32
 647              		.local	_ZN12_GLOBAL__N_139adderTestsAreAddedToTheListThroughMacroE
 648              		.comm	_ZN12_GLOBAL__N_139adderTestsAreAddedToTheListThroughMacroE,1,1
 649              		.section	.rodata
 650              	.LC5:
 651 0053 6C697374 		.string	"list1.GetHead() != 0"
 651      312E4765 
 651      74486561 
 651      64282920 
 651      213D2030 
 652              	.LC6:
 653 0068 6C697374 		.string	"list1.GetHead()->next == 0"
 653      312E4765 
 653      74486561 
 653      6428292D 
 653      3E6E6578 
 654 0083 00000000 		.align 8
 654      00
 655              	.LC7:
 656 0088 556E6861 		.string	"Unhandled exception in CHECK(list1.GetHead() != 0)"
 656      6E646C65 
 656      64206578 
 656      63657074 
 656      696F6E20 
 657 00bb 00000000 		.align 8
 657      00
 658              	.LC8:
 659 00c0 556E6861 		.string	"Unhandled exception in CHECK(list1.GetHead()->next == 0)"
 659      6E646C65 
 659      64206578 
 659      63657074 
 659      696F6E20 
 660              		.text
 661 0085 90       		.align 2
 663              	_ZNK12_GLOBAL__N_138TestTestsAreAddedToTheListThroughMacro7RunImplEv:
 664              	.LFB1045:
  20:TestTestMacros.cpp **** {
 665              		.loc 6 20 0
 666              		.cfi_startproc
 667              		.cfi_personality 0x3,__gxx_personality_v0
 668              		.cfi_lsda 0x3,.LLSDA1045
 669 0086 55       		pushq	%rbp
 670              		.cfi_def_cfa_offset 16
 671              		.cfi_offset 6, -16
 672 0087 4889E5   		movq	%rsp, %rbp
 673              		.cfi_def_cfa_register 6
 674 008a 53       		pushq	%rbx
 675 008b 4883EC38 		subq	$56, %rsp
 676              		.cfi_offset 3, -24
 677 008f 48897DC8 		movq	%rdi, -56(%rbp)
  21:TestTestMacros.cpp ****     CHECK(list1.GetHead() != 0);
 678              		.loc 6 21 0
 679 0093 BF000000 		movl	$_ZN12_GLOBAL__N_15list1E, %edi
 679      00
 680              	.LEHB4:
 681 0098 E8000000 		call	_ZNK8UnitTest8TestList7GetHeadEv
 681      00
 682 009d 4885C0   		testq	%rax, %rax
 683 00a0 0F95C0   		setne	%al
 684 00a3 0FB6C0   		movzbl	%al, %eax
 685 00a6 89C7     		movl	%eax, %edi
 686 00a8 E8000000 		call	_ZN8UnitTest5CheckIbEEbT_
 686      00
 687 00ad 83F001   		xorl	$1, %eax
 688 00b0 84C0     		testb	%al, %al
 689 00b2 7438     		je	.L23
 690              		.loc 6 21 0 is_stmt 0 discriminator 1
 691 00b4 E8000000 		call	_ZN8UnitTest11CurrentTest7DetailsEv
 691      00
 692 00b9 488B08   		movq	(%rax), %rcx
 693 00bc 488D45D0 		leaq	-48(%rbp), %rax
 694 00c0 BA150000 		movl	$21, %edx
 694      00
 695 00c5 4889CE   		movq	%rcx, %rsi
 696 00c8 4889C7   		movq	%rax, %rdi
 697 00cb E8000000 		call	_ZN8UnitTest11TestDetailsC1ERKS0_i
 697      00
 698 00d0 E8000000 		call	_ZN8UnitTest11CurrentTest7ResultsEv
 698      00
 699 00d5 488B00   		movq	(%rax), %rax
 700 00d8 488D4DD0 		leaq	-48(%rbp), %rcx
 701 00dc BA000000 		movl	$.LC5, %edx
 701      00
 702 00e1 4889CE   		movq	%rcx, %rsi
 703 00e4 4889C7   		movq	%rax, %rdi
 704 00e7 E8000000 		call	_ZN8UnitTest11TestResults13OnTestFailureERKNS_11TestDetailsEPKc
 704      00
 705              	.LEHE4:
 706              	.L23:
  22:TestTestMacros.cpp ****     CHECK(list1.GetHead()->next == 0);
 707              		.loc 6 22 0 is_stmt 1
 708 00ec BF000000 		movl	$_ZN12_GLOBAL__N_15list1E, %edi
 708      00
 709              	.LEHB5:
 710 00f1 E8000000 		call	_ZNK8UnitTest8TestList7GetHeadEv
 710      00
 711 00f6 488B4028 		movq	40(%rax), %rax
 712 00fa 4885C0   		testq	%rax, %rax
 713 00fd 0F94C0   		sete	%al
 714 0100 0FB6C0   		movzbl	%al, %eax
 715 0103 89C7     		movl	%eax, %edi
 716 0105 E8000000 		call	_ZN8UnitTest5CheckIbEEbT_
 716      00
 717 010a 83F001   		xorl	$1, %eax
 718 010d 84C0     		testb	%al, %al
 719 010f 0F84F300 		je	.L22
 719      0000
 720              		.loc 6 22 0 is_stmt 0 discriminator 1
 721 0115 E8000000 		call	_ZN8UnitTest11CurrentTest7DetailsEv
 721      00
 722 011a 488B08   		movq	(%rax), %rcx
 723 011d 488D45D0 		leaq	-48(%rbp), %rax
 724 0121 BA160000 		movl	$22, %edx
 724      00
 725 0126 4889CE   		movq	%rcx, %rsi
 726 0129 4889C7   		movq	%rax, %rdi
 727 012c E8000000 		call	_ZN8UnitTest11TestDetailsC1ERKS0_i
 727      00
 728 0131 E8000000 		call	_ZN8UnitTest11CurrentTest7ResultsEv
 728      00
 729 0136 488B00   		movq	(%rax), %rax
 730 0139 488D4DD0 		leaq	-48(%rbp), %rcx
 731 013d BA000000 		movl	$.LC6, %edx
 731      00
 732 0142 4889CE   		movq	%rcx, %rsi
 733 0145 4889C7   		movq	%rax, %rdi
 734 0148 E8000000 		call	_ZN8UnitTest11TestResults13OnTestFailureERKNS_11TestDetailsEPKc
 734      00
 735              	.LEHE5:
 736 014d E9B60000 		jmp	.L22
 736      00
 737              	.L30:
 738 0152 4889C3   		movq	%rax, %rbx
  21:TestTestMacros.cpp ****     CHECK(list1.GetHead() != 0);
 739              		.loc 6 21 0 is_stmt 1
 740 0155 E8000000 		call	__cxa_end_catch
 740      00
 741 015a 4889D8   		movq	%rbx, %rax
 742 015d 4889C7   		movq	%rax, %rdi
 743              	.LEHB6:
 744 0160 E8000000 		call	_Unwind_Resume
 744      00
 745              	.LEHE6:
 746              	.L29:
 747 0165 4889C7   		movq	%rax, %rdi
 748 0168 E8000000 		call	__cxa_begin_catch
 748      00
 749              	.LEHB7:
 750 016d E8000000 		call	_ZN8UnitTest11CurrentTest7DetailsEv
 750      00
 751 0172 488B08   		movq	(%rax), %rcx
 752 0175 488D45D0 		leaq	-48(%rbp), %rax
 753 0179 BA150000 		movl	$21, %edx
 753      00
 754 017e 4889CE   		movq	%rcx, %rsi
 755 0181 4889C7   		movq	%rax, %rdi
 756 0184 E8000000 		call	_ZN8UnitTest11TestDetailsC1ERKS0_i
 756      00
  21:TestTestMacros.cpp ****     CHECK(list1.GetHead() != 0);
 757              		.loc 6 21 0 is_stmt 0 discriminator 1
 758 0189 E8000000 		call	_ZN8UnitTest11CurrentTest7ResultsEv
 758      00
 759 018e 488B00   		movq	(%rax), %rax
 760 0191 488D4DD0 		leaq	-48(%rbp), %rcx
 761 0195 BA000000 		movl	$.LC7, %edx
 761      00
 762 019a 4889CE   		movq	%rcx, %rsi
 763 019d 4889C7   		movq	%rax, %rdi
 764 01a0 E8000000 		call	_ZN8UnitTest11TestResults13OnTestFailureERKNS_11TestDetailsEPKc
 764      00
 765              	.LEHE7:
 766              	.LEHB8:
 767 01a5 E8000000 		call	__cxa_end_catch
 767      00
 768              	.LEHE8:
 769 01aa E93DFFFF 		jmp	.L23
 769      FF
 770              	.L32:
 771 01af 4889C3   		movq	%rax, %rbx
 772              		.loc 6 22 0 is_stmt 1
 773 01b2 E8000000 		call	__cxa_end_catch
 773      00
 774 01b7 4889D8   		movq	%rbx, %rax
 775 01ba 4889C7   		movq	%rax, %rdi
 776              	.LEHB9:
 777 01bd E8000000 		call	_Unwind_Resume
 777      00
 778              	.LEHE9:
 779              	.L31:
 780 01c2 4889C7   		movq	%rax, %rdi
 781 01c5 E8000000 		call	__cxa_begin_catch
 781      00
 782              	.LEHB10:
 783 01ca E8000000 		call	_ZN8UnitTest11CurrentTest7DetailsEv
 783      00
 784 01cf 488B08   		movq	(%rax), %rcx
 785 01d2 488D45D0 		leaq	-48(%rbp), %rax
 786 01d6 BA160000 		movl	$22, %edx
 786      00
 787 01db 4889CE   		movq	%rcx, %rsi
 788 01de 4889C7   		movq	%rax, %rdi
 789 01e1 E8000000 		call	_ZN8UnitTest11TestDetailsC1ERKS0_i
 789      00
 790              		.loc 6 22 0 is_stmt 0 discriminator 1
 791 01e6 E8000000 		call	_ZN8UnitTest11CurrentTest7ResultsEv
 791      00
 792 01eb 488B00   		movq	(%rax), %rax
 793 01ee 488D4DD0 		leaq	-48(%rbp), %rcx
 794 01f2 BA000000 		movl	$.LC8, %edx
 794      00
 795 01f7 4889CE   		movq	%rcx, %rsi
 796 01fa 4889C7   		movq	%rax, %rdi
 797 01fd E8000000 		call	_ZN8UnitTest11TestResults13OnTestFailureERKNS_11TestDetailsEPKc
 797      00
 798              	.LEHE10:
 799              	.LEHB11:
 800 0202 E8000000 		call	__cxa_end_catch
 800      00
 801              	.LEHE11:
  23:TestTestMacros.cpp **** }
 802              		.loc 6 23 0 is_stmt 1 discriminator 1
 803 0207 90       		nop
 804              	.L22:
 805              		.loc 6 23 0 is_stmt 0
 806 0208 4883C438 		addq	$56, %rsp
 807 020c 5B       		popq	%rbx
 808 020d 5D       		popq	%rbp
 809              		.cfi_def_cfa 7, 8
 810 020e C3       		ret
 811              		.cfi_endproc
 812              	.LFE1045:
 813              		.section	.gcc_except_table,"a",@progbits
 814              		.align 4
 815              	.LLSDA1045:
 816 0000 FF       		.byte	0xff
 817 0001 03       		.byte	0x3
 818 0002 35       		.uleb128 .LLSDATT1045-.LLSDATTD1045
 819              	.LLSDATTD1045:
 820 0003 01       		.byte	0x1
 821 0004 2A       		.uleb128 .LLSDACSE1045-.LLSDACSB1045
 822              	.LLSDACSB1045:
 823 0005 12       		.uleb128 .LEHB4-.LFB1045
 824 0006 54       		.uleb128 .LEHE4-.LEHB4
 825 0007 DF01     		.uleb128 .L29-.LFB1045
 826 0009 01       		.uleb128 0x1
 827 000a 6B       		.uleb128 .LEHB5-.LFB1045
 828 000b 5C       		.uleb128 .LEHE5-.LEHB5
 829 000c BC02     		.uleb128 .L31-.LFB1045
 830 000e 01       		.uleb128 0x1
 831 000f DA01     		.uleb128 .LEHB6-.LFB1045
 832 0011 05       		.uleb128 .LEHE6-.LEHB6
 833 0012 00       		.uleb128 0
 834 0013 00       		.uleb128 0
 835 0014 E701     		.uleb128 .LEHB7-.LFB1045
 836 0016 38       		.uleb128 .LEHE7-.LEHB7
 837 0017 CC01     		.uleb128 .L30-.LFB1045
 838 0019 00       		.uleb128 0
 839 001a 9F02     		.uleb128 .LEHB8-.LFB1045
 840 001c 05       		.uleb128 .LEHE8-.LEHB8
 841 001d 00       		.uleb128 0
 842 001e 00       		.uleb128 0
 843 001f B702     		.uleb128 .LEHB9-.LFB1045
 844 0021 05       		.uleb128 .LEHE9-.LEHB9
 845 0022 00       		.uleb128 0
 846 0023 00       		.uleb128 0
 847 0024 C402     		.uleb128 .LEHB10-.LFB1045
 848 0026 38       		.uleb128 .LEHE10-.LEHB10
 849 0027 A902     		.uleb128 .L32-.LFB1045
 850 0029 00       		.uleb128 0
 851 002a FC02     		.uleb128 .LEHB11-.LFB1045
 852 002c 05       		.uleb128 .LEHE11-.LEHB11
 853 002d 00       		.uleb128 0
 854 002e 00       		.uleb128 0
 855              	.LLSDACSE1045:
 856 002f 01       		.byte	0x1
 857 0030 00       		.byte	0
 858 0031 000000   		.align 4
 859 0034 00000000 		.long	0
 860              	
 861              	.LLSDATT1045:
 862              		.text
 864              		.section	.rodata
 865              	.LC9:
 866 00f9 4F6F7073 		.string	"Oops"
 866      00
 867              		.text
 868 020f 90       		.align 2
 870              	_ZN12_GLOBAL__N_115ThrowingThingieC2Ev:
 871              	.LFB1047:
  24:TestTestMacros.cpp **** 
  25:TestTestMacros.cpp **** struct ThrowingThingie
  26:TestTestMacros.cpp **** {
  27:TestTestMacros.cpp ****     ThrowingThingie() : dummy(false)
 872              		.loc 6 27 0 is_stmt 1
 873              		.cfi_startproc
 874 0210 55       		pushq	%rbp
 875              		.cfi_def_cfa_offset 16
 876              		.cfi_offset 6, -16
 877 0211 4889E5   		movq	%rsp, %rbp
 878              		.cfi_def_cfa_register 6
 879 0214 4883EC10 		subq	$16, %rsp
 880 0218 48897DF8 		movq	%rdi, -8(%rbp)
 881              	.LBB13:
 882              		.loc 6 27 0
 883 021c 488B45F8 		movq	-8(%rbp), %rax
 884 0220 C60000   		movb	$0, (%rax)
  28:TestTestMacros.cpp ****     {
  29:TestTestMacros.cpp ****         if (!dummy)
 885              		.loc 6 29 0
 886 0223 488B45F8 		movq	-8(%rbp), %rax
 887 0227 0FB600   		movzbl	(%rax), %eax
 888 022a 83F001   		xorl	$1, %eax
 889 022d 84C0     		testb	%al, %al
 890 022f 7423     		je	.L33
  30:TestTestMacros.cpp ****             throw "Oops";
 891              		.loc 6 30 0
 892 0231 BF080000 		movl	$8, %edi
 892      00
 893 0236 E8000000 		call	__cxa_allocate_exception
 893      00
 894 023b 48C70000 		movq	$.LC9, (%rax)
 894      000000
 895 0242 BA000000 		movl	$0, %edx
 895      00
 896 0247 BE000000 		movl	$_ZTIPKc, %esi
 896      00
 897 024c 4889C7   		movq	%rax, %rdi
 898 024f E8000000 		call	__cxa_throw
 898      00
 899              	.L33:
 900              	.LBE13:
  31:TestTestMacros.cpp ****     }
 901              		.loc 6 31 0
 902 0254 C9       		leave
 903              		.cfi_def_cfa 7, 8
 904 0255 C3       		ret
 905              		.cfi_endproc
 906              	.LFE1047:
 908              		.local	_ZN12_GLOBAL__N_15list2E
 909              		.comm	_ZN12_GLOBAL__N_15list2E,16,16
 910              		.align 2
 912              	_ZN12_GLOBAL__N_134ThrowingThingieDummyTestNameHelperC2ERKN8UnitTest11TestDetailsE:
 913              	.LFB1050:
  32:TestTestMacros.cpp **** 
  33:TestTestMacros.cpp ****     bool dummy;
  34:TestTestMacros.cpp **** };
  35:TestTestMacros.cpp **** 
  36:TestTestMacros.cpp **** TestList list2;
  37:TestTestMacros.cpp **** TEST_FIXTURE_EX(ThrowingThingie, DummyTestName, list2)
 914              		.loc 6 37 0
 915              		.cfi_startproc
 916 0256 55       		pushq	%rbp
 917              		.cfi_def_cfa_offset 16
 918              		.cfi_offset 6, -16
 919 0257 4889E5   		movq	%rsp, %rbp
 920              		.cfi_def_cfa_register 6
 921 025a 4883EC10 		subq	$16, %rsp
 922 025e 48897DF8 		movq	%rdi, -8(%rbp)
 923 0262 488975F0 		movq	%rsi, -16(%rbp)
 924              	.LBB14:
 925              		.loc 6 37 0
 926 0266 488B45F8 		movq	-8(%rbp), %rax
 927 026a 4889C7   		movq	%rax, %rdi
 928 026d E89EFFFF 		call	_ZN12_GLOBAL__N_115ThrowingThingieC2Ev
 928      FF
 929 0272 488B45F8 		movq	-8(%rbp), %rax
 930 0276 488B55F0 		movq	-16(%rbp), %rdx
 931 027a 48895008 		movq	%rdx, 8(%rax)
 932              	.LBE14:
 933 027e C9       		leave
 934              		.cfi_def_cfa 7, 8
 935 027f C3       		ret
 936              		.cfi_endproc
 937              	.LFE1050:
 939              		.set	_ZN12_GLOBAL__N_134ThrowingThingieDummyTestNameHelperC1ERKN8UnitTest11TestDetailsE,_ZN12_GLOB
 940              		.section	.rodata
 941              	.LC10:
 942 00fe 44756D6D 		.string	"DummyTestName"
 942      79546573 
 942      744E616D 
 942      6500
 943              		.text
 944              		.align 2
 946              	_ZN12_GLOBAL__N_132TestThrowingThingieDummyTestNameC2Ev:
 947              	.LFB1053:
 948              		.loc 6 37 0
 949              		.cfi_startproc
 950 0280 55       		pushq	%rbp
 951              		.cfi_def_cfa_offset 16
 952              		.cfi_offset 6, -16
 953 0281 4889E5   		movq	%rsp, %rbp
 954              		.cfi_def_cfa_register 6
 955 0284 4883EC10 		subq	$16, %rsp
 956 0288 48897DF8 		movq	%rdi, -8(%rbp)
 957              	.LBB15:
 958              		.loc 6 37 0
 959 028c E8000000 		call	_ZN13UnitTestSuite12GetSuiteNameEv
 959      00
 960 0291 4889C2   		movq	%rax, %rdx
 961 0294 488B45F8 		movq	-8(%rbp), %rax
 962 0298 41B82500 		movl	$37, %r8d
 962      0000
 963 029e B9000000 		movl	$.LC2, %ecx
 963      00
 964 02a3 BE000000 		movl	$.LC10, %esi
 964      00
 965 02a8 4889C7   		movq	%rax, %rdi
 966 02ab E8000000 		call	_ZN8UnitTest4TestC2EPKcS2_S2_i
 966      00
 967 02b0 488B45F8 		movq	-8(%rbp), %rax
 968 02b4 48C70000 		movq	$_ZTVN12_GLOBAL__N_132TestThrowingThingieDummyTestNameE+16, (%rax)
 968      000000
 969              	.LBE15:
 970 02bb C9       		leave
 971              		.cfi_def_cfa 7, 8
 972 02bc C3       		ret
 973              		.cfi_endproc
 974              	.LFE1053:
 976              		.set	_ZN12_GLOBAL__N_132TestThrowingThingieDummyTestNameC1Ev,_ZN12_GLOBAL__N_132TestThrowingThingi
 977              		.local	_ZN12_GLOBAL__N_140testThrowingThingieDummyTestNameInstanceE
 978              		.comm	_ZN12_GLOBAL__N_140testThrowingThingieDummyTestNameInstanceE,56,32
 979              		.local	_ZN12_GLOBAL__N_133adderThrowingThingieDummyTestNameE
 980              		.comm	_ZN12_GLOBAL__N_133adderThrowingThingieDummyTestNameE,1,1
 981              		.section	.rodata
 982              	.LC11:
 983 010c 556E6861 		.string	"Unhandled exception: "
 983      6E646C65 
 983      64206578 
 983      63657074 
 983      696F6E3A 
 984 0122 00000000 		.align 8
 984      0000
 985              	.LC12:
 986 0128 556E6861 		.string	"Unhandled exception while destroying fixture ThrowingThingie"
 986      6E646C65 
 986      64206578 
 986      63657074 
 986      696F6E20 
 987 0165 000000   		.align 8
 988              	.LC13:
 989 0168 556E6861 		.string	"Unhandled exception while constructing fixture ThrowingThingie"
 989      6E646C65 
 989      64206578 
 989      63657074 
 989      696F6E20 
 990              		.text
 991 02bd 90       		.align 2
 993              	_ZNK12_GLOBAL__N_132TestThrowingThingieDummyTestName7RunImplEv:
 994              	.LFB1055:
 995              		.loc 6 37 0
 996              		.cfi_startproc
 997              		.cfi_personality 0x3,__gxx_personality_v0
 998              		.cfi_lsda 0x3,.LLSDA1055
 999 02be 55       		pushq	%rbp
 1000              		.cfi_def_cfa_offset 16
 1001              		.cfi_offset 6, -16
 1002 02bf 4889E5   		movq	%rsp, %rbp
 1003              		.cfi_def_cfa_register 6
 1004 02c2 4154     		pushq	%r12
 1005 02c4 53       		pushq	%rbx
 1006 02c5 4881ECA0 		subq	$416, %rsp
 1006      010000
 1007              		.cfi_offset 12, -24
 1008              		.cfi_offset 3, -32
 1009 02cc 4889BD58 		movq	%rdi, -424(%rbp)
 1009      FEFFFF
 1010              	.LBB16:
 1011              		.loc 6 37 0
 1012 02d3 C6856FFE 		movb	$0, -401(%rbp)
 1012      FFFF00
 1013              	.LBB17:
 1014 02da 488B8558 		movq	-424(%rbp), %rax
 1014      FEFFFF
 1015 02e1 488D5008 		leaq	8(%rax), %rdx
 1016 02e5 488D8580 		leaq	-384(%rbp), %rax
 1016      FEFFFF
 1017 02ec 4889D6   		movq	%rdx, %rsi
 1018 02ef 4889C7   		movq	%rax, %rdi
 1019              	.LEHB12:
 1020 02f2 E85FFFFF 		call	_ZN12_GLOBAL__N_134ThrowingThingieDummyTestNameHelperC1ERKN8UnitTest11TestDetailsE
 1020      FF
 1021              		.loc 6 37 0 is_stmt 0 discriminator 1
 1022 02f7 C6856FFE 		movb	$1, -401(%rbp)
 1022      FFFF01
 1023 02fe 488B8558 		movq	-424(%rbp), %rax
 1023      FEFFFF
 1024 0305 488D5008 		leaq	8(%rax), %rdx
 1025 0309 488D8580 		leaq	-384(%rbp), %rax
 1025      FEFFFF
 1026 0310 4889D6   		movq	%rdx, %rsi
 1027 0313 4889C7   		movq	%rax, %rdi
 1028 0316 E8532A00 		call	_ZN8UnitTest11ExecuteTestIN12_GLOBAL__N_134ThrowingThingieDummyTestNameHelperEEEvRT_RKNS_11Te
 1028      00
 1029              	.LEHE12:
 1030              	.LBE17:
 1031              	.LBE16:
 1032              		.loc 6 37 0
 1033 031b E9470200 		jmp	.L55
 1033      00
 1034              	.L49:
 1035 0320 4883FA01 		cmpq	$1, %rdx
 1036 0324 745C     		je	.L40
 1037 0326 4883FA02 		cmpq	$2, %rdx
 1038 032a 0F84F400 		je	.L41
 1038      0000
 1039 0330 E9980100 		jmp	.L54
 1039      00
 1040              	.L50:
 1041 0335 4889C3   		movq	%rax, %rbx
 1042              	.LBB24:
 1043              	.LBB18:
 1044 0338 E8000000 		call	__cxa_end_catch
 1044      00
 1045 033d 4889D8   		movq	%rbx, %rax
 1046 0340 4889C7   		movq	%rax, %rdi
 1047              	.LEHB13:
 1048 0343 E8000000 		call	_Unwind_Resume
 1048      00
 1049              	.LEHE13:
 1050              	.L51:
 1051 0348 4889C3   		movq	%rax, %rbx
 1052              	.LBE18:
 1053              	.LBB19:
 1054              	.LBB20:
 1055 034b 488D8580 		leaq	-384(%rbp), %rax
 1055      FEFFFF
 1056 0352 4889C7   		movq	%rax, %rdi
 1057 0355 E8000000 		call	_ZN8UnitTest15MemoryOutStreamD1Ev
 1057      00
 1058 035a EB03     		jmp	.L44
 1059              	.L52:
 1060 035c 4889C3   		movq	%rax, %rbx
 1061              	.L44:
 1062              	.LBE20:
 1063 035f E8000000 		call	__cxa_end_catch
 1063      00
 1064 0364 4889D8   		movq	%rbx, %rax
 1065 0367 4889C7   		movq	%rax, %rdi
 1066              	.LEHB14:
 1067 036a E8000000 		call	_Unwind_Resume
 1067      00
 1068              	.LEHE14:
 1069              	.L53:
 1070 036f 4889C3   		movq	%rax, %rbx
 1071              	.LBE19:
 1072 0372 E8000000 		call	__cxa_end_catch
 1072      00
 1073 0377 4889D8   		movq	%rbx, %rax
 1074 037a 4889C7   		movq	%rax, %rdi
 1075              	.LEHB15:
 1076 037d E8000000 		call	_Unwind_Resume
 1076      00
 1077              	.LEHE15:
 1078              	.L40:
 1079              	.LBB22:
 1080 0382 4889C7   		movq	%rax, %rdi
 1081 0385 E8000000 		call	__cxa_begin_catch
 1081      00
 1082 038a 48898570 		movq	%rax, -400(%rbp)
 1082      FEFFFF
 1083 0391 488B8570 		movq	-400(%rbp), %rax
 1083      FEFFFF
 1084 0398 488B00   		movq	(%rax), %rax
 1085 039b 4883C010 		addq	$16, %rax
 1086 039f 488B00   		movq	(%rax), %rax
 1087 03a2 488B9570 		movq	-400(%rbp), %rdx
 1087      FEFFFF
 1088 03a9 4889D7   		movq	%rdx, %rdi
 1089 03ac FFD0     		call	*%rax
 1090 03ae 4889C3   		movq	%rax, %rbx
 1091 03b1 488B8570 		movq	-400(%rbp), %rax
 1091      FEFFFF
 1092 03b8 4889C7   		movq	%rax, %rdi
 1093              	.LEHB16:
 1094 03bb E8000000 		call	_ZNK8UnitTest15AssertException10LineNumberEv
 1094      00
 1095 03c0 4189C4   		movl	%eax, %r12d
 1096 03c3 488B8570 		movq	-400(%rbp), %rax
 1096      FEFFFF
 1097 03ca 4889C7   		movq	%rax, %rdi
 1098 03cd E8000000 		call	_ZNK8UnitTest15AssertException8FilenameEv
 1098      00
 1099              		.loc 6 37 0 discriminator 1
 1100 03d2 4889C1   		movq	%rax, %rcx
 1101 03d5 488B8558 		movq	-424(%rbp), %rax
 1101      FEFFFF
 1102 03dc 488B5008 		movq	8(%rax), %rdx
 1103 03e0 488B8558 		movq	-424(%rbp), %rax
 1103      FEFFFF
 1104 03e7 488B7010 		movq	16(%rax), %rsi
 1105 03eb 488D8580 		leaq	-384(%rbp), %rax
 1105      FEFFFF
 1106 03f2 4589E0   		movl	%r12d, %r8d
 1107 03f5 4889C7   		movq	%rax, %rdi
 1108 03f8 E8000000 		call	_ZN8UnitTest11TestDetailsC1EPKcS2_S2_i
 1108      00
 1109              		.loc 6 37 0 discriminator 3
 1110 03fd E8000000 		call	_ZN8UnitTest11CurrentTest7ResultsEv
 1110      00
 1111 0402 488B00   		movq	(%rax), %rax
 1112 0405 488D8D80 		leaq	-384(%rbp), %rcx
 1112      FEFFFF
 1113 040c 4889DA   		movq	%rbx, %rdx
 1114 040f 4889CE   		movq	%rcx, %rsi
 1115 0412 4889C7   		movq	%rax, %rdi
 1116 0415 E8000000 		call	_ZN8UnitTest11TestResults13OnTestFailureERKNS_11TestDetailsEPKc
 1116      00
 1117              	.LEHE16:
 1118              		.loc 6 37 0 discriminator 1
 1119 041a E8000000 		call	__cxa_end_catch
 1119      00
 1120              	.LBE22:
 1121              	.LBE24:
 1122 041f E9430100 		jmp	.L55
 1122      00
 1123              	.L41:
 1124              	.LBB25:
 1125              	.LBB23:
 1126              		.loc 6 37 0
 1127 0424 4889C7   		movq	%rax, %rdi
 1128 0427 E8000000 		call	__cxa_begin_catch
 1128      00
 1129 042c 48898578 		movq	%rax, -392(%rbp)
 1129      FEFFFF
 1130              	.LBB21:
 1131 0433 488D8580 		leaq	-384(%rbp), %rax
 1131      FEFFFF
 1132 043a 4889C7   		movq	%rax, %rdi
 1133              	.LEHB17:
 1134 043d E8000000 		call	_ZN8UnitTest15MemoryOutStreamC1Ev
 1134      00
 1135              	.LEHE17:
 1136              		.loc 6 37 0 discriminator 1
 1137 0442 488B8578 		movq	-392(%rbp), %rax
 1137      FEFFFF
 1138 0449 488B00   		movq	(%rax), %rax
 1139 044c 4883C010 		addq	$16, %rax
 1140 0450 488B00   		movq	(%rax), %rax
 1141 0453 488B9578 		movq	-392(%rbp), %rdx
 1141      FEFFFF
 1142 045a 4889D7   		movq	%rdx, %rdi
 1143 045d FFD0     		call	*%rax
 1144 045f 4889C3   		movq	%rax, %rbx
 1145 0462 488D8580 		leaq	-384(%rbp), %rax
 1145      FEFFFF
 1146 0469 BE000000 		movl	$.LC11, %esi
 1146      00
 1147 046e 4889C7   		movq	%rax, %rdi
 1148              	.LEHB18:
 1149 0471 E8000000 		call	_ZStlsISt11char_traitsIcEERSt13basic_ostreamIcT_ES5_PKc
 1149      00
 1150 0476 4889DE   		movq	%rbx, %rsi
 1151 0479 4889C7   		movq	%rax, %rdi
 1152 047c E8000000 		call	_ZStlsISt11char_traitsIcEERSt13basic_ostreamIcT_ES5_PKc
 1152      00
 1153 0481 488D8580 		leaq	-384(%rbp), %rax
 1153      FEFFFF
 1154 0488 4889C7   		movq	%rax, %rdi
 1155 048b E8000000 		call	_ZNK8UnitTest15MemoryOutStream7GetTextEv
 1155      00
 1156 0490 4889C3   		movq	%rax, %rbx
 1157 0493 488B8558 		movq	-424(%rbp), %rax
 1157      FEFFFF
 1158 049a 4C8D6008 		leaq	8(%rax), %r12
 1159 049e E8000000 		call	_ZN8UnitTest11CurrentTest7ResultsEv
 1159      00
 1160 04a3 488B00   		movq	(%rax), %rax
 1161 04a6 4889DA   		movq	%rbx, %rdx
 1162 04a9 4C89E6   		movq	%r12, %rsi
 1163 04ac 4889C7   		movq	%rax, %rdi
 1164 04af E8000000 		call	_ZN8UnitTest11TestResults13OnTestFailureERKNS_11TestDetailsEPKc
 1164      00
 1165              	.LEHE18:
 1166 04b4 488D8580 		leaq	-384(%rbp), %rax
 1166      FEFFFF
 1167 04bb 4889C7   		movq	%rax, %rdi
 1168              	.LEHB19:
 1169 04be E8000000 		call	_ZN8UnitTest15MemoryOutStreamD1Ev
 1169      00
 1170              	.LEHE19:
 1171              	.LBE21:
 1172              		.loc 6 37 0
 1173 04c3 E8000000 		call	__cxa_end_catch
 1173      00
 1174              	.LBE23:
 1175              	.LBE25:
 1176 04c8 E99A0000 		jmp	.L55
 1176      00
 1177              	.L54:
 1178              	.LBB26:
 1179 04cd 4889C7   		movq	%rax, %rdi
 1180 04d0 E8000000 		call	__cxa_begin_catch
 1180      00
 1181 04d5 80BD6FFE 		cmpb	$0, -401(%rbp)
 1181      FFFF00
 1182 04dc 7443     		je	.L47
 1183              		.loc 6 37 0 discriminator 1
 1184 04de 488B8558 		movq	-424(%rbp), %rax
 1184      FEFFFF
 1185 04e5 488D4808 		leaq	8(%rax), %rcx
 1186 04e9 488D8580 		leaq	-384(%rbp), %rax
 1186      FEFFFF
 1187 04f0 BA250000 		movl	$37, %edx
 1187      00
 1188 04f5 4889CE   		movq	%rcx, %rsi
 1189 04f8 4889C7   		movq	%rax, %rdi
 1190              	.LEHB20:
 1191 04fb E8000000 		call	_ZN8UnitTest11TestDetailsC1ERKS0_i
 1191      00
 1192 0500 E8000000 		call	_ZN8UnitTest11CurrentTest7ResultsEv
 1192      00
 1193 0505 488B00   		movq	(%rax), %rax
 1194 0508 488D8D80 		leaq	-384(%rbp), %rcx
 1194      FEFFFF
 1195 050f BA000000 		movl	$.LC12, %edx
 1195      00
 1196 0514 4889CE   		movq	%rcx, %rsi
 1197 0517 4889C7   		movq	%rax, %rdi
 1198 051a E8000000 		call	_ZN8UnitTest11TestResults13OnTestFailureERKNS_11TestDetailsEPKc
 1198      00
 1199 051f EB41     		jmp	.L48
 1200              	.L47:
 1201              		.loc 6 37 0 discriminator 2
 1202 0521 488B8558 		movq	-424(%rbp), %rax
 1202      FEFFFF
 1203 0528 488D4808 		leaq	8(%rax), %rcx
 1204 052c 488D8580 		leaq	-384(%rbp), %rax
 1204      FEFFFF
 1205 0533 BA250000 		movl	$37, %edx
 1205      00
 1206 0538 4889CE   		movq	%rcx, %rsi
 1207 053b 4889C7   		movq	%rax, %rdi
 1208 053e E8000000 		call	_ZN8UnitTest11TestDetailsC1ERKS0_i
 1208      00
 1209              		.loc 6 37 0 discriminator 1
 1210 0543 E8000000 		call	_ZN8UnitTest11CurrentTest7ResultsEv
 1210      00
 1211 0548 488B00   		movq	(%rax), %rax
 1212 054b 488D8D80 		leaq	-384(%rbp), %rcx
 1212      FEFFFF
 1213 0552 BA000000 		movl	$.LC13, %edx
 1213      00
 1214 0557 4889CE   		movq	%rcx, %rsi
 1215 055a 4889C7   		movq	%rax, %rdi
 1216 055d E8000000 		call	_ZN8UnitTest11TestResults13OnTestFailureERKNS_11TestDetailsEPKc
 1216      00
 1217              	.LEHE20:
 1218              	.L48:
 1219              	.LEHB21:
 1220 0562 E8000000 		call	__cxa_end_catch
 1220      00
 1221              	.LEHE21:
 1222              	.L55:
 1223              	.LBE26:
 1224              		.loc 6 37 0
 1225 0567 90       		nop
 1226 0568 4881C4A0 		addq	$416, %rsp
 1226      010000
 1227 056f 5B       		popq	%rbx
 1228 0570 415C     		popq	%r12
 1229 0572 5D       		popq	%rbp
 1230              		.cfi_def_cfa 7, 8
 1231 0573 C3       		ret
 1232              		.cfi_endproc
 1233              	.LFE1055:
 1234              		.section	.gcc_except_table
 1235              		.align 4
 1236              	.LLSDA1055:
 1237 0038 FF       		.byte	0xff
 1238 0039 03       		.byte	0x3
 1239 003a 49       		.uleb128 .LLSDATT1055-.LLSDATTD1055
 1240              	.LLSDATTD1055:
 1241 003b 01       		.byte	0x1
 1242 003c 35       		.uleb128 .LLSDACSE1055-.LLSDACSB1055
 1243              	.LLSDACSB1055:
 1244 003d 34       		.uleb128 .LEHB12-.LFB1055
 1245 003e 29       		.uleb128 .LEHE12-.LEHB12
 1246 003f 62       		.uleb128 .L49-.LFB1055
 1247 0040 05       		.uleb128 0x5
 1248 0041 8501     		.uleb128 .LEHB13-.LFB1055
 1249 0043 05       		.uleb128 .LEHE13-.LEHB13
 1250 0044 00       		.uleb128 0
 1251 0045 00       		.uleb128 0
 1252 0046 AC01     		.uleb128 .LEHB14-.LFB1055
 1253 0048 05       		.uleb128 .LEHE14-.LEHB14
 1254 0049 00       		.uleb128 0
 1255 004a 00       		.uleb128 0
 1256 004b BF01     		.uleb128 .LEHB15-.LFB1055
 1257 004d 05       		.uleb128 .LEHE15-.LEHB15
 1258 004e 00       		.uleb128 0
 1259 004f 00       		.uleb128 0
 1260 0050 FD01     		.uleb128 .LEHB16-.LFB1055
 1261 0052 5F       		.uleb128 .LEHE16-.LEHB16
 1262 0053 77       		.uleb128 .L50-.LFB1055
 1263 0054 00       		.uleb128 0
 1264 0055 FF02     		.uleb128 .LEHB17-.LFB1055
 1265 0057 05       		.uleb128 .LEHE17-.LEHB17
 1266 0058 9E01     		.uleb128 .L52-.LFB1055
 1267 005a 00       		.uleb128 0
 1268 005b B303     		.uleb128 .LEHB18-.LFB1055
 1269 005d 43       		.uleb128 .LEHE18-.LEHB18
 1270 005e 8A01     		.uleb128 .L51-.LFB1055
 1271 0060 00       		.uleb128 0
 1272 0061 8004     		.uleb128 .LEHB19-.LFB1055
 1273 0063 05       		.uleb128 .LEHE19-.LEHB19
 1274 0064 9E01     		.uleb128 .L52-.LFB1055
 1275 0066 00       		.uleb128 0
 1276 0067 BD04     		.uleb128 .LEHB20-.LFB1055
 1277 0069 67       		.uleb128 .LEHE20-.LEHB20
 1278 006a B101     		.uleb128 .L53-.LFB1055
 1279 006c 00       		.uleb128 0
 1280 006d A405     		.uleb128 .LEHB21-.LFB1055
 1281 006f 05       		.uleb128 .LEHE21-.LEHB21
 1282 0070 00       		.uleb128 0
 1283 0071 00       		.uleb128 0
 1284              	.LLSDACSE1055:
 1285 0072 03       		.byte	0x3
 1286 0073 00       		.byte	0
 1287 0074 02       		.byte	0x2
 1288 0075 7D       		.byte	0x7d
 1289 0076 01       		.byte	0x1
 1290 0077 7D       		.byte	0x7d
 1291              		.align 4
 1292 0078 00000000 		.long	0
 1293              	
 1294 007c 00000000 		.long	_ZTISt9exception
 1295 0080 00000000 		.long	_ZTIN8UnitTest15AssertExceptionE
 1296              	.LLSDATT1055:
 1297              		.text
 1299              		.align 2
 1301              	_ZN12_GLOBAL__N_134ThrowingThingieDummyTestNameHelper7RunImplEv:
 1302              	.LFB1056:
  38:TestTestMacros.cpp **** {
 1303              		.loc 6 38 0 is_stmt 1
 1304              		.cfi_startproc
 1305 0574 55       		pushq	%rbp
 1306              		.cfi_def_cfa_offset 16
 1307              		.cfi_offset 6, -16
 1308 0575 4889E5   		movq	%rsp, %rbp
 1309              		.cfi_def_cfa_register 6
 1310 0578 48897DF8 		movq	%rdi, -8(%rbp)
  39:TestTestMacros.cpp **** }
 1311              		.loc 6 39 0
 1312 057c 5D       		popq	%rbp
 1313              		.cfi_def_cfa 7, 8
 1314 057d C3       		ret
 1315              		.cfi_endproc
 1316              	.LFE1056:
 1318              		.section	.rodata
 1319 01a7 00       		.align 8
 1320              	.LC14:
 1321 01a8 45786365 		.string	"ExceptionsInFixtureAreReportedAsHappeningInTheFixture"
 1321      7074696F 
 1321      6E73496E 
 1321      46697874 
 1321      75726541 
 1322              		.text
 1323              		.align 2
 1325              	_ZN12_GLOBAL__N_157TestExceptionsInFixtureAreReportedAsHappeningInTheFixtureC2Ev:
 1326              	.LFB1058:
  40:TestTestMacros.cpp **** 
  41:TestTestMacros.cpp **** TEST (ExceptionsInFixtureAreReportedAsHappeningInTheFixture)
 1327              		.loc 6 41 0
 1328              		.cfi_startproc
 1329 057e 55       		pushq	%rbp
 1330              		.cfi_def_cfa_offset 16
 1331              		.cfi_offset 6, -16
 1332 057f 4889E5   		movq	%rsp, %rbp
 1333              		.cfi_def_cfa_register 6
 1334 0582 4883EC10 		subq	$16, %rsp
 1335 0586 48897DF8 		movq	%rdi, -8(%rbp)
 1336              	.LBB27:
 1337              		.loc 6 41 0
 1338 058a E8000000 		call	_ZN13UnitTestSuite12GetSuiteNameEv
 1338      00
 1339 058f 4889C2   		movq	%rax, %rdx
 1340 0592 488B45F8 		movq	-8(%rbp), %rax
 1341 0596 41B82900 		movl	$41, %r8d
 1341      0000
 1342 059c B9000000 		movl	$.LC2, %ecx
 1342      00
 1343 05a1 BE000000 		movl	$.LC14, %esi
 1343      00
 1344 05a6 4889C7   		movq	%rax, %rdi
 1345 05a9 E8000000 		call	_ZN8UnitTest4TestC2EPKcS2_S2_i
 1345      00
 1346 05ae 488B45F8 		movq	-8(%rbp), %rax
 1347 05b2 48C70000 		movq	$_ZTVN12_GLOBAL__N_157TestExceptionsInFixtureAreReportedAsHappeningInTheFixtureE+16, (%rax)
 1347      000000
 1348              	.LBE27:
 1349 05b9 C9       		leave
 1350              		.cfi_def_cfa 7, 8
 1351 05ba C3       		ret
 1352              		.cfi_endproc
 1353              	.LFE1058:
 1355              		.set	_ZN12_GLOBAL__N_157TestExceptionsInFixtureAreReportedAsHappeningInTheFixtureC1Ev,_ZN12_GLOBAL
 1356              		.local	_ZN12_GLOBAL__N_165testExceptionsInFixtureAreReportedAsHappeningInTheFixtureInstanceE
 1357              		.comm	_ZN12_GLOBAL__N_165testExceptionsInFixtureAreReportedAsHappeningInTheFixtureInstanceE,56,32
 1358              		.local	_ZN12_GLOBAL__N_158adderExceptionsInFixtureAreReportedAsHappeningInTheFixtureE
 1359              		.comm	_ZN12_GLOBAL__N_158adderExceptionsInFixtureAreReportedAsHappeningInTheFixtureE,1,1
 1360              		.section	.rodata
 1361              	.LC15:
 1362 01de 78636570 		.string	"xception"
 1362      74696F6E 
 1362      00
 1363 01e7 00       		.align 8
 1364              	.LC16:
 1365 01e8 73747273 		.string	"strstr(reporter.lastFailedMessage, \"xception\")"
 1365      74722872 
 1365      65706F72 
 1365      7465722E 
 1365      6C617374 
 1366              	.LC17:
 1367 0217 66697874 		.string	"fixture"
 1367      75726500 
 1368 021f 00       		.align 8
 1369              	.LC18:
 1370 0220 73747273 		.string	"strstr(reporter.lastFailedMessage, \"fixture\")"
 1370      74722872 
 1370      65706F72 
 1370      7465722E 
 1370      6C617374 
 1371              	.LC19:
 1372 024e 5468726F 		.string	"ThrowingThingie"
 1372      77696E67 
 1372      5468696E 
 1372      67696500 
 1373 025e 0000     		.align 8
 1374              	.LC20:
 1375 0260 73747273 		.string	"strstr(reporter.lastFailedMessage, \"ThrowingThingie\")"
 1375      74722872 
 1375      65706F72 
 1375      7465722E 
 1375      6C617374 
 1376 0296 0000     		.align 8
 1377              	.LC21:
 1378 0298 556E6861 		.string	"Unhandled exception in CHECK(strstr(reporter.lastFailedMessage, \"xception\"))"
 1378      6E646C65 
 1378      64206578 
 1378      63657074 
 1378      696F6E20 
 1379 02e5 000000   		.align 8
 1380              	.LC22:
 1381 02e8 556E6861 		.string	"Unhandled exception in CHECK(strstr(reporter.lastFailedMessage, \"fixture\"))"
 1381      6E646C65 
 1381      64206578 
 1381      63657074 
 1381      696F6E20 
 1382 0334 00000000 		.align 8
 1383              	.LC23:
 1384 0338 556E6861 		.string	"Unhandled exception in CHECK(strstr(reporter.lastFailedMessage, \"ThrowingThingie\"))"
 1384      6E646C65 
 1384      64206578 
 1384      63657074 
 1384      696F6E20 
 1385              		.text
 1386 05bb 90       		.align 2
 1388              	_ZNK12_GLOBAL__N_157TestExceptionsInFixtureAreReportedAsHappeningInTheFixture7RunImplEv:
 1389              	.LFB1060:
  42:TestTestMacros.cpp **** {
 1390              		.loc 6 42 0
 1391              		.cfi_startproc
 1392              		.cfi_personality 0x3,__gxx_personality_v0
 1393              		.cfi_lsda 0x3,.LLSDA1060
 1394 05bc 55       		pushq	%rbp
 1395              		.cfi_def_cfa_offset 16
 1396              		.cfi_offset 6, -16
 1397 05bd 4889E5   		movq	%rsp, %rbp
 1398              		.cfi_def_cfa_register 6
 1399 05c0 53       		pushq	%rbx
 1400 05c1 4881EC98 		subq	$2200, %rsp
 1400      080000
 1401              		.cfi_offset 3, -24
 1402 05c8 4889BD68 		movq	%rdi, -2200(%rbp)
 1402      F7FFFF
 1403              		.loc 6 42 0
 1404 05cf 64488B04 		movq	%fs:40, %rax
 1404      25280000 
 1404      00
 1405 05d8 488945E8 		movq	%rax, -24(%rbp)
 1406 05dc 31C0     		xorl	%eax, %eax
 1407              	.LBB28:
  43:TestTestMacros.cpp ****     RecordingReporter reporter;
 1408              		.loc 6 43 0
 1409 05de 488D85B0 		leaq	-2128(%rbp), %rax
 1409      F7FFFF
 1410 05e5 4889C7   		movq	%rax, %rdi
 1411 05e8 E8000000 		call	_ZN17RecordingReporterC1Ev
 1411      00
  44:TestTestMacros.cpp ****     TestResults result(&reporter);
 1412              		.loc 6 44 0
 1413 05ed 488D95B0 		leaq	-2128(%rbp), %rdx
 1413      F7FFFF
 1414 05f4 488D8570 		leaq	-2192(%rbp), %rax
 1414      F7FFFF
 1415 05fb 4889D6   		movq	%rdx, %rsi
 1416 05fe 4889C7   		movq	%rax, %rdi
 1417              	.LEHB22:
 1418 0601 E8000000 		call	_ZN8UnitTest11TestResultsC1EPNS_12TestReporterE
 1418      00
 1419              	.LBB29:
  45:TestTestMacros.cpp **** 	{
  46:TestTestMacros.cpp **** 		ScopedCurrentTest scopedResults(result);
 1420              		.loc 6 46 0
 1421 0606 488D8D70 		leaq	-2192(%rbp), %rcx
 1421      F7FFFF
 1422 060d 488D8590 		leaq	-2160(%rbp), %rax
 1422      F7FFFF
 1423 0614 BA000000 		movl	$0, %edx
 1423      00
 1424 0619 4889CE   		movq	%rcx, %rsi
 1425 061c 4889C7   		movq	%rax, %rdi
 1426 061f E8000000 		call	_ZN17ScopedCurrentTestC1ERN8UnitTest11TestResultsEPKNS0_11TestDetailsE
 1426      00
 1427              	.LEHE22:
  47:TestTestMacros.cpp **** 		list2.GetHead()->Run();
 1428              		.loc 6 47 0
 1429 0624 BF000000 		movl	$_ZN12_GLOBAL__N_15list2E, %edi
 1429      00
 1430              	.LEHB23:
 1431 0629 E8000000 		call	_ZNK8UnitTest8TestList7GetHeadEv
 1431      00
 1432 062e 4889C7   		movq	%rax, %rdi
 1433 0631 E8000000 		call	_ZN8UnitTest4Test3RunEv
 1433      00
 1434              	.LEHE23:
 1435              		.loc 6 47 0 is_stmt 0 discriminator 1
 1436 0636 488D8590 		leaq	-2160(%rbp), %rax
 1436      F7FFFF
 1437 063d 4889C7   		movq	%rax, %rdi
 1438              	.LEHB24:
 1439 0640 E8000000 		call	_ZN17ScopedCurrentTestD1Ev
 1439      00
 1440              	.LEHE24:
 1441              	.LBE29:
  48:TestTestMacros.cpp **** 	}
  49:TestTestMacros.cpp **** 
  50:TestTestMacros.cpp ****     CHECK(strstr(reporter.lastFailedMessage, "xception"));
 1442              		.loc 6 50 0 is_stmt 1
 1443 0645 488D85B0 		leaq	-2128(%rbp), %rax
 1443      F7FFFF
 1444 064c 48051405 		addq	$1300, %rax
 1444      0000
 1445 0652 BE000000 		movl	$.LC15, %esi
 1445      00
 1446 0657 4889C7   		movq	%rax, %rdi
 1447 065a E8000000 		call	strstr
 1447      00
 1448 065f 4889C7   		movq	%rax, %rdi
 1449 0662 E8000000 		call	_ZN8UnitTest5CheckIPcEEbT_
 1449      00
 1450 0667 83F001   		xorl	$1, %eax
 1451 066a 84C0     		testb	%al, %al
 1452 066c 743E     		je	.L59
 1453              	.LEHB25:
 1454              		.loc 6 50 0 is_stmt 0 discriminator 1
 1455 066e E8000000 		call	_ZN8UnitTest11CurrentTest7DetailsEv
 1455      00
 1456 0673 488B08   		movq	(%rax), %rcx
 1457 0676 488D8590 		leaq	-2160(%rbp), %rax
 1457      F7FFFF
 1458 067d BA320000 		movl	$50, %edx
 1458      00
 1459 0682 4889CE   		movq	%rcx, %rsi
 1460 0685 4889C7   		movq	%rax, %rdi
 1461 0688 E8000000 		call	_ZN8UnitTest11TestDetailsC1ERKS0_i
 1461      00
 1462 068d E8000000 		call	_ZN8UnitTest11CurrentTest7ResultsEv
 1462      00
 1463 0692 488B00   		movq	(%rax), %rax
 1464 0695 488D8D90 		leaq	-2160(%rbp), %rcx
 1464      F7FFFF
 1465 069c BA000000 		movl	$.LC16, %edx
 1465      00
 1466 06a1 4889CE   		movq	%rcx, %rsi
 1467 06a4 4889C7   		movq	%rax, %rdi
 1468 06a7 E8000000 		call	_ZN8UnitTest11TestResults13OnTestFailureERKNS_11TestDetailsEPKc
 1468      00
 1469              	.LEHE25:
 1470              	.L59:
  51:TestTestMacros.cpp ****     CHECK(strstr(reporter.lastFailedMessage, "fixture"));
 1471              		.loc 6 51 0 is_stmt 1
 1472 06ac 488D85B0 		leaq	-2128(%rbp), %rax
 1472      F7FFFF
 1473 06b3 48051405 		addq	$1300, %rax
 1473      0000
 1474 06b9 BE000000 		movl	$.LC17, %esi
 1474      00
 1475 06be 4889C7   		movq	%rax, %rdi
 1476 06c1 E8000000 		call	strstr
 1476      00
 1477 06c6 4889C7   		movq	%rax, %rdi
 1478 06c9 E8000000 		call	_ZN8UnitTest5CheckIPcEEbT_
 1478      00
 1479 06ce 83F001   		xorl	$1, %eax
 1480 06d1 84C0     		testb	%al, %al
 1481 06d3 743E     		je	.L60
 1482              	.LEHB26:
 1483              		.loc 6 51 0 is_stmt 0 discriminator 1
 1484 06d5 E8000000 		call	_ZN8UnitTest11CurrentTest7DetailsEv
 1484      00
 1485 06da 488B08   		movq	(%rax), %rcx
 1486 06dd 488D8590 		leaq	-2160(%rbp), %rax
 1486      F7FFFF
 1487 06e4 BA330000 		movl	$51, %edx
 1487      00
 1488 06e9 4889CE   		movq	%rcx, %rsi
 1489 06ec 4889C7   		movq	%rax, %rdi
 1490 06ef E8000000 		call	_ZN8UnitTest11TestDetailsC1ERKS0_i
 1490      00
 1491 06f4 E8000000 		call	_ZN8UnitTest11CurrentTest7ResultsEv
 1491      00
 1492 06f9 488B00   		movq	(%rax), %rax
 1493 06fc 488D8D90 		leaq	-2160(%rbp), %rcx
 1493      F7FFFF
 1494 0703 BA000000 		movl	$.LC18, %edx
 1494      00
 1495 0708 4889CE   		movq	%rcx, %rsi
 1496 070b 4889C7   		movq	%rax, %rdi
 1497 070e E8000000 		call	_ZN8UnitTest11TestResults13OnTestFailureERKNS_11TestDetailsEPKc
 1497      00
 1498              	.LEHE26:
 1499              	.L60:
  52:TestTestMacros.cpp ****     CHECK(strstr(reporter.lastFailedMessage, "ThrowingThingie"));
 1500              		.loc 6 52 0 is_stmt 1
 1501 0713 488D85B0 		leaq	-2128(%rbp), %rax
 1501      F7FFFF
 1502 071a 48051405 		addq	$1300, %rax
 1502      0000
 1503 0720 BE000000 		movl	$.LC19, %esi
 1503      00
 1504 0725 4889C7   		movq	%rax, %rdi
 1505 0728 E8000000 		call	strstr
 1505      00
 1506 072d 4889C7   		movq	%rax, %rdi
 1507 0730 E8000000 		call	_ZN8UnitTest5CheckIPcEEbT_
 1507      00
 1508 0735 83F001   		xorl	$1, %eax
 1509 0738 84C0     		testb	%al, %al
 1510 073a 743E     		je	.L61
 1511              	.LEHB27:
 1512              		.loc 6 52 0 is_stmt 0 discriminator 1
 1513 073c E8000000 		call	_ZN8UnitTest11CurrentTest7DetailsEv
 1513      00
 1514 0741 488B08   		movq	(%rax), %rcx
 1515 0744 488D8590 		leaq	-2160(%rbp), %rax
 1515      F7FFFF
 1516 074b BA340000 		movl	$52, %edx
 1516      00
 1517 0750 4889CE   		movq	%rcx, %rsi
 1518 0753 4889C7   		movq	%rax, %rdi
 1519 0756 E8000000 		call	_ZN8UnitTest11TestDetailsC1ERKS0_i
 1519      00
 1520 075b E8000000 		call	_ZN8UnitTest11CurrentTest7ResultsEv
 1520      00
 1521 0760 488B00   		movq	(%rax), %rax
 1522 0763 488D8D90 		leaq	-2160(%rbp), %rcx
 1522      F7FFFF
 1523 076a BA000000 		movl	$.LC20, %edx
 1523      00
 1524 076f 4889CE   		movq	%rcx, %rsi
 1525 0772 4889C7   		movq	%rax, %rdi
 1526 0775 E8000000 		call	_ZN8UnitTest11TestResults13OnTestFailureERKNS_11TestDetailsEPKc
 1526      00
 1527              	.LEHE27:
 1528              	.L61:
 1529              		.loc 6 52 0 discriminator 2
 1530 077a 488D85B0 		leaq	-2128(%rbp), %rax
 1530      F7FFFF
 1531 0781 4889C7   		movq	%rax, %rdi
 1532              	.LEHB28:
 1533 0784 E8000000 		call	_ZN17RecordingReporterD1Ev
 1533      00
 1534              	.LEHE28:
 1535              	.LBE28:
  53:TestTestMacros.cpp **** }
 1536              		.loc 6 53 0 is_stmt 1 discriminator 2
 1537 0789 488B45E8 		movq	-24(%rbp), %rax
 1538 078d 64483304 		xorq	%fs:40, %rax
 1538      25280000 
 1538      00
 1539 0796 0F845201 		je	.L70
 1539      0000
 1540 079c E9480100 		jmp	.L79
 1540      00
 1541              	.L72:
 1542 07a1 4889C3   		movq	%rax, %rbx
 1543              	.LBB31:
 1544              	.LBB30:
  47:TestTestMacros.cpp **** 	}
 1545              		.loc 6 47 0
 1546 07a4 488D8590 		leaq	-2160(%rbp), %rax
 1546      F7FFFF
 1547 07ab 4889C7   		movq	%rax, %rdi
 1548 07ae E8000000 		call	_ZN17ScopedCurrentTestD1Ev
 1548      00
 1549 07b3 E9170100 		jmp	.L63
 1549      00
 1550              	.L74:
 1551 07b8 4889C3   		movq	%rax, %rbx
 1552              	.LBE30:
  50:TestTestMacros.cpp ****     CHECK(strstr(reporter.lastFailedMessage, "fixture"));
 1553              		.loc 6 50 0
 1554 07bb E8000000 		call	__cxa_end_catch
 1554      00
 1555 07c0 E90A0100 		jmp	.L63
 1555      00
 1556              	.L73:
 1557 07c5 4889C7   		movq	%rax, %rdi
 1558 07c8 E8000000 		call	__cxa_begin_catch
 1558      00
 1559              	.LEHB29:
 1560 07cd E8000000 		call	_ZN8UnitTest11CurrentTest7DetailsEv
 1560      00
 1561 07d2 488B08   		movq	(%rax), %rcx
 1562 07d5 488D8590 		leaq	-2160(%rbp), %rax
 1562      F7FFFF
 1563 07dc BA320000 		movl	$50, %edx
 1563      00
 1564 07e1 4889CE   		movq	%rcx, %rsi
 1565 07e4 4889C7   		movq	%rax, %rdi
 1566 07e7 E8000000 		call	_ZN8UnitTest11TestDetailsC1ERKS0_i
 1566      00
  50:TestTestMacros.cpp ****     CHECK(strstr(reporter.lastFailedMessage, "fixture"));
 1567              		.loc 6 50 0 is_stmt 0 discriminator 1
 1568 07ec E8000000 		call	_ZN8UnitTest11CurrentTest7ResultsEv
 1568      00
 1569 07f1 488B00   		movq	(%rax), %rax
 1570 07f4 488D8D90 		leaq	-2160(%rbp), %rcx
 1570      F7FFFF
 1571 07fb BA000000 		movl	$.LC21, %edx
 1571      00
 1572 0800 4889CE   		movq	%rcx, %rsi
 1573 0803 4889C7   		movq	%rax, %rdi
 1574 0806 E8000000 		call	_ZN8UnitTest11TestResults13OnTestFailureERKNS_11TestDetailsEPKc
 1574      00
 1575              	.LEHE29:
 1576              	.LEHB30:
 1577 080b E8000000 		call	__cxa_end_catch
 1577      00
 1578              	.LEHE30:
  50:TestTestMacros.cpp ****     CHECK(strstr(reporter.lastFailedMessage, "fixture"));
 1579              		.loc 6 50 0
 1580 0810 E997FEFF 		jmp	.L59
 1580      FF
 1581              	.L76:
 1582 0815 4889C3   		movq	%rax, %rbx
  51:TestTestMacros.cpp ****     CHECK(strstr(reporter.lastFailedMessage, "ThrowingThingie"));
 1583              		.loc 6 51 0 is_stmt 1
 1584 0818 E8000000 		call	__cxa_end_catch
 1584      00
 1585 081d E9AD0000 		jmp	.L63
 1585      00
 1586              	.L75:
 1587 0822 4889C7   		movq	%rax, %rdi
 1588 0825 E8000000 		call	__cxa_begin_catch
 1588      00
 1589              	.LEHB31:
 1590 082a E8000000 		call	_ZN8UnitTest11CurrentTest7DetailsEv
 1590      00
 1591 082f 488B08   		movq	(%rax), %rcx
 1592 0832 488D8590 		leaq	-2160(%rbp), %rax
 1592      F7FFFF
 1593 0839 BA330000 		movl	$51, %edx
 1593      00
 1594 083e 4889CE   		movq	%rcx, %rsi
 1595 0841 4889C7   		movq	%rax, %rdi
 1596 0844 E8000000 		call	_ZN8UnitTest11TestDetailsC1ERKS0_i
 1596      00
  51:TestTestMacros.cpp ****     CHECK(strstr(reporter.lastFailedMessage, "ThrowingThingie"));
 1597              		.loc 6 51 0 is_stmt 0 discriminator 1
 1598 0849 E8000000 		call	_ZN8UnitTest11CurrentTest7ResultsEv
 1598      00
 1599 084e 488B00   		movq	(%rax), %rax
 1600 0851 488D8D90 		leaq	-2160(%rbp), %rcx
 1600      F7FFFF
 1601 0858 BA000000 		movl	$.LC22, %edx
 1601      00
 1602 085d 4889CE   		movq	%rcx, %rsi
 1603 0860 4889C7   		movq	%rax, %rdi
 1604 0863 E8000000 		call	_ZN8UnitTest11TestResults13OnTestFailureERKNS_11TestDetailsEPKc
 1604      00
 1605              	.LEHE31:
 1606              	.LEHB32:
 1607 0868 E8000000 		call	__cxa_end_catch
 1607      00
 1608              	.LEHE32:
  51:TestTestMacros.cpp ****     CHECK(strstr(reporter.lastFailedMessage, "ThrowingThingie"));
 1609              		.loc 6 51 0
 1610 086d E9A1FEFF 		jmp	.L60
 1610      FF
 1611              	.L78:
 1612 0872 4889C3   		movq	%rax, %rbx
  52:TestTestMacros.cpp **** }
 1613              		.loc 6 52 0 is_stmt 1
 1614 0875 E8000000 		call	__cxa_end_catch
 1614      00
 1615 087a EB53     		jmp	.L63
 1616              	.L77:
 1617 087c 4889C7   		movq	%rax, %rdi
 1618 087f E8000000 		call	__cxa_begin_catch
 1618      00
 1619              	.LEHB33:
 1620 0884 E8000000 		call	_ZN8UnitTest11CurrentTest7DetailsEv
 1620      00
 1621 0889 488B08   		movq	(%rax), %rcx
 1622 088c 488D8590 		leaq	-2160(%rbp), %rax
 1622      F7FFFF
 1623 0893 BA340000 		movl	$52, %edx
 1623      00
 1624 0898 4889CE   		movq	%rcx, %rsi
 1625 089b 4889C7   		movq	%rax, %rdi
 1626 089e E8000000 		call	_ZN8UnitTest11TestDetailsC1ERKS0_i
 1626      00
  52:TestTestMacros.cpp **** }
 1627              		.loc 6 52 0 is_stmt 0 discriminator 1
 1628 08a3 E8000000 		call	_ZN8UnitTest11CurrentTest7ResultsEv
 1628      00
 1629 08a8 488B00   		movq	(%rax), %rax
 1630 08ab 488D8D90 		leaq	-2160(%rbp), %rcx
 1630      F7FFFF
 1631 08b2 BA000000 		movl	$.LC23, %edx
 1631      00
 1632 08b7 4889CE   		movq	%rcx, %rsi
 1633 08ba 4889C7   		movq	%rax, %rdi
 1634 08bd E8000000 		call	_ZN8UnitTest11TestResults13OnTestFailureERKNS_11TestDetailsEPKc
 1634      00
 1635              	.LEHE33:
 1636              	.LEHB34:
 1637 08c2 E8000000 		call	__cxa_end_catch
 1637      00
 1638              	.LEHE34:
  52:TestTestMacros.cpp **** }
 1639              		.loc 6 52 0
 1640 08c7 E9AEFEFF 		jmp	.L61
 1640      FF
 1641              	.L71:
 1642 08cc 4889C3   		movq	%rax, %rbx
 1643              	.L63:
 1644 08cf 488D85B0 		leaq	-2128(%rbp), %rax
 1644      F7FFFF
 1645 08d6 4889C7   		movq	%rax, %rdi
 1646 08d9 E8000000 		call	_ZN17RecordingReporterD1Ev
 1646      00
 1647 08de 4889D8   		movq	%rbx, %rax
 1648 08e1 4889C7   		movq	%rax, %rdi
 1649              	.LEHB35:
 1650 08e4 E8000000 		call	_Unwind_Resume
 1650      00
 1651              	.LEHE35:
 1652              	.L79:
 1653              	.LBE31:
 1654              		.loc 6 53 0 is_stmt 1
 1655 08e9 E8000000 		call	__stack_chk_fail
 1655      00
 1656              	.L70:
 1657 08ee 4881C498 		addq	$2200, %rsp
 1657      080000
 1658 08f5 5B       		popq	%rbx
 1659 08f6 5D       		popq	%rbp
 1660              		.cfi_def_cfa 7, 8
 1661 08f7 C3       		ret
 1662              		.cfi_endproc
 1663              	.LFE1060:
 1664              		.section	.gcc_except_table
 1665              		.align 4
 1666              	.LLSDA1060:
 1667 0084 FF       		.byte	0xff
 1668 0085 03       		.byte	0x3
 1669 0086 59       		.uleb128 .LLSDATT1060-.LLSDATTD1060
 1670              	.LLSDATTD1060:
 1671 0087 01       		.byte	0x1
 1672 0088 50       		.uleb128 .LLSDACSE1060-.LLSDACSB1060
 1673              	.LLSDACSB1060:
 1674 0089 45       		.uleb128 .LEHB22-.LFB1060
 1675 008a 23       		.uleb128 .LEHE22-.LEHB22
 1676 008b 9006     		.uleb128 .L71-.LFB1060
 1677 008d 00       		.uleb128 0
 1678 008e 6D       		.uleb128 .LEHB23-.LFB1060
 1679 008f 0D       		.uleb128 .LEHE23-.LEHB23
 1680 0090 E503     		.uleb128 .L72-.LFB1060
 1681 0092 00       		.uleb128 0
 1682 0093 8401     		.uleb128 .LEHB24-.LFB1060
 1683 0095 05       		.uleb128 .LEHE24-.LEHB24
 1684 0096 9006     		.uleb128 .L71-.LFB1060
 1685 0098 00       		.uleb128 0
 1686 0099 B201     		.uleb128 .LEHB25-.LFB1060
 1687 009b 3E       		.uleb128 .LEHE25-.LEHB25
 1688 009c 8904     		.uleb128 .L73-.LFB1060
 1689 009e 01       		.uleb128 0x1
 1690 009f 9902     		.uleb128 .LEHB26-.LFB1060
 1691 00a1 3E       		.uleb128 .LEHE26-.LEHB26
 1692 00a2 E604     		.uleb128 .L75-.LFB1060
 1693 00a4 01       		.uleb128 0x1
 1694 00a5 8003     		.uleb128 .LEHB27-.LFB1060
 1695 00a7 3E       		.uleb128 .LEHE27-.LEHB27
 1696 00a8 C005     		.uleb128 .L77-.LFB1060
 1697 00aa 01       		.uleb128 0x1
 1698 00ab C803     		.uleb128 .LEHB28-.LFB1060
 1699 00ad 05       		.uleb128 .LEHE28-.LEHB28
 1700 00ae 00       		.uleb128 0
 1701 00af 00       		.uleb128 0
 1702 00b0 9104     		.uleb128 .LEHB29-.LFB1060
 1703 00b2 3E       		.uleb128 .LEHE29-.LEHB29
 1704 00b3 FC03     		.uleb128 .L74-.LFB1060
 1705 00b5 00       		.uleb128 0
 1706 00b6 CF04     		.uleb128 .LEHB30-.LFB1060
 1707 00b8 05       		.uleb128 .LEHE30-.LEHB30
 1708 00b9 9006     		.uleb128 .L71-.LFB1060
 1709 00bb 00       		.uleb128 0
 1710 00bc EE04     		.uleb128 .LEHB31-.LFB1060
 1711 00be 3E       		.uleb128 .LEHE31-.LEHB31
 1712 00bf D904     		.uleb128 .L76-.LFB1060
 1713 00c1 00       		.uleb128 0
 1714 00c2 AC05     		.uleb128 .LEHB32-.LFB1060
 1715 00c4 05       		.uleb128 .LEHE32-.LEHB32
 1716 00c5 9006     		.uleb128 .L71-.LFB1060
 1717 00c7 00       		.uleb128 0
 1718 00c8 C805     		.uleb128 .LEHB33-.LFB1060
 1719 00ca 3E       		.uleb128 .LEHE33-.LEHB33
 1720 00cb B605     		.uleb128 .L78-.LFB1060
 1721 00cd 00       		.uleb128 0
 1722 00ce 8606     		.uleb128 .LEHB34-.LFB1060
 1723 00d0 05       		.uleb128 .LEHE34-.LEHB34
 1724 00d1 9006     		.uleb128 .L71-.LFB1060
 1725 00d3 00       		.uleb128 0
 1726 00d4 A806     		.uleb128 .LEHB35-.LFB1060
 1727 00d6 05       		.uleb128 .LEHE35-.LEHB35
 1728 00d7 00       		.uleb128 0
 1729 00d8 00       		.uleb128 0
 1730              	.LLSDACSE1060:
 1731 00d9 01       		.byte	0x1
 1732 00da 00       		.byte	0
 1733 00db 00       		.align 4
 1734 00dc 00000000 		.long	0
 1735              	
 1736              	.LLSDATT1060:
 1737              		.text
 1739              		.section	.rodata
 1740              	.LC24:
 1741 038c 54657374 		.string	"TestSuite1"
 1741      53756974 
 1741      653100
 1742              		.text
 1744              	_ZN12_GLOBAL__N_115SuiteTestSuite113UnitTestSuite12GetSuiteNameEv:
 1745              	.LFB1061:
  54:TestTestMacros.cpp **** 
  55:TestTestMacros.cpp **** struct DummyFixture
  56:TestTestMacros.cpp **** {
  57:TestTestMacros.cpp ****     int x;
  58:TestTestMacros.cpp **** };
  59:TestTestMacros.cpp **** 
  60:TestTestMacros.cpp **** // We're really testing the macros so we just want them to compile and link
  61:TestTestMacros.cpp **** SUITE(TestSuite1)
 1746              		.loc 6 61 0
 1747              		.cfi_startproc
 1748 08f8 55       		pushq	%rbp
 1749              		.cfi_def_cfa_offset 16
 1750              		.cfi_offset 6, -16
 1751 08f9 4889E5   		movq	%rsp, %rbp
 1752              		.cfi_def_cfa_register 6
 1753              		.loc 6 61 0
 1754 08fc B8000000 		movl	$.LC24, %eax
 1754      00
 1755 0901 5D       		popq	%rbp
 1756              		.cfi_def_cfa 7, 8
 1757 0902 C3       		ret
 1758              		.cfi_endproc
 1759              	.LFE1061:
 1761              		.section	.rodata
 1762 0397 00       		.align 8
 1763              	.LC25:
 1764 0398 53696D69 		.string	"SimilarlyNamedTestsInDifferentSuitesWork"
 1764      6C61726C 
 1764      794E616D 
 1764      65645465 
 1764      73747349 
 1765              		.text
 1766 0903 90       		.align 2
 1768              	_ZN12_GLOBAL__N_115SuiteTestSuite144TestSimilarlyNamedTestsInDifferentSuitesWorkC2Ev:
 1769              	.LFB1063:
  62:TestTestMacros.cpp **** {
  63:TestTestMacros.cpp **** 	TEST(SimilarlyNamedTestsInDifferentSuitesWork)
 1770              		.loc 6 63 0
 1771              		.cfi_startproc
 1772 0904 55       		pushq	%rbp
 1773              		.cfi_def_cfa_offset 16
 1774              		.cfi_offset 6, -16
 1775 0905 4889E5   		movq	%rsp, %rbp
 1776              		.cfi_def_cfa_register 6
 1777 0908 4883EC10 		subq	$16, %rsp
 1778 090c 48897DF8 		movq	%rdi, -8(%rbp)
 1779              	.LBB32:
 1780              		.loc 6 63 0
 1781 0910 E8E3FFFF 		call	_ZN12_GLOBAL__N_115SuiteTestSuite113UnitTestSuite12GetSuiteNameEv
 1781      FF
 1782 0915 4889C2   		movq	%rax, %rdx
 1783 0918 488B45F8 		movq	-8(%rbp), %rax
 1784 091c 41B83F00 		movl	$63, %r8d
 1784      0000
 1785 0922 B9000000 		movl	$.LC2, %ecx
 1785      00
 1786 0927 BE000000 		movl	$.LC25, %esi
 1786      00
 1787 092c 4889C7   		movq	%rax, %rdi
 1788 092f E8000000 		call	_ZN8UnitTest4TestC2EPKcS2_S2_i
 1788      00
 1789 0934 488B45F8 		movq	-8(%rbp), %rax
 1790 0938 48C70000 		movq	$_ZTVN12_GLOBAL__N_115SuiteTestSuite144TestSimilarlyNamedTestsInDifferentSuitesWorkE+16, (%ra
 1790      000000
 1791              	.LBE32:
 1792 093f C9       		leave
 1793              		.cfi_def_cfa 7, 8
 1794 0940 C3       		ret
 1795              		.cfi_endproc
 1796              	.LFE1063:
 1798              		.set	_ZN12_GLOBAL__N_115SuiteTestSuite144TestSimilarlyNamedTestsInDifferentSuitesWorkC1Ev,_ZN12_GL
 1799              		.local	_ZN12_GLOBAL__N_115SuiteTestSuite152testSimilarlyNamedTestsInDifferentSuitesWorkInstanceE
 1800              		.comm	_ZN12_GLOBAL__N_115SuiteTestSuite152testSimilarlyNamedTestsInDifferentSuitesWorkInstanceE,56
 1801              		.local	_ZN12_GLOBAL__N_115SuiteTestSuite145adderSimilarlyNamedTestsInDifferentSuitesWorkE
 1802              		.comm	_ZN12_GLOBAL__N_115SuiteTestSuite145adderSimilarlyNamedTestsInDifferentSuitesWorkE,1,1
 1803 0941 90       		.align 2
 1805              	_ZNK12_GLOBAL__N_115SuiteTestSuite144TestSimilarlyNamedTestsInDifferentSuitesWork7RunImplEv:
 1806              	.LFB1065:
  64:TestTestMacros.cpp **** 	{
 1807              		.loc 6 64 0
 1808              		.cfi_startproc
 1809 0942 55       		pushq	%rbp
 1810              		.cfi_def_cfa_offset 16
 1811              		.cfi_offset 6, -16
 1812 0943 4889E5   		movq	%rsp, %rbp
 1813              		.cfi_def_cfa_register 6
 1814 0946 48897DF8 		movq	%rdi, -8(%rbp)
  65:TestTestMacros.cpp **** 	}
 1815              		.loc 6 65 0
 1816 094a 5D       		popq	%rbp
 1817              		.cfi_def_cfa 7, 8
 1818 094b C3       		ret
 1819              		.cfi_endproc
 1820              	.LFE1065:
 1822              		.align 2
 1824              	_ZN12_GLOBAL__N_112DummyFixtureC2Ev:
 1825              	.LFB1068:
  55:TestTestMacros.cpp **** {
 1826              		.loc 6 55 0
 1827              		.cfi_startproc
 1828 094c 55       		pushq	%rbp
 1829              		.cfi_def_cfa_offset 16
 1830              		.cfi_offset 6, -16
 1831 094d 4889E5   		movq	%rsp, %rbp
 1832              		.cfi_def_cfa_register 6
 1833 0950 48897DF8 		movq	%rdi, -8(%rbp)
  55:TestTestMacros.cpp **** {
 1834              		.loc 6 55 0
 1835 0954 5D       		popq	%rbp
 1836              		.cfi_def_cfa 7, 8
 1837 0955 C3       		ret
 1838              		.cfi_endproc
 1839              	.LFE1068:
 1841              		.align 2
 1843              	_ZN12_GLOBAL__N_115SuiteTestSuite165DummyFixtureSimilarlyNamedFixtureTestsInDifferentSuitesWorkHelp
 1844              	.LFB1070:
  66:TestTestMacros.cpp **** 
  67:TestTestMacros.cpp **** 	TEST_FIXTURE(DummyFixture, SimilarlyNamedFixtureTestsInDifferentSuitesWork)
 1845              		.loc 6 67 0
 1846              		.cfi_startproc
 1847 0956 55       		pushq	%rbp
 1848              		.cfi_def_cfa_offset 16
 1849              		.cfi_offset 6, -16
 1850 0957 4889E5   		movq	%rsp, %rbp
 1851              		.cfi_def_cfa_register 6
 1852 095a 4883EC10 		subq	$16, %rsp
 1853 095e 48897DF8 		movq	%rdi, -8(%rbp)
 1854 0962 488975F0 		movq	%rsi, -16(%rbp)
 1855              	.LBB33:
 1856              		.loc 6 67 0
 1857 0966 488B45F8 		movq	-8(%rbp), %rax
 1858 096a 4889C7   		movq	%rax, %rdi
 1859 096d E8DAFFFF 		call	_ZN12_GLOBAL__N_112DummyFixtureC2Ev
 1859      FF
 1860 0972 488B45F8 		movq	-8(%rbp), %rax
 1861 0976 488B55F0 		movq	-16(%rbp), %rdx
 1862 097a 48895008 		movq	%rdx, 8(%rax)
 1863              	.LBE33:
 1864 097e C9       		leave
 1865              		.cfi_def_cfa 7, 8
 1866 097f C3       		ret
 1867              		.cfi_endproc
 1868              	.LFE1070:
 1870              		.set	_ZN12_GLOBAL__N_115SuiteTestSuite165DummyFixtureSimilarlyNamedFixtureTestsInDifferentSuitesWo
 1871              		.section	.rodata
 1872 03c1 00000000 		.align 8
 1872      000000
 1873              	.LC26:
 1874 03c8 53696D69 		.string	"SimilarlyNamedFixtureTestsInDifferentSuitesWork"
 1874      6C61726C 
 1874      794E616D 
 1874      65644669 
 1874      78747572 
 1875              		.text
 1876              		.align 2
 1878              	_ZN12_GLOBAL__N_115SuiteTestSuite163TestDummyFixtureSimilarlyNamedFixtureTestsInDifferentSuitesWork
 1879              	.LFB1073:
 1880              		.loc 6 67 0
 1881              		.cfi_startproc
 1882 0980 55       		pushq	%rbp
 1883              		.cfi_def_cfa_offset 16
 1884              		.cfi_offset 6, -16
 1885 0981 4889E5   		movq	%rsp, %rbp
 1886              		.cfi_def_cfa_register 6
 1887 0984 4883EC10 		subq	$16, %rsp
 1888 0988 48897DF8 		movq	%rdi, -8(%rbp)
 1889              	.LBB34:
 1890              		.loc 6 67 0
 1891 098c E867FFFF 		call	_ZN12_GLOBAL__N_115SuiteTestSuite113UnitTestSuite12GetSuiteNameEv
 1891      FF
 1892 0991 4889C2   		movq	%rax, %rdx
 1893 0994 488B45F8 		movq	-8(%rbp), %rax
 1894 0998 41B84300 		movl	$67, %r8d
 1894      0000
 1895 099e B9000000 		movl	$.LC2, %ecx
 1895      00
 1896 09a3 BE000000 		movl	$.LC26, %esi
 1896      00
 1897 09a8 4889C7   		movq	%rax, %rdi
 1898 09ab E8000000 		call	_ZN8UnitTest4TestC2EPKcS2_S2_i
 1898      00
 1899 09b0 488B45F8 		movq	-8(%rbp), %rax
 1900 09b4 48C70000 		movq	$_ZTVN12_GLOBAL__N_115SuiteTestSuite163TestDummyFixtureSimilarlyNamedFixtureTestsInDifferentS
 1900      000000
 1901              	.LBE34:
 1902 09bb C9       		leave
 1903              		.cfi_def_cfa 7, 8
 1904 09bc C3       		ret
 1905              		.cfi_endproc
 1906              	.LFE1073:
 1908              		.set	_ZN12_GLOBAL__N_115SuiteTestSuite163TestDummyFixtureSimilarlyNamedFixtureTestsInDifferentSuit
 1909              		.local	_ZN12_GLOBAL__N_115SuiteTestSuite171testDummyFixtureSimilarlyNamedFixtureTestsInDifferentSu
 1910              		.comm	_ZN12_GLOBAL__N_115SuiteTestSuite171testDummyFixtureSimilarlyNamedFixtureTestsInDifferentSui
 1911              		.local	_ZN12_GLOBAL__N_115SuiteTestSuite164adderDummyFixtureSimilarlyNamedFixtureTestsInDifferentS
 1912              		.comm	_ZN12_GLOBAL__N_115SuiteTestSuite164adderDummyFixtureSimilarlyNamedFixtureTestsInDifferentSu
 1913              		.section	.rodata
 1914              		.align 8
 1915              	.LC27:
 1916 03f8 556E6861 		.string	"Unhandled exception while destroying fixture DummyFixture"
 1916      6E646C65 
 1916      64206578 
 1916      63657074 
 1916      696F6E20 
 1917 0432 00000000 		.align 8
 1917      0000
 1918              	.LC28:
 1919 0438 556E6861 		.string	"Unhandled exception while constructing fixture DummyFixture"
 1919      6E646C65 
 1919      64206578 
 1919      63657074 
 1919      696F6E20 
 1920              		.text
 1921 09bd 90       		.align 2
 1923              	_ZNK12_GLOBAL__N_115SuiteTestSuite163TestDummyFixtureSimilarlyNamedFixtureTestsInDifferentSuitesWor
 1924              	.LFB1075:
 1925              		.loc 6 67 0
 1926              		.cfi_startproc
 1927              		.cfi_personality 0x3,__gxx_personality_v0
 1928              		.cfi_lsda 0x3,.LLSDA1075
 1929 09be 55       		pushq	%rbp
 1930              		.cfi_def_cfa_offset 16
 1931              		.cfi_offset 6, -16
 1932 09bf 4889E5   		movq	%rsp, %rbp
 1933              		.cfi_def_cfa_register 6
 1934 09c2 4154     		pushq	%r12
 1935 09c4 53       		pushq	%rbx
 1936 09c5 4881ECA0 		subq	$416, %rsp
 1936      010000
 1937              		.cfi_offset 12, -24
 1938              		.cfi_offset 3, -32
 1939 09cc 4889BD58 		movq	%rdi, -424(%rbp)
 1939      FEFFFF
 1940              	.LBB35:
 1941              		.loc 6 67 0
 1942 09d3 C6856FFE 		movb	$0, -401(%rbp)
 1942      FFFF00
 1943              	.LBB36:
 1944 09da 488B8558 		movq	-424(%rbp), %rax
 1944      FEFFFF
 1945 09e1 488D5008 		leaq	8(%rax), %rdx
 1946 09e5 488D8580 		leaq	-384(%rbp), %rax
 1946      FEFFFF
 1947 09ec 4889D6   		movq	%rdx, %rsi
 1948 09ef 4889C7   		movq	%rax, %rdi
 1949 09f2 E85FFFFF 		call	_ZN12_GLOBAL__N_115SuiteTestSuite165DummyFixtureSimilarlyNamedFixtureTestsInDifferentSuitesWo
 1949      FF
 1950 09f7 C6856FFE 		movb	$1, -401(%rbp)
 1950      FFFF01
 1951 09fe 488B8558 		movq	-424(%rbp), %rax
 1951      FEFFFF
 1952 0a05 488D5008 		leaq	8(%rax), %rdx
 1953 0a09 488D8580 		leaq	-384(%rbp), %rax
 1953      FEFFFF
 1954 0a10 4889D6   		movq	%rdx, %rsi
 1955 0a13 4889C7   		movq	%rax, %rdi
 1956              	.LEHB36:
 1957 0a16 E8EB2500 		call	_ZN8UnitTest11ExecuteTestIN12_GLOBAL__N_115SuiteTestSuite165DummyFixtureSimilarlyNamedFixture
 1957      00
 1958              	.LEHE36:
 1959              	.LBE36:
 1960              	.LBE35:
 1961 0a1b E9470200 		jmp	.L105
 1961      00
 1962              	.L100:
 1963 0a20 4889C3   		movq	%rax, %rbx
 1964              	.LBB43:
 1965              	.LBB37:
 1966 0a23 E8000000 		call	__cxa_end_catch
 1966      00
 1967 0a28 4889D8   		movq	%rbx, %rax
 1968 0a2b 4889C7   		movq	%rax, %rdi
 1969              	.LEHB37:
 1970 0a2e E8000000 		call	_Unwind_Resume
 1970      00
 1971              	.LEHE37:
 1972              	.L101:
 1973 0a33 4889C3   		movq	%rax, %rbx
 1974              	.LBE37:
 1975              	.LBB38:
 1976              	.LBB39:
 1977 0a36 488D8580 		leaq	-384(%rbp), %rax
 1977      FEFFFF
 1978 0a3d 4889C7   		movq	%rax, %rdi
 1979 0a40 E8000000 		call	_ZN8UnitTest15MemoryOutStreamD1Ev
 1979      00
 1980 0a45 EB03     		jmp	.L90
 1981              	.L102:
 1982 0a47 4889C3   		movq	%rax, %rbx
 1983              	.L90:
 1984              	.LBE39:
 1985 0a4a E8000000 		call	__cxa_end_catch
 1985      00
 1986 0a4f 4889D8   		movq	%rbx, %rax
 1987 0a52 4889C7   		movq	%rax, %rdi
 1988              	.LEHB38:
 1989 0a55 E8000000 		call	_Unwind_Resume
 1989      00
 1990              	.LEHE38:
 1991              	.L103:
 1992 0a5a 4889C3   		movq	%rax, %rbx
 1993              	.LBE38:
 1994 0a5d E8000000 		call	__cxa_end_catch
 1994      00
 1995 0a62 4889D8   		movq	%rbx, %rax
 1996 0a65 4889C7   		movq	%rax, %rdi
 1997              	.LEHB39:
 1998 0a68 E8000000 		call	_Unwind_Resume
 1998      00
 1999              	.LEHE39:
 2000              	.L99:
 2001 0a6d 4883FA01 		cmpq	$1, %rdx
 2002 0a71 740F     		je	.L94
 2003 0a73 4883FA02 		cmpq	$2, %rdx
 2004 0a77 0F84A700 		je	.L95
 2004      0000
 2005 0a7d E94B0100 		jmp	.L104
 2005      00
 2006              	.L94:
 2007              	.LBB41:
 2008 0a82 4889C7   		movq	%rax, %rdi
 2009 0a85 E8000000 		call	__cxa_begin_catch
 2009      00
 2010 0a8a 48898570 		movq	%rax, -400(%rbp)
 2010      FEFFFF
 2011 0a91 488B8570 		movq	-400(%rbp), %rax
 2011      FEFFFF
 2012 0a98 488B00   		movq	(%rax), %rax
 2013 0a9b 4883C010 		addq	$16, %rax
 2014 0a9f 488B00   		movq	(%rax), %rax
 2015 0aa2 488B9570 		movq	-400(%rbp), %rdx
 2015      FEFFFF
 2016 0aa9 4889D7   		movq	%rdx, %rdi
 2017 0aac FFD0     		call	*%rax
 2018 0aae 4889C3   		movq	%rax, %rbx
 2019 0ab1 488B8570 		movq	-400(%rbp), %rax
 2019      FEFFFF
 2020 0ab8 4889C7   		movq	%rax, %rdi
 2021              	.LEHB40:
 2022 0abb E8000000 		call	_ZNK8UnitTest15AssertException10LineNumberEv
 2022      00
 2023 0ac0 4189C4   		movl	%eax, %r12d
 2024 0ac3 488B8570 		movq	-400(%rbp), %rax
 2024      FEFFFF
 2025 0aca 4889C7   		movq	%rax, %rdi
 2026 0acd E8000000 		call	_ZNK8UnitTest15AssertException8FilenameEv
 2026      00
 2027              		.loc 6 67 0 is_stmt 0 discriminator 1
 2028 0ad2 4889C1   		movq	%rax, %rcx
 2029 0ad5 488B8558 		movq	-424(%rbp), %rax
 2029      FEFFFF
 2030 0adc 488B5008 		movq	8(%rax), %rdx
 2031 0ae0 488B8558 		movq	-424(%rbp), %rax
 2031      FEFFFF
 2032 0ae7 488B7010 		movq	16(%rax), %rsi
 2033 0aeb 488D8580 		leaq	-384(%rbp), %rax
 2033      FEFFFF
 2034 0af2 4589E0   		movl	%r12d, %r8d
 2035 0af5 4889C7   		movq	%rax, %rdi
 2036 0af8 E8000000 		call	_ZN8UnitTest11TestDetailsC1EPKcS2_S2_i
 2036      00
 2037              		.loc 6 67 0 discriminator 3
 2038 0afd E8000000 		call	_ZN8UnitTest11CurrentTest7ResultsEv
 2038      00
 2039 0b02 488B00   		movq	(%rax), %rax
 2040 0b05 488D8D80 		leaq	-384(%rbp), %rcx
 2040      FEFFFF
 2041 0b0c 4889DA   		movq	%rbx, %rdx
 2042 0b0f 4889CE   		movq	%rcx, %rsi
 2043 0b12 4889C7   		movq	%rax, %rdi
 2044 0b15 E8000000 		call	_ZN8UnitTest11TestResults13OnTestFailureERKNS_11TestDetailsEPKc
 2044      00
 2045              	.LEHE40:
 2046              		.loc 6 67 0 discriminator 1
 2047 0b1a E8000000 		call	__cxa_end_catch
 2047      00
 2048              	.LBE41:
 2049              	.LBE43:
 2050 0b1f E9430100 		jmp	.L105
 2050      00
 2051              	.L95:
 2052              	.LBB44:
 2053              	.LBB42:
 2054              		.loc 6 67 0
 2055 0b24 4889C7   		movq	%rax, %rdi
 2056 0b27 E8000000 		call	__cxa_begin_catch
 2056      00
 2057 0b2c 48898578 		movq	%rax, -392(%rbp)
 2057      FEFFFF
 2058              	.LBB40:
 2059 0b33 488D8580 		leaq	-384(%rbp), %rax
 2059      FEFFFF
 2060 0b3a 4889C7   		movq	%rax, %rdi
 2061              	.LEHB41:
 2062 0b3d E8000000 		call	_ZN8UnitTest15MemoryOutStreamC1Ev
 2062      00
 2063              	.LEHE41:
 2064              		.loc 6 67 0 discriminator 1
 2065 0b42 488B8578 		movq	-392(%rbp), %rax
 2065      FEFFFF
 2066 0b49 488B00   		movq	(%rax), %rax
 2067 0b4c 4883C010 		addq	$16, %rax
 2068 0b50 488B00   		movq	(%rax), %rax
 2069 0b53 488B9578 		movq	-392(%rbp), %rdx
 2069      FEFFFF
 2070 0b5a 4889D7   		movq	%rdx, %rdi
 2071 0b5d FFD0     		call	*%rax
 2072 0b5f 4889C3   		movq	%rax, %rbx
 2073 0b62 488D8580 		leaq	-384(%rbp), %rax
 2073      FEFFFF
 2074 0b69 BE000000 		movl	$.LC11, %esi
 2074      00
 2075 0b6e 4889C7   		movq	%rax, %rdi
 2076              	.LEHB42:
 2077 0b71 E8000000 		call	_ZStlsISt11char_traitsIcEERSt13basic_ostreamIcT_ES5_PKc
 2077      00
 2078 0b76 4889DE   		movq	%rbx, %rsi
 2079 0b79 4889C7   		movq	%rax, %rdi
 2080 0b7c E8000000 		call	_ZStlsISt11char_traitsIcEERSt13basic_ostreamIcT_ES5_PKc
 2080      00
 2081 0b81 488D8580 		leaq	-384(%rbp), %rax
 2081      FEFFFF
 2082 0b88 4889C7   		movq	%rax, %rdi
 2083 0b8b E8000000 		call	_ZNK8UnitTest15MemoryOutStream7GetTextEv
 2083      00
 2084 0b90 4889C3   		movq	%rax, %rbx
 2085 0b93 488B8558 		movq	-424(%rbp), %rax
 2085      FEFFFF
 2086 0b9a 4C8D6008 		leaq	8(%rax), %r12
 2087 0b9e E8000000 		call	_ZN8UnitTest11CurrentTest7ResultsEv
 2087      00
 2088 0ba3 488B00   		movq	(%rax), %rax
 2089 0ba6 4889DA   		movq	%rbx, %rdx
 2090 0ba9 4C89E6   		movq	%r12, %rsi
 2091 0bac 4889C7   		movq	%rax, %rdi
 2092 0baf E8000000 		call	_ZN8UnitTest11TestResults13OnTestFailureERKNS_11TestDetailsEPKc
 2092      00
 2093              	.LEHE42:
 2094 0bb4 488D8580 		leaq	-384(%rbp), %rax
 2094      FEFFFF
 2095 0bbb 4889C7   		movq	%rax, %rdi
 2096              	.LEHB43:
 2097 0bbe E8000000 		call	_ZN8UnitTest15MemoryOutStreamD1Ev
 2097      00
 2098              	.LEHE43:
 2099              	.LBE40:
 2100              		.loc 6 67 0
 2101 0bc3 E8000000 		call	__cxa_end_catch
 2101      00
 2102              	.LBE42:
 2103              	.LBE44:
 2104 0bc8 E99A0000 		jmp	.L105
 2104      00
 2105              	.L104:
 2106              	.LBB45:
 2107 0bcd 4889C7   		movq	%rax, %rdi
 2108 0bd0 E8000000 		call	__cxa_begin_catch
 2108      00
 2109 0bd5 80BD6FFE 		cmpb	$0, -401(%rbp)
 2109      FFFF00
 2110 0bdc 7443     		je	.L97
 2111              		.loc 6 67 0 discriminator 1
 2112 0bde 488B8558 		movq	-424(%rbp), %rax
 2112      FEFFFF
 2113 0be5 488D4808 		leaq	8(%rax), %rcx
 2114 0be9 488D8580 		leaq	-384(%rbp), %rax
 2114      FEFFFF
 2115 0bf0 BA430000 		movl	$67, %edx
 2115      00
 2116 0bf5 4889CE   		movq	%rcx, %rsi
 2117 0bf8 4889C7   		movq	%rax, %rdi
 2118              	.LEHB44:
 2119 0bfb E8000000 		call	_ZN8UnitTest11TestDetailsC1ERKS0_i
 2119      00
 2120 0c00 E8000000 		call	_ZN8UnitTest11CurrentTest7ResultsEv
 2120      00
 2121 0c05 488B00   		movq	(%rax), %rax
 2122 0c08 488D8D80 		leaq	-384(%rbp), %rcx
 2122      FEFFFF
 2123 0c0f BA000000 		movl	$.LC27, %edx
 2123      00
 2124 0c14 4889CE   		movq	%rcx, %rsi
 2125 0c17 4889C7   		movq	%rax, %rdi
 2126 0c1a E8000000 		call	_ZN8UnitTest11TestResults13OnTestFailureERKNS_11TestDetailsEPKc
 2126      00
 2127 0c1f EB41     		jmp	.L98
 2128              	.L97:
 2129              		.loc 6 67 0 discriminator 2
 2130 0c21 488B8558 		movq	-424(%rbp), %rax
 2130      FEFFFF
 2131 0c28 488D4808 		leaq	8(%rax), %rcx
 2132 0c2c 488D8580 		leaq	-384(%rbp), %rax
 2132      FEFFFF
 2133 0c33 BA430000 		movl	$67, %edx
 2133      00
 2134 0c38 4889CE   		movq	%rcx, %rsi
 2135 0c3b 4889C7   		movq	%rax, %rdi
 2136 0c3e E8000000 		call	_ZN8UnitTest11TestDetailsC1ERKS0_i
 2136      00
 2137              		.loc 6 67 0 discriminator 1
 2138 0c43 E8000000 		call	_ZN8UnitTest11CurrentTest7ResultsEv
 2138      00
 2139 0c48 488B00   		movq	(%rax), %rax
 2140 0c4b 488D8D80 		leaq	-384(%rbp), %rcx
 2140      FEFFFF
 2141 0c52 BA000000 		movl	$.LC28, %edx
 2141      00
 2142 0c57 4889CE   		movq	%rcx, %rsi
 2143 0c5a 4889C7   		movq	%rax, %rdi
 2144 0c5d E8000000 		call	_ZN8UnitTest11TestResults13OnTestFailureERKNS_11TestDetailsEPKc
 2144      00
 2145              	.LEHE44:
 2146              	.L98:
 2147              	.LEHB45:
 2148 0c62 E8000000 		call	__cxa_end_catch
 2148      00
 2149              	.LEHE45:
 2150              	.L105:
 2151              	.LBE45:
 2152              		.loc 6 67 0
 2153 0c67 90       		nop
 2154 0c68 4881C4A0 		addq	$416, %rsp
 2154      010000
 2155 0c6f 5B       		popq	%rbx
 2156 0c70 415C     		popq	%r12
 2157 0c72 5D       		popq	%rbp
 2158              		.cfi_def_cfa 7, 8
 2159 0c73 C3       		ret
 2160              		.cfi_endproc
 2161              	.LFE1075:
 2162              		.section	.gcc_except_table
 2163              		.align 4
 2164              	.LLSDA1075:
 2165 00e0 FF       		.byte	0xff
 2166 00e1 03       		.byte	0x3
 2167 00e2 49       		.uleb128 .LLSDATT1075-.LLSDATTD1075
 2168              	.LLSDATTD1075:
 2169 00e3 01       		.byte	0x1
 2170 00e4 34       		.uleb128 .LLSDACSE1075-.LLSDACSB1075
 2171              	.LLSDACSB1075:
 2172 00e5 58       		.uleb128 .LEHB36-.LFB1075
 2173 00e6 05       		.uleb128 .LEHE36-.LEHB36
 2174 00e7 AF01     		.uleb128 .L99-.LFB1075
 2175 00e9 05       		.uleb128 0x5
 2176 00ea 70       		.uleb128 .LEHB37-.LFB1075
 2177 00eb 05       		.uleb128 .LEHE37-.LEHB37
 2178 00ec 00       		.uleb128 0
 2179 00ed 00       		.uleb128 0
 2180 00ee 9701     		.uleb128 .LEHB38-.LFB1075
 2181 00f0 05       		.uleb128 .LEHE38-.LEHB38
 2182 00f1 00       		.uleb128 0
 2183 00f2 00       		.uleb128 0
 2184 00f3 AA01     		.uleb128 .LEHB39-.LFB1075
 2185 00f5 05       		.uleb128 .LEHE39-.LEHB39
 2186 00f6 00       		.uleb128 0
 2187 00f7 00       		.uleb128 0
 2188 00f8 FD01     		.uleb128 .LEHB40-.LFB1075
 2189 00fa 5F       		.uleb128 .LEHE40-.LEHB40
 2190 00fb 62       		.uleb128 .L100-.LFB1075
 2191 00fc 00       		.uleb128 0
 2192 00fd FF02     		.uleb128 .LEHB41-.LFB1075
 2193 00ff 05       		.uleb128 .LEHE41-.LEHB41
 2194 0100 8901     		.uleb128 .L102-.LFB1075
 2195 0102 00       		.uleb128 0
 2196 0103 B303     		.uleb128 .LEHB42-.LFB1075
 2197 0105 43       		.uleb128 .LEHE42-.LEHB42
 2198 0106 75       		.uleb128 .L101-.LFB1075
 2199 0107 00       		.uleb128 0
 2200 0108 8004     		.uleb128 .LEHB43-.LFB1075
 2201 010a 05       		.uleb128 .LEHE43-.LEHB43
 2202 010b 8901     		.uleb128 .L102-.LFB1075
 2203 010d 00       		.uleb128 0
 2204 010e BD04     		.uleb128 .LEHB44-.LFB1075
 2205 0110 67       		.uleb128 .LEHE44-.LEHB44
 2206 0111 9C01     		.uleb128 .L103-.LFB1075
 2207 0113 00       		.uleb128 0
 2208 0114 A405     		.uleb128 .LEHB45-.LFB1075
 2209 0116 05       		.uleb128 .LEHE45-.LEHB45
 2210 0117 00       		.uleb128 0
 2211 0118 00       		.uleb128 0
 2212              	.LLSDACSE1075:
 2213 0119 03       		.byte	0x3
 2214 011a 00       		.byte	0
 2215 011b 02       		.byte	0x2
 2216 011c 7D       		.byte	0x7d
 2217 011d 01       		.byte	0x1
 2218 011e 7D       		.byte	0x7d
 2219 011f 00       		.align 4
 2220 0120 00000000 		.long	0
 2221              	
 2222 0124 00000000 		.long	_ZTISt9exception
 2223 0128 00000000 		.long	_ZTIN8UnitTest15AssertExceptionE
 2224              	.LLSDATT1075:
 2225              		.text
 2227              		.align 2
 2229              	_ZN12_GLOBAL__N_115SuiteTestSuite165DummyFixtureSimilarlyNamedFixtureTestsInDifferentSuitesWorkHelp
 2230              	.LFB1076:
  68:TestTestMacros.cpp **** 	{
 2231              		.loc 6 68 0 is_stmt 1
 2232              		.cfi_startproc
 2233 0c74 55       		pushq	%rbp
 2234              		.cfi_def_cfa_offset 16
 2235              		.cfi_offset 6, -16
 2236 0c75 4889E5   		movq	%rsp, %rbp
 2237              		.cfi_def_cfa_register 6
 2238 0c78 48897DF8 		movq	%rdi, -8(%rbp)
  69:TestTestMacros.cpp **** 	}
 2239              		.loc 6 69 0
 2240 0c7c 5D       		popq	%rbp
 2241              		.cfi_def_cfa 7, 8
 2242 0c7d C3       		ret
 2243              		.cfi_endproc
 2244              	.LFE1076:
 2246              		.section	.rodata
 2247              	.LC29:
 2248 0474 54657374 		.string	"TestSuite2"
 2248      53756974 
 2248      653200
 2249              		.text
 2251              	_ZN12_GLOBAL__N_115SuiteTestSuite213UnitTestSuite12GetSuiteNameEv:
 2252              	.LFB1077:
  70:TestTestMacros.cpp **** }
  71:TestTestMacros.cpp **** 
  72:TestTestMacros.cpp **** SUITE(TestSuite2)
 2253              		.loc 6 72 0
 2254              		.cfi_startproc
 2255 0c7e 55       		pushq	%rbp
 2256              		.cfi_def_cfa_offset 16
 2257              		.cfi_offset 6, -16
 2258 0c7f 4889E5   		movq	%rsp, %rbp
 2259              		.cfi_def_cfa_register 6
 2260              		.loc 6 72 0
 2261 0c82 B8000000 		movl	$.LC29, %eax
 2261      00
 2262 0c87 5D       		popq	%rbp
 2263              		.cfi_def_cfa 7, 8
 2264 0c88 C3       		ret
 2265              		.cfi_endproc
 2266              	.LFE1077:
 2268 0c89 90       		.align 2
 2270              	_ZN12_GLOBAL__N_115SuiteTestSuite244TestSimilarlyNamedTestsInDifferentSuitesWorkC2Ev:
 2271              	.LFB1079:
  73:TestTestMacros.cpp **** {
  74:TestTestMacros.cpp **** 	TEST(SimilarlyNamedTestsInDifferentSuitesWork)
 2272              		.loc 6 74 0
 2273              		.cfi_startproc
 2274 0c8a 55       		pushq	%rbp
 2275              		.cfi_def_cfa_offset 16
 2276              		.cfi_offset 6, -16
 2277 0c8b 4889E5   		movq	%rsp, %rbp
 2278              		.cfi_def_cfa_register 6
 2279 0c8e 4883EC10 		subq	$16, %rsp
 2280 0c92 48897DF8 		movq	%rdi, -8(%rbp)
 2281              	.LBB46:
 2282              		.loc 6 74 0
 2283 0c96 E8E3FFFF 		call	_ZN12_GLOBAL__N_115SuiteTestSuite213UnitTestSuite12GetSuiteNameEv
 2283      FF
 2284 0c9b 4889C2   		movq	%rax, %rdx
 2285 0c9e 488B45F8 		movq	-8(%rbp), %rax
 2286 0ca2 41B84A00 		movl	$74, %r8d
 2286      0000
 2287 0ca8 B9000000 		movl	$.LC2, %ecx
 2287      00
 2288 0cad BE000000 		movl	$.LC25, %esi
 2288      00
 2289 0cb2 4889C7   		movq	%rax, %rdi
 2290 0cb5 E8000000 		call	_ZN8UnitTest4TestC2EPKcS2_S2_i
 2290      00
 2291 0cba 488B45F8 		movq	-8(%rbp), %rax
 2292 0cbe 48C70000 		movq	$_ZTVN12_GLOBAL__N_115SuiteTestSuite244TestSimilarlyNamedTestsInDifferentSuitesWorkE+16, (%ra
 2292      000000
 2293              	.LBE46:
 2294 0cc5 C9       		leave
 2295              		.cfi_def_cfa 7, 8
 2296 0cc6 C3       		ret
 2297              		.cfi_endproc
 2298              	.LFE1079:
 2300              		.set	_ZN12_GLOBAL__N_115SuiteTestSuite244TestSimilarlyNamedTestsInDifferentSuitesWorkC1Ev,_ZN12_GL
 2301              		.local	_ZN12_GLOBAL__N_115SuiteTestSuite252testSimilarlyNamedTestsInDifferentSuitesWorkInstanceE
 2302              		.comm	_ZN12_GLOBAL__N_115SuiteTestSuite252testSimilarlyNamedTestsInDifferentSuitesWorkInstanceE,56
 2303              		.local	_ZN12_GLOBAL__N_115SuiteTestSuite245adderSimilarlyNamedTestsInDifferentSuitesWorkE
 2304              		.comm	_ZN12_GLOBAL__N_115SuiteTestSuite245adderSimilarlyNamedTestsInDifferentSuitesWorkE,1,1
 2305 0cc7 90       		.align 2
 2307              	_ZNK12_GLOBAL__N_115SuiteTestSuite244TestSimilarlyNamedTestsInDifferentSuitesWork7RunImplEv:
 2308              	.LFB1081:
  75:TestTestMacros.cpp **** 	{
 2309              		.loc 6 75 0
 2310              		.cfi_startproc
 2311 0cc8 55       		pushq	%rbp
 2312              		.cfi_def_cfa_offset 16
 2313              		.cfi_offset 6, -16
 2314 0cc9 4889E5   		movq	%rsp, %rbp
 2315              		.cfi_def_cfa_register 6
 2316 0ccc 48897DF8 		movq	%rdi, -8(%rbp)
  76:TestTestMacros.cpp **** 	}
 2317              		.loc 6 76 0
 2318 0cd0 5D       		popq	%rbp
 2319              		.cfi_def_cfa 7, 8
 2320 0cd1 C3       		ret
 2321              		.cfi_endproc
 2322              	.LFE1081:
 2324              		.align 2
 2326              	_ZN12_GLOBAL__N_115SuiteTestSuite265DummyFixtureSimilarlyNamedFixtureTestsInDifferentSuitesWorkHelp
 2327              	.LFB1083:
  77:TestTestMacros.cpp **** 
  78:TestTestMacros.cpp **** 	TEST_FIXTURE(DummyFixture,SimilarlyNamedFixtureTestsInDifferentSuitesWork)
 2328              		.loc 6 78 0
 2329              		.cfi_startproc
 2330 0cd2 55       		pushq	%rbp
 2331              		.cfi_def_cfa_offset 16
 2332              		.cfi_offset 6, -16
 2333 0cd3 4889E5   		movq	%rsp, %rbp
 2334              		.cfi_def_cfa_register 6
 2335 0cd6 4883EC10 		subq	$16, %rsp
 2336 0cda 48897DF8 		movq	%rdi, -8(%rbp)
 2337 0cde 488975F0 		movq	%rsi, -16(%rbp)
 2338              	.LBB47:
 2339              		.loc 6 78 0
 2340 0ce2 488B45F8 		movq	-8(%rbp), %rax
 2341 0ce6 4889C7   		movq	%rax, %rdi
 2342 0ce9 E85EFCFF 		call	_ZN12_GLOBAL__N_112DummyFixtureC2Ev
 2342      FF
 2343 0cee 488B45F8 		movq	-8(%rbp), %rax
 2344 0cf2 488B55F0 		movq	-16(%rbp), %rdx
 2345 0cf6 48895008 		movq	%rdx, 8(%rax)
 2346              	.LBE47:
 2347 0cfa C9       		leave
 2348              		.cfi_def_cfa 7, 8
 2349 0cfb C3       		ret
 2350              		.cfi_endproc
 2351              	.LFE1083:
 2353              		.set	_ZN12_GLOBAL__N_115SuiteTestSuite265DummyFixtureSimilarlyNamedFixtureTestsInDifferentSuitesWo
 2354              		.align 2
 2356              	_ZN12_GLOBAL__N_115SuiteTestSuite263TestDummyFixtureSimilarlyNamedFixtureTestsInDifferentSuitesWork
 2357              	.LFB1086:
 2358              		.loc 6 78 0
 2359              		.cfi_startproc
 2360 0cfc 55       		pushq	%rbp
 2361              		.cfi_def_cfa_offset 16
 2362              		.cfi_offset 6, -16
 2363 0cfd 4889E5   		movq	%rsp, %rbp
 2364              		.cfi_def_cfa_register 6
 2365 0d00 4883EC10 		subq	$16, %rsp
 2366 0d04 48897DF8 		movq	%rdi, -8(%rbp)
 2367              	.LBB48:
 2368              		.loc 6 78 0
 2369 0d08 E871FFFF 		call	_ZN12_GLOBAL__N_115SuiteTestSuite213UnitTestSuite12GetSuiteNameEv
 2369      FF
 2370 0d0d 4889C2   		movq	%rax, %rdx
 2371 0d10 488B45F8 		movq	-8(%rbp), %rax
 2372 0d14 41B84E00 		movl	$78, %r8d
 2372      0000
 2373 0d1a B9000000 		movl	$.LC2, %ecx
 2373      00
 2374 0d1f BE000000 		movl	$.LC26, %esi
 2374      00
 2375 0d24 4889C7   		movq	%rax, %rdi
 2376 0d27 E8000000 		call	_ZN8UnitTest4TestC2EPKcS2_S2_i
 2376      00
 2377 0d2c 488B45F8 		movq	-8(%rbp), %rax
 2378 0d30 48C70000 		movq	$_ZTVN12_GLOBAL__N_115SuiteTestSuite263TestDummyFixtureSimilarlyNamedFixtureTestsInDifferentS
 2378      000000
 2379              	.LBE48:
 2380 0d37 C9       		leave
 2381              		.cfi_def_cfa 7, 8
 2382 0d38 C3       		ret
 2383              		.cfi_endproc
 2384              	.LFE1086:
 2386              		.set	_ZN12_GLOBAL__N_115SuiteTestSuite263TestDummyFixtureSimilarlyNamedFixtureTestsInDifferentSuit
 2387              		.local	_ZN12_GLOBAL__N_115SuiteTestSuite271testDummyFixtureSimilarlyNamedFixtureTestsInDifferentSu
 2388              		.comm	_ZN12_GLOBAL__N_115SuiteTestSuite271testDummyFixtureSimilarlyNamedFixtureTestsInDifferentSui
 2389              		.local	_ZN12_GLOBAL__N_115SuiteTestSuite264adderDummyFixtureSimilarlyNamedFixtureTestsInDifferentS
 2390              		.comm	_ZN12_GLOBAL__N_115SuiteTestSuite264adderDummyFixtureSimilarlyNamedFixtureTestsInDifferentSu
 2391 0d39 90       		.align 2
 2393              	_ZNK12_GLOBAL__N_115SuiteTestSuite263TestDummyFixtureSimilarlyNamedFixtureTestsInDifferentSuitesWor
 2394              	.LFB1088:
 2395              		.loc 6 78 0
 2396              		.cfi_startproc
 2397              		.cfi_personality 0x3,__gxx_personality_v0
 2398              		.cfi_lsda 0x3,.LLSDA1088
 2399 0d3a 55       		pushq	%rbp
 2400              		.cfi_def_cfa_offset 16
 2401              		.cfi_offset 6, -16
 2402 0d3b 4889E5   		movq	%rsp, %rbp
 2403              		.cfi_def_cfa_register 6
 2404 0d3e 4154     		pushq	%r12
 2405 0d40 53       		pushq	%rbx
 2406 0d41 4881ECA0 		subq	$416, %rsp
 2406      010000
 2407              		.cfi_offset 12, -24
 2408              		.cfi_offset 3, -32
 2409 0d48 4889BD58 		movq	%rdi, -424(%rbp)
 2409      FEFFFF
 2410              	.LBB49:
 2411              		.loc 6 78 0
 2412 0d4f C6856FFE 		movb	$0, -401(%rbp)
 2412      FFFF00
 2413              	.LBB50:
 2414 0d56 488B8558 		movq	-424(%rbp), %rax
 2414      FEFFFF
 2415 0d5d 488D5008 		leaq	8(%rax), %rdx
 2416 0d61 488D8580 		leaq	-384(%rbp), %rax
 2416      FEFFFF
 2417 0d68 4889D6   		movq	%rdx, %rsi
 2418 0d6b 4889C7   		movq	%rax, %rdi
 2419 0d6e E85FFFFF 		call	_ZN12_GLOBAL__N_115SuiteTestSuite265DummyFixtureSimilarlyNamedFixtureTestsInDifferentSuitesWo
 2419      FF
 2420 0d73 C6856FFE 		movb	$1, -401(%rbp)
 2420      FFFF01
 2421 0d7a 488B8558 		movq	-424(%rbp), %rax
 2421      FEFFFF
 2422 0d81 488D5008 		leaq	8(%rax), %rdx
 2423 0d85 488D8580 		leaq	-384(%rbp), %rax
 2423      FEFFFF
 2424 0d8c 4889D6   		movq	%rdx, %rsi
 2425 0d8f 4889C7   		movq	%rax, %rdi
 2426              	.LEHB46:
 2427 0d92 E8072500 		call	_ZN8UnitTest11ExecuteTestIN12_GLOBAL__N_115SuiteTestSuite265DummyFixtureSimilarlyNamedFixture
 2427      00
 2428              	.LEHE46:
 2429              	.LBE50:
 2430              	.LBE49:
 2431 0d97 E9470200 		jmp	.L131
 2431      00
 2432              	.L126:
 2433 0d9c 4889C3   		movq	%rax, %rbx
 2434              	.LBB57:
 2435              	.LBB51:
 2436 0d9f E8000000 		call	__cxa_end_catch
 2436      00
 2437 0da4 4889D8   		movq	%rbx, %rax
 2438 0da7 4889C7   		movq	%rax, %rdi
 2439              	.LEHB47:
 2440 0daa E8000000 		call	_Unwind_Resume
 2440      00
 2441              	.LEHE47:
 2442              	.L127:
 2443 0daf 4889C3   		movq	%rax, %rbx
 2444              	.LBE51:
 2445              	.LBB52:
 2446              	.LBB53:
 2447 0db2 488D8580 		leaq	-384(%rbp), %rax
 2447      FEFFFF
 2448 0db9 4889C7   		movq	%rax, %rdi
 2449 0dbc E8000000 		call	_ZN8UnitTest15MemoryOutStreamD1Ev
 2449      00
 2450 0dc1 EB03     		jmp	.L116
 2451              	.L128:
 2452 0dc3 4889C3   		movq	%rax, %rbx
 2453              	.L116:
 2454              	.LBE53:
 2455 0dc6 E8000000 		call	__cxa_end_catch
 2455      00
 2456 0dcb 4889D8   		movq	%rbx, %rax
 2457 0dce 4889C7   		movq	%rax, %rdi
 2458              	.LEHB48:
 2459 0dd1 E8000000 		call	_Unwind_Resume
 2459      00
 2460              	.LEHE48:
 2461              	.L129:
 2462 0dd6 4889C3   		movq	%rax, %rbx
 2463              	.LBE52:
 2464 0dd9 E8000000 		call	__cxa_end_catch
 2464      00
 2465 0dde 4889D8   		movq	%rbx, %rax
 2466 0de1 4889C7   		movq	%rax, %rdi
 2467              	.LEHB49:
 2468 0de4 E8000000 		call	_Unwind_Resume
 2468      00
 2469              	.LEHE49:
 2470              	.L125:
 2471 0de9 4883FA01 		cmpq	$1, %rdx
 2472 0ded 740F     		je	.L120
 2473 0def 4883FA02 		cmpq	$2, %rdx
 2474 0df3 0F84A700 		je	.L121
 2474      0000
 2475 0df9 E94B0100 		jmp	.L130
 2475      00
 2476              	.L120:
 2477              	.LBB55:
 2478 0dfe 4889C7   		movq	%rax, %rdi
 2479 0e01 E8000000 		call	__cxa_begin_catch
 2479      00
 2480 0e06 48898570 		movq	%rax, -400(%rbp)
 2480      FEFFFF
 2481 0e0d 488B8570 		movq	-400(%rbp), %rax
 2481      FEFFFF
 2482 0e14 488B00   		movq	(%rax), %rax
 2483 0e17 4883C010 		addq	$16, %rax
 2484 0e1b 488B00   		movq	(%rax), %rax
 2485 0e1e 488B9570 		movq	-400(%rbp), %rdx
 2485      FEFFFF
 2486 0e25 4889D7   		movq	%rdx, %rdi
 2487 0e28 FFD0     		call	*%rax
 2488 0e2a 4889C3   		movq	%rax, %rbx
 2489 0e2d 488B8570 		movq	-400(%rbp), %rax
 2489      FEFFFF
 2490 0e34 4889C7   		movq	%rax, %rdi
 2491              	.LEHB50:
 2492 0e37 E8000000 		call	_ZNK8UnitTest15AssertException10LineNumberEv
 2492      00
 2493 0e3c 4189C4   		movl	%eax, %r12d
 2494 0e3f 488B8570 		movq	-400(%rbp), %rax
 2494      FEFFFF
 2495 0e46 4889C7   		movq	%rax, %rdi
 2496 0e49 E8000000 		call	_ZNK8UnitTest15AssertException8FilenameEv
 2496      00
 2497              		.loc 6 78 0 is_stmt 0 discriminator 1
 2498 0e4e 4889C1   		movq	%rax, %rcx
 2499 0e51 488B8558 		movq	-424(%rbp), %rax
 2499      FEFFFF
 2500 0e58 488B5008 		movq	8(%rax), %rdx
 2501 0e5c 488B8558 		movq	-424(%rbp), %rax
 2501      FEFFFF
 2502 0e63 488B7010 		movq	16(%rax), %rsi
 2503 0e67 488D8580 		leaq	-384(%rbp), %rax
 2503      FEFFFF
 2504 0e6e 4589E0   		movl	%r12d, %r8d
 2505 0e71 4889C7   		movq	%rax, %rdi
 2506 0e74 E8000000 		call	_ZN8UnitTest11TestDetailsC1EPKcS2_S2_i
 2506      00
 2507              		.loc 6 78 0 discriminator 3
 2508 0e79 E8000000 		call	_ZN8UnitTest11CurrentTest7ResultsEv
 2508      00
 2509 0e7e 488B00   		movq	(%rax), %rax
 2510 0e81 488D8D80 		leaq	-384(%rbp), %rcx
 2510      FEFFFF
 2511 0e88 4889DA   		movq	%rbx, %rdx
 2512 0e8b 4889CE   		movq	%rcx, %rsi
 2513 0e8e 4889C7   		movq	%rax, %rdi
 2514 0e91 E8000000 		call	_ZN8UnitTest11TestResults13OnTestFailureERKNS_11TestDetailsEPKc
 2514      00
 2515              	.LEHE50:
 2516              		.loc 6 78 0 discriminator 1
 2517 0e96 E8000000 		call	__cxa_end_catch
 2517      00
 2518              	.LBE55:
 2519              	.LBE57:
 2520 0e9b E9430100 		jmp	.L131
 2520      00
 2521              	.L121:
 2522              	.LBB58:
 2523              	.LBB56:
 2524              		.loc 6 78 0
 2525 0ea0 4889C7   		movq	%rax, %rdi
 2526 0ea3 E8000000 		call	__cxa_begin_catch
 2526      00
 2527 0ea8 48898578 		movq	%rax, -392(%rbp)
 2527      FEFFFF
 2528              	.LBB54:
 2529 0eaf 488D8580 		leaq	-384(%rbp), %rax
 2529      FEFFFF
 2530 0eb6 4889C7   		movq	%rax, %rdi
 2531              	.LEHB51:
 2532 0eb9 E8000000 		call	_ZN8UnitTest15MemoryOutStreamC1Ev
 2532      00
 2533              	.LEHE51:
 2534              		.loc 6 78 0 discriminator 1
 2535 0ebe 488B8578 		movq	-392(%rbp), %rax
 2535      FEFFFF
 2536 0ec5 488B00   		movq	(%rax), %rax
 2537 0ec8 4883C010 		addq	$16, %rax
 2538 0ecc 488B00   		movq	(%rax), %rax
 2539 0ecf 488B9578 		movq	-392(%rbp), %rdx
 2539      FEFFFF
 2540 0ed6 4889D7   		movq	%rdx, %rdi
 2541 0ed9 FFD0     		call	*%rax
 2542 0edb 4889C3   		movq	%rax, %rbx
 2543 0ede 488D8580 		leaq	-384(%rbp), %rax
 2543      FEFFFF
 2544 0ee5 BE000000 		movl	$.LC11, %esi
 2544      00
 2545 0eea 4889C7   		movq	%rax, %rdi
 2546              	.LEHB52:
 2547 0eed E8000000 		call	_ZStlsISt11char_traitsIcEERSt13basic_ostreamIcT_ES5_PKc
 2547      00
 2548 0ef2 4889DE   		movq	%rbx, %rsi
 2549 0ef5 4889C7   		movq	%rax, %rdi
 2550 0ef8 E8000000 		call	_ZStlsISt11char_traitsIcEERSt13basic_ostreamIcT_ES5_PKc
 2550      00
 2551 0efd 488D8580 		leaq	-384(%rbp), %rax
 2551      FEFFFF
 2552 0f04 4889C7   		movq	%rax, %rdi
 2553 0f07 E8000000 		call	_ZNK8UnitTest15MemoryOutStream7GetTextEv
 2553      00
 2554 0f0c 4889C3   		movq	%rax, %rbx
 2555 0f0f 488B8558 		movq	-424(%rbp), %rax
 2555      FEFFFF
 2556 0f16 4C8D6008 		leaq	8(%rax), %r12
 2557 0f1a E8000000 		call	_ZN8UnitTest11CurrentTest7ResultsEv
 2557      00
 2558 0f1f 488B00   		movq	(%rax), %rax
 2559 0f22 4889DA   		movq	%rbx, %rdx
 2560 0f25 4C89E6   		movq	%r12, %rsi
 2561 0f28 4889C7   		movq	%rax, %rdi
 2562 0f2b E8000000 		call	_ZN8UnitTest11TestResults13OnTestFailureERKNS_11TestDetailsEPKc
 2562      00
 2563              	.LEHE52:
 2564 0f30 488D8580 		leaq	-384(%rbp), %rax
 2564      FEFFFF
 2565 0f37 4889C7   		movq	%rax, %rdi
 2566              	.LEHB53:
 2567 0f3a E8000000 		call	_ZN8UnitTest15MemoryOutStreamD1Ev
 2567      00
 2568              	.LEHE53:
 2569              	.LBE54:
 2570              		.loc 6 78 0
 2571 0f3f E8000000 		call	__cxa_end_catch
 2571      00
 2572              	.LBE56:
 2573              	.LBE58:
 2574 0f44 E99A0000 		jmp	.L131
 2574      00
 2575              	.L130:
 2576              	.LBB59:
 2577 0f49 4889C7   		movq	%rax, %rdi
 2578 0f4c E8000000 		call	__cxa_begin_catch
 2578      00
 2579 0f51 80BD6FFE 		cmpb	$0, -401(%rbp)
 2579      FFFF00
 2580 0f58 7443     		je	.L123
 2581              		.loc 6 78 0 discriminator 1
 2582 0f5a 488B8558 		movq	-424(%rbp), %rax
 2582      FEFFFF
 2583 0f61 488D4808 		leaq	8(%rax), %rcx
 2584 0f65 488D8580 		leaq	-384(%rbp), %rax
 2584      FEFFFF
 2585 0f6c BA4E0000 		movl	$78, %edx
 2585      00
 2586 0f71 4889CE   		movq	%rcx, %rsi
 2587 0f74 4889C7   		movq	%rax, %rdi
 2588              	.LEHB54:
 2589 0f77 E8000000 		call	_ZN8UnitTest11TestDetailsC1ERKS0_i
 2589      00
 2590 0f7c E8000000 		call	_ZN8UnitTest11CurrentTest7ResultsEv
 2590      00
 2591 0f81 488B00   		movq	(%rax), %rax
 2592 0f84 488D8D80 		leaq	-384(%rbp), %rcx
 2592      FEFFFF
 2593 0f8b BA000000 		movl	$.LC27, %edx
 2593      00
 2594 0f90 4889CE   		movq	%rcx, %rsi
 2595 0f93 4889C7   		movq	%rax, %rdi
 2596 0f96 E8000000 		call	_ZN8UnitTest11TestResults13OnTestFailureERKNS_11TestDetailsEPKc
 2596      00
 2597 0f9b EB41     		jmp	.L124
 2598              	.L123:
 2599              		.loc 6 78 0 discriminator 2
 2600 0f9d 488B8558 		movq	-424(%rbp), %rax
 2600      FEFFFF
 2601 0fa4 488D4808 		leaq	8(%rax), %rcx
 2602 0fa8 488D8580 		leaq	-384(%rbp), %rax
 2602      FEFFFF
 2603 0faf BA4E0000 		movl	$78, %edx
 2603      00
 2604 0fb4 4889CE   		movq	%rcx, %rsi
 2605 0fb7 4889C7   		movq	%rax, %rdi
 2606 0fba E8000000 		call	_ZN8UnitTest11TestDetailsC1ERKS0_i
 2606      00
 2607              		.loc 6 78 0 discriminator 1
 2608 0fbf E8000000 		call	_ZN8UnitTest11CurrentTest7ResultsEv
 2608      00
 2609 0fc4 488B00   		movq	(%rax), %rax
 2610 0fc7 488D8D80 		leaq	-384(%rbp), %rcx
 2610      FEFFFF
 2611 0fce BA000000 		movl	$.LC28, %edx
 2611      00
 2612 0fd3 4889CE   		movq	%rcx, %rsi
 2613 0fd6 4889C7   		movq	%rax, %rdi
 2614 0fd9 E8000000 		call	_ZN8UnitTest11TestResults13OnTestFailureERKNS_11TestDetailsEPKc
 2614      00
 2615              	.LEHE54:
 2616              	.L124:
 2617              	.LEHB55:
 2618 0fde E8000000 		call	__cxa_end_catch
 2618      00
 2619              	.LEHE55:
 2620              	.L131:
 2621              	.LBE59:
 2622              		.loc 6 78 0
 2623 0fe3 90       		nop
 2624 0fe4 4881C4A0 		addq	$416, %rsp
 2624      010000
 2625 0feb 5B       		popq	%rbx
 2626 0fec 415C     		popq	%r12
 2627 0fee 5D       		popq	%rbp
 2628              		.cfi_def_cfa 7, 8
 2629 0fef C3       		ret
 2630              		.cfi_endproc
 2631              	.LFE1088:
 2632              		.section	.gcc_except_table
 2633              		.align 4
 2634              	.LLSDA1088:
 2635 012c FF       		.byte	0xff
 2636 012d 03       		.byte	0x3
 2637 012e 49       		.uleb128 .LLSDATT1088-.LLSDATTD1088
 2638              	.LLSDATTD1088:
 2639 012f 01       		.byte	0x1
 2640 0130 34       		.uleb128 .LLSDACSE1088-.LLSDACSB1088
 2641              	.LLSDACSB1088:
 2642 0131 58       		.uleb128 .LEHB46-.LFB1088
 2643 0132 05       		.uleb128 .LEHE46-.LEHB46
 2644 0133 AF01     		.uleb128 .L125-.LFB1088
 2645 0135 05       		.uleb128 0x5
 2646 0136 70       		.uleb128 .LEHB47-.LFB1088
 2647 0137 05       		.uleb128 .LEHE47-.LEHB47
 2648 0138 00       		.uleb128 0
 2649 0139 00       		.uleb128 0
 2650 013a 9701     		.uleb128 .LEHB48-.LFB1088
 2651 013c 05       		.uleb128 .LEHE48-.LEHB48
 2652 013d 00       		.uleb128 0
 2653 013e 00       		.uleb128 0
 2654 013f AA01     		.uleb128 .LEHB49-.LFB1088
 2655 0141 05       		.uleb128 .LEHE49-.LEHB49
 2656 0142 00       		.uleb128 0
 2657 0143 00       		.uleb128 0
 2658 0144 FD01     		.uleb128 .LEHB50-.LFB1088
 2659 0146 5F       		.uleb128 .LEHE50-.LEHB50
 2660 0147 62       		.uleb128 .L126-.LFB1088
 2661 0148 00       		.uleb128 0
 2662 0149 FF02     		.uleb128 .LEHB51-.LFB1088
 2663 014b 05       		.uleb128 .LEHE51-.LEHB51
 2664 014c 8901     		.uleb128 .L128-.LFB1088
 2665 014e 00       		.uleb128 0
 2666 014f B303     		.uleb128 .LEHB52-.LFB1088
 2667 0151 43       		.uleb128 .LEHE52-.LEHB52
 2668 0152 75       		.uleb128 .L127-.LFB1088
 2669 0153 00       		.uleb128 0
 2670 0154 8004     		.uleb128 .LEHB53-.LFB1088
 2671 0156 05       		.uleb128 .LEHE53-.LEHB53
 2672 0157 8901     		.uleb128 .L128-.LFB1088
 2673 0159 00       		.uleb128 0
 2674 015a BD04     		.uleb128 .LEHB54-.LFB1088
 2675 015c 67       		.uleb128 .LEHE54-.LEHB54
 2676 015d 9C01     		.uleb128 .L129-.LFB1088
 2677 015f 00       		.uleb128 0
 2678 0160 A405     		.uleb128 .LEHB55-.LFB1088
 2679 0162 05       		.uleb128 .LEHE55-.LEHB55
 2680 0163 00       		.uleb128 0
 2681 0164 00       		.uleb128 0
 2682              	.LLSDACSE1088:
 2683 0165 03       		.byte	0x3
 2684 0166 00       		.byte	0
 2685 0167 02       		.byte	0x2
 2686 0168 7D       		.byte	0x7d
 2687 0169 01       		.byte	0x1
 2688 016a 7D       		.byte	0x7d
 2689 016b 00       		.align 4
 2690 016c 00000000 		.long	0
 2691              	
 2692 0170 00000000 		.long	_ZTISt9exception
 2693 0174 00000000 		.long	_ZTIN8UnitTest15AssertExceptionE
 2694              	.LLSDATT1088:
 2695              		.text
 2697              		.align 2
 2699              	_ZN12_GLOBAL__N_115SuiteTestSuite265DummyFixtureSimilarlyNamedFixtureTestsInDifferentSuitesWorkHelp
 2700              	.LFB1089:
  79:TestTestMacros.cpp **** 	{
 2701              		.loc 6 79 0 is_stmt 1
 2702              		.cfi_startproc
 2703 0ff0 55       		pushq	%rbp
 2704              		.cfi_def_cfa_offset 16
 2705              		.cfi_offset 6, -16
 2706 0ff1 4889E5   		movq	%rsp, %rbp
 2707              		.cfi_def_cfa_register 6
 2708 0ff4 48897DF8 		movq	%rdi, -8(%rbp)
  80:TestTestMacros.cpp **** 	}
 2709              		.loc 6 80 0
 2710 0ff8 5D       		popq	%rbp
 2711              		.cfi_def_cfa 7, 8
 2712 0ff9 C3       		ret
 2713              		.cfi_endproc
 2714              	.LFE1089:
 2716              		.local	_ZN12_GLOBAL__N_114macroTestList1E
 2717              		.comm	_ZN12_GLOBAL__N_114macroTestList1E,16,16
 2718              		.section	.rodata
 2719              	.LC30:
 2720 047f 4D616372 		.string	"MacroTestHelper1"
 2720      6F546573 
 2720      7448656C 
 2720      70657231 
 2720      00
 2721              		.text
 2722              		.align 2
 2724              	_ZN12_GLOBAL__N_120TestMacroTestHelper1C2Ev:
 2725              	.LFB1091:
  81:TestTestMacros.cpp **** }
  82:TestTestMacros.cpp **** 
  83:TestTestMacros.cpp **** TestList macroTestList1;
  84:TestTestMacros.cpp **** TEST_EX(MacroTestHelper1, macroTestList1)
 2726              		.loc 6 84 0
 2727              		.cfi_startproc
 2728 0ffa 55       		pushq	%rbp
 2729              		.cfi_def_cfa_offset 16
 2730              		.cfi_offset 6, -16
 2731 0ffb 4889E5   		movq	%rsp, %rbp
 2732              		.cfi_def_cfa_register 6
 2733 0ffe 4883EC10 		subq	$16, %rsp
 2734 1002 48897DF8 		movq	%rdi, -8(%rbp)
 2735              	.LBB60:
 2736              		.loc 6 84 0
 2737 1006 E8000000 		call	_ZN13UnitTestSuite12GetSuiteNameEv
 2737      00
 2738 100b 4889C2   		movq	%rax, %rdx
 2739 100e 488B45F8 		movq	-8(%rbp), %rax
 2740 1012 41B85400 		movl	$84, %r8d
 2740      0000
 2741 1018 B9000000 		movl	$.LC2, %ecx
 2741      00
 2742 101d BE000000 		movl	$.LC30, %esi
 2742      00
 2743 1022 4889C7   		movq	%rax, %rdi
 2744 1025 E8000000 		call	_ZN8UnitTest4TestC2EPKcS2_S2_i
 2744      00
 2745 102a 488B45F8 		movq	-8(%rbp), %rax
 2746 102e 48C70000 		movq	$_ZTVN12_GLOBAL__N_120TestMacroTestHelper1E+16, (%rax)
 2746      000000
 2747              	.LBE60:
 2748 1035 C9       		leave
 2749              		.cfi_def_cfa 7, 8
 2750 1036 C3       		ret
 2751              		.cfi_endproc
 2752              	.LFE1091:
 2754              		.set	_ZN12_GLOBAL__N_120TestMacroTestHelper1C1Ev,_ZN12_GLOBAL__N_120TestMacroTestHelper1C2Ev
 2755              		.local	_ZN12_GLOBAL__N_128testMacroTestHelper1InstanceE
 2756              		.comm	_ZN12_GLOBAL__N_128testMacroTestHelper1InstanceE,56,32
 2757              		.local	_ZN12_GLOBAL__N_121adderMacroTestHelper1E
 2758              		.comm	_ZN12_GLOBAL__N_121adderMacroTestHelper1E,1,1
 2759 1037 90       		.align 2
 2761              	_ZNK12_GLOBAL__N_120TestMacroTestHelper17RunImplEv:
 2762              	.LFB1093:
  85:TestTestMacros.cpp **** {
 2763              		.loc 6 85 0
 2764              		.cfi_startproc
 2765 1038 55       		pushq	%rbp
 2766              		.cfi_def_cfa_offset 16
 2767              		.cfi_offset 6, -16
 2768 1039 4889E5   		movq	%rsp, %rbp
 2769              		.cfi_def_cfa_register 6
 2770 103c 48897DF8 		movq	%rdi, -8(%rbp)
  86:TestTestMacros.cpp **** }
 2771              		.loc 6 86 0
 2772 1040 5D       		popq	%rbp
 2773              		.cfi_def_cfa 7, 8
 2774 1041 C3       		ret
 2775              		.cfi_endproc
 2776              	.LFE1093:
 2778              		.section	.rodata
 2779              		.align 8
 2780              	.LC31:
 2781 0490 54657374 		.string	"TestAddedWithTEST_EXMacroGetsDefaultSuite"
 2781      41646465 
 2781      64576974 
 2781      68544553 
 2781      545F4558 
 2782              		.text
 2783              		.align 2
 2785              	_ZN12_GLOBAL__N_145TestTestAddedWithTEST_EXMacroGetsDefaultSuiteC2Ev:
 2786              	.LFB1095:
  87:TestTestMacros.cpp **** 
  88:TestTestMacros.cpp **** TEST(TestAddedWithTEST_EXMacroGetsDefaultSuite)
 2787              		.loc 6 88 0
 2788              		.cfi_startproc
 2789 1042 55       		pushq	%rbp
 2790              		.cfi_def_cfa_offset 16
 2791              		.cfi_offset 6, -16
 2792 1043 4889E5   		movq	%rsp, %rbp
 2793              		.cfi_def_cfa_register 6
 2794 1046 4883EC10 		subq	$16, %rsp
 2795 104a 48897DF8 		movq	%rdi, -8(%rbp)
 2796              	.LBB61:
 2797              		.loc 6 88 0
 2798 104e E8000000 		call	_ZN13UnitTestSuite12GetSuiteNameEv
 2798      00
 2799 1053 4889C2   		movq	%rax, %rdx
 2800 1056 488B45F8 		movq	-8(%rbp), %rax
 2801 105a 41B85800 		movl	$88, %r8d
 2801      0000
 2802 1060 B9000000 		movl	$.LC2, %ecx
 2802      00
 2803 1065 BE000000 		movl	$.LC31, %esi
 2803      00
 2804 106a 4889C7   		movq	%rax, %rdi
 2805 106d E8000000 		call	_ZN8UnitTest4TestC2EPKcS2_S2_i
 2805      00
 2806 1072 488B45F8 		movq	-8(%rbp), %rax
 2807 1076 48C70000 		movq	$_ZTVN12_GLOBAL__N_145TestTestAddedWithTEST_EXMacroGetsDefaultSuiteE+16, (%rax)
 2807      000000
 2808              	.LBE61:
 2809 107d C9       		leave
 2810              		.cfi_def_cfa 7, 8
 2811 107e C3       		ret
 2812              		.cfi_endproc
 2813              	.LFE1095:
 2815              		.set	_ZN12_GLOBAL__N_145TestTestAddedWithTEST_EXMacroGetsDefaultSuiteC1Ev,_ZN12_GLOBAL__N_145TestT
 2816              		.local	_ZN12_GLOBAL__N_153testTestAddedWithTEST_EXMacroGetsDefaultSuiteInstanceE
 2817              		.comm	_ZN12_GLOBAL__N_153testTestAddedWithTEST_EXMacroGetsDefaultSuiteInstanceE,56,32
 2818              		.local	_ZN12_GLOBAL__N_146adderTestAddedWithTEST_EXMacroGetsDefaultSuiteE
 2819              		.comm	_ZN12_GLOBAL__N_146adderTestAddedWithTEST_EXMacroGetsDefaultSuiteE,1,1
 2820              		.section	.rodata
 2821 04ba 00000000 		.align 8
 2821      0000
 2822              	.LC32:
 2823 04c0 6D616372 		.string	"macroTestList1.GetHead() != NULL"
 2823      6F546573 
 2823      744C6973 
 2823      74312E47 
 2823      65744865 
 2824 04e1 00000000 		.align 8
 2824      000000
 2825              	.LC33:
 2826 04e8 556E6861 		.string	"Unhandled exception in CHECK(macroTestList1.GetHead() != NULL)"
 2826      6E646C65 
 2826      64206578 
 2826      63657074 
 2826      696F6E20 
 2827 0527 00       		.align 8
 2828              	.LC34:
 2829 0528 556E6861 		.string	"Unhandled exception in CHECK_EQUAL(\"MacroTestHelper1\", macroTestList1.GetHead()->m_deta
 2829      6E646C65 
 2829      64206578 
 2829      63657074 
 2829      696F6E20 
 2830 058d 000000   		.align 8
 2831              	.LC35:
 2832 0590 556E6861 		.string	"Unhandled exception in CHECK_EQUAL(\"DefaultSuite\", macroTestList1.GetHead()->m_details.
 2832      6E646C65 
 2832      64206578 
 2832      63657074 
 2832      696F6E20 
 2833              		.text
 2834 107f 90       		.align 2
 2836              	_ZNK12_GLOBAL__N_145TestTestAddedWithTEST_EXMacroGetsDefaultSuite7RunImplEv:
 2837              	.LFB1097:
  89:TestTestMacros.cpp **** {
 2838              		.loc 6 89 0
 2839              		.cfi_startproc
 2840              		.cfi_personality 0x3,__gxx_personality_v0
 2841              		.cfi_lsda 0x3,.LLSDA1097
 2842 1080 55       		pushq	%rbp
 2843              		.cfi_def_cfa_offset 16
 2844              		.cfi_offset 6, -16
 2845 1081 4889E5   		movq	%rsp, %rbp
 2846              		.cfi_def_cfa_register 6
 2847 1084 53       		pushq	%rbx
 2848 1085 4883EC38 		subq	$56, %rsp
 2849              		.cfi_offset 3, -24
 2850 1089 48897DC8 		movq	%rdi, -56(%rbp)
  90:TestTestMacros.cpp ****     CHECK(macroTestList1.GetHead() != NULL);
 2851              		.loc 6 90 0
 2852 108d BF000000 		movl	$_ZN12_GLOBAL__N_114macroTestList1E, %edi
 2852      00
 2853              	.LEHB56:
 2854 1092 E8000000 		call	_ZNK8UnitTest8TestList7GetHeadEv
 2854      00
 2855 1097 4885C0   		testq	%rax, %rax
 2856 109a 0F95C0   		setne	%al
 2857 109d 0FB6C0   		movzbl	%al, %eax
 2858 10a0 89C7     		movl	%eax, %edi
 2859 10a2 E8000000 		call	_ZN8UnitTest5CheckIbEEbT_
 2859      00
 2860 10a7 83F001   		xorl	$1, %eax
 2861 10aa 84C0     		testb	%al, %al
 2862 10ac 7438     		je	.L137
 2863              		.loc 6 90 0 is_stmt 0 discriminator 1
 2864 10ae E8000000 		call	_ZN8UnitTest11CurrentTest7DetailsEv
 2864      00
 2865 10b3 488B08   		movq	(%rax), %rcx
 2866 10b6 488D45D0 		leaq	-48(%rbp), %rax
 2867 10ba BA5A0000 		movl	$90, %edx
 2867      00
 2868 10bf 4889CE   		movq	%rcx, %rsi
 2869 10c2 4889C7   		movq	%rax, %rdi
 2870 10c5 E8000000 		call	_ZN8UnitTest11TestDetailsC1ERKS0_i
 2870      00
 2871 10ca E8000000 		call	_ZN8UnitTest11CurrentTest7ResultsEv
 2871      00
 2872 10cf 488B00   		movq	(%rax), %rax
 2873 10d2 488D4DD0 		leaq	-48(%rbp), %rcx
 2874 10d6 BA000000 		movl	$.LC32, %edx
 2874      00
 2875 10db 4889CE   		movq	%rcx, %rsi
 2876 10de 4889C7   		movq	%rax, %rdi
 2877 10e1 E8000000 		call	_ZN8UnitTest11TestResults13OnTestFailureERKNS_11TestDetailsEPKc
 2877      00
 2878              	.LEHE56:
 2879              	.L137:
 2880              	.LEHB57:
  91:TestTestMacros.cpp ****     CHECK_EQUAL ("MacroTestHelper1", macroTestList1.GetHead()->m_details.testName);
 2881              		.loc 6 91 0 is_stmt 1
 2882 10e6 E8000000 		call	_ZN8UnitTest11CurrentTest7DetailsEv
 2882      00
 2883 10eb 488B08   		movq	(%rax), %rcx
 2884 10ee 488D45D0 		leaq	-48(%rbp), %rax
 2885 10f2 BA5B0000 		movl	$91, %edx
 2885      00
 2886 10f7 4889CE   		movq	%rcx, %rsi
 2887 10fa 4889C7   		movq	%rax, %rdi
 2888 10fd E8000000 		call	_ZN8UnitTest11TestDetailsC1ERKS0_i
 2888      00
 2889              		.loc 6 91 0 is_stmt 0 discriminator 1
 2890 1102 BF000000 		movl	$_ZN12_GLOBAL__N_114macroTestList1E, %edi
 2890      00
 2891 1107 E8000000 		call	_ZNK8UnitTest8TestList7GetHeadEv
 2891      00
 2892 110c 488B5810 		movq	16(%rax), %rbx
 2893 1110 E8000000 		call	_ZN8UnitTest11CurrentTest7ResultsEv
 2893      00
 2894 1115 488B00   		movq	(%rax), %rax
 2895 1118 488D55D0 		leaq	-48(%rbp), %rdx
 2896 111c 4889D1   		movq	%rdx, %rcx
 2897 111f 4889DA   		movq	%rbx, %rdx
 2898 1122 BE000000 		movl	$.LC30, %esi
 2898      00
 2899 1127 4889C7   		movq	%rax, %rdi
 2900 112a E8000000 		call	_ZN8UnitTest10CheckEqualERNS_11TestResultsEPKcS3_RKNS_11TestDetailsE
 2900      00
 2901              	.LEHE57:
 2902              	.L142:
 2903              	.LEHB58:
  92:TestTestMacros.cpp ****     CHECK_EQUAL ("DefaultSuite", macroTestList1.GetHead()->m_details.suiteName);
 2904              		.loc 6 92 0 is_stmt 1
 2905 112f E8000000 		call	_ZN8UnitTest11CurrentTest7DetailsEv
 2905      00
 2906 1134 488B08   		movq	(%rax), %rcx
 2907 1137 488D45D0 		leaq	-48(%rbp), %rax
 2908 113b BA5C0000 		movl	$92, %edx
 2908      00
 2909 1140 4889CE   		movq	%rcx, %rsi
 2910 1143 4889C7   		movq	%rax, %rdi
 2911 1146 E8000000 		call	_ZN8UnitTest11TestDetailsC1ERKS0_i
 2911      00
 2912              		.loc 6 92 0 is_stmt 0 discriminator 1
 2913 114b BF000000 		movl	$_ZN12_GLOBAL__N_114macroTestList1E, %edi
 2913      00
 2914 1150 E8000000 		call	_ZNK8UnitTest8TestList7GetHeadEv
 2914      00
 2915 1155 488B5808 		movq	8(%rax), %rbx
 2916 1159 E8000000 		call	_ZN8UnitTest11CurrentTest7ResultsEv
 2916      00
 2917 115e 488B00   		movq	(%rax), %rax
 2918 1161 488D55D0 		leaq	-48(%rbp), %rdx
 2919 1165 4889D1   		movq	%rdx, %rcx
 2920 1168 4889DA   		movq	%rbx, %rdx
 2921 116b BE000000 		movl	$.LC0, %esi
 2921      00
 2922 1170 4889C7   		movq	%rax, %rdi
 2923 1173 E8000000 		call	_ZN8UnitTest10CheckEqualERNS_11TestResultsEPKcS3_RKNS_11TestDetailsE
 2923      00
 2924              	.LEHE58:
  93:TestTestMacros.cpp **** }
 2925              		.loc 6 93 0 is_stmt 1
 2926 1178 E9120100 		jmp	.L152
 2926      00
 2927              	.L147:
 2928 117d 4889C3   		movq	%rax, %rbx
  90:TestTestMacros.cpp ****     CHECK_EQUAL ("MacroTestHelper1", macroTestList1.GetHead()->m_details.testName);
 2929              		.loc 6 90 0
 2930 1180 E8000000 		call	__cxa_end_catch
 2930      00
 2931 1185 4889D8   		movq	%rbx, %rax
 2932 1188 4889C7   		movq	%rax, %rdi
 2933              	.LEHB59:
 2934 118b E8000000 		call	_Unwind_Resume
 2934      00
 2935              	.LEHE59:
 2936              	.L146:
 2937 1190 4889C7   		movq	%rax, %rdi
 2938 1193 E8000000 		call	__cxa_begin_catch
 2938      00
 2939              	.LEHB60:
 2940 1198 E8000000 		call	_ZN8UnitTest11CurrentTest7DetailsEv
 2940      00
 2941 119d 488B08   		movq	(%rax), %rcx
 2942 11a0 488D45D0 		leaq	-48(%rbp), %rax
 2943 11a4 BA5A0000 		movl	$90, %edx
 2943      00
 2944 11a9 4889CE   		movq	%rcx, %rsi
 2945 11ac 4889C7   		movq	%rax, %rdi
 2946 11af E8000000 		call	_ZN8UnitTest11TestDetailsC1ERKS0_i
 2946      00
  90:TestTestMacros.cpp ****     CHECK_EQUAL ("MacroTestHelper1", macroTestList1.GetHead()->m_details.testName);
 2947              		.loc 6 90 0 is_stmt 0 discriminator 1
 2948 11b4 E8000000 		call	_ZN8UnitTest11CurrentTest7ResultsEv
 2948      00
 2949 11b9 488B00   		movq	(%rax), %rax
 2950 11bc 488D4DD0 		leaq	-48(%rbp), %rcx
 2951 11c0 BA000000 		movl	$.LC33, %edx
 2951      00
 2952 11c5 4889CE   		movq	%rcx, %rsi
 2953 11c8 4889C7   		movq	%rax, %rdi
 2954 11cb E8000000 		call	_ZN8UnitTest11TestResults13OnTestFailureERKNS_11TestDetailsEPKc
 2954      00
 2955              	.LEHE60:
 2956              	.LEHB61:
 2957 11d0 E8000000 		call	__cxa_end_catch
 2957      00
 2958              	.LEHE61:
 2959 11d5 E90CFFFF 		jmp	.L137
 2959      FF
 2960              	.L149:
 2961 11da 4889C3   		movq	%rax, %rbx
  91:TestTestMacros.cpp ****     CHECK_EQUAL ("DefaultSuite", macroTestList1.GetHead()->m_details.suiteName);
 2962              		.loc 6 91 0 is_stmt 1
 2963 11dd E8000000 		call	__cxa_end_catch
 2963      00
 2964 11e2 4889D8   		movq	%rbx, %rax
 2965 11e5 4889C7   		movq	%rax, %rdi
 2966              	.LEHB62:
 2967 11e8 E8000000 		call	_Unwind_Resume
 2967      00
 2968              	.LEHE62:
 2969              	.L148:
 2970 11ed 4889C7   		movq	%rax, %rdi
 2971 11f0 E8000000 		call	__cxa_begin_catch
 2971      00
 2972              	.LEHB63:
 2973 11f5 E8000000 		call	_ZN8UnitTest11CurrentTest7DetailsEv
 2973      00
 2974 11fa 488B08   		movq	(%rax), %rcx
 2975 11fd 488D45D0 		leaq	-48(%rbp), %rax
 2976 1201 BA5B0000 		movl	$91, %edx
 2976      00
 2977 1206 4889CE   		movq	%rcx, %rsi
 2978 1209 4889C7   		movq	%rax, %rdi
 2979 120c E8000000 		call	_ZN8UnitTest11TestDetailsC1ERKS0_i
 2979      00
  91:TestTestMacros.cpp ****     CHECK_EQUAL ("DefaultSuite", macroTestList1.GetHead()->m_details.suiteName);
 2980              		.loc 6 91 0 is_stmt 0 discriminator 1
 2981 1211 E8000000 		call	_ZN8UnitTest11CurrentTest7ResultsEv
 2981      00
 2982 1216 488B00   		movq	(%rax), %rax
 2983 1219 488D4DD0 		leaq	-48(%rbp), %rcx
 2984 121d BA000000 		movl	$.LC34, %edx
 2984      00
 2985 1222 4889CE   		movq	%rcx, %rsi
 2986 1225 4889C7   		movq	%rax, %rdi
 2987 1228 E8000000 		call	_ZN8UnitTest11TestResults13OnTestFailureERKNS_11TestDetailsEPKc
 2987      00
 2988              	.LEHE63:
 2989              	.LEHB64:
 2990 122d E8000000 		call	__cxa_end_catch
 2990      00
 2991              	.LEHE64:
 2992 1232 E9F8FEFF 		jmp	.L142
 2992      FF
 2993              	.L151:
 2994 1237 4889C3   		movq	%rax, %rbx
  92:TestTestMacros.cpp **** }
 2995              		.loc 6 92 0 is_stmt 1
 2996 123a E8000000 		call	__cxa_end_catch
 2996      00
 2997 123f 4889D8   		movq	%rbx, %rax
 2998 1242 4889C7   		movq	%rax, %rdi
 2999              	.LEHB65:
 3000 1245 E8000000 		call	_Unwind_Resume
 3000      00
 3001              	.LEHE65:
 3002              	.L150:
 3003 124a 4889C7   		movq	%rax, %rdi
 3004 124d E8000000 		call	__cxa_begin_catch
 3004      00
 3005              	.LEHB66:
 3006 1252 E8000000 		call	_ZN8UnitTest11CurrentTest7DetailsEv
 3006      00
 3007 1257 488B08   		movq	(%rax), %rcx
 3008 125a 488D45D0 		leaq	-48(%rbp), %rax
 3009 125e BA5C0000 		movl	$92, %edx
 3009      00
 3010 1263 4889CE   		movq	%rcx, %rsi
 3011 1266 4889C7   		movq	%rax, %rdi
 3012 1269 E8000000 		call	_ZN8UnitTest11TestDetailsC1ERKS0_i
 3012      00
  92:TestTestMacros.cpp **** }
 3013              		.loc 6 92 0 is_stmt 0 discriminator 1
 3014 126e E8000000 		call	_ZN8UnitTest11CurrentTest7ResultsEv
 3014      00
 3015 1273 488B00   		movq	(%rax), %rax
 3016 1276 488D4DD0 		leaq	-48(%rbp), %rcx
 3017 127a BA000000 		movl	$.LC35, %edx
 3017      00
 3018 127f 4889CE   		movq	%rcx, %rsi
 3019 1282 4889C7   		movq	%rax, %rdi
 3020 1285 E8000000 		call	_ZN8UnitTest11TestResults13OnTestFailureERKNS_11TestDetailsEPKc
 3020      00
 3021              	.LEHE66:
 3022              	.LEHB67:
 3023 128a E8000000 		call	__cxa_end_catch
 3023      00
 3024              	.LEHE67:
 3025              	.L152:
 3026              		.loc 6 93 0 is_stmt 1
 3027 128f 90       		nop
 3028 1290 4883C438 		addq	$56, %rsp
 3029 1294 5B       		popq	%rbx
 3030 1295 5D       		popq	%rbp
 3031              		.cfi_def_cfa 7, 8
 3032 1296 C3       		ret
 3033              		.cfi_endproc
 3034              	.LFE1097:
 3035              		.section	.gcc_except_table
 3036              		.align 4
 3037              	.LLSDA1097:
 3038 0178 FF       		.byte	0xff
 3039 0179 03       		.byte	0x3
 3040 017a 49       		.uleb128 .LLSDATT1097-.LLSDATTD1097
 3041              	.LLSDATTD1097:
 3042 017b 01       		.byte	0x1
 3043 017c 40       		.uleb128 .LLSDACSE1097-.LLSDACSB1097
 3044              	.LLSDACSB1097:
 3045 017d 12       		.uleb128 .LEHB56-.LFB1097
 3046 017e 54       		.uleb128 .LEHE56-.LEHB56
 3047 017f 9002     		.uleb128 .L146-.LFB1097
 3048 0181 01       		.uleb128 0x1
 3049 0182 66       		.uleb128 .LEHB57-.LFB1097
 3050 0183 49       		.uleb128 .LEHE57-.LEHB57
 3051 0184 ED02     		.uleb128 .L148-.LFB1097
 3052 0186 01       		.uleb128 0x1
 3053 0187 AF01     		.uleb128 .LEHB58-.LFB1097
 3054 0189 49       		.uleb128 .LEHE58-.LEHB58
 3055 018a CA03     		.uleb128 .L150-.LFB1097
 3056 018c 01       		.uleb128 0x1
 3057 018d 8B02     		.uleb128 .LEHB59-.LFB1097
 3058 018f 05       		.uleb128 .LEHE59-.LEHB59
 3059 0190 00       		.uleb128 0
 3060 0191 00       		.uleb128 0
 3061 0192 9802     		.uleb128 .LEHB60-.LFB1097
 3062 0194 38       		.uleb128 .LEHE60-.LEHB60
 3063 0195 FD01     		.uleb128 .L147-.LFB1097
 3064 0197 00       		.uleb128 0
 3065 0198 D002     		.uleb128 .LEHB61-.LFB1097
 3066 019a 05       		.uleb128 .LEHE61-.LEHB61
 3067 019b 00       		.uleb128 0
 3068 019c 00       		.uleb128 0
 3069 019d E802     		.uleb128 .LEHB62-.LFB1097
 3070 019f 05       		.uleb128 .LEHE62-.LEHB62
 3071 01a0 00       		.uleb128 0
 3072 01a1 00       		.uleb128 0
 3073 01a2 F502     		.uleb128 .LEHB63-.LFB1097
 3074 01a4 38       		.uleb128 .LEHE63-.LEHB63
 3075 01a5 DA02     		.uleb128 .L149-.LFB1097
 3076 01a7 00       		.uleb128 0
 3077 01a8 AD03     		.uleb128 .LEHB64-.LFB1097
 3078 01aa 05       		.uleb128 .LEHE64-.LEHB64
 3079 01ab 00       		.uleb128 0
 3080 01ac 00       		.uleb128 0
 3081 01ad C503     		.uleb128 .LEHB65-.LFB1097
 3082 01af 05       		.uleb128 .LEHE65-.LEHB65
 3083 01b0 00       		.uleb128 0
 3084 01b1 00       		.uleb128 0
 3085 01b2 D203     		.uleb128 .LEHB66-.LFB1097
 3086 01b4 38       		.uleb128 .LEHE66-.LEHB66
 3087 01b5 B703     		.uleb128 .L151-.LFB1097
 3088 01b7 00       		.uleb128 0
 3089 01b8 8A04     		.uleb128 .LEHB67-.LFB1097
 3090 01ba 05       		.uleb128 .LEHE67-.LEHB67
 3091 01bb 00       		.uleb128 0
 3092 01bc 00       		.uleb128 0
 3093              	.LLSDACSE1097:
 3094 01bd 01       		.byte	0x1
 3095 01be 00       		.byte	0
 3096 01bf 00       		.align 4
 3097 01c0 00000000 		.long	0
 3098              	
 3099              	.LLSDATT1097:
 3100              		.text
 3102              		.local	_ZN12_GLOBAL__N_114macroTestList2E
 3103              		.comm	_ZN12_GLOBAL__N_114macroTestList2E,16,16
 3104 1297 90       		.align 2
 3106              	_ZN12_GLOBAL__N_134DummyFixtureMacroTestHelper2HelperC2ERKN8UnitTest11TestDetailsE:
 3107              	.LFB1099:
  94:TestTestMacros.cpp **** 
  95:TestTestMacros.cpp **** TestList macroTestList2;
  96:TestTestMacros.cpp **** TEST_FIXTURE_EX(DummyFixture, MacroTestHelper2, macroTestList2)
 3108              		.loc 6 96 0
 3109              		.cfi_startproc
 3110 1298 55       		pushq	%rbp
 3111              		.cfi_def_cfa_offset 16
 3112              		.cfi_offset 6, -16
 3113 1299 4889E5   		movq	%rsp, %rbp
 3114              		.cfi_def_cfa_register 6
 3115 129c 4883EC10 		subq	$16, %rsp
 3116 12a0 48897DF8 		movq	%rdi, -8(%rbp)
 3117 12a4 488975F0 		movq	%rsi, -16(%rbp)
 3118              	.LBB62:
 3119              		.loc 6 96 0
 3120 12a8 488B45F8 		movq	-8(%rbp), %rax
 3121 12ac 4889C7   		movq	%rax, %rdi
 3122 12af E898F6FF 		call	_ZN12_GLOBAL__N_112DummyFixtureC2Ev
 3122      FF
 3123 12b4 488B45F8 		movq	-8(%rbp), %rax
 3124 12b8 488B55F0 		movq	-16(%rbp), %rdx
 3125 12bc 48895008 		movq	%rdx, 8(%rax)
 3126              	.LBE62:
 3127 12c0 C9       		leave
 3128              		.cfi_def_cfa 7, 8
 3129 12c1 C3       		ret
 3130              		.cfi_endproc
 3131              	.LFE1099:
 3133              		.set	_ZN12_GLOBAL__N_134DummyFixtureMacroTestHelper2HelperC1ERKN8UnitTest11TestDetailsE,_ZN12_GLOB
 3134              		.section	.rodata
 3135              	.LC36:
 3136 05f2 4D616372 		.string	"MacroTestHelper2"
 3136      6F546573 
 3136      7448656C 
 3136      70657232 
 3136      00
 3137              		.text
 3138              		.align 2
 3140              	_ZN12_GLOBAL__N_132TestDummyFixtureMacroTestHelper2C2Ev:
 3141              	.LFB1102:
 3142              		.loc 6 96 0
 3143              		.cfi_startproc
 3144 12c2 55       		pushq	%rbp
 3145              		.cfi_def_cfa_offset 16
 3146              		.cfi_offset 6, -16
 3147 12c3 4889E5   		movq	%rsp, %rbp
 3148              		.cfi_def_cfa_register 6
 3149 12c6 4883EC10 		subq	$16, %rsp
 3150 12ca 48897DF8 		movq	%rdi, -8(%rbp)
 3151              	.LBB63:
 3152              		.loc 6 96 0
 3153 12ce E8000000 		call	_ZN13UnitTestSuite12GetSuiteNameEv
 3153      00
 3154 12d3 4889C2   		movq	%rax, %rdx
 3155 12d6 488B45F8 		movq	-8(%rbp), %rax
 3156 12da 41B86000 		movl	$96, %r8d
 3156      0000
 3157 12e0 B9000000 		movl	$.LC2, %ecx
 3157      00
 3158 12e5 BE000000 		movl	$.LC36, %esi
 3158      00
 3159 12ea 4889C7   		movq	%rax, %rdi
 3160 12ed E8000000 		call	_ZN8UnitTest4TestC2EPKcS2_S2_i
 3160      00
 3161 12f2 488B45F8 		movq	-8(%rbp), %rax
 3162 12f6 48C70000 		movq	$_ZTVN12_GLOBAL__N_132TestDummyFixtureMacroTestHelper2E+16, (%rax)
 3162      000000
 3163              	.LBE63:
 3164 12fd C9       		leave
 3165              		.cfi_def_cfa 7, 8
 3166 12fe C3       		ret
 3167              		.cfi_endproc
 3168              	.LFE1102:
 3170              		.set	_ZN12_GLOBAL__N_132TestDummyFixtureMacroTestHelper2C1Ev,_ZN12_GLOBAL__N_132TestDummyFixtureMa
 3171              		.local	_ZN12_GLOBAL__N_140testDummyFixtureMacroTestHelper2InstanceE
 3172              		.comm	_ZN12_GLOBAL__N_140testDummyFixtureMacroTestHelper2InstanceE,56,32
 3173              		.local	_ZN12_GLOBAL__N_133adderDummyFixtureMacroTestHelper2E
 3174              		.comm	_ZN12_GLOBAL__N_133adderDummyFixtureMacroTestHelper2E,1,1
 3175 12ff 90       		.align 2
 3177              	_ZNK12_GLOBAL__N_132TestDummyFixtureMacroTestHelper27RunImplEv:
 3178              	.LFB1104:
 3179              		.loc 6 96 0
 3180              		.cfi_startproc
 3181              		.cfi_personality 0x3,__gxx_personality_v0
 3182              		.cfi_lsda 0x3,.LLSDA1104
 3183 1300 55       		pushq	%rbp
 3184              		.cfi_def_cfa_offset 16
 3185              		.cfi_offset 6, -16
 3186 1301 4889E5   		movq	%rsp, %rbp
 3187              		.cfi_def_cfa_register 6
 3188 1304 4154     		pushq	%r12
 3189 1306 53       		pushq	%rbx
 3190 1307 4881ECA0 		subq	$416, %rsp
 3190      010000
 3191              		.cfi_offset 12, -24
 3192              		.cfi_offset 3, -32
 3193 130e 4889BD58 		movq	%rdi, -424(%rbp)
 3193      FEFFFF
 3194              	.LBB64:
 3195              		.loc 6 96 0
 3196 1315 C6856FFE 		movb	$0, -401(%rbp)
 3196      FFFF00
 3197              	.LBB65:
 3198 131c 488B8558 		movq	-424(%rbp), %rax
 3198      FEFFFF
 3199 1323 488D5008 		leaq	8(%rax), %rdx
 3200 1327 488D8580 		leaq	-384(%rbp), %rax
 3200      FEFFFF
 3201 132e 4889D6   		movq	%rdx, %rsi
 3202 1331 4889C7   		movq	%rax, %rdi
 3203 1334 E85FFFFF 		call	_ZN12_GLOBAL__N_134DummyFixtureMacroTestHelper2HelperC1ERKN8UnitTest11TestDetailsE
 3203      FF
 3204 1339 C6856FFE 		movb	$1, -401(%rbp)
 3204      FFFF01
 3205 1340 488B8558 		movq	-424(%rbp), %rax
 3205      FEFFFF
 3206 1347 488D5008 		leaq	8(%rax), %rdx
 3207 134b 488D8580 		leaq	-384(%rbp), %rax
 3207      FEFFFF
 3208 1352 4889D6   		movq	%rdx, %rsi
 3209 1355 4889C7   		movq	%rax, %rdi
 3210              	.LEHB68:
 3211 1358 E8D92100 		call	_ZN8UnitTest11ExecuteTestIN12_GLOBAL__N_134DummyFixtureMacroTestHelper2HelperEEEvRT_RKNS_11Te
 3211      00
 3212              	.LEHE68:
 3213              	.LBE65:
 3214              	.LBE64:
 3215 135d E9470200 		jmp	.L173
 3215      00
 3216              	.L168:
 3217 1362 4889C3   		movq	%rax, %rbx
 3218              	.LBB72:
 3219              	.LBB66:
 3220 1365 E8000000 		call	__cxa_end_catch
 3220      00
 3221 136a 4889D8   		movq	%rbx, %rax
 3222 136d 4889C7   		movq	%rax, %rdi
 3223              	.LEHB69:
 3224 1370 E8000000 		call	_Unwind_Resume
 3224      00
 3225              	.LEHE69:
 3226              	.L169:
 3227 1375 4889C3   		movq	%rax, %rbx
 3228              	.LBE66:
 3229              	.LBB67:
 3230              	.LBB68:
 3231 1378 488D8580 		leaq	-384(%rbp), %rax
 3231      FEFFFF
 3232 137f 4889C7   		movq	%rax, %rdi
 3233 1382 E8000000 		call	_ZN8UnitTest15MemoryOutStreamD1Ev
 3233      00
 3234 1387 EB03     		jmp	.L158
 3235              	.L170:
 3236 1389 4889C3   		movq	%rax, %rbx
 3237              	.L158:
 3238              	.LBE68:
 3239 138c E8000000 		call	__cxa_end_catch
 3239      00
 3240 1391 4889D8   		movq	%rbx, %rax
 3241 1394 4889C7   		movq	%rax, %rdi
 3242              	.LEHB70:
 3243 1397 E8000000 		call	_Unwind_Resume
 3243      00
 3244              	.LEHE70:
 3245              	.L171:
 3246 139c 4889C3   		movq	%rax, %rbx
 3247              	.LBE67:
 3248 139f E8000000 		call	__cxa_end_catch
 3248      00
 3249 13a4 4889D8   		movq	%rbx, %rax
 3250 13a7 4889C7   		movq	%rax, %rdi
 3251              	.LEHB71:
 3252 13aa E8000000 		call	_Unwind_Resume
 3252      00
 3253              	.LEHE71:
 3254              	.L167:
 3255 13af 4883FA01 		cmpq	$1, %rdx
 3256 13b3 740F     		je	.L162
 3257 13b5 4883FA02 		cmpq	$2, %rdx
 3258 13b9 0F84A700 		je	.L163
 3258      0000
 3259 13bf E94B0100 		jmp	.L172
 3259      00
 3260              	.L162:
 3261              	.LBB70:
 3262 13c4 4889C7   		movq	%rax, %rdi
 3263 13c7 E8000000 		call	__cxa_begin_catch
 3263      00
 3264 13cc 48898570 		movq	%rax, -400(%rbp)
 3264      FEFFFF
 3265 13d3 488B8570 		movq	-400(%rbp), %rax
 3265      FEFFFF
 3266 13da 488B00   		movq	(%rax), %rax
 3267 13dd 4883C010 		addq	$16, %rax
 3268 13e1 488B00   		movq	(%rax), %rax
 3269 13e4 488B9570 		movq	-400(%rbp), %rdx
 3269      FEFFFF
 3270 13eb 4889D7   		movq	%rdx, %rdi
 3271 13ee FFD0     		call	*%rax
 3272 13f0 4889C3   		movq	%rax, %rbx
 3273 13f3 488B8570 		movq	-400(%rbp), %rax
 3273      FEFFFF
 3274 13fa 4889C7   		movq	%rax, %rdi
 3275              	.LEHB72:
 3276 13fd E8000000 		call	_ZNK8UnitTest15AssertException10LineNumberEv
 3276      00
 3277 1402 4189C4   		movl	%eax, %r12d
 3278 1405 488B8570 		movq	-400(%rbp), %rax
 3278      FEFFFF
 3279 140c 4889C7   		movq	%rax, %rdi
 3280 140f E8000000 		call	_ZNK8UnitTest15AssertException8FilenameEv
 3280      00
 3281              		.loc 6 96 0 is_stmt 0 discriminator 1
 3282 1414 4889C1   		movq	%rax, %rcx
 3283 1417 488B8558 		movq	-424(%rbp), %rax
 3283      FEFFFF
 3284 141e 488B5008 		movq	8(%rax), %rdx
 3285 1422 488B8558 		movq	-424(%rbp), %rax
 3285      FEFFFF
 3286 1429 488B7010 		movq	16(%rax), %rsi
 3287 142d 488D8580 		leaq	-384(%rbp), %rax
 3287      FEFFFF
 3288 1434 4589E0   		movl	%r12d, %r8d
 3289 1437 4889C7   		movq	%rax, %rdi
 3290 143a E8000000 		call	_ZN8UnitTest11TestDetailsC1EPKcS2_S2_i
 3290      00
 3291              		.loc 6 96 0 discriminator 3
 3292 143f E8000000 		call	_ZN8UnitTest11CurrentTest7ResultsEv
 3292      00
 3293 1444 488B00   		movq	(%rax), %rax
 3294 1447 488D8D80 		leaq	-384(%rbp), %rcx
 3294      FEFFFF
 3295 144e 4889DA   		movq	%rbx, %rdx
 3296 1451 4889CE   		movq	%rcx, %rsi
 3297 1454 4889C7   		movq	%rax, %rdi
 3298 1457 E8000000 		call	_ZN8UnitTest11TestResults13OnTestFailureERKNS_11TestDetailsEPKc
 3298      00
 3299              	.LEHE72:
 3300              		.loc 6 96 0 discriminator 1
 3301 145c E8000000 		call	__cxa_end_catch
 3301      00
 3302              	.LBE70:
 3303              	.LBE72:
 3304 1461 E9430100 		jmp	.L173
 3304      00
 3305              	.L163:
 3306              	.LBB73:
 3307              	.LBB71:
 3308              		.loc 6 96 0
 3309 1466 4889C7   		movq	%rax, %rdi
 3310 1469 E8000000 		call	__cxa_begin_catch
 3310      00
 3311 146e 48898578 		movq	%rax, -392(%rbp)
 3311      FEFFFF
 3312              	.LBB69:
 3313 1475 488D8580 		leaq	-384(%rbp), %rax
 3313      FEFFFF
 3314 147c 4889C7   		movq	%rax, %rdi
 3315              	.LEHB73:
 3316 147f E8000000 		call	_ZN8UnitTest15MemoryOutStreamC1Ev
 3316      00
 3317              	.LEHE73:
 3318              		.loc 6 96 0 discriminator 1
 3319 1484 488B8578 		movq	-392(%rbp), %rax
 3319      FEFFFF
 3320 148b 488B00   		movq	(%rax), %rax
 3321 148e 4883C010 		addq	$16, %rax
 3322 1492 488B00   		movq	(%rax), %rax
 3323 1495 488B9578 		movq	-392(%rbp), %rdx
 3323      FEFFFF
 3324 149c 4889D7   		movq	%rdx, %rdi
 3325 149f FFD0     		call	*%rax
 3326 14a1 4889C3   		movq	%rax, %rbx
 3327 14a4 488D8580 		leaq	-384(%rbp), %rax
 3327      FEFFFF
 3328 14ab BE000000 		movl	$.LC11, %esi
 3328      00
 3329 14b0 4889C7   		movq	%rax, %rdi
 3330              	.LEHB74:
 3331 14b3 E8000000 		call	_ZStlsISt11char_traitsIcEERSt13basic_ostreamIcT_ES5_PKc
 3331      00
 3332 14b8 4889DE   		movq	%rbx, %rsi
 3333 14bb 4889C7   		movq	%rax, %rdi
 3334 14be E8000000 		call	_ZStlsISt11char_traitsIcEERSt13basic_ostreamIcT_ES5_PKc
 3334      00
 3335 14c3 488D8580 		leaq	-384(%rbp), %rax
 3335      FEFFFF
 3336 14ca 4889C7   		movq	%rax, %rdi
 3337 14cd E8000000 		call	_ZNK8UnitTest15MemoryOutStream7GetTextEv
 3337      00
 3338 14d2 4889C3   		movq	%rax, %rbx
 3339 14d5 488B8558 		movq	-424(%rbp), %rax
 3339      FEFFFF
 3340 14dc 4C8D6008 		leaq	8(%rax), %r12
 3341 14e0 E8000000 		call	_ZN8UnitTest11CurrentTest7ResultsEv
 3341      00
 3342 14e5 488B00   		movq	(%rax), %rax
 3343 14e8 4889DA   		movq	%rbx, %rdx
 3344 14eb 4C89E6   		movq	%r12, %rsi
 3345 14ee 4889C7   		movq	%rax, %rdi
 3346 14f1 E8000000 		call	_ZN8UnitTest11TestResults13OnTestFailureERKNS_11TestDetailsEPKc
 3346      00
 3347              	.LEHE74:
 3348 14f6 488D8580 		leaq	-384(%rbp), %rax
 3348      FEFFFF
 3349 14fd 4889C7   		movq	%rax, %rdi
 3350              	.LEHB75:
 3351 1500 E8000000 		call	_ZN8UnitTest15MemoryOutStreamD1Ev
 3351      00
 3352              	.LEHE75:
 3353              	.LBE69:
 3354              		.loc 6 96 0
 3355 1505 E8000000 		call	__cxa_end_catch
 3355      00
 3356              	.LBE71:
 3357              	.LBE73:
 3358 150a E99A0000 		jmp	.L173
 3358      00
 3359              	.L172:
 3360              	.LBB74:
 3361 150f 4889C7   		movq	%rax, %rdi
 3362 1512 E8000000 		call	__cxa_begin_catch
 3362      00
 3363 1517 80BD6FFE 		cmpb	$0, -401(%rbp)
 3363      FFFF00
 3364 151e 7443     		je	.L165
 3365              		.loc 6 96 0 discriminator 1
 3366 1520 488B8558 		movq	-424(%rbp), %rax
 3366      FEFFFF
 3367 1527 488D4808 		leaq	8(%rax), %rcx
 3368 152b 488D8580 		leaq	-384(%rbp), %rax
 3368      FEFFFF
 3369 1532 BA600000 		movl	$96, %edx
 3369      00
 3370 1537 4889CE   		movq	%rcx, %rsi
 3371 153a 4889C7   		movq	%rax, %rdi
 3372              	.LEHB76:
 3373 153d E8000000 		call	_ZN8UnitTest11TestDetailsC1ERKS0_i
 3373      00
 3374 1542 E8000000 		call	_ZN8UnitTest11CurrentTest7ResultsEv
 3374      00
 3375 1547 488B00   		movq	(%rax), %rax
 3376 154a 488D8D80 		leaq	-384(%rbp), %rcx
 3376      FEFFFF
 3377 1551 BA000000 		movl	$.LC27, %edx
 3377      00
 3378 1556 4889CE   		movq	%rcx, %rsi
 3379 1559 4889C7   		movq	%rax, %rdi
 3380 155c E8000000 		call	_ZN8UnitTest11TestResults13OnTestFailureERKNS_11TestDetailsEPKc
 3380      00
 3381 1561 EB41     		jmp	.L166
 3382              	.L165:
 3383              		.loc 6 96 0 discriminator 2
 3384 1563 488B8558 		movq	-424(%rbp), %rax
 3384      FEFFFF
 3385 156a 488D4808 		leaq	8(%rax), %rcx
 3386 156e 488D8580 		leaq	-384(%rbp), %rax
 3386      FEFFFF
 3387 1575 BA600000 		movl	$96, %edx
 3387      00
 3388 157a 4889CE   		movq	%rcx, %rsi
 3389 157d 4889C7   		movq	%rax, %rdi
 3390 1580 E8000000 		call	_ZN8UnitTest11TestDetailsC1ERKS0_i
 3390      00
 3391              		.loc 6 96 0 discriminator 1
 3392 1585 E8000000 		call	_ZN8UnitTest11CurrentTest7ResultsEv
 3392      00
 3393 158a 488B00   		movq	(%rax), %rax
 3394 158d 488D8D80 		leaq	-384(%rbp), %rcx
 3394      FEFFFF
 3395 1594 BA000000 		movl	$.LC28, %edx
 3395      00
 3396 1599 4889CE   		movq	%rcx, %rsi
 3397 159c 4889C7   		movq	%rax, %rdi
 3398 159f E8000000 		call	_ZN8UnitTest11TestResults13OnTestFailureERKNS_11TestDetailsEPKc
 3398      00
 3399              	.LEHE76:
 3400              	.L166:
 3401              	.LEHB77:
 3402 15a4 E8000000 		call	__cxa_end_catch
 3402      00
 3403              	.LEHE77:
 3404              	.L173:
 3405              	.LBE74:
 3406              		.loc 6 96 0
 3407 15a9 90       		nop
 3408 15aa 4881C4A0 		addq	$416, %rsp
 3408      010000
 3409 15b1 5B       		popq	%rbx
 3410 15b2 415C     		popq	%r12
 3411 15b4 5D       		popq	%rbp
 3412              		.cfi_def_cfa 7, 8
 3413 15b5 C3       		ret
 3414              		.cfi_endproc
 3415              	.LFE1104:
 3416              		.section	.gcc_except_table
 3417              		.align 4
 3418              	.LLSDA1104:
 3419 01c4 FF       		.byte	0xff
 3420 01c5 03       		.byte	0x3
 3421 01c6 49       		.uleb128 .LLSDATT1104-.LLSDATTD1104
 3422              	.LLSDATTD1104:
 3423 01c7 01       		.byte	0x1
 3424 01c8 34       		.uleb128 .LLSDACSE1104-.LLSDACSB1104
 3425              	.LLSDACSB1104:
 3426 01c9 58       		.uleb128 .LEHB68-.LFB1104
 3427 01ca 05       		.uleb128 .LEHE68-.LEHB68
 3428 01cb AF01     		.uleb128 .L167-.LFB1104
 3429 01cd 05       		.uleb128 0x5
 3430 01ce 70       		.uleb128 .LEHB69-.LFB1104
 3431 01cf 05       		.uleb128 .LEHE69-.LEHB69
 3432 01d0 00       		.uleb128 0
 3433 01d1 00       		.uleb128 0
 3434 01d2 9701     		.uleb128 .LEHB70-.LFB1104
 3435 01d4 05       		.uleb128 .LEHE70-.LEHB70
 3436 01d5 00       		.uleb128 0
 3437 01d6 00       		.uleb128 0
 3438 01d7 AA01     		.uleb128 .LEHB71-.LFB1104
 3439 01d9 05       		.uleb128 .LEHE71-.LEHB71
 3440 01da 00       		.uleb128 0
 3441 01db 00       		.uleb128 0
 3442 01dc FD01     		.uleb128 .LEHB72-.LFB1104
 3443 01de 5F       		.uleb128 .LEHE72-.LEHB72
 3444 01df 62       		.uleb128 .L168-.LFB1104
 3445 01e0 00       		.uleb128 0
 3446 01e1 FF02     		.uleb128 .LEHB73-.LFB1104
 3447 01e3 05       		.uleb128 .LEHE73-.LEHB73
 3448 01e4 8901     		.uleb128 .L170-.LFB1104
 3449 01e6 00       		.uleb128 0
 3450 01e7 B303     		.uleb128 .LEHB74-.LFB1104
 3451 01e9 43       		.uleb128 .LEHE74-.LEHB74
 3452 01ea 75       		.uleb128 .L169-.LFB1104
 3453 01eb 00       		.uleb128 0
 3454 01ec 8004     		.uleb128 .LEHB75-.LFB1104
 3455 01ee 05       		.uleb128 .LEHE75-.LEHB75
 3456 01ef 8901     		.uleb128 .L170-.LFB1104
 3457 01f1 00       		.uleb128 0
 3458 01f2 BD04     		.uleb128 .LEHB76-.LFB1104
 3459 01f4 67       		.uleb128 .LEHE76-.LEHB76
 3460 01f5 9C01     		.uleb128 .L171-.LFB1104
 3461 01f7 00       		.uleb128 0
 3462 01f8 A405     		.uleb128 .LEHB77-.LFB1104
 3463 01fa 05       		.uleb128 .LEHE77-.LEHB77
 3464 01fb 00       		.uleb128 0
 3465 01fc 00       		.uleb128 0
 3466              	.LLSDACSE1104:
 3467 01fd 03       		.byte	0x3
 3468 01fe 00       		.byte	0
 3469 01ff 02       		.byte	0x2
 3470 0200 7D       		.byte	0x7d
 3471 0201 01       		.byte	0x1
 3472 0202 7D       		.byte	0x7d
 3473 0203 00       		.align 4
 3474 0204 00000000 		.long	0
 3475              	
 3476 0208 00000000 		.long	_ZTISt9exception
 3477 020c 00000000 		.long	_ZTIN8UnitTest15AssertExceptionE
 3478              	.LLSDATT1104:
 3479              		.text
 3481              		.align 2
 3483              	_ZN12_GLOBAL__N_134DummyFixtureMacroTestHelper2Helper7RunImplEv:
 3484              	.LFB1105:
  97:TestTestMacros.cpp **** {
 3485              		.loc 6 97 0 is_stmt 1
 3486              		.cfi_startproc
 3487 15b6 55       		pushq	%rbp
 3488              		.cfi_def_cfa_offset 16
 3489              		.cfi_offset 6, -16
 3490 15b7 4889E5   		movq	%rsp, %rbp
 3491              		.cfi_def_cfa_register 6
 3492 15ba 48897DF8 		movq	%rdi, -8(%rbp)
  98:TestTestMacros.cpp **** }
 3493              		.loc 6 98 0
 3494 15be 5D       		popq	%rbp
 3495              		.cfi_def_cfa 7, 8
 3496 15bf C3       		ret
 3497              		.cfi_endproc
 3498              	.LFE1105:
 3500              		.section	.rodata
 3501 0603 00000000 		.align 8
 3501      00
 3502              	.LC37:
 3503 0608 54657374 		.string	"TestAddedWithTEST_FIXTURE_EXMacroGetsDefaultSuite"
 3503      41646465 
 3503      64576974 
 3503      68544553 
 3503      545F4649 
 3504              		.text
 3505              		.align 2
 3507              	_ZN12_GLOBAL__N_153TestTestAddedWithTEST_FIXTURE_EXMacroGetsDefaultSuiteC2Ev:
 3508              	.LFB1107:
  99:TestTestMacros.cpp **** 
 100:TestTestMacros.cpp **** TEST(TestAddedWithTEST_FIXTURE_EXMacroGetsDefaultSuite)
 3509              		.loc 6 100 0
 3510              		.cfi_startproc
 3511 15c0 55       		pushq	%rbp
 3512              		.cfi_def_cfa_offset 16
 3513              		.cfi_offset 6, -16
 3514 15c1 4889E5   		movq	%rsp, %rbp
 3515              		.cfi_def_cfa_register 6
 3516 15c4 4883EC10 		subq	$16, %rsp
 3517 15c8 48897DF8 		movq	%rdi, -8(%rbp)
 3518              	.LBB75:
 3519              		.loc 6 100 0
 3520 15cc E8000000 		call	_ZN13UnitTestSuite12GetSuiteNameEv
 3520      00
 3521 15d1 4889C2   		movq	%rax, %rdx
 3522 15d4 488B45F8 		movq	-8(%rbp), %rax
 3523 15d8 41B86400 		movl	$100, %r8d
 3523      0000
 3524 15de B9000000 		movl	$.LC2, %ecx
 3524      00
 3525 15e3 BE000000 		movl	$.LC37, %esi
 3525      00
 3526 15e8 4889C7   		movq	%rax, %rdi
 3527 15eb E8000000 		call	_ZN8UnitTest4TestC2EPKcS2_S2_i
 3527      00
 3528 15f0 488B45F8 		movq	-8(%rbp), %rax
 3529 15f4 48C70000 		movq	$_ZTVN12_GLOBAL__N_153TestTestAddedWithTEST_FIXTURE_EXMacroGetsDefaultSuiteE+16, (%rax)
 3529      000000
 3530              	.LBE75:
 3531 15fb C9       		leave
 3532              		.cfi_def_cfa 7, 8
 3533 15fc C3       		ret
 3534              		.cfi_endproc
 3535              	.LFE1107:
 3537              		.set	_ZN12_GLOBAL__N_153TestTestAddedWithTEST_FIXTURE_EXMacroGetsDefaultSuiteC1Ev,_ZN12_GLOBAL__N_
 3538              		.local	_ZN12_GLOBAL__N_161testTestAddedWithTEST_FIXTURE_EXMacroGetsDefaultSuiteInstanceE
 3539              		.comm	_ZN12_GLOBAL__N_161testTestAddedWithTEST_FIXTURE_EXMacroGetsDefaultSuiteInstanceE,56,32
 3540              		.local	_ZN12_GLOBAL__N_154adderTestAddedWithTEST_FIXTURE_EXMacroGetsDefaultSuiteE
 3541              		.comm	_ZN12_GLOBAL__N_154adderTestAddedWithTEST_FIXTURE_EXMacroGetsDefaultSuiteE,1,1
 3542              		.section	.rodata
 3543 063a 00000000 		.align 8
 3543      0000
 3544              	.LC38:
 3545 0640 6D616372 		.string	"macroTestList2.GetHead() != NULL"
 3545      6F546573 
 3545      744C6973 
 3545      74322E47 
 3545      65744865 
 3546 0661 00000000 		.align 8
 3546      000000
 3547              	.LC39:
 3548 0668 556E6861 		.string	"Unhandled exception in CHECK(macroTestList2.GetHead() != NULL)"
 3548      6E646C65 
 3548      64206578 
 3548      63657074 
 3548      696F6E20 
 3549 06a7 00       		.align 8
 3550              	.LC40:
 3551 06a8 556E6861 		.string	"Unhandled exception in CHECK_EQUAL(\"MacroTestHelper2\", macroTestList2.GetHead()->m_deta
 3551      6E646C65 
 3551      64206578 
 3551      63657074 
 3551      696F6E20 
 3552 070d 000000   		.align 8
 3553              	.LC41:
 3554 0710 556E6861 		.string	"Unhandled exception in CHECK_EQUAL(\"DefaultSuite\", macroTestList2.GetHead()->m_details.
 3554      6E646C65 
 3554      64206578 
 3554      63657074 
 3554      696F6E20 
 3555              		.text
 3556 15fd 90       		.align 2
 3558              	_ZNK12_GLOBAL__N_153TestTestAddedWithTEST_FIXTURE_EXMacroGetsDefaultSuite7RunImplEv:
 3559              	.LFB1109:
 101:TestTestMacros.cpp **** {
 3560              		.loc 6 101 0
 3561              		.cfi_startproc
 3562              		.cfi_personality 0x3,__gxx_personality_v0
 3563              		.cfi_lsda 0x3,.LLSDA1109
 3564 15fe 55       		pushq	%rbp
 3565              		.cfi_def_cfa_offset 16
 3566              		.cfi_offset 6, -16
 3567 15ff 4889E5   		movq	%rsp, %rbp
 3568              		.cfi_def_cfa_register 6
 3569 1602 53       		pushq	%rbx
 3570 1603 4883EC38 		subq	$56, %rsp
 3571              		.cfi_offset 3, -24
 3572 1607 48897DC8 		movq	%rdi, -56(%rbp)
 102:TestTestMacros.cpp ****     CHECK(macroTestList2.GetHead() != NULL);
 3573              		.loc 6 102 0
 3574 160b BF000000 		movl	$_ZN12_GLOBAL__N_114macroTestList2E, %edi
 3574      00
 3575              	.LEHB78:
 3576 1610 E8000000 		call	_ZNK8UnitTest8TestList7GetHeadEv
 3576      00
 3577 1615 4885C0   		testq	%rax, %rax
 3578 1618 0F95C0   		setne	%al
 3579 161b 0FB6C0   		movzbl	%al, %eax
 3580 161e 89C7     		movl	%eax, %edi
 3581 1620 E8000000 		call	_ZN8UnitTest5CheckIbEEbT_
 3581      00
 3582 1625 83F001   		xorl	$1, %eax
 3583 1628 84C0     		testb	%al, %al
 3584 162a 7438     		je	.L177
 3585              		.loc 6 102 0 is_stmt 0 discriminator 1
 3586 162c E8000000 		call	_ZN8UnitTest11CurrentTest7DetailsEv
 3586      00
 3587 1631 488B08   		movq	(%rax), %rcx
 3588 1634 488D45D0 		leaq	-48(%rbp), %rax
 3589 1638 BA660000 		movl	$102, %edx
 3589      00
 3590 163d 4889CE   		movq	%rcx, %rsi
 3591 1640 4889C7   		movq	%rax, %rdi
 3592 1643 E8000000 		call	_ZN8UnitTest11TestDetailsC1ERKS0_i
 3592      00
 3593 1648 E8000000 		call	_ZN8UnitTest11CurrentTest7ResultsEv
 3593      00
 3594 164d 488B00   		movq	(%rax), %rax
 3595 1650 488D4DD0 		leaq	-48(%rbp), %rcx
 3596 1654 BA000000 		movl	$.LC38, %edx
 3596      00
 3597 1659 4889CE   		movq	%rcx, %rsi
 3598 165c 4889C7   		movq	%rax, %rdi
 3599 165f E8000000 		call	_ZN8UnitTest11TestResults13OnTestFailureERKNS_11TestDetailsEPKc
 3599      00
 3600              	.LEHE78:
 3601              	.L177:
 3602              	.LEHB79:
 103:TestTestMacros.cpp ****     CHECK_EQUAL ("MacroTestHelper2", macroTestList2.GetHead()->m_details.testName);
 3603              		.loc 6 103 0 is_stmt 1
 3604 1664 E8000000 		call	_ZN8UnitTest11CurrentTest7DetailsEv
 3604      00
 3605 1669 488B08   		movq	(%rax), %rcx
 3606 166c 488D45D0 		leaq	-48(%rbp), %rax
 3607 1670 BA670000 		movl	$103, %edx
 3607      00
 3608 1675 4889CE   		movq	%rcx, %rsi
 3609 1678 4889C7   		movq	%rax, %rdi
 3610 167b E8000000 		call	_ZN8UnitTest11TestDetailsC1ERKS0_i
 3610      00
 3611              		.loc 6 103 0 is_stmt 0 discriminator 1
 3612 1680 BF000000 		movl	$_ZN12_GLOBAL__N_114macroTestList2E, %edi
 3612      00
 3613 1685 E8000000 		call	_ZNK8UnitTest8TestList7GetHeadEv
 3613      00
 3614 168a 488B5810 		movq	16(%rax), %rbx
 3615 168e E8000000 		call	_ZN8UnitTest11CurrentTest7ResultsEv
 3615      00
 3616 1693 488B00   		movq	(%rax), %rax
 3617 1696 488D55D0 		leaq	-48(%rbp), %rdx
 3618 169a 4889D1   		movq	%rdx, %rcx
 3619 169d 4889DA   		movq	%rbx, %rdx
 3620 16a0 BE000000 		movl	$.LC36, %esi
 3620      00
 3621 16a5 4889C7   		movq	%rax, %rdi
 3622 16a8 E8000000 		call	_ZN8UnitTest10CheckEqualERNS_11TestResultsEPKcS3_RKNS_11TestDetailsE
 3622      00
 3623              	.LEHE79:
 3624              	.L182:
 3625              	.LEHB80:
 104:TestTestMacros.cpp ****     CHECK_EQUAL ("DefaultSuite", macroTestList2.GetHead()->m_details.suiteName);
 3626              		.loc 6 104 0 is_stmt 1
 3627 16ad E8000000 		call	_ZN8UnitTest11CurrentTest7DetailsEv
 3627      00
 3628 16b2 488B08   		movq	(%rax), %rcx
 3629 16b5 488D45D0 		leaq	-48(%rbp), %rax
 3630 16b9 BA680000 		movl	$104, %edx
 3630      00
 3631 16be 4889CE   		movq	%rcx, %rsi
 3632 16c1 4889C7   		movq	%rax, %rdi
 3633 16c4 E8000000 		call	_ZN8UnitTest11TestDetailsC1ERKS0_i
 3633      00
 3634              		.loc 6 104 0 is_stmt 0 discriminator 1
 3635 16c9 BF000000 		movl	$_ZN12_GLOBAL__N_114macroTestList2E, %edi
 3635      00
 3636 16ce E8000000 		call	_ZNK8UnitTest8TestList7GetHeadEv
 3636      00
 3637 16d3 488B5808 		movq	8(%rax), %rbx
 3638 16d7 E8000000 		call	_ZN8UnitTest11CurrentTest7ResultsEv
 3638      00
 3639 16dc 488B00   		movq	(%rax), %rax
 3640 16df 488D55D0 		leaq	-48(%rbp), %rdx
 3641 16e3 4889D1   		movq	%rdx, %rcx
 3642 16e6 4889DA   		movq	%rbx, %rdx
 3643 16e9 BE000000 		movl	$.LC0, %esi
 3643      00
 3644 16ee 4889C7   		movq	%rax, %rdi
 3645 16f1 E8000000 		call	_ZN8UnitTest10CheckEqualERNS_11TestResultsEPKcS3_RKNS_11TestDetailsE
 3645      00
 3646              	.LEHE80:
 105:TestTestMacros.cpp **** }
 3647              		.loc 6 105 0 is_stmt 1
 3648 16f6 E9120100 		jmp	.L192
 3648      00
 3649              	.L187:
 3650 16fb 4889C3   		movq	%rax, %rbx
 102:TestTestMacros.cpp ****     CHECK_EQUAL ("MacroTestHelper2", macroTestList2.GetHead()->m_details.testName);
 3651              		.loc 6 102 0
 3652 16fe E8000000 		call	__cxa_end_catch
 3652      00
 3653 1703 4889D8   		movq	%rbx, %rax
 3654 1706 4889C7   		movq	%rax, %rdi
 3655              	.LEHB81:
 3656 1709 E8000000 		call	_Unwind_Resume
 3656      00
 3657              	.LEHE81:
 3658              	.L186:
 3659 170e 4889C7   		movq	%rax, %rdi
 3660 1711 E8000000 		call	__cxa_begin_catch
 3660      00
 3661              	.LEHB82:
 3662 1716 E8000000 		call	_ZN8UnitTest11CurrentTest7DetailsEv
 3662      00
 3663 171b 488B08   		movq	(%rax), %rcx
 3664 171e 488D45D0 		leaq	-48(%rbp), %rax
 3665 1722 BA660000 		movl	$102, %edx
 3665      00
 3666 1727 4889CE   		movq	%rcx, %rsi
 3667 172a 4889C7   		movq	%rax, %rdi
 3668 172d E8000000 		call	_ZN8UnitTest11TestDetailsC1ERKS0_i
 3668      00
 102:TestTestMacros.cpp ****     CHECK_EQUAL ("MacroTestHelper2", macroTestList2.GetHead()->m_details.testName);
 3669              		.loc 6 102 0 is_stmt 0 discriminator 1
 3670 1732 E8000000 		call	_ZN8UnitTest11CurrentTest7ResultsEv
 3670      00
 3671 1737 488B00   		movq	(%rax), %rax
 3672 173a 488D4DD0 		leaq	-48(%rbp), %rcx
 3673 173e BA000000 		movl	$.LC39, %edx
 3673      00
 3674 1743 4889CE   		movq	%rcx, %rsi
 3675 1746 4889C7   		movq	%rax, %rdi
 3676 1749 E8000000 		call	_ZN8UnitTest11TestResults13OnTestFailureERKNS_11TestDetailsEPKc
 3676      00
 3677              	.LEHE82:
 3678              	.LEHB83:
 3679 174e E8000000 		call	__cxa_end_catch
 3679      00
 3680              	.LEHE83:
 3681 1753 E90CFFFF 		jmp	.L177
 3681      FF
 3682              	.L189:
 3683 1758 4889C3   		movq	%rax, %rbx
 103:TestTestMacros.cpp ****     CHECK_EQUAL ("DefaultSuite", macroTestList2.GetHead()->m_details.suiteName);
 3684              		.loc 6 103 0 is_stmt 1
 3685 175b E8000000 		call	__cxa_end_catch
 3685      00
 3686 1760 4889D8   		movq	%rbx, %rax
 3687 1763 4889C7   		movq	%rax, %rdi
 3688              	.LEHB84:
 3689 1766 E8000000 		call	_Unwind_Resume
 3689      00
 3690              	.LEHE84:
 3691              	.L188:
 3692 176b 4889C7   		movq	%rax, %rdi
 3693 176e E8000000 		call	__cxa_begin_catch
 3693      00
 3694              	.LEHB85:
 3695 1773 E8000000 		call	_ZN8UnitTest11CurrentTest7DetailsEv
 3695      00
 3696 1778 488B08   		movq	(%rax), %rcx
 3697 177b 488D45D0 		leaq	-48(%rbp), %rax
 3698 177f BA670000 		movl	$103, %edx
 3698      00
 3699 1784 4889CE   		movq	%rcx, %rsi
 3700 1787 4889C7   		movq	%rax, %rdi
 3701 178a E8000000 		call	_ZN8UnitTest11TestDetailsC1ERKS0_i
 3701      00
 103:TestTestMacros.cpp ****     CHECK_EQUAL ("DefaultSuite", macroTestList2.GetHead()->m_details.suiteName);
 3702              		.loc 6 103 0 is_stmt 0 discriminator 1
 3703 178f E8000000 		call	_ZN8UnitTest11CurrentTest7ResultsEv
 3703      00
 3704 1794 488B00   		movq	(%rax), %rax
 3705 1797 488D4DD0 		leaq	-48(%rbp), %rcx
 3706 179b BA000000 		movl	$.LC40, %edx
 3706      00
 3707 17a0 4889CE   		movq	%rcx, %rsi
 3708 17a3 4889C7   		movq	%rax, %rdi
 3709 17a6 E8000000 		call	_ZN8UnitTest11TestResults13OnTestFailureERKNS_11TestDetailsEPKc
 3709      00
 3710              	.LEHE85:
 3711              	.LEHB86:
 3712 17ab E8000000 		call	__cxa_end_catch
 3712      00
 3713              	.LEHE86:
 3714 17b0 E9F8FEFF 		jmp	.L182
 3714      FF
 3715              	.L191:
 3716 17b5 4889C3   		movq	%rax, %rbx
 104:TestTestMacros.cpp **** }
 3717              		.loc 6 104 0 is_stmt 1
 3718 17b8 E8000000 		call	__cxa_end_catch
 3718      00
 3719 17bd 4889D8   		movq	%rbx, %rax
 3720 17c0 4889C7   		movq	%rax, %rdi
 3721              	.LEHB87:
 3722 17c3 E8000000 		call	_Unwind_Resume
 3722      00
 3723              	.LEHE87:
 3724              	.L190:
 3725 17c8 4889C7   		movq	%rax, %rdi
 3726 17cb E8000000 		call	__cxa_begin_catch
 3726      00
 3727              	.LEHB88:
 3728 17d0 E8000000 		call	_ZN8UnitTest11CurrentTest7DetailsEv
 3728      00
 3729 17d5 488B08   		movq	(%rax), %rcx
 3730 17d8 488D45D0 		leaq	-48(%rbp), %rax
 3731 17dc BA680000 		movl	$104, %edx
 3731      00
 3732 17e1 4889CE   		movq	%rcx, %rsi
 3733 17e4 4889C7   		movq	%rax, %rdi
 3734 17e7 E8000000 		call	_ZN8UnitTest11TestDetailsC1ERKS0_i
 3734      00
 104:TestTestMacros.cpp **** }
 3735              		.loc 6 104 0 is_stmt 0 discriminator 1
 3736 17ec E8000000 		call	_ZN8UnitTest11CurrentTest7ResultsEv
 3736      00
 3737 17f1 488B00   		movq	(%rax), %rax
 3738 17f4 488D4DD0 		leaq	-48(%rbp), %rcx
 3739 17f8 BA000000 		movl	$.LC41, %edx
 3739      00
 3740 17fd 4889CE   		movq	%rcx, %rsi
 3741 1800 4889C7   		movq	%rax, %rdi
 3742 1803 E8000000 		call	_ZN8UnitTest11TestResults13OnTestFailureERKNS_11TestDetailsEPKc
 3742      00
 3743              	.LEHE88:
 3744              	.LEHB89:
 3745 1808 E8000000 		call	__cxa_end_catch
 3745      00
 3746              	.LEHE89:
 3747              	.L192:
 3748              		.loc 6 105 0 is_stmt 1
 3749 180d 90       		nop
 3750 180e 4883C438 		addq	$56, %rsp
 3751 1812 5B       		popq	%rbx
 3752 1813 5D       		popq	%rbp
 3753              		.cfi_def_cfa 7, 8
 3754 1814 C3       		ret
 3755              		.cfi_endproc
 3756              	.LFE1109:
 3757              		.section	.gcc_except_table
 3758              		.align 4
 3759              	.LLSDA1109:
 3760 0210 FF       		.byte	0xff
 3761 0211 03       		.byte	0x3
 3762 0212 49       		.uleb128 .LLSDATT1109-.LLSDATTD1109
 3763              	.LLSDATTD1109:
 3764 0213 01       		.byte	0x1
 3765 0214 40       		.uleb128 .LLSDACSE1109-.LLSDACSB1109
 3766              	.LLSDACSB1109:
 3767 0215 12       		.uleb128 .LEHB78-.LFB1109
 3768 0216 54       		.uleb128 .LEHE78-.LEHB78
 3769 0217 9002     		.uleb128 .L186-.LFB1109
 3770 0219 01       		.uleb128 0x1
 3771 021a 66       		.uleb128 .LEHB79-.LFB1109
 3772 021b 49       		.uleb128 .LEHE79-.LEHB79
 3773 021c ED02     		.uleb128 .L188-.LFB1109
 3774 021e 01       		.uleb128 0x1
 3775 021f AF01     		.uleb128 .LEHB80-.LFB1109
 3776 0221 49       		.uleb128 .LEHE80-.LEHB80
 3777 0222 CA03     		.uleb128 .L190-.LFB1109
 3778 0224 01       		.uleb128 0x1
 3779 0225 8B02     		.uleb128 .LEHB81-.LFB1109
 3780 0227 05       		.uleb128 .LEHE81-.LEHB81
 3781 0228 00       		.uleb128 0
 3782 0229 00       		.uleb128 0
 3783 022a 9802     		.uleb128 .LEHB82-.LFB1109
 3784 022c 38       		.uleb128 .LEHE82-.LEHB82
 3785 022d FD01     		.uleb128 .L187-.LFB1109
 3786 022f 00       		.uleb128 0
 3787 0230 D002     		.uleb128 .LEHB83-.LFB1109
 3788 0232 05       		.uleb128 .LEHE83-.LEHB83
 3789 0233 00       		.uleb128 0
 3790 0234 00       		.uleb128 0
 3791 0235 E802     		.uleb128 .LEHB84-.LFB1109
 3792 0237 05       		.uleb128 .LEHE84-.LEHB84
 3793 0238 00       		.uleb128 0
 3794 0239 00       		.uleb128 0
 3795 023a F502     		.uleb128 .LEHB85-.LFB1109
 3796 023c 38       		.uleb128 .LEHE85-.LEHB85
 3797 023d DA02     		.uleb128 .L189-.LFB1109
 3798 023f 00       		.uleb128 0
 3799 0240 AD03     		.uleb128 .LEHB86-.LFB1109
 3800 0242 05       		.uleb128 .LEHE86-.LEHB86
 3801 0243 00       		.uleb128 0
 3802 0244 00       		.uleb128 0
 3803 0245 C503     		.uleb128 .LEHB87-.LFB1109
 3804 0247 05       		.uleb128 .LEHE87-.LEHB87
 3805 0248 00       		.uleb128 0
 3806 0249 00       		.uleb128 0
 3807 024a D203     		.uleb128 .LEHB88-.LFB1109
 3808 024c 38       		.uleb128 .LEHE88-.LEHB88
 3809 024d B703     		.uleb128 .L191-.LFB1109
 3810 024f 00       		.uleb128 0
 3811 0250 8A04     		.uleb128 .LEHB89-.LFB1109
 3812 0252 05       		.uleb128 .LEHE89-.LEHB89
 3813 0253 00       		.uleb128 0
 3814 0254 00       		.uleb128 0
 3815              	.LLSDACSE1109:
 3816 0255 01       		.byte	0x1
 3817 0256 00       		.byte	0
 3818 0257 00       		.align 4
 3819 0258 00000000 		.long	0
 3820              	
 3821              	.LLSDATT1109:
 3822              		.text
 3824              		.section	.rodata
 3825              	.LC42:
 3826 0772 65786365 		.string	"exception"
 3826      7074696F 
 3826      6E00
 3827              		.text
 3828 1815 90       		.align 2
 3830              	_ZN12_GLOBAL__N_117FixtureCtorThrowsC2Ev:
 3831              	.LFB1111:
 106:TestTestMacros.cpp **** 
 107:TestTestMacros.cpp **** struct FixtureCtorThrows
 108:TestTestMacros.cpp **** {
 109:TestTestMacros.cpp **** 	FixtureCtorThrows()	{ throw "exception"; }
 3832              		.loc 6 109 0
 3833              		.cfi_startproc
 3834 1816 55       		pushq	%rbp
 3835              		.cfi_def_cfa_offset 16
 3836              		.cfi_offset 6, -16
 3837 1817 4889E5   		movq	%rsp, %rbp
 3838              		.cfi_def_cfa_register 6
 3839 181a 4883EC10 		subq	$16, %rsp
 3840 181e 48897DF8 		movq	%rdi, -8(%rbp)
 3841              	.LBB76:
 3842              		.loc 6 109 0
 3843 1822 BF080000 		movl	$8, %edi
 3843      00
 3844 1827 E8000000 		call	__cxa_allocate_exception
 3844      00
 3845 182c 48C70000 		movq	$.LC42, (%rax)
 3845      000000
 3846 1833 BA000000 		movl	$0, %edx
 3846      00
 3847 1838 BE000000 		movl	$_ZTIPKc, %esi
 3847      00
 3848 183d 4889C7   		movq	%rax, %rdi
 3849 1840 E8000000 		call	__cxa_throw
 3849      00
 3850              	.LBE76:
 3851              		.cfi_endproc
 3852              	.LFE1111:
 3854              		.local	_ZN12_GLOBAL__N_124throwingFixtureTestList1E
 3855              		.comm	_ZN12_GLOBAL__N_124throwingFixtureTestList1E,16,16
 3856 1845 90       		.align 2
 3858              	_ZN12_GLOBAL__N_148FixtureCtorThrowsFixtureCtorThrowsTestNameHelperC2ERKN8UnitTest11TestDetailsE:
 3859              	.LFB1114:
 110:TestTestMacros.cpp **** };
 111:TestTestMacros.cpp **** 
 112:TestTestMacros.cpp **** TestList throwingFixtureTestList1;
 113:TestTestMacros.cpp **** TEST_FIXTURE_EX(FixtureCtorThrows, FixtureCtorThrowsTestName, throwingFixtureTestList1)
 3860              		.loc 6 113 0
 3861              		.cfi_startproc
 3862 1846 55       		pushq	%rbp
 3863              		.cfi_def_cfa_offset 16
 3864              		.cfi_offset 6, -16
 3865 1847 4889E5   		movq	%rsp, %rbp
 3866              		.cfi_def_cfa_register 6
 3867 184a 4883EC10 		subq	$16, %rsp
 3868 184e 48897DF8 		movq	%rdi, -8(%rbp)
 3869 1852 488975F0 		movq	%rsi, -16(%rbp)
 3870              	.LBB77:
 3871              		.loc 6 113 0
 3872 1856 488B45F8 		movq	-8(%rbp), %rax
 3873 185a 4889C7   		movq	%rax, %rdi
 3874 185d E8B4FFFF 		call	_ZN12_GLOBAL__N_117FixtureCtorThrowsC2Ev
 3874      FF
 3875 1862 488B45F8 		movq	-8(%rbp), %rax
 3876 1866 488B55F0 		movq	-16(%rbp), %rdx
 3877 186a 488910   		movq	%rdx, (%rax)
 3878              	.LBE77:
 3879 186d C9       		leave
 3880              		.cfi_def_cfa 7, 8
 3881 186e C3       		ret
 3882              		.cfi_endproc
 3883              	.LFE1114:
 3885              		.set	_ZN12_GLOBAL__N_148FixtureCtorThrowsFixtureCtorThrowsTestNameHelperC1ERKN8UnitTest11TestDetai
 3886              		.section	.rodata
 3887              	.LC43:
 3888 077c 46697874 		.string	"FixtureCtorThrowsTestName"
 3888      75726543 
 3888      746F7254 
 3888      68726F77 
 3888      73546573 
 3889              		.text
 3890 186f 90       		.align 2
 3892              	_ZN12_GLOBAL__N_146TestFixtureCtorThrowsFixtureCtorThrowsTestNameC2Ev:
 3893              	.LFB1117:
 3894              		.loc 6 113 0
 3895              		.cfi_startproc
 3896 1870 55       		pushq	%rbp
 3897              		.cfi_def_cfa_offset 16
 3898              		.cfi_offset 6, -16
 3899 1871 4889E5   		movq	%rsp, %rbp
 3900              		.cfi_def_cfa_register 6
 3901 1874 4883EC10 		subq	$16, %rsp
 3902 1878 48897DF8 		movq	%rdi, -8(%rbp)
 3903              	.LBB78:
 3904              		.loc 6 113 0
 3905 187c E8000000 		call	_ZN13UnitTestSuite12GetSuiteNameEv
 3905      00
 3906 1881 4889C2   		movq	%rax, %rdx
 3907 1884 488B45F8 		movq	-8(%rbp), %rax
 3908 1888 41B87100 		movl	$113, %r8d
 3908      0000
 3909 188e B9000000 		movl	$.LC2, %ecx
 3909      00
 3910 1893 BE000000 		movl	$.LC43, %esi
 3910      00
 3911 1898 4889C7   		movq	%rax, %rdi
 3912 189b E8000000 		call	_ZN8UnitTest4TestC2EPKcS2_S2_i
 3912      00
 3913 18a0 488B45F8 		movq	-8(%rbp), %rax
 3914 18a4 48C70000 		movq	$_ZTVN12_GLOBAL__N_146TestFixtureCtorThrowsFixtureCtorThrowsTestNameE+16, (%rax)
 3914      000000
 3915              	.LBE78:
 3916 18ab C9       		leave
 3917              		.cfi_def_cfa 7, 8
 3918 18ac C3       		ret
 3919              		.cfi_endproc
 3920              	.LFE1117:
 3922              		.set	_ZN12_GLOBAL__N_146TestFixtureCtorThrowsFixtureCtorThrowsTestNameC1Ev,_ZN12_GLOBAL__N_146Test
 3923              		.local	_ZN12_GLOBAL__N_154testFixtureCtorThrowsFixtureCtorThrowsTestNameInstanceE
 3924              		.comm	_ZN12_GLOBAL__N_154testFixtureCtorThrowsFixtureCtorThrowsTestNameInstanceE,56,32
 3925              		.local	_ZN12_GLOBAL__N_147adderFixtureCtorThrowsFixtureCtorThrowsTestNameE
 3926              		.comm	_ZN12_GLOBAL__N_147adderFixtureCtorThrowsFixtureCtorThrowsTestNameE,1,1
 3927              		.section	.rodata
 3928 0796 0000     		.align 8
 3929              	.LC44:
 3930 0798 556E6861 		.string	"Unhandled exception while destroying fixture FixtureCtorThrows"
 3930      6E646C65 
 3930      64206578 
 3930      63657074 
 3930      696F6E20 
 3931 07d7 00       		.align 8
 3932              	.LC45:
 3933 07d8 556E6861 		.string	"Unhandled exception while constructing fixture FixtureCtorThrows"
 3933      6E646C65 
 3933      64206578 
 3933      63657074 
 3933      696F6E20 
 3934              		.text
 3935 18ad 90       		.align 2
 3937              	_ZNK12_GLOBAL__N_146TestFixtureCtorThrowsFixtureCtorThrowsTestName7RunImplEv:
 3938              	.LFB1119:
 3939              		.loc 6 113 0
 3940              		.cfi_startproc
 3941              		.cfi_personality 0x3,__gxx_personality_v0
 3942              		.cfi_lsda 0x3,.LLSDA1119
 3943 18ae 55       		pushq	%rbp
 3944              		.cfi_def_cfa_offset 16
 3945              		.cfi_offset 6, -16
 3946 18af 4889E5   		movq	%rsp, %rbp
 3947              		.cfi_def_cfa_register 6
 3948 18b2 4154     		pushq	%r12
 3949 18b4 53       		pushq	%rbx
 3950 18b5 4881ECA0 		subq	$416, %rsp
 3950      010000
 3951              		.cfi_offset 12, -24
 3952              		.cfi_offset 3, -32
 3953 18bc 4889BD58 		movq	%rdi, -424(%rbp)
 3953      FEFFFF
 3954              	.LBB79:
 3955              		.loc 6 113 0
 3956 18c3 C6856FFE 		movb	$0, -401(%rbp)
 3956      FFFF00
 3957              	.LBB80:
 3958 18ca 488B8558 		movq	-424(%rbp), %rax
 3958      FEFFFF
 3959 18d1 488D5008 		leaq	8(%rax), %rdx
 3960 18d5 488D8580 		leaq	-384(%rbp), %rax
 3960      FEFFFF
 3961 18dc 4889D6   		movq	%rdx, %rsi
 3962 18df 4889C7   		movq	%rax, %rdi
 3963              	.LEHB90:
 3964 18e2 E85FFFFF 		call	_ZN12_GLOBAL__N_148FixtureCtorThrowsFixtureCtorThrowsTestNameHelperC1ERKN8UnitTest11TestDetai
 3964      FF
 3965              		.loc 6 113 0 is_stmt 0 discriminator 1
 3966 18e7 C6856FFE 		movb	$1, -401(%rbp)
 3966      FFFF01
 3967 18ee 488B8558 		movq	-424(%rbp), %rax
 3967      FEFFFF
 3968 18f5 488D5008 		leaq	8(%rax), %rdx
 3969 18f9 488D8580 		leaq	-384(%rbp), %rax
 3969      FEFFFF
 3970 1900 4889D6   		movq	%rdx, %rsi
 3971 1903 4889C7   		movq	%rax, %rdi
 3972 1906 E8C31E00 		call	_ZN8UnitTest11ExecuteTestIN12_GLOBAL__N_148FixtureCtorThrowsFixtureCtorThrowsTestNameHelperEE
 3972      00
 3973              	.LEHE90:
 3974              	.LBE80:
 3975              	.LBE79:
 3976              		.loc 6 113 0
 3977 190b E9470200 		jmp	.L214
 3977      00
 3978              	.L208:
 3979 1910 4883FA01 		cmpq	$1, %rdx
 3980 1914 745C     		je	.L199
 3981 1916 4883FA02 		cmpq	$2, %rdx
 3982 191a 0F84F400 		je	.L200
 3982      0000
 3983 1920 E9980100 		jmp	.L213
 3983      00
 3984              	.L209:
 3985 1925 4889C3   		movq	%rax, %rbx
 3986              	.LBB87:
 3987              	.LBB81:
 3988 1928 E8000000 		call	__cxa_end_catch
 3988      00
 3989 192d 4889D8   		movq	%rbx, %rax
 3990 1930 4889C7   		movq	%rax, %rdi
 3991              	.LEHB91:
 3992 1933 E8000000 		call	_Unwind_Resume
 3992      00
 3993              	.LEHE91:
 3994              	.L210:
 3995 1938 4889C3   		movq	%rax, %rbx
 3996              	.LBE81:
 3997              	.LBB82:
 3998              	.LBB83:
 3999 193b 488D8580 		leaq	-384(%rbp), %rax
 3999      FEFFFF
 4000 1942 4889C7   		movq	%rax, %rdi
 4001 1945 E8000000 		call	_ZN8UnitTest15MemoryOutStreamD1Ev
 4001      00
 4002 194a EB03     		jmp	.L203
 4003              	.L211:
 4004 194c 4889C3   		movq	%rax, %rbx
 4005              	.L203:
 4006              	.LBE83:
 4007 194f E8000000 		call	__cxa_end_catch
 4007      00
 4008 1954 4889D8   		movq	%rbx, %rax
 4009 1957 4889C7   		movq	%rax, %rdi
 4010              	.LEHB92:
 4011 195a E8000000 		call	_Unwind_Resume
 4011      00
 4012              	.LEHE92:
 4013              	.L212:
 4014 195f 4889C3   		movq	%rax, %rbx
 4015              	.LBE82:
 4016 1962 E8000000 		call	__cxa_end_catch
 4016      00
 4017 1967 4889D8   		movq	%rbx, %rax
 4018 196a 4889C7   		movq	%rax, %rdi
 4019              	.LEHB93:
 4020 196d E8000000 		call	_Unwind_Resume
 4020      00
 4021              	.LEHE93:
 4022              	.L199:
 4023              	.LBB85:
 4024 1972 4889C7   		movq	%rax, %rdi
 4025 1975 E8000000 		call	__cxa_begin_catch
 4025      00
 4026 197a 48898570 		movq	%rax, -400(%rbp)
 4026      FEFFFF
 4027 1981 488B8570 		movq	-400(%rbp), %rax
 4027      FEFFFF
 4028 1988 488B00   		movq	(%rax), %rax
 4029 198b 4883C010 		addq	$16, %rax
 4030 198f 488B00   		movq	(%rax), %rax
 4031 1992 488B9570 		movq	-400(%rbp), %rdx
 4031      FEFFFF
 4032 1999 4889D7   		movq	%rdx, %rdi
 4033 199c FFD0     		call	*%rax
 4034 199e 4889C3   		movq	%rax, %rbx
 4035 19a1 488B8570 		movq	-400(%rbp), %rax
 4035      FEFFFF
 4036 19a8 4889C7   		movq	%rax, %rdi
 4037              	.LEHB94:
 4038 19ab E8000000 		call	_ZNK8UnitTest15AssertException10LineNumberEv
 4038      00
 4039 19b0 4189C4   		movl	%eax, %r12d
 4040 19b3 488B8570 		movq	-400(%rbp), %rax
 4040      FEFFFF
 4041 19ba 4889C7   		movq	%rax, %rdi
 4042 19bd E8000000 		call	_ZNK8UnitTest15AssertException8FilenameEv
 4042      00
 4043              		.loc 6 113 0 discriminator 1
 4044 19c2 4889C1   		movq	%rax, %rcx
 4045 19c5 488B8558 		movq	-424(%rbp), %rax
 4045      FEFFFF
 4046 19cc 488B5008 		movq	8(%rax), %rdx
 4047 19d0 488B8558 		movq	-424(%rbp), %rax
 4047      FEFFFF
 4048 19d7 488B7010 		movq	16(%rax), %rsi
 4049 19db 488D8580 		leaq	-384(%rbp), %rax
 4049      FEFFFF
 4050 19e2 4589E0   		movl	%r12d, %r8d
 4051 19e5 4889C7   		movq	%rax, %rdi
 4052 19e8 E8000000 		call	_ZN8UnitTest11TestDetailsC1EPKcS2_S2_i
 4052      00
 4053              		.loc 6 113 0 discriminator 3
 4054 19ed E8000000 		call	_ZN8UnitTest11CurrentTest7ResultsEv
 4054      00
 4055 19f2 488B00   		movq	(%rax), %rax
 4056 19f5 488D8D80 		leaq	-384(%rbp), %rcx
 4056      FEFFFF
 4057 19fc 4889DA   		movq	%rbx, %rdx
 4058 19ff 4889CE   		movq	%rcx, %rsi
 4059 1a02 4889C7   		movq	%rax, %rdi
 4060 1a05 E8000000 		call	_ZN8UnitTest11TestResults13OnTestFailureERKNS_11TestDetailsEPKc
 4060      00
 4061              	.LEHE94:
 4062              		.loc 6 113 0 discriminator 1
 4063 1a0a E8000000 		call	__cxa_end_catch
 4063      00
 4064              	.LBE85:
 4065              	.LBE87:
 4066 1a0f E9430100 		jmp	.L214
 4066      00
 4067              	.L200:
 4068              	.LBB88:
 4069              	.LBB86:
 4070              		.loc 6 113 0
 4071 1a14 4889C7   		movq	%rax, %rdi
 4072 1a17 E8000000 		call	__cxa_begin_catch
 4072      00
 4073 1a1c 48898578 		movq	%rax, -392(%rbp)
 4073      FEFFFF
 4074              	.LBB84:
 4075 1a23 488D8580 		leaq	-384(%rbp), %rax
 4075      FEFFFF
 4076 1a2a 4889C7   		movq	%rax, %rdi
 4077              	.LEHB95:
 4078 1a2d E8000000 		call	_ZN8UnitTest15MemoryOutStreamC1Ev
 4078      00
 4079              	.LEHE95:
 4080              		.loc 6 113 0 discriminator 1
 4081 1a32 488B8578 		movq	-392(%rbp), %rax
 4081      FEFFFF
 4082 1a39 488B00   		movq	(%rax), %rax
 4083 1a3c 4883C010 		addq	$16, %rax
 4084 1a40 488B00   		movq	(%rax), %rax
 4085 1a43 488B9578 		movq	-392(%rbp), %rdx
 4085      FEFFFF
 4086 1a4a 4889D7   		movq	%rdx, %rdi
 4087 1a4d FFD0     		call	*%rax
 4088 1a4f 4889C3   		movq	%rax, %rbx
 4089 1a52 488D8580 		leaq	-384(%rbp), %rax
 4089      FEFFFF
 4090 1a59 BE000000 		movl	$.LC11, %esi
 4090      00
 4091 1a5e 4889C7   		movq	%rax, %rdi
 4092              	.LEHB96:
 4093 1a61 E8000000 		call	_ZStlsISt11char_traitsIcEERSt13basic_ostreamIcT_ES5_PKc
 4093      00
 4094 1a66 4889DE   		movq	%rbx, %rsi
 4095 1a69 4889C7   		movq	%rax, %rdi
 4096 1a6c E8000000 		call	_ZStlsISt11char_traitsIcEERSt13basic_ostreamIcT_ES5_PKc
 4096      00
 4097 1a71 488D8580 		leaq	-384(%rbp), %rax
 4097      FEFFFF
 4098 1a78 4889C7   		movq	%rax, %rdi
 4099 1a7b E8000000 		call	_ZNK8UnitTest15MemoryOutStream7GetTextEv
 4099      00
 4100 1a80 4889C3   		movq	%rax, %rbx
 4101 1a83 488B8558 		movq	-424(%rbp), %rax
 4101      FEFFFF
 4102 1a8a 4C8D6008 		leaq	8(%rax), %r12
 4103 1a8e E8000000 		call	_ZN8UnitTest11CurrentTest7ResultsEv
 4103      00
 4104 1a93 488B00   		movq	(%rax), %rax
 4105 1a96 4889DA   		movq	%rbx, %rdx
 4106 1a99 4C89E6   		movq	%r12, %rsi
 4107 1a9c 4889C7   		movq	%rax, %rdi
 4108 1a9f E8000000 		call	_ZN8UnitTest11TestResults13OnTestFailureERKNS_11TestDetailsEPKc
 4108      00
 4109              	.LEHE96:
 4110 1aa4 488D8580 		leaq	-384(%rbp), %rax
 4110      FEFFFF
 4111 1aab 4889C7   		movq	%rax, %rdi
 4112              	.LEHB97:
 4113 1aae E8000000 		call	_ZN8UnitTest15MemoryOutStreamD1Ev
 4113      00
 4114              	.LEHE97:
 4115              	.LBE84:
 4116              		.loc 6 113 0
 4117 1ab3 E8000000 		call	__cxa_end_catch
 4117      00
 4118              	.LBE86:
 4119              	.LBE88:
 4120 1ab8 E99A0000 		jmp	.L214
 4120      00
 4121              	.L213:
 4122              	.LBB89:
 4123 1abd 4889C7   		movq	%rax, %rdi
 4124 1ac0 E8000000 		call	__cxa_begin_catch
 4124      00
 4125 1ac5 80BD6FFE 		cmpb	$0, -401(%rbp)
 4125      FFFF00
 4126 1acc 7443     		je	.L206
 4127              		.loc 6 113 0 discriminator 1
 4128 1ace 488B8558 		movq	-424(%rbp), %rax
 4128      FEFFFF
 4129 1ad5 488D4808 		leaq	8(%rax), %rcx
 4130 1ad9 488D8580 		leaq	-384(%rbp), %rax
 4130      FEFFFF
 4131 1ae0 BA710000 		movl	$113, %edx
 4131      00
 4132 1ae5 4889CE   		movq	%rcx, %rsi
 4133 1ae8 4889C7   		movq	%rax, %rdi
 4134              	.LEHB98:
 4135 1aeb E8000000 		call	_ZN8UnitTest11TestDetailsC1ERKS0_i
 4135      00
 4136 1af0 E8000000 		call	_ZN8UnitTest11CurrentTest7ResultsEv
 4136      00
 4137 1af5 488B00   		movq	(%rax), %rax
 4138 1af8 488D8D80 		leaq	-384(%rbp), %rcx
 4138      FEFFFF
 4139 1aff BA000000 		movl	$.LC44, %edx
 4139      00
 4140 1b04 4889CE   		movq	%rcx, %rsi
 4141 1b07 4889C7   		movq	%rax, %rdi
 4142 1b0a E8000000 		call	_ZN8UnitTest11TestResults13OnTestFailureERKNS_11TestDetailsEPKc
 4142      00
 4143 1b0f EB41     		jmp	.L207
 4144              	.L206:
 4145              		.loc 6 113 0 discriminator 2
 4146 1b11 488B8558 		movq	-424(%rbp), %rax
 4146      FEFFFF
 4147 1b18 488D4808 		leaq	8(%rax), %rcx
 4148 1b1c 488D8580 		leaq	-384(%rbp), %rax
 4148      FEFFFF
 4149 1b23 BA710000 		movl	$113, %edx
 4149      00
 4150 1b28 4889CE   		movq	%rcx, %rsi
 4151 1b2b 4889C7   		movq	%rax, %rdi
 4152 1b2e E8000000 		call	_ZN8UnitTest11TestDetailsC1ERKS0_i
 4152      00
 4153              		.loc 6 113 0 discriminator 1
 4154 1b33 E8000000 		call	_ZN8UnitTest11CurrentTest7ResultsEv
 4154      00
 4155 1b38 488B00   		movq	(%rax), %rax
 4156 1b3b 488D8D80 		leaq	-384(%rbp), %rcx
 4156      FEFFFF
 4157 1b42 BA000000 		movl	$.LC45, %edx
 4157      00
 4158 1b47 4889CE   		movq	%rcx, %rsi
 4159 1b4a 4889C7   		movq	%rax, %rdi
 4160 1b4d E8000000 		call	_ZN8UnitTest11TestResults13OnTestFailureERKNS_11TestDetailsEPKc
 4160      00
 4161              	.LEHE98:
 4162              	.L207:
 4163              	.LEHB99:
 4164 1b52 E8000000 		call	__cxa_end_catch
 4164      00
 4165              	.LEHE99:
 4166              	.L214:
 4167              	.LBE89:
 4168              		.loc 6 113 0
 4169 1b57 90       		nop
 4170 1b58 4881C4A0 		addq	$416, %rsp
 4170      010000
 4171 1b5f 5B       		popq	%rbx
 4172 1b60 415C     		popq	%r12
 4173 1b62 5D       		popq	%rbp
 4174              		.cfi_def_cfa 7, 8
 4175 1b63 C3       		ret
 4176              		.cfi_endproc
 4177              	.LFE1119:
 4178              		.section	.gcc_except_table
 4179              		.align 4
 4180              	.LLSDA1119:
 4181 025c FF       		.byte	0xff
 4182 025d 03       		.byte	0x3
 4183 025e 49       		.uleb128 .LLSDATT1119-.LLSDATTD1119
 4184              	.LLSDATTD1119:
 4185 025f 01       		.byte	0x1
 4186 0260 35       		.uleb128 .LLSDACSE1119-.LLSDACSB1119
 4187              	.LLSDACSB1119:
 4188 0261 34       		.uleb128 .LEHB90-.LFB1119
 4189 0262 29       		.uleb128 .LEHE90-.LEHB90
 4190 0263 62       		.uleb128 .L208-.LFB1119
 4191 0264 05       		.uleb128 0x5
 4192 0265 8501     		.uleb128 .LEHB91-.LFB1119
 4193 0267 05       		.uleb128 .LEHE91-.LEHB91
 4194 0268 00       		.uleb128 0
 4195 0269 00       		.uleb128 0
 4196 026a AC01     		.uleb128 .LEHB92-.LFB1119
 4197 026c 05       		.uleb128 .LEHE92-.LEHB92
 4198 026d 00       		.uleb128 0
 4199 026e 00       		.uleb128 0
 4200 026f BF01     		.uleb128 .LEHB93-.LFB1119
 4201 0271 05       		.uleb128 .LEHE93-.LEHB93
 4202 0272 00       		.uleb128 0
 4203 0273 00       		.uleb128 0
 4204 0274 FD01     		.uleb128 .LEHB94-.LFB1119
 4205 0276 5F       		.uleb128 .LEHE94-.LEHB94
 4206 0277 77       		.uleb128 .L209-.LFB1119
 4207 0278 00       		.uleb128 0
 4208 0279 FF02     		.uleb128 .LEHB95-.LFB1119
 4209 027b 05       		.uleb128 .LEHE95-.LEHB95
 4210 027c 9E01     		.uleb128 .L211-.LFB1119
 4211 027e 00       		.uleb128 0
 4212 027f B303     		.uleb128 .LEHB96-.LFB1119
 4213 0281 43       		.uleb128 .LEHE96-.LEHB96
 4214 0282 8A01     		.uleb128 .L210-.LFB1119
 4215 0284 00       		.uleb128 0
 4216 0285 8004     		.uleb128 .LEHB97-.LFB1119
 4217 0287 05       		.uleb128 .LEHE97-.LEHB97
 4218 0288 9E01     		.uleb128 .L211-.LFB1119
 4219 028a 00       		.uleb128 0
 4220 028b BD04     		.uleb128 .LEHB98-.LFB1119
 4221 028d 67       		.uleb128 .LEHE98-.LEHB98
 4222 028e B101     		.uleb128 .L212-.LFB1119
 4223 0290 00       		.uleb128 0
 4224 0291 A405     		.uleb128 .LEHB99-.LFB1119
 4225 0293 05       		.uleb128 .LEHE99-.LEHB99
 4226 0294 00       		.uleb128 0
 4227 0295 00       		.uleb128 0
 4228              	.LLSDACSE1119:
 4229 0296 03       		.byte	0x3
 4230 0297 00       		.byte	0
 4231 0298 02       		.byte	0x2
 4232 0299 7D       		.byte	0x7d
 4233 029a 01       		.byte	0x1
 4234 029b 7D       		.byte	0x7d
 4235              		.align 4
 4236 029c 00000000 		.long	0
 4237              	
 4238 02a0 00000000 		.long	_ZTISt9exception
 4239 02a4 00000000 		.long	_ZTIN8UnitTest15AssertExceptionE
 4240              	.LLSDATT1119:
 4241              		.text
 4243              		.align 2
 4245              	_ZN12_GLOBAL__N_148FixtureCtorThrowsFixtureCtorThrowsTestNameHelper7RunImplEv:
 4246              	.LFB1120:
 114:TestTestMacros.cpp **** {
 4247              		.loc 6 114 0 is_stmt 1
 4248              		.cfi_startproc
 4249 1b64 55       		pushq	%rbp
 4250              		.cfi_def_cfa_offset 16
 4251              		.cfi_offset 6, -16
 4252 1b65 4889E5   		movq	%rsp, %rbp
 4253              		.cfi_def_cfa_register 6
 4254 1b68 48897DF8 		movq	%rdi, -8(%rbp)
 115:TestTestMacros.cpp **** }
 4255              		.loc 6 115 0
 4256 1b6c 5D       		popq	%rbp
 4257              		.cfi_def_cfa 7, 8
 4258 1b6d C3       		ret
 4259              		.cfi_endproc
 4260              	.LFE1120:
 4262              		.section	.rodata
 4263 0819 00000000 		.align 8
 4263      000000
 4264              	.LC46:
 4265 0820 46697874 		.string	"FixturesWithThrowingCtorsAreFailures"
 4265      75726573 
 4265      57697468 
 4265      5468726F 
 4265      77696E67 
 4266              		.text
 4267              		.align 2
 4269              	_ZN12_GLOBAL__N_140TestFixturesWithThrowingCtorsAreFailuresC2Ev:
 4270              	.LFB1122:
 116:TestTestMacros.cpp **** 
 117:TestTestMacros.cpp **** TEST(FixturesWithThrowingCtorsAreFailures)
 4271              		.loc 6 117 0
 4272              		.cfi_startproc
 4273 1b6e 55       		pushq	%rbp
 4274              		.cfi_def_cfa_offset 16
 4275              		.cfi_offset 6, -16
 4276 1b6f 4889E5   		movq	%rsp, %rbp
 4277              		.cfi_def_cfa_register 6
 4278 1b72 4883EC10 		subq	$16, %rsp
 4279 1b76 48897DF8 		movq	%rdi, -8(%rbp)
 4280              	.LBB90:
 4281              		.loc 6 117 0
 4282 1b7a E8000000 		call	_ZN13UnitTestSuite12GetSuiteNameEv
 4282      00
 4283 1b7f 4889C2   		movq	%rax, %rdx
 4284 1b82 488B45F8 		movq	-8(%rbp), %rax
 4285 1b86 41B87500 		movl	$117, %r8d
 4285      0000
 4286 1b8c B9000000 		movl	$.LC2, %ecx
 4286      00
 4287 1b91 BE000000 		movl	$.LC46, %esi
 4287      00
 4288 1b96 4889C7   		movq	%rax, %rdi
 4289 1b99 E8000000 		call	_ZN8UnitTest4TestC2EPKcS2_S2_i
 4289      00
 4290 1b9e 488B45F8 		movq	-8(%rbp), %rax
 4291 1ba2 48C70000 		movq	$_ZTVN12_GLOBAL__N_140TestFixturesWithThrowingCtorsAreFailuresE+16, (%rax)
 4291      000000
 4292              	.LBE90:
 4293 1ba9 C9       		leave
 4294              		.cfi_def_cfa 7, 8
 4295 1baa C3       		ret
 4296              		.cfi_endproc
 4297              	.LFE1122:
 4299              		.set	_ZN12_GLOBAL__N_140TestFixturesWithThrowingCtorsAreFailuresC1Ev,_ZN12_GLOBAL__N_140TestFixtur
 4300              		.local	_ZN12_GLOBAL__N_148testFixturesWithThrowingCtorsAreFailuresInstanceE
 4301              		.comm	_ZN12_GLOBAL__N_148testFixturesWithThrowingCtorsAreFailuresInstanceE,56,32
 4302              		.local	_ZN12_GLOBAL__N_141adderFixturesWithThrowingCtorsAreFailuresE
 4303              		.comm	_ZN12_GLOBAL__N_141adderFixturesWithThrowingCtorsAreFailuresE,1,1
 4304              		.section	.rodata
 4305 0845 000000   		.align 8
 4306              	.LC47:
 4307 0848 7468726F 		.string	"throwingFixtureTestList1.GetHead() != NULL"
 4307      77696E67 
 4307      46697874 
 4307      75726554 
 4307      6573744C 
 4308              	.LC48:
 4309 0873 7768696C 		.string	"while constructing fixture"
 4309      6520636F 
 4309      6E737472 
 4309      75637469 
 4309      6E672066 
 4310 088e 0000     		.align 8
 4311              	.LC49:
 4312 0890 73747273 		.string	"strstr(reporter.lastFailedMessage, \"while constructing fixture\")"
 4312      74722872 
 4312      65706F72 
 4312      7465722E 
 4312      6C617374 
 4313 08d1 00000000 		.align 8
 4313      000000
 4314              	.LC50:
 4315 08d8 556E6861 		.string	"Unhandled exception in CHECK(throwingFixtureTestList1.GetHead() != NULL)"
 4315      6E646C65 
 4315      64206578 
 4315      63657074 
 4315      696F6E20 
 4316 0921 00000000 		.align 8
 4316      000000
 4317              	.LC51:
 4318 0928 556E6861 		.string	"Unhandled exception in CHECK_EQUAL(1, failureCount)"
 4318      6E646C65 
 4318      64206578 
 4318      63657074 
 4318      696F6E20 
 4319 095c 00000000 		.align 8
 4320              	.LC52:
 4321 0960 556E6861 		.string	"Unhandled exception in CHECK(strstr(reporter.lastFailedMessage, \"while constructing fixt
 4321      6E646C65 
 4321      64206578 
 4321      63657074 
 4321      696F6E20 
 4322              		.text
 4323 1bab 90       		.align 2
 4325              	_ZNK12_GLOBAL__N_140TestFixturesWithThrowingCtorsAreFailures7RunImplEv:
 4326              	.LFB1124:
 118:TestTestMacros.cpp **** {
 4327              		.loc 6 118 0
 4328              		.cfi_startproc
 4329              		.cfi_personality 0x3,__gxx_personality_v0
 4330              		.cfi_lsda 0x3,.LLSDA1124
 4331 1bac 55       		pushq	%rbp
 4332              		.cfi_def_cfa_offset 16
 4333              		.cfi_offset 6, -16
 4334 1bad 4889E5   		movq	%rsp, %rbp
 4335              		.cfi_def_cfa_register 6
 4336 1bb0 53       		pushq	%rbx
 4337 1bb1 4881ECA8 		subq	$2216, %rsp
 4337      080000
 4338              		.cfi_offset 3, -24
 4339 1bb8 4889BD58 		movq	%rdi, -2216(%rbp)
 4339      F7FFFF
 4340              		.loc 6 118 0
 4341 1bbf 64488B04 		movq	%fs:40, %rax
 4341      25280000 
 4341      00
 4342 1bc8 488945E8 		movq	%rax, -24(%rbp)
 4343 1bcc 31C0     		xorl	%eax, %eax
 4344              	.LBB91:
 119:TestTestMacros.cpp **** 	CHECK(throwingFixtureTestList1.GetHead() != NULL);
 4345              		.loc 6 119 0
 4346 1bce BF000000 		movl	$_ZN12_GLOBAL__N_124throwingFixtureTestList1E, %edi
 4346      00
 4347              	.LEHB100:
 4348 1bd3 E8000000 		call	_ZNK8UnitTest8TestList7GetHeadEv
 4348      00
 4349 1bd8 4885C0   		testq	%rax, %rax
 4350 1bdb 0F95C0   		setne	%al
 4351 1bde 0FB6C0   		movzbl	%al, %eax
 4352 1be1 89C7     		movl	%eax, %edi
 4353 1be3 E8000000 		call	_ZN8UnitTest5CheckIbEEbT_
 4353      00
 4354 1be8 83F001   		xorl	$1, %eax
 4355 1beb 84C0     		testb	%al, %al
 4356 1bed 743E     		je	.L218
 4357              		.loc 6 119 0 is_stmt 0 discriminator 1
 4358 1bef E8000000 		call	_ZN8UnitTest11CurrentTest7DetailsEv
 4358      00
 4359 1bf4 488B08   		movq	(%rax), %rcx
 4360 1bf7 488D8590 		leaq	-2160(%rbp), %rax
 4360      F7FFFF
 4361 1bfe BA770000 		movl	$119, %edx
 4361      00
 4362 1c03 4889CE   		movq	%rcx, %rsi
 4363 1c06 4889C7   		movq	%rax, %rdi
 4364 1c09 E8000000 		call	_ZN8UnitTest11TestDetailsC1ERKS0_i
 4364      00
 4365 1c0e E8000000 		call	_ZN8UnitTest11CurrentTest7ResultsEv
 4365      00
 4366 1c13 488B00   		movq	(%rax), %rax
 4367 1c16 488D8D90 		leaq	-2160(%rbp), %rcx
 4367      F7FFFF
 4368 1c1d BA000000 		movl	$.LC47, %edx
 4368      00
 4369 1c22 4889CE   		movq	%rcx, %rsi
 4370 1c25 4889C7   		movq	%rax, %rdi
 4371 1c28 E8000000 		call	_ZN8UnitTest11TestResults13OnTestFailureERKNS_11TestDetailsEPKc
 4371      00
 4372              	.LEHE100:
 4373              	.L218:
 120:TestTestMacros.cpp **** 	RecordingReporter reporter;
 4374              		.loc 6 120 0 is_stmt 1
 4375 1c2d 488D85B0 		leaq	-2128(%rbp), %rax
 4375      F7FFFF
 4376 1c34 4889C7   		movq	%rax, %rdi
 4377 1c37 E8000000 		call	_ZN17RecordingReporterC1Ev
 4377      00
 121:TestTestMacros.cpp **** 	TestResults result(&reporter);
 4378              		.loc 6 121 0
 4379 1c3c 488D95B0 		leaq	-2128(%rbp), %rdx
 4379      F7FFFF
 4380 1c43 488D8570 		leaq	-2192(%rbp), %rax
 4380      F7FFFF
 4381 1c4a 4889D6   		movq	%rdx, %rsi
 4382 1c4d 4889C7   		movq	%rax, %rdi
 4383              	.LEHB101:
 4384 1c50 E8000000 		call	_ZN8UnitTest11TestResultsC1EPNS_12TestReporterE
 4384      00
 4385              	.LBB92:
 122:TestTestMacros.cpp **** 	{
 123:TestTestMacros.cpp **** 		ScopedCurrentTest scopedResult(result);
 4386              		.loc 6 123 0
 4387 1c55 488D8D70 		leaq	-2192(%rbp), %rcx
 4387      F7FFFF
 4388 1c5c 488D8590 		leaq	-2160(%rbp), %rax
 4388      F7FFFF
 4389 1c63 BA000000 		movl	$0, %edx
 4389      00
 4390 1c68 4889CE   		movq	%rcx, %rsi
 4391 1c6b 4889C7   		movq	%rax, %rdi
 4392 1c6e E8000000 		call	_ZN17ScopedCurrentTestC1ERN8UnitTest11TestResultsEPKNS0_11TestDetailsE
 4392      00
 4393              	.LEHE101:
 124:TestTestMacros.cpp **** 		throwingFixtureTestList1.GetHead()->Run();
 4394              		.loc 6 124 0
 4395 1c73 BF000000 		movl	$_ZN12_GLOBAL__N_124throwingFixtureTestList1E, %edi
 4395      00
 4396              	.LEHB102:
 4397 1c78 E8000000 		call	_ZNK8UnitTest8TestList7GetHeadEv
 4397      00
 4398 1c7d 4889C7   		movq	%rax, %rdi
 4399 1c80 E8000000 		call	_ZN8UnitTest4Test3RunEv
 4399      00
 4400              	.LEHE102:
 4401              		.loc 6 124 0 is_stmt 0 discriminator 1
 4402 1c85 488D8590 		leaq	-2160(%rbp), %rax
 4402      F7FFFF
 4403 1c8c 4889C7   		movq	%rax, %rdi
 4404              	.LEHB103:
 4405 1c8f E8000000 		call	_ZN17ScopedCurrentTestD1Ev
 4405      00
 4406              	.LBE92:
 125:TestTestMacros.cpp **** 	}
 126:TestTestMacros.cpp **** 
 127:TestTestMacros.cpp **** 	int const failureCount = result.GetFailedTestCount();
 4407              		.loc 6 127 0 is_stmt 1
 4408 1c94 488D8570 		leaq	-2192(%rbp), %rax
 4408      F7FFFF
 4409 1c9b 4889C7   		movq	%rax, %rdi
 4410 1c9e E8000000 		call	_ZNK8UnitTest11TestResults18GetFailedTestCountEv
 4410      00
 4411              	.LEHE103:
 4412 1ca3 898568F7 		movl	%eax, -2200(%rbp)
 4412      FFFF
 4413              	.LEHB104:
 128:TestTestMacros.cpp **** 	CHECK_EQUAL(1, failureCount);
 4414              		.loc 6 128 0
 4415 1ca9 E8000000 		call	_ZN8UnitTest11CurrentTest7DetailsEv
 4415      00
 4416              		.loc 6 128 0 is_stmt 0 discriminator 1
 4417 1cae 488B08   		movq	(%rax), %rcx
 4418 1cb1 488D8590 		leaq	-2160(%rbp), %rax
 4418      F7FFFF
 4419 1cb8 BA800000 		movl	$128, %edx
 4419      00
 4420 1cbd 4889CE   		movq	%rcx, %rsi
 4421 1cc0 4889C7   		movq	%rax, %rdi
 4422 1cc3 E8000000 		call	_ZN8UnitTest11TestDetailsC1ERKS0_i
 4422      00
 4423 1cc8 C7856CF7 		movl	$1, -2196(%rbp)
 4423      FFFF0100 
 4423      0000
 4424 1cd2 E8000000 		call	_ZN8UnitTest11CurrentTest7ResultsEv
 4424      00
 4425 1cd7 488B00   		movq	(%rax), %rax
 4426 1cda 488D8D90 		leaq	-2160(%rbp), %rcx
 4426      F7FFFF
 4427 1ce1 488D9568 		leaq	-2200(%rbp), %rdx
 4427      F7FFFF
 4428 1ce8 488DB56C 		leaq	-2196(%rbp), %rsi
 4428      F7FFFF
 4429 1cef 4889C7   		movq	%rax, %rdi
 4430 1cf2 E8000000 		call	_ZN8UnitTest10CheckEqualIiiEEvRNS_11TestResultsERKT_RKT0_RKNS_11TestDetailsE
 4430      00
 4431              	.LEHE104:
 4432              	.L226:
 129:TestTestMacros.cpp **** 	CHECK(strstr(reporter.lastFailedMessage, "while constructing fixture"));
 4433              		.loc 6 129 0 is_stmt 1
 4434 1cf7 488D85B0 		leaq	-2128(%rbp), %rax
 4434      F7FFFF
 4435 1cfe 48051405 		addq	$1300, %rax
 4435      0000
 4436 1d04 BE000000 		movl	$.LC48, %esi
 4436      00
 4437 1d09 4889C7   		movq	%rax, %rdi
 4438 1d0c E8000000 		call	strstr
 4438      00
 4439 1d11 4889C7   		movq	%rax, %rdi
 4440 1d14 E8000000 		call	_ZN8UnitTest5CheckIPcEEbT_
 4440      00
 4441 1d19 83F001   		xorl	$1, %eax
 4442 1d1c 84C0     		testb	%al, %al
 4443 1d1e 743E     		je	.L219
 4444              	.LEHB105:
 4445              		.loc 6 129 0 is_stmt 0 discriminator 1
 4446 1d20 E8000000 		call	_ZN8UnitTest11CurrentTest7DetailsEv
 4446      00
 4447 1d25 488B08   		movq	(%rax), %rcx
 4448 1d28 488D8590 		leaq	-2160(%rbp), %rax
 4448      F7FFFF
 4449 1d2f BA810000 		movl	$129, %edx
 4449      00
 4450 1d34 4889CE   		movq	%rcx, %rsi
 4451 1d37 4889C7   		movq	%rax, %rdi
 4452 1d3a E8000000 		call	_ZN8UnitTest11TestDetailsC1ERKS0_i
 4452      00
 4453 1d3f E8000000 		call	_ZN8UnitTest11CurrentTest7ResultsEv
 4453      00
 4454 1d44 488B00   		movq	(%rax), %rax
 4455 1d47 488D8D90 		leaq	-2160(%rbp), %rcx
 4455      F7FFFF
 4456 1d4e BA000000 		movl	$.LC49, %edx
 4456      00
 4457 1d53 4889CE   		movq	%rcx, %rsi
 4458 1d56 4889C7   		movq	%rax, %rdi
 4459 1d59 E8000000 		call	_ZN8UnitTest11TestResults13OnTestFailureERKNS_11TestDetailsEPKc
 4459      00
 4460              	.LEHE105:
 4461              	.L219:
 4462              		.loc 6 129 0 discriminator 2
 4463 1d5e 488D85B0 		leaq	-2128(%rbp), %rax
 4463      F7FFFF
 4464 1d65 4889C7   		movq	%rax, %rdi
 4465              	.LEHB106:
 4466 1d68 E8000000 		call	_ZN17RecordingReporterD1Ev
 4466      00
 4467              	.LEHE106:
 4468              	.LBE91:
 130:TestTestMacros.cpp **** }
 4469              		.loc 6 130 0 is_stmt 1 discriminator 2
 4470 1d6d 488B45E8 		movq	-24(%rbp), %rax
 4471 1d71 64483304 		xorq	%fs:40, %rax
 4471      25280000 
 4471      00
 4472 1d7a 0F845801 		je	.L229
 4472      0000
 4473 1d80 E94E0100 		jmp	.L238
 4473      00
 4474              	.L231:
 4475 1d85 4889C3   		movq	%rax, %rbx
 4476              	.LBB94:
 119:TestTestMacros.cpp **** 	RecordingReporter reporter;
 4477              		.loc 6 119 0
 4478 1d88 E8000000 		call	__cxa_end_catch
 4478      00
 4479 1d8d 4889D8   		movq	%rbx, %rax
 4480 1d90 4889C7   		movq	%rax, %rdi
 4481              	.LEHB107:
 4482 1d93 E8000000 		call	_Unwind_Resume
 4482      00
 4483              	.LEHE107:
 4484              	.L230:
 4485 1d98 4889C7   		movq	%rax, %rdi
 4486 1d9b E8000000 		call	__cxa_begin_catch
 4486      00
 4487              	.LEHB108:
 4488 1da0 E8000000 		call	_ZN8UnitTest11CurrentTest7DetailsEv
 4488      00
 4489 1da5 488B08   		movq	(%rax), %rcx
 4490 1da8 488D8590 		leaq	-2160(%rbp), %rax
 4490      F7FFFF
 4491 1daf BA770000 		movl	$119, %edx
 4491      00
 4492 1db4 4889CE   		movq	%rcx, %rsi
 4493 1db7 4889C7   		movq	%rax, %rdi
 4494 1dba E8000000 		call	_ZN8UnitTest11TestDetailsC1ERKS0_i
 4494      00
 119:TestTestMacros.cpp **** 	RecordingReporter reporter;
 4495              		.loc 6 119 0 is_stmt 0 discriminator 1
 4496 1dbf E8000000 		call	_ZN8UnitTest11CurrentTest7ResultsEv
 4496      00
 4497 1dc4 488B00   		movq	(%rax), %rax
 4498 1dc7 488D8D90 		leaq	-2160(%rbp), %rcx
 4498      F7FFFF
 4499 1dce BA000000 		movl	$.LC50, %edx
 4499      00
 4500 1dd3 4889CE   		movq	%rcx, %rsi
 4501 1dd6 4889C7   		movq	%rax, %rdi
 4502 1dd9 E8000000 		call	_ZN8UnitTest11TestResults13OnTestFailureERKNS_11TestDetailsEPKc
 4502      00
 4503              	.LEHE108:
 4504              	.LEHB109:
 4505 1dde E8000000 		call	__cxa_end_catch
 4505      00
 4506              	.LEHE109:
 4507 1de3 E945FEFF 		jmp	.L218
 4507      FF
 4508              	.L233:
 4509 1de8 4889C3   		movq	%rax, %rbx
 4510              	.LBB93:
 124:TestTestMacros.cpp **** 	}
 4511              		.loc 6 124 0 is_stmt 1
 4512 1deb 488D8590 		leaq	-2160(%rbp), %rax
 4512      F7FFFF
 4513 1df2 4889C7   		movq	%rax, %rdi
 4514 1df5 E8000000 		call	_ZN17ScopedCurrentTestD1Ev
 4514      00
 4515 1dfa E9BA0000 		jmp	.L223
 4515      00
 4516              	.L235:
 4517 1dff 4889C3   		movq	%rax, %rbx
 4518              	.LBE93:
 128:TestTestMacros.cpp **** 	CHECK(strstr(reporter.lastFailedMessage, "while constructing fixture"));
 4519              		.loc 6 128 0
 4520 1e02 E8000000 		call	__cxa_end_catch
 4520      00
 4521 1e07 E9AD0000 		jmp	.L223
 4521      00
 4522              	.L234:
 4523 1e0c 4889C7   		movq	%rax, %rdi
 4524 1e0f E8000000 		call	__cxa_begin_catch
 4524      00
 4525              	.LEHB110:
 4526 1e14 E8000000 		call	_ZN8UnitTest11CurrentTest7DetailsEv
 4526      00
 4527 1e19 488B08   		movq	(%rax), %rcx
 4528 1e1c 488D8590 		leaq	-2160(%rbp), %rax
 4528      F7FFFF
 4529 1e23 BA800000 		movl	$128, %edx
 4529      00
 4530 1e28 4889CE   		movq	%rcx, %rsi
 4531 1e2b 4889C7   		movq	%rax, %rdi
 4532 1e2e E8000000 		call	_ZN8UnitTest11TestDetailsC1ERKS0_i
 4532      00
 128:TestTestMacros.cpp **** 	CHECK(strstr(reporter.lastFailedMessage, "while constructing fixture"));
 4533              		.loc 6 128 0 is_stmt 0 discriminator 1
 4534 1e33 E8000000 		call	_ZN8UnitTest11CurrentTest7ResultsEv
 4534      00
 4535 1e38 488B00   		movq	(%rax), %rax
 4536 1e3b 488D8D90 		leaq	-2160(%rbp), %rcx
 4536      F7FFFF
 4537 1e42 BA000000 		movl	$.LC51, %edx
 4537      00
 4538 1e47 4889CE   		movq	%rcx, %rsi
 4539 1e4a 4889C7   		movq	%rax, %rdi
 4540 1e4d E8000000 		call	_ZN8UnitTest11TestResults13OnTestFailureERKNS_11TestDetailsEPKc
 4540      00
 4541              	.LEHE110:
 4542              	.LEHB111:
 4543 1e52 E8000000 		call	__cxa_end_catch
 4543      00
 4544              	.LEHE111:
 128:TestTestMacros.cpp **** 	CHECK(strstr(reporter.lastFailedMessage, "while constructing fixture"));
 4545              		.loc 6 128 0
 4546 1e57 E99BFEFF 		jmp	.L226
 4546      FF
 4547              	.L237:
 4548 1e5c 4889C3   		movq	%rax, %rbx
 129:TestTestMacros.cpp **** }
 4549              		.loc 6 129 0 is_stmt 1
 4550 1e5f E8000000 		call	__cxa_end_catch
 4550      00
 4551 1e64 EB53     		jmp	.L223
 4552              	.L236:
 4553 1e66 4889C7   		movq	%rax, %rdi
 4554 1e69 E8000000 		call	__cxa_begin_catch
 4554      00
 4555              	.LEHB112:
 4556 1e6e E8000000 		call	_ZN8UnitTest11CurrentTest7DetailsEv
 4556      00
 4557 1e73 488B08   		movq	(%rax), %rcx
 4558 1e76 488D8590 		leaq	-2160(%rbp), %rax
 4558      F7FFFF
 4559 1e7d BA810000 		movl	$129, %edx
 4559      00
 4560 1e82 4889CE   		movq	%rcx, %rsi
 4561 1e85 4889C7   		movq	%rax, %rdi
 4562 1e88 E8000000 		call	_ZN8UnitTest11TestDetailsC1ERKS0_i
 4562      00
 129:TestTestMacros.cpp **** }
 4563              		.loc 6 129 0 is_stmt 0 discriminator 1
 4564 1e8d E8000000 		call	_ZN8UnitTest11CurrentTest7ResultsEv
 4564      00
 4565 1e92 488B00   		movq	(%rax), %rax
 4566 1e95 488D8D90 		leaq	-2160(%rbp), %rcx
 4566      F7FFFF
 4567 1e9c BA000000 		movl	$.LC52, %edx
 4567      00
 4568 1ea1 4889CE   		movq	%rcx, %rsi
 4569 1ea4 4889C7   		movq	%rax, %rdi
 4570 1ea7 E8000000 		call	_ZN8UnitTest11TestResults13OnTestFailureERKNS_11TestDetailsEPKc
 4570      00
 4571              	.LEHE112:
 4572              	.LEHB113:
 4573 1eac E8000000 		call	__cxa_end_catch
 4573      00
 4574              	.LEHE113:
 129:TestTestMacros.cpp **** }
 4575              		.loc 6 129 0
 4576 1eb1 E9A8FEFF 		jmp	.L219
 4576      FF
 4577              	.L232:
 4578 1eb6 4889C3   		movq	%rax, %rbx
 4579              	.L223:
 4580 1eb9 488D85B0 		leaq	-2128(%rbp), %rax
 4580      F7FFFF
 4581 1ec0 4889C7   		movq	%rax, %rdi
 4582 1ec3 E8000000 		call	_ZN17RecordingReporterD1Ev
 4582      00
 4583 1ec8 4889D8   		movq	%rbx, %rax
 4584 1ecb 4889C7   		movq	%rax, %rdi
 4585              	.LEHB114:
 4586 1ece E8000000 		call	_Unwind_Resume
 4586      00
 4587              	.LEHE114:
 4588              	.L238:
 4589              	.LBE94:
 4590              		.loc 6 130 0 is_stmt 1
 4591 1ed3 E8000000 		call	__stack_chk_fail
 4591      00
 4592              	.L229:
 4593 1ed8 4881C4A8 		addq	$2216, %rsp
 4593      080000
 4594 1edf 5B       		popq	%rbx
 4595 1ee0 5D       		popq	%rbp
 4596              		.cfi_def_cfa 7, 8
 4597 1ee1 C3       		ret
 4598              		.cfi_endproc
 4599              	.LFE1124:
 4600              		.section	.gcc_except_table
 4601              		.align 4
 4602              	.LLSDA1124:
 4603 02a8 FF       		.byte	0xff
 4604 02a9 03       		.byte	0x3
 4605 02aa 5D       		.uleb128 .LLSDATT1124-.LLSDATTD1124
 4606              	.LLSDATTD1124:
 4607 02ab 01       		.byte	0x1
 4608 02ac 55       		.uleb128 .LLSDACSE1124-.LLSDACSB1124
 4609              	.LLSDACSB1124:
 4610 02ad 27       		.uleb128 .LEHB100-.LFB1124
 4611 02ae 5A       		.uleb128 .LEHE100-.LEHB100
 4612 02af EC03     		.uleb128 .L230-.LFB1124
 4613 02b1 01       		.uleb128 0x1
 4614 02b2 A401     		.uleb128 .LEHB101-.LFB1124
 4615 02b4 23       		.uleb128 .LEHE101-.LEHB101
 4616 02b5 8A06     		.uleb128 .L232-.LFB1124
 4617 02b7 00       		.uleb128 0
 4618 02b8 CC01     		.uleb128 .LEHB102-.LFB1124
 4619 02ba 0D       		.uleb128 .LEHE102-.LEHB102
 4620 02bb BC04     		.uleb128 .L233-.LFB1124
 4621 02bd 00       		.uleb128 0
 4622 02be E301     		.uleb128 .LEHB103-.LFB1124
 4623 02c0 14       		.uleb128 .LEHE103-.LEHB103
 4624 02c1 8A06     		.uleb128 .L232-.LFB1124
 4625 02c3 00       		.uleb128 0
 4626 02c4 FD01     		.uleb128 .LEHB104-.LFB1124
 4627 02c6 4E       		.uleb128 .LEHE104-.LEHB104
 4628 02c7 E004     		.uleb128 .L234-.LFB1124
 4629 02c9 01       		.uleb128 0x1
 4630 02ca F402     		.uleb128 .LEHB105-.LFB1124
 4631 02cc 3E       		.uleb128 .LEHE105-.LEHB105
 4632 02cd BA05     		.uleb128 .L236-.LFB1124
 4633 02cf 01       		.uleb128 0x1
 4634 02d0 BC03     		.uleb128 .LEHB106-.LFB1124
 4635 02d2 05       		.uleb128 .LEHE106-.LEHB106
 4636 02d3 00       		.uleb128 0
 4637 02d4 00       		.uleb128 0
 4638 02d5 E703     		.uleb128 .LEHB107-.LFB1124
 4639 02d7 05       		.uleb128 .LEHE107-.LEHB107
 4640 02d8 00       		.uleb128 0
 4641 02d9 00       		.uleb128 0
 4642 02da F403     		.uleb128 .LEHB108-.LFB1124
 4643 02dc 3E       		.uleb128 .LEHE108-.LEHB108
 4644 02dd D903     		.uleb128 .L231-.LFB1124
 4645 02df 00       		.uleb128 0
 4646 02e0 B204     		.uleb128 .LEHB109-.LFB1124
 4647 02e2 05       		.uleb128 .LEHE109-.LEHB109
 4648 02e3 00       		.uleb128 0
 4649 02e4 00       		.uleb128 0
 4650 02e5 E804     		.uleb128 .LEHB110-.LFB1124
 4651 02e7 3E       		.uleb128 .LEHE110-.LEHB110
 4652 02e8 D304     		.uleb128 .L235-.LFB1124
 4653 02ea 00       		.uleb128 0
 4654 02eb A605     		.uleb128 .LEHB111-.LFB1124
 4655 02ed 05       		.uleb128 .LEHE111-.LEHB111
 4656 02ee 8A06     		.uleb128 .L232-.LFB1124
 4657 02f0 00       		.uleb128 0
 4658 02f1 C205     		.uleb128 .LEHB112-.LFB1124
 4659 02f3 3E       		.uleb128 .LEHE112-.LEHB112
 4660 02f4 B005     		.uleb128 .L237-.LFB1124
 4661 02f6 00       		.uleb128 0
 4662 02f7 8006     		.uleb128 .LEHB113-.LFB1124
 4663 02f9 05       		.uleb128 .LEHE113-.LEHB113
 4664 02fa 8A06     		.uleb128 .L232-.LFB1124
 4665 02fc 00       		.uleb128 0
 4666 02fd A206     		.uleb128 .LEHB114-.LFB1124
 4667 02ff 05       		.uleb128 .LEHE114-.LEHB114
 4668 0300 00       		.uleb128 0
 4669 0301 00       		.uleb128 0
 4670              	.LLSDACSE1124:
 4671 0302 01       		.byte	0x1
 4672 0303 00       		.byte	0
 4673              		.align 4
 4674 0304 00000000 		.long	0
 4675              	
 4676              	.LLSDATT1124:
 4677              		.text
 4679              		.align 2
 4681              	_ZN12_GLOBAL__N_117FixtureDtorThrowsD2Ev:
 4682              	.LFB1126:
 131:TestTestMacros.cpp **** 
 132:TestTestMacros.cpp **** struct FixtureDtorThrows
 133:TestTestMacros.cpp **** {
 134:TestTestMacros.cpp **** 	~FixtureDtorThrows() { throw "exception"; }
 4683              		.loc 6 134 0
 4684              		.cfi_startproc
 4685 1ee2 55       		pushq	%rbp
 4686              		.cfi_def_cfa_offset 16
 4687              		.cfi_offset 6, -16
 4688 1ee3 4889E5   		movq	%rsp, %rbp
 4689              		.cfi_def_cfa_register 6
 4690 1ee6 4883EC10 		subq	$16, %rsp
 4691 1eea 48897DF8 		movq	%rdi, -8(%rbp)
 4692              	.LBB95:
 4693              		.loc 6 134 0
 4694 1eee BF080000 		movl	$8, %edi
 4694      00
 4695 1ef3 E8000000 		call	__cxa_allocate_exception
 4695      00
 4696 1ef8 48C70000 		movq	$.LC42, (%rax)
 4696      000000
 4697 1eff BA000000 		movl	$0, %edx
 4697      00
 4698 1f04 BE000000 		movl	$_ZTIPKc, %esi
 4698      00
 4699 1f09 4889C7   		movq	%rax, %rdi
 4700 1f0c E8000000 		call	__cxa_throw
 4700      00
 4701              	.LBE95:
 4702              		.cfi_endproc
 4703              	.LFE1126:
 4705              		.local	_ZN12_GLOBAL__N_124throwingFixtureTestList2E
 4706              		.comm	_ZN12_GLOBAL__N_124throwingFixtureTestList2E,16,16
 4707 1f11 90       		.align 2
 4709              	_ZN12_GLOBAL__N_117FixtureDtorThrowsC2Ev:
 4710              	.LFB1130:
 132:TestTestMacros.cpp **** {
 4711              		.loc 6 132 0
 4712              		.cfi_startproc
 4713 1f12 55       		pushq	%rbp
 4714              		.cfi_def_cfa_offset 16
 4715              		.cfi_offset 6, -16
 4716 1f13 4889E5   		movq	%rsp, %rbp
 4717              		.cfi_def_cfa_register 6
 4718 1f16 48897DF8 		movq	%rdi, -8(%rbp)
 132:TestTestMacros.cpp **** {
 4719              		.loc 6 132 0
 4720 1f1a 5D       		popq	%rbp
 4721              		.cfi_def_cfa 7, 8
 4722 1f1b C3       		ret
 4723              		.cfi_endproc
 4724              	.LFE1130:
 4726              		.align 2
 4728              	_ZN12_GLOBAL__N_148FixtureDtorThrowsFixtureDtorThrowsTestNameHelperC2ERKN8UnitTest11TestDetailsE:
 4729              	.LFB1132:
 135:TestTestMacros.cpp **** };
 136:TestTestMacros.cpp **** 
 137:TestTestMacros.cpp **** TestList throwingFixtureTestList2;
 138:TestTestMacros.cpp **** TEST_FIXTURE_EX(FixtureDtorThrows, FixtureDtorThrowsTestName, throwingFixtureTestList2)
 4730              		.loc 6 138 0
 4731              		.cfi_startproc
 4732 1f1c 55       		pushq	%rbp
 4733              		.cfi_def_cfa_offset 16
 4734              		.cfi_offset 6, -16
 4735 1f1d 4889E5   		movq	%rsp, %rbp
 4736              		.cfi_def_cfa_register 6
 4737 1f20 4883EC10 		subq	$16, %rsp
 4738 1f24 48897DF8 		movq	%rdi, -8(%rbp)
 4739 1f28 488975F0 		movq	%rsi, -16(%rbp)
 4740              	.LBB96:
 4741              		.loc 6 138 0
 4742 1f2c 488B45F8 		movq	-8(%rbp), %rax
 4743 1f30 4889C7   		movq	%rax, %rdi
 4744 1f33 E8DAFFFF 		call	_ZN12_GLOBAL__N_117FixtureDtorThrowsC2Ev
 4744      FF
 4745 1f38 488B45F8 		movq	-8(%rbp), %rax
 4746 1f3c 488B55F0 		movq	-16(%rbp), %rdx
 4747 1f40 488910   		movq	%rdx, (%rax)
 4748              	.LBE96:
 4749 1f43 C9       		leave
 4750              		.cfi_def_cfa 7, 8
 4751 1f44 C3       		ret
 4752              		.cfi_endproc
 4753              	.LFE1132:
 4755              		.set	_ZN12_GLOBAL__N_148FixtureDtorThrowsFixtureDtorThrowsTestNameHelperC1ERKN8UnitTest11TestDetai
 4756              		.section	.rodata
 4757              	.LC53:
 4758 09bf 46697874 		.string	"FixtureDtorThrowsTestName"
 4758      75726544 
 4758      746F7254 
 4758      68726F77 
 4758      73546573 
 4759              		.text
 4760 1f45 90       		.align 2
 4762              	_ZN12_GLOBAL__N_146TestFixtureDtorThrowsFixtureDtorThrowsTestNameC2Ev:
 4763              	.LFB1135:
 4764              		.loc 6 138 0
 4765              		.cfi_startproc
 4766 1f46 55       		pushq	%rbp
 4767              		.cfi_def_cfa_offset 16
 4768              		.cfi_offset 6, -16
 4769 1f47 4889E5   		movq	%rsp, %rbp
 4770              		.cfi_def_cfa_register 6
 4771 1f4a 4883EC10 		subq	$16, %rsp
 4772 1f4e 48897DF8 		movq	%rdi, -8(%rbp)
 4773              	.LBB97:
 4774              		.loc 6 138 0
 4775 1f52 E8000000 		call	_ZN13UnitTestSuite12GetSuiteNameEv
 4775      00
 4776 1f57 4889C2   		movq	%rax, %rdx
 4777 1f5a 488B45F8 		movq	-8(%rbp), %rax
 4778 1f5e 41B88A00 		movl	$138, %r8d
 4778      0000
 4779 1f64 B9000000 		movl	$.LC2, %ecx
 4779      00
 4780 1f69 BE000000 		movl	$.LC53, %esi
 4780      00
 4781 1f6e 4889C7   		movq	%rax, %rdi
 4782 1f71 E8000000 		call	_ZN8UnitTest4TestC2EPKcS2_S2_i
 4782      00
 4783 1f76 488B45F8 		movq	-8(%rbp), %rax
 4784 1f7a 48C70000 		movq	$_ZTVN12_GLOBAL__N_146TestFixtureDtorThrowsFixtureDtorThrowsTestNameE+16, (%rax)
 4784      000000
 4785              	.LBE97:
 4786 1f81 C9       		leave
 4787              		.cfi_def_cfa 7, 8
 4788 1f82 C3       		ret
 4789              		.cfi_endproc
 4790              	.LFE1135:
 4792              		.set	_ZN12_GLOBAL__N_146TestFixtureDtorThrowsFixtureDtorThrowsTestNameC1Ev,_ZN12_GLOBAL__N_146Test
 4793              		.local	_ZN12_GLOBAL__N_154testFixtureDtorThrowsFixtureDtorThrowsTestNameInstanceE
 4794              		.comm	_ZN12_GLOBAL__N_154testFixtureDtorThrowsFixtureDtorThrowsTestNameInstanceE,56,32
 4795              		.local	_ZN12_GLOBAL__N_147adderFixtureDtorThrowsFixtureDtorThrowsTestNameE
 4796              		.comm	_ZN12_GLOBAL__N_147adderFixtureDtorThrowsFixtureDtorThrowsTestNameE,1,1
 4797 1f83 90       		.align 2
 4799              	_ZN12_GLOBAL__N_148FixtureDtorThrowsFixtureDtorThrowsTestNameHelperD2Ev:
 4800              	.LFB1139:
 4801              		.loc 6 138 0
 4802              		.cfi_startproc
 4803 1f84 55       		pushq	%rbp
 4804              		.cfi_def_cfa_offset 16
 4805              		.cfi_offset 6, -16
 4806 1f85 4889E5   		movq	%rsp, %rbp
 4807              		.cfi_def_cfa_register 6
 4808 1f88 4883EC10 		subq	$16, %rsp
 4809 1f8c 48897DF8 		movq	%rdi, -8(%rbp)
 4810              	.LBB98:
 4811              		.loc 6 138 0
 4812 1f90 488B45F8 		movq	-8(%rbp), %rax
 4813 1f94 4889C7   		movq	%rax, %rdi
 4814 1f97 E846FFFF 		call	_ZN12_GLOBAL__N_117FixtureDtorThrowsD2Ev
 4814      FF
 4815              	.LBE98:
 4816 1f9c C9       		leave
 4817              		.cfi_def_cfa 7, 8
 4818 1f9d C3       		ret
 4819              		.cfi_endproc
 4820              	.LFE1139:
 4822              		.set	_ZN12_GLOBAL__N_148FixtureDtorThrowsFixtureDtorThrowsTestNameHelperD1Ev,_ZN12_GLOBAL__N_148Fi
 4823              		.section	.rodata
 4824 09d9 00000000 		.align 8
 4824      000000
 4825              	.LC54:
 4826 09e0 556E6861 		.string	"Unhandled exception while destroying fixture FixtureDtorThrows"
 4826      6E646C65 
 4826      64206578 
 4826      63657074 
 4826      696F6E20 
 4827 0a1f 00       		.align 8
 4828              	.LC55:
 4829 0a20 556E6861 		.string	"Unhandled exception while constructing fixture FixtureDtorThrows"
 4829      6E646C65 
 4829      64206578 
 4829      63657074 
 4829      696F6E20 
 4830              		.text
 4831              		.align 2
 4833              	_ZNK12_GLOBAL__N_146TestFixtureDtorThrowsFixtureDtorThrowsTestName7RunImplEv:
 4834              	.LFB1137:
 4835              		.loc 6 138 0
 4836              		.cfi_startproc
 4837              		.cfi_personality 0x3,__gxx_personality_v0
 4838              		.cfi_lsda 0x3,.LLSDA1137
 4839 1f9e 55       		pushq	%rbp
 4840              		.cfi_def_cfa_offset 16
 4841              		.cfi_offset 6, -16
 4842 1f9f 4889E5   		movq	%rsp, %rbp
 4843              		.cfi_def_cfa_register 6
 4844 1fa2 4154     		pushq	%r12
 4845 1fa4 53       		pushq	%rbx
 4846 1fa5 4881ECA0 		subq	$416, %rsp
 4846      010000
 4847              		.cfi_offset 12, -24
 4848              		.cfi_offset 3, -32
 4849 1fac 4889BD58 		movq	%rdi, -424(%rbp)
 4849      FEFFFF
 4850              	.LBB99:
 4851              		.loc 6 138 0
 4852 1fb3 C6856FFE 		movb	$0, -401(%rbp)
 4852      FFFF00
 4853              	.LBB100:
 4854 1fba 488B8558 		movq	-424(%rbp), %rax
 4854      FEFFFF
 4855 1fc1 488D5008 		leaq	8(%rax), %rdx
 4856 1fc5 488D8580 		leaq	-384(%rbp), %rax
 4856      FEFFFF
 4857 1fcc 4889D6   		movq	%rdx, %rsi
 4858 1fcf 4889C7   		movq	%rax, %rdi
 4859 1fd2 E845FFFF 		call	_ZN12_GLOBAL__N_148FixtureDtorThrowsFixtureDtorThrowsTestNameHelperC1ERKN8UnitTest11TestDetai
 4859      FF
 4860 1fd7 C6856FFE 		movb	$1, -401(%rbp)
 4860      FFFF01
 4861 1fde 488B8558 		movq	-424(%rbp), %rax
 4861      FEFFFF
 4862 1fe5 488D5008 		leaq	8(%rax), %rdx
 4863 1fe9 488D8580 		leaq	-384(%rbp), %rax
 4863      FEFFFF
 4864 1ff0 4889D6   		movq	%rdx, %rsi
 4865 1ff3 4889C7   		movq	%rax, %rdi
 4866              	.LEHB115:
 4867 1ff6 E86B1A00 		call	_ZN8UnitTest11ExecuteTestIN12_GLOBAL__N_148FixtureDtorThrowsFixtureDtorThrowsTestNameHelperEE
 4867      00
 4868              	.LEHE115:
 4869              		.loc 6 138 0 is_stmt 0 discriminator 1
 4870 1ffb 488D8580 		leaq	-384(%rbp), %rax
 4870      FEFFFF
 4871 2002 4889C7   		movq	%rax, %rdi
 4872              	.LEHB116:
 4873 2005 E87AFFFF 		call	_ZN12_GLOBAL__N_148FixtureDtorThrowsFixtureDtorThrowsTestNameHelperD1Ev
 4873      FF
 4874              	.LEHE116:
 4875              	.LBE100:
 4876              	.LBE99:
 4877              		.loc 6 138 0
 4878 200a E9640200 		jmp	.L265
 4878      00
 4879              	.L259:
 4880 200f 4989C4   		movq	%rax, %r12
 4881 2012 4889D3   		movq	%rdx, %rbx
 4882              	.LBB108:
 4883              	.LBB101:
 4884 2015 488D8580 		leaq	-384(%rbp), %rax
 4884      FEFFFF
 4885 201c 4889C7   		movq	%rax, %rdi
 4886 201f E860FFFF 		call	_ZN12_GLOBAL__N_148FixtureDtorThrowsFixtureDtorThrowsTestNameHelperD1Ev
 4886      FF
 4887 2024 4C89E0   		movq	%r12, %rax
 4888 2027 4889DA   		movq	%rbx, %rdx
 4889 202a EB00     		jmp	.L247
 4890              	.L258:
 4891              	.L247:
 4892 202c 4883FA01 		cmpq	$1, %rdx
 4893 2030 745C     		je	.L249
 4894 2032 4883FA02 		cmpq	$2, %rdx
 4895 2036 0F84F400 		je	.L250
 4895      0000
 4896 203c E9980100 		jmp	.L264
 4896      00
 4897              	.L260:
 4898 2041 4889C3   		movq	%rax, %rbx
 4899              	.LBE101:
 4900              	.LBB102:
 4901 2044 E8000000 		call	__cxa_end_catch
 4901      00
 4902 2049 4889D8   		movq	%rbx, %rax
 4903 204c 4889C7   		movq	%rax, %rdi
 4904              	.LEHB117:
 4905 204f E8000000 		call	_Unwind_Resume
 4905      00
 4906              	.LEHE117:
 4907              	.L261:
 4908 2054 4889C3   		movq	%rax, %rbx
 4909              	.LBE102:
 4910              	.LBB103:
 4911              	.LBB104:
 4912 2057 488D8580 		leaq	-384(%rbp), %rax
 4912      FEFFFF
 4913 205e 4889C7   		movq	%rax, %rdi
 4914 2061 E8000000 		call	_ZN8UnitTest15MemoryOutStreamD1Ev
 4914      00
 4915 2066 EB03     		jmp	.L253
 4916              	.L262:
 4917 2068 4889C3   		movq	%rax, %rbx
 4918              	.L253:
 4919              	.LBE104:
 4920 206b E8000000 		call	__cxa_end_catch
 4920      00
 4921 2070 4889D8   		movq	%rbx, %rax
 4922 2073 4889C7   		movq	%rax, %rdi
 4923              	.LEHB118:
 4924 2076 E8000000 		call	_Unwind_Resume
 4924      00
 4925              	.LEHE118:
 4926              	.L263:
 4927 207b 4889C3   		movq	%rax, %rbx
 4928              	.LBE103:
 4929 207e E8000000 		call	__cxa_end_catch
 4929      00
 4930 2083 4889D8   		movq	%rbx, %rax
 4931 2086 4889C7   		movq	%rax, %rdi
 4932              	.LEHB119:
 4933 2089 E8000000 		call	_Unwind_Resume
 4933      00
 4934              	.LEHE119:
 4935              	.L249:
 4936              	.LBB106:
 4937 208e 4889C7   		movq	%rax, %rdi
 4938 2091 E8000000 		call	__cxa_begin_catch
 4938      00
 4939 2096 48898570 		movq	%rax, -400(%rbp)
 4939      FEFFFF
 4940 209d 488B8570 		movq	-400(%rbp), %rax
 4940      FEFFFF
 4941 20a4 488B00   		movq	(%rax), %rax
 4942 20a7 4883C010 		addq	$16, %rax
 4943 20ab 488B00   		movq	(%rax), %rax
 4944 20ae 488B9570 		movq	-400(%rbp), %rdx
 4944      FEFFFF
 4945 20b5 4889D7   		movq	%rdx, %rdi
 4946 20b8 FFD0     		call	*%rax
 4947 20ba 4889C3   		movq	%rax, %rbx
 4948 20bd 488B8570 		movq	-400(%rbp), %rax
 4948      FEFFFF
 4949 20c4 4889C7   		movq	%rax, %rdi
 4950              	.LEHB120:
 4951 20c7 E8000000 		call	_ZNK8UnitTest15AssertException10LineNumberEv
 4951      00
 4952 20cc 4189C4   		movl	%eax, %r12d
 4953 20cf 488B8570 		movq	-400(%rbp), %rax
 4953      FEFFFF
 4954 20d6 4889C7   		movq	%rax, %rdi
 4955 20d9 E8000000 		call	_ZNK8UnitTest15AssertException8FilenameEv
 4955      00
 4956              		.loc 6 138 0 discriminator 1
 4957 20de 4889C1   		movq	%rax, %rcx
 4958 20e1 488B8558 		movq	-424(%rbp), %rax
 4958      FEFFFF
 4959 20e8 488B5008 		movq	8(%rax), %rdx
 4960 20ec 488B8558 		movq	-424(%rbp), %rax
 4960      FEFFFF
 4961 20f3 488B7010 		movq	16(%rax), %rsi
 4962 20f7 488D8580 		leaq	-384(%rbp), %rax
 4962      FEFFFF
 4963 20fe 4589E0   		movl	%r12d, %r8d
 4964 2101 4889C7   		movq	%rax, %rdi
 4965 2104 E8000000 		call	_ZN8UnitTest11TestDetailsC1EPKcS2_S2_i
 4965      00
 4966              		.loc 6 138 0 discriminator 3
 4967 2109 E8000000 		call	_ZN8UnitTest11CurrentTest7ResultsEv
 4967      00
 4968 210e 488B00   		movq	(%rax), %rax
 4969 2111 488D8D80 		leaq	-384(%rbp), %rcx
 4969      FEFFFF
 4970 2118 4889DA   		movq	%rbx, %rdx
 4971 211b 4889CE   		movq	%rcx, %rsi
 4972 211e 4889C7   		movq	%rax, %rdi
 4973 2121 E8000000 		call	_ZN8UnitTest11TestResults13OnTestFailureERKNS_11TestDetailsEPKc
 4973      00
 4974              	.LEHE120:
 4975              		.loc 6 138 0 discriminator 1
 4976 2126 E8000000 		call	__cxa_end_catch
 4976      00
 4977              	.LBE106:
 4978              	.LBE108:
 4979 212b E9430100 		jmp	.L265
 4979      00
 4980              	.L250:
 4981              	.LBB109:
 4982              	.LBB107:
 4983              		.loc 6 138 0
 4984 2130 4889C7   		movq	%rax, %rdi
 4985 2133 E8000000 		call	__cxa_begin_catch
 4985      00
 4986 2138 48898578 		movq	%rax, -392(%rbp)
 4986      FEFFFF
 4987              	.LBB105:
 4988 213f 488D8580 		leaq	-384(%rbp), %rax
 4988      FEFFFF
 4989 2146 4889C7   		movq	%rax, %rdi
 4990              	.LEHB121:
 4991 2149 E8000000 		call	_ZN8UnitTest15MemoryOutStreamC1Ev
 4991      00
 4992              	.LEHE121:
 4993              		.loc 6 138 0 discriminator 1
 4994 214e 488B8578 		movq	-392(%rbp), %rax
 4994      FEFFFF
 4995 2155 488B00   		movq	(%rax), %rax
 4996 2158 4883C010 		addq	$16, %rax
 4997 215c 488B00   		movq	(%rax), %rax
 4998 215f 488B9578 		movq	-392(%rbp), %rdx
 4998      FEFFFF
 4999 2166 4889D7   		movq	%rdx, %rdi
 5000 2169 FFD0     		call	*%rax
 5001 216b 4889C3   		movq	%rax, %rbx
 5002 216e 488D8580 		leaq	-384(%rbp), %rax
 5002      FEFFFF
 5003 2175 BE000000 		movl	$.LC11, %esi
 5003      00
 5004 217a 4889C7   		movq	%rax, %rdi
 5005              	.LEHB122:
 5006 217d E8000000 		call	_ZStlsISt11char_traitsIcEERSt13basic_ostreamIcT_ES5_PKc
 5006      00
 5007 2182 4889DE   		movq	%rbx, %rsi
 5008 2185 4889C7   		movq	%rax, %rdi
 5009 2188 E8000000 		call	_ZStlsISt11char_traitsIcEERSt13basic_ostreamIcT_ES5_PKc
 5009      00
 5010 218d 488D8580 		leaq	-384(%rbp), %rax
 5010      FEFFFF
 5011 2194 4889C7   		movq	%rax, %rdi
 5012 2197 E8000000 		call	_ZNK8UnitTest15MemoryOutStream7GetTextEv
 5012      00
 5013 219c 4889C3   		movq	%rax, %rbx
 5014 219f 488B8558 		movq	-424(%rbp), %rax
 5014      FEFFFF
 5015 21a6 4C8D6008 		leaq	8(%rax), %r12
 5016 21aa E8000000 		call	_ZN8UnitTest11CurrentTest7ResultsEv
 5016      00
 5017 21af 488B00   		movq	(%rax), %rax
 5018 21b2 4889DA   		movq	%rbx, %rdx
 5019 21b5 4C89E6   		movq	%r12, %rsi
 5020 21b8 4889C7   		movq	%rax, %rdi
 5021 21bb E8000000 		call	_ZN8UnitTest11TestResults13OnTestFailureERKNS_11TestDetailsEPKc
 5021      00
 5022              	.LEHE122:
 5023 21c0 488D8580 		leaq	-384(%rbp), %rax
 5023      FEFFFF
 5024 21c7 4889C7   		movq	%rax, %rdi
 5025              	.LEHB123:
 5026 21ca E8000000 		call	_ZN8UnitTest15MemoryOutStreamD1Ev
 5026      00
 5027              	.LEHE123:
 5028              	.LBE105:
 5029              		.loc 6 138 0
 5030 21cf E8000000 		call	__cxa_end_catch
 5030      00
 5031              	.LBE107:
 5032              	.LBE109:
 5033 21d4 E99A0000 		jmp	.L265
 5033      00
 5034              	.L264:
 5035              	.LBB110:
 5036 21d9 4889C7   		movq	%rax, %rdi
 5037 21dc E8000000 		call	__cxa_begin_catch
 5037      00
 5038 21e1 80BD6FFE 		cmpb	$0, -401(%rbp)
 5038      FFFF00
 5039 21e8 7443     		je	.L256
 5040              		.loc 6 138 0 discriminator 1
 5041 21ea 488B8558 		movq	-424(%rbp), %rax
 5041      FEFFFF
 5042 21f1 488D4808 		leaq	8(%rax), %rcx
 5043 21f5 488D8580 		leaq	-384(%rbp), %rax
 5043      FEFFFF
 5044 21fc BA8A0000 		movl	$138, %edx
 5044      00
 5045 2201 4889CE   		movq	%rcx, %rsi
 5046 2204 4889C7   		movq	%rax, %rdi
 5047              	.LEHB124:
 5048 2207 E8000000 		call	_ZN8UnitTest11TestDetailsC1ERKS0_i
 5048      00
 5049 220c E8000000 		call	_ZN8UnitTest11CurrentTest7ResultsEv
 5049      00
 5050 2211 488B00   		movq	(%rax), %rax
 5051 2214 488D8D80 		leaq	-384(%rbp), %rcx
 5051      FEFFFF
 5052 221b BA000000 		movl	$.LC54, %edx
 5052      00
 5053 2220 4889CE   		movq	%rcx, %rsi
 5054 2223 4889C7   		movq	%rax, %rdi
 5055 2226 E8000000 		call	_ZN8UnitTest11TestResults13OnTestFailureERKNS_11TestDetailsEPKc
 5055      00
 5056 222b EB41     		jmp	.L257
 5057              	.L256:
 5058              		.loc 6 138 0 discriminator 2
 5059 222d 488B8558 		movq	-424(%rbp), %rax
 5059      FEFFFF
 5060 2234 488D4808 		leaq	8(%rax), %rcx
 5061 2238 488D8580 		leaq	-384(%rbp), %rax
 5061      FEFFFF
 5062 223f BA8A0000 		movl	$138, %edx
 5062      00
 5063 2244 4889CE   		movq	%rcx, %rsi
 5064 2247 4889C7   		movq	%rax, %rdi
 5065 224a E8000000 		call	_ZN8UnitTest11TestDetailsC1ERKS0_i
 5065      00
 5066              		.loc 6 138 0 discriminator 1
 5067 224f E8000000 		call	_ZN8UnitTest11CurrentTest7ResultsEv
 5067      00
 5068 2254 488B00   		movq	(%rax), %rax
 5069 2257 488D8D80 		leaq	-384(%rbp), %rcx
 5069      FEFFFF
 5070 225e BA000000 		movl	$.LC55, %edx
 5070      00
 5071 2263 4889CE   		movq	%rcx, %rsi
 5072 2266 4889C7   		movq	%rax, %rdi
 5073 2269 E8000000 		call	_ZN8UnitTest11TestResults13OnTestFailureERKNS_11TestDetailsEPKc
 5073      00
 5074              	.LEHE124:
 5075              	.L257:
 5076              	.LEHB125:
 5077 226e E8000000 		call	__cxa_end_catch
 5077      00
 5078              	.LEHE125:
 5079              	.L265:
 5080              	.LBE110:
 5081              		.loc 6 138 0
 5082 2273 90       		nop
 5083 2274 4881C4A0 		addq	$416, %rsp
 5083      010000
 5084 227b 5B       		popq	%rbx
 5085 227c 415C     		popq	%r12
 5086 227e 5D       		popq	%rbp
 5087              		.cfi_def_cfa 7, 8
 5088 227f C3       		ret
 5089              		.cfi_endproc
 5090              	.LFE1137:
 5091              		.section	.gcc_except_table
 5092              		.align 4
 5093              	.LLSDA1137:
 5094 0308 FF       		.byte	0xff
 5095 0309 03       		.byte	0x3
 5096 030a 51       		.uleb128 .LLSDATT1137-.LLSDATTD1137
 5097              	.LLSDATTD1137:
 5098 030b 01       		.byte	0x1
 5099 030c 3B       		.uleb128 .LLSDACSE1137-.LLSDACSB1137
 5100              	.LLSDACSB1137:
 5101 030d 58       		.uleb128 .LEHB115-.LFB1137
 5102 030e 05       		.uleb128 .LEHE115-.LEHB115
 5103 030f 71       		.uleb128 .L259-.LFB1137
 5104 0310 07       		.uleb128 0x7
 5105 0311 67       		.uleb128 .LEHB116-.LFB1137
 5106 0312 05       		.uleb128 .LEHE116-.LEHB116
 5107 0313 8E01     		.uleb128 .L258-.LFB1137
 5108 0315 05       		.uleb128 0x5
 5109 0316 B101     		.uleb128 .LEHB117-.LFB1137
 5110 0318 05       		.uleb128 .LEHE117-.LEHB117
 5111 0319 00       		.uleb128 0
 5112 031a 00       		.uleb128 0
 5113 031b D801     		.uleb128 .LEHB118-.LFB1137
 5114 031d 05       		.uleb128 .LEHE118-.LEHB118
 5115 031e 00       		.uleb128 0
 5116 031f 00       		.uleb128 0
 5117 0320 EB01     		.uleb128 .LEHB119-.LFB1137
 5118 0322 05       		.uleb128 .LEHE119-.LEHB119
 5119 0323 00       		.uleb128 0
 5120 0324 00       		.uleb128 0
 5121 0325 A902     		.uleb128 .LEHB120-.LFB1137
 5122 0327 5F       		.uleb128 .LEHE120-.LEHB120
 5123 0328 A301     		.uleb128 .L260-.LFB1137
 5124 032a 00       		.uleb128 0
 5125 032b AB03     		.uleb128 .LEHB121-.LFB1137
 5126 032d 05       		.uleb128 .LEHE121-.LEHB121
 5127 032e CA01     		.uleb128 .L262-.LFB1137
 5128 0330 00       		.uleb128 0
 5129 0331 DF03     		.uleb128 .LEHB122-.LFB1137
 5130 0333 43       		.uleb128 .LEHE122-.LEHB122
 5131 0334 B601     		.uleb128 .L261-.LFB1137
 5132 0336 00       		.uleb128 0
 5133 0337 AC04     		.uleb128 .LEHB123-.LFB1137
 5134 0339 05       		.uleb128 .LEHE123-.LEHB123
 5135 033a CA01     		.uleb128 .L262-.LFB1137
 5136 033c 00       		.uleb128 0
 5137 033d E904     		.uleb128 .LEHB124-.LFB1137
 5138 033f 67       		.uleb128 .LEHE124-.LEHB124
 5139 0340 DD01     		.uleb128 .L263-.LFB1137
 5140 0342 00       		.uleb128 0
 5141 0343 D005     		.uleb128 .LEHB125-.LFB1137
 5142 0345 05       		.uleb128 .LEHE125-.LEHB125
 5143 0346 00       		.uleb128 0
 5144 0347 00       		.uleb128 0
 5145              	.LLSDACSE1137:
 5146 0348 03       		.byte	0x3
 5147 0349 00       		.byte	0
 5148 034a 02       		.byte	0x2
 5149 034b 7D       		.byte	0x7d
 5150 034c 01       		.byte	0x1
 5151 034d 7D       		.byte	0x7d
 5152 034e 00       		.byte	0
 5153 034f 7D       		.byte	0x7d
 5154              		.align 4
 5155 0350 00000000 		.long	0
 5156              	
 5157 0354 00000000 		.long	_ZTISt9exception
 5158 0358 00000000 		.long	_ZTIN8UnitTest15AssertExceptionE
 5159              	.LLSDATT1137:
 5160              		.text
 5162              		.align 2
 5164              	_ZN12_GLOBAL__N_148FixtureDtorThrowsFixtureDtorThrowsTestNameHelper7RunImplEv:
 5165              	.LFB1141:
 139:TestTestMacros.cpp **** {
 5166              		.loc 6 139 0 is_stmt 1
 5167              		.cfi_startproc
 5168 2280 55       		pushq	%rbp
 5169              		.cfi_def_cfa_offset 16
 5170              		.cfi_offset 6, -16
 5171 2281 4889E5   		movq	%rsp, %rbp
 5172              		.cfi_def_cfa_register 6
 5173 2284 48897DF8 		movq	%rdi, -8(%rbp)
 140:TestTestMacros.cpp **** }
 5174              		.loc 6 140 0
 5175 2288 5D       		popq	%rbp
 5176              		.cfi_def_cfa 7, 8
 5177 2289 C3       		ret
 5178              		.cfi_endproc
 5179              	.LFE1141:
 5181              		.section	.rodata
 5182 0a61 00000000 		.align 8
 5182      000000
 5183              	.LC56:
 5184 0a68 46697874 		.string	"FixturesWithThrowingDtorsAreFailures"
 5184      75726573 
 5184      57697468 
 5184      5468726F 
 5184      77696E67 
 5185              		.text
 5186              		.align 2
 5188              	_ZN12_GLOBAL__N_140TestFixturesWithThrowingDtorsAreFailuresC2Ev:
 5189              	.LFB1143:
 141:TestTestMacros.cpp **** 
