   1              		.file	"testSvf2Csvf.cpp"
   2              		.text
   3              	.Ltext0:
   4              		.section	.rodata
   5              	.LC0:
   6 0000 44656661 		.string	"DefaultSuite"
   6      756C7453 
   6      75697465 
   6      00
   7              		.section	.text._ZN13UnitTestSuite12GetSuiteNameEv,"axG",@progbits,_ZN13UnitTestSuite12GetSuiteName
   8              		.weak	_ZN13UnitTestSuite12GetSuiteNameEv
  10              	_ZN13UnitTestSuite12GetSuiteNameEv:
  11              	.LFB0:
  12              		.file 1 "/home/pandu/Desktop/DigitalLogicDesign/Lab/03-/makestuff/libs/libutpp/TestSuite.h"
   1:/home/pandu/Desktop/DigitalLogicDesign/Lab/03-/makestuff/libs/libutpp/TestSuite.h **** #ifndef UNITTEST_TESTSUITE_H
   2:/home/pandu/Desktop/DigitalLogicDesign/Lab/03-/makestuff/libs/libutpp/TestSuite.h **** #define UNITTEST_TESTSUITE_H
   3:/home/pandu/Desktop/DigitalLogicDesign/Lab/03-/makestuff/libs/libutpp/TestSuite.h **** 
   4:/home/pandu/Desktop/DigitalLogicDesign/Lab/03-/makestuff/libs/libutpp/TestSuite.h **** namespace UnitTestSuite {
   5:/home/pandu/Desktop/DigitalLogicDesign/Lab/03-/makestuff/libs/libutpp/TestSuite.h **** 
   6:/home/pandu/Desktop/DigitalLogicDesign/Lab/03-/makestuff/libs/libutpp/TestSuite.h ****     inline char const* GetSuiteName ()
   7:/home/pandu/Desktop/DigitalLogicDesign/Lab/03-/makestuff/libs/libutpp/TestSuite.h ****     {
  13              		.loc 1 7 0
  14              		.cfi_startproc
  15 0000 55       		pushq	%rbp
  16              		.cfi_def_cfa_offset 16
  17              		.cfi_offset 6, -16
  18 0001 4889E5   		movq	%rsp, %rbp
  19              		.cfi_def_cfa_register 6
   8:/home/pandu/Desktop/DigitalLogicDesign/Lab/03-/makestuff/libs/libutpp/TestSuite.h ****         return "DefaultSuite";
  20              		.loc 1 8 0
  21 0004 B8000000 		movl	$.LC0, %eax
  21      00
   9:/home/pandu/Desktop/DigitalLogicDesign/Lab/03-/makestuff/libs/libutpp/TestSuite.h ****     }
  22              		.loc 1 9 0
  23 0009 5D       		popq	%rbp
  24              		.cfi_def_cfa 7, 8
  25 000a C3       		ret
  26              		.cfi_endproc
  27              	.LFE0:
  29              		.section	.text._ZN8UnitTest15MemoryOutStreamC1Ev,"axG",@progbits,_ZN8UnitTest15MemoryOutStreamC1Ev
  30              		.align 2
  31              		.weak	_ZN8UnitTest15MemoryOutStreamC1Ev
  33              	_ZN8UnitTest15MemoryOutStreamC1Ev:
  34              	.LFB1007:
  35              		.file 2 "/home/pandu/Desktop/DigitalLogicDesign/Lab/03-/makestuff/libs/libutpp/MemoryOutStream.h"
   1:/home/pandu/Desktop/DigitalLogicDesign/Lab/03-/makestuff/libs/libutpp/MemoryOutStream.h **** #ifndef UNITTEST_MEMORYOUTSTREAM_H
   2:/home/pandu/Desktop/DigitalLogicDesign/Lab/03-/makestuff/libs/libutpp/MemoryOutStream.h **** #define UNITTEST_MEMORYOUTSTREAM_H
   3:/home/pandu/Desktop/DigitalLogicDesign/Lab/03-/makestuff/libs/libutpp/MemoryOutStream.h **** 
   4:/home/pandu/Desktop/DigitalLogicDesign/Lab/03-/makestuff/libs/libutpp/MemoryOutStream.h **** #include "Config.h"
   5:/home/pandu/Desktop/DigitalLogicDesign/Lab/03-/makestuff/libs/libutpp/MemoryOutStream.h **** 
   6:/home/pandu/Desktop/DigitalLogicDesign/Lab/03-/makestuff/libs/libutpp/MemoryOutStream.h **** #ifndef UNITTEST_USE_CUSTOM_STREAMS
   7:/home/pandu/Desktop/DigitalLogicDesign/Lab/03-/makestuff/libs/libutpp/MemoryOutStream.h **** 
   8:/home/pandu/Desktop/DigitalLogicDesign/Lab/03-/makestuff/libs/libutpp/MemoryOutStream.h **** #include <sstream>
   9:/home/pandu/Desktop/DigitalLogicDesign/Lab/03-/makestuff/libs/libutpp/MemoryOutStream.h **** 
  10:/home/pandu/Desktop/DigitalLogicDesign/Lab/03-/makestuff/libs/libutpp/MemoryOutStream.h **** namespace UnitTest
  11:/home/pandu/Desktop/DigitalLogicDesign/Lab/03-/makestuff/libs/libutpp/MemoryOutStream.h **** {
  12:/home/pandu/Desktop/DigitalLogicDesign/Lab/03-/makestuff/libs/libutpp/MemoryOutStream.h **** 
  13:/home/pandu/Desktop/DigitalLogicDesign/Lab/03-/makestuff/libs/libutpp/MemoryOutStream.h **** class MemoryOutStream : public std::ostringstream
  14:/home/pandu/Desktop/DigitalLogicDesign/Lab/03-/makestuff/libs/libutpp/MemoryOutStream.h **** {
  15:/home/pandu/Desktop/DigitalLogicDesign/Lab/03-/makestuff/libs/libutpp/MemoryOutStream.h **** public:
  16:/home/pandu/Desktop/DigitalLogicDesign/Lab/03-/makestuff/libs/libutpp/MemoryOutStream.h ****     MemoryOutStream() {}
  36              		.loc 2 16 0
  37              		.cfi_startproc
  38              		.cfi_personality 0x3,__gxx_personality_v0
  39              		.cfi_lsda 0x3,.LLSDA1007
  40 0000 55       		pushq	%rbp
  41              		.cfi_def_cfa_offset 16
  42              		.cfi_offset 6, -16
  43 0001 4889E5   		movq	%rsp, %rbp
  44              		.cfi_def_cfa_register 6
  45 0004 53       		pushq	%rbx
  46 0005 4883EC18 		subq	$24, %rsp
  47              		.cfi_offset 3, -24
  48 0009 48897DE8 		movq	%rdi, -24(%rbp)
  49              	.LBB2:
  50              		.loc 2 16 0
  51 000d 488B45E8 		movq	-24(%rbp), %rax
  52 0011 4883C060 		addq	$96, %rax
  53 0015 4889C7   		movq	%rax, %rdi
  54              	.LEHB0:
  55 0018 E8000000 		call	_ZNSt9basic_iosIcSt11char_traitsIcEEC2Ev
  55      00
  56              	.LEHE0:
  57 001d B9000000 		movl	$_ZTTN8UnitTest15MemoryOutStreamE+8, %ecx
  57      00
  58 0022 488B45E8 		movq	-24(%rbp), %rax
  59 0026 BA100000 		movl	$16, %edx
  59      00
  60 002b 4889CE   		movq	%rcx, %rsi
  61 002e 4889C7   		movq	%rax, %rdi
  62              	.LEHB1:
  63 0031 E8000000 		call	_ZNSt19basic_ostringstreamIcSt11char_traitsIcESaIcEEC2ESt13_Ios_Openmode
  63      00
  64              	.LEHE1:
  65              		.loc 2 16 0 is_stmt 0 discriminator 6
  66 0036 BA000000 		movl	$_ZTVN8UnitTest15MemoryOutStreamE+24, %edx
  66      00
  67 003b 488B45E8 		movq	-24(%rbp), %rax
  68 003f 488910   		movq	%rdx, (%rax)
  69 0042 BA600000 		movl	$96, %edx
  69      00
  70 0047 488B45E8 		movq	-24(%rbp), %rax
  71 004b 4801C2   		addq	%rax, %rdx
  72 004e B8000000 		movl	$_ZTVN8UnitTest15MemoryOutStreamE+64, %eax
  72      00
  73 0053 488902   		movq	%rax, (%rdx)
  74 0056 488B45E8 		movq	-24(%rbp), %rax
  75 005a 4883C058 		addq	$88, %rax
  76 005e 4889C7   		movq	%rax, %rdi
  77              	.LEHB2:
  78 0061 E8000000 		call	_ZNSsC1Ev
  78      00
  79              	.LEHE2:
  80              	.LBE2:
  81              		.loc 2 16 0
  82 0066 EB37     		jmp	.L8
  83              	.L6:
  84 0068 4889C3   		movq	%rax, %rbx
  85              	.LBB3:
  86 006b BA000000 		movl	$_ZTTN8UnitTest15MemoryOutStreamE+8, %edx
  86      00
  87 0070 488B45E8 		movq	-24(%rbp), %rax
  88 0074 4889D6   		movq	%rdx, %rsi
  89 0077 4889C7   		movq	%rax, %rdi
  90 007a E8000000 		call	_ZNSt19basic_ostringstreamIcSt11char_traitsIcESaIcEED2Ev
  90      00
  91 007f EB03     		jmp	.L5
  92              	.L7:
  93 0081 4889C3   		movq	%rax, %rbx
  94              	.L5:
  95              		.loc 2 16 0 discriminator 19
  96 0084 488B45E8 		movq	-24(%rbp), %rax
  97 0088 4883C060 		addq	$96, %rax
  98 008c 4889C7   		movq	%rax, %rdi
  99 008f E8000000 		call	_ZNSt9basic_iosIcSt11char_traitsIcEED2Ev
  99      00
 100 0094 4889D8   		movq	%rbx, %rax
 101 0097 4889C7   		movq	%rax, %rdi
 102              	.LEHB3:
 103 009a E8000000 		call	_Unwind_Resume
 103      00
 104              	.LEHE3:
 105              	.L8:
 106              	.LBE3:
 107              		.loc 2 16 0
 108 009f 4883C418 		addq	$24, %rsp
 109 00a3 5B       		popq	%rbx
 110 00a4 5D       		popq	%rbp
 111              		.cfi_def_cfa 7, 8
 112 00a5 C3       		ret
 113              		.cfi_endproc
 114              	.LFE1007:
 115              		.globl	__gxx_personality_v0
 116              		.section	.gcc_except_table._ZN8UnitTest15MemoryOutStreamC1Ev,"aG",@progbits,_ZN8UnitTest15MemoryOu
 117              	.LLSDA1007:
 118 0000 FF       		.byte	0xff
 119 0001 FF       		.byte	0xff
 120 0002 01       		.byte	0x1
 121 0003 12       		.uleb128 .LLSDACSE1007-.LLSDACSB1007
 122              	.LLSDACSB1007:
 123 0004 18       		.uleb128 .LEHB0-.LFB1007
 124 0005 05       		.uleb128 .LEHE0-.LEHB0
 125 0006 00       		.uleb128 0
 126 0007 00       		.uleb128 0
 127 0008 31       		.uleb128 .LEHB1-.LFB1007
 128 0009 05       		.uleb128 .LEHE1-.LEHB1
 129 000a 8101     		.uleb128 .L7-.LFB1007
 130 000c 00       		.uleb128 0
 131 000d 61       		.uleb128 .LEHB2-.LFB1007
 132 000e 05       		.uleb128 .LEHE2-.LEHB2
 133 000f 68       		.uleb128 .L6-.LFB1007
 134 0010 00       		.uleb128 0
 135 0011 9A01     		.uleb128 .LEHB3-.LFB1007
 136 0013 05       		.uleb128 .LEHE3-.LEHB3
 137 0014 00       		.uleb128 0
 138 0015 00       		.uleb128 0
 139              	.LLSDACSE1007:
 140              		.section	.text._ZN8UnitTest15MemoryOutStreamC1Ev,"axG",@progbits,_ZN8UnitTest15MemoryOutStreamC1Ev
 142              		.section	.rodata
 143              	.LC1:
 144 000d 25303258 		.string	"%02X"
 144      00
 145 0012 00000000 		.align 8
 145      0000
 146              	.LC2:
 147 0018 556E6861 		.string	"Unhandled exception in CHECK_EQUAL(FL_SUCCESS, fStatus)"
 147      6E646C65 
 147      64206578 
 147      63657074 
 147      696F6E20 
 148              		.align 8
 149              	.LC3:
 150 0050 556E6861 		.string	"Unhandled exception in CHECK_EQUAL(expectedLength, buf->length)"
 150      6E646C65 
 150      64206578 
 150      63657074 
 150      696F6E20 
 151              		.align 8
 152              	.LC4:
 153 0090 556E6861 		.string	"Unhandled exception in CHECK_EQUAL(expected, result)"
 153      6E646C65 
 153      64206578 
 153      63657074 
 153      696F6E20 
 154              		.text
 155              		.globl	_Z13testReadBytesP6BufferPKc
 157              	_Z13testReadBytesP6BufferPKc:
 158              	.LFB1023:
 159              		.file 3 "testSvf2Csvf.cpp"
   1:testSvf2Csvf.cpp **** /*
   2:testSvf2Csvf.cpp ****  * Copyright (C) 2009-2012 Chris McClelland
   3:testSvf2Csvf.cpp ****  *
   4:testSvf2Csvf.cpp ****  * This program is free software: you can redistribute it and/or modify
   5:testSvf2Csvf.cpp ****  * it under the terms of the GNU Lesser General Public License as published by
   6:testSvf2Csvf.cpp ****  * the Free Software Foundation, either version 3 of the License, or
   7:testSvf2Csvf.cpp ****  * (at your option) any later version.
   8:testSvf2Csvf.cpp ****  *
   9:testSvf2Csvf.cpp ****  * This program is distributed in the hope that it will be useful,
  10:testSvf2Csvf.cpp ****  * but WITHOUT ANY WARRANTY; without even the implied warranty of
  11:testSvf2Csvf.cpp ****  * MERCHANTABILITY or FITNESS FOR A PARTICULAR PURPOSE.  See the
  12:testSvf2Csvf.cpp ****  * GNU Lesser General Public License for more details.
  13:testSvf2Csvf.cpp ****  *
  14:testSvf2Csvf.cpp ****  * You should have received a copy of the GNU Lesser General Public License
  15:testSvf2Csvf.cpp ****  * along with this program.  If not, see <http://www.gnu.org/licenses/>.
  16:testSvf2Csvf.cpp ****  */
  17:testSvf2Csvf.cpp **** #include <cstdio>
  18:testSvf2Csvf.cpp **** #include <cstring>
  19:testSvf2Csvf.cpp **** #include <UnitTest++.h>
  20:testSvf2Csvf.cpp **** #include <makestuff.h>
  21:testSvf2Csvf.cpp **** #include <libbuffer.h>
  22:testSvf2Csvf.cpp **** #include "../svf2csvf.h"
  23:testSvf2Csvf.cpp **** #include "../xsvf.h"
  24:testSvf2Csvf.cpp **** 
  25:testSvf2Csvf.cpp **** using namespace std;
  26:testSvf2Csvf.cpp **** 
  27:testSvf2Csvf.cpp **** void testReadBytes(struct Buffer *buf, const char *expected) {
 160              		.loc 3 27 0 is_stmt 1
 161              		.cfi_startproc
 162              		.cfi_personality 0x3,__gxx_personality_v0
 163              		.cfi_lsda 0x3,.LLSDA1023
 164 0000 55       		pushq	%rbp
 165              		.cfi_def_cfa_offset 16
 166              		.cfi_offset 6, -16
 167 0001 4889E5   		movq	%rsp, %rbp
 168              		.cfi_def_cfa_register 6
 169 0004 53       		pushq	%rbx
 170 0005 4881EC58 		subq	$1112, %rsp
 170      040000
 171              		.cfi_offset 3, -24
 172 000c 4889BDA8 		movq	%rdi, -1112(%rbp)
 172      FBFFFF
 173 0013 4889B5A0 		movq	%rsi, -1120(%rbp)
 173      FBFFFF
 174              		.loc 3 27 0
 175 001a 64488B04 		movq	%fs:40, %rax
 175      25280000 
 175      00
 176 0023 488945E8 		movq	%rax, -24(%rbp)
 177 0027 31C0     		xorl	%eax, %eax
 178              	.LBB4:
  28:testSvf2Csvf.cpp **** 	FLStatus fStatus;
  29:testSvf2Csvf.cpp **** 	char result[1024];
  30:testSvf2Csvf.cpp **** 	const uint32 expectedLength = (uint32)strlen(expected)/2;
 179              		.loc 3 30 0
 180 0029 488B85A0 		movq	-1120(%rbp), %rax
 180      FBFFFF
 181 0030 4889C7   		movq	%rax, %rdi
 182 0033 E8000000 		call	strlen
 182      00
 183 0038 D1E8     		shrl	%eax
 184 003a 8985B4FB 		movl	%eax, -1100(%rbp)
 184      FFFF
  31:testSvf2Csvf.cpp **** 	bufZeroLength(buf);
 185              		.loc 3 31 0
 186 0040 488B85A8 		movq	-1112(%rbp), %rax
 186      FBFFFF
 187 0047 4889C7   		movq	%rax, %rdi
 188              	.LEHB4:
 189 004a E8000000 		call	bufZeroLength
 189      00
  32:testSvf2Csvf.cpp **** 	fStatus = readBytes(buf, expected, NULL);
 190              		.loc 3 32 0
 191 004f 488B8DA0 		movq	-1120(%rbp), %rcx
 191      FBFFFF
 192 0056 488B85A8 		movq	-1112(%rbp), %rax
 192      FBFFFF
 193 005d BA000000 		movl	$0, %edx
 193      00
 194 0062 4889CE   		movq	%rcx, %rsi
 195 0065 4889C7   		movq	%rax, %rdi
 196 0068 E8000000 		call	readBytes
 196      00
 197              	.LEHE4:
 198 006d 8985B0FB 		movl	%eax, -1104(%rbp)
 198      FFFF
 199              	.LEHB5:
  33:testSvf2Csvf.cpp **** 	CHECK_EQUAL(FL_SUCCESS, fStatus);
 200              		.loc 3 33 0
 201 0073 E8000000 		call	_ZN8UnitTest11CurrentTest7DetailsEv
 201      00
 202 0078 488B08   		movq	(%rax), %rcx
 203 007b 488D85C0 		leaq	-1088(%rbp), %rax
 203      FBFFFF
 204 0082 BA210000 		movl	$33, %edx
 204      00
 205 0087 4889CE   		movq	%rcx, %rsi
 206 008a 4889C7   		movq	%rax, %rdi
 207 008d E8000000 		call	_ZN8UnitTest11TestDetailsC1ERKS0_i
 207      00
 208              		.loc 3 33 0 is_stmt 0 discriminator 1
 209 0092 C785B8FB 		movl	$0, -1096(%rbp)
 209      FFFF0000 
 209      0000
 210 009c E8000000 		call	_ZN8UnitTest11CurrentTest7ResultsEv
 210      00
 211 00a1 488B00   		movq	(%rax), %rax
 212 00a4 488D8DC0 		leaq	-1088(%rbp), %rcx
 212      FBFFFF
 213 00ab 488D95B0 		leaq	-1104(%rbp), %rdx
 213      FBFFFF
 214 00b2 488DB5B8 		leaq	-1096(%rbp), %rsi
 214      FBFFFF
 215 00b9 4889C7   		movq	%rax, %rdi
 216 00bc E8000000 		call	_ZN8UnitTest10CheckEqualI8FLStatusS1_EEvRNS_11TestResultsERKT_RKT0_RKNS_11TestDetailsE
 216      00
 217              	.LEHE5:
 218              	.L14:
 219              	.LEHB6:
  34:testSvf2Csvf.cpp **** 	CHECK_EQUAL(expectedLength, buf->length);
 220              		.loc 3 34 0 is_stmt 1
 221 00c1 E8000000 		call	_ZN8UnitTest11CurrentTest7DetailsEv
 221      00
 222 00c6 488B08   		movq	(%rax), %rcx
 223 00c9 488D85C0 		leaq	-1088(%rbp), %rax
 223      FBFFFF
 224 00d0 BA220000 		movl	$34, %edx
 224      00
 225 00d5 4889CE   		movq	%rcx, %rsi
 226 00d8 4889C7   		movq	%rax, %rdi
 227 00db E8000000 		call	_ZN8UnitTest11TestDetailsC1ERKS0_i
 227      00
 228              		.loc 3 34 0 is_stmt 0 discriminator 1
 229 00e0 488B85A8 		movq	-1112(%rbp), %rax
 229      FBFFFF
 230 00e7 488D5808 		leaq	8(%rax), %rbx
 231 00eb E8000000 		call	_ZN8UnitTest11CurrentTest7ResultsEv
 231      00
 232 00f0 488B00   		movq	(%rax), %rax
 233 00f3 488D95C0 		leaq	-1088(%rbp), %rdx
 233      FBFFFF
 234 00fa 488DB5B4 		leaq	-1100(%rbp), %rsi
 234      FBFFFF
 235 0101 4889D1   		movq	%rdx, %rcx
 236 0104 4889DA   		movq	%rbx, %rdx
 237 0107 4889C7   		movq	%rax, %rdi
 238 010a E8000000 		call	_ZN8UnitTest10CheckEqualIjmEEvRNS_11TestResultsERKT_RKT0_RKNS_11TestDetailsE
 238      00
 239              	.LEHE6:
 240              	.L17:
 241              	.LBB5:
  35:testSvf2Csvf.cpp **** 	for ( uint32 i = 0; i < 2*buf->length; i++ ) {
 242              		.loc 3 35 0 is_stmt 1
 243 010f C785BCFB 		movl	$0, -1092(%rbp)
 243      FFFF0000 
 243      0000
 244 0119 EB48     		jmp	.L10
 245              	.L11:
  36:testSvf2Csvf.cpp **** 		sprintf(result + 2*i, "%02X", buf->data[i]);
 246              		.loc 3 36 0 discriminator 2
 247 011b 488B85A8 		movq	-1112(%rbp), %rax
 247      FBFFFF
 248 0122 488B10   		movq	(%rax), %rdx
 249 0125 8B85BCFB 		movl	-1092(%rbp), %eax
 249      FFFF
 250 012b 4801D0   		addq	%rdx, %rax
 251 012e 0FB600   		movzbl	(%rax), %eax
 252 0131 0FB6C0   		movzbl	%al, %eax
 253 0134 8B95BCFB 		movl	-1092(%rbp), %edx
 253      FFFF
 254 013a 01D2     		addl	%edx, %edx
 255 013c 89D2     		movl	%edx, %edx
 256 013e 488D8DE0 		leaq	-1056(%rbp), %rcx
 256      FBFFFF
 257 0145 4801D1   		addq	%rdx, %rcx
 258 0148 89C2     		movl	%eax, %edx
 259 014a BE000000 		movl	$.LC1, %esi
 259      00
 260 014f 4889CF   		movq	%rcx, %rdi
 261 0152 B8000000 		movl	$0, %eax
 261      00
 262 0157 E8000000 		call	sprintf
 262      00
  35:testSvf2Csvf.cpp **** 	for ( uint32 i = 0; i < 2*buf->length; i++ ) {
 263              		.loc 3 35 0 discriminator 2
 264 015c 8385BCFB 		addl	$1, -1092(%rbp)
 264      FFFF01
 265              	.L10:
  35:testSvf2Csvf.cpp **** 	for ( uint32 i = 0; i < 2*buf->length; i++ ) {
 266              		.loc 3 35 0 is_stmt 0 discriminator 1
 267 0163 8B95BCFB 		movl	-1092(%rbp), %edx
 267      FFFF
 268 0169 488B85A8 		movq	-1112(%rbp), %rax
 268      FBFFFF
 269 0170 488B4008 		movq	8(%rax), %rax
 270 0174 4801C0   		addq	%rax, %rax
 271 0177 4839C2   		cmpq	%rax, %rdx
 272 017a 729F     		jb	.L11
 273              	.LBE5:
  37:testSvf2Csvf.cpp **** 	}
  38:testSvf2Csvf.cpp **** 	result[2*buf->length] = '\0';
 274              		.loc 3 38 0 is_stmt 1
 275 017c 488B85A8 		movq	-1112(%rbp), %rax
 275      FBFFFF
 276 0183 488B4008 		movq	8(%rax), %rax
 277 0187 4801C0   		addq	%rax, %rax
 278 018a C68405E0 		movb	$0, -1056(%rbp,%rax)
 278      FBFFFF00 
 279              	.LEHB7:
  39:testSvf2Csvf.cpp **** 	CHECK_EQUAL(expected, result);
 280              		.loc 3 39 0
 281 0192 E8000000 		call	_ZN8UnitTest11CurrentTest7DetailsEv
 281      00
 282 0197 488B08   		movq	(%rax), %rcx
 283 019a 488D85C0 		leaq	-1088(%rbp), %rax
 283      FBFFFF
 284 01a1 BA270000 		movl	$39, %edx
 284      00
 285 01a6 4889CE   		movq	%rcx, %rsi
 286 01a9 4889C7   		movq	%rax, %rdi
 287 01ac E8000000 		call	_ZN8UnitTest11TestDetailsC1ERKS0_i
 287      00
 288              		.loc 3 39 0 is_stmt 0 discriminator 1
 289 01b1 E8000000 		call	_ZN8UnitTest11CurrentTest7ResultsEv
 289      00
 290 01b6 488B00   		movq	(%rax), %rax
 291 01b9 488D8DC0 		leaq	-1088(%rbp), %rcx
 291      FBFFFF
 292 01c0 488D95E0 		leaq	-1056(%rbp), %rdx
 292      FBFFFF
 293 01c7 488BB5A0 		movq	-1120(%rbp), %rsi
 293      FBFFFF
 294 01ce 4889C7   		movq	%rax, %rdi
 295 01d1 E8000000 		call	_ZN8UnitTest10CheckEqualERNS_11TestResultsEPKcPcRKNS_11TestDetailsE
 295      00
 296              	.LEHE7:
 297              	.LBE4:
  40:testSvf2Csvf.cpp **** }
 298              		.loc 3 40 0 is_stmt 1
 299 01d6 E9240100 		jmp	.L28
 299      00
 300              	.L23:
 301 01db 4889C3   		movq	%rax, %rbx
 302              	.LBB6:
  33:testSvf2Csvf.cpp **** 	CHECK_EQUAL(expectedLength, buf->length);
 303              		.loc 3 33 0
 304 01de E8000000 		call	__cxa_end_catch
 304      00
 305 01e3 4889D8   		movq	%rbx, %rax
 306 01e6 4889C7   		movq	%rax, %rdi
 307              	.LEHB8:
 308 01e9 E8000000 		call	_Unwind_Resume
 308      00
 309              	.LEHE8:
 310              	.L22:
 311 01ee 4889C7   		movq	%rax, %rdi
 312 01f1 E8000000 		call	__cxa_begin_catch
 312      00
 313              	.LEHB9:
 314 01f6 E8000000 		call	_ZN8UnitTest11CurrentTest7DetailsEv
 314      00
 315 01fb 488B08   		movq	(%rax), %rcx
 316 01fe 488D85C0 		leaq	-1088(%rbp), %rax
 316      FBFFFF
 317 0205 BA210000 		movl	$33, %edx
 317      00
 318 020a 4889CE   		movq	%rcx, %rsi
 319 020d 4889C7   		movq	%rax, %rdi
 320 0210 E8000000 		call	_ZN8UnitTest11TestDetailsC1ERKS0_i
 320      00
  33:testSvf2Csvf.cpp **** 	CHECK_EQUAL(expectedLength, buf->length);
 321              		.loc 3 33 0 is_stmt 0 discriminator 1
 322 0215 E8000000 		call	_ZN8UnitTest11CurrentTest7ResultsEv
 322      00
 323 021a 488B00   		movq	(%rax), %rax
 324 021d 488D8DC0 		leaq	-1088(%rbp), %rcx
 324      FBFFFF
 325 0224 BA000000 		movl	$.LC2, %edx
 325      00
 326 0229 4889CE   		movq	%rcx, %rsi
 327 022c 4889C7   		movq	%rax, %rdi
 328 022f E8000000 		call	_ZN8UnitTest11TestResults13OnTestFailureERKNS_11TestDetailsEPKc
 328      00
 329              	.LEHE9:
 330              	.LEHB10:
 331 0234 E8000000 		call	__cxa_end_catch
 331      00
 332              	.LEHE10:
 333 0239 E983FEFF 		jmp	.L14
 333      FF
 334              	.L25:
 335 023e 4889C3   		movq	%rax, %rbx
  34:testSvf2Csvf.cpp **** 	for ( uint32 i = 0; i < 2*buf->length; i++ ) {
 336              		.loc 3 34 0 is_stmt 1
 337 0241 E8000000 		call	__cxa_end_catch
 337      00
 338 0246 4889D8   		movq	%rbx, %rax
 339 0249 4889C7   		movq	%rax, %rdi
 340              	.LEHB11:
 341 024c E8000000 		call	_Unwind_Resume
 341      00
 342              	.LEHE11:
 343              	.L24:
 344 0251 4889C7   		movq	%rax, %rdi
 345 0254 E8000000 		call	__cxa_begin_catch
 345      00
 346              	.LEHB12:
 347 0259 E8000000 		call	_ZN8UnitTest11CurrentTest7DetailsEv
 347      00
 348 025e 488B08   		movq	(%rax), %rcx
 349 0261 488D85C0 		leaq	-1088(%rbp), %rax
 349      FBFFFF
 350 0268 BA220000 		movl	$34, %edx
 350      00
 351 026d 4889CE   		movq	%rcx, %rsi
 352 0270 4889C7   		movq	%rax, %rdi
 353 0273 E8000000 		call	_ZN8UnitTest11TestDetailsC1ERKS0_i
 353      00
  34:testSvf2Csvf.cpp **** 	for ( uint32 i = 0; i < 2*buf->length; i++ ) {
 354              		.loc 3 34 0 is_stmt 0 discriminator 1
 355 0278 E8000000 		call	_ZN8UnitTest11CurrentTest7ResultsEv
 355      00
 356 027d 488B00   		movq	(%rax), %rax
 357 0280 488D8DC0 		leaq	-1088(%rbp), %rcx
 357      FBFFFF
 358 0287 BA000000 		movl	$.LC3, %edx
 358      00
 359 028c 4889CE   		movq	%rcx, %rsi
 360 028f 4889C7   		movq	%rax, %rdi
 361 0292 E8000000 		call	_ZN8UnitTest11TestResults13OnTestFailureERKNS_11TestDetailsEPKc
 361      00
 362              	.LEHE12:
 363              	.LEHB13:
 364 0297 E8000000 		call	__cxa_end_catch
 364      00
 365              	.LEHE13:
 366 029c E96EFEFF 		jmp	.L17
 366      FF
 367              	.L27:
 368 02a1 4889C3   		movq	%rax, %rbx
  39:testSvf2Csvf.cpp **** }
 369              		.loc 3 39 0 is_stmt 1
 370 02a4 E8000000 		call	__cxa_end_catch
 370      00
 371 02a9 4889D8   		movq	%rbx, %rax
 372 02ac 4889C7   		movq	%rax, %rdi
 373              	.LEHB14:
 374 02af E8000000 		call	_Unwind_Resume
 374      00
 375              	.LEHE14:
 376              	.L26:
 377 02b4 4889C7   		movq	%rax, %rdi
 378 02b7 E8000000 		call	__cxa_begin_catch
 378      00
 379              	.LEHB15:
 380 02bc E8000000 		call	_ZN8UnitTest11CurrentTest7DetailsEv
 380      00
 381 02c1 488B08   		movq	(%rax), %rcx
 382 02c4 488D85C0 		leaq	-1088(%rbp), %rax
 382      FBFFFF
 383 02cb BA270000 		movl	$39, %edx
 383      00
 384 02d0 4889CE   		movq	%rcx, %rsi
 385 02d3 4889C7   		movq	%rax, %rdi
 386 02d6 E8000000 		call	_ZN8UnitTest11TestDetailsC1ERKS0_i
 386      00
  39:testSvf2Csvf.cpp **** }
 387              		.loc 3 39 0 is_stmt 0 discriminator 1
 388 02db E8000000 		call	_ZN8UnitTest11CurrentTest7ResultsEv
 388      00
 389 02e0 488B00   		movq	(%rax), %rax
 390 02e3 488D8DC0 		leaq	-1088(%rbp), %rcx
 390      FBFFFF
 391 02ea BA000000 		movl	$.LC4, %edx
 391      00
 392 02ef 4889CE   		movq	%rcx, %rsi
 393 02f2 4889C7   		movq	%rax, %rdi
 394 02f5 E8000000 		call	_ZN8UnitTest11TestResults13OnTestFailureERKNS_11TestDetailsEPKc
 394      00
 395              	.LEHE15:
 396              	.LEHB16:
 397 02fa E8000000 		call	__cxa_end_catch
 397      00
 398              	.LEHE16:
 399              	.L28:
 400              	.LBE6:
 401              		.loc 3 40 0 is_stmt 1
 402 02ff 90       		nop
 403 0300 488B45E8 		movq	-24(%rbp), %rax
 404 0304 64483304 		xorq	%fs:40, %rax
 404      25280000 
 404      00
 405 030d 7405     		je	.L21
 406 030f E8000000 		call	__stack_chk_fail
 406      00
 407              	.L21:
 408 0314 4881C458 		addq	$1112, %rsp
 408      040000
 409 031b 5B       		popq	%rbx
 410 031c 5D       		popq	%rbp
 411              		.cfi_def_cfa 7, 8
 412 031d C3       		ret
 413              		.cfi_endproc
 414              	.LFE1023:
 415              		.section	.gcc_except_table,"a",@progbits
 416              		.align 4
 417              	.LLSDA1023:
 418 0000 FF       		.byte	0xff
 419 0001 03       		.byte	0x3
 420 0002 4D       		.uleb128 .LLSDATT1023-.LLSDATTD1023
 421              	.LLSDATTD1023:
 422 0003 01       		.byte	0x1
 423 0004 45       		.uleb128 .LLSDACSE1023-.LLSDACSB1023
 424              	.LLSDACSB1023:
 425 0005 4A       		.uleb128 .LEHB4-.LFB1023
 426 0006 23       		.uleb128 .LEHE4-.LEHB4
 427 0007 00       		.uleb128 0
 428 0008 00       		.uleb128 0
 429 0009 73       		.uleb128 .LEHB5-.LFB1023
 430 000a 4E       		.uleb128 .LEHE5-.LEHB5
 431 000b EE03     		.uleb128 .L22-.LFB1023
 432 000d 01       		.uleb128 0x1
 433 000e C101     		.uleb128 .LEHB6-.LFB1023
 434 0010 4E       		.uleb128 .LEHE6-.LEHB6
 435 0011 D104     		.uleb128 .L24-.LFB1023
 436 0013 01       		.uleb128 0x1
 437 0014 9203     		.uleb128 .LEHB7-.LFB1023
 438 0016 44       		.uleb128 .LEHE7-.LEHB7
 439 0017 B405     		.uleb128 .L26-.LFB1023
 440 0019 01       		.uleb128 0x1
 441 001a E903     		.uleb128 .LEHB8-.LFB1023
 442 001c 05       		.uleb128 .LEHE8-.LEHB8
 443 001d 00       		.uleb128 0
 444 001e 00       		.uleb128 0
 445 001f F603     		.uleb128 .LEHB9-.LFB1023
 446 0021 3E       		.uleb128 .LEHE9-.LEHB9
 447 0022 DB03     		.uleb128 .L23-.LFB1023
 448 0024 00       		.uleb128 0
 449 0025 B404     		.uleb128 .LEHB10-.LFB1023
 450 0027 05       		.uleb128 .LEHE10-.LEHB10
 451 0028 00       		.uleb128 0
 452 0029 00       		.uleb128 0
 453 002a CC04     		.uleb128 .LEHB11-.LFB1023
 454 002c 05       		.uleb128 .LEHE11-.LEHB11
 455 002d 00       		.uleb128 0
 456 002e 00       		.uleb128 0
 457 002f D904     		.uleb128 .LEHB12-.LFB1023
 458 0031 3E       		.uleb128 .LEHE12-.LEHB12
 459 0032 BE04     		.uleb128 .L25-.LFB1023
 460 0034 00       		.uleb128 0
 461 0035 9705     		.uleb128 .LEHB13-.LFB1023
 462 0037 05       		.uleb128 .LEHE13-.LEHB13
 463 0038 00       		.uleb128 0
 464 0039 00       		.uleb128 0
 465 003a AF05     		.uleb128 .LEHB14-.LFB1023
 466 003c 05       		.uleb128 .LEHE14-.LEHB14
 467 003d 00       		.uleb128 0
 468 003e 00       		.uleb128 0
 469 003f BC05     		.uleb128 .LEHB15-.LFB1023
 470 0041 3E       		.uleb128 .LEHE15-.LEHB15
 471 0042 A105     		.uleb128 .L27-.LFB1023
 472 0044 00       		.uleb128 0
 473 0045 FA05     		.uleb128 .LEHB16-.LFB1023
 474 0047 05       		.uleb128 .LEHE16-.LEHB16
 475 0048 00       		.uleb128 0
 476 0049 00       		.uleb128 0
 477              	.LLSDACSE1023:
 478 004a 01       		.byte	0x1
 479 004b 00       		.byte	0
 480              		.align 4
 481 004c 00000000 		.long	0
 482              	
 483              	.LLSDATT1023:
 484              		.text
 486              		.section	.rodata
 487              	.LC5:
 488 00c5 74657374 		.string	"testSvf2Csvf.cpp"
 488      53766632 
 488      43737666 
 488      2E637070 
 488      00
 489              	.LC6:
 490 00d6 46504741 		.string	"FPGALink_testReadBytes"
 490      4C696E6B 
 490      5F746573 
 490      74526561 
 490      64427974 
 491              		.section	.text._ZN26TestFPGALink_testReadBytesC2Ev,"axG",@progbits,_ZN26TestFPGALink_testReadBytes
 492              		.align 2
 493              		.weak	_ZN26TestFPGALink_testReadBytesC2Ev
 495              	_ZN26TestFPGALink_testReadBytesC2Ev:
 496              	.LFB1025:
  41:testSvf2Csvf.cpp **** 
  42:testSvf2Csvf.cpp **** TEST(FPGALink_testReadBytes) {
 497              		.loc 3 42 0
 498              		.cfi_startproc
 499 0000 55       		pushq	%rbp
 500              		.cfi_def_cfa_offset 16
 501              		.cfi_offset 6, -16
 502 0001 4889E5   		movq	%rsp, %rbp
 503              		.cfi_def_cfa_register 6
 504 0004 4883EC10 		subq	$16, %rsp
 505 0008 48897DF8 		movq	%rdi, -8(%rbp)
 506              	.LBB7:
 507              		.loc 3 42 0
 508 000c E8000000 		call	_ZN13UnitTestSuite12GetSuiteNameEv
 508      00
 509 0011 4889C2   		movq	%rax, %rdx
 510 0014 488B45F8 		movq	-8(%rbp), %rax
 511 0018 41B82A00 		movl	$42, %r8d
 511      0000
 512 001e B9000000 		movl	$.LC5, %ecx
 512      00
 513 0023 BE000000 		movl	$.LC6, %esi
 513      00
 514 0028 4889C7   		movq	%rax, %rdi
 515 002b E8000000 		call	_ZN8UnitTest4TestC2EPKcS2_S2_i
 515      00
 516 0030 488B45F8 		movq	-8(%rbp), %rax
 517 0034 48C70000 		movq	$_ZTV26TestFPGALink_testReadBytes+16, (%rax)
 517      000000
 518              	.LBE7:
 519 003b C9       		leave
 520              		.cfi_def_cfa 7, 8
 521 003c C3       		ret
 522              		.cfi_endproc
 523              	.LFE1025:
 525              		.weak	_ZN26TestFPGALink_testReadBytesC1Ev
 526              		.set	_ZN26TestFPGALink_testReadBytesC1Ev,_ZN26TestFPGALink_testReadBytesC2Ev
 527              		.globl	testFPGALink_testReadBytesInstance
 528              		.bss
 529              		.align 32
 532              	testFPGALink_testReadBytesInstance:
 533 0000 00000000 		.zero	56
 533      00000000 
 533      00000000 
 533      00000000 
 533      00000000 
 534              		.globl	adderFPGALink_testReadBytes
 537              	adderFPGALink_testReadBytes:
 538 0038 00       		.zero	1
 539              		.section	.rodata
 540              	.LC7:
 541 00ed 464500   		.string	"FE"
 542              	.LC8:
 543 00f0 43414645 		.string	"CAFE"
 543      00
 544              	.LC9:
 545 00f5 46303044 		.string	"F00D1E"
 545      314500
 546              	.LC10:
 547 00fc 44454144 		.string	"DEADF00D"
 547      46303044 
 547      00
 548              	.LC11:
 549 0105 43414645 		.string	"CAFEF00D1E"
 549      46303044 
 549      314500
 550              	.LC12:
 551 0110 44454144 		.string	"DEADCAFEBABE"
 551      43414645 
 551      42414245 
 551      00
 552 011d 000000   		.align 8
 553              	.LC13:
 554 0120 556E6861 		.string	"Unhandled exception in CHECK_EQUAL(BUF_SUCCESS, bStatus)"
 554      6E646C65 
 554      64206578 
 554      63657074 
 554      696F6E20 
 555              		.text
 556              		.align 2
 557              		.globl	_ZNK26TestFPGALink_testReadBytes7RunImplEv
 559              	_ZNK26TestFPGALink_testReadBytes7RunImplEv:
 560              	.LFB1027:
 561              		.loc 3 42 0
 562              		.cfi_startproc
 563              		.cfi_personality 0x3,__gxx_personality_v0
 564              		.cfi_lsda 0x3,.LLSDA1027
 565 031e 55       		pushq	%rbp
 566              		.cfi_def_cfa_offset 16
 567              		.cfi_offset 6, -16
 568 031f 4889E5   		movq	%rsp, %rbp
 569              		.cfi_def_cfa_register 6
 570 0322 53       		pushq	%rbx
 571 0323 4883EC68 		subq	$104, %rsp
 572              		.cfi_offset 3, -24
 573 0327 48897D98 		movq	%rdi, -104(%rbp)
 574              	.LBB8:
  43:testSvf2Csvf.cpp **** 	struct Buffer lineBuf;
  44:testSvf2Csvf.cpp **** 	BufferStatus bStatus;
  45:testSvf2Csvf.cpp **** 	bStatus = bufInitialise(&lineBuf, 1024, 0x00, NULL);
 575              		.loc 3 45 0
 576 032b 488D45B0 		leaq	-80(%rbp), %rax
 577 032f B9000000 		movl	$0, %ecx
 577      00
 578 0334 BA000000 		movl	$0, %edx
 578      00
 579 0339 BE000400 		movl	$1024, %esi
 579      00
 580 033e 4889C7   		movq	%rax, %rdi
 581              	.LEHB17:
 582 0341 E8000000 		call	bufInitialise
 582      00
 583              	.LEHE17:
 584 0346 8945A8   		movl	%eax, -88(%rbp)
 585              	.LEHB18:
  46:testSvf2Csvf.cpp **** 	CHECK_EQUAL(BUF_SUCCESS, bStatus);
 586              		.loc 3 46 0
 587 0349 E8000000 		call	_ZN8UnitTest11CurrentTest7DetailsEv
 587      00
 588 034e 488B08   		movq	(%rax), %rcx
 589 0351 488D45D0 		leaq	-48(%rbp), %rax
 590 0355 BA2E0000 		movl	$46, %edx
 590      00
 591 035a 4889CE   		movq	%rcx, %rsi
 592 035d 4889C7   		movq	%rax, %rdi
 593 0360 E8000000 		call	_ZN8UnitTest11TestDetailsC1ERKS0_i
 593      00
 594              		.loc 3 46 0 is_stmt 0 discriminator 1
 595 0365 C745AC00 		movl	$0, -84(%rbp)
 595      000000
 596 036c E8000000 		call	_ZN8UnitTest11CurrentTest7ResultsEv
 596      00
 597 0371 488B00   		movq	(%rax), %rax
 598 0374 488D4DD0 		leaq	-48(%rbp), %rcx
 599 0378 488D55A8 		leaq	-88(%rbp), %rdx
 600 037c 488D75AC 		leaq	-84(%rbp), %rsi
 601 0380 4889C7   		movq	%rax, %rdi
 602 0383 E8000000 		call	_ZN8UnitTest10CheckEqualI12BufferStatusS1_EEvRNS_11TestResultsERKT_RKT0_RKNS_11TestDetailsE
 602      00
 603              	.LEHE18:
 604              	.L33:
  47:testSvf2Csvf.cpp **** 
  48:testSvf2Csvf.cpp **** 	testReadBytes(&lineBuf, "FE");
 605              		.loc 3 48 0 is_stmt 1
 606 0388 488D45B0 		leaq	-80(%rbp), %rax
 607 038c BE000000 		movl	$.LC7, %esi
 607      00
 608 0391 4889C7   		movq	%rax, %rdi
 609              	.LEHB19:
 610 0394 E8000000 		call	_Z13testReadBytesP6BufferPKc
 610      00
  49:testSvf2Csvf.cpp **** 	testReadBytes(&lineBuf, "CAFE");
 611              		.loc 3 49 0
 612 0399 488D45B0 		leaq	-80(%rbp), %rax
 613 039d BE000000 		movl	$.LC8, %esi
 613      00
 614 03a2 4889C7   		movq	%rax, %rdi
 615 03a5 E8000000 		call	_Z13testReadBytesP6BufferPKc
 615      00
  50:testSvf2Csvf.cpp **** 	testReadBytes(&lineBuf, "F00D1E");
 616              		.loc 3 50 0
 617 03aa 488D45B0 		leaq	-80(%rbp), %rax
 618 03ae BE000000 		movl	$.LC9, %esi
 618      00
 619 03b3 4889C7   		movq	%rax, %rdi
 620 03b6 E8000000 		call	_Z13testReadBytesP6BufferPKc
 620      00
  51:testSvf2Csvf.cpp **** 	testReadBytes(&lineBuf, "DEADF00D");
 621              		.loc 3 51 0
 622 03bb 488D45B0 		leaq	-80(%rbp), %rax
 623 03bf BE000000 		movl	$.LC10, %esi
 623      00
 624 03c4 4889C7   		movq	%rax, %rdi
 625 03c7 E8000000 		call	_Z13testReadBytesP6BufferPKc
 625      00
  52:testSvf2Csvf.cpp **** 	testReadBytes(&lineBuf, "CAFEF00D1E");
 626              		.loc 3 52 0
 627 03cc 488D45B0 		leaq	-80(%rbp), %rax
 628 03d0 BE000000 		movl	$.LC11, %esi
 628      00
 629 03d5 4889C7   		movq	%rax, %rdi
 630 03d8 E8000000 		call	_Z13testReadBytesP6BufferPKc
 630      00
  53:testSvf2Csvf.cpp **** 	testReadBytes(&lineBuf, "DEADCAFEBABE");
 631              		.loc 3 53 0
 632 03dd 488D45B0 		leaq	-80(%rbp), %rax
 633 03e1 BE000000 		movl	$.LC12, %esi
 633      00
 634 03e6 4889C7   		movq	%rax, %rdi
 635 03e9 E8000000 		call	_Z13testReadBytesP6BufferPKc
 635      00
  54:testSvf2Csvf.cpp **** 
  55:testSvf2Csvf.cpp **** 	bufDestroy(&lineBuf);
 636              		.loc 3 55 0
 637 03ee 488D45B0 		leaq	-80(%rbp), %rax
 638 03f2 4889C7   		movq	%rax, %rdi
 639 03f5 E8000000 		call	bufDestroy
 639      00
 640              	.LEHE19:
 641 03fa EB5D     		jmp	.L36
 642              	.L35:
 643 03fc 4889C3   		movq	%rax, %rbx
  46:testSvf2Csvf.cpp **** 
 644              		.loc 3 46 0
 645 03ff E8000000 		call	__cxa_end_catch
 645      00
 646 0404 4889D8   		movq	%rbx, %rax
 647 0407 4889C7   		movq	%rax, %rdi
 648              	.LEHB20:
 649 040a E8000000 		call	_Unwind_Resume
 649      00
 650              	.LEHE20:
 651              	.L34:
 652 040f 4889C7   		movq	%rax, %rdi
 653 0412 E8000000 		call	__cxa_begin_catch
 653      00
 654              	.LEHB21:
 655 0417 E8000000 		call	_ZN8UnitTest11CurrentTest7DetailsEv
 655      00
 656 041c 488B08   		movq	(%rax), %rcx
 657 041f 488D45D0 		leaq	-48(%rbp), %rax
 658 0423 BA2E0000 		movl	$46, %edx
 658      00
 659 0428 4889CE   		movq	%rcx, %rsi
 660 042b 4889C7   		movq	%rax, %rdi
 661 042e E8000000 		call	_ZN8UnitTest11TestDetailsC1ERKS0_i
 661      00
  46:testSvf2Csvf.cpp **** 
 662              		.loc 3 46 0 is_stmt 0 discriminator 1
 663 0433 E8000000 		call	_ZN8UnitTest11CurrentTest7ResultsEv
 663      00
 664 0438 488B00   		movq	(%rax), %rax
 665 043b 488D4DD0 		leaq	-48(%rbp), %rcx
 666 043f BA000000 		movl	$.LC13, %edx
 666      00
 667 0444 4889CE   		movq	%rcx, %rsi
 668 0447 4889C7   		movq	%rax, %rdi
 669 044a E8000000 		call	_ZN8UnitTest11TestResults13OnTestFailureERKNS_11TestDetailsEPKc
 669      00
 670              	.LEHE21:
 671              	.LEHB22:
 672 044f E8000000 		call	__cxa_end_catch
 672      00
 673              	.LEHE22:
 674 0454 E92FFFFF 		jmp	.L33
 674      FF
 675              	.L36:
 676              	.LBE8:
  56:testSvf2Csvf.cpp **** }
 677              		.loc 3 56 0 is_stmt 1
 678 0459 4883C468 		addq	$104, %rsp
 679 045d 5B       		popq	%rbx
 680 045e 5D       		popq	%rbp
 681              		.cfi_def_cfa 7, 8
 682 045f C3       		ret
 683              		.cfi_endproc
 684              	.LFE1027:
 685              		.section	.gcc_except_table
 686              		.align 4
 687              	.LLSDA1027:
 688 0050 FF       		.byte	0xff
 689 0051 03       		.byte	0x3
 690 0052 25       		.uleb128 .LLSDATT1027-.LLSDATTD1027
 691              	.LLSDATTD1027:
 692 0053 01       		.byte	0x1
 693 0054 1D       		.uleb128 .LLSDACSE1027-.LLSDACSB1027
 694              	.LLSDACSB1027:
 695 0055 23       		.uleb128 .LEHB17-.LFB1027
 696 0056 05       		.uleb128 .LEHE17-.LEHB17
 697 0057 00       		.uleb128 0
 698 0058 00       		.uleb128 0
 699 0059 2B       		.uleb128 .LEHB18-.LFB1027
 700 005a 3F       		.uleb128 .LEHE18-.LEHB18
 701 005b F101     		.uleb128 .L34-.LFB1027
 702 005d 01       		.uleb128 0x1
 703 005e 76       		.uleb128 .LEHB19-.LFB1027
 704 005f 66       		.uleb128 .LEHE19-.LEHB19
 705 0060 00       		.uleb128 0
 706 0061 00       		.uleb128 0
 707 0062 EC01     		.uleb128 .LEHB20-.LFB1027
 708 0064 05       		.uleb128 .LEHE20-.LEHB20
 709 0065 00       		.uleb128 0
 710 0066 00       		.uleb128 0
 711 0067 F901     		.uleb128 .LEHB21-.LFB1027
 712 0069 38       		.uleb128 .LEHE21-.LEHB21
 713 006a DE01     		.uleb128 .L35-.LFB1027
 714 006c 00       		.uleb128 0
 715 006d B102     		.uleb128 .LEHB22-.LFB1027
 716 006f 05       		.uleb128 .LEHE22-.LEHB22
 717 0070 00       		.uleb128 0
 718 0071 00       		.uleb128 0
 719              	.LLSDACSE1027:
 720 0072 01       		.byte	0x1
 721 0073 00       		.byte	0
 722              		.align 4
 723 0074 00000000 		.long	0
 724              	
 725              	.LLSDATT1027:
 726              		.text
 728              		.section	.rodata
 729 0159 00000000 		.align 8
 729      000000
 730              	.LC14:
 731 0160 556E6861 		.string	"Unhandled exception in CHECK_EQUAL(strlen(expectedHex)/2, lineBuf.length)"
 731      6E646C65 
 731      64206578 
 731      63657074 
 731      696F6E20 
 732 01aa 00000000 		.align 8
 732      0000
 733              	.LC15:
 734 01b0 556E6861 		.string	"Unhandled exception in CHECK_EQUAL(expectedHex, resultHex)"
 734      6E646C65 
 734      64206578 
 734      63657074 
 734      696F6E20 
 735              		.text
 736              		.globl	_Z9testShiftPKcjS0_jS0_jS0_
 738              	_Z9testShiftPKcjS0_jS0_jS0_:
 739              	.LFB1028:
  57:testSvf2Csvf.cpp **** 
  58:testSvf2Csvf.cpp **** void testShift(const char *line, uint32 lineBits, const char *head, uint32 headBits, const char *ta
 740              		.loc 3 58 0
 741              		.cfi_startproc
 742              		.cfi_personality 0x3,__gxx_personality_v0
 743              		.cfi_lsda 0x3,.LLSDA1028
 744 0460 55       		pushq	%rbp
 745              		.cfi_def_cfa_offset 16
 746              		.cfi_offset 6, -16
 747 0461 4889E5   		movq	%rsp, %rbp
 748              		.cfi_def_cfa_register 6
 749 0464 53       		pushq	%rbx
 750 0465 4881ECF8 		subq	$1272, %rsp
 750      040000
 751              		.cfi_offset 3, -24
 752 046c 4889BD38 		movq	%rdi, -1224(%rbp)
 752      FBFFFF
 753 0473 89B534FB 		movl	%esi, -1228(%rbp)
 753      FFFF
 754 0479 48899528 		movq	%rdx, -1240(%rbp)
 754      FBFFFF
 755 0480 898D30FB 		movl	%ecx, -1232(%rbp)
 755      FFFF
 756 0486 4C898520 		movq	%r8, -1248(%rbp)
 756      FBFFFF
 757 048d 44898D1C 		movl	%r9d, -1252(%rbp)
 757      FBFFFF
 758 0494 488B4510 		movq	16(%rbp), %rax
 759 0498 48898510 		movq	%rax, -1264(%rbp)
 759      FBFFFF
 760              		.loc 3 58 0
 761 049f 64488B04 		movq	%fs:40, %rax
 761      25280000 
 761      00
 762 04a8 488945E8 		movq	%rax, -24(%rbp)
 763 04ac 31C0     		xorl	%eax, %eax
 764              	.LBB9:
  59:testSvf2Csvf.cpp **** 	struct Buffer lineBuf;
  60:testSvf2Csvf.cpp **** 	struct Buffer headBuf;
  61:testSvf2Csvf.cpp **** 	struct Buffer tailBuf;
  62:testSvf2Csvf.cpp **** 	BufferStatus bStatus;
  63:testSvf2Csvf.cpp **** 	FLStatus fStatus;
  64:testSvf2Csvf.cpp **** 	char resultHex[1024];
  65:testSvf2Csvf.cpp **** 	bStatus = bufInitialise(&lineBuf, 1024, 0x00, NULL);
 765              		.loc 3 65 0
 766 04ae 488D8560 		leaq	-1184(%rbp), %rax
 766      FBFFFF
 767 04b5 B9000000 		movl	$0, %ecx
 767      00
 768 04ba BA000000 		movl	$0, %edx
 768      00
 769 04bf BE000400 		movl	$1024, %esi
 769      00
 770 04c4 4889C7   		movq	%rax, %rdi
 771              	.LEHB23:
 772 04c7 E8000000 		call	bufInitialise
 772      00
 773              	.LEHE23:
 774 04cc 89854CFB 		movl	%eax, -1204(%rbp)
 774      FFFF
 775              	.LEHB24:
  66:testSvf2Csvf.cpp **** 	CHECK_EQUAL(BUF_SUCCESS, bStatus);
 776              		.loc 3 66 0
 777 04d2 E8000000 		call	_ZN8UnitTest11CurrentTest7DetailsEv
 777      00
 778 04d7 488B08   		movq	(%rax), %rcx
 779 04da 488D85C0 		leaq	-1088(%rbp), %rax
 779      FBFFFF
 780 04e1 BA420000 		movl	$66, %edx
 780      00
 781 04e6 4889CE   		movq	%rcx, %rsi
 782 04e9 4889C7   		movq	%rax, %rdi
 783 04ec E8000000 		call	_ZN8UnitTest11TestDetailsC1ERKS0_i
 783      00
 784              		.loc 3 66 0 is_stmt 0 discriminator 1
 785 04f1 C785A0FB 		movl	$0, -1120(%rbp)
 785      FFFF0000 
 785      0000
 786 04fb E8000000 		call	_ZN8UnitTest11CurrentTest7ResultsEv
 786      00
 787 0500 488B00   		movq	(%rax), %rax
 788 0503 488D8DC0 		leaq	-1088(%rbp), %rcx
 788      FBFFFF
 789 050a 488D954C 		leaq	-1204(%rbp), %rdx
 789      FBFFFF
 790 0511 488DB5A0 		leaq	-1120(%rbp), %rsi
 790      FBFFFF
 791 0518 4889C7   		movq	%rax, %rdi
 792 051b E8000000 		call	_ZN8UnitTest10CheckEqualI12BufferStatusS1_EEvRNS_11TestResultsERKT_RKT0_RKNS_11TestDetailsE
 792      00
 793              	.LEHE24:
 794              	.L42:
  67:testSvf2Csvf.cpp **** 	bStatus = bufInitialise(&headBuf, 1024, 0x00, NULL);
 795              		.loc 3 67 0 is_stmt 1
 796 0520 488D8580 		leaq	-1152(%rbp), %rax
 796      FBFFFF
 797 0527 B9000000 		movl	$0, %ecx
 797      00
 798 052c BA000000 		movl	$0, %edx
 798      00
 799 0531 BE000400 		movl	$1024, %esi
 799      00
 800 0536 4889C7   		movq	%rax, %rdi
 801              	.LEHB25:
 802 0539 E8000000 		call	bufInitialise
 802      00
 803              	.LEHE25:
 804 053e 89854CFB 		movl	%eax, -1204(%rbp)
 804      FFFF
 805              	.LEHB26:
  68:testSvf2Csvf.cpp **** 	CHECK_EQUAL(BUF_SUCCESS, bStatus);
 806              		.loc 3 68 0
 807 0544 E8000000 		call	_ZN8UnitTest11CurrentTest7DetailsEv
 807      00
 808 0549 488B08   		movq	(%rax), %rcx
 809 054c 488D85C0 		leaq	-1088(%rbp), %rax
 809      FBFFFF
 810 0553 BA440000 		movl	$68, %edx
 810      00
 811 0558 4889CE   		movq	%rcx, %rsi
 812 055b 4889C7   		movq	%rax, %rdi
 813 055e E8000000 		call	_ZN8UnitTest11TestDetailsC1ERKS0_i
 813      00
 814              		.loc 3 68 0 is_stmt 0 discriminator 1
 815 0563 C785A0FB 		movl	$0, -1120(%rbp)
 815      FFFF0000 
 815      0000
 816 056d E8000000 		call	_ZN8UnitTest11CurrentTest7ResultsEv
 816      00
 817 0572 488B00   		movq	(%rax), %rax
 818 0575 488D8DC0 		leaq	-1088(%rbp), %rcx
 818      FBFFFF
 819 057c 488D954C 		leaq	-1204(%rbp), %rdx
 819      FBFFFF
 820 0583 488DB5A0 		leaq	-1120(%rbp), %rsi
 820      FBFFFF
 821 058a 4889C7   		movq	%rax, %rdi
 822 058d E8000000 		call	_ZN8UnitTest10CheckEqualI12BufferStatusS1_EEvRNS_11TestResultsERKT_RKT0_RKNS_11TestDetailsE
 822      00
 823              	.LEHE26:
 824              	.L45:
  69:testSvf2Csvf.cpp **** 	bStatus = bufInitialise(&tailBuf, 1024, 0x00, NULL);
 825              		.loc 3 69 0 is_stmt 1
 826 0592 488D85A0 		leaq	-1120(%rbp), %rax
 826      FBFFFF
 827 0599 B9000000 		movl	$0, %ecx
 827      00
 828 059e BA000000 		movl	$0, %edx
 828      00
 829 05a3 BE000400 		movl	$1024, %esi
 829      00
 830 05a8 4889C7   		movq	%rax, %rdi
 831              	.LEHB27:
 832 05ab E8000000 		call	bufInitialise
 832      00
 833              	.LEHE27:
 834 05b0 89854CFB 		movl	%eax, -1204(%rbp)
 834      FFFF
 835              	.LEHB28:
  70:testSvf2Csvf.cpp **** 	CHECK_EQUAL(BUF_SUCCESS, bStatus);
 836              		.loc 3 70 0
 837 05b6 E8000000 		call	_ZN8UnitTest11CurrentTest7DetailsEv
 837      00
 838 05bb 488B08   		movq	(%rax), %rcx
 839 05be 488D85C0 		leaq	-1088(%rbp), %rax
 839      FBFFFF
 840 05c5 BA460000 		movl	$70, %edx
 840      00
 841 05ca 4889CE   		movq	%rcx, %rsi
 842 05cd 4889C7   		movq	%rax, %rdi
 843 05d0 E8000000 		call	_ZN8UnitTest11TestDetailsC1ERKS0_i
 843      00
 844              		.loc 3 70 0 is_stmt 0 discriminator 1
 845 05d5 C78558FB 		movl	$0, -1192(%rbp)
 845      FFFF0000 
 845      0000
 846 05df E8000000 		call	_ZN8UnitTest11CurrentTest7ResultsEv
 846      00
 847 05e4 488B00   		movq	(%rax), %rax
 848 05e7 488D8DC0 		leaq	-1088(%rbp), %rcx
 848      FBFFFF
 849 05ee 488D954C 		leaq	-1204(%rbp), %rdx
 849      FBFFFF
 850 05f5 488DB558 		leaq	-1192(%rbp), %rsi
 850      FBFFFF
 851 05fc 4889C7   		movq	%rax, %rdi
 852 05ff E8000000 		call	_ZN8UnitTest10CheckEqualI12BufferStatusS1_EEvRNS_11TestResultsERKT_RKT0_RKNS_11TestDetailsE
 852      00
 853              	.LEHE28:
 854              	.L48:
  71:testSvf2Csvf.cpp **** 	fStatus = readBytes(&lineBuf, line, NULL);
 855              		.loc 3 71 0 is_stmt 1
 856 0604 488B8D38 		movq	-1224(%rbp), %rcx
 856      FBFFFF
 857 060b 488D8560 		leaq	-1184(%rbp), %rax
 857      FBFFFF
 858 0612 BA000000 		movl	$0, %edx
 858      00
 859 0617 4889CE   		movq	%rcx, %rsi
 860 061a 4889C7   		movq	%rax, %rdi
 861              	.LEHB29:
 862 061d E8000000 		call	readBytes
 862      00
 863              	.LEHE29:
 864 0622 898550FB 		movl	%eax, -1200(%rbp)
 864      FFFF
 865              	.LEHB30:
  72:testSvf2Csvf.cpp **** 	CHECK_EQUAL(FL_SUCCESS, fStatus);
 866              		.loc 3 72 0
 867 0628 E8000000 		call	_ZN8UnitTest11CurrentTest7DetailsEv
 867      00
 868 062d 488B08   		movq	(%rax), %rcx
 869 0630 488D85C0 		leaq	-1088(%rbp), %rax
 869      FBFFFF
 870 0637 BA480000 		movl	$72, %edx
 870      00
 871 063c 4889CE   		movq	%rcx, %rsi
 872 063f 4889C7   		movq	%rax, %rdi
 873 0642 E8000000 		call	_ZN8UnitTest11TestDetailsC1ERKS0_i
 873      00
 874              		.loc 3 72 0 is_stmt 0 discriminator 1
 875 0647 C78558FB 		movl	$0, -1192(%rbp)
 875      FFFF0000 
 875      0000
 876 0651 E8000000 		call	_ZN8UnitTest11CurrentTest7ResultsEv
 876      00
 877 0656 488B00   		movq	(%rax), %rax
 878 0659 488D8DC0 		leaq	-1088(%rbp), %rcx
 878      FBFFFF
 879 0660 488D9550 		leaq	-1200(%rbp), %rdx
 879      FBFFFF
 880 0667 488DB558 		leaq	-1192(%rbp), %rsi
 880      FBFFFF
 881 066e 4889C7   		movq	%rax, %rdi
 882 0671 E8000000 		call	_ZN8UnitTest10CheckEqualI8FLStatusS1_EEvRNS_11TestResultsERKT_RKT0_RKNS_11TestDetailsE
 882      00
 883              	.LEHE30:
 884              	.L51:
  73:testSvf2Csvf.cpp **** 	fStatus = readBytes(&headBuf, head, NULL);
 885              		.loc 3 73 0 is_stmt 1
 886 0676 488B8D28 		movq	-1240(%rbp), %rcx
 886      FBFFFF
 887 067d 488D8580 		leaq	-1152(%rbp), %rax
 887      FBFFFF
 888 0684 BA000000 		movl	$0, %edx
 888      00
 889 0689 4889CE   		movq	%rcx, %rsi
 890 068c 4889C7   		movq	%rax, %rdi
 891              	.LEHB31:
 892 068f E8000000 		call	readBytes
 892      00
 893              	.LEHE31:
 894 0694 898550FB 		movl	%eax, -1200(%rbp)
 894      FFFF
 895              	.LEHB32:
  74:testSvf2Csvf.cpp **** 	CHECK_EQUAL(FL_SUCCESS, fStatus);
 896              		.loc 3 74 0
 897 069a E8000000 		call	_ZN8UnitTest11CurrentTest7DetailsEv
 897      00
 898 069f 488B08   		movq	(%rax), %rcx
 899 06a2 488D85C0 		leaq	-1088(%rbp), %rax
 899      FBFFFF
 900 06a9 BA4A0000 		movl	$74, %edx
 900      00
 901 06ae 4889CE   		movq	%rcx, %rsi
 902 06b1 4889C7   		movq	%rax, %rdi
 903 06b4 E8000000 		call	_ZN8UnitTest11TestDetailsC1ERKS0_i
 903      00
 904              		.loc 3 74 0 is_stmt 0 discriminator 1
 905 06b9 C78558FB 		movl	$0, -1192(%rbp)
 905      FFFF0000 
 905      0000
 906 06c3 E8000000 		call	_ZN8UnitTest11CurrentTest7ResultsEv
 906      00
 907 06c8 488B00   		movq	(%rax), %rax
 908 06cb 488D8DC0 		leaq	-1088(%rbp), %rcx
 908      FBFFFF
 909 06d2 488D9550 		leaq	-1200(%rbp), %rdx
 909      FBFFFF
 910 06d9 488DB558 		leaq	-1192(%rbp), %rsi
 910      FBFFFF
 911 06e0 4889C7   		movq	%rax, %rdi
 912 06e3 E8000000 		call	_ZN8UnitTest10CheckEqualI8FLStatusS1_EEvRNS_11TestResultsERKT_RKT0_RKNS_11TestDetailsE
 912      00
 913              	.LEHE32:
 914              	.L54:
  75:testSvf2Csvf.cpp **** 	fStatus = readBytes(&tailBuf, tail, NULL);
 915              		.loc 3 75 0 is_stmt 1
 916 06e8 488B8D20 		movq	-1248(%rbp), %rcx
 916      FBFFFF
 917 06ef 488D85A0 		leaq	-1120(%rbp), %rax
 917      FBFFFF
 918 06f6 BA000000 		movl	$0, %edx
 918      00
 919 06fb 4889CE   		movq	%rcx, %rsi
 920 06fe 4889C7   		movq	%rax, %rdi
 921              	.LEHB33:
 922 0701 E8000000 		call	readBytes
 922      00
 923              	.LEHE33:
 924 0706 898550FB 		movl	%eax, -1200(%rbp)
 924      FFFF
 925              	.LEHB34:
  76:testSvf2Csvf.cpp **** 	CHECK_EQUAL(FL_SUCCESS, fStatus);
 926              		.loc 3 76 0
 927 070c E8000000 		call	_ZN8UnitTest11CurrentTest7DetailsEv
 927      00
 928 0711 488B08   		movq	(%rax), %rcx
 929 0714 488D85C0 		leaq	-1088(%rbp), %rax
 929      FBFFFF
 930 071b BA4C0000 		movl	$76, %edx
 930      00
 931 0720 4889CE   		movq	%rcx, %rsi
 932 0723 4889C7   		movq	%rax, %rdi
 933 0726 E8000000 		call	_ZN8UnitTest11TestDetailsC1ERKS0_i
 933      00
 934              		.loc 3 76 0 is_stmt 0 discriminator 1
 935 072b C78558FB 		movl	$0, -1192(%rbp)
 935      FFFF0000 
 935      0000
 936 0735 E8000000 		call	_ZN8UnitTest11CurrentTest7ResultsEv
 936      00
 937 073a 488B00   		movq	(%rax), %rax
 938 073d 488D8DC0 		leaq	-1088(%rbp), %rcx
 938      FBFFFF
 939 0744 488D9550 		leaq	-1200(%rbp), %rdx
 939      FBFFFF
 940 074b 488DB558 		leaq	-1192(%rbp), %rsi
 940      FBFFFF
 941 0752 4889C7   		movq	%rax, %rdi
 942 0755 E8000000 		call	_ZN8UnitTest10CheckEqualI8FLStatusS1_EEvRNS_11TestResultsERKT_RKT0_RKNS_11TestDetailsE
 942      00
 943              	.LEHE34:
 944              	.L57:
  77:testSvf2Csvf.cpp **** 	fStatus = headTail(&lineBuf, &headBuf, &tailBuf, lineBits, headBits, tailBits, NULL);
 945              		.loc 3 77 0 is_stmt 1
 946 075a 448B851C 		movl	-1252(%rbp), %r8d
 946      FBFFFF
 947 0761 8BBD30FB 		movl	-1232(%rbp), %edi
 947      FFFF
 948 0767 8B8D34FB 		movl	-1228(%rbp), %ecx
 948      FFFF
 949 076d 488D95A0 		leaq	-1120(%rbp), %rdx
 949      FBFFFF
 950 0774 488DB580 		leaq	-1152(%rbp), %rsi
 950      FBFFFF
 951 077b 488D8560 		leaq	-1184(%rbp), %rax
 951      FBFFFF
 952 0782 48C70424 		movq	$0, (%rsp)
 952      00000000 
 953 078a 4589C1   		movl	%r8d, %r9d
 954 078d 4189F8   		movl	%edi, %r8d
 955 0790 4889C7   		movq	%rax, %rdi
 956              	.LEHB35:
 957 0793 E8000000 		call	headTail
 957      00
 958              	.LEHE35:
 959 0798 898550FB 		movl	%eax, -1200(%rbp)
 959      FFFF
 960              	.LEHB36:
  78:testSvf2Csvf.cpp **** 	CHECK_EQUAL(FL_SUCCESS, fStatus);
 961              		.loc 3 78 0
 962 079e E8000000 		call	_ZN8UnitTest11CurrentTest7DetailsEv
 962      00
 963 07a3 488B08   		movq	(%rax), %rcx
 964 07a6 488D85C0 		leaq	-1088(%rbp), %rax
 964      FBFFFF
 965 07ad BA4E0000 		movl	$78, %edx
 965      00
 966 07b2 4889CE   		movq	%rcx, %rsi
 967 07b5 4889C7   		movq	%rax, %rdi
 968 07b8 E8000000 		call	_ZN8UnitTest11TestDetailsC1ERKS0_i
 968      00
 969              		.loc 3 78 0 is_stmt 0 discriminator 1
 970 07bd C78558FB 		movl	$0, -1192(%rbp)
 970      FFFF0000 
 970      0000
 971 07c7 E8000000 		call	_ZN8UnitTest11CurrentTest7ResultsEv
 971      00
 972 07cc 488B00   		movq	(%rax), %rax
 973 07cf 488D8DC0 		leaq	-1088(%rbp), %rcx
 973      FBFFFF
 974 07d6 488D9550 		leaq	-1200(%rbp), %rdx
 974      FBFFFF
 975 07dd 488DB558 		leaq	-1192(%rbp), %rsi
 975      FBFFFF
 976 07e4 4889C7   		movq	%rax, %rdi
 977 07e7 E8000000 		call	_ZN8UnitTest10CheckEqualI8FLStatusS1_EEvRNS_11TestResultsERKT_RKT0_RKNS_11TestDetailsE
 977      00
 978              	.LEHE36:
 979              	.L60:
 980              	.LEHB37:
  79:testSvf2Csvf.cpp **** 	CHECK_EQUAL(strlen(expectedHex)/2, lineBuf.length);
 981              		.loc 3 79 0 is_stmt 1
 982 07ec E8000000 		call	_ZN8UnitTest11CurrentTest7DetailsEv
 982      00
 983 07f1 488B08   		movq	(%rax), %rcx
 984 07f4 488D85C0 		leaq	-1088(%rbp), %rax
 984      FBFFFF
 985 07fb BA4F0000 		movl	$79, %edx
 985      00
 986 0800 4889CE   		movq	%rcx, %rsi
 987 0803 4889C7   		movq	%rax, %rdi
 988 0806 E8000000 		call	_ZN8UnitTest11TestDetailsC1ERKS0_i
 988      00
 989              		.loc 3 79 0 is_stmt 0 discriminator 1
 990 080b 488B8510 		movq	-1264(%rbp), %rax
 990      FBFFFF
 991 0812 4889C7   		movq	%rax, %rdi
 992 0815 E8000000 		call	strlen
 992      00
 993 081a 48D1E8   		shrq	%rax
 994 081d 48898558 		movq	%rax, -1192(%rbp)
 994      FBFFFF
 995 0824 E8000000 		call	_ZN8UnitTest11CurrentTest7ResultsEv
 995      00
 996 0829 488B00   		movq	(%rax), %rax
 997 082c 488D95C0 		leaq	-1088(%rbp), %rdx
 997      FBFFFF
 998 0833 488D8D60 		leaq	-1184(%rbp), %rcx
 998      FBFFFF
 999 083a 488D7908 		leaq	8(%rcx), %rdi
 1000 083e 488DB558 		leaq	-1192(%rbp), %rsi
 1000      FBFFFF
 1001 0845 4889D1   		movq	%rdx, %rcx
 1002 0848 4889FA   		movq	%rdi, %rdx
 1003 084b 4889C7   		movq	%rax, %rdi
 1004 084e E8000000 		call	_ZN8UnitTest10CheckEqualImmEEvRNS_11TestResultsERKT_RKT0_RKNS_11TestDetailsE
 1004      00
 1005              	.LEHE37:
 1006              	.L63:
 1007              	.LBB10:
  80:testSvf2Csvf.cpp **** 	for ( uint32 i = 0; i < 2*lineBuf.length; i++ ) {
 1008              		.loc 3 80 0 is_stmt 1
 1009 0853 C78554FB 		movl	$0, -1196(%rbp)
 1009      FFFF0000 
 1009      0000
 1010 085d EB45     		jmp	.L38
 1011              	.L39:
  81:testSvf2Csvf.cpp ****         sprintf(resultHex + 2*i, "%02X", lineBuf.data[i]);
 1012              		.loc 3 81 0 discriminator 2
 1013 085f 488B9560 		movq	-1184(%rbp), %rdx
 1013      FBFFFF
 1014 0866 8B8554FB 		movl	-1196(%rbp), %eax
 1014      FFFF
 1015 086c 4801D0   		addq	%rdx, %rax
 1016 086f 0FB600   		movzbl	(%rax), %eax
 1017 0872 0FB6C0   		movzbl	%al, %eax
 1018 0875 8B9554FB 		movl	-1196(%rbp), %edx
 1018      FFFF
 1019 087b 01D2     		addl	%edx, %edx
 1020 087d 89D2     		movl	%edx, %edx
 1021 087f 488D8DE0 		leaq	-1056(%rbp), %rcx
 1021      FBFFFF
 1022 0886 4801D1   		addq	%rdx, %rcx
 1023 0889 89C2     		movl	%eax, %edx
 1024 088b BE000000 		movl	$.LC1, %esi
 1024      00
 1025 0890 4889CF   		movq	%rcx, %rdi
 1026 0893 B8000000 		movl	$0, %eax
 1026      00
 1027 0898 E8000000 		call	sprintf
 1027      00
  80:testSvf2Csvf.cpp **** 	for ( uint32 i = 0; i < 2*lineBuf.length; i++ ) {
 1028              		.loc 3 80 0 discriminator 2
 1029 089d 838554FB 		addl	$1, -1196(%rbp)
 1029      FFFF01
 1030              	.L38:
  80:testSvf2Csvf.cpp **** 	for ( uint32 i = 0; i < 2*lineBuf.length; i++ ) {
 1031              		.loc 3 80 0 is_stmt 0 discriminator 1
 1032 08a4 8B8554FB 		movl	-1196(%rbp), %eax
 1032      FFFF
 1033 08aa 488B9568 		movq	-1176(%rbp), %rdx
 1033      FBFFFF
 1034 08b1 4801D2   		addq	%rdx, %rdx
 1035 08b4 4839D0   		cmpq	%rdx, %rax
 1036 08b7 72A6     		jb	.L39
 1037              	.LBE10:
  82:testSvf2Csvf.cpp ****     }
  83:testSvf2Csvf.cpp ****     resultHex[2*lineBuf.length] = '\0';
 1038              		.loc 3 83 0 is_stmt 1
 1039 08b9 488B8568 		movq	-1176(%rbp), %rax
 1039      FBFFFF
 1040 08c0 4801C0   		addq	%rax, %rax
 1041 08c3 C68405E0 		movb	$0, -1056(%rbp,%rax)
 1041      FBFFFF00 
 1042              	.LEHB38:
  84:testSvf2Csvf.cpp ****     CHECK_EQUAL(expectedHex, resultHex);
 1043              		.loc 3 84 0
 1044 08cb E8000000 		call	_ZN8UnitTest11CurrentTest7DetailsEv
 1044      00
 1045 08d0 488B08   		movq	(%rax), %rcx
 1046 08d3 488D85C0 		leaq	-1088(%rbp), %rax
 1046      FBFFFF
 1047 08da BA540000 		movl	$84, %edx
 1047      00
 1048 08df 4889CE   		movq	%rcx, %rsi
 1049 08e2 4889C7   		movq	%rax, %rdi
 1050 08e5 E8000000 		call	_ZN8UnitTest11TestDetailsC1ERKS0_i
 1050      00
 1051              		.loc 3 84 0 is_stmt 0 discriminator 1
 1052 08ea E8000000 		call	_ZN8UnitTest11CurrentTest7ResultsEv
 1052      00
 1053 08ef 488B00   		movq	(%rax), %rax
 1054 08f2 488D8DC0 		leaq	-1088(%rbp), %rcx
 1054      FBFFFF
 1055 08f9 488D95E0 		leaq	-1056(%rbp), %rdx
 1055      FBFFFF
 1056 0900 488BB510 		movq	-1264(%rbp), %rsi
 1056      FBFFFF
 1057 0907 4889C7   		movq	%rax, %rdi
 1058 090a E8000000 		call	_ZN8UnitTest10CheckEqualERNS_11TestResultsEPKcPcRKNS_11TestDetailsE
 1058      00
 1059              	.LEHE38:
 1060              	.L66:
  85:testSvf2Csvf.cpp **** 	bufDestroy(&tailBuf);
 1061              		.loc 3 85 0 is_stmt 1
 1062 090f 488D85A0 		leaq	-1120(%rbp), %rax
 1062      FBFFFF
 1063 0916 4889C7   		movq	%rax, %rdi
 1064              	.LEHB39:
 1065 0919 E8000000 		call	bufDestroy
 1065      00
  86:testSvf2Csvf.cpp **** 	bufDestroy(&headBuf);
 1066              		.loc 3 86 0
 1067 091e 488D8580 		leaq	-1152(%rbp), %rax
 1067      FBFFFF
 1068 0925 4889C7   		movq	%rax, %rdi
 1069 0928 E8000000 		call	bufDestroy
 1069      00
  87:testSvf2Csvf.cpp **** 	bufDestroy(&lineBuf);
 1070              		.loc 3 87 0
 1071 092d 488D8560 		leaq	-1184(%rbp), %rax
 1071      FBFFFF
 1072 0934 4889C7   		movq	%rax, %rdi
 1073 0937 E8000000 		call	bufDestroy
 1073      00
 1074              	.LEHE39:
 1075              	.LBE9:
  88:testSvf2Csvf.cpp **** }	
 1076              		.loc 3 88 0
 1077 093c 488B45E8 		movq	-24(%rbp), %rax
 1078 0940 64483304 		xorq	%fs:40, %rax
 1078      25280000 
 1078      00
 1079 0949 0F848503 		je	.L67
 1079      0000
 1080 094f E97B0300 		jmp	.L86
 1080      00
 1081              	.L69:
 1082 0954 4889C3   		movq	%rax, %rbx
 1083              	.LBB11:
  66:testSvf2Csvf.cpp **** 	bStatus = bufInitialise(&headBuf, 1024, 0x00, NULL);
 1084              		.loc 3 66 0
 1085 0957 E8000000 		call	__cxa_end_catch
 1085      00
 1086 095c 4889D8   		movq	%rbx, %rax
 1087 095f 4889C7   		movq	%rax, %rdi
 1088              	.LEHB40:
 1089 0962 E8000000 		call	_Unwind_Resume
 1089      00
 1090              	.LEHE40:
 1091              	.L68:
 1092 0967 4889C7   		movq	%rax, %rdi
 1093 096a E8000000 		call	__cxa_begin_catch
 1093      00
 1094              	.LEHB41:
 1095 096f E8000000 		call	_ZN8UnitTest11CurrentTest7DetailsEv
 1095      00
 1096 0974 488B08   		movq	(%rax), %rcx
 1097 0977 488D85C0 		leaq	-1088(%rbp), %rax
 1097      FBFFFF
 1098 097e BA420000 		movl	$66, %edx
 1098      00
 1099 0983 4889CE   		movq	%rcx, %rsi
 1100 0986 4889C7   		movq	%rax, %rdi
 1101 0989 E8000000 		call	_ZN8UnitTest11TestDetailsC1ERKS0_i
 1101      00
  66:testSvf2Csvf.cpp **** 	bStatus = bufInitialise(&headBuf, 1024, 0x00, NULL);
 1102              		.loc 3 66 0 is_stmt 0 discriminator 1
 1103 098e E8000000 		call	_ZN8UnitTest11CurrentTest7ResultsEv
 1103      00
 1104 0993 488B00   		movq	(%rax), %rax
 1105 0996 488D8DC0 		leaq	-1088(%rbp), %rcx
 1105      FBFFFF
 1106 099d BA000000 		movl	$.LC13, %edx
 1106      00
 1107 09a2 4889CE   		movq	%rcx, %rsi
 1108 09a5 4889C7   		movq	%rax, %rdi
 1109 09a8 E8000000 		call	_ZN8UnitTest11TestResults13OnTestFailureERKNS_11TestDetailsEPKc
 1109      00
 1110              	.LEHE41:
 1111              	.LEHB42:
 1112 09ad E8000000 		call	__cxa_end_catch
 1112      00
 1113              	.LEHE42:
 1114 09b2 E969FBFF 		jmp	.L42
 1114      FF
 1115              	.L71:
 1116 09b7 4889C3   		movq	%rax, %rbx
  68:testSvf2Csvf.cpp **** 	bStatus = bufInitialise(&tailBuf, 1024, 0x00, NULL);
 1117              		.loc 3 68 0 is_stmt 1
 1118 09ba E8000000 		call	__cxa_end_catch
 1118      00
 1119 09bf 4889D8   		movq	%rbx, %rax
 1120 09c2 4889C7   		movq	%rax, %rdi
 1121              	.LEHB43:
 1122 09c5 E8000000 		call	_Unwind_Resume
 1122      00
 1123              	.LEHE43:
 1124              	.L70:
 1125 09ca 4889C7   		movq	%rax, %rdi
 1126 09cd E8000000 		call	__cxa_begin_catch
 1126      00
 1127              	.LEHB44:
 1128 09d2 E8000000 		call	_ZN8UnitTest11CurrentTest7DetailsEv
 1128      00
 1129 09d7 488B08   		movq	(%rax), %rcx
 1130 09da 488D85C0 		leaq	-1088(%rbp), %rax
 1130      FBFFFF
 1131 09e1 BA440000 		movl	$68, %edx
 1131      00
 1132 09e6 4889CE   		movq	%rcx, %rsi
 1133 09e9 4889C7   		movq	%rax, %rdi
 1134 09ec E8000000 		call	_ZN8UnitTest11TestDetailsC1ERKS0_i
 1134      00
  68:testSvf2Csvf.cpp **** 	bStatus = bufInitialise(&tailBuf, 1024, 0x00, NULL);
 1135              		.loc 3 68 0 is_stmt 0 discriminator 1
 1136 09f1 E8000000 		call	_ZN8UnitTest11CurrentTest7ResultsEv
 1136      00
 1137 09f6 488B00   		movq	(%rax), %rax
 1138 09f9 488D8DC0 		leaq	-1088(%rbp), %rcx
 1138      FBFFFF
 1139 0a00 BA000000 		movl	$.LC13, %edx
 1139      00
 1140 0a05 4889CE   		movq	%rcx, %rsi
 1141 0a08 4889C7   		movq	%rax, %rdi
 1142 0a0b E8000000 		call	_ZN8UnitTest11TestResults13OnTestFailureERKNS_11TestDetailsEPKc
 1142      00
 1143              	.LEHE44:
 1144              	.LEHB45:
 1145 0a10 E8000000 		call	__cxa_end_catch
 1145      00
 1146              	.LEHE45:
 1147 0a15 E978FBFF 		jmp	.L45
 1147      FF
 1148              	.L73:
 1149 0a1a 4889C3   		movq	%rax, %rbx
  70:testSvf2Csvf.cpp **** 	fStatus = readBytes(&lineBuf, line, NULL);
 1150              		.loc 3 70 0 is_stmt 1
 1151 0a1d E8000000 		call	__cxa_end_catch
 1151      00
 1152 0a22 4889D8   		movq	%rbx, %rax
 1153 0a25 4889C7   		movq	%rax, %rdi
 1154              	.LEHB46:
 1155 0a28 E8000000 		call	_Unwind_Resume
 1155      00
 1156              	.LEHE46:
 1157              	.L72:
 1158 0a2d 4889C7   		movq	%rax, %rdi
 1159 0a30 E8000000 		call	__cxa_begin_catch
 1159      00
 1160              	.LEHB47:
 1161 0a35 E8000000 		call	_ZN8UnitTest11CurrentTest7DetailsEv
 1161      00
 1162 0a3a 488B08   		movq	(%rax), %rcx
 1163 0a3d 488D85C0 		leaq	-1088(%rbp), %rax
 1163      FBFFFF
 1164 0a44 BA460000 		movl	$70, %edx
 1164      00
 1165 0a49 4889CE   		movq	%rcx, %rsi
 1166 0a4c 4889C7   		movq	%rax, %rdi
 1167 0a4f E8000000 		call	_ZN8UnitTest11TestDetailsC1ERKS0_i
 1167      00
  70:testSvf2Csvf.cpp **** 	fStatus = readBytes(&lineBuf, line, NULL);
 1168              		.loc 3 70 0 is_stmt 0 discriminator 1
 1169 0a54 E8000000 		call	_ZN8UnitTest11CurrentTest7ResultsEv
 1169      00
 1170 0a59 488B00   		movq	(%rax), %rax
 1171 0a5c 488D8DC0 		leaq	-1088(%rbp), %rcx
 1171      FBFFFF
 1172 0a63 BA000000 		movl	$.LC13, %edx
 1172      00
 1173 0a68 4889CE   		movq	%rcx, %rsi
 1174 0a6b 4889C7   		movq	%rax, %rdi
 1175 0a6e E8000000 		call	_ZN8UnitTest11TestResults13OnTestFailureERKNS_11TestDetailsEPKc
 1175      00
 1176              	.LEHE47:
 1177              	.LEHB48:
 1178 0a73 E8000000 		call	__cxa_end_catch
 1178      00
 1179              	.LEHE48:
 1180 0a78 E987FBFF 		jmp	.L48
 1180      FF
 1181              	.L75:
 1182 0a7d 4889C3   		movq	%rax, %rbx
  72:testSvf2Csvf.cpp **** 	fStatus = readBytes(&headBuf, head, NULL);
 1183              		.loc 3 72 0 is_stmt 1
 1184 0a80 E8000000 		call	__cxa_end_catch
 1184      00
 1185 0a85 4889D8   		movq	%rbx, %rax
 1186 0a88 4889C7   		movq	%rax, %rdi
 1187              	.LEHB49:
 1188 0a8b E8000000 		call	_Unwind_Resume
 1188      00
 1189              	.LEHE49:
 1190              	.L74:
 1191 0a90 4889C7   		movq	%rax, %rdi
 1192 0a93 E8000000 		call	__cxa_begin_catch
 1192      00
 1193              	.LEHB50:
 1194 0a98 E8000000 		call	_ZN8UnitTest11CurrentTest7DetailsEv
 1194      00
 1195 0a9d 488B08   		movq	(%rax), %rcx
 1196 0aa0 488D85C0 		leaq	-1088(%rbp), %rax
 1196      FBFFFF
 1197 0aa7 BA480000 		movl	$72, %edx
 1197      00
 1198 0aac 4889CE   		movq	%rcx, %rsi
 1199 0aaf 4889C7   		movq	%rax, %rdi
 1200 0ab2 E8000000 		call	_ZN8UnitTest11TestDetailsC1ERKS0_i
 1200      00
  72:testSvf2Csvf.cpp **** 	fStatus = readBytes(&headBuf, head, NULL);
 1201              		.loc 3 72 0 is_stmt 0 discriminator 1
 1202 0ab7 E8000000 		call	_ZN8UnitTest11CurrentTest7ResultsEv
 1202      00
 1203 0abc 488B00   		movq	(%rax), %rax
 1204 0abf 488D8DC0 		leaq	-1088(%rbp), %rcx
 1204      FBFFFF
 1205 0ac6 BA000000 		movl	$.LC2, %edx
 1205      00
 1206 0acb 4889CE   		movq	%rcx, %rsi
 1207 0ace 4889C7   		movq	%rax, %rdi
 1208 0ad1 E8000000 		call	_ZN8UnitTest11TestResults13OnTestFailureERKNS_11TestDetailsEPKc
 1208      00
 1209              	.LEHE50:
 1210              	.LEHB51:
 1211 0ad6 E8000000 		call	__cxa_end_catch
 1211      00
 1212              	.LEHE51:
 1213 0adb E996FBFF 		jmp	.L51
 1213      FF
 1214              	.L77:
 1215 0ae0 4889C3   		movq	%rax, %rbx
  74:testSvf2Csvf.cpp **** 	fStatus = readBytes(&tailBuf, tail, NULL);
 1216              		.loc 3 74 0 is_stmt 1
 1217 0ae3 E8000000 		call	__cxa_end_catch
 1217      00
 1218 0ae8 4889D8   		movq	%rbx, %rax
 1219 0aeb 4889C7   		movq	%rax, %rdi
 1220              	.LEHB52:
 1221 0aee E8000000 		call	_Unwind_Resume
 1221      00
 1222              	.LEHE52:
 1223              	.L76:
 1224 0af3 4889C7   		movq	%rax, %rdi
 1225 0af6 E8000000 		call	__cxa_begin_catch
 1225      00
 1226              	.LEHB53:
 1227 0afb E8000000 		call	_ZN8UnitTest11CurrentTest7DetailsEv
 1227      00
 1228 0b00 488B08   		movq	(%rax), %rcx
 1229 0b03 488D85C0 		leaq	-1088(%rbp), %rax
 1229      FBFFFF
 1230 0b0a BA4A0000 		movl	$74, %edx
 1230      00
 1231 0b0f 4889CE   		movq	%rcx, %rsi
 1232 0b12 4889C7   		movq	%rax, %rdi
 1233 0b15 E8000000 		call	_ZN8UnitTest11TestDetailsC1ERKS0_i
 1233      00
  74:testSvf2Csvf.cpp **** 	fStatus = readBytes(&tailBuf, tail, NULL);
 1234              		.loc 3 74 0 is_stmt 0 discriminator 1
 1235 0b1a E8000000 		call	_ZN8UnitTest11CurrentTest7ResultsEv
 1235      00
 1236 0b1f 488B00   		movq	(%rax), %rax
 1237 0b22 488D8DC0 		leaq	-1088(%rbp), %rcx
 1237      FBFFFF
 1238 0b29 BA000000 		movl	$.LC2, %edx
 1238      00
 1239 0b2e 4889CE   		movq	%rcx, %rsi
 1240 0b31 4889C7   		movq	%rax, %rdi
 1241 0b34 E8000000 		call	_ZN8UnitTest11TestResults13OnTestFailureERKNS_11TestDetailsEPKc
 1241      00
 1242              	.LEHE53:
 1243              	.LEHB54:
 1244 0b39 E8000000 		call	__cxa_end_catch
 1244      00
 1245              	.LEHE54:
 1246 0b3e E9A5FBFF 		jmp	.L54
 1246      FF
 1247              	.L79:
 1248 0b43 4889C3   		movq	%rax, %rbx
  76:testSvf2Csvf.cpp **** 	fStatus = headTail(&lineBuf, &headBuf, &tailBuf, lineBits, headBits, tailBits, NULL);
 1249              		.loc 3 76 0 is_stmt 1
 1250 0b46 E8000000 		call	__cxa_end_catch
 1250      00
 1251 0b4b 4889D8   		movq	%rbx, %rax
 1252 0b4e 4889C7   		movq	%rax, %rdi
 1253              	.LEHB55:
 1254 0b51 E8000000 		call	_Unwind_Resume
 1254      00
 1255              	.LEHE55:
 1256              	.L78:
 1257 0b56 4889C7   		movq	%rax, %rdi
 1258 0b59 E8000000 		call	__cxa_begin_catch
 1258      00
 1259              	.LEHB56:
 1260 0b5e E8000000 		call	_ZN8UnitTest11CurrentTest7DetailsEv
 1260      00
 1261 0b63 488B08   		movq	(%rax), %rcx
 1262 0b66 488D85C0 		leaq	-1088(%rbp), %rax
 1262      FBFFFF
 1263 0b6d BA4C0000 		movl	$76, %edx
 1263      00
 1264 0b72 4889CE   		movq	%rcx, %rsi
 1265 0b75 4889C7   		movq	%rax, %rdi
 1266 0b78 E8000000 		call	_ZN8UnitTest11TestDetailsC1ERKS0_i
 1266      00
  76:testSvf2Csvf.cpp **** 	fStatus = headTail(&lineBuf, &headBuf, &tailBuf, lineBits, headBits, tailBits, NULL);
 1267              		.loc 3 76 0 is_stmt 0 discriminator 1
 1268 0b7d E8000000 		call	_ZN8UnitTest11CurrentTest7ResultsEv
 1268      00
 1269 0b82 488B00   		movq	(%rax), %rax
 1270 0b85 488D8DC0 		leaq	-1088(%rbp), %rcx
 1270      FBFFFF
 1271 0b8c BA000000 		movl	$.LC2, %edx
 1271      00
 1272 0b91 4889CE   		movq	%rcx, %rsi
 1273 0b94 4889C7   		movq	%rax, %rdi
 1274 0b97 E8000000 		call	_ZN8UnitTest11TestResults13OnTestFailureERKNS_11TestDetailsEPKc
 1274      00
 1275              	.LEHE56:
 1276              	.LEHB57:
 1277 0b9c E8000000 		call	__cxa_end_catch
 1277      00
 1278              	.LEHE57:
 1279 0ba1 E9B4FBFF 		jmp	.L57
 1279      FF
 1280              	.L81:
 1281 0ba6 4889C3   		movq	%rax, %rbx
  78:testSvf2Csvf.cpp **** 	CHECK_EQUAL(strlen(expectedHex)/2, lineBuf.length);
 1282              		.loc 3 78 0 is_stmt 1
 1283 0ba9 E8000000 		call	__cxa_end_catch
 1283      00
 1284 0bae 4889D8   		movq	%rbx, %rax
 1285 0bb1 4889C7   		movq	%rax, %rdi
 1286              	.LEHB58:
 1287 0bb4 E8000000 		call	_Unwind_Resume
 1287      00
 1288              	.LEHE58:
 1289              	.L80:
 1290 0bb9 4889C7   		movq	%rax, %rdi
 1291 0bbc E8000000 		call	__cxa_begin_catch
 1291      00
 1292              	.LEHB59:
 1293 0bc1 E8000000 		call	_ZN8UnitTest11CurrentTest7DetailsEv
 1293      00
 1294 0bc6 488B08   		movq	(%rax), %rcx
 1295 0bc9 488D85C0 		leaq	-1088(%rbp), %rax
 1295      FBFFFF
 1296 0bd0 BA4E0000 		movl	$78, %edx
 1296      00
 1297 0bd5 4889CE   		movq	%rcx, %rsi
 1298 0bd8 4889C7   		movq	%rax, %rdi
 1299 0bdb E8000000 		call	_ZN8UnitTest11TestDetailsC1ERKS0_i
 1299      00
  78:testSvf2Csvf.cpp **** 	CHECK_EQUAL(strlen(expectedHex)/2, lineBuf.length);
 1300              		.loc 3 78 0 is_stmt 0 discriminator 1
 1301 0be0 E8000000 		call	_ZN8UnitTest11CurrentTest7ResultsEv
 1301      00
 1302 0be5 488B00   		movq	(%rax), %rax
 1303 0be8 488D8DC0 		leaq	-1088(%rbp), %rcx
 1303      FBFFFF
 1304 0bef BA000000 		movl	$.LC2, %edx
 1304      00
 1305 0bf4 4889CE   		movq	%rcx, %rsi
 1306 0bf7 4889C7   		movq	%rax, %rdi
 1307 0bfa E8000000 		call	_ZN8UnitTest11TestResults13OnTestFailureERKNS_11TestDetailsEPKc
 1307      00
 1308              	.LEHE59:
 1309              	.LEHB60:
 1310 0bff E8000000 		call	__cxa_end_catch
 1310      00
 1311              	.LEHE60:
 1312 0c04 E9E3FBFF 		jmp	.L60
 1312      FF
 1313              	.L83:
 1314 0c09 4889C3   		movq	%rax, %rbx
  79:testSvf2Csvf.cpp **** 	for ( uint32 i = 0; i < 2*lineBuf.length; i++ ) {
 1315              		.loc 3 79 0 is_stmt 1
 1316 0c0c E8000000 		call	__cxa_end_catch
 1316      00
 1317 0c11 4889D8   		movq	%rbx, %rax
 1318 0c14 4889C7   		movq	%rax, %rdi
 1319              	.LEHB61:
 1320 0c17 E8000000 		call	_Unwind_Resume
 1320      00
 1321              	.LEHE61:
 1322              	.L82:
 1323 0c1c 4889C7   		movq	%rax, %rdi
 1324 0c1f E8000000 		call	__cxa_begin_catch
 1324      00
 1325              	.LEHB62:
 1326 0c24 E8000000 		call	_ZN8UnitTest11CurrentTest7DetailsEv
 1326      00
 1327 0c29 488B08   		movq	(%rax), %rcx
 1328 0c2c 488D85C0 		leaq	-1088(%rbp), %rax
 1328      FBFFFF
 1329 0c33 BA4F0000 		movl	$79, %edx
 1329      00
 1330 0c38 4889CE   		movq	%rcx, %rsi
 1331 0c3b 4889C7   		movq	%rax, %rdi
 1332 0c3e E8000000 		call	_ZN8UnitTest11TestDetailsC1ERKS0_i
 1332      00
  79:testSvf2Csvf.cpp **** 	for ( uint32 i = 0; i < 2*lineBuf.length; i++ ) {
 1333              		.loc 3 79 0 is_stmt 0 discriminator 1
 1334 0c43 E8000000 		call	_ZN8UnitTest11CurrentTest7ResultsEv
 1334      00
 1335 0c48 488B00   		movq	(%rax), %rax
 1336 0c4b 488D8DC0 		leaq	-1088(%rbp), %rcx
 1336      FBFFFF
 1337 0c52 BA000000 		movl	$.LC14, %edx
 1337      00
 1338 0c57 4889CE   		movq	%rcx, %rsi
 1339 0c5a 4889C7   		movq	%rax, %rdi
 1340 0c5d E8000000 		call	_ZN8UnitTest11TestResults13OnTestFailureERKNS_11TestDetailsEPKc
 1340      00
 1341              	.LEHE62:
 1342              	.LEHB63:
 1343 0c62 E8000000 		call	__cxa_end_catch
 1343      00
 1344              	.LEHE63:
 1345 0c67 E9E7FBFF 		jmp	.L63
 1345      FF
 1346              	.L85:
 1347 0c6c 4889C3   		movq	%rax, %rbx
  84:testSvf2Csvf.cpp **** 	bufDestroy(&tailBuf);
 1348              		.loc 3 84 0 is_stmt 1
 1349 0c6f E8000000 		call	__cxa_end_catch
 1349      00
 1350 0c74 4889D8   		movq	%rbx, %rax
 1351 0c77 4889C7   		movq	%rax, %rdi
 1352              	.LEHB64:
 1353 0c7a E8000000 		call	_Unwind_Resume
 1353      00
 1354              	.LEHE64:
 1355              	.L84:
 1356 0c7f 4889C7   		movq	%rax, %rdi
 1357 0c82 E8000000 		call	__cxa_begin_catch
 1357      00
 1358              	.LEHB65:
 1359 0c87 E8000000 		call	_ZN8UnitTest11CurrentTest7DetailsEv
 1359      00
 1360 0c8c 488B08   		movq	(%rax), %rcx
 1361 0c8f 488D85C0 		leaq	-1088(%rbp), %rax
 1361      FBFFFF
 1362 0c96 BA540000 		movl	$84, %edx
 1362      00
 1363 0c9b 4889CE   		movq	%rcx, %rsi
 1364 0c9e 4889C7   		movq	%rax, %rdi
 1365 0ca1 E8000000 		call	_ZN8UnitTest11TestDetailsC1ERKS0_i
 1365      00
  84:testSvf2Csvf.cpp **** 	bufDestroy(&tailBuf);
 1366              		.loc 3 84 0 is_stmt 0 discriminator 1
 1367 0ca6 E8000000 		call	_ZN8UnitTest11CurrentTest7ResultsEv
 1367      00
 1368 0cab 488B00   		movq	(%rax), %rax
 1369 0cae 488D8DC0 		leaq	-1088(%rbp), %rcx
 1369      FBFFFF
 1370 0cb5 BA000000 		movl	$.LC15, %edx
 1370      00
 1371 0cba 4889CE   		movq	%rcx, %rsi
 1372 0cbd 4889C7   		movq	%rax, %rdi
 1373 0cc0 E8000000 		call	_ZN8UnitTest11TestResults13OnTestFailureERKNS_11TestDetailsEPKc
 1373      00
 1374              	.LEHE65:
 1375              	.LEHB66:
 1376 0cc5 E8000000 		call	__cxa_end_catch
 1376      00
 1377              	.LEHE66:
 1378 0cca E940FCFF 		jmp	.L66
 1378      FF
 1379              	.L86:
 1380              	.LBE11:
 1381              		.loc 3 88 0 is_stmt 1
 1382 0ccf E8000000 		call	__stack_chk_fail
 1382      00
 1383              	.L67:
 1384 0cd4 4881C4F8 		addq	$1272, %rsp
 1384      040000
 1385 0cdb 5B       		popq	%rbx
 1386 0cdc 5D       		popq	%rbp
 1387              		.cfi_def_cfa 7, 8
 1388 0cdd C3       		ret
 1389              		.cfi_endproc
 1390              	.LFE1028:
 1391              		.section	.gcc_except_table
 1392              		.align 4
 1393              	.LLSDA1028:
 1394 0078 FF       		.byte	0xff
 1395 0079 03       		.byte	0x3
 1396 007a F801     		.uleb128 .LLSDATT1028-.LLSDATTD1028
 1397              	.LLSDATTD1028:
 1398 007c 01       		.byte	0x1
 1399 007d EC01     		.uleb128 .LLSDACSE1028-.LLSDACSB1028
 1400              	.LLSDACSB1028:
 1401 007f 67       		.uleb128 .LEHB23-.LFB1028
 1402 0080 05       		.uleb128 .LEHE23-.LEHB23
 1403 0081 00       		.uleb128 0
 1404 0082 00       		.uleb128 0
 1405 0083 72       		.uleb128 .LEHB24-.LFB1028
 1406 0084 4E       		.uleb128 .LEHE24-.LEHB24
 1407 0085 870A     		.uleb128 .L68-.LFB1028
 1408 0087 01       		.uleb128 0x1
 1409 0088 D901     		.uleb128 .LEHB25-.LFB1028
 1410 008a 05       		.uleb128 .LEHE25-.LEHB25
 1411 008b 00       		.uleb128 0
 1412 008c 00       		.uleb128 0
 1413 008d E401     		.uleb128 .LEHB26-.LFB1028
 1414 008f 4E       		.uleb128 .LEHE26-.LEHB26
 1415 0090 EA0A     		.uleb128 .L70-.LFB1028
 1416 0092 01       		.uleb128 0x1
 1417 0093 CB02     		.uleb128 .LEHB27-.LFB1028
 1418 0095 05       		.uleb128 .LEHE27-.LEHB27
 1419 0096 00       		.uleb128 0
 1420 0097 00       		.uleb128 0
 1421 0098 D602     		.uleb128 .LEHB28-.LFB1028
 1422 009a 4E       		.uleb128 .LEHE28-.LEHB28
 1423 009b CD0B     		.uleb128 .L72-.LFB1028
 1424 009d 01       		.uleb128 0x1
 1425 009e BD03     		.uleb128 .LEHB29-.LFB1028
 1426 00a0 05       		.uleb128 .LEHE29-.LEHB29
 1427 00a1 00       		.uleb128 0
 1428 00a2 00       		.uleb128 0
 1429 00a3 C803     		.uleb128 .LEHB30-.LFB1028
 1430 00a5 4E       		.uleb128 .LEHE30-.LEHB30
 1431 00a6 B00C     		.uleb128 .L74-.LFB1028
 1432 00a8 01       		.uleb128 0x1
 1433 00a9 AF04     		.uleb128 .LEHB31-.LFB1028
 1434 00ab 05       		.uleb128 .LEHE31-.LEHB31
 1435 00ac 00       		.uleb128 0
 1436 00ad 00       		.uleb128 0
 1437 00ae BA04     		.uleb128 .LEHB32-.LFB1028
 1438 00b0 4E       		.uleb128 .LEHE32-.LEHB32
 1439 00b1 930D     		.uleb128 .L76-.LFB1028
 1440 00b3 01       		.uleb128 0x1
 1441 00b4 A105     		.uleb128 .LEHB33-.LFB1028
 1442 00b6 05       		.uleb128 .LEHE33-.LEHB33
 1443 00b7 00       		.uleb128 0
 1444 00b8 00       		.uleb128 0
 1445 00b9 AC05     		.uleb128 .LEHB34-.LFB1028
 1446 00bb 4E       		.uleb128 .LEHE34-.LEHB34
 1447 00bc F60D     		.uleb128 .L78-.LFB1028
 1448 00be 01       		.uleb128 0x1
 1449 00bf B306     		.uleb128 .LEHB35-.LFB1028
 1450 00c1 05       		.uleb128 .LEHE35-.LEHB35
 1451 00c2 00       		.uleb128 0
 1452 00c3 00       		.uleb128 0
 1453 00c4 BE06     		.uleb128 .LEHB36-.LFB1028
 1454 00c6 4E       		.uleb128 .LEHE36-.LEHB36
 1455 00c7 D90E     		.uleb128 .L80-.LFB1028
 1456 00c9 01       		.uleb128 0x1
 1457 00ca 8C07     		.uleb128 .LEHB37-.LFB1028
 1458 00cc 67       		.uleb128 .LEHE37-.LEHB37
 1459 00cd BC0F     		.uleb128 .L82-.LFB1028
 1460 00cf 01       		.uleb128 0x1
 1461 00d0 EB08     		.uleb128 .LEHB38-.LFB1028
 1462 00d2 44       		.uleb128 .LEHE38-.LEHB38
 1463 00d3 9F10     		.uleb128 .L84-.LFB1028
 1464 00d5 01       		.uleb128 0x1
 1465 00d6 B909     		.uleb128 .LEHB39-.LFB1028
 1466 00d8 23       		.uleb128 .LEHE39-.LEHB39
 1467 00d9 00       		.uleb128 0
 1468 00da 00       		.uleb128 0
 1469 00db 820A     		.uleb128 .LEHB40-.LFB1028
 1470 00dd 05       		.uleb128 .LEHE40-.LEHB40
 1471 00de 00       		.uleb128 0
 1472 00df 00       		.uleb128 0
 1473 00e0 8F0A     		.uleb128 .LEHB41-.LFB1028
 1474 00e2 3E       		.uleb128 .LEHE41-.LEHB41
 1475 00e3 F409     		.uleb128 .L69-.LFB1028
 1476 00e5 00       		.uleb128 0
 1477 00e6 CD0A     		.uleb128 .LEHB42-.LFB1028
 1478 00e8 05       		.uleb128 .LEHE42-.LEHB42
 1479 00e9 00       		.uleb128 0
 1480 00ea 00       		.uleb128 0
 1481 00eb E50A     		.uleb128 .LEHB43-.LFB1028
 1482 00ed 05       		.uleb128 .LEHE43-.LEHB43
 1483 00ee 00       		.uleb128 0
 1484 00ef 00       		.uleb128 0
 1485 00f0 F20A     		.uleb128 .LEHB44-.LFB1028
 1486 00f2 3E       		.uleb128 .LEHE44-.LEHB44
 1487 00f3 D70A     		.uleb128 .L71-.LFB1028
 1488 00f5 00       		.uleb128 0
 1489 00f6 B00B     		.uleb128 .LEHB45-.LFB1028
 1490 00f8 05       		.uleb128 .LEHE45-.LEHB45
 1491 00f9 00       		.uleb128 0
 1492 00fa 00       		.uleb128 0
 1493 00fb C80B     		.uleb128 .LEHB46-.LFB1028
 1494 00fd 05       		.uleb128 .LEHE46-.LEHB46
 1495 00fe 00       		.uleb128 0
 1496 00ff 00       		.uleb128 0
 1497 0100 D50B     		.uleb128 .LEHB47-.LFB1028
 1498 0102 3E       		.uleb128 .LEHE47-.LEHB47
 1499 0103 BA0B     		.uleb128 .L73-.LFB1028
 1500 0105 00       		.uleb128 0
 1501 0106 930C     		.uleb128 .LEHB48-.LFB1028
 1502 0108 05       		.uleb128 .LEHE48-.LEHB48
 1503 0109 00       		.uleb128 0
 1504 010a 00       		.uleb128 0
 1505 010b AB0C     		.uleb128 .LEHB49-.LFB1028
 1506 010d 05       		.uleb128 .LEHE49-.LEHB49
 1507 010e 00       		.uleb128 0
 1508 010f 00       		.uleb128 0
 1509 0110 B80C     		.uleb128 .LEHB50-.LFB1028
 1510 0112 3E       		.uleb128 .LEHE50-.LEHB50
 1511 0113 9D0C     		.uleb128 .L75-.LFB1028
 1512 0115 00       		.uleb128 0
 1513 0116 F60C     		.uleb128 .LEHB51-.LFB1028
 1514 0118 05       		.uleb128 .LEHE51-.LEHB51
 1515 0119 00       		.uleb128 0
 1516 011a 00       		.uleb128 0
 1517 011b 8E0D     		.uleb128 .LEHB52-.LFB1028
 1518 011d 05       		.uleb128 .LEHE52-.LEHB52
 1519 011e 00       		.uleb128 0
 1520 011f 00       		.uleb128 0
 1521 0120 9B0D     		.uleb128 .LEHB53-.LFB1028
 1522 0122 3E       		.uleb128 .LEHE53-.LEHB53
 1523 0123 800D     		.uleb128 .L77-.LFB1028
 1524 0125 00       		.uleb128 0
 1525 0126 D90D     		.uleb128 .LEHB54-.LFB1028
 1526 0128 05       		.uleb128 .LEHE54-.LEHB54
 1527 0129 00       		.uleb128 0
 1528 012a 00       		.uleb128 0
 1529 012b F10D     		.uleb128 .LEHB55-.LFB1028
 1530 012d 05       		.uleb128 .LEHE55-.LEHB55
 1531 012e 00       		.uleb128 0
 1532 012f 00       		.uleb128 0
 1533 0130 FE0D     		.uleb128 .LEHB56-.LFB1028
 1534 0132 3E       		.uleb128 .LEHE56-.LEHB56
 1535 0133 E30D     		.uleb128 .L79-.LFB1028
 1536 0135 00       		.uleb128 0
 1537 0136 BC0E     		.uleb128 .LEHB57-.LFB1028
 1538 0138 05       		.uleb128 .LEHE57-.LEHB57
 1539 0139 00       		.uleb128 0
 1540 013a 00       		.uleb128 0
 1541 013b D40E     		.uleb128 .LEHB58-.LFB1028
 1542 013d 05       		.uleb128 .LEHE58-.LEHB58
 1543 013e 00       		.uleb128 0
 1544 013f 00       		.uleb128 0
 1545 0140 E10E     		.uleb128 .LEHB59-.LFB1028
 1546 0142 3E       		.uleb128 .LEHE59-.LEHB59
 1547 0143 C60E     		.uleb128 .L81-.LFB1028
 1548 0145 00       		.uleb128 0
 1549 0146 9F0F     		.uleb128 .LEHB60-.LFB1028
 1550 0148 05       		.uleb128 .LEHE60-.LEHB60
 1551 0149 00       		.uleb128 0
 1552 014a 00       		.uleb128 0
 1553 014b B70F     		.uleb128 .LEHB61-.LFB1028
 1554 014d 05       		.uleb128 .LEHE61-.LEHB61
 1555 014e 00       		.uleb128 0
 1556 014f 00       		.uleb128 0
 1557 0150 C40F     		.uleb128 .LEHB62-.LFB1028
 1558 0152 3E       		.uleb128 .LEHE62-.LEHB62
 1559 0153 A90F     		.uleb128 .L83-.LFB1028
 1560 0155 00       		.uleb128 0
 1561 0156 8210     		.uleb128 .LEHB63-.LFB1028
 1562 0158 05       		.uleb128 .LEHE63-.LEHB63
 1563 0159 00       		.uleb128 0
 1564 015a 00       		.uleb128 0
 1565 015b 9A10     		.uleb128 .LEHB64-.LFB1028
 1566 015d 05       		.uleb128 .LEHE64-.LEHB64
 1567 015e 00       		.uleb128 0
 1568 015f 00       		.uleb128 0
 1569 0160 A710     		.uleb128 .LEHB65-.LFB1028
 1570 0162 3E       		.uleb128 .LEHE65-.LEHB65
 1571 0163 8C10     		.uleb128 .L85-.LFB1028
 1572 0165 00       		.uleb128 0
 1573 0166 E510     		.uleb128 .LEHB66-.LFB1028
 1574 0168 05       		.uleb128 .LEHE66-.LEHB66
 1575 0169 00       		.uleb128 0
 1576 016a 00       		.uleb128 0
 1577              	.LLSDACSE1028:
 1578 016b 01       		.byte	0x1
 1579 016c 00       		.byte	0
 1580 016d 000000   		.align 4
 1581 0170 00000000 		.long	0
 1582              	
 1583              	.LLSDATT1028:
 1584              		.text
 1586              		.section	.rodata
 1587              	.LC16:
 1588 01eb 46504741 		.string	"FPGALink_testShift"
 1588      4C696E6B 
 1588      5F746573 
 1588      74536869 
 1588      667400
 1589              		.section	.text._ZN22TestFPGALink_testShiftC2Ev,"axG",@progbits,_ZN22TestFPGALink_testShiftC5Ev,com
 1590              		.align 2
 1591              		.weak	_ZN22TestFPGALink_testShiftC2Ev
 1593              	_ZN22TestFPGALink_testShiftC2Ev:
 1594              	.LFB1030:
  89:testSvf2Csvf.cpp **** 
  90:testSvf2Csvf.cpp **** TEST(FPGALink_testShift) {
 1595              		.loc 3 90 0
 1596              		.cfi_startproc
 1597 0000 55       		pushq	%rbp
 1598              		.cfi_def_cfa_offset 16
 1599              		.cfi_offset 6, -16
 1600 0001 4889E5   		movq	%rsp, %rbp
 1601              		.cfi_def_cfa_register 6
 1602 0004 4883EC10 		subq	$16, %rsp
 1603 0008 48897DF8 		movq	%rdi, -8(%rbp)
 1604              	.LBB12:
 1605              		.loc 3 90 0
 1606 000c E8000000 		call	_ZN13UnitTestSuite12GetSuiteNameEv
 1606      00
 1607 0011 4889C2   		movq	%rax, %rdx
 1608 0014 488B45F8 		movq	-8(%rbp), %rax
 1609 0018 41B85A00 		movl	$90, %r8d
 1609      0000
 1610 001e B9000000 		movl	$.LC5, %ecx
 1610      00
 1611 0023 BE000000 		movl	$.LC16, %esi
 1611      00
 1612 0028 4889C7   		movq	%rax, %rdi
 1613 002b E8000000 		call	_ZN8UnitTest4TestC2EPKcS2_S2_i
 1613      00
 1614 0030 488B45F8 		movq	-8(%rbp), %rax
 1615 0034 48C70000 		movq	$_ZTV22TestFPGALink_testShift+16, (%rax)
 1615      000000
 1616              	.LBE12:
 1617 003b C9       		leave
 1618              		.cfi_def_cfa 7, 8
 1619 003c C3       		ret
 1620              		.cfi_endproc
 1621              	.LFE1030:
 1623              		.weak	_ZN22TestFPGALink_testShiftC1Ev
 1624              		.set	_ZN22TestFPGALink_testShiftC1Ev,_ZN22TestFPGALink_testShiftC2Ev
 1625              		.globl	testFPGALink_testShiftInstance
 1626              		.bss
 1627 0039 00000000 		.align 32
 1627      000000
 1630              	testFPGALink_testShiftInstance:
 1631 0040 00000000 		.zero	56
 1631      00000000 
 1631      00000000 
 1631      00000000 
 1631      00000000 
 1632              		.globl	adderFPGALink_testShift
 1635              	adderFPGALink_testShift:
 1636 0078 00       		.zero	1
 1637              		.section	.rodata
 1638              	.LC17:
 1639 01fe 303600   		.string	"06"
 1640              	.LC18:
 1641 0201 303000   		.string	"00"
 1642              	.LC19:
 1643 0204 46314332 		.string	"F1C2E093"
 1643      45303933 
 1643      00
 1644              	.LC20:
 1645 020d 30364631 		.string	"06F1C2E093"
 1645      43324530 
 1645      393300
 1646              	.LC21:
 1647 0218 303100   		.string	"01"
 1648              	.LC22:
 1649 021b 30444533 		.string	"0DE385C127"
 1649      38354331 
 1649      323700
 1650              	.LC23:
 1651 0226 303200   		.string	"02"
 1652              	.LC24:
 1653 0229 31424337 		.string	"1BC70B824E"
 1653      30423832 
 1653      344500
 1654              	.LC25:
 1655 0234 33373845 		.string	"378E17049E"
 1655      31373034 
 1655      394500
 1656              	.LC26:
 1657 023f 304100   		.string	"0A"
 1658              	.LC27:
 1659 0242 36463143 		.string	"6F1C2E093A"
 1659      32453039 
 1659      334100
 1660              	.LC28:
 1661 024d 313500   		.string	"15"
 1662              	.LC29:
 1663 0250 44453338 		.string	"DE385C1275"
 1663      35433132 
 1663      373500
 1664              	.LC30:
 1665 025b 323500   		.string	"25"
 1666              	.LC31:
 1667 025e 30314243 		.string	"01BC70B824E5"
 1667      37304238 
 1667      32344535 
 1667      00
 1668              	.LC32:
 1669 026b 373500   		.string	"75"
 1670              	.LC33:
 1671 026e 30333738 		.string	"0378E17049F5"
 1671      45313730 
 1671      34394635 
 1671      00
 1672              	.LC34:
 1673 027b 653500   		.string	"e5"
 1674              	.LC35:
 1675 027e 30364631 		.string	"06F1C2E093E5"
 1675      43324530 
 1675      39334535 
 1675      00
 1676              	.LC36:
 1677 028b 30313135 		.string	"0115"
 1677      00
 1678              	.LC37:
 1679 0290 30444533 		.string	"0DE385C12715"
 1679      38354331 
 1679      32373135 
 1679      00
 1680              	.LC38:
 1681 029d 30333135 		.string	"0315"
 1681      00
 1682              	.LC39:
 1683 02a2 31424337 		.string	"1BC70B824F15"
 1683      30423832 
 1683      34463135 
 1683      00
 1684              	.LC40:
 1685 02af 30373135 		.string	"0715"
 1685      00
 1686              	.LC41:
 1687 02b4 33373845 		.string	"378E17049F15"
 1687      31373034 
 1687      39463135 
 1687      00
 1688              	.LC42:
 1689 02c1 30633135 		.string	"0c15"
 1689      00
 1690              	.LC43:
 1691 02c6 36463143 		.string	"6F1C2E093C15"
 1691      32453039 
 1691      33433135 
 1691      00
 1692              	.LC44:
 1693 02d3 31633135 		.string	"1c15"
 1693      00
 1694              	.LC45:
 1695 02d8 44453338 		.string	"DE385C127C15"
 1695      35433132 
 1695      37433135 
 1695      00
 1696              	.LC46:
 1697 02e5 32633135 		.string	"2c15"
 1697      00
 1698              	.LC47:
 1699 02ea 30314243 		.string	"01BC70B824EC15"
 1699      37304238 
 1699      32344543 
 1699      313500
 1700              	.LC48:
 1701 02f9 34303135 		.string	"4015"
 1701      00
 1702              	.LC49:
 1703 02fe 30333738 		.string	"0378E17049C015"
 1703      45313730 
 1703      34394330 
 1703      313500
 1704              	.LC50:
 1705 030d 38303135 		.string	"8015"
 1705      00
 1706              	.LC51:
 1707 0312 30364631 		.string	"06F1C2E0938015"
 1707      43324530 
 1707      39333830 
 1707      313500
 1708              	.LC52:
 1709 0321 30313830 		.string	"018015"
 1709      313500
 1710              	.LC53:
 1711 0328 30444533 		.string	"0DE385C1278015"
 1711      38354331 
 1711      32373830 
 1711      313500
 1712              	.LC54:
 1713 0337 30414631 		.string	"0AF1C2E093"
 1713      43324530 
 1713      393300
 1714              	.LC55:
 1715 0342 31354533 		.string	"15E385C127"
 1715      38354331 
 1715      323700
 1716              	.LC56:
 1717 034d 32424337 		.string	"2BC70B824E"
 1717      30423832 
 1717      344500
 1718              	.LC57:
 1719 0358 35373845 		.string	"578E17049E"
 1719      31373034 
 1719      394500
 1720              	.LC58:
 1721 0363 41463143 		.string	"AF1C2E093A"
 1721      32453039 
 1721      334100
 1722              	.LC59:
 1723 036e 30313545 		.string	"015E385C1275"
 1723      33383543 
 1723      31323735 
 1723      00
 1724              	.LC60:
 1725 037b 30324243 		.string	"02BC70B824E5"
 1725      37304238 
 1725      32344535 
 1725      00
 1726              	.LC61:
 1727 0388 30353738 		.string	"0578E17049F5"
 1727      45313730 
 1727      34394635 
 1727      00
 1728              	.LC62:
 1729 0395 30414631 		.string	"0AF1C2E093E5"
 1729      43324530 
 1729      39334535 
 1729      00
 1730              	.LC63:
 1731 03a2 31354533 		.string	"15E385C12715"
 1731      38354331 
 1731      32373135 
 1731      00
 1732              	.LC64:
 1733 03af 32424337 		.string	"2BC70B824F15"
 1733      30423832 
 1733      34463135 
 1733      00
 1734              	.LC65:
 1735 03bc 35373845 		.string	"578E17049F15"
 1735      31373034 
 1735      39463135 
 1735      00
 1736              	.LC66:
 1737 03c9 41463143 		.string	"AF1C2E093C15"
 1737      32453039 
 1737      33433135 
 1737      00
 1738              	.LC67:
 1739 03d6 30313545 		.string	"015E385C127C15"
 1739      33383543 
 1739      31323743 
 1739      313500
 1740              	.LC68:
 1741 03e5 30324243 		.string	"02BC70B824EC15"
 1741      37304238 
 1741      32344543 
 1741      313500
 1742              	.LC69:
 1743 03f4 30353738 		.string	"0578E17049C015"
 1743      45313730 
 1743      34394330 
 1743      313500
 1744              	.LC70:
 1745 0403 30414631 		.string	"0AF1C2E0938015"
 1745      43324530 
 1745      39333830 
 1745      313500
 1746              	.LC71:
 1747 0412 31354533 		.string	"15E385C1278015"
 1747      38354331 
 1747      32373830 
 1747      313500
 1748              	.LC72:
 1749 0421 30313335 		.string	"0135"
 1749      00
 1750              	.LC73:
 1751 0426 30313335 		.string	"0135F1C2E093"
 1751      46314332 
 1751      45303933 
 1751      00
 1752              	.LC74:
 1753 0433 30323642 		.string	"026BE385C127"
 1753      45333835 
 1753      43313237 
 1753      00
 1754              	.LC75:
 1755 0440 30344437 		.string	"04D7C70B824E"
 1755      43373042 
 1755      38323445 
 1755      00
 1756              	.LC76:
 1757 044d 30394146 		.string	"09AF8E17049E"
 1757      38453137 
 1757      30343945 
 1757      00
 1758              	.LC77:
 1759 045a 31333546 		.string	"135F1C2E093A"
 1759      31433245 
 1759      30393341 
 1759      00
 1760              	.LC78:
 1761 0467 32364245 		.string	"26BE385C1275"
 1761      33383543 
 1761      31323735 
 1761      00
 1762              	.LC79:
 1763 0474 34443743 		.string	"4D7C70B824E5"
 1763      37304238 
 1763      32344535 
 1763      00
 1764              	.LC80:
 1765 0481 39414638 		.string	"9AF8E17049F5"
 1765      45313730 
 1765      34394635 
 1765      00
 1766              	.LC81:
 1767 048e 30313335 		.string	"0135F1C2E093E5"
 1767      46314332 
 1767      45303933 
 1767      453500
 1768              	.LC82:
 1769 049d 30323642 		.string	"026BE385C12715"
 1769      45333835 
 1769      43313237 
 1769      313500
 1770              	.LC83:
 1771 04ac 30344437 		.string	"04D7C70B824F15"
 1771      43373042 
 1771      38323446 
 1771      313500
 1772              	.LC84:
 1773 04bb 30394146 		.string	"09AF8E17049F15"
 1773      38453137 
 1773      30343946 
 1773      313500
 1774              	.LC85:
 1775 04ca 31333546 		.string	"135F1C2E093C15"
 1775      31433245 
 1775      30393343 
 1775      313500
 1776              	.LC86:
 1777 04d9 32364245 		.string	"26BE385C127C15"
 1777      33383543 
 1777      31323743 
 1777      313500
 1778              	.LC87:
 1779 04e8 34443743 		.string	"4D7C70B824EC15"
 1779      37304238 
 1779      32344543 
 1779      313500
 1780              	.LC88:
 1781 04f7 39414638 		.string	"9AF8E17049C015"
 1781      45313730 
 1781      34394330 
 1781      313500
 1782              	.LC89:
 1783 0506 30313335 		.string	"0135F1C2E0938015"
 1783      46314332 
 1783      45303933 
 1783      38303135 
 1783      00
 1784              	.LC90:
 1785 0517 30323642 		.string	"026BE385C1278015"
 1785      45333835 
 1785      43313237 
 1785      38303135 
 1785      00
 1786              	.LC91:
 1787 0528 37314332 		.string	"71C2E093"
 1787      45303933 
 1787      00
 1788              	.LC92:
 1789 0531 39414631 		.string	"9AF1C2E093"
 1789      43324530 
 1789      393300
 1790              	.LC93:
 1791 053c 30313335 		.string	"0135E385C127"
 1791      45333835 
 1791      43313237 
 1791      00
 1792              	.LC94:
 1793 0549 30323642 		.string	"026BC70B824E"
 1793      43373042 
 1793      38323445 
 1793      00
 1794              	.LC95:
 1795 0556 30344437 		.string	"04D78E17049E"
 1795      38453137 
 1795      30343945 
 1795      00
 1796              	.LC96:
 1797 0563 30394146 		.string	"09AF1C2E093A"
 1797      31433245 
 1797      30393341 
 1797      00
 1798              	.LC97:
 1799 0570 31333545 		.string	"135E385C1275"
 1799      33383543 
 1799      31323735 
 1799      00
 1800              	.LC98:
 1801 057d 32364243 		.string	"26BC70B824E5"
 1801      37304238 
 1801      32344535 
 1801      00
 1802              	.LC99:
 1803 058a 34443738 		.string	"4D78E17049F5"
 1803      45313730 
 1803      34394635 
 1803      00
 1804              	.LC100:
 1805 0597 39414631 		.string	"9AF1C2E093E5"
 1805      43324530 
 1805      39334535 
 1805      00
 1806              	.LC101:
 1807 05a4 30313335 		.string	"0135E385C12715"
 1807      45333835 
 1807      43313237 
 1807      313500
 1808              	.LC102:
 1809 05b3 30323642 		.string	"026BC70B824F15"
 1809      43373042 
 1809      38323446 
 1809      313500
 1810              	.LC103:
 1811 05c2 30344437 		.string	"04D78E17049F15"
 1811      38453137 
 1811      30343946 
 1811      313500
 1812              	.LC104:
 1813 05d1 30394146 		.string	"09AF1C2E093C15"
 1813      31433245 
 1813      30393343 
 1813      313500
 1814              	.LC105:
 1815 05e0 31333545 		.string	"135E385C127C15"
 1815      33383543 
 1815      31323743 
 1815      313500
 1816              	.LC106:
 1817 05ef 32364243 		.string	"26BC70B824EC15"
 1817      37304238 
 1817      32344543 
 1817      313500
 1818              	.LC107:
 1819 05fe 34443738 		.string	"4D78E17049C015"
 1819      45313730 
 1819      34394330 
 1819      313500
 1820              	.LC108:
 1821 060d 39414631 		.string	"9AF1C2E0938015"
 1821      43324530 
 1821      39333830 
 1821      313500
 1822              	.LC109:
 1823 061c 30313335 		.string	"0135E385C1278015"
 1823      45333835 
 1823      43313237 
 1823      38303135 
 1823      00
 1824              	.LC110:
 1825 062d 00       		.string	""
 1826              	.LC111:
 1827 062e 35343233 		.string	"5423DF3A8F129B2C91B9425D"
 1827      44463341 
 1827      38463132 
 1827      39423243 
 1827      39314239 
 1828              	.LC112:
 1829 0647 44343233 		.string	"D423DF3A8F129B2C91B9425D"
 1829      44463341 
 1829      38463132 
 1829      39423243 
 1829      39314239 
 1830              	.LC113:
 1831 0660 41383437 		.string	"A847BE751E253659237284BB"
 1831      42453735 
 1831      31453235 
 1831      33363539 
 1831      32333732 
 1832              		.text
 1833              		.align 2
 1834              		.globl	_ZNK22TestFPGALink_testShift7RunImplEv
 1836              	_ZNK22TestFPGALink_testShift7RunImplEv:
 1837              	.LFB1032:
 1838              		.loc 3 90 0
 1839              		.cfi_startproc
 1840 0cde 55       		pushq	%rbp
 1841              		.cfi_def_cfa_offset 16
 1842              		.cfi_offset 6, -16
 1843 0cdf 4889E5   		movq	%rsp, %rbp
 1844              		.cfi_def_cfa_register 6
 1845 0ce2 4883EC10 		subq	$16, %rsp
 1846 0ce6 48897DF8 		movq	%rdi, -8(%rbp)
  91:testSvf2Csvf.cpp **** 	testShift(
  92:testSvf2Csvf.cpp **** 		"F1C2E093", 32,
  93:testSvf2Csvf.cpp **** 		"00", 0,
  94:testSvf2Csvf.cpp **** 		"06", 3,
  95:testSvf2Csvf.cpp **** 		"06F1C2E093"
  96:testSvf2Csvf.cpp **** 	);
 1847              		.loc 3 96 0
 1848 0cea 48C70424 		movq	$.LC20, (%rsp)
 1848      00000000 
 1849 0cf2 41B90300 		movl	$3, %r9d
 1849      0000
 1850 0cf8 41B80000 		movl	$.LC17, %r8d
 1850      0000
 1851 0cfe B9000000 		movl	$0, %ecx
 1851      00
 1852 0d03 BA000000 		movl	$.LC18, %edx
 1852      00
 1853 0d08 BE200000 		movl	$32, %esi
 1853      00
 1854 0d0d BF000000 		movl	$.LC19, %edi
 1854      00
 1855 0d12 E8000000 		call	_Z9testShiftPKcjS0_jS0_jS0_
 1855      00
  97:testSvf2Csvf.cpp **** 	testShift(
  98:testSvf2Csvf.cpp **** 		"F1C2E093", 32,
  99:testSvf2Csvf.cpp **** 		"01", 1,
 100:testSvf2Csvf.cpp **** 		"06", 3,
 101:testSvf2Csvf.cpp **** 		"0DE385C127"
 102:testSvf2Csvf.cpp **** 	);
 1856              		.loc 3 102 0
 1857 0d17 48C70424 		movq	$.LC22, (%rsp)
 1857      00000000 
 1858 0d1f 41B90300 		movl	$3, %r9d
 1858      0000
 1859 0d25 41B80000 		movl	$.LC17, %r8d
 1859      0000
 1860 0d2b B9010000 		movl	$1, %ecx
 1860      00
 1861 0d30 BA000000 		movl	$.LC21, %edx
 1861      00
 1862 0d35 BE200000 		movl	$32, %esi
 1862      00
 1863 0d3a BF000000 		movl	$.LC19, %edi
 1863      00
 1864 0d3f E8000000 		call	_Z9testShiftPKcjS0_jS0_jS0_
 1864      00
 103:testSvf2Csvf.cpp **** 	testShift(
 104:testSvf2Csvf.cpp **** 		"F1C2E093", 32,
 105:testSvf2Csvf.cpp **** 		"02", 2,
 106:testSvf2Csvf.cpp **** 		"06", 3,
 107:testSvf2Csvf.cpp **** 		"1BC70B824E"
 108:testSvf2Csvf.cpp **** 	);
 1865              		.loc 3 108 0
 1866 0d44 48C70424 		movq	$.LC24, (%rsp)
 1866      00000000 
 1867 0d4c 41B90300 		movl	$3, %r9d
 1867      0000
 1868 0d52 41B80000 		movl	$.LC17, %r8d
 1868      0000
 1869 0d58 B9020000 		movl	$2, %ecx
 1869      00
 1870 0d5d BA000000 		movl	$.LC23, %edx
 1870      00
 1871 0d62 BE200000 		movl	$32, %esi
 1871      00
 1872 0d67 BF000000 		movl	$.LC19, %edi
 1872      00
 1873 0d6c E8000000 		call	_Z9testShiftPKcjS0_jS0_jS0_
 1873      00
 109:testSvf2Csvf.cpp **** 	testShift(
 110:testSvf2Csvf.cpp **** 		"F1C2E093", 32,
 111:testSvf2Csvf.cpp **** 		"06", 3,
 112:testSvf2Csvf.cpp **** 		"06", 3,
 113:testSvf2Csvf.cpp **** 		"378E17049E"
 114:testSvf2Csvf.cpp **** 	);
 1874              		.loc 3 114 0
 1875 0d71 48C70424 		movq	$.LC25, (%rsp)
 1875      00000000 
 1876 0d79 41B90300 		movl	$3, %r9d
 1876      0000
 1877 0d7f 41B80000 		movl	$.LC17, %r8d
 1877      0000
 1878 0d85 B9030000 		movl	$3, %ecx
 1878      00
 1879 0d8a BA000000 		movl	$.LC17, %edx
 1879      00
 1880 0d8f BE200000 		movl	$32, %esi
 1880      00
 1881 0d94 BF000000 		movl	$.LC19, %edi
 1881      00
 1882 0d99 E8000000 		call	_Z9testShiftPKcjS0_jS0_jS0_
 1882      00
 115:testSvf2Csvf.cpp **** 	testShift(
 116:testSvf2Csvf.cpp **** 		"F1C2E093", 32,
 117:testSvf2Csvf.cpp **** 		"0A", 4,
 118:testSvf2Csvf.cpp **** 		"06", 3,
 119:testSvf2Csvf.cpp **** 		"6F1C2E093A"
 120:testSvf2Csvf.cpp **** 	);
 1883              		.loc 3 120 0
 1884 0d9e 48C70424 		movq	$.LC27, (%rsp)
 1884      00000000 
 1885 0da6 41B90300 		movl	$3, %r9d
 1885      0000
 1886 0dac 41B80000 		movl	$.LC17, %r8d
 1886      0000
 1887 0db2 B9040000 		movl	$4, %ecx
 1887      00
 1888 0db7 BA000000 		movl	$.LC26, %edx
 1888      00
 1889 0dbc BE200000 		movl	$32, %esi
 1889      00
 1890 0dc1 BF000000 		movl	$.LC19, %edi
 1890      00
 1891 0dc6 E8000000 		call	_Z9testShiftPKcjS0_jS0_jS0_
 1891      00
 121:testSvf2Csvf.cpp **** 	testShift(
 122:testSvf2Csvf.cpp **** 		"F1C2E093", 32,
 123:testSvf2Csvf.cpp **** 		"15", 5,
 124:testSvf2Csvf.cpp **** 		"06", 3,
 125:testSvf2Csvf.cpp **** 		"DE385C1275"
 126:testSvf2Csvf.cpp **** 	);
 1892              		.loc 3 126 0
 1893 0dcb 48C70424 		movq	$.LC29, (%rsp)
 1893      00000000 
 1894 0dd3 41B90300 		movl	$3, %r9d
 1894      0000
 1895 0dd9 41B80000 		movl	$.LC17, %r8d
 1895      0000
 1896 0ddf B9050000 		movl	$5, %ecx
 1896      00
 1897 0de4 BA000000 		movl	$.LC28, %edx
 1897      00
 1898 0de9 BE200000 		movl	$32, %esi
 1898      00
 1899 0dee BF000000 		movl	$.LC19, %edi
 1899      00
 1900 0df3 E8000000 		call	_Z9testShiftPKcjS0_jS0_jS0_
 1900      00
 127:testSvf2Csvf.cpp **** 	testShift(
 128:testSvf2Csvf.cpp **** 		"F1C2E093", 32,
 129:testSvf2Csvf.cpp **** 		"25", 6,
 130:testSvf2Csvf.cpp **** 		"06", 3,
 131:testSvf2Csvf.cpp **** 		"01BC70B824E5"
 132:testSvf2Csvf.cpp **** 	);
 1901              		.loc 3 132 0
 1902 0df8 48C70424 		movq	$.LC31, (%rsp)
 1902      00000000 
 1903 0e00 41B90300 		movl	$3, %r9d
 1903      0000
 1904 0e06 41B80000 		movl	$.LC17, %r8d
 1904      0000
 1905 0e0c B9060000 		movl	$6, %ecx
 1905      00
 1906 0e11 BA000000 		movl	$.LC30, %edx
 1906      00
 1907 0e16 BE200000 		movl	$32, %esi
 1907      00
 1908 0e1b BF000000 		movl	$.LC19, %edi
 1908      00
 1909 0e20 E8000000 		call	_Z9testShiftPKcjS0_jS0_jS0_
 1909      00
 133:testSvf2Csvf.cpp **** 	testShift(
 134:testSvf2Csvf.cpp **** 		"F1C2E093", 32,
 135:testSvf2Csvf.cpp **** 		"75", 7,
 136:testSvf2Csvf.cpp **** 		"06", 3,
 137:testSvf2Csvf.cpp **** 		"0378E17049F5"
 138:testSvf2Csvf.cpp **** 	);
 1910              		.loc 3 138 0
 1911 0e25 48C70424 		movq	$.LC33, (%rsp)
 1911      00000000 
 1912 0e2d 41B90300 		movl	$3, %r9d
 1912      0000
 1913 0e33 41B80000 		movl	$.LC17, %r8d
 1913      0000
 1914 0e39 B9070000 		movl	$7, %ecx
 1914      00
 1915 0e3e BA000000 		movl	$.LC32, %edx
 1915      00
 1916 0e43 BE200000 		movl	$32, %esi
 1916      00
 1917 0e48 BF000000 		movl	$.LC19, %edi
 1917      00
 1918 0e4d E8000000 		call	_Z9testShiftPKcjS0_jS0_jS0_
 1918      00
 139:testSvf2Csvf.cpp **** 	testShift(
 140:testSvf2Csvf.cpp **** 		"F1C2E093", 32,
 141:testSvf2Csvf.cpp **** 		"e5", 8,
 142:testSvf2Csvf.cpp **** 		"06", 3,
 143:testSvf2Csvf.cpp **** 		"06F1C2E093E5"
 144:testSvf2Csvf.cpp **** 	);
 1919              		.loc 3 144 0
 1920 0e52 48C70424 		movq	$.LC35, (%rsp)
 1920      00000000 
 1921 0e5a 41B90300 		movl	$3, %r9d
 1921      0000
 1922 0e60 41B80000 		movl	$.LC17, %r8d
 1922      0000
 1923 0e66 B9080000 		movl	$8, %ecx
 1923      00
 1924 0e6b BA000000 		movl	$.LC34, %edx
 1924      00
 1925 0e70 BE200000 		movl	$32, %esi
 1925      00
 1926 0e75 BF000000 		movl	$.LC19, %edi
 1926      00
 1927 0e7a E8000000 		call	_Z9testShiftPKcjS0_jS0_jS0_
 1927      00
 145:testSvf2Csvf.cpp **** 	testShift(
 146:testSvf2Csvf.cpp **** 		"F1C2E093", 32,
 147:testSvf2Csvf.cpp **** 		"0115", 9,
 148:testSvf2Csvf.cpp **** 		"06", 3,
 149:testSvf2Csvf.cpp **** 		"0DE385C12715"
 150:testSvf2Csvf.cpp **** 	);
 1928              		.loc 3 150 0
 1929 0e7f 48C70424 		movq	$.LC37, (%rsp)
 1929      00000000 
 1930 0e87 41B90300 		movl	$3, %r9d
 1930      0000
 1931 0e8d 41B80000 		movl	$.LC17, %r8d
 1931      0000
 1932 0e93 B9090000 		movl	$9, %ecx
 1932      00
 1933 0e98 BA000000 		movl	$.LC36, %edx
 1933      00
 1934 0e9d BE200000 		movl	$32, %esi
 1934      00
 1935 0ea2 BF000000 		movl	$.LC19, %edi
 1935      00
 1936 0ea7 E8000000 		call	_Z9testShiftPKcjS0_jS0_jS0_
 1936      00
 151:testSvf2Csvf.cpp **** 	testShift(
 152:testSvf2Csvf.cpp **** 		"F1C2E093", 32,
 153:testSvf2Csvf.cpp **** 		"0315", 10,
 154:testSvf2Csvf.cpp **** 		"06", 3,
 155:testSvf2Csvf.cpp **** 		"1BC70B824F15"
 156:testSvf2Csvf.cpp **** 	);
 1937              		.loc 3 156 0
 1938 0eac 48C70424 		movq	$.LC39, (%rsp)
 1938      00000000 
 1939 0eb4 41B90300 		movl	$3, %r9d
 1939      0000
 1940 0eba 41B80000 		movl	$.LC17, %r8d
 1940      0000
 1941 0ec0 B90A0000 		movl	$10, %ecx
 1941      00
 1942 0ec5 BA000000 		movl	$.LC38, %edx
 1942      00
 1943 0eca BE200000 		movl	$32, %esi
 1943      00
 1944 0ecf BF000000 		movl	$.LC19, %edi
 1944      00
 1945 0ed4 E8000000 		call	_Z9testShiftPKcjS0_jS0_jS0_
 1945      00
 157:testSvf2Csvf.cpp **** 	testShift(
 158:testSvf2Csvf.cpp **** 		"F1C2E093", 32,
 159:testSvf2Csvf.cpp **** 		"0715", 11,
 160:testSvf2Csvf.cpp **** 		"06", 3,
 161:testSvf2Csvf.cpp **** 		"378E17049F15"
 162:testSvf2Csvf.cpp **** 	);
 1946              		.loc 3 162 0
 1947 0ed9 48C70424 		movq	$.LC41, (%rsp)
 1947      00000000 
 1948 0ee1 41B90300 		movl	$3, %r9d
 1948      0000
 1949 0ee7 41B80000 		movl	$.LC17, %r8d
 1949      0000
 1950 0eed B90B0000 		movl	$11, %ecx
 1950      00
 1951 0ef2 BA000000 		movl	$.LC40, %edx
 1951      00
 1952 0ef7 BE200000 		movl	$32, %esi
 1952      00
 1953 0efc BF000000 		movl	$.LC19, %edi
 1953      00
 1954 0f01 E8000000 		call	_Z9testShiftPKcjS0_jS0_jS0_
 1954      00
 163:testSvf2Csvf.cpp **** 	testShift(
 164:testSvf2Csvf.cpp **** 		"F1C2E093", 32,
 165:testSvf2Csvf.cpp **** 		"0c15", 12,
 166:testSvf2Csvf.cpp **** 		"06", 3,
 167:testSvf2Csvf.cpp **** 		"6F1C2E093C15"
 168:testSvf2Csvf.cpp **** 	);
 1955              		.loc 3 168 0
 1956 0f06 48C70424 		movq	$.LC43, (%rsp)
 1956      00000000 
 1957 0f0e 41B90300 		movl	$3, %r9d
 1957      0000
 1958 0f14 41B80000 		movl	$.LC17, %r8d
 1958      0000
 1959 0f1a B90C0000 		movl	$12, %ecx
 1959      00
 1960 0f1f BA000000 		movl	$.LC42, %edx
 1960      00
 1961 0f24 BE200000 		movl	$32, %esi
 1961      00
 1962 0f29 BF000000 		movl	$.LC19, %edi
 1962      00
 1963 0f2e E8000000 		call	_Z9testShiftPKcjS0_jS0_jS0_
 1963      00
 169:testSvf2Csvf.cpp **** 	testShift(
 170:testSvf2Csvf.cpp **** 		"F1C2E093", 32,
 171:testSvf2Csvf.cpp **** 		"1c15", 13,
 172:testSvf2Csvf.cpp **** 		"06", 3,
 173:testSvf2Csvf.cpp **** 		"DE385C127C15"
 174:testSvf2Csvf.cpp **** 	);
 1964              		.loc 3 174 0
 1965 0f33 48C70424 		movq	$.LC45, (%rsp)
 1965      00000000 
 1966 0f3b 41B90300 		movl	$3, %r9d
 1966      0000
 1967 0f41 41B80000 		movl	$.LC17, %r8d
 1967      0000
 1968 0f47 B90D0000 		movl	$13, %ecx
 1968      00
 1969 0f4c BA000000 		movl	$.LC44, %edx
 1969      00
 1970 0f51 BE200000 		movl	$32, %esi
 1970      00
 1971 0f56 BF000000 		movl	$.LC19, %edi
 1971      00
 1972 0f5b E8000000 		call	_Z9testShiftPKcjS0_jS0_jS0_
 1972      00
 175:testSvf2Csvf.cpp **** 	testShift(
 176:testSvf2Csvf.cpp **** 		"F1C2E093", 32,
 177:testSvf2Csvf.cpp **** 		"2c15", 14,
 178:testSvf2Csvf.cpp **** 		"06", 3,
 179:testSvf2Csvf.cpp **** 		"01BC70B824EC15"
 180:testSvf2Csvf.cpp **** 	);
 1973              		.loc 3 180 0
 1974 0f60 48C70424 		movq	$.LC47, (%rsp)
 1974      00000000 
 1975 0f68 41B90300 		movl	$3, %r9d
 1975      0000
 1976 0f6e 41B80000 		movl	$.LC17, %r8d
 1976      0000
 1977 0f74 B90E0000 		movl	$14, %ecx
 1977      00
 1978 0f79 BA000000 		movl	$.LC46, %edx
 1978      00
 1979 0f7e BE200000 		movl	$32, %esi
 1979      00
 1980 0f83 BF000000 		movl	$.LC19, %edi
 1980      00
 1981 0f88 E8000000 		call	_Z9testShiftPKcjS0_jS0_jS0_
 1981      00
 181:testSvf2Csvf.cpp **** 	testShift(
 182:testSvf2Csvf.cpp **** 		"F1C2E093", 32,
 183:testSvf2Csvf.cpp **** 		"4015", 15,
 184:testSvf2Csvf.cpp **** 		"06", 3,
 185:testSvf2Csvf.cpp **** 		"0378E17049C015"
 186:testSvf2Csvf.cpp **** 	);
 1982              		.loc 3 186 0
 1983 0f8d 48C70424 		movq	$.LC49, (%rsp)
 1983      00000000 
 1984 0f95 41B90300 		movl	$3, %r9d
 1984      0000
 1985 0f9b 41B80000 		movl	$.LC17, %r8d
 1985      0000
 1986 0fa1 B90F0000 		movl	$15, %ecx
 1986      00
 1987 0fa6 BA000000 		movl	$.LC48, %edx
 1987      00
 1988 0fab BE200000 		movl	$32, %esi
 1988      00
 1989 0fb0 BF000000 		movl	$.LC19, %edi
 1989      00
 1990 0fb5 E8000000 		call	_Z9testShiftPKcjS0_jS0_jS0_
 1990      00
 187:testSvf2Csvf.cpp **** 	testShift(
 188:testSvf2Csvf.cpp **** 		"F1C2E093", 32,
 189:testSvf2Csvf.cpp **** 		"8015", 16,
 190:testSvf2Csvf.cpp **** 		"06", 3,
 191:testSvf2Csvf.cpp **** 		"06F1C2E0938015"
 192:testSvf2Csvf.cpp **** 	);
 1991              		.loc 3 192 0
 1992 0fba 48C70424 		movq	$.LC51, (%rsp)
 1992      00000000 
 1993 0fc2 41B90300 		movl	$3, %r9d
 1993      0000
 1994 0fc8 41B80000 		movl	$.LC17, %r8d
 1994      0000
 1995 0fce B9100000 		movl	$16, %ecx
 1995      00
 1996 0fd3 BA000000 		movl	$.LC50, %edx
 1996      00
 1997 0fd8 BE200000 		movl	$32, %esi
 1997      00
 1998 0fdd BF000000 		movl	$.LC19, %edi
 1998      00
 1999 0fe2 E8000000 		call	_Z9testShiftPKcjS0_jS0_jS0_
 1999      00
 193:testSvf2Csvf.cpp **** 	testShift(
 194:testSvf2Csvf.cpp **** 		"F1C2E093", 32,
 195:testSvf2Csvf.cpp **** 		"018015", 17,
 196:testSvf2Csvf.cpp **** 		"06", 3,
 197:testSvf2Csvf.cpp **** 		"0DE385C1278015"
 198:testSvf2Csvf.cpp **** 	);
 2000              		.loc 3 198 0
 2001 0fe7 48C70424 		movq	$.LC53, (%rsp)
 2001      00000000 
 2002 0fef 41B90300 		movl	$3, %r9d
 2002      0000
 2003 0ff5 41B80000 		movl	$.LC17, %r8d
 2003      0000
 2004 0ffb B9110000 		movl	$17, %ecx
 2004      00
 2005 1000 BA000000 		movl	$.LC52, %edx
 2005      00
 2006 1005 BE200000 		movl	$32, %esi
 2006      00
 2007 100a BF000000 		movl	$.LC19, %edi
 2007      00
 2008 100f E8000000 		call	_Z9testShiftPKcjS0_jS0_jS0_
 2008      00
 199:testSvf2Csvf.cpp **** 	testShift(
 200:testSvf2Csvf.cpp **** 		"F1C2E093", 32,
 201:testSvf2Csvf.cpp **** 		"00", 0,
 202:testSvf2Csvf.cpp **** 		"0A", 4,
 203:testSvf2Csvf.cpp **** 		"0AF1C2E093"
 204:testSvf2Csvf.cpp **** 	);
 2009              		.loc 3 204 0
 2010 1014 48C70424 		movq	$.LC54, (%rsp)
 2010      00000000 
 2011 101c 41B90400 		movl	$4, %r9d
 2011      0000
 2012 1022 41B80000 		movl	$.LC26, %r8d
 2012      0000
 2013 1028 B9000000 		movl	$0, %ecx
 2013      00
 2014 102d BA000000 		movl	$.LC18, %edx
 2014      00
 2015 1032 BE200000 		movl	$32, %esi
 2015      00
 2016 1037 BF000000 		movl	$.LC19, %edi
 2016      00
 2017 103c E8000000 		call	_Z9testShiftPKcjS0_jS0_jS0_
 2017      00
 205:testSvf2Csvf.cpp **** 	testShift(
 206:testSvf2Csvf.cpp **** 		"F1C2E093", 32,
 207:testSvf2Csvf.cpp **** 		"01", 1,
 208:testSvf2Csvf.cpp **** 		"0A", 4,
 209:testSvf2Csvf.cpp **** 		"15E385C127"
 210:testSvf2Csvf.cpp **** 	);
 2018              		.loc 3 210 0
 2019 1041 48C70424 		movq	$.LC55, (%rsp)
 2019      00000000 
 2020 1049 41B90400 		movl	$4, %r9d
 2020      0000
 2021 104f 41B80000 		movl	$.LC26, %r8d
 2021      0000
 2022 1055 B9010000 		movl	$1, %ecx
 2022      00
 2023 105a BA000000 		movl	$.LC21, %edx
 2023      00
 2024 105f BE200000 		movl	$32, %esi
 2024      00
 2025 1064 BF000000 		movl	$.LC19, %edi
 2025      00
 2026 1069 E8000000 		call	_Z9testShiftPKcjS0_jS0_jS0_
 2026      00
 211:testSvf2Csvf.cpp **** 	testShift(
 212:testSvf2Csvf.cpp **** 		"F1C2E093", 32,
 213:testSvf2Csvf.cpp **** 		"02", 2,
 214:testSvf2Csvf.cpp **** 		"0A", 4,
 215:testSvf2Csvf.cpp **** 		"2BC70B824E"
 216:testSvf2Csvf.cpp **** 	);
 2027              		.loc 3 216 0
 2028 106e 48C70424 		movq	$.LC56, (%rsp)
 2028      00000000 
 2029 1076 41B90400 		movl	$4, %r9d
 2029      0000
 2030 107c 41B80000 		movl	$.LC26, %r8d
 2030      0000
 2031 1082 B9020000 		movl	$2, %ecx
 2031      00
 2032 1087 BA000000 		movl	$.LC23, %edx
 2032      00
 2033 108c BE200000 		movl	$32, %esi
 2033      00
 2034 1091 BF000000 		movl	$.LC19, %edi
 2034      00
 2035 1096 E8000000 		call	_Z9testShiftPKcjS0_jS0_jS0_
 2035      00
 217:testSvf2Csvf.cpp **** 	testShift(
 218:testSvf2Csvf.cpp **** 		"F1C2E093", 32,
 219:testSvf2Csvf.cpp **** 		"06", 3,
 220:testSvf2Csvf.cpp **** 		"0A", 4,
 221:testSvf2Csvf.cpp **** 		"578E17049E"
 222:testSvf2Csvf.cpp **** 	);
 2036              		.loc 3 222 0
 2037 109b 48C70424 		movq	$.LC57, (%rsp)
 2037      00000000 
 2038 10a3 41B90400 		movl	$4, %r9d
 2038      0000
 2039 10a9 41B80000 		movl	$.LC26, %r8d
 2039      0000
 2040 10af B9030000 		movl	$3, %ecx
 2040      00
 2041 10b4 BA000000 		movl	$.LC17, %edx
 2041      00
 2042 10b9 BE200000 		movl	$32, %esi
 2042      00
 2043 10be BF000000 		movl	$.LC19, %edi
 2043      00
 2044 10c3 E8000000 		call	_Z9testShiftPKcjS0_jS0_jS0_
 2044      00
 223:testSvf2Csvf.cpp **** 	testShift(
 224:testSvf2Csvf.cpp **** 		"F1C2E093", 32,
 225:testSvf2Csvf.cpp **** 		"0A", 4,
 226:testSvf2Csvf.cpp **** 		"0A", 4,
 227:testSvf2Csvf.cpp **** 		"AF1C2E093A"
 228:testSvf2Csvf.cpp **** 	);
 2045              		.loc 3 228 0
 2046 10c8 48C70424 		movq	$.LC58, (%rsp)
 2046      00000000 
 2047 10d0 41B90400 		movl	$4, %r9d
 2047      0000
 2048 10d6 41B80000 		movl	$.LC26, %r8d
 2048      0000
 2049 10dc B9040000 		movl	$4, %ecx
 2049      00
 2050 10e1 BA000000 		movl	$.LC26, %edx
 2050      00
 2051 10e6 BE200000 		movl	$32, %esi
 2051      00
 2052 10eb BF000000 		movl	$.LC19, %edi
 2052      00
 2053 10f0 E8000000 		call	_Z9testShiftPKcjS0_jS0_jS0_
 2053      00
 229:testSvf2Csvf.cpp **** 	testShift(
 230:testSvf2Csvf.cpp **** 		"F1C2E093", 32,
 231:testSvf2Csvf.cpp **** 		"15", 5,
 232:testSvf2Csvf.cpp **** 		"0A", 4,
 233:testSvf2Csvf.cpp **** 		"015E385C1275"
 234:testSvf2Csvf.cpp **** 	);
 2054              		.loc 3 234 0
 2055 10f5 48C70424 		movq	$.LC59, (%rsp)
 2055      00000000 
 2056 10fd 41B90400 		movl	$4, %r9d
 2056      0000
 2057 1103 41B80000 		movl	$.LC26, %r8d
 2057      0000
 2058 1109 B9050000 		movl	$5, %ecx
 2058      00
 2059 110e BA000000 		movl	$.LC28, %edx
 2059      00
 2060 1113 BE200000 		movl	$32, %esi
 2060      00
 2061 1118 BF000000 		movl	$.LC19, %edi
 2061      00
 2062 111d E8000000 		call	_Z9testShiftPKcjS0_jS0_jS0_
 2062      00
 235:testSvf2Csvf.cpp **** 	testShift(
 236:testSvf2Csvf.cpp **** 		"F1C2E093", 32,
 237:testSvf2Csvf.cpp **** 		"25", 6,
 238:testSvf2Csvf.cpp **** 		"0A", 4,
 239:testSvf2Csvf.cpp **** 		"02BC70B824E5"
 240:testSvf2Csvf.cpp **** 	);
 2063              		.loc 3 240 0
 2064 1122 48C70424 		movq	$.LC60, (%rsp)
 2064      00000000 
 2065 112a 41B90400 		movl	$4, %r9d
 2065      0000
 2066 1130 41B80000 		movl	$.LC26, %r8d
 2066      0000
 2067 1136 B9060000 		movl	$6, %ecx
 2067      00
 2068 113b BA000000 		movl	$.LC30, %edx
 2068      00
 2069 1140 BE200000 		movl	$32, %esi
 2069      00
 2070 1145 BF000000 		movl	$.LC19, %edi
 2070      00
 2071 114a E8000000 		call	_Z9testShiftPKcjS0_jS0_jS0_
 2071      00
 241:testSvf2Csvf.cpp **** 	testShift(
 242:testSvf2Csvf.cpp **** 		"F1C2E093", 32,
 243:testSvf2Csvf.cpp **** 		"75", 7,
 244:testSvf2Csvf.cpp **** 		"0A", 4,
 245:testSvf2Csvf.cpp **** 		"0578E17049F5"
 246:testSvf2Csvf.cpp **** 	);
 2072              		.loc 3 246 0
 2073 114f 48C70424 		movq	$.LC61, (%rsp)
 2073      00000000 
 2074 1157 41B90400 		movl	$4, %r9d
 2074      0000
 2075 115d 41B80000 		movl	$.LC26, %r8d
 2075      0000
 2076 1163 B9070000 		movl	$7, %ecx
 2076      00
 2077 1168 BA000000 		movl	$.LC32, %edx
 2077      00
 2078 116d BE200000 		movl	$32, %esi
 2078      00
 2079 1172 BF000000 		movl	$.LC19, %edi
 2079      00
 2080 1177 E8000000 		call	_Z9testShiftPKcjS0_jS0_jS0_
 2080      00
 247:testSvf2Csvf.cpp **** 	testShift(
 248:testSvf2Csvf.cpp **** 		"F1C2E093", 32,
 249:testSvf2Csvf.cpp **** 		"e5", 8,
 250:testSvf2Csvf.cpp **** 		"0A", 4,
 251:testSvf2Csvf.cpp **** 		"0AF1C2E093E5"
 252:testSvf2Csvf.cpp **** 	);
 2081              		.loc 3 252 0
 2082 117c 48C70424 		movq	$.LC62, (%rsp)
 2082      00000000 
 2083 1184 41B90400 		movl	$4, %r9d
 2083      0000
 2084 118a 41B80000 		movl	$.LC26, %r8d
 2084      0000
 2085 1190 B9080000 		movl	$8, %ecx
 2085      00
 2086 1195 BA000000 		movl	$.LC34, %edx
 2086      00
 2087 119a BE200000 		movl	$32, %esi
 2087      00
 2088 119f BF000000 		movl	$.LC19, %edi
 2088      00
 2089 11a4 E8000000 		call	_Z9testShiftPKcjS0_jS0_jS0_
 2089      00
 253:testSvf2Csvf.cpp **** 	testShift(
 254:testSvf2Csvf.cpp **** 		"F1C2E093", 32,
 255:testSvf2Csvf.cpp **** 		"0115", 9,
 256:testSvf2Csvf.cpp **** 		"0A", 4,
 257:testSvf2Csvf.cpp **** 		"15E385C12715"
 258:testSvf2Csvf.cpp **** 	);
 2090              		.loc 3 258 0
 2091 11a9 48C70424 		movq	$.LC63, (%rsp)
 2091      00000000 
 2092 11b1 41B90400 		movl	$4, %r9d
 2092      0000
 2093 11b7 41B80000 		movl	$.LC26, %r8d
 2093      0000
 2094 11bd B9090000 		movl	$9, %ecx
 2094      00
 2095 11c2 BA000000 		movl	$.LC36, %edx
 2095      00
 2096 11c7 BE200000 		movl	$32, %esi
 2096      00
 2097 11cc BF000000 		movl	$.LC19, %edi
 2097      00
 2098 11d1 E8000000 		call	_Z9testShiftPKcjS0_jS0_jS0_
 2098      00
 259:testSvf2Csvf.cpp **** 	testShift(
 260:testSvf2Csvf.cpp **** 		"F1C2E093", 32,
 261:testSvf2Csvf.cpp **** 		"0315", 10,
 262:testSvf2Csvf.cpp **** 		"0A", 4,
 263:testSvf2Csvf.cpp **** 		"2BC70B824F15"
 264:testSvf2Csvf.cpp **** 	);
 2099              		.loc 3 264 0
 2100 11d6 48C70424 		movq	$.LC64, (%rsp)
 2100      00000000 
 2101 11de 41B90400 		movl	$4, %r9d
 2101      0000
 2102 11e4 41B80000 		movl	$.LC26, %r8d
 2102      0000
 2103 11ea B90A0000 		movl	$10, %ecx
 2103      00
 2104 11ef BA000000 		movl	$.LC38, %edx
 2104      00
 2105 11f4 BE200000 		movl	$32, %esi
 2105      00
 2106 11f9 BF000000 		movl	$.LC19, %edi
 2106      00
 2107 11fe E8000000 		call	_Z9testShiftPKcjS0_jS0_jS0_
 2107      00
 265:testSvf2Csvf.cpp **** 	testShift(
 266:testSvf2Csvf.cpp **** 		"F1C2E093", 32,
 267:testSvf2Csvf.cpp **** 		"0715", 11,
 268:testSvf2Csvf.cpp **** 		"0A", 4,
 269:testSvf2Csvf.cpp **** 		"578E17049F15"
 270:testSvf2Csvf.cpp **** 	);
 2108              		.loc 3 270 0
 2109 1203 48C70424 		movq	$.LC65, (%rsp)
 2109      00000000 
 2110 120b 41B90400 		movl	$4, %r9d
 2110      0000
 2111 1211 41B80000 		movl	$.LC26, %r8d
 2111      0000
 2112 1217 B90B0000 		movl	$11, %ecx
 2112      00
 2113 121c BA000000 		movl	$.LC40, %edx
 2113      00
 2114 1221 BE200000 		movl	$32, %esi
 2114      00
 2115 1226 BF000000 		movl	$.LC19, %edi
 2115      00
 2116 122b E8000000 		call	_Z9testShiftPKcjS0_jS0_jS0_
 2116      00
 271:testSvf2Csvf.cpp **** 	testShift(
 272:testSvf2Csvf.cpp **** 		"F1C2E093", 32,
 273:testSvf2Csvf.cpp **** 		"0c15", 12,
 274:testSvf2Csvf.cpp **** 		"0A", 4,
 275:testSvf2Csvf.cpp **** 		"AF1C2E093C15"
 276:testSvf2Csvf.cpp **** 	);
 2117              		.loc 3 276 0
 2118 1230 48C70424 		movq	$.LC66, (%rsp)
 2118      00000000 
 2119 1238 41B90400 		movl	$4, %r9d
 2119      0000
 2120 123e 41B80000 		movl	$.LC26, %r8d
 2120      0000
 2121 1244 B90C0000 		movl	$12, %ecx
 2121      00
 2122 1249 BA000000 		movl	$.LC42, %edx
 2122      00
 2123 124e BE200000 		movl	$32, %esi
 2123      00
 2124 1253 BF000000 		movl	$.LC19, %edi
 2124      00
 2125 1258 E8000000 		call	_Z9testShiftPKcjS0_jS0_jS0_
 2125      00
 277:testSvf2Csvf.cpp **** 	testShift(
 278:testSvf2Csvf.cpp **** 		"F1C2E093", 32,
 279:testSvf2Csvf.cpp **** 		"1c15", 13,
 280:testSvf2Csvf.cpp **** 		"0A", 4,
 281:testSvf2Csvf.cpp **** 		"015E385C127C15"
 282:testSvf2Csvf.cpp **** 	);
 2126              		.loc 3 282 0
 2127 125d 48C70424 		movq	$.LC67, (%rsp)
 2127      00000000 
 2128 1265 41B90400 		movl	$4, %r9d
 2128      0000
 2129 126b 41B80000 		movl	$.LC26, %r8d
 2129      0000
 2130 1271 B90D0000 		movl	$13, %ecx
 2130      00
 2131 1276 BA000000 		movl	$.LC44, %edx
 2131      00
 2132 127b BE200000 		movl	$32, %esi
 2132      00
 2133 1280 BF000000 		movl	$.LC19, %edi
 2133      00
 2134 1285 E8000000 		call	_Z9testShiftPKcjS0_jS0_jS0_
 2134      00
 283:testSvf2Csvf.cpp **** 	testShift(
 284:testSvf2Csvf.cpp **** 		"F1C2E093", 32,
 285:testSvf2Csvf.cpp **** 		"2c15", 14,
 286:testSvf2Csvf.cpp **** 		"0A", 4,
 287:testSvf2Csvf.cpp **** 		"02BC70B824EC15"
 288:testSvf2Csvf.cpp **** 	);
 2135              		.loc 3 288 0
 2136 128a 48C70424 		movq	$.LC68, (%rsp)
 2136      00000000 
 2137 1292 41B90400 		movl	$4, %r9d
 2137      0000
 2138 1298 41B80000 		movl	$.LC26, %r8d
 2138      0000
 2139 129e B90E0000 		movl	$14, %ecx
 2139      00
 2140 12a3 BA000000 		movl	$.LC46, %edx
 2140      00
 2141 12a8 BE200000 		movl	$32, %esi
 2141      00
 2142 12ad BF000000 		movl	$.LC19, %edi
 2142      00
 2143 12b2 E8000000 		call	_Z9testShiftPKcjS0_jS0_jS0_
 2143      00
 289:testSvf2Csvf.cpp **** 	testShift(
 290:testSvf2Csvf.cpp **** 		"F1C2E093", 32,
 291:testSvf2Csvf.cpp **** 		"4015", 15,
 292:testSvf2Csvf.cpp **** 		"0A", 4,
 293:testSvf2Csvf.cpp **** 		"0578E17049C015"
 294:testSvf2Csvf.cpp **** 	);
 2144              		.loc 3 294 0
 2145 12b7 48C70424 		movq	$.LC69, (%rsp)
 2145      00000000 
 2146 12bf 41B90400 		movl	$4, %r9d
 2146      0000
 2147 12c5 41B80000 		movl	$.LC26, %r8d
 2147      0000
 2148 12cb B90F0000 		movl	$15, %ecx
 2148      00
 2149 12d0 BA000000 		movl	$.LC48, %edx
 2149      00
 2150 12d5 BE200000 		movl	$32, %esi
 2150      00
 2151 12da BF000000 		movl	$.LC19, %edi
 2151      00
 2152 12df E8000000 		call	_Z9testShiftPKcjS0_jS0_jS0_
 2152      00
 295:testSvf2Csvf.cpp **** 	testShift(
 296:testSvf2Csvf.cpp **** 		"F1C2E093", 32,
 297:testSvf2Csvf.cpp **** 		"8015", 16,
 298:testSvf2Csvf.cpp **** 		"0A", 4,
 299:testSvf2Csvf.cpp **** 		"0AF1C2E0938015"
 300:testSvf2Csvf.cpp **** 	);
 2153              		.loc 3 300 0
 2154 12e4 48C70424 		movq	$.LC70, (%rsp)
 2154      00000000 
 2155 12ec 41B90400 		movl	$4, %r9d
 2155      0000
 2156 12f2 41B80000 		movl	$.LC26, %r8d
 2156      0000
 2157 12f8 B9100000 		movl	$16, %ecx
 2157      00
 2158 12fd BA000000 		movl	$.LC50, %edx
 2158      00
 2159 1302 BE200000 		movl	$32, %esi
 2159      00
 2160 1307 BF000000 		movl	$.LC19, %edi
 2160      00
 2161 130c E8000000 		call	_Z9testShiftPKcjS0_jS0_jS0_
 2161      00
 301:testSvf2Csvf.cpp **** 	testShift(
 302:testSvf2Csvf.cpp **** 		"F1C2E093", 32,
 303:testSvf2Csvf.cpp **** 		"018015", 17,
 304:testSvf2Csvf.cpp **** 		"0A", 4,
 305:testSvf2Csvf.cpp **** 		"15E385C1278015"
 306:testSvf2Csvf.cpp **** 	);
 2162              		.loc 3 306 0
 2163 1311 48C70424 		movq	$.LC71, (%rsp)
 2163      00000000 
 2164 1319 41B90400 		movl	$4, %r9d
 2164      0000
 2165 131f 41B80000 		movl	$.LC26, %r8d
 2165      0000
 2166 1325 B9110000 		movl	$17, %ecx
 2166      00
 2167 132a BA000000 		movl	$.LC52, %edx
 2167      00
 2168 132f BE200000 		movl	$32, %esi
 2168      00
 2169 1334 BF000000 		movl	$.LC19, %edi
 2169      00
 2170 1339 E8000000 		call	_Z9testShiftPKcjS0_jS0_jS0_
 2170      00
 307:testSvf2Csvf.cpp **** 	testShift(
 308:testSvf2Csvf.cpp **** 		"F1C2E093", 32,
 309:testSvf2Csvf.cpp **** 		"00", 0,
 310:testSvf2Csvf.cpp **** 		"0135", 9,
 311:testSvf2Csvf.cpp **** 		"0135F1C2E093"
 312:testSvf2Csvf.cpp **** 	);
 2171              		.loc 3 312 0
 2172 133e 48C70424 		movq	$.LC73, (%rsp)
 2172      00000000 
 2173 1346 41B90900 		movl	$9, %r9d
 2173      0000
 2174 134c 41B80000 		movl	$.LC72, %r8d
 2174      0000
 2175 1352 B9000000 		movl	$0, %ecx
 2175      00
 2176 1357 BA000000 		movl	$.LC18, %edx
 2176      00
 2177 135c BE200000 		movl	$32, %esi
 2177      00
 2178 1361 BF000000 		movl	$.LC19, %edi
 2178      00
 2179 1366 E8000000 		call	_Z9testShiftPKcjS0_jS0_jS0_
 2179      00
 313:testSvf2Csvf.cpp **** 	testShift(
 314:testSvf2Csvf.cpp **** 		"F1C2E093", 32,
 315:testSvf2Csvf.cpp **** 		"01", 1,
 316:testSvf2Csvf.cpp **** 		"0135", 9,
 317:testSvf2Csvf.cpp **** 		"026BE385C127"
 318:testSvf2Csvf.cpp **** 	);
 2180              		.loc 3 318 0
 2181 136b 48C70424 		movq	$.LC74, (%rsp)
 2181      00000000 
 2182 1373 41B90900 		movl	$9, %r9d
 2182      0000
 2183 1379 41B80000 		movl	$.LC72, %r8d
 2183      0000
 2184 137f B9010000 		movl	$1, %ecx
 2184      00
 2185 1384 BA000000 		movl	$.LC21, %edx
 2185      00
 2186 1389 BE200000 		movl	$32, %esi
 2186      00
 2187 138e BF000000 		movl	$.LC19, %edi
 2187      00
 2188 1393 E8000000 		call	_Z9testShiftPKcjS0_jS0_jS0_
 2188      00
 319:testSvf2Csvf.cpp **** 	testShift(
 320:testSvf2Csvf.cpp **** 		"F1C2E093", 32,
 321:testSvf2Csvf.cpp **** 		"02", 2,
 322:testSvf2Csvf.cpp **** 		"0135", 9,
 323:testSvf2Csvf.cpp **** 		"04D7C70B824E"
 324:testSvf2Csvf.cpp **** 	);
 2189              		.loc 3 324 0
 2190 1398 48C70424 		movq	$.LC75, (%rsp)
 2190      00000000 
 2191 13a0 41B90900 		movl	$9, %r9d
 2191      0000
 2192 13a6 41B80000 		movl	$.LC72, %r8d
 2192      0000
 2193 13ac B9020000 		movl	$2, %ecx
 2193      00
 2194 13b1 BA000000 		movl	$.LC23, %edx
 2194      00
 2195 13b6 BE200000 		movl	$32, %esi
 2195      00
 2196 13bb BF000000 		movl	$.LC19, %edi
 2196      00
 2197 13c0 E8000000 		call	_Z9testShiftPKcjS0_jS0_jS0_
 2197      00
 325:testSvf2Csvf.cpp **** 	testShift(
 326:testSvf2Csvf.cpp **** 		"F1C2E093", 32,
 327:testSvf2Csvf.cpp **** 		"06", 3,
 328:testSvf2Csvf.cpp **** 		"0135", 9,
 329:testSvf2Csvf.cpp **** 		"09AF8E17049E"
 330:testSvf2Csvf.cpp **** 	);
 2198              		.loc 3 330 0
 2199 13c5 48C70424 		movq	$.LC76, (%rsp)
 2199      00000000 
 2200 13cd 41B90900 		movl	$9, %r9d
 2200      0000
 2201 13d3 41B80000 		movl	$.LC72, %r8d
 2201      0000
 2202 13d9 B9030000 		movl	$3, %ecx
 2202      00
 2203 13de BA000000 		movl	$.LC17, %edx
 2203      00
 2204 13e3 BE200000 		movl	$32, %esi
 2204      00
 2205 13e8 BF000000 		movl	$.LC19, %edi
 2205      00
 2206 13ed E8000000 		call	_Z9testShiftPKcjS0_jS0_jS0_
 2206      00
 331:testSvf2Csvf.cpp **** 	testShift(
 332:testSvf2Csvf.cpp **** 		"F1C2E093", 32,
 333:testSvf2Csvf.cpp **** 		"0A", 4,
 334:testSvf2Csvf.cpp **** 		"0135", 9,
 335:testSvf2Csvf.cpp **** 		"135F1C2E093A"
 336:testSvf2Csvf.cpp **** 	);
 2207              		.loc 3 336 0
 2208 13f2 48C70424 		movq	$.LC77, (%rsp)
 2208      00000000 
 2209 13fa 41B90900 		movl	$9, %r9d
 2209      0000
 2210 1400 41B80000 		movl	$.LC72, %r8d
 2210      0000
 2211 1406 B9040000 		movl	$4, %ecx
 2211      00
 2212 140b BA000000 		movl	$.LC26, %edx
 2212      00
 2213 1410 BE200000 		movl	$32, %esi
 2213      00
 2214 1415 BF000000 		movl	$.LC19, %edi
 2214      00
 2215 141a E8000000 		call	_Z9testShiftPKcjS0_jS0_jS0_
 2215      00
 337:testSvf2Csvf.cpp **** 	testShift(
 338:testSvf2Csvf.cpp **** 		"F1C2E093", 32,
 339:testSvf2Csvf.cpp **** 		"15", 5,
 340:testSvf2Csvf.cpp **** 		"0135", 9,
 341:testSvf2Csvf.cpp **** 		"26BE385C1275"
 342:testSvf2Csvf.cpp **** 	);
 2216              		.loc 3 342 0
 2217 141f 48C70424 		movq	$.LC78, (%rsp)
 2217      00000000 
 2218 1427 41B90900 		movl	$9, %r9d
 2218      0000
 2219 142d 41B80000 		movl	$.LC72, %r8d
 2219      0000
 2220 1433 B9050000 		movl	$5, %ecx
 2220      00
 2221 1438 BA000000 		movl	$.LC28, %edx
 2221      00
 2222 143d BE200000 		movl	$32, %esi
 2222      00
 2223 1442 BF000000 		movl	$.LC19, %edi
 2223      00
 2224 1447 E8000000 		call	_Z9testShiftPKcjS0_jS0_jS0_
 2224      00
 343:testSvf2Csvf.cpp **** 	testShift(
 344:testSvf2Csvf.cpp **** 		"F1C2E093", 32,
 345:testSvf2Csvf.cpp **** 		"25", 6,
 346:testSvf2Csvf.cpp **** 		"0135", 9,
 347:testSvf2Csvf.cpp **** 		"4D7C70B824E5"
 348:testSvf2Csvf.cpp **** 	);
 2225              		.loc 3 348 0
 2226 144c 48C70424 		movq	$.LC79, (%rsp)
 2226      00000000 
 2227 1454 41B90900 		movl	$9, %r9d
 2227      0000
 2228 145a 41B80000 		movl	$.LC72, %r8d
 2228      0000
 2229 1460 B9060000 		movl	$6, %ecx
 2229      00
 2230 1465 BA000000 		movl	$.LC30, %edx
 2230      00
 2231 146a BE200000 		movl	$32, %esi
 2231      00
 2232 146f BF000000 		movl	$.LC19, %edi
 2232      00
 2233 1474 E8000000 		call	_Z9testShiftPKcjS0_jS0_jS0_
 2233      00
 349:testSvf2Csvf.cpp **** 	testShift(
 350:testSvf2Csvf.cpp **** 		"F1C2E093", 32,
 351:testSvf2Csvf.cpp **** 		"75", 7,
 352:testSvf2Csvf.cpp **** 		"0135", 9,
 353:testSvf2Csvf.cpp **** 		"9AF8E17049F5"
 354:testSvf2Csvf.cpp **** 	);
 2234              		.loc 3 354 0
 2235 1479 48C70424 		movq	$.LC80, (%rsp)
 2235      00000000 
 2236 1481 41B90900 		movl	$9, %r9d
 2236      0000
 2237 1487 41B80000 		movl	$.LC72, %r8d
 2237      0000
 2238 148d B9070000 		movl	$7, %ecx
 2238      00
 2239 1492 BA000000 		movl	$.LC32, %edx
 2239      00
 2240 1497 BE200000 		movl	$32, %esi
 2240      00
 2241 149c BF000000 		movl	$.LC19, %edi
 2241      00
 2242 14a1 E8000000 		call	_Z9testShiftPKcjS0_jS0_jS0_
 2242      00
 355:testSvf2Csvf.cpp **** 	testShift(
 356:testSvf2Csvf.cpp **** 		"F1C2E093", 32,
 357:testSvf2Csvf.cpp **** 		"e5", 8,
 358:testSvf2Csvf.cpp **** 		"0135", 9,
 359:testSvf2Csvf.cpp **** 		"0135F1C2E093E5"
 360:testSvf2Csvf.cpp **** 	);
 2243              		.loc 3 360 0
 2244 14a6 48C70424 		movq	$.LC81, (%rsp)
 2244      00000000 
 2245 14ae 41B90900 		movl	$9, %r9d
 2245      0000
 2246 14b4 41B80000 		movl	$.LC72, %r8d
 2246      0000
 2247 14ba B9080000 		movl	$8, %ecx
 2247      00
 2248 14bf BA000000 		movl	$.LC34, %edx
 2248      00
 2249 14c4 BE200000 		movl	$32, %esi
 2249      00
 2250 14c9 BF000000 		movl	$.LC19, %edi
 2250      00
 2251 14ce E8000000 		call	_Z9testShiftPKcjS0_jS0_jS0_
 2251      00
 361:testSvf2Csvf.cpp **** 	testShift(
 362:testSvf2Csvf.cpp **** 		"F1C2E093", 32,
 363:testSvf2Csvf.cpp **** 		"0115", 9,
 364:testSvf2Csvf.cpp **** 		"0135", 9,
 365:testSvf2Csvf.cpp **** 		"026BE385C12715"
 366:testSvf2Csvf.cpp **** 	);
 2252              		.loc 3 366 0
 2253 14d3 48C70424 		movq	$.LC82, (%rsp)
 2253      00000000 
 2254 14db 41B90900 		movl	$9, %r9d
 2254      0000
 2255 14e1 41B80000 		movl	$.LC72, %r8d
 2255      0000
 2256 14e7 B9090000 		movl	$9, %ecx
 2256      00
 2257 14ec BA000000 		movl	$.LC36, %edx
 2257      00
 2258 14f1 BE200000 		movl	$32, %esi
 2258      00
 2259 14f6 BF000000 		movl	$.LC19, %edi
 2259      00
 2260 14fb E8000000 		call	_Z9testShiftPKcjS0_jS0_jS0_
 2260      00
 367:testSvf2Csvf.cpp **** 	testShift(
 368:testSvf2Csvf.cpp **** 		"F1C2E093", 32,
 369:testSvf2Csvf.cpp **** 		"0315", 10,
 370:testSvf2Csvf.cpp **** 		"0135", 9,
 371:testSvf2Csvf.cpp **** 		"04D7C70B824F15"
 372:testSvf2Csvf.cpp **** 	);
 2261              		.loc 3 372 0
 2262 1500 48C70424 		movq	$.LC83, (%rsp)
 2262      00000000 
 2263 1508 41B90900 		movl	$9, %r9d
 2263      0000
 2264 150e 41B80000 		movl	$.LC72, %r8d
 2264      0000
 2265 1514 B90A0000 		movl	$10, %ecx
 2265      00
 2266 1519 BA000000 		movl	$.LC38, %edx
 2266      00
 2267 151e BE200000 		movl	$32, %esi
 2267      00
 2268 1523 BF000000 		movl	$.LC19, %edi
 2268      00
 2269 1528 E8000000 		call	_Z9testShiftPKcjS0_jS0_jS0_
 2269      00
 373:testSvf2Csvf.cpp **** 	testShift(
 374:testSvf2Csvf.cpp **** 		"F1C2E093", 32,
 375:testSvf2Csvf.cpp **** 		"0715", 11,
 376:testSvf2Csvf.cpp **** 		"0135", 9,
 377:testSvf2Csvf.cpp **** 		"09AF8E17049F15"
 378:testSvf2Csvf.cpp **** 	);
 2270              		.loc 3 378 0
 2271 152d 48C70424 		movq	$.LC84, (%rsp)
 2271      00000000 
 2272 1535 41B90900 		movl	$9, %r9d
 2272      0000
 2273 153b 41B80000 		movl	$.LC72, %r8d
 2273      0000
 2274 1541 B90B0000 		movl	$11, %ecx
 2274      00
 2275 1546 BA000000 		movl	$.LC40, %edx
 2275      00
 2276 154b BE200000 		movl	$32, %esi
 2276      00
 2277 1550 BF000000 		movl	$.LC19, %edi
 2277      00
 2278 1555 E8000000 		call	_Z9testShiftPKcjS0_jS0_jS0_
 2278      00
 379:testSvf2Csvf.cpp **** 	testShift(
 380:testSvf2Csvf.cpp **** 		"F1C2E093", 32,
 381:testSvf2Csvf.cpp **** 		"0c15", 12,
 382:testSvf2Csvf.cpp **** 		"0135", 9,
 383:testSvf2Csvf.cpp **** 		"135F1C2E093C15"
 384:testSvf2Csvf.cpp **** 	);
 2279              		.loc 3 384 0
 2280 155a 48C70424 		movq	$.LC85, (%rsp)
 2280      00000000 
 2281 1562 41B90900 		movl	$9, %r9d
 2281      0000
 2282 1568 41B80000 		movl	$.LC72, %r8d
 2282      0000
 2283 156e B90C0000 		movl	$12, %ecx
 2283      00
 2284 1573 BA000000 		movl	$.LC42, %edx
 2284      00
 2285 1578 BE200000 		movl	$32, %esi
 2285      00
 2286 157d BF000000 		movl	$.LC19, %edi
 2286      00
 2287 1582 E8000000 		call	_Z9testShiftPKcjS0_jS0_jS0_
 2287      00
 385:testSvf2Csvf.cpp **** 	testShift(
 386:testSvf2Csvf.cpp **** 		"F1C2E093", 32,
 387:testSvf2Csvf.cpp **** 		"1c15", 13,
 388:testSvf2Csvf.cpp **** 		"0135", 9,
 389:testSvf2Csvf.cpp **** 		"26BE385C127C15"
 390:testSvf2Csvf.cpp **** 	);
 2288              		.loc 3 390 0
 2289 1587 48C70424 		movq	$.LC86, (%rsp)
 2289      00000000 
 2290 158f 41B90900 		movl	$9, %r9d
 2290      0000
 2291 1595 41B80000 		movl	$.LC72, %r8d
 2291      0000
 2292 159b B90D0000 		movl	$13, %ecx
 2292      00
 2293 15a0 BA000000 		movl	$.LC44, %edx
 2293      00
 2294 15a5 BE200000 		movl	$32, %esi
 2294      00
 2295 15aa BF000000 		movl	$.LC19, %edi
 2295      00
 2296 15af E8000000 		call	_Z9testShiftPKcjS0_jS0_jS0_
 2296      00
 391:testSvf2Csvf.cpp **** 	testShift(
 392:testSvf2Csvf.cpp **** 		"F1C2E093", 32,
 393:testSvf2Csvf.cpp **** 		"2c15", 14,
 394:testSvf2Csvf.cpp **** 		"0135", 9,
 395:testSvf2Csvf.cpp **** 		"4D7C70B824EC15"
 396:testSvf2Csvf.cpp **** 	);
 2297              		.loc 3 396 0
 2298 15b4 48C70424 		movq	$.LC87, (%rsp)
 2298      00000000 
 2299 15bc 41B90900 		movl	$9, %r9d
 2299      0000
 2300 15c2 41B80000 		movl	$.LC72, %r8d
 2300      0000
 2301 15c8 B90E0000 		movl	$14, %ecx
 2301      00
 2302 15cd BA000000 		movl	$.LC46, %edx
 2302      00
 2303 15d2 BE200000 		movl	$32, %esi
 2303      00
 2304 15d7 BF000000 		movl	$.LC19, %edi
 2304      00
 2305 15dc E8000000 		call	_Z9testShiftPKcjS0_jS0_jS0_
 2305      00
 397:testSvf2Csvf.cpp **** 	testShift(
 398:testSvf2Csvf.cpp **** 		"F1C2E093", 32,
 399:testSvf2Csvf.cpp **** 		"4015", 15,
 400:testSvf2Csvf.cpp **** 		"0135", 9,
 401:testSvf2Csvf.cpp **** 		"9AF8E17049C015"
 402:testSvf2Csvf.cpp **** 	);
 2306              		.loc 3 402 0
 2307 15e1 48C70424 		movq	$.LC88, (%rsp)
 2307      00000000 
 2308 15e9 41B90900 		movl	$9, %r9d
 2308      0000
 2309 15ef 41B80000 		movl	$.LC72, %r8d
 2309      0000
 2310 15f5 B90F0000 		movl	$15, %ecx
 2310      00
 2311 15fa BA000000 		movl	$.LC48, %edx
 2311      00
 2312 15ff BE200000 		movl	$32, %esi
 2312      00
 2313 1604 BF000000 		movl	$.LC19, %edi
 2313      00
 2314 1609 E8000000 		call	_Z9testShiftPKcjS0_jS0_jS0_
 2314      00
 403:testSvf2Csvf.cpp **** 	testShift(
 404:testSvf2Csvf.cpp **** 		"F1C2E093", 32,
 405:testSvf2Csvf.cpp **** 		"8015", 16,
 406:testSvf2Csvf.cpp **** 		"0135", 9,
 407:testSvf2Csvf.cpp **** 		"0135F1C2E0938015"
 408:testSvf2Csvf.cpp **** 	);
 2315              		.loc 3 408 0
 2316 160e 48C70424 		movq	$.LC89, (%rsp)
 2316      00000000 
 2317 1616 41B90900 		movl	$9, %r9d
 2317      0000
 2318 161c 41B80000 		movl	$.LC72, %r8d
 2318      0000
 2319 1622 B9100000 		movl	$16, %ecx
 2319      00
 2320 1627 BA000000 		movl	$.LC50, %edx
 2320      00
 2321 162c BE200000 		movl	$32, %esi
 2321      00
 2322 1631 BF000000 		movl	$.LC19, %edi
 2322      00
 2323 1636 E8000000 		call	_Z9testShiftPKcjS0_jS0_jS0_
 2323      00
 409:testSvf2Csvf.cpp **** 	testShift(
 410:testSvf2Csvf.cpp **** 		"F1C2E093", 32,
 411:testSvf2Csvf.cpp **** 		"018015", 17,
 412:testSvf2Csvf.cpp **** 		"0135", 9,
 413:testSvf2Csvf.cpp **** 		"026BE385C1278015"
 414:testSvf2Csvf.cpp **** 	);
 2324              		.loc 3 414 0
 2325 163b 48C70424 		movq	$.LC90, (%rsp)
 2325      00000000 
 2326 1643 41B90900 		movl	$9, %r9d
 2326      0000
 2327 1649 41B80000 		movl	$.LC72, %r8d
 2327      0000
 2328 164f B9110000 		movl	$17, %ecx
 2328      00
 2329 1654 BA000000 		movl	$.LC52, %edx
 2329      00
 2330 1659 BE200000 		movl	$32, %esi
 2330      00
 2331 165e BF000000 		movl	$.LC19, %edi
 2331      00
 2332 1663 E8000000 		call	_Z9testShiftPKcjS0_jS0_jS0_
 2332      00
 415:testSvf2Csvf.cpp **** 	testShift(
 416:testSvf2Csvf.cpp **** 		"71C2E093", 31,
 417:testSvf2Csvf.cpp **** 		"00", 0,
 418:testSvf2Csvf.cpp **** 		"0135", 9,
 419:testSvf2Csvf.cpp **** 		"9AF1C2E093"
 420:testSvf2Csvf.cpp **** 	);
 2333              		.loc 3 420 0
 2334 1668 48C70424 		movq	$.LC92, (%rsp)
 2334      00000000 
 2335 1670 41B90900 		movl	$9, %r9d
 2335      0000
 2336 1676 41B80000 		movl	$.LC72, %r8d
 2336      0000
 2337 167c B9000000 		movl	$0, %ecx
 2337      00
 2338 1681 BA000000 		movl	$.LC18, %edx
 2338      00
 2339 1686 BE1F0000 		movl	$31, %esi
 2339      00
 2340 168b BF000000 		movl	$.LC91, %edi
 2340      00
 2341 1690 E8000000 		call	_Z9testShiftPKcjS0_jS0_jS0_
 2341      00
 421:testSvf2Csvf.cpp **** 	testShift(
 422:testSvf2Csvf.cpp **** 		"71C2E093", 31,
 423:testSvf2Csvf.cpp **** 		"01", 1,
 424:testSvf2Csvf.cpp **** 		"0135", 9,
 425:testSvf2Csvf.cpp **** 		"0135E385C127"
 426:testSvf2Csvf.cpp **** 	);
 2342              		.loc 3 426 0
 2343 1695 48C70424 		movq	$.LC93, (%rsp)
 2343      00000000 
 2344 169d 41B90900 		movl	$9, %r9d
 2344      0000
 2345 16a3 41B80000 		movl	$.LC72, %r8d
 2345      0000
 2346 16a9 B9010000 		movl	$1, %ecx
 2346      00
 2347 16ae BA000000 		movl	$.LC21, %edx
 2347      00
 2348 16b3 BE1F0000 		movl	$31, %esi
 2348      00
 2349 16b8 BF000000 		movl	$.LC91, %edi
 2349      00
 2350 16bd E8000000 		call	_Z9testShiftPKcjS0_jS0_jS0_
 2350      00
 427:testSvf2Csvf.cpp **** 	testShift(
 428:testSvf2Csvf.cpp **** 		"71C2E093", 31,
 429:testSvf2Csvf.cpp **** 		"02", 2,
 430:testSvf2Csvf.cpp **** 		"0135", 9,
 431:testSvf2Csvf.cpp **** 		"026BC70B824E"
 432:testSvf2Csvf.cpp **** 	);
 2351              		.loc 3 432 0
 2352 16c2 48C70424 		movq	$.LC94, (%rsp)
 2352      00000000 
 2353 16ca 41B90900 		movl	$9, %r9d
 2353      0000
 2354 16d0 41B80000 		movl	$.LC72, %r8d
 2354      0000
 2355 16d6 B9020000 		movl	$2, %ecx
 2355      00
 2356 16db BA000000 		movl	$.LC23, %edx
 2356      00
 2357 16e0 BE1F0000 		movl	$31, %esi
 2357      00
 2358 16e5 BF000000 		movl	$.LC91, %edi
 2358      00
 2359 16ea E8000000 		call	_Z9testShiftPKcjS0_jS0_jS0_
 2359      00
 433:testSvf2Csvf.cpp **** 	testShift(
 434:testSvf2Csvf.cpp **** 		"71C2E093", 31,
 435:testSvf2Csvf.cpp **** 		"06", 3,
 436:testSvf2Csvf.cpp **** 		"0135", 9,
 437:testSvf2Csvf.cpp **** 		"04D78E17049E"
 438:testSvf2Csvf.cpp **** 	);
 2360              		.loc 3 438 0
 2361 16ef 48C70424 		movq	$.LC95, (%rsp)
 2361      00000000 
 2362 16f7 41B90900 		movl	$9, %r9d
 2362      0000
 2363 16fd 41B80000 		movl	$.LC72, %r8d
 2363      0000
 2364 1703 B9030000 		movl	$3, %ecx
 2364      00
 2365 1708 BA000000 		movl	$.LC17, %edx
 2365      00
 2366 170d BE1F0000 		movl	$31, %esi
 2366      00
 2367 1712 BF000000 		movl	$.LC91, %edi
 2367      00
 2368 1717 E8000000 		call	_Z9testShiftPKcjS0_jS0_jS0_
 2368      00
 439:testSvf2Csvf.cpp **** 	testShift(
 440:testSvf2Csvf.cpp **** 		"71C2E093", 31,
 441:testSvf2Csvf.cpp **** 		"0A", 4,
 442:testSvf2Csvf.cpp **** 		"0135", 9,
 443:testSvf2Csvf.cpp **** 		"09AF1C2E093A"
 444:testSvf2Csvf.cpp **** 	);
 2369              		.loc 3 444 0
 2370 171c 48C70424 		movq	$.LC96, (%rsp)
 2370      00000000 
 2371 1724 41B90900 		movl	$9, %r9d
 2371      0000
 2372 172a 41B80000 		movl	$.LC72, %r8d
 2372      0000
 2373 1730 B9040000 		movl	$4, %ecx
 2373      00
 2374 1735 BA000000 		movl	$.LC26, %edx
 2374      00
 2375 173a BE1F0000 		movl	$31, %esi
 2375      00
 2376 173f BF000000 		movl	$.LC91, %edi
 2376      00
 2377 1744 E8000000 		call	_Z9testShiftPKcjS0_jS0_jS0_
 2377      00
 445:testSvf2Csvf.cpp **** 	testShift(
 446:testSvf2Csvf.cpp **** 		"71C2E093", 31,
 447:testSvf2Csvf.cpp **** 		"15", 5,
 448:testSvf2Csvf.cpp **** 		"0135", 9,
 449:testSvf2Csvf.cpp **** 		"135E385C1275"
 450:testSvf2Csvf.cpp **** 	);
 2378              		.loc 3 450 0
 2379 1749 48C70424 		movq	$.LC97, (%rsp)
 2379      00000000 
 2380 1751 41B90900 		movl	$9, %r9d
 2380      0000
 2381 1757 41B80000 		movl	$.LC72, %r8d
 2381      0000
 2382 175d B9050000 		movl	$5, %ecx
 2382      00
 2383 1762 BA000000 		movl	$.LC28, %edx
 2383      00
 2384 1767 BE1F0000 		movl	$31, %esi
 2384      00
 2385 176c BF000000 		movl	$.LC91, %edi
 2385      00
 2386 1771 E8000000 		call	_Z9testShiftPKcjS0_jS0_jS0_
 2386      00
 451:testSvf2Csvf.cpp **** 	testShift(
 452:testSvf2Csvf.cpp **** 		"71C2E093", 31,
 453:testSvf2Csvf.cpp **** 		"25", 6,
 454:testSvf2Csvf.cpp **** 		"0135", 9,
 455:testSvf2Csvf.cpp **** 		"26BC70B824E5"
 456:testSvf2Csvf.cpp **** 	);
 2387              		.loc 3 456 0
 2388 1776 48C70424 		movq	$.LC98, (%rsp)
 2388      00000000 
 2389 177e 41B90900 		movl	$9, %r9d
 2389      0000
 2390 1784 41B80000 		movl	$.LC72, %r8d
 2390      0000
 2391 178a B9060000 		movl	$6, %ecx
 2391      00
 2392 178f BA000000 		movl	$.LC30, %edx
 2392      00
 2393 1794 BE1F0000 		movl	$31, %esi
 2393      00
 2394 1799 BF000000 		movl	$.LC91, %edi
 2394      00
 2395 179e E8000000 		call	_Z9testShiftPKcjS0_jS0_jS0_
 2395      00
 457:testSvf2Csvf.cpp **** 	testShift(
 458:testSvf2Csvf.cpp **** 		"71C2E093", 31,
 459:testSvf2Csvf.cpp **** 		"75", 7,
 460:testSvf2Csvf.cpp **** 		"0135", 9,
 461:testSvf2Csvf.cpp **** 		"4D78E17049F5"
 462:testSvf2Csvf.cpp **** 	);
 2396              		.loc 3 462 0
 2397 17a3 48C70424 		movq	$.LC99, (%rsp)
 2397      00000000 
 2398 17ab 41B90900 		movl	$9, %r9d
 2398      0000
 2399 17b1 41B80000 		movl	$.LC72, %r8d
 2399      0000
 2400 17b7 B9070000 		movl	$7, %ecx
 2400      00
 2401 17bc BA000000 		movl	$.LC32, %edx
 2401      00
 2402 17c1 BE1F0000 		movl	$31, %esi
 2402      00
 2403 17c6 BF000000 		movl	$.LC91, %edi
 2403      00
 2404 17cb E8000000 		call	_Z9testShiftPKcjS0_jS0_jS0_
 2404      00
 463:testSvf2Csvf.cpp **** 	testShift(
 464:testSvf2Csvf.cpp **** 		"71C2E093", 31,
 465:testSvf2Csvf.cpp **** 		"e5", 8,
 466:testSvf2Csvf.cpp **** 		"0135", 9,
 467:testSvf2Csvf.cpp **** 		"9AF1C2E093E5"
 468:testSvf2Csvf.cpp **** 	);
 2405              		.loc 3 468 0
 2406 17d0 48C70424 		movq	$.LC100, (%rsp)
 2406      00000000 
 2407 17d8 41B90900 		movl	$9, %r9d
 2407      0000
 2408 17de 41B80000 		movl	$.LC72, %r8d
 2408      0000
 2409 17e4 B9080000 		movl	$8, %ecx
 2409      00
 2410 17e9 BA000000 		movl	$.LC34, %edx
 2410      00
 2411 17ee BE1F0000 		movl	$31, %esi
 2411      00
 2412 17f3 BF000000 		movl	$.LC91, %edi
 2412      00
 2413 17f8 E8000000 		call	_Z9testShiftPKcjS0_jS0_jS0_
 2413      00
 469:testSvf2Csvf.cpp **** 	testShift(
 470:testSvf2Csvf.cpp **** 		"71C2E093", 31,
 471:testSvf2Csvf.cpp **** 		"0115", 9,
 472:testSvf2Csvf.cpp **** 		"0135", 9,
 473:testSvf2Csvf.cpp **** 		"0135E385C12715"
 474:testSvf2Csvf.cpp **** 	);
 2414              		.loc 3 474 0
 2415 17fd 48C70424 		movq	$.LC101, (%rsp)
 2415      00000000 
 2416 1805 41B90900 		movl	$9, %r9d
 2416      0000
 2417 180b 41B80000 		movl	$.LC72, %r8d
 2417      0000
 2418 1811 B9090000 		movl	$9, %ecx
 2418      00
 2419 1816 BA000000 		movl	$.LC36, %edx
 2419      00
 2420 181b BE1F0000 		movl	$31, %esi
 2420      00
 2421 1820 BF000000 		movl	$.LC91, %edi
 2421      00
 2422 1825 E8000000 		call	_Z9testShiftPKcjS0_jS0_jS0_
 2422      00
 475:testSvf2Csvf.cpp **** 	testShift(
 476:testSvf2Csvf.cpp **** 		"71C2E093", 31,
 477:testSvf2Csvf.cpp **** 		"0315", 10,
 478:testSvf2Csvf.cpp **** 		"0135", 9,
 479:testSvf2Csvf.cpp **** 		"026BC70B824F15"
 480:testSvf2Csvf.cpp **** 	);
 2423              		.loc 3 480 0
 2424 182a 48C70424 		movq	$.LC102, (%rsp)
 2424      00000000 
 2425 1832 41B90900 		movl	$9, %r9d
 2425      0000
 2426 1838 41B80000 		movl	$.LC72, %r8d
 2426      0000
 2427 183e B90A0000 		movl	$10, %ecx
 2427      00
 2428 1843 BA000000 		movl	$.LC38, %edx
 2428      00
 2429 1848 BE1F0000 		movl	$31, %esi
 2429      00
 2430 184d BF000000 		movl	$.LC91, %edi
 2430      00
 2431 1852 E8000000 		call	_Z9testShiftPKcjS0_jS0_jS0_
 2431      00
 481:testSvf2Csvf.cpp **** 	testShift(
 482:testSvf2Csvf.cpp **** 		"71C2E093", 31,
 483:testSvf2Csvf.cpp **** 		"0715", 11,
 484:testSvf2Csvf.cpp **** 		"0135", 9,
 485:testSvf2Csvf.cpp **** 		"04D78E17049F15"
 486:testSvf2Csvf.cpp **** 	);
 2432              		.loc 3 486 0
 2433 1857 48C70424 		movq	$.LC103, (%rsp)
 2433      00000000 
 2434 185f 41B90900 		movl	$9, %r9d
 2434      0000
 2435 1865 41B80000 		movl	$.LC72, %r8d
 2435      0000
 2436 186b B90B0000 		movl	$11, %ecx
 2436      00
 2437 1870 BA000000 		movl	$.LC40, %edx
 2437      00
 2438 1875 BE1F0000 		movl	$31, %esi
 2438      00
 2439 187a BF000000 		movl	$.LC91, %edi
 2439      00
 2440 187f E8000000 		call	_Z9testShiftPKcjS0_jS0_jS0_
 2440      00
 487:testSvf2Csvf.cpp **** 	testShift(
 488:testSvf2Csvf.cpp **** 		"71C2E093", 31,
 489:testSvf2Csvf.cpp **** 		"0c15", 12,
 490:testSvf2Csvf.cpp **** 		"0135", 9,
 491:testSvf2Csvf.cpp **** 		"09AF1C2E093C15"
 492:testSvf2Csvf.cpp **** 	);
 2441              		.loc 3 492 0
 2442 1884 48C70424 		movq	$.LC104, (%rsp)
 2442      00000000 
 2443 188c 41B90900 		movl	$9, %r9d
 2443      0000
 2444 1892 41B80000 		movl	$.LC72, %r8d
 2444      0000
 2445 1898 B90C0000 		movl	$12, %ecx
 2445      00
 2446 189d BA000000 		movl	$.LC42, %edx
 2446      00
 2447 18a2 BE1F0000 		movl	$31, %esi
 2447      00
 2448 18a7 BF000000 		movl	$.LC91, %edi
 2448      00
 2449 18ac E8000000 		call	_Z9testShiftPKcjS0_jS0_jS0_
 2449      00
 493:testSvf2Csvf.cpp **** 	testShift(
 494:testSvf2Csvf.cpp **** 		"71C2E093", 31,
 495:testSvf2Csvf.cpp **** 		"1c15", 13,
 496:testSvf2Csvf.cpp **** 		"0135", 9,
 497:testSvf2Csvf.cpp **** 		"135E385C127C15"
 498:testSvf2Csvf.cpp **** 	);
 2450              		.loc 3 498 0
 2451 18b1 48C70424 		movq	$.LC105, (%rsp)
 2451      00000000 
 2452 18b9 41B90900 		movl	$9, %r9d
 2452      0000
 2453 18bf 41B80000 		movl	$.LC72, %r8d
 2453      0000
 2454 18c5 B90D0000 		movl	$13, %ecx
 2454      00
 2455 18ca BA000000 		movl	$.LC44, %edx
 2455      00
 2456 18cf BE1F0000 		movl	$31, %esi
 2456      00
 2457 18d4 BF000000 		movl	$.LC91, %edi
 2457      00
 2458 18d9 E8000000 		call	_Z9testShiftPKcjS0_jS0_jS0_
 2458      00
 499:testSvf2Csvf.cpp **** 	testShift(
 500:testSvf2Csvf.cpp **** 		"71C2E093", 31,
 501:testSvf2Csvf.cpp **** 		"2c15", 14,
 502:testSvf2Csvf.cpp **** 		"0135", 9,
 503:testSvf2Csvf.cpp **** 		"26BC70B824EC15"
 504:testSvf2Csvf.cpp **** 	);
 2459              		.loc 3 504 0
 2460 18de 48C70424 		movq	$.LC106, (%rsp)
 2460      00000000 
 2461 18e6 41B90900 		movl	$9, %r9d
 2461      0000
 2462 18ec 41B80000 		movl	$.LC72, %r8d
 2462      0000
 2463 18f2 B90E0000 		movl	$14, %ecx
 2463      00
 2464 18f7 BA000000 		movl	$.LC46, %edx
 2464      00
 2465 18fc BE1F0000 		movl	$31, %esi
 2465      00
 2466 1901 BF000000 		movl	$.LC91, %edi
 2466      00
 2467 1906 E8000000 		call	_Z9testShiftPKcjS0_jS0_jS0_
 2467      00
 505:testSvf2Csvf.cpp **** 	testShift(
 506:testSvf2Csvf.cpp **** 		"71C2E093", 31,
 507:testSvf2Csvf.cpp **** 		"4015", 15,
 508:testSvf2Csvf.cpp **** 		"0135", 9,
 509:testSvf2Csvf.cpp **** 		"4D78E17049C015"
 510:testSvf2Csvf.cpp **** 	);
 2468              		.loc 3 510 0
 2469 190b 48C70424 		movq	$.LC107, (%rsp)
 2469      00000000 
 2470 1913 41B90900 		movl	$9, %r9d
 2470      0000
 2471 1919 41B80000 		movl	$.LC72, %r8d
 2471      0000
 2472 191f B90F0000 		movl	$15, %ecx
 2472      00
 2473 1924 BA000000 		movl	$.LC48, %edx
 2473      00
 2474 1929 BE1F0000 		movl	$31, %esi
 2474      00
 2475 192e BF000000 		movl	$.LC91, %edi
 2475      00
 2476 1933 E8000000 		call	_Z9testShiftPKcjS0_jS0_jS0_
 2476      00
 511:testSvf2Csvf.cpp **** 	testShift(
 512:testSvf2Csvf.cpp **** 		"71C2E093", 31,
 513:testSvf2Csvf.cpp **** 		"8015", 16,
 514:testSvf2Csvf.cpp **** 		"0135", 9,
 515:testSvf2Csvf.cpp **** 		"9AF1C2E0938015"
 516:testSvf2Csvf.cpp **** 	);
 2477              		.loc 3 516 0
 2478 1938 48C70424 		movq	$.LC108, (%rsp)
 2478      00000000 
 2479 1940 41B90900 		movl	$9, %r9d
 2479      0000
 2480 1946 41B80000 		movl	$.LC72, %r8d
 2480      0000
 2481 194c B9100000 		movl	$16, %ecx
 2481      00
 2482 1951 BA000000 		movl	$.LC50, %edx
 2482      00
 2483 1956 BE1F0000 		movl	$31, %esi
 2483      00
 2484 195b BF000000 		movl	$.LC91, %edi
 2484      00
 2485 1960 E8000000 		call	_Z9testShiftPKcjS0_jS0_jS0_
 2485      00
 517:testSvf2Csvf.cpp **** 	testShift(
 518:testSvf2Csvf.cpp **** 		"71C2E093", 31,
 519:testSvf2Csvf.cpp **** 		"018015", 17,
 520:testSvf2Csvf.cpp **** 		"0135", 9,
 521:testSvf2Csvf.cpp **** 		"0135E385C1278015"
 522:testSvf2Csvf.cpp **** 	);
 2486              		.loc 3 522 0
 2487 1965 48C70424 		movq	$.LC109, (%rsp)
 2487      00000000 
 2488 196d 41B90900 		movl	$9, %r9d
 2488      0000
 2489 1973 41B80000 		movl	$.LC72, %r8d
 2489      0000
 2490 1979 B9110000 		movl	$17, %ecx
 2490      00
 2491 197e BA000000 		movl	$.LC52, %edx
 2491      00
 2492 1983 BE1F0000 		movl	$31, %esi
 2492      00
 2493 1988 BF000000 		movl	$.LC91, %edi
 2493      00
 2494 198d E8000000 		call	_Z9testShiftPKcjS0_jS0_jS0_
 2494      00
 523:testSvf2Csvf.cpp **** 	testShift(
 524:testSvf2Csvf.cpp **** 		"5423DF3A8F129B2C91B9425D", 95,
 525:testSvf2Csvf.cpp **** 		"", 0,
 526:testSvf2Csvf.cpp **** 		"01", 1,
 527:testSvf2Csvf.cpp **** 		"D423DF3A8F129B2C91B9425D"
 528:testSvf2Csvf.cpp **** 	);
 2495              		.loc 3 528 0
 2496 1992 48C70424 		movq	$.LC112, (%rsp)
 2496      00000000 
 2497 199a 41B90100 		movl	$1, %r9d
 2497      0000
 2498 19a0 41B80000 		movl	$.LC21, %r8d
 2498      0000
 2499 19a6 B9000000 		movl	$0, %ecx
 2499      00
 2500 19ab BA000000 		movl	$.LC110, %edx
 2500      00
 2501 19b0 BE5F0000 		movl	$95, %esi
 2501      00
 2502 19b5 BF000000 		movl	$.LC111, %edi
 2502      00
 2503 19ba E8000000 		call	_Z9testShiftPKcjS0_jS0_jS0_
 2503      00
 529:testSvf2Csvf.cpp **** 	testShift(
 530:testSvf2Csvf.cpp **** 		"5423DF3A8F129B2C91B9425D", 95,
 531:testSvf2Csvf.cpp **** 		"01", 1,
 532:testSvf2Csvf.cpp **** 		"", 0,
 533:testSvf2Csvf.cpp **** 		"A847BE751E253659237284BB"
 534:testSvf2Csvf.cpp **** 	);
 2504              		.loc 3 534 0
 2505 19bf 48C70424 		movq	$.LC113, (%rsp)
 2505      00000000 
 2506 19c7 41B90000 		movl	$0, %r9d
 2506      0000
 2507 19cd 41B80000 		movl	$.LC110, %r8d
 2507      0000
 2508 19d3 B9010000 		movl	$1, %ecx
 2508      00
 2509 19d8 BA000000 		movl	$.LC21, %edx
 2509      00
 2510 19dd BE5F0000 		movl	$95, %esi
 2510      00
 2511 19e2 BF000000 		movl	$.LC111, %edi
 2511      00
 2512 19e7 E8000000 		call	_Z9testShiftPKcjS0_jS0_jS0_
 2512      00
 535:testSvf2Csvf.cpp **** }
 2513              		.loc 3 535 0
 2514 19ec C9       		leave
 2515              		.cfi_def_cfa 7, 8
 2516 19ed C3       		ret
 2517              		.cfi_endproc
 2518              	.LFE1032:
 2520              		.globl	_Z11parseStringP12ParseContextPKcP6Buffer
 2522              	_Z11parseStringP12ParseContextPKcP6Buffer:
 2523              	.LFB1033:
 536:testSvf2Csvf.cpp **** 
 537:testSvf2Csvf.cpp **** void parseString(ParseContext *cxt, const char *str, struct Buffer *csvfBuf) {
 2524              		.loc 3 537 0
 2525              		.cfi_startproc
 2526              		.cfi_personality 0x3,__gxx_personality_v0
 2527              		.cfi_lsda 0x3,.LLSDA1033
 2528 19ee 55       		pushq	%rbp
 2529              		.cfi_def_cfa_offset 16
 2530              		.cfi_offset 6, -16
 2531 19ef 4889E5   		movq	%rsp, %rbp
 2532              		.cfi_def_cfa_register 6
 2533 19f2 53       		pushq	%rbx
 2534 19f3 4883EC78 		subq	$120, %rsp
 2535              		.cfi_offset 3, -24
 2536 19f7 48897D98 		movq	%rdi, -104(%rbp)
 2537 19fb 48897590 		movq	%rsi, -112(%rbp)
 2538 19ff 48895588 		movq	%rdx, -120(%rbp)
 2539              	.LBB13:
 538:testSvf2Csvf.cpp **** 	Buffer line;
 539:testSvf2Csvf.cpp **** 	BufferStatus bStatus;
 540:testSvf2Csvf.cpp **** 	FLStatus fStatus;
 541:testSvf2Csvf.cpp **** 	const uint32 lineLen = (uint32)strlen(str) + 1;
 2540              		.loc 3 541 0
 2541 1a03 488B4590 		movq	-112(%rbp), %rax
 2542 1a07 4889C7   		movq	%rax, %rdi
 2543 1a0a E8000000 		call	strlen
 2543      00
 2544 1a0f 83C001   		addl	$1, %eax
 2545 1a12 8945AC   		movl	%eax, -84(%rbp)
 542:testSvf2Csvf.cpp **** 	bStatus = bufInitialise(&line, lineLen, 0, NULL);
 2546              		.loc 3 542 0
 2547 1a15 8B75AC   		movl	-84(%rbp), %esi
 2548 1a18 488D45B0 		leaq	-80(%rbp), %rax
 2549 1a1c B9000000 		movl	$0, %ecx
 2549      00
 2550 1a21 BA000000 		movl	$0, %edx
 2550      00
 2551 1a26 4889C7   		movq	%rax, %rdi
 2552              	.LEHB67:
 2553 1a29 E8000000 		call	bufInitialise
 2553      00
 2554              	.LEHE67:
 2555 1a2e 8945A0   		movl	%eax, -96(%rbp)
 2556              	.LEHB68:
 543:testSvf2Csvf.cpp **** 	CHECK_EQUAL(BUF_SUCCESS, bStatus);
 2557              		.loc 3 543 0
 2558 1a31 E8000000 		call	_ZN8UnitTest11CurrentTest7DetailsEv
 2558      00
 2559 1a36 488B08   		movq	(%rax), %rcx
 2560 1a39 488D45D0 		leaq	-48(%rbp), %rax
 2561 1a3d BA1F0200 		movl	$543, %edx
 2561      00
 2562 1a42 4889CE   		movq	%rcx, %rsi
 2563 1a45 4889C7   		movq	%rax, %rdi
 2564 1a48 E8000000 		call	_ZN8UnitTest11TestDetailsC1ERKS0_i
 2564      00
 2565              		.loc 3 543 0 is_stmt 0 discriminator 1
 2566 1a4d C745A800 		movl	$0, -88(%rbp)
 2566      000000
 2567 1a54 E8000000 		call	_ZN8UnitTest11CurrentTest7ResultsEv
 2567      00
 2568 1a59 488B00   		movq	(%rax), %rax
 2569 1a5c 488D4DD0 		leaq	-48(%rbp), %rcx
 2570 1a60 488D55A0 		leaq	-96(%rbp), %rdx
 2571 1a64 488D75A8 		leaq	-88(%rbp), %rsi
 2572 1a68 4889C7   		movq	%rax, %rdi
 2573 1a6b E8000000 		call	_ZN8UnitTest10CheckEqualI12BufferStatusS1_EEvRNS_11TestResultsERKT_RKT0_RKNS_11TestDetailsE
 2573      00
 2574              	.LEHE68:
 2575              	.L92:
 544:testSvf2Csvf.cpp **** 	bStatus = bufAppendBlock(&line, (const uint8 *)str, lineLen, NULL);
 2576              		.loc 3 544 0 is_stmt 1
 2577 1a70 8B55AC   		movl	-84(%rbp), %edx
 2578 1a73 488B7590 		movq	-112(%rbp), %rsi
 2579 1a77 488D45B0 		leaq	-80(%rbp), %rax
 2580 1a7b B9000000 		movl	$0, %ecx
 2580      00
 2581 1a80 4889C7   		movq	%rax, %rdi
 2582              	.LEHB69:
 2583 1a83 E8000000 		call	bufAppendBlock
 2583      00
 2584              	.LEHE69:
 2585 1a88 8945A0   		movl	%eax, -96(%rbp)
 2586              	.LEHB70:
 545:testSvf2Csvf.cpp **** 	CHECK_EQUAL(BUF_SUCCESS, bStatus);
 2587              		.loc 3 545 0
 2588 1a8b E8000000 		call	_ZN8UnitTest11CurrentTest7DetailsEv
 2588      00
 2589 1a90 488B08   		movq	(%rax), %rcx
 2590 1a93 488D45D0 		leaq	-48(%rbp), %rax
 2591 1a97 BA210200 		movl	$545, %edx
 2591      00
 2592 1a9c 4889CE   		movq	%rcx, %rsi
 2593 1a9f 4889C7   		movq	%rax, %rdi
 2594 1aa2 E8000000 		call	_ZN8UnitTest11TestDetailsC1ERKS0_i
 2594      00
 2595              		.loc 3 545 0 is_stmt 0 discriminator 1
 2596 1aa7 C745A800 		movl	$0, -88(%rbp)
 2596      000000
 2597 1aae E8000000 		call	_ZN8UnitTest11CurrentTest7ResultsEv
 2597      00
 2598 1ab3 488B00   		movq	(%rax), %rax
 2599 1ab6 488D4DD0 		leaq	-48(%rbp), %rcx
 2600 1aba 488D55A0 		leaq	-96(%rbp), %rdx
 2601 1abe 488D75A8 		leaq	-88(%rbp), %rsi
 2602 1ac2 4889C7   		movq	%rax, %rdi
 2603 1ac5 E8000000 		call	_ZN8UnitTest10CheckEqualI12BufferStatusS1_EEvRNS_11TestResultsERKT_RKT0_RKNS_11TestDetailsE
 2603      00
 2604              	.LEHE70:
 2605              	.L95:
 546:testSvf2Csvf.cpp **** 	fStatus = parseLine(cxt, &line, csvfBuf, NULL, NULL);
 2606              		.loc 3 546 0 is_stmt 1
 2607 1aca 488B5588 		movq	-120(%rbp), %rdx
 2608 1ace 488D75B0 		leaq	-80(%rbp), %rsi
 2609 1ad2 488B4598 		movq	-104(%rbp), %rax
 2610 1ad6 41B80000 		movl	$0, %r8d
 2610      0000
 2611 1adc B9000000 		movl	$0, %ecx
 2611      00
 2612 1ae1 4889C7   		movq	%rax, %rdi
 2613              	.LEHB71:
 2614 1ae4 E8000000 		call	parseLine
 2614      00
 2615              	.LEHE71:
 2616 1ae9 8945A4   		movl	%eax, -92(%rbp)
 2617              	.LEHB72:
 547:testSvf2Csvf.cpp **** 	CHECK_EQUAL(FL_SUCCESS, fStatus);
 2618              		.loc 3 547 0
 2619 1aec E8000000 		call	_ZN8UnitTest11CurrentTest7DetailsEv
 2619      00
 2620 1af1 488B08   		movq	(%rax), %rcx
 2621 1af4 488D45D0 		leaq	-48(%rbp), %rax
 2622 1af8 BA230200 		movl	$547, %edx
 2622      00
 2623 1afd 4889CE   		movq	%rcx, %rsi
 2624 1b00 4889C7   		movq	%rax, %rdi
 2625 1b03 E8000000 		call	_ZN8UnitTest11TestDetailsC1ERKS0_i
 2625      00
 2626              		.loc 3 547 0 is_stmt 0 discriminator 1
 2627 1b08 C745A800 		movl	$0, -88(%rbp)
 2627      000000
 2628 1b0f E8000000 		call	_ZN8UnitTest11CurrentTest7ResultsEv
 2628      00
 2629 1b14 488B00   		movq	(%rax), %rax
 2630 1b17 488D4DD0 		leaq	-48(%rbp), %rcx
 2631 1b1b 488D55A4 		leaq	-92(%rbp), %rdx
 2632 1b1f 488D75A8 		leaq	-88(%rbp), %rsi
 2633 1b23 4889C7   		movq	%rax, %rdi
 2634 1b26 E8000000 		call	_ZN8UnitTest10CheckEqualI8FLStatusS1_EEvRNS_11TestResultsERKT_RKT0_RKNS_11TestDetailsE
 2634      00
 2635              	.LEHE72:
 2636              	.L98:
 548:testSvf2Csvf.cpp **** 	bufDestroy(&line);
 2637              		.loc 3 548 0 is_stmt 1
 2638 1b2b 488D45B0 		leaq	-80(%rbp), %rax
 2639 1b2f 4889C7   		movq	%rax, %rdi
 2640              	.LEHB73:
 2641 1b32 E8000000 		call	bufDestroy
 2641      00
 2642              	.LEHE73:
 2643 1b37 E9170100 		jmp	.L105
 2643      00
 2644              	.L100:
 2645 1b3c 4889C3   		movq	%rax, %rbx
 543:testSvf2Csvf.cpp **** 	bStatus = bufAppendBlock(&line, (const uint8 *)str, lineLen, NULL);
 2646              		.loc 3 543 0
 2647 1b3f E8000000 		call	__cxa_end_catch
 2647      00
 2648 1b44 4889D8   		movq	%rbx, %rax
 2649 1b47 4889C7   		movq	%rax, %rdi
 2650              	.LEHB74:
 2651 1b4a E8000000 		call	_Unwind_Resume
 2651      00
 2652              	.LEHE74:
 2653              	.L99:
 2654 1b4f 4889C7   		movq	%rax, %rdi
 2655 1b52 E8000000 		call	__cxa_begin_catch
 2655      00
 2656              	.LEHB75:
 2657 1b57 E8000000 		call	_ZN8UnitTest11CurrentTest7DetailsEv
 2657      00
 2658 1b5c 488B08   		movq	(%rax), %rcx
 2659 1b5f 488D45D0 		leaq	-48(%rbp), %rax
 2660 1b63 BA1F0200 		movl	$543, %edx
 2660      00
 2661 1b68 4889CE   		movq	%rcx, %rsi
 2662 1b6b 4889C7   		movq	%rax, %rdi
 2663 1b6e E8000000 		call	_ZN8UnitTest11TestDetailsC1ERKS0_i
 2663      00
 543:testSvf2Csvf.cpp **** 	bStatus = bufAppendBlock(&line, (const uint8 *)str, lineLen, NULL);
 2664              		.loc 3 543 0 is_stmt 0 discriminator 1
 2665 1b73 E8000000 		call	_ZN8UnitTest11CurrentTest7ResultsEv
 2665      00
 2666 1b78 488B00   		movq	(%rax), %rax
 2667 1b7b 488D4DD0 		leaq	-48(%rbp), %rcx
 2668 1b7f BA000000 		movl	$.LC13, %edx
 2668      00
 2669 1b84 4889CE   		movq	%rcx, %rsi
 2670 1b87 4889C7   		movq	%rax, %rdi
 2671 1b8a E8000000 		call	_ZN8UnitTest11TestResults13OnTestFailureERKNS_11TestDetailsEPKc
 2671      00
 2672              	.LEHE75:
 2673              	.LEHB76:
 2674 1b8f E8000000 		call	__cxa_end_catch
 2674      00
 2675              	.LEHE76:
 2676 1b94 E9D7FEFF 		jmp	.L92
 2676      FF
 2677              	.L102:
 2678 1b99 4889C3   		movq	%rax, %rbx
 545:testSvf2Csvf.cpp **** 	fStatus = parseLine(cxt, &line, csvfBuf, NULL, NULL);
 2679              		.loc 3 545 0 is_stmt 1
 2680 1b9c E8000000 		call	__cxa_end_catch
 2680      00
 2681 1ba1 4889D8   		movq	%rbx, %rax
 2682 1ba4 4889C7   		movq	%rax, %rdi
 2683              	.LEHB77:
 2684 1ba7 E8000000 		call	_Unwind_Resume
 2684      00
 2685              	.LEHE77:
 2686              	.L101:
 2687 1bac 4889C7   		movq	%rax, %rdi
 2688 1baf E8000000 		call	__cxa_begin_catch
 2688      00
 2689              	.LEHB78:
 2690 1bb4 E8000000 		call	_ZN8UnitTest11CurrentTest7DetailsEv
 2690      00
 2691 1bb9 488B08   		movq	(%rax), %rcx
 2692 1bbc 488D45D0 		leaq	-48(%rbp), %rax
 2693 1bc0 BA210200 		movl	$545, %edx
 2693      00
 2694 1bc5 4889CE   		movq	%rcx, %rsi
 2695 1bc8 4889C7   		movq	%rax, %rdi
 2696 1bcb E8000000 		call	_ZN8UnitTest11TestDetailsC1ERKS0_i
 2696      00
 545:testSvf2Csvf.cpp **** 	fStatus = parseLine(cxt, &line, csvfBuf, NULL, NULL);
 2697              		.loc 3 545 0 is_stmt 0 discriminator 1
 2698 1bd0 E8000000 		call	_ZN8UnitTest11CurrentTest7ResultsEv
 2698      00
 2699 1bd5 488B00   		movq	(%rax), %rax
 2700 1bd8 488D4DD0 		leaq	-48(%rbp), %rcx
 2701 1bdc BA000000 		movl	$.LC13, %edx
 2701      00
 2702 1be1 4889CE   		movq	%rcx, %rsi
 2703 1be4 4889C7   		movq	%rax, %rdi
 2704 1be7 E8000000 		call	_ZN8UnitTest11TestResults13OnTestFailureERKNS_11TestDetailsEPKc
 2704      00
 2705              	.LEHE78:
 2706              	.LEHB79:
 2707 1bec E8000000 		call	__cxa_end_catch
 2707      00
 2708              	.LEHE79:
 2709 1bf1 E9D4FEFF 		jmp	.L95
 2709      FF
 2710              	.L104:
 2711 1bf6 4889C3   		movq	%rax, %rbx
 547:testSvf2Csvf.cpp **** 	bufDestroy(&line);
 2712              		.loc 3 547 0 is_stmt 1
 2713 1bf9 E8000000 		call	__cxa_end_catch
 2713      00
 2714 1bfe 4889D8   		movq	%rbx, %rax
 2715 1c01 4889C7   		movq	%rax, %rdi
 2716              	.LEHB80:
 2717 1c04 E8000000 		call	_Unwind_Resume
 2717      00
 2718              	.LEHE80:
 2719              	.L103:
 2720 1c09 4889C7   		movq	%rax, %rdi
 2721 1c0c E8000000 		call	__cxa_begin_catch
 2721      00
 2722              	.LEHB81:
 2723 1c11 E8000000 		call	_ZN8UnitTest11CurrentTest7DetailsEv
 2723      00
 2724 1c16 488B08   		movq	(%rax), %rcx
 2725 1c19 488D45D0 		leaq	-48(%rbp), %rax
 2726 1c1d BA230200 		movl	$547, %edx
 2726      00
 2727 1c22 4889CE   		movq	%rcx, %rsi
 2728 1c25 4889C7   		movq	%rax, %rdi
 2729 1c28 E8000000 		call	_ZN8UnitTest11TestDetailsC1ERKS0_i
 2729      00
 547:testSvf2Csvf.cpp **** 	bufDestroy(&line);
 2730              		.loc 3 547 0 is_stmt 0 discriminator 1
 2731 1c2d E8000000 		call	_ZN8UnitTest11CurrentTest7ResultsEv
 2731      00
 2732 1c32 488B00   		movq	(%rax), %rax
 2733 1c35 488D4DD0 		leaq	-48(%rbp), %rcx
 2734 1c39 BA000000 		movl	$.LC2, %edx
 2734      00
 2735 1c3e 4889CE   		movq	%rcx, %rsi
 2736 1c41 4889C7   		movq	%rax, %rdi
 2737 1c44 E8000000 		call	_ZN8UnitTest11TestResults13OnTestFailureERKNS_11TestDetailsEPKc
 2737      00
 2738              	.LEHE81:
 2739              	.LEHB82:
 2740 1c49 E8000000 		call	__cxa_end_catch
 2740      00
 2741              	.LEHE82:
 2742 1c4e E9D8FEFF 		jmp	.L98
 2742      FF
 2743              	.L105:
 2744              	.LBE13:
 549:testSvf2Csvf.cpp **** }
 2745              		.loc 3 549 0 is_stmt 1
 2746 1c53 4883C478 		addq	$120, %rsp
 2747 1c57 5B       		popq	%rbx
 2748 1c58 5D       		popq	%rbp
 2749              		.cfi_def_cfa 7, 8
 2750 1c59 C3       		ret
 2751              		.cfi_endproc
 2752              	.LFE1033:
 2753              		.section	.gcc_except_table
 2754              		.align 4
 2755              	.LLSDA1033:
 2756 0174 FF       		.byte	0xff
 2757 0175 03       		.byte	0x3
 2758 0176 5D       		.uleb128 .LLSDATT1033-.LLSDATTD1033
 2759              	.LLSDATTD1033:
 2760 0177 01       		.byte	0x1
 2761 0178 54       		.uleb128 .LLSDACSE1033-.LLSDACSB1033
 2762              	.LLSDACSB1033:
 2763 0179 3B       		.uleb128 .LEHB67-.LFB1033
 2764 017a 05       		.uleb128 .LEHE67-.LEHB67
 2765 017b 00       		.uleb128 0
 2766 017c 00       		.uleb128 0
 2767 017d 43       		.uleb128 .LEHB68-.LFB1033
 2768 017e 3F       		.uleb128 .LEHE68-.LEHB68
 2769 017f E102     		.uleb128 .L99-.LFB1033
 2770 0181 01       		.uleb128 0x1
 2771 0182 9501     		.uleb128 .LEHB69-.LFB1033
 2772 0184 05       		.uleb128 .LEHE69-.LEHB69
 2773 0185 00       		.uleb128 0
 2774 0186 00       		.uleb128 0
 2775 0187 9D01     		.uleb128 .LEHB70-.LFB1033
 2776 0189 3F       		.uleb128 .LEHE70-.LEHB70
 2777 018a BE03     		.uleb128 .L101-.LFB1033
 2778 018c 01       		.uleb128 0x1
 2779 018d F601     		.uleb128 .LEHB71-.LFB1033
 2780 018f 05       		.uleb128 .LEHE71-.LEHB71
 2781 0190 00       		.uleb128 0
 2782 0191 00       		.uleb128 0
 2783 0192 FE01     		.uleb128 .LEHB72-.LFB1033
 2784 0194 3F       		.uleb128 .LEHE72-.LEHB72
 2785 0195 9B04     		.uleb128 .L103-.LFB1033
 2786 0197 01       		.uleb128 0x1
 2787 0198 C402     		.uleb128 .LEHB73-.LFB1033
 2788 019a 05       		.uleb128 .LEHE73-.LEHB73
 2789 019b 00       		.uleb128 0
 2790 019c 00       		.uleb128 0
 2791 019d DC02     		.uleb128 .LEHB74-.LFB1033
 2792 019f 05       		.uleb128 .LEHE74-.LEHB74
 2793 01a0 00       		.uleb128 0
 2794 01a1 00       		.uleb128 0
 2795 01a2 E902     		.uleb128 .LEHB75-.LFB1033
 2796 01a4 38       		.uleb128 .LEHE75-.LEHB75
 2797 01a5 CE02     		.uleb128 .L100-.LFB1033
 2798 01a7 00       		.uleb128 0
 2799 01a8 A103     		.uleb128 .LEHB76-.LFB1033
 2800 01aa 05       		.uleb128 .LEHE76-.LEHB76
 2801 01ab 00       		.uleb128 0
 2802 01ac 00       		.uleb128 0
 2803 01ad B903     		.uleb128 .LEHB77-.LFB1033
 2804 01af 05       		.uleb128 .LEHE77-.LEHB77
 2805 01b0 00       		.uleb128 0
 2806 01b1 00       		.uleb128 0
 2807 01b2 C603     		.uleb128 .LEHB78-.LFB1033
 2808 01b4 38       		.uleb128 .LEHE78-.LEHB78
 2809 01b5 AB03     		.uleb128 .L102-.LFB1033
 2810 01b7 00       		.uleb128 0
 2811 01b8 FE03     		.uleb128 .LEHB79-.LFB1033
 2812 01ba 05       		.uleb128 .LEHE79-.LEHB79
 2813 01bb 00       		.uleb128 0
 2814 01bc 00       		.uleb128 0
 2815 01bd 9604     		.uleb128 .LEHB80-.LFB1033
 2816 01bf 05       		.uleb128 .LEHE80-.LEHB80
 2817 01c0 00       		.uleb128 0
 2818 01c1 00       		.uleb128 0
 2819 01c2 A304     		.uleb128 .LEHB81-.LFB1033
 2820 01c4 38       		.uleb128 .LEHE81-.LEHB81
 2821 01c5 8804     		.uleb128 .L104-.LFB1033
 2822 01c7 00       		.uleb128 0
 2823 01c8 DB04     		.uleb128 .LEHB82-.LFB1033
 2824 01ca 05       		.uleb128 .LEHE82-.LEHB82
 2825 01cb 00       		.uleb128 0
 2826 01cc 00       		.uleb128 0
 2827              	.LLSDACSE1033:
 2828 01cd 01       		.byte	0x1
 2829 01ce 00       		.byte	0
 2830 01cf 00       		.align 4
 2831 01d0 00000000 		.long	0
 2832              	
 2833              	.LLSDATT1033:
 2834              		.text
 2836              		.globl	_Z12renderBufferRPcPK6Buffer
 2838              	_Z12renderBufferRPcPK6Buffer:
 2839              	.LFB1034:
 550:testSvf2Csvf.cpp **** 
 551:testSvf2Csvf.cpp **** void renderBuffer(char *&p, const Buffer *buf) {
 2840              		.loc 3 551 0
 2841              		.cfi_startproc
 2842 1c5a 55       		pushq	%rbp
 2843              		.cfi_def_cfa_offset 16
 2844              		.cfi_offset 6, -16
 2845 1c5b 4889E5   		movq	%rsp, %rbp
 2846              		.cfi_def_cfa_register 6
 2847 1c5e 4883EC20 		subq	$32, %rsp
 2848 1c62 48897DE8 		movq	%rdi, -24(%rbp)
 2849 1c66 488975E0 		movq	%rsi, -32(%rbp)
 2850              	.LBB14:
 552:testSvf2Csvf.cpp **** 	const char *src = (const char *)buf->data;
 2851              		.loc 3 552 0
 2852 1c6a 488B45E0 		movq	-32(%rbp), %rax
 2853 1c6e 488B00   		movq	(%rax), %rax
 2854 1c71 488945F8 		movq	%rax, -8(%rbp)
 553:testSvf2Csvf.cpp **** 	uint32 length = (uint32)buf->length;
 2855              		.loc 3 553 0
 2856 1c75 488B45E0 		movq	-32(%rbp), %rax
 2857 1c79 488B4008 		movq	8(%rax), %rax
 2858 1c7d 8945F4   		movl	%eax, -12(%rbp)
 554:testSvf2Csvf.cpp **** 	*p++ = '{';
 2859              		.loc 3 554 0
 2860 1c80 488B45E8 		movq	-24(%rbp), %rax
 2861 1c84 488B00   		movq	(%rax), %rax
 2862 1c87 488D4801 		leaq	1(%rax), %rcx
 2863 1c8b 488B55E8 		movq	-24(%rbp), %rdx
 2864 1c8f 48890A   		movq	%rcx, (%rdx)
 2865 1c92 C6007B   		movb	$123, (%rax)
 555:testSvf2Csvf.cpp **** 	while ( length-- ) {
 2866              		.loc 3 555 0
 2867 1c95 EB3D     		jmp	.L107
 2868              	.L108:
 556:testSvf2Csvf.cpp **** 		sprintf(p, "%02X", *src & 0xFF);
 2869              		.loc 3 556 0
 2870 1c97 488B45F8 		movq	-8(%rbp), %rax
 2871 1c9b 0FB600   		movzbl	(%rax), %eax
 2872 1c9e 0FBEC0   		movsbl	%al, %eax
 2873 1ca1 0FB6D0   		movzbl	%al, %edx
 2874 1ca4 488B45E8 		movq	-24(%rbp), %rax
 2875 1ca8 488B00   		movq	(%rax), %rax
 2876 1cab BE000000 		movl	$.LC1, %esi
 2876      00
 2877 1cb0 4889C7   		movq	%rax, %rdi
 2878 1cb3 B8000000 		movl	$0, %eax
 2878      00
 2879 1cb8 E8000000 		call	sprintf
 2879      00
 557:testSvf2Csvf.cpp **** 		src++;
 2880              		.loc 3 557 0
 2881 1cbd 488345F8 		addq	$1, -8(%rbp)
 2881      01
 558:testSvf2Csvf.cpp **** 		p += 2;
 2882              		.loc 3 558 0
 2883 1cc2 488B45E8 		movq	-24(%rbp), %rax
 2884 1cc6 488B00   		movq	(%rax), %rax
 2885 1cc9 488D5002 		leaq	2(%rax), %rdx
 2886 1ccd 488B45E8 		movq	-24(%rbp), %rax
 2887 1cd1 488910   		movq	%rdx, (%rax)
 2888              	.L107:
 555:testSvf2Csvf.cpp **** 		sprintf(p, "%02X", *src & 0xFF);
 2889              		.loc 3 555 0 discriminator 1
 2890 1cd4 8B45F4   		movl	-12(%rbp), %eax
 2891 1cd7 8D50FF   		leal	-1(%rax), %edx
 2892 1cda 8955F4   		movl	%edx, -12(%rbp)
 2893 1cdd 85C0     		testl	%eax, %eax
 2894 1cdf 0F95C0   		setne	%al
 2895 1ce2 84C0     		testb	%al, %al
 2896 1ce4 75B1     		jne	.L108
 559:testSvf2Csvf.cpp **** 	}
 560:testSvf2Csvf.cpp **** 	*p++ = '}';
 2897              		.loc 3 560 0
 2898 1ce6 488B45E8 		movq	-24(%rbp), %rax
 2899 1cea 488B00   		movq	(%rax), %rax
 2900 1ced 488D4801 		leaq	1(%rax), %rcx
 2901 1cf1 488B55E8 		movq	-24(%rbp), %rdx
 2902 1cf5 48890A   		movq	%rcx, (%rdx)
 2903 1cf8 C6007D   		movb	$125, (%rax)
 2904              	.LBE14:
 561:testSvf2Csvf.cpp **** }
 2905              		.loc 3 561 0
 2906 1cfb C9       		leave
 2907              		.cfi_def_cfa 7, 8
 2908 1cfc C3       		ret
 2909              		.cfi_endproc
 2910              	.LFE1034:
 2912              		.section	.rodata
 2913              	.LC114:
 2914 0679 25642C20 		.string	"%d, "
 2914      00
 2915              		.text
 2916              		.globl	_Z14renderBitStoreRPcPK8BitStore
 2918              	_Z14renderBitStoreRPcPK8BitStore:
 2919              	.LFB1035:
 562:testSvf2Csvf.cpp **** 
 563:testSvf2Csvf.cpp **** void renderBitStore(char *&p, const BitStore *store) {
 2920              		.loc 3 563 0
 2921              		.cfi_startproc
 2922 1cfd 55       		pushq	%rbp
 2923              		.cfi_def_cfa_offset 16
 2924              		.cfi_offset 6, -16
 2925 1cfe 4889E5   		movq	%rsp, %rbp
 2926              		.cfi_def_cfa_register 6
 2927 1d01 53       		pushq	%rbx
 2928 1d02 4883EC18 		subq	$24, %rsp
 2929              		.cfi_offset 3, -24
 2930 1d06 48897DE8 		movq	%rdi, -24(%rbp)
 2931 1d0a 488975E0 		movq	%rsi, -32(%rbp)
 564:testSvf2Csvf.cpp **** 	sprintf(p, "%d, ", store->numBits);
 2932              		.loc 3 564 0
 2933 1d0e 488B45E0 		movq	-32(%rbp), %rax
 2934 1d12 8B10     		movl	(%rax), %edx
 2935 1d14 488B45E8 		movq	-24(%rbp), %rax
 2936 1d18 488B00   		movq	(%rax), %rax
 2937 1d1b BE000000 		movl	$.LC114, %esi
 2937      00
 2938 1d20 4889C7   		movq	%rax, %rdi
 2939 1d23 B8000000 		movl	$0, %eax
 2939      00
 2940 1d28 E8000000 		call	sprintf
 2940      00
 565:testSvf2Csvf.cpp **** 	p += strlen(p);
 2941              		.loc 3 565 0
 2942 1d2d 488B45E8 		movq	-24(%rbp), %rax
 2943 1d31 488B18   		movq	(%rax), %rbx
 2944 1d34 488B45E8 		movq	-24(%rbp), %rax
 2945 1d38 488B00   		movq	(%rax), %rax
 2946 1d3b 4889C7   		movq	%rax, %rdi
 2947 1d3e E8000000 		call	strlen
 2947      00
 2948 1d43 488D1403 		leaq	(%rbx,%rax), %rdx
 2949 1d47 488B45E8 		movq	-24(%rbp), %rax
 2950 1d4b 488910   		movq	%rdx, (%rax)
 566:testSvf2Csvf.cpp **** 	renderBuffer(p, &store->tdi);
 2951              		.loc 3 566 0
 2952 1d4e 488B45E0 		movq	-32(%rbp), %rax
 2953 1d52 488D5008 		leaq	8(%rax), %rdx
 2954 1d56 488B45E8 		movq	-24(%rbp), %rax
 2955 1d5a 4889D6   		movq	%rdx, %rsi
 2956 1d5d 4889C7   		movq	%rax, %rdi
 2957 1d60 E8000000 		call	_Z12renderBufferRPcPK6Buffer
 2957      00
 567:testSvf2Csvf.cpp **** 	*p++ = ','; *p++ = ' ';
 2958              		.loc 3 567 0
 2959 1d65 488B45E8 		movq	-24(%rbp), %rax
 2960 1d69 488B00   		movq	(%rax), %rax
 2961 1d6c 488D4801 		leaq	1(%rax), %rcx
 2962 1d70 488B55E8 		movq	-24(%rbp), %rdx
 2963 1d74 48890A   		movq	%rcx, (%rdx)
 2964 1d77 C6002C   		movb	$44, (%rax)
 2965 1d7a 488B45E8 		movq	-24(%rbp), %rax
 2966 1d7e 488B00   		movq	(%rax), %rax
 2967 1d81 488D4801 		leaq	1(%rax), %rcx
 2968 1d85 488B55E8 		movq	-24(%rbp), %rdx
 2969 1d89 48890A   		movq	%rcx, (%rdx)
 2970 1d8c C60020   		movb	$32, (%rax)
 568:testSvf2Csvf.cpp **** 	renderBuffer(p, &store->tdo);
 2971              		.loc 3 568 0
 2972 1d8f 488B45E0 		movq	-32(%rbp), %rax
 2973 1d93 488D5028 		leaq	40(%rax), %rdx
 2974 1d97 488B45E8 		movq	-24(%rbp), %rax
 2975 1d9b 4889D6   		movq	%rdx, %rsi
 2976 1d9e 4889C7   		movq	%rax, %rdi
 2977 1da1 E8000000 		call	_Z12renderBufferRPcPK6Buffer
 2977      00
 569:testSvf2Csvf.cpp **** 	*p++ = ','; *p++ = ' ';
 2978              		.loc 3 569 0
 2979 1da6 488B45E8 		movq	-24(%rbp), %rax
 2980 1daa 488B00   		movq	(%rax), %rax
 2981 1dad 488D4801 		leaq	1(%rax), %rcx
 2982 1db1 488B55E8 		movq	-24(%rbp), %rdx
 2983 1db5 48890A   		movq	%rcx, (%rdx)
 2984 1db8 C6002C   		movb	$44, (%rax)
 2985 1dbb 488B45E8 		movq	-24(%rbp), %rax
 2986 1dbf 488B00   		movq	(%rax), %rax
 2987 1dc2 488D4801 		leaq	1(%rax), %rcx
 2988 1dc6 488B55E8 		movq	-24(%rbp), %rdx
 2989 1dca 48890A   		movq	%rcx, (%rdx)
 2990 1dcd C60020   		movb	$32, (%rax)
 570:testSvf2Csvf.cpp **** 	renderBuffer(p, &store->mask);
 2991              		.loc 3 570 0
 2992 1dd0 488B45E0 		movq	-32(%rbp), %rax
 2993 1dd4 488D5048 		leaq	72(%rax), %rdx
 2994 1dd8 488B45E8 		movq	-24(%rbp), %rax
 2995 1ddc 4889D6   		movq	%rdx, %rsi
 2996 1ddf 4889C7   		movq	%rax, %rdi
 2997 1de2 E8000000 		call	_Z12renderBufferRPcPK6Buffer
 2997      00
 571:testSvf2Csvf.cpp **** }
 2998              		.loc 3 571 0
 2999 1de7 4883C418 		addq	$24, %rsp
 3000 1deb 5B       		popq	%rbx
 3001 1dec 5D       		popq	%rbp
 3002              		.cfi_def_cfa 7, 8
 3003 1ded C3       		ret
 3004              		.cfi_endproc
 3005              	.LFE1035:
 3007              		.globl	_Z9renderCxtPK12ParseContext
 3009              	_Z9renderCxtPK12ParseContext:
 3010              	.LFB1036:
 572:testSvf2Csvf.cpp **** 
 573:testSvf2Csvf.cpp **** const char *renderCxt(const ParseContext *cxt) {
 3011              		.loc 3 573 0
 3012              		.cfi_startproc
 3013 1dee 55       		pushq	%rbp
 3014              		.cfi_def_cfa_offset 16
 3015              		.cfi_offset 6, -16
 3016 1def 4889E5   		movq	%rsp, %rbp
 3017              		.cfi_def_cfa_register 6
 3018 1df2 4883EC20 		subq	$32, %rsp
 3019 1df6 48897DE8 		movq	%rdi, -24(%rbp)
 3020              	.LBB15:
 574:testSvf2Csvf.cpp **** 	static char result[1024];
 575:testSvf2Csvf.cpp **** 	char *p = result;
 3021              		.loc 3 575 0
 3022 1dfa 48C745F8 		movq	$_ZZ9renderCxtPK12ParseContextE6result, -8(%rbp)
 3022      00000000 
 576:testSvf2Csvf.cpp **** 
 577:testSvf2Csvf.cpp **** 	renderBitStore(p, &cxt->dataHead);
 3023              		.loc 3 577 0
 3024 1e02 488B55E8 		movq	-24(%rbp), %rdx
 3025 1e06 488D45F8 		leaq	-8(%rbp), %rax
 3026 1e0a 4889D6   		movq	%rdx, %rsi
 3027 1e0d 4889C7   		movq	%rax, %rdi
 3028 1e10 E8000000 		call	_Z14renderBitStoreRPcPK8BitStore
 3028      00
 578:testSvf2Csvf.cpp **** 	*p++ = ','; *p++ = ' ';
 3029              		.loc 3 578 0
 3030 1e15 488B45F8 		movq	-8(%rbp), %rax
 3031 1e19 488D5001 		leaq	1(%rax), %rdx
 3032 1e1d 488955F8 		movq	%rdx, -8(%rbp)
 3033 1e21 C6002C   		movb	$44, (%rax)
 3034 1e24 488B45F8 		movq	-8(%rbp), %rax
 3035 1e28 488D5001 		leaq	1(%rax), %rdx
 3036 1e2c 488955F8 		movq	%rdx, -8(%rbp)
 3037 1e30 C60020   		movb	$32, (%rax)
 579:testSvf2Csvf.cpp **** 	renderBitStore(p, &cxt->insnHead);
 3038              		.loc 3 579 0
 3039 1e33 488B45E8 		movq	-24(%rbp), %rax
 3040 1e37 488D5068 		leaq	104(%rax), %rdx
 3041 1e3b 488D45F8 		leaq	-8(%rbp), %rax
 3042 1e3f 4889D6   		movq	%rdx, %rsi
 3043 1e42 4889C7   		movq	%rax, %rdi
 3044 1e45 E8000000 		call	_Z14renderBitStoreRPcPK8BitStore
 3044      00
 580:testSvf2Csvf.cpp **** 	*p++ = ','; *p++ = ' ';
 3045              		.loc 3 580 0
 3046 1e4a 488B45F8 		movq	-8(%rbp), %rax
 3047 1e4e 488D5001 		leaq	1(%rax), %rdx
 3048 1e52 488955F8 		movq	%rdx, -8(%rbp)
 3049 1e56 C6002C   		movb	$44, (%rax)
 3050 1e59 488B45F8 		movq	-8(%rbp), %rax
 3051 1e5d 488D5001 		leaq	1(%rax), %rdx
 3052 1e61 488955F8 		movq	%rdx, -8(%rbp)
 3053 1e65 C60020   		movb	$32, (%rax)
 581:testSvf2Csvf.cpp **** 
 582:testSvf2Csvf.cpp **** 	renderBitStore(p, &cxt->dataBody);
 3054              		.loc 3 582 0
 3055 1e68 488B45E8 		movq	-24(%rbp), %rax
 3056 1e6c 488D90D0 		leaq	208(%rax), %rdx
 3056      000000
 3057 1e73 488D45F8 		leaq	-8(%rbp), %rax
 3058 1e77 4889D6   		movq	%rdx, %rsi
 3059 1e7a 4889C7   		movq	%rax, %rdi
 3060 1e7d E8000000 		call	_Z14renderBitStoreRPcPK8BitStore
 3060      00
 583:testSvf2Csvf.cpp **** 	*p++ = ','; *p++ = ' ';
 3061              		.loc 3 583 0
 3062 1e82 488B45F8 		movq	-8(%rbp), %rax
 3063 1e86 488D5001 		leaq	1(%rax), %rdx
 3064 1e8a 488955F8 		movq	%rdx, -8(%rbp)
 3065 1e8e C6002C   		movb	$44, (%rax)
 3066 1e91 488B45F8 		movq	-8(%rbp), %rax
 3067 1e95 488D5001 		leaq	1(%rax), %rdx
 3068 1e99 488955F8 		movq	%rdx, -8(%rbp)
 3069 1e9d C60020   		movb	$32, (%rax)
 584:testSvf2Csvf.cpp **** 	renderBitStore(p, &cxt->insnBody);
 3070              		.loc 3 584 0
 3071 1ea0 488B45E8 		movq	-24(%rbp), %rax
 3072 1ea4 488D9038 		leaq	312(%rax), %rdx
 3072      010000
 3073 1eab 488D45F8 		leaq	-8(%rbp), %rax
 3074 1eaf 4889D6   		movq	%rdx, %rsi
 3075 1eb2 4889C7   		movq	%rax, %rdi
 3076 1eb5 E8000000 		call	_Z14renderBitStoreRPcPK8BitStore
 3076      00
 585:testSvf2Csvf.cpp **** 	*p++ = ','; *p++ = ' ';
 3077              		.loc 3 585 0
 3078 1eba 488B45F8 		movq	-8(%rbp), %rax
 3079 1ebe 488D5001 		leaq	1(%rax), %rdx
 3080 1ec2 488955F8 		movq	%rdx, -8(%rbp)
 3081 1ec6 C6002C   		movb	$44, (%rax)
 3082 1ec9 488B45F8 		movq	-8(%rbp), %rax
 3083 1ecd 488D5001 		leaq	1(%rax), %rdx
 3084 1ed1 488955F8 		movq	%rdx, -8(%rbp)
 3085 1ed5 C60020   		movb	$32, (%rax)
 586:testSvf2Csvf.cpp **** 
 587:testSvf2Csvf.cpp **** 	renderBitStore(p, &cxt->dataTail);
 3086              		.loc 3 587 0
 3087 1ed8 488B45E8 		movq	-24(%rbp), %rax
 3088 1edc 488D90A0 		leaq	416(%rax), %rdx
 3088      010000
 3089 1ee3 488D45F8 		leaq	-8(%rbp), %rax
 3090 1ee7 4889D6   		movq	%rdx, %rsi
 3091 1eea 4889C7   		movq	%rax, %rdi
 3092 1eed E8000000 		call	_Z14renderBitStoreRPcPK8BitStore
 3092      00
 588:testSvf2Csvf.cpp **** 	*p++ = ','; *p++ = ' ';
 3093              		.loc 3 588 0
 3094 1ef2 488B45F8 		movq	-8(%rbp), %rax
 3095 1ef6 488D5001 		leaq	1(%rax), %rdx
 3096 1efa 488955F8 		movq	%rdx, -8(%rbp)
 3097 1efe C6002C   		movb	$44, (%rax)
 3098 1f01 488B45F8 		movq	-8(%rbp), %rax
 3099 1f05 488D5001 		leaq	1(%rax), %rdx
 3100 1f09 488955F8 		movq	%rdx, -8(%rbp)
 3101 1f0d C60020   		movb	$32, (%rax)
 589:testSvf2Csvf.cpp **** 	renderBitStore(p, &cxt->insnTail);
 3102              		.loc 3 589 0
 3103 1f10 488B45E8 		movq	-24(%rbp), %rax
 3104 1f14 488D9008 		leaq	520(%rax), %rdx
 3104      020000
 3105 1f1b 488D45F8 		leaq	-8(%rbp), %rax
 3106 1f1f 4889D6   		movq	%rdx, %rsi
 3107 1f22 4889C7   		movq	%rax, %rdi
 3108 1f25 E8000000 		call	_Z14renderBitStoreRPcPK8BitStore
 3108      00
 590:testSvf2Csvf.cpp **** 	
 591:testSvf2Csvf.cpp **** 	*p = '\0';
 3109              		.loc 3 591 0
 3110 1f2a 488B45F8 		movq	-8(%rbp), %rax
 3111 1f2e C60000   		movb	$0, (%rax)
 592:testSvf2Csvf.cpp **** 
 593:testSvf2Csvf.cpp **** 	return result;
 3112              		.loc 3 593 0
 3113 1f31 B8000000 		movl	$_ZZ9renderCxtPK12ParseContextE6result, %eax
 3113      00
 3114              	.LBE15:
 594:testSvf2Csvf.cpp **** }
 3115              		.loc 3 594 0
 3116 1f36 C9       		leave
 3117              		.cfi_def_cfa 7, 8
 3118 1f37 C3       		ret
 3119              		.cfi_endproc
 3120              	.LFE1036:
 3122              		.section	.rodata
 3123              	.LC115:
 3124 067e 46504741 		.string	"FPGALink_testParse"
 3124      4C696E6B 
 3124      5F746573 
 3124      74506172 
 3124      736500
 3125              		.section	.text._ZN22TestFPGALink_testParseC2Ev,"axG",@progbits,_ZN22TestFPGALink_testParseC5Ev,com
 3126              		.align 2
 3127              		.weak	_ZN22TestFPGALink_testParseC2Ev
 3129              	_ZN22TestFPGALink_testParseC2Ev:
 3130              	.LFB1038:
 595:testSvf2Csvf.cpp **** 
 596:testSvf2Csvf.cpp **** TEST(FPGALink_testParse) {
 3131              		.loc 3 596 0
 3132              		.cfi_startproc
 3133 0000 55       		pushq	%rbp
 3134              		.cfi_def_cfa_offset 16
 3135              		.cfi_offset 6, -16
 3136 0001 4889E5   		movq	%rsp, %rbp
 3137              		.cfi_def_cfa_register 6
 3138 0004 4883EC10 		subq	$16, %rsp
 3139 0008 48897DF8 		movq	%rdi, -8(%rbp)
 3140              	.LBB16:
 3141              		.loc 3 596 0
 3142 000c E8000000 		call	_ZN13UnitTestSuite12GetSuiteNameEv
 3142      00
 3143 0011 4889C2   		movq	%rax, %rdx
 3144 0014 488B45F8 		movq	-8(%rbp), %rax
 3145 0018 41B85402 		movl	$596, %r8d
 3145      0000
 3146 001e B9000000 		movl	$.LC5, %ecx
 3146      00
 3147 0023 BE000000 		movl	$.LC115, %esi
 3147      00
 3148 0028 4889C7   		movq	%rax, %rdi
 3149 002b E8000000 		call	_ZN8UnitTest4TestC2EPKcS2_S2_i
 3149      00
 3150 0030 488B45F8 		movq	-8(%rbp), %rax
 3151 0034 48C70000 		movq	$_ZTV22TestFPGALink_testParse+16, (%rax)
 3151      000000
 3152              	.LBE16:
 3153 003b C9       		leave
 3154              		.cfi_def_cfa 7, 8
 3155 003c C3       		ret
 3156              		.cfi_endproc
 3157              	.LFE1038:
 3159              		.weak	_ZN22TestFPGALink_testParseC1Ev
 3160              		.set	_ZN22TestFPGALink_testParseC1Ev,_ZN22TestFPGALink_testParseC2Ev
 3161              		.globl	testFPGALink_testParseInstance
 3162              		.bss
 3163 0079 00000000 		.align 32
 3163      000000
 3166              	testFPGALink_testParseInstance:
 3167 0080 00000000 		.zero	56
 3167      00000000 
 3167      00000000 
 3167      00000000 
 3167      00000000 
 3168              		.globl	adderFPGALink_testParse
 3171              	adderFPGALink_testParse:
 3172 00b8 00       		.zero	1
 3173              		.section	.rodata
 3174              	.LC116:
 3175 0691 48445220 		.string	"HDR 8 TDI (aa)"
 3175      38205444 
 3175      49202861 
 3175      612900
 3176              		.align 8
 3177              	.LC117:
 3178 06a0 382C207B 		.string	"8, {AA}, {00}, {FF}, 0, {}, {}, {}, 0, {}, {}, {}, 0, {}, {}, {}, 0, {}, {}, {}, 0, {}, {
 3178      41417D2C 
 3178      207B3030 
 3178      7D2C207B 
 3178      46467D2C 
 3179              	.LC118:
 3180 06ff 48445220 		.string	"HDR 8 MASK (55)"
 3180      38204D41 
 3180      534B2028 
 3180      35352900 
 3181 070f 00       		.align 8
 3182              	.LC119:
 3183 0710 382C207B 		.string	"8, {AA}, {00}, {55}, 0, {}, {}, {}, 0, {}, {}, {}, 0, {}, {}, {}, 0, {}, {}, {}, 0, {}, {
 3183      41417D2C 
 3183      207B3030 
 3183      7D2C207B 
 3183      35357D2C 
 3184              	.LC120:
 3185 076f 48445220 		.string	"HDR 6 TDI (3A)"
 3185      36205444 
 3185      49202833 
 3185      412900
 3186 077e 0000     		.align 8
 3187              	.LC121:
 3188 0780 362C207B 		.string	"6, {3A}, {00}, {FF}, 0, {}, {}, {}, 0, {}, {}, {}, 0, {}, {}, {}, 0, {}, {}, {}, 0, {}, {
 3188      33417D2C 
 3188      207B3030 
 3188      7D2C207B 
 3188      46467D2C 
 3189 07df 00       		.align 8
 3190              	.LC122:
 3191 07e0 556E6861 		.string	"Unhandled exception in CHECK_EQUAL(\"8, {AA}, {00}, {FF}, \" \"0, {}, {}, {}, \" \"0, {},
 3191      6E646C65 
 3191      64206578 
 3191      63657074 
 3191      696F6E20 
 3192 0885 000000   		.align 8
 3193              	.LC123:
 3194 0888 556E6861 		.string	"Unhandled exception in CHECK_EQUAL(\"8, {AA}, {00}, {55}, \" \"0, {}, {}, {}, \" \"0, {},
 3194      6E646C65 
 3194      64206578 
 3194      63657074 
 3194      696F6E20 
 3195 092d 000000   		.align 8
 3196              	.LC124:
 3197 0930 556E6861 		.string	"Unhandled exception in CHECK_EQUAL(\"6, {3A}, {00}, {FF}, \" \"0, {}, {}, {}, \" \"0, {},
 3197      6E646C65 
 3197      64206578 
 3197      63657074 
 3197      696F6E20 
 3198              		.text
 3199              		.align 2
 3200              		.globl	_ZNK22TestFPGALink_testParse7RunImplEv
 3202              	_ZNK22TestFPGALink_testParse7RunImplEv:
 3203              	.LFB1040:
 3204              		.loc 3 596 0
 3205              		.cfi_startproc
 3206              		.cfi_personality 0x3,__gxx_personality_v0
 3207              		.cfi_lsda 0x3,.LLSDA1040
 3208 1f38 55       		pushq	%rbp
 3209              		.cfi_def_cfa_offset 16
 3210              		.cfi_offset 6, -16
 3211 1f39 4889E5   		movq	%rsp, %rbp
 3212              		.cfi_def_cfa_register 6
 3213 1f3c 53       		pushq	%rbx
 3214 1f3d 4881EC18 		subq	$792, %rsp
 3214      030000
 3215              		.cfi_offset 3, -24
 3216 1f44 4889BDE8 		movq	%rdi, -792(%rbp)
 3216      FCFFFF
 3217              	.LBB17:
 597:testSvf2Csvf.cpp **** 	FLStatus fStatus;
 598:testSvf2Csvf.cpp **** 	struct ParseContext cxt;
 599:testSvf2Csvf.cpp **** 	struct Buffer csvfBuf;
 600:testSvf2Csvf.cpp **** 	BufferStatus bStatus;
 601:testSvf2Csvf.cpp **** 	bStatus = bufInitialise(&csvfBuf, 1024, 0x00, NULL);
 3218              		.loc 3 601 0
 3219 1f4b 488D8500 		leaq	-768(%rbp), %rax
 3219      FDFFFF
 3220 1f52 B9000000 		movl	$0, %ecx
 3220      00
 3221 1f57 BA000000 		movl	$0, %edx
 3221      00
 3222 1f5c BE000400 		movl	$1024, %esi
 3222      00
 3223 1f61 4889C7   		movq	%rax, %rdi
 3224              	.LEHB83:
 3225 1f64 E8000000 		call	bufInitialise
 3225      00
 3226              	.LEHE83:
 3227 1f69 8985F8FC 		movl	%eax, -776(%rbp)
 3227      FFFF
 3228              	.LEHB84:
 602:testSvf2Csvf.cpp **** 	CHECK_EQUAL(BUF_SUCCESS, bStatus);
 3229              		.loc 3 602 0
 3230 1f6f E8000000 		call	_ZN8UnitTest11CurrentTest7DetailsEv
 3230      00
 3231 1f74 488B08   		movq	(%rax), %rcx
 3232 1f77 488D8540 		leaq	-704(%rbp), %rax
 3232      FDFFFF
 3233 1f7e BA5A0200 		movl	$602, %edx
 3233      00
 3234 1f83 4889CE   		movq	%rcx, %rsi
 3235 1f86 4889C7   		movq	%rax, %rdi
 3236 1f89 E8000000 		call	_ZN8UnitTest11TestDetailsC1ERKS0_i
 3236      00
 3237              		.loc 3 602 0 is_stmt 0 discriminator 1
 3238 1f8e C78520FD 		movl	$0, -736(%rbp)
 3238      FFFF0000 
 3238      0000
 3239 1f98 E8000000 		call	_ZN8UnitTest11CurrentTest7ResultsEv
 3239      00
 3240 1f9d 488B00   		movq	(%rax), %rax
 3241 1fa0 488D8D40 		leaq	-704(%rbp), %rcx
 3241      FDFFFF
 3242 1fa7 488D95F8 		leaq	-776(%rbp), %rdx
 3242      FCFFFF
 3243 1fae 488DB520 		leaq	-736(%rbp), %rsi
 3243      FDFFFF
 3244 1fb5 4889C7   		movq	%rax, %rdi
 3245 1fb8 E8000000 		call	_ZN8UnitTest10CheckEqualI12BufferStatusS1_EEvRNS_11TestResultsERKT_RKT0_RKNS_11TestDetailsE
 3245      00
 3246              	.LEHE84:
 3247              	.L116:
 603:testSvf2Csvf.cpp **** 	fStatus = cxtInitialise(&cxt, NULL);
 3248              		.loc 3 603 0 is_stmt 1
 3249 1fbd 488D8540 		leaq	-704(%rbp), %rax
 3249      FDFFFF
 3250 1fc4 BE000000 		movl	$0, %esi
 3250      00
 3251 1fc9 4889C7   		movq	%rax, %rdi
 3252              	.LEHB85:
 3253 1fcc E8000000 		call	cxtInitialise
 3253      00
 3254              	.LEHE85:
 3255 1fd1 8985F4FC 		movl	%eax, -780(%rbp)
 3255      FFFF
 3256              	.LEHB86:
 604:testSvf2Csvf.cpp **** 	CHECK_EQUAL(FL_SUCCESS, fStatus);
 3257              		.loc 3 604 0
 3258 1fd7 E8000000 		call	_ZN8UnitTest11CurrentTest7DetailsEv
 3258      00
 3259 1fdc 488B08   		movq	(%rax), %rcx
 3260 1fdf 488D8520 		leaq	-736(%rbp), %rax
 3260      FDFFFF
 3261 1fe6 BA5C0200 		movl	$604, %edx
 3261      00
 3262 1feb 4889CE   		movq	%rcx, %rsi
 3263 1fee 4889C7   		movq	%rax, %rdi
 3264 1ff1 E8000000 		call	_ZN8UnitTest11TestDetailsC1ERKS0_i
 3264      00
 3265              		.loc 3 604 0 is_stmt 0 discriminator 1
 3266 1ff6 C785FCFC 		movl	$0, -772(%rbp)
 3266      FFFF0000 
 3266      0000
 3267 2000 E8000000 		call	_ZN8UnitTest11CurrentTest7ResultsEv
 3267      00
 3268 2005 488B00   		movq	(%rax), %rax
 3269 2008 488D8D20 		leaq	-736(%rbp), %rcx
 3269      FDFFFF
 3270 200f 488D95F4 		leaq	-780(%rbp), %rdx
 3270      FCFFFF
 3271 2016 488DB5FC 		leaq	-772(%rbp), %rsi
 3271      FCFFFF
 3272 201d 4889C7   		movq	%rax, %rdi
 3273 2020 E8000000 		call	_ZN8UnitTest10CheckEqualI8FLStatusS1_EEvRNS_11TestResultsERKT_RKT0_RKNS_11TestDetailsE
 3273      00
 3274              	.LEHE86:
 3275              	.L119:
 605:testSvf2Csvf.cpp **** 
 606:testSvf2Csvf.cpp **** 	// HDR, HIR, SDR, SIR, TDR, TIR
 607:testSvf2Csvf.cpp **** 	parseString(&cxt, "HDR 8 TDI (aa)", &csvfBuf);
 3276              		.loc 3 607 0 is_stmt 1
 3277 2025 488D9500 		leaq	-768(%rbp), %rdx
 3277      FDFFFF
 3278 202c 488D8540 		leaq	-704(%rbp), %rax
 3278      FDFFFF
 3279 2033 BE000000 		movl	$.LC116, %esi
 3279      00
 3280 2038 4889C7   		movq	%rax, %rdi
 3281              	.LEHB87:
 3282 203b E8000000 		call	_Z11parseStringP12ParseContextPKcP6Buffer
 3282      00
 3283              	.LEHE87:
 3284              	.LEHB88:
 608:testSvf2Csvf.cpp **** 	CHECK_EQUAL(
 3285              		.loc 3 608 0
 3286 2040 E8000000 		call	_ZN8UnitTest11CurrentTest7DetailsEv
 3286      00
 3287 2045 488B08   		movq	(%rax), %rcx
 3288 2048 488D8520 		leaq	-736(%rbp), %rax
 3288      FDFFFF
 3289 204f BA670200 		movl	$615, %edx
 3289      00
 3290 2054 4889CE   		movq	%rcx, %rsi
 3291 2057 4889C7   		movq	%rax, %rdi
 3292 205a E8000000 		call	_ZN8UnitTest11TestDetailsC1ERKS0_i
 3292      00
 3293              		.loc 3 608 0 is_stmt 0 discriminator 1
 3294 205f 488D8540 		leaq	-704(%rbp), %rax
 3294      FDFFFF
 3295 2066 4889C7   		movq	%rax, %rdi
 3296 2069 E8000000 		call	_Z9renderCxtPK12ParseContext
 3296      00
 3297 206e 4889C3   		movq	%rax, %rbx
 3298 2071 E8000000 		call	_ZN8UnitTest11CurrentTest7ResultsEv
 3298      00
 3299 2076 488B00   		movq	(%rax), %rax
 3300 2079 488D9520 		leaq	-736(%rbp), %rdx
 3300      FDFFFF
 3301 2080 4889D1   		movq	%rdx, %rcx
 3302 2083 4889DA   		movq	%rbx, %rdx
 3303 2086 BE000000 		movl	$.LC117, %esi
 3303      00
 3304 208b 4889C7   		movq	%rax, %rdi
 3305 208e E8000000 		call	_ZN8UnitTest10CheckEqualERNS_11TestResultsEPKcS3_RKNS_11TestDetailsE
 3305      00
 3306              	.LEHE88:
 3307              	.L122:
 609:testSvf2Csvf.cpp **** 		"8, {AA}, {00}, {FF}, "    // HDR
 610:testSvf2Csvf.cpp **** 		"0, {}, {}, {}, "          // HIR
 611:testSvf2Csvf.cpp **** 		"0, {}, {}, {}, "          // SDR
 612:testSvf2Csvf.cpp **** 		"0, {}, {}, {}, "          // SIR
 613:testSvf2Csvf.cpp **** 		"0, {}, {}, {}, "          // TDR
 614:testSvf2Csvf.cpp **** 		"0, {}, {}, {}",           // TIR
 615:testSvf2Csvf.cpp **** 		renderCxt(&cxt));
 616:testSvf2Csvf.cpp **** 
 617:testSvf2Csvf.cpp **** 	// HDR, HIR, SDR, SIR, TDR, TIR
 618:testSvf2Csvf.cpp **** 	parseString(&cxt, "HDR 8 MASK (55)", &csvfBuf);
 3308              		.loc 3 618 0 is_stmt 1
 3309 2093 488D9500 		leaq	-768(%rbp), %rdx
 3309      FDFFFF
 3310 209a 488D8540 		leaq	-704(%rbp), %rax
 3310      FDFFFF
 3311 20a1 BE000000 		movl	$.LC118, %esi
 3311      00
 3312 20a6 4889C7   		movq	%rax, %rdi
 3313              	.LEHB89:
 3314 20a9 E8000000 		call	_Z11parseStringP12ParseContextPKcP6Buffer
 3314      00
 3315              	.LEHE89:
 3316              	.LEHB90:
 619:testSvf2Csvf.cpp **** 	CHECK_EQUAL(
 3317              		.loc 3 619 0
 3318 20ae E8000000 		call	_ZN8UnitTest11CurrentTest7DetailsEv
 3318      00
 3319 20b3 488B08   		movq	(%rax), %rcx
 3320 20b6 488D8520 		leaq	-736(%rbp), %rax
 3320      FDFFFF
 3321 20bd BA720200 		movl	$626, %edx
 3321      00
 3322 20c2 4889CE   		movq	%rcx, %rsi
 3323 20c5 4889C7   		movq	%rax, %rdi
 3324 20c8 E8000000 		call	_ZN8UnitTest11TestDetailsC1ERKS0_i
 3324      00
 3325              		.loc 3 619 0 is_stmt 0 discriminator 1
 3326 20cd 488D8540 		leaq	-704(%rbp), %rax
 3326      FDFFFF
 3327 20d4 4889C7   		movq	%rax, %rdi
 3328 20d7 E8000000 		call	_Z9renderCxtPK12ParseContext
 3328      00
 3329 20dc 4889C3   		movq	%rax, %rbx
 3330 20df E8000000 		call	_ZN8UnitTest11CurrentTest7ResultsEv
 3330      00
 3331 20e4 488B00   		movq	(%rax), %rax
 3332 20e7 488D9520 		leaq	-736(%rbp), %rdx
 3332      FDFFFF
 3333 20ee 4889D1   		movq	%rdx, %rcx
 3334 20f1 4889DA   		movq	%rbx, %rdx
 3335 20f4 BE000000 		movl	$.LC119, %esi
 3335      00
 3336 20f9 4889C7   		movq	%rax, %rdi
 3337 20fc E8000000 		call	_ZN8UnitTest10CheckEqualERNS_11TestResultsEPKcS3_RKNS_11TestDetailsE
 3337      00
 3338              	.LEHE90:
 3339              	.L125:
 620:testSvf2Csvf.cpp **** 		"8, {AA}, {00}, {55}, "    // HDR
 621:testSvf2Csvf.cpp **** 		"0, {}, {}, {}, "          // HIR
 622:testSvf2Csvf.cpp **** 		"0, {}, {}, {}, "          // SDR
 623:testSvf2Csvf.cpp **** 		"0, {}, {}, {}, "          // SIR
 624:testSvf2Csvf.cpp **** 		"0, {}, {}, {}, "          // TDR
 625:testSvf2Csvf.cpp **** 		"0, {}, {}, {}",           // TIR
 626:testSvf2Csvf.cpp **** 		renderCxt(&cxt));
 627:testSvf2Csvf.cpp **** 
 628:testSvf2Csvf.cpp **** 	// HDR, HIR, SDR, SIR, TDR, TIR
 629:testSvf2Csvf.cpp **** 	parseString(&cxt, "HDR 6 TDI (3A)", &csvfBuf);
 3340              		.loc 3 629 0 is_stmt 1
 3341 2101 488D9500 		leaq	-768(%rbp), %rdx
 3341      FDFFFF
 3342 2108 488D8540 		leaq	-704(%rbp), %rax
 3342      FDFFFF
 3343 210f BE000000 		movl	$.LC120, %esi
 3343      00
 3344 2114 4889C7   		movq	%rax, %rdi
 3345              	.LEHB91:
 3346 2117 E8000000 		call	_Z11parseStringP12ParseContextPKcP6Buffer
 3346      00
 3347              	.LEHE91:
 3348              	.LEHB92:
 630:testSvf2Csvf.cpp **** 	CHECK_EQUAL(
 3349              		.loc 3 630 0
 3350 211c E8000000 		call	_ZN8UnitTest11CurrentTest7DetailsEv
 3350      00
 3351 2121 488B08   		movq	(%rax), %rcx
 3352 2124 488D8520 		leaq	-736(%rbp), %rax
 3352      FDFFFF
 3353 212b BA7D0200 		movl	$637, %edx
 3353      00
 3354 2130 4889CE   		movq	%rcx, %rsi
 3355 2133 4889C7   		movq	%rax, %rdi
 3356 2136 E8000000 		call	_ZN8UnitTest11TestDetailsC1ERKS0_i
 3356      00
 3357              		.loc 3 630 0 is_stmt 0 discriminator 1
 3358 213b 488D8540 		leaq	-704(%rbp), %rax
 3358      FDFFFF
 3359 2142 4889C7   		movq	%rax, %rdi
 3360 2145 E8000000 		call	_Z9renderCxtPK12ParseContext
 3360      00
 3361 214a 4889C3   		movq	%rax, %rbx
 3362 214d E8000000 		call	_ZN8UnitTest11CurrentTest7ResultsEv
 3362      00
 3363 2152 488B00   		movq	(%rax), %rax
 3364 2155 488D9520 		leaq	-736(%rbp), %rdx
 3364      FDFFFF
 3365 215c 4889D1   		movq	%rdx, %rcx
 3366 215f 4889DA   		movq	%rbx, %rdx
 3367 2162 BE000000 		movl	$.LC121, %esi
 3367      00
 3368 2167 4889C7   		movq	%rax, %rdi
 3369 216a E8000000 		call	_ZN8UnitTest10CheckEqualERNS_11TestResultsEPKcS3_RKNS_11TestDetailsE
 3369      00
 3370              	.LEHE92:
 3371              	.L128:
 631:testSvf2Csvf.cpp **** 		"6, {3A}, {00}, {FF}, "    // HDR
 632:testSvf2Csvf.cpp **** 		"0, {}, {}, {}, "          // HIR
 633:testSvf2Csvf.cpp **** 		"0, {}, {}, {}, "          // SDR
 634:testSvf2Csvf.cpp **** 		"0, {}, {}, {}, "          // SIR
 635:testSvf2Csvf.cpp **** 		"0, {}, {}, {}, "          // TDR
 636:testSvf2Csvf.cpp **** 		"0, {}, {}, {}",           // TIR
 637:testSvf2Csvf.cpp **** 		renderCxt(&cxt));
 638:testSvf2Csvf.cpp **** 
 639:testSvf2Csvf.cpp **** 	cxtDestroy(&cxt);
 3372              		.loc 3 639 0 is_stmt 1
 3373 216f 488D8540 		leaq	-704(%rbp), %rax
 3373      FDFFFF
 3374 2176 4889C7   		movq	%rax, %rdi
 3375              	.LEHB93:
 3376 2179 E8000000 		call	cxtDestroy
 3376      00
 640:testSvf2Csvf.cpp **** 	bufDestroy(&csvfBuf);
 3377              		.loc 3 640 0
 3378 217e 488D8500 		leaq	-768(%rbp), %rax
 3378      FDFFFF
 3379 2185 4889C7   		movq	%rax, %rdi
 3380 2188 E8000000 		call	bufDestroy
 3380      00
 3381              	.LEHE93:
 3382 218d E9EF0100 		jmp	.L139
 3382      00
 3383              	.L130:
 3384 2192 4889C3   		movq	%rax, %rbx
 602:testSvf2Csvf.cpp **** 	fStatus = cxtInitialise(&cxt, NULL);
 3385              		.loc 3 602 0
 3386 2195 E8000000 		call	__cxa_end_catch
 3386      00
 3387 219a 4889D8   		movq	%rbx, %rax
 3388 219d 4889C7   		movq	%rax, %rdi
 3389              	.LEHB94:
 3390 21a0 E8000000 		call	_Unwind_Resume
 3390      00
 3391              	.LEHE94:
 3392              	.L129:
 3393 21a5 4889C7   		movq	%rax, %rdi
 3394 21a8 E8000000 		call	__cxa_begin_catch
 3394      00
 3395              	.LEHB95:
 3396 21ad E8000000 		call	_ZN8UnitTest11CurrentTest7DetailsEv
 3396      00
 3397 21b2 488B08   		movq	(%rax), %rcx
 3398 21b5 488D8540 		leaq	-704(%rbp), %rax
 3398      FDFFFF
 3399 21bc BA5A0200 		movl	$602, %edx
 3399      00
 3400 21c1 4889CE   		movq	%rcx, %rsi
 3401 21c4 4889C7   		movq	%rax, %rdi
 3402 21c7 E8000000 		call	_ZN8UnitTest11TestDetailsC1ERKS0_i
 3402      00
 602:testSvf2Csvf.cpp **** 	fStatus = cxtInitialise(&cxt, NULL);
 3403              		.loc 3 602 0 is_stmt 0 discriminator 1
 3404 21cc E8000000 		call	_ZN8UnitTest11CurrentTest7ResultsEv
 3404      00
 3405 21d1 488B00   		movq	(%rax), %rax
 3406 21d4 488D8D40 		leaq	-704(%rbp), %rcx
 3406      FDFFFF
 3407 21db BA000000 		movl	$.LC13, %edx
 3407      00
 3408 21e0 4889CE   		movq	%rcx, %rsi
 3409 21e3 4889C7   		movq	%rax, %rdi
 3410 21e6 E8000000 		call	_ZN8UnitTest11TestResults13OnTestFailureERKNS_11TestDetailsEPKc
 3410      00
 3411              	.LEHE95:
 3412              	.LEHB96:
 3413 21eb E8000000 		call	__cxa_end_catch
 3413      00
 3414              	.LEHE96:
 3415 21f0 E9C8FDFF 		jmp	.L116
 3415      FF
 3416              	.L132:
 3417 21f5 4889C3   		movq	%rax, %rbx
 604:testSvf2Csvf.cpp **** 
 3418              		.loc 3 604 0 is_stmt 1
 3419 21f8 E8000000 		call	__cxa_end_catch
 3419      00
 3420 21fd 4889D8   		movq	%rbx, %rax
 3421 2200 4889C7   		movq	%rax, %rdi
 3422              	.LEHB97:
 3423 2203 E8000000 		call	_Unwind_Resume
 3423      00
 3424              	.LEHE97:
 3425              	.L131:
 3426 2208 4889C7   		movq	%rax, %rdi
 3427 220b E8000000 		call	__cxa_begin_catch
 3427      00
 3428              	.LEHB98:
 3429 2210 E8000000 		call	_ZN8UnitTest11CurrentTest7DetailsEv
 3429      00
 3430 2215 488B08   		movq	(%rax), %rcx
 3431 2218 488D8520 		leaq	-736(%rbp), %rax
 3431      FDFFFF
 3432 221f BA5C0200 		movl	$604, %edx
 3432      00
 3433 2224 4889CE   		movq	%rcx, %rsi
 3434 2227 4889C7   		movq	%rax, %rdi
 3435 222a E8000000 		call	_ZN8UnitTest11TestDetailsC1ERKS0_i
 3435      00
 604:testSvf2Csvf.cpp **** 
 3436              		.loc 3 604 0 is_stmt 0 discriminator 1
 3437 222f E8000000 		call	_ZN8UnitTest11CurrentTest7ResultsEv
 3437      00
 3438 2234 488B00   		movq	(%rax), %rax
 3439 2237 488D8D20 		leaq	-736(%rbp), %rcx
 3439      FDFFFF
 3440 223e BA000000 		movl	$.LC2, %edx
 3440      00
 3441 2243 4889CE   		movq	%rcx, %rsi
 3442 2246 4889C7   		movq	%rax, %rdi
 3443 2249 E8000000 		call	_ZN8UnitTest11TestResults13OnTestFailureERKNS_11TestDetailsEPKc
 3443      00
 3444              	.LEHE98:
 3445              	.LEHB99:
 3446 224e E8000000 		call	__cxa_end_catch
 3446      00
 3447              	.LEHE99:
 3448 2253 E9CDFDFF 		jmp	.L119
 3448      FF
 3449              	.L134:
 3450 2258 4889C3   		movq	%rax, %rbx
 608:testSvf2Csvf.cpp **** 		"8, {AA}, {00}, {FF}, "    // HDR
 3451              		.loc 3 608 0 is_stmt 1
 3452 225b E8000000 		call	__cxa_end_catch
 3452      00
 3453 2260 4889D8   		movq	%rbx, %rax
 3454 2263 4889C7   		movq	%rax, %rdi
 3455              	.LEHB100:
 3456 2266 E8000000 		call	_Unwind_Resume
 3456      00
 3457              	.LEHE100:
 3458              	.L133:
 3459 226b 4889C7   		movq	%rax, %rdi
 3460 226e E8000000 		call	__cxa_begin_catch
 3460      00
 3461              	.LEHB101:
 3462 2273 E8000000 		call	_ZN8UnitTest11CurrentTest7DetailsEv
 3462      00
 3463 2278 488B08   		movq	(%rax), %rcx
 3464 227b 488D8520 		leaq	-736(%rbp), %rax
 3464      FDFFFF
 3465 2282 BA670200 		movl	$615, %edx
 3465      00
 3466 2287 4889CE   		movq	%rcx, %rsi
 3467 228a 4889C7   		movq	%rax, %rdi
 3468 228d E8000000 		call	_ZN8UnitTest11TestDetailsC1ERKS0_i
 3468      00
 608:testSvf2Csvf.cpp **** 		"8, {AA}, {00}, {FF}, "    // HDR
 3469              		.loc 3 608 0 is_stmt 0 discriminator 1
 3470 2292 E8000000 		call	_ZN8UnitTest11CurrentTest7ResultsEv
 3470      00
 3471 2297 488B00   		movq	(%rax), %rax
 3472 229a 488D8D20 		leaq	-736(%rbp), %rcx
 3472      FDFFFF
 3473 22a1 BA000000 		movl	$.LC122, %edx
 3473      00
 3474 22a6 4889CE   		movq	%rcx, %rsi
 3475 22a9 4889C7   		movq	%rax, %rdi
 3476 22ac E8000000 		call	_ZN8UnitTest11TestResults13OnTestFailureERKNS_11TestDetailsEPKc
 3476      00
 3477              	.LEHE101:
 3478              	.LEHB102:
 3479 22b1 E8000000 		call	__cxa_end_catch
 3479      00
 3480              	.LEHE102:
 3481 22b6 E9D8FDFF 		jmp	.L122
 3481      FF
 3482              	.L136:
 3483 22bb 4889C3   		movq	%rax, %rbx
 619:testSvf2Csvf.cpp **** 		"8, {AA}, {00}, {55}, "    // HDR
 3484              		.loc 3 619 0 is_stmt 1
 3485 22be E8000000 		call	__cxa_end_catch
 3485      00
 3486 22c3 4889D8   		movq	%rbx, %rax
 3487 22c6 4889C7   		movq	%rax, %rdi
 3488              	.LEHB103:
 3489 22c9 E8000000 		call	_Unwind_Resume
 3489      00
 3490              	.LEHE103:
 3491              	.L135:
 3492 22ce 4889C7   		movq	%rax, %rdi
 3493 22d1 E8000000 		call	__cxa_begin_catch
 3493      00
 3494              	.LEHB104:
 3495 22d6 E8000000 		call	_ZN8UnitTest11CurrentTest7DetailsEv
 3495      00
 3496 22db 488B08   		movq	(%rax), %rcx
 3497 22de 488D8520 		leaq	-736(%rbp), %rax
 3497      FDFFFF
 3498 22e5 BA720200 		movl	$626, %edx
 3498      00
 3499 22ea 4889CE   		movq	%rcx, %rsi
 3500 22ed 4889C7   		movq	%rax, %rdi
 3501 22f0 E8000000 		call	_ZN8UnitTest11TestDetailsC1ERKS0_i
 3501      00
 619:testSvf2Csvf.cpp **** 		"8, {AA}, {00}, {55}, "    // HDR
 3502              		.loc 3 619 0 is_stmt 0 discriminator 1
 3503 22f5 E8000000 		call	_ZN8UnitTest11CurrentTest7ResultsEv
 3503      00
 3504 22fa 488B00   		movq	(%rax), %rax
 3505 22fd 488D8D20 		leaq	-736(%rbp), %rcx
 3505      FDFFFF
 3506 2304 BA000000 		movl	$.LC123, %edx
 3506      00
 3507 2309 4889CE   		movq	%rcx, %rsi
 3508 230c 4889C7   		movq	%rax, %rdi
 3509 230f E8000000 		call	_ZN8UnitTest11TestResults13OnTestFailureERKNS_11TestDetailsEPKc
 3509      00
 3510              	.LEHE104:
 3511              	.LEHB105:
 3512 2314 E8000000 		call	__cxa_end_catch
 3512      00
 3513              	.LEHE105:
 3514 2319 E9E3FDFF 		jmp	.L125
 3514      FF
 3515              	.L138:
 3516 231e 4889C3   		movq	%rax, %rbx
 630:testSvf2Csvf.cpp **** 		"6, {3A}, {00}, {FF}, "    // HDR
 3517              		.loc 3 630 0 is_stmt 1
 3518 2321 E8000000 		call	__cxa_end_catch
 3518      00
 3519 2326 4889D8   		movq	%rbx, %rax
 3520 2329 4889C7   		movq	%rax, %rdi
 3521              	.LEHB106:
 3522 232c E8000000 		call	_Unwind_Resume
 3522      00
 3523              	.LEHE106:
 3524              	.L137:
 3525 2331 4889C7   		movq	%rax, %rdi
 3526 2334 E8000000 		call	__cxa_begin_catch
 3526      00
 3527              	.LEHB107:
 3528 2339 E8000000 		call	_ZN8UnitTest11CurrentTest7DetailsEv
 3528      00
 3529 233e 488B08   		movq	(%rax), %rcx
 3530 2341 488D8520 		leaq	-736(%rbp), %rax
 3530      FDFFFF
 3531 2348 BA7D0200 		movl	$637, %edx
 3531      00
 3532 234d 4889CE   		movq	%rcx, %rsi
 3533 2350 4889C7   		movq	%rax, %rdi
 3534 2353 E8000000 		call	_ZN8UnitTest11TestDetailsC1ERKS0_i
 3534      00
 630:testSvf2Csvf.cpp **** 		"6, {3A}, {00}, {FF}, "    // HDR
 3535              		.loc 3 630 0 is_stmt 0 discriminator 1
 3536 2358 E8000000 		call	_ZN8UnitTest11CurrentTest7ResultsEv
 3536      00
 3537 235d 488B00   		movq	(%rax), %rax
 3538 2360 488D8D20 		leaq	-736(%rbp), %rcx
 3538      FDFFFF
 3539 2367 BA000000 		movl	$.LC124, %edx
 3539      00
 3540 236c 4889CE   		movq	%rcx, %rsi
 3541 236f 4889C7   		movq	%rax, %rdi
 3542 2372 E8000000 		call	_ZN8UnitTest11TestResults13OnTestFailureERKNS_11TestDetailsEPKc
 3542      00
 3543              	.LEHE107:
 3544              	.LEHB108:
 3545 2377 E8000000 		call	__cxa_end_catch
 3545      00
 3546              	.LEHE108:
 3547 237c E9EEFDFF 		jmp	.L128
 3547      FF
 3548              	.L139:
 3549              	.LBE17:
 641:testSvf2Csvf.cpp **** }
 3550              		.loc 3 641 0 is_stmt 1
 3551 2381 4881C418 		addq	$792, %rsp
 3551      030000
 3552 2388 5B       		popq	%rbx
 3553 2389 5D       		popq	%rbp
 3554              		.cfi_def_cfa 7, 8
 3555 238a C3       		ret
 3556              		.cfi_endproc
 3557              	.LFE1040:
 3558              		.section	.gcc_except_table
 3559              		.align 4
 3560              	.LLSDA1040:
 3561 01d4 FF       		.byte	0xff
 3562 01d5 03       		.byte	0x3
 3563 01d6 9401     		.uleb128 .LLSDATT1040-.LLSDATTD1040
 3564              	.LLSDATTD1040:
 3565 01d8 01       		.byte	0x1
 3566 01d9 8A01     		.uleb128 .LLSDACSE1040-.LLSDACSB1040
 3567              	.LLSDACSB1040:
 3568 01db 2C       		.uleb128 .LEHB83-.LFB1040
 3569 01dc 05       		.uleb128 .LEHE83-.LEHB83
 3570 01dd 00       		.uleb128 0
 3571 01de 00       		.uleb128 0
 3572 01df 37       		.uleb128 .LEHB84-.LFB1040
 3573 01e0 4E       		.uleb128 .LEHE84-.LEHB84
 3574 01e1 ED04     		.uleb128 .L129-.LFB1040
 3575 01e3 01       		.uleb128 0x1
 3576 01e4 9401     		.uleb128 .LEHB85-.LFB1040
 3577 01e6 05       		.uleb128 .LEHE85-.LEHB85
 3578 01e7 00       		.uleb128 0
 3579 01e8 00       		.uleb128 0
 3580 01e9 9F01     		.uleb128 .LEHB86-.LFB1040
 3581 01eb 4E       		.uleb128 .LEHE86-.LEHB86
 3582 01ec D005     		.uleb128 .L131-.LFB1040
 3583 01ee 01       		.uleb128 0x1
 3584 01ef 8302     		.uleb128 .LEHB87-.LFB1040
 3585 01f1 05       		.uleb128 .LEHE87-.LEHB87
 3586 01f2 00       		.uleb128 0
 3587 01f3 00       		.uleb128 0
 3588 01f4 8802     		.uleb128 .LEHB88-.LFB1040
 3589 01f6 53       		.uleb128 .LEHE88-.LEHB88
 3590 01f7 B306     		.uleb128 .L133-.LFB1040
 3591 01f9 01       		.uleb128 0x1
 3592 01fa F102     		.uleb128 .LEHB89-.LFB1040
 3593 01fc 05       		.uleb128 .LEHE89-.LEHB89
 3594 01fd 00       		.uleb128 0
 3595 01fe 00       		.uleb128 0
 3596 01ff F602     		.uleb128 .LEHB90-.LFB1040
 3597 0201 53       		.uleb128 .LEHE90-.LEHB90
 3598 0202 9607     		.uleb128 .L135-.LFB1040
 3599 0204 01       		.uleb128 0x1
 3600 0205 DF03     		.uleb128 .LEHB91-.LFB1040
 3601 0207 05       		.uleb128 .LEHE91-.LEHB91
 3602 0208 00       		.uleb128 0
 3603 0209 00       		.uleb128 0
 3604 020a E403     		.uleb128 .LEHB92-.LFB1040
 3605 020c 53       		.uleb128 .LEHE92-.LEHB92
 3606 020d F907     		.uleb128 .L137-.LFB1040
 3607 020f 01       		.uleb128 0x1
 3608 0210 C104     		.uleb128 .LEHB93-.LFB1040
 3609 0212 14       		.uleb128 .LEHE93-.LEHB93
 3610 0213 00       		.uleb128 0
 3611 0214 00       		.uleb128 0
 3612 0215 E804     		.uleb128 .LEHB94-.LFB1040
 3613 0217 05       		.uleb128 .LEHE94-.LEHB94
 3614 0218 00       		.uleb128 0
 3615 0219 00       		.uleb128 0
 3616 021a F504     		.uleb128 .LEHB95-.LFB1040
 3617 021c 3E       		.uleb128 .LEHE95-.LEHB95
 3618 021d DA04     		.uleb128 .L130-.LFB1040
 3619 021f 00       		.uleb128 0
 3620 0220 B305     		.uleb128 .LEHB96-.LFB1040
 3621 0222 05       		.uleb128 .LEHE96-.LEHB96
 3622 0223 00       		.uleb128 0
 3623 0224 00       		.uleb128 0
 3624 0225 CB05     		.uleb128 .LEHB97-.LFB1040
 3625 0227 05       		.uleb128 .LEHE97-.LEHB97
 3626 0228 00       		.uleb128 0
 3627 0229 00       		.uleb128 0
 3628 022a D805     		.uleb128 .LEHB98-.LFB1040
 3629 022c 3E       		.uleb128 .LEHE98-.LEHB98
 3630 022d BD05     		.uleb128 .L132-.LFB1040
 3631 022f 00       		.uleb128 0
 3632 0230 9606     		.uleb128 .LEHB99-.LFB1040
 3633 0232 05       		.uleb128 .LEHE99-.LEHB99
 3634 0233 00       		.uleb128 0
 3635 0234 00       		.uleb128 0
 3636 0235 AE06     		.uleb128 .LEHB100-.LFB1040
 3637 0237 05       		.uleb128 .LEHE100-.LEHB100
 3638 0238 00       		.uleb128 0
 3639 0239 00       		.uleb128 0
 3640 023a BB06     		.uleb128 .LEHB101-.LFB1040
 3641 023c 3E       		.uleb128 .LEHE101-.LEHB101
 3642 023d A006     		.uleb128 .L134-.LFB1040
 3643 023f 00       		.uleb128 0
 3644 0240 F906     		.uleb128 .LEHB102-.LFB1040
 3645 0242 05       		.uleb128 .LEHE102-.LEHB102
 3646 0243 00       		.uleb128 0
 3647 0244 00       		.uleb128 0
 3648 0245 9107     		.uleb128 .LEHB103-.LFB1040
 3649 0247 05       		.uleb128 .LEHE103-.LEHB103
 3650 0248 00       		.uleb128 0
 3651 0249 00       		.uleb128 0
 3652 024a 9E07     		.uleb128 .LEHB104-.LFB1040
 3653 024c 3E       		.uleb128 .LEHE104-.LEHB104
 3654 024d 8307     		.uleb128 .L136-.LFB1040
 3655 024f 00       		.uleb128 0
 3656 0250 DC07     		.uleb128 .LEHB105-.LFB1040
 3657 0252 05       		.uleb128 .LEHE105-.LEHB105
 3658 0253 00       		.uleb128 0
 3659 0254 00       		.uleb128 0
 3660 0255 F407     		.uleb128 .LEHB106-.LFB1040
 3661 0257 05       		.uleb128 .LEHE106-.LEHB106
 3662 0258 00       		.uleb128 0
 3663 0259 00       		.uleb128 0
 3664 025a 8108     		.uleb128 .LEHB107-.LFB1040
 3665 025c 3E       		.uleb128 .LEHE107-.LEHB107
 3666 025d E607     		.uleb128 .L138-.LFB1040
 3667 025f 00       		.uleb128 0
 3668 0260 BF08     		.uleb128 .LEHB108-.LFB1040
 3669 0262 05       		.uleb128 .LEHE108-.LEHB108
 3670 0263 00       		.uleb128 0
 3671 0264 00       		.uleb128 0
 3672              	.LLSDACSE1040:
 3673 0265 01       		.byte	0x1
 3674 0266 00       		.byte	0
 3675 0267 00       		.align 4
 3676 0268 00000000 		.long	0
 3677              	
 3678              	.LLSDATT1040:
 3679              		.text
 3681              		.section	.rodata
 3682              	.LC125:
 3683 09d5 20205B25 		.string	"  [%d] %s:%s\n"
 3683      645D2025 
 3683      733A2573 
 3683      0A00
 3684 09e3 00000000 		.align 8
 3684      00
 3685              	.LC126:
 3686 09e8 556E6861 		.string	"Unhandled exception in CHECK_EQUAL(sExpected, sActual)"
 3686      6E646C65 
 3686      64206578 
 3686      63657074 
 3686      696F6E20 
 3687 0a1f 00       		.align 8
 3688              	.LC127:
 3689 0a20 556E6861 		.string	"Unhandled exception in CHECK_EQUAL(expected, actual)"
 3689      6E646C65 
 3689      64206578 
 3689      63657074 
 3689      696F6E20 
 3690              		.text
 3692              	_ZL7compareiPKhS0_:
 3693              	.LFB1041:
 642:testSvf2Csvf.cpp **** 
 643:testSvf2Csvf.cpp **** static void compare(int j, CmdPtr pExpected, CmdPtr pActual) {
 3694              		.loc 3 643 0
 3695              		.cfi_startproc
 3696              		.cfi_personality 0x3,__gxx_personality_v0
 3697              		.cfi_lsda 0x3,.LLSDA1041
 3698 238b 55       		pushq	%rbp
 3699              		.cfi_def_cfa_offset 16
 3700              		.cfi_offset 6, -16
 3701 238c 4889E5   		movq	%rsp, %rbp
 3702              		.cfi_def_cfa_register 6
 3703 238f 53       		pushq	%rbx
 3704 2390 4883EC68 		subq	$104, %rsp
 3705              		.cfi_offset 3, -24
 3706 2394 897DAC   		movl	%edi, -84(%rbp)
 3707 2397 488975A0 		movq	%rsi, -96(%rbp)
 3708 239b 48895598 		movq	%rdx, -104(%rbp)
 3709              	.LBB18:
 644:testSvf2Csvf.cpp **** 	const char *const sExpected = getCmdName(pExpected);
 3710              		.loc 3 644 0
 3711 239f 488B45A0 		movq	-96(%rbp), %rax
 3712 23a3 4889C7   		movq	%rax, %rdi
 3713              	.LEHB109:
 3714 23a6 E8000000 		call	getCmdName
 3714      00
 3715 23ab 488945C0 		movq	%rax, -64(%rbp)
 645:testSvf2Csvf.cpp **** 	const char *const sActual = getCmdName(pActual);
 3716              		.loc 3 645 0
 3717 23af 488B4598 		movq	-104(%rbp), %rax
 3718 23b3 4889C7   		movq	%rax, %rdi
 3719 23b6 E8000000 		call	getCmdName
 3719      00
 3720 23bb 488945C8 		movq	%rax, -56(%rbp)
 646:testSvf2Csvf.cpp **** 	uint32 expected = pExpected[0];
 3721              		.loc 3 646 0
 3722 23bf 488B45A0 		movq	-96(%rbp), %rax
 3723 23c3 0FB600   		movzbl	(%rax), %eax
 3724 23c6 0FB6C0   		movzbl	%al, %eax
 3725 23c9 8945B8   		movl	%eax, -72(%rbp)
 647:testSvf2Csvf.cpp **** 	uint32 actual = pActual[0];
 3726              		.loc 3 647 0
 3727 23cc 488B4598 		movq	-104(%rbp), %rax
 3728 23d0 0FB600   		movzbl	(%rax), %eax
 3729 23d3 0FB6C0   		movzbl	%al, %eax
 3730 23d6 8945BC   		movl	%eax, -68(%rbp)
 648:testSvf2Csvf.cpp **** 	printf("  [%d] %s:%s\n", j, sExpected, sActual);
 3731              		.loc 3 648 0
 3732 23d9 488B4DC8 		movq	-56(%rbp), %rcx
 3733 23dd 488B55C0 		movq	-64(%rbp), %rdx
 3734 23e1 8B45AC   		movl	-84(%rbp), %eax
 3735 23e4 89C6     		movl	%eax, %esi
 3736 23e6 BF000000 		movl	$.LC125, %edi
 3736      00
 3737 23eb B8000000 		movl	$0, %eax
 3737      00
 3738 23f0 E8000000 		call	printf
 3738      00
 3739              	.LEHE109:
 3740              	.LEHB110:
 649:testSvf2Csvf.cpp **** 	CHECK_EQUAL(sExpected, sActual);
 3741              		.loc 3 649 0
 3742 23f5 E8000000 		call	_ZN8UnitTest11CurrentTest7DetailsEv
 3742      00
 3743 23fa 488B08   		movq	(%rax), %rcx
 3744 23fd 488D45D0 		leaq	-48(%rbp), %rax
 3745 2401 BA890200 		movl	$649, %edx
 3745      00
 3746 2406 4889CE   		movq	%rcx, %rsi
 3747 2409 4889C7   		movq	%rax, %rdi
 3748 240c E8000000 		call	_ZN8UnitTest11TestDetailsC1ERKS0_i
 3748      00
 3749              		.loc 3 649 0 is_stmt 0 discriminator 1
 3750 2411 E8000000 		call	_ZN8UnitTest11CurrentTest7ResultsEv
 3750      00
 3751 2416 488B00   		movq	(%rax), %rax
 3752 2419 488D4DD0 		leaq	-48(%rbp), %rcx
 3753 241d 488B55C8 		movq	-56(%rbp), %rdx
 3754 2421 488B75C0 		movq	-64(%rbp), %rsi
 3755 2425 4889C7   		movq	%rax, %rdi
 3756 2428 E8000000 		call	_ZN8UnitTest10CheckEqualERNS_11TestResultsEPKcS3_RKNS_11TestDetailsE
 3756      00
 3757              	.LEHE110:
 3758              	.L144:
 650:testSvf2Csvf.cpp **** 	if ( expected == XRUNTEST && actual == XRUNTEST ) {
 3759              		.loc 3 650 0 is_stmt 1
 3760 242d 8B45B8   		movl	-72(%rbp), %eax
 3761 2430 83F804   		cmpl	$4, %eax
 3762 2433 0F852401 		jne	.L140
 3762      0000
 3763              		.loc 3 650 0 is_stmt 0 discriminator 1
 3764 2439 8B45BC   		movl	-68(%rbp), %eax
 3765 243c 83F804   		cmpl	$4, %eax
 3766 243f 0F851801 		jne	.L140
 3766      0000
 651:testSvf2Csvf.cpp **** 		expected = readLongBE(pExpected + 1);
 3767              		.loc 3 651 0 is_stmt 1
 3768 2445 488B45A0 		movq	-96(%rbp), %rax
 3769 2449 4883C001 		addq	$1, %rax
 3770 244d 4889C7   		movq	%rax, %rdi
 3771              	.LEHB111:
 3772 2450 E8000000 		call	readLongBE
 3772      00
 3773 2455 8945B8   		movl	%eax, -72(%rbp)
 652:testSvf2Csvf.cpp **** 		actual = readLongBE(pActual + 1);
 3774              		.loc 3 652 0
 3775 2458 488B4598 		movq	-104(%rbp), %rax
 3776 245c 4883C001 		addq	$1, %rax
 3777 2460 4889C7   		movq	%rax, %rdi
 3778 2463 E8000000 		call	readLongBE
 3778      00
 3779              	.LEHE111:
 3780 2468 8945BC   		movl	%eax, -68(%rbp)
 3781              	.LEHB112:
 653:testSvf2Csvf.cpp **** 		CHECK_EQUAL(expected, actual);
 3782              		.loc 3 653 0
 3783 246b E8000000 		call	_ZN8UnitTest11CurrentTest7DetailsEv
 3783      00
 3784 2470 488B08   		movq	(%rax), %rcx
 3785 2473 488D45D0 		leaq	-48(%rbp), %rax
 3786 2477 BA8D0200 		movl	$653, %edx
 3786      00
 3787 247c 4889CE   		movq	%rcx, %rsi
 3788 247f 4889C7   		movq	%rax, %rdi
 3789 2482 E8000000 		call	_ZN8UnitTest11TestDetailsC1ERKS0_i
 3789      00
 3790              		.loc 3 653 0 is_stmt 0 discriminator 1
 3791 2487 E8000000 		call	_ZN8UnitTest11CurrentTest7ResultsEv
 3791      00
 3792 248c 488B00   		movq	(%rax), %rax
 3793 248f 488D4DD0 		leaq	-48(%rbp), %rcx
 3794 2493 488D55BC 		leaq	-68(%rbp), %rdx
 3795 2497 488D75B8 		leaq	-72(%rbp), %rsi
 3796 249b 4889C7   		movq	%rax, %rdi
 3797 249e E8000000 		call	_ZN8UnitTest10CheckEqualIjjEEvRNS_11TestResultsERKT_RKT0_RKNS_11TestDetailsE
 3797      00
 3798              	.LEHE112:
 3799 24a3 E9B50000 		jmp	.L140
 3799      00
 3800              	.L149:
 3801 24a8 4889C3   		movq	%rax, %rbx
 649:testSvf2Csvf.cpp **** 	if ( expected == XRUNTEST && actual == XRUNTEST ) {
 3802              		.loc 3 649 0 is_stmt 1
 3803 24ab E8000000 		call	__cxa_end_catch
 3803      00
 3804 24b0 4889D8   		movq	%rbx, %rax
 3805 24b3 4889C7   		movq	%rax, %rdi
 3806              	.LEHB113:
 3807 24b6 E8000000 		call	_Unwind_Resume
 3807      00
 3808              	.LEHE113:
 3809              	.L148:
 3810 24bb 4889C7   		movq	%rax, %rdi
 3811 24be E8000000 		call	__cxa_begin_catch
 3811      00
 3812              	.LEHB114:
 3813 24c3 E8000000 		call	_ZN8UnitTest11CurrentTest7DetailsEv
 3813      00
 3814 24c8 488B08   		movq	(%rax), %rcx
 3815 24cb 488D45D0 		leaq	-48(%rbp), %rax
 3816 24cf BA890200 		movl	$649, %edx
 3816      00
 3817 24d4 4889CE   		movq	%rcx, %rsi
 3818 24d7 4889C7   		movq	%rax, %rdi
 3819 24da E8000000 		call	_ZN8UnitTest11TestDetailsC1ERKS0_i
 3819      00
 649:testSvf2Csvf.cpp **** 	if ( expected == XRUNTEST && actual == XRUNTEST ) {
 3820              		.loc 3 649 0 is_stmt 0 discriminator 1
 3821 24df E8000000 		call	_ZN8UnitTest11CurrentTest7ResultsEv
 3821      00
 3822 24e4 488B00   		movq	(%rax), %rax
 3823 24e7 488D4DD0 		leaq	-48(%rbp), %rcx
 3824 24eb BA000000 		movl	$.LC126, %edx
 3824      00
 3825 24f0 4889CE   		movq	%rcx, %rsi
 3826 24f3 4889C7   		movq	%rax, %rdi
 3827 24f6 E8000000 		call	_ZN8UnitTest11TestResults13OnTestFailureERKNS_11TestDetailsEPKc
 3827      00
 3828              	.LEHE114:
 3829              	.LEHB115:
 3830 24fb E8000000 		call	__cxa_end_catch
 3830      00
 3831              	.LEHE115:
 3832 2500 E928FFFF 		jmp	.L144
 3832      FF
 3833              	.L151:
 3834 2505 4889C3   		movq	%rax, %rbx
 3835              		.loc 3 653 0 is_stmt 1
 3836 2508 E8000000 		call	__cxa_end_catch
 3836      00
 3837 250d 4889D8   		movq	%rbx, %rax
 3838 2510 4889C7   		movq	%rax, %rdi
 3839              	.LEHB116:
 3840 2513 E8000000 		call	_Unwind_Resume
 3840      00
 3841              	.LEHE116:
 3842              	.L150:
 3843 2518 4889C7   		movq	%rax, %rdi
 3844 251b E8000000 		call	__cxa_begin_catch
 3844      00
 3845              	.LEHB117:
 3846 2520 E8000000 		call	_ZN8UnitTest11CurrentTest7DetailsEv
 3846      00
 3847 2525 488B08   		movq	(%rax), %rcx
 3848 2528 488D45D0 		leaq	-48(%rbp), %rax
 3849 252c BA8D0200 		movl	$653, %edx
 3849      00
 3850 2531 4889CE   		movq	%rcx, %rsi
 3851 2534 4889C7   		movq	%rax, %rdi
 3852 2537 E8000000 		call	_ZN8UnitTest11TestDetailsC1ERKS0_i
 3852      00
 3853              		.loc 3 653 0 is_stmt 0 discriminator 1
 3854 253c E8000000 		call	_ZN8UnitTest11CurrentTest7ResultsEv
 3854      00
 3855 2541 488B00   		movq	(%rax), %rax
 3856 2544 488D4DD0 		leaq	-48(%rbp), %rcx
 3857 2548 BA000000 		movl	$.LC127, %edx
 3857      00
 3858 254d 4889CE   		movq	%rcx, %rsi
 3859 2550 4889C7   		movq	%rax, %rdi
 3860 2553 E8000000 		call	_ZN8UnitTest11TestResults13OnTestFailureERKNS_11TestDetailsEPKc
 3860      00
 3861              	.LEHE117:
 3862              	.LEHB118:
 3863 2558 E8000000 		call	__cxa_end_catch
 3863      00
 3864              	.LEHE118:
 3865              	.L140:
 3866              	.LBE18:
 654:testSvf2Csvf.cpp **** 	}
 655:testSvf2Csvf.cpp **** }
 3867              		.loc 3 655 0 is_stmt 1
 3868 255d 4883C468 		addq	$104, %rsp
 3869 2561 5B       		popq	%rbx
 3870 2562 5D       		popq	%rbp
 3871              		.cfi_def_cfa 7, 8
 3872 2563 C3       		ret
 3873              		.cfi_endproc
 3874              	.LFE1041:
 3875              		.section	.gcc_except_table
 3876              		.align 4
 3877              	.LLSDA1041:
 3878 026c FF       		.byte	0xff
 3879 026d 03       		.byte	0x3
 3880 026e 3D       		.uleb128 .LLSDATT1041-.LLSDATTD1041
 3881              	.LLSDATTD1041:
 3882 026f 01       		.byte	0x1
 3883 0270 34       		.uleb128 .LLSDACSE1041-.LLSDACSB1041
 3884              	.LLSDACSB1041:
 3885 0271 1B       		.uleb128 .LEHB109-.LFB1041
 3886 0272 4F       		.uleb128 .LEHE109-.LEHB109
 3887 0273 00       		.uleb128 0
 3888 0274 00       		.uleb128 0
 3889 0275 6A       		.uleb128 .LEHB110-.LFB1041
 3890 0276 38       		.uleb128 .LEHE110-.LEHB110
 3891 0277 B002     		.uleb128 .L148-.LFB1041
 3892 0279 01       		.uleb128 0x1
 3893 027a C501     		.uleb128 .LEHB111-.LFB1041
 3894 027c 18       		.uleb128 .LEHE111-.LEHB111
 3895 027d 00       		.uleb128 0
 3896 027e 00       		.uleb128 0
 3897 027f E001     		.uleb128 .LEHB112-.LFB1041
 3898 0281 38       		.uleb128 .LEHE112-.LEHB112
 3899 0282 8D03     		.uleb128 .L150-.LFB1041
 3900 0284 01       		.uleb128 0x1
 3901 0285 AB02     		.uleb128 .LEHB113-.LFB1041
 3902 0287 05       		.uleb128 .LEHE113-.LEHB113
 3903 0288 00       		.uleb128 0
 3904 0289 00       		.uleb128 0
 3905 028a B802     		.uleb128 .LEHB114-.LFB1041
 3906 028c 38       		.uleb128 .LEHE114-.LEHB114
 3907 028d 9D02     		.uleb128 .L149-.LFB1041
 3908 028f 00       		.uleb128 0
 3909 0290 F002     		.uleb128 .LEHB115-.LFB1041
 3910 0292 05       		.uleb128 .LEHE115-.LEHB115
 3911 0293 00       		.uleb128 0
 3912 0294 00       		.uleb128 0
 3913 0295 8803     		.uleb128 .LEHB116-.LFB1041
 3914 0297 05       		.uleb128 .LEHE116-.LEHB116
 3915 0298 00       		.uleb128 0
 3916 0299 00       		.uleb128 0
 3917 029a 9503     		.uleb128 .LEHB117-.LFB1041
 3918 029c 38       		.uleb128 .LEHE117-.LEHB117
 3919 029d FA02     		.uleb128 .L151-.LFB1041
 3920 029f 00       		.uleb128 0
 3921 02a0 CD03     		.uleb128 .LEHB118-.LFB1041
 3922 02a2 05       		.uleb128 .LEHE118-.LEHB118
 3923 02a3 00       		.uleb128 0
 3924 02a4 00       		.uleb128 0
 3925              	.LLSDACSE1041:
 3926 02a5 01       		.byte	0x1
 3927 02a6 00       		.byte	0
 3928 02a7 00       		.align 4
 3929 02a8 00000000 		.long	0
 3930              	
 3931              	.LLSDATT1041:
 3932              		.text
 3934              		.section	.rodata
 3935              	.LC128:
 3936 0a55 46504741 		.string	"FPGALink_testProcessIndex"
 3936      4C696E6B 
 3936      5F746573 
 3936      7450726F 
 3936      63657373 
 3937              		.section	.text._ZN29TestFPGALink_testProcessIndexC2Ev,"axG",@progbits,_ZN29TestFPGALink_testProces
 3938              		.align 2
 3939              		.weak	_ZN29TestFPGALink_testProcessIndexC2Ev
 3941              	_ZN29TestFPGALink_testProcessIndexC2Ev:
 3942              	.LFB1043:
 656:testSvf2Csvf.cpp **** 
 657:testSvf2Csvf.cpp **** TEST(FPGALink_testProcessIndex) {
 3943              		.loc 3 657 0
 3944              		.cfi_startproc
 3945 0000 55       		pushq	%rbp
 3946              		.cfi_def_cfa_offset 16
 3947              		.cfi_offset 6, -16
 3948 0001 4889E5   		movq	%rsp, %rbp
 3949              		.cfi_def_cfa_register 6
 3950 0004 4883EC10 		subq	$16, %rsp
 3951 0008 48897DF8 		movq	%rdi, -8(%rbp)
 3952              	.LBB19:
 3953              		.loc 3 657 0
 3954 000c E8000000 		call	_ZN13UnitTestSuite12GetSuiteNameEv
 3954      00
 3955 0011 4889C2   		movq	%rax, %rdx
 3956 0014 488B45F8 		movq	-8(%rbp), %rax
 3957 0018 41B89102 		movl	$657, %r8d
 3957      0000
 3958 001e B9000000 		movl	$.LC5, %ecx
 3958      00
 3959 0023 BE000000 		movl	$.LC128, %esi
 3959      00
 3960 0028 4889C7   		movq	%rax, %rdi
 3961 002b E8000000 		call	_ZN8UnitTest4TestC2EPKcS2_S2_i
 3961      00
 3962 0030 488B45F8 		movq	-8(%rbp), %rax
 3963 0034 48C70000 		movq	$_ZTV29TestFPGALink_testProcessIndex+16, (%rax)
 3963      000000
 3964              	.LBE19:
 3965 003b C9       		leave
 3966              		.cfi_def_cfa 7, 8
 3967 003c C3       		ret
 3968              		.cfi_endproc
 3969              	.LFE1043:
 3971              		.weak	_ZN29TestFPGALink_testProcessIndexC1Ev
 3972              		.set	_ZN29TestFPGALink_testProcessIndexC1Ev,_ZN29TestFPGALink_testProcessIndexC2Ev
 3973              		.globl	testFPGALink_testProcessIndexInstance
 3974              		.bss
 3975 00b9 00000000 		.align 32
 3975      000000
 3978              	testFPGALink_testProcessIndexInstance:
 3979 00c0 00000000 		.zero	56
 3979      00000000 
 3979      00000000 
 3979      00000000 
 3979      00000000 
 3980              		.globl	adderFPGALink_testProcessIndex
 3983              	adderFPGALink_testProcessIndex:
 3984 00f8 00       		.zero	1
 3985              		.section	.rodata
 3986              	.LC129:
 3987 0a6f 44617461 		.string	"Dataset %d\n"
 3987      73657420 
 3987      25640A00 
 3988              	.LC130:
 3989 0a7b 2A2A7045 		.string	"**pExpected == XCOMPLETE"
 3989      78706563 
 3989      74656420 
 3989      3D3D2058 
 3989      434F4D50 
 3990              	.LC131:
 3991 0a94 2A2A7041 		.string	"**pActual == XCOMPLETE"
 3991      63747561 
 3991      6C203D3D 
 3991      2058434F 
 3991      4D504C45 
 3992 0aab 00000000 		.align 8
 3992      00
 3993              	.LC132:
 3994 0ab0 556E6861 		.string	"Unhandled exception in CHECK(**pExpected == XCOMPLETE)"
 3994      6E646C65 
 3994      64206578 
 3994      63657074 
 3994      696F6E20 
 3995 0ae7 00       		.align 8
 3996              	.LC133:
 3997 0ae8 556E6861 		.string	"Unhandled exception in CHECK(**pActual == XCOMPLETE)"
 3997      6E646C65 
 3997      64206578 
 3997      63657074 
 3997      696F6E20 
 3998              		.text
 3999              		.align 2
 4000              		.globl	_ZNK29TestFPGALink_testProcessIndex7RunImplEv
 4002              	_ZNK29TestFPGALink_testProcessIndex7RunImplEv:
 4003              	.LFB1045:
 4004              		.loc 3 657 0
 4005              		.cfi_startproc
 4006              		.cfi_personality 0x3,__gxx_personality_v0
 4007              		.cfi_lsda 0x3,.LLSDA1045
 4008 2564 55       		pushq	%rbp
 4009              		.cfi_def_cfa_offset 16
 4010              		.cfi_offset 6, -16
 4011 2565 4889E5   		movq	%rsp, %rbp
 4012              		.cfi_def_cfa_register 6
 4013 2568 53       		pushq	%rbx
 4014 2569 4881EC08 		subq	$9480, %rsp
 4014      250000
 4015              		.cfi_offset 3, -24
 4016 2570 4889BDF8 		movq	%rdi, -9480(%rbp)
 4016      DAFFFF
 4017              		.loc 3 657 0
 4018 2577 64488B04 		movq	%fs:40, %rax
 4018      25280000 
 4018      00
 4019 2580 488945E8 		movq	%rax, -24(%rbp)
 4020 2584 31C0     		xorl	%eax, %eax
 4021              	.LBB20:
 658:testSvf2Csvf.cpp **** 	int i, j, num;
 659:testSvf2Csvf.cpp **** 	const CmdPtr *pExpected;
 660:testSvf2Csvf.cpp **** 	const CmdPtr *pActual;
 661:testSvf2Csvf.cpp **** 	CmdArray xruntest0  = {XRUNTEST, 0x00, 0x00, 0x00, 0x00};
 4022              		.loc 3 661 0
 4023 2586 C645C004 		movb	$4, -64(%rbp)
 4024 258a C645C100 		movb	$0, -63(%rbp)
 4025 258e C645C200 		movb	$0, -62(%rbp)
 4026 2592 C645C300 		movb	$0, -61(%rbp)
 4027 2596 C645C400 		movb	$0, -60(%rbp)
 662:testSvf2Csvf.cpp **** 	CmdArray xruntest1  = {XRUNTEST, 0x00, 0x00, 0x00, 0x0A};
 4028              		.loc 3 662 0
 4029 259a C645D004 		movb	$4, -48(%rbp)
 4030 259e C645D100 		movb	$0, -47(%rbp)
 4031 25a2 C645D200 		movb	$0, -46(%rbp)
 4032 25a6 C645D300 		movb	$0, -45(%rbp)
 4033 25aa C645D40A 		movb	$10, -44(%rbp)
 663:testSvf2Csvf.cpp **** 	CmdArray xruntest2  = {XRUNTEST, 0x00, 0x00, 0x27, 0x10};
 4034              		.loc 3 663 0
 4035 25ae C645E004 		movb	$4, -32(%rbp)
 4036 25b2 C645E100 		movb	$0, -31(%rbp)
 4037 25b6 C645E200 		movb	$0, -30(%rbp)
 4038 25ba C645E327 		movb	$39, -29(%rbp)
 4039 25be C645E410 		movb	$16, -28(%rbp)
 664:testSvf2Csvf.cpp **** 	CmdArray xcomplete = {XCOMPLETE};
 4040              		.loc 3 664 0
 4041 25c2 C6850EDB 		movb	$0, -9458(%rbp)
 4041      FFFF00
 665:testSvf2Csvf.cpp **** 	CmdArray xsdr      = {XSDR};
 4042              		.loc 3 665 0
 4043 25c9 C6850FDB 		movb	$3, -9457(%rbp)
 4043      FFFF03
 666:testSvf2Csvf.cpp **** 	CmdArray xsdrsize  = {XSDRSIZE};
 4044              		.loc 3 666 0
 4045 25d0 C68510DB 		movb	$8, -9456(%rbp)
 4045      FFFF08
 667:testSvf2Csvf.cpp **** 	CmdArray xsdrtdo   = {XSDRTDO};
 4046              		.loc 3 667 0
 4047 25d7 C68511DB 		movb	$9, -9455(%rbp)
 4047      FFFF09
 668:testSvf2Csvf.cpp **** 	CmdArray xsir      = {XSIR};
 4048              		.loc 3 668 0
 4049 25de C68512DB 		movb	$2, -9454(%rbp)
 4049      FFFF02
 669:testSvf2Csvf.cpp **** 	CmdArray xtdomask  = {XTDOMASK};
 4050              		.loc 3 669 0
 4051 25e5 C68513DB 		movb	$1, -9453(%rbp)
 4051      FFFF01
 670:testSvf2Csvf.cpp **** 	const CmdPtr src0[] = {
 671:testSvf2Csvf.cpp **** 		xsir,
 672:testSvf2Csvf.cpp **** 		xsdrsize,
 673:testSvf2Csvf.cpp **** 		xtdomask,
 674:testSvf2Csvf.cpp **** 		xsdrtdo,
 675:testSvf2Csvf.cpp **** 		xsir,
 676:testSvf2Csvf.cpp **** 		xsdrtdo,
 677:testSvf2Csvf.cpp **** 		xsir,
 678:testSvf2Csvf.cpp **** 		xsdrtdo,
 679:testSvf2Csvf.cpp **** 		xsir,
 680:testSvf2Csvf.cpp **** 		xsir,
 681:testSvf2Csvf.cpp **** 		xsdrtdo,
 682:testSvf2Csvf.cpp **** 		xsir,
 683:testSvf2Csvf.cpp **** 		xruntest1,
 684:testSvf2Csvf.cpp **** 		xsir,
 685:testSvf2Csvf.cpp **** 		xsir,
 686:testSvf2Csvf.cpp **** 		xruntest2,
 687:testSvf2Csvf.cpp **** 		xsir,
 688:testSvf2Csvf.cpp **** 		xsdrsize,
 689:testSvf2Csvf.cpp **** 		xsdr,
 690:testSvf2Csvf.cpp **** 		xruntest1,
 691:testSvf2Csvf.cpp **** 		xsir,
 692:testSvf2Csvf.cpp **** 		xsdrsize,
 693:testSvf2Csvf.cpp **** 		xsdr,
 694:testSvf2Csvf.cpp **** 		xsdr,
 695:testSvf2Csvf.cpp **** 		xsdr,
 696:testSvf2Csvf.cpp **** 		xsdr,
 697:testSvf2Csvf.cpp **** 		xsdr,
 698:testSvf2Csvf.cpp **** 		xsdr,
 699:testSvf2Csvf.cpp **** 		xsdr,
 700:testSvf2Csvf.cpp **** 		xsdr,
 701:testSvf2Csvf.cpp **** 		xsdr,
 702:testSvf2Csvf.cpp **** 		xsdr,
 703:testSvf2Csvf.cpp **** 		xcomplete
 704:testSvf2Csvf.cpp **** 	};
 4052              		.loc 3 704 0
 4053 25ec 488D8512 		leaq	-9454(%rbp), %rax
 4053      DBFFFF
 4054 25f3 48898580 		movq	%rax, -8832(%rbp)
 4054      DDFFFF
 4055 25fa 488D8510 		leaq	-9456(%rbp), %rax
 4055      DBFFFF
 4056 2601 48898588 		movq	%rax, -8824(%rbp)
 4056      DDFFFF
 4057 2608 488D8513 		leaq	-9453(%rbp), %rax
 4057      DBFFFF
 4058 260f 48898590 		movq	%rax, -8816(%rbp)
 4058      DDFFFF
 4059 2616 488D8511 		leaq	-9455(%rbp), %rax
 4059      DBFFFF
 4060 261d 48898598 		movq	%rax, -8808(%rbp)
 4060      DDFFFF
 4061 2624 488D8512 		leaq	-9454(%rbp), %rax
 4061      DBFFFF
 4062 262b 488985A0 		movq	%rax, -8800(%rbp)
 4062      DDFFFF
 4063 2632 488D8511 		leaq	-9455(%rbp), %rax
 4063      DBFFFF
 4064 2639 488985A8 		movq	%rax, -8792(%rbp)
 4064      DDFFFF
 4065 2640 488D8512 		leaq	-9454(%rbp), %rax
 4065      DBFFFF
 4066 2647 488985B0 		movq	%rax, -8784(%rbp)
 4066      DDFFFF
 4067 264e 488D8511 		leaq	-9455(%rbp), %rax
 4067      DBFFFF
 4068 2655 488985B8 		movq	%rax, -8776(%rbp)
 4068      DDFFFF
 4069 265c 488D8512 		leaq	-9454(%rbp), %rax
 4069      DBFFFF
 4070 2663 488985C0 		movq	%rax, -8768(%rbp)
 4070      DDFFFF
 4071 266a 488D8512 		leaq	-9454(%rbp), %rax
 4071      DBFFFF
 4072 2671 488985C8 		movq	%rax, -8760(%rbp)
 4072      DDFFFF
 4073 2678 488D8511 		leaq	-9455(%rbp), %rax
 4073      DBFFFF
 4074 267f 488985D0 		movq	%rax, -8752(%rbp)
 4074      DDFFFF
 4075 2686 488D8512 		leaq	-9454(%rbp), %rax
 4075      DBFFFF
 4076 268d 488985D8 		movq	%rax, -8744(%rbp)
 4076      DDFFFF
 4077 2694 488D45D0 		leaq	-48(%rbp), %rax
 4078 2698 488985E0 		movq	%rax, -8736(%rbp)
 4078      DDFFFF
 4079 269f 488D8512 		leaq	-9454(%rbp), %rax
 4079      DBFFFF
 4080 26a6 488985E8 		movq	%rax, -8728(%rbp)
 4080      DDFFFF
 4081 26ad 488D8512 		leaq	-9454(%rbp), %rax
 4081      DBFFFF
 4082 26b4 488985F0 		movq	%rax, -8720(%rbp)
 4082      DDFFFF
 4083 26bb 488D45E0 		leaq	-32(%rbp), %rax
 4084 26bf 488985F8 		movq	%rax, -8712(%rbp)
 4084      DDFFFF
 4085 26c6 488D8512 		leaq	-9454(%rbp), %rax
 4085      DBFFFF
 4086 26cd 48898500 		movq	%rax, -8704(%rbp)
 4086      DEFFFF
 4087 26d4 488D8510 		leaq	-9456(%rbp), %rax
 4087      DBFFFF
 4088 26db 48898508 		movq	%rax, -8696(%rbp)
 4088      DEFFFF
 4089 26e2 488D850F 		leaq	-9457(%rbp), %rax
 4089      DBFFFF
 4090 26e9 48898510 		movq	%rax, -8688(%rbp)
 4090      DEFFFF
 4091 26f0 488D45D0 		leaq	-48(%rbp), %rax
 4092 26f4 48898518 		movq	%rax, -8680(%rbp)
 4092      DEFFFF
 4093 26fb 488D8512 		leaq	-9454(%rbp), %rax
 4093      DBFFFF
 4094 2702 48898520 		movq	%rax, -8672(%rbp)
 4094      DEFFFF
 4095 2709 488D8510 		leaq	-9456(%rbp), %rax
 4095      DBFFFF
 4096 2710 48898528 		movq	%rax, -8664(%rbp)
 4096      DEFFFF
 4097 2717 488D850F 		leaq	-9457(%rbp), %rax
 4097      DBFFFF
 4098 271e 48898530 		movq	%rax, -8656(%rbp)
 4098      DEFFFF
 4099 2725 488D850F 		leaq	-9457(%rbp), %rax
 4099      DBFFFF
 4100 272c 48898538 		movq	%rax, -8648(%rbp)
 4100      DEFFFF
 4101 2733 488D850F 		leaq	-9457(%rbp), %rax
 4101      DBFFFF
 4102 273a 48898540 		movq	%rax, -8640(%rbp)
 4102      DEFFFF
 4103 2741 488D850F 		leaq	-9457(%rbp), %rax
 4103      DBFFFF
 4104 2748 48898548 		movq	%rax, -8632(%rbp)
 4104      DEFFFF
 4105 274f 488D850F 		leaq	-9457(%rbp), %rax
 4105      DBFFFF
 4106 2756 48898550 		movq	%rax, -8624(%rbp)
 4106      DEFFFF
 4107 275d 488D850F 		leaq	-9457(%rbp), %rax
 4107      DBFFFF
 4108 2764 48898558 		movq	%rax, -8616(%rbp)
 4108      DEFFFF
 4109 276b 488D850F 		leaq	-9457(%rbp), %rax
 4109      DBFFFF
 4110 2772 48898560 		movq	%rax, -8608(%rbp)
 4110      DEFFFF
 4111 2779 488D850F 		leaq	-9457(%rbp), %rax
 4111      DBFFFF
 4112 2780 48898568 		movq	%rax, -8600(%rbp)
 4112      DEFFFF
 4113 2787 488D850F 		leaq	-9457(%rbp), %rax
 4113      DBFFFF
 4114 278e 48898570 		movq	%rax, -8592(%rbp)
 4114      DEFFFF
 4115 2795 488D850F 		leaq	-9457(%rbp), %rax
 4115      DBFFFF
 4116 279c 48898578 		movq	%rax, -8584(%rbp)
 4116      DEFFFF
 4117 27a3 488D850E 		leaq	-9458(%rbp), %rax
 4117      DBFFFF
 4118 27aa 48898580 		movq	%rax, -8576(%rbp)
 4118      DEFFFF
 705:testSvf2Csvf.cpp **** 	const CmdPtr exp0[] = {
 706:testSvf2Csvf.cpp **** 		xruntest0,
 707:testSvf2Csvf.cpp **** 		xsir,
 708:testSvf2Csvf.cpp **** 		xsdrsize,
 709:testSvf2Csvf.cpp **** 		xtdomask,
 710:testSvf2Csvf.cpp **** 		xsdrtdo,
 711:testSvf2Csvf.cpp **** 		xsir,
 712:testSvf2Csvf.cpp **** 		xsdrtdo,
 713:testSvf2Csvf.cpp **** 		xsir,
 714:testSvf2Csvf.cpp **** 		xsdrtdo,
 715:testSvf2Csvf.cpp **** 		xsir,
 716:testSvf2Csvf.cpp **** 		xsir,
 717:testSvf2Csvf.cpp **** 		xsdrtdo,
 718:testSvf2Csvf.cpp **** 		xruntest1,
 719:testSvf2Csvf.cpp **** 		xsir,
 720:testSvf2Csvf.cpp **** 		xruntest0,
 721:testSvf2Csvf.cpp **** 		xsir,
 722:testSvf2Csvf.cpp **** 		xruntest2,
 723:testSvf2Csvf.cpp **** 		xsir,
 724:testSvf2Csvf.cpp **** 		xruntest0,
 725:testSvf2Csvf.cpp **** 		xsir,
 726:testSvf2Csvf.cpp **** 		xruntest1,
 727:testSvf2Csvf.cpp **** 		xsdrsize,
 728:testSvf2Csvf.cpp **** 		xsdr,
 729:testSvf2Csvf.cpp **** 		xruntest0,
 730:testSvf2Csvf.cpp **** 		xsir,
 731:testSvf2Csvf.cpp **** 		xsdrsize,
 732:testSvf2Csvf.cpp **** 		xsdr,
 733:testSvf2Csvf.cpp **** 		xsdr,
 734:testSvf2Csvf.cpp **** 		xsdr,
 735:testSvf2Csvf.cpp **** 		xsdr,
 736:testSvf2Csvf.cpp **** 		xsdr,
 737:testSvf2Csvf.cpp **** 		xsdr,
 738:testSvf2Csvf.cpp **** 		xsdr,
 739:testSvf2Csvf.cpp **** 		xsdr,
 740:testSvf2Csvf.cpp **** 		xsdr,
 741:testSvf2Csvf.cpp **** 		xsdr,
 742:testSvf2Csvf.cpp **** 		xcomplete
 743:testSvf2Csvf.cpp **** 	};
 4119              		.loc 3 743 0
 4120 27b1 488D45C0 		leaq	-64(%rbp), %rax
 4121 27b5 48898590 		movq	%rax, -8560(%rbp)
 4121      DEFFFF
 4122 27bc 488D8512 		leaq	-9454(%rbp), %rax
 4122      DBFFFF
 4123 27c3 48898598 		movq	%rax, -8552(%rbp)
 4123      DEFFFF
 4124 27ca 488D8510 		leaq	-9456(%rbp), %rax
 4124      DBFFFF
 4125 27d1 488985A0 		movq	%rax, -8544(%rbp)
 4125      DEFFFF
 4126 27d8 488D8513 		leaq	-9453(%rbp), %rax
 4126      DBFFFF
 4127 27df 488985A8 		movq	%rax, -8536(%rbp)
 4127      DEFFFF
 4128 27e6 488D8511 		leaq	-9455(%rbp), %rax
 4128      DBFFFF
 4129 27ed 488985B0 		movq	%rax, -8528(%rbp)
 4129      DEFFFF
 4130 27f4 488D8512 		leaq	-9454(%rbp), %rax
 4130      DBFFFF
 4131 27fb 488985B8 		movq	%rax, -8520(%rbp)
 4131      DEFFFF
 4132 2802 488D8511 		leaq	-9455(%rbp), %rax
 4132      DBFFFF
 4133 2809 488985C0 		movq	%rax, -8512(%rbp)
 4133      DEFFFF
 4134 2810 488D8512 		leaq	-9454(%rbp), %rax
 4134      DBFFFF
 4135 2817 488985C8 		movq	%rax, -8504(%rbp)
 4135      DEFFFF
 4136 281e 488D8511 		leaq	-9455(%rbp), %rax
 4136      DBFFFF
 4137 2825 488985D0 		movq	%rax, -8496(%rbp)
 4137      DEFFFF
 4138 282c 488D8512 		leaq	-9454(%rbp), %rax
 4138      DBFFFF
 4139 2833 488985D8 		movq	%rax, -8488(%rbp)
 4139      DEFFFF
 4140 283a 488D8512 		leaq	-9454(%rbp), %rax
 4140      DBFFFF
 4141 2841 488985E0 		movq	%rax, -8480(%rbp)
 4141      DEFFFF
 4142 2848 488D8511 		leaq	-9455(%rbp), %rax
 4142      DBFFFF
 4143 284f 488985E8 		movq	%rax, -8472(%rbp)
 4143      DEFFFF
 4144 2856 488D45D0 		leaq	-48(%rbp), %rax
 4145 285a 488985F0 		movq	%rax, -8464(%rbp)
 4145      DEFFFF
 4146 2861 488D8512 		leaq	-9454(%rbp), %rax
 4146      DBFFFF
 4147 2868 488985F8 		movq	%rax, -8456(%rbp)
 4147      DEFFFF
 4148 286f 488D45C0 		leaq	-64(%rbp), %rax
 4149 2873 48898500 		movq	%rax, -8448(%rbp)
 4149      DFFFFF
 4150 287a 488D8512 		leaq	-9454(%rbp), %rax
 4150      DBFFFF
 4151 2881 48898508 		movq	%rax, -8440(%rbp)
 4151      DFFFFF
 4152 2888 488D45E0 		leaq	-32(%rbp), %rax
 4153 288c 48898510 		movq	%rax, -8432(%rbp)
 4153      DFFFFF
 4154 2893 488D8512 		leaq	-9454(%rbp), %rax
 4154      DBFFFF
 4155 289a 48898518 		movq	%rax, -8424(%rbp)
 4155      DFFFFF
 4156 28a1 488D45C0 		leaq	-64(%rbp), %rax
 4157 28a5 48898520 		movq	%rax, -8416(%rbp)
 4157      DFFFFF
 4158 28ac 488D8512 		leaq	-9454(%rbp), %rax
 4158      DBFFFF
 4159 28b3 48898528 		movq	%rax, -8408(%rbp)
 4159      DFFFFF
 4160 28ba 488D45D0 		leaq	-48(%rbp), %rax
 4161 28be 48898530 		movq	%rax, -8400(%rbp)
 4161      DFFFFF
 4162 28c5 488D8510 		leaq	-9456(%rbp), %rax
 4162      DBFFFF
 4163 28cc 48898538 		movq	%rax, -8392(%rbp)
 4163      DFFFFF
 4164 28d3 488D850F 		leaq	-9457(%rbp), %rax
 4164      DBFFFF
 4165 28da 48898540 		movq	%rax, -8384(%rbp)
 4165      DFFFFF
 4166 28e1 488D45C0 		leaq	-64(%rbp), %rax
 4167 28e5 48898548 		movq	%rax, -8376(%rbp)
 4167      DFFFFF
 4168 28ec 488D8512 		leaq	-9454(%rbp), %rax
 4168      DBFFFF
 4169 28f3 48898550 		movq	%rax, -8368(%rbp)
 4169      DFFFFF
 4170 28fa 488D8510 		leaq	-9456(%rbp), %rax
 4170      DBFFFF
 4171 2901 48898558 		movq	%rax, -8360(%rbp)
 4171      DFFFFF
 4172 2908 488D850F 		leaq	-9457(%rbp), %rax
 4172      DBFFFF
 4173 290f 48898560 		movq	%rax, -8352(%rbp)
 4173      DFFFFF
 4174 2916 488D850F 		leaq	-9457(%rbp), %rax
 4174      DBFFFF
 4175 291d 48898568 		movq	%rax, -8344(%rbp)
 4175      DFFFFF
 4176 2924 488D850F 		leaq	-9457(%rbp), %rax
 4176      DBFFFF
 4177 292b 48898570 		movq	%rax, -8336(%rbp)
 4177      DFFFFF
 4178 2932 488D850F 		leaq	-9457(%rbp), %rax
 4178      DBFFFF
 4179 2939 48898578 		movq	%rax, -8328(%rbp)
 4179      DFFFFF
 4180 2940 488D850F 		leaq	-9457(%rbp), %rax
 4180      DBFFFF
 4181 2947 48898580 		movq	%rax, -8320(%rbp)
 4181      DFFFFF
 4182 294e 488D850F 		leaq	-9457(%rbp), %rax
 4182      DBFFFF
 4183 2955 48898588 		movq	%rax, -8312(%rbp)
 4183      DFFFFF
 4184 295c 488D850F 		leaq	-9457(%rbp), %rax
 4184      DBFFFF
 4185 2963 48898590 		movq	%rax, -8304(%rbp)
 4185      DFFFFF
 4186 296a 488D850F 		leaq	-9457(%rbp), %rax
 4186      DBFFFF
 4187 2971 48898598 		movq	%rax, -8296(%rbp)
 4187      DFFFFF
 4188 2978 488D850F 		leaq	-9457(%rbp), %rax
 4188      DBFFFF
 4189 297f 488985A0 		movq	%rax, -8288(%rbp)
 4189      DFFFFF
 4190 2986 488D850F 		leaq	-9457(%rbp), %rax
 4190      DBFFFF
 4191 298d 488985A8 		movq	%rax, -8280(%rbp)
 4191      DFFFFF
 4192 2994 488D850E 		leaq	-9458(%rbp), %rax
 4192      DBFFFF
 4193 299b 488985B0 		movq	%rax, -8272(%rbp)
 4193      DFFFFF
 744:testSvf2Csvf.cpp **** 	const CmdPtr src1[] = {
 745:testSvf2Csvf.cpp **** 		xsir,
 746:testSvf2Csvf.cpp **** 		xsdrsize,
 747:testSvf2Csvf.cpp **** 		xsdr,
 748:testSvf2Csvf.cpp **** 		xsdr,
 749:testSvf2Csvf.cpp **** 		xcomplete
 750:testSvf2Csvf.cpp **** 	};
 4194              		.loc 3 750 0
 4195 29a2 488D8512 		leaq	-9454(%rbp), %rax
 4195      DBFFFF
 4196 29a9 48898550 		movq	%rax, -9392(%rbp)
 4196      DBFFFF
 4197 29b0 488D8510 		leaq	-9456(%rbp), %rax
 4197      DBFFFF
 4198 29b7 48898558 		movq	%rax, -9384(%rbp)
 4198      DBFFFF
 4199 29be 488D850F 		leaq	-9457(%rbp), %rax
 4199      DBFFFF
 4200 29c5 48898560 		movq	%rax, -9376(%rbp)
 4200      DBFFFF
 4201 29cc 488D850F 		leaq	-9457(%rbp), %rax
 4201      DBFFFF
 4202 29d3 48898568 		movq	%rax, -9368(%rbp)
 4202      DBFFFF
 4203 29da 488D850E 		leaq	-9458(%rbp), %rax
 4203      DBFFFF
 4204 29e1 48898570 		movq	%rax, -9360(%rbp)
 4204      DBFFFF
 751:testSvf2Csvf.cpp **** 	const CmdPtr exp1[] = {
 752:testSvf2Csvf.cpp **** 		xruntest0,
 753:testSvf2Csvf.cpp **** 		xsir,
 754:testSvf2Csvf.cpp **** 		xsdrsize,
 755:testSvf2Csvf.cpp **** 		xsdr,
 756:testSvf2Csvf.cpp **** 		xsdr,
 757:testSvf2Csvf.cpp **** 		xcomplete
 758:testSvf2Csvf.cpp **** 	};
 4205              		.loc 3 758 0
 4206 29e8 488D45C0 		leaq	-64(%rbp), %rax
 4207 29ec 488985E0 		movq	%rax, -9248(%rbp)
 4207      DBFFFF
 4208 29f3 488D8512 		leaq	-9454(%rbp), %rax
 4208      DBFFFF
 4209 29fa 488985E8 		movq	%rax, -9240(%rbp)
 4209      DBFFFF
 4210 2a01 488D8510 		leaq	-9456(%rbp), %rax
 4210      DBFFFF
 4211 2a08 488985F0 		movq	%rax, -9232(%rbp)
 4211      DBFFFF
 4212 2a0f 488D850F 		leaq	-9457(%rbp), %rax
 4212      DBFFFF
 4213 2a16 488985F8 		movq	%rax, -9224(%rbp)
 4213      DBFFFF
 4214 2a1d 488D850F 		leaq	-9457(%rbp), %rax
 4214      DBFFFF
 4215 2a24 48898500 		movq	%rax, -9216(%rbp)
 4215      DCFFFF
 4216 2a2b 488D850E 		leaq	-9458(%rbp), %rax
 4216      DBFFFF
 4217 2a32 48898508 		movq	%rax, -9208(%rbp)
 4217      DCFFFF
 759:testSvf2Csvf.cpp **** 	const CmdPtr src2[] = {
 760:testSvf2Csvf.cpp **** 		xsir,
 761:testSvf2Csvf.cpp **** 		xsdrsize,
 762:testSvf2Csvf.cpp **** 		xsdr,
 763:testSvf2Csvf.cpp **** 		xsdr,
 764:testSvf2Csvf.cpp **** 		xruntest1,
 765:testSvf2Csvf.cpp **** 		xcomplete
 766:testSvf2Csvf.cpp **** 	};
 4218              		.loc 3 766 0
 4219 2a39 488D8512 		leaq	-9454(%rbp), %rax
 4219      DBFFFF
 4220 2a40 48898510 		movq	%rax, -9200(%rbp)
 4220      DCFFFF
 4221 2a47 488D8510 		leaq	-9456(%rbp), %rax
 4221      DBFFFF
 4222 2a4e 48898518 		movq	%rax, -9192(%rbp)
 4222      DCFFFF
 4223 2a55 488D850F 		leaq	-9457(%rbp), %rax
 4223      DBFFFF
 4224 2a5c 48898520 		movq	%rax, -9184(%rbp)
 4224      DCFFFF
 4225 2a63 488D850F 		leaq	-9457(%rbp), %rax
 4225      DBFFFF
 4226 2a6a 48898528 		movq	%rax, -9176(%rbp)
 4226      DCFFFF
 4227 2a71 488D45D0 		leaq	-48(%rbp), %rax
 4228 2a75 48898530 		movq	%rax, -9168(%rbp)
 4228      DCFFFF
 4229 2a7c 488D850E 		leaq	-9458(%rbp), %rax
 4229      DBFFFF
 4230 2a83 48898538 		movq	%rax, -9160(%rbp)
 4230      DCFFFF
 767:testSvf2Csvf.cpp **** 	const CmdPtr exp2[] = {
 768:testSvf2Csvf.cpp **** 		xruntest0,
 769:testSvf2Csvf.cpp **** 		xsir,
 770:testSvf2Csvf.cpp **** 		xsdrsize,
 771:testSvf2Csvf.cpp **** 		xsdr,
 772:testSvf2Csvf.cpp **** 		xruntest1,
 773:testSvf2Csvf.cpp **** 		xsdr,
 774:testSvf2Csvf.cpp **** 		xcomplete
 775:testSvf2Csvf.cpp **** 	};
 4231              		.loc 3 775 0
 4232 2a8a 488D45C0 		leaq	-64(%rbp), %rax
 4233 2a8e 48898570 		movq	%rax, -9104(%rbp)
 4233      DCFFFF
 4234 2a95 488D8512 		leaq	-9454(%rbp), %rax
 4234      DBFFFF
 4235 2a9c 48898578 		movq	%rax, -9096(%rbp)
 4235      DCFFFF
 4236 2aa3 488D8510 		leaq	-9456(%rbp), %rax
 4236      DBFFFF
 4237 2aaa 48898580 		movq	%rax, -9088(%rbp)
 4237      DCFFFF
 4238 2ab1 488D850F 		leaq	-9457(%rbp), %rax
 4238      DBFFFF
 4239 2ab8 48898588 		movq	%rax, -9080(%rbp)
 4239      DCFFFF
 4240 2abf 488D45D0 		leaq	-48(%rbp), %rax
 4241 2ac3 48898590 		movq	%rax, -9072(%rbp)
 4241      DCFFFF
 4242 2aca 488D850F 		leaq	-9457(%rbp), %rax
 4242      DBFFFF
 4243 2ad1 48898598 		movq	%rax, -9064(%rbp)
 4243      DCFFFF
 4244 2ad8 488D850E 		leaq	-9458(%rbp), %rax
 4244      DBFFFF
 4245 2adf 488985A0 		movq	%rax, -9056(%rbp)
 4245      DCFFFF
 776:testSvf2Csvf.cpp **** 	const CmdPtr src3[] = {
 777:testSvf2Csvf.cpp **** 		xsir,
 778:testSvf2Csvf.cpp **** 		xsdrsize,
 779:testSvf2Csvf.cpp **** 		xsdr,
 780:testSvf2Csvf.cpp **** 		xruntest1,
 781:testSvf2Csvf.cpp **** 		xsdr,
 782:testSvf2Csvf.cpp **** 		xcomplete
 783:testSvf2Csvf.cpp **** 	};
 4246              		.loc 3 783 0
 4247 2ae6 488D8512 		leaq	-9454(%rbp), %rax
 4247      DBFFFF
 4248 2aed 48898540 		movq	%rax, -9152(%rbp)
 4248      DCFFFF
 4249 2af4 488D8510 		leaq	-9456(%rbp), %rax
 4249      DBFFFF
 4250 2afb 48898548 		movq	%rax, -9144(%rbp)
 4250      DCFFFF
 4251 2b02 488D850F 		leaq	-9457(%rbp), %rax
 4251      DBFFFF
 4252 2b09 48898550 		movq	%rax, -9136(%rbp)
 4252      DCFFFF
 4253 2b10 488D45D0 		leaq	-48(%rbp), %rax
 4254 2b14 48898558 		movq	%rax, -9128(%rbp)
 4254      DCFFFF
 4255 2b1b 488D850F 		leaq	-9457(%rbp), %rax
 4255      DBFFFF
 4256 2b22 48898560 		movq	%rax, -9120(%rbp)
 4256      DCFFFF
 4257 2b29 488D850E 		leaq	-9458(%rbp), %rax
 4257      DBFFFF
 4258 2b30 48898568 		movq	%rax, -9112(%rbp)
 4258      DCFFFF
 784:testSvf2Csvf.cpp **** 	const CmdPtr exp3[] = {
 785:testSvf2Csvf.cpp **** 		xruntest0,
 786:testSvf2Csvf.cpp **** 		xsir,
 787:testSvf2Csvf.cpp **** 		xruntest1,
 788:testSvf2Csvf.cpp **** 		xsdrsize,
 789:testSvf2Csvf.cpp **** 		xsdr,
 790:testSvf2Csvf.cpp **** 		xruntest0,
 791:testSvf2Csvf.cpp **** 		xsdr,
 792:testSvf2Csvf.cpp **** 		xcomplete
 793:testSvf2Csvf.cpp **** 	};
 4259              		.loc 3 793 0
 4260 2b37 488D45C0 		leaq	-64(%rbp), %rax
 4261 2b3b 488985B0 		movq	%rax, -9040(%rbp)
 4261      DCFFFF
 4262 2b42 488D8512 		leaq	-9454(%rbp), %rax
 4262      DBFFFF
 4263 2b49 488985B8 		movq	%rax, -9032(%rbp)
 4263      DCFFFF
 4264 2b50 488D45D0 		leaq	-48(%rbp), %rax
 4265 2b54 488985C0 		movq	%rax, -9024(%rbp)
 4265      DCFFFF
 4266 2b5b 488D8510 		leaq	-9456(%rbp), %rax
 4266      DBFFFF
 4267 2b62 488985C8 		movq	%rax, -9016(%rbp)
 4267      DCFFFF
 4268 2b69 488D850F 		leaq	-9457(%rbp), %rax
 4268      DBFFFF
 4269 2b70 488985D0 		movq	%rax, -9008(%rbp)
 4269      DCFFFF
 4270 2b77 488D45C0 		leaq	-64(%rbp), %rax
 4271 2b7b 488985D8 		movq	%rax, -9000(%rbp)
 4271      DCFFFF
 4272 2b82 488D850F 		leaq	-9457(%rbp), %rax
 4272      DBFFFF
 4273 2b89 488985E0 		movq	%rax, -8992(%rbp)
 4273      DCFFFF
 4274 2b90 488D850E 		leaq	-9458(%rbp), %rax
 4274      DBFFFF
 4275 2b97 488985E8 		movq	%rax, -8984(%rbp)
 4275      DCFFFF
 794:testSvf2Csvf.cpp **** 	const CmdPtr src4[] = {
 795:testSvf2Csvf.cpp **** 		xsir,
 796:testSvf2Csvf.cpp **** 		xsdrsize,
 797:testSvf2Csvf.cpp **** 		xtdomask,
 798:testSvf2Csvf.cpp **** 		xsdrtdo,
 799:testSvf2Csvf.cpp **** 		xsdrsize,
 800:testSvf2Csvf.cpp **** 		xsdr,
 801:testSvf2Csvf.cpp **** 		xruntest1,
 802:testSvf2Csvf.cpp **** 		xcomplete
 803:testSvf2Csvf.cpp **** 	};
 4276              		.loc 3 803 0
 4277 2b9e 488D8512 		leaq	-9454(%rbp), %rax
 4277      DBFFFF
 4278 2ba5 488985F0 		movq	%rax, -8976(%rbp)
 4278      DCFFFF
 4279 2bac 488D8510 		leaq	-9456(%rbp), %rax
 4279      DBFFFF
 4280 2bb3 488985F8 		movq	%rax, -8968(%rbp)
 4280      DCFFFF
 4281 2bba 488D8513 		leaq	-9453(%rbp), %rax
 4281      DBFFFF
 4282 2bc1 48898500 		movq	%rax, -8960(%rbp)
 4282      DDFFFF
 4283 2bc8 488D8511 		leaq	-9455(%rbp), %rax
 4283      DBFFFF
 4284 2bcf 48898508 		movq	%rax, -8952(%rbp)
 4284      DDFFFF
 4285 2bd6 488D8510 		leaq	-9456(%rbp), %rax
 4285      DBFFFF
 4286 2bdd 48898510 		movq	%rax, -8944(%rbp)
 4286      DDFFFF
 4287 2be4 488D850F 		leaq	-9457(%rbp), %rax
 4287      DBFFFF
 4288 2beb 48898518 		movq	%rax, -8936(%rbp)
 4288      DDFFFF
 4289 2bf2 488D45D0 		leaq	-48(%rbp), %rax
 4290 2bf6 48898520 		movq	%rax, -8928(%rbp)
 4290      DDFFFF
 4291 2bfd 488D850E 		leaq	-9458(%rbp), %rax
 4291      DBFFFF
 4292 2c04 48898528 		movq	%rax, -8920(%rbp)
 4292      DDFFFF
 804:testSvf2Csvf.cpp **** 	const CmdPtr exp4[] = {
 805:testSvf2Csvf.cpp **** 		xruntest0,
 806:testSvf2Csvf.cpp **** 		xsir,
 807:testSvf2Csvf.cpp **** 		xsdrsize,
 808:testSvf2Csvf.cpp **** 		xtdomask,
 809:testSvf2Csvf.cpp **** 		xsdrtdo,
 810:testSvf2Csvf.cpp **** 		xruntest1,
 811:testSvf2Csvf.cpp **** 		xsdrsize,
 812:testSvf2Csvf.cpp **** 		xsdr,
 813:testSvf2Csvf.cpp **** 		xcomplete
 814:testSvf2Csvf.cpp **** 	};
 4293              		.loc 3 814 0
 4294 2c0b 488D45C0 		leaq	-64(%rbp), %rax
 4295 2c0f 48898530 		movq	%rax, -8912(%rbp)
 4295      DDFFFF
 4296 2c16 488D8512 		leaq	-9454(%rbp), %rax
 4296      DBFFFF
 4297 2c1d 48898538 		movq	%rax, -8904(%rbp)
 4297      DDFFFF
 4298 2c24 488D8510 		leaq	-9456(%rbp), %rax
 4298      DBFFFF
 4299 2c2b 48898540 		movq	%rax, -8896(%rbp)
 4299      DDFFFF
 4300 2c32 488D8513 		leaq	-9453(%rbp), %rax
 4300      DBFFFF
 4301 2c39 48898548 		movq	%rax, -8888(%rbp)
 4301      DDFFFF
 4302 2c40 488D8511 		leaq	-9455(%rbp), %rax
 4302      DBFFFF
 4303 2c47 48898550 		movq	%rax, -8880(%rbp)
 4303      DDFFFF
 4304 2c4e 488D45D0 		leaq	-48(%rbp), %rax
 4305 2c52 48898558 		movq	%rax, -8872(%rbp)
 4305      DDFFFF
 4306 2c59 488D8510 		leaq	-9456(%rbp), %rax
 4306      DBFFFF
 4307 2c60 48898560 		movq	%rax, -8864(%rbp)
 4307      DDFFFF
 4308 2c67 488D850F 		leaq	-9457(%rbp), %rax
 4308      DBFFFF
 4309 2c6e 48898568 		movq	%rax, -8856(%rbp)
 4309      DDFFFF
 4310 2c75 488D850E 		leaq	-9458(%rbp), %rax
 4310      DBFFFF
 4311 2c7c 48898570 		movq	%rax, -8848(%rbp)
 4311      DDFFFF
 815:testSvf2Csvf.cpp **** 	const CmdPtr *const src[] = {src0, src1, src2, src3, src4};
 4312              		.loc 3 815 0
 4313 2c83 488D8580 		leaq	-8832(%rbp), %rax
 4313      DDFFFF
 4314 2c8a 48898580 		movq	%rax, -9344(%rbp)
 4314      DBFFFF
 4315 2c91 488D8550 		leaq	-9392(%rbp), %rax
 4315      DBFFFF
 4316 2c98 48898588 		movq	%rax, -9336(%rbp)
 4316      DBFFFF
 4317 2c9f 488D8510 		leaq	-9200(%rbp), %rax
 4317      DCFFFF
 4318 2ca6 48898590 		movq	%rax, -9328(%rbp)
 4318      DBFFFF
 4319 2cad 488D8540 		leaq	-9152(%rbp), %rax
 4319      DCFFFF
 4320 2cb4 48898598 		movq	%rax, -9320(%rbp)
 4320      DBFFFF
 4321 2cbb 488D85F0 		leaq	-8976(%rbp), %rax
 4321      DCFFFF
 4322 2cc2 488985A0 		movq	%rax, -9312(%rbp)
 4322      DBFFFF
 816:testSvf2Csvf.cpp **** 	const CmdPtr *const exp[] = {exp0, exp1, exp2, exp3, exp4};
 4323              		.loc 3 816 0
 4324 2cc9 488D8590 		leaq	-8560(%rbp), %rax
 4324      DEFFFF
 4325 2cd0 488985B0 		movq	%rax, -9296(%rbp)
 4325      DBFFFF
 4326 2cd7 488D85E0 		leaq	-9248(%rbp), %rax
 4326      DBFFFF
 4327 2cde 488985B8 		movq	%rax, -9288(%rbp)
 4327      DBFFFF
 4328 2ce5 488D8570 		leaq	-9104(%rbp), %rax
 4328      DCFFFF
 4329 2cec 488985C0 		movq	%rax, -9280(%rbp)
 4329      DBFFFF
 4330 2cf3 488D85B0 		leaq	-9040(%rbp), %rax
 4330      DCFFFF
 4331 2cfa 488985C8 		movq	%rax, -9272(%rbp)
 4331      DBFFFF
 4332 2d01 488D8530 		leaq	-8912(%rbp), %rax
 4332      DDFFFF
 4333 2d08 488985D0 		movq	%rax, -9264(%rbp)
 4333      DBFFFF
 817:testSvf2Csvf.cpp **** 	const uint8 *dst[1024];  // worst case 2x
 818:testSvf2Csvf.cpp **** 	num = sizeof(src) / sizeof(src[0]);
 4334              		.loc 3 818 0
 4335 2d0f B8050000 		movl	$5, %eax
 4335      00
 4336 2d14 89851CDB 		movl	%eax, -9444(%rbp)
 4336      FFFF
 819:testSvf2Csvf.cpp **** 	for ( i = 0; i < num; i++ ) {
 4337              		.loc 3 819 0
 4338 2d1a C78514DB 		movl	$0, -9452(%rbp)
 4338      FFFF0000 
 4338      0000
 4339 2d24 E9DC0100 		jmp	.L154
 4339      00
 4340              	.L160:
 820:testSvf2Csvf.cpp **** 		printf("Dataset %d\n", i);
 4341              		.loc 3 820 0
 4342 2d29 8B8514DB 		movl	-9452(%rbp), %eax
 4342      FFFF
 4343 2d2f 89C6     		movl	%eax, %esi
 4344 2d31 BF000000 		movl	$.LC129, %edi
 4344      00
 4345 2d36 B8000000 		movl	$0, %eax
 4345      00
 4346              	.LEHB119:
 4347 2d3b E8000000 		call	printf
 4347      00
 821:testSvf2Csvf.cpp **** 		processIndex(src[i], dst);
 4348              		.loc 3 821 0
 4349 2d40 8B8514DB 		movl	-9452(%rbp), %eax
 4349      FFFF
 4350 2d46 4898     		cltq
 4351 2d48 488B84C5 		movq	-9344(%rbp,%rax,8), %rax
 4351      80DBFFFF 
 4352 2d50 488D95C0 		leaq	-8256(%rbp), %rdx
 4352      DFFFFF
 4353 2d57 4889D6   		movq	%rdx, %rsi
 4354 2d5a 4889C7   		movq	%rax, %rdi
 4355 2d5d E8000000 		call	processIndex
 4355      00
 822:testSvf2Csvf.cpp **** 		pExpected = exp[i];
 4356              		.loc 3 822 0
 4357 2d62 8B8514DB 		movl	-9452(%rbp), %eax
 4357      FFFF
 4358 2d68 4898     		cltq
 4359 2d6a 488B84C5 		movq	-9296(%rbp,%rax,8), %rax
 4359      B0DBFFFF 
 4360 2d72 48898520 		movq	%rax, -9440(%rbp)
 4360      DBFFFF
 823:testSvf2Csvf.cpp **** 		pActual = dst;
 4361              		.loc 3 823 0
 4362 2d79 488D85C0 		leaq	-8256(%rbp), %rax
 4362      DFFFFF
 4363 2d80 48898528 		movq	%rax, -9432(%rbp)
 4363      DBFFFF
 824:testSvf2Csvf.cpp **** 		j = 0;
 4364              		.loc 3 824 0
 4365 2d87 C78518DB 		movl	$0, -9448(%rbp)
 4365      FFFF0000 
 4365      0000
 825:testSvf2Csvf.cpp **** 		while ( **pExpected != XCOMPLETE && **pActual != XCOMPLETE ) {
 4366              		.loc 3 825 0
 4367 2d91 EB43     		jmp	.L155
 4368              	.L157:
 826:testSvf2Csvf.cpp **** 			compare(j++, *pExpected++, *pActual++);
 4369              		.loc 3 826 0
 4370 2d93 488B8528 		movq	-9432(%rbp), %rax
 4370      DBFFFF
 4371 2d9a 488D5008 		leaq	8(%rax), %rdx
 4372 2d9e 48899528 		movq	%rdx, -9432(%rbp)
 4372      DBFFFF
 4373 2da5 488B10   		movq	(%rax), %rdx
 4374 2da8 488B8520 		movq	-9440(%rbp), %rax
 4374      DBFFFF
 4375 2daf 488D4808 		leaq	8(%rax), %rcx
 4376 2db3 48898D20 		movq	%rcx, -9440(%rbp)
 4376      DBFFFF
 4377 2dba 488B08   		movq	(%rax), %rcx
 4378 2dbd 8B8518DB 		movl	-9448(%rbp), %eax
 4378      FFFF
 4379 2dc3 8D7001   		leal	1(%rax), %esi
 4380 2dc6 89B518DB 		movl	%esi, -9448(%rbp)
 4380      FFFF
 4381 2dcc 4889CE   		movq	%rcx, %rsi
 4382 2dcf 89C7     		movl	%eax, %edi
 4383 2dd1 E8B5F5FF 		call	_ZL7compareiPKhS0_
 4383      FF
 4384              	.L155:
 825:testSvf2Csvf.cpp **** 		while ( **pExpected != XCOMPLETE && **pActual != XCOMPLETE ) {
 4385              		.loc 3 825 0 discriminator 1
 4386 2dd6 488B8520 		movq	-9440(%rbp), %rax
 4386      DBFFFF
 4387 2ddd 488B00   		movq	(%rax), %rax
 4388 2de0 0FB600   		movzbl	(%rax), %eax
 4389 2de3 84C0     		testb	%al, %al
 4390 2de5 7411     		je	.L156
 825:testSvf2Csvf.cpp **** 		while ( **pExpected != XCOMPLETE && **pActual != XCOMPLETE ) {
 4391              		.loc 3 825 0 is_stmt 0 discriminator 2
 4392 2de7 488B8528 		movq	-9432(%rbp), %rax
 4392      DBFFFF
 4393 2dee 488B00   		movq	(%rax), %rax
 4394 2df1 0FB600   		movzbl	(%rax), %eax
 4395 2df4 84C0     		testb	%al, %al
 4396 2df6 759B     		jne	.L157
 4397              	.L156:
 827:testSvf2Csvf.cpp **** 		}
 828:testSvf2Csvf.cpp **** 		printf("  [%d] %s:%s\n", j, getCmdName(*pExpected), getCmdName(*pActual));
 4398              		.loc 3 828 0 is_stmt 1
 4399 2df8 488B8528 		movq	-9432(%rbp), %rax
 4399      DBFFFF
 4400 2dff 488B00   		movq	(%rax), %rax
 4401 2e02 4889C7   		movq	%rax, %rdi
 4402 2e05 E8000000 		call	getCmdName
 4402      00
 4403 2e0a 4889C3   		movq	%rax, %rbx
 4404 2e0d 488B8520 		movq	-9440(%rbp), %rax
 4404      DBFFFF
 4405 2e14 488B00   		movq	(%rax), %rax
 4406 2e17 4889C7   		movq	%rax, %rdi
 4407 2e1a E8000000 		call	getCmdName
 4407      00
 4408 2e1f 4889C2   		movq	%rax, %rdx
 4409 2e22 8B8518DB 		movl	-9448(%rbp), %eax
 4409      FFFF
 4410 2e28 4889D9   		movq	%rbx, %rcx
 4411 2e2b 89C6     		movl	%eax, %esi
 4412 2e2d BF000000 		movl	$.LC125, %edi
 4412      00
 4413 2e32 B8000000 		movl	$0, %eax
 4413      00
 4414 2e37 E8000000 		call	printf
 4414      00
 4415              	.LEHE119:
 829:testSvf2Csvf.cpp **** 		CHECK(**pExpected == XCOMPLETE);
 4416              		.loc 3 829 0
 4417 2e3c 488B8520 		movq	-9440(%rbp), %rax
 4417      DBFFFF
 4418 2e43 488B00   		movq	(%rax), %rax
 4419 2e46 0FB600   		movzbl	(%rax), %eax
 4420 2e49 84C0     		testb	%al, %al
 4421 2e4b 0F94C0   		sete	%al
 4422 2e4e 0FB6C0   		movzbl	%al, %eax
 4423 2e51 89C7     		movl	%eax, %edi
 4424 2e53 E8000000 		call	_ZN8UnitTest5CheckIbEEbT_
 4424      00
 4425 2e58 83F001   		xorl	$1, %eax
 4426 2e5b 84C0     		testb	%al, %al
 4427 2e5d 743E     		je	.L158
 4428              	.LEHB120:
 4429              		.loc 3 829 0 is_stmt 0 discriminator 1
 4430 2e5f E8000000 		call	_ZN8UnitTest11CurrentTest7DetailsEv
 4430      00
 4431 2e64 488B08   		movq	(%rax), %rcx
 4432 2e67 488D8530 		leaq	-9424(%rbp), %rax
 4432      DBFFFF
 4433 2e6e BA3D0300 		movl	$829, %edx
 4433      00
 4434 2e73 4889CE   		movq	%rcx, %rsi
 4435 2e76 4889C7   		movq	%rax, %rdi
 4436 2e79 E8000000 		call	_ZN8UnitTest11TestDetailsC1ERKS0_i
 4436      00
 4437 2e7e E8000000 		call	_ZN8UnitTest11CurrentTest7ResultsEv
 4437      00
 4438 2e83 488B00   		movq	(%rax), %rax
 4439 2e86 488D8D30 		leaq	-9424(%rbp), %rcx
 4439      DBFFFF
 4440 2e8d BA000000 		movl	$.LC130, %edx
 4440      00
 4441 2e92 4889CE   		movq	%rcx, %rsi
 4442 2e95 4889C7   		movq	%rax, %rdi
 4443 2e98 E8000000 		call	_ZN8UnitTest11TestResults13OnTestFailureERKNS_11TestDetailsEPKc
 4443      00
 4444              	.LEHE120:
 4445              	.L158:
 830:testSvf2Csvf.cpp **** 		CHECK(**pActual == XCOMPLETE);
 4446              		.loc 3 830 0 is_stmt 1
 4447 2e9d 488B8528 		movq	-9432(%rbp), %rax
 4447      DBFFFF
 4448 2ea4 488B00   		movq	(%rax), %rax
 4449 2ea7 0FB600   		movzbl	(%rax), %eax
 4450 2eaa 84C0     		testb	%al, %al
 4451 2eac 0F94C0   		sete	%al
 4452 2eaf 0FB6C0   		movzbl	%al, %eax
 4453 2eb2 89C7     		movl	%eax, %edi
 4454 2eb4 E8000000 		call	_ZN8UnitTest5CheckIbEEbT_
 4454      00
 4455 2eb9 83F001   		xorl	$1, %eax
 4456 2ebc 84C0     		testb	%al, %al
 4457 2ebe 743E     		je	.L159
 4458              	.LEHB121:
 4459              		.loc 3 830 0 is_stmt 0 discriminator 1
 4460 2ec0 E8000000 		call	_ZN8UnitTest11CurrentTest7DetailsEv
 4460      00
 4461 2ec5 488B08   		movq	(%rax), %rcx
 4462 2ec8 488D8530 		leaq	-9424(%rbp), %rax
 4462      DBFFFF
 4463 2ecf BA3E0300 		movl	$830, %edx
 4463      00
 4464 2ed4 4889CE   		movq	%rcx, %rsi
 4465 2ed7 4889C7   		movq	%rax, %rdi
 4466 2eda E8000000 		call	_ZN8UnitTest11TestDetailsC1ERKS0_i
 4466      00
 4467 2edf E8000000 		call	_ZN8UnitTest11CurrentTest7ResultsEv
 4467      00
 4468 2ee4 488B00   		movq	(%rax), %rax
 4469 2ee7 488D8D30 		leaq	-9424(%rbp), %rcx
 4469      DBFFFF
 4470 2eee BA000000 		movl	$.LC131, %edx
 4470      00
 4471 2ef3 4889CE   		movq	%rcx, %rsi
 4472 2ef6 4889C7   		movq	%rax, %rdi
 4473 2ef9 E8000000 		call	_ZN8UnitTest11TestResults13OnTestFailureERKNS_11TestDetailsEPKc
 4473      00
 4474              	.LEHE121:
 4475              	.L159:
 819:testSvf2Csvf.cpp **** 		printf("Dataset %d\n", i);
 4476              		.loc 3 819 0 is_stmt 1
 4477 2efe 838514DB 		addl	$1, -9452(%rbp)
 4477      FFFF01
 4478              	.L154:
 819:testSvf2Csvf.cpp **** 		printf("Dataset %d\n", i);
 4479              		.loc 3 819 0 is_stmt 0 discriminator 1
 4480 2f05 8B8514DB 		movl	-9452(%rbp), %eax
 4480      FFFF
 4481 2f0b 3B851CDB 		cmpl	-9444(%rbp), %eax
 4481      FFFF
 4482 2f11 0F8C12FE 		jl	.L160
 4482      FFFF
 4483              	.LBE20:
 831:testSvf2Csvf.cpp **** 	}
 832:testSvf2Csvf.cpp **** }
 4484              		.loc 3 832 0 is_stmt 1
 4485 2f17 488B45E8 		movq	-24(%rbp), %rax
 4486 2f1b 64483304 		xorq	%fs:40, %rax
 4486      25280000 
 4486      00
 4487 2f24 0F84D000 		je	.L165
 4487      0000
 4488 2f2a E9C60000 		jmp	.L170
 4488      00
 4489              	.L167:
 4490 2f2f 4889C3   		movq	%rax, %rbx
 4491              	.LBB21:
 829:testSvf2Csvf.cpp **** 		CHECK(**pActual == XCOMPLETE);
 4492              		.loc 3 829 0
 4493 2f32 E8000000 		call	__cxa_end_catch
 4493      00
 4494 2f37 4889D8   		movq	%rbx, %rax
 4495 2f3a 4889C7   		movq	%rax, %rdi
 4496              	.LEHB122:
 4497 2f3d E8000000 		call	_Unwind_Resume
 4497      00
 4498              	.LEHE122:
 4499              	.L166:
 4500 2f42 4889C7   		movq	%rax, %rdi
 4501 2f45 E8000000 		call	__cxa_begin_catch
 4501      00
 4502              	.LEHB123:
 4503 2f4a E8000000 		call	_ZN8UnitTest11CurrentTest7DetailsEv
 4503      00
 4504 2f4f 488B08   		movq	(%rax), %rcx
 4505 2f52 488D8530 		leaq	-9424(%rbp), %rax
 4505      DBFFFF
 4506 2f59 BA3D0300 		movl	$829, %edx
 4506      00
 4507 2f5e 4889CE   		movq	%rcx, %rsi
 4508 2f61 4889C7   		movq	%rax, %rdi
 4509 2f64 E8000000 		call	_ZN8UnitTest11TestDetailsC1ERKS0_i
 4509      00
 829:testSvf2Csvf.cpp **** 		CHECK(**pActual == XCOMPLETE);
 4510              		.loc 3 829 0 is_stmt 0 discriminator 1
 4511 2f69 E8000000 		call	_ZN8UnitTest11CurrentTest7ResultsEv
 4511      00
 4512 2f6e 488B00   		movq	(%rax), %rax
 4513 2f71 488D8D30 		leaq	-9424(%rbp), %rcx
 4513      DBFFFF
 4514 2f78 BA000000 		movl	$.LC132, %edx
 4514      00
 4515 2f7d 4889CE   		movq	%rcx, %rsi
 4516 2f80 4889C7   		movq	%rax, %rdi
 4517 2f83 E8000000 		call	_ZN8UnitTest11TestResults13OnTestFailureERKNS_11TestDetailsEPKc
 4517      00
 4518              	.LEHE123:
 4519              	.LEHB124:
 4520 2f88 E8000000 		call	__cxa_end_catch
 4520      00
 4521              	.LEHE124:
 4522 2f8d E90BFFFF 		jmp	.L158
 4522      FF
 4523              	.L169:
 4524 2f92 4889C3   		movq	%rax, %rbx
 830:testSvf2Csvf.cpp **** 	}
 4525              		.loc 3 830 0 is_stmt 1
 4526 2f95 E8000000 		call	__cxa_end_catch
 4526      00
 4527 2f9a 4889D8   		movq	%rbx, %rax
 4528 2f9d 4889C7   		movq	%rax, %rdi
 4529              	.LEHB125:
 4530 2fa0 E8000000 		call	_Unwind_Resume
 4530      00
 4531              	.LEHE125:
 4532              	.L168:
 4533 2fa5 4889C7   		movq	%rax, %rdi
 4534 2fa8 E8000000 		call	__cxa_begin_catch
 4534      00
 4535              	.LEHB126:
 4536 2fad E8000000 		call	_ZN8UnitTest11CurrentTest7DetailsEv
 4536      00
 4537 2fb2 488B08   		movq	(%rax), %rcx
 4538 2fb5 488D8530 		leaq	-9424(%rbp), %rax
 4538      DBFFFF
 4539 2fbc BA3E0300 		movl	$830, %edx
 4539      00
 4540 2fc1 4889CE   		movq	%rcx, %rsi
 4541 2fc4 4889C7   		movq	%rax, %rdi
 4542 2fc7 E8000000 		call	_ZN8UnitTest11TestDetailsC1ERKS0_i
 4542      00
 830:testSvf2Csvf.cpp **** 	}
 4543              		.loc 3 830 0 is_stmt 0 discriminator 1
 4544 2fcc E8000000 		call	_ZN8UnitTest11CurrentTest7ResultsEv
 4544      00
 4545 2fd1 488B00   		movq	(%rax), %rax
 4546 2fd4 488D8D30 		leaq	-9424(%rbp), %rcx
 4546      DBFFFF
 4547 2fdb BA000000 		movl	$.LC133, %edx
 4547      00
 4548 2fe0 4889CE   		movq	%rcx, %rsi
 4549 2fe3 4889C7   		movq	%rax, %rdi
 4550 2fe6 E8000000 		call	_ZN8UnitTest11TestResults13OnTestFailureERKNS_11TestDetailsEPKc
 4550      00
 4551              	.LEHE126:
 4552              	.LEHB127:
 4553 2feb E8000000 		call	__cxa_end_catch
 4553      00
 4554              	.LEHE127:
 4555 2ff0 E909FFFF 		jmp	.L159
 4555      FF
 4556              	.L170:
 4557              	.LBE21:
 4558              		.loc 3 832 0 is_stmt 1
 4559 2ff5 E8000000 		call	__stack_chk_fail
 4559      00
 4560              	.L165:
 4561 2ffa 4881C408 		addq	$9480, %rsp
 4561      250000
 4562 3001 5B       		popq	%rbx
 4563 3002 5D       		popq	%rbp
 4564              		.cfi_def_cfa 7, 8
 4565 3003 C3       		ret
 4566              		.cfi_endproc
 4567              	.LFE1045:
 4568              		.section	.gcc_except_table
 4569              		.align 4
 4570              	.LLSDA1045:
 4571 02ac FF       		.byte	0xff
 4572 02ad 03       		.byte	0x3
 4573 02ae 3D       		.uleb128 .LLSDATT1045-.LLSDATTD1045
 4574              	.LLSDATTD1045:
 4575 02af 01       		.byte	0x1
 4576 02b0 32       		.uleb128 .LLSDACSE1045-.LLSDACSB1045
 4577              	.LLSDACSB1045:
 4578 02b1 D70F     		.uleb128 .LEHB119-.LFB1045
 4579 02b3 8102     		.uleb128 .LEHE119-.LEHB119
 4580 02b5 00       		.uleb128 0
 4581 02b6 00       		.uleb128 0
 4582 02b7 FB11     		.uleb128 .LEHB120-.LFB1045
 4583 02b9 3E       		.uleb128 .LEHE120-.LEHB120
 4584 02ba DE13     		.uleb128 .L166-.LFB1045
 4585 02bc 01       		.uleb128 0x1
 4586 02bd DC12     		.uleb128 .LEHB121-.LFB1045
 4587 02bf 3E       		.uleb128 .LEHE121-.LEHB121
 4588 02c0 C114     		.uleb128 .L168-.LFB1045
 4589 02c2 01       		.uleb128 0x1
 4590 02c3 D913     		.uleb128 .LEHB122-.LFB1045
 4591 02c5 05       		.uleb128 .LEHE122-.LEHB122
 4592 02c6 00       		.uleb128 0
 4593 02c7 00       		.uleb128 0
 4594 02c8 E613     		.uleb128 .LEHB123-.LFB1045
 4595 02ca 3E       		.uleb128 .LEHE123-.LEHB123
 4596 02cb CB13     		.uleb128 .L167-.LFB1045
 4597 02cd 00       		.uleb128 0
 4598 02ce A414     		.uleb128 .LEHB124-.LFB1045
 4599 02d0 05       		.uleb128 .LEHE124-.LEHB124
 4600 02d1 00       		.uleb128 0
 4601 02d2 00       		.uleb128 0
 4602 02d3 BC14     		.uleb128 .LEHB125-.LFB1045
 4603 02d5 05       		.uleb128 .LEHE125-.LEHB125
 4604 02d6 00       		.uleb128 0
 4605 02d7 00       		.uleb128 0
 4606 02d8 C914     		.uleb128 .LEHB126-.LFB1045
 4607 02da 3E       		.uleb128 .LEHE126-.LEHB126
 4608 02db AE14     		.uleb128 .L169-.LFB1045
 4609 02dd 00       		.uleb128 0
 4610 02de 8715     		.uleb128 .LEHB127-.LFB1045
 4611 02e0 05       		.uleb128 .LEHE127-.LEHB127
 4612 02e1 00       		.uleb128 0
 4613 02e2 00       		.uleb128 0
 4614              	.LLSDACSE1045:
 4615 02e3 01       		.byte	0x1
 4616 02e4 00       		.byte	0
 4617 02e5 000000   		.align 4
 4618 02e8 00000000 		.long	0
 4619              	
 4620              	.LLSDATT1045:
 4621              		.text
 4623              		.section	.rodata
 4624              	.LC134:
 4625 0b1d 46504741 		.string	"FPGALink_testBuildIndex"
 4625      4C696E6B 
 4625      5F746573 
 4625      74427569 
 4625      6C64496E 
 4626              		.section	.text._ZN27TestFPGALink_testBuildIndexC2Ev,"axG",@progbits,_ZN27TestFPGALink_testBuildInd
 4627              		.align 2
 4628              		.weak	_ZN27TestFPGALink_testBuildIndexC2Ev
 4630              	_ZN27TestFPGALink_testBuildIndexC2Ev:
 4631              	.LFB1047:
 833:testSvf2Csvf.cpp **** 
 834:testSvf2Csvf.cpp **** TEST(FPGALink_testBuildIndex) {
 4632              		.loc 3 834 0
 4633              		.cfi_startproc
 4634 0000 55       		pushq	%rbp
 4635              		.cfi_def_cfa_offset 16
 4636              		.cfi_offset 6, -16
 4637 0001 4889E5   		movq	%rsp, %rbp
 4638              		.cfi_def_cfa_register 6
 4639 0004 4883EC10 		subq	$16, %rsp
 4640 0008 48897DF8 		movq	%rdi, -8(%rbp)
 4641              	.LBB22:
 4642              		.loc 3 834 0
 4643 000c E8000000 		call	_ZN13UnitTestSuite12GetSuiteNameEv
 4643      00
 4644 0011 4889C2   		movq	%rax, %rdx
 4645 0014 488B45F8 		movq	-8(%rbp), %rax
 4646 0018 41B84203 		movl	$834, %r8d
 4646      0000
 4647 001e B9000000 		movl	$.LC5, %ecx
 4647      00
 4648 0023 BE000000 		movl	$.LC134, %esi
 4648      00
 4649 0028 4889C7   		movq	%rax, %rdi
 4650 002b E8000000 		call	_ZN8UnitTest4TestC2EPKcS2_S2_i
 4650      00
 4651 0030 488B45F8 		movq	-8(%rbp), %rax
 4652 0034 48C70000 		movq	$_ZTV27TestFPGALink_testBuildIndex+16, (%rax)
 4652      000000
 4653              	.LBE22:
 4654 003b C9       		leave
 4655              		.cfi_def_cfa 7, 8
 4656 003c C3       		ret
 4657              		.cfi_endproc
 4658              	.LFE1047:
 4660              		.weak	_ZN27TestFPGALink_testBuildIndexC1Ev
 4661              		.set	_ZN27TestFPGALink_testBuildIndexC1Ev,_ZN27TestFPGALink_testBuildIndexC2Ev
 4662              		.globl	testFPGALink_testBuildIndexInstance
 4663              		.bss
 4664 00f9 00000000 		.align 32
 4664      000000
 4667              	testFPGALink_testBuildIndexInstance:
 4668 0100 00000000 		.zero	56
 4668      00000000 
 4668      00000000 
 4668      00000000 
 4668      00000000 
 4669              		.globl	adderFPGALink_testBuildIndex
 4672              	adderFPGALink_testBuildIndex:
 4673 0138 00       		.zero	1
 4674              		.text
 4675              		.align 2
 4676              		.globl	_ZNK27TestFPGALink_testBuildIndex7RunImplEv
 4678              	_ZNK27TestFPGALink_testBuildIndex7RunImplEv:
 4679              	.LFB1049:
 4680              		.loc 3 834 0
 4681              		.cfi_startproc
 4682              		.cfi_personality 0x3,__gxx_personality_v0
 4683              		.cfi_lsda 0x3,.LLSDA1049
 4684 3004 55       		pushq	%rbp
 4685              		.cfi_def_cfa_offset 16
 4686              		.cfi_offset 6, -16
 4687 3005 4889E5   		movq	%rsp, %rbp
 4688              		.cfi_def_cfa_register 6
 4689 3008 53       		pushq	%rbx
 4690 3009 4881EC58 		subq	$856, %rsp
 4690      030000
 4691              		.cfi_offset 3, -24
 4692 3010 4889BDA8 		movq	%rdi, -856(%rbp)
 4692      FCFFFF
 4693              		.loc 3 834 0
 4694 3017 64488B04 		movq	%fs:40, %rax
 4694      25280000 
 4694      00
 4695 3020 488945E8 		movq	%rax, -24(%rbp)
 4696 3024 31C0     		xorl	%eax, %eax
 4697              	.LBB23:
 835:testSvf2Csvf.cpp **** 	const uint8 src[] = {
 836:testSvf2Csvf.cpp **** 		0x02, 0x06, 0x09, 0x08,  0x00, 0x00, 0x00, 0x20,
 837:testSvf2Csvf.cpp **** 		0x01, 0xFF, 0xFF, 0xFF,  0x0F, 0x09, 0x00, 0x93,
 838:testSvf2Csvf.cpp **** 		0x00, 0x80, 0x00, 0x61,  0x00, 0xF2, 0x08, 0x00,
 839:testSvf2Csvf.cpp **** 		0x00, 0x00, 0x05, 0x03,  0x00, 0x04, 0x00, 0x00,
 840:testSvf2Csvf.cpp **** 		0x00, 0x10, 0x00
 841:testSvf2Csvf.cpp **** 	};
 4698              		.loc 3 841 0
 4699 3026 C645C002 		movb	$2, -64(%rbp)
 4700 302a C645C106 		movb	$6, -63(%rbp)
 4701 302e C645C209 		movb	$9, -62(%rbp)
 4702 3032 C645C308 		movb	$8, -61(%rbp)
 4703 3036 C645C400 		movb	$0, -60(%rbp)
 4704 303a C645C500 		movb	$0, -59(%rbp)
 4705 303e C645C600 		movb	$0, -58(%rbp)
 4706 3042 C645C720 		movb	$32, -57(%rbp)
 4707 3046 C645C801 		movb	$1, -56(%rbp)
 4708 304a C645C9FF 		movb	$-1, -55(%rbp)
 4709 304e C645CAFF 		movb	$-1, -54(%rbp)
 4710 3052 C645CBFF 		movb	$-1, -53(%rbp)
 4711 3056 C645CC0F 		movb	$15, -52(%rbp)
 4712 305a C645CD09 		movb	$9, -51(%rbp)
 4713 305e C645CE00 		movb	$0, -50(%rbp)
 4714 3062 C645CF93 		movb	$-109, -49(%rbp)
 4715 3066 C645D000 		movb	$0, -48(%rbp)
 4716 306a C645D180 		movb	$-128, -47(%rbp)
 4717 306e C645D200 		movb	$0, -46(%rbp)
 4718 3072 C645D361 		movb	$97, -45(%rbp)
 4719 3076 C645D400 		movb	$0, -44(%rbp)
 4720 307a C645D5F2 		movb	$-14, -43(%rbp)
 4721 307e C645D608 		movb	$8, -42(%rbp)
 4722 3082 C645D700 		movb	$0, -41(%rbp)
 4723 3086 C645D800 		movb	$0, -40(%rbp)
 4724 308a C645D900 		movb	$0, -39(%rbp)
 4725 308e C645DA05 		movb	$5, -38(%rbp)
 4726 3092 C645DB03 		movb	$3, -37(%rbp)
 4727 3096 C645DC00 		movb	$0, -36(%rbp)
 4728 309a C645DD04 		movb	$4, -35(%rbp)
 4729 309e C645DE00 		movb	$0, -34(%rbp)
 4730 30a2 C645DF00 		movb	$0, -33(%rbp)
 4731 30a6 C645E000 		movb	$0, -32(%rbp)
 4732 30aa C645E110 		movb	$16, -31(%rbp)
 4733 30ae C645E200 		movb	$0, -30(%rbp)
 842:testSvf2Csvf.cpp **** 	const size_t len = sizeof(src);
 4734              		.loc 3 842 0
 4735 30b2 48C785C8 		movq	$35, -824(%rbp)
 4735      FCFFFF23 
 4735      000000
 843:testSvf2Csvf.cpp **** 	struct Buffer csvfBuf;
 844:testSvf2Csvf.cpp **** 	FLStatus fStatus;
 845:testSvf2Csvf.cpp **** 	struct ParseContext cxt;
 846:testSvf2Csvf.cpp **** 	BufferStatus bStatus = bufInitialise(&csvfBuf, len, 0x00, NULL);
 4736              		.loc 3 846 0
 4737 30bd 488D85D0 		leaq	-816(%rbp), %rax
 4737      FCFFFF
 4738 30c4 B9000000 		movl	$0, %ecx
 4738      00
 4739 30c9 BA000000 		movl	$0, %edx
 4739      00
 4740 30ce BE230000 		movl	$35, %esi
 4740      00
 4741 30d3 4889C7   		movq	%rax, %rdi
 4742              	.LEHB128:
 4743 30d6 E8000000 		call	bufInitialise
 4743      00
 4744              	.LEHE128:
 4745 30db 8985C0FC 		movl	%eax, -832(%rbp)
 4745      FFFF
 4746              	.LEHB129:
 847:testSvf2Csvf.cpp **** 	CHECK_EQUAL(BUF_SUCCESS, bStatus);
 4747              		.loc 3 847 0
 4748 30e1 E8000000 		call	_ZN8UnitTest11CurrentTest7DetailsEv
 4748      00
 4749 30e6 488B08   		movq	(%rax), %rcx
 4750 30e9 488D8510 		leaq	-752(%rbp), %rax
 4750      FDFFFF
 4751 30f0 BA4F0300 		movl	$847, %edx
 4751      00
 4752 30f5 4889CE   		movq	%rcx, %rsi
 4753 30f8 4889C7   		movq	%rax, %rdi
 4754 30fb E8000000 		call	_ZN8UnitTest11TestDetailsC1ERKS0_i
 4754      00
 4755              		.loc 3 847 0 is_stmt 0 discriminator 1
 4756 3100 C785F0FC 		movl	$0, -784(%rbp)
 4756      FFFF0000 
 4756      0000
 4757 310a E8000000 		call	_ZN8UnitTest11CurrentTest7ResultsEv
 4757      00
 4758 310f 488B00   		movq	(%rax), %rax
 4759 3112 488D8D10 		leaq	-752(%rbp), %rcx
 4759      FDFFFF
 4760 3119 488D95C0 		leaq	-832(%rbp), %rdx
 4760      FCFFFF
 4761 3120 488DB5F0 		leaq	-784(%rbp), %rsi
 4761      FCFFFF
 4762 3127 4889C7   		movq	%rax, %rdi
 4763 312a E8000000 		call	_ZN8UnitTest10CheckEqualI12BufferStatusS1_EEvRNS_11TestResultsERKT_RKT0_RKNS_11TestDetailsE
 4763      00
 4764              	.LEHE129:
 4765              	.L175:
 848:testSvf2Csvf.cpp **** 	memset(&cxt, 0, sizeof(cxt));
 4766              		.loc 3 848 0 is_stmt 1
 4767 312f 488D8510 		leaq	-752(%rbp), %rax
 4767      FDFFFF
 4768 3136 BAA80200 		movl	$680, %edx
 4768      00
 4769 313b BE000000 		movl	$0, %esi
 4769      00
 4770 3140 4889C7   		movq	%rax, %rdi
 4771 3143 E8000000 		call	memset
 4771      00
 849:testSvf2Csvf.cpp **** 	cxt.numCommands = 8;
 4772              		.loc 3 849 0
 4773 3148 C745AC08 		movl	$8, -84(%rbp)
 4773      000000
 850:testSvf2Csvf.cpp **** 	bStatus = bufAppendBlock(&csvfBuf, src, len, NULL);
 4774              		.loc 3 850 0
 4775 314f 488D75C0 		leaq	-64(%rbp), %rsi
 4776 3153 488D85D0 		leaq	-816(%rbp), %rax
 4776      FCFFFF
 4777 315a B9000000 		movl	$0, %ecx
 4777      00
 4778 315f BA230000 		movl	$35, %edx
 4778      00
 4779 3164 4889C7   		movq	%rax, %rdi
 4780              	.LEHB130:
 4781 3167 E8000000 		call	bufAppendBlock
 4781      00
 4782              	.LEHE130:
 4783 316c 8985C0FC 		movl	%eax, -832(%rbp)
 4783      FFFF
 4784              	.LEHB131:
 851:testSvf2Csvf.cpp **** 	CHECK_EQUAL(BUF_SUCCESS, bStatus);
 4785              		.loc 3 851 0
 4786 3172 E8000000 		call	_ZN8UnitTest11CurrentTest7DetailsEv
 4786      00
 4787 3177 488B08   		movq	(%rax), %rcx
 4788 317a 488D85F0 		leaq	-784(%rbp), %rax
 4788      FCFFFF
 4789 3181 BA530300 		movl	$851, %edx
 4789      00
 4790 3186 4889CE   		movq	%rcx, %rsi
 4791 3189 4889C7   		movq	%rax, %rdi
 4792 318c E8000000 		call	_ZN8UnitTest11TestDetailsC1ERKS0_i
 4792      00
 4793              		.loc 3 851 0 is_stmt 0 discriminator 1
 4794 3191 C785C4FC 		movl	$0, -828(%rbp)
 4794      FFFF0000 
 4794      0000
 4795 319b E8000000 		call	_ZN8UnitTest11CurrentTest7ResultsEv
 4795      00
 4796 31a0 488B00   		movq	(%rax), %rax
 4797 31a3 488D8DF0 		leaq	-784(%rbp), %rcx
 4797      FCFFFF
 4798 31aa 488D95C0 		leaq	-832(%rbp), %rdx
 4798      FCFFFF
 4799 31b1 488DB5C4 		leaq	-828(%rbp), %rsi
 4799      FCFFFF
 4800 31b8 4889C7   		movq	%rax, %rdi
 4801 31bb E8000000 		call	_ZN8UnitTest10CheckEqualI12BufferStatusS1_EEvRNS_11TestResultsERKT_RKT0_RKNS_11TestDetailsE
 4801      00
 4802              	.LEHE131:
 4803              	.L178:
 852:testSvf2Csvf.cpp **** 	fStatus = buildIndex(&cxt, &csvfBuf, NULL);
 4804              		.loc 3 852 0 is_stmt 1
 4805 31c0 488D8DD0 		leaq	-816(%rbp), %rcx
 4805      FCFFFF
 4806 31c7 488D8510 		leaq	-752(%rbp), %rax
 4806      FDFFFF
 4807 31ce BA000000 		movl	$0, %edx
 4807      00
 4808 31d3 4889CE   		movq	%rcx, %rsi
 4809 31d6 4889C7   		movq	%rax, %rdi
 4810              	.LEHB132:
 4811 31d9 E8000000 		call	buildIndex
 4811      00
 4812              	.LEHE132:
 4813 31de 8985BCFC 		movl	%eax, -836(%rbp)
 4813      FFFF
 4814              	.LEHB133:
 853:testSvf2Csvf.cpp **** 	CHECK_EQUAL(FL_SUCCESS, fStatus);
 4815              		.loc 3 853 0
 4816 31e4 E8000000 		call	_ZN8UnitTest11CurrentTest7DetailsEv
 4816      00
 4817 31e9 488B08   		movq	(%rax), %rcx
 4818 31ec 488D85F0 		leaq	-784(%rbp), %rax
 4818      FCFFFF
 4819 31f3 BA550300 		movl	$853, %edx
 4819      00
 4820 31f8 4889CE   		movq	%rcx, %rsi
 4821 31fb 4889C7   		movq	%rax, %rdi
 4822 31fe E8000000 		call	_ZN8UnitTest11TestDetailsC1ERKS0_i
 4822      00
 4823              		.loc 3 853 0 is_stmt 0 discriminator 1
 4824 3203 C785C4FC 		movl	$0, -828(%rbp)
 4824      FFFF0000 
 4824      0000
 4825 320d E8000000 		call	_ZN8UnitTest11CurrentTest7ResultsEv
 4825      00
 4826 3212 488B00   		movq	(%rax), %rax
 4827 3215 488D8DF0 		leaq	-784(%rbp), %rcx
 4827      FCFFFF
 4828 321c 488D95BC 		leaq	-836(%rbp), %rdx
 4828      FCFFFF
 4829 3223 488DB5C4 		leaq	-828(%rbp), %rsi
 4829      FCFFFF
 4830 322a 4889C7   		movq	%rax, %rdi
 4831 322d E8000000 		call	_ZN8UnitTest10CheckEqualI8FLStatusS1_EEvRNS_11TestResultsERKT_RKT0_RKNS_11TestDetailsE
 4831      00
 4832              	.LEHE133:
 4833              	.L181:
 854:testSvf2Csvf.cpp **** 	bufDestroy(&csvfBuf);
 4834              		.loc 3 854 0 is_stmt 1
 4835 3232 488D85D0 		leaq	-816(%rbp), %rax
 4835      FCFFFF
 4836 3239 4889C7   		movq	%rax, %rdi
 4837              	.LEHB134:
 4838 323c E8000000 		call	bufDestroy
 4838      00
 4839              	.LEHE134:
 4840              	.LBE23:
 855:testSvf2Csvf.cpp **** }
 4841              		.loc 3 855 0
 4842 3241 488B45E8 		movq	-24(%rbp), %rax
 4843 3245 64483304 		xorq	%fs:40, %rax
 4843      25280000 
 4843      00
 4844 324e 0F843301 		je	.L182
 4844      0000
 4845 3254 E9290100 		jmp	.L189
 4845      00
 4846              	.L184:
 4847 3259 4889C3   		movq	%rax, %rbx
 4848              	.LBB24:
 847:testSvf2Csvf.cpp **** 	memset(&cxt, 0, sizeof(cxt));
 4849              		.loc 3 847 0
 4850 325c E8000000 		call	__cxa_end_catch
 4850      00
 4851 3261 4889D8   		movq	%rbx, %rax
 4852 3264 4889C7   		movq	%rax, %rdi
 4853              	.LEHB135:
 4854 3267 E8000000 		call	_Unwind_Resume
 4854      00
 4855              	.LEHE135:
 4856              	.L183:
 4857 326c 4889C7   		movq	%rax, %rdi
 4858 326f E8000000 		call	__cxa_begin_catch
 4858      00
 4859              	.LEHB136:
 4860 3274 E8000000 		call	_ZN8UnitTest11CurrentTest7DetailsEv
 4860      00
 4861 3279 488B08   		movq	(%rax), %rcx
 4862 327c 488D8510 		leaq	-752(%rbp), %rax
 4862      FDFFFF
 4863 3283 BA4F0300 		movl	$847, %edx
 4863      00
 4864 3288 4889CE   		movq	%rcx, %rsi
 4865 328b 4889C7   		movq	%rax, %rdi
 4866 328e E8000000 		call	_ZN8UnitTest11TestDetailsC1ERKS0_i
 4866      00
 847:testSvf2Csvf.cpp **** 	memset(&cxt, 0, sizeof(cxt));
 4867              		.loc 3 847 0 is_stmt 0 discriminator 1
 4868 3293 E8000000 		call	_ZN8UnitTest11CurrentTest7ResultsEv
 4868      00
 4869 3298 488B00   		movq	(%rax), %rax
 4870 329b 488D8D10 		leaq	-752(%rbp), %rcx
 4870      FDFFFF
 4871 32a2 BA000000 		movl	$.LC13, %edx
 4871      00
 4872 32a7 4889CE   		movq	%rcx, %rsi
 4873 32aa 4889C7   		movq	%rax, %rdi
 4874 32ad E8000000 		call	_ZN8UnitTest11TestResults13OnTestFailureERKNS_11TestDetailsEPKc
 4874      00
 4875              	.LEHE136:
 4876              	.LEHB137:
 4877 32b2 E8000000 		call	__cxa_end_catch
 4877      00
 4878              	.LEHE137:
 4879 32b7 E973FEFF 		jmp	.L175
 4879      FF
 4880              	.L186:
 4881 32bc 4889C3   		movq	%rax, %rbx
 851:testSvf2Csvf.cpp **** 	fStatus = buildIndex(&cxt, &csvfBuf, NULL);
 4882              		.loc 3 851 0 is_stmt 1
 4883 32bf E8000000 		call	__cxa_end_catch
 4883      00
 4884 32c4 4889D8   		movq	%rbx, %rax
 4885 32c7 4889C7   		movq	%rax, %rdi
 4886              	.LEHB138:
 4887 32ca E8000000 		call	_Unwind_Resume
 4887      00
 4888              	.LEHE138:
 4889              	.L185:
 4890 32cf 4889C7   		movq	%rax, %rdi
 4891 32d2 E8000000 		call	__cxa_begin_catch
 4891      00
 4892              	.LEHB139:
 4893 32d7 E8000000 		call	_ZN8UnitTest11CurrentTest7DetailsEv
 4893      00
 4894 32dc 488B08   		movq	(%rax), %rcx
 4895 32df 488D85F0 		leaq	-784(%rbp), %rax
 4895      FCFFFF
 4896 32e6 BA530300 		movl	$851, %edx
 4896      00
 4897 32eb 4889CE   		movq	%rcx, %rsi
 4898 32ee 4889C7   		movq	%rax, %rdi
 4899 32f1 E8000000 		call	_ZN8UnitTest11TestDetailsC1ERKS0_i
 4899      00
 851:testSvf2Csvf.cpp **** 	fStatus = buildIndex(&cxt, &csvfBuf, NULL);
 4900              		.loc 3 851 0 is_stmt 0 discriminator 1
 4901 32f6 E8000000 		call	_ZN8UnitTest11CurrentTest7ResultsEv
 4901      00
 4902 32fb 488B00   		movq	(%rax), %rax
 4903 32fe 488D8DF0 		leaq	-784(%rbp), %rcx
 4903      FCFFFF
 4904 3305 BA000000 		movl	$.LC13, %edx
 4904      00
 4905 330a 4889CE   		movq	%rcx, %rsi
 4906 330d 4889C7   		movq	%rax, %rdi
 4907 3310 E8000000 		call	_ZN8UnitTest11TestResults13OnTestFailureERKNS_11TestDetailsEPKc
 4907      00
 4908              	.LEHE139:
 4909              	.LEHB140:
 4910 3315 E8000000 		call	__cxa_end_catch
 4910      00
 4911              	.LEHE140:
 4912 331a E9A1FEFF 		jmp	.L178
 4912      FF
 4913              	.L188:
 4914 331f 4889C3   		movq	%rax, %rbx
 853:testSvf2Csvf.cpp **** 	bufDestroy(&csvfBuf);
 4915              		.loc 3 853 0 is_stmt 1
 4916 3322 E8000000 		call	__cxa_end_catch
 4916      00
 4917 3327 4889D8   		movq	%rbx, %rax
 4918 332a 4889C7   		movq	%rax, %rdi
 4919              	.LEHB141:
 4920 332d E8000000 		call	_Unwind_Resume
 4920      00
 4921              	.LEHE141:
 4922              	.L187:
 4923 3332 4889C7   		movq	%rax, %rdi
 4924 3335 E8000000 		call	__cxa_begin_catch
 4924      00
 4925              	.LEHB142:
 4926 333a E8000000 		call	_ZN8UnitTest11CurrentTest7DetailsEv
 4926      00
 4927 333f 488B08   		movq	(%rax), %rcx
 4928 3342 488D85F0 		leaq	-784(%rbp), %rax
 4928      FCFFFF
 4929 3349 BA550300 		movl	$853, %edx
 4929      00
 4930 334e 4889CE   		movq	%rcx, %rsi
 4931 3351 4889C7   		movq	%rax, %rdi
 4932 3354 E8000000 		call	_ZN8UnitTest11TestDetailsC1ERKS0_i
 4932      00
 853:testSvf2Csvf.cpp **** 	bufDestroy(&csvfBuf);
 4933              		.loc 3 853 0 is_stmt 0 discriminator 1
 4934 3359 E8000000 		call	_ZN8UnitTest11CurrentTest7ResultsEv
 4934      00
 4935 335e 488B00   		movq	(%rax), %rax
 4936 3361 488D8DF0 		leaq	-784(%rbp), %rcx
 4936      FCFFFF
 4937 3368 BA000000 		movl	$.LC2, %edx
 4937      00
 4938 336d 4889CE   		movq	%rcx, %rsi
 4939 3370 4889C7   		movq	%rax, %rdi
 4940 3373 E8000000 		call	_ZN8UnitTest11TestResults13OnTestFailureERKNS_11TestDetailsEPKc
 4940      00
 4941              	.LEHE142:
 4942              	.LEHB143:
 4943 3378 E8000000 		call	__cxa_end_catch
 4943      00
 4944              	.LEHE143:
 4945 337d E9B0FEFF 		jmp	.L181
 4945      FF
 4946              	.L189:
 4947              	.LBE24:
 4948              		.loc 3 855 0 is_stmt 1
 4949 3382 E8000000 		call	__stack_chk_fail
 4949      00
 4950              	.L182:
 4951 3387 4881C458 		addq	$856, %rsp
 4951      030000
 4952 338e 5B       		popq	%rbx
 4953 338f 5D       		popq	%rbp
 4954              		.cfi_def_cfa 7, 8
 4955 3390 C3       		ret
 4956              		.cfi_endproc
 4957              	.LFE1049:
 4958              		.section	.gcc_except_table
 4959              		.align 4
 4960              	.LLSDA1049:
 4961 02ec FF       		.byte	0xff
 4962 02ed 03       		.byte	0x3
 4963 02ee 61       		.uleb128 .LLSDATT1049-.LLSDATTD1049
 4964              	.LLSDATTD1049:
 4965 02ef 01       		.byte	0x1
 4966 02f0 56       		.uleb128 .LLSDACSE1049-.LLSDACSB1049
 4967              	.LLSDACSB1049:
 4968 02f1 D201     		.uleb128 .LEHB128-.LFB1049
 4969 02f3 05       		.uleb128 .LEHE128-.LEHB128
 4970 02f4 00       		.uleb128 0
 4971 02f5 00       		.uleb128 0
 4972 02f6 DD01     		.uleb128 .LEHB129-.LFB1049
 4973 02f8 4E       		.uleb128 .LEHE129-.LEHB129
 4974 02f9 E804     		.uleb128 .L183-.LFB1049
 4975 02fb 01       		.uleb128 0x1
 4976 02fc E302     		.uleb128 .LEHB130-.LFB1049
 4977 02fe 05       		.uleb128 .LEHE130-.LEHB130
 4978 02ff 00       		.uleb128 0
 4979 0300 00       		.uleb128 0
 4980 0301 EE02     		.uleb128 .LEHB131-.LFB1049
 4981 0303 4E       		.uleb128 .LEHE131-.LEHB131
 4982 0304 CB05     		.uleb128 .L185-.LFB1049
 4983 0306 01       		.uleb128 0x1
 4984 0307 D503     		.uleb128 .LEHB132-.LFB1049
 4985 0309 05       		.uleb128 .LEHE132-.LEHB132
 4986 030a 00       		.uleb128 0
 4987 030b 00       		.uleb128 0
 4988 030c E003     		.uleb128 .LEHB133-.LFB1049
 4989 030e 4E       		.uleb128 .LEHE133-.LEHB133
 4990 030f AE06     		.uleb128 .L187-.LFB1049
 4991 0311 01       		.uleb128 0x1
 4992 0312 B804     		.uleb128 .LEHB134-.LFB1049
 4993 0314 05       		.uleb128 .LEHE134-.LEHB134
 4994 0315 00       		.uleb128 0
 4995 0316 00       		.uleb128 0
 4996 0317 E304     		.uleb128 .LEHB135-.LFB1049
 4997 0319 05       		.uleb128 .LEHE135-.LEHB135
 4998 031a 00       		.uleb128 0
 4999 031b 00       		.uleb128 0
 5000 031c F004     		.uleb128 .LEHB136-.LFB1049
 5001 031e 3E       		.uleb128 .LEHE136-.LEHB136
 5002 031f D504     		.uleb128 .L184-.LFB1049
 5003 0321 00       		.uleb128 0
 5004 0322 AE05     		.uleb128 .LEHB137-.LFB1049
 5005 0324 05       		.uleb128 .LEHE137-.LEHB137
 5006 0325 00       		.uleb128 0
 5007 0326 00       		.uleb128 0
 5008 0327 C605     		.uleb128 .LEHB138-.LFB1049
 5009 0329 05       		.uleb128 .LEHE138-.LEHB138
 5010 032a 00       		.uleb128 0
 5011 032b 00       		.uleb128 0
 5012 032c D305     		.uleb128 .LEHB139-.LFB1049
 5013 032e 3E       		.uleb128 .LEHE139-.LEHB139
 5014 032f B805     		.uleb128 .L186-.LFB1049
 5015 0331 00       		.uleb128 0
 5016 0332 9106     		.uleb128 .LEHB140-.LFB1049
 5017 0334 05       		.uleb128 .LEHE140-.LEHB140
 5018 0335 00       		.uleb128 0
 5019 0336 00       		.uleb128 0
 5020 0337 A906     		.uleb128 .LEHB141-.LFB1049
 5021 0339 05       		.uleb128 .LEHE141-.LEHB141
 5022 033a 00       		.uleb128 0
 5023 033b 00       		.uleb128 0
 5024 033c B606     		.uleb128 .LEHB142-.LFB1049
 5025 033e 3E       		.uleb128 .LEHE142-.LEHB142
 5026 033f 9B06     		.uleb128 .L188-.LFB1049
 5027 0341 00       		.uleb128 0
 5028 0342 F406     		.uleb128 .LEHB143-.LFB1049
 5029 0344 05       		.uleb128 .LEHE143-.LEHB143
 5030 0345 00       		.uleb128 0
 5031 0346 00       		.uleb128 0
 5032              	.LLSDACSE1049:
 5033 0347 01       		.byte	0x1
 5034 0348 00       		.byte	0
 5035 0349 000000   		.align 4
 5036 034c 00000000 		.long	0
 5037              	
 5038              	.LLSDATT1049:
 5039              		.text
 5041              		.section	.text._ZN8UnitTest15MemoryOutStreamD1Ev,"axG",@progbits,_ZN8UnitTest15MemoryOutStreamD1Ev
 5042              		.align 2
 5043              		.weak	_ZN8UnitTest15MemoryOutStreamD1Ev
 5045              	_ZN8UnitTest15MemoryOutStreamD1Ev:
 5046              	.LFB1080:
  13:/home/pandu/Desktop/DigitalLogicDesign/Lab/03-/makestuff/libs/libutpp/MemoryOutStream.h **** {
 5047              		.loc 2 13 0
 5048              		.cfi_startproc
 5049              		.cfi_personality 0x3,__gxx_personality_v0
 5050              		.cfi_lsda 0x3,.LLSDA1080
 5051 0000 55       		pushq	%rbp
 5052              		.cfi_def_cfa_offset 16
 5053              		.cfi_offset 6, -16
 5054 0001 4889E5   		movq	%rsp, %rbp
 5055              		.cfi_def_cfa_register 6
 5056 0004 53       		pushq	%rbx
 5057 0005 4883EC18 		subq	$24, %rsp
 5058              		.cfi_offset 3, -24
 5059 0009 48897DE8 		movq	%rdi, -24(%rbp)
 5060              	.LBB25:
  13:/home/pandu/Desktop/DigitalLogicDesign/Lab/03-/makestuff/libs/libutpp/MemoryOutStream.h **** {
 5061              		.loc 2 13 0
 5062 000d BA000000 		movl	$_ZTVN8UnitTest15MemoryOutStreamE+24, %edx
 5062      00
 5063 0012 488B45E8 		movq	-24(%rbp), %rax
 5064 0016 488910   		movq	%rdx, (%rax)
 5065 0019 BA600000 		movl	$96, %edx
 5065      00
 5066 001e 488B45E8 		movq	-24(%rbp), %rax
 5067 0022 4801C2   		addq	%rax, %rdx
 5068 0025 B8000000 		movl	$_ZTVN8UnitTest15MemoryOutStreamE+64, %eax
 5068      00
 5069 002a 488902   		movq	%rax, (%rdx)
 5070 002d 488B45E8 		movq	-24(%rbp), %rax
 5071 0031 4883C058 		addq	$88, %rax
 5072 0035 4889C7   		movq	%rax, %rdi
 5073              	.LEHB144:
 5074 0038 E8000000 		call	_ZNSsD1Ev
 5074      00
 5075              	.LEHE144:
  13:/home/pandu/Desktop/DigitalLogicDesign/Lab/03-/makestuff/libs/libutpp/MemoryOutStream.h **** {
 5076              		.loc 2 13 0 is_stmt 0 discriminator 10
 5077 003d BA000000 		movl	$_ZTTN8UnitTest15MemoryOutStreamE+8, %edx
 5077      00
 5078 0042 488B45E8 		movq	-24(%rbp), %rax
 5079 0046 4889D6   		movq	%rdx, %rsi
 5080 0049 4889C7   		movq	%rax, %rdi
 5081              	.LEHB145:
 5082 004c E8000000 		call	_ZNSt19basic_ostringstreamIcSt11char_traitsIcESaIcEED2Ev
 5082      00
 5083              	.LEHE145:
  13:/home/pandu/Desktop/DigitalLogicDesign/Lab/03-/makestuff/libs/libutpp/MemoryOutStream.h **** {
 5084              		.loc 2 13 0 discriminator 14
 5085 0051 B8020000 		movl	$2, %eax
 5085      00
 5086 0056 85C0     		testl	%eax, %eax
 5087 0058 7410     		je	.L191
  13:/home/pandu/Desktop/DigitalLogicDesign/Lab/03-/makestuff/libs/libutpp/MemoryOutStream.h **** {
 5088              		.loc 2 13 0 discriminator 15
 5089 005a 488B45E8 		movq	-24(%rbp), %rax
 5090 005e 4883C060 		addq	$96, %rax
 5091 0062 4889C7   		movq	%rax, %rdi
 5092              	.LEHB146:
 5093 0065 E8000000 		call	_ZNSt9basic_iosIcSt11char_traitsIcEED2Ev
 5093      00
 5094              	.LEHE146:
 5095              	.L191:
 5096              	.LBE25:
  13:/home/pandu/Desktop/DigitalLogicDesign/Lab/03-/makestuff/libs/libutpp/MemoryOutStream.h **** {
 5097              		.loc 2 13 0 discriminator 16
 5098 006a B8000000 		movl	$0, %eax
 5098      00
 5099 006f 85C0     		testl	%eax, %eax
 5100 0071 744E     		je	.L198
  13:/home/pandu/Desktop/DigitalLogicDesign/Lab/03-/makestuff/libs/libutpp/MemoryOutStream.h **** {
 5101              		.loc 2 13 0 discriminator 1
 5102 0073 488B45E8 		movq	-24(%rbp), %rax
 5103 0077 4889C7   		movq	%rax, %rdi
 5104 007a E8000000 		call	_ZdlPv
 5104      00
 5105 007f EB40     		jmp	.L198
 5106              	.L196:
 5107 0081 4889C3   		movq	%rax, %rbx
 5108              	.LBB26:
  13:/home/pandu/Desktop/DigitalLogicDesign/Lab/03-/makestuff/libs/libutpp/MemoryOutStream.h **** {
 5109              		.loc 2 13 0
 5110 0084 BA000000 		movl	$_ZTTN8UnitTest15MemoryOutStreamE+8, %edx
 5110      00
 5111 0089 488B45E8 		movq	-24(%rbp), %rax
 5112 008d 4889D6   		movq	%rdx, %rsi
 5113 0090 4889C7   		movq	%rax, %rdi
 5114 0093 E8000000 		call	_ZNSt19basic_ostringstreamIcSt11char_traitsIcESaIcEED2Ev
 5114      00
 5115 0098 EB03     		jmp	.L194
 5116              	.L197:
 5117 009a 4889C3   		movq	%rax, %rbx
 5118              	.L194:
 5119 009d B8020000 		movl	$2, %eax
 5119      00
 5120 00a2 85C0     		testl	%eax, %eax
 5121 00a4 7410     		je	.L195
  13:/home/pandu/Desktop/DigitalLogicDesign/Lab/03-/makestuff/libs/libutpp/MemoryOutStream.h **** {
 5122              		.loc 2 13 0 discriminator 20
 5123 00a6 488B45E8 		movq	-24(%rbp), %rax
 5124 00aa 4883C060 		addq	$96, %rax
 5125 00ae 4889C7   		movq	%rax, %rdi
 5126 00b1 E8000000 		call	_ZNSt9basic_iosIcSt11char_traitsIcEED2Ev
 5126      00
 5127              	.L195:
 5128 00b6 4889D8   		movq	%rbx, %rax
 5129 00b9 4889C7   		movq	%rax, %rdi
 5130              	.LEHB147:
 5131 00bc E8000000 		call	_Unwind_Resume
 5131      00
 5132              	.LEHE147:
 5133              	.L198:
 5134              	.LBE26:
  13:/home/pandu/Desktop/DigitalLogicDesign/Lab/03-/makestuff/libs/libutpp/MemoryOutStream.h **** {
 5135              		.loc 2 13 0
 5136 00c1 4883C418 		addq	$24, %rsp
 5137 00c5 5B       		popq	%rbx
 5138 00c6 5D       		popq	%rbp
 5139              		.cfi_def_cfa 7, 8
 5140 00c7 C3       		ret
 5141              		.cfi_endproc
 5142              	.LFE1080:
 5143              		.section	.gcc_except_table
 5144              	.LLSDA1080:
 5145 0350 FF       		.byte	0xff
 5146 0351 FF       		.byte	0xff
 5147 0352 01       		.byte	0x1
 5148 0353 13       		.uleb128 .LLSDACSE1080-.LLSDACSB1080
 5149              	.LLSDACSB1080:
 5150 0354 38       		.uleb128 .LEHB144-.LFB1080
 5151 0355 05       		.uleb128 .LEHE144-.LEHB144
 5152 0356 8101     		.uleb128 .L196-.LFB1080
 5153 0358 00       		.uleb128 0
 5154 0359 4C       		.uleb128 .LEHB145-.LFB1080
 5155 035a 05       		.uleb128 .LEHE145-.LEHB145
 5156 035b 9A01     		.uleb128 .L197-.LFB1080
 5157 035d 00       		.uleb128 0
 5158 035e 65       		.uleb128 .LEHB146-.LFB1080
 5159 035f 05       		.uleb128 .LEHE146-.LEHB146
 5160 0360 00       		.uleb128 0
 5161 0361 00       		.uleb128 0
 5162 0362 BC01     		.uleb128 .LEHB147-.LFB1080
 5163 0364 05       		.uleb128 .LEHE147-.LEHB147
 5164 0365 00       		.uleb128 0
 5165 0366 00       		.uleb128 0
 5166              	.LLSDACSE1080:
 5167              		.section	.text._ZN8UnitTest15MemoryOutStreamD1Ev,"axG",@progbits,_ZN8UnitTest15MemoryOutStreamD1Ev
 5169              		.set	.LTHUNK0,_ZN8UnitTest15MemoryOutStreamD1Ev
 5170              		.weak	_ZTv0_n24_N8UnitTest15MemoryOutStreamD1Ev
 5172              	_ZTv0_n24_N8UnitTest15MemoryOutStreamD1Ev:
 5173              	.LFB1159:
  13:/home/pandu/Desktop/DigitalLogicDesign/Lab/03-/makestuff/libs/libutpp/MemoryOutStream.h **** {
 5174              		.loc 2 13 0 is_stmt 1
 5175              		.cfi_startproc
 5176 00c8 4C8B17   		movq	(%rdi), %r10
 5177 00cb 49037AE8 		addq	-24(%r10), %rdi
 5178 00cf E92CFFFF 		jmp	.LTHUNK0
 5178      FF
 5179              		.cfi_endproc
 5180              	.LFE1159:
 5182              		.section	.text._ZN8UnitTest15MemoryOutStreamD0Ev,"axG",@progbits,_ZN8UnitTest15MemoryOutStreamD0Ev
 5183              		.align 2
 5184              		.weak	_ZN8UnitTest15MemoryOutStreamD0Ev
 5186              	_ZN8UnitTest15MemoryOutStreamD0Ev:
 5187              	.LFB1081:
  13:/home/pandu/Desktop/DigitalLogicDesign/Lab/03-/makestuff/libs/libutpp/MemoryOutStream.h **** {
 5188              		.loc 2 13 0
 5189              		.cfi_startproc
 5190 0000 55       		pushq	%rbp
 5191              		.cfi_def_cfa_offset 16
 5192              		.cfi_offset 6, -16
 5193 0001 4889E5   		movq	%rsp, %rbp
 5194              		.cfi_def_cfa_register 6
 5195 0004 4883EC10 		subq	$16, %rsp
 5196 0008 48897DF8 		movq	%rdi, -8(%rbp)
  13:/home/pandu/Desktop/DigitalLogicDesign/Lab/03-/makestuff/libs/libutpp/MemoryOutStream.h **** {
 5197              		.loc 2 13 0
 5198 000c 488B45F8 		movq	-8(%rbp), %rax
 5199 0010 4889C7   		movq	%rax, %rdi
 5200 0013 E8000000 		call	_ZN8UnitTest15MemoryOutStreamD1Ev
 5200      00
 5201 0018 488B45F8 		movq	-8(%rbp), %rax
 5202 001c 4889C7   		movq	%rax, %rdi
 5203 001f E8000000 		call	_ZdlPv
 5203      00
 5204 0024 C9       		leave
 5205              		.cfi_def_cfa 7, 8
 5206 0025 C3       		ret
 5207              		.cfi_endproc
 5208              	.LFE1081:
 5210              		.set	.LTHUNK1,_ZN8UnitTest15MemoryOutStreamD0Ev
 5211              		.weak	_ZTv0_n24_N8UnitTest15MemoryOutStreamD0Ev
 5213              	_ZTv0_n24_N8UnitTest15MemoryOutStreamD0Ev:
 5214              	.LFB1160:
  13:/home/pandu/Desktop/DigitalLogicDesign/Lab/03-/makestuff/libs/libutpp/MemoryOutStream.h **** {
 5215              		.loc 2 13 0
 5216              		.cfi_startproc
 5217 0026 4C8B17   		movq	(%rdi), %r10
 5218 0029 49037AE8 		addq	-24(%r10), %rdi
 5219 002d EBD1     		jmp	.LTHUNK1
 5220              		.cfi_endproc
 5221              	.LFE1160:
 5223              		.section	.rodata
 5224              	.LC135:
 5225 0b35 45787065 		.string	"Expected "
 5225      63746564 
 5225      2000
 5226              	.LC136:
 5227 0b3f 20627574 		.string	" but was "
 5227      20776173 
 5227      2000
 5228              		.section	.text._ZN8UnitTest10CheckEqualI8FLStatusS1_EEvRNS_11TestResultsERKT_RKT0_RKNS_11TestDetai
 5229              		.weak	_ZN8UnitTest10CheckEqualI8FLStatusS1_EEvRNS_11TestResultsERKT_RKT0_RKNS_11TestDetailsE
 5231              	_ZN8UnitTest10CheckEqualI8FLStatusS1_EEvRNS_11TestResultsERKT_RKT0_RKNS_11TestDetailsE:
 5232              	.LFB1077:
 5233              		.file 4 "/home/pandu/Desktop/DigitalLogicDesign/Lab/03-/makestuff/libs/libutpp/Checks.h"
   1:/home/pandu/Desktop/DigitalLogicDesign/Lab/03-/makestuff/libs/libutpp/Checks.h **** #ifndef UNITTEST_CHECKS_H
   2:/home/pandu/Desktop/DigitalLogicDesign/Lab/03-/makestuff/libs/libutpp/Checks.h **** #define UNITTEST_CHECKS_H
   3:/home/pandu/Desktop/DigitalLogicDesign/Lab/03-/makestuff/libs/libutpp/Checks.h **** 
   4:/home/pandu/Desktop/DigitalLogicDesign/Lab/03-/makestuff/libs/libutpp/Checks.h **** #include "Config.h"
   5:/home/pandu/Desktop/DigitalLogicDesign/Lab/03-/makestuff/libs/libutpp/Checks.h **** #include "TestResults.h"
   6:/home/pandu/Desktop/DigitalLogicDesign/Lab/03-/makestuff/libs/libutpp/Checks.h **** #include "MemoryOutStream.h"
   7:/home/pandu/Desktop/DigitalLogicDesign/Lab/03-/makestuff/libs/libutpp/Checks.h **** 
   8:/home/pandu/Desktop/DigitalLogicDesign/Lab/03-/makestuff/libs/libutpp/Checks.h **** namespace UnitTest {
   9:/home/pandu/Desktop/DigitalLogicDesign/Lab/03-/makestuff/libs/libutpp/Checks.h **** 
  10:/home/pandu/Desktop/DigitalLogicDesign/Lab/03-/makestuff/libs/libutpp/Checks.h **** 
  11:/home/pandu/Desktop/DigitalLogicDesign/Lab/03-/makestuff/libs/libutpp/Checks.h **** template< typename Value >
  12:/home/pandu/Desktop/DigitalLogicDesign/Lab/03-/makestuff/libs/libutpp/Checks.h **** bool Check(Value const value)
  13:/home/pandu/Desktop/DigitalLogicDesign/Lab/03-/makestuff/libs/libutpp/Checks.h **** {
  14:/home/pandu/Desktop/DigitalLogicDesign/Lab/03-/makestuff/libs/libutpp/Checks.h ****     return !!value; // doing double negative to avoid silly VS warnings
  15:/home/pandu/Desktop/DigitalLogicDesign/Lab/03-/makestuff/libs/libutpp/Checks.h **** }
  16:/home/pandu/Desktop/DigitalLogicDesign/Lab/03-/makestuff/libs/libutpp/Checks.h **** 
  17:/home/pandu/Desktop/DigitalLogicDesign/Lab/03-/makestuff/libs/libutpp/Checks.h **** 
  18:/home/pandu/Desktop/DigitalLogicDesign/Lab/03-/makestuff/libs/libutpp/Checks.h **** template< typename Expected, typename Actual >
  19:/home/pandu/Desktop/DigitalLogicDesign/Lab/03-/makestuff/libs/libutpp/Checks.h **** void CheckEqual(TestResults& results, Expected const& expected, Actual const& actual, TestDetails c
 5234              		.loc 4 19 0
 5235              		.cfi_startproc
 5236              		.cfi_personality 0x3,__gxx_personality_v0
 5237              		.cfi_lsda 0x3,.LLSDA1077
 5238 0000 55       		pushq	%rbp
 5239              		.cfi_def_cfa_offset 16
 5240              		.cfi_offset 6, -16
 5241 0001 4889E5   		movq	%rsp, %rbp
 5242              		.cfi_def_cfa_register 6
 5243 0004 4154     		pushq	%r12
 5244 0006 53       		pushq	%rbx
 5245 0007 4881EC90 		subq	$400, %rsp
 5245      010000
 5246              		.cfi_offset 12, -24
 5247              		.cfi_offset 3, -32
 5248 000e 4889BD78 		movq	%rdi, -392(%rbp)
 5248      FEFFFF
 5249 0015 4889B570 		movq	%rsi, -400(%rbp)
 5249      FEFFFF
 5250 001c 48899568 		movq	%rdx, -408(%rbp)
 5250      FEFFFF
 5251 0023 48898D60 		movq	%rcx, -416(%rbp)
 5251      FEFFFF
 5252              	.LBB27:
 5253              	.LBB28:
  20:/home/pandu/Desktop/DigitalLogicDesign/Lab/03-/makestuff/libs/libutpp/Checks.h **** {
  21:/home/pandu/Desktop/DigitalLogicDesign/Lab/03-/makestuff/libs/libutpp/Checks.h ****     if (!(expected == actual))
 5254              		.loc 4 21 0
 5255 002a 488B8570 		movq	-400(%rbp), %rax
 5255      FEFFFF
 5256 0031 8B10     		movl	(%rax), %edx
 5257 0033 488B8568 		movq	-408(%rbp), %rax
 5257      FEFFFF
 5258 003a 8B00     		movl	(%rax), %eax
 5259 003c 39C2     		cmpl	%eax, %edx
 5260 003e 0F84B500 		je	.L205
 5260      0000
 5261              	.LBB29:
  22:/home/pandu/Desktop/DigitalLogicDesign/Lab/03-/makestuff/libs/libutpp/Checks.h ****     {
  23:/home/pandu/Desktop/DigitalLogicDesign/Lab/03-/makestuff/libs/libutpp/Checks.h ****         UnitTest::MemoryOutStream stream;
 5262              		.loc 4 23 0
 5263 0044 488D8580 		leaq	-384(%rbp), %rax
 5263      FEFFFF
 5264 004b 4889C7   		movq	%rax, %rdi
 5265              	.LEHB148:
 5266 004e E8000000 		call	_ZN8UnitTest15MemoryOutStreamC1Ev
 5266      00
 5267              	.LEHE148:
  24:/home/pandu/Desktop/DigitalLogicDesign/Lab/03-/makestuff/libs/libutpp/Checks.h ****         stream << "Expected " << expected << " but was " << actual;
 5268              		.loc 4 24 0
 5269 0053 488B8568 		movq	-408(%rbp), %rax
 5269      FEFFFF
 5270 005a 8B00     		movl	(%rax), %eax
 5271 005c 89C3     		movl	%eax, %ebx
 5272 005e 488B8570 		movq	-400(%rbp), %rax
 5272      FEFFFF
 5273 0065 8B00     		movl	(%rax), %eax
 5274 0067 4189C4   		movl	%eax, %r12d
 5275 006a 488D8580 		leaq	-384(%rbp), %rax
 5275      FEFFFF
 5276 0071 BE000000 		movl	$.LC135, %esi
 5276      00
 5277 0076 4889C7   		movq	%rax, %rdi
 5278              	.LEHB149:
 5279 0079 E8000000 		call	_ZStlsISt11char_traitsIcEERSt13basic_ostreamIcT_ES5_PKc
 5279      00
 5280 007e 4489E6   		movl	%r12d, %esi
 5281 0081 4889C7   		movq	%rax, %rdi
 5282 0084 E8000000 		call	_ZNSolsEi
 5282      00
 5283              		.loc 4 24 0 is_stmt 0 discriminator 1
 5284 0089 BE000000 		movl	$.LC136, %esi
 5284      00
 5285 008e 4889C7   		movq	%rax, %rdi
 5286 0091 E8000000 		call	_ZStlsISt11char_traitsIcEERSt13basic_ostreamIcT_ES5_PKc
 5286      00
 5287 0096 89DE     		movl	%ebx, %esi
 5288 0098 4889C7   		movq	%rax, %rdi
 5289 009b E8000000 		call	_ZNSolsEi
 5289      00
  25:/home/pandu/Desktop/DigitalLogicDesign/Lab/03-/makestuff/libs/libutpp/Checks.h **** 
  26:/home/pandu/Desktop/DigitalLogicDesign/Lab/03-/makestuff/libs/libutpp/Checks.h ****         results.OnTestFailure(details, stream.GetText());
 5290              		.loc 4 26 0 is_stmt 1
 5291 00a0 488D8580 		leaq	-384(%rbp), %rax
 5291      FEFFFF
 5292 00a7 4889C7   		movq	%rax, %rdi
 5293 00aa E8000000 		call	_ZNK8UnitTest15MemoryOutStream7GetTextEv
 5293      00
 5294 00af 4889C2   		movq	%rax, %rdx
 5295 00b2 488B8D60 		movq	-416(%rbp), %rcx
 5295      FEFFFF
 5296 00b9 488B8578 		movq	-392(%rbp), %rax
 5296      FEFFFF
 5297 00c0 4889CE   		movq	%rcx, %rsi
 5298 00c3 4889C7   		movq	%rax, %rdi
 5299 00c6 E8000000 		call	_ZN8UnitTest11TestResults13OnTestFailureERKNS_11TestDetailsEPKc
 5299      00
 5300              	.LEHE149:
 5301              		.loc 4 26 0 is_stmt 0 discriminator 1
 5302 00cb 488D8580 		leaq	-384(%rbp), %rax
 5302      FEFFFF
 5303 00d2 4889C7   		movq	%rax, %rdi
 5304              	.LEHB150:
 5305 00d5 E8000000 		call	_ZN8UnitTest15MemoryOutStreamD1Ev
 5305      00
 5306              	.LEHE150:
 5307              	.LBE29:
 5308 00da EB1D     		jmp	.L205
 5309              	.L204:
 5310 00dc 4889C3   		movq	%rax, %rbx
 5311              	.LBB30:
 5312              		.loc 4 26 0
 5313 00df 488D8580 		leaq	-384(%rbp), %rax
 5313      FEFFFF
 5314 00e6 4889C7   		movq	%rax, %rdi
 5315 00e9 E8000000 		call	_ZN8UnitTest15MemoryOutStreamD1Ev
 5315      00
 5316 00ee 4889D8   		movq	%rbx, %rax
 5317 00f1 4889C7   		movq	%rax, %rdi
 5318              	.LEHB151:
 5319 00f4 E8000000 		call	_Unwind_Resume
 5319      00
 5320              	.LEHE151:
 5321              	.L205:
 5322              	.LBE30:
 5323              	.LBE28:
 5324              	.LBE27:
  27:/home/pandu/Desktop/DigitalLogicDesign/Lab/03-/makestuff/libs/libutpp/Checks.h ****     }
  28:/home/pandu/Desktop/DigitalLogicDesign/Lab/03-/makestuff/libs/libutpp/Checks.h **** }
 5325              		.loc 4 28 0 is_stmt 1
 5326 00f9 4881C490 		addq	$400, %rsp
 5326      010000
 5327 0100 5B       		popq	%rbx
 5328 0101 415C     		popq	%r12
 5329 0103 5D       		popq	%rbp
 5330              		.cfi_def_cfa 7, 8
 5331 0104 C3       		ret
 5332              		.cfi_endproc
 5333              	.LFE1077:
 5334              		.section	.gcc_except_table
 5335              	.LLSDA1077:
 5336 0367 FF       		.byte	0xff
 5337 0368 FF       		.byte	0xff
 5338 0369 01       		.byte	0x1
 5339 036a 13       		.uleb128 .LLSDACSE1077-.LLSDACSB1077
 5340              	.LLSDACSB1077:
 5341 036b 4E       		.uleb128 .LEHB148-.LFB1077
 5342 036c 05       		.uleb128 .LEHE148-.LEHB148
 5343 036d 00       		.uleb128 0
 5344 036e 00       		.uleb128 0
 5345 036f 79       		.uleb128 .LEHB149-.LFB1077
 5346 0370 52       		.uleb128 .LEHE149-.LEHB149
 5347 0371 DC01     		.uleb128 .L204-.LFB1077
 5348 0373 00       		.uleb128 0
 5349 0374 D501     		.uleb128 .LEHB150-.LFB1077
 5350 0376 05       		.uleb128 .LEHE150-.LEHB150
 5351 0377 00       		.uleb128 0
 5352 0378 00       		.uleb128 0
 5353 0379 F401     		.uleb128 .LEHB151-.LFB1077
 5354 037b 05       		.uleb128 .LEHE151-.LEHB151
 5355 037c 00       		.uleb128 0
 5356 037d 00       		.uleb128 0
 5357              	.LLSDACSE1077:
 5358              		.section	.text._ZN8UnitTest10CheckEqualI8FLStatusS1_EEvRNS_11TestResultsERKT_RKT0_RKNS_11TestDetai
 5360              		.section	.text._ZN8UnitTest10CheckEqualIjmEEvRNS_11TestResultsERKT_RKT0_RKNS_11TestDetailsE,"axG",
 5361              		.weak	_ZN8UnitTest10CheckEqualIjmEEvRNS_11TestResultsERKT_RKT0_RKNS_11TestDetailsE
 5363              	_ZN8UnitTest10CheckEqualIjmEEvRNS_11TestResultsERKT_RKT0_RKNS_11TestDetailsE:
 5364              	.LFB1082:
  19:/home/pandu/Desktop/DigitalLogicDesign/Lab/03-/makestuff/libs/libutpp/Checks.h **** {
 5365              		.loc 4 19 0
 5366              		.cfi_startproc
 5367              		.cfi_personality 0x3,__gxx_personality_v0
 5368              		.cfi_lsda 0x3,.LLSDA1082
 5369 0000 55       		pushq	%rbp
 5370              		.cfi_def_cfa_offset 16
 5371              		.cfi_offset 6, -16
 5372 0001 4889E5   		movq	%rsp, %rbp
 5373              		.cfi_def_cfa_register 6
 5374 0004 4154     		pushq	%r12
 5375 0006 53       		pushq	%rbx
 5376 0007 4881EC90 		subq	$400, %rsp
 5376      010000
 5377              		.cfi_offset 12, -24
 5378              		.cfi_offset 3, -32
 5379 000e 4889BD78 		movq	%rdi, -392(%rbp)
 5379      FEFFFF
 5380 0015 4889B570 		movq	%rsi, -400(%rbp)
 5380      FEFFFF
 5381 001c 48899568 		movq	%rdx, -408(%rbp)
 5381      FEFFFF
 5382 0023 48898D60 		movq	%rcx, -416(%rbp)
 5382      FEFFFF
 5383              	.LBB31:
 5384              	.LBB32:
  21:/home/pandu/Desktop/DigitalLogicDesign/Lab/03-/makestuff/libs/libutpp/Checks.h ****     {
 5385              		.loc 4 21 0
 5386 002a 488B8570 		movq	-400(%rbp), %rax
 5386      FEFFFF
 5387 0031 8B00     		movl	(%rax), %eax
 5388 0033 89C2     		movl	%eax, %edx
 5389 0035 488B8568 		movq	-408(%rbp), %rax
 5389      FEFFFF
 5390 003c 488B00   		movq	(%rax), %rax
 5391 003f 4839C2   		cmpq	%rax, %rdx
 5392 0042 0F84B300 		je	.L210
 5392      0000
 5393              	.LBB33:
  23:/home/pandu/Desktop/DigitalLogicDesign/Lab/03-/makestuff/libs/libutpp/Checks.h ****         stream << "Expected " << expected << " but was " << actual;
 5394              		.loc 4 23 0
 5395 0048 488D8580 		leaq	-384(%rbp), %rax
 5395      FEFFFF
 5396 004f 4889C7   		movq	%rax, %rdi
 5397              	.LEHB152:
 5398 0052 E8000000 		call	_ZN8UnitTest15MemoryOutStreamC1Ev
 5398      00
 5399              	.LEHE152:
  24:/home/pandu/Desktop/DigitalLogicDesign/Lab/03-/makestuff/libs/libutpp/Checks.h **** 
 5400              		.loc 4 24 0
 5401 0057 488B8568 		movq	-408(%rbp), %rax
 5401      FEFFFF
 5402 005e 488B18   		movq	(%rax), %rbx
 5403 0061 488B8570 		movq	-400(%rbp), %rax
 5403      FEFFFF
 5404 0068 448B20   		movl	(%rax), %r12d
 5405 006b 488D8580 		leaq	-384(%rbp), %rax
 5405      FEFFFF
 5406 0072 BE000000 		movl	$.LC135, %esi
 5406      00
 5407 0077 4889C7   		movq	%rax, %rdi
 5408              	.LEHB153:
 5409 007a E8000000 		call	_ZStlsISt11char_traitsIcEERSt13basic_ostreamIcT_ES5_PKc
 5409      00
 5410 007f 4489E6   		movl	%r12d, %esi
 5411 0082 4889C7   		movq	%rax, %rdi
 5412 0085 E8000000 		call	_ZNSolsEj
 5412      00
  24:/home/pandu/Desktop/DigitalLogicDesign/Lab/03-/makestuff/libs/libutpp/Checks.h **** 
 5413              		.loc 4 24 0 is_stmt 0 discriminator 1
 5414 008a BE000000 		movl	$.LC136, %esi
 5414      00
 5415 008f 4889C7   		movq	%rax, %rdi
 5416 0092 E8000000 		call	_ZStlsISt11char_traitsIcEERSt13basic_ostreamIcT_ES5_PKc
 5416      00
 5417 0097 4889DE   		movq	%rbx, %rsi
 5418 009a 4889C7   		movq	%rax, %rdi
 5419 009d E8000000 		call	_ZNSolsEm
 5419      00
  26:/home/pandu/Desktop/DigitalLogicDesign/Lab/03-/makestuff/libs/libutpp/Checks.h ****     }
 5420              		.loc 4 26 0 is_stmt 1
 5421 00a2 488D8580 		leaq	-384(%rbp), %rax
 5421      FEFFFF
 5422 00a9 4889C7   		movq	%rax, %rdi
 5423 00ac E8000000 		call	_ZNK8UnitTest15MemoryOutStream7GetTextEv
 5423      00
 5424 00b1 4889C2   		movq	%rax, %rdx
 5425 00b4 488B8D60 		movq	-416(%rbp), %rcx
 5425      FEFFFF
 5426 00bb 488B8578 		movq	-392(%rbp), %rax
 5426      FEFFFF
 5427 00c2 4889CE   		movq	%rcx, %rsi
 5428 00c5 4889C7   		movq	%rax, %rdi
 5429 00c8 E8000000 		call	_ZN8UnitTest11TestResults13OnTestFailureERKNS_11TestDetailsEPKc
 5429      00
 5430              	.LEHE153:
  26:/home/pandu/Desktop/DigitalLogicDesign/Lab/03-/makestuff/libs/libutpp/Checks.h ****     }
 5431              		.loc 4 26 0 is_stmt 0 discriminator 1
 5432 00cd 488D8580 		leaq	-384(%rbp), %rax
 5432      FEFFFF
 5433 00d4 4889C7   		movq	%rax, %rdi
 5434              	.LEHB154:
 5435 00d7 E8000000 		call	_ZN8UnitTest15MemoryOutStreamD1Ev
 5435      00
 5436              	.LEHE154:
 5437              	.LBE33:
 5438 00dc EB1D     		jmp	.L210
 5439              	.L209:
 5440 00de 4889C3   		movq	%rax, %rbx
 5441              	.LBB34:
  26:/home/pandu/Desktop/DigitalLogicDesign/Lab/03-/makestuff/libs/libutpp/Checks.h ****     }
 5442              		.loc 4 26 0
 5443 00e1 488D8580 		leaq	-384(%rbp), %rax
 5443      FEFFFF
 5444 00e8 4889C7   		movq	%rax, %rdi
 5445 00eb E8000000 		call	_ZN8UnitTest15MemoryOutStreamD1Ev
 5445      00
 5446 00f0 4889D8   		movq	%rbx, %rax
 5447 00f3 4889C7   		movq	%rax, %rdi
 5448              	.LEHB155:
 5449 00f6 E8000000 		call	_Unwind_Resume
 5449      00
 5450              	.LEHE155:
 5451              	.L210:
 5452              	.LBE34:
 5453              	.LBE32:
 5454              	.LBE31:
 5455              		.loc 4 28 0 is_stmt 1
 5456 00fb 4881C490 		addq	$400, %rsp
 5456      010000
 5457 0102 5B       		popq	%rbx
 5458 0103 415C     		popq	%r12
 5459 0105 5D       		popq	%rbp
 5460              		.cfi_def_cfa 7, 8
 5461 0106 C3       		ret
 5462              		.cfi_endproc
 5463              	.LFE1082:
 5464              		.section	.gcc_except_table
 5465              	.LLSDA1082:
 5466 037e FF       		.byte	0xff
 5467 037f FF       		.byte	0xff
 5468 0380 01       		.byte	0x1
 5469 0381 13       		.uleb128 .LLSDACSE1082-.LLSDACSB1082
 5470              	.LLSDACSB1082:
 5471 0382 52       		.uleb128 .LEHB152-.LFB1082
 5472 0383 05       		.uleb128 .LEHE152-.LEHB152
 5473 0384 00       		.uleb128 0
 5474 0385 00       		.uleb128 0
 5475 0386 7A       		.uleb128 .LEHB153-.LFB1082
 5476 0387 53       		.uleb128 .LEHE153-.LEHB153
 5477 0388 DE01     		.uleb128 .L209-.LFB1082
 5478 038a 00       		.uleb128 0
 5479 038b D701     		.uleb128 .LEHB154-.LFB1082
 5480 038d 05       		.uleb128 .LEHE154-.LEHB154
 5481 038e 00       		.uleb128 0
 5482 038f 00       		.uleb128 0
 5483 0390 F601     		.uleb128 .LEHB155-.LFB1082
 5484 0392 05       		.uleb128 .LEHE155-.LEHB155
 5485 0393 00       		.uleb128 0
 5486 0394 00       		.uleb128 0
 5487              	.LLSDACSE1082:
 5488              		.section	.text._ZN8UnitTest10CheckEqualIjmEEvRNS_11TestResultsERKT_RKT0_RKNS_11TestDetailsE,"axG",
 5490              		.section	.text._ZN8UnitTest10CheckEqualI12BufferStatusS1_EEvRNS_11TestResultsERKT_RKT0_RKNS_11Test
 5491              		.weak	_ZN8UnitTest10CheckEqualI12BufferStatusS1_EEvRNS_11TestResultsERKT_RKT0_RKNS_11TestDetailsE
 5493              	_ZN8UnitTest10CheckEqualI12BufferStatusS1_EEvRNS_11TestResultsERKT_RKT0_RKNS_11TestDetailsE:
 5494              	.LFB1083:
  19:/home/pandu/Desktop/DigitalLogicDesign/Lab/03-/makestuff/libs/libutpp/Checks.h **** {
 5495              		.loc 4 19 0
 5496              		.cfi_startproc
 5497              		.cfi_personality 0x3,__gxx_personality_v0
 5498              		.cfi_lsda 0x3,.LLSDA1083
 5499 0000 55       		pushq	%rbp
 5500              		.cfi_def_cfa_offset 16
 5501              		.cfi_offset 6, -16
 5502 0001 4889E5   		movq	%rsp, %rbp
 5503              		.cfi_def_cfa_register 6
 5504 0004 4154     		pushq	%r12
 5505 0006 53       		pushq	%rbx
 5506 0007 4881EC90 		subq	$400, %rsp
 5506      010000
 5507              		.cfi_offset 12, -24
 5508              		.cfi_offset 3, -32
 5509 000e 4889BD78 		movq	%rdi, -392(%rbp)
 5509      FEFFFF
 5510 0015 4889B570 		movq	%rsi, -400(%rbp)
 5510      FEFFFF
 5511 001c 48899568 		movq	%rdx, -408(%rbp)
 5511      FEFFFF
 5512 0023 48898D60 		movq	%rcx, -416(%rbp)
 5512      FEFFFF
 5513              	.LBB35:
 5514              	.LBB36:
  21:/home/pandu/Desktop/DigitalLogicDesign/Lab/03-/makestuff/libs/libutpp/Checks.h ****     {
 5515              		.loc 4 21 0
 5516 002a 488B8570 		movq	-400(%rbp), %rax
 5516      FEFFFF
 5517 0031 8B10     		movl	(%rax), %edx
 5518 0033 488B8568 		movq	-408(%rbp), %rax
 5518      FEFFFF
 5519 003a 8B00     		movl	(%rax), %eax
 5520 003c 39C2     		cmpl	%eax, %edx
 5521 003e 0F84B500 		je	.L215
 5521      0000
 5522              	.LBB37:
  23:/home/pandu/Desktop/DigitalLogicDesign/Lab/03-/makestuff/libs/libutpp/Checks.h ****         stream << "Expected " << expected << " but was " << actual;
 5523              		.loc 4 23 0
 5524 0044 488D8580 		leaq	-384(%rbp), %rax
 5524      FEFFFF
 5525 004b 4889C7   		movq	%rax, %rdi
 5526              	.LEHB156:
 5527 004e E8000000 		call	_ZN8UnitTest15MemoryOutStreamC1Ev
 5527      00
 5528              	.LEHE156:
  24:/home/pandu/Desktop/DigitalLogicDesign/Lab/03-/makestuff/libs/libutpp/Checks.h **** 
 5529              		.loc 4 24 0
 5530 0053 488B8568 		movq	-408(%rbp), %rax
 5530      FEFFFF
 5531 005a 8B00     		movl	(%rax), %eax
 5532 005c 89C3     		movl	%eax, %ebx
 5533 005e 488B8570 		movq	-400(%rbp), %rax
 5533      FEFFFF
 5534 0065 8B00     		movl	(%rax), %eax
 5535 0067 4189C4   		movl	%eax, %r12d
 5536 006a 488D8580 		leaq	-384(%rbp), %rax
 5536      FEFFFF
 5537 0071 BE000000 		movl	$.LC135, %esi
 5537      00
 5538 0076 4889C7   		movq	%rax, %rdi
 5539              	.LEHB157:
 5540 0079 E8000000 		call	_ZStlsISt11char_traitsIcEERSt13basic_ostreamIcT_ES5_PKc
 5540      00
 5541 007e 4489E6   		movl	%r12d, %esi
 5542 0081 4889C7   		movq	%rax, %rdi
 5543 0084 E8000000 		call	_ZNSolsEi
 5543      00
  24:/home/pandu/Desktop/DigitalLogicDesign/Lab/03-/makestuff/libs/libutpp/Checks.h **** 
 5544              		.loc 4 24 0 is_stmt 0 discriminator 1
 5545 0089 BE000000 		movl	$.LC136, %esi
 5545      00
 5546 008e 4889C7   		movq	%rax, %rdi
 5547 0091 E8000000 		call	_ZStlsISt11char_traitsIcEERSt13basic_ostreamIcT_ES5_PKc
 5547      00
 5548 0096 89DE     		movl	%ebx, %esi
 5549 0098 4889C7   		movq	%rax, %rdi
 5550 009b E8000000 		call	_ZNSolsEi
 5550      00
  26:/home/pandu/Desktop/DigitalLogicDesign/Lab/03-/makestuff/libs/libutpp/Checks.h ****     }
 5551              		.loc 4 26 0 is_stmt 1
 5552 00a0 488D8580 		leaq	-384(%rbp), %rax
 5552      FEFFFF
 5553 00a7 4889C7   		movq	%rax, %rdi
 5554 00aa E8000000 		call	_ZNK8UnitTest15MemoryOutStream7GetTextEv
 5554      00
 5555 00af 4889C2   		movq	%rax, %rdx
 5556 00b2 488B8D60 		movq	-416(%rbp), %rcx
 5556      FEFFFF
 5557 00b9 488B8578 		movq	-392(%rbp), %rax
 5557      FEFFFF
 5558 00c0 4889CE   		movq	%rcx, %rsi
 5559 00c3 4889C7   		movq	%rax, %rdi
 5560 00c6 E8000000 		call	_ZN8UnitTest11TestResults13OnTestFailureERKNS_11TestDetailsEPKc
 5560      00
 5561              	.LEHE157:
  26:/home/pandu/Desktop/DigitalLogicDesign/Lab/03-/makestuff/libs/libutpp/Checks.h ****     }
 5562              		.loc 4 26 0 is_stmt 0 discriminator 1
 5563 00cb 488D8580 		leaq	-384(%rbp), %rax
 5563      FEFFFF
 5564 00d2 4889C7   		movq	%rax, %rdi
 5565              	.LEHB158:
 5566 00d5 E8000000 		call	_ZN8UnitTest15MemoryOutStreamD1Ev
 5566      00
 5567              	.LEHE158:
 5568              	.LBE37:
 5569 00da EB1D     		jmp	.L215
 5570              	.L214:
 5571 00dc 4889C3   		movq	%rax, %rbx
 5572              	.LBB38:
  26:/home/pandu/Desktop/DigitalLogicDesign/Lab/03-/makestuff/libs/libutpp/Checks.h ****     }
 5573              		.loc 4 26 0
 5574 00df 488D8580 		leaq	-384(%rbp), %rax
 5574      FEFFFF
 5575 00e6 4889C7   		movq	%rax, %rdi
 5576 00e9 E8000000 		call	_ZN8UnitTest15MemoryOutStreamD1Ev
 5576      00
 5577 00ee 4889D8   		movq	%rbx, %rax
 5578 00f1 4889C7   		movq	%rax, %rdi
 5579              	.LEHB159:
 5580 00f4 E8000000 		call	_Unwind_Resume
 5580      00
 5581              	.LEHE159:
 5582              	.L215:
 5583              	.LBE38:
 5584              	.LBE36:
 5585              	.LBE35:
 5586              		.loc 4 28 0 is_stmt 1
 5587 00f9 4881C490 		addq	$400, %rsp
 5587      010000
 5588 0100 5B       		popq	%rbx
 5589 0101 415C     		popq	%r12
 5590 0103 5D       		popq	%rbp
 5591              		.cfi_def_cfa 7, 8
 5592 0104 C3       		ret
 5593              		.cfi_endproc
 5594              	.LFE1083:
 5595              		.section	.gcc_except_table
 5596              	.LLSDA1083:
 5597 0395 FF       		.byte	0xff
 5598 0396 FF       		.byte	0xff
 5599 0397 01       		.byte	0x1
 5600 0398 13       		.uleb128 .LLSDACSE1083-.LLSDACSB1083
 5601              	.LLSDACSB1083:
 5602 0399 4E       		.uleb128 .LEHB156-.LFB1083
 5603 039a 05       		.uleb128 .LEHE156-.LEHB156
 5604 039b 00       		.uleb128 0
 5605 039c 00       		.uleb128 0
 5606 039d 79       		.uleb128 .LEHB157-.LFB1083
 5607 039e 52       		.uleb128 .LEHE157-.LEHB157
 5608 039f DC01     		.uleb128 .L214-.LFB1083
 5609 03a1 00       		.uleb128 0
 5610 03a2 D501     		.uleb128 .LEHB158-.LFB1083
 5611 03a4 05       		.uleb128 .LEHE158-.LEHB158
 5612 03a5 00       		.uleb128 0
 5613 03a6 00       		.uleb128 0
 5614 03a7 F401     		.uleb128 .LEHB159-.LFB1083
 5615 03a9 05       		.uleb128 .LEHE159-.LEHB159
 5616 03aa 00       		.uleb128 0
 5617 03ab 00       		.uleb128 0
 5618              	.LLSDACSE1083:
 5619              		.section	.text._ZN8UnitTest10CheckEqualI12BufferStatusS1_EEvRNS_11TestResultsERKT_RKT0_RKNS_11Test
 5621              		.section	.text._ZN8UnitTest10CheckEqualImmEEvRNS_11TestResultsERKT_RKT0_RKNS_11TestDetailsE,"axG",
 5622              		.weak	_ZN8UnitTest10CheckEqualImmEEvRNS_11TestResultsERKT_RKT0_RKNS_11TestDetailsE
 5624              	_ZN8UnitTest10CheckEqualImmEEvRNS_11TestResultsERKT_RKT0_RKNS_11TestDetailsE:
 5625              	.LFB1084:
  19:/home/pandu/Desktop/DigitalLogicDesign/Lab/03-/makestuff/libs/libutpp/Checks.h **** {
 5626              		.loc 4 19 0
 5627              		.cfi_startproc
 5628              		.cfi_personality 0x3,__gxx_personality_v0
 5629              		.cfi_lsda 0x3,.LLSDA1084
 5630 0000 55       		pushq	%rbp
 5631              		.cfi_def_cfa_offset 16
 5632              		.cfi_offset 6, -16
 5633 0001 4889E5   		movq	%rsp, %rbp
 5634              		.cfi_def_cfa_register 6
 5635 0004 4154     		pushq	%r12
 5636 0006 53       		pushq	%rbx
 5637 0007 4881EC90 		subq	$400, %rsp
 5637      010000
 5638              		.cfi_offset 12, -24
 5639              		.cfi_offset 3, -32
 5640 000e 4889BD78 		movq	%rdi, -392(%rbp)
 5640      FEFFFF
 5641 0015 4889B570 		movq	%rsi, -400(%rbp)
 5641      FEFFFF
 5642 001c 48899568 		movq	%rdx, -408(%rbp)
 5642      FEFFFF
 5643 0023 48898D60 		movq	%rcx, -416(%rbp)
 5643      FEFFFF
 5644              	.LBB39:
 5645              	.LBB40:
  21:/home/pandu/Desktop/DigitalLogicDesign/Lab/03-/makestuff/libs/libutpp/Checks.h ****     {
 5646              		.loc 4 21 0
 5647 002a 488B8570 		movq	-400(%rbp), %rax
 5647      FEFFFF
 5648 0031 488B10   		movq	(%rax), %rdx
 5649 0034 488B8568 		movq	-408(%rbp), %rax
 5649      FEFFFF
 5650 003b 488B00   		movq	(%rax), %rax
 5651 003e 4839C2   		cmpq	%rax, %rdx
 5652 0041 0F84B300 		je	.L220
 5652      0000
 5653              	.LBB41:
  23:/home/pandu/Desktop/DigitalLogicDesign/Lab/03-/makestuff/libs/libutpp/Checks.h ****         stream << "Expected " << expected << " but was " << actual;
 5654              		.loc 4 23 0
 5655 0047 488D8580 		leaq	-384(%rbp), %rax
 5655      FEFFFF
 5656 004e 4889C7   		movq	%rax, %rdi
 5657              	.LEHB160:
 5658 0051 E8000000 		call	_ZN8UnitTest15MemoryOutStreamC1Ev
 5658      00
 5659              	.LEHE160:
  24:/home/pandu/Desktop/DigitalLogicDesign/Lab/03-/makestuff/libs/libutpp/Checks.h **** 
 5660              		.loc 4 24 0
 5661 0056 488B8568 		movq	-408(%rbp), %rax
 5661      FEFFFF
 5662 005d 488B18   		movq	(%rax), %rbx
 5663 0060 488B8570 		movq	-400(%rbp), %rax
 5663      FEFFFF
 5664 0067 4C8B20   		movq	(%rax), %r12
 5665 006a 488D8580 		leaq	-384(%rbp), %rax
 5665      FEFFFF
 5666 0071 BE000000 		movl	$.LC135, %esi
 5666      00
 5667 0076 4889C7   		movq	%rax, %rdi
 5668              	.LEHB161:
 5669 0079 E8000000 		call	_ZStlsISt11char_traitsIcEERSt13basic_ostreamIcT_ES5_PKc
 5669      00
 5670 007e 4C89E6   		movq	%r12, %rsi
 5671 0081 4889C7   		movq	%rax, %rdi
 5672 0084 E8000000 		call	_ZNSolsEm
 5672      00
  24:/home/pandu/Desktop/DigitalLogicDesign/Lab/03-/makestuff/libs/libutpp/Checks.h **** 
 5673              		.loc 4 24 0 is_stmt 0 discriminator 1
 5674 0089 BE000000 		movl	$.LC136, %esi
 5674      00
 5675 008e 4889C7   		movq	%rax, %rdi
 5676 0091 E8000000 		call	_ZStlsISt11char_traitsIcEERSt13basic_ostreamIcT_ES5_PKc
 5676      00
 5677 0096 4889DE   		movq	%rbx, %rsi
 5678 0099 4889C7   		movq	%rax, %rdi
 5679 009c E8000000 		call	_ZNSolsEm
 5679      00
  26:/home/pandu/Desktop/DigitalLogicDesign/Lab/03-/makestuff/libs/libutpp/Checks.h ****     }
 5680              		.loc 4 26 0 is_stmt 1
 5681 00a1 488D8580 		leaq	-384(%rbp), %rax
 5681      FEFFFF
 5682 00a8 4889C7   		movq	%rax, %rdi
 5683 00ab E8000000 		call	_ZNK8UnitTest15MemoryOutStream7GetTextEv
 5683      00
 5684 00b0 4889C2   		movq	%rax, %rdx
 5685 00b3 488B8D60 		movq	-416(%rbp), %rcx
 5685      FEFFFF
 5686 00ba 488B8578 		movq	-392(%rbp), %rax
 5686      FEFFFF
 5687 00c1 4889CE   		movq	%rcx, %rsi
 5688 00c4 4889C7   		movq	%rax, %rdi
 5689 00c7 E8000000 		call	_ZN8UnitTest11TestResults13OnTestFailureERKNS_11TestDetailsEPKc
 5689      00
 5690              	.LEHE161:
  26:/home/pandu/Desktop/DigitalLogicDesign/Lab/03-/makestuff/libs/libutpp/Checks.h ****     }
 5691              		.loc 4 26 0 is_stmt 0 discriminator 1
 5692 00cc 488D8580 		leaq	-384(%rbp), %rax
 5692      FEFFFF
 5693 00d3 4889C7   		movq	%rax, %rdi
 5694              	.LEHB162:
 5695 00d6 E8000000 		call	_ZN8UnitTest15MemoryOutStreamD1Ev
 5695      00
 5696              	.LEHE162:
 5697              	.LBE41:
 5698 00db EB1D     		jmp	.L220
 5699              	.L219:
 5700 00dd 4889C3   		movq	%rax, %rbx
 5701              	.LBB42:
  26:/home/pandu/Desktop/DigitalLogicDesign/Lab/03-/makestuff/libs/libutpp/Checks.h ****     }
 5702              		.loc 4 26 0
 5703 00e0 488D8580 		leaq	-384(%rbp), %rax
 5703      FEFFFF
 5704 00e7 4889C7   		movq	%rax, %rdi
 5705 00ea E8000000 		call	_ZN8UnitTest15MemoryOutStreamD1Ev
 5705      00
 5706 00ef 4889D8   		movq	%rbx, %rax
 5707 00f2 4889C7   		movq	%rax, %rdi
 5708              	.LEHB163:
 5709 00f5 E8000000 		call	_Unwind_Resume
 5709      00
 5710              	.LEHE163:
 5711              	.L220:
 5712              	.LBE42:
 5713              	.LBE40:
 5714              	.LBE39:
 5715              		.loc 4 28 0 is_stmt 1
 5716 00fa 4881C490 		addq	$400, %rsp
 5716      010000
 5717 0101 5B       		popq	%rbx
 5718 0102 415C     		popq	%r12
 5719 0104 5D       		popq	%rbp
 5720              		.cfi_def_cfa 7, 8
 5721 0105 C3       		ret
 5722              		.cfi_endproc
 5723              	.LFE1084:
 5724              		.section	.gcc_except_table
 5725              	.LLSDA1084:
 5726 03ac FF       		.byte	0xff
 5727 03ad FF       		.byte	0xff
 5728 03ae 01       		.byte	0x1
 5729 03af 13       		.uleb128 .LLSDACSE1084-.LLSDACSB1084
 5730              	.LLSDACSB1084:
 5731 03b0 51       		.uleb128 .LEHB160-.LFB1084
 5732 03b1 05       		.uleb128 .LEHE160-.LEHB160
 5733 03b2 00       		.uleb128 0
 5734 03b3 00       		.uleb128 0
 5735 03b4 79       		.uleb128 .LEHB161-.LFB1084
 5736 03b5 53       		.uleb128 .LEHE161-.LEHB161
 5737 03b6 DD01     		.uleb128 .L219-.LFB1084
 5738 03b8 00       		.uleb128 0
 5739 03b9 D601     		.uleb128 .LEHB162-.LFB1084
 5740 03bb 05       		.uleb128 .LEHE162-.LEHB162
 5741 03bc 00       		.uleb128 0
 5742 03bd 00       		.uleb128 0
 5743 03be F501     		.uleb128 .LEHB163-.LFB1084
 5744 03c0 05       		.uleb128 .LEHE163-.LEHB163
 5745 03c1 00       		.uleb128 0
 5746 03c2 00       		.uleb128 0
 5747              	.LLSDACSE1084:
 5748              		.section	.text._ZN8UnitTest10CheckEqualImmEEvRNS_11TestResultsERKT_RKT0_RKNS_11TestDetailsE,"axG",
 5750              		.section	.text._ZN8UnitTest10CheckEqualIjjEEvRNS_11TestResultsERKT_RKT0_RKNS_11TestDetailsE,"axG",
 5751              		.weak	_ZN8UnitTest10CheckEqualIjjEEvRNS_11TestResultsERKT_RKT0_RKNS_11TestDetailsE
 5753              	_ZN8UnitTest10CheckEqualIjjEEvRNS_11TestResultsERKT_RKT0_RKNS_11TestDetailsE:
 5754              	.LFB1085:
  19:/home/pandu/Desktop/DigitalLogicDesign/Lab/03-/makestuff/libs/libutpp/Checks.h **** {
 5755              		.loc 4 19 0
 5756              		.cfi_startproc
 5757              		.cfi_personality 0x3,__gxx_personality_v0
 5758              		.cfi_lsda 0x3,.LLSDA1085
 5759 0000 55       		pushq	%rbp
 5760              		.cfi_def_cfa_offset 16
 5761              		.cfi_offset 6, -16
 5762 0001 4889E5   		movq	%rsp, %rbp
 5763              		.cfi_def_cfa_register 6
 5764 0004 4154     		pushq	%r12
 5765 0006 53       		pushq	%rbx
 5766 0007 4881EC90 		subq	$400, %rsp
 5766      010000
 5767              		.cfi_offset 12, -24
 5768              		.cfi_offset 3, -32
 5769 000e 4889BD78 		movq	%rdi, -392(%rbp)
 5769      FEFFFF
 5770 0015 4889B570 		movq	%rsi, -400(%rbp)
 5770      FEFFFF
 5771 001c 48899568 		movq	%rdx, -408(%rbp)
 5771      FEFFFF
 5772 0023 48898D60 		movq	%rcx, -416(%rbp)
 5772      FEFFFF
 5773              	.LBB43:
 5774              	.LBB44:
  21:/home/pandu/Desktop/DigitalLogicDesign/Lab/03-/makestuff/libs/libutpp/Checks.h ****     {
 5775              		.loc 4 21 0
 5776 002a 488B8570 		movq	-400(%rbp), %rax
 5776      FEFFFF
 5777 0031 8B10     		movl	(%rax), %edx
 5778 0033 488B8568 		movq	-408(%rbp), %rax
 5778      FEFFFF
 5779 003a 8B00     		movl	(%rax), %eax
 5780 003c 39C2     		cmpl	%eax, %edx
 5781 003e 0F84B100 		je	.L225
 5781      0000
 5782              	.LBB45:
  23:/home/pandu/Desktop/DigitalLogicDesign/Lab/03-/makestuff/libs/libutpp/Checks.h ****         stream << "Expected " << expected << " but was " << actual;
 5783              		.loc 4 23 0
 5784 0044 488D8580 		leaq	-384(%rbp), %rax
 5784      FEFFFF
 5785 004b 4889C7   		movq	%rax, %rdi
 5786              	.LEHB164:
 5787 004e E8000000 		call	_ZN8UnitTest15MemoryOutStreamC1Ev
 5787      00
 5788              	.LEHE164:
  24:/home/pandu/Desktop/DigitalLogicDesign/Lab/03-/makestuff/libs/libutpp/Checks.h **** 
 5789              		.loc 4 24 0
 5790 0053 488B8568 		movq	-408(%rbp), %rax
 5790      FEFFFF
 5791 005a 8B18     		movl	(%rax), %ebx
 5792 005c 488B8570 		movq	-400(%rbp), %rax
 5792      FEFFFF
 5793 0063 448B20   		movl	(%rax), %r12d
 5794 0066 488D8580 		leaq	-384(%rbp), %rax
 5794      FEFFFF
 5795 006d BE000000 		movl	$.LC135, %esi
 5795      00
 5796 0072 4889C7   		movq	%rax, %rdi
 5797              	.LEHB165:
 5798 0075 E8000000 		call	_ZStlsISt11char_traitsIcEERSt13basic_ostreamIcT_ES5_PKc
 5798      00
 5799 007a 4489E6   		movl	%r12d, %esi
 5800 007d 4889C7   		movq	%rax, %rdi
 5801 0080 E8000000 		call	_ZNSolsEj
 5801      00
  24:/home/pandu/Desktop/DigitalLogicDesign/Lab/03-/makestuff/libs/libutpp/Checks.h **** 
 5802              		.loc 4 24 0 is_stmt 0 discriminator 1
 5803 0085 BE000000 		movl	$.LC136, %esi
 5803      00
 5804 008a 4889C7   		movq	%rax, %rdi
 5805 008d E8000000 		call	_ZStlsISt11char_traitsIcEERSt13basic_ostreamIcT_ES5_PKc
 5805      00
 5806 0092 89DE     		movl	%ebx, %esi
 5807 0094 4889C7   		movq	%rax, %rdi
 5808 0097 E8000000 		call	_ZNSolsEj
 5808      00
  26:/home/pandu/Desktop/DigitalLogicDesign/Lab/03-/makestuff/libs/libutpp/Checks.h ****     }
 5809              		.loc 4 26 0 is_stmt 1
 5810 009c 488D8580 		leaq	-384(%rbp), %rax
 5810      FEFFFF
 5811 00a3 4889C7   		movq	%rax, %rdi
 5812 00a6 E8000000 		call	_ZNK8UnitTest15MemoryOutStream7GetTextEv
 5812      00
 5813 00ab 4889C2   		movq	%rax, %rdx
 5814 00ae 488B8D60 		movq	-416(%rbp), %rcx
 5814      FEFFFF
 5815 00b5 488B8578 		movq	-392(%rbp), %rax
 5815      FEFFFF
 5816 00bc 4889CE   		movq	%rcx, %rsi
 5817 00bf 4889C7   		movq	%rax, %rdi
 5818 00c2 E8000000 		call	_ZN8UnitTest11TestResults13OnTestFailureERKNS_11TestDetailsEPKc
 5818      00
 5819              	.LEHE165:
  26:/home/pandu/Desktop/DigitalLogicDesign/Lab/03-/makestuff/libs/libutpp/Checks.h ****     }
 5820              		.loc 4 26 0 is_stmt 0 discriminator 1
 5821 00c7 488D8580 		leaq	-384(%rbp), %rax
 5821      FEFFFF
 5822 00ce 4889C7   		movq	%rax, %rdi
 5823              	.LEHB166:
 5824 00d1 E8000000 		call	_ZN8UnitTest15MemoryOutStreamD1Ev
 5824      00
 5825              	.LEHE166:
 5826              	.LBE45:
 5827 00d6 EB1D     		jmp	.L225
 5828              	.L224:
 5829 00d8 4889C3   		movq	%rax, %rbx
 5830              	.LBB46:
  26:/home/pandu/Desktop/DigitalLogicDesign/Lab/03-/makestuff/libs/libutpp/Checks.h ****     }
 5831              		.loc 4 26 0
 5832 00db 488D8580 		leaq	-384(%rbp), %rax
 5832      FEFFFF
 5833 00e2 4889C7   		movq	%rax, %rdi
 5834 00e5 E8000000 		call	_ZN8UnitTest15MemoryOutStreamD1Ev
 5834      00
 5835 00ea 4889D8   		movq	%rbx, %rax
 5836 00ed 4889C7   		movq	%rax, %rdi
 5837              	.LEHB167:
 5838 00f0 E8000000 		call	_Unwind_Resume
 5838      00
 5839              	.LEHE167:
 5840              	.L225:
 5841              	.LBE46:
 5842              	.LBE44:
 5843              	.LBE43:
 5844              		.loc 4 28 0 is_stmt 1
 5845 00f5 4881C490 		addq	$400, %rsp
 5845      010000
 5846 00fc 5B       		popq	%rbx
 5847 00fd 415C     		popq	%r12
 5848 00ff 5D       		popq	%rbp
 5849              		.cfi_def_cfa 7, 8
 5850 0100 C3       		ret
 5851              		.cfi_endproc
 5852              	.LFE1085:
 5853              		.section	.gcc_except_table
 5854              	.LLSDA1085:
 5855 03c3 FF       		.byte	0xff
 5856 03c4 FF       		.byte	0xff
 5857 03c5 01       		.byte	0x1
 5858 03c6 13       		.uleb128 .LLSDACSE1085-.LLSDACSB1085
 5859              	.LLSDACSB1085:
 5860 03c7 4E       		.uleb128 .LEHB164-.LFB1085
 5861 03c8 05       		.uleb128 .LEHE164-.LEHB164
 5862 03c9 00       		.uleb128 0
 5863 03ca 00       		.uleb128 0
 5864 03cb 75       		.uleb128 .LEHB165-.LFB1085
 5865 03cc 52       		.uleb128 .LEHE165-.LEHB165
 5866 03cd D801     		.uleb128 .L224-.LFB1085
 5867 03cf 00       		.uleb128 0
 5868 03d0 D101     		.uleb128 .LEHB166-.LFB1085
 5869 03d2 05       		.uleb128 .LEHE166-.LEHB166
 5870 03d3 00       		.uleb128 0
 5871 03d4 00       		.uleb128 0
 5872 03d5 F001     		.uleb128 .LEHB167-.LFB1085
 5873 03d7 05       		.uleb128 .LEHE167-.LEHB167
 5874 03d8 00       		.uleb128 0
 5875 03d9 00       		.uleb128 0
 5876              	.LLSDACSE1085:
 5877              		.section	.text._ZN8UnitTest10CheckEqualIjjEEvRNS_11TestResultsERKT_RKT0_RKNS_11TestDetailsE,"axG",
 5879              		.section	.text._ZN8UnitTest5CheckIbEEbT_,"axG",@progbits,_ZN8UnitTest5CheckIbEEbT_,comdat
 5880              		.weak	_ZN8UnitTest5CheckIbEEbT_
 5882              	_ZN8UnitTest5CheckIbEEbT_:
 5883              	.LFB1086:
  12:/home/pandu/Desktop/DigitalLogicDesign/Lab/03-/makestuff/libs/libutpp/Checks.h **** {
 5884              		.loc 4 12 0
 5885              		.cfi_startproc
 5886 0000 55       		pushq	%rbp
 5887              		.cfi_def_cfa_offset 16
 5888              		.cfi_offset 6, -16
 5889 0001 4889E5   		movq	%rsp, %rbp
 5890              		.cfi_def_cfa_register 6
 5891 0004 89F8     		movl	%edi, %eax
 5892 0006 8845FC   		movb	%al, -4(%rbp)
  14:/home/pandu/Desktop/DigitalLogicDesign/Lab/03-/makestuff/libs/libutpp/Checks.h **** }
 5893              		.loc 4 14 0
 5894 0009 0FB645FC 		movzbl	-4(%rbp), %eax
  15:/home/pandu/Desktop/DigitalLogicDesign/Lab/03-/makestuff/libs/libutpp/Checks.h **** 
 5895              		.loc 4 15 0
 5896 000d 5D       		popq	%rbp
 5897              		.cfi_def_cfa 7, 8
 5898 000e C3       		ret
 5899              		.cfi_endproc
 5900              	.LFE1086:
 5902              		.weak	_ZTV27TestFPGALink_testBuildIndex
 5903              		.section	.rodata._ZTV27TestFPGALink_testBuildIndex,"aG",@progbits,_ZTV27TestFPGALink_testBuildInde
 5904              		.align 32
 5907              	_ZTV27TestFPGALink_testBuildIndex:
 5908 0000 00000000 		.quad	0
 5908      00000000 
 5909 0008 00000000 		.quad	_ZTI27TestFPGALink_testBuildIndex
 5909      00000000 
 5910 0010 00000000 		.quad	_ZN27TestFPGALink_testBuildIndexD1Ev
 5910      00000000 
 5911 0018 00000000 		.quad	_ZN27TestFPGALink_testBuildIndexD0Ev
 5911      00000000 
 5912 0020 00000000 		.quad	_ZNK27TestFPGALink_testBuildIndex7RunImplEv
 5912      00000000 
 5913              		.section	.text._ZN27TestFPGALink_testBuildIndexD2Ev,"axG",@progbits,_ZN27TestFPGALink_testBuildInd
 5914              		.align 2
 5915              		.weak	_ZN27TestFPGALink_testBuildIndexD2Ev
 5917              	_ZN27TestFPGALink_testBuildIndexD2Ev:
 5918              	.LFB1138:
 834:testSvf2Csvf.cpp **** 	const uint8 src[] = {
 5919              		.loc 3 834 0
 5920              		.cfi_startproc
 5921 0000 55       		pushq	%rbp
 5922              		.cfi_def_cfa_offset 16
 5923              		.cfi_offset 6, -16
 5924 0001 4889E5   		movq	%rsp, %rbp
 5925              		.cfi_def_cfa_register 6
 5926 0004 4883EC10 		subq	$16, %rsp
 5927 0008 48897DF8 		movq	%rdi, -8(%rbp)
 5928              	.LBB47:
 834:testSvf2Csvf.cpp **** 	const uint8 src[] = {
 5929              		.loc 3 834 0
 5930 000c 488B45F8 		movq	-8(%rbp), %rax
 5931 0010 48C70000 		movq	$_ZTV27TestFPGALink_testBuildIndex+16, (%rax)
 5931      000000
 5932 0017 488B45F8 		movq	-8(%rbp), %rax
 5933 001b 4889C7   		movq	%rax, %rdi
 5934 001e E8000000 		call	_ZN8UnitTest4TestD2Ev
 5934      00
 5935              	.LBE47:
 5936 0023 B8000000 		movl	$0, %eax
 5936      00
 5937 0028 85C0     		testl	%eax, %eax
 5938 002a 740C     		je	.L228
 834:testSvf2Csvf.cpp **** 	const uint8 src[] = {
 5939              		.loc 3 834 0 is_stmt 0 discriminator 1
 5940 002c 488B45F8 		movq	-8(%rbp), %rax
 5941 0030 4889C7   		movq	%rax, %rdi
 5942 0033 E8000000 		call	_ZdlPv
 5942      00
 5943              	.L228:
 834:testSvf2Csvf.cpp **** 	const uint8 src[] = {
 5944              		.loc 3 834 0
 5945 0038 C9       		leave
 5946              		.cfi_def_cfa 7, 8
 5947 0039 C3       		ret
 5948              		.cfi_endproc
 5949              	.LFE1138:
 5951              		.weak	_ZN27TestFPGALink_testBuildIndexD1Ev
 5952              		.set	_ZN27TestFPGALink_testBuildIndexD1Ev,_ZN27TestFPGALink_testBuildIndexD2Ev
 5953              		.section	.text._ZN27TestFPGALink_testBuildIndexD0Ev,"axG",@progbits,_ZN27TestFPGALink_testBuildInd
 5954              		.align 2
 5955              		.weak	_ZN27TestFPGALink_testBuildIndexD0Ev
 5957              	_ZN27TestFPGALink_testBuildIndexD0Ev:
 5958              	.LFB1140:
 834:testSvf2Csvf.cpp **** 	const uint8 src[] = {
 5959              		.loc 3 834 0 is_stmt 1
 5960              		.cfi_startproc
 5961 0000 55       		pushq	%rbp
 5962              		.cfi_def_cfa_offset 16
 5963              		.cfi_offset 6, -16
 5964 0001 4889E5   		movq	%rsp, %rbp
 5965              		.cfi_def_cfa_register 6
 5966 0004 4883EC10 		subq	$16, %rsp
 5967 0008 48897DF8 		movq	%rdi, -8(%rbp)
 834:testSvf2Csvf.cpp **** 	const uint8 src[] = {
 5968              		.loc 3 834 0
 5969 000c 488B45F8 		movq	-8(%rbp), %rax
 5970 0010 4889C7   		movq	%rax, %rdi
 5971 0013 E8000000 		call	_ZN27TestFPGALink_testBuildIndexD1Ev
 5971      00
 5972 0018 488B45F8 		movq	-8(%rbp), %rax
 5973 001c 4889C7   		movq	%rax, %rdi
 5974 001f E8000000 		call	_ZdlPv
 5974      00
 5975 0024 C9       		leave
 5976              		.cfi_def_cfa 7, 8
 5977 0025 C3       		ret
 5978              		.cfi_endproc
 5979              	.LFE1140:
 5981              		.weak	_ZTV29TestFPGALink_testProcessIndex
 5982              		.section	.rodata._ZTV29TestFPGALink_testProcessIndex,"aG",@progbits,_ZTV29TestFPGALink_testProcess
 5983              		.align 32
 5986              	_ZTV29TestFPGALink_testProcessIndex:
 5987 0000 00000000 		.quad	0
 5987      00000000 
 5988 0008 00000000 		.quad	_ZTI29TestFPGALink_testProcessIndex
 5988      00000000 
 5989 0010 00000000 		.quad	_ZN29TestFPGALink_testProcessIndexD1Ev
 5989      00000000 
 5990 0018 00000000 		.quad	_ZN29TestFPGALink_testProcessIndexD0Ev
 5990      00000000 
 5991 0020 00000000 		.quad	_ZNK29TestFPGALink_testProcessIndex7RunImplEv
 5991      00000000 
 5992              		.section	.text._ZN29TestFPGALink_testProcessIndexD2Ev,"axG",@progbits,_ZN29TestFPGALink_testProces
 5993              		.align 2
 5994              		.weak	_ZN29TestFPGALink_testProcessIndexD2Ev
 5996              	_ZN29TestFPGALink_testProcessIndexD2Ev:
 5997              	.LFB1142:
 657:testSvf2Csvf.cpp **** 	int i, j, num;
 5998              		.loc 3 657 0
 5999              		.cfi_startproc
 6000 0000 55       		pushq	%rbp
 6001              		.cfi_def_cfa_offset 16
 6002              		.cfi_offset 6, -16
 6003 0001 4889E5   		movq	%rsp, %rbp
 6004              		.cfi_def_cfa_register 6
 6005 0004 4883EC10 		subq	$16, %rsp
 6006 0008 48897DF8 		movq	%rdi, -8(%rbp)
 6007              	.LBB48:
 657:testSvf2Csvf.cpp **** 	int i, j, num;
 6008              		.loc 3 657 0
 6009 000c 488B45F8 		movq	-8(%rbp), %rax
 6010 0010 48C70000 		movq	$_ZTV29TestFPGALink_testProcessIndex+16, (%rax)
 6010      000000
 6011 0017 488B45F8 		movq	-8(%rbp), %rax
 6012 001b 4889C7   		movq	%rax, %rdi
 6013 001e E8000000 		call	_ZN8UnitTest4TestD2Ev
 6013      00
 6014              	.LBE48:
 6015 0023 B8000000 		movl	$0, %eax
 6015      00
 6016 0028 85C0     		testl	%eax, %eax
 6017 002a 740C     		je	.L233
 657:testSvf2Csvf.cpp **** 	int i, j, num;
 6018              		.loc 3 657 0 is_stmt 0 discriminator 1
 6019 002c 488B45F8 		movq	-8(%rbp), %rax
 6020 0030 4889C7   		movq	%rax, %rdi
 6021 0033 E8000000 		call	_ZdlPv
 6021      00
 6022              	.L233:
 657:testSvf2Csvf.cpp **** 	int i, j, num;
 6023              		.loc 3 657 0
 6024 0038 C9       		leave
 6025              		.cfi_def_cfa 7, 8
 6026 0039 C3       		ret
 6027              		.cfi_endproc
 6028              	.LFE1142:
 6030              		.weak	_ZN29TestFPGALink_testProcessIndexD1Ev
 6031              		.set	_ZN29TestFPGALink_testProcessIndexD1Ev,_ZN29TestFPGALink_testProcessIndexD2Ev
 6032              		.section	.text._ZN29TestFPGALink_testProcessIndexD0Ev,"axG",@progbits,_ZN29TestFPGALink_testProces
 6033              		.align 2
 6034              		.weak	_ZN29TestFPGALink_testProcessIndexD0Ev
 6036              	_ZN29TestFPGALink_testProcessIndexD0Ev:
 6037              	.LFB1144:
 657:testSvf2Csvf.cpp **** 	int i, j, num;
 6038              		.loc 3 657 0 is_stmt 1
 6039              		.cfi_startproc
 6040 0000 55       		pushq	%rbp
 6041              		.cfi_def_cfa_offset 16
 6042              		.cfi_offset 6, -16
 6043 0001 4889E5   		movq	%rsp, %rbp
 6044              		.cfi_def_cfa_register 6
 6045 0004 4883EC10 		subq	$16, %rsp
 6046 0008 48897DF8 		movq	%rdi, -8(%rbp)
 657:testSvf2Csvf.cpp **** 	int i, j, num;
 6047              		.loc 3 657 0
 6048 000c 488B45F8 		movq	-8(%rbp), %rax
 6049 0010 4889C7   		movq	%rax, %rdi
 6050 0013 E8000000 		call	_ZN29TestFPGALink_testProcessIndexD1Ev
 6050      00
 6051 0018 488B45F8 		movq	-8(%rbp), %rax
 6052 001c 4889C7   		movq	%rax, %rdi
 6053 001f E8000000 		call	_ZdlPv
 6053      00
 6054 0024 C9       		leave
 6055              		.cfi_def_cfa 7, 8
 6056 0025 C3       		ret
 6057              		.cfi_endproc
 6058              	.LFE1144:
 6060              		.weak	_ZTV22TestFPGALink_testParse
 6061              		.section	.rodata._ZTV22TestFPGALink_testParse,"aG",@progbits,_ZTV22TestFPGALink_testParse,comdat
 6062              		.align 32
 6065              	_ZTV22TestFPGALink_testParse:
 6066 0000 00000000 		.quad	0
 6066      00000000 
 6067 0008 00000000 		.quad	_ZTI22TestFPGALink_testParse
 6067      00000000 
 6068 0010 00000000 		.quad	_ZN22TestFPGALink_testParseD1Ev
 6068      00000000 
 6069 0018 00000000 		.quad	_ZN22TestFPGALink_testParseD0Ev
 6069      00000000 
 6070 0020 00000000 		.quad	_ZNK22TestFPGALink_testParse7RunImplEv
 6070      00000000 
 6071              		.section	.text._ZN22TestFPGALink_testParseD2Ev,"axG",@progbits,_ZN22TestFPGALink_testParseD5Ev,com
 6072              		.align 2
 6073              		.weak	_ZN22TestFPGALink_testParseD2Ev
 6075              	_ZN22TestFPGALink_testParseD2Ev:
 6076              	.LFB1146:
 596:testSvf2Csvf.cpp **** 	FLStatus fStatus;
 6077              		.loc 3 596 0
 6078              		.cfi_startproc
 6079 0000 55       		pushq	%rbp
 6080              		.cfi_def_cfa_offset 16
 6081              		.cfi_offset 6, -16
 6082 0001 4889E5   		movq	%rsp, %rbp
 6083              		.cfi_def_cfa_register 6
 6084 0004 4883EC10 		subq	$16, %rsp
 6085 0008 48897DF8 		movq	%rdi, -8(%rbp)
 6086              	.LBB49:
 596:testSvf2Csvf.cpp **** 	FLStatus fStatus;
 6087              		.loc 3 596 0
 6088 000c 488B45F8 		movq	-8(%rbp), %rax
 6089 0010 48C70000 		movq	$_ZTV22TestFPGALink_testParse+16, (%rax)
 6089      000000
 6090 0017 488B45F8 		movq	-8(%rbp), %rax
 6091 001b 4889C7   		movq	%rax, %rdi
 6092 001e E8000000 		call	_ZN8UnitTest4TestD2Ev
 6092      00
 6093              	.LBE49:
 6094 0023 B8000000 		movl	$0, %eax
 6094      00
 6095 0028 85C0     		testl	%eax, %eax
 6096 002a 740C     		je	.L238
 596:testSvf2Csvf.cpp **** 	FLStatus fStatus;
 6097              		.loc 3 596 0 is_stmt 0 discriminator 1
 6098 002c 488B45F8 		movq	-8(%rbp), %rax
 6099 0030 4889C7   		movq	%rax, %rdi
 6100 0033 E8000000 		call	_ZdlPv
 6100      00
 6101              	.L238:
 596:testSvf2Csvf.cpp **** 	FLStatus fStatus;
 6102              		.loc 3 596 0
 6103 0038 C9       		leave
 6104              		.cfi_def_cfa 7, 8
 6105 0039 C3       		ret
 6106              		.cfi_endproc
 6107              	.LFE1146:
 6109              		.weak	_ZN22TestFPGALink_testParseD1Ev
 6110              		.set	_ZN22TestFPGALink_testParseD1Ev,_ZN22TestFPGALink_testParseD2Ev
 6111              		.section	.text._ZN22TestFPGALink_testParseD0Ev,"axG",@progbits,_ZN22TestFPGALink_testParseD0Ev,com
 6112              		.align 2
 6113              		.weak	_ZN22TestFPGALink_testParseD0Ev
 6115              	_ZN22TestFPGALink_testParseD0Ev:
 6116              	.LFB1148:
 596:testSvf2Csvf.cpp **** 	FLStatus fStatus;
 6117              		.loc 3 596 0 is_stmt 1
 6118              		.cfi_startproc
 6119 0000 55       		pushq	%rbp
 6120              		.cfi_def_cfa_offset 16
 6121              		.cfi_offset 6, -16
 6122 0001 4889E5   		movq	%rsp, %rbp
 6123              		.cfi_def_cfa_register 6
 6124 0004 4883EC10 		subq	$16, %rsp
 6125 0008 48897DF8 		movq	%rdi, -8(%rbp)
 596:testSvf2Csvf.cpp **** 	FLStatus fStatus;
 6126              		.loc 3 596 0
 6127 000c 488B45F8 		movq	-8(%rbp), %rax
 6128 0010 4889C7   		movq	%rax, %rdi
 6129 0013 E8000000 		call	_ZN22TestFPGALink_testParseD1Ev
 6129      00
 6130 0018 488B45F8 		movq	-8(%rbp), %rax
 6131 001c 4889C7   		movq	%rax, %rdi
 6132 001f E8000000 		call	_ZdlPv
 6132      00
 6133 0024 C9       		leave
 6134              		.cfi_def_cfa 7, 8
 6135 0025 C3       		ret
 6136              		.cfi_endproc
 6137              	.LFE1148:
 6139              		.weak	_ZTV22TestFPGALink_testShift
 6140              		.section	.rodata._ZTV22TestFPGALink_testShift,"aG",@progbits,_ZTV22TestFPGALink_testShift,comdat
 6141              		.align 32
 6144              	_ZTV22TestFPGALink_testShift:
 6145 0000 00000000 		.quad	0
 6145      00000000 
 6146 0008 00000000 		.quad	_ZTI22TestFPGALink_testShift
 6146      00000000 
 6147 0010 00000000 		.quad	_ZN22TestFPGALink_testShiftD1Ev
 6147      00000000 
 6148 0018 00000000 		.quad	_ZN22TestFPGALink_testShiftD0Ev
 6148      00000000 
 6149 0020 00000000 		.quad	_ZNK22TestFPGALink_testShift7RunImplEv
 6149      00000000 
 6150              		.section	.text._ZN22TestFPGALink_testShiftD2Ev,"axG",@progbits,_ZN22TestFPGALink_testShiftD5Ev,com
 6151              		.align 2
 6152              		.weak	_ZN22TestFPGALink_testShiftD2Ev
 6154              	_ZN22TestFPGALink_testShiftD2Ev:
 6155              	.LFB1150:
  90:testSvf2Csvf.cpp **** 	testShift(
 6156              		.loc 3 90 0
 6157              		.cfi_startproc
 6158 0000 55       		pushq	%rbp
 6159              		.cfi_def_cfa_offset 16
 6160              		.cfi_offset 6, -16
 6161 0001 4889E5   		movq	%rsp, %rbp
 6162              		.cfi_def_cfa_register 6
 6163 0004 4883EC10 		subq	$16, %rsp
 6164 0008 48897DF8 		movq	%rdi, -8(%rbp)
 6165              	.LBB50:
  90:testSvf2Csvf.cpp **** 	testShift(
 6166              		.loc 3 90 0
 6167 000c 488B45F8 		movq	-8(%rbp), %rax
 6168 0010 48C70000 		movq	$_ZTV22TestFPGALink_testShift+16, (%rax)
 6168      000000
 6169 0017 488B45F8 		movq	-8(%rbp), %rax
 6170 001b 4889C7   		movq	%rax, %rdi
 6171 001e E8000000 		call	_ZN8UnitTest4TestD2Ev
 6171      00
 6172              	.LBE50:
 6173 0023 B8000000 		movl	$0, %eax
 6173      00
 6174 0028 85C0     		testl	%eax, %eax
 6175 002a 740C     		je	.L243
  90:testSvf2Csvf.cpp **** 	testShift(
 6176              		.loc 3 90 0 is_stmt 0 discriminator 1
 6177 002c 488B45F8 		movq	-8(%rbp), %rax
 6178 0030 4889C7   		movq	%rax, %rdi
 6179 0033 E8000000 		call	_ZdlPv
 6179      00
 6180              	.L243:
  90:testSvf2Csvf.cpp **** 	testShift(
 6181              		.loc 3 90 0
 6182 0038 C9       		leave
 6183              		.cfi_def_cfa 7, 8
 6184 0039 C3       		ret
 6185              		.cfi_endproc
 6186              	.LFE1150:
 6188              		.weak	_ZN22TestFPGALink_testShiftD1Ev
 6189              		.set	_ZN22TestFPGALink_testShiftD1Ev,_ZN22TestFPGALink_testShiftD2Ev
 6190              		.section	.text._ZN22TestFPGALink_testShiftD0Ev,"axG",@progbits,_ZN22TestFPGALink_testShiftD0Ev,com
 6191              		.align 2
 6192              		.weak	_ZN22TestFPGALink_testShiftD0Ev
 6194              	_ZN22TestFPGALink_testShiftD0Ev:
 6195              	.LFB1152:
  90:testSvf2Csvf.cpp **** 	testShift(
 6196              		.loc 3 90 0 is_stmt 1
 6197              		.cfi_startproc
 6198 0000 55       		pushq	%rbp
 6199              		.cfi_def_cfa_offset 16
 6200              		.cfi_offset 6, -16
 6201 0001 4889E5   		movq	%rsp, %rbp
 6202              		.cfi_def_cfa_register 6
 6203 0004 4883EC10 		subq	$16, %rsp
 6204 0008 48897DF8 		movq	%rdi, -8(%rbp)
  90:testSvf2Csvf.cpp **** 	testShift(
 6205              		.loc 3 90 0
 6206 000c 488B45F8 		movq	-8(%rbp), %rax
 6207 0010 4889C7   		movq	%rax, %rdi
 6208 0013 E8000000 		call	_ZN22TestFPGALink_testShiftD1Ev
 6208      00
 6209 0018 488B45F8 		movq	-8(%rbp), %rax
 6210 001c 4889C7   		movq	%rax, %rdi
 6211 001f E8000000 		call	_ZdlPv
 6211      00
 6212 0024 C9       		leave
 6213              		.cfi_def_cfa 7, 8
 6214 0025 C3       		ret
 6215              		.cfi_endproc
 6216              	.LFE1152:
 6218              		.weak	_ZTV26TestFPGALink_testReadBytes
 6219              		.section	.rodata._ZTV26TestFPGALink_testReadBytes,"aG",@progbits,_ZTV26TestFPGALink_testReadBytes,
 6220              		.align 32
 6223              	_ZTV26TestFPGALink_testReadBytes:
 6224 0000 00000000 		.quad	0
 6224      00000000 
 6225 0008 00000000 		.quad	_ZTI26TestFPGALink_testReadBytes
 6225      00000000 
 6226 0010 00000000 		.quad	_ZN26TestFPGALink_testReadBytesD1Ev
 6226      00000000 
 6227 0018 00000000 		.quad	_ZN26TestFPGALink_testReadBytesD0Ev
 6227      00000000 
 6228 0020 00000000 		.quad	_ZNK26TestFPGALink_testReadBytes7RunImplEv
 6228      00000000 
 6229              		.section	.text._ZN26TestFPGALink_testReadBytesD2Ev,"axG",@progbits,_ZN26TestFPGALink_testReadBytes
 6230              		.align 2
 6231              		.weak	_ZN26TestFPGALink_testReadBytesD2Ev
 6233              	_ZN26TestFPGALink_testReadBytesD2Ev:
 6234              	.LFB1154:
  42:testSvf2Csvf.cpp **** 	struct Buffer lineBuf;
 6235              		.loc 3 42 0
 6236              		.cfi_startproc
 6237 0000 55       		pushq	%rbp
 6238              		.cfi_def_cfa_offset 16
 6239              		.cfi_offset 6, -16
 6240 0001 4889E5   		movq	%rsp, %rbp
 6241              		.cfi_def_cfa_register 6
 6242 0004 4883EC10 		subq	$16, %rsp
 6243 0008 48897DF8 		movq	%rdi, -8(%rbp)
 6244              	.LBB51:
  42:testSvf2Csvf.cpp **** 	struct Buffer lineBuf;
 6245              		.loc 3 42 0
 6246 000c 488B45F8 		movq	-8(%rbp), %rax
 6247 0010 48C70000 		movq	$_ZTV26TestFPGALink_testReadBytes+16, (%rax)
 6247      000000
 6248 0017 488B45F8 		movq	-8(%rbp), %rax
 6249 001b 4889C7   		movq	%rax, %rdi
 6250 001e E8000000 		call	_ZN8UnitTest4TestD2Ev
 6250      00
 6251              	.LBE51:
 6252 0023 B8000000 		movl	$0, %eax
 6252      00
 6253 0028 85C0     		testl	%eax, %eax
 6254 002a 740C     		je	.L248
  42:testSvf2Csvf.cpp **** 	struct Buffer lineBuf;
 6255              		.loc 3 42 0 is_stmt 0 discriminator 1
 6256 002c 488B45F8 		movq	-8(%rbp), %rax
 6257 0030 4889C7   		movq	%rax, %rdi
 6258 0033 E8000000 		call	_ZdlPv
 6258      00
 6259              	.L248:
  42:testSvf2Csvf.cpp **** 	struct Buffer lineBuf;
 6260              		.loc 3 42 0
 6261 0038 C9       		leave
 6262              		.cfi_def_cfa 7, 8
 6263 0039 C3       		ret
 6264              		.cfi_endproc
 6265              	.LFE1154:
 6267              		.weak	_ZN26TestFPGALink_testReadBytesD1Ev
 6268              		.set	_ZN26TestFPGALink_testReadBytesD1Ev,_ZN26TestFPGALink_testReadBytesD2Ev
 6269              		.section	.text._ZN26TestFPGALink_testReadBytesD0Ev,"axG",@progbits,_ZN26TestFPGALink_testReadBytes
 6270              		.align 2
 6271              		.weak	_ZN26TestFPGALink_testReadBytesD0Ev
 6273              	_ZN26TestFPGALink_testReadBytesD0Ev:
 6274              	.LFB1156:
  42:testSvf2Csvf.cpp **** 	struct Buffer lineBuf;
 6275              		.loc 3 42 0 is_stmt 1
 6276              		.cfi_startproc
 6277 0000 55       		pushq	%rbp
 6278              		.cfi_def_cfa_offset 16
 6279              		.cfi_offset 6, -16
 6280 0001 4889E5   		movq	%rsp, %rbp
 6281              		.cfi_def_cfa_register 6
 6282 0004 4883EC10 		subq	$16, %rsp
 6283 0008 48897DF8 		movq	%rdi, -8(%rbp)
  42:testSvf2Csvf.cpp **** 	struct Buffer lineBuf;
 6284              		.loc 3 42 0
 6285 000c 488B45F8 		movq	-8(%rbp), %rax
 6286 0010 4889C7   		movq	%rax, %rdi
 6287 0013 E8000000 		call	_ZN26TestFPGALink_testReadBytesD1Ev
 6287      00
 6288 0018 488B45F8 		movq	-8(%rbp), %rax
 6289 001c 4889C7   		movq	%rax, %rdi
 6290 001f E8000000 		call	_ZdlPv
 6290      00
 6291 0024 C9       		leave
 6292              		.cfi_def_cfa 7, 8
 6293 0025 C3       		ret
 6294              		.cfi_endproc
 6295              	.LFE1156:
 6297              		.weak	_ZTVN8UnitTest15MemoryOutStreamE
 6298              		.section	.rodata._ZTVN8UnitTest15MemoryOutStreamE,"aG",@progbits,_ZTVN8UnitTest15MemoryOutStreamE,
 6299              		.align 32
 6302              	_ZTVN8UnitTest15MemoryOutStreamE:
 6303 0000 60000000 		.quad	96
 6303      00000000 
 6304 0008 00000000 		.quad	0
 6304      00000000 
 6305 0010 00000000 		.quad	_ZTIN8UnitTest15MemoryOutStreamE
 6305      00000000 
 6306 0018 00000000 		.quad	_ZN8UnitTest15MemoryOutStreamD1Ev
 6306      00000000 
 6307 0020 00000000 		.quad	_ZN8UnitTest15MemoryOutStreamD0Ev
 6307      00000000 
 6308 0028 A0FFFFFF 		.quad	-96
 6308      FFFFFFFF 
 6309 0030 A0FFFFFF 		.quad	-96
 6309      FFFFFFFF 
 6310 0038 00000000 		.quad	_ZTIN8UnitTest15MemoryOutStreamE
 6310      00000000 
 6311 0040 00000000 		.quad	_ZTv0_n24_N8UnitTest15MemoryOutStreamD1Ev
 6311      00000000 
 6312 0048 00000000 		.quad	_ZTv0_n24_N8UnitTest15MemoryOutStreamD0Ev
 6312      00000000 
 6313              		.weak	_ZTTN8UnitTest15MemoryOutStreamE
 6314              		.section	.rodata._ZTTN8UnitTest15MemoryOutStreamE,"aG",@progbits,_ZTVN8UnitTest15MemoryOutStreamE,
 6315              		.align 32
 6318              	_ZTTN8UnitTest15MemoryOutStreamE:
 6319 0000 00000000 		.quad	_ZTVN8UnitTest15MemoryOutStreamE+24
 6319      00000000 
 6320 0008 00000000 		.quad	_ZTCN8UnitTest15MemoryOutStreamE0_St19basic_ostringstreamIcSt11char_traitsIcESaIcEE+24
 6320      00000000 
 6321 0010 00000000 		.quad	_ZTCN8UnitTest15MemoryOutStreamE0_So+24
 6321      00000000 
 6322 0018 00000000 		.quad	_ZTCN8UnitTest15MemoryOutStreamE0_So+64
 6322      00000000 
 6323 0020 00000000 		.quad	_ZTCN8UnitTest15MemoryOutStreamE0_St19basic_ostringstreamIcSt11char_traitsIcESaIcEE+64
 6323      00000000 
 6324 0028 00000000 		.quad	_ZTVN8UnitTest15MemoryOutStreamE+64
 6324      00000000 
 6325              		.hidden	_ZTCN8UnitTest15MemoryOutStreamE0_St19basic_ostringstreamIcSt11char_traitsIcESaIcEE
 6326              		.weak	_ZTCN8UnitTest15MemoryOutStreamE0_St19basic_ostringstreamIcSt11char_traitsIcESaIcEE
 6327              		.section	.rodata._ZTCN8UnitTest15MemoryOutStreamE0_St19basic_ostringstreamIcSt11char_traitsIcESaIc
 6328              		.align 32
 6331              	_ZTCN8UnitTest15MemoryOutStreamE0_St19basic_ostringstreamIcSt11char_traitsIcESaIcEE:
 6332 0000 60000000 		.quad	96
 6332      00000000 
 6333 0008 00000000 		.quad	0
 6333      00000000 
 6334 0010 00000000 		.quad	_ZTISt19basic_ostringstreamIcSt11char_traitsIcESaIcEE
 6334      00000000 
 6335 0018 00000000 		.quad	_ZNSt19basic_ostringstreamIcSt11char_traitsIcESaIcEED1Ev
 6335      00000000 
 6336 0020 00000000 		.quad	_ZNSt19basic_ostringstreamIcSt11char_traitsIcESaIcEED0Ev
 6336      00000000 
 6337 0028 A0FFFFFF 		.quad	-96
 6337      FFFFFFFF 
 6338 0030 A0FFFFFF 		.quad	-96
 6338      FFFFFFFF 
 6339 0038 00000000 		.quad	_ZTISt19basic_ostringstreamIcSt11char_traitsIcESaIcEE
 6339      00000000 
 6340 0040 00000000 		.quad	_ZTv0_n24_NSt19basic_ostringstreamIcSt11char_traitsIcESaIcEED1Ev
 6340      00000000 
 6341 0048 00000000 		.quad	_ZTv0_n24_NSt19basic_ostringstreamIcSt11char_traitsIcESaIcEED0Ev
 6341      00000000 
 6342              		.hidden	_ZTCN8UnitTest15MemoryOutStreamE0_So
 6343              		.weak	_ZTCN8UnitTest15MemoryOutStreamE0_So
 6344              		.section	.rodata._ZTCN8UnitTest15MemoryOutStreamE0_So,"aG",@progbits,_ZTVN8UnitTest15MemoryOutStre
 6345              		.align 32
 6348              	_ZTCN8UnitTest15MemoryOutStreamE0_So:
 6349 0000 60000000 		.quad	96
 6349      00000000 
 6350 0008 00000000 		.quad	0
 6350      00000000 
 6351 0010 00000000 		.quad	_ZTISo
 6351      00000000 
 6352 0018 00000000 		.quad	_ZNSoD1Ev
 6352      00000000 
 6353 0020 00000000 		.quad	_ZNSoD0Ev
 6353      00000000 
 6354 0028 A0FFFFFF 		.quad	-96
 6354      FFFFFFFF 
 6355 0030 A0FFFFFF 		.quad	-96
 6355      FFFFFFFF 
 6356 0038 00000000 		.quad	_ZTISo
 6356      00000000 
 6357 0040 00000000 		.quad	_ZTv0_n24_NSoD1Ev
 6357      00000000 
 6358 0048 00000000 		.quad	_ZTv0_n24_NSoD0Ev
 6358      00000000 
 6359              		.weak	_ZTI27TestFPGALink_testBuildIndex
 6360              		.section	.rodata._ZTI27TestFPGALink_testBuildIndex,"aG",@progbits,_ZTI27TestFPGALink_testBuildInde
 6361              		.align 16
 6364              	_ZTI27TestFPGALink_testBuildIndex:
 6365 0000 00000000 		.quad	_ZTVN10__cxxabiv120__si_class_type_infoE+16
 6365      00000000 
 6366 0008 00000000 		.quad	_ZTS27TestFPGALink_testBuildIndex
 6366      00000000 
 6367 0010 00000000 		.quad	_ZTIN8UnitTest4TestE
 6367      00000000 
 6368              		.weak	_ZTS27TestFPGALink_testBuildIndex
 6369              		.section	.rodata._ZTS27TestFPGALink_testBuildIndex,"aG",@progbits,_ZTS27TestFPGALink_testBuildInde
 6370              		.align 16
 6373              	_ZTS27TestFPGALink_testBuildIndex:
 6374 0000 32375465 		.string	"27TestFPGALink_testBuildIndex"
 6374      73744650 
 6374      47414C69 
 6374      6E6B5F74 
 6374      65737442 
 6375              		.weak	_ZTI29TestFPGALink_testProcessIndex
 6376              		.section	.rodata._ZTI29TestFPGALink_testProcessIndex,"aG",@progbits,_ZTI29TestFPGALink_testProcess
 6377              		.align 16
 6380              	_ZTI29TestFPGALink_testProcessIndex:
 6381 0000 00000000 		.quad	_ZTVN10__cxxabiv120__si_class_type_infoE+16
 6381      00000000 
 6382 0008 00000000 		.quad	_ZTS29TestFPGALink_testProcessIndex
 6382      00000000 
 6383 0010 00000000 		.quad	_ZTIN8UnitTest4TestE
 6383      00000000 
 6384              		.weak	_ZTS29TestFPGALink_testProcessIndex
 6385              		.section	.rodata._ZTS29TestFPGALink_testProcessIndex,"aG",@progbits,_ZTS29TestFPGALink_testProcess
 6386              		.align 32
 6389              	_ZTS29TestFPGALink_testProcessIndex:
 6390 0000 32395465 		.string	"29TestFPGALink_testProcessIndex"
 6390      73744650 
 6390      47414C69 
 6390      6E6B5F74 
 6390      65737450 
 6391              		.weak	_ZTI22TestFPGALink_testParse
 6392              		.section	.rodata._ZTI22TestFPGALink_testParse,"aG",@progbits,_ZTI22TestFPGALink_testParse,comdat
 6393              		.align 16
 6396              	_ZTI22TestFPGALink_testParse:
 6397 0000 00000000 		.quad	_ZTVN10__cxxabiv120__si_class_type_infoE+16
 6397      00000000 
 6398 0008 00000000 		.quad	_ZTS22TestFPGALink_testParse
 6398      00000000 
 6399 0010 00000000 		.quad	_ZTIN8UnitTest4TestE
 6399      00000000 
 6400              		.weak	_ZTS22TestFPGALink_testParse
 6401              		.section	.rodata._ZTS22TestFPGALink_testParse,"aG",@progbits,_ZTS22TestFPGALink_testParse,comdat
 6402              		.align 16
 6405              	_ZTS22TestFPGALink_testParse:
 6406 0000 32325465 		.string	"22TestFPGALink_testParse"
 6406      73744650 
 6406      47414C69 
 6406      6E6B5F74 
 6406      65737450 
 6407              		.weak	_ZTI22TestFPGALink_testShift
 6408              		.section	.rodata._ZTI22TestFPGALink_testShift,"aG",@progbits,_ZTI22TestFPGALink_testShift,comdat
 6409              		.align 16
 6412              	_ZTI22TestFPGALink_testShift:
 6413 0000 00000000 		.quad	_ZTVN10__cxxabiv120__si_class_type_infoE+16
 6413      00000000 
 6414 0008 00000000 		.quad	_ZTS22TestFPGALink_testShift
 6414      00000000 
 6415 0010 00000000 		.quad	_ZTIN8UnitTest4TestE
 6415      00000000 
 6416              		.weak	_ZTS22TestFPGALink_testShift
 6417              		.section	.rodata._ZTS22TestFPGALink_testShift,"aG",@progbits,_ZTS22TestFPGALink_testShift,comdat
 6418              		.align 16
 6421              	_ZTS22TestFPGALink_testShift:
 6422 0000 32325465 		.string	"22TestFPGALink_testShift"
 6422      73744650 
 6422      47414C69 
 6422      6E6B5F74 
 6422      65737453 
 6423              		.weak	_ZTI26TestFPGALink_testReadBytes
 6424              		.section	.rodata._ZTI26TestFPGALink_testReadBytes,"aG",@progbits,_ZTI26TestFPGALink_testReadBytes,
 6425              		.align 16
 6428              	_ZTI26TestFPGALink_testReadBytes:
 6429 0000 00000000 		.quad	_ZTVN10__cxxabiv120__si_class_type_infoE+16
 6429      00000000 
 6430 0008 00000000 		.quad	_ZTS26TestFPGALink_testReadBytes
 6430      00000000 
 6431 0010 00000000 		.quad	_ZTIN8UnitTest4TestE
 6431      00000000 
 6432              		.weak	_ZTS26TestFPGALink_testReadBytes
 6433              		.section	.rodata._ZTS26TestFPGALink_testReadBytes,"aG",@progbits,_ZTS26TestFPGALink_testReadBytes,
 6434              		.align 16
 6437              	_ZTS26TestFPGALink_testReadBytes:
 6438 0000 32365465 		.string	"26TestFPGALink_testReadBytes"
 6438      73744650 
 6438      47414C69 
 6438      6E6B5F74 
 6438      65737452 
 6439              		.weak	_ZTSN8UnitTest15MemoryOutStreamE
 6440              		.section	.rodata._ZTSN8UnitTest15MemoryOutStreamE,"aG",@progbits,_ZTSN8UnitTest15MemoryOutStreamE,
 6441              		.align 16
 6444              	_ZTSN8UnitTest15MemoryOutStreamE:
 6445 0000 4E38556E 		.string	"N8UnitTest15MemoryOutStreamE"
 6445      69745465 
 6445      73743135 
 6445      4D656D6F 
 6445      72794F75 
 6446              		.weak	_ZTIN8UnitTest15MemoryOutStreamE
 6447              		.section	.rodata._ZTIN8UnitTest15MemoryOutStreamE,"aG",@progbits,_ZTIN8UnitTest15MemoryOutStreamE,
 6448              		.align 16
 6451              	_ZTIN8UnitTest15MemoryOutStreamE:
 6452 0000 00000000 		.quad	_ZTVN10__cxxabiv120__si_class_type_infoE+16
 6452      00000000 
 6453 0008 00000000 		.quad	_ZTSN8UnitTest15MemoryOutStreamE
 6453      00000000 
 6454 0010 00000000 		.quad	_ZTISt19basic_ostringstreamIcSt11char_traitsIcESaIcEE
 6454      00000000 
 6455              		.text
 6457              	_Z41__static_initialization_and_destruction_0ii:
 6458              	.LFB1157:
 6459              		.loc 3 855 0
 6460              		.cfi_startproc
 6461 3391 55       		pushq	%rbp
 6462              		.cfi_def_cfa_offset 16
 6463              		.cfi_offset 6, -16
 6464 3392 4889E5   		movq	%rsp, %rbp
 6465              		.cfi_def_cfa_register 6
 6466 3395 4883EC10 		subq	$16, %rsp
 6467 3399 897DFC   		movl	%edi, -4(%rbp)
 6468 339c 8975F8   		movl	%esi, -8(%rbp)
 6469              		.loc 3 855 0
 6470 339f 837DFC01 		cmpl	$1, -4(%rbp)
 6471 33a3 0F851601 		jne	.L253
 6471      0000
 6472              		.loc 3 855 0 is_stmt 0 discriminator 1
 6473 33a9 817DF8FF 		cmpl	$65535, -8(%rbp)
 6473      FF0000
 6474 33b0 0F850901 		jne	.L253
 6474      0000
  42:testSvf2Csvf.cpp **** 	struct Buffer lineBuf;
 6475              		.loc 3 42 0 is_stmt 1
 6476 33b6 BF000000 		movl	$testFPGALink_testReadBytesInstance, %edi
 6476      00
 6477 33bb E8000000 		call	_ZN26TestFPGALink_testReadBytesC1Ev
 6477      00
 6478 33c0 BA000000 		movl	$__dso_handle, %edx
 6478      00
 6479 33c5 BE000000 		movl	$testFPGALink_testReadBytesInstance, %esi
 6479      00
 6480 33ca BF000000 		movl	$_ZN26TestFPGALink_testReadBytesD1Ev, %edi
 6480      00
 6481 33cf E8000000 		call	__cxa_atexit
 6481      00
 6482 33d4 E8000000 		call	_ZN8UnitTest4Test11GetTestListEv
 6482      00
 6483 33d9 BA000000 		movl	$testFPGALink_testReadBytesInstance, %edx
 6483      00
 6484 33de 4889C6   		movq	%rax, %rsi
 6485 33e1 BF000000 		movl	$adderFPGALink_testReadBytes, %edi
 6485      00
 6486 33e6 E8000000 		call	_ZN8UnitTest9ListAdderC1ERNS_8TestListEPNS_4TestE
 6486      00
  90:testSvf2Csvf.cpp **** 	testShift(
 6487              		.loc 3 90 0
 6488 33eb BF000000 		movl	$testFPGALink_testShiftInstance, %edi
 6488      00
 6489 33f0 E8000000 		call	_ZN22TestFPGALink_testShiftC1Ev
 6489      00
 6490 33f5 BA000000 		movl	$__dso_handle, %edx
 6490      00
 6491 33fa BE000000 		movl	$testFPGALink_testShiftInstance, %esi
 6491      00
 6492 33ff BF000000 		movl	$_ZN22TestFPGALink_testShiftD1Ev, %edi
 6492      00
 6493 3404 E8000000 		call	__cxa_atexit
 6493      00
 6494 3409 E8000000 		call	_ZN8UnitTest4Test11GetTestListEv
 6494      00
 6495 340e BA000000 		movl	$testFPGALink_testShiftInstance, %edx
 6495      00
 6496 3413 4889C6   		movq	%rax, %rsi
 6497 3416 BF000000 		movl	$adderFPGALink_testShift, %edi
 6497      00
 6498 341b E8000000 		call	_ZN8UnitTest9ListAdderC1ERNS_8TestListEPNS_4TestE
 6498      00
 596:testSvf2Csvf.cpp **** 	FLStatus fStatus;
 6499              		.loc 3 596 0
 6500 3420 BF000000 		movl	$testFPGALink_testParseInstance, %edi
 6500      00
 6501 3425 E8000000 		call	_ZN22TestFPGALink_testParseC1Ev
 6501      00
 6502 342a BA000000 		movl	$__dso_handle, %edx
 6502      00
 6503 342f BE000000 		movl	$testFPGALink_testParseInstance, %esi
 6503      00
 6504 3434 BF000000 		movl	$_ZN22TestFPGALink_testParseD1Ev, %edi
 6504      00
 6505 3439 E8000000 		call	__cxa_atexit
 6505      00
 6506 343e E8000000 		call	_ZN8UnitTest4Test11GetTestListEv
 6506      00
 6507 3443 BA000000 		movl	$testFPGALink_testParseInstance, %edx
 6507      00
 6508 3448 4889C6   		movq	%rax, %rsi
 6509 344b BF000000 		movl	$adderFPGALink_testParse, %edi
 6509      00
 6510 3450 E8000000 		call	_ZN8UnitTest9ListAdderC1ERNS_8TestListEPNS_4TestE
 6510      00
 657:testSvf2Csvf.cpp **** 	int i, j, num;
 6511              		.loc 3 657 0
 6512 3455 BF000000 		movl	$testFPGALink_testProcessIndexInstance, %edi
 6512      00
 6513 345a E8000000 		call	_ZN29TestFPGALink_testProcessIndexC1Ev
 6513      00
 6514 345f BA000000 		movl	$__dso_handle, %edx
 6514      00
 6515 3464 BE000000 		movl	$testFPGALink_testProcessIndexInstance, %esi
 6515      00
 6516 3469 BF000000 		movl	$_ZN29TestFPGALink_testProcessIndexD1Ev, %edi
 6516      00
 6517 346e E8000000 		call	__cxa_atexit
 6517      00
 6518 3473 E8000000 		call	_ZN8UnitTest4Test11GetTestListEv
 6518      00
 6519 3478 BA000000 		movl	$testFPGALink_testProcessIndexInstance, %edx
 6519      00
 6520 347d 4889C6   		movq	%rax, %rsi
 6521 3480 BF000000 		movl	$adderFPGALink_testProcessIndex, %edi
 6521      00
 6522 3485 E8000000 		call	_ZN8UnitTest9ListAdderC1ERNS_8TestListEPNS_4TestE
 6522      00
 834:testSvf2Csvf.cpp **** 	const uint8 src[] = {
 6523              		.loc 3 834 0
 6524 348a BF000000 		movl	$testFPGALink_testBuildIndexInstance, %edi
 6524      00
 6525 348f E8000000 		call	_ZN27TestFPGALink_testBuildIndexC1Ev
 6525      00
 6526 3494 BA000000 		movl	$__dso_handle, %edx
 6526      00
 6527 3499 BE000000 		movl	$testFPGALink_testBuildIndexInstance, %esi
 6527      00
 6528 349e BF000000 		movl	$_ZN27TestFPGALink_testBuildIndexD1Ev, %edi
 6528      00
 6529 34a3 E8000000 		call	__cxa_atexit
 6529      00
 6530 34a8 E8000000 		call	_ZN8UnitTest4Test11GetTestListEv
 6530      00
 6531 34ad BA000000 		movl	$testFPGALink_testBuildIndexInstance, %edx
 6531      00
 6532 34b2 4889C6   		movq	%rax, %rsi
 6533 34b5 BF000000 		movl	$adderFPGALink_testBuildIndex, %edi
 6533      00
 6534 34ba E8000000 		call	_ZN8UnitTest9ListAdderC1ERNS_8TestListEPNS_4TestE
 6534      00
 6535              	.L253:
 6536              		.loc 3 855 0
 6537 34bf C9       		leave
 6538              		.cfi_def_cfa 7, 8
 6539 34c0 C3       		ret
 6540              		.cfi_endproc
 6541              	.LFE1157:
 6544              	_GLOBAL__sub_I__Z13testReadBytesP6BufferPKc:
 6545              	.LFB1158:
 6546              		.loc 3 855 0
 6547              		.cfi_startproc
 6548 34c1 55       		pushq	%rbp
 6549              		.cfi_def_cfa_offset 16
 6550              		.cfi_offset 6, -16
 6551 34c2 4889E5   		movq	%rsp, %rbp
 6552              		.cfi_def_cfa_register 6
 6553              		.loc 3 855 0
 6554 34c5 BEFFFF00 		movl	$65535, %esi
 6554      00
 6555 34ca BF010000 		movl	$1, %edi
 6555      00
 6556 34cf E8BDFEFF 		call	_Z41__static_initialization_and_destruction_0ii
 6556      FF
 6557 34d4 5D       		popq	%rbp
 6558              		.cfi_def_cfa 7, 8
 6559 34d5 C3       		ret
 6560              		.cfi_endproc
 6561              	.LFE1158:
 6563              		.section	.init_array,"aw"
 6564              		.align 8
 6565 0000 00000000 		.quad	_GLOBAL__sub_I__Z13testReadBytesP6BufferPKc
 6565      00000000 
 6566              		.section	.rodata
 6567 0b49 00000000 		.align 8
 6567      000000
 6570              	_ZZL18__gthread_active_pvE20__gthread_active_ptr:
 6571 0b50 00000000 		.quad	_ZL28__gthrw___pthread_key_createPjPFvPvE
 6571      00000000 
 6572              		.local	_ZZ9renderCxtPK12ParseContextE6result
 6573              		.comm	_ZZ9renderCxtPK12ParseContextE6result,1024,32
 6574              		.weakref	_ZL28__gthrw___pthread_key_createPjPFvPvE,__pthread_key_create
 6575              		.text
 6576              	.Letext0:
 6577              		.file 5 "/usr/lib/gcc/x86_64-linux-gnu/4.8/include/stddef.h"
 6578              		.file 6 "/usr/include/x86_64-linux-gnu/bits/types.h"
 6579              		.file 7 "/usr/include/stdio.h"
 6580              		.file 8 "/usr/include/libio.h"
 6581              		.file 9 "/usr/include/wchar.h"
 6582              		.file 10 "/usr/include/_G_config.h"
 6583              		.file 11 "<built-in>"
 6584              		.file 12 "/usr/include/c++/4.8/cstdio"
 6585              		.file 13 "/usr/include/c++/4.8/cstring"
 6586              		.file 14 "/usr/include/c++/4.8/cwchar"
 6587              		.file 15 "/usr/include/c++/4.8/bits/char_traits.h"
 6588              		.file 16 "/usr/include/x86_64-linux-gnu/c++/4.8/bits/c++config.h"
 6589              		.file 17 "/usr/include/c++/4.8/clocale"
 6590              		.file 18 "/usr/include/c++/4.8/bits/allocator.h"
 6591              		.file 19 "/usr/include/c++/4.8/bits/basic_string.h"
 6592              		.file 20 "/usr/include/c++/4.8/bits/basic_string.tcc"
 6593              		.file 21 "/usr/include/c++/4.8/bits/stringfwd.h"
 6594              		.file 22 "/usr/include/c++/4.8/cwctype"
 6595              		.file 23 "/usr/include/c++/4.8/ext/new_allocator.h"
 6596              		.file 24 "/usr/include/c++/4.8/ext/numeric_traits.h"
 6597              		.file 25 "/usr/include/string.h"
 6598              		.file 26 "/home/pandu/Desktop/DigitalLogicDesign/Lab/03-/makestuff/libs/libutpp/TestDetails.h"
 6599              		.file 27 "/home/pandu/Desktop/DigitalLogicDesign/Lab/03-/makestuff/libs/libutpp/TestList.h"
 6600              		.file 28 "/home/pandu/Desktop/DigitalLogicDesign/Lab/03-/makestuff/libs/libutpp/TestResults.h"
 6601              		.file 29 "/usr/include/time.h"
 6602              		.file 30 "/usr/include/c++/4.8/debug/debug.h"
 6603              		.file 31 "/usr/include/locale.h"
 6604              		.file 32 "/usr/include/x86_64-linux-gnu/c++/4.8/bits/atomic_word.h"
 6605              		.file 33 "/usr/include/wctype.h"
 6606              		.file 34 "/home/pandu/Desktop/DigitalLogicDesign/Lab/03-/makestuff/common/makestuff.h"
 6607              		.file 35 "/home/pandu/Desktop/DigitalLogicDesign/Lab/03-/makestuff/libs/libbuffer/libbuffer.h"
 6608              		.file 36 "../libfpgalink.h"
 6609              		.file 37 "../svf2csvf.h"
 6610              		.file 38 "../xsvf.h"
DEFINED SYMBOLS
                            *ABS*:0000000000000000 testSvf2Csvf.cpp
     /tmp/ccqE6qg1.s:10     .text._ZN13UnitTestSuite12GetSuiteNameEv:0000000000000000 _ZN13UnitTestSuite12GetSuiteNameEv
     /tmp/ccqE6qg1.s:33     .text._ZN8UnitTest15MemoryOutStreamC1Ev:0000000000000000 _ZN8UnitTest15MemoryOutStreamC1Ev
     /tmp/ccqE6qg1.s:6318   .rodata._ZTTN8UnitTest15MemoryOutStreamE:0000000000000000 _ZTTN8UnitTest15MemoryOutStreamE
     /tmp/ccqE6qg1.s:6302   .rodata._ZTVN8UnitTest15MemoryOutStreamE:0000000000000000 _ZTVN8UnitTest15MemoryOutStreamE
     /tmp/ccqE6qg1.s:157    .text:0000000000000000 _Z13testReadBytesP6BufferPKc
     /tmp/ccqE6qg1.s:5231   .text._ZN8UnitTest10CheckEqualI8FLStatusS1_EEvRNS_11TestResultsERKT_RKT0_RKNS_11TestDetailsE:0000000000000000 _ZN8UnitTest10CheckEqualI8FLStatusS1_EEvRNS_11TestResultsERKT_RKT0_RKNS_11TestDetailsE
     /tmp/ccqE6qg1.s:5363   .text._ZN8UnitTest10CheckEqualIjmEEvRNS_11TestResultsERKT_RKT0_RKNS_11TestDetailsE:0000000000000000 _ZN8UnitTest10CheckEqualIjmEEvRNS_11TestResultsERKT_RKT0_RKNS_11TestDetailsE
     /tmp/ccqE6qg1.s:495    .text._ZN26TestFPGALink_testReadBytesC2Ev:0000000000000000 _ZN26TestFPGALink_testReadBytesC2Ev
     /tmp/ccqE6qg1.s:6223   .rodata._ZTV26TestFPGALink_testReadBytes:0000000000000000 _ZTV26TestFPGALink_testReadBytes
     /tmp/ccqE6qg1.s:495    .text._ZN26TestFPGALink_testReadBytesC2Ev:0000000000000000 _ZN26TestFPGALink_testReadBytesC1Ev
     /tmp/ccqE6qg1.s:532    .bss:0000000000000000 testFPGALink_testReadBytesInstance
     /tmp/ccqE6qg1.s:537    .bss:0000000000000038 adderFPGALink_testReadBytes
     /tmp/ccqE6qg1.s:559    .text:000000000000031e _ZNK26TestFPGALink_testReadBytes7RunImplEv
     /tmp/ccqE6qg1.s:5493   .text._ZN8UnitTest10CheckEqualI12BufferStatusS1_EEvRNS_11TestResultsERKT_RKT0_RKNS_11TestDetailsE:0000000000000000 _ZN8UnitTest10CheckEqualI12BufferStatusS1_EEvRNS_11TestResultsERKT_RKT0_RKNS_11TestDetailsE
     /tmp/ccqE6qg1.s:738    .text:0000000000000460 _Z9testShiftPKcjS0_jS0_jS0_
     /tmp/ccqE6qg1.s:5624   .text._ZN8UnitTest10CheckEqualImmEEvRNS_11TestResultsERKT_RKT0_RKNS_11TestDetailsE:0000000000000000 _ZN8UnitTest10CheckEqualImmEEvRNS_11TestResultsERKT_RKT0_RKNS_11TestDetailsE
     /tmp/ccqE6qg1.s:1593   .text._ZN22TestFPGALink_testShiftC2Ev:0000000000000000 _ZN22TestFPGALink_testShiftC2Ev
     /tmp/ccqE6qg1.s:6144   .rodata._ZTV22TestFPGALink_testShift:0000000000000000 _ZTV22TestFPGALink_testShift
     /tmp/ccqE6qg1.s:1593   .text._ZN22TestFPGALink_testShiftC2Ev:0000000000000000 _ZN22TestFPGALink_testShiftC1Ev
     /tmp/ccqE6qg1.s:1630   .bss:0000000000000040 testFPGALink_testShiftInstance
     /tmp/ccqE6qg1.s:1635   .bss:0000000000000078 adderFPGALink_testShift
     /tmp/ccqE6qg1.s:1836   .text:0000000000000cde _ZNK22TestFPGALink_testShift7RunImplEv
     /tmp/ccqE6qg1.s:2522   .text:00000000000019ee _Z11parseStringP12ParseContextPKcP6Buffer
     /tmp/ccqE6qg1.s:2838   .text:0000000000001c5a _Z12renderBufferRPcPK6Buffer
     /tmp/ccqE6qg1.s:2918   .text:0000000000001cfd _Z14renderBitStoreRPcPK8BitStore
     /tmp/ccqE6qg1.s:3009   .text:0000000000001dee _Z9renderCxtPK12ParseContext
     /tmp/ccqE6qg1.s:6573   .bss:0000000000000140 _ZZ9renderCxtPK12ParseContextE6result
     /tmp/ccqE6qg1.s:3129   .text._ZN22TestFPGALink_testParseC2Ev:0000000000000000 _ZN22TestFPGALink_testParseC2Ev
     /tmp/ccqE6qg1.s:6065   .rodata._ZTV22TestFPGALink_testParse:0000000000000000 _ZTV22TestFPGALink_testParse
     /tmp/ccqE6qg1.s:3129   .text._ZN22TestFPGALink_testParseC2Ev:0000000000000000 _ZN22TestFPGALink_testParseC1Ev
     /tmp/ccqE6qg1.s:3166   .bss:0000000000000080 testFPGALink_testParseInstance
     /tmp/ccqE6qg1.s:3171   .bss:00000000000000b8 adderFPGALink_testParse
     /tmp/ccqE6qg1.s:3202   .text:0000000000001f38 _ZNK22TestFPGALink_testParse7RunImplEv
     /tmp/ccqE6qg1.s:3692   .text:000000000000238b _ZL7compareiPKhS0_
     /tmp/ccqE6qg1.s:5753   .text._ZN8UnitTest10CheckEqualIjjEEvRNS_11TestResultsERKT_RKT0_RKNS_11TestDetailsE:0000000000000000 _ZN8UnitTest10CheckEqualIjjEEvRNS_11TestResultsERKT_RKT0_RKNS_11TestDetailsE
     /tmp/ccqE6qg1.s:3941   .text._ZN29TestFPGALink_testProcessIndexC2Ev:0000000000000000 _ZN29TestFPGALink_testProcessIndexC2Ev
     /tmp/ccqE6qg1.s:5986   .rodata._ZTV29TestFPGALink_testProcessIndex:0000000000000000 _ZTV29TestFPGALink_testProcessIndex
     /tmp/ccqE6qg1.s:3941   .text._ZN29TestFPGALink_testProcessIndexC2Ev:0000000000000000 _ZN29TestFPGALink_testProcessIndexC1Ev
     /tmp/ccqE6qg1.s:3978   .bss:00000000000000c0 testFPGALink_testProcessIndexInstance
     /tmp/ccqE6qg1.s:3983   .bss:00000000000000f8 adderFPGALink_testProcessIndex
     /tmp/ccqE6qg1.s:4002   .text:0000000000002564 _ZNK29TestFPGALink_testProcessIndex7RunImplEv
     /tmp/ccqE6qg1.s:5882   .text._ZN8UnitTest5CheckIbEEbT_:0000000000000000 _ZN8UnitTest5CheckIbEEbT_
     /tmp/ccqE6qg1.s:4630   .text._ZN27TestFPGALink_testBuildIndexC2Ev:0000000000000000 _ZN27TestFPGALink_testBuildIndexC2Ev
     /tmp/ccqE6qg1.s:5907   .rodata._ZTV27TestFPGALink_testBuildIndex:0000000000000000 _ZTV27TestFPGALink_testBuildIndex
     /tmp/ccqE6qg1.s:4630   .text._ZN27TestFPGALink_testBuildIndexC2Ev:0000000000000000 _ZN27TestFPGALink_testBuildIndexC1Ev
     /tmp/ccqE6qg1.s:4667   .bss:0000000000000100 testFPGALink_testBuildIndexInstance
     /tmp/ccqE6qg1.s:4672   .bss:0000000000000138 adderFPGALink_testBuildIndex
     /tmp/ccqE6qg1.s:4678   .text:0000000000003004 _ZNK27TestFPGALink_testBuildIndex7RunImplEv
     /tmp/ccqE6qg1.s:5045   .text._ZN8UnitTest15MemoryOutStreamD1Ev:0000000000000000 _ZN8UnitTest15MemoryOutStreamD1Ev
     /tmp/ccqE6qg1.s:5172   .text._ZN8UnitTest15MemoryOutStreamD1Ev:00000000000000c8 _ZTv0_n24_N8UnitTest15MemoryOutStreamD1Ev
     /tmp/ccqE6qg1.s:5186   .text._ZN8UnitTest15MemoryOutStreamD0Ev:0000000000000000 _ZN8UnitTest15MemoryOutStreamD0Ev
     /tmp/ccqE6qg1.s:5213   .text._ZN8UnitTest15MemoryOutStreamD0Ev:0000000000000026 _ZTv0_n24_N8UnitTest15MemoryOutStreamD0Ev
     /tmp/ccqE6qg1.s:6364   .rodata._ZTI27TestFPGALink_testBuildIndex:0000000000000000 _ZTI27TestFPGALink_testBuildIndex
     /tmp/ccqE6qg1.s:5917   .text._ZN27TestFPGALink_testBuildIndexD2Ev:0000000000000000 _ZN27TestFPGALink_testBuildIndexD1Ev
     /tmp/ccqE6qg1.s:5957   .text._ZN27TestFPGALink_testBuildIndexD0Ev:0000000000000000 _ZN27TestFPGALink_testBuildIndexD0Ev
     /tmp/ccqE6qg1.s:5917   .text._ZN27TestFPGALink_testBuildIndexD2Ev:0000000000000000 _ZN27TestFPGALink_testBuildIndexD2Ev
     /tmp/ccqE6qg1.s:6380   .rodata._ZTI29TestFPGALink_testProcessIndex:0000000000000000 _ZTI29TestFPGALink_testProcessIndex
     /tmp/ccqE6qg1.s:5996   .text._ZN29TestFPGALink_testProcessIndexD2Ev:0000000000000000 _ZN29TestFPGALink_testProcessIndexD1Ev
     /tmp/ccqE6qg1.s:6036   .text._ZN29TestFPGALink_testProcessIndexD0Ev:0000000000000000 _ZN29TestFPGALink_testProcessIndexD0Ev
     /tmp/ccqE6qg1.s:5996   .text._ZN29TestFPGALink_testProcessIndexD2Ev:0000000000000000 _ZN29TestFPGALink_testProcessIndexD2Ev
     /tmp/ccqE6qg1.s:6396   .rodata._ZTI22TestFPGALink_testParse:0000000000000000 _ZTI22TestFPGALink_testParse
     /tmp/ccqE6qg1.s:6075   .text._ZN22TestFPGALink_testParseD2Ev:0000000000000000 _ZN22TestFPGALink_testParseD1Ev
     /tmp/ccqE6qg1.s:6115   .text._ZN22TestFPGALink_testParseD0Ev:0000000000000000 _ZN22TestFPGALink_testParseD0Ev
     /tmp/ccqE6qg1.s:6075   .text._ZN22TestFPGALink_testParseD2Ev:0000000000000000 _ZN22TestFPGALink_testParseD2Ev
     /tmp/ccqE6qg1.s:6412   .rodata._ZTI22TestFPGALink_testShift:0000000000000000 _ZTI22TestFPGALink_testShift
     /tmp/ccqE6qg1.s:6154   .text._ZN22TestFPGALink_testShiftD2Ev:0000000000000000 _ZN22TestFPGALink_testShiftD1Ev
     /tmp/ccqE6qg1.s:6194   .text._ZN22TestFPGALink_testShiftD0Ev:0000000000000000 _ZN22TestFPGALink_testShiftD0Ev
     /tmp/ccqE6qg1.s:6154   .text._ZN22TestFPGALink_testShiftD2Ev:0000000000000000 _ZN22TestFPGALink_testShiftD2Ev
     /tmp/ccqE6qg1.s:6428   .rodata._ZTI26TestFPGALink_testReadBytes:0000000000000000 _ZTI26TestFPGALink_testReadBytes
     /tmp/ccqE6qg1.s:6233   .text._ZN26TestFPGALink_testReadBytesD2Ev:0000000000000000 _ZN26TestFPGALink_testReadBytesD1Ev
     /tmp/ccqE6qg1.s:6273   .text._ZN26TestFPGALink_testReadBytesD0Ev:0000000000000000 _ZN26TestFPGALink_testReadBytesD0Ev
     /tmp/ccqE6qg1.s:6233   .text._ZN26TestFPGALink_testReadBytesD2Ev:0000000000000000 _ZN26TestFPGALink_testReadBytesD2Ev
     /tmp/ccqE6qg1.s:6451   .rodata._ZTIN8UnitTest15MemoryOutStreamE:0000000000000000 _ZTIN8UnitTest15MemoryOutStreamE
     /tmp/ccqE6qg1.s:6331   .rodata._ZTCN8UnitTest15MemoryOutStreamE0_St19basic_ostringstreamIcSt11char_traitsIcESaIcEE:0000000000000000 _ZTCN8UnitTest15MemoryOutStreamE0_St19basic_ostringstreamIcSt11char_traitsIcESaIcEE
     /tmp/ccqE6qg1.s:6348   .rodata._ZTCN8UnitTest15MemoryOutStreamE0_So:0000000000000000 _ZTCN8UnitTest15MemoryOutStreamE0_So
     /tmp/ccqE6qg1.s:6373   .rodata._ZTS27TestFPGALink_testBuildIndex:0000000000000000 _ZTS27TestFPGALink_testBuildIndex
     /tmp/ccqE6qg1.s:6389   .rodata._ZTS29TestFPGALink_testProcessIndex:0000000000000000 _ZTS29TestFPGALink_testProcessIndex
     /tmp/ccqE6qg1.s:6405   .rodata._ZTS22TestFPGALink_testParse:0000000000000000 _ZTS22TestFPGALink_testParse
     /tmp/ccqE6qg1.s:6421   .rodata._ZTS22TestFPGALink_testShift:0000000000000000 _ZTS22TestFPGALink_testShift
     /tmp/ccqE6qg1.s:6437   .rodata._ZTS26TestFPGALink_testReadBytes:0000000000000000 _ZTS26TestFPGALink_testReadBytes
     /tmp/ccqE6qg1.s:6444   .rodata._ZTSN8UnitTest15MemoryOutStreamE:0000000000000000 _ZTSN8UnitTest15MemoryOutStreamE
     /tmp/ccqE6qg1.s:6457   .text:0000000000003391 _Z41__static_initialization_and_destruction_0ii
     /tmp/ccqE6qg1.s:6544   .text:00000000000034c1 _GLOBAL__sub_I__Z13testReadBytesP6BufferPKc
     /tmp/ccqE6qg1.s:6570   .rodata:0000000000000b50 _ZZL18__gthread_active_pvE20__gthread_active_ptr
                           .group:0000000000000000 _ZN26TestFPGALink_testReadBytesC5Ev
                           .group:0000000000000000 _ZN22TestFPGALink_testShiftC5Ev
                           .group:0000000000000000 _ZN22TestFPGALink_testParseC5Ev
                           .group:0000000000000000 _ZN29TestFPGALink_testProcessIndexC5Ev
                           .group:0000000000000000 _ZN27TestFPGALink_testBuildIndexC5Ev
                           .group:0000000000000000 _ZN27TestFPGALink_testBuildIndexD5Ev
                           .group:0000000000000000 _ZN29TestFPGALink_testProcessIndexD5Ev
                           .group:0000000000000000 _ZN22TestFPGALink_testParseD5Ev
                           .group:0000000000000000 _ZN22TestFPGALink_testShiftD5Ev
                           .group:0000000000000000 _ZN26TestFPGALink_testReadBytesD5Ev

UNDEFINED SYMBOLS
__gxx_personality_v0
_ZNSt9basic_iosIcSt11char_traitsIcEEC2Ev
_ZNSt19basic_ostringstreamIcSt11char_traitsIcESaIcEEC2ESt13_Ios_Openmode
_ZNSsC1Ev
_ZNSt19basic_ostringstreamIcSt11char_traitsIcESaIcEED2Ev
_ZNSt9basic_iosIcSt11char_traitsIcEED2Ev
_Unwind_Resume
strlen
bufZeroLength
readBytes
_ZN8UnitTest11CurrentTest7DetailsEv
_ZN8UnitTest11TestDetailsC1ERKS0_i
_ZN8UnitTest11CurrentTest7ResultsEv
sprintf
_ZN8UnitTest10CheckEqualERNS_11TestResultsEPKcPcRKNS_11TestDetailsE
__cxa_end_catch
__cxa_begin_catch
_ZN8UnitTest11TestResults13OnTestFailureERKNS_11TestDetailsEPKc
__stack_chk_fail
_ZN8UnitTest4TestC2EPKcS2_S2_i
bufInitialise
bufDestroy
headTail
bufAppendBlock
parseLine
cxtInitialise
_ZN8UnitTest10CheckEqualERNS_11TestResultsEPKcS3_RKNS_11TestDetailsE
cxtDestroy
getCmdName
printf
readLongBE
processIndex
memset
buildIndex
_ZNSsD1Ev
_ZdlPv
_ZStlsISt11char_traitsIcEERSt13basic_ostreamIcT_ES5_PKc
_ZNSolsEi
_ZNK8UnitTest15MemoryOutStream7GetTextEv
_ZNSolsEj
_ZNSolsEm
_ZN8UnitTest4TestD2Ev
_ZTISt19basic_ostringstreamIcSt11char_traitsIcESaIcEE
_ZNSt19basic_ostringstreamIcSt11char_traitsIcESaIcEED1Ev
_ZNSt19basic_ostringstreamIcSt11char_traitsIcESaIcEED0Ev
_ZTv0_n24_NSt19basic_ostringstreamIcSt11char_traitsIcESaIcEED1Ev
_ZTv0_n24_NSt19basic_ostringstreamIcSt11char_traitsIcESaIcEED0Ev
_ZTISo
_ZNSoD1Ev
_ZNSoD0Ev
_ZTv0_n24_NSoD1Ev
_ZTv0_n24_NSoD0Ev
_ZTVN10__cxxabiv120__si_class_type_infoE
_ZTIN8UnitTest4TestE
__dso_handle
__cxa_atexit
_ZN8UnitTest4Test11GetTestListEv
_ZN8UnitTest9ListAdderC1ERNS_8TestListEPNS_4TestE
__pthread_key_create
